ARM GAS  /var/folders/lx/hc4sn_b53233_zkc9xbbl97r0000gp/T//ccelh153.s 			page 1


   1              		.cpu cortex-m4
   2              		.eabi_attribute 27, 1
   3              		.eabi_attribute 28, 1
   4              		.eabi_attribute 20, 1
   5              		.eabi_attribute 21, 1
   6              		.eabi_attribute 23, 3
   7              		.eabi_attribute 24, 1
   8              		.eabi_attribute 25, 1
   9              		.eabi_attribute 26, 1
  10              		.eabi_attribute 30, 1
  11              		.eabi_attribute 34, 1
  12              		.eabi_attribute 18, 4
  13              		.file	"Dev_5DirButton.c"
  14              		.text
  15              	.Ltext0:
  16              		.cfi_sections	.debug_frame
  17              		.section	.text.Dev5DirButton_Open,"ax",%progbits
  18              		.align	1
  19              		.arch armv7e-m
  20              		.syntax unified
  21              		.thumb
  22              		.thumb_func
  23              		.fpu fpv4-sp-d16
  25              	Dev5DirButton_Open:
  26              	.LVL0:
  27              	.LFB123:
  28              		.file 1 "Dev/Dev_5DirButton.c"
   1:Dev/Dev_5DirButton.c **** #include "Dev_5DirButton.h"
   2:Dev/Dev_5DirButton.c **** #include "drv_gpio.h"
   3:Dev/Dev_5DirButton.c **** #include <string.h>
   4:Dev/Dev_5DirButton.c **** 
   5:Dev/Dev_5DirButton.c **** /* internal variable */
   6:Dev/Dev_5DirButton.c **** static uint8_t DirButton_Sum = 0;
   7:Dev/Dev_5DirButton.c **** 
   8:Dev/Dev_5DirButton.c **** /* internal function */
   9:Dev/Dev_5DirButton.c **** static bool Dev5DirButton_Open(DirButton_Obj_TypeDef *obj, DrvGPIO_Obj_TypeDef *io, uint8_t io_num)
  10:Dev/Dev_5DirButton.c **** static bool Dev5DirButton_Invert(DirButton_Obj_TypeDef *obj, uint8_t val);
  11:Dev/Dev_5DirButton.c **** static DirButton_Val_List Dev5DirButton_Get(DirButton_Obj_TypeDef *obj);
  12:Dev/Dev_5DirButton.c **** 
  13:Dev/Dev_5DirButton.c **** static uint8_t Dev5DirButton_Get_Sum(void);
  14:Dev/Dev_5DirButton.c **** 
  15:Dev/Dev_5DirButton.c **** /* external variable */
  16:Dev/Dev_5DirButton.c **** Dev5DirButton_TypeDef Dev5DirBtn = {
  17:Dev/Dev_5DirButton.c ****     .open = Dev5DirButton_Open,
  18:Dev/Dev_5DirButton.c ****     .invert = Dev5DirButton_Invert,
  19:Dev/Dev_5DirButton.c ****     .get = Dev5DirButton_Get,
  20:Dev/Dev_5DirButton.c **** };
  21:Dev/Dev_5DirButton.c **** 
  22:Dev/Dev_5DirButton.c **** static bool Dev5DirButton_Open(DirButton_Obj_TypeDef *obj, DrvGPIO_Obj_TypeDef *io, uint8_t io_num)
  23:Dev/Dev_5DirButton.c **** {
  29              		.loc 1 23 1 view -0
  30              		.cfi_startproc
  31              		@ args = 0, pretend = 0, frame = 0
  32              		@ frame_needed = 0, uses_anonymous_args = 0
  33              		.loc 1 23 1 is_stmt 0 view .LVU1
  34 0000 70B5     		push	{r4, r5, r6, lr}
  35              	.LCFI0:
ARM GAS  /var/folders/lx/hc4sn_b53233_zkc9xbbl97r0000gp/T//ccelh153.s 			page 2


  36              		.cfi_def_cfa_offset 16
  37              		.cfi_offset 4, -16
  38              		.cfi_offset 5, -12
  39              		.cfi_offset 6, -8
  40              		.cfi_offset 14, -4
  24:Dev/Dev_5DirButton.c ****     if ((obj == NULL) || (io == NULL) || (io_num != Dir_IO_Sum))
  41              		.loc 1 24 5 is_stmt 1 view .LVU2
  42              		.loc 1 24 8 is_stmt 0 view .LVU3
  43 0002 0646     		mov	r6, r0
  44 0004 18B1     		cbz	r0, .L2
  45 0006 1546     		mov	r5, r2
  46              		.loc 1 24 23 discriminator 1 view .LVU4
  47 0008 09B1     		cbz	r1, .L2
  48              		.loc 1 24 39 discriminator 2 view .LVU5
  49 000a 052A     		cmp	r2, #5
  50 000c 02D0     		beq	.L3
  51              	.L2:
  25:Dev/Dev_5DirButton.c ****     {
  26:Dev/Dev_5DirButton.c ****         obj->init_state = false;
  52              		.loc 1 26 9 is_stmt 1 view .LVU6
  53              		.loc 1 26 25 is_stmt 0 view .LVU7
  54 000e 0020     		movs	r0, #0
  55              	.LVL1:
  56              		.loc 1 26 25 view .LVU8
  57 0010 3070     		strb	r0, [r6]
  27:Dev/Dev_5DirButton.c ****         return false;
  58              		.loc 1 27 9 is_stmt 1 view .LVU9
  59              	.LVL2:
  60              	.L4:
  28:Dev/Dev_5DirButton.c ****     }
  29:Dev/Dev_5DirButton.c **** 
  30:Dev/Dev_5DirButton.c ****     obj->invert_reg = None_Invert;
  31:Dev/Dev_5DirButton.c **** 
  32:Dev/Dev_5DirButton.c ****     for (uint8_t i = 0; i < io_num; i++)
  33:Dev/Dev_5DirButton.c ****     {
  34:Dev/Dev_5DirButton.c ****         /* ToDo IO Init */
  35:Dev/Dev_5DirButton.c ****         DrvGPIO.open(&obj[i], GPIO_Input, NULL);
  36:Dev/Dev_5DirButton.c ****     }
  37:Dev/Dev_5DirButton.c **** 
  38:Dev/Dev_5DirButton.c ****     obj->init_state = true;
  39:Dev/Dev_5DirButton.c ****     return true;
  40:Dev/Dev_5DirButton.c **** }
  61              		.loc 1 40 1 is_stmt 0 view .LVU10
  62 0012 70BD     		pop	{r4, r5, r6, pc}
  63              	.LVL3:
  64              	.L3:
  30:Dev/Dev_5DirButton.c **** 
  65              		.loc 1 30 5 is_stmt 1 view .LVU11
  30:Dev/Dev_5DirButton.c **** 
  66              		.loc 1 30 21 is_stmt 0 view .LVU12
  67 0014 0024     		movs	r4, #0
  68 0016 4470     		strb	r4, [r0, #1]
  32:Dev/Dev_5DirButton.c ****     {
  69              		.loc 1 32 5 is_stmt 1 view .LVU13
  70              	.LBB2:
  32:Dev/Dev_5DirButton.c ****     {
  71              		.loc 1 32 10 view .LVU14
ARM GAS  /var/folders/lx/hc4sn_b53233_zkc9xbbl97r0000gp/T//ccelh153.s 			page 3


  72              	.LVL4:
  32:Dev/Dev_5DirButton.c ****     {
  73              		.loc 1 32 5 is_stmt 0 view .LVU15
  74 0018 09E0     		b	.L5
  75              	.LVL5:
  76              	.L6:
  35:Dev/Dev_5DirButton.c ****     }
  77              		.loc 1 35 9 is_stmt 1 discriminator 3 view .LVU16
  35:Dev/Dev_5DirButton.c ****     }
  78              		.loc 1 35 16 is_stmt 0 discriminator 3 view .LVU17
  79 001a 074B     		ldr	r3, .L8
  80 001c 1B68     		ldr	r3, [r3]
  35:Dev/Dev_5DirButton.c ****     }
  81              		.loc 1 35 9 discriminator 3 view .LVU18
  82 001e 0022     		movs	r2, #0
  83 0020 0121     		movs	r1, #1
  84 0022 5420     		movs	r0, #84
  85 0024 00FB0460 		mla	r0, r0, r4, r6
  86 0028 9847     		blx	r3
  87              	.LVL6:
  32:Dev/Dev_5DirButton.c ****     {
  88              		.loc 1 32 37 is_stmt 1 discriminator 3 view .LVU19
  32:Dev/Dev_5DirButton.c ****     {
  89              		.loc 1 32 38 is_stmt 0 discriminator 3 view .LVU20
  90 002a 0134     		adds	r4, r4, #1
  91              	.LVL7:
  32:Dev/Dev_5DirButton.c ****     {
  92              		.loc 1 32 38 discriminator 3 view .LVU21
  93 002c E4B2     		uxtb	r4, r4
  94              	.LVL8:
  95              	.L5:
  32:Dev/Dev_5DirButton.c ****     {
  96              		.loc 1 32 25 is_stmt 1 discriminator 1 view .LVU22
  32:Dev/Dev_5DirButton.c ****     {
  97              		.loc 1 32 5 is_stmt 0 discriminator 1 view .LVU23
  98 002e AC42     		cmp	r4, r5
  99 0030 F3D3     		bcc	.L6
 100              	.LBE2:
  38:Dev/Dev_5DirButton.c ****     return true;
 101              		.loc 1 38 5 is_stmt 1 view .LVU24
  38:Dev/Dev_5DirButton.c ****     return true;
 102              		.loc 1 38 21 is_stmt 0 view .LVU25
 103 0032 0120     		movs	r0, #1
 104 0034 3070     		strb	r0, [r6]
  39:Dev/Dev_5DirButton.c **** }
 105              		.loc 1 39 5 is_stmt 1 view .LVU26
  39:Dev/Dev_5DirButton.c **** }
 106              		.loc 1 39 12 is_stmt 0 view .LVU27
 107 0036 ECE7     		b	.L4
 108              	.L9:
 109              		.align	2
 110              	.L8:
 111 0038 00000000 		.word	DrvGPIO
 112              		.cfi_endproc
 113              	.LFE123:
 115              		.section	.text.Dev5DirButton_Invert,"ax",%progbits
 116              		.align	1
ARM GAS  /var/folders/lx/hc4sn_b53233_zkc9xbbl97r0000gp/T//ccelh153.s 			page 4


 117              		.syntax unified
 118              		.thumb
 119              		.thumb_func
 120              		.fpu fpv4-sp-d16
 122              	Dev5DirButton_Invert:
 123              	.LVL9:
 124              	.LFB125:
  41:Dev/Dev_5DirButton.c **** 
  42:Dev/Dev_5DirButton.c **** static uint8_t Dev5DirButton_Get_Sum(void)
  43:Dev/Dev_5DirButton.c **** {
  44:Dev/Dev_5DirButton.c ****     return DirButton_Sum;
  45:Dev/Dev_5DirButton.c **** }
  46:Dev/Dev_5DirButton.c **** 
  47:Dev/Dev_5DirButton.c **** static bool Dev5DirButton_Invert(DirButton_Obj_TypeDef *obj, uint8_t val)
  48:Dev/Dev_5DirButton.c **** {
 125              		.loc 1 48 1 is_stmt 1 view -0
 126              		.cfi_startproc
 127              		@ args = 0, pretend = 0, frame = 0
 128              		@ frame_needed = 0, uses_anonymous_args = 0
 129              		@ link register save eliminated.
  49:Dev/Dev_5DirButton.c ****     if ((obj == NULL) || (!obj->init_state) || (val > 0x1F))
 130              		.loc 1 49 5 view .LVU29
 131              		.loc 1 49 8 is_stmt 0 view .LVU30
 132 0000 0346     		mov	r3, r0
 133 0002 28B1     		cbz	r0, .L12
 134              		.loc 1 49 31 discriminator 1 view .LVU31
 135 0004 0078     		ldrb	r0, [r0]	@ zero_extendqisi2
 136              	.LVL10:
 137              		.loc 1 49 23 discriminator 1 view .LVU32
 138 0006 30B1     		cbz	r0, .L11
 139              		.loc 1 49 45 discriminator 2 view .LVU33
 140 0008 1F29     		cmp	r1, #31
 141 000a 03D8     		bhi	.L13
  50:Dev/Dev_5DirButton.c ****         return false;
  51:Dev/Dev_5DirButton.c **** 
  52:Dev/Dev_5DirButton.c ****     obj->invert_reg = val;
 142              		.loc 1 52 5 is_stmt 1 view .LVU34
 143              		.loc 1 52 21 is_stmt 0 view .LVU35
 144 000c 5970     		strb	r1, [r3, #1]
  53:Dev/Dev_5DirButton.c **** 
  54:Dev/Dev_5DirButton.c ****     return true;
 145              		.loc 1 54 5 is_stmt 1 view .LVU36
 146              		.loc 1 54 12 is_stmt 0 view .LVU37
 147 000e 7047     		bx	lr
 148              	.LVL11:
 149              	.L12:
  50:Dev/Dev_5DirButton.c ****         return false;
 150              		.loc 1 50 16 view .LVU38
 151 0010 0020     		movs	r0, #0
 152              	.LVL12:
  50:Dev/Dev_5DirButton.c ****         return false;
 153              		.loc 1 50 16 view .LVU39
 154 0012 7047     		bx	lr
 155              	.L13:
 156 0014 0020     		movs	r0, #0
 157              	.L11:
  55:Dev/Dev_5DirButton.c **** }
ARM GAS  /var/folders/lx/hc4sn_b53233_zkc9xbbl97r0000gp/T//ccelh153.s 			page 5


 158              		.loc 1 55 1 view .LVU40
 159 0016 7047     		bx	lr
 160              		.cfi_endproc
 161              	.LFE125:
 163              		.section	.text.Dev5DirButton_Get,"ax",%progbits
 164              		.align	1
 165              		.syntax unified
 166              		.thumb
 167              		.thumb_func
 168              		.fpu fpv4-sp-d16
 170              	Dev5DirButton_Get:
 171              	.LVL13:
 172              	.LFB126:
  56:Dev/Dev_5DirButton.c **** 
  57:Dev/Dev_5DirButton.c **** static DirButton_Val_List Dev5DirButton_Get(DirButton_Obj_TypeDef *obj)
  58:Dev/Dev_5DirButton.c **** {
 173              		.loc 1 58 1 is_stmt 1 view -0
 174              		.cfi_startproc
 175              		@ args = 0, pretend = 0, frame = 0
 176              		@ frame_needed = 0, uses_anonymous_args = 0
 177              		.loc 1 58 1 is_stmt 0 view .LVU42
 178 0000 F8B5     		push	{r3, r4, r5, r6, r7, lr}
 179              	.LCFI1:
 180              		.cfi_def_cfa_offset 24
 181              		.cfi_offset 3, -24
 182              		.cfi_offset 4, -20
 183              		.cfi_offset 5, -16
 184              		.cfi_offset 6, -12
 185              		.cfi_offset 7, -8
 186              		.cfi_offset 14, -4
  59:Dev/Dev_5DirButton.c ****     uint8_t io_val = 0;
 187              		.loc 1 59 5 is_stmt 1 view .LVU43
 188              	.LVL14:
  60:Dev/Dev_5DirButton.c ****     uint8_t io_val_tmp = 0;
 189              		.loc 1 60 5 view .LVU44
  61:Dev/Dev_5DirButton.c ****     uint8_t hit_cnt = 0;
 190              		.loc 1 61 5 view .LVU45
  62:Dev/Dev_5DirButton.c **** 
  63:Dev/Dev_5DirButton.c ****     if ((obj == NULL) || (!obj->init_state))
 191              		.loc 1 63 5 view .LVU46
 192              		.loc 1 63 8 is_stmt 0 view .LVU47
 193 0002 0028     		cmp	r0, #0
 194 0004 40D0     		beq	.L22
 195 0006 0746     		mov	r7, r0
 196              		.loc 1 63 31 discriminator 1 view .LVU48
 197 0008 0378     		ldrb	r3, [r0]	@ zero_extendqisi2
 198              		.loc 1 63 23 discriminator 1 view .LVU49
 199 000a C3B1     		cbz	r3, .L26
 200              	.LBB3:
  64:Dev/Dev_5DirButton.c ****         return Dir_Err;
  65:Dev/Dev_5DirButton.c **** 
  66:Dev/Dev_5DirButton.c ****     for (uint8_t i = 0; i < Dir_IO_Sum; i++)
 201              		.loc 1 66 18 view .LVU50
 202 000c 0024     		movs	r4, #0
 203              	.LBE3:
  61:Dev/Dev_5DirButton.c **** 
 204              		.loc 1 61 13 view .LVU51
ARM GAS  /var/folders/lx/hc4sn_b53233_zkc9xbbl97r0000gp/T//ccelh153.s 			page 6


 205 000e 2646     		mov	r6, r4
  59:Dev/Dev_5DirButton.c ****     uint8_t io_val_tmp = 0;
 206              		.loc 1 59 13 view .LVU52
 207 0010 2546     		mov	r5, r4
 208              	.LVL15:
 209              	.L16:
 210              	.LBB4:
 211              		.loc 1 66 25 is_stmt 1 discriminator 1 view .LVU53
 212              		.loc 1 66 5 is_stmt 0 discriminator 1 view .LVU54
 213 0012 042C     		cmp	r4, #4
 214 0014 18D8     		bhi	.L27
  67:Dev/Dev_5DirButton.c ****     {
  68:Dev/Dev_5DirButton.c ****         if (DrvGPIO.get(&obj->IO[i]))
 215              		.loc 1 68 9 is_stmt 1 view .LVU55
 216              		.loc 1 68 20 is_stmt 0 view .LVU56
 217 0016 1D4B     		ldr	r3, .L28
 218 0018 DB68     		ldr	r3, [r3, #12]
 219              		.loc 1 68 13 view .LVU57
 220 001a 07EB0410 		add	r0, r7, r4, lsl #4
 221 001e 0430     		adds	r0, r0, #4
 222 0020 9847     		blx	r3
 223              	.LVL16:
 224              		.loc 1 68 12 view .LVU58
 225 0022 28B1     		cbz	r0, .L17
  69:Dev/Dev_5DirButton.c ****         {
  70:Dev/Dev_5DirButton.c ****             io_val |= SetBit(i);
 226              		.loc 1 70 13 is_stmt 1 view .LVU59
 227              		.loc 1 70 23 is_stmt 0 view .LVU60
 228 0024 0123     		movs	r3, #1
 229 0026 A340     		lsls	r3, r3, r4
 230              		.loc 1 70 20 view .LVU61
 231 0028 1D43     		orrs	r5, r5, r3
 232              	.LVL17:
 233              		.loc 1 70 20 view .LVU62
 234 002a EDB2     		uxtb	r5, r5
 235              	.LVL18:
  71:Dev/Dev_5DirButton.c ****             hit_cnt++;
 236              		.loc 1 71 13 is_stmt 1 view .LVU63
 237              		.loc 1 71 20 is_stmt 0 view .LVU64
 238 002c 0136     		adds	r6, r6, #1
 239              	.LVL19:
 240              		.loc 1 71 20 view .LVU65
 241 002e F6B2     		uxtb	r6, r6
 242              	.LVL20:
 243              	.L17:
  72:Dev/Dev_5DirButton.c ****         }
  73:Dev/Dev_5DirButton.c **** 
  74:Dev/Dev_5DirButton.c ****         /* except mid button, other button detect been hit at same time then return error */
  75:Dev/Dev_5DirButton.c ****         if ((hit_cnt > 1) && (i < Dir_IO_Mid))
 244              		.loc 1 75 9 is_stmt 1 view .LVU66
 245              		.loc 1 75 12 is_stmt 0 view .LVU67
 246 0030 012E     		cmp	r6, #1
 247 0032 06D9     		bls	.L18
 248              		.loc 1 75 27 discriminator 1 view .LVU68
 249 0034 032C     		cmp	r4, #3
 250 0036 04D8     		bhi	.L18
  76:Dev/Dev_5DirButton.c ****         {
ARM GAS  /var/folders/lx/hc4sn_b53233_zkc9xbbl97r0000gp/T//ccelh153.s 			page 7


  77:Dev/Dev_5DirButton.c ****             return Dir_Err;
 251              		.loc 1 77 20 view .LVU69
 252 0038 0525     		movs	r5, #5
 253              	.LVL21:
 254              	.L15:
 255              		.loc 1 77 20 view .LVU70
 256              	.LBE4:
  78:Dev/Dev_5DirButton.c ****         }
  79:Dev/Dev_5DirButton.c ****     }
  80:Dev/Dev_5DirButton.c **** 
  81:Dev/Dev_5DirButton.c ****     if (obj->invert_reg & Axis_X_Invert)
  82:Dev/Dev_5DirButton.c ****     {
  83:Dev/Dev_5DirButton.c ****         io_val_tmp = io_val;
  84:Dev/Dev_5DirButton.c **** 
  85:Dev/Dev_5DirButton.c ****         io_val_tmp &= 0x0C;
  86:Dev/Dev_5DirButton.c ****         io_val_tmp = ~io_val_tmp;
  87:Dev/Dev_5DirButton.c **** 
  88:Dev/Dev_5DirButton.c ****         io_val &= ~0x0C;
  89:Dev/Dev_5DirButton.c ****         io_val |= io_val_tmp;
  90:Dev/Dev_5DirButton.c ****     }
  91:Dev/Dev_5DirButton.c **** 
  92:Dev/Dev_5DirButton.c ****     if (obj->invert_reg & Axis_Y_Invert)
  93:Dev/Dev_5DirButton.c ****     {
  94:Dev/Dev_5DirButton.c ****         io_val_tmp = io_val;
  95:Dev/Dev_5DirButton.c **** 
  96:Dev/Dev_5DirButton.c ****         io_val_tmp &= 0x03;
  97:Dev/Dev_5DirButton.c ****         io_val_tmp = ~io_val_tmp;
  98:Dev/Dev_5DirButton.c **** 
  99:Dev/Dev_5DirButton.c ****         io_val &= ~0x03;
 100:Dev/Dev_5DirButton.c ****         io_val |= io_val_tmp;
 101:Dev/Dev_5DirButton.c ****     }
 102:Dev/Dev_5DirButton.c **** 
 103:Dev/Dev_5DirButton.c ****     if (obj->invert_reg & Mid_Invert)
 104:Dev/Dev_5DirButton.c ****     {
 105:Dev/Dev_5DirButton.c ****         io_val_tmp = io_val;
 106:Dev/Dev_5DirButton.c **** 
 107:Dev/Dev_5DirButton.c ****         io_val_tmp &= 0x10;
 108:Dev/Dev_5DirButton.c ****         io_val_tmp = ~io_val_tmp;
 109:Dev/Dev_5DirButton.c **** 
 110:Dev/Dev_5DirButton.c ****         io_val &= ~0x10;
 111:Dev/Dev_5DirButton.c ****         io_val |= io_val_tmp;
 112:Dev/Dev_5DirButton.c ****     }
 113:Dev/Dev_5DirButton.c **** 
 114:Dev/Dev_5DirButton.c ****     return io_val;
 115:Dev/Dev_5DirButton.c **** }
 257              		.loc 1 115 1 view .LVU71
 258 003a 2846     		mov	r0, r5
 259 003c F8BD     		pop	{r3, r4, r5, r6, r7, pc}
 260              	.LVL22:
 261              	.L26:
  64:Dev/Dev_5DirButton.c **** 
 262              		.loc 1 64 16 view .LVU72
 263 003e 0525     		movs	r5, #5
 264 0040 FBE7     		b	.L15
 265              	.LVL23:
 266              	.L18:
 267              	.LBB5:
ARM GAS  /var/folders/lx/hc4sn_b53233_zkc9xbbl97r0000gp/T//ccelh153.s 			page 8


  66:Dev/Dev_5DirButton.c ****     {
 268              		.loc 1 66 41 is_stmt 1 discriminator 2 view .LVU73
  66:Dev/Dev_5DirButton.c ****     {
 269              		.loc 1 66 42 is_stmt 0 discriminator 2 view .LVU74
 270 0042 0134     		adds	r4, r4, #1
 271              	.LVL24:
  66:Dev/Dev_5DirButton.c ****     {
 272              		.loc 1 66 42 discriminator 2 view .LVU75
 273 0044 E4B2     		uxtb	r4, r4
 274              	.LVL25:
  66:Dev/Dev_5DirButton.c ****     {
 275              		.loc 1 66 42 discriminator 2 view .LVU76
 276 0046 E4E7     		b	.L16
 277              	.L27:
  66:Dev/Dev_5DirButton.c ****     {
 278              		.loc 1 66 42 discriminator 2 view .LVU77
 279              	.LBE5:
  81:Dev/Dev_5DirButton.c ****     {
 280              		.loc 1 81 5 is_stmt 1 view .LVU78
  81:Dev/Dev_5DirButton.c ****     {
 281              		.loc 1 81 12 is_stmt 0 view .LVU79
 282 0048 7B78     		ldrb	r3, [r7, #1]	@ zero_extendqisi2
  81:Dev/Dev_5DirButton.c ****     {
 283              		.loc 1 81 8 view .LVU80
 284 004a 13F0010F 		tst	r3, #1
 285 004e 06D0     		beq	.L20
  83:Dev/Dev_5DirButton.c **** 
 286              		.loc 1 83 9 is_stmt 1 view .LVU81
 287              	.LVL26:
  85:Dev/Dev_5DirButton.c ****         io_val_tmp = ~io_val_tmp;
 288              		.loc 1 85 9 view .LVU82
  85:Dev/Dev_5DirButton.c ****         io_val_tmp = ~io_val_tmp;
 289              		.loc 1 85 20 is_stmt 0 view .LVU83
 290 0050 05F00C02 		and	r2, r5, #12
 291              	.LVL27:
  86:Dev/Dev_5DirButton.c **** 
 292              		.loc 1 86 9 is_stmt 1 view .LVU84
  86:Dev/Dev_5DirButton.c **** 
 293              		.loc 1 86 20 is_stmt 0 view .LVU85
 294 0054 82F0FF02 		eor	r2, r2, #255
 295              	.LVL28:
  88:Dev/Dev_5DirButton.c ****         io_val |= io_val_tmp;
 296              		.loc 1 88 9 is_stmt 1 view .LVU86
  88:Dev/Dev_5DirButton.c ****         io_val |= io_val_tmp;
 297              		.loc 1 88 16 is_stmt 0 view .LVU87
 298 0058 05F0F305 		and	r5, r5, #243
 299              	.LVL29:
  89:Dev/Dev_5DirButton.c ****     }
 300              		.loc 1 89 9 is_stmt 1 view .LVU88
  89:Dev/Dev_5DirButton.c ****     }
 301              		.loc 1 89 16 is_stmt 0 view .LVU89
 302 005c 1543     		orrs	r5, r5, r2
 303              	.LVL30:
 304              	.L20:
  92:Dev/Dev_5DirButton.c ****     {
 305              		.loc 1 92 5 is_stmt 1 view .LVU90
  92:Dev/Dev_5DirButton.c ****     {
ARM GAS  /var/folders/lx/hc4sn_b53233_zkc9xbbl97r0000gp/T//ccelh153.s 			page 9


 306              		.loc 1 92 8 is_stmt 0 view .LVU91
 307 005e 13F0020F 		tst	r3, #2
 308 0062 06D0     		beq	.L21
  94:Dev/Dev_5DirButton.c **** 
 309              		.loc 1 94 9 is_stmt 1 view .LVU92
 310              	.LVL31:
  96:Dev/Dev_5DirButton.c ****         io_val_tmp = ~io_val_tmp;
 311              		.loc 1 96 9 view .LVU93
  96:Dev/Dev_5DirButton.c ****         io_val_tmp = ~io_val_tmp;
 312              		.loc 1 96 20 is_stmt 0 view .LVU94
 313 0064 05F00302 		and	r2, r5, #3
 314              	.LVL32:
  97:Dev/Dev_5DirButton.c **** 
 315              		.loc 1 97 9 is_stmt 1 view .LVU95
  97:Dev/Dev_5DirButton.c **** 
 316              		.loc 1 97 20 is_stmt 0 view .LVU96
 317 0068 82F0FF02 		eor	r2, r2, #255
 318              	.LVL33:
  99:Dev/Dev_5DirButton.c ****         io_val |= io_val_tmp;
 319              		.loc 1 99 9 is_stmt 1 view .LVU97
  99:Dev/Dev_5DirButton.c ****         io_val |= io_val_tmp;
 320              		.loc 1 99 16 is_stmt 0 view .LVU98
 321 006c 05F0FC05 		and	r5, r5, #252
 322              	.LVL34:
 100:Dev/Dev_5DirButton.c ****     }
 323              		.loc 1 100 9 is_stmt 1 view .LVU99
 100:Dev/Dev_5DirButton.c ****     }
 324              		.loc 1 100 16 is_stmt 0 view .LVU100
 325 0070 1543     		orrs	r5, r5, r2
 326              	.LVL35:
 327              	.L21:
 103:Dev/Dev_5DirButton.c ****     {
 328              		.loc 1 103 5 is_stmt 1 view .LVU101
 103:Dev/Dev_5DirButton.c ****     {
 329              		.loc 1 103 8 is_stmt 0 view .LVU102
 330 0072 13F0040F 		tst	r3, #4
 331 0076 E0D0     		beq	.L15
 105:Dev/Dev_5DirButton.c **** 
 332              		.loc 1 105 9 is_stmt 1 view .LVU103
 333              	.LVL36:
 107:Dev/Dev_5DirButton.c ****         io_val_tmp = ~io_val_tmp;
 334              		.loc 1 107 9 view .LVU104
 107:Dev/Dev_5DirButton.c ****         io_val_tmp = ~io_val_tmp;
 335              		.loc 1 107 20 is_stmt 0 view .LVU105
 336 0078 05F01003 		and	r3, r5, #16
 337              	.LVL37:
 108:Dev/Dev_5DirButton.c **** 
 338              		.loc 1 108 9 is_stmt 1 view .LVU106
 108:Dev/Dev_5DirButton.c **** 
 339              		.loc 1 108 20 is_stmt 0 view .LVU107
 340 007c 83F0FF03 		eor	r3, r3, #255
 341              	.LVL38:
 110:Dev/Dev_5DirButton.c ****         io_val |= io_val_tmp;
 342              		.loc 1 110 9 is_stmt 1 view .LVU108
 110:Dev/Dev_5DirButton.c ****         io_val |= io_val_tmp;
 343              		.loc 1 110 16 is_stmt 0 view .LVU109
 344 0080 05F0EF05 		and	r5, r5, #239
ARM GAS  /var/folders/lx/hc4sn_b53233_zkc9xbbl97r0000gp/T//ccelh153.s 			page 10


 345              	.LVL39:
 111:Dev/Dev_5DirButton.c ****     }
 346              		.loc 1 111 9 is_stmt 1 view .LVU110
 111:Dev/Dev_5DirButton.c ****     }
 347              		.loc 1 111 16 is_stmt 0 view .LVU111
 348 0084 1D43     		orrs	r5, r5, r3
 349              	.LVL40:
 111:Dev/Dev_5DirButton.c ****     }
 350              		.loc 1 111 16 view .LVU112
 351 0086 D8E7     		b	.L15
 352              	.LVL41:
 353              	.L22:
  64:Dev/Dev_5DirButton.c **** 
 354              		.loc 1 64 16 view .LVU113
 355 0088 0525     		movs	r5, #5
 356 008a D6E7     		b	.L15
 357              	.L29:
 358              		.align	2
 359              	.L28:
 360 008c 00000000 		.word	DrvGPIO
 361              		.cfi_endproc
 362              	.LFE126:
 364              		.global	Dev5DirBtn
 365              		.section	.data.Dev5DirBtn,"aw"
 366              		.align	2
 369              	Dev5DirBtn:
 370 0000 00000000 		.word	Dev5DirButton_Open
 371 0004 00000000 		.word	Dev5DirButton_Invert
 372 0008 00000000 		.word	Dev5DirButton_Get
 373              		.text
 374              	.Letext0:
 375              		.file 2 "/usr/local/arm-none-eabi-gcc/gcc-arm-none-eabi-10-2020-q4-major/arm-none-eabi/include/mac
 376              		.file 3 "/usr/local/arm-none-eabi-gcc/gcc-arm-none-eabi-10-2020-q4-major/arm-none-eabi/include/sys
 377              		.file 4 "Bsp/periph_gpio.h"
 378              		.file 5 "Drv/drv_gpio.h"
 379              		.file 6 "Dev/Dev_5DirButton.h"
ARM GAS  /var/folders/lx/hc4sn_b53233_zkc9xbbl97r0000gp/T//ccelh153.s 			page 11


DEFINED SYMBOLS
                            *ABS*:0000000000000000 Dev_5DirButton.c
/var/folders/lx/hc4sn_b53233_zkc9xbbl97r0000gp/T//ccelh153.s:18     .text.Dev5DirButton_Open:0000000000000000 $t
/var/folders/lx/hc4sn_b53233_zkc9xbbl97r0000gp/T//ccelh153.s:25     .text.Dev5DirButton_Open:0000000000000000 Dev5DirButton_Open
/var/folders/lx/hc4sn_b53233_zkc9xbbl97r0000gp/T//ccelh153.s:111    .text.Dev5DirButton_Open:0000000000000038 $d
/var/folders/lx/hc4sn_b53233_zkc9xbbl97r0000gp/T//ccelh153.s:116    .text.Dev5DirButton_Invert:0000000000000000 $t
/var/folders/lx/hc4sn_b53233_zkc9xbbl97r0000gp/T//ccelh153.s:122    .text.Dev5DirButton_Invert:0000000000000000 Dev5DirButton_Invert
/var/folders/lx/hc4sn_b53233_zkc9xbbl97r0000gp/T//ccelh153.s:164    .text.Dev5DirButton_Get:0000000000000000 $t
/var/folders/lx/hc4sn_b53233_zkc9xbbl97r0000gp/T//ccelh153.s:170    .text.Dev5DirButton_Get:0000000000000000 Dev5DirButton_Get
/var/folders/lx/hc4sn_b53233_zkc9xbbl97r0000gp/T//ccelh153.s:360    .text.Dev5DirButton_Get:000000000000008c $d
/var/folders/lx/hc4sn_b53233_zkc9xbbl97r0000gp/T//ccelh153.s:369    .data.Dev5DirBtn:0000000000000000 Dev5DirBtn
/var/folders/lx/hc4sn_b53233_zkc9xbbl97r0000gp/T//ccelh153.s:366    .data.Dev5DirBtn:0000000000000000 $d

UNDEFINED SYMBOLS
DrvGPIO
