ARM GAS  C:\Users\ADMINI~1\AppData\Local\Temp\ccLWrPr6.s 			page 1


   1              		.syntax unified
   2              		.cpu cortex-m4
   3              		.eabi_attribute 27, 1
   4              		.eabi_attribute 28, 1
   5              		.fpu fpv4-sp-d16
   6              		.eabi_attribute 20, 1
   7              		.eabi_attribute 21, 1
   8              		.eabi_attribute 23, 3
   9              		.eabi_attribute 24, 1
  10              		.eabi_attribute 25, 1
  11              		.eabi_attribute 26, 1
  12              		.eabi_attribute 30, 1
  13              		.eabi_attribute 34, 1
  14              		.eabi_attribute 18, 4
  15              		.thumb
  16              		.syntax unified
  17              		.file	"Dev_5DirButton.c"
  18              		.text
  19              	.Ltext0:
  20              		.cfi_sections	.debug_frame
  21              		.section	.text.Dev5DirButton_Open,"ax",%progbits
  22              		.align	2
  23              		.thumb
  24              		.thumb_func
  26              	Dev5DirButton_Open:
  27              	.LFB123:
  28              		.file 1 "Dev/Dev_5DirButton.c"
   1:Dev/Dev_5DirButton.c **** #include "Dev_5DirButton.h"
   2:Dev/Dev_5DirButton.c **** #include "drv_gpio.h"
   3:Dev/Dev_5DirButton.c **** #include <string.h>
   4:Dev/Dev_5DirButton.c **** 
   5:Dev/Dev_5DirButton.c **** /* internal variable */
   6:Dev/Dev_5DirButton.c **** static uint8_t DirButton_Sum = 0;
   7:Dev/Dev_5DirButton.c **** 
   8:Dev/Dev_5DirButton.c **** /* internal function */
   9:Dev/Dev_5DirButton.c **** static bool Dev5DirButton_Open(DirButton_Obj_TypeDef *obj, DrvGPIO_Obj_TypeDef *io, uint8_t io_num)
  10:Dev/Dev_5DirButton.c **** static bool Dev5DirButton_Invert(DirButton_Obj_TypeDef *obj, uint8_t val);
  11:Dev/Dev_5DirButton.c **** static DirButton_Val_List Dev5DirButton_Get(DirButton_Obj_TypeDef *obj);
  12:Dev/Dev_5DirButton.c **** 
  13:Dev/Dev_5DirButton.c **** static uint8_t Dev5DirButton_Get_Sum(void);
  14:Dev/Dev_5DirButton.c **** 
  15:Dev/Dev_5DirButton.c **** /* external variable */
  16:Dev/Dev_5DirButton.c **** Dev5DirButton_TypeDef Dev5DirBtn = {
  17:Dev/Dev_5DirButton.c ****     .open = Dev5DirButton_Open,
  18:Dev/Dev_5DirButton.c ****     .invert = Dev5DirButton_Invert,
  19:Dev/Dev_5DirButton.c ****     .get = Dev5DirButton_Get,
  20:Dev/Dev_5DirButton.c **** };
  21:Dev/Dev_5DirButton.c **** 
  22:Dev/Dev_5DirButton.c **** static bool Dev5DirButton_Open(DirButton_Obj_TypeDef *obj, DrvGPIO_Obj_TypeDef *io, uint8_t io_num)
  23:Dev/Dev_5DirButton.c **** {
  29              		.loc 1 23 0
  30              		.cfi_startproc
  31              		@ args = 0, pretend = 0, frame = 0
  32              		@ frame_needed = 0, uses_anonymous_args = 0
  33              	.LVL0:
  34 0000 70B5     		push	{r4, r5, r6, lr}
  35              	.LCFI0:
ARM GAS  C:\Users\ADMINI~1\AppData\Local\Temp\ccLWrPr6.s 			page 2


  36              		.cfi_def_cfa_offset 16
  37              		.cfi_offset 4, -16
  38              		.cfi_offset 5, -12
  39              		.cfi_offset 6, -8
  40              		.cfi_offset 14, -4
  24:Dev/Dev_5DirButton.c ****     if ((obj == NULL) || (io == NULL) || (io_num != Dir_IO_Sum))
  41              		.loc 1 24 0
  42 0002 0546     		mov	r5, r0
  43 0004 10B1     		cbz	r0, .L2
  44              		.loc 1 24 0 is_stmt 0 discriminator 1
  45 0006 09B1     		cbz	r1, .L2
  46              		.loc 1 24 0 discriminator 2
  47 0008 052A     		cmp	r2, #5
  48 000a 02D0     		beq	.L3
  49              	.L2:
  25:Dev/Dev_5DirButton.c ****     {
  26:Dev/Dev_5DirButton.c ****         obj->init_state = false;
  50              		.loc 1 26 0 is_stmt 1
  51 000c 0020     		movs	r0, #0
  52              	.LVL1:
  53 000e 2870     		strb	r0, [r5]
  27:Dev/Dev_5DirButton.c ****         return false;
  54              		.loc 1 27 0
  55 0010 70BD     		pop	{r4, r5, r6, pc}
  56              	.LVL2:
  57              	.L3:
  58 0012 1646     		mov	r6, r2
  28:Dev/Dev_5DirButton.c ****     }
  29:Dev/Dev_5DirButton.c **** 
  30:Dev/Dev_5DirButton.c ****     obj->invert_reg = None_Invert;
  59              		.loc 1 30 0
  60 0014 0024     		movs	r4, #0
  61 0016 4470     		strb	r4, [r0, #1]
  62              	.LVL3:
  63              	.LBB2:
  31:Dev/Dev_5DirButton.c **** 
  32:Dev/Dev_5DirButton.c ****     for (uint8_t i = 0; i < io_num; i++)
  64              		.loc 1 32 0
  65 0018 09E0     		b	.L5
  66              	.LVL4:
  67              	.L6:
  33:Dev/Dev_5DirButton.c ****     {
  34:Dev/Dev_5DirButton.c ****         /* ToDo IO Init */
  35:Dev/Dev_5DirButton.c ****         DrvGPIO.open(&obj[i], GPIO_Input, NULL);
  68              		.loc 1 35 0 discriminator 3
  69 001a 074B     		ldr	r3, .L8
  70 001c 1B68     		ldr	r3, [r3]
  71 001e 0022     		movs	r2, #0
  72 0020 0121     		movs	r1, #1
  73 0022 5420     		movs	r0, #84
  74 0024 00FB0450 		mla	r0, r0, r4, r5
  75 0028 9847     		blx	r3
  76              	.LVL5:
  32:Dev/Dev_5DirButton.c ****     {
  77              		.loc 1 32 0 discriminator 3
  78 002a 0134     		adds	r4, r4, #1
  79              	.LVL6:
ARM GAS  C:\Users\ADMINI~1\AppData\Local\Temp\ccLWrPr6.s 			page 3


  80 002c E4B2     		uxtb	r4, r4
  81              	.LVL7:
  82              	.L5:
  32:Dev/Dev_5DirButton.c ****     {
  83              		.loc 1 32 0 is_stmt 0 discriminator 1
  84 002e B442     		cmp	r4, r6
  85 0030 F3D3     		bcc	.L6
  86              	.LBE2:
  36:Dev/Dev_5DirButton.c ****     }
  37:Dev/Dev_5DirButton.c **** 
  38:Dev/Dev_5DirButton.c ****     obj->init_state = true;
  87              		.loc 1 38 0 is_stmt 1
  88 0032 0120     		movs	r0, #1
  89 0034 2870     		strb	r0, [r5]
  39:Dev/Dev_5DirButton.c ****     return true;
  40:Dev/Dev_5DirButton.c **** }
  90              		.loc 1 40 0
  91 0036 70BD     		pop	{r4, r5, r6, pc}
  92              	.LVL8:
  93              	.L9:
  94              		.align	2
  95              	.L8:
  96 0038 00000000 		.word	DrvGPIO
  97              		.cfi_endproc
  98              	.LFE123:
 100              		.section	.text.Dev5DirButton_Invert,"ax",%progbits
 101              		.align	2
 102              		.thumb
 103              		.thumb_func
 105              	Dev5DirButton_Invert:
 106              	.LFB125:
  41:Dev/Dev_5DirButton.c **** 
  42:Dev/Dev_5DirButton.c **** static uint8_t Dev5DirButton_Get_Sum(void)
  43:Dev/Dev_5DirButton.c **** {
  44:Dev/Dev_5DirButton.c ****     return DirButton_Sum;
  45:Dev/Dev_5DirButton.c **** }
  46:Dev/Dev_5DirButton.c **** 
  47:Dev/Dev_5DirButton.c **** static bool Dev5DirButton_Invert(DirButton_Obj_TypeDef *obj, uint8_t val)
  48:Dev/Dev_5DirButton.c **** {
 107              		.loc 1 48 0
 108              		.cfi_startproc
 109              		@ args = 0, pretend = 0, frame = 0
 110              		@ frame_needed = 0, uses_anonymous_args = 0
 111              		@ link register save eliminated.
 112              	.LVL9:
  49:Dev/Dev_5DirButton.c ****     if ((obj == NULL) || (!obj->init_state) || (val > 0x1F))
 113              		.loc 1 49 0
 114 0000 0346     		mov	r3, r0
 115 0002 28B1     		cbz	r0, .L12
 116              		.loc 1 49 0 is_stmt 0 discriminator 1
 117 0004 0078     		ldrb	r0, [r0]	@ zero_extendqisi2
 118              	.LVL10:
 119 0006 30B1     		cbz	r0, .L11
 120              		.loc 1 49 0 discriminator 2
 121 0008 1F29     		cmp	r1, #31
 122 000a 03D8     		bhi	.L13
  50:Dev/Dev_5DirButton.c ****         return false;
ARM GAS  C:\Users\ADMINI~1\AppData\Local\Temp\ccLWrPr6.s 			page 4


  51:Dev/Dev_5DirButton.c **** 
  52:Dev/Dev_5DirButton.c ****     obj->invert_reg = val;
 123              		.loc 1 52 0 is_stmt 1
 124 000c 5970     		strb	r1, [r3, #1]
  53:Dev/Dev_5DirButton.c **** 
  54:Dev/Dev_5DirButton.c ****     return true;
 125              		.loc 1 54 0
 126 000e 7047     		bx	lr
 127              	.LVL11:
 128              	.L12:
  50:Dev/Dev_5DirButton.c ****         return false;
 129              		.loc 1 50 0
 130 0010 0020     		movs	r0, #0
 131              	.LVL12:
 132 0012 7047     		bx	lr
 133              	.L13:
 134 0014 0020     		movs	r0, #0
 135              	.L11:
  55:Dev/Dev_5DirButton.c **** }
 136              		.loc 1 55 0
 137 0016 7047     		bx	lr
 138              		.cfi_endproc
 139              	.LFE125:
 141              		.section	.text.Dev5DirButton_Get,"ax",%progbits
 142              		.align	2
 143              		.thumb
 144              		.thumb_func
 146              	Dev5DirButton_Get:
 147              	.LFB126:
  56:Dev/Dev_5DirButton.c **** 
  57:Dev/Dev_5DirButton.c **** static DirButton_Val_List Dev5DirButton_Get(DirButton_Obj_TypeDef *obj)
  58:Dev/Dev_5DirButton.c **** {
 148              		.loc 1 58 0
 149              		.cfi_startproc
 150              		@ args = 0, pretend = 0, frame = 0
 151              		@ frame_needed = 0, uses_anonymous_args = 0
 152              	.LVL13:
  59:Dev/Dev_5DirButton.c ****     uint8_t io_val = 0;
  60:Dev/Dev_5DirButton.c ****     uint8_t io_val_tmp = 0;
  61:Dev/Dev_5DirButton.c ****     uint8_t hit_cnt = 0;
  62:Dev/Dev_5DirButton.c **** 
  63:Dev/Dev_5DirButton.c ****     if ((obj == NULL) || (!obj->init_state))
 153              		.loc 1 63 0
 154 0000 0028     		cmp	r0, #0
 155 0002 3FD0     		beq	.L22
  58:Dev/Dev_5DirButton.c ****     uint8_t io_val = 0;
 156              		.loc 1 58 0 discriminator 1
 157 0004 F8B5     		push	{r3, r4, r5, r6, r7, lr}
 158              	.LCFI1:
 159              		.cfi_def_cfa_offset 24
 160              		.cfi_offset 3, -24
 161              		.cfi_offset 4, -20
 162              		.cfi_offset 5, -16
 163              		.cfi_offset 6, -12
 164              		.cfi_offset 7, -8
 165              		.cfi_offset 14, -4
 166 0006 0646     		mov	r6, r0
ARM GAS  C:\Users\ADMINI~1\AppData\Local\Temp\ccLWrPr6.s 			page 5


 167              		.loc 1 63 0 discriminator 1
 168 0008 0378     		ldrb	r3, [r0]	@ zero_extendqisi2
 169 000a ABB9     		cbnz	r3, .L23
  64:Dev/Dev_5DirButton.c ****         return Dir_Err;
 170              		.loc 1 64 0
 171 000c 0520     		movs	r0, #5
 172              	.LVL14:
 173 000e F8BD     		pop	{r3, r4, r5, r6, r7, pc}
 174              	.LVL15:
 175              	.L19:
 176              	.LBB3:
  65:Dev/Dev_5DirButton.c **** 
  66:Dev/Dev_5DirButton.c ****     for (uint8_t i = 0; i < Dir_IO_Sum; i++)
  67:Dev/Dev_5DirButton.c ****     {
  68:Dev/Dev_5DirButton.c ****         if (DrvGPIO.get(&obj->IO[i]))
 177              		.loc 1 68 0
 178 0010 1F4B     		ldr	r3, .L27
 179 0012 DB68     		ldr	r3, [r3, #12]
 180 0014 06EB0410 		add	r0, r6, r4, lsl #4
 181 0018 0430     		adds	r0, r0, #4
 182 001a 9847     		blx	r3
 183              	.LVL16:
 184 001c 28B1     		cbz	r0, .L17
  69:Dev/Dev_5DirButton.c ****         {
  70:Dev/Dev_5DirButton.c ****             io_val |= SetBit(i);
 185              		.loc 1 70 0
 186 001e 0120     		movs	r0, #1
 187 0020 A040     		lsls	r0, r0, r4
 188 0022 0543     		orrs	r5, r5, r0
 189              	.LVL17:
 190 0024 EDB2     		uxtb	r5, r5
 191              	.LVL18:
  71:Dev/Dev_5DirButton.c ****             hit_cnt++;
 192              		.loc 1 71 0
 193 0026 0137     		adds	r7, r7, #1
 194              	.LVL19:
 195 0028 FFB2     		uxtb	r7, r7
 196              	.LVL20:
 197              	.L17:
  72:Dev/Dev_5DirButton.c ****         }
  73:Dev/Dev_5DirButton.c **** 
  74:Dev/Dev_5DirButton.c ****         /* except mid button, other button detect been hit at same time then return error */
  75:Dev/Dev_5DirButton.c ****         if ((hit_cnt > 1) && (i < Dir_IO_Mid))
 198              		.loc 1 75 0
 199 002a 012F     		cmp	r7, #1
 200 002c 01D9     		bls	.L18
 201              		.loc 1 75 0 is_stmt 0 discriminator 1
 202 002e 032C     		cmp	r4, #3
 203 0030 2AD9     		bls	.L24
 204              	.L18:
  66:Dev/Dev_5DirButton.c ****     {
 205              		.loc 1 66 0 is_stmt 1 discriminator 2
 206 0032 0134     		adds	r4, r4, #1
 207              	.LVL21:
 208 0034 E4B2     		uxtb	r4, r4
 209              	.LVL22:
 210 0036 02E0     		b	.L16
ARM GAS  C:\Users\ADMINI~1\AppData\Local\Temp\ccLWrPr6.s 			page 6


 211              	.LVL23:
 212              	.L23:
 213              	.LBE3:
 214 0038 0024     		movs	r4, #0
 215 003a 2746     		mov	r7, r4
 216 003c 2546     		mov	r5, r4
 217              	.LVL24:
 218              	.L16:
 219              	.LBB4:
  66:Dev/Dev_5DirButton.c ****     {
 220              		.loc 1 66 0 is_stmt 0 discriminator 1
 221 003e 042C     		cmp	r4, #4
 222 0040 E6D9     		bls	.L19
 223              	.LBE4:
  76:Dev/Dev_5DirButton.c ****         {
  77:Dev/Dev_5DirButton.c ****             return Dir_Err;
  78:Dev/Dev_5DirButton.c ****         }
  79:Dev/Dev_5DirButton.c ****     }
  80:Dev/Dev_5DirButton.c **** 
  81:Dev/Dev_5DirButton.c ****     if (obj->invert_reg & Axis_X_Invert)
 224              		.loc 1 81 0 is_stmt 1
 225 0042 7378     		ldrb	r3, [r6, #1]	@ zero_extendqisi2
 226 0044 13F0010F 		tst	r3, #1
 227 0048 06D0     		beq	.L20
 228              	.LVL25:
  82:Dev/Dev_5DirButton.c ****     {
  83:Dev/Dev_5DirButton.c ****         io_val_tmp = io_val;
  84:Dev/Dev_5DirButton.c **** 
  85:Dev/Dev_5DirButton.c ****         io_val_tmp &= 0x0C;
 229              		.loc 1 85 0
 230 004a 05F00C02 		and	r2, r5, #12
 231              	.LVL26:
  86:Dev/Dev_5DirButton.c ****         io_val_tmp = ~io_val_tmp;
 232              		.loc 1 86 0
 233 004e 82F0FF02 		eor	r2, r2, #255
 234              	.LVL27:
  87:Dev/Dev_5DirButton.c **** 
  88:Dev/Dev_5DirButton.c ****         io_val &= ~0x0C;
 235              		.loc 1 88 0
 236 0052 05F0F305 		and	r5, r5, #243
 237              	.LVL28:
  89:Dev/Dev_5DirButton.c ****         io_val |= io_val_tmp;
 238              		.loc 1 89 0
 239 0056 1543     		orrs	r5, r5, r2
 240              	.LVL29:
 241              	.L20:
  90:Dev/Dev_5DirButton.c ****     }
  91:Dev/Dev_5DirButton.c **** 
  92:Dev/Dev_5DirButton.c ****     if (obj->invert_reg & Axis_Y_Invert)
 242              		.loc 1 92 0
 243 0058 13F0020F 		tst	r3, #2
 244 005c 06D0     		beq	.L21
 245              	.LVL30:
  93:Dev/Dev_5DirButton.c ****     {
  94:Dev/Dev_5DirButton.c ****         io_val_tmp = io_val;
  95:Dev/Dev_5DirButton.c **** 
  96:Dev/Dev_5DirButton.c ****         io_val_tmp &= 0x03;
ARM GAS  C:\Users\ADMINI~1\AppData\Local\Temp\ccLWrPr6.s 			page 7


 246              		.loc 1 96 0
 247 005e 05F00302 		and	r2, r5, #3
 248              	.LVL31:
  97:Dev/Dev_5DirButton.c ****         io_val_tmp = ~io_val_tmp;
 249              		.loc 1 97 0
 250 0062 82F0FF02 		eor	r2, r2, #255
 251              	.LVL32:
  98:Dev/Dev_5DirButton.c **** 
  99:Dev/Dev_5DirButton.c ****         io_val &= ~0x03;
 252              		.loc 1 99 0
 253 0066 05F0FC05 		and	r5, r5, #252
 254              	.LVL33:
 100:Dev/Dev_5DirButton.c ****         io_val |= io_val_tmp;
 255              		.loc 1 100 0
 256 006a 1543     		orrs	r5, r5, r2
 257              	.LVL34:
 258              	.L21:
 101:Dev/Dev_5DirButton.c ****     }
 102:Dev/Dev_5DirButton.c **** 
 103:Dev/Dev_5DirButton.c ****     if (obj->invert_reg & Mid_Invert)
 259              		.loc 1 103 0
 260 006c 13F0040F 		tst	r3, #4
 261 0070 0CD0     		beq	.L25
 262              	.LVL35:
 104:Dev/Dev_5DirButton.c ****     {
 105:Dev/Dev_5DirButton.c ****         io_val_tmp = io_val;
 106:Dev/Dev_5DirButton.c **** 
 107:Dev/Dev_5DirButton.c ****         io_val_tmp &= 0x10;
 263              		.loc 1 107 0
 264 0072 05F01000 		and	r0, r5, #16
 265 0076 C0B2     		uxtb	r0, r0
 266              	.LVL36:
 108:Dev/Dev_5DirButton.c ****         io_val_tmp = ~io_val_tmp;
 267              		.loc 1 108 0
 268 0078 C043     		mvns	r0, r0
 269              	.LVL37:
 270 007a C0B2     		uxtb	r0, r0
 271              	.LVL38:
 109:Dev/Dev_5DirButton.c **** 
 110:Dev/Dev_5DirButton.c ****         io_val &= ~0x10;
 272              		.loc 1 110 0
 273 007c 05F0EF05 		and	r5, r5, #239
 274              	.LVL39:
 111:Dev/Dev_5DirButton.c ****         io_val |= io_val_tmp;
 275              		.loc 1 111 0
 276 0080 2843     		orrs	r0, r0, r5
 277              	.LVL40:
 278 0082 F8BD     		pop	{r3, r4, r5, r6, r7, pc}
 279              	.LVL41:
 280              	.L22:
 281              	.LCFI2:
 282              		.cfi_def_cfa_offset 0
 283              		.cfi_restore 3
 284              		.cfi_restore 4
 285              		.cfi_restore 5
 286              		.cfi_restore 6
 287              		.cfi_restore 7
ARM GAS  C:\Users\ADMINI~1\AppData\Local\Temp\ccLWrPr6.s 			page 8


 288              		.cfi_restore 14
  64:Dev/Dev_5DirButton.c **** 
 289              		.loc 1 64 0
 290 0084 0520     		movs	r0, #5
 291              	.LVL42:
 112:Dev/Dev_5DirButton.c ****     }
 113:Dev/Dev_5DirButton.c **** 
 114:Dev/Dev_5DirButton.c ****     return io_val;
 115:Dev/Dev_5DirButton.c **** }
 292              		.loc 1 115 0
 293 0086 7047     		bx	lr
 294              	.LVL43:
 295              	.L24:
 296              	.LCFI3:
 297              		.cfi_def_cfa_offset 24
 298              		.cfi_offset 3, -24
 299              		.cfi_offset 4, -20
 300              		.cfi_offset 5, -16
 301              		.cfi_offset 6, -12
 302              		.cfi_offset 7, -8
 303              		.cfi_offset 14, -4
 304              	.LBB5:
  77:Dev/Dev_5DirButton.c ****         }
 305              		.loc 1 77 0
 306 0088 0520     		movs	r0, #5
 307 008a F8BD     		pop	{r3, r4, r5, r6, r7, pc}
 308              	.LVL44:
 309              	.L25:
 310              	.LBE5:
 311 008c 2846     		mov	r0, r5
 312              		.loc 1 115 0
 313 008e F8BD     		pop	{r3, r4, r5, r6, r7, pc}
 314              	.LVL45:
 315              	.L28:
 316              		.align	2
 317              	.L27:
 318 0090 00000000 		.word	DrvGPIO
 319              		.cfi_endproc
 320              	.LFE126:
 322              		.global	Dev5DirBtn
 323              		.section	.data.Dev5DirBtn,"aw",%progbits
 324              		.align	2
 327              	Dev5DirBtn:
 328 0000 00000000 		.word	Dev5DirButton_Open
 329 0004 00000000 		.word	Dev5DirButton_Invert
 330 0008 00000000 		.word	Dev5DirButton_Get
 331              		.text
 332              	.Letext0:
 333              		.file 2 "d:\\gcc_arm\\5.4 2016q3\\arm-none-eabi\\include\\machine\\_default_types.h"
 334              		.file 3 "d:\\gcc_arm\\5.4 2016q3\\arm-none-eabi\\include\\sys\\_stdint.h"
 335              		.file 4 "Bsp/periph_gpio.h"
 336              		.file 5 "Drv/drv_gpio.h"
 337              		.file 6 "Dev/Dev_5DirButton.h"
 338              		.file 7 "F4_CORE/core_cm4.h"
ARM GAS  C:\Users\ADMINI~1\AppData\Local\Temp\ccLWrPr6.s 			page 9


DEFINED SYMBOLS
                            *ABS*:00000000 Dev_5DirButton.c
C:\Users\ADMINI~1\AppData\Local\Temp\ccLWrPr6.s:22     .text.Dev5DirButton_Open:00000000 $t
C:\Users\ADMINI~1\AppData\Local\Temp\ccLWrPr6.s:26     .text.Dev5DirButton_Open:00000000 Dev5DirButton_Open
C:\Users\ADMINI~1\AppData\Local\Temp\ccLWrPr6.s:96     .text.Dev5DirButton_Open:00000038 $d
C:\Users\ADMINI~1\AppData\Local\Temp\ccLWrPr6.s:101    .text.Dev5DirButton_Invert:00000000 $t
C:\Users\ADMINI~1\AppData\Local\Temp\ccLWrPr6.s:105    .text.Dev5DirButton_Invert:00000000 Dev5DirButton_Invert
C:\Users\ADMINI~1\AppData\Local\Temp\ccLWrPr6.s:142    .text.Dev5DirButton_Get:00000000 $t
C:\Users\ADMINI~1\AppData\Local\Temp\ccLWrPr6.s:146    .text.Dev5DirButton_Get:00000000 Dev5DirButton_Get
C:\Users\ADMINI~1\AppData\Local\Temp\ccLWrPr6.s:318    .text.Dev5DirButton_Get:00000090 $d
C:\Users\ADMINI~1\AppData\Local\Temp\ccLWrPr6.s:327    .data.Dev5DirBtn:00000000 Dev5DirBtn
C:\Users\ADMINI~1\AppData\Local\Temp\ccLWrPr6.s:324    .data.Dev5DirBtn:00000000 $d
                     .debug_frame:00000010 $d

UNDEFINED SYMBOLS
DrvGPIO
