ARM GAS  /tmp/ccOJhlYA.s 			page 1


   1              		.cpu cortex-m4
   2              		.eabi_attribute 27, 1
   3              		.eabi_attribute 28, 1
   4              		.eabi_attribute 20, 1
   5              		.eabi_attribute 21, 1
   6              		.eabi_attribute 23, 3
   7              		.eabi_attribute 24, 1
   8              		.eabi_attribute 25, 1
   9              		.eabi_attribute 26, 1
  10              		.eabi_attribute 30, 1
  11              		.eabi_attribute 34, 1
  12              		.eabi_attribute 18, 4
  13              		.file	"Dev_5DirButton.c"
  14              		.text
  15              	.Ltext0:
  16              		.cfi_sections	.debug_frame
  17              		.section	.text.Dev5DirButton_Open,"ax",%progbits
  18              		.align	1
  19              		.arch armv7e-m
  20              		.syntax unified
  21              		.thumb
  22              		.thumb_func
  23              		.fpu fpv4-sp-d16
  25              	Dev5DirButton_Open:
  26              	.LVL0:
  27              	.LFB123:
  28              		.file 1 "Dev/Dev_5DirButton.c"
   1:Dev/Dev_5DirButton.c **** #include "Dev_5DirButton.h"
   2:Dev/Dev_5DirButton.c **** #include "drv_gpio.h"
   3:Dev/Dev_5DirButton.c **** #include <string.h>
   4:Dev/Dev_5DirButton.c **** 
   5:Dev/Dev_5DirButton.c **** /* internal variable */
   6:Dev/Dev_5DirButton.c **** static uint8_t DirButton_Sum = 0;
   7:Dev/Dev_5DirButton.c **** 
   8:Dev/Dev_5DirButton.c **** /* internal function */
   9:Dev/Dev_5DirButton.c **** static bool Dev5DirButton_Open(DirButton_Obj_TypeDef *obj, DrvGPIO_Obj_TypeDef *io, uint8_t io_num)
  10:Dev/Dev_5DirButton.c **** static bool Dev5DirButton_Invert(DirButton_Obj_TypeDef *obj, uint8_t val);
  11:Dev/Dev_5DirButton.c **** static DirButton_Val_List Dev5DirButton_Get(DirButton_Obj_TypeDef *obj);
  12:Dev/Dev_5DirButton.c **** 
  13:Dev/Dev_5DirButton.c **** static uint8_t Dev5DirButton_Get_Sum(void);
  14:Dev/Dev_5DirButton.c **** 
  15:Dev/Dev_5DirButton.c **** /* external variable */
  16:Dev/Dev_5DirButton.c **** Dev5DirButton_TypeDef Dev5DirBtn = {
  17:Dev/Dev_5DirButton.c ****     .open = Dev5DirButton_Open,
  18:Dev/Dev_5DirButton.c ****     .invert = Dev5DirButton_Invert,
  19:Dev/Dev_5DirButton.c ****     .get = Dev5DirButton_Get,
  20:Dev/Dev_5DirButton.c **** };
  21:Dev/Dev_5DirButton.c **** 
  22:Dev/Dev_5DirButton.c **** static bool Dev5DirButton_Open(DirButton_Obj_TypeDef *obj, DrvGPIO_Obj_TypeDef *io, uint8_t io_num)
  23:Dev/Dev_5DirButton.c **** {
  29              		.loc 1 23 1 view -0
  30              		.cfi_startproc
  31              		@ args = 0, pretend = 0, frame = 0
  32              		@ frame_needed = 0, uses_anonymous_args = 0
  33              		.loc 1 23 1 is_stmt 0 view .LVU1
  34 0000 70B5     		push	{r4, r5, r6, lr}
  35              	.LCFI0:
ARM GAS  /tmp/ccOJhlYA.s 			page 2


  36              		.cfi_def_cfa_offset 16
  37              		.cfi_offset 4, -16
  38              		.cfi_offset 5, -12
  39              		.cfi_offset 6, -8
  40              		.cfi_offset 14, -4
  24:Dev/Dev_5DirButton.c ****     if ((obj == NULL) || (io == NULL) || (io_num != Dir_IO_Sum))
  41              		.loc 1 24 5 is_stmt 1 view .LVU2
  42              		.loc 1 24 8 is_stmt 0 view .LVU3
  43 0002 0546     		mov	r5, r0
  44 0004 10B1     		cbz	r0, .L2
  45              		.loc 1 24 23 discriminator 1 view .LVU4
  46 0006 09B1     		cbz	r1, .L2
  47              		.loc 1 24 39 discriminator 2 view .LVU5
  48 0008 052A     		cmp	r2, #5
  49 000a 02D0     		beq	.L3
  50              	.L2:
  25:Dev/Dev_5DirButton.c ****     {
  26:Dev/Dev_5DirButton.c ****         obj->init_state = false;
  51              		.loc 1 26 9 is_stmt 1 view .LVU6
  52              		.loc 1 26 25 is_stmt 0 view .LVU7
  53 000c 0020     		movs	r0, #0
  54              	.LVL1:
  55              		.loc 1 26 25 view .LVU8
  56 000e 2870     		strb	r0, [r5]
  27:Dev/Dev_5DirButton.c ****         return false;
  57              		.loc 1 27 9 is_stmt 1 view .LVU9
  58              	.LVL2:
  59              	.L4:
  28:Dev/Dev_5DirButton.c ****     }
  29:Dev/Dev_5DirButton.c **** 
  30:Dev/Dev_5DirButton.c ****     obj->invert_reg = None_Invert;
  31:Dev/Dev_5DirButton.c **** 
  32:Dev/Dev_5DirButton.c ****     for (uint8_t i = 0; i < io_num; i++)
  33:Dev/Dev_5DirButton.c ****     {
  34:Dev/Dev_5DirButton.c ****         /* ToDo IO Init */
  35:Dev/Dev_5DirButton.c ****         DrvGPIO.open(&obj[i], GPIO_Input, NULL);
  36:Dev/Dev_5DirButton.c ****     }
  37:Dev/Dev_5DirButton.c **** 
  38:Dev/Dev_5DirButton.c ****     obj->init_state = true;
  39:Dev/Dev_5DirButton.c ****     return true;
  40:Dev/Dev_5DirButton.c **** }
  60              		.loc 1 40 1 is_stmt 0 view .LVU10
  61 0010 70BD     		pop	{r4, r5, r6, pc}
  62              	.LVL3:
  63              	.L3:
  64              		.loc 1 40 1 view .LVU11
  65 0012 1646     		mov	r6, r2
  30:Dev/Dev_5DirButton.c **** 
  66              		.loc 1 30 5 is_stmt 1 view .LVU12
  30:Dev/Dev_5DirButton.c **** 
  67              		.loc 1 30 21 is_stmt 0 view .LVU13
  68 0014 0024     		movs	r4, #0
  69 0016 4470     		strb	r4, [r0, #1]
  32:Dev/Dev_5DirButton.c ****     {
  70              		.loc 1 32 5 is_stmt 1 view .LVU14
  71              	.LBB2:
  32:Dev/Dev_5DirButton.c ****     {
ARM GAS  /tmp/ccOJhlYA.s 			page 3


  72              		.loc 1 32 10 view .LVU15
  73              	.LVL4:
  74              	.L5:
  32:Dev/Dev_5DirButton.c ****     {
  75              		.loc 1 32 5 is_stmt 0 discriminator 1 view .LVU16
  76 0018 B442     		cmp	r4, r6
  77 001a 0AD2     		bcs	.L8
  35:Dev/Dev_5DirButton.c ****     }
  78              		.loc 1 35 9 is_stmt 1 discriminator 3 view .LVU17
  35:Dev/Dev_5DirButton.c ****     }
  79              		.loc 1 35 16 is_stmt 0 discriminator 3 view .LVU18
  80 001c 064B     		ldr	r3, .L9
  81 001e 1B68     		ldr	r3, [r3]
  35:Dev/Dev_5DirButton.c ****     }
  82              		.loc 1 35 9 discriminator 3 view .LVU19
  83 0020 0022     		movs	r2, #0
  84 0022 0121     		movs	r1, #1
  85 0024 5420     		movs	r0, #84
  86 0026 00FB0450 		mla	r0, r0, r4, r5
  87 002a 9847     		blx	r3
  88              	.LVL5:
  32:Dev/Dev_5DirButton.c ****     {
  89              		.loc 1 32 38 discriminator 3 view .LVU20
  90 002c 0134     		adds	r4, r4, #1
  91              	.LVL6:
  32:Dev/Dev_5DirButton.c ****     {
  92              		.loc 1 32 38 discriminator 3 view .LVU21
  93 002e E4B2     		uxtb	r4, r4
  94              	.LVL7:
  32:Dev/Dev_5DirButton.c ****     {
  95              		.loc 1 32 38 discriminator 3 view .LVU22
  96 0030 F2E7     		b	.L5
  97              	.L8:
  32:Dev/Dev_5DirButton.c ****     {
  98              		.loc 1 32 38 discriminator 3 view .LVU23
  99              	.LBE2:
  38:Dev/Dev_5DirButton.c ****     return true;
 100              		.loc 1 38 5 is_stmt 1 view .LVU24
  38:Dev/Dev_5DirButton.c ****     return true;
 101              		.loc 1 38 21 is_stmt 0 view .LVU25
 102 0032 0120     		movs	r0, #1
 103 0034 2870     		strb	r0, [r5]
  39:Dev/Dev_5DirButton.c **** }
 104              		.loc 1 39 5 is_stmt 1 view .LVU26
  39:Dev/Dev_5DirButton.c **** }
 105              		.loc 1 39 12 is_stmt 0 view .LVU27
 106 0036 EBE7     		b	.L4
 107              	.L10:
 108              		.align	2
 109              	.L9:
 110 0038 00000000 		.word	DrvGPIO
 111              		.cfi_endproc
 112              	.LFE123:
 114              		.section	.text.Dev5DirButton_Invert,"ax",%progbits
 115              		.align	1
 116              		.syntax unified
 117              		.thumb
ARM GAS  /tmp/ccOJhlYA.s 			page 4


 118              		.thumb_func
 119              		.fpu fpv4-sp-d16
 121              	Dev5DirButton_Invert:
 122              	.LVL8:
 123              	.LFB125:
  41:Dev/Dev_5DirButton.c **** 
  42:Dev/Dev_5DirButton.c **** static uint8_t Dev5DirButton_Get_Sum(void)
  43:Dev/Dev_5DirButton.c **** {
  44:Dev/Dev_5DirButton.c ****     return DirButton_Sum;
  45:Dev/Dev_5DirButton.c **** }
  46:Dev/Dev_5DirButton.c **** 
  47:Dev/Dev_5DirButton.c **** static bool Dev5DirButton_Invert(DirButton_Obj_TypeDef *obj, uint8_t val)
  48:Dev/Dev_5DirButton.c **** {
 124              		.loc 1 48 1 is_stmt 1 view -0
 125              		.cfi_startproc
 126              		@ args = 0, pretend = 0, frame = 0
 127              		@ frame_needed = 0, uses_anonymous_args = 0
 128              		@ link register save eliminated.
  49:Dev/Dev_5DirButton.c ****     if ((obj == NULL) || (!obj->init_state) || (val > 0x1F))
 129              		.loc 1 49 5 view .LVU29
 130              		.loc 1 49 8 is_stmt 0 view .LVU30
 131 0000 0346     		mov	r3, r0
 132 0002 28B1     		cbz	r0, .L13
 133              		.loc 1 49 31 discriminator 1 view .LVU31
 134 0004 0078     		ldrb	r0, [r0]	@ zero_extendqisi2
 135              	.LVL9:
 136              		.loc 1 49 23 discriminator 1 view .LVU32
 137 0006 30B1     		cbz	r0, .L12
 138              		.loc 1 49 45 discriminator 2 view .LVU33
 139 0008 1F29     		cmp	r1, #31
 140 000a 03D8     		bhi	.L14
  50:Dev/Dev_5DirButton.c ****         return false;
  51:Dev/Dev_5DirButton.c **** 
  52:Dev/Dev_5DirButton.c ****     obj->invert_reg = val;
 141              		.loc 1 52 5 is_stmt 1 view .LVU34
 142              		.loc 1 52 21 is_stmt 0 view .LVU35
 143 000c 5970     		strb	r1, [r3, #1]
  53:Dev/Dev_5DirButton.c **** 
  54:Dev/Dev_5DirButton.c ****     return true;
 144              		.loc 1 54 5 is_stmt 1 view .LVU36
 145              		.loc 1 54 12 is_stmt 0 view .LVU37
 146 000e 7047     		bx	lr
 147              	.LVL10:
 148              	.L13:
  50:Dev/Dev_5DirButton.c ****         return false;
 149              		.loc 1 50 16 view .LVU38
 150 0010 0020     		movs	r0, #0
 151              	.LVL11:
  50:Dev/Dev_5DirButton.c ****         return false;
 152              		.loc 1 50 16 view .LVU39
 153 0012 7047     		bx	lr
 154              	.L14:
 155 0014 0020     		movs	r0, #0
 156              	.L12:
  55:Dev/Dev_5DirButton.c **** }
 157              		.loc 1 55 1 view .LVU40
 158 0016 7047     		bx	lr
ARM GAS  /tmp/ccOJhlYA.s 			page 5


 159              		.cfi_endproc
 160              	.LFE125:
 162              		.section	.text.Dev5DirButton_Get,"ax",%progbits
 163              		.align	1
 164              		.syntax unified
 165              		.thumb
 166              		.thumb_func
 167              		.fpu fpv4-sp-d16
 169              	Dev5DirButton_Get:
 170              	.LVL12:
 171              	.LFB126:
  56:Dev/Dev_5DirButton.c **** 
  57:Dev/Dev_5DirButton.c **** static DirButton_Val_List Dev5DirButton_Get(DirButton_Obj_TypeDef *obj)
  58:Dev/Dev_5DirButton.c **** {
 172              		.loc 1 58 1 is_stmt 1 view -0
 173              		.cfi_startproc
 174              		@ args = 0, pretend = 0, frame = 0
 175              		@ frame_needed = 0, uses_anonymous_args = 0
 176              		.loc 1 58 1 is_stmt 0 view .LVU42
 177 0000 F8B5     		push	{r3, r4, r5, r6, r7, lr}
 178              	.LCFI1:
 179              		.cfi_def_cfa_offset 24
 180              		.cfi_offset 3, -24
 181              		.cfi_offset 4, -20
 182              		.cfi_offset 5, -16
 183              		.cfi_offset 6, -12
 184              		.cfi_offset 7, -8
 185              		.cfi_offset 14, -4
  59:Dev/Dev_5DirButton.c ****     uint8_t io_val = 0;
 186              		.loc 1 59 5 is_stmt 1 view .LVU43
 187              	.LVL13:
  60:Dev/Dev_5DirButton.c ****     uint8_t io_val_tmp = 0;
 188              		.loc 1 60 5 view .LVU44
  61:Dev/Dev_5DirButton.c ****     uint8_t hit_cnt = 0;
 189              		.loc 1 61 5 view .LVU45
  62:Dev/Dev_5DirButton.c **** 
  63:Dev/Dev_5DirButton.c ****     if ((obj == NULL) || (!obj->init_state))
 190              		.loc 1 63 5 view .LVU46
 191              		.loc 1 63 8 is_stmt 0 view .LVU47
 192 0002 0028     		cmp	r0, #0
 193 0004 40D0     		beq	.L23
 194 0006 0646     		mov	r6, r0
 195              		.loc 1 63 31 discriminator 1 view .LVU48
 196 0008 0278     		ldrb	r2, [r0]	@ zero_extendqisi2
 197              		.loc 1 63 23 discriminator 1 view .LVU49
 198 000a C2B1     		cbz	r2, .L27
 199              	.LBB3:
  64:Dev/Dev_5DirButton.c ****         return Dir_Err;
  65:Dev/Dev_5DirButton.c **** 
  66:Dev/Dev_5DirButton.c ****     for (uint8_t i = 0; i < Dir_IO_Sum; i++)
 200              		.loc 1 66 18 view .LVU50
 201 000c 0024     		movs	r4, #0
 202              	.LBE3:
  61:Dev/Dev_5DirButton.c **** 
 203              		.loc 1 61 13 view .LVU51
 204 000e 2746     		mov	r7, r4
  59:Dev/Dev_5DirButton.c ****     uint8_t io_val_tmp = 0;
ARM GAS  /tmp/ccOJhlYA.s 			page 6


 205              		.loc 1 59 13 view .LVU52
 206 0010 2546     		mov	r5, r4
 207              	.LVL14:
 208              	.L17:
 209              	.LBB4:
 210              		.loc 1 66 5 discriminator 1 view .LVU53
 211 0012 042C     		cmp	r4, #4
 212 0014 18D8     		bhi	.L28
  67:Dev/Dev_5DirButton.c ****     {
  68:Dev/Dev_5DirButton.c ****         if (DrvGPIO.get(&obj->IO[i]))
 213              		.loc 1 68 9 is_stmt 1 view .LVU54
 214              		.loc 1 68 20 is_stmt 0 view .LVU55
 215 0016 1D4B     		ldr	r3, .L29
 216 0018 DB68     		ldr	r3, [r3, #12]
 217              		.loc 1 68 13 view .LVU56
 218 001a 06EB0410 		add	r0, r6, r4, lsl #4
 219 001e 0430     		adds	r0, r0, #4
 220 0020 9847     		blx	r3
 221              	.LVL15:
 222              		.loc 1 68 12 view .LVU57
 223 0022 28B1     		cbz	r0, .L18
  69:Dev/Dev_5DirButton.c ****         {
  70:Dev/Dev_5DirButton.c ****             io_val |= SetBit(i);
 224              		.loc 1 70 13 is_stmt 1 view .LVU58
 225              		.loc 1 70 23 is_stmt 0 view .LVU59
 226 0024 0123     		movs	r3, #1
 227 0026 A340     		lsls	r3, r3, r4
 228              		.loc 1 70 20 view .LVU60
 229 0028 1D43     		orrs	r5, r5, r3
 230              	.LVL16:
 231              		.loc 1 70 20 view .LVU61
 232 002a EDB2     		uxtb	r5, r5
 233              	.LVL17:
  71:Dev/Dev_5DirButton.c ****             hit_cnt++;
 234              		.loc 1 71 13 is_stmt 1 view .LVU62
 235              		.loc 1 71 20 is_stmt 0 view .LVU63
 236 002c 0137     		adds	r7, r7, #1
 237              	.LVL18:
 238              		.loc 1 71 20 view .LVU64
 239 002e FFB2     		uxtb	r7, r7
 240              	.LVL19:
 241              	.L18:
  72:Dev/Dev_5DirButton.c ****         }
  73:Dev/Dev_5DirButton.c **** 
  74:Dev/Dev_5DirButton.c ****         /* except mid button, other button detect been hit at same time then return error */
  75:Dev/Dev_5DirButton.c ****         if ((hit_cnt > 1) && (i < Dir_IO_Mid))
 242              		.loc 1 75 9 is_stmt 1 view .LVU65
 243              		.loc 1 75 12 is_stmt 0 view .LVU66
 244 0030 012F     		cmp	r7, #1
 245 0032 06D9     		bls	.L19
 246              		.loc 1 75 27 discriminator 1 view .LVU67
 247 0034 032C     		cmp	r4, #3
 248 0036 04D8     		bhi	.L19
  76:Dev/Dev_5DirButton.c ****         {
  77:Dev/Dev_5DirButton.c ****             return Dir_Err;
 249              		.loc 1 77 20 view .LVU68
 250 0038 0525     		movs	r5, #5
ARM GAS  /tmp/ccOJhlYA.s 			page 7


 251              	.LVL20:
 252              	.L16:
 253              		.loc 1 77 20 view .LVU69
 254              	.LBE4:
  78:Dev/Dev_5DirButton.c ****         }
  79:Dev/Dev_5DirButton.c ****     }
  80:Dev/Dev_5DirButton.c **** 
  81:Dev/Dev_5DirButton.c ****     if (obj->invert_reg & Axis_X_Invert)
  82:Dev/Dev_5DirButton.c ****     {
  83:Dev/Dev_5DirButton.c ****         io_val_tmp = io_val;
  84:Dev/Dev_5DirButton.c **** 
  85:Dev/Dev_5DirButton.c ****         io_val_tmp &= 0x0C;
  86:Dev/Dev_5DirButton.c ****         io_val_tmp = ~io_val_tmp;
  87:Dev/Dev_5DirButton.c **** 
  88:Dev/Dev_5DirButton.c ****         io_val &= ~0x0C;
  89:Dev/Dev_5DirButton.c ****         io_val |= io_val_tmp;
  90:Dev/Dev_5DirButton.c ****     }
  91:Dev/Dev_5DirButton.c **** 
  92:Dev/Dev_5DirButton.c ****     if (obj->invert_reg & Axis_Y_Invert)
  93:Dev/Dev_5DirButton.c ****     {
  94:Dev/Dev_5DirButton.c ****         io_val_tmp = io_val;
  95:Dev/Dev_5DirButton.c **** 
  96:Dev/Dev_5DirButton.c ****         io_val_tmp &= 0x03;
  97:Dev/Dev_5DirButton.c ****         io_val_tmp = ~io_val_tmp;
  98:Dev/Dev_5DirButton.c **** 
  99:Dev/Dev_5DirButton.c ****         io_val &= ~0x03;
 100:Dev/Dev_5DirButton.c ****         io_val |= io_val_tmp;
 101:Dev/Dev_5DirButton.c ****     }
 102:Dev/Dev_5DirButton.c **** 
 103:Dev/Dev_5DirButton.c ****     if (obj->invert_reg & Mid_Invert)
 104:Dev/Dev_5DirButton.c ****     {
 105:Dev/Dev_5DirButton.c ****         io_val_tmp = io_val;
 106:Dev/Dev_5DirButton.c **** 
 107:Dev/Dev_5DirButton.c ****         io_val_tmp &= 0x10;
 108:Dev/Dev_5DirButton.c ****         io_val_tmp = ~io_val_tmp;
 109:Dev/Dev_5DirButton.c **** 
 110:Dev/Dev_5DirButton.c ****         io_val &= ~0x10;
 111:Dev/Dev_5DirButton.c ****         io_val |= io_val_tmp;
 112:Dev/Dev_5DirButton.c ****     }
 113:Dev/Dev_5DirButton.c **** 
 114:Dev/Dev_5DirButton.c ****     return io_val;
 115:Dev/Dev_5DirButton.c **** }
 255              		.loc 1 115 1 view .LVU70
 256 003a 2846     		mov	r0, r5
 257 003c F8BD     		pop	{r3, r4, r5, r6, r7, pc}
 258              	.LVL21:
 259              	.L27:
  64:Dev/Dev_5DirButton.c **** 
 260              		.loc 1 64 16 view .LVU71
 261 003e 0525     		movs	r5, #5
 262 0040 FBE7     		b	.L16
 263              	.LVL22:
 264              	.L19:
 265              	.LBB5:
  66:Dev/Dev_5DirButton.c ****     {
 266              		.loc 1 66 42 discriminator 2 view .LVU72
 267 0042 0134     		adds	r4, r4, #1
ARM GAS  /tmp/ccOJhlYA.s 			page 8


 268              	.LVL23:
  66:Dev/Dev_5DirButton.c ****     {
 269              		.loc 1 66 42 discriminator 2 view .LVU73
 270 0044 E4B2     		uxtb	r4, r4
 271              	.LVL24:
  66:Dev/Dev_5DirButton.c ****     {
 272              		.loc 1 66 42 discriminator 2 view .LVU74
 273 0046 E4E7     		b	.L17
 274              	.L28:
  66:Dev/Dev_5DirButton.c ****     {
 275              		.loc 1 66 42 discriminator 2 view .LVU75
 276              	.LBE5:
  81:Dev/Dev_5DirButton.c ****     {
 277              		.loc 1 81 5 is_stmt 1 view .LVU76
  81:Dev/Dev_5DirButton.c ****     {
 278              		.loc 1 81 12 is_stmt 0 view .LVU77
 279 0048 7378     		ldrb	r3, [r6, #1]	@ zero_extendqisi2
  81:Dev/Dev_5DirButton.c ****     {
 280              		.loc 1 81 8 view .LVU78
 281 004a 13F0010F 		tst	r3, #1
 282 004e 06D0     		beq	.L21
  83:Dev/Dev_5DirButton.c **** 
 283              		.loc 1 83 9 is_stmt 1 view .LVU79
 284              	.LVL25:
  85:Dev/Dev_5DirButton.c ****         io_val_tmp = ~io_val_tmp;
 285              		.loc 1 85 9 view .LVU80
  85:Dev/Dev_5DirButton.c ****         io_val_tmp = ~io_val_tmp;
 286              		.loc 1 85 20 is_stmt 0 view .LVU81
 287 0050 05F00C02 		and	r2, r5, #12
 288              	.LVL26:
  86:Dev/Dev_5DirButton.c **** 
 289              		.loc 1 86 9 is_stmt 1 view .LVU82
  86:Dev/Dev_5DirButton.c **** 
 290              		.loc 1 86 20 is_stmt 0 view .LVU83
 291 0054 82F0FF02 		eor	r2, r2, #255
 292              	.LVL27:
  88:Dev/Dev_5DirButton.c ****         io_val |= io_val_tmp;
 293              		.loc 1 88 9 is_stmt 1 view .LVU84
  88:Dev/Dev_5DirButton.c ****         io_val |= io_val_tmp;
 294              		.loc 1 88 16 is_stmt 0 view .LVU85
 295 0058 05F0F305 		and	r5, r5, #243
 296              	.LVL28:
  89:Dev/Dev_5DirButton.c ****     }
 297              		.loc 1 89 9 is_stmt 1 view .LVU86
  89:Dev/Dev_5DirButton.c ****     }
 298              		.loc 1 89 16 is_stmt 0 view .LVU87
 299 005c 1543     		orrs	r5, r5, r2
 300              	.LVL29:
 301              	.L21:
  92:Dev/Dev_5DirButton.c ****     {
 302              		.loc 1 92 5 is_stmt 1 view .LVU88
  92:Dev/Dev_5DirButton.c ****     {
 303              		.loc 1 92 8 is_stmt 0 view .LVU89
 304 005e 13F0020F 		tst	r3, #2
 305 0062 06D0     		beq	.L22
  94:Dev/Dev_5DirButton.c **** 
 306              		.loc 1 94 9 is_stmt 1 view .LVU90
ARM GAS  /tmp/ccOJhlYA.s 			page 9


 307              	.LVL30:
  96:Dev/Dev_5DirButton.c ****         io_val_tmp = ~io_val_tmp;
 308              		.loc 1 96 9 view .LVU91
  96:Dev/Dev_5DirButton.c ****         io_val_tmp = ~io_val_tmp;
 309              		.loc 1 96 20 is_stmt 0 view .LVU92
 310 0064 05F00302 		and	r2, r5, #3
 311              	.LVL31:
  97:Dev/Dev_5DirButton.c **** 
 312              		.loc 1 97 9 is_stmt 1 view .LVU93
  97:Dev/Dev_5DirButton.c **** 
 313              		.loc 1 97 20 is_stmt 0 view .LVU94
 314 0068 82F0FF02 		eor	r2, r2, #255
 315              	.LVL32:
  99:Dev/Dev_5DirButton.c ****         io_val |= io_val_tmp;
 316              		.loc 1 99 9 is_stmt 1 view .LVU95
  99:Dev/Dev_5DirButton.c ****         io_val |= io_val_tmp;
 317              		.loc 1 99 16 is_stmt 0 view .LVU96
 318 006c 05F0FC05 		and	r5, r5, #252
 319              	.LVL33:
 100:Dev/Dev_5DirButton.c ****     }
 320              		.loc 1 100 9 is_stmt 1 view .LVU97
 100:Dev/Dev_5DirButton.c ****     }
 321              		.loc 1 100 16 is_stmt 0 view .LVU98
 322 0070 1543     		orrs	r5, r5, r2
 323              	.LVL34:
 324              	.L22:
 103:Dev/Dev_5DirButton.c ****     {
 325              		.loc 1 103 5 is_stmt 1 view .LVU99
 103:Dev/Dev_5DirButton.c ****     {
 326              		.loc 1 103 8 is_stmt 0 view .LVU100
 327 0072 13F0040F 		tst	r3, #4
 328 0076 E0D0     		beq	.L16
 105:Dev/Dev_5DirButton.c **** 
 329              		.loc 1 105 9 is_stmt 1 view .LVU101
 330              	.LVL35:
 107:Dev/Dev_5DirButton.c ****         io_val_tmp = ~io_val_tmp;
 331              		.loc 1 107 9 view .LVU102
 107:Dev/Dev_5DirButton.c ****         io_val_tmp = ~io_val_tmp;
 332              		.loc 1 107 20 is_stmt 0 view .LVU103
 333 0078 05F01003 		and	r3, r5, #16
 334              	.LVL36:
 108:Dev/Dev_5DirButton.c **** 
 335              		.loc 1 108 9 is_stmt 1 view .LVU104
 108:Dev/Dev_5DirButton.c **** 
 336              		.loc 1 108 20 is_stmt 0 view .LVU105
 337 007c DB43     		mvns	r3, r3
 338              	.LVL37:
 108:Dev/Dev_5DirButton.c **** 
 339              		.loc 1 108 20 view .LVU106
 340 007e DBB2     		uxtb	r3, r3
 341              	.LVL38:
 110:Dev/Dev_5DirButton.c ****         io_val |= io_val_tmp;
 342              		.loc 1 110 9 is_stmt 1 view .LVU107
 110:Dev/Dev_5DirButton.c ****         io_val |= io_val_tmp;
 343              		.loc 1 110 16 is_stmt 0 view .LVU108
 344 0080 05F0EF05 		and	r5, r5, #239
 345              	.LVL39:
ARM GAS  /tmp/ccOJhlYA.s 			page 10


 111:Dev/Dev_5DirButton.c ****     }
 346              		.loc 1 111 9 is_stmt 1 view .LVU109
 111:Dev/Dev_5DirButton.c ****     }
 347              		.loc 1 111 16 is_stmt 0 view .LVU110
 348 0084 1D43     		orrs	r5, r5, r3
 349              	.LVL40:
 111:Dev/Dev_5DirButton.c ****     }
 350              		.loc 1 111 16 view .LVU111
 351 0086 D8E7     		b	.L16
 352              	.LVL41:
 353              	.L23:
  64:Dev/Dev_5DirButton.c **** 
 354              		.loc 1 64 16 view .LVU112
 355 0088 0525     		movs	r5, #5
 356 008a D6E7     		b	.L16
 357              	.L30:
 358              		.align	2
 359              	.L29:
 360 008c 00000000 		.word	DrvGPIO
 361              		.cfi_endproc
 362              	.LFE126:
 364              		.global	Dev5DirBtn
 365              		.section	.data.Dev5DirBtn,"aw"
 366              		.align	2
 369              	Dev5DirBtn:
 370 0000 00000000 		.word	Dev5DirButton_Open
 371 0004 00000000 		.word	Dev5DirButton_Invert
 372 0008 00000000 		.word	Dev5DirButton_Get
 373              		.text
 374              	.Letext0:
 375              		.file 2 "/home/bt0/stm32/compile-tool/gcc-arm-none-eabi-8-2018-q4-major-linux/gcc-arm-none-eabi-8-
 376              		.file 3 "/home/bt0/stm32/compile-tool/gcc-arm-none-eabi-8-2018-q4-major-linux/gcc-arm-none-eabi-8-
 377              		.file 4 "F4_CORE/core_cm4.h"
 378              		.file 5 "USER/system_stm32f4xx.h"
 379              		.file 6 "Bsp/periph_gpio.h"
 380              		.file 7 "Drv/drv_gpio.h"
 381              		.file 8 "Dev/Dev_5DirButton.h"
 382              		.file 9 "/home/bt0/stm32/compile-tool/gcc-arm-none-eabi-8-2018-q4-major-linux/gcc-arm-none-eabi-8-
 383              		.file 10 "/home/bt0/stm32/compile-tool/gcc-arm-none-eabi-8-2018-q4-major-linux/gcc-arm-none-eabi-8
 384              		.file 11 "/home/bt0/stm32/compile-tool/gcc-arm-none-eabi-8-2018-q4-major-linux/gcc-arm-none-eabi-8
 385              		.file 12 "/home/bt0/stm32/compile-tool/gcc-arm-none-eabi-8-2018-q4-major-linux/gcc-arm-none-eabi-8
ARM GAS  /tmp/ccOJhlYA.s 			page 11


DEFINED SYMBOLS
                            *ABS*:0000000000000000 Dev_5DirButton.c
     /tmp/ccOJhlYA.s:18     .text.Dev5DirButton_Open:0000000000000000 $t
     /tmp/ccOJhlYA.s:25     .text.Dev5DirButton_Open:0000000000000000 Dev5DirButton_Open
     /tmp/ccOJhlYA.s:110    .text.Dev5DirButton_Open:0000000000000038 $d
     /tmp/ccOJhlYA.s:115    .text.Dev5DirButton_Invert:0000000000000000 $t
     /tmp/ccOJhlYA.s:121    .text.Dev5DirButton_Invert:0000000000000000 Dev5DirButton_Invert
     /tmp/ccOJhlYA.s:163    .text.Dev5DirButton_Get:0000000000000000 $t
     /tmp/ccOJhlYA.s:169    .text.Dev5DirButton_Get:0000000000000000 Dev5DirButton_Get
     /tmp/ccOJhlYA.s:360    .text.Dev5DirButton_Get:000000000000008c $d
     /tmp/ccOJhlYA.s:369    .data.Dev5DirBtn:0000000000000000 Dev5DirBtn
     /tmp/ccOJhlYA.s:366    .data.Dev5DirBtn:0000000000000000 $d

UNDEFINED SYMBOLS
DrvGPIO
