ARM GAS  C:\Users\ADMINI~1\AppData\Local\Temp\ccCTHPMk.s 			page 1


   1              		.syntax unified
   2              		.cpu cortex-m4
   3              		.eabi_attribute 27, 1
   4              		.eabi_attribute 28, 1
   5              		.fpu fpv4-sp-d16
   6              		.eabi_attribute 20, 1
   7              		.eabi_attribute 21, 1
   8              		.eabi_attribute 23, 3
   9              		.eabi_attribute 24, 1
  10              		.eabi_attribute 25, 1
  11              		.eabi_attribute 26, 1
  12              		.eabi_attribute 30, 1
  13              		.eabi_attribute 34, 1
  14              		.eabi_attribute 18, 4
  15              		.thumb
  16              		.syntax unified
  17              		.file	"Dev_Button.c"
  18              		.text
  19              	.Ltext0:
  20              		.cfi_sections	.debug_frame
  21              		.section	.text.DevButton_Get_Sum,"ax",%progbits
  22              		.align	2
  23              		.thumb
  24              		.thumb_func
  26              	DevButton_Get_Sum:
  27              	.LFB123:
  28              		.file 1 "Dev/Dev_Button.c"
   1:Dev/Dev_Button.c **** #include "Dev_Button.h"
   2:Dev/Dev_Button.c **** #include "drv_gpio.h"
   3:Dev/Dev_Button.c **** #include <string.h>
   4:Dev/Dev_Button.c **** 
   5:Dev/Dev_Button.c **** /* internal variable */
   6:Dev/Dev_Button.c **** static uint8_t button_num = 0;
   7:Dev/Dev_Button.c **** 
   8:Dev/Dev_Button.c **** /* internal function */
   9:Dev/Dev_Button.c **** static bool DevButton_Init(Button_Obj_TypeDef *Obj, DrvGPIO_Obj_TypeDef *io);
  10:Dev/Dev_Button.c **** static bool DevButton_Invert(Button_Obj_TypeDef *Obj);
  11:Dev/Dev_Button.c **** static Button_State_List DevButton_Get(Button_Obj_TypeDef *Obj);
  12:Dev/Dev_Button.c **** static uint8_t DevButton_Get_Sum(void);
  13:Dev/Dev_Button.c **** 
  14:Dev/Dev_Button.c **** /* external variable */
  15:Dev/Dev_Button.c **** DevButton_TypeDef DrvButton = {
  16:Dev/Dev_Button.c ****     .Open = DevButton_Init,
  17:Dev/Dev_Button.c ****     .Invert = DevButton_Invert,
  18:Dev/Dev_Button.c ****     .Get = DevButton_Get,
  19:Dev/Dev_Button.c ****     .get_button_sum = DevButton_Get_Sum,
  20:Dev/Dev_Button.c **** };
  21:Dev/Dev_Button.c **** 
  22:Dev/Dev_Button.c **** static uint8_t DevButton_Get_Sum(void)
  23:Dev/Dev_Button.c **** {
  29              		.loc 1 23 0
  30              		.cfi_startproc
  31              		@ args = 0, pretend = 0, frame = 0
  32              		@ frame_needed = 0, uses_anonymous_args = 0
  33              		@ link register save eliminated.
  24:Dev/Dev_Button.c ****     return button_num;
  25:Dev/Dev_Button.c **** }
ARM GAS  C:\Users\ADMINI~1\AppData\Local\Temp\ccCTHPMk.s 			page 2


  34              		.loc 1 25 0
  35 0000 014B     		ldr	r3, .L2
  36 0002 1878     		ldrb	r0, [r3]	@ zero_extendqisi2
  37 0004 7047     		bx	lr
  38              	.L3:
  39 0006 00BF     		.align	2
  40              	.L2:
  41 0008 00000000 		.word	.LANCHOR0
  42              		.cfi_endproc
  43              	.LFE123:
  45              		.section	.text.DevButton_Init,"ax",%progbits
  46              		.align	2
  47              		.thumb
  48              		.thumb_func
  50              	DevButton_Init:
  51              	.LFB124:
  26:Dev/Dev_Button.c **** 
  27:Dev/Dev_Button.c **** static bool DevButton_Init(Button_Obj_TypeDef *Obj, DrvGPIO_Obj_TypeDef *io)
  28:Dev/Dev_Button.c **** {
  52              		.loc 1 28 0
  53              		.cfi_startproc
  54              		@ args = 0, pretend = 0, frame = 0
  55              		@ frame_needed = 0, uses_anonymous_args = 0
  56              	.LVL0:
  57 0000 38B5     		push	{r3, r4, r5, lr}
  58              	.LCFI0:
  59              		.cfi_def_cfa_offset 16
  60              		.cfi_offset 3, -16
  61              		.cfi_offset 4, -12
  62              		.cfi_offset 5, -8
  63              		.cfi_offset 14, -4
  29:Dev/Dev_Button.c ****     if ((io == NULL) || (Obj == NULL))
  64              		.loc 1 29 0
  65 0002 09B1     		cbz	r1, .L5
  66 0004 0B46     		mov	r3, r1
  67              		.loc 1 29 0 is_stmt 0 discriminator 1
  68 0006 18B9     		cbnz	r0, .L6
  69              	.L5:
  30:Dev/Dev_Button.c ****     {
  31:Dev/Dev_Button.c ****         Obj->init_state = false;
  70              		.loc 1 31 0 is_stmt 1
  71 0008 0023     		movs	r3, #0
  72 000a 0370     		strb	r3, [r0]
  32:Dev/Dev_Button.c ****         return false;
  73              		.loc 1 32 0
  74 000c 1846     		mov	r0, r3
  75              	.LVL1:
  76 000e 38BD     		pop	{r3, r4, r5, pc}
  77              	.LVL2:
  78              	.L6:
  79 0010 0446     		mov	r4, r0
  33:Dev/Dev_Button.c ****     }
  34:Dev/Dev_Button.c **** 
  35:Dev/Dev_Button.c ****     Obj->io = io;
  80              		.loc 1 35 0
  81 0012 6160     		str	r1, [r4, #4]
  36:Dev/Dev_Button.c ****     Obj->invert = false;
ARM GAS  C:\Users\ADMINI~1\AppData\Local\Temp\ccCTHPMk.s 			page 3


  82              		.loc 1 36 0
  83 0014 0022     		movs	r2, #0
  84 0016 4270     		strb	r2, [r0, #1]
  37:Dev/Dev_Button.c **** 
  38:Dev/Dev_Button.c ****     DrvGPIO.open(Obj->io, GPIO_Input, NULL);
  85              		.loc 1 38 0
  86 0018 0549     		ldr	r1, .L9
  87              	.LVL3:
  88 001a 0D68     		ldr	r5, [r1]
  89 001c 0121     		movs	r1, #1
  90 001e 1846     		mov	r0, r3
  91              	.LVL4:
  92 0020 A847     		blx	r5
  93              	.LVL5:
  39:Dev/Dev_Button.c **** 
  40:Dev/Dev_Button.c ****     button_num++;
  94              		.loc 1 40 0
  95 0022 044A     		ldr	r2, .L9+4
  96 0024 1378     		ldrb	r3, [r2]	@ zero_extendqisi2
  97 0026 0133     		adds	r3, r3, #1
  98 0028 1370     		strb	r3, [r2]
  41:Dev/Dev_Button.c **** 
  42:Dev/Dev_Button.c ****     Obj->init_state = true;
  99              		.loc 1 42 0
 100 002a 0120     		movs	r0, #1
 101 002c 2070     		strb	r0, [r4]
  43:Dev/Dev_Button.c ****     return true;
  44:Dev/Dev_Button.c **** }
 102              		.loc 1 44 0
 103 002e 38BD     		pop	{r3, r4, r5, pc}
 104              	.LVL6:
 105              	.L10:
 106              		.align	2
 107              	.L9:
 108 0030 00000000 		.word	DrvGPIO
 109 0034 00000000 		.word	.LANCHOR0
 110              		.cfi_endproc
 111              	.LFE124:
 113              		.section	.text.DevButton_Invert,"ax",%progbits
 114              		.align	2
 115              		.thumb
 116              		.thumb_func
 118              	DevButton_Invert:
 119              	.LFB125:
  45:Dev/Dev_Button.c **** 
  46:Dev/Dev_Button.c **** static bool DevButton_Invert(Button_Obj_TypeDef *Obj)
  47:Dev/Dev_Button.c **** {
 120              		.loc 1 47 0
 121              		.cfi_startproc
 122              		@ args = 0, pretend = 0, frame = 0
 123              		@ frame_needed = 0, uses_anonymous_args = 0
 124              		@ link register save eliminated.
 125              	.LVL7:
  48:Dev/Dev_Button.c ****     if ((Obj == NULL) || (!Obj->init_state))
 126              		.loc 1 48 0
 127 0000 0346     		mov	r3, r0
 128 0002 30B1     		cbz	r0, .L13
ARM GAS  C:\Users\ADMINI~1\AppData\Local\Temp\ccCTHPMk.s 			page 4


 129              		.loc 1 48 0 is_stmt 0 discriminator 1
 130 0004 0078     		ldrb	r0, [r0]	@ zero_extendqisi2
 131              	.LVL8:
 132 0006 28B1     		cbz	r0, .L12
  49:Dev/Dev_Button.c ****         return false;
  50:Dev/Dev_Button.c **** 
  51:Dev/Dev_Button.c ****     Obj->invert = !Obj->invert;
 133              		.loc 1 51 0 is_stmt 1
 134 0008 5A78     		ldrb	r2, [r3, #1]	@ zero_extendqisi2
 135 000a 82F00102 		eor	r2, r2, #1
 136 000e 5A70     		strb	r2, [r3, #1]
  52:Dev/Dev_Button.c **** 
  53:Dev/Dev_Button.c ****     return true;
 137              		.loc 1 53 0
 138 0010 7047     		bx	lr
 139              	.LVL9:
 140              	.L13:
  49:Dev/Dev_Button.c ****         return false;
 141              		.loc 1 49 0
 142 0012 0020     		movs	r0, #0
 143              	.LVL10:
 144              	.L12:
  54:Dev/Dev_Button.c **** }
 145              		.loc 1 54 0
 146 0014 7047     		bx	lr
 147              		.cfi_endproc
 148              	.LFE125:
 150 0016 00BF     		.section	.text.DevButton_Get,"ax",%progbits
 151              		.align	2
 152              		.thumb
 153              		.thumb_func
 155              	DevButton_Get:
 156              	.LFB126:
  55:Dev/Dev_Button.c **** 
  56:Dev/Dev_Button.c **** static Button_State_List DevButton_Get(Button_Obj_TypeDef *Obj)
  57:Dev/Dev_Button.c **** {
 157              		.loc 1 57 0
 158              		.cfi_startproc
 159              		@ args = 0, pretend = 0, frame = 0
 160              		@ frame_needed = 0, uses_anonymous_args = 0
 161              	.LVL11:
  58:Dev/Dev_Button.c ****     bool btn_state = false;
  59:Dev/Dev_Button.c **** 
  60:Dev/Dev_Button.c ****     if ((Obj == NULL) || (!Obj->init_state))
 162              		.loc 1 60 0
 163 0000 78B1     		cbz	r0, .L17
 164              		.loc 1 60 0 is_stmt 0 discriminator 1
 165 0002 0278     		ldrb	r2, [r0]	@ zero_extendqisi2
 166 0004 7AB1     		cbz	r2, .L18
  57:Dev/Dev_Button.c ****     bool btn_state = false;
 167              		.loc 1 57 0 is_stmt 1
 168 0006 10B5     		push	{r4, lr}
 169              	.LCFI1:
 170              		.cfi_def_cfa_offset 8
 171              		.cfi_offset 4, -8
 172              		.cfi_offset 14, -4
 173 0008 0446     		mov	r4, r0
ARM GAS  C:\Users\ADMINI~1\AppData\Local\Temp\ccCTHPMk.s 			page 5


  61:Dev/Dev_Button.c ****         return Btn_Err;
  62:Dev/Dev_Button.c **** 
  63:Dev/Dev_Button.c ****     if (DrvGPIO.get(Obj))
 174              		.loc 1 63 0
 175 000a 0A4B     		ldr	r3, .L23
 176 000c DB68     		ldr	r3, [r3, #12]
 177 000e 9847     		blx	r3
 178              	.LVL12:
 179 0010 18B1     		cbz	r0, .L16
  64:Dev/Dev_Button.c ****     {
  65:Dev/Dev_Button.c ****         if (Obj->invert)
 180              		.loc 1 65 0
 181 0012 6378     		ldrb	r3, [r4, #1]	@ zero_extendqisi2
 182 0014 4BB1     		cbz	r3, .L19
  66:Dev/Dev_Button.c ****         {
  67:Dev/Dev_Button.c ****             return Btn_Dwn;
 183              		.loc 1 67 0
 184 0016 0120     		movs	r0, #1
 185 0018 10BD     		pop	{r4, pc}
 186              	.LVL13:
 187              	.L16:
  68:Dev/Dev_Button.c ****         }
  69:Dev/Dev_Button.c ****         else
  70:Dev/Dev_Button.c ****             return Btn_Up;
  71:Dev/Dev_Button.c ****     }
  72:Dev/Dev_Button.c ****     else
  73:Dev/Dev_Button.c ****     {
  74:Dev/Dev_Button.c ****         if (Obj->invert)
 188              		.loc 1 74 0
 189 001a 6378     		ldrb	r3, [r4, #1]	@ zero_extendqisi2
 190 001c 3BB1     		cbz	r3, .L20
  75:Dev/Dev_Button.c ****         {
  76:Dev/Dev_Button.c ****             return Btn_Up;
 191              		.loc 1 76 0
 192 001e 0020     		movs	r0, #0
 193 0020 10BD     		pop	{r4, pc}
 194              	.LVL14:
 195              	.L17:
 196              	.LCFI2:
 197              		.cfi_def_cfa_offset 0
 198              		.cfi_restore 4
 199              		.cfi_restore 14
  61:Dev/Dev_Button.c **** 
 200              		.loc 1 61 0
 201 0022 0220     		movs	r0, #2
 202              	.LVL15:
 203 0024 7047     		bx	lr
 204              	.LVL16:
 205              	.L18:
 206 0026 0220     		movs	r0, #2
 207              	.LVL17:
  77:Dev/Dev_Button.c ****         }
  78:Dev/Dev_Button.c ****         else
  79:Dev/Dev_Button.c ****             return Btn_Dwn;
  80:Dev/Dev_Button.c ****     }
  81:Dev/Dev_Button.c **** }
 208              		.loc 1 81 0
ARM GAS  C:\Users\ADMINI~1\AppData\Local\Temp\ccCTHPMk.s 			page 6


 209 0028 7047     		bx	lr
 210              	.LVL18:
 211              	.L19:
 212              	.LCFI3:
 213              		.cfi_def_cfa_offset 8
 214              		.cfi_offset 4, -8
 215              		.cfi_offset 14, -4
  70:Dev/Dev_Button.c ****     }
 216              		.loc 1 70 0
 217 002a 0020     		movs	r0, #0
 218 002c 10BD     		pop	{r4, pc}
 219              	.LVL19:
 220              	.L20:
  79:Dev/Dev_Button.c ****     }
 221              		.loc 1 79 0
 222 002e 0120     		movs	r0, #1
 223              		.loc 1 81 0
 224 0030 10BD     		pop	{r4, pc}
 225              	.LVL20:
 226              	.L24:
 227 0032 00BF     		.align	2
 228              	.L23:
 229 0034 00000000 		.word	DrvGPIO
 230              		.cfi_endproc
 231              	.LFE126:
 233              		.global	DrvButton
 234              		.section	.bss.button_num,"aw",%nobits
 235              		.set	.LANCHOR0,. + 0
 238              	button_num:
 239 0000 00       		.space	1
 240              		.section	.data.DrvButton,"aw",%progbits
 241              		.align	2
 244              	DrvButton:
 245 0000 00000000 		.word	DevButton_Init
 246 0004 00000000 		.word	DevButton_Invert
 247 0008 00000000 		.word	DevButton_Get
 248 000c 00000000 		.word	DevButton_Get_Sum
 249              		.text
 250              	.Letext0:
 251              		.file 2 "d:\\gcc_arm\\5.4 2016q3\\arm-none-eabi\\include\\machine\\_default_types.h"
 252              		.file 3 "d:\\gcc_arm\\5.4 2016q3\\arm-none-eabi\\include\\sys\\_stdint.h"
 253              		.file 4 "Bsp/periph_gpio.h"
 254              		.file 5 "Drv/drv_gpio.h"
 255              		.file 6 "Dev/Dev_Button.h"
 256              		.file 7 "F4_CORE/core_cm4.h"
ARM GAS  C:\Users\ADMINI~1\AppData\Local\Temp\ccCTHPMk.s 			page 7


DEFINED SYMBOLS
                            *ABS*:00000000 Dev_Button.c
C:\Users\ADMINI~1\AppData\Local\Temp\ccCTHPMk.s:22     .text.DevButton_Get_Sum:00000000 $t
C:\Users\ADMINI~1\AppData\Local\Temp\ccCTHPMk.s:26     .text.DevButton_Get_Sum:00000000 DevButton_Get_Sum
C:\Users\ADMINI~1\AppData\Local\Temp\ccCTHPMk.s:41     .text.DevButton_Get_Sum:00000008 $d
C:\Users\ADMINI~1\AppData\Local\Temp\ccCTHPMk.s:46     .text.DevButton_Init:00000000 $t
C:\Users\ADMINI~1\AppData\Local\Temp\ccCTHPMk.s:50     .text.DevButton_Init:00000000 DevButton_Init
C:\Users\ADMINI~1\AppData\Local\Temp\ccCTHPMk.s:108    .text.DevButton_Init:00000030 $d
C:\Users\ADMINI~1\AppData\Local\Temp\ccCTHPMk.s:114    .text.DevButton_Invert:00000000 $t
C:\Users\ADMINI~1\AppData\Local\Temp\ccCTHPMk.s:118    .text.DevButton_Invert:00000000 DevButton_Invert
C:\Users\ADMINI~1\AppData\Local\Temp\ccCTHPMk.s:151    .text.DevButton_Get:00000000 $t
C:\Users\ADMINI~1\AppData\Local\Temp\ccCTHPMk.s:155    .text.DevButton_Get:00000000 DevButton_Get
C:\Users\ADMINI~1\AppData\Local\Temp\ccCTHPMk.s:229    .text.DevButton_Get:00000034 $d
C:\Users\ADMINI~1\AppData\Local\Temp\ccCTHPMk.s:244    .data.DrvButton:00000000 DrvButton
C:\Users\ADMINI~1\AppData\Local\Temp\ccCTHPMk.s:238    .bss.button_num:00000000 button_num
C:\Users\ADMINI~1\AppData\Local\Temp\ccCTHPMk.s:239    .bss.button_num:00000000 $d
C:\Users\ADMINI~1\AppData\Local\Temp\ccCTHPMk.s:241    .data.DrvButton:00000000 $d
                     .debug_frame:00000010 $d

UNDEFINED SYMBOLS
DrvGPIO
