ARM GAS  /var/folders/lx/hc4sn_b53233_zkc9xbbl97r0000gp/T//ccBzW4Mc.s 			page 1


   1              		.cpu cortex-m4
   2              		.eabi_attribute 27, 1
   3              		.eabi_attribute 28, 1
   4              		.eabi_attribute 20, 1
   5              		.eabi_attribute 21, 1
   6              		.eabi_attribute 23, 3
   7              		.eabi_attribute 24, 1
   8              		.eabi_attribute 25, 1
   9              		.eabi_attribute 26, 1
  10              		.eabi_attribute 30, 1
  11              		.eabi_attribute 34, 1
  12              		.eabi_attribute 18, 4
  13              		.file	"Dev_Button.c"
  14              		.text
  15              	.Ltext0:
  16              		.cfi_sections	.debug_frame
  17              		.section	.text.DevButton_Get_Sum,"ax",%progbits
  18              		.align	1
  19              		.arch armv7e-m
  20              		.syntax unified
  21              		.thumb
  22              		.thumb_func
  23              		.fpu fpv4-sp-d16
  25              	DevButton_Get_Sum:
  26              	.LFB123:
  27              		.file 1 "Dev/Dev_Button.c"
   1:Dev/Dev_Button.c **** #include "Dev_Button.h"
   2:Dev/Dev_Button.c **** #include "drv_gpio.h"
   3:Dev/Dev_Button.c **** #include <string.h>
   4:Dev/Dev_Button.c **** 
   5:Dev/Dev_Button.c **** /* internal variable */
   6:Dev/Dev_Button.c **** static uint8_t button_num = 0;
   7:Dev/Dev_Button.c **** 
   8:Dev/Dev_Button.c **** /* internal function */
   9:Dev/Dev_Button.c **** static bool DevButton_Init(Button_Obj_TypeDef *Obj, DrvGPIO_Obj_TypeDef *io);
  10:Dev/Dev_Button.c **** static bool DevButton_Invert(Button_Obj_TypeDef *Obj);
  11:Dev/Dev_Button.c **** static Button_State_List DevButton_Get(Button_Obj_TypeDef *Obj);
  12:Dev/Dev_Button.c **** static uint8_t DevButton_Get_Sum(void);
  13:Dev/Dev_Button.c **** 
  14:Dev/Dev_Button.c **** /* external variable */
  15:Dev/Dev_Button.c **** DevButton_TypeDef DrvButton = {
  16:Dev/Dev_Button.c ****     .Open = DevButton_Init,
  17:Dev/Dev_Button.c ****     .Invert = DevButton_Invert,
  18:Dev/Dev_Button.c ****     .Get = DevButton_Get,
  19:Dev/Dev_Button.c ****     .get_button_sum = DevButton_Get_Sum,
  20:Dev/Dev_Button.c **** };
  21:Dev/Dev_Button.c **** 
  22:Dev/Dev_Button.c **** static uint8_t DevButton_Get_Sum(void)
  23:Dev/Dev_Button.c **** {
  28              		.loc 1 23 1 view -0
  29              		.cfi_startproc
  30              		@ args = 0, pretend = 0, frame = 0
  31              		@ frame_needed = 0, uses_anonymous_args = 0
  32              		@ link register save eliminated.
  24:Dev/Dev_Button.c ****     return button_num;
  33              		.loc 1 24 5 view .LVU1
  25:Dev/Dev_Button.c **** }
ARM GAS  /var/folders/lx/hc4sn_b53233_zkc9xbbl97r0000gp/T//ccBzW4Mc.s 			page 2


  34              		.loc 1 25 1 is_stmt 0 view .LVU2
  35 0000 014B     		ldr	r3, .L2
  36 0002 1878     		ldrb	r0, [r3]	@ zero_extendqisi2
  37 0004 7047     		bx	lr
  38              	.L3:
  39 0006 00BF     		.align	2
  40              	.L2:
  41 0008 00000000 		.word	.LANCHOR0
  42              		.cfi_endproc
  43              	.LFE123:
  45              		.section	.text.DevButton_Init,"ax",%progbits
  46              		.align	1
  47              		.syntax unified
  48              		.thumb
  49              		.thumb_func
  50              		.fpu fpv4-sp-d16
  52              	DevButton_Init:
  53              	.LVL0:
  54              	.LFB124:
  26:Dev/Dev_Button.c **** 
  27:Dev/Dev_Button.c **** static bool DevButton_Init(Button_Obj_TypeDef *Obj, DrvGPIO_Obj_TypeDef *io)
  28:Dev/Dev_Button.c **** {
  55              		.loc 1 28 1 is_stmt 1 view -0
  56              		.cfi_startproc
  57              		@ args = 0, pretend = 0, frame = 0
  58              		@ frame_needed = 0, uses_anonymous_args = 0
  59              		.loc 1 28 1 is_stmt 0 view .LVU4
  60 0000 10B5     		push	{r4, lr}
  61              	.LCFI0:
  62              		.cfi_def_cfa_offset 8
  63              		.cfi_offset 4, -8
  64              		.cfi_offset 14, -4
  65 0002 0446     		mov	r4, r0
  29:Dev/Dev_Button.c ****     if ((io == NULL) || (Obj == NULL))
  66              		.loc 1 29 5 is_stmt 1 view .LVU5
  67              		.loc 1 29 8 is_stmt 0 view .LVU6
  68 0004 79B1     		cbz	r1, .L5
  69 0006 0846     		mov	r0, r1
  70              	.LVL1:
  71              		.loc 1 29 22 discriminator 1 view .LVU7
  72 0008 6CB1     		cbz	r4, .L5
  30:Dev/Dev_Button.c ****     {
  31:Dev/Dev_Button.c ****         Obj->init_state = false;
  32:Dev/Dev_Button.c ****         return false;
  33:Dev/Dev_Button.c ****     }
  34:Dev/Dev_Button.c **** 
  35:Dev/Dev_Button.c ****     Obj->io = io;
  73              		.loc 1 35 5 is_stmt 1 view .LVU8
  74              		.loc 1 35 13 is_stmt 0 view .LVU9
  75 000a 6160     		str	r1, [r4, #4]
  36:Dev/Dev_Button.c ****     Obj->invert = false;
  76              		.loc 1 36 5 is_stmt 1 view .LVU10
  77              		.loc 1 36 17 is_stmt 0 view .LVU11
  78 000c 0022     		movs	r2, #0
  79 000e 6270     		strb	r2, [r4, #1]
  37:Dev/Dev_Button.c **** 
  38:Dev/Dev_Button.c ****     DrvGPIO.open(Obj->io, GPIO_Input, NULL);
ARM GAS  /var/folders/lx/hc4sn_b53233_zkc9xbbl97r0000gp/T//ccBzW4Mc.s 			page 3


  80              		.loc 1 38 5 is_stmt 1 view .LVU12
  81              		.loc 1 38 12 is_stmt 0 view .LVU13
  82 0010 064B     		ldr	r3, .L9
  83 0012 1B68     		ldr	r3, [r3]
  84              		.loc 1 38 5 view .LVU14
  85 0014 0121     		movs	r1, #1
  86              	.LVL2:
  87              		.loc 1 38 5 view .LVU15
  88 0016 9847     		blx	r3
  89              	.LVL3:
  39:Dev/Dev_Button.c **** 
  40:Dev/Dev_Button.c ****     button_num++;
  90              		.loc 1 40 5 is_stmt 1 view .LVU16
  91              		.loc 1 40 15 is_stmt 0 view .LVU17
  92 0018 054A     		ldr	r2, .L9+4
  93 001a 1378     		ldrb	r3, [r2]	@ zero_extendqisi2
  94 001c 0133     		adds	r3, r3, #1
  95 001e 1370     		strb	r3, [r2]
  41:Dev/Dev_Button.c **** 
  42:Dev/Dev_Button.c ****     Obj->init_state = true;
  96              		.loc 1 42 5 is_stmt 1 view .LVU18
  97              		.loc 1 42 21 is_stmt 0 view .LVU19
  98 0020 0120     		movs	r0, #1
  99 0022 2070     		strb	r0, [r4]
  43:Dev/Dev_Button.c ****     return true;
 100              		.loc 1 43 5 is_stmt 1 view .LVU20
 101              	.L7:
  44:Dev/Dev_Button.c **** }
 102              		.loc 1 44 1 is_stmt 0 view .LVU21
 103 0024 10BD     		pop	{r4, pc}
 104              	.LVL4:
 105              	.L5:
  31:Dev/Dev_Button.c ****         return false;
 106              		.loc 1 31 9 is_stmt 1 view .LVU22
  31:Dev/Dev_Button.c ****         return false;
 107              		.loc 1 31 25 is_stmt 0 view .LVU23
 108 0026 0020     		movs	r0, #0
 109 0028 2070     		strb	r0, [r4]
  32:Dev/Dev_Button.c ****     }
 110              		.loc 1 32 9 is_stmt 1 view .LVU24
  32:Dev/Dev_Button.c ****     }
 111              		.loc 1 32 16 is_stmt 0 view .LVU25
 112 002a FBE7     		b	.L7
 113              	.L10:
 114              		.align	2
 115              	.L9:
 116 002c 00000000 		.word	DrvGPIO
 117 0030 00000000 		.word	.LANCHOR0
 118              		.cfi_endproc
 119              	.LFE124:
 121              		.section	.text.DevButton_Invert,"ax",%progbits
 122              		.align	1
 123              		.syntax unified
 124              		.thumb
 125              		.thumb_func
 126              		.fpu fpv4-sp-d16
 128              	DevButton_Invert:
ARM GAS  /var/folders/lx/hc4sn_b53233_zkc9xbbl97r0000gp/T//ccBzW4Mc.s 			page 4


 129              	.LVL5:
 130              	.LFB125:
  45:Dev/Dev_Button.c **** 
  46:Dev/Dev_Button.c **** static bool DevButton_Invert(Button_Obj_TypeDef *Obj)
  47:Dev/Dev_Button.c **** {
 131              		.loc 1 47 1 is_stmt 1 view -0
 132              		.cfi_startproc
 133              		@ args = 0, pretend = 0, frame = 0
 134              		@ frame_needed = 0, uses_anonymous_args = 0
 135              		@ link register save eliminated.
  48:Dev/Dev_Button.c ****     if ((Obj == NULL) || (!Obj->init_state))
 136              		.loc 1 48 5 view .LVU27
 137              		.loc 1 48 8 is_stmt 0 view .LVU28
 138 0000 0346     		mov	r3, r0
 139 0002 30B1     		cbz	r0, .L13
 140              		.loc 1 48 31 discriminator 1 view .LVU29
 141 0004 0078     		ldrb	r0, [r0]	@ zero_extendqisi2
 142              	.LVL6:
 143              		.loc 1 48 23 discriminator 1 view .LVU30
 144 0006 28B1     		cbz	r0, .L12
  49:Dev/Dev_Button.c ****         return false;
  50:Dev/Dev_Button.c **** 
  51:Dev/Dev_Button.c ****     Obj->invert = !Obj->invert;
 145              		.loc 1 51 5 is_stmt 1 view .LVU31
 146              		.loc 1 51 23 is_stmt 0 view .LVU32
 147 0008 5A78     		ldrb	r2, [r3, #1]	@ zero_extendqisi2
 148              		.loc 1 51 5 view .LVU33
 149 000a 82F00102 		eor	r2, r2, #1
 150              		.loc 1 51 17 view .LVU34
 151 000e 5A70     		strb	r2, [r3, #1]
  52:Dev/Dev_Button.c **** 
  53:Dev/Dev_Button.c ****     return true;
 152              		.loc 1 53 5 is_stmt 1 view .LVU35
 153              		.loc 1 53 12 is_stmt 0 view .LVU36
 154 0010 7047     		bx	lr
 155              	.LVL7:
 156              	.L13:
  49:Dev/Dev_Button.c ****         return false;
 157              		.loc 1 49 16 view .LVU37
 158 0012 0020     		movs	r0, #0
 159              	.LVL8:
 160              	.L12:
  54:Dev/Dev_Button.c **** }
 161              		.loc 1 54 1 view .LVU38
 162 0014 7047     		bx	lr
 163              		.cfi_endproc
 164              	.LFE125:
 166              		.section	.text.DevButton_Get,"ax",%progbits
 167              		.align	1
 168              		.syntax unified
 169              		.thumb
 170              		.thumb_func
 171              		.fpu fpv4-sp-d16
 173              	DevButton_Get:
 174              	.LVL9:
 175              	.LFB126:
  55:Dev/Dev_Button.c **** 
ARM GAS  /var/folders/lx/hc4sn_b53233_zkc9xbbl97r0000gp/T//ccBzW4Mc.s 			page 5


  56:Dev/Dev_Button.c **** static Button_State_List DevButton_Get(Button_Obj_TypeDef *Obj)
  57:Dev/Dev_Button.c **** {
 176              		.loc 1 57 1 is_stmt 1 view -0
 177              		.cfi_startproc
 178              		@ args = 0, pretend = 0, frame = 0
 179              		@ frame_needed = 0, uses_anonymous_args = 0
  58:Dev/Dev_Button.c ****     bool btn_state = false;
 180              		.loc 1 58 5 view .LVU40
  59:Dev/Dev_Button.c **** 
  60:Dev/Dev_Button.c ****     if ((Obj == NULL) || (!Obj->init_state))
 181              		.loc 1 60 5 view .LVU41
 182              		.loc 1 60 8 is_stmt 0 view .LVU42
 183 0000 78B1     		cbz	r0, .L17
  57:Dev/Dev_Button.c ****     bool btn_state = false;
 184              		.loc 1 57 1 discriminator 1 view .LVU43
 185 0002 10B5     		push	{r4, lr}
 186              	.LCFI1:
 187              		.cfi_def_cfa_offset 8
 188              		.cfi_offset 4, -8
 189              		.cfi_offset 14, -4
 190 0004 0446     		mov	r4, r0
 191              		.loc 1 60 31 discriminator 1 view .LVU44
 192 0006 0378     		ldrb	r3, [r0]	@ zero_extendqisi2
 193              		.loc 1 60 23 discriminator 1 view .LVU45
 194 0008 6BB1     		cbz	r3, .L18
  61:Dev/Dev_Button.c ****         return Btn_Err;
  62:Dev/Dev_Button.c **** 
  63:Dev/Dev_Button.c ****     if (DrvGPIO.get(Obj))
 195              		.loc 1 63 5 is_stmt 1 view .LVU46
 196              		.loc 1 63 16 is_stmt 0 view .LVU47
 197 000a 094B     		ldr	r3, .L25
 198 000c DB68     		ldr	r3, [r3, #12]
 199              		.loc 1 63 9 view .LVU48
 200 000e 9847     		blx	r3
 201              	.LVL10:
 202              		.loc 1 63 8 view .LVU49
 203 0010 18B1     		cbz	r0, .L16
  64:Dev/Dev_Button.c ****     {
  65:Dev/Dev_Button.c ****         if (Obj->invert)
 204              		.loc 1 65 9 is_stmt 1 view .LVU50
 205              		.loc 1 65 16 is_stmt 0 view .LVU51
 206 0012 6378     		ldrb	r3, [r4, #1]	@ zero_extendqisi2
 207              		.loc 1 65 12 view .LVU52
 208 0014 4BB1     		cbz	r3, .L19
  66:Dev/Dev_Button.c ****         {
  67:Dev/Dev_Button.c ****             return Btn_Dwn;
 209              		.loc 1 67 20 view .LVU53
 210 0016 0120     		movs	r0, #1
 211 0018 06E0     		b	.L15
 212              	.L16:
  68:Dev/Dev_Button.c ****         }
  69:Dev/Dev_Button.c ****         else
  70:Dev/Dev_Button.c ****             return Btn_Up;
  71:Dev/Dev_Button.c ****     }
  72:Dev/Dev_Button.c ****     else
  73:Dev/Dev_Button.c ****     {
  74:Dev/Dev_Button.c ****         if (Obj->invert)
ARM GAS  /var/folders/lx/hc4sn_b53233_zkc9xbbl97r0000gp/T//ccBzW4Mc.s 			page 6


 213              		.loc 1 74 9 is_stmt 1 view .LVU54
 214              		.loc 1 74 16 is_stmt 0 view .LVU55
 215 001a 6378     		ldrb	r3, [r4, #1]	@ zero_extendqisi2
 216              		.loc 1 74 12 view .LVU56
 217 001c 23B9     		cbnz	r3, .L15
  75:Dev/Dev_Button.c ****         {
  76:Dev/Dev_Button.c ****             return Btn_Up;
  77:Dev/Dev_Button.c ****         }
  78:Dev/Dev_Button.c ****         else
  79:Dev/Dev_Button.c ****             return Btn_Dwn;
 218              		.loc 1 79 20 view .LVU57
 219 001e 0120     		movs	r0, #1
 220 0020 02E0     		b	.L15
 221              	.LVL11:
 222              	.L17:
 223              	.LCFI2:
 224              		.cfi_def_cfa_offset 0
 225              		.cfi_restore 4
 226              		.cfi_restore 14
  61:Dev/Dev_Button.c **** 
 227              		.loc 1 61 16 view .LVU58
 228 0022 0220     		movs	r0, #2
 229              	.LVL12:
  80:Dev/Dev_Button.c ****     }
  81:Dev/Dev_Button.c **** }
 230              		.loc 1 81 1 view .LVU59
 231 0024 7047     		bx	lr
 232              	.LVL13:
 233              	.L18:
 234              	.LCFI3:
 235              		.cfi_def_cfa_offset 8
 236              		.cfi_offset 4, -8
 237              		.cfi_offset 14, -4
  61:Dev/Dev_Button.c **** 
 238              		.loc 1 61 16 view .LVU60
 239 0026 0220     		movs	r0, #2
 240              	.LVL14:
 241              	.L15:
 242              		.loc 1 81 1 view .LVU61
 243 0028 10BD     		pop	{r4, pc}
 244              	.LVL15:
 245              	.L19:
  70:Dev/Dev_Button.c ****     }
 246              		.loc 1 70 20 view .LVU62
 247 002a 0020     		movs	r0, #0
 248 002c FCE7     		b	.L15
 249              	.L26:
 250 002e 00BF     		.align	2
 251              	.L25:
 252 0030 00000000 		.word	DrvGPIO
 253              		.cfi_endproc
 254              	.LFE126:
 256              		.global	DrvButton
 257              		.section	.bss.button_num,"aw",%nobits
 258              		.set	.LANCHOR0,. + 0
 261              	button_num:
 262 0000 00       		.space	1
ARM GAS  /var/folders/lx/hc4sn_b53233_zkc9xbbl97r0000gp/T//ccBzW4Mc.s 			page 7


 263              		.section	.data.DrvButton,"aw"
 264              		.align	2
 267              	DrvButton:
 268 0000 00000000 		.word	DevButton_Init
 269 0004 00000000 		.word	DevButton_Invert
 270 0008 00000000 		.word	DevButton_Get
 271 000c 00000000 		.word	DevButton_Get_Sum
 272              		.text
 273              	.Letext0:
 274              		.file 2 "/usr/local/arm-none-eabi-gcc/gcc-arm-none-eabi-10-2020-q4-major/arm-none-eabi/include/mac
 275              		.file 3 "/usr/local/arm-none-eabi-gcc/gcc-arm-none-eabi-10-2020-q4-major/arm-none-eabi/include/sys
 276              		.file 4 "Bsp/periph_gpio.h"
 277              		.file 5 "Drv/drv_gpio.h"
 278              		.file 6 "Dev/Dev_Button.h"
ARM GAS  /var/folders/lx/hc4sn_b53233_zkc9xbbl97r0000gp/T//ccBzW4Mc.s 			page 8


DEFINED SYMBOLS
                            *ABS*:0000000000000000 Dev_Button.c
/var/folders/lx/hc4sn_b53233_zkc9xbbl97r0000gp/T//ccBzW4Mc.s:18     .text.DevButton_Get_Sum:0000000000000000 $t
/var/folders/lx/hc4sn_b53233_zkc9xbbl97r0000gp/T//ccBzW4Mc.s:25     .text.DevButton_Get_Sum:0000000000000000 DevButton_Get_Sum
/var/folders/lx/hc4sn_b53233_zkc9xbbl97r0000gp/T//ccBzW4Mc.s:41     .text.DevButton_Get_Sum:0000000000000008 $d
/var/folders/lx/hc4sn_b53233_zkc9xbbl97r0000gp/T//ccBzW4Mc.s:46     .text.DevButton_Init:0000000000000000 $t
/var/folders/lx/hc4sn_b53233_zkc9xbbl97r0000gp/T//ccBzW4Mc.s:52     .text.DevButton_Init:0000000000000000 DevButton_Init
/var/folders/lx/hc4sn_b53233_zkc9xbbl97r0000gp/T//ccBzW4Mc.s:116    .text.DevButton_Init:000000000000002c $d
/var/folders/lx/hc4sn_b53233_zkc9xbbl97r0000gp/T//ccBzW4Mc.s:122    .text.DevButton_Invert:0000000000000000 $t
/var/folders/lx/hc4sn_b53233_zkc9xbbl97r0000gp/T//ccBzW4Mc.s:128    .text.DevButton_Invert:0000000000000000 DevButton_Invert
/var/folders/lx/hc4sn_b53233_zkc9xbbl97r0000gp/T//ccBzW4Mc.s:167    .text.DevButton_Get:0000000000000000 $t
/var/folders/lx/hc4sn_b53233_zkc9xbbl97r0000gp/T//ccBzW4Mc.s:173    .text.DevButton_Get:0000000000000000 DevButton_Get
/var/folders/lx/hc4sn_b53233_zkc9xbbl97r0000gp/T//ccBzW4Mc.s:252    .text.DevButton_Get:0000000000000030 $d
/var/folders/lx/hc4sn_b53233_zkc9xbbl97r0000gp/T//ccBzW4Mc.s:267    .data.DrvButton:0000000000000000 DrvButton
/var/folders/lx/hc4sn_b53233_zkc9xbbl97r0000gp/T//ccBzW4Mc.s:261    .bss.button_num:0000000000000000 button_num
/var/folders/lx/hc4sn_b53233_zkc9xbbl97r0000gp/T//ccBzW4Mc.s:262    .bss.button_num:0000000000000000 $d
/var/folders/lx/hc4sn_b53233_zkc9xbbl97r0000gp/T//ccBzW4Mc.s:264    .data.DrvButton:0000000000000000 $d

UNDEFINED SYMBOLS
DrvGPIO
