ARM GAS  /tmp/ccV2ABU5.s 			page 1


   1              		.cpu cortex-m4
   2              		.eabi_attribute 27, 1
   3              		.eabi_attribute 28, 1
   4              		.eabi_attribute 20, 1
   5              		.eabi_attribute 21, 1
   6              		.eabi_attribute 23, 3
   7              		.eabi_attribute 24, 1
   8              		.eabi_attribute 25, 1
   9              		.eabi_attribute 26, 1
  10              		.eabi_attribute 30, 1
  11              		.eabi_attribute 34, 1
  12              		.eabi_attribute 18, 4
  13              		.file	"Dev_5DirButton.c"
  14              		.text
  15              	.Ltext0:
  16              		.cfi_sections	.debug_frame
  17              		.section	.text.Dev5DirButton_Open,"ax",%progbits
  18              		.align	1
  19              		.arch armv7e-m
  20              		.syntax unified
  21              		.thumb
  22              		.thumb_func
  23              		.fpu fpv4-sp-d16
  25              	Dev5DirButton_Open:
  26              	.LVL0:
  27              	.LFB123:
  28              		.file 1 "Dev/Dev_5DirButton.c"
   1:Dev/Dev_5DirButton.c **** #include "Dev_5DirButton.h"
   2:Dev/Dev_5DirButton.c **** #include "drv_gpio.h"
   3:Dev/Dev_5DirButton.c **** #include <string.h>
   4:Dev/Dev_5DirButton.c **** 
   5:Dev/Dev_5DirButton.c **** /* internal variable */
   6:Dev/Dev_5DirButton.c **** static uint8_t DirButton_Sum = 0;
   7:Dev/Dev_5DirButton.c **** 
   8:Dev/Dev_5DirButton.c **** /* internal function */
   9:Dev/Dev_5DirButton.c **** static bool Dev5DirButton_Open(DirButton_Obj_TypeDef *obj, DrvGPIO_Obj_TypeDef *io, uint8_t io_num)
  10:Dev/Dev_5DirButton.c **** static bool Dev5DirButton_Invert(DirButton_Obj_TypeDef *obj, uint8_t val);
  11:Dev/Dev_5DirButton.c **** static DirButton_Val_List Dev5DirButton_Get(DirButton_Obj_TypeDef *obj);
  12:Dev/Dev_5DirButton.c **** 
  13:Dev/Dev_5DirButton.c **** static uint8_t Dev5DirButton_Get_Sum(void);
  14:Dev/Dev_5DirButton.c **** 
  15:Dev/Dev_5DirButton.c **** /* external variable */
  16:Dev/Dev_5DirButton.c **** Dev5DirButton_TypeDef Dev5DirBtn = {
  17:Dev/Dev_5DirButton.c ****     .open = Dev5DirButton_Open,
  18:Dev/Dev_5DirButton.c ****     .invert = Dev5DirButton_Invert,
  19:Dev/Dev_5DirButton.c ****     .get = Dev5DirButton_Get,
  20:Dev/Dev_5DirButton.c **** };
  21:Dev/Dev_5DirButton.c **** 
  22:Dev/Dev_5DirButton.c **** static bool Dev5DirButton_Open(DirButton_Obj_TypeDef *obj, DrvGPIO_Obj_TypeDef *io, uint8_t io_num)
  23:Dev/Dev_5DirButton.c **** {
  29              		.loc 1 23 1 view -0
  30              		.cfi_startproc
  31              		@ args = 0, pretend = 0, frame = 0
  32              		@ frame_needed = 0, uses_anonymous_args = 0
  33              		.loc 1 23 1 is_stmt 0 view .LVU1
  34 0000 F8B5     		push	{r3, r4, r5, r6, r7, lr}
  35              	.LCFI0:
ARM GAS  /tmp/ccV2ABU5.s 			page 2


  36              		.cfi_def_cfa_offset 24
  37              		.cfi_offset 3, -24
  38              		.cfi_offset 4, -20
  39              		.cfi_offset 5, -16
  40              		.cfi_offset 6, -12
  41              		.cfi_offset 7, -8
  42              		.cfi_offset 14, -4
  24:Dev/Dev_5DirButton.c ****     if ((obj == NULL) || (io == NULL) || (io_num != Dir_IO_Sum))
  43              		.loc 1 24 5 is_stmt 1 view .LVU2
  44              		.loc 1 24 8 is_stmt 0 view .LVU3
  45 0002 0546     		mov	r5, r0
  46 0004 10B1     		cbz	r0, .L2
  47              		.loc 1 24 23 discriminator 1 view .LVU4
  48 0006 09B1     		cbz	r1, .L2
  49              		.loc 1 24 39 discriminator 2 view .LVU5
  50 0008 052A     		cmp	r2, #5
  51 000a 02D0     		beq	.L3
  52              	.L2:
  25:Dev/Dev_5DirButton.c ****     {
  26:Dev/Dev_5DirButton.c ****         obj->init_state = false;
  53              		.loc 1 26 9 is_stmt 1 view .LVU6
  54              		.loc 1 26 25 is_stmt 0 view .LVU7
  55 000c 0020     		movs	r0, #0
  56              	.LVL1:
  57              		.loc 1 26 25 view .LVU8
  58 000e 2870     		strb	r0, [r5]
  27:Dev/Dev_5DirButton.c ****         return false;
  59              		.loc 1 27 9 is_stmt 1 view .LVU9
  60              	.LVL2:
  61              	.L4:
  28:Dev/Dev_5DirButton.c ****     }
  29:Dev/Dev_5DirButton.c **** 
  30:Dev/Dev_5DirButton.c ****     obj->invert_reg = None_Invert;
  31:Dev/Dev_5DirButton.c **** 
  32:Dev/Dev_5DirButton.c ****     for (uint8_t i = 0; i < io_num; i++)
  33:Dev/Dev_5DirButton.c ****     {
  34:Dev/Dev_5DirButton.c ****         /* ToDo IO Init */
  35:Dev/Dev_5DirButton.c ****         DrvGPIO.open(&obj[i], GPIO_Input, NULL);
  36:Dev/Dev_5DirButton.c ****     }
  37:Dev/Dev_5DirButton.c **** 
  38:Dev/Dev_5DirButton.c ****     obj->init_state = true;
  39:Dev/Dev_5DirButton.c ****     return true;
  40:Dev/Dev_5DirButton.c **** }
  62              		.loc 1 40 1 is_stmt 0 view .LVU10
  63 0010 F8BD     		pop	{r3, r4, r5, r6, r7, pc}
  64              	.LVL3:
  65              	.L3:
  66              		.loc 1 40 1 view .LVU11
  67 0012 1746     		mov	r7, r2
  30:Dev/Dev_5DirButton.c **** 
  68              		.loc 1 30 5 is_stmt 1 view .LVU12
  30:Dev/Dev_5DirButton.c **** 
  69              		.loc 1 30 21 is_stmt 0 view .LVU13
  70 0014 0024     		movs	r4, #0
  71 0016 4470     		strb	r4, [r0, #1]
  32:Dev/Dev_5DirButton.c ****     {
  72              		.loc 1 32 5 is_stmt 1 view .LVU14
ARM GAS  /tmp/ccV2ABU5.s 			page 3


  73              	.LBB2:
  32:Dev/Dev_5DirButton.c ****     {
  74              		.loc 1 32 10 view .LVU15
  75              	.LVL4:
  76              	.L5:
  32:Dev/Dev_5DirButton.c ****     {
  77              		.loc 1 32 5 is_stmt 0 discriminator 1 view .LVU16
  78 0018 BC42     		cmp	r4, r7
  79 001a 0BD2     		bcs	.L8
  35:Dev/Dev_5DirButton.c ****     }
  80              		.loc 1 35 9 is_stmt 1 discriminator 3 view .LVU17
  35:Dev/Dev_5DirButton.c ****     }
  81              		.loc 1 35 16 is_stmt 0 discriminator 3 view .LVU18
  82 001c 074B     		ldr	r3, .L9
  83 001e 1E68     		ldr	r6, [r3]
  35:Dev/Dev_5DirButton.c ****     }
  84              		.loc 1 35 26 discriminator 3 view .LVU19
  85 0020 04EBC403 		add	r3, r4, r4, lsl #3
  86 0024 1801     		lsls	r0, r3, #4
  35:Dev/Dev_5DirButton.c ****     }
  87              		.loc 1 35 9 discriminator 3 view .LVU20
  88 0026 0022     		movs	r2, #0
  89 0028 0121     		movs	r1, #1
  90 002a 2844     		add	r0, r0, r5
  91 002c B047     		blx	r6
  92              	.LVL5:
  32:Dev/Dev_5DirButton.c ****     {
  93              		.loc 1 32 38 discriminator 3 view .LVU21
  94 002e 0134     		adds	r4, r4, #1
  95              	.LVL6:
  32:Dev/Dev_5DirButton.c ****     {
  96              		.loc 1 32 38 discriminator 3 view .LVU22
  97 0030 E4B2     		uxtb	r4, r4
  98              	.LVL7:
  32:Dev/Dev_5DirButton.c ****     {
  99              		.loc 1 32 38 discriminator 3 view .LVU23
 100 0032 F1E7     		b	.L5
 101              	.L8:
  32:Dev/Dev_5DirButton.c ****     {
 102              		.loc 1 32 38 discriminator 3 view .LVU24
 103              	.LBE2:
  38:Dev/Dev_5DirButton.c ****     return true;
 104              		.loc 1 38 5 is_stmt 1 view .LVU25
  38:Dev/Dev_5DirButton.c ****     return true;
 105              		.loc 1 38 21 is_stmt 0 view .LVU26
 106 0034 0120     		movs	r0, #1
 107 0036 2870     		strb	r0, [r5]
  39:Dev/Dev_5DirButton.c **** }
 108              		.loc 1 39 5 is_stmt 1 view .LVU27
  39:Dev/Dev_5DirButton.c **** }
 109              		.loc 1 39 12 is_stmt 0 view .LVU28
 110 0038 EAE7     		b	.L4
 111              	.L10:
 112 003a 00BF     		.align	2
 113              	.L9:
 114 003c 00000000 		.word	DrvGPIO
 115              		.cfi_endproc
ARM GAS  /tmp/ccV2ABU5.s 			page 4


 116              	.LFE123:
 118              		.section	.text.Dev5DirButton_Invert,"ax",%progbits
 119              		.align	1
 120              		.syntax unified
 121              		.thumb
 122              		.thumb_func
 123              		.fpu fpv4-sp-d16
 125              	Dev5DirButton_Invert:
 126              	.LVL8:
 127              	.LFB125:
  41:Dev/Dev_5DirButton.c **** 
  42:Dev/Dev_5DirButton.c **** static uint8_t Dev5DirButton_Get_Sum(void)
  43:Dev/Dev_5DirButton.c **** {
  44:Dev/Dev_5DirButton.c ****     return DirButton_Sum;
  45:Dev/Dev_5DirButton.c **** }
  46:Dev/Dev_5DirButton.c **** 
  47:Dev/Dev_5DirButton.c **** static bool Dev5DirButton_Invert(DirButton_Obj_TypeDef *obj, uint8_t val)
  48:Dev/Dev_5DirButton.c **** {
 128              		.loc 1 48 1 is_stmt 1 view -0
 129              		.cfi_startproc
 130              		@ args = 0, pretend = 0, frame = 0
 131              		@ frame_needed = 0, uses_anonymous_args = 0
 132              		@ link register save eliminated.
  49:Dev/Dev_5DirButton.c ****     if ((obj == NULL) || (!obj->init_state) || (val > 0x1F))
 133              		.loc 1 49 5 view .LVU30
 134              		.loc 1 49 8 is_stmt 0 view .LVU31
 135 0000 0346     		mov	r3, r0
 136 0002 28B1     		cbz	r0, .L13
 137              		.loc 1 49 31 discriminator 1 view .LVU32
 138 0004 0078     		ldrb	r0, [r0]	@ zero_extendqisi2
 139              	.LVL9:
 140              		.loc 1 49 23 discriminator 1 view .LVU33
 141 0006 30B1     		cbz	r0, .L12
 142              		.loc 1 49 45 discriminator 2 view .LVU34
 143 0008 1F29     		cmp	r1, #31
 144 000a 03D8     		bhi	.L14
  50:Dev/Dev_5DirButton.c ****         return false;
  51:Dev/Dev_5DirButton.c **** 
  52:Dev/Dev_5DirButton.c ****     obj->invert_reg = val;
 145              		.loc 1 52 5 is_stmt 1 view .LVU35
 146              		.loc 1 52 21 is_stmt 0 view .LVU36
 147 000c 5970     		strb	r1, [r3, #1]
  53:Dev/Dev_5DirButton.c **** 
  54:Dev/Dev_5DirButton.c ****     return true;
 148              		.loc 1 54 5 is_stmt 1 view .LVU37
 149              		.loc 1 54 12 is_stmt 0 view .LVU38
 150 000e 7047     		bx	lr
 151              	.LVL10:
 152              	.L13:
  50:Dev/Dev_5DirButton.c ****         return false;
 153              		.loc 1 50 16 view .LVU39
 154 0010 0020     		movs	r0, #0
 155              	.LVL11:
  50:Dev/Dev_5DirButton.c ****         return false;
 156              		.loc 1 50 16 view .LVU40
 157 0012 7047     		bx	lr
 158              	.L14:
ARM GAS  /tmp/ccV2ABU5.s 			page 5


 159 0014 0020     		movs	r0, #0
 160              	.L12:
  55:Dev/Dev_5DirButton.c **** }
 161              		.loc 1 55 1 view .LVU41
 162 0016 7047     		bx	lr
 163              		.cfi_endproc
 164              	.LFE125:
 166              		.section	.text.Dev5DirButton_Get,"ax",%progbits
 167              		.align	1
 168              		.syntax unified
 169              		.thumb
 170              		.thumb_func
 171              		.fpu fpv4-sp-d16
 173              	Dev5DirButton_Get:
 174              	.LVL12:
 175              	.LFB126:
  56:Dev/Dev_5DirButton.c **** 
  57:Dev/Dev_5DirButton.c **** static DirButton_Val_List Dev5DirButton_Get(DirButton_Obj_TypeDef *obj)
  58:Dev/Dev_5DirButton.c **** {
 176              		.loc 1 58 1 is_stmt 1 view -0
 177              		.cfi_startproc
 178              		@ args = 0, pretend = 0, frame = 0
 179              		@ frame_needed = 0, uses_anonymous_args = 0
 180              		.loc 1 58 1 is_stmt 0 view .LVU43
 181 0000 F8B5     		push	{r3, r4, r5, r6, r7, lr}
 182              	.LCFI1:
 183              		.cfi_def_cfa_offset 24
 184              		.cfi_offset 3, -24
 185              		.cfi_offset 4, -20
 186              		.cfi_offset 5, -16
 187              		.cfi_offset 6, -12
 188              		.cfi_offset 7, -8
 189              		.cfi_offset 14, -4
  59:Dev/Dev_5DirButton.c ****     uint8_t io_val = 0;
 190              		.loc 1 59 5 is_stmt 1 view .LVU44
 191              	.LVL13:
  60:Dev/Dev_5DirButton.c ****     uint8_t io_val_tmp = 0;
 192              		.loc 1 60 5 view .LVU45
  61:Dev/Dev_5DirButton.c ****     uint8_t hit_cnt = 0;
 193              		.loc 1 61 5 view .LVU46
  62:Dev/Dev_5DirButton.c **** 
  63:Dev/Dev_5DirButton.c ****     if ((obj == NULL) || (!obj->init_state))
 194              		.loc 1 63 5 view .LVU47
 195              		.loc 1 63 8 is_stmt 0 view .LVU48
 196 0002 0028     		cmp	r0, #0
 197 0004 42D0     		beq	.L23
 198 0006 0646     		mov	r6, r0
 199              		.loc 1 63 31 discriminator 1 view .LVU49
 200 0008 0378     		ldrb	r3, [r0]	@ zero_extendqisi2
 201              		.loc 1 63 23 discriminator 1 view .LVU50
 202 000a D3B1     		cbz	r3, .L27
 203              	.LBB3:
  64:Dev/Dev_5DirButton.c ****         return Dir_Err;
  65:Dev/Dev_5DirButton.c **** 
  66:Dev/Dev_5DirButton.c ****     for (uint8_t i = 0; i < Dir_IO_Sum; i++)
 204              		.loc 1 66 18 view .LVU51
 205 000c 0024     		movs	r4, #0
ARM GAS  /tmp/ccV2ABU5.s 			page 6


 206              	.LBE3:
  61:Dev/Dev_5DirButton.c **** 
 207              		.loc 1 61 13 view .LVU52
 208 000e 2746     		mov	r7, r4
  59:Dev/Dev_5DirButton.c ****     uint8_t io_val_tmp = 0;
 209              		.loc 1 59 13 view .LVU53
 210 0010 2546     		mov	r5, r4
 211              	.LVL14:
 212              	.L17:
 213              	.LBB4:
 214              		.loc 1 66 5 discriminator 1 view .LVU54
 215 0012 042C     		cmp	r4, #4
 216 0014 1AD8     		bhi	.L28
  67:Dev/Dev_5DirButton.c ****     {
  68:Dev/Dev_5DirButton.c ****         if (DrvGPIO.get(&obj->IO[i]))
 217              		.loc 1 68 9 is_stmt 1 view .LVU55
 218              		.loc 1 68 20 is_stmt 0 view .LVU56
 219 0016 1E4B     		ldr	r3, .L29
 220 0018 D968     		ldr	r1, [r3, #12]
 221              		.loc 1 68 13 view .LVU57
 222 001a C4EBC402 		rsb	r2, r4, r4, lsl #3
 223 001e 9300     		lsls	r3, r2, #2
 224 0020 3344     		add	r3, r3, r6
 225 0022 181D     		adds	r0, r3, #4
 226 0024 8847     		blx	r1
 227              	.LVL15:
 228              		.loc 1 68 12 view .LVU58
 229 0026 28B1     		cbz	r0, .L18
  69:Dev/Dev_5DirButton.c ****         {
  70:Dev/Dev_5DirButton.c ****             io_val |= SetBit(i);
 230              		.loc 1 70 13 is_stmt 1 view .LVU59
 231              		.loc 1 70 23 is_stmt 0 view .LVU60
 232 0028 0123     		movs	r3, #1
 233 002a A340     		lsls	r3, r3, r4
 234              		.loc 1 70 20 view .LVU61
 235 002c 1D43     		orrs	r5, r5, r3
 236              	.LVL16:
 237              		.loc 1 70 20 view .LVU62
 238 002e EDB2     		uxtb	r5, r5
 239              	.LVL17:
  71:Dev/Dev_5DirButton.c ****             hit_cnt++;
 240              		.loc 1 71 13 is_stmt 1 view .LVU63
 241              		.loc 1 71 20 is_stmt 0 view .LVU64
 242 0030 0137     		adds	r7, r7, #1
 243              	.LVL18:
 244              		.loc 1 71 20 view .LVU65
 245 0032 FFB2     		uxtb	r7, r7
 246              	.LVL19:
 247              	.L18:
  72:Dev/Dev_5DirButton.c ****         }
  73:Dev/Dev_5DirButton.c **** 
  74:Dev/Dev_5DirButton.c ****         /* except mid button, other button detect been hit at same time then return error */
  75:Dev/Dev_5DirButton.c ****         if ((hit_cnt > 1) && (i < Dir_IO_Mid))
 248              		.loc 1 75 9 is_stmt 1 view .LVU66
 249              		.loc 1 75 12 is_stmt 0 view .LVU67
 250 0034 012F     		cmp	r7, #1
 251 0036 06D9     		bls	.L19
ARM GAS  /tmp/ccV2ABU5.s 			page 7


 252              		.loc 1 75 27 discriminator 1 view .LVU68
 253 0038 032C     		cmp	r4, #3
 254 003a 04D8     		bhi	.L19
  76:Dev/Dev_5DirButton.c ****         {
  77:Dev/Dev_5DirButton.c ****             return Dir_Err;
 255              		.loc 1 77 20 view .LVU69
 256 003c 0525     		movs	r5, #5
 257              	.LVL20:
 258              	.L16:
 259              		.loc 1 77 20 view .LVU70
 260              	.LBE4:
  78:Dev/Dev_5DirButton.c ****         }
  79:Dev/Dev_5DirButton.c ****     }
  80:Dev/Dev_5DirButton.c **** 
  81:Dev/Dev_5DirButton.c ****     if (obj->invert_reg & Axis_X_Invert)
  82:Dev/Dev_5DirButton.c ****     {
  83:Dev/Dev_5DirButton.c ****         io_val_tmp = io_val;
  84:Dev/Dev_5DirButton.c **** 
  85:Dev/Dev_5DirButton.c ****         io_val_tmp &= 0x0C;
  86:Dev/Dev_5DirButton.c ****         io_val_tmp = ~io_val_tmp;
  87:Dev/Dev_5DirButton.c **** 
  88:Dev/Dev_5DirButton.c ****         io_val &= ~0x0C;
  89:Dev/Dev_5DirButton.c ****         io_val |= io_val_tmp;
  90:Dev/Dev_5DirButton.c ****     }
  91:Dev/Dev_5DirButton.c **** 
  92:Dev/Dev_5DirButton.c ****     if (obj->invert_reg & Axis_Y_Invert)
  93:Dev/Dev_5DirButton.c ****     {
  94:Dev/Dev_5DirButton.c ****         io_val_tmp = io_val;
  95:Dev/Dev_5DirButton.c **** 
  96:Dev/Dev_5DirButton.c ****         io_val_tmp &= 0x03;
  97:Dev/Dev_5DirButton.c ****         io_val_tmp = ~io_val_tmp;
  98:Dev/Dev_5DirButton.c **** 
  99:Dev/Dev_5DirButton.c ****         io_val &= ~0x03;
 100:Dev/Dev_5DirButton.c ****         io_val |= io_val_tmp;
 101:Dev/Dev_5DirButton.c ****     }
 102:Dev/Dev_5DirButton.c **** 
 103:Dev/Dev_5DirButton.c ****     if (obj->invert_reg & Mid_Invert)
 104:Dev/Dev_5DirButton.c ****     {
 105:Dev/Dev_5DirButton.c ****         io_val_tmp = io_val;
 106:Dev/Dev_5DirButton.c **** 
 107:Dev/Dev_5DirButton.c ****         io_val_tmp &= 0x10;
 108:Dev/Dev_5DirButton.c ****         io_val_tmp = ~io_val_tmp;
 109:Dev/Dev_5DirButton.c **** 
 110:Dev/Dev_5DirButton.c ****         io_val &= ~0x10;
 111:Dev/Dev_5DirButton.c ****         io_val |= io_val_tmp;
 112:Dev/Dev_5DirButton.c ****     }
 113:Dev/Dev_5DirButton.c **** 
 114:Dev/Dev_5DirButton.c ****     return io_val;
 115:Dev/Dev_5DirButton.c **** }
 261              		.loc 1 115 1 view .LVU71
 262 003e 2846     		mov	r0, r5
 263 0040 F8BD     		pop	{r3, r4, r5, r6, r7, pc}
 264              	.LVL21:
 265              	.L27:
  64:Dev/Dev_5DirButton.c **** 
 266              		.loc 1 64 16 view .LVU72
 267 0042 0525     		movs	r5, #5
ARM GAS  /tmp/ccV2ABU5.s 			page 8


 268 0044 FBE7     		b	.L16
 269              	.LVL22:
 270              	.L19:
 271              	.LBB5:
  66:Dev/Dev_5DirButton.c ****     {
 272              		.loc 1 66 42 discriminator 2 view .LVU73
 273 0046 0134     		adds	r4, r4, #1
 274              	.LVL23:
  66:Dev/Dev_5DirButton.c ****     {
 275              		.loc 1 66 42 discriminator 2 view .LVU74
 276 0048 E4B2     		uxtb	r4, r4
 277              	.LVL24:
  66:Dev/Dev_5DirButton.c ****     {
 278              		.loc 1 66 42 discriminator 2 view .LVU75
 279 004a E2E7     		b	.L17
 280              	.L28:
  66:Dev/Dev_5DirButton.c ****     {
 281              		.loc 1 66 42 discriminator 2 view .LVU76
 282              	.LBE5:
  81:Dev/Dev_5DirButton.c ****     {
 283              		.loc 1 81 5 is_stmt 1 view .LVU77
  81:Dev/Dev_5DirButton.c ****     {
 284              		.loc 1 81 12 is_stmt 0 view .LVU78
 285 004c 7378     		ldrb	r3, [r6, #1]	@ zero_extendqisi2
  81:Dev/Dev_5DirButton.c ****     {
 286              		.loc 1 81 8 view .LVU79
 287 004e 13F0010F 		tst	r3, #1
 288 0052 06D0     		beq	.L21
  83:Dev/Dev_5DirButton.c **** 
 289              		.loc 1 83 9 is_stmt 1 view .LVU80
 290              	.LVL25:
  85:Dev/Dev_5DirButton.c ****         io_val_tmp = ~io_val_tmp;
 291              		.loc 1 85 9 view .LVU81
  85:Dev/Dev_5DirButton.c ****         io_val_tmp = ~io_val_tmp;
 292              		.loc 1 85 20 is_stmt 0 view .LVU82
 293 0054 05F00C02 		and	r2, r5, #12
 294              	.LVL26:
  86:Dev/Dev_5DirButton.c **** 
 295              		.loc 1 86 9 is_stmt 1 view .LVU83
  86:Dev/Dev_5DirButton.c **** 
 296              		.loc 1 86 20 is_stmt 0 view .LVU84
 297 0058 82F0FF02 		eor	r2, r2, #255
 298              	.LVL27:
  88:Dev/Dev_5DirButton.c ****         io_val |= io_val_tmp;
 299              		.loc 1 88 9 is_stmt 1 view .LVU85
  88:Dev/Dev_5DirButton.c ****         io_val |= io_val_tmp;
 300              		.loc 1 88 16 is_stmt 0 view .LVU86
 301 005c 05F0F305 		and	r5, r5, #243
 302              	.LVL28:
  89:Dev/Dev_5DirButton.c ****     }
 303              		.loc 1 89 9 is_stmt 1 view .LVU87
  89:Dev/Dev_5DirButton.c ****     }
 304              		.loc 1 89 16 is_stmt 0 view .LVU88
 305 0060 1543     		orrs	r5, r5, r2
 306              	.LVL29:
 307              	.L21:
  92:Dev/Dev_5DirButton.c ****     {
ARM GAS  /tmp/ccV2ABU5.s 			page 9


 308              		.loc 1 92 5 is_stmt 1 view .LVU89
  92:Dev/Dev_5DirButton.c ****     {
 309              		.loc 1 92 8 is_stmt 0 view .LVU90
 310 0062 13F0020F 		tst	r3, #2
 311 0066 06D0     		beq	.L22
  94:Dev/Dev_5DirButton.c **** 
 312              		.loc 1 94 9 is_stmt 1 view .LVU91
 313              	.LVL30:
  96:Dev/Dev_5DirButton.c ****         io_val_tmp = ~io_val_tmp;
 314              		.loc 1 96 9 view .LVU92
  96:Dev/Dev_5DirButton.c ****         io_val_tmp = ~io_val_tmp;
 315              		.loc 1 96 20 is_stmt 0 view .LVU93
 316 0068 05F00302 		and	r2, r5, #3
 317              	.LVL31:
  97:Dev/Dev_5DirButton.c **** 
 318              		.loc 1 97 9 is_stmt 1 view .LVU94
  97:Dev/Dev_5DirButton.c **** 
 319              		.loc 1 97 20 is_stmt 0 view .LVU95
 320 006c 82F0FF02 		eor	r2, r2, #255
 321              	.LVL32:
  99:Dev/Dev_5DirButton.c ****         io_val |= io_val_tmp;
 322              		.loc 1 99 9 is_stmt 1 view .LVU96
  99:Dev/Dev_5DirButton.c ****         io_val |= io_val_tmp;
 323              		.loc 1 99 16 is_stmt 0 view .LVU97
 324 0070 05F0FC05 		and	r5, r5, #252
 325              	.LVL33:
 100:Dev/Dev_5DirButton.c ****     }
 326              		.loc 1 100 9 is_stmt 1 view .LVU98
 100:Dev/Dev_5DirButton.c ****     }
 327              		.loc 1 100 16 is_stmt 0 view .LVU99
 328 0074 1543     		orrs	r5, r5, r2
 329              	.LVL34:
 330              	.L22:
 103:Dev/Dev_5DirButton.c ****     {
 331              		.loc 1 103 5 is_stmt 1 view .LVU100
 103:Dev/Dev_5DirButton.c ****     {
 332              		.loc 1 103 8 is_stmt 0 view .LVU101
 333 0076 13F0040F 		tst	r3, #4
 334 007a E0D0     		beq	.L16
 105:Dev/Dev_5DirButton.c **** 
 335              		.loc 1 105 9 is_stmt 1 view .LVU102
 336              	.LVL35:
 107:Dev/Dev_5DirButton.c ****         io_val_tmp = ~io_val_tmp;
 337              		.loc 1 107 9 view .LVU103
 107:Dev/Dev_5DirButton.c ****         io_val_tmp = ~io_val_tmp;
 338              		.loc 1 107 20 is_stmt 0 view .LVU104
 339 007c 05F01003 		and	r3, r5, #16
 340              	.LVL36:
 108:Dev/Dev_5DirButton.c **** 
 341              		.loc 1 108 9 is_stmt 1 view .LVU105
 108:Dev/Dev_5DirButton.c **** 
 342              		.loc 1 108 20 is_stmt 0 view .LVU106
 343 0080 DB43     		mvns	r3, r3
 344              	.LVL37:
 108:Dev/Dev_5DirButton.c **** 
 345              		.loc 1 108 20 view .LVU107
 346 0082 DBB2     		uxtb	r3, r3
ARM GAS  /tmp/ccV2ABU5.s 			page 10


 347              	.LVL38:
 110:Dev/Dev_5DirButton.c ****         io_val |= io_val_tmp;
 348              		.loc 1 110 9 is_stmt 1 view .LVU108
 110:Dev/Dev_5DirButton.c ****         io_val |= io_val_tmp;
 349              		.loc 1 110 16 is_stmt 0 view .LVU109
 350 0084 05F0EF05 		and	r5, r5, #239
 351              	.LVL39:
 111:Dev/Dev_5DirButton.c ****     }
 352              		.loc 1 111 9 is_stmt 1 view .LVU110
 111:Dev/Dev_5DirButton.c ****     }
 353              		.loc 1 111 16 is_stmt 0 view .LVU111
 354 0088 1D43     		orrs	r5, r5, r3
 355              	.LVL40:
 111:Dev/Dev_5DirButton.c ****     }
 356              		.loc 1 111 16 view .LVU112
 357 008a D8E7     		b	.L16
 358              	.LVL41:
 359              	.L23:
  64:Dev/Dev_5DirButton.c **** 
 360              		.loc 1 64 16 view .LVU113
 361 008c 0525     		movs	r5, #5
 362 008e D6E7     		b	.L16
 363              	.L30:
 364              		.align	2
 365              	.L29:
 366 0090 00000000 		.word	DrvGPIO
 367              		.cfi_endproc
 368              	.LFE126:
 370              		.global	Dev5DirBtn
 371              		.section	.data.Dev5DirBtn,"aw"
 372              		.align	2
 375              	Dev5DirBtn:
 376 0000 00000000 		.word	Dev5DirButton_Open
 377 0004 00000000 		.word	Dev5DirButton_Invert
 378 0008 00000000 		.word	Dev5DirButton_Get
 379              		.text
 380              	.Letext0:
 381              		.file 2 "/home/bt0/stm32/compile-tool/gcc-arm-none-eabi-8-2018-q4-major-linux/gcc-arm-none-eabi-8-
 382              		.file 3 "/home/bt0/stm32/compile-tool/gcc-arm-none-eabi-8-2018-q4-major-linux/gcc-arm-none-eabi-8-
 383              		.file 4 "F4_CORE/core_cm4.h"
 384              		.file 5 "USER/system_stm32f4xx.h"
 385              		.file 6 "FWLIB/inc/stm32f4xx_exti.h"
 386              		.file 7 "Bsp/periph_exti.h"
 387              		.file 8 "Drv/drv_gpio.h"
 388              		.file 9 "Dev/Dev_5DirButton.h"
 389              		.file 10 "/home/bt0/stm32/compile-tool/gcc-arm-none-eabi-8-2018-q4-major-linux/gcc-arm-none-eabi-8
 390              		.file 11 "/home/bt0/stm32/compile-tool/gcc-arm-none-eabi-8-2018-q4-major-linux/gcc-arm-none-eabi-8
 391              		.file 12 "/home/bt0/stm32/compile-tool/gcc-arm-none-eabi-8-2018-q4-major-linux/gcc-arm-none-eabi-8
 392              		.file 13 "/home/bt0/stm32/compile-tool/gcc-arm-none-eabi-8-2018-q4-major-linux/gcc-arm-none-eabi-8
ARM GAS  /tmp/ccV2ABU5.s 			page 11

