ARM GAS  C:\Users\huav\AppData\Local\Temp\ccGDtekD.s 			page 1


   1              		.cpu cortex-m4
   2              		.eabi_attribute 27, 1
   3              		.eabi_attribute 28, 1
   4              		.eabi_attribute 20, 1
   5              		.eabi_attribute 21, 1
   6              		.eabi_attribute 23, 3
   7              		.eabi_attribute 24, 1
   8              		.eabi_attribute 25, 1
   9              		.eabi_attribute 26, 1
  10              		.eabi_attribute 30, 1
  11              		.eabi_attribute 34, 1
  12              		.eabi_attribute 18, 4
  13              		.file	"Dev_5DirButton.c"
  14              		.text
  15              	.Ltext0:
  16              		.cfi_sections	.debug_frame
  17              		.section	.text.Dev5DirButton_Open,"ax",%progbits
  18              		.align	1
  19              		.arch armv7e-m
  20              		.syntax unified
  21              		.thumb
  22              		.thumb_func
  23              		.fpu fpv4-sp-d16
  25              	Dev5DirButton_Open:
  26              	.LVL0:
  27              	.LFB123:
  28              		.file 1 "Dev/Dev_5DirButton.c"
   1:Dev/Dev_5DirButton.c **** #include "Dev_5DirButton.h"
   2:Dev/Dev_5DirButton.c **** #include "drv_gpio.h"
   3:Dev/Dev_5DirButton.c **** #include <string.h>
   4:Dev/Dev_5DirButton.c **** 
   5:Dev/Dev_5DirButton.c **** /* internal variable */
   6:Dev/Dev_5DirButton.c **** static uint8_t DirButton_Sum = 0;
   7:Dev/Dev_5DirButton.c **** 
   8:Dev/Dev_5DirButton.c **** /* internal function */
   9:Dev/Dev_5DirButton.c **** static bool Dev5DirButton_Open(DirButton_Obj_TypeDef *obj, DrvGPIO_Obj_TypeDef *io, uint8_t io_num)
  10:Dev/Dev_5DirButton.c **** static bool Dev5DirButton_Invert(DirButton_Obj_TypeDef *obj, uint8_t val);
  11:Dev/Dev_5DirButton.c **** static DirButton_Val_List Dev5DirButton_Get(DirButton_Obj_TypeDef *obj);
  12:Dev/Dev_5DirButton.c **** 
  13:Dev/Dev_5DirButton.c **** static uint8_t Dev5DirButton_Get_Sum(void);
  14:Dev/Dev_5DirButton.c **** 
  15:Dev/Dev_5DirButton.c **** /* external variable */
  16:Dev/Dev_5DirButton.c **** Dev5DirButton_TypeDef Dev5DirBtn = {
  17:Dev/Dev_5DirButton.c ****     .open = Dev5DirButton_Open,
  18:Dev/Dev_5DirButton.c ****     .invert = Dev5DirButton_Invert,
  19:Dev/Dev_5DirButton.c ****     .get = Dev5DirButton_Get,
  20:Dev/Dev_5DirButton.c **** };
  21:Dev/Dev_5DirButton.c **** 
  22:Dev/Dev_5DirButton.c **** static bool Dev5DirButton_Open(DirButton_Obj_TypeDef *obj, DrvGPIO_Obj_TypeDef *io, uint8_t io_num)
  23:Dev/Dev_5DirButton.c **** {
  29              		.loc 1 23 1 view -0
  30              		.cfi_startproc
  31              		@ args = 0, pretend = 0, frame = 0
  32              		@ frame_needed = 0, uses_anonymous_args = 0
  33              		.loc 1 23 1 is_stmt 0 view .LVU1
  34 0000 70B5     		push	{r4, r5, r6, lr}
  35              	.LCFI0:
ARM GAS  C:\Users\huav\AppData\Local\Temp\ccGDtekD.s 			page 2


  36              		.cfi_def_cfa_offset 16
  37              		.cfi_offset 4, -16
  38              		.cfi_offset 5, -12
  39              		.cfi_offset 6, -8
  40              		.cfi_offset 14, -4
  24:Dev/Dev_5DirButton.c ****     if ((obj == NULL) || (io == NULL) || (io_num != Dir_IO_Sum))
  41              		.loc 1 24 5 is_stmt 1 view .LVU2
  42              		.loc 1 24 8 is_stmt 0 view .LVU3
  43 0002 0646     		mov	r6, r0
  44 0004 18B1     		cbz	r0, .L2
  45 0006 1546     		mov	r5, r2
  46              		.loc 1 24 23 discriminator 1 view .LVU4
  47 0008 09B1     		cbz	r1, .L2
  48              		.loc 1 24 39 discriminator 2 view .LVU5
  49 000a 052A     		cmp	r2, #5
  50 000c 02D0     		beq	.L3
  51              	.L2:
  25:Dev/Dev_5DirButton.c ****     {
  26:Dev/Dev_5DirButton.c ****         obj->init_state = false;
  52              		.loc 1 26 9 is_stmt 1 view .LVU6
  53              		.loc 1 26 25 is_stmt 0 view .LVU7
  54 000e 0020     		movs	r0, #0
  55              	.LVL1:
  56              		.loc 1 26 25 view .LVU8
  57 0010 3070     		strb	r0, [r6]
  27:Dev/Dev_5DirButton.c ****         return false;
  58              		.loc 1 27 9 is_stmt 1 view .LVU9
  59              	.LVL2:
  60              	.L4:
  28:Dev/Dev_5DirButton.c ****     }
  29:Dev/Dev_5DirButton.c **** 
  30:Dev/Dev_5DirButton.c ****     obj->invert_reg = None_Invert;
  31:Dev/Dev_5DirButton.c **** 
  32:Dev/Dev_5DirButton.c ****     for (uint8_t i = 0; i < io_num; i++)
  33:Dev/Dev_5DirButton.c ****     {
  34:Dev/Dev_5DirButton.c ****         /* ToDo IO Init */
  35:Dev/Dev_5DirButton.c ****         DrvGPIO.open(&obj[i], GPIO_Input, NULL);
  36:Dev/Dev_5DirButton.c ****     }
  37:Dev/Dev_5DirButton.c **** 
  38:Dev/Dev_5DirButton.c ****     obj->init_state = true;
  39:Dev/Dev_5DirButton.c ****     return true;
  40:Dev/Dev_5DirButton.c **** }
  61              		.loc 1 40 1 is_stmt 0 view .LVU10
  62 0012 70BD     		pop	{r4, r5, r6, pc}
  63              	.LVL3:
  64              	.L3:
  30:Dev/Dev_5DirButton.c **** 
  65              		.loc 1 30 5 is_stmt 1 view .LVU11
  30:Dev/Dev_5DirButton.c **** 
  66              		.loc 1 30 21 is_stmt 0 view .LVU12
  67 0014 0024     		movs	r4, #0
  68 0016 4470     		strb	r4, [r0, #1]
  32:Dev/Dev_5DirButton.c ****     {
  69              		.loc 1 32 5 is_stmt 1 view .LVU13
  70              	.LBB2:
  32:Dev/Dev_5DirButton.c ****     {
  71              		.loc 1 32 10 view .LVU14
ARM GAS  C:\Users\huav\AppData\Local\Temp\ccGDtekD.s 			page 3


  72              	.LVL4:
  32:Dev/Dev_5DirButton.c ****     {
  73              		.loc 1 32 5 is_stmt 0 view .LVU15
  74 0018 0AE0     		b	.L5
  75              	.LVL5:
  76              	.L6:
  35:Dev/Dev_5DirButton.c ****     }
  77              		.loc 1 35 9 is_stmt 1 discriminator 3 view .LVU16
  35:Dev/Dev_5DirButton.c ****     }
  78              		.loc 1 35 16 is_stmt 0 discriminator 3 view .LVU17
  79 001a 084B     		ldr	r3, .L8
  80 001c 1B68     		ldr	r3, [r3]
  35:Dev/Dev_5DirButton.c ****     }
  81              		.loc 1 35 26 discriminator 3 view .LVU18
  82 001e 04EBC400 		add	r0, r4, r4, lsl #3
  35:Dev/Dev_5DirButton.c ****     }
  83              		.loc 1 35 9 discriminator 3 view .LVU19
  84 0022 0022     		movs	r2, #0
  85 0024 0121     		movs	r1, #1
  86 0026 06EB0010 		add	r0, r6, r0, lsl #4
  87 002a 9847     		blx	r3
  88              	.LVL6:
  32:Dev/Dev_5DirButton.c ****     {
  89              		.loc 1 32 37 is_stmt 1 discriminator 3 view .LVU20
  32:Dev/Dev_5DirButton.c ****     {
  90              		.loc 1 32 38 is_stmt 0 discriminator 3 view .LVU21
  91 002c 0134     		adds	r4, r4, #1
  92              	.LVL7:
  32:Dev/Dev_5DirButton.c ****     {
  93              		.loc 1 32 38 discriminator 3 view .LVU22
  94 002e E4B2     		uxtb	r4, r4
  95              	.LVL8:
  96              	.L5:
  32:Dev/Dev_5DirButton.c ****     {
  97              		.loc 1 32 25 is_stmt 1 discriminator 1 view .LVU23
  32:Dev/Dev_5DirButton.c ****     {
  98              		.loc 1 32 5 is_stmt 0 discriminator 1 view .LVU24
  99 0030 AC42     		cmp	r4, r5
 100 0032 F2D3     		bcc	.L6
 101              	.LBE2:
  38:Dev/Dev_5DirButton.c ****     return true;
 102              		.loc 1 38 5 is_stmt 1 view .LVU25
  38:Dev/Dev_5DirButton.c ****     return true;
 103              		.loc 1 38 21 is_stmt 0 view .LVU26
 104 0034 0120     		movs	r0, #1
 105 0036 3070     		strb	r0, [r6]
  39:Dev/Dev_5DirButton.c **** }
 106              		.loc 1 39 5 is_stmt 1 view .LVU27
  39:Dev/Dev_5DirButton.c **** }
 107              		.loc 1 39 12 is_stmt 0 view .LVU28
 108 0038 EBE7     		b	.L4
 109              	.L9:
 110 003a 00BF     		.align	2
 111              	.L8:
 112 003c 00000000 		.word	DrvGPIO
 113              		.cfi_endproc
 114              	.LFE123:
ARM GAS  C:\Users\huav\AppData\Local\Temp\ccGDtekD.s 			page 4


 116              		.section	.text.Dev5DirButton_Invert,"ax",%progbits
 117              		.align	1
 118              		.syntax unified
 119              		.thumb
 120              		.thumb_func
 121              		.fpu fpv4-sp-d16
 123              	Dev5DirButton_Invert:
 124              	.LVL9:
 125              	.LFB125:
  41:Dev/Dev_5DirButton.c **** 
  42:Dev/Dev_5DirButton.c **** static uint8_t Dev5DirButton_Get_Sum(void)
  43:Dev/Dev_5DirButton.c **** {
  44:Dev/Dev_5DirButton.c ****     return DirButton_Sum;
  45:Dev/Dev_5DirButton.c **** }
  46:Dev/Dev_5DirButton.c **** 
  47:Dev/Dev_5DirButton.c **** static bool Dev5DirButton_Invert(DirButton_Obj_TypeDef *obj, uint8_t val)
  48:Dev/Dev_5DirButton.c **** {
 126              		.loc 1 48 1 is_stmt 1 view -0
 127              		.cfi_startproc
 128              		@ args = 0, pretend = 0, frame = 0
 129              		@ frame_needed = 0, uses_anonymous_args = 0
 130              		@ link register save eliminated.
  49:Dev/Dev_5DirButton.c ****     if ((obj == NULL) || (!obj->init_state) || (val > 0x1F))
 131              		.loc 1 49 5 view .LVU30
 132              		.loc 1 49 8 is_stmt 0 view .LVU31
 133 0000 0346     		mov	r3, r0
 134 0002 28B1     		cbz	r0, .L12
 135              		.loc 1 49 31 discriminator 1 view .LVU32
 136 0004 0078     		ldrb	r0, [r0]	@ zero_extendqisi2
 137              	.LVL10:
 138              		.loc 1 49 23 discriminator 1 view .LVU33
 139 0006 30B1     		cbz	r0, .L11
 140              		.loc 1 49 45 discriminator 2 view .LVU34
 141 0008 1F29     		cmp	r1, #31
 142 000a 03D8     		bhi	.L13
  50:Dev/Dev_5DirButton.c ****         return false;
  51:Dev/Dev_5DirButton.c **** 
  52:Dev/Dev_5DirButton.c ****     obj->invert_reg = val;
 143              		.loc 1 52 5 is_stmt 1 view .LVU35
 144              		.loc 1 52 21 is_stmt 0 view .LVU36
 145 000c 5970     		strb	r1, [r3, #1]
  53:Dev/Dev_5DirButton.c **** 
  54:Dev/Dev_5DirButton.c ****     return true;
 146              		.loc 1 54 5 is_stmt 1 view .LVU37
 147              		.loc 1 54 12 is_stmt 0 view .LVU38
 148 000e 7047     		bx	lr
 149              	.LVL11:
 150              	.L12:
  50:Dev/Dev_5DirButton.c ****         return false;
 151              		.loc 1 50 16 view .LVU39
 152 0010 0020     		movs	r0, #0
 153              	.LVL12:
  50:Dev/Dev_5DirButton.c ****         return false;
 154              		.loc 1 50 16 view .LVU40
 155 0012 7047     		bx	lr
 156              	.L13:
 157 0014 0020     		movs	r0, #0
ARM GAS  C:\Users\huav\AppData\Local\Temp\ccGDtekD.s 			page 5


 158              	.L11:
  55:Dev/Dev_5DirButton.c **** }
 159              		.loc 1 55 1 view .LVU41
 160 0016 7047     		bx	lr
 161              		.cfi_endproc
 162              	.LFE125:
 164              		.section	.text.Dev5DirButton_Get,"ax",%progbits
 165              		.align	1
 166              		.syntax unified
 167              		.thumb
 168              		.thumb_func
 169              		.fpu fpv4-sp-d16
 171              	Dev5DirButton_Get:
 172              	.LVL13:
 173              	.LFB126:
  56:Dev/Dev_5DirButton.c **** 
  57:Dev/Dev_5DirButton.c **** static DirButton_Val_List Dev5DirButton_Get(DirButton_Obj_TypeDef *obj)
  58:Dev/Dev_5DirButton.c **** {
 174              		.loc 1 58 1 is_stmt 1 view -0
 175              		.cfi_startproc
 176              		@ args = 0, pretend = 0, frame = 0
 177              		@ frame_needed = 0, uses_anonymous_args = 0
 178              		.loc 1 58 1 is_stmt 0 view .LVU43
 179 0000 F8B5     		push	{r3, r4, r5, r6, r7, lr}
 180              	.LCFI1:
 181              		.cfi_def_cfa_offset 24
 182              		.cfi_offset 3, -24
 183              		.cfi_offset 4, -20
 184              		.cfi_offset 5, -16
 185              		.cfi_offset 6, -12
 186              		.cfi_offset 7, -8
 187              		.cfi_offset 14, -4
  59:Dev/Dev_5DirButton.c ****     uint8_t io_val = 0;
 188              		.loc 1 59 5 is_stmt 1 view .LVU44
 189              	.LVL14:
  60:Dev/Dev_5DirButton.c ****     uint8_t io_val_tmp = 0;
 190              		.loc 1 60 5 view .LVU45
  61:Dev/Dev_5DirButton.c ****     uint8_t hit_cnt = 0;
 191              		.loc 1 61 5 view .LVU46
  62:Dev/Dev_5DirButton.c **** 
  63:Dev/Dev_5DirButton.c ****     if ((obj == NULL) || (!obj->init_state))
 192              		.loc 1 63 5 view .LVU47
 193              		.loc 1 63 8 is_stmt 0 view .LVU48
 194 0002 0028     		cmp	r0, #0
 195 0004 42D0     		beq	.L22
 196 0006 0746     		mov	r7, r0
 197              		.loc 1 63 31 discriminator 1 view .LVU49
 198 0008 0378     		ldrb	r3, [r0]	@ zero_extendqisi2
 199              		.loc 1 63 23 discriminator 1 view .LVU50
 200 000a D3B1     		cbz	r3, .L26
 201              	.LBB3:
  64:Dev/Dev_5DirButton.c ****         return Dir_Err;
  65:Dev/Dev_5DirButton.c **** 
  66:Dev/Dev_5DirButton.c ****     for (uint8_t i = 0; i < Dir_IO_Sum; i++)
 202              		.loc 1 66 18 view .LVU51
 203 000c 0024     		movs	r4, #0
 204              	.LBE3:
ARM GAS  C:\Users\huav\AppData\Local\Temp\ccGDtekD.s 			page 6


  61:Dev/Dev_5DirButton.c **** 
 205              		.loc 1 61 13 view .LVU52
 206 000e 2646     		mov	r6, r4
  59:Dev/Dev_5DirButton.c ****     uint8_t io_val_tmp = 0;
 207              		.loc 1 59 13 view .LVU53
 208 0010 2546     		mov	r5, r4
 209              	.LVL15:
 210              	.L16:
 211              	.LBB4:
 212              		.loc 1 66 25 is_stmt 1 discriminator 1 view .LVU54
 213              		.loc 1 66 5 is_stmt 0 discriminator 1 view .LVU55
 214 0012 042C     		cmp	r4, #4
 215 0014 1AD8     		bhi	.L27
  67:Dev/Dev_5DirButton.c ****     {
  68:Dev/Dev_5DirButton.c ****         if (DrvGPIO.get(&obj->IO[i]))
 216              		.loc 1 68 9 is_stmt 1 view .LVU56
 217              		.loc 1 68 20 is_stmt 0 view .LVU57
 218 0016 1E4B     		ldr	r3, .L28
 219 0018 DB68     		ldr	r3, [r3, #12]
 220              		.loc 1 68 13 view .LVU58
 221 001a C4EBC400 		rsb	r0, r4, r4, lsl #3
 222 001e 07EB8000 		add	r0, r7, r0, lsl #2
 223 0022 0430     		adds	r0, r0, #4
 224 0024 9847     		blx	r3
 225              	.LVL16:
 226              		.loc 1 68 12 view .LVU59
 227 0026 28B1     		cbz	r0, .L17
  69:Dev/Dev_5DirButton.c ****         {
  70:Dev/Dev_5DirButton.c ****             io_val |= SetBit(i);
 228              		.loc 1 70 13 is_stmt 1 view .LVU60
 229              		.loc 1 70 23 is_stmt 0 view .LVU61
 230 0028 0123     		movs	r3, #1
 231 002a A340     		lsls	r3, r3, r4
 232              		.loc 1 70 20 view .LVU62
 233 002c 1D43     		orrs	r5, r5, r3
 234              	.LVL17:
 235              		.loc 1 70 20 view .LVU63
 236 002e EDB2     		uxtb	r5, r5
 237              	.LVL18:
  71:Dev/Dev_5DirButton.c ****             hit_cnt++;
 238              		.loc 1 71 13 is_stmt 1 view .LVU64
 239              		.loc 1 71 20 is_stmt 0 view .LVU65
 240 0030 0136     		adds	r6, r6, #1
 241              	.LVL19:
 242              		.loc 1 71 20 view .LVU66
 243 0032 F6B2     		uxtb	r6, r6
 244              	.LVL20:
 245              	.L17:
  72:Dev/Dev_5DirButton.c ****         }
  73:Dev/Dev_5DirButton.c **** 
  74:Dev/Dev_5DirButton.c ****         /* except mid button, other button detect been hit at same time then return error */
  75:Dev/Dev_5DirButton.c ****         if ((hit_cnt > 1) && (i < Dir_IO_Mid))
 246              		.loc 1 75 9 is_stmt 1 view .LVU67
 247              		.loc 1 75 12 is_stmt 0 view .LVU68
 248 0034 012E     		cmp	r6, #1
 249 0036 06D9     		bls	.L18
 250              		.loc 1 75 27 discriminator 1 view .LVU69
ARM GAS  C:\Users\huav\AppData\Local\Temp\ccGDtekD.s 			page 7


 251 0038 032C     		cmp	r4, #3
 252 003a 04D8     		bhi	.L18
  76:Dev/Dev_5DirButton.c ****         {
  77:Dev/Dev_5DirButton.c ****             return Dir_Err;
 253              		.loc 1 77 20 view .LVU70
 254 003c 0525     		movs	r5, #5
 255              	.LVL21:
 256              	.L15:
 257              		.loc 1 77 20 view .LVU71
 258              	.LBE4:
  78:Dev/Dev_5DirButton.c ****         }
  79:Dev/Dev_5DirButton.c ****     }
  80:Dev/Dev_5DirButton.c **** 
  81:Dev/Dev_5DirButton.c ****     if (obj->invert_reg & Axis_X_Invert)
  82:Dev/Dev_5DirButton.c ****     {
  83:Dev/Dev_5DirButton.c ****         io_val_tmp = io_val;
  84:Dev/Dev_5DirButton.c **** 
  85:Dev/Dev_5DirButton.c ****         io_val_tmp &= 0x0C;
  86:Dev/Dev_5DirButton.c ****         io_val_tmp = ~io_val_tmp;
  87:Dev/Dev_5DirButton.c **** 
  88:Dev/Dev_5DirButton.c ****         io_val &= ~0x0C;
  89:Dev/Dev_5DirButton.c ****         io_val |= io_val_tmp;
  90:Dev/Dev_5DirButton.c ****     }
  91:Dev/Dev_5DirButton.c **** 
  92:Dev/Dev_5DirButton.c ****     if (obj->invert_reg & Axis_Y_Invert)
  93:Dev/Dev_5DirButton.c ****     {
  94:Dev/Dev_5DirButton.c ****         io_val_tmp = io_val;
  95:Dev/Dev_5DirButton.c **** 
  96:Dev/Dev_5DirButton.c ****         io_val_tmp &= 0x03;
  97:Dev/Dev_5DirButton.c ****         io_val_tmp = ~io_val_tmp;
  98:Dev/Dev_5DirButton.c **** 
  99:Dev/Dev_5DirButton.c ****         io_val &= ~0x03;
 100:Dev/Dev_5DirButton.c ****         io_val |= io_val_tmp;
 101:Dev/Dev_5DirButton.c ****     }
 102:Dev/Dev_5DirButton.c **** 
 103:Dev/Dev_5DirButton.c ****     if (obj->invert_reg & Mid_Invert)
 104:Dev/Dev_5DirButton.c ****     {
 105:Dev/Dev_5DirButton.c ****         io_val_tmp = io_val;
 106:Dev/Dev_5DirButton.c **** 
 107:Dev/Dev_5DirButton.c ****         io_val_tmp &= 0x10;
 108:Dev/Dev_5DirButton.c ****         io_val_tmp = ~io_val_tmp;
 109:Dev/Dev_5DirButton.c **** 
 110:Dev/Dev_5DirButton.c ****         io_val &= ~0x10;
 111:Dev/Dev_5DirButton.c ****         io_val |= io_val_tmp;
 112:Dev/Dev_5DirButton.c ****     }
 113:Dev/Dev_5DirButton.c **** 
 114:Dev/Dev_5DirButton.c ****     return io_val;
 115:Dev/Dev_5DirButton.c **** }
 259              		.loc 1 115 1 view .LVU72
 260 003e 2846     		mov	r0, r5
 261 0040 F8BD     		pop	{r3, r4, r5, r6, r7, pc}
 262              	.LVL22:
 263              	.L26:
  64:Dev/Dev_5DirButton.c **** 
 264              		.loc 1 64 16 view .LVU73
 265 0042 0525     		movs	r5, #5
 266 0044 FBE7     		b	.L15
ARM GAS  C:\Users\huav\AppData\Local\Temp\ccGDtekD.s 			page 8


 267              	.LVL23:
 268              	.L18:
 269              	.LBB5:
  66:Dev/Dev_5DirButton.c ****     {
 270              		.loc 1 66 41 is_stmt 1 discriminator 2 view .LVU74
  66:Dev/Dev_5DirButton.c ****     {
 271              		.loc 1 66 42 is_stmt 0 discriminator 2 view .LVU75
 272 0046 0134     		adds	r4, r4, #1
 273              	.LVL24:
  66:Dev/Dev_5DirButton.c ****     {
 274              		.loc 1 66 42 discriminator 2 view .LVU76
 275 0048 E4B2     		uxtb	r4, r4
 276              	.LVL25:
  66:Dev/Dev_5DirButton.c ****     {
 277              		.loc 1 66 42 discriminator 2 view .LVU77
 278 004a E2E7     		b	.L16
 279              	.L27:
  66:Dev/Dev_5DirButton.c ****     {
 280              		.loc 1 66 42 discriminator 2 view .LVU78
 281              	.LBE5:
  81:Dev/Dev_5DirButton.c ****     {
 282              		.loc 1 81 5 is_stmt 1 view .LVU79
  81:Dev/Dev_5DirButton.c ****     {
 283              		.loc 1 81 12 is_stmt 0 view .LVU80
 284 004c 7B78     		ldrb	r3, [r7, #1]	@ zero_extendqisi2
  81:Dev/Dev_5DirButton.c ****     {
 285              		.loc 1 81 8 view .LVU81
 286 004e 13F0010F 		tst	r3, #1
 287 0052 06D0     		beq	.L20
  83:Dev/Dev_5DirButton.c **** 
 288              		.loc 1 83 9 is_stmt 1 view .LVU82
 289              	.LVL26:
  85:Dev/Dev_5DirButton.c ****         io_val_tmp = ~io_val_tmp;
 290              		.loc 1 85 9 view .LVU83
  85:Dev/Dev_5DirButton.c ****         io_val_tmp = ~io_val_tmp;
 291              		.loc 1 85 20 is_stmt 0 view .LVU84
 292 0054 05F00C02 		and	r2, r5, #12
 293              	.LVL27:
  86:Dev/Dev_5DirButton.c **** 
 294              		.loc 1 86 9 is_stmt 1 view .LVU85
  86:Dev/Dev_5DirButton.c **** 
 295              		.loc 1 86 20 is_stmt 0 view .LVU86
 296 0058 82F0FF02 		eor	r2, r2, #255
 297              	.LVL28:
  88:Dev/Dev_5DirButton.c ****         io_val |= io_val_tmp;
 298              		.loc 1 88 9 is_stmt 1 view .LVU87
  88:Dev/Dev_5DirButton.c ****         io_val |= io_val_tmp;
 299              		.loc 1 88 16 is_stmt 0 view .LVU88
 300 005c 05F0F305 		and	r5, r5, #243
 301              	.LVL29:
  89:Dev/Dev_5DirButton.c ****     }
 302              		.loc 1 89 9 is_stmt 1 view .LVU89
  89:Dev/Dev_5DirButton.c ****     }
 303              		.loc 1 89 16 is_stmt 0 view .LVU90
 304 0060 1543     		orrs	r5, r5, r2
 305              	.LVL30:
 306              	.L20:
ARM GAS  C:\Users\huav\AppData\Local\Temp\ccGDtekD.s 			page 9


  92:Dev/Dev_5DirButton.c ****     {
 307              		.loc 1 92 5 is_stmt 1 view .LVU91
  92:Dev/Dev_5DirButton.c ****     {
 308              		.loc 1 92 8 is_stmt 0 view .LVU92
 309 0062 13F0020F 		tst	r3, #2
 310 0066 06D0     		beq	.L21
  94:Dev/Dev_5DirButton.c **** 
 311              		.loc 1 94 9 is_stmt 1 view .LVU93
 312              	.LVL31:
  96:Dev/Dev_5DirButton.c ****         io_val_tmp = ~io_val_tmp;
 313              		.loc 1 96 9 view .LVU94
  96:Dev/Dev_5DirButton.c ****         io_val_tmp = ~io_val_tmp;
 314              		.loc 1 96 20 is_stmt 0 view .LVU95
 315 0068 05F00302 		and	r2, r5, #3
 316              	.LVL32:
  97:Dev/Dev_5DirButton.c **** 
 317              		.loc 1 97 9 is_stmt 1 view .LVU96
  97:Dev/Dev_5DirButton.c **** 
 318              		.loc 1 97 20 is_stmt 0 view .LVU97
 319 006c 82F0FF02 		eor	r2, r2, #255
 320              	.LVL33:
  99:Dev/Dev_5DirButton.c ****         io_val |= io_val_tmp;
 321              		.loc 1 99 9 is_stmt 1 view .LVU98
  99:Dev/Dev_5DirButton.c ****         io_val |= io_val_tmp;
 322              		.loc 1 99 16 is_stmt 0 view .LVU99
 323 0070 05F0FC05 		and	r5, r5, #252
 324              	.LVL34:
 100:Dev/Dev_5DirButton.c ****     }
 325              		.loc 1 100 9 is_stmt 1 view .LVU100
 100:Dev/Dev_5DirButton.c ****     }
 326              		.loc 1 100 16 is_stmt 0 view .LVU101
 327 0074 1543     		orrs	r5, r5, r2
 328              	.LVL35:
 329              	.L21:
 103:Dev/Dev_5DirButton.c ****     {
 330              		.loc 1 103 5 is_stmt 1 view .LVU102
 103:Dev/Dev_5DirButton.c ****     {
 331              		.loc 1 103 8 is_stmt 0 view .LVU103
 332 0076 13F0040F 		tst	r3, #4
 333 007a E0D0     		beq	.L15
 105:Dev/Dev_5DirButton.c **** 
 334              		.loc 1 105 9 is_stmt 1 view .LVU104
 335              	.LVL36:
 107:Dev/Dev_5DirButton.c ****         io_val_tmp = ~io_val_tmp;
 336              		.loc 1 107 9 view .LVU105
 107:Dev/Dev_5DirButton.c ****         io_val_tmp = ~io_val_tmp;
 337              		.loc 1 107 20 is_stmt 0 view .LVU106
 338 007c 05F01003 		and	r3, r5, #16
 339              	.LVL37:
 108:Dev/Dev_5DirButton.c **** 
 340              		.loc 1 108 9 is_stmt 1 view .LVU107
 108:Dev/Dev_5DirButton.c **** 
 341              		.loc 1 108 20 is_stmt 0 view .LVU108
 342 0080 83F0FF03 		eor	r3, r3, #255
 343              	.LVL38:
 110:Dev/Dev_5DirButton.c ****         io_val |= io_val_tmp;
 344              		.loc 1 110 9 is_stmt 1 view .LVU109
ARM GAS  C:\Users\huav\AppData\Local\Temp\ccGDtekD.s 			page 10


 110:Dev/Dev_5DirButton.c ****         io_val |= io_val_tmp;
 345              		.loc 1 110 16 is_stmt 0 view .LVU110
 346 0084 05F0EF05 		and	r5, r5, #239
 347              	.LVL39:
 111:Dev/Dev_5DirButton.c ****     }
 348              		.loc 1 111 9 is_stmt 1 view .LVU111
 111:Dev/Dev_5DirButton.c ****     }
 349              		.loc 1 111 16 is_stmt 0 view .LVU112
 350 0088 1D43     		orrs	r5, r5, r3
 351              	.LVL40:
 111:Dev/Dev_5DirButton.c ****     }
 352              		.loc 1 111 16 view .LVU113
 353 008a D8E7     		b	.L15
 354              	.LVL41:
 355              	.L22:
  64:Dev/Dev_5DirButton.c **** 
 356              		.loc 1 64 16 view .LVU114
 357 008c 0525     		movs	r5, #5
 358 008e D6E7     		b	.L15
 359              	.L29:
 360              		.align	2
 361              	.L28:
 362 0090 00000000 		.word	DrvGPIO
 363              		.cfi_endproc
 364              	.LFE126:
 366              		.global	Dev5DirBtn
 367              		.section	.data.Dev5DirBtn,"aw"
 368              		.align	2
 371              	Dev5DirBtn:
 372 0000 00000000 		.word	Dev5DirButton_Open
 373 0004 00000000 		.word	Dev5DirButton_Invert
 374 0008 00000000 		.word	Dev5DirButton_Get
 375              		.text
 376              	.Letext0:
 377              		.file 2 "c:\\program files (x86)\\gnu arm embedded toolchain\\10 2020-q4-major\\arm-none-eabi\\inc
 378              		.file 3 "c:\\program files (x86)\\gnu arm embedded toolchain\\10 2020-q4-major\\arm-none-eabi\\inc
 379              		.file 4 "FWLIB/inc/stm32f4xx_exti.h"
 380              		.file 5 "Bsp/periph_exti.h"
 381              		.file 6 "Drv/drv_gpio.h"
 382              		.file 7 "Dev/Dev_5DirButton.h"
ARM GAS  C:\Users\huav\AppData\Local\Temp\ccGDtekD.s 			page 11


DEFINED SYMBOLS
                            *ABS*:00000000 Dev_5DirButton.c
C:\Users\huav\AppData\Local\Temp\ccGDtekD.s:18     .text.Dev5DirButton_Open:00000000 $t
C:\Users\huav\AppData\Local\Temp\ccGDtekD.s:25     .text.Dev5DirButton_Open:00000000 Dev5DirButton_Open
C:\Users\huav\AppData\Local\Temp\ccGDtekD.s:112    .text.Dev5DirButton_Open:0000003c $d
C:\Users\huav\AppData\Local\Temp\ccGDtekD.s:117    .text.Dev5DirButton_Invert:00000000 $t
C:\Users\huav\AppData\Local\Temp\ccGDtekD.s:123    .text.Dev5DirButton_Invert:00000000 Dev5DirButton_Invert
C:\Users\huav\AppData\Local\Temp\ccGDtekD.s:165    .text.Dev5DirButton_Get:00000000 $t
C:\Users\huav\AppData\Local\Temp\ccGDtekD.s:171    .text.Dev5DirButton_Get:00000000 Dev5DirButton_Get
C:\Users\huav\AppData\Local\Temp\ccGDtekD.s:362    .text.Dev5DirButton_Get:00000090 $d
C:\Users\huav\AppData\Local\Temp\ccGDtekD.s:371    .data.Dev5DirBtn:00000000 Dev5DirBtn
C:\Users\huav\AppData\Local\Temp\ccGDtekD.s:368    .data.Dev5DirBtn:00000000 $d

UNDEFINED SYMBOLS
DrvGPIO
