ARM GAS  /tmp/ccqf0Ks3.s 			page 1


   1              		.cpu cortex-m4
   2              		.eabi_attribute 27, 1
   3              		.eabi_attribute 28, 1
   4              		.eabi_attribute 20, 1
   5              		.eabi_attribute 21, 1
   6              		.eabi_attribute 23, 3
   7              		.eabi_attribute 24, 1
   8              		.eabi_attribute 25, 1
   9              		.eabi_attribute 26, 1
  10              		.eabi_attribute 30, 1
  11              		.eabi_attribute 34, 1
  12              		.eabi_attribute 18, 4
  13              		.file	"Dev_5DirButton.c"
  14              		.text
  15              	.Ltext0:
  16              		.cfi_sections	.debug_frame
  17              		.section	.text.Dev5DirButton_Open,"ax",%progbits
  18              		.align	1
  19              		.syntax unified
  20              		.thumb
  21              		.thumb_func
  22              		.fpu fpv4-sp-d16
  24              	Dev5DirButton_Open:
  25              	.LFB123:
  26              		.file 1 "Dev/Dev_5DirButton.c"
   1:Dev/Dev_5DirButton.c **** #include "Dev_5DirButton.h"
   2:Dev/Dev_5DirButton.c **** #include "drv_gpio.h"
   3:Dev/Dev_5DirButton.c **** #include <string.h>
   4:Dev/Dev_5DirButton.c **** 
   5:Dev/Dev_5DirButton.c **** /* internal variable */
   6:Dev/Dev_5DirButton.c **** static uint8_t DirButton_Sum = 0;
   7:Dev/Dev_5DirButton.c **** 
   8:Dev/Dev_5DirButton.c **** /* internal function */
   9:Dev/Dev_5DirButton.c **** static bool Dev5DirButton_Open(DirButton_Obj_TypeDef *obj, DrvGPIO_Obj_TypeDef *io, uint8_t io_num)
  10:Dev/Dev_5DirButton.c **** static bool Dev5DirButton_Invert(DirButton_Obj_TypeDef *obj, uint8_t val);
  11:Dev/Dev_5DirButton.c **** static DirButton_Val_List Dev5DirButton_Get(DirButton_Obj_TypeDef *obj);
  12:Dev/Dev_5DirButton.c **** 
  13:Dev/Dev_5DirButton.c **** static uint8_t Dev5DirButton_Get_Sum(void);
  14:Dev/Dev_5DirButton.c **** 
  15:Dev/Dev_5DirButton.c **** /* external variable */
  16:Dev/Dev_5DirButton.c **** Dev5DirButton_TypeDef Dev5DirBtn = {
  17:Dev/Dev_5DirButton.c ****     .open = Dev5DirButton_Open,
  18:Dev/Dev_5DirButton.c ****     .invert = Dev5DirButton_Invert,
  19:Dev/Dev_5DirButton.c ****     .get = Dev5DirButton_Get,
  20:Dev/Dev_5DirButton.c **** };
  21:Dev/Dev_5DirButton.c **** 
  22:Dev/Dev_5DirButton.c **** static bool Dev5DirButton_Open(DirButton_Obj_TypeDef *obj, DrvGPIO_Obj_TypeDef *io, uint8_t io_num)
  23:Dev/Dev_5DirButton.c **** {
  27              		.loc 1 23 0
  28              		.cfi_startproc
  29              		@ args = 0, pretend = 0, frame = 0
  30              		@ frame_needed = 0, uses_anonymous_args = 0
  31              	.LVL0:
  32 0000 70B5     		push	{r4, r5, r6, lr}
  33              	.LCFI0:
  34              		.cfi_def_cfa_offset 16
  35              		.cfi_offset 4, -16
ARM GAS  /tmp/ccqf0Ks3.s 			page 2


  36              		.cfi_offset 5, -12
  37              		.cfi_offset 6, -8
  38              		.cfi_offset 14, -4
  24:Dev/Dev_5DirButton.c ****     if ((obj == NULL) || (io == NULL) || (io_num != Dir_IO_Sum))
  39              		.loc 1 24 0
  40 0002 0546     		mov	r5, r0
  41 0004 10B1     		cbz	r0, .L2
  42              		.loc 1 24 0 is_stmt 0 discriminator 1
  43 0006 09B1     		cbz	r1, .L2
  44              		.loc 1 24 0 discriminator 2
  45 0008 052A     		cmp	r2, #5
  46 000a 02D0     		beq	.L3
  47              	.L2:
  25:Dev/Dev_5DirButton.c ****     {
  26:Dev/Dev_5DirButton.c ****         obj->init_state = false;
  48              		.loc 1 26 0 is_stmt 1
  49 000c 0020     		movs	r0, #0
  50              	.LVL1:
  51 000e 2870     		strb	r0, [r5]
  27:Dev/Dev_5DirButton.c ****         return false;
  52              		.loc 1 27 0
  53 0010 70BD     		pop	{r4, r5, r6, pc}
  54              	.LVL2:
  55              	.L3:
  56 0012 1646     		mov	r6, r2
  28:Dev/Dev_5DirButton.c ****     }
  29:Dev/Dev_5DirButton.c **** 
  30:Dev/Dev_5DirButton.c ****     obj->invert_reg = None_Invert;
  57              		.loc 1 30 0
  58 0014 0024     		movs	r4, #0
  59 0016 4470     		strb	r4, [r0, #1]
  60              	.LVL3:
  61              	.LBB2:
  31:Dev/Dev_5DirButton.c **** 
  32:Dev/Dev_5DirButton.c ****     for (uint8_t i = 0; i < io_num; i++)
  62              		.loc 1 32 0
  63 0018 09E0     		b	.L5
  64              	.LVL4:
  65              	.L6:
  33:Dev/Dev_5DirButton.c ****     {
  34:Dev/Dev_5DirButton.c ****         /* ToDo IO Init */
  35:Dev/Dev_5DirButton.c ****         DrvGPIO.open(&obj[i], GPIO_Input, NULL);
  66              		.loc 1 35 0 discriminator 3
  67 001a 074B     		ldr	r3, .L8
  68 001c 1B68     		ldr	r3, [r3]
  69 001e 0022     		movs	r2, #0
  70 0020 0121     		movs	r1, #1
  71 0022 5420     		movs	r0, #84
  72 0024 00FB0450 		mla	r0, r0, r4, r5
  73 0028 9847     		blx	r3
  74              	.LVL5:
  32:Dev/Dev_5DirButton.c ****     {
  75              		.loc 1 32 0 discriminator 3
  76 002a 0134     		adds	r4, r4, #1
  77              	.LVL6:
  78 002c E4B2     		uxtb	r4, r4
  79              	.LVL7:
ARM GAS  /tmp/ccqf0Ks3.s 			page 3


  80              	.L5:
  32:Dev/Dev_5DirButton.c ****     {
  81              		.loc 1 32 0 is_stmt 0 discriminator 1
  82 002e B442     		cmp	r4, r6
  83 0030 F3D3     		bcc	.L6
  84              	.LBE2:
  36:Dev/Dev_5DirButton.c ****     }
  37:Dev/Dev_5DirButton.c **** 
  38:Dev/Dev_5DirButton.c ****     obj->init_state = true;
  85              		.loc 1 38 0 is_stmt 1
  86 0032 0120     		movs	r0, #1
  87 0034 2870     		strb	r0, [r5]
  39:Dev/Dev_5DirButton.c ****     return true;
  40:Dev/Dev_5DirButton.c **** }
  88              		.loc 1 40 0
  89 0036 70BD     		pop	{r4, r5, r6, pc}
  90              	.LVL8:
  91              	.L9:
  92              		.align	2
  93              	.L8:
  94 0038 00000000 		.word	DrvGPIO
  95              		.cfi_endproc
  96              	.LFE123:
  98              		.section	.text.Dev5DirButton_Invert,"ax",%progbits
  99              		.align	1
 100              		.syntax unified
 101              		.thumb
 102              		.thumb_func
 103              		.fpu fpv4-sp-d16
 105              	Dev5DirButton_Invert:
 106              	.LFB125:
  41:Dev/Dev_5DirButton.c **** 
  42:Dev/Dev_5DirButton.c **** static uint8_t Dev5DirButton_Get_Sum(void)
  43:Dev/Dev_5DirButton.c **** {
  44:Dev/Dev_5DirButton.c ****     return DirButton_Sum;
  45:Dev/Dev_5DirButton.c **** }
  46:Dev/Dev_5DirButton.c **** 
  47:Dev/Dev_5DirButton.c **** static bool Dev5DirButton_Invert(DirButton_Obj_TypeDef *obj, uint8_t val)
  48:Dev/Dev_5DirButton.c **** {
 107              		.loc 1 48 0
 108              		.cfi_startproc
 109              		@ args = 0, pretend = 0, frame = 0
 110              		@ frame_needed = 0, uses_anonymous_args = 0
 111              		@ link register save eliminated.
 112              	.LVL9:
  49:Dev/Dev_5DirButton.c ****     if ((obj == NULL) || (!obj->init_state) || (val > 0x1F))
 113              		.loc 1 49 0
 114 0000 0346     		mov	r3, r0
 115 0002 28B1     		cbz	r0, .L12
 116              		.loc 1 49 0 is_stmt 0 discriminator 1
 117 0004 0078     		ldrb	r0, [r0]	@ zero_extendqisi2
 118              	.LVL10:
 119 0006 30B1     		cbz	r0, .L11
 120              		.loc 1 49 0 discriminator 2
 121 0008 1F29     		cmp	r1, #31
 122 000a 03D8     		bhi	.L13
  50:Dev/Dev_5DirButton.c ****         return false;
ARM GAS  /tmp/ccqf0Ks3.s 			page 4


  51:Dev/Dev_5DirButton.c **** 
  52:Dev/Dev_5DirButton.c ****     obj->invert_reg = val;
 123              		.loc 1 52 0 is_stmt 1
 124 000c 5970     		strb	r1, [r3, #1]
  53:Dev/Dev_5DirButton.c **** 
  54:Dev/Dev_5DirButton.c ****     return true;
 125              		.loc 1 54 0
 126 000e 7047     		bx	lr
 127              	.LVL11:
 128              	.L12:
  50:Dev/Dev_5DirButton.c ****         return false;
 129              		.loc 1 50 0
 130 0010 0020     		movs	r0, #0
 131              	.LVL12:
 132 0012 7047     		bx	lr
 133              	.L13:
 134 0014 0020     		movs	r0, #0
 135              	.L11:
  55:Dev/Dev_5DirButton.c **** }
 136              		.loc 1 55 0
 137 0016 7047     		bx	lr
 138              		.cfi_endproc
 139              	.LFE125:
 141              		.section	.text.Dev5DirButton_Get,"ax",%progbits
 142              		.align	1
 143              		.syntax unified
 144              		.thumb
 145              		.thumb_func
 146              		.fpu fpv4-sp-d16
 148              	Dev5DirButton_Get:
 149              	.LFB126:
  56:Dev/Dev_5DirButton.c **** 
  57:Dev/Dev_5DirButton.c **** static DirButton_Val_List Dev5DirButton_Get(DirButton_Obj_TypeDef *obj)
  58:Dev/Dev_5DirButton.c **** {
 150              		.loc 1 58 0
 151              		.cfi_startproc
 152              		@ args = 0, pretend = 0, frame = 0
 153              		@ frame_needed = 0, uses_anonymous_args = 0
 154              	.LVL13:
  59:Dev/Dev_5DirButton.c ****     uint8_t io_val = 0;
  60:Dev/Dev_5DirButton.c ****     uint8_t io_val_tmp = 0;
  61:Dev/Dev_5DirButton.c ****     uint8_t hit_cnt = 0;
  62:Dev/Dev_5DirButton.c **** 
  63:Dev/Dev_5DirButton.c ****     if ((obj == NULL) || (!obj->init_state))
 155              		.loc 1 63 0
 156 0000 0028     		cmp	r0, #0
 157 0002 40D0     		beq	.L22
  58:Dev/Dev_5DirButton.c ****     uint8_t io_val = 0;
 158              		.loc 1 58 0 discriminator 1
 159 0004 F8B5     		push	{r3, r4, r5, r6, r7, lr}
 160              	.LCFI1:
 161              		.cfi_def_cfa_offset 24
 162              		.cfi_offset 3, -24
 163              		.cfi_offset 4, -20
 164              		.cfi_offset 5, -16
 165              		.cfi_offset 6, -12
 166              		.cfi_offset 7, -8
ARM GAS  /tmp/ccqf0Ks3.s 			page 5


 167              		.cfi_offset 14, -4
 168 0006 0646     		mov	r6, r0
 169              		.loc 1 63 0 discriminator 1
 170 0008 0378     		ldrb	r3, [r0]	@ zero_extendqisi2
 171 000a C3B9     		cbnz	r3, .L23
  64:Dev/Dev_5DirButton.c ****         return Dir_Err;
 172              		.loc 1 64 0
 173 000c 0520     		movs	r0, #5
 174              	.LVL14:
 175 000e F8BD     		pop	{r3, r4, r5, r6, r7, pc}
 176              	.LVL15:
 177              	.L17:
 178              	.LBB3:
  65:Dev/Dev_5DirButton.c **** 
  66:Dev/Dev_5DirButton.c ****     for (uint8_t i = 0; i < Dir_IO_Sum; i++)
  67:Dev/Dev_5DirButton.c ****     {
  68:Dev/Dev_5DirButton.c ****         if (DrvGPIO.get(&obj->IO[i]))
  69:Dev/Dev_5DirButton.c ****         {
  70:Dev/Dev_5DirButton.c ****             io_val |= SetBit(i);
  71:Dev/Dev_5DirButton.c ****             hit_cnt++;
  72:Dev/Dev_5DirButton.c ****         }
  73:Dev/Dev_5DirButton.c **** 
  74:Dev/Dev_5DirButton.c ****         /* except mid button, other button detect been hit at same time then return error */
  75:Dev/Dev_5DirButton.c ****         if ((hit_cnt > 1) && (i < Dir_IO_Mid))
 179              		.loc 1 75 0
 180 0010 012F     		cmp	r7, #1
 181 0012 01D9     		bls	.L18
 182              		.loc 1 75 0 is_stmt 0 discriminator 1
 183 0014 032C     		cmp	r4, #3
 184 0016 38D9     		bls	.L24
 185              	.L18:
  66:Dev/Dev_5DirButton.c ****     {
 186              		.loc 1 66 0 is_stmt 1 discriminator 2
 187 0018 0134     		adds	r4, r4, #1
 188              	.LVL16:
 189 001a E4B2     		uxtb	r4, r4
 190              	.LVL17:
 191              	.L16:
  66:Dev/Dev_5DirButton.c ****     {
 192              		.loc 1 66 0 is_stmt 0 discriminator 1
 193 001c 042C     		cmp	r4, #4
 194 001e 12D8     		bhi	.L30
  68:Dev/Dev_5DirButton.c ****         {
 195              		.loc 1 68 0 is_stmt 1
 196 0020 1C4B     		ldr	r3, .L31
 197 0022 DB68     		ldr	r3, [r3, #12]
 198 0024 06EB0410 		add	r0, r6, r4, lsl #4
 199 0028 0430     		adds	r0, r0, #4
 200 002a 9847     		blx	r3
 201              	.LVL18:
 202 002c 0028     		cmp	r0, #0
 203 002e EFD0     		beq	.L17
  70:Dev/Dev_5DirButton.c ****             hit_cnt++;
 204              		.loc 1 70 0
 205 0030 0120     		movs	r0, #1
 206 0032 A040     		lsls	r0, r0, r4
 207 0034 0543     		orrs	r5, r5, r0
ARM GAS  /tmp/ccqf0Ks3.s 			page 6


 208              	.LVL19:
 209 0036 EDB2     		uxtb	r5, r5
 210              	.LVL20:
  71:Dev/Dev_5DirButton.c ****         }
 211              		.loc 1 71 0
 212 0038 0137     		adds	r7, r7, #1
 213              	.LVL21:
 214 003a FFB2     		uxtb	r7, r7
 215              	.LVL22:
 216 003c E8E7     		b	.L17
 217              	.LVL23:
 218              	.L23:
 219              	.LBE3:
 220 003e 0024     		movs	r4, #0
 221 0040 2746     		mov	r7, r4
 222 0042 2546     		mov	r5, r4
 223 0044 EAE7     		b	.L16
 224              	.LVL24:
 225              	.L30:
  76:Dev/Dev_5DirButton.c ****         {
  77:Dev/Dev_5DirButton.c ****             return Dir_Err;
  78:Dev/Dev_5DirButton.c ****         }
  79:Dev/Dev_5DirButton.c ****     }
  80:Dev/Dev_5DirButton.c **** 
  81:Dev/Dev_5DirButton.c ****     if (obj->invert_reg & Axis_X_Invert)
 226              		.loc 1 81 0
 227 0046 7378     		ldrb	r3, [r6, #1]	@ zero_extendqisi2
 228 0048 13F0010F 		tst	r3, #1
 229 004c 06D0     		beq	.L20
 230              	.LVL25:
  82:Dev/Dev_5DirButton.c ****     {
  83:Dev/Dev_5DirButton.c ****         io_val_tmp = io_val;
  84:Dev/Dev_5DirButton.c **** 
  85:Dev/Dev_5DirButton.c ****         io_val_tmp &= 0x0C;
 231              		.loc 1 85 0
 232 004e 05F00C02 		and	r2, r5, #12
 233              	.LVL26:
  86:Dev/Dev_5DirButton.c ****         io_val_tmp = ~io_val_tmp;
 234              		.loc 1 86 0
 235 0052 82F0FF02 		eor	r2, r2, #255
 236              	.LVL27:
  87:Dev/Dev_5DirButton.c **** 
  88:Dev/Dev_5DirButton.c ****         io_val &= ~0x0C;
 237              		.loc 1 88 0
 238 0056 05F0F305 		and	r5, r5, #243
 239              	.LVL28:
  89:Dev/Dev_5DirButton.c ****         io_val |= io_val_tmp;
 240              		.loc 1 89 0
 241 005a 1543     		orrs	r5, r5, r2
 242              	.LVL29:
 243              	.L20:
  90:Dev/Dev_5DirButton.c ****     }
  91:Dev/Dev_5DirButton.c **** 
  92:Dev/Dev_5DirButton.c ****     if (obj->invert_reg & Axis_Y_Invert)
 244              		.loc 1 92 0
 245 005c 13F0020F 		tst	r3, #2
 246 0060 06D0     		beq	.L21
ARM GAS  /tmp/ccqf0Ks3.s 			page 7


 247              	.LVL30:
  93:Dev/Dev_5DirButton.c ****     {
  94:Dev/Dev_5DirButton.c ****         io_val_tmp = io_val;
  95:Dev/Dev_5DirButton.c **** 
  96:Dev/Dev_5DirButton.c ****         io_val_tmp &= 0x03;
 248              		.loc 1 96 0
 249 0062 05F00302 		and	r2, r5, #3
 250              	.LVL31:
  97:Dev/Dev_5DirButton.c ****         io_val_tmp = ~io_val_tmp;
 251              		.loc 1 97 0
 252 0066 82F0FF02 		eor	r2, r2, #255
 253              	.LVL32:
  98:Dev/Dev_5DirButton.c **** 
  99:Dev/Dev_5DirButton.c ****         io_val &= ~0x03;
 254              		.loc 1 99 0
 255 006a 05F0FC05 		and	r5, r5, #252
 256              	.LVL33:
 100:Dev/Dev_5DirButton.c ****         io_val |= io_val_tmp;
 257              		.loc 1 100 0
 258 006e 1543     		orrs	r5, r5, r2
 259              	.LVL34:
 260              	.L21:
 101:Dev/Dev_5DirButton.c ****     }
 102:Dev/Dev_5DirButton.c **** 
 103:Dev/Dev_5DirButton.c ****     if (obj->invert_reg & Mid_Invert)
 261              		.loc 1 103 0
 262 0070 13F0040F 		tst	r3, #4
 263 0074 0BD0     		beq	.L25
 264              	.LVL35:
 104:Dev/Dev_5DirButton.c ****     {
 105:Dev/Dev_5DirButton.c ****         io_val_tmp = io_val;
 106:Dev/Dev_5DirButton.c **** 
 107:Dev/Dev_5DirButton.c ****         io_val_tmp &= 0x10;
 265              		.loc 1 107 0
 266 0076 05F01000 		and	r0, r5, #16
 267              	.LVL36:
 108:Dev/Dev_5DirButton.c ****         io_val_tmp = ~io_val_tmp;
 268              		.loc 1 108 0
 269 007a C043     		mvns	r0, r0
 270              	.LVL37:
 271 007c C0B2     		uxtb	r0, r0
 272              	.LVL38:
 109:Dev/Dev_5DirButton.c **** 
 110:Dev/Dev_5DirButton.c ****         io_val &= ~0x10;
 273              		.loc 1 110 0
 274 007e 05F0EF05 		and	r5, r5, #239
 275              	.LVL39:
 111:Dev/Dev_5DirButton.c ****         io_val |= io_val_tmp;
 276              		.loc 1 111 0
 277 0082 2843     		orrs	r0, r0, r5
 278              	.LVL40:
 279 0084 F8BD     		pop	{r3, r4, r5, r6, r7, pc}
 280              	.LVL41:
 281              	.L22:
 282              	.LCFI2:
 283              		.cfi_def_cfa_offset 0
 284              		.cfi_restore 3
ARM GAS  /tmp/ccqf0Ks3.s 			page 8


 285              		.cfi_restore 4
 286              		.cfi_restore 5
 287              		.cfi_restore 6
 288              		.cfi_restore 7
 289              		.cfi_restore 14
  64:Dev/Dev_5DirButton.c **** 
 290              		.loc 1 64 0
 291 0086 0520     		movs	r0, #5
 292              	.LVL42:
 293 0088 7047     		bx	lr
 294              	.LVL43:
 295              	.L24:
 296              	.LCFI3:
 297              		.cfi_def_cfa_offset 24
 298              		.cfi_offset 3, -24
 299              		.cfi_offset 4, -20
 300              		.cfi_offset 5, -16
 301              		.cfi_offset 6, -12
 302              		.cfi_offset 7, -8
 303              		.cfi_offset 14, -4
 304              	.LBB4:
  77:Dev/Dev_5DirButton.c ****         }
 305              		.loc 1 77 0
 306 008a 0520     		movs	r0, #5
 307 008c F8BD     		pop	{r3, r4, r5, r6, r7, pc}
 308              	.LVL44:
 309              	.L25:
 310              	.LBE4:
 311 008e 2846     		mov	r0, r5
 112:Dev/Dev_5DirButton.c ****     }
 113:Dev/Dev_5DirButton.c **** 
 114:Dev/Dev_5DirButton.c ****     return io_val;
 115:Dev/Dev_5DirButton.c **** }
 312              		.loc 1 115 0
 313 0090 F8BD     		pop	{r3, r4, r5, r6, r7, pc}
 314              	.LVL45:
 315              	.L32:
 316 0092 00BF     		.align	2
 317              	.L31:
 318 0094 00000000 		.word	DrvGPIO
 319              		.cfi_endproc
 320              	.LFE126:
 322              		.global	Dev5DirBtn
 323              		.section	.data.Dev5DirBtn,"aw",%progbits
 324              		.align	2
 327              	Dev5DirBtn:
 328 0000 00000000 		.word	Dev5DirButton_Open
 329 0004 00000000 		.word	Dev5DirButton_Invert
 330 0008 00000000 		.word	Dev5DirButton_Get
 331              		.text
 332              	.Letext0:
 333              		.file 2 "/usr/include/newlib/machine/_default_types.h"
 334              		.file 3 "/usr/include/newlib/sys/_stdint.h"
 335              		.file 4 "F4_CORE/core_cm4.h"
 336              		.file 5 "USER/system_stm32f4xx.h"
 337              		.file 6 "Bsp/periph_gpio.h"
 338              		.file 7 "Drv/drv_gpio.h"
ARM GAS  /tmp/ccqf0Ks3.s 			page 9


 339              		.file 8 "Dev/Dev_5DirButton.h"
 340              		.file 9 "/usr/include/newlib/sys/lock.h"
 341              		.file 10 "/usr/include/newlib/sys/_types.h"
 342              		.file 11 "/usr/lib/gcc/arm-none-eabi/6.3.1/include/stddef.h"
 343              		.file 12 "/usr/include/newlib/sys/reent.h"
ARM GAS  /tmp/ccqf0Ks3.s 			page 10


DEFINED SYMBOLS
                            *ABS*:0000000000000000 Dev_5DirButton.c
     /tmp/ccqf0Ks3.s:18     .text.Dev5DirButton_Open:0000000000000000 $t
     /tmp/ccqf0Ks3.s:24     .text.Dev5DirButton_Open:0000000000000000 Dev5DirButton_Open
     /tmp/ccqf0Ks3.s:94     .text.Dev5DirButton_Open:0000000000000038 $d
     /tmp/ccqf0Ks3.s:99     .text.Dev5DirButton_Invert:0000000000000000 $t
     /tmp/ccqf0Ks3.s:105    .text.Dev5DirButton_Invert:0000000000000000 Dev5DirButton_Invert
     /tmp/ccqf0Ks3.s:142    .text.Dev5DirButton_Get:0000000000000000 $t
     /tmp/ccqf0Ks3.s:148    .text.Dev5DirButton_Get:0000000000000000 Dev5DirButton_Get
     /tmp/ccqf0Ks3.s:318    .text.Dev5DirButton_Get:0000000000000094 $d
     /tmp/ccqf0Ks3.s:327    .data.Dev5DirBtn:0000000000000000 Dev5DirBtn
     /tmp/ccqf0Ks3.s:324    .data.Dev5DirBtn:0000000000000000 $d
                     .debug_frame:0000000000000010 $d

UNDEFINED SYMBOLS
DrvGPIO
