ARM GAS  /var/folders/lx/hc4sn_b53233_zkc9xbbl97r0000gp/T//cco216oX.s 			page 1


   1              		.cpu cortex-m4
   2              		.eabi_attribute 27, 1
   3              		.eabi_attribute 28, 1
   4              		.eabi_attribute 20, 1
   5              		.eabi_attribute 21, 1
   6              		.eabi_attribute 23, 3
   7              		.eabi_attribute 24, 1
   8              		.eabi_attribute 25, 1
   9              		.eabi_attribute 26, 1
  10              		.eabi_attribute 30, 1
  11              		.eabi_attribute 34, 1
  12              		.eabi_attribute 18, 4
  13              		.file	"drv_serial.c"
  14              		.text
  15              	.Ltext0:
  16              		.cfi_sections	.debug_frame
  17              		.section	.text.DrvSerial_Write,"ax",%progbits
  18              		.align	1
  19              		.arch armv7e-m
  20              		.syntax unified
  21              		.thumb
  22              		.thumb_func
  23              		.fpu fpv4-sp-d16
  25              	DrvSerial_Write:
  26              	.LVL0:
  27              	.LFB127:
  28              		.file 1 "Drv/drv_serial.c"
   1:Drv/drv_serial.c **** #include "drv_serial.h"
   2:Drv/drv_serial.c **** #include "vcp.h"
   3:Drv/drv_serial.c **** 
   4:Drv/drv_serial.c **** #define Serial_Default_Baudrate Serial_115200
   5:Drv/drv_serial.c **** 
   6:Drv/drv_serial.c **** /* internal virable */
   7:Drv/drv_serial.c **** static uint8_t Serial_TX_Buff[DrvSerial_Sum][SERIAL_MAX_RECLEN];
   8:Drv/drv_serial.c **** static uint8_t Serial_RX_Buff[DrvSerial_Sum][SERIAL_MAX_RECLEN];
   9:Drv/drv_serial.c **** static DrvSerial_SrcInfo_TypeDef DrvSerial_SrcInfo[DrvSerial_Sum] = {
  10:Drv/drv_serial.c ****     {.inuse = false},
  11:Drv/drv_serial.c ****     {.inuse = false},
  12:Drv/drv_serial.c ****     {.inuse = false},
  13:Drv/drv_serial.c ****     {.inuse = false},
  14:Drv/drv_serial.c **** };
  15:Drv/drv_serial.c **** 
  16:Drv/drv_serial.c **** /* internal function */
  17:Drv/drv_serial.c **** 
  18:Drv/drv_serial.c **** /* external function */
  19:Drv/drv_serial.c **** static bool
  20:Drv/drv_serial.c **** DrvSerial_Ctl(DrvSerial_Port_List portx, DrvSerial_CMD_List cmd, uint32_t data, uint8_t len);
  21:Drv/drv_serial.c **** static void DrvSerial_Write(DrvSerial_Port_List portx, uint8_t *data, uint16_t len, DrvSerial_SendM
  22:Drv/drv_serial.c **** 
  23:Drv/drv_serial.c **** /* external virable */
  24:Drv/drv_serial.c **** DrvSerial_GenProcFunc_TypeDef DrvSerial = {
  25:Drv/drv_serial.c ****     .ctl = DrvSerial_Ctl,
  26:Drv/drv_serial.c ****     .read = NULL,
  27:Drv/drv_serial.c ****     .write = DrvSerial_Write,
  28:Drv/drv_serial.c **** };
  29:Drv/drv_serial.c **** 
  30:Drv/drv_serial.c **** static bool DrvSerial_Ctl(DrvSerial_Port_List portx, DrvSerial_CMD_List cmd, uint32_t data, uint8_t
ARM GAS  /var/folders/lx/hc4sn_b53233_zkc9xbbl97r0000gp/T//cco216oX.s 			page 2


  31:Drv/drv_serial.c **** {
  32:Drv/drv_serial.c ****     switch ((uint8_t)cmd)
  33:Drv/drv_serial.c ****     {
  34:Drv/drv_serial.c ****     case DrvSerial_Open:
  35:Drv/drv_serial.c ****         if ((len != sizeof(DrvSerial_Config_Typedef)) || (DrvSerial_SrcInfo[portx].inuse))
  36:Drv/drv_serial.c ****             return;
  37:Drv/drv_serial.c **** 
  38:Drv/drv_serial.c ****         if (portx != DrvSerial_Vcp)
  39:Drv/drv_serial.c ****         {
  40:Drv/drv_serial.c ****             switch ((uint8_t)(((DrvSerial_Config_Typedef *)data)->mode))
  41:Drv/drv_serial.c ****             {
  42:Drv/drv_serial.c ****             case DrvSerial_MODE_Normal:
  43:Drv/drv_serial.c ****                 Serial_IRQ_RX_Init(portx, ((DrvSerial_Config_Typedef *)data)->baudrate,
  44:Drv/drv_serial.c ****                                    ((DrvSerial_Config_Typedef *)data)->PreemptionPriority,
  45:Drv/drv_serial.c ****                                    ((DrvSerial_Config_Typedef *)data)->SubPriority, Serial_Normal);
  46:Drv/drv_serial.c **** 
  47:Drv/drv_serial.c ****                 Serial_Set_IRQ_Callback(portx, ((DrvSerial_Config_Typedef *)data)->Irq_Callback);
  48:Drv/drv_serial.c ****                 break;
  49:Drv/drv_serial.c **** 
  50:Drv/drv_serial.c ****             case DrvSerial_MODE_DMA_Rx:
  51:Drv/drv_serial.c ****                 Serial_DMA_RX_Init(portx, ((DrvSerial_Config_Typedef *)data)->baudrate, ((DrvSerial
  52:Drv/drv_serial.c ****                                    ((DrvSerial_Config_Typedef *)data)->SubPriority,
  53:Drv/drv_serial.c ****                                    (uint32_t)&Serial_RX_Buff[portx],
  54:Drv/drv_serial.c ****                                    SERIAL_MAX_RECLEN, Serial_Normal);
  55:Drv/drv_serial.c **** 
  56:Drv/drv_serial.c ****                 Serial_Set_IRQ_Callback(portx, ((DrvSerial_Config_Typedef *)data)->Irq_Callback);
  57:Drv/drv_serial.c ****                 break;
  58:Drv/drv_serial.c **** 
  59:Drv/drv_serial.c ****             case DrvSerial_MODE_DMA_TxRx:
  60:Drv/drv_serial.c ****                 Serial_DMA_RXTX_Init(portx, ((DrvSerial_Config_Typedef *)data)->baudrate,
  61:Drv/drv_serial.c ****                                      ((DrvSerial_Config_Typedef *)data)->PreemptionPriority,
  62:Drv/drv_serial.c ****                                      ((DrvSerial_Config_Typedef *)data)->SubPriority,
  63:Drv/drv_serial.c ****                                      (uint32_t)&Serial_RX_Buff[portx],
  64:Drv/drv_serial.c ****                                      (uint32_t)&Serial_TX_Buff[portx],
  65:Drv/drv_serial.c ****                                      SERIAL_MAX_RECLEN, Serial_Normal);
  66:Drv/drv_serial.c **** 
  67:Drv/drv_serial.c ****                 Serial_Set_IRQ_Callback(portx, ((DrvSerial_Config_Typedef *)data)->Irq_Callback);
  68:Drv/drv_serial.c ****                 Serial_Set_DMAIRQ_Callback(portx, ((DrvSerial_Config_Typedef *)data)->DmaIrq_Callba
  69:Drv/drv_serial.c ****                 break;
  70:Drv/drv_serial.c **** 
  71:Drv/drv_serial.c ****             default:
  72:Drv/drv_serial.c ****                 return false;
  73:Drv/drv_serial.c ****             }
  74:Drv/drv_serial.c ****         }
  75:Drv/drv_serial.c ****         else
  76:Drv/drv_serial.c ****         {
  77:Drv/drv_serial.c ****             VCP_Init();
  78:Drv/drv_serial.c ****         }
  79:Drv/drv_serial.c **** 
  80:Drv/drv_serial.c ****         DrvSerial_SrcInfo[portx].inuse = true;
  81:Drv/drv_serial.c ****         DrvSerial_SrcInfo[portx].cfg = *((DrvSerial_Config_Typedef *)data);
  82:Drv/drv_serial.c ****         break;
  83:Drv/drv_serial.c **** 
  84:Drv/drv_serial.c ****     case DrvSerial_Close:
  85:Drv/drv_serial.c ****         Serial_Deinit(portx);
  86:Drv/drv_serial.c ****         Serial_Set_IRQ_Callback(portx, NULL);
  87:Drv/drv_serial.c ****         ((DrvSerial_Config_Typedef *)data)->mode = DrvSerial_MODE_None;
ARM GAS  /var/folders/lx/hc4sn_b53233_zkc9xbbl97r0000gp/T//cco216oX.s 			page 3


  88:Drv/drv_serial.c ****         ((DrvSerial_Config_Typedef *)data)->PreemptionPriority = 0;
  89:Drv/drv_serial.c ****         ((DrvSerial_Config_Typedef *)data)->SubPriority = 0;
  90:Drv/drv_serial.c ****         ((DrvSerial_Config_Typedef *)data)->baudrate = 0;
  91:Drv/drv_serial.c ****         ((DrvSerial_Config_Typedef *)data)->DmaIrq_Callback = NULL;
  92:Drv/drv_serial.c ****         ((DrvSerial_Config_Typedef *)data)->Irq_Callback = NULL;
  93:Drv/drv_serial.c **** 
  94:Drv/drv_serial.c ****         DrvSerial_SrcInfo[portx].inuse = false;
  95:Drv/drv_serial.c ****         DrvSerial_SrcInfo[portx].cfg = *((DrvSerial_Config_Typedef *)data);
  96:Drv/drv_serial.c ****         break;
  97:Drv/drv_serial.c **** 
  98:Drv/drv_serial.c ****     case DrvSerial_Set_RxIRQCallback:
  99:Drv/drv_serial.c ****         Serial_Set_IRQ_Callback(portx, (Serial_IRQ_Callback)data);
 100:Drv/drv_serial.c ****         break;
 101:Drv/drv_serial.c **** 
 102:Drv/drv_serial.c ****     default:
 103:Drv/drv_serial.c ****         return false;
 104:Drv/drv_serial.c ****     }
 105:Drv/drv_serial.c **** 
 106:Drv/drv_serial.c ****     return true;
 107:Drv/drv_serial.c **** }
 108:Drv/drv_serial.c **** 
 109:Drv/drv_serial.c **** static void DrvSerial_Write(DrvSerial_Port_List portx, uint8_t *data, uint16_t len, DrvSerial_SendM
 110:Drv/drv_serial.c **** {
  29              		.loc 1 110 1 view -0
  30              		.cfi_startproc
  31              		@ args = 0, pretend = 0, frame = 0
  32              		@ frame_needed = 0, uses_anonymous_args = 0
  33              		.loc 1 110 1 is_stmt 0 view .LVU1
  34 0000 38B5     		push	{r3, r4, r5, lr}
  35              	.LCFI0:
  36              		.cfi_def_cfa_offset 16
  37              		.cfi_offset 3, -16
  38              		.cfi_offset 4, -12
  39              		.cfi_offset 5, -8
  40              		.cfi_offset 14, -4
  41 0002 0546     		mov	r5, r0
  42 0004 1C46     		mov	r4, r3
 111:Drv/drv_serial.c ****     if ((mode == DrvSerial_MODE_Normal) || (mode == DrvSerial_MODE_DMA_Rx))
  43              		.loc 1 111 5 is_stmt 1 view .LVU2
  44              		.loc 1 111 8 is_stmt 0 view .LVU3
  45 0006 012B     		cmp	r3, #1
  46 0008 02D9     		bls	.L6
 112:Drv/drv_serial.c ****     {
 113:Drv/drv_serial.c ****         Serial_SendBuff(portx, data, len);
 114:Drv/drv_serial.c ****     }
 115:Drv/drv_serial.c ****     else if (mode == DrvSerial_MODE_DMA_TxRx)
  47              		.loc 1 115 10 is_stmt 1 view .LVU4
  48              		.loc 1 115 13 is_stmt 0 view .LVU5
  49 000a 022B     		cmp	r3, #2
  50 000c 08D0     		beq	.L7
  51              	.LVL1:
  52              	.L1:
 116:Drv/drv_serial.c ****     {
 117:Drv/drv_serial.c ****         Serial_DMA_SendBuff(portx, data, len);
 118:Drv/drv_serial.c ****     }
 119:Drv/drv_serial.c ****     else
 120:Drv/drv_serial.c ****         return;
ARM GAS  /var/folders/lx/hc4sn_b53233_zkc9xbbl97r0000gp/T//cco216oX.s 			page 4


 121:Drv/drv_serial.c **** 
 122:Drv/drv_serial.c ****     if (DrvSerial_Send_Async == mode)
 123:Drv/drv_serial.c ****     {
 124:Drv/drv_serial.c ****         Serial_DMA_WaitFinish(portx);
 125:Drv/drv_serial.c ****     }
 126:Drv/drv_serial.c **** }
  53              		.loc 1 126 1 view .LVU6
  54 000e 38BD     		pop	{r3, r4, r5, pc}
  55              	.LVL2:
  56              	.L6:
 113:Drv/drv_serial.c ****     }
  57              		.loc 1 113 9 is_stmt 1 view .LVU7
  58 0010 FFF7FEFF 		bl	Serial_SendBuff
  59              	.LVL3:
  60              	.L3:
 122:Drv/drv_serial.c ****     {
  61              		.loc 1 122 5 view .LVU8
 122:Drv/drv_serial.c ****     {
  62              		.loc 1 122 8 is_stmt 0 view .LVU9
  63 0014 002C     		cmp	r4, #0
  64 0016 FAD1     		bne	.L1
 124:Drv/drv_serial.c ****     }
  65              		.loc 1 124 9 is_stmt 1 view .LVU10
  66 0018 2846     		mov	r0, r5
  67 001a FFF7FEFF 		bl	Serial_DMA_WaitFinish
  68              	.LVL4:
  69 001e F6E7     		b	.L1
  70              	.LVL5:
  71              	.L7:
 117:Drv/drv_serial.c ****     }
  72              		.loc 1 117 9 view .LVU11
  73 0020 FFF7FEFF 		bl	Serial_DMA_SendBuff
  74              	.LVL6:
 117:Drv/drv_serial.c ****     }
  75              		.loc 1 117 9 is_stmt 0 view .LVU12
  76 0024 F6E7     		b	.L3
  77              		.cfi_endproc
  78              	.LFE127:
  80              		.section	.text.DrvSerial_Ctl,"ax",%progbits
  81              		.align	1
  82              		.syntax unified
  83              		.thumb
  84              		.thumb_func
  85              		.fpu fpv4-sp-d16
  87              	DrvSerial_Ctl:
  88              	.LVL7:
  89              	.LFB126:
  31:Drv/drv_serial.c ****     switch ((uint8_t)cmd)
  90              		.loc 1 31 1 is_stmt 1 view -0
  91              		.cfi_startproc
  92              		@ args = 0, pretend = 0, frame = 0
  93              		@ frame_needed = 0, uses_anonymous_args = 0
  31:Drv/drv_serial.c ****     switch ((uint8_t)cmd)
  94              		.loc 1 31 1 is_stmt 0 view .LVU14
  95 0000 70B5     		push	{r4, r5, r6, lr}
  96              	.LCFI1:
  97              		.cfi_def_cfa_offset 16
ARM GAS  /var/folders/lx/hc4sn_b53233_zkc9xbbl97r0000gp/T//cco216oX.s 			page 5


  98              		.cfi_offset 4, -16
  99              		.cfi_offset 5, -12
 100              		.cfi_offset 6, -8
 101              		.cfi_offset 14, -4
 102 0002 84B0     		sub	sp, sp, #16
 103              	.LCFI2:
 104              		.cfi_def_cfa_offset 32
 105 0004 0546     		mov	r5, r0
 106 0006 1446     		mov	r4, r2
  32:Drv/drv_serial.c ****     {
 107              		.loc 1 32 5 is_stmt 1 view .LVU15
 108 0008 0129     		cmp	r1, #1
 109 000a 67D0     		beq	.L9
 110 000c 0229     		cmp	r1, #2
 111 000e 00F08380 		beq	.L10
 112 0012 11B1     		cbz	r1, .L20
 113 0014 0020     		movs	r0, #0
 114              	.LVL8:
 115              	.L8:
 107:Drv/drv_serial.c **** 
 116              		.loc 1 107 1 is_stmt 0 view .LVU16
 117 0016 04B0     		add	sp, sp, #16
 118              	.LCFI3:
 119              		.cfi_remember_state
 120              		.cfi_def_cfa_offset 16
 121              		@ sp needed
 122 0018 70BD     		pop	{r4, r5, r6, pc}
 123              	.LVL9:
 124              	.L20:
 125              	.LCFI4:
 126              		.cfi_restore_state
  35:Drv/drv_serial.c ****             return;
 127              		.loc 1 35 9 is_stmt 1 view .LVU17
  35:Drv/drv_serial.c ****             return;
 128              		.loc 1 35 12 is_stmt 0 view .LVU18
 129 001a 142B     		cmp	r3, #20
 130 001c FBD1     		bne	.L8
  35:Drv/drv_serial.c ****             return;
 131              		.loc 1 35 83 discriminator 1 view .LVU19
 132 001e 00EB4003 		add	r3, r0, r0, lsl #1
 133              	.LVL10:
  35:Drv/drv_serial.c ****             return;
 134              		.loc 1 35 83 discriminator 1 view .LVU20
 135 0022 404A     		ldr	r2, .L21
 136              	.LVL11:
  35:Drv/drv_serial.c ****             return;
 137              		.loc 1 35 83 discriminator 1 view .LVU21
 138 0024 12F83300 		ldrb	r0, [r2, r3, lsl #3]	@ zero_extendqisi2
 139              	.LVL12:
  35:Drv/drv_serial.c ****             return;
 140              		.loc 1 35 55 discriminator 1 view .LVU22
 141 0028 0028     		cmp	r0, #0
 142 002a F4D1     		bne	.L8
  38:Drv/drv_serial.c ****         {
 143              		.loc 1 38 9 is_stmt 1 view .LVU23
  38:Drv/drv_serial.c ****         {
 144              		.loc 1 38 12 is_stmt 0 view .LVU24
ARM GAS  /var/folders/lx/hc4sn_b53233_zkc9xbbl97r0000gp/T//cco216oX.s 			page 6


 145 002c 042D     		cmp	r5, #4
 146 002e 43D0     		beq	.L14
  40:Drv/drv_serial.c ****             {
 147              		.loc 1 40 13 is_stmt 1 view .LVU25
  40:Drv/drv_serial.c ****             {
 148              		.loc 1 40 65 is_stmt 0 view .LVU26
 149 0030 A379     		ldrb	r3, [r4, #6]	@ zero_extendqisi2
 150 0032 012B     		cmp	r3, #1
 151 0034 10D0     		beq	.L15
 152 0036 022B     		cmp	r3, #2
 153 0038 22D0     		beq	.L16
 154 003a 002B     		cmp	r3, #0
 155 003c EBD1     		bne	.L8
  43:Drv/drv_serial.c ****                                    ((DrvSerial_Config_Typedef *)data)->PreemptionPriority,
 156              		.loc 1 43 17 is_stmt 1 view .LVU27
 157 003e 6379     		ldrb	r3, [r4, #5]	@ zero_extendqisi2
 158 0040 2279     		ldrb	r2, [r4, #4]	@ zero_extendqisi2
 159 0042 0021     		movs	r1, #0
 160              	.LVL13:
  43:Drv/drv_serial.c ****                                    ((DrvSerial_Config_Typedef *)data)->PreemptionPriority,
 161              		.loc 1 43 17 is_stmt 0 view .LVU28
 162 0044 0091     		str	r1, [sp]
 163 0046 2168     		ldr	r1, [r4]
 164 0048 2846     		mov	r0, r5
 165 004a FFF7FEFF 		bl	Serial_IRQ_RX_Init
 166              	.LVL14:
  47:Drv/drv_serial.c ****                 break;
 167              		.loc 1 47 17 is_stmt 1 view .LVU29
 168 004e A168     		ldr	r1, [r4, #8]
 169 0050 2846     		mov	r0, r5
 170 0052 FFF7FEFF 		bl	Serial_Set_IRQ_Callback
 171              	.LVL15:
  48:Drv/drv_serial.c **** 
 172              		.loc 1 48 17 view .LVU30
 173 0056 31E0     		b	.L17
 174              	.LVL16:
 175              	.L15:
  51:Drv/drv_serial.c ****                                    ((DrvSerial_Config_Typedef *)data)->SubPriority,
 176              		.loc 1 51 17 view .LVU31
  53:Drv/drv_serial.c ****                                    SERIAL_MAX_RECLEN, Serial_Normal);
 177              		.loc 1 53 46 is_stmt 0 view .LVU32
 178 0058 3349     		ldr	r1, .L21+4
 179              	.LVL17:
  53:Drv/drv_serial.c ****                                    SERIAL_MAX_RECLEN, Serial_Normal);
 180              		.loc 1 53 46 view .LVU33
 181 005a 01EB8521 		add	r1, r1, r5, lsl #10
  51:Drv/drv_serial.c ****                                    ((DrvSerial_Config_Typedef *)data)->SubPriority,
 182              		.loc 1 51 17 view .LVU34
 183 005e 6379     		ldrb	r3, [r4, #5]	@ zero_extendqisi2
 184 0060 2279     		ldrb	r2, [r4, #4]	@ zero_extendqisi2
 185 0062 0020     		movs	r0, #0
 186 0064 0290     		str	r0, [sp, #8]
 187 0066 4FF48060 		mov	r0, #1024
 188 006a 0190     		str	r0, [sp, #4]
 189 006c 0091     		str	r1, [sp]
 190 006e 2168     		ldr	r1, [r4]
 191 0070 2846     		mov	r0, r5
ARM GAS  /var/folders/lx/hc4sn_b53233_zkc9xbbl97r0000gp/T//cco216oX.s 			page 7


 192 0072 FFF7FEFF 		bl	Serial_DMA_RX_Init
 193              	.LVL18:
  56:Drv/drv_serial.c ****                 break;
 194              		.loc 1 56 17 is_stmt 1 view .LVU35
 195 0076 A168     		ldr	r1, [r4, #8]
 196 0078 2846     		mov	r0, r5
 197 007a FFF7FEFF 		bl	Serial_Set_IRQ_Callback
 198              	.LVL19:
  57:Drv/drv_serial.c **** 
 199              		.loc 1 57 17 view .LVU36
 200 007e 1DE0     		b	.L17
 201              	.LVL20:
 202              	.L16:
  60:Drv/drv_serial.c ****                                      ((DrvSerial_Config_Typedef *)data)->PreemptionPriority,
 203              		.loc 1 60 17 view .LVU37
  63:Drv/drv_serial.c ****                                      (uint32_t)&Serial_TX_Buff[portx],
 204              		.loc 1 63 48 is_stmt 0 view .LVU38
 205 0080 2949     		ldr	r1, .L21+4
 206              	.LVL21:
  63:Drv/drv_serial.c ****                                      (uint32_t)&Serial_TX_Buff[portx],
 207              		.loc 1 63 48 view .LVU39
 208 0082 01EB8521 		add	r1, r1, r5, lsl #10
  64:Drv/drv_serial.c ****                                      SERIAL_MAX_RECLEN, Serial_Normal);
 209              		.loc 1 64 48 view .LVU40
 210 0086 2948     		ldr	r0, .L21+8
 211 0088 00EB8520 		add	r0, r0, r5, lsl #10
  60:Drv/drv_serial.c ****                                      ((DrvSerial_Config_Typedef *)data)->PreemptionPriority,
 212              		.loc 1 60 17 view .LVU41
 213 008c 6379     		ldrb	r3, [r4, #5]	@ zero_extendqisi2
 214 008e 2279     		ldrb	r2, [r4, #4]	@ zero_extendqisi2
 215 0090 0026     		movs	r6, #0
 216 0092 0396     		str	r6, [sp, #12]
 217 0094 4FF48066 		mov	r6, #1024
 218 0098 0296     		str	r6, [sp, #8]
 219 009a 0190     		str	r0, [sp, #4]
 220 009c 0091     		str	r1, [sp]
 221 009e 2168     		ldr	r1, [r4]
 222 00a0 2846     		mov	r0, r5
 223 00a2 FFF7FEFF 		bl	Serial_DMA_RXTX_Init
 224              	.LVL22:
  67:Drv/drv_serial.c ****                 Serial_Set_DMAIRQ_Callback(portx, ((DrvSerial_Config_Typedef *)data)->DmaIrq_Callba
 225              		.loc 1 67 17 is_stmt 1 view .LVU42
 226 00a6 A168     		ldr	r1, [r4, #8]
 227 00a8 2846     		mov	r0, r5
 228 00aa FFF7FEFF 		bl	Serial_Set_IRQ_Callback
 229              	.LVL23:
  68:Drv/drv_serial.c ****                 break;
 230              		.loc 1 68 17 view .LVU43
 231 00ae E168     		ldr	r1, [r4, #12]
 232 00b0 2846     		mov	r0, r5
 233 00b2 FFF7FEFF 		bl	Serial_Set_DMAIRQ_Callback
 234              	.LVL24:
  69:Drv/drv_serial.c **** 
 235              		.loc 1 69 17 view .LVU44
 236 00b6 01E0     		b	.L17
 237              	.LVL25:
 238              	.L14:
ARM GAS  /var/folders/lx/hc4sn_b53233_zkc9xbbl97r0000gp/T//cco216oX.s 			page 8


  77:Drv/drv_serial.c ****         }
 239              		.loc 1 77 13 view .LVU45
 240 00b8 FFF7FEFF 		bl	VCP_Init
 241              	.LVL26:
 242              	.L17:
  80:Drv/drv_serial.c ****         DrvSerial_SrcInfo[portx].cfg = *((DrvSerial_Config_Typedef *)data);
 243              		.loc 1 80 9 view .LVU46
  80:Drv/drv_serial.c ****         DrvSerial_SrcInfo[portx].cfg = *((DrvSerial_Config_Typedef *)data);
 244              		.loc 1 80 40 is_stmt 0 view .LVU47
 245 00bc 194B     		ldr	r3, .L21
 246 00be 05EB4502 		add	r2, r5, r5, lsl #1
 247 00c2 4FF0010C 		mov	ip, #1
 248 00c6 03F832C0 		strb	ip, [r3, r2, lsl #3]
  81:Drv/drv_serial.c ****         break;
 249              		.loc 1 81 9 is_stmt 1 view .LVU48
  81:Drv/drv_serial.c ****         break;
 250              		.loc 1 81 38 is_stmt 0 view .LVU49
 251 00ca 03EBC205 		add	r5, r3, r2, lsl #3
 252 00ce 0435     		adds	r5, r5, #4
 253 00d0 0FCC     		ldmia	r4!, {r0, r1, r2, r3}
 254              	.LVL27:
  81:Drv/drv_serial.c ****         break;
 255              		.loc 1 81 38 view .LVU50
 256 00d2 0FC5     		stmia	r5!, {r0, r1, r2, r3}
 257 00d4 2368     		ldr	r3, [r4]
 258 00d6 2B60     		str	r3, [r5]
  82:Drv/drv_serial.c **** 
 259              		.loc 1 82 9 is_stmt 1 view .LVU51
 106:Drv/drv_serial.c **** }
 260              		.loc 1 106 12 is_stmt 0 view .LVU52
 261 00d8 6046     		mov	r0, ip
  82:Drv/drv_serial.c **** 
 262              		.loc 1 82 9 view .LVU53
 263 00da 9CE7     		b	.L8
 264              	.LVL28:
 265              	.L9:
  85:Drv/drv_serial.c ****         Serial_Set_IRQ_Callback(portx, NULL);
 266              		.loc 1 85 9 is_stmt 1 view .LVU54
 267 00dc FFF7FEFF 		bl	Serial_Deinit
 268              	.LVL29:
  86:Drv/drv_serial.c ****         ((DrvSerial_Config_Typedef *)data)->mode = DrvSerial_MODE_None;
 269              		.loc 1 86 9 view .LVU55
 270 00e0 0021     		movs	r1, #0
 271 00e2 2846     		mov	r0, r5
 272 00e4 FFF7FEFF 		bl	Serial_Set_IRQ_Callback
 273              	.LVL30:
  87:Drv/drv_serial.c ****         ((DrvSerial_Config_Typedef *)data)->PreemptionPriority = 0;
 274              		.loc 1 87 9 view .LVU56
  87:Drv/drv_serial.c ****         ((DrvSerial_Config_Typedef *)data)->PreemptionPriority = 0;
 275              		.loc 1 87 50 is_stmt 0 view .LVU57
 276 00e8 0323     		movs	r3, #3
 277 00ea A371     		strb	r3, [r4, #6]
  88:Drv/drv_serial.c ****         ((DrvSerial_Config_Typedef *)data)->SubPriority = 0;
 278              		.loc 1 88 9 is_stmt 1 view .LVU58
  88:Drv/drv_serial.c ****         ((DrvSerial_Config_Typedef *)data)->SubPriority = 0;
 279              		.loc 1 88 64 is_stmt 0 view .LVU59
 280 00ec 0022     		movs	r2, #0
ARM GAS  /var/folders/lx/hc4sn_b53233_zkc9xbbl97r0000gp/T//cco216oX.s 			page 9


 281 00ee 2271     		strb	r2, [r4, #4]
  89:Drv/drv_serial.c ****         ((DrvSerial_Config_Typedef *)data)->baudrate = 0;
 282              		.loc 1 89 9 is_stmt 1 view .LVU60
  89:Drv/drv_serial.c ****         ((DrvSerial_Config_Typedef *)data)->baudrate = 0;
 283              		.loc 1 89 57 is_stmt 0 view .LVU61
 284 00f0 6271     		strb	r2, [r4, #5]
  90:Drv/drv_serial.c ****         ((DrvSerial_Config_Typedef *)data)->DmaIrq_Callback = NULL;
 285              		.loc 1 90 9 is_stmt 1 view .LVU62
  90:Drv/drv_serial.c ****         ((DrvSerial_Config_Typedef *)data)->DmaIrq_Callback = NULL;
 286              		.loc 1 90 54 is_stmt 0 view .LVU63
 287 00f2 2260     		str	r2, [r4]
  91:Drv/drv_serial.c ****         ((DrvSerial_Config_Typedef *)data)->Irq_Callback = NULL;
 288              		.loc 1 91 9 is_stmt 1 view .LVU64
  91:Drv/drv_serial.c ****         ((DrvSerial_Config_Typedef *)data)->Irq_Callback = NULL;
 289              		.loc 1 91 61 is_stmt 0 view .LVU65
 290 00f4 E260     		str	r2, [r4, #12]
  92:Drv/drv_serial.c **** 
 291              		.loc 1 92 9 is_stmt 1 view .LVU66
  92:Drv/drv_serial.c **** 
 292              		.loc 1 92 58 is_stmt 0 view .LVU67
 293 00f6 A260     		str	r2, [r4, #8]
  94:Drv/drv_serial.c ****         DrvSerial_SrcInfo[portx].cfg = *((DrvSerial_Config_Typedef *)data);
 294              		.loc 1 94 9 is_stmt 1 view .LVU68
  94:Drv/drv_serial.c ****         DrvSerial_SrcInfo[portx].cfg = *((DrvSerial_Config_Typedef *)data);
 295              		.loc 1 94 40 is_stmt 0 view .LVU69
 296 00f8 0A4B     		ldr	r3, .L21
 297 00fa 05EB4501 		add	r1, r5, r5, lsl #1
 298 00fe C900     		lsls	r1, r1, #3
 299 0100 5A54     		strb	r2, [r3, r1]
  95:Drv/drv_serial.c ****         break;
 300              		.loc 1 95 9 is_stmt 1 view .LVU70
  95:Drv/drv_serial.c ****         break;
 301              		.loc 1 95 38 is_stmt 0 view .LVU71
 302 0102 05EB4505 		add	r5, r5, r5, lsl #1
 303 0106 03EBC505 		add	r5, r3, r5, lsl #3
 304 010a 0435     		adds	r5, r5, #4
 305 010c 0FCC     		ldmia	r4!, {r0, r1, r2, r3}
 306              	.LVL31:
  95:Drv/drv_serial.c ****         break;
 307              		.loc 1 95 38 view .LVU72
 308 010e 0FC5     		stmia	r5!, {r0, r1, r2, r3}
 309 0110 2368     		ldr	r3, [r4]
 310 0112 2B60     		str	r3, [r5]
  96:Drv/drv_serial.c **** 
 311              		.loc 1 96 9 is_stmt 1 view .LVU73
 106:Drv/drv_serial.c **** }
 312              		.loc 1 106 12 is_stmt 0 view .LVU74
 313 0114 0120     		movs	r0, #1
  96:Drv/drv_serial.c **** 
 314              		.loc 1 96 9 view .LVU75
 315 0116 7EE7     		b	.L8
 316              	.LVL32:
 317              	.L10:
  99:Drv/drv_serial.c ****         break;
 318              		.loc 1 99 9 is_stmt 1 view .LVU76
 319 0118 1146     		mov	r1, r2
 320              	.LVL33:
ARM GAS  /var/folders/lx/hc4sn_b53233_zkc9xbbl97r0000gp/T//cco216oX.s 			page 10


  99:Drv/drv_serial.c ****         break;
 321              		.loc 1 99 9 is_stmt 0 view .LVU77
 322 011a FFF7FEFF 		bl	Serial_Set_IRQ_Callback
 323              	.LVL34:
 100:Drv/drv_serial.c **** 
 324              		.loc 1 100 9 is_stmt 1 view .LVU78
 106:Drv/drv_serial.c **** }
 325              		.loc 1 106 12 is_stmt 0 view .LVU79
 326 011e 0120     		movs	r0, #1
 100:Drv/drv_serial.c **** 
 327              		.loc 1 100 9 view .LVU80
 328 0120 79E7     		b	.L8
 329              	.L22:
 330 0122 00BF     		.align	2
 331              	.L21:
 332 0124 00000000 		.word	.LANCHOR0
 333 0128 00000000 		.word	Serial_RX_Buff
 334 012c 00000000 		.word	Serial_TX_Buff
 335              		.cfi_endproc
 336              	.LFE126:
 338              		.global	DrvSerial
 339              		.section	.bss.DrvSerial_SrcInfo,"aw",%nobits
 340              		.align	2
 341              		.set	.LANCHOR0,. + 0
 344              	DrvSerial_SrcInfo:
 345 0000 00000000 		.space	120
 345      00000000 
 345      00000000 
 345      00000000 
 345      00000000 
 346              		.section	.bss.Serial_RX_Buff,"aw",%nobits
 347              		.align	2
 350              	Serial_RX_Buff:
 351 0000 00000000 		.space	5120
 351      00000000 
 351      00000000 
 351      00000000 
 351      00000000 
 352              		.section	.bss.Serial_TX_Buff,"aw",%nobits
 353              		.align	2
 356              	Serial_TX_Buff:
 357 0000 00000000 		.space	5120
 357      00000000 
 357      00000000 
 357      00000000 
 357      00000000 
 358              		.section	.data.DrvSerial,"aw"
 359              		.align	2
 362              	DrvSerial:
 363 0000 00000000 		.word	DrvSerial_Ctl
 364 0004 00000000 		.word	0
 365 0008 00000000 		.word	DrvSerial_Write
 366              		.text
 367              	.Letext0:
 368              		.file 2 "/usr/local/arm-none-eabi-gcc/gcc-arm-none-eabi-10-2020-q4-major/arm-none-eabi/include/mac
 369              		.file 3 "/usr/local/arm-none-eabi-gcc/gcc-arm-none-eabi-10-2020-q4-major/arm-none-eabi/include/sys
 370              		.file 4 "Bsp/periph_dma.h"
ARM GAS  /var/folders/lx/hc4sn_b53233_zkc9xbbl97r0000gp/T//cco216oX.s 			page 11


 371              		.file 5 "Bsp/periph_serial.h"
 372              		.file 6 "Drv/drv_serial.h"
 373              		.file 7 "USB/config/vcp.h"
ARM GAS  /var/folders/lx/hc4sn_b53233_zkc9xbbl97r0000gp/T//cco216oX.s 			page 12


DEFINED SYMBOLS
                            *ABS*:0000000000000000 drv_serial.c
/var/folders/lx/hc4sn_b53233_zkc9xbbl97r0000gp/T//cco216oX.s:18     .text.DrvSerial_Write:0000000000000000 $t
/var/folders/lx/hc4sn_b53233_zkc9xbbl97r0000gp/T//cco216oX.s:25     .text.DrvSerial_Write:0000000000000000 DrvSerial_Write
/var/folders/lx/hc4sn_b53233_zkc9xbbl97r0000gp/T//cco216oX.s:81     .text.DrvSerial_Ctl:0000000000000000 $t
/var/folders/lx/hc4sn_b53233_zkc9xbbl97r0000gp/T//cco216oX.s:87     .text.DrvSerial_Ctl:0000000000000000 DrvSerial_Ctl
/var/folders/lx/hc4sn_b53233_zkc9xbbl97r0000gp/T//cco216oX.s:332    .text.DrvSerial_Ctl:0000000000000124 $d
/var/folders/lx/hc4sn_b53233_zkc9xbbl97r0000gp/T//cco216oX.s:350    .bss.Serial_RX_Buff:0000000000000000 Serial_RX_Buff
/var/folders/lx/hc4sn_b53233_zkc9xbbl97r0000gp/T//cco216oX.s:356    .bss.Serial_TX_Buff:0000000000000000 Serial_TX_Buff
/var/folders/lx/hc4sn_b53233_zkc9xbbl97r0000gp/T//cco216oX.s:362    .data.DrvSerial:0000000000000000 DrvSerial
/var/folders/lx/hc4sn_b53233_zkc9xbbl97r0000gp/T//cco216oX.s:340    .bss.DrvSerial_SrcInfo:0000000000000000 $d
/var/folders/lx/hc4sn_b53233_zkc9xbbl97r0000gp/T//cco216oX.s:344    .bss.DrvSerial_SrcInfo:0000000000000000 DrvSerial_SrcInfo
/var/folders/lx/hc4sn_b53233_zkc9xbbl97r0000gp/T//cco216oX.s:347    .bss.Serial_RX_Buff:0000000000000000 $d
/var/folders/lx/hc4sn_b53233_zkc9xbbl97r0000gp/T//cco216oX.s:353    .bss.Serial_TX_Buff:0000000000000000 $d
/var/folders/lx/hc4sn_b53233_zkc9xbbl97r0000gp/T//cco216oX.s:359    .data.DrvSerial:0000000000000000 $d

UNDEFINED SYMBOLS
Serial_SendBuff
Serial_DMA_WaitFinish
Serial_DMA_SendBuff
Serial_IRQ_RX_Init
Serial_Set_IRQ_Callback
Serial_DMA_RX_Init
Serial_DMA_RXTX_Init
Serial_Set_DMAIRQ_Callback
VCP_Init
Serial_Deinit
