ARM GAS  /var/folders/lx/hc4sn_b53233_zkc9xbbl97r0000gp/T//ccnjx6HE.s 			page 1


   1              		.cpu cortex-m4
   2              		.eabi_attribute 27, 1
   3              		.eabi_attribute 28, 1
   4              		.eabi_attribute 20, 1
   5              		.eabi_attribute 21, 1
   6              		.eabi_attribute 23, 3
   7              		.eabi_attribute 24, 1
   8              		.eabi_attribute 25, 1
   9              		.eabi_attribute 26, 1
  10              		.eabi_attribute 30, 1
  11              		.eabi_attribute 34, 1
  12              		.eabi_attribute 18, 4
  13              		.file	"drv_serial.c"
  14              		.text
  15              	.Ltext0:
  16              		.cfi_sections	.debug_frame
  17              		.section	.text.DrvSerial_Write,"ax",%progbits
  18              		.align	1
  19              		.arch armv7e-m
  20              		.syntax unified
  21              		.thumb
  22              		.thumb_func
  23              		.fpu fpv4-sp-d16
  25              	DrvSerial_Write:
  26              	.LVL0:
  27              	.LFB127:
  28              		.file 1 "Drv/drv_serial.c"
   1:Drv/drv_serial.c **** #include "drv_serial.h"
   2:Drv/drv_serial.c **** #include "vcp.h"
   3:Drv/drv_serial.c **** 
   4:Drv/drv_serial.c **** #define Serial_Default_Baudrate Serial_115200
   5:Drv/drv_serial.c **** 
   6:Drv/drv_serial.c **** /* internal virable */
   7:Drv/drv_serial.c **** static uint8_t Serial_TX_Buff[DrvSerial_Sum][SERIAL_MAX_RECLEN];
   8:Drv/drv_serial.c **** static uint8_t Serial_RX_Buff[DrvSerial_Sum][SERIAL_MAX_RECLEN];
   9:Drv/drv_serial.c **** 
  10:Drv/drv_serial.c **** /* internal function */
  11:Drv/drv_serial.c **** 
  12:Drv/drv_serial.c **** /* external function */
  13:Drv/drv_serial.c **** static bool DrvSerial_Ctl(DrvSerial_Port_List portx, DrvSerial_CMD_List cmd, uint32_t data, uint8_t
  14:Drv/drv_serial.c **** static bool DrvSerial_Write(uint8_t *data, uint16_t len);
  15:Drv/drv_serial.c **** 
  16:Drv/drv_serial.c **** /* external virable */
  17:Drv/drv_serial.c **** DrvSerial_GenProcFunc_TypeDef DrvSerial = {
  18:Drv/drv_serial.c ****     .ctl = DrvSerial_Ctl,
  19:Drv/drv_serial.c ****     .read = NULL,
  20:Drv/drv_serial.c ****     .write = DrvSerial_Write,
  21:Drv/drv_serial.c **** };
  22:Drv/drv_serial.c **** 
  23:Drv/drv_serial.c **** static bool DrvSerial_Ctl(DrvSerial_Port_List portx, DrvSerial_CMD_List cmd, uint32_t data, uint8_t
  24:Drv/drv_serial.c **** {
  25:Drv/drv_serial.c ****     switch ((uint8_t)cmd)
  26:Drv/drv_serial.c ****     {
  27:Drv/drv_serial.c ****     case DrvSerial_Open:
  28:Drv/drv_serial.c ****         if (len != sizeof(DrvSerial_Config_Typedef))
  29:Drv/drv_serial.c ****             return;
  30:Drv/drv_serial.c **** 
ARM GAS  /var/folders/lx/hc4sn_b53233_zkc9xbbl97r0000gp/T//ccnjx6HE.s 			page 2


  31:Drv/drv_serial.c ****         ((DrvSerial_Config_Typedef *)data)->port = portx;
  32:Drv/drv_serial.c **** 
  33:Drv/drv_serial.c ****         if (portx != DrvSerial_Vcp)
  34:Drv/drv_serial.c ****         {
  35:Drv/drv_serial.c ****             switch ((uint8_t)(((DrvSerial_Config_Typedef *)data)->mode))
  36:Drv/drv_serial.c ****             {
  37:Drv/drv_serial.c ****             case DrvSerial_MODE_Normal:
  38:Drv/drv_serial.c ****                 Serial_IRQ_RX_Init(portx, ((DrvSerial_Config_Typedef *)data)->baudrate,
  39:Drv/drv_serial.c ****                                    ((DrvSerial_Config_Typedef *)data)->PreemptionPriority,
  40:Drv/drv_serial.c ****                                    ((DrvSerial_Config_Typedef *)data)->SubPriority, Serial_Normal);
  41:Drv/drv_serial.c **** 
  42:Drv/drv_serial.c ****                 Serial_Set_IRQ_Callback(portx, ((DrvSerial_Config_Typedef *)data)->Irq_Callback);
  43:Drv/drv_serial.c **** 
  44:Drv/drv_serial.c ****                 ((DrvSerial_Config_Typedef *)data)->inuse = true;
  45:Drv/drv_serial.c ****                 break;
  46:Drv/drv_serial.c **** 
  47:Drv/drv_serial.c ****             case DrvSerial_MODE_DMA_Rx:
  48:Drv/drv_serial.c ****                 Serial_DMA_RX_Init(portx, ((DrvSerial_Config_Typedef *)data)->baudrate,
  49:Drv/drv_serial.c ****                                    ((DrvSerial_Config_Typedef *)data)->PreemptionPriority,
  50:Drv/drv_serial.c ****                                    ((DrvSerial_Config_Typedef *)data)->SubPriority,
  51:Drv/drv_serial.c ****                                    (uint32_t)&Serial_RX_Buff[portx],
  52:Drv/drv_serial.c ****                                    SERIAL_MAX_RECLEN, Serial_Normal);
  53:Drv/drv_serial.c **** 
  54:Drv/drv_serial.c ****                 Serial_Set_IRQ_Callback(portx, ((DrvSerial_Config_Typedef *)data)->Irq_Callback);
  55:Drv/drv_serial.c **** 
  56:Drv/drv_serial.c ****                 ((DrvSerial_Config_Typedef *)data)->inuse = true;
  57:Drv/drv_serial.c ****                 break;
  58:Drv/drv_serial.c **** 
  59:Drv/drv_serial.c ****             case DrvSerial_MODE_DMA_TxRx:
  60:Drv/drv_serial.c ****                 Serial_DMA_RXTX_Init(portx, ((DrvSerial_Config_Typedef *)data)->baudrate,
  61:Drv/drv_serial.c ****                                      ((DrvSerial_Config_Typedef *)data)->PreemptionPriority,
  62:Drv/drv_serial.c ****                                      ((DrvSerial_Config_Typedef *)data)->SubPriority,
  63:Drv/drv_serial.c ****                                      (uint32_t)&Serial_RX_Buff[portx],
  64:Drv/drv_serial.c ****                                      (uint32_t)&Serial_TX_Buff[portx],
  65:Drv/drv_serial.c ****                                      SERIAL_MAX_RECLEN, Serial_Normal);
  66:Drv/drv_serial.c **** 
  67:Drv/drv_serial.c ****                 Serial_Set_IRQ_Callback(portx, ((DrvSerial_Config_Typedef *)data)->Irq_Callback);
  68:Drv/drv_serial.c ****                 Serial_Set_DMAIRQ_Callback(portx, ((DrvSerial_Config_Typedef *)data)->DmaIrq_Callba
  69:Drv/drv_serial.c **** 
  70:Drv/drv_serial.c ****                 ((DrvSerial_Config_Typedef *)data)->inuse = true;
  71:Drv/drv_serial.c ****                 break;
  72:Drv/drv_serial.c **** 
  73:Drv/drv_serial.c ****             default:
  74:Drv/drv_serial.c ****                 return false;
  75:Drv/drv_serial.c ****             }
  76:Drv/drv_serial.c ****         }
  77:Drv/drv_serial.c ****         else
  78:Drv/drv_serial.c ****         {
  79:Drv/drv_serial.c ****             VCP_Init();
  80:Drv/drv_serial.c ****         }
  81:Drv/drv_serial.c ****         break;
  82:Drv/drv_serial.c **** 
  83:Drv/drv_serial.c ****     case DrvSerial_Close:
  84:Drv/drv_serial.c ****         Serial_Deinit(portx);
  85:Drv/drv_serial.c ****         ((DrvSerial_Config_Typedef *)data)->port = DrvSerial_None;
  86:Drv/drv_serial.c ****         ((DrvSerial_Config_Typedef *)data)->mode = DrvSerial_MODE_None;
  87:Drv/drv_serial.c ****         ((DrvSerial_Config_Typedef *)data)->PreemptionPriority = 0;
ARM GAS  /var/folders/lx/hc4sn_b53233_zkc9xbbl97r0000gp/T//ccnjx6HE.s 			page 3


  88:Drv/drv_serial.c ****         ((DrvSerial_Config_Typedef *)data)->SubPriority = 0;
  89:Drv/drv_serial.c ****         ((DrvSerial_Config_Typedef *)data)->baudrate = 0;
  90:Drv/drv_serial.c ****         ((DrvSerial_Config_Typedef *)data)->DmaIrq_Callback = NULL;
  91:Drv/drv_serial.c ****         ((DrvSerial_Config_Typedef *)data)->inuse = false;
  92:Drv/drv_serial.c ****         ((DrvSerial_Config_Typedef *)data)->Irq_Callback = NULL;
  93:Drv/drv_serial.c ****         break;
  94:Drv/drv_serial.c **** 
  95:Drv/drv_serial.c ****     case DrvSerial_Set_TxIRQCallback:
  96:Drv/drv_serial.c ****         break;
  97:Drv/drv_serial.c **** 
  98:Drv/drv_serial.c ****     case DrvSerial_Set_RxIRQCallback:
  99:Drv/drv_serial.c ****         break;
 100:Drv/drv_serial.c **** 
 101:Drv/drv_serial.c ****     default:
 102:Drv/drv_serial.c ****         return false;
 103:Drv/drv_serial.c ****     }
 104:Drv/drv_serial.c **** 
 105:Drv/drv_serial.c ****     return true;
 106:Drv/drv_serial.c **** }
 107:Drv/drv_serial.c **** 
 108:Drv/drv_serial.c **** static bool DrvSerial_Write(uint8_t *data, uint16_t len)
 109:Drv/drv_serial.c **** {
  29              		.loc 1 109 1 view -0
  30              		.cfi_startproc
  31              		@ args = 0, pretend = 0, frame = 0
  32              		@ frame_needed = 0, uses_anonymous_args = 0
  33              		@ link register save eliminated.
 110:Drv/drv_serial.c **** }
  34              		.loc 1 110 1 view .LVU1
  35              	.LVL1:
  36              		.loc 1 110 1 is_stmt 0 view .LVU2
  37 0000 7047     		bx	lr
  38              		.cfi_endproc
  39              	.LFE127:
  41              		.section	.text.DrvSerial_Ctl,"ax",%progbits
  42              		.align	1
  43              		.syntax unified
  44              		.thumb
  45              		.thumb_func
  46              		.fpu fpv4-sp-d16
  48              	DrvSerial_Ctl:
  49              	.LVL2:
  50              	.LFB126:
  24:Drv/drv_serial.c ****     switch ((uint8_t)cmd)
  51              		.loc 1 24 1 is_stmt 1 view -0
  52              		.cfi_startproc
  53              		@ args = 0, pretend = 0, frame = 0
  54              		@ frame_needed = 0, uses_anonymous_args = 0
  24:Drv/drv_serial.c ****     switch ((uint8_t)cmd)
  55              		.loc 1 24 1 is_stmt 0 view .LVU4
  56 0000 F0B5     		push	{r4, r5, r6, r7, lr}
  57              	.LCFI0:
  58              		.cfi_def_cfa_offset 20
  59              		.cfi_offset 4, -20
  60              		.cfi_offset 5, -16
  61              		.cfi_offset 6, -12
  62              		.cfi_offset 7, -8
ARM GAS  /var/folders/lx/hc4sn_b53233_zkc9xbbl97r0000gp/T//ccnjx6HE.s 			page 4


  63              		.cfi_offset 14, -4
  64 0002 85B0     		sub	sp, sp, #20
  65              	.LCFI1:
  66              		.cfi_def_cfa_offset 40
  67 0004 0546     		mov	r5, r0
  68 0006 1446     		mov	r4, r2
  25:Drv/drv_serial.c ****     {
  69              		.loc 1 25 5 is_stmt 1 view .LVU5
  70 0008 0129     		cmp	r1, #1
  71 000a 60D0     		beq	.L3
  72 000c 0FD8     		bhi	.L4
  73 000e 61B9     		cbnz	r1, .L14
  28:Drv/drv_serial.c ****             return;
  74              		.loc 1 28 9 view .LVU6
  28:Drv/drv_serial.c ****             return;
  75              		.loc 1 28 12 is_stmt 0 view .LVU7
  76 0010 142B     		cmp	r3, #20
  77 0012 11D1     		bne	.L2
  31:Drv/drv_serial.c **** 
  78              		.loc 1 31 9 is_stmt 1 view .LVU8
  31:Drv/drv_serial.c **** 
  79              		.loc 1 31 50 is_stmt 0 view .LVU9
  80 0014 2072     		strb	r0, [r4, #8]
  33:Drv/drv_serial.c ****         {
  81              		.loc 1 33 9 is_stmt 1 view .LVU10
  33:Drv/drv_serial.c ****         {
  82              		.loc 1 33 12 is_stmt 0 view .LVU11
  83 0016 0428     		cmp	r0, #4
  84 0018 55D0     		beq	.L8
  35:Drv/drv_serial.c ****             {
  85              		.loc 1 35 13 is_stmt 1 view .LVU12
  35:Drv/drv_serial.c ****             {
  86              		.loc 1 35 65 is_stmt 0 view .LVU13
  87 001a D37A     		ldrb	r3, [r2, #11]	@ zero_extendqisi2
  88              	.LVL3:
  35:Drv/drv_serial.c ****             {
  89              		.loc 1 35 65 view .LVU14
  90 001c 012B     		cmp	r3, #1
  91 001e 1ED0     		beq	.L9
  92 0020 022B     		cmp	r3, #2
  93 0022 32D0     		beq	.L10
  94 0024 63B1     		cbz	r3, .L15
  95 0026 0020     		movs	r0, #0
  96              	.LVL4:
  35:Drv/drv_serial.c ****             {
  97              		.loc 1 35 65 view .LVU15
  98 0028 06E0     		b	.L2
  99              	.LVL5:
 100              	.L14:
  25:Drv/drv_serial.c ****     {
 101              		.loc 1 25 5 view .LVU16
 102 002a 0020     		movs	r0, #0
 103              	.LVL6:
  25:Drv/drv_serial.c ****     {
 104              		.loc 1 25 5 view .LVU17
 105 002c 04E0     		b	.L2
 106              	.LVL7:
ARM GAS  /var/folders/lx/hc4sn_b53233_zkc9xbbl97r0000gp/T//ccnjx6HE.s 			page 5


 107              	.L4:
  25:Drv/drv_serial.c ****     {
 108              		.loc 1 25 5 view .LVU18
 109 002e 0239     		subs	r1, r1, #2
 110              	.LVL8:
  25:Drv/drv_serial.c ****     {
 111              		.loc 1 25 5 view .LVU19
 112 0030 C9B2     		uxtb	r1, r1
 113 0032 0129     		cmp	r1, #1
 114 0034 02D8     		bhi	.L16
 105:Drv/drv_serial.c **** }
 115              		.loc 1 105 12 view .LVU20
 116 0036 0120     		movs	r0, #1
 117              	.LVL9:
 118              	.L2:
 106:Drv/drv_serial.c **** 
 119              		.loc 1 106 1 view .LVU21
 120 0038 05B0     		add	sp, sp, #20
 121              	.LCFI2:
 122              		.cfi_remember_state
 123              		.cfi_def_cfa_offset 20
 124              		@ sp needed
 125 003a F0BD     		pop	{r4, r5, r6, r7, pc}
 126              	.LVL10:
 127              	.L16:
 128              	.LCFI3:
 129              		.cfi_restore_state
  25:Drv/drv_serial.c ****     {
 130              		.loc 1 25 5 view .LVU22
 131 003c 0020     		movs	r0, #0
 132              	.LVL11:
  25:Drv/drv_serial.c ****     {
 133              		.loc 1 25 5 view .LVU23
 134 003e FBE7     		b	.L2
 135              	.LVL12:
 136              	.L15:
  38:Drv/drv_serial.c ****                                    ((DrvSerial_Config_Typedef *)data)->PreemptionPriority,
 137              		.loc 1 38 17 is_stmt 1 view .LVU24
 138 0040 937A     		ldrb	r3, [r2, #10]	@ zero_extendqisi2
 139 0042 527A     		ldrb	r2, [r2, #9]	@ zero_extendqisi2
 140              	.LVL13:
  38:Drv/drv_serial.c ****                                    ((DrvSerial_Config_Typedef *)data)->PreemptionPriority,
 141              		.loc 1 38 17 is_stmt 0 view .LVU25
 142 0044 6168     		ldr	r1, [r4, #4]
 143              	.LVL14:
  38:Drv/drv_serial.c ****                                    ((DrvSerial_Config_Typedef *)data)->PreemptionPriority,
 144              		.loc 1 38 17 view .LVU26
 145 0046 0020     		movs	r0, #0
 146              	.LVL15:
  38:Drv/drv_serial.c ****                                    ((DrvSerial_Config_Typedef *)data)->PreemptionPriority,
 147              		.loc 1 38 17 view .LVU27
 148 0048 0090     		str	r0, [sp]
 149              	.LVL16:
  38:Drv/drv_serial.c ****                                    ((DrvSerial_Config_Typedef *)data)->PreemptionPriority,
 150              		.loc 1 38 17 view .LVU28
 151 004a 2846     		mov	r0, r5
 152 004c FFF7FEFF 		bl	Serial_IRQ_RX_Init
ARM GAS  /var/folders/lx/hc4sn_b53233_zkc9xbbl97r0000gp/T//ccnjx6HE.s 			page 6


 153              	.LVL17:
  42:Drv/drv_serial.c **** 
 154              		.loc 1 42 17 is_stmt 1 view .LVU29
 155 0050 E168     		ldr	r1, [r4, #12]
 156 0052 2846     		mov	r0, r5
 157 0054 FFF7FEFF 		bl	Serial_Set_IRQ_Callback
 158              	.LVL18:
  44:Drv/drv_serial.c ****                 break;
 159              		.loc 1 44 17 view .LVU30
  44:Drv/drv_serial.c ****                 break;
 160              		.loc 1 44 59 is_stmt 0 view .LVU31
 161 0058 0120     		movs	r0, #1
 162 005a 2070     		strb	r0, [r4]
  45:Drv/drv_serial.c **** 
 163              		.loc 1 45 17 is_stmt 1 view .LVU32
 164 005c ECE7     		b	.L2
 165              	.LVL19:
 166              	.L9:
  48:Drv/drv_serial.c ****                                    ((DrvSerial_Config_Typedef *)data)->PreemptionPriority,
 167              		.loc 1 48 17 view .LVU33
  51:Drv/drv_serial.c ****                                    SERIAL_MAX_RECLEN, Serial_Normal);
 168              		.loc 1 51 46 is_stmt 0 view .LVU34
 169 005e 2348     		ldr	r0, .L17
 170              	.LVL20:
  51:Drv/drv_serial.c ****                                    SERIAL_MAX_RECLEN, Serial_Normal);
 171              		.loc 1 51 46 view .LVU35
 172 0060 00EB8520 		add	r0, r0, r5, lsl #10
  48:Drv/drv_serial.c ****                                    ((DrvSerial_Config_Typedef *)data)->PreemptionPriority,
 173              		.loc 1 48 17 view .LVU36
 174 0064 937A     		ldrb	r3, [r2, #10]	@ zero_extendqisi2
 175 0066 527A     		ldrb	r2, [r2, #9]	@ zero_extendqisi2
 176              	.LVL21:
  48:Drv/drv_serial.c ****                                    ((DrvSerial_Config_Typedef *)data)->PreemptionPriority,
 177              		.loc 1 48 17 view .LVU37
 178 0068 6168     		ldr	r1, [r4, #4]
 179              	.LVL22:
  48:Drv/drv_serial.c ****                                    ((DrvSerial_Config_Typedef *)data)->PreemptionPriority,
 180              		.loc 1 48 17 view .LVU38
 181 006a 0026     		movs	r6, #0
 182 006c 0296     		str	r6, [sp, #8]
 183              	.LVL23:
  48:Drv/drv_serial.c ****                                    ((DrvSerial_Config_Typedef *)data)->PreemptionPriority,
 184              		.loc 1 48 17 view .LVU39
 185 006e 4FF48066 		mov	r6, #1024
 186 0072 0196     		str	r6, [sp, #4]
 187 0074 0090     		str	r0, [sp]
 188 0076 2846     		mov	r0, r5
 189 0078 FFF7FEFF 		bl	Serial_DMA_RX_Init
 190              	.LVL24:
  54:Drv/drv_serial.c **** 
 191              		.loc 1 54 17 is_stmt 1 view .LVU40
 192 007c E168     		ldr	r1, [r4, #12]
 193 007e 2846     		mov	r0, r5
 194 0080 FFF7FEFF 		bl	Serial_Set_IRQ_Callback
 195              	.LVL25:
  56:Drv/drv_serial.c ****                 break;
 196              		.loc 1 56 17 view .LVU41
ARM GAS  /var/folders/lx/hc4sn_b53233_zkc9xbbl97r0000gp/T//ccnjx6HE.s 			page 7


  56:Drv/drv_serial.c ****                 break;
 197              		.loc 1 56 59 is_stmt 0 view .LVU42
 198 0084 0120     		movs	r0, #1
 199 0086 2070     		strb	r0, [r4]
  57:Drv/drv_serial.c **** 
 200              		.loc 1 57 17 is_stmt 1 view .LVU43
 201 0088 D6E7     		b	.L2
 202              	.LVL26:
 203              	.L10:
  60:Drv/drv_serial.c ****                                      ((DrvSerial_Config_Typedef *)data)->PreemptionPriority,
 204              		.loc 1 60 17 view .LVU44
  63:Drv/drv_serial.c ****                                      (uint32_t)&Serial_TX_Buff[portx],
 205              		.loc 1 63 48 is_stmt 0 view .LVU45
 206 008a 1848     		ldr	r0, .L17
 207              	.LVL27:
  63:Drv/drv_serial.c ****                                      (uint32_t)&Serial_TX_Buff[portx],
 208              		.loc 1 63 48 view .LVU46
 209 008c 00EB8520 		add	r0, r0, r5, lsl #10
  64:Drv/drv_serial.c ****                                      SERIAL_MAX_RECLEN, Serial_Normal);
 210              		.loc 1 64 48 view .LVU47
 211 0090 174E     		ldr	r6, .L17+4
 212 0092 06EB8526 		add	r6, r6, r5, lsl #10
  60:Drv/drv_serial.c ****                                      ((DrvSerial_Config_Typedef *)data)->PreemptionPriority,
 213              		.loc 1 60 17 view .LVU48
 214 0096 937A     		ldrb	r3, [r2, #10]	@ zero_extendqisi2
 215 0098 527A     		ldrb	r2, [r2, #9]	@ zero_extendqisi2
 216              	.LVL28:
  60:Drv/drv_serial.c ****                                      ((DrvSerial_Config_Typedef *)data)->PreemptionPriority,
 217              		.loc 1 60 17 view .LVU49
 218 009a 6168     		ldr	r1, [r4, #4]
 219              	.LVL29:
  60:Drv/drv_serial.c ****                                      ((DrvSerial_Config_Typedef *)data)->PreemptionPriority,
 220              		.loc 1 60 17 view .LVU50
 221 009c 0027     		movs	r7, #0
 222 009e 0397     		str	r7, [sp, #12]
 223              	.LVL30:
  60:Drv/drv_serial.c ****                                      ((DrvSerial_Config_Typedef *)data)->PreemptionPriority,
 224              		.loc 1 60 17 view .LVU51
 225 00a0 4FF48067 		mov	r7, #1024
 226 00a4 0297     		str	r7, [sp, #8]
 227 00a6 0196     		str	r6, [sp, #4]
 228 00a8 0090     		str	r0, [sp]
 229 00aa 2846     		mov	r0, r5
 230 00ac FFF7FEFF 		bl	Serial_DMA_RXTX_Init
 231              	.LVL31:
  67:Drv/drv_serial.c ****                 Serial_Set_DMAIRQ_Callback(portx, ((DrvSerial_Config_Typedef *)data)->DmaIrq_Callba
 232              		.loc 1 67 17 is_stmt 1 view .LVU52
 233 00b0 E168     		ldr	r1, [r4, #12]
 234 00b2 2846     		mov	r0, r5
 235 00b4 FFF7FEFF 		bl	Serial_Set_IRQ_Callback
 236              	.LVL32:
  68:Drv/drv_serial.c **** 
 237              		.loc 1 68 17 view .LVU53
 238 00b8 2169     		ldr	r1, [r4, #16]
 239 00ba 2846     		mov	r0, r5
 240 00bc FFF7FEFF 		bl	Serial_Set_DMAIRQ_Callback
 241              	.LVL33:
ARM GAS  /var/folders/lx/hc4sn_b53233_zkc9xbbl97r0000gp/T//ccnjx6HE.s 			page 8


  70:Drv/drv_serial.c ****                 break;
 242              		.loc 1 70 17 view .LVU54
  70:Drv/drv_serial.c ****                 break;
 243              		.loc 1 70 59 is_stmt 0 view .LVU55
 244 00c0 0120     		movs	r0, #1
 245 00c2 2070     		strb	r0, [r4]
  71:Drv/drv_serial.c **** 
 246              		.loc 1 71 17 is_stmt 1 view .LVU56
 247 00c4 B8E7     		b	.L2
 248              	.LVL34:
 249              	.L8:
  79:Drv/drv_serial.c ****         }
 250              		.loc 1 79 13 view .LVU57
 251 00c6 FFF7FEFF 		bl	VCP_Init
 252              	.LVL35:
 105:Drv/drv_serial.c **** }
 253              		.loc 1 105 12 is_stmt 0 view .LVU58
 254 00ca 0120     		movs	r0, #1
 255 00cc B4E7     		b	.L2
 256              	.LVL36:
 257              	.L3:
  84:Drv/drv_serial.c ****         ((DrvSerial_Config_Typedef *)data)->port = DrvSerial_None;
 258              		.loc 1 84 9 is_stmt 1 view .LVU59
 259 00ce FFF7FEFF 		bl	Serial_Deinit
 260              	.LVL37:
  85:Drv/drv_serial.c ****         ((DrvSerial_Config_Typedef *)data)->mode = DrvSerial_MODE_None;
 261              		.loc 1 85 9 view .LVU60
  85:Drv/drv_serial.c ****         ((DrvSerial_Config_Typedef *)data)->mode = DrvSerial_MODE_None;
 262              		.loc 1 85 50 is_stmt 0 view .LVU61
 263 00d2 0623     		movs	r3, #6
 264 00d4 2372     		strb	r3, [r4, #8]
  86:Drv/drv_serial.c ****         ((DrvSerial_Config_Typedef *)data)->PreemptionPriority = 0;
 265              		.loc 1 86 9 is_stmt 1 view .LVU62
  86:Drv/drv_serial.c ****         ((DrvSerial_Config_Typedef *)data)->PreemptionPriority = 0;
 266              		.loc 1 86 50 is_stmt 0 view .LVU63
 267 00d6 0323     		movs	r3, #3
 268 00d8 E372     		strb	r3, [r4, #11]
  87:Drv/drv_serial.c ****         ((DrvSerial_Config_Typedef *)data)->SubPriority = 0;
 269              		.loc 1 87 9 is_stmt 1 view .LVU64
  87:Drv/drv_serial.c ****         ((DrvSerial_Config_Typedef *)data)->SubPriority = 0;
 270              		.loc 1 87 64 is_stmt 0 view .LVU65
 271 00da 0023     		movs	r3, #0
 272 00dc 6372     		strb	r3, [r4, #9]
  88:Drv/drv_serial.c ****         ((DrvSerial_Config_Typedef *)data)->baudrate = 0;
 273              		.loc 1 88 9 is_stmt 1 view .LVU66
  88:Drv/drv_serial.c ****         ((DrvSerial_Config_Typedef *)data)->baudrate = 0;
 274              		.loc 1 88 57 is_stmt 0 view .LVU67
 275 00de A372     		strb	r3, [r4, #10]
  89:Drv/drv_serial.c ****         ((DrvSerial_Config_Typedef *)data)->DmaIrq_Callback = NULL;
 276              		.loc 1 89 9 is_stmt 1 view .LVU68
  89:Drv/drv_serial.c ****         ((DrvSerial_Config_Typedef *)data)->DmaIrq_Callback = NULL;
 277              		.loc 1 89 54 is_stmt 0 view .LVU69
 278 00e0 6360     		str	r3, [r4, #4]
  90:Drv/drv_serial.c ****         ((DrvSerial_Config_Typedef *)data)->inuse = false;
 279              		.loc 1 90 9 is_stmt 1 view .LVU70
  90:Drv/drv_serial.c ****         ((DrvSerial_Config_Typedef *)data)->inuse = false;
 280              		.loc 1 90 61 is_stmt 0 view .LVU71
ARM GAS  /var/folders/lx/hc4sn_b53233_zkc9xbbl97r0000gp/T//ccnjx6HE.s 			page 9


 281 00e2 2361     		str	r3, [r4, #16]
  91:Drv/drv_serial.c ****         ((DrvSerial_Config_Typedef *)data)->Irq_Callback = NULL;
 282              		.loc 1 91 9 is_stmt 1 view .LVU72
  91:Drv/drv_serial.c ****         ((DrvSerial_Config_Typedef *)data)->Irq_Callback = NULL;
 283              		.loc 1 91 51 is_stmt 0 view .LVU73
 284 00e4 2370     		strb	r3, [r4]
  92:Drv/drv_serial.c ****         break;
 285              		.loc 1 92 9 is_stmt 1 view .LVU74
  92:Drv/drv_serial.c ****         break;
 286              		.loc 1 92 58 is_stmt 0 view .LVU75
 287 00e6 E360     		str	r3, [r4, #12]
  93:Drv/drv_serial.c **** 
 288              		.loc 1 93 9 is_stmt 1 view .LVU76
 105:Drv/drv_serial.c **** }
 289              		.loc 1 105 12 is_stmt 0 view .LVU77
 290 00e8 0120     		movs	r0, #1
  93:Drv/drv_serial.c **** 
 291              		.loc 1 93 9 view .LVU78
 292 00ea A5E7     		b	.L2
 293              	.L18:
 294              		.align	2
 295              	.L17:
 296 00ec 00000000 		.word	Serial_RX_Buff
 297 00f0 00000000 		.word	Serial_TX_Buff
 298              		.cfi_endproc
 299              	.LFE126:
 301              		.global	DrvSerial
 302              		.section	.bss.Serial_RX_Buff,"aw",%nobits
 303              		.align	2
 306              	Serial_RX_Buff:
 307 0000 00000000 		.space	5120
 307      00000000 
 307      00000000 
 307      00000000 
 307      00000000 
 308              		.section	.bss.Serial_TX_Buff,"aw",%nobits
 309              		.align	2
 312              	Serial_TX_Buff:
 313 0000 00000000 		.space	5120
 313      00000000 
 313      00000000 
 313      00000000 
 313      00000000 
 314              		.section	.data.DrvSerial,"aw"
 315              		.align	2
 318              	DrvSerial:
 319 0000 00000000 		.word	DrvSerial_Ctl
 320 0004 00000000 		.word	0
 321 0008 00000000 		.word	DrvSerial_Write
 322              		.text
 323              	.Letext0:
 324              		.file 2 "/usr/local/arm-none-eabi-gcc/gcc-arm-none-eabi-10-2020-q4-major/arm-none-eabi/include/mac
 325              		.file 3 "/usr/local/arm-none-eabi-gcc/gcc-arm-none-eabi-10-2020-q4-major/arm-none-eabi/include/sys
 326              		.file 4 "Bsp/periph_serial.h"
 327              		.file 5 "Drv/drv_serial.h"
 328              		.file 6 "USB/config/vcp.h"
ARM GAS  /var/folders/lx/hc4sn_b53233_zkc9xbbl97r0000gp/T//ccnjx6HE.s 			page 10


DEFINED SYMBOLS
                            *ABS*:0000000000000000 drv_serial.c
/var/folders/lx/hc4sn_b53233_zkc9xbbl97r0000gp/T//ccnjx6HE.s:18     .text.DrvSerial_Write:0000000000000000 $t
/var/folders/lx/hc4sn_b53233_zkc9xbbl97r0000gp/T//ccnjx6HE.s:25     .text.DrvSerial_Write:0000000000000000 DrvSerial_Write
/var/folders/lx/hc4sn_b53233_zkc9xbbl97r0000gp/T//ccnjx6HE.s:42     .text.DrvSerial_Ctl:0000000000000000 $t
/var/folders/lx/hc4sn_b53233_zkc9xbbl97r0000gp/T//ccnjx6HE.s:48     .text.DrvSerial_Ctl:0000000000000000 DrvSerial_Ctl
/var/folders/lx/hc4sn_b53233_zkc9xbbl97r0000gp/T//ccnjx6HE.s:296    .text.DrvSerial_Ctl:00000000000000ec $d
/var/folders/lx/hc4sn_b53233_zkc9xbbl97r0000gp/T//ccnjx6HE.s:306    .bss.Serial_RX_Buff:0000000000000000 Serial_RX_Buff
/var/folders/lx/hc4sn_b53233_zkc9xbbl97r0000gp/T//ccnjx6HE.s:312    .bss.Serial_TX_Buff:0000000000000000 Serial_TX_Buff
/var/folders/lx/hc4sn_b53233_zkc9xbbl97r0000gp/T//ccnjx6HE.s:318    .data.DrvSerial:0000000000000000 DrvSerial
/var/folders/lx/hc4sn_b53233_zkc9xbbl97r0000gp/T//ccnjx6HE.s:303    .bss.Serial_RX_Buff:0000000000000000 $d
/var/folders/lx/hc4sn_b53233_zkc9xbbl97r0000gp/T//ccnjx6HE.s:309    .bss.Serial_TX_Buff:0000000000000000 $d
/var/folders/lx/hc4sn_b53233_zkc9xbbl97r0000gp/T//ccnjx6HE.s:315    .data.DrvSerial:0000000000000000 $d

UNDEFINED SYMBOLS
Serial_IRQ_RX_Init
Serial_Set_IRQ_Callback
Serial_DMA_RX_Init
Serial_DMA_RXTX_Init
Serial_Set_DMAIRQ_Callback
VCP_Init
Serial_Deinit
