ARM GAS  C:\Users\huav\AppData\Local\Temp\cchlFhYN.s 			page 1


   1              		.cpu cortex-m4
   2              		.eabi_attribute 27, 1
   3              		.eabi_attribute 28, 1
   4              		.eabi_attribute 20, 1
   5              		.eabi_attribute 21, 1
   6              		.eabi_attribute 23, 3
   7              		.eabi_attribute 24, 1
   8              		.eabi_attribute 25, 1
   9              		.eabi_attribute 26, 1
  10              		.eabi_attribute 30, 1
  11              		.eabi_attribute 34, 1
  12              		.eabi_attribute 18, 4
  13              		.file	"drv_serial.c"
  14              		.text
  15              	.Ltext0:
  16              		.cfi_sections	.debug_frame
  17              		.section	.text.DrvSerial_Ctl,"ax",%progbits
  18              		.align	1
  19              		.arch armv7e-m
  20              		.syntax unified
  21              		.thumb
  22              		.thumb_func
  23              		.fpu fpv4-sp-d16
  25              	DrvSerial_Ctl:
  26              	.LVL0:
  27              	.LFB127:
  28              		.file 1 "Drv/drv_serial.c"
   1:Drv/drv_serial.c **** #include "drv_serial.h"
   2:Drv/drv_serial.c **** #include "vcp.h"
   3:Drv/drv_serial.c **** 
   4:Drv/drv_serial.c **** /* internal virable */
   5:Drv/drv_serial.c **** 
   6:Drv/drv_serial.c **** /* internal function */
   7:Drv/drv_serial.c **** 
   8:Drv/drv_serial.c **** /* external function */
   9:Drv/drv_serial.c **** static bool DrvSerial_Ctl(DrvSerial_Port_List portx, DrvSerial_CMD_List cmd, uint32_t data);
  10:Drv/drv_serial.c **** static bool DrvSerial_Write(uint8_t *data, uint16_t len);
  11:Drv/drv_serial.c **** 
  12:Drv/drv_serial.c **** /* external virable */
  13:Drv/drv_serial.c **** DrvSerial_GenProcFunc_TypeDef DrvSerial = {
  14:Drv/drv_serial.c ****     .ctl = DrvSerial_Ctl,
  15:Drv/drv_serial.c ****     .read = NULL,
  16:Drv/drv_serial.c ****     .write = DrvSerial_Write,
  17:Drv/drv_serial.c **** };
  18:Drv/drv_serial.c **** 
  19:Drv/drv_serial.c **** static void DrvSerial_GetInstence(DrvSerial_Port_List portx)
  20:Drv/drv_serial.c **** {
  21:Drv/drv_serial.c **** }
  22:Drv/drv_serial.c **** 
  23:Drv/drv_serial.c **** static bool DrvSerial_Ctl(DrvSerial_Port_List portx, DrvSerial_CMD_List cmd, uint32_t data)
  24:Drv/drv_serial.c **** {
  29              		.loc 1 24 1 view -0
  30              		.cfi_startproc
  31              		@ args = 0, pretend = 0, frame = 0
  32              		@ frame_needed = 0, uses_anonymous_args = 0
  33              		@ link register save eliminated.
  25:Drv/drv_serial.c ****     switch ((uint8_t)cmd)
ARM GAS  C:\Users\huav\AppData\Local\Temp\cchlFhYN.s 			page 2


  34              		.loc 1 25 5 view .LVU1
  35 0000 39B1     		cbz	r1, .L2
  36 0002 4B1E     		subs	r3, r1, #1
  37 0004 DBB2     		uxtb	r3, r3
  38 0006 022B     		cmp	r3, #2
  39 0008 01D8     		bhi	.L7
  26:Drv/drv_serial.c ****     {
  27:Drv/drv_serial.c ****     case DrvSerial_Open:
  28:Drv/drv_serial.c ****         if (portx != DrvSerial_Vcp)
  29:Drv/drv_serial.c ****         {
  30:Drv/drv_serial.c ****             switch ((uint8_t)data)
  31:Drv/drv_serial.c ****             {
  32:Drv/drv_serial.c ****             case DrvSerial_MODE_Normal:
  33:Drv/drv_serial.c ****                 break;
  34:Drv/drv_serial.c **** 
  35:Drv/drv_serial.c ****             case DrvSerial_MODE_DMA_Rx:
  36:Drv/drv_serial.c ****                 break;
  37:Drv/drv_serial.c **** 
  38:Drv/drv_serial.c ****             case DrvSerial_MODE_DMA_Tx:
  39:Drv/drv_serial.c ****                 break;
  40:Drv/drv_serial.c **** 
  41:Drv/drv_serial.c ****             case DrvSerial_MODE_DMA_TxRx:
  42:Drv/drv_serial.c ****                 break;
  43:Drv/drv_serial.c **** 
  44:Drv/drv_serial.c ****             default:
  45:Drv/drv_serial.c ****                 return false;
  46:Drv/drv_serial.c ****             }
  47:Drv/drv_serial.c ****         }
  48:Drv/drv_serial.c ****         else
  49:Drv/drv_serial.c ****         {
  50:Drv/drv_serial.c ****         }
  51:Drv/drv_serial.c ****         break;
  52:Drv/drv_serial.c **** 
  53:Drv/drv_serial.c ****     case DrvSerial_Close:
  54:Drv/drv_serial.c ****         break;
  55:Drv/drv_serial.c **** 
  56:Drv/drv_serial.c ****     case DrvSerial_Set_Baudrate:
  57:Drv/drv_serial.c ****         break;
  58:Drv/drv_serial.c **** 
  59:Drv/drv_serial.c ****     case DrvSerial_Set_IRQCallback:
  60:Drv/drv_serial.c ****         break;
  61:Drv/drv_serial.c **** 
  62:Drv/drv_serial.c ****     default:
  63:Drv/drv_serial.c ****         return false;
  64:Drv/drv_serial.c ****     }
  65:Drv/drv_serial.c **** 
  66:Drv/drv_serial.c ****     return true;
  40              		.loc 1 66 12 is_stmt 0 view .LVU2
  41 000a 0120     		movs	r0, #1
  42              	.LVL1:
  43              		.loc 1 66 12 view .LVU3
  44 000c 7047     		bx	lr
  45              	.LVL2:
  46              	.L7:
  25:Drv/drv_serial.c ****     switch ((uint8_t)cmd)
  47              		.loc 1 25 5 view .LVU4
  48 000e 0020     		movs	r0, #0
ARM GAS  C:\Users\huav\AppData\Local\Temp\cchlFhYN.s 			page 3


  49              	.LVL3:
  25:Drv/drv_serial.c ****     switch ((uint8_t)cmd)
  50              		.loc 1 25 5 view .LVU5
  51 0010 7047     		bx	lr
  52              	.LVL4:
  53              	.L2:
  28:Drv/drv_serial.c ****         {
  54              		.loc 1 28 9 is_stmt 1 view .LVU6
  28:Drv/drv_serial.c ****         {
  55              		.loc 1 28 12 is_stmt 0 view .LVU7
  56 0012 0428     		cmp	r0, #4
  57 0014 04D0     		beq	.L5
  30:Drv/drv_serial.c ****             {
  58              		.loc 1 30 13 is_stmt 1 view .LVU8
  59 0016 12F0FC0F 		tst	r2, #252
  60 001a 03D1     		bne	.L6
  61              		.loc 1 66 12 is_stmt 0 view .LVU9
  62 001c 0120     		movs	r0, #1
  63              	.LVL5:
  64              		.loc 1 66 12 view .LVU10
  65 001e 7047     		bx	lr
  66              	.LVL6:
  67              	.L5:
  68              		.loc 1 66 12 view .LVU11
  69 0020 0120     		movs	r0, #1
  70              	.LVL7:
  71              		.loc 1 66 12 view .LVU12
  72 0022 7047     		bx	lr
  73              	.LVL8:
  74              	.L6:
  45:Drv/drv_serial.c ****             }
  75              		.loc 1 45 24 view .LVU13
  76 0024 0020     		movs	r0, #0
  77              	.LVL9:
  67:Drv/drv_serial.c **** }
  78              		.loc 1 67 1 view .LVU14
  79 0026 7047     		bx	lr
  80              		.cfi_endproc
  81              	.LFE127:
  83              		.section	.text.DrvSerial_Write,"ax",%progbits
  84              		.align	1
  85              		.syntax unified
  86              		.thumb
  87              		.thumb_func
  88              		.fpu fpv4-sp-d16
  90              	DrvSerial_Write:
  91              	.LVL10:
  92              	.LFB128:
  68:Drv/drv_serial.c **** 
  69:Drv/drv_serial.c **** static bool DrvSerial_Write(uint8_t *data, uint16_t len)
  70:Drv/drv_serial.c **** {
  93              		.loc 1 70 1 is_stmt 1 view -0
  94              		.cfi_startproc
  95              		@ args = 0, pretend = 0, frame = 0
  96              		@ frame_needed = 0, uses_anonymous_args = 0
  97              		@ link register save eliminated.
  71:Drv/drv_serial.c **** }
ARM GAS  C:\Users\huav\AppData\Local\Temp\cchlFhYN.s 			page 4


  98              		.loc 1 71 1 view .LVU16
  99              	.LVL11:
 100              		.loc 1 71 1 is_stmt 0 view .LVU17
 101 0000 7047     		bx	lr
 102              		.cfi_endproc
 103              	.LFE128:
 105              		.global	DrvSerial
 106              		.section	.data.DrvSerial,"aw"
 107              		.align	2
 110              	DrvSerial:
 111 0000 00000000 		.word	DrvSerial_Ctl
 112 0004 00000000 		.word	0
 113 0008 00000000 		.word	DrvSerial_Write
 114              		.text
 115              	.Letext0:
 116              		.file 2 "c:\\program files (x86)\\gnu arm embedded toolchain\\10 2020-q4-major\\arm-none-eabi\\inc
 117              		.file 3 "c:\\program files (x86)\\gnu arm embedded toolchain\\10 2020-q4-major\\arm-none-eabi\\inc
 118              		.file 4 "Bsp/periph_serial.h"
 119              		.file 5 "Drv/drv_serial.h"
ARM GAS  C:\Users\huav\AppData\Local\Temp\cchlFhYN.s 			page 5


DEFINED SYMBOLS
                            *ABS*:00000000 drv_serial.c
C:\Users\huav\AppData\Local\Temp\cchlFhYN.s:18     .text.DrvSerial_Ctl:00000000 $t
C:\Users\huav\AppData\Local\Temp\cchlFhYN.s:25     .text.DrvSerial_Ctl:00000000 DrvSerial_Ctl
C:\Users\huav\AppData\Local\Temp\cchlFhYN.s:84     .text.DrvSerial_Write:00000000 $t
C:\Users\huav\AppData\Local\Temp\cchlFhYN.s:90     .text.DrvSerial_Write:00000000 DrvSerial_Write
C:\Users\huav\AppData\Local\Temp\cchlFhYN.s:110    .data.DrvSerial:00000000 DrvSerial
C:\Users\huav\AppData\Local\Temp\cchlFhYN.s:107    .data.DrvSerial:00000000 $d

NO UNDEFINED SYMBOLS
