ARM GAS  C:\Users\huav\AppData\Local\Temp\ccyjMmRu.s 			page 1


   1              		.cpu cortex-m4
   2              		.eabi_attribute 27, 1
   3              		.eabi_attribute 28, 1
   4              		.eabi_attribute 20, 1
   5              		.eabi_attribute 21, 1
   6              		.eabi_attribute 23, 3
   7              		.eabi_attribute 24, 1
   8              		.eabi_attribute 25, 1
   9              		.eabi_attribute 26, 1
  10              		.eabi_attribute 30, 1
  11              		.eabi_attribute 34, 1
  12              		.eabi_attribute 18, 4
  13              		.file	"drv_serial.c"
  14              		.text
  15              	.Ltext0:
  16              		.cfi_sections	.debug_frame
  17              		.section	.text.DrvSerial_Write,"ax",%progbits
  18              		.align	1
  19              		.arch armv7e-m
  20              		.syntax unified
  21              		.thumb
  22              		.thumb_func
  23              		.fpu fpv4-sp-d16
  25              	DrvSerial_Write:
  26              	.LVL0:
  27              	.LFB127:
  28              		.file 1 "Drv/drv_serial.c"
   1:Drv/drv_serial.c **** #include "drv_serial.h"
   2:Drv/drv_serial.c **** #include "vcp.h"
   3:Drv/drv_serial.c **** 
   4:Drv/drv_serial.c **** #define Serial_Default_Baudrate Serial_115200
   5:Drv/drv_serial.c **** 
   6:Drv/drv_serial.c **** /* internal virable */
   7:Drv/drv_serial.c **** static uint8_t Serial_TX_Buff[DrvSerial_Sum][SERIAL_MAX_RECLEN];
   8:Drv/drv_serial.c **** static uint8_t Serial_RX_Buff[DrvSerial_Sum][SERIAL_MAX_RECLEN];
   9:Drv/drv_serial.c **** static DrvSerial_SrcInfo_TypeDef DrvSerial_SrcInfo[DrvSerial_Sum] = {
  10:Drv/drv_serial.c ****     {.inuse = false},
  11:Drv/drv_serial.c ****     {.inuse = false},
  12:Drv/drv_serial.c ****     {.inuse = false},
  13:Drv/drv_serial.c ****     {.inuse = false},
  14:Drv/drv_serial.c **** };
  15:Drv/drv_serial.c **** 
  16:Drv/drv_serial.c **** /* internal function */
  17:Drv/drv_serial.c **** 
  18:Drv/drv_serial.c **** /* external function */
  19:Drv/drv_serial.c **** static bool
  20:Drv/drv_serial.c **** DrvSerial_Ctl(DrvSerial_Port_List portx, DrvSerial_CMD_List cmd, uint32_t data, uint8_t len);
  21:Drv/drv_serial.c **** static bool DrvSerial_Write(DrvSerial_Port_List portx, uint8_t *data, uint16_t len);
  22:Drv/drv_serial.c **** 
  23:Drv/drv_serial.c **** /* external virable */
  24:Drv/drv_serial.c **** DrvSerial_GenProcFunc_TypeDef DrvSerial = {
  25:Drv/drv_serial.c ****     .ctl = DrvSerial_Ctl,
  26:Drv/drv_serial.c ****     .read = NULL,
  27:Drv/drv_serial.c ****     .write = DrvSerial_Write,
  28:Drv/drv_serial.c **** };
  29:Drv/drv_serial.c **** 
  30:Drv/drv_serial.c **** static bool DrvSerial_Ctl(DrvSerial_Port_List portx, DrvSerial_CMD_List cmd, uint32_t data, uint8_t
ARM GAS  C:\Users\huav\AppData\Local\Temp\ccyjMmRu.s 			page 2


  31:Drv/drv_serial.c **** {
  32:Drv/drv_serial.c ****     switch ((uint8_t)cmd)
  33:Drv/drv_serial.c ****     {
  34:Drv/drv_serial.c ****     case DrvSerial_Open:
  35:Drv/drv_serial.c ****         if ((len != sizeof(DrvSerial_Config_Typedef)) || (DrvSerial_SrcInfo[portx].inuse))
  36:Drv/drv_serial.c ****             return;
  37:Drv/drv_serial.c **** 
  38:Drv/drv_serial.c ****         if (portx != DrvSerial_Vcp)
  39:Drv/drv_serial.c ****         {
  40:Drv/drv_serial.c ****             switch ((uint8_t)(((DrvSerial_Config_Typedef *)data)->mode))
  41:Drv/drv_serial.c ****             {
  42:Drv/drv_serial.c ****             case DrvSerial_MODE_Normal:
  43:Drv/drv_serial.c ****                 Serial_IRQ_RX_Init(portx, ((DrvSerial_Config_Typedef *)data)->baudrate,
  44:Drv/drv_serial.c ****                                    ((DrvSerial_Config_Typedef *)data)->PreemptionPriority,
  45:Drv/drv_serial.c ****                                    ((DrvSerial_Config_Typedef *)data)->SubPriority, Serial_Normal);
  46:Drv/drv_serial.c **** 
  47:Drv/drv_serial.c ****                 Serial_Set_IRQ_Callback(portx, ((DrvSerial_Config_Typedef *)data)->Irq_Callback);
  48:Drv/drv_serial.c ****                 break;
  49:Drv/drv_serial.c **** 
  50:Drv/drv_serial.c ****             case DrvSerial_MODE_DMA_Rx:
  51:Drv/drv_serial.c ****                 Serial_DMA_RX_Init(portx, ((DrvSerial_Config_Typedef *)data)->baudrate, ((DrvSerial
  52:Drv/drv_serial.c ****                                    ((DrvSerial_Config_Typedef *)data)->SubPriority,
  53:Drv/drv_serial.c ****                                    (uint32_t)&Serial_RX_Buff[portx],
  54:Drv/drv_serial.c ****                                    SERIAL_MAX_RECLEN, Serial_Normal);
  55:Drv/drv_serial.c **** 
  56:Drv/drv_serial.c ****                 Serial_Set_IRQ_Callback(portx, ((DrvSerial_Config_Typedef *)data)->Irq_Callback);
  57:Drv/drv_serial.c ****                 break;
  58:Drv/drv_serial.c **** 
  59:Drv/drv_serial.c ****             case DrvSerial_MODE_DMA_TxRx:
  60:Drv/drv_serial.c ****                 Serial_DMA_RXTX_Init(portx, ((DrvSerial_Config_Typedef *)data)->baudrate,
  61:Drv/drv_serial.c ****                                      ((DrvSerial_Config_Typedef *)data)->PreemptionPriority,
  62:Drv/drv_serial.c ****                                      ((DrvSerial_Config_Typedef *)data)->SubPriority,
  63:Drv/drv_serial.c ****                                      (uint32_t)&Serial_RX_Buff[portx],
  64:Drv/drv_serial.c ****                                      (uint32_t)&Serial_TX_Buff[portx],
  65:Drv/drv_serial.c ****                                      SERIAL_MAX_RECLEN, Serial_Normal);
  66:Drv/drv_serial.c **** 
  67:Drv/drv_serial.c ****                 Serial_Set_IRQ_Callback(portx, ((DrvSerial_Config_Typedef *)data)->Irq_Callback);
  68:Drv/drv_serial.c ****                 Serial_Set_DMAIRQ_Callback(portx, ((DrvSerial_Config_Typedef *)data)->DmaIrq_Callba
  69:Drv/drv_serial.c **** 
  70:Drv/drv_serial.c ****                 break;
  71:Drv/drv_serial.c **** 
  72:Drv/drv_serial.c ****             default:
  73:Drv/drv_serial.c ****                 return false;
  74:Drv/drv_serial.c ****             }
  75:Drv/drv_serial.c ****         }
  76:Drv/drv_serial.c ****         else
  77:Drv/drv_serial.c ****         {
  78:Drv/drv_serial.c ****             VCP_Init();
  79:Drv/drv_serial.c ****         }
  80:Drv/drv_serial.c ****         break;
  81:Drv/drv_serial.c **** 
  82:Drv/drv_serial.c ****     case DrvSerial_Close:
  83:Drv/drv_serial.c ****         Serial_Deinit(portx);
  84:Drv/drv_serial.c ****         ((DrvSerial_Config_Typedef *)data)->mode = DrvSerial_MODE_None;
  85:Drv/drv_serial.c ****         ((DrvSerial_Config_Typedef *)data)->PreemptionPriority = 0;
  86:Drv/drv_serial.c ****         ((DrvSerial_Config_Typedef *)data)->SubPriority = 0;
  87:Drv/drv_serial.c ****         ((DrvSerial_Config_Typedef *)data)->baudrate = 0;
ARM GAS  C:\Users\huav\AppData\Local\Temp\ccyjMmRu.s 			page 3


  88:Drv/drv_serial.c ****         ((DrvSerial_Config_Typedef *)data)->DmaIrq_Callback = NULL;
  89:Drv/drv_serial.c ****         ((DrvSerial_Config_Typedef *)data)->Irq_Callback = NULL;
  90:Drv/drv_serial.c ****         break;
  91:Drv/drv_serial.c **** 
  92:Drv/drv_serial.c ****     case DrvSerial_Set_TxIRQCallback:
  93:Drv/drv_serial.c ****         break;
  94:Drv/drv_serial.c **** 
  95:Drv/drv_serial.c ****     case DrvSerial_Set_RxIRQCallback:
  96:Drv/drv_serial.c ****         break;
  97:Drv/drv_serial.c **** 
  98:Drv/drv_serial.c ****     default:
  99:Drv/drv_serial.c ****         return false;
 100:Drv/drv_serial.c ****     }
 101:Drv/drv_serial.c **** 
 102:Drv/drv_serial.c ****     return true;
 103:Drv/drv_serial.c **** }
 104:Drv/drv_serial.c **** 
 105:Drv/drv_serial.c **** static bool DrvSerial_Write(DrvSerial_Port_List portx, uint8_t *data, uint16_t len)
 106:Drv/drv_serial.c **** {
  29              		.loc 1 106 1 view -0
  30              		.cfi_startproc
  31              		@ args = 0, pretend = 0, frame = 0
  32              		@ frame_needed = 0, uses_anonymous_args = 0
  33              		@ link register save eliminated.
 107:Drv/drv_serial.c **** }
  34              		.loc 1 107 1 view .LVU1
  35              	.LVL1:
  36              		.loc 1 107 1 is_stmt 0 view .LVU2
  37 0000 7047     		bx	lr
  38              		.cfi_endproc
  39              	.LFE127:
  41              		.section	.text.DrvSerial_Ctl,"ax",%progbits
  42              		.align	1
  43              		.syntax unified
  44              		.thumb
  45              		.thumb_func
  46              		.fpu fpv4-sp-d16
  48              	DrvSerial_Ctl:
  49              	.LVL2:
  50              	.LFB126:
  31:Drv/drv_serial.c ****     switch ((uint8_t)cmd)
  51              		.loc 1 31 1 is_stmt 1 view -0
  52              		.cfi_startproc
  53              		@ args = 0, pretend = 0, frame = 0
  54              		@ frame_needed = 0, uses_anonymous_args = 0
  31:Drv/drv_serial.c ****     switch ((uint8_t)cmd)
  55              		.loc 1 31 1 is_stmt 0 view .LVU4
  56 0000 70B5     		push	{r4, r5, r6, lr}
  57              	.LCFI0:
  58              		.cfi_def_cfa_offset 16
  59              		.cfi_offset 4, -16
  60              		.cfi_offset 5, -12
  61              		.cfi_offset 6, -8
  62              		.cfi_offset 14, -4
  63 0002 84B0     		sub	sp, sp, #16
  64              	.LCFI1:
  65              		.cfi_def_cfa_offset 32
ARM GAS  C:\Users\huav\AppData\Local\Temp\ccyjMmRu.s 			page 4


  66 0004 0546     		mov	r5, r0
  67 0006 1446     		mov	r4, r2
  32:Drv/drv_serial.c ****     {
  68              		.loc 1 32 5 is_stmt 1 view .LVU5
  69 0008 0129     		cmp	r1, #1
  70 000a 60D0     		beq	.L3
  71 000c 20D8     		bhi	.L4
  72 000e E9B9     		cbnz	r1, .L14
  35:Drv/drv_serial.c ****             return;
  73              		.loc 1 35 9 view .LVU6
  35:Drv/drv_serial.c ****             return;
  74              		.loc 1 35 12 is_stmt 0 view .LVU7
  75 0010 142B     		cmp	r3, #20
  76 0012 22D1     		bne	.L2
  35:Drv/drv_serial.c ****             return;
  77              		.loc 1 35 83 discriminator 1 view .LVU8
  78 0014 00EB4003 		add	r3, r0, r0, lsl #1
  79              	.LVL3:
  35:Drv/drv_serial.c ****             return;
  80              		.loc 1 35 83 discriminator 1 view .LVU9
  81 0018 334A     		ldr	r2, .L16
  82              	.LVL4:
  35:Drv/drv_serial.c ****             return;
  83              		.loc 1 35 83 discriminator 1 view .LVU10
  84 001a 12F83300 		ldrb	r0, [r2, r3, lsl #3]	@ zero_extendqisi2
  85              	.LVL5:
  35:Drv/drv_serial.c ****             return;
  86              		.loc 1 35 55 discriminator 1 view .LVU11
  87 001e E0B9     		cbnz	r0, .L2
  38:Drv/drv_serial.c ****         {
  88              		.loc 1 38 9 is_stmt 1 view .LVU12
  38:Drv/drv_serial.c ****         {
  89              		.loc 1 38 12 is_stmt 0 view .LVU13
  90 0020 042D     		cmp	r5, #4
  91 0022 50D0     		beq	.L9
  40:Drv/drv_serial.c ****             {
  92              		.loc 1 40 13 is_stmt 1 view .LVU14
  40:Drv/drv_serial.c ****             {
  93              		.loc 1 40 65 is_stmt 0 view .LVU15
  94 0024 A379     		ldrb	r3, [r4, #6]	@ zero_extendqisi2
  95 0026 012B     		cmp	r3, #1
  96 0028 1BD0     		beq	.L10
  97 002a 022B     		cmp	r3, #2
  98 002c 2ED0     		beq	.L11
  99 002e A3B9     		cbnz	r3, .L2
  43:Drv/drv_serial.c ****                                    ((DrvSerial_Config_Typedef *)data)->PreemptionPriority,
 100              		.loc 1 43 17 is_stmt 1 view .LVU16
 101 0030 6379     		ldrb	r3, [r4, #5]	@ zero_extendqisi2
 102 0032 2279     		ldrb	r2, [r4, #4]	@ zero_extendqisi2
 103 0034 0021     		movs	r1, #0
 104              	.LVL6:
  43:Drv/drv_serial.c ****                                    ((DrvSerial_Config_Typedef *)data)->PreemptionPriority,
 105              		.loc 1 43 17 is_stmt 0 view .LVU17
 106 0036 0091     		str	r1, [sp]
 107 0038 2168     		ldr	r1, [r4]
 108 003a 2846     		mov	r0, r5
 109 003c FFF7FEFF 		bl	Serial_IRQ_RX_Init
ARM GAS  C:\Users\huav\AppData\Local\Temp\ccyjMmRu.s 			page 5


 110              	.LVL7:
  47:Drv/drv_serial.c ****                 break;
 111              		.loc 1 47 17 is_stmt 1 view .LVU18
 112 0040 A168     		ldr	r1, [r4, #8]
 113 0042 2846     		mov	r0, r5
 114 0044 FFF7FEFF 		bl	Serial_Set_IRQ_Callback
 115              	.LVL8:
  48:Drv/drv_serial.c **** 
 116              		.loc 1 48 17 view .LVU19
 102:Drv/drv_serial.c **** }
 117              		.loc 1 102 12 is_stmt 0 view .LVU20
 118 0048 0120     		movs	r0, #1
  48:Drv/drv_serial.c **** 
 119              		.loc 1 48 17 view .LVU21
 120 004a 06E0     		b	.L2
 121              	.LVL9:
 122              	.L14:
  32:Drv/drv_serial.c ****     {
 123              		.loc 1 32 5 view .LVU22
 124 004c 0020     		movs	r0, #0
 125              	.LVL10:
  32:Drv/drv_serial.c ****     {
 126              		.loc 1 32 5 view .LVU23
 127 004e 04E0     		b	.L2
 128              	.LVL11:
 129              	.L4:
  32:Drv/drv_serial.c ****     {
 130              		.loc 1 32 5 view .LVU24
 131 0050 0239     		subs	r1, r1, #2
 132              	.LVL12:
  32:Drv/drv_serial.c ****     {
 133              		.loc 1 32 5 view .LVU25
 134 0052 C9B2     		uxtb	r1, r1
 135 0054 0129     		cmp	r1, #1
 136 0056 02D8     		bhi	.L15
 102:Drv/drv_serial.c **** }
 137              		.loc 1 102 12 view .LVU26
 138 0058 0120     		movs	r0, #1
 139              	.LVL13:
 140              	.L2:
 103:Drv/drv_serial.c **** 
 141              		.loc 1 103 1 view .LVU27
 142 005a 04B0     		add	sp, sp, #16
 143              	.LCFI2:
 144              		.cfi_remember_state
 145              		.cfi_def_cfa_offset 16
 146              		@ sp needed
 147 005c 70BD     		pop	{r4, r5, r6, pc}
 148              	.LVL14:
 149              	.L15:
 150              	.LCFI3:
 151              		.cfi_restore_state
  32:Drv/drv_serial.c ****     {
 152              		.loc 1 32 5 view .LVU28
 153 005e 0020     		movs	r0, #0
 154              	.LVL15:
  32:Drv/drv_serial.c ****     {
ARM GAS  C:\Users\huav\AppData\Local\Temp\ccyjMmRu.s 			page 6


 155              		.loc 1 32 5 view .LVU29
 156 0060 FBE7     		b	.L2
 157              	.LVL16:
 158              	.L10:
  51:Drv/drv_serial.c ****                                    ((DrvSerial_Config_Typedef *)data)->SubPriority,
 159              		.loc 1 51 17 is_stmt 1 view .LVU30
  53:Drv/drv_serial.c ****                                    SERIAL_MAX_RECLEN, Serial_Normal);
 160              		.loc 1 53 46 is_stmt 0 view .LVU31
 161 0062 2249     		ldr	r1, .L16+4
 162              	.LVL17:
  53:Drv/drv_serial.c ****                                    SERIAL_MAX_RECLEN, Serial_Normal);
 163              		.loc 1 53 46 view .LVU32
 164 0064 01EB8521 		add	r1, r1, r5, lsl #10
  51:Drv/drv_serial.c ****                                    ((DrvSerial_Config_Typedef *)data)->SubPriority,
 165              		.loc 1 51 17 view .LVU33
 166 0068 6379     		ldrb	r3, [r4, #5]	@ zero_extendqisi2
 167 006a 2279     		ldrb	r2, [r4, #4]	@ zero_extendqisi2
 168 006c 0020     		movs	r0, #0
 169 006e 0290     		str	r0, [sp, #8]
 170 0070 4FF48060 		mov	r0, #1024
 171 0074 0190     		str	r0, [sp, #4]
 172 0076 0091     		str	r1, [sp]
 173 0078 2168     		ldr	r1, [r4]
 174 007a 2846     		mov	r0, r5
 175 007c FFF7FEFF 		bl	Serial_DMA_RX_Init
 176              	.LVL18:
  56:Drv/drv_serial.c ****                 break;
 177              		.loc 1 56 17 is_stmt 1 view .LVU34
 178 0080 A168     		ldr	r1, [r4, #8]
 179 0082 2846     		mov	r0, r5
 180 0084 FFF7FEFF 		bl	Serial_Set_IRQ_Callback
 181              	.LVL19:
  57:Drv/drv_serial.c **** 
 182              		.loc 1 57 17 view .LVU35
 102:Drv/drv_serial.c **** }
 183              		.loc 1 102 12 is_stmt 0 view .LVU36
 184 0088 0120     		movs	r0, #1
  57:Drv/drv_serial.c **** 
 185              		.loc 1 57 17 view .LVU37
 186 008a E6E7     		b	.L2
 187              	.LVL20:
 188              	.L11:
  60:Drv/drv_serial.c ****                                      ((DrvSerial_Config_Typedef *)data)->PreemptionPriority,
 189              		.loc 1 60 17 is_stmt 1 view .LVU38
  63:Drv/drv_serial.c ****                                      (uint32_t)&Serial_TX_Buff[portx],
 190              		.loc 1 63 48 is_stmt 0 view .LVU39
 191 008c 1749     		ldr	r1, .L16+4
 192              	.LVL21:
  63:Drv/drv_serial.c ****                                      (uint32_t)&Serial_TX_Buff[portx],
 193              		.loc 1 63 48 view .LVU40
 194 008e 01EB8521 		add	r1, r1, r5, lsl #10
  64:Drv/drv_serial.c ****                                      SERIAL_MAX_RECLEN, Serial_Normal);
 195              		.loc 1 64 48 view .LVU41
 196 0092 1748     		ldr	r0, .L16+8
 197 0094 00EB8520 		add	r0, r0, r5, lsl #10
  60:Drv/drv_serial.c ****                                      ((DrvSerial_Config_Typedef *)data)->PreemptionPriority,
 198              		.loc 1 60 17 view .LVU42
ARM GAS  C:\Users\huav\AppData\Local\Temp\ccyjMmRu.s 			page 7


 199 0098 6379     		ldrb	r3, [r4, #5]	@ zero_extendqisi2
 200 009a 2279     		ldrb	r2, [r4, #4]	@ zero_extendqisi2
 201 009c 0026     		movs	r6, #0
 202 009e 0396     		str	r6, [sp, #12]
 203 00a0 4FF48066 		mov	r6, #1024
 204 00a4 0296     		str	r6, [sp, #8]
 205 00a6 0190     		str	r0, [sp, #4]
 206 00a8 0091     		str	r1, [sp]
 207 00aa 2168     		ldr	r1, [r4]
 208 00ac 2846     		mov	r0, r5
 209 00ae FFF7FEFF 		bl	Serial_DMA_RXTX_Init
 210              	.LVL22:
  67:Drv/drv_serial.c ****                 Serial_Set_DMAIRQ_Callback(portx, ((DrvSerial_Config_Typedef *)data)->DmaIrq_Callba
 211              		.loc 1 67 17 is_stmt 1 view .LVU43
 212 00b2 A168     		ldr	r1, [r4, #8]
 213 00b4 2846     		mov	r0, r5
 214 00b6 FFF7FEFF 		bl	Serial_Set_IRQ_Callback
 215              	.LVL23:
  68:Drv/drv_serial.c **** 
 216              		.loc 1 68 17 view .LVU44
 217 00ba E168     		ldr	r1, [r4, #12]
 218 00bc 2846     		mov	r0, r5
 219 00be FFF7FEFF 		bl	Serial_Set_DMAIRQ_Callback
 220              	.LVL24:
  70:Drv/drv_serial.c **** 
 221              		.loc 1 70 17 view .LVU45
 102:Drv/drv_serial.c **** }
 222              		.loc 1 102 12 is_stmt 0 view .LVU46
 223 00c2 0120     		movs	r0, #1
  70:Drv/drv_serial.c **** 
 224              		.loc 1 70 17 view .LVU47
 225 00c4 C9E7     		b	.L2
 226              	.LVL25:
 227              	.L9:
  78:Drv/drv_serial.c ****         }
 228              		.loc 1 78 13 is_stmt 1 view .LVU48
 229 00c6 FFF7FEFF 		bl	VCP_Init
 230              	.LVL26:
 102:Drv/drv_serial.c **** }
 231              		.loc 1 102 12 is_stmt 0 view .LVU49
 232 00ca 0120     		movs	r0, #1
 233 00cc C5E7     		b	.L2
 234              	.LVL27:
 235              	.L3:
  83:Drv/drv_serial.c ****         ((DrvSerial_Config_Typedef *)data)->mode = DrvSerial_MODE_None;
 236              		.loc 1 83 9 is_stmt 1 view .LVU50
 237 00ce FFF7FEFF 		bl	Serial_Deinit
 238              	.LVL28:
  84:Drv/drv_serial.c ****         ((DrvSerial_Config_Typedef *)data)->PreemptionPriority = 0;
 239              		.loc 1 84 9 view .LVU51
  84:Drv/drv_serial.c ****         ((DrvSerial_Config_Typedef *)data)->PreemptionPriority = 0;
 240              		.loc 1 84 50 is_stmt 0 view .LVU52
 241 00d2 0323     		movs	r3, #3
 242 00d4 A371     		strb	r3, [r4, #6]
  85:Drv/drv_serial.c ****         ((DrvSerial_Config_Typedef *)data)->SubPriority = 0;
 243              		.loc 1 85 9 is_stmt 1 view .LVU53
  85:Drv/drv_serial.c ****         ((DrvSerial_Config_Typedef *)data)->SubPriority = 0;
ARM GAS  C:\Users\huav\AppData\Local\Temp\ccyjMmRu.s 			page 8


 244              		.loc 1 85 64 is_stmt 0 view .LVU54
 245 00d6 0023     		movs	r3, #0
 246 00d8 2371     		strb	r3, [r4, #4]
  86:Drv/drv_serial.c ****         ((DrvSerial_Config_Typedef *)data)->baudrate = 0;
 247              		.loc 1 86 9 is_stmt 1 view .LVU55
  86:Drv/drv_serial.c ****         ((DrvSerial_Config_Typedef *)data)->baudrate = 0;
 248              		.loc 1 86 57 is_stmt 0 view .LVU56
 249 00da 6371     		strb	r3, [r4, #5]
  87:Drv/drv_serial.c ****         ((DrvSerial_Config_Typedef *)data)->DmaIrq_Callback = NULL;
 250              		.loc 1 87 9 is_stmt 1 view .LVU57
  87:Drv/drv_serial.c ****         ((DrvSerial_Config_Typedef *)data)->DmaIrq_Callback = NULL;
 251              		.loc 1 87 54 is_stmt 0 view .LVU58
 252 00dc 2360     		str	r3, [r4]
  88:Drv/drv_serial.c ****         ((DrvSerial_Config_Typedef *)data)->Irq_Callback = NULL;
 253              		.loc 1 88 9 is_stmt 1 view .LVU59
  88:Drv/drv_serial.c ****         ((DrvSerial_Config_Typedef *)data)->Irq_Callback = NULL;
 254              		.loc 1 88 61 is_stmt 0 view .LVU60
 255 00de E360     		str	r3, [r4, #12]
  89:Drv/drv_serial.c ****         break;
 256              		.loc 1 89 9 is_stmt 1 view .LVU61
  89:Drv/drv_serial.c ****         break;
 257              		.loc 1 89 58 is_stmt 0 view .LVU62
 258 00e0 A360     		str	r3, [r4, #8]
  90:Drv/drv_serial.c **** 
 259              		.loc 1 90 9 is_stmt 1 view .LVU63
 102:Drv/drv_serial.c **** }
 260              		.loc 1 102 12 is_stmt 0 view .LVU64
 261 00e2 0120     		movs	r0, #1
  90:Drv/drv_serial.c **** 
 262              		.loc 1 90 9 view .LVU65
 263 00e4 B9E7     		b	.L2
 264              	.L17:
 265 00e6 00BF     		.align	2
 266              	.L16:
 267 00e8 00000000 		.word	.LANCHOR0
 268 00ec 00000000 		.word	Serial_RX_Buff
 269 00f0 00000000 		.word	Serial_TX_Buff
 270              		.cfi_endproc
 271              	.LFE126:
 273              		.global	DrvSerial
 274              		.section	.bss.Serial_RX_Buff,"aw",%nobits
 275              		.align	2
 278              	Serial_RX_Buff:
 279 0000 00000000 		.space	5120
 279      00000000 
 279      00000000 
 279      00000000 
 279      00000000 
 280              		.section	.bss.Serial_TX_Buff,"aw",%nobits
 281              		.align	2
 284              	Serial_TX_Buff:
 285 0000 00000000 		.space	5120
 285      00000000 
 285      00000000 
 285      00000000 
 285      00000000 
 286              		.section	.data.DrvSerial,"aw"
ARM GAS  C:\Users\huav\AppData\Local\Temp\ccyjMmRu.s 			page 9


 287              		.align	2
 290              	DrvSerial:
 291 0000 00000000 		.word	DrvSerial_Ctl
 292 0004 00000000 		.word	0
 293 0008 00000000 		.word	DrvSerial_Write
 294              		.section	.rodata.DrvSerial_SrcInfo,"a"
 295              		.align	2
 296              		.set	.LANCHOR0,. + 0
 299              	DrvSerial_SrcInfo:
 300 0000 00000000 		.space	120
 300      00000000 
 300      00000000 
 300      00000000 
 300      00000000 
 301              		.text
 302              	.Letext0:
 303              		.file 2 "c:\\program files (x86)\\gnu arm embedded toolchain\\10 2020-q4-major\\arm-none-eabi\\inc
 304              		.file 3 "c:\\program files (x86)\\gnu arm embedded toolchain\\10 2020-q4-major\\arm-none-eabi\\inc
 305              		.file 4 "Bsp/periph_serial.h"
 306              		.file 5 "Drv/drv_serial.h"
 307              		.file 6 "USB/config/vcp.h"
ARM GAS  C:\Users\huav\AppData\Local\Temp\ccyjMmRu.s 			page 10


DEFINED SYMBOLS
                            *ABS*:00000000 drv_serial.c
C:\Users\huav\AppData\Local\Temp\ccyjMmRu.s:18     .text.DrvSerial_Write:00000000 $t
C:\Users\huav\AppData\Local\Temp\ccyjMmRu.s:25     .text.DrvSerial_Write:00000000 DrvSerial_Write
C:\Users\huav\AppData\Local\Temp\ccyjMmRu.s:42     .text.DrvSerial_Ctl:00000000 $t
C:\Users\huav\AppData\Local\Temp\ccyjMmRu.s:48     .text.DrvSerial_Ctl:00000000 DrvSerial_Ctl
C:\Users\huav\AppData\Local\Temp\ccyjMmRu.s:267    .text.DrvSerial_Ctl:000000e8 $d
C:\Users\huav\AppData\Local\Temp\ccyjMmRu.s:278    .bss.Serial_RX_Buff:00000000 Serial_RX_Buff
C:\Users\huav\AppData\Local\Temp\ccyjMmRu.s:284    .bss.Serial_TX_Buff:00000000 Serial_TX_Buff
C:\Users\huav\AppData\Local\Temp\ccyjMmRu.s:290    .data.DrvSerial:00000000 DrvSerial
C:\Users\huav\AppData\Local\Temp\ccyjMmRu.s:275    .bss.Serial_RX_Buff:00000000 $d
C:\Users\huav\AppData\Local\Temp\ccyjMmRu.s:281    .bss.Serial_TX_Buff:00000000 $d
C:\Users\huav\AppData\Local\Temp\ccyjMmRu.s:287    .data.DrvSerial:00000000 $d
C:\Users\huav\AppData\Local\Temp\ccyjMmRu.s:295    .rodata.DrvSerial_SrcInfo:00000000 $d
C:\Users\huav\AppData\Local\Temp\ccyjMmRu.s:299    .rodata.DrvSerial_SrcInfo:00000000 DrvSerial_SrcInfo

UNDEFINED SYMBOLS
Serial_IRQ_RX_Init
Serial_Set_IRQ_Callback
Serial_DMA_RX_Init
Serial_DMA_RXTX_Init
Serial_Set_DMAIRQ_Callback
VCP_Init
Serial_Deinit
