ARM GAS  /var/folders/lx/hc4sn_b53233_zkc9xbbl97r0000gp/T//ccb5190y.s 			page 1


   1              		.cpu cortex-m4
   2              		.eabi_attribute 27, 1
   3              		.eabi_attribute 28, 1
   4              		.eabi_attribute 20, 1
   5              		.eabi_attribute 21, 1
   6              		.eabi_attribute 23, 3
   7              		.eabi_attribute 24, 1
   8              		.eabi_attribute 25, 1
   9              		.eabi_attribute 26, 1
  10              		.eabi_attribute 30, 1
  11              		.eabi_attribute 34, 1
  12              		.eabi_attribute 18, 4
  13              		.file	"drv_spi.c"
  14              		.text
  15              	.Ltext0:
  16              		.cfi_sections	.debug_frame
  17              		.section	.text.DrvSpi_Transfer,"ax",%progbits
  18              		.align	1
  19              		.arch armv7e-m
  20              		.syntax unified
  21              		.thumb
  22              		.thumb_func
  23              		.fpu fpv4-sp-d16
  25              	DrvSpi_Transfer:
  26              	.LVL0:
  27              	.LFB128:
  28              		.file 1 "Drv/drv_spi.c"
   1:Drv/drv_spi.c **** #include "drv_spi.h"
   2:Drv/drv_spi.c **** #include "periph_spi.h"
   3:Drv/drv_spi.c **** 
   4:Drv/drv_spi.c **** /* external function define */
   5:Drv/drv_spi.c **** static void DrvSpi_Open(DrvSpi_Obj_TypeDef *Obj);
   6:Drv/drv_spi.c **** static void DrvSpi_Close(DrvSpi_Obj_TypeDef *Obj);
   7:Drv/drv_spi.c **** static bool DrvSpi_Transmit(DrvSpi_Obj_TypeDef *Obj, uint8_t data);
   8:Drv/drv_spi.c **** static bool DrvSpi_Receive(DrvSpi_Obj_TypeDef *Obj, uint8_t *data);
   9:Drv/drv_spi.c **** static bool DrvSpi_transmit_receive(DrvSpi_Obj_TypeDef *Obj, uint8_t tdata, uint8_t *rdata);
  10:Drv/drv_spi.c **** static void DrvSpi_SetSpeed(DrvSpi_Obj_TypeDef *Obj, SPIClockSpeed_e speed);
  11:Drv/drv_spi.c **** static uint16_t DrvSpi_Transfer(DrvSpi_Obj_TypeDef *Obj, uint8_t *tdata, uint8_t *rdata, uint16_t l
  12:Drv/drv_spi.c **** 
  13:Drv/drv_spi.c **** /* internal function define */
  14:Drv/drv_spi.c **** 
  15:Drv/drv_spi.c **** DrvSpi_GenProcFunc_TypeDef GenSPI_Drv = {
  16:Drv/drv_spi.c ****     .open = DrvSpi_Open,
  17:Drv/drv_spi.c ****     .close = DrvSpi_Close,
  18:Drv/drv_spi.c ****     .transmit = DrvSpi_Transmit,
  19:Drv/drv_spi.c ****     .receive = DrvSpi_Receive,
  20:Drv/drv_spi.c ****     .transmit_receive = DrvSpi_transmit_receive,
  21:Drv/drv_spi.c ****     .set_speed = DrvSpi_SetSpeed,
  22:Drv/drv_spi.c ****     .transfer = DrvSpi_Transfer,
  23:Drv/drv_spi.c **** };
  24:Drv/drv_spi.c **** 
  25:Drv/drv_spi.c **** uint8_t periph_SPI_CheckBusy(SPI_List SPIx);
  26:Drv/drv_spi.c **** 
  27:Drv/drv_spi.c **** static void DrvSpi_Open(DrvSpi_Obj_TypeDef *Obj)
  28:Drv/drv_spi.c **** {
  29:Drv/drv_spi.c ****     periph_SPI_Init(Obj->SPIx, Obj->speed, Obj->CPOL, Obj->CPHA);
  30:Drv/drv_spi.c **** }
ARM GAS  /var/folders/lx/hc4sn_b53233_zkc9xbbl97r0000gp/T//ccb5190y.s 			page 2


  31:Drv/drv_spi.c **** 
  32:Drv/drv_spi.c **** static void DrvSpi_Close(DrvSpi_Obj_TypeDef *Obj)
  33:Drv/drv_spi.c **** {
  34:Drv/drv_spi.c ****     periph_SPI_DeInit(Obj->SPIx);
  35:Drv/drv_spi.c **** }
  36:Drv/drv_spi.c **** 
  37:Drv/drv_spi.c **** static bool DrvSpi_Transmit(DrvSpi_Obj_TypeDef *Obj, uint8_t data)
  38:Drv/drv_spi.c **** {
  39:Drv/drv_spi.c ****     return periph_SPI_WriteByte(Obj->SPIx, data);
  40:Drv/drv_spi.c **** }
  41:Drv/drv_spi.c **** 
  42:Drv/drv_spi.c **** static bool DrvSpi_Receive(DrvSpi_Obj_TypeDef *Obj, uint8_t *data)
  43:Drv/drv_spi.c **** {
  44:Drv/drv_spi.c ****     return periph_SPI_ReadByte(Obj->SPIx, data);
  45:Drv/drv_spi.c **** }
  46:Drv/drv_spi.c **** 
  47:Drv/drv_spi.c **** static bool DrvSpi_transmit_receive(DrvSpi_Obj_TypeDef *Obj, uint8_t tdata, uint8_t *rdata)
  48:Drv/drv_spi.c **** {
  49:Drv/drv_spi.c ****     return periph_SPI_ReadWriteByte(Obj->SPIx, tdata, rdata);
  50:Drv/drv_spi.c **** }
  51:Drv/drv_spi.c **** 
  52:Drv/drv_spi.c **** static uint16_t DrvSpi_Transfer(DrvSpi_Obj_TypeDef *Obj, uint8_t *tdata, uint8_t *rdata, uint16_t l
  53:Drv/drv_spi.c **** {
  29              		.loc 1 53 1 view -0
  30              		.cfi_startproc
  31              		@ args = 0, pretend = 0, frame = 0
  32              		@ frame_needed = 0, uses_anonymous_args = 0
  33              		.loc 1 53 1 is_stmt 0 view .LVU1
  34 0000 08B5     		push	{r3, lr}
  35              	.LCFI0:
  36              		.cfi_def_cfa_offset 8
  37              		.cfi_offset 3, -8
  38              		.cfi_offset 14, -4
  39 0002 8C46     		mov	ip, r1
  40 0004 1146     		mov	r1, r2
  41              	.LVL1:
  54:Drv/drv_spi.c ****     return periph_SPI_Transfer(Obj->SPIx, rdata, tdata, len);
  42              		.loc 1 54 5 is_stmt 1 view .LVU2
  43              		.loc 1 54 12 is_stmt 0 view .LVU3
  44 0006 6246     		mov	r2, ip
  45              	.LVL2:
  46              		.loc 1 54 12 view .LVU4
  47 0008 0078     		ldrb	r0, [r0]	@ zero_extendqisi2
  48              	.LVL3:
  49              		.loc 1 54 12 view .LVU5
  50 000a FFF7FEFF 		bl	periph_SPI_Transfer
  51              	.LVL4:
  55:Drv/drv_spi.c **** }
  52              		.loc 1 55 1 view .LVU6
  53 000e 08BD     		pop	{r3, pc}
  54              		.cfi_endproc
  55              	.LFE128:
  57              		.section	.text.DrvSpi_transmit_receive,"ax",%progbits
  58              		.align	1
  59              		.syntax unified
  60              		.thumb
  61              		.thumb_func
ARM GAS  /var/folders/lx/hc4sn_b53233_zkc9xbbl97r0000gp/T//ccb5190y.s 			page 3


  62              		.fpu fpv4-sp-d16
  64              	DrvSpi_transmit_receive:
  65              	.LVL5:
  66              	.LFB127:
  48:Drv/drv_spi.c ****     return periph_SPI_ReadWriteByte(Obj->SPIx, tdata, rdata);
  67              		.loc 1 48 1 is_stmt 1 view -0
  68              		.cfi_startproc
  69              		@ args = 0, pretend = 0, frame = 0
  70              		@ frame_needed = 0, uses_anonymous_args = 0
  48:Drv/drv_spi.c ****     return periph_SPI_ReadWriteByte(Obj->SPIx, tdata, rdata);
  71              		.loc 1 48 1 is_stmt 0 view .LVU8
  72 0000 08B5     		push	{r3, lr}
  73              	.LCFI1:
  74              		.cfi_def_cfa_offset 8
  75              		.cfi_offset 3, -8
  76              		.cfi_offset 14, -4
  49:Drv/drv_spi.c **** }
  77              		.loc 1 49 5 is_stmt 1 view .LVU9
  49:Drv/drv_spi.c **** }
  78              		.loc 1 49 12 is_stmt 0 view .LVU10
  79 0002 0078     		ldrb	r0, [r0]	@ zero_extendqisi2
  80              	.LVL6:
  49:Drv/drv_spi.c **** }
  81              		.loc 1 49 12 view .LVU11
  82 0004 FFF7FEFF 		bl	periph_SPI_ReadWriteByte
  83              	.LVL7:
  50:Drv/drv_spi.c **** 
  84              		.loc 1 50 1 view .LVU12
  85 0008 08BD     		pop	{r3, pc}
  86              		.cfi_endproc
  87              	.LFE127:
  89              		.section	.text.DrvSpi_Receive,"ax",%progbits
  90              		.align	1
  91              		.syntax unified
  92              		.thumb
  93              		.thumb_func
  94              		.fpu fpv4-sp-d16
  96              	DrvSpi_Receive:
  97              	.LVL8:
  98              	.LFB126:
  43:Drv/drv_spi.c ****     return periph_SPI_ReadByte(Obj->SPIx, data);
  99              		.loc 1 43 1 is_stmt 1 view -0
 100              		.cfi_startproc
 101              		@ args = 0, pretend = 0, frame = 0
 102              		@ frame_needed = 0, uses_anonymous_args = 0
  43:Drv/drv_spi.c ****     return periph_SPI_ReadByte(Obj->SPIx, data);
 103              		.loc 1 43 1 is_stmt 0 view .LVU14
 104 0000 08B5     		push	{r3, lr}
 105              	.LCFI2:
 106              		.cfi_def_cfa_offset 8
 107              		.cfi_offset 3, -8
 108              		.cfi_offset 14, -4
  44:Drv/drv_spi.c **** }
 109              		.loc 1 44 5 is_stmt 1 view .LVU15
  44:Drv/drv_spi.c **** }
 110              		.loc 1 44 12 is_stmt 0 view .LVU16
 111 0002 0078     		ldrb	r0, [r0]	@ zero_extendqisi2
ARM GAS  /var/folders/lx/hc4sn_b53233_zkc9xbbl97r0000gp/T//ccb5190y.s 			page 4


 112              	.LVL9:
  44:Drv/drv_spi.c **** }
 113              		.loc 1 44 12 view .LVU17
 114 0004 FFF7FEFF 		bl	periph_SPI_ReadByte
 115              	.LVL10:
  45:Drv/drv_spi.c **** 
 116              		.loc 1 45 1 view .LVU18
 117 0008 08BD     		pop	{r3, pc}
 118              		.cfi_endproc
 119              	.LFE126:
 121              		.section	.text.DrvSpi_Transmit,"ax",%progbits
 122              		.align	1
 123              		.syntax unified
 124              		.thumb
 125              		.thumb_func
 126              		.fpu fpv4-sp-d16
 128              	DrvSpi_Transmit:
 129              	.LVL11:
 130              	.LFB125:
  38:Drv/drv_spi.c ****     return periph_SPI_WriteByte(Obj->SPIx, data);
 131              		.loc 1 38 1 is_stmt 1 view -0
 132              		.cfi_startproc
 133              		@ args = 0, pretend = 0, frame = 0
 134              		@ frame_needed = 0, uses_anonymous_args = 0
  38:Drv/drv_spi.c ****     return periph_SPI_WriteByte(Obj->SPIx, data);
 135              		.loc 1 38 1 is_stmt 0 view .LVU20
 136 0000 08B5     		push	{r3, lr}
 137              	.LCFI3:
 138              		.cfi_def_cfa_offset 8
 139              		.cfi_offset 3, -8
 140              		.cfi_offset 14, -4
  39:Drv/drv_spi.c **** }
 141              		.loc 1 39 5 is_stmt 1 view .LVU21
  39:Drv/drv_spi.c **** }
 142              		.loc 1 39 12 is_stmt 0 view .LVU22
 143 0002 0078     		ldrb	r0, [r0]	@ zero_extendqisi2
 144              	.LVL12:
  39:Drv/drv_spi.c **** }
 145              		.loc 1 39 12 view .LVU23
 146 0004 FFF7FEFF 		bl	periph_SPI_WriteByte
 147              	.LVL13:
  40:Drv/drv_spi.c **** 
 148              		.loc 1 40 1 view .LVU24
 149 0008 08BD     		pop	{r3, pc}
 150              		.cfi_endproc
 151              	.LFE125:
 153              		.section	.text.DrvSpi_SetSpeed,"ax",%progbits
 154              		.align	1
 155              		.syntax unified
 156              		.thumb
 157              		.thumb_func
 158              		.fpu fpv4-sp-d16
 160              	DrvSpi_SetSpeed:
 161              	.LVL14:
 162              	.LFB129:
  56:Drv/drv_spi.c **** 
  57:Drv/drv_spi.c **** static void DrvSpi_SetSpeed(DrvSpi_Obj_TypeDef *Obj, SPIClockSpeed_e speed)
ARM GAS  /var/folders/lx/hc4sn_b53233_zkc9xbbl97r0000gp/T//ccb5190y.s 			page 5


  58:Drv/drv_spi.c **** {
 163              		.loc 1 58 1 is_stmt 1 view -0
 164              		.cfi_startproc
 165              		@ args = 0, pretend = 0, frame = 0
 166              		@ frame_needed = 0, uses_anonymous_args = 0
 167              		.loc 1 58 1 is_stmt 0 view .LVU26
 168 0000 08B5     		push	{r3, lr}
 169              	.LCFI4:
 170              		.cfi_def_cfa_offset 8
 171              		.cfi_offset 3, -8
 172              		.cfi_offset 14, -4
  59:Drv/drv_spi.c ****     periph_SPI_SetSpeed(Obj->SPIx, Obj->speed);
 173              		.loc 1 59 5 is_stmt 1 view .LVU27
 174 0002 4178     		ldrb	r1, [r0, #1]	@ zero_extendqisi2
 175              	.LVL15:
 176              		.loc 1 59 5 is_stmt 0 view .LVU28
 177 0004 0078     		ldrb	r0, [r0]	@ zero_extendqisi2
 178              	.LVL16:
 179              		.loc 1 59 5 view .LVU29
 180 0006 FFF7FEFF 		bl	periph_SPI_SetSpeed
 181              	.LVL17:
  60:Drv/drv_spi.c **** }
 182              		.loc 1 60 1 view .LVU30
 183 000a 08BD     		pop	{r3, pc}
 184              		.cfi_endproc
 185              	.LFE129:
 187              		.section	.text.DrvSpi_Close,"ax",%progbits
 188              		.align	1
 189              		.syntax unified
 190              		.thumb
 191              		.thumb_func
 192              		.fpu fpv4-sp-d16
 194              	DrvSpi_Close:
 195              	.LVL18:
 196              	.LFB124:
  33:Drv/drv_spi.c ****     periph_SPI_DeInit(Obj->SPIx);
 197              		.loc 1 33 1 is_stmt 1 view -0
 198              		.cfi_startproc
 199              		@ args = 0, pretend = 0, frame = 0
 200              		@ frame_needed = 0, uses_anonymous_args = 0
  33:Drv/drv_spi.c ****     periph_SPI_DeInit(Obj->SPIx);
 201              		.loc 1 33 1 is_stmt 0 view .LVU32
 202 0000 08B5     		push	{r3, lr}
 203              	.LCFI5:
 204              		.cfi_def_cfa_offset 8
 205              		.cfi_offset 3, -8
 206              		.cfi_offset 14, -4
  34:Drv/drv_spi.c **** }
 207              		.loc 1 34 5 is_stmt 1 view .LVU33
 208 0002 0078     		ldrb	r0, [r0]	@ zero_extendqisi2
 209              	.LVL19:
  34:Drv/drv_spi.c **** }
 210              		.loc 1 34 5 is_stmt 0 view .LVU34
 211 0004 FFF7FEFF 		bl	periph_SPI_DeInit
 212              	.LVL20:
  35:Drv/drv_spi.c **** 
 213              		.loc 1 35 1 view .LVU35
ARM GAS  /var/folders/lx/hc4sn_b53233_zkc9xbbl97r0000gp/T//ccb5190y.s 			page 6


 214 0008 08BD     		pop	{r3, pc}
 215              		.cfi_endproc
 216              	.LFE124:
 218              		.section	.text.DrvSpi_Open,"ax",%progbits
 219              		.align	1
 220              		.syntax unified
 221              		.thumb
 222              		.thumb_func
 223              		.fpu fpv4-sp-d16
 225              	DrvSpi_Open:
 226              	.LVL21:
 227              	.LFB123:
  28:Drv/drv_spi.c ****     periph_SPI_Init(Obj->SPIx, Obj->speed, Obj->CPOL, Obj->CPHA);
 228              		.loc 1 28 1 is_stmt 1 view -0
 229              		.cfi_startproc
 230              		@ args = 0, pretend = 0, frame = 0
 231              		@ frame_needed = 0, uses_anonymous_args = 0
  28:Drv/drv_spi.c ****     periph_SPI_Init(Obj->SPIx, Obj->speed, Obj->CPOL, Obj->CPHA);
 232              		.loc 1 28 1 is_stmt 0 view .LVU37
 233 0000 08B5     		push	{r3, lr}
 234              	.LCFI6:
 235              		.cfi_def_cfa_offset 8
 236              		.cfi_offset 3, -8
 237              		.cfi_offset 14, -4
  29:Drv/drv_spi.c **** }
 238              		.loc 1 29 5 is_stmt 1 view .LVU38
 239 0002 8388     		ldrh	r3, [r0, #4]
 240 0004 4288     		ldrh	r2, [r0, #2]
 241 0006 4178     		ldrb	r1, [r0, #1]	@ zero_extendqisi2
 242 0008 0078     		ldrb	r0, [r0]	@ zero_extendqisi2
 243              	.LVL22:
  29:Drv/drv_spi.c **** }
 244              		.loc 1 29 5 is_stmt 0 view .LVU39
 245 000a FFF7FEFF 		bl	periph_SPI_Init
 246              	.LVL23:
  30:Drv/drv_spi.c **** 
 247              		.loc 1 30 1 view .LVU40
 248 000e 08BD     		pop	{r3, pc}
 249              		.cfi_endproc
 250              	.LFE123:
 252              		.global	GenSPI_Drv
 253              		.section	.data.GenSPI_Drv,"aw"
 254              		.align	2
 257              	GenSPI_Drv:
 258 0000 00000000 		.word	DrvSpi_Open
 259 0004 00000000 		.word	DrvSpi_Close
 260 0008 00000000 		.word	DrvSpi_SetSpeed
 261 000c 00000000 		.word	DrvSpi_Transmit
 262 0010 00000000 		.word	DrvSpi_Receive
 263 0014 00000000 		.word	DrvSpi_transmit_receive
 264 0018 00000000 		.word	DrvSpi_Transfer
 265              		.text
 266              	.Letext0:
 267              		.file 2 "/usr/local/arm-none-eabi-gcc/gcc-arm-none-eabi-10-2020-q4-major/arm-none-eabi/include/mac
 268              		.file 3 "/usr/local/arm-none-eabi-gcc/gcc-arm-none-eabi-10-2020-q4-major/arm-none-eabi/include/sys
 269              		.file 4 "Bsp/periph_spi.h"
 270              		.file 5 "SYS/data_structure/queue.h"
ARM GAS  /var/folders/lx/hc4sn_b53233_zkc9xbbl97r0000gp/T//ccb5190y.s 			page 7


 271              		.file 6 "Drv/drv_spi.h"
ARM GAS  /var/folders/lx/hc4sn_b53233_zkc9xbbl97r0000gp/T//ccb5190y.s 			page 8


DEFINED SYMBOLS
                            *ABS*:0000000000000000 drv_spi.c
/var/folders/lx/hc4sn_b53233_zkc9xbbl97r0000gp/T//ccb5190y.s:18     .text.DrvSpi_Transfer:0000000000000000 $t
/var/folders/lx/hc4sn_b53233_zkc9xbbl97r0000gp/T//ccb5190y.s:25     .text.DrvSpi_Transfer:0000000000000000 DrvSpi_Transfer
/var/folders/lx/hc4sn_b53233_zkc9xbbl97r0000gp/T//ccb5190y.s:58     .text.DrvSpi_transmit_receive:0000000000000000 $t
/var/folders/lx/hc4sn_b53233_zkc9xbbl97r0000gp/T//ccb5190y.s:64     .text.DrvSpi_transmit_receive:0000000000000000 DrvSpi_transmit_receive
/var/folders/lx/hc4sn_b53233_zkc9xbbl97r0000gp/T//ccb5190y.s:90     .text.DrvSpi_Receive:0000000000000000 $t
/var/folders/lx/hc4sn_b53233_zkc9xbbl97r0000gp/T//ccb5190y.s:96     .text.DrvSpi_Receive:0000000000000000 DrvSpi_Receive
/var/folders/lx/hc4sn_b53233_zkc9xbbl97r0000gp/T//ccb5190y.s:122    .text.DrvSpi_Transmit:0000000000000000 $t
/var/folders/lx/hc4sn_b53233_zkc9xbbl97r0000gp/T//ccb5190y.s:128    .text.DrvSpi_Transmit:0000000000000000 DrvSpi_Transmit
/var/folders/lx/hc4sn_b53233_zkc9xbbl97r0000gp/T//ccb5190y.s:154    .text.DrvSpi_SetSpeed:0000000000000000 $t
/var/folders/lx/hc4sn_b53233_zkc9xbbl97r0000gp/T//ccb5190y.s:160    .text.DrvSpi_SetSpeed:0000000000000000 DrvSpi_SetSpeed
/var/folders/lx/hc4sn_b53233_zkc9xbbl97r0000gp/T//ccb5190y.s:188    .text.DrvSpi_Close:0000000000000000 $t
/var/folders/lx/hc4sn_b53233_zkc9xbbl97r0000gp/T//ccb5190y.s:194    .text.DrvSpi_Close:0000000000000000 DrvSpi_Close
/var/folders/lx/hc4sn_b53233_zkc9xbbl97r0000gp/T//ccb5190y.s:219    .text.DrvSpi_Open:0000000000000000 $t
/var/folders/lx/hc4sn_b53233_zkc9xbbl97r0000gp/T//ccb5190y.s:225    .text.DrvSpi_Open:0000000000000000 DrvSpi_Open
/var/folders/lx/hc4sn_b53233_zkc9xbbl97r0000gp/T//ccb5190y.s:257    .data.GenSPI_Drv:0000000000000000 GenSPI_Drv
/var/folders/lx/hc4sn_b53233_zkc9xbbl97r0000gp/T//ccb5190y.s:254    .data.GenSPI_Drv:0000000000000000 $d

UNDEFINED SYMBOLS
periph_SPI_Transfer
periph_SPI_ReadWriteByte
periph_SPI_ReadByte
periph_SPI_WriteByte
periph_SPI_SetSpeed
periph_SPI_DeInit
periph_SPI_Init
