ARM GAS  /tmp/ccj236Q1.s 			page 1


   1              		.cpu cortex-m4
   2              		.eabi_attribute 27, 1
   3              		.eabi_attribute 28, 1
   4              		.eabi_attribute 20, 1
   5              		.eabi_attribute 21, 1
   6              		.eabi_attribute 23, 3
   7              		.eabi_attribute 24, 1
   8              		.eabi_attribute 25, 1
   9              		.eabi_attribute 26, 1
  10              		.eabi_attribute 30, 1
  11              		.eabi_attribute 34, 1
  12              		.eabi_attribute 18, 4
  13              		.file	"drv_gpio.c"
  14              		.text
  15              	.Ltext0:
  16              		.cfi_sections	.debug_frame
  17              		.section	.text.DrvGPIO_Close,"ax",%progbits
  18              		.align	1
  19              		.syntax unified
  20              		.thumb
  21              		.thumb_func
  22              		.fpu fpv4-sp-d16
  24              	DrvGPIO_Close:
  25              	.LFB124:
  26              		.file 1 "Drv/drv_gpio.c"
   1:Drv/drv_gpio.c **** #include "drv_gpio.h"
   2:Drv/drv_gpio.c **** #include "periph_gpio.h"
   3:Drv/drv_gpio.c **** 
   4:Drv/drv_gpio.c **** /* internal function define */
   5:Drv/drv_gpio.c **** 
   6:Drv/drv_gpio.c **** /* external function define */
   7:Drv/drv_gpio.c **** static bool DrvGPIO_Open(DrvGPIO_Obj_TypeDef *Obj, DrvGPIO_CTL_TypeDef type, uint32_t data);
   8:Drv/drv_gpio.c **** static bool DrvGPIO_Close(DrvGPIO_Obj_TypeDef *Obj);
   9:Drv/drv_gpio.c **** static bool DrvGPIO_Control(DrvGPIO_Obj_TypeDef *Obj, DrvGPIO_IO_Level_TypeDef level);
  10:Drv/drv_gpio.c **** static DrvGPIO_IO_Level_TypeDef DrvGPIO_Get(DrvGPIO_Obj_TypeDef *Obj);
  11:Drv/drv_gpio.c **** 
  12:Drv/drv_gpio.c **** DrvGPIO_GenProcFunc_TypeDef DrvGPIO = {
  13:Drv/drv_gpio.c ****     .open = DrvGPIO_Open,
  14:Drv/drv_gpio.c ****     .close = DrvGPIO_Close,
  15:Drv/drv_gpio.c ****     .set = DrvGPIO_Control,
  16:Drv/drv_gpio.c ****     .get = DrvGPIO_Get,
  17:Drv/drv_gpio.c **** };
  18:Drv/drv_gpio.c **** 
  19:Drv/drv_gpio.c **** static bool DrvGPIO_Open(DrvGPIO_Obj_TypeDef *Obj, DrvGPIO_CTL_TypeDef type, uint32_t data)
  20:Drv/drv_gpio.c **** {
  21:Drv/drv_gpio.c ****     Obj->IO_Type = type;
  22:Drv/drv_gpio.c **** 
  23:Drv/drv_gpio.c ****     switch ((uint8_t)type)
  24:Drv/drv_gpio.c ****     {
  25:Drv/drv_gpio.c ****     case GPIO_Output:
  26:Drv/drv_gpio.c ****         GPIO_IO_Output_Init(Obj->CLK, Obj->Pin, Obj->Port);
  27:Drv/drv_gpio.c ****         break;
  28:Drv/drv_gpio.c **** 
  29:Drv/drv_gpio.c ****     case GPIO_Input:
  30:Drv/drv_gpio.c ****         GPIO_IO_Input_Init(Obj->CLK, Obj->Pin, Obj->Port);
  31:Drv/drv_gpio.c ****         break;
  32:Drv/drv_gpio.c **** 
ARM GAS  /tmp/ccj236Q1.s 			page 2


  33:Drv/drv_gpio.c ****     case GPIO_Encoder:
  34:Drv/drv_gpio.c ****         GPIO_IO_Encoder_Init(Obj->Port, Obj->CLK, Obj->Pin, Obj->Pin_Src, Obj->AF_TIMx);
  35:Drv/drv_gpio.c ****         break;
  36:Drv/drv_gpio.c **** 
  37:Drv/drv_gpio.c ****     case GPIO_EXTI_Input:
  38:Drv/drv_gpio.c ****         /* use for sync signal input */
  39:Drv/drv_gpio.c **** 
  40:Drv/drv_gpio.c ****         break;
  41:Drv/drv_gpio.c **** 
  42:Drv/drv_gpio.c ****     default:
  43:Drv/drv_gpio.c ****         break;
  44:Drv/drv_gpio.c ****     }
  45:Drv/drv_gpio.c **** }
  46:Drv/drv_gpio.c **** 
  47:Drv/drv_gpio.c **** static bool DrvGPIO_Close(DrvGPIO_Obj_TypeDef *Obj)
  48:Drv/drv_gpio.c **** {
  27              		.loc 1 48 0
  28              		.cfi_startproc
  29              		@ args = 0, pretend = 0, frame = 0
  30              		@ frame_needed = 0, uses_anonymous_args = 0
  31              		@ link register save eliminated.
  32              	.LVL0:
  33              	.LVL1:
  49:Drv/drv_gpio.c ****     /* ToDo */
  50:Drv/drv_gpio.c **** }
  34              		.loc 1 50 0
  35 0000 7047     		bx	lr
  36              		.cfi_endproc
  37              	.LFE124:
  39              		.section	.text.DrvGPIO_Get,"ax",%progbits
  40              		.align	1
  41              		.syntax unified
  42              		.thumb
  43              		.thumb_func
  44              		.fpu fpv4-sp-d16
  46              	DrvGPIO_Get:
  47              	.LFB126:
  51:Drv/drv_gpio.c **** 
  52:Drv/drv_gpio.c **** static bool DrvGPIO_Control(DrvGPIO_Obj_TypeDef *Obj, DrvGPIO_IO_Level_TypeDef level)
  53:Drv/drv_gpio.c **** {
  54:Drv/drv_gpio.c ****     if (Obj->IO_Type != GPIO_Output)
  55:Drv/drv_gpio.c ****         return false;
  56:Drv/drv_gpio.c **** 
  57:Drv/drv_gpio.c ****     if (level == GPIO_LOW)
  58:Drv/drv_gpio.c ****     {
  59:Drv/drv_gpio.c ****         GPIO_Set_IO_LEVEL(Obj->Port, Obj->Pin, LO);
  60:Drv/drv_gpio.c ****     }
  61:Drv/drv_gpio.c ****     else
  62:Drv/drv_gpio.c ****         GPIO_Set_IO_LEVEL(Obj->Port, Obj->Pin, HI);
  63:Drv/drv_gpio.c **** }
  64:Drv/drv_gpio.c **** 
  65:Drv/drv_gpio.c **** static DrvGPIO_IO_Level_TypeDef DrvGPIO_Get(DrvGPIO_Obj_TypeDef *Obj)
  66:Drv/drv_gpio.c **** {
  48              		.loc 1 66 0
  49              		.cfi_startproc
  50              		@ args = 0, pretend = 0, frame = 0
  51              		@ frame_needed = 0, uses_anonymous_args = 0
ARM GAS  /tmp/ccj236Q1.s 			page 3


  52              	.LVL2:
  53 0000 08B5     		push	{r3, lr}
  54              	.LCFI0:
  55              		.cfi_def_cfa_offset 8
  56              		.cfi_offset 3, -8
  57              		.cfi_offset 14, -4
  67:Drv/drv_gpio.c ****     if (Obj->IO_Type != GPIO_Input)
  58              		.loc 1 67 0
  59 0002 037B     		ldrb	r3, [r0, #12]	@ zero_extendqisi2
  60 0004 012B     		cmp	r3, #1
  61 0006 01D0     		beq	.L7
  68:Drv/drv_gpio.c ****         return GPIO_ERR;
  62              		.loc 1 68 0
  63 0008 0020     		movs	r0, #0
  64              	.LVL3:
  65 000a 08BD     		pop	{r3, pc}
  66              	.LVL4:
  67              	.L7:
  69:Drv/drv_gpio.c **** 
  70:Drv/drv_gpio.c ****     if (GPIO_Get_IO_LEVEL(Obj->Port, Obj->Pin))
  68              		.loc 1 70 0
  69 000c 8188     		ldrh	r1, [r0, #4]
  70 000e 8068     		ldr	r0, [r0, #8]
  71              	.LVL5:
  72 0010 FFF7FEFF 		bl	GPIO_Get_IO_LEVEL
  73              	.LVL6:
  74 0014 08B1     		cbz	r0, .L5
  71:Drv/drv_gpio.c ****     {
  72:Drv/drv_gpio.c ****         return GPIO_HIGH;
  75              		.loc 1 72 0
  76 0016 0220     		movs	r0, #2
  77 0018 08BD     		pop	{r3, pc}
  78              	.L5:
  73:Drv/drv_gpio.c ****     }
  74:Drv/drv_gpio.c ****     else
  75:Drv/drv_gpio.c ****         return GPIO_LOW;
  79              		.loc 1 75 0
  80 001a 0120     		movs	r0, #1
  76:Drv/drv_gpio.c **** }
  81              		.loc 1 76 0
  82 001c 08BD     		pop	{r3, pc}
  83              		.cfi_endproc
  84              	.LFE126:
  86              		.section	.text.DrvGPIO_Control,"ax",%progbits
  87              		.align	1
  88              		.syntax unified
  89              		.thumb
  90              		.thumb_func
  91              		.fpu fpv4-sp-d16
  93              	DrvGPIO_Control:
  94              	.LFB125:
  53:Drv/drv_gpio.c ****     if (Obj->IO_Type != GPIO_Output)
  95              		.loc 1 53 0
  96              		.cfi_startproc
  97              		@ args = 0, pretend = 0, frame = 0
  98              		@ frame_needed = 0, uses_anonymous_args = 0
  99              	.LVL7:
ARM GAS  /tmp/ccj236Q1.s 			page 4


 100 0000 08B5     		push	{r3, lr}
 101              	.LCFI1:
 102              		.cfi_def_cfa_offset 8
 103              		.cfi_offset 3, -8
 104              		.cfi_offset 14, -4
  54:Drv/drv_gpio.c ****         return false;
 105              		.loc 1 54 0
 106 0002 037B     		ldrb	r3, [r0, #12]	@ zero_extendqisi2
 107 0004 0BB1     		cbz	r3, .L9
  55:Drv/drv_gpio.c **** 
 108              		.loc 1 55 0
 109 0006 0020     		movs	r0, #0
 110              	.LVL8:
 111 0008 08BD     		pop	{r3, pc}
 112              	.LVL9:
 113              	.L9:
  57:Drv/drv_gpio.c ****     {
 114              		.loc 1 57 0
 115 000a 0129     		cmp	r1, #1
 116 000c 05D0     		beq	.L13
  62:Drv/drv_gpio.c **** }
 117              		.loc 1 62 0
 118 000e 0022     		movs	r2, #0
 119 0010 8188     		ldrh	r1, [r0, #4]
 120              	.LVL10:
 121 0012 8068     		ldr	r0, [r0, #8]
 122              	.LVL11:
 123 0014 FFF7FEFF 		bl	GPIO_Set_IO_LEVEL
 124              	.LVL12:
 125              	.L11:
  63:Drv/drv_gpio.c **** 
 126              		.loc 1 63 0
 127 0018 08BD     		pop	{r3, pc}
 128              	.LVL13:
 129              	.L13:
  59:Drv/drv_gpio.c ****     }
 130              		.loc 1 59 0
 131 001a 0122     		movs	r2, #1
 132 001c 8188     		ldrh	r1, [r0, #4]
 133              	.LVL14:
 134 001e 8068     		ldr	r0, [r0, #8]
 135              	.LVL15:
 136 0020 FFF7FEFF 		bl	GPIO_Set_IO_LEVEL
 137              	.LVL16:
 138 0024 F8E7     		b	.L11
 139              		.cfi_endproc
 140              	.LFE125:
 142              		.section	.text.DrvGPIO_Open,"ax",%progbits
 143              		.align	1
 144              		.syntax unified
 145              		.thumb
 146              		.thumb_func
 147              		.fpu fpv4-sp-d16
 149              	DrvGPIO_Open:
 150              	.LFB123:
  20:Drv/drv_gpio.c ****     Obj->IO_Type = type;
 151              		.loc 1 20 0
ARM GAS  /tmp/ccj236Q1.s 			page 5


 152              		.cfi_startproc
 153              		@ args = 0, pretend = 0, frame = 0
 154              		@ frame_needed = 0, uses_anonymous_args = 0
 155              	.LVL17:
 156 0000 10B5     		push	{r4, lr}
 157              	.LCFI2:
 158              		.cfi_def_cfa_offset 8
 159              		.cfi_offset 4, -8
 160              		.cfi_offset 14, -4
 161 0002 82B0     		sub	sp, sp, #8
 162              	.LCFI3:
 163              		.cfi_def_cfa_offset 16
  21:Drv/drv_gpio.c **** 
 164              		.loc 1 21 0
 165 0004 0173     		strb	r1, [r0, #12]
  23:Drv/drv_gpio.c ****     {
 166              		.loc 1 23 0
 167 0006 0129     		cmp	r1, #1
 168 0008 0AD0     		beq	.L16
 169 000a 19B1     		cbz	r1, .L17
 170 000c 0229     		cmp	r1, #2
 171 000e 0DD0     		beq	.L18
 172              	.LVL18:
 173              	.L15:
  45:Drv/drv_gpio.c **** 
 174              		.loc 1 45 0
 175 0010 02B0     		add	sp, sp, #8
 176              	.LCFI4:
 177              		.cfi_remember_state
 178              		.cfi_def_cfa_offset 8
 179              		@ sp needed
 180 0012 10BD     		pop	{r4, pc}
 181              	.LVL19:
 182              	.L17:
 183              	.LCFI5:
 184              		.cfi_restore_state
  26:Drv/drv_gpio.c ****         break;
 185              		.loc 1 26 0
 186 0014 8268     		ldr	r2, [r0, #8]
 187              	.LVL20:
 188 0016 8188     		ldrh	r1, [r0, #4]
 189              	.LVL21:
 190 0018 0068     		ldr	r0, [r0]
 191              	.LVL22:
 192 001a FFF7FEFF 		bl	GPIO_IO_Output_Init
 193              	.LVL23:
  27:Drv/drv_gpio.c **** 
 194              		.loc 1 27 0
 195 001e F7E7     		b	.L15
 196              	.LVL24:
 197              	.L16:
  30:Drv/drv_gpio.c ****         break;
 198              		.loc 1 30 0
 199 0020 8268     		ldr	r2, [r0, #8]
 200              	.LVL25:
 201 0022 8188     		ldrh	r1, [r0, #4]
 202              	.LVL26:
ARM GAS  /tmp/ccj236Q1.s 			page 6


 203 0024 0068     		ldr	r0, [r0]
 204              	.LVL27:
 205 0026 FFF7FEFF 		bl	GPIO_IO_Input_Init
 206              	.LVL28:
  31:Drv/drv_gpio.c **** 
 207              		.loc 1 31 0
 208 002a F1E7     		b	.L15
 209              	.LVL29:
 210              	.L18:
  34:Drv/drv_gpio.c ****         break;
 211              		.loc 1 34 0
 212 002c 8468     		ldr	r4, [r0, #8]
 213 002e 8379     		ldrb	r3, [r0, #6]	@ zero_extendqisi2
 214 0030 8288     		ldrh	r2, [r0, #4]
 215              	.LVL30:
 216 0032 0168     		ldr	r1, [r0]
 217              	.LVL31:
 218 0034 407B     		ldrb	r0, [r0, #13]	@ zero_extendqisi2
 219              	.LVL32:
 220 0036 0090     		str	r0, [sp]
 221              	.LVL33:
 222 0038 2046     		mov	r0, r4
 223 003a FFF7FEFF 		bl	GPIO_IO_Encoder_Init
 224              	.LVL34:
  35:Drv/drv_gpio.c **** 
 225              		.loc 1 35 0
 226 003e E7E7     		b	.L15
 227              		.cfi_endproc
 228              	.LFE123:
 230              		.global	DrvGPIO
 231              		.section	.data.DrvGPIO,"aw",%progbits
 232              		.align	2
 235              	DrvGPIO:
 236 0000 00000000 		.word	DrvGPIO_Open
 237 0004 00000000 		.word	DrvGPIO_Close
 238 0008 00000000 		.word	DrvGPIO_Control
 239 000c 00000000 		.word	DrvGPIO_Get
 240              		.text
 241              	.Letext0:
 242              		.file 2 "/usr/include/newlib/machine/_default_types.h"
 243              		.file 3 "/usr/include/newlib/sys/_stdint.h"
 244              		.file 4 "F4_CORE/core_cm4.h"
 245              		.file 5 "USER/system_stm32f4xx.h"
 246              		.file 6 "Bsp/periph_gpio.h"
 247              		.file 7 "Drv/drv_gpio.h"
ARM GAS  /tmp/ccj236Q1.s 			page 7

