ARM GAS  /var/folders/lx/hc4sn_b53233_zkc9xbbl97r0000gp/T//ccb730FU.s 			page 1


   1              		.cpu cortex-m4
   2              		.eabi_attribute 27, 1
   3              		.eabi_attribute 28, 1
   4              		.eabi_attribute 20, 1
   5              		.eabi_attribute 21, 1
   6              		.eabi_attribute 23, 3
   7              		.eabi_attribute 24, 1
   8              		.eabi_attribute 25, 1
   9              		.eabi_attribute 26, 1
  10              		.eabi_attribute 30, 1
  11              		.eabi_attribute 34, 1
  12              		.eabi_attribute 18, 4
  13              		.file	"drv_serial.c"
  14              		.text
  15              	.Ltext0:
  16              		.cfi_sections	.debug_frame
  17              		.section	.text.DrvSerial_Write,"ax",%progbits
  18              		.align	1
  19              		.arch armv7e-m
  20              		.syntax unified
  21              		.thumb
  22              		.thumb_func
  23              		.fpu fpv4-sp-d16
  25              	DrvSerial_Write:
  26              	.LVL0:
  27              	.LFB127:
  28              		.file 1 "Drv/drv_serial.c"
   1:Drv/drv_serial.c **** #include "drv_serial.h"
   2:Drv/drv_serial.c **** #include "vcp.h"
   3:Drv/drv_serial.c **** 
   4:Drv/drv_serial.c **** #define Serial_Default_Baudrate Serial_115200
   5:Drv/drv_serial.c **** 
   6:Drv/drv_serial.c **** /* internal virable */
   7:Drv/drv_serial.c **** static uint8_t Serial_TX_Buff[DrvSerial_Sum][SERIAL_MAX_RECLEN];
   8:Drv/drv_serial.c **** static uint8_t Serial_RX_Buff[DrvSerial_Sum][SERIAL_MAX_RECLEN];
   9:Drv/drv_serial.c **** static DrvSerial_SrcInfo_TypeDef DrvSerial_SrcInfo[DrvSerial_Sum] = {
  10:Drv/drv_serial.c ****     {.inuse = false},
  11:Drv/drv_serial.c ****     {.inuse = false},
  12:Drv/drv_serial.c ****     {.inuse = false},
  13:Drv/drv_serial.c ****     {.inuse = false},
  14:Drv/drv_serial.c **** };
  15:Drv/drv_serial.c **** 
  16:Drv/drv_serial.c **** /* internal function */
  17:Drv/drv_serial.c **** 
  18:Drv/drv_serial.c **** /* external function */
  19:Drv/drv_serial.c **** static bool
  20:Drv/drv_serial.c **** DrvSerial_Ctl(DrvSerial_Port_List portx, DrvSerial_CMD_List cmd, uint32_t data, uint8_t len);
  21:Drv/drv_serial.c **** static void DrvSerial_Write(DrvSerial_Port_List portx, uint8_t *data, uint16_t len, DrvSerial_SendM
  22:Drv/drv_serial.c **** 
  23:Drv/drv_serial.c **** /* external virable */
  24:Drv/drv_serial.c **** DrvSerial_GenProcFunc_TypeDef DrvSerial = {
  25:Drv/drv_serial.c ****     .ctl = DrvSerial_Ctl,
  26:Drv/drv_serial.c ****     .read = NULL,
  27:Drv/drv_serial.c ****     .write = DrvSerial_Write,
  28:Drv/drv_serial.c **** };
  29:Drv/drv_serial.c **** 
  30:Drv/drv_serial.c **** static bool DrvSerial_Ctl(DrvSerial_Port_List portx, DrvSerial_CMD_List cmd, uint32_t data, uint8_t
ARM GAS  /var/folders/lx/hc4sn_b53233_zkc9xbbl97r0000gp/T//ccb730FU.s 			page 2


  31:Drv/drv_serial.c **** {
  32:Drv/drv_serial.c ****     switch ((uint8_t)cmd)
  33:Drv/drv_serial.c ****     {
  34:Drv/drv_serial.c ****     case DrvSerial_Open:
  35:Drv/drv_serial.c ****         if ((len != sizeof(DrvSerial_Config_Typedef)) || (DrvSerial_SrcInfo[portx].inuse))
  36:Drv/drv_serial.c ****             return;
  37:Drv/drv_serial.c **** 
  38:Drv/drv_serial.c ****         if (portx != DrvSerial_Vcp)
  39:Drv/drv_serial.c ****         {
  40:Drv/drv_serial.c ****             switch ((uint8_t)(((DrvSerial_Config_Typedef *)data)->mode))
  41:Drv/drv_serial.c ****             {
  42:Drv/drv_serial.c ****             case DrvSerial_MODE_Normal:
  43:Drv/drv_serial.c ****                 Serial_IRQ_RX_Init(portx, ((DrvSerial_Config_Typedef *)data)->baudrate,
  44:Drv/drv_serial.c ****                                    ((DrvSerial_Config_Typedef *)data)->PreemptionPriority,
  45:Drv/drv_serial.c ****                                    ((DrvSerial_Config_Typedef *)data)->SubPriority, Serial_Normal);
  46:Drv/drv_serial.c **** 
  47:Drv/drv_serial.c ****                 Serial_Set_IRQ_Callback(portx, ((DrvSerial_Config_Typedef *)data)->Irq_Callback);
  48:Drv/drv_serial.c ****                 break;
  49:Drv/drv_serial.c **** 
  50:Drv/drv_serial.c ****             case DrvSerial_MODE_DMA_Rx:
  51:Drv/drv_serial.c ****                 Serial_DMA_RX_Init(portx, ((DrvSerial_Config_Typedef *)data)->baudrate, ((DrvSerial
  52:Drv/drv_serial.c ****                                    ((DrvSerial_Config_Typedef *)data)->SubPriority,
  53:Drv/drv_serial.c ****                                    (uint32_t)&Serial_RX_Buff[portx],
  54:Drv/drv_serial.c ****                                    SERIAL_MAX_RECLEN, Serial_Normal);
  55:Drv/drv_serial.c **** 
  56:Drv/drv_serial.c ****                 Serial_Set_IRQ_Callback(portx, ((DrvSerial_Config_Typedef *)data)->Irq_Callback);
  57:Drv/drv_serial.c ****                 break;
  58:Drv/drv_serial.c **** 
  59:Drv/drv_serial.c ****             case DrvSerial_MODE_DMA_TxRx:
  60:Drv/drv_serial.c ****                 Serial_DMA_RXTX_Init(portx, ((DrvSerial_Config_Typedef *)data)->baudrate,
  61:Drv/drv_serial.c ****                                      ((DrvSerial_Config_Typedef *)data)->PreemptionPriority,
  62:Drv/drv_serial.c ****                                      ((DrvSerial_Config_Typedef *)data)->SubPriority,
  63:Drv/drv_serial.c ****                                      (uint32_t)&Serial_RX_Buff[portx],
  64:Drv/drv_serial.c ****                                      (uint32_t)&Serial_TX_Buff[portx],
  65:Drv/drv_serial.c ****                                      SERIAL_MAX_RECLEN, Serial_Normal);
  66:Drv/drv_serial.c **** 
  67:Drv/drv_serial.c ****                 Serial_Set_IRQ_Callback(portx, ((DrvSerial_Config_Typedef *)data)->Irq_Callback);
  68:Drv/drv_serial.c ****                 Serial_Set_DMAIRQ_Callback(portx, ((DrvSerial_Config_Typedef *)data)->DmaIrq_Callba
  69:Drv/drv_serial.c ****                 break;
  70:Drv/drv_serial.c **** 
  71:Drv/drv_serial.c ****             default:
  72:Drv/drv_serial.c ****                 return false;
  73:Drv/drv_serial.c ****             }
  74:Drv/drv_serial.c ****         }
  75:Drv/drv_serial.c ****         else
  76:Drv/drv_serial.c ****         {
  77:Drv/drv_serial.c ****             VCP_Init();
  78:Drv/drv_serial.c ****         }
  79:Drv/drv_serial.c **** 
  80:Drv/drv_serial.c ****         DrvSerial_SrcInfo[portx].inuse = true;
  81:Drv/drv_serial.c ****         DrvSerial_SrcInfo[portx].cfg = *((DrvSerial_Config_Typedef *)data);
  82:Drv/drv_serial.c ****         break;
  83:Drv/drv_serial.c **** 
  84:Drv/drv_serial.c ****     case DrvSerial_Close:
  85:Drv/drv_serial.c ****         Serial_Deinit(portx);
  86:Drv/drv_serial.c ****         Serial_Set_IRQ_Callback(portx, NULL);
  87:Drv/drv_serial.c ****         ((DrvSerial_Config_Typedef *)data)->mode = DrvSerial_MODE_None;
ARM GAS  /var/folders/lx/hc4sn_b53233_zkc9xbbl97r0000gp/T//ccb730FU.s 			page 3


  88:Drv/drv_serial.c ****         ((DrvSerial_Config_Typedef *)data)->PreemptionPriority = 0;
  89:Drv/drv_serial.c ****         ((DrvSerial_Config_Typedef *)data)->SubPriority = 0;
  90:Drv/drv_serial.c ****         ((DrvSerial_Config_Typedef *)data)->baudrate = 0;
  91:Drv/drv_serial.c ****         ((DrvSerial_Config_Typedef *)data)->DmaIrq_Callback = NULL;
  92:Drv/drv_serial.c ****         ((DrvSerial_Config_Typedef *)data)->Irq_Callback = NULL;
  93:Drv/drv_serial.c **** 
  94:Drv/drv_serial.c ****         DrvSerial_SrcInfo[portx].inuse = false;
  95:Drv/drv_serial.c ****         DrvSerial_SrcInfo[portx].cfg = *((DrvSerial_Config_Typedef *)data);
  96:Drv/drv_serial.c ****         break;
  97:Drv/drv_serial.c **** 
  98:Drv/drv_serial.c ****     case DrvSerial_Set_RxIRQCallback:
  99:Drv/drv_serial.c ****         Serial_Set_IRQ_Callback(portx, (Serial_IRQ_Callback)data);
 100:Drv/drv_serial.c ****         break;
 101:Drv/drv_serial.c **** 
 102:Drv/drv_serial.c ****     default:
 103:Drv/drv_serial.c ****         return false;
 104:Drv/drv_serial.c ****     }
 105:Drv/drv_serial.c **** 
 106:Drv/drv_serial.c ****     return true;
 107:Drv/drv_serial.c **** }
 108:Drv/drv_serial.c **** 
 109:Drv/drv_serial.c **** static void DrvSerial_Write(DrvSerial_Port_List portx, uint8_t *data, uint16_t len, DrvSerial_SendM
 110:Drv/drv_serial.c **** {
  29              		.loc 1 110 1 view -0
  30              		.cfi_startproc
  31              		@ args = 0, pretend = 0, frame = 0
  32              		@ frame_needed = 0, uses_anonymous_args = 0
  33              		.loc 1 110 1 is_stmt 0 view .LVU1
  34 0000 38B5     		push	{r3, r4, r5, lr}
  35              	.LCFI0:
  36              		.cfi_def_cfa_offset 16
  37              		.cfi_offset 3, -16
  38              		.cfi_offset 4, -12
  39              		.cfi_offset 5, -8
  40              		.cfi_offset 14, -4
  41 0002 0546     		mov	r5, r0
  42 0004 1C46     		mov	r4, r3
 111:Drv/drv_serial.c ****     Serial_SendBuff(portx, data, len);
  43              		.loc 1 111 5 is_stmt 1 view .LVU2
  44 0006 FFF7FEFF 		bl	Serial_SendBuff
  45              	.LVL1:
 112:Drv/drv_serial.c **** 
 113:Drv/drv_serial.c ****     if (DrvSerial_Send_Async == mode)
  46              		.loc 1 113 5 view .LVU3
  47              		.loc 1 113 8 is_stmt 0 view .LVU4
  48 000a 04B1     		cbz	r4, .L4
  49              	.L1:
 114:Drv/drv_serial.c ****     {
 115:Drv/drv_serial.c ****         Serial_DMA_WaitFinish(portx);
 116:Drv/drv_serial.c ****     }
 117:Drv/drv_serial.c **** }
  50              		.loc 1 117 1 view .LVU5
  51 000c 38BD     		pop	{r3, r4, r5, pc}
  52              	.L4:
 115:Drv/drv_serial.c ****     }
  53              		.loc 1 115 9 is_stmt 1 view .LVU6
  54 000e 2846     		mov	r0, r5
ARM GAS  /var/folders/lx/hc4sn_b53233_zkc9xbbl97r0000gp/T//ccb730FU.s 			page 4


  55 0010 FFF7FEFF 		bl	Serial_DMA_WaitFinish
  56              	.LVL2:
  57              		.loc 1 117 1 is_stmt 0 view .LVU7
  58 0014 FAE7     		b	.L1
  59              		.cfi_endproc
  60              	.LFE127:
  62              		.section	.text.DrvSerial_Ctl,"ax",%progbits
  63              		.align	1
  64              		.syntax unified
  65              		.thumb
  66              		.thumb_func
  67              		.fpu fpv4-sp-d16
  69              	DrvSerial_Ctl:
  70              	.LVL3:
  71              	.LFB126:
  31:Drv/drv_serial.c ****     switch ((uint8_t)cmd)
  72              		.loc 1 31 1 is_stmt 1 view -0
  73              		.cfi_startproc
  74              		@ args = 0, pretend = 0, frame = 0
  75              		@ frame_needed = 0, uses_anonymous_args = 0
  31:Drv/drv_serial.c ****     switch ((uint8_t)cmd)
  76              		.loc 1 31 1 is_stmt 0 view .LVU9
  77 0000 70B5     		push	{r4, r5, r6, lr}
  78              	.LCFI1:
  79              		.cfi_def_cfa_offset 16
  80              		.cfi_offset 4, -16
  81              		.cfi_offset 5, -12
  82              		.cfi_offset 6, -8
  83              		.cfi_offset 14, -4
  84 0002 84B0     		sub	sp, sp, #16
  85              	.LCFI2:
  86              		.cfi_def_cfa_offset 32
  87 0004 0546     		mov	r5, r0
  88 0006 1446     		mov	r4, r2
  32:Drv/drv_serial.c ****     {
  89              		.loc 1 32 5 is_stmt 1 view .LVU10
  90 0008 0129     		cmp	r1, #1
  91 000a 67D0     		beq	.L6
  92 000c 0229     		cmp	r1, #2
  93 000e 00F08380 		beq	.L7
  94 0012 11B1     		cbz	r1, .L17
  95 0014 0020     		movs	r0, #0
  96              	.LVL4:
  97              	.L5:
 107:Drv/drv_serial.c **** 
  98              		.loc 1 107 1 is_stmt 0 view .LVU11
  99 0016 04B0     		add	sp, sp, #16
 100              	.LCFI3:
 101              		.cfi_remember_state
 102              		.cfi_def_cfa_offset 16
 103              		@ sp needed
 104 0018 70BD     		pop	{r4, r5, r6, pc}
 105              	.LVL5:
 106              	.L17:
 107              	.LCFI4:
 108              		.cfi_restore_state
  35:Drv/drv_serial.c ****             return;
ARM GAS  /var/folders/lx/hc4sn_b53233_zkc9xbbl97r0000gp/T//ccb730FU.s 			page 5


 109              		.loc 1 35 9 is_stmt 1 view .LVU12
  35:Drv/drv_serial.c ****             return;
 110              		.loc 1 35 12 is_stmt 0 view .LVU13
 111 001a 142B     		cmp	r3, #20
 112 001c FBD1     		bne	.L5
  35:Drv/drv_serial.c ****             return;
 113              		.loc 1 35 83 discriminator 1 view .LVU14
 114 001e 00EB4003 		add	r3, r0, r0, lsl #1
 115              	.LVL6:
  35:Drv/drv_serial.c ****             return;
 116              		.loc 1 35 83 discriminator 1 view .LVU15
 117 0022 404A     		ldr	r2, .L18
 118              	.LVL7:
  35:Drv/drv_serial.c ****             return;
 119              		.loc 1 35 83 discriminator 1 view .LVU16
 120 0024 12F83300 		ldrb	r0, [r2, r3, lsl #3]	@ zero_extendqisi2
 121              	.LVL8:
  35:Drv/drv_serial.c ****             return;
 122              		.loc 1 35 55 discriminator 1 view .LVU17
 123 0028 0028     		cmp	r0, #0
 124 002a F4D1     		bne	.L5
  38:Drv/drv_serial.c ****         {
 125              		.loc 1 38 9 is_stmt 1 view .LVU18
  38:Drv/drv_serial.c ****         {
 126              		.loc 1 38 12 is_stmt 0 view .LVU19
 127 002c 042D     		cmp	r5, #4
 128 002e 43D0     		beq	.L11
  40:Drv/drv_serial.c ****             {
 129              		.loc 1 40 13 is_stmt 1 view .LVU20
  40:Drv/drv_serial.c ****             {
 130              		.loc 1 40 65 is_stmt 0 view .LVU21
 131 0030 A379     		ldrb	r3, [r4, #6]	@ zero_extendqisi2
 132 0032 012B     		cmp	r3, #1
 133 0034 10D0     		beq	.L12
 134 0036 022B     		cmp	r3, #2
 135 0038 22D0     		beq	.L13
 136 003a 002B     		cmp	r3, #0
 137 003c EBD1     		bne	.L5
  43:Drv/drv_serial.c ****                                    ((DrvSerial_Config_Typedef *)data)->PreemptionPriority,
 138              		.loc 1 43 17 is_stmt 1 view .LVU22
 139 003e 6379     		ldrb	r3, [r4, #5]	@ zero_extendqisi2
 140 0040 2279     		ldrb	r2, [r4, #4]	@ zero_extendqisi2
 141 0042 0021     		movs	r1, #0
 142              	.LVL9:
  43:Drv/drv_serial.c ****                                    ((DrvSerial_Config_Typedef *)data)->PreemptionPriority,
 143              		.loc 1 43 17 is_stmt 0 view .LVU23
 144 0044 0091     		str	r1, [sp]
 145 0046 2168     		ldr	r1, [r4]
 146 0048 2846     		mov	r0, r5
 147 004a FFF7FEFF 		bl	Serial_IRQ_RX_Init
 148              	.LVL10:
  47:Drv/drv_serial.c ****                 break;
 149              		.loc 1 47 17 is_stmt 1 view .LVU24
 150 004e A168     		ldr	r1, [r4, #8]
 151 0050 2846     		mov	r0, r5
 152 0052 FFF7FEFF 		bl	Serial_Set_IRQ_Callback
 153              	.LVL11:
ARM GAS  /var/folders/lx/hc4sn_b53233_zkc9xbbl97r0000gp/T//ccb730FU.s 			page 6


  48:Drv/drv_serial.c **** 
 154              		.loc 1 48 17 view .LVU25
 155 0056 31E0     		b	.L14
 156              	.LVL12:
 157              	.L12:
  51:Drv/drv_serial.c ****                                    ((DrvSerial_Config_Typedef *)data)->SubPriority,
 158              		.loc 1 51 17 view .LVU26
  53:Drv/drv_serial.c ****                                    SERIAL_MAX_RECLEN, Serial_Normal);
 159              		.loc 1 53 46 is_stmt 0 view .LVU27
 160 0058 3349     		ldr	r1, .L18+4
 161              	.LVL13:
  53:Drv/drv_serial.c ****                                    SERIAL_MAX_RECLEN, Serial_Normal);
 162              		.loc 1 53 46 view .LVU28
 163 005a 01EB8521 		add	r1, r1, r5, lsl #10
  51:Drv/drv_serial.c ****                                    ((DrvSerial_Config_Typedef *)data)->SubPriority,
 164              		.loc 1 51 17 view .LVU29
 165 005e 6379     		ldrb	r3, [r4, #5]	@ zero_extendqisi2
 166 0060 2279     		ldrb	r2, [r4, #4]	@ zero_extendqisi2
 167 0062 0020     		movs	r0, #0
 168 0064 0290     		str	r0, [sp, #8]
 169 0066 4FF48060 		mov	r0, #1024
 170 006a 0190     		str	r0, [sp, #4]
 171 006c 0091     		str	r1, [sp]
 172 006e 2168     		ldr	r1, [r4]
 173 0070 2846     		mov	r0, r5
 174 0072 FFF7FEFF 		bl	Serial_DMA_RX_Init
 175              	.LVL14:
  56:Drv/drv_serial.c ****                 break;
 176              		.loc 1 56 17 is_stmt 1 view .LVU30
 177 0076 A168     		ldr	r1, [r4, #8]
 178 0078 2846     		mov	r0, r5
 179 007a FFF7FEFF 		bl	Serial_Set_IRQ_Callback
 180              	.LVL15:
  57:Drv/drv_serial.c **** 
 181              		.loc 1 57 17 view .LVU31
 182 007e 1DE0     		b	.L14
 183              	.LVL16:
 184              	.L13:
  60:Drv/drv_serial.c ****                                      ((DrvSerial_Config_Typedef *)data)->PreemptionPriority,
 185              		.loc 1 60 17 view .LVU32
  63:Drv/drv_serial.c ****                                      (uint32_t)&Serial_TX_Buff[portx],
 186              		.loc 1 63 48 is_stmt 0 view .LVU33
 187 0080 2949     		ldr	r1, .L18+4
 188              	.LVL17:
  63:Drv/drv_serial.c ****                                      (uint32_t)&Serial_TX_Buff[portx],
 189              		.loc 1 63 48 view .LVU34
 190 0082 01EB8521 		add	r1, r1, r5, lsl #10
  64:Drv/drv_serial.c ****                                      SERIAL_MAX_RECLEN, Serial_Normal);
 191              		.loc 1 64 48 view .LVU35
 192 0086 2948     		ldr	r0, .L18+8
 193 0088 00EB8520 		add	r0, r0, r5, lsl #10
  60:Drv/drv_serial.c ****                                      ((DrvSerial_Config_Typedef *)data)->PreemptionPriority,
 194              		.loc 1 60 17 view .LVU36
 195 008c 6379     		ldrb	r3, [r4, #5]	@ zero_extendqisi2
 196 008e 2279     		ldrb	r2, [r4, #4]	@ zero_extendqisi2
 197 0090 0026     		movs	r6, #0
 198 0092 0396     		str	r6, [sp, #12]
ARM GAS  /var/folders/lx/hc4sn_b53233_zkc9xbbl97r0000gp/T//ccb730FU.s 			page 7


 199 0094 4FF48066 		mov	r6, #1024
 200 0098 0296     		str	r6, [sp, #8]
 201 009a 0190     		str	r0, [sp, #4]
 202 009c 0091     		str	r1, [sp]
 203 009e 2168     		ldr	r1, [r4]
 204 00a0 2846     		mov	r0, r5
 205 00a2 FFF7FEFF 		bl	Serial_DMA_RXTX_Init
 206              	.LVL18:
  67:Drv/drv_serial.c ****                 Serial_Set_DMAIRQ_Callback(portx, ((DrvSerial_Config_Typedef *)data)->DmaIrq_Callba
 207              		.loc 1 67 17 is_stmt 1 view .LVU37
 208 00a6 A168     		ldr	r1, [r4, #8]
 209 00a8 2846     		mov	r0, r5
 210 00aa FFF7FEFF 		bl	Serial_Set_IRQ_Callback
 211              	.LVL19:
  68:Drv/drv_serial.c ****                 break;
 212              		.loc 1 68 17 view .LVU38
 213 00ae E168     		ldr	r1, [r4, #12]
 214 00b0 2846     		mov	r0, r5
 215 00b2 FFF7FEFF 		bl	Serial_Set_DMAIRQ_Callback
 216              	.LVL20:
  69:Drv/drv_serial.c **** 
 217              		.loc 1 69 17 view .LVU39
 218 00b6 01E0     		b	.L14
 219              	.LVL21:
 220              	.L11:
  77:Drv/drv_serial.c ****         }
 221              		.loc 1 77 13 view .LVU40
 222 00b8 FFF7FEFF 		bl	VCP_Init
 223              	.LVL22:
 224              	.L14:
  80:Drv/drv_serial.c ****         DrvSerial_SrcInfo[portx].cfg = *((DrvSerial_Config_Typedef *)data);
 225              		.loc 1 80 9 view .LVU41
  80:Drv/drv_serial.c ****         DrvSerial_SrcInfo[portx].cfg = *((DrvSerial_Config_Typedef *)data);
 226              		.loc 1 80 40 is_stmt 0 view .LVU42
 227 00bc 194B     		ldr	r3, .L18
 228 00be 05EB4502 		add	r2, r5, r5, lsl #1
 229 00c2 4FF0010C 		mov	ip, #1
 230 00c6 03F832C0 		strb	ip, [r3, r2, lsl #3]
  81:Drv/drv_serial.c ****         break;
 231              		.loc 1 81 9 is_stmt 1 view .LVU43
  81:Drv/drv_serial.c ****         break;
 232              		.loc 1 81 38 is_stmt 0 view .LVU44
 233 00ca 03EBC205 		add	r5, r3, r2, lsl #3
 234 00ce 0435     		adds	r5, r5, #4
 235 00d0 0FCC     		ldmia	r4!, {r0, r1, r2, r3}
 236              	.LVL23:
  81:Drv/drv_serial.c ****         break;
 237              		.loc 1 81 38 view .LVU45
 238 00d2 0FC5     		stmia	r5!, {r0, r1, r2, r3}
 239 00d4 2368     		ldr	r3, [r4]
 240 00d6 2B60     		str	r3, [r5]
  82:Drv/drv_serial.c **** 
 241              		.loc 1 82 9 is_stmt 1 view .LVU46
 106:Drv/drv_serial.c **** }
 242              		.loc 1 106 12 is_stmt 0 view .LVU47
 243 00d8 6046     		mov	r0, ip
  82:Drv/drv_serial.c **** 
ARM GAS  /var/folders/lx/hc4sn_b53233_zkc9xbbl97r0000gp/T//ccb730FU.s 			page 8


 244              		.loc 1 82 9 view .LVU48
 245 00da 9CE7     		b	.L5
 246              	.LVL24:
 247              	.L6:
  85:Drv/drv_serial.c ****         Serial_Set_IRQ_Callback(portx, NULL);
 248              		.loc 1 85 9 is_stmt 1 view .LVU49
 249 00dc FFF7FEFF 		bl	Serial_Deinit
 250              	.LVL25:
  86:Drv/drv_serial.c ****         ((DrvSerial_Config_Typedef *)data)->mode = DrvSerial_MODE_None;
 251              		.loc 1 86 9 view .LVU50
 252 00e0 0021     		movs	r1, #0
 253 00e2 2846     		mov	r0, r5
 254 00e4 FFF7FEFF 		bl	Serial_Set_IRQ_Callback
 255              	.LVL26:
  87:Drv/drv_serial.c ****         ((DrvSerial_Config_Typedef *)data)->PreemptionPriority = 0;
 256              		.loc 1 87 9 view .LVU51
  87:Drv/drv_serial.c ****         ((DrvSerial_Config_Typedef *)data)->PreemptionPriority = 0;
 257              		.loc 1 87 50 is_stmt 0 view .LVU52
 258 00e8 0323     		movs	r3, #3
 259 00ea A371     		strb	r3, [r4, #6]
  88:Drv/drv_serial.c ****         ((DrvSerial_Config_Typedef *)data)->SubPriority = 0;
 260              		.loc 1 88 9 is_stmt 1 view .LVU53
  88:Drv/drv_serial.c ****         ((DrvSerial_Config_Typedef *)data)->SubPriority = 0;
 261              		.loc 1 88 64 is_stmt 0 view .LVU54
 262 00ec 0022     		movs	r2, #0
 263 00ee 2271     		strb	r2, [r4, #4]
  89:Drv/drv_serial.c ****         ((DrvSerial_Config_Typedef *)data)->baudrate = 0;
 264              		.loc 1 89 9 is_stmt 1 view .LVU55
  89:Drv/drv_serial.c ****         ((DrvSerial_Config_Typedef *)data)->baudrate = 0;
 265              		.loc 1 89 57 is_stmt 0 view .LVU56
 266 00f0 6271     		strb	r2, [r4, #5]
  90:Drv/drv_serial.c ****         ((DrvSerial_Config_Typedef *)data)->DmaIrq_Callback = NULL;
 267              		.loc 1 90 9 is_stmt 1 view .LVU57
  90:Drv/drv_serial.c ****         ((DrvSerial_Config_Typedef *)data)->DmaIrq_Callback = NULL;
 268              		.loc 1 90 54 is_stmt 0 view .LVU58
 269 00f2 2260     		str	r2, [r4]
  91:Drv/drv_serial.c ****         ((DrvSerial_Config_Typedef *)data)->Irq_Callback = NULL;
 270              		.loc 1 91 9 is_stmt 1 view .LVU59
  91:Drv/drv_serial.c ****         ((DrvSerial_Config_Typedef *)data)->Irq_Callback = NULL;
 271              		.loc 1 91 61 is_stmt 0 view .LVU60
 272 00f4 E260     		str	r2, [r4, #12]
  92:Drv/drv_serial.c **** 
 273              		.loc 1 92 9 is_stmt 1 view .LVU61
  92:Drv/drv_serial.c **** 
 274              		.loc 1 92 58 is_stmt 0 view .LVU62
 275 00f6 A260     		str	r2, [r4, #8]
  94:Drv/drv_serial.c ****         DrvSerial_SrcInfo[portx].cfg = *((DrvSerial_Config_Typedef *)data);
 276              		.loc 1 94 9 is_stmt 1 view .LVU63
  94:Drv/drv_serial.c ****         DrvSerial_SrcInfo[portx].cfg = *((DrvSerial_Config_Typedef *)data);
 277              		.loc 1 94 40 is_stmt 0 view .LVU64
 278 00f8 0A4B     		ldr	r3, .L18
 279 00fa 05EB4501 		add	r1, r5, r5, lsl #1
 280 00fe C900     		lsls	r1, r1, #3
 281 0100 5A54     		strb	r2, [r3, r1]
  95:Drv/drv_serial.c ****         break;
 282              		.loc 1 95 9 is_stmt 1 view .LVU65
  95:Drv/drv_serial.c ****         break;
ARM GAS  /var/folders/lx/hc4sn_b53233_zkc9xbbl97r0000gp/T//ccb730FU.s 			page 9


 283              		.loc 1 95 38 is_stmt 0 view .LVU66
 284 0102 05EB4505 		add	r5, r5, r5, lsl #1
 285 0106 03EBC505 		add	r5, r3, r5, lsl #3
 286 010a 0435     		adds	r5, r5, #4
 287 010c 0FCC     		ldmia	r4!, {r0, r1, r2, r3}
 288              	.LVL27:
  95:Drv/drv_serial.c ****         break;
 289              		.loc 1 95 38 view .LVU67
 290 010e 0FC5     		stmia	r5!, {r0, r1, r2, r3}
 291 0110 2368     		ldr	r3, [r4]
 292 0112 2B60     		str	r3, [r5]
  96:Drv/drv_serial.c **** 
 293              		.loc 1 96 9 is_stmt 1 view .LVU68
 106:Drv/drv_serial.c **** }
 294              		.loc 1 106 12 is_stmt 0 view .LVU69
 295 0114 0120     		movs	r0, #1
  96:Drv/drv_serial.c **** 
 296              		.loc 1 96 9 view .LVU70
 297 0116 7EE7     		b	.L5
 298              	.LVL28:
 299              	.L7:
  99:Drv/drv_serial.c ****         break;
 300              		.loc 1 99 9 is_stmt 1 view .LVU71
 301 0118 1146     		mov	r1, r2
 302              	.LVL29:
  99:Drv/drv_serial.c ****         break;
 303              		.loc 1 99 9 is_stmt 0 view .LVU72
 304 011a FFF7FEFF 		bl	Serial_Set_IRQ_Callback
 305              	.LVL30:
 100:Drv/drv_serial.c **** 
 306              		.loc 1 100 9 is_stmt 1 view .LVU73
 106:Drv/drv_serial.c **** }
 307              		.loc 1 106 12 is_stmt 0 view .LVU74
 308 011e 0120     		movs	r0, #1
 100:Drv/drv_serial.c **** 
 309              		.loc 1 100 9 view .LVU75
 310 0120 79E7     		b	.L5
 311              	.L19:
 312 0122 00BF     		.align	2
 313              	.L18:
 314 0124 00000000 		.word	.LANCHOR0
 315 0128 00000000 		.word	Serial_RX_Buff
 316 012c 00000000 		.word	Serial_TX_Buff
 317              		.cfi_endproc
 318              	.LFE126:
 320              		.global	DrvSerial
 321              		.section	.bss.DrvSerial_SrcInfo,"aw",%nobits
 322              		.align	2
 323              		.set	.LANCHOR0,. + 0
 326              	DrvSerial_SrcInfo:
 327 0000 00000000 		.space	120
 327      00000000 
 327      00000000 
 327      00000000 
 327      00000000 
 328              		.section	.bss.Serial_RX_Buff,"aw",%nobits
 329              		.align	2
ARM GAS  /var/folders/lx/hc4sn_b53233_zkc9xbbl97r0000gp/T//ccb730FU.s 			page 10


 332              	Serial_RX_Buff:
 333 0000 00000000 		.space	5120
 333      00000000 
 333      00000000 
 333      00000000 
 333      00000000 
 334              		.section	.bss.Serial_TX_Buff,"aw",%nobits
 335              		.align	2
 338              	Serial_TX_Buff:
 339 0000 00000000 		.space	5120
 339      00000000 
 339      00000000 
 339      00000000 
 339      00000000 
 340              		.section	.data.DrvSerial,"aw"
 341              		.align	2
 344              	DrvSerial:
 345 0000 00000000 		.word	DrvSerial_Ctl
 346 0004 00000000 		.word	0
 347 0008 00000000 		.word	DrvSerial_Write
 348              		.text
 349              	.Letext0:
 350              		.file 2 "/usr/local/arm-none-eabi-gcc/gcc-arm-none-eabi-10-2020-q4-major/arm-none-eabi/include/mac
 351              		.file 3 "/usr/local/arm-none-eabi-gcc/gcc-arm-none-eabi-10-2020-q4-major/arm-none-eabi/include/sys
 352              		.file 4 "Bsp/periph_dma.h"
 353              		.file 5 "Bsp/periph_serial.h"
 354              		.file 6 "Drv/drv_serial.h"
 355              		.file 7 "USB/config/vcp.h"
ARM GAS  /var/folders/lx/hc4sn_b53233_zkc9xbbl97r0000gp/T//ccb730FU.s 			page 11


DEFINED SYMBOLS
                            *ABS*:0000000000000000 drv_serial.c
/var/folders/lx/hc4sn_b53233_zkc9xbbl97r0000gp/T//ccb730FU.s:18     .text.DrvSerial_Write:0000000000000000 $t
/var/folders/lx/hc4sn_b53233_zkc9xbbl97r0000gp/T//ccb730FU.s:25     .text.DrvSerial_Write:0000000000000000 DrvSerial_Write
/var/folders/lx/hc4sn_b53233_zkc9xbbl97r0000gp/T//ccb730FU.s:63     .text.DrvSerial_Ctl:0000000000000000 $t
/var/folders/lx/hc4sn_b53233_zkc9xbbl97r0000gp/T//ccb730FU.s:69     .text.DrvSerial_Ctl:0000000000000000 DrvSerial_Ctl
/var/folders/lx/hc4sn_b53233_zkc9xbbl97r0000gp/T//ccb730FU.s:314    .text.DrvSerial_Ctl:0000000000000124 $d
/var/folders/lx/hc4sn_b53233_zkc9xbbl97r0000gp/T//ccb730FU.s:332    .bss.Serial_RX_Buff:0000000000000000 Serial_RX_Buff
/var/folders/lx/hc4sn_b53233_zkc9xbbl97r0000gp/T//ccb730FU.s:338    .bss.Serial_TX_Buff:0000000000000000 Serial_TX_Buff
/var/folders/lx/hc4sn_b53233_zkc9xbbl97r0000gp/T//ccb730FU.s:344    .data.DrvSerial:0000000000000000 DrvSerial
/var/folders/lx/hc4sn_b53233_zkc9xbbl97r0000gp/T//ccb730FU.s:322    .bss.DrvSerial_SrcInfo:0000000000000000 $d
/var/folders/lx/hc4sn_b53233_zkc9xbbl97r0000gp/T//ccb730FU.s:326    .bss.DrvSerial_SrcInfo:0000000000000000 DrvSerial_SrcInfo
/var/folders/lx/hc4sn_b53233_zkc9xbbl97r0000gp/T//ccb730FU.s:329    .bss.Serial_RX_Buff:0000000000000000 $d
/var/folders/lx/hc4sn_b53233_zkc9xbbl97r0000gp/T//ccb730FU.s:335    .bss.Serial_TX_Buff:0000000000000000 $d
/var/folders/lx/hc4sn_b53233_zkc9xbbl97r0000gp/T//ccb730FU.s:341    .data.DrvSerial:0000000000000000 $d

UNDEFINED SYMBOLS
Serial_SendBuff
Serial_DMA_WaitFinish
Serial_IRQ_RX_Init
Serial_Set_IRQ_Callback
Serial_DMA_RX_Init
Serial_DMA_RXTX_Init
Serial_Set_DMAIRQ_Callback
VCP_Init
Serial_Deinit
