ARM GAS  /var/folders/lx/hc4sn_b53233_zkc9xbbl97r0000gp/T//ccwgug3N.s 			page 1


   1              		.cpu cortex-m4
   2              		.eabi_attribute 27, 1
   3              		.eabi_attribute 28, 1
   4              		.eabi_attribute 20, 1
   5              		.eabi_attribute 21, 1
   6              		.eabi_attribute 23, 3
   7              		.eabi_attribute 24, 1
   8              		.eabi_attribute 25, 1
   9              		.eabi_attribute 26, 1
  10              		.eabi_attribute 30, 1
  11              		.eabi_attribute 34, 1
  12              		.eabi_attribute 18, 4
  13              		.file	"drv_adc.c"
  14              		.text
  15              	.Ltext0:
  16              		.cfi_sections	.debug_frame
  17              		.section	.text.DrvADC_Get,"ax",%progbits
  18              		.align	1
  19              		.arch armv7e-m
  20              		.syntax unified
  21              		.thumb
  22              		.thumb_func
  23              		.fpu fpv4-sp-d16
  25              	DrvADC_Get:
  26              	.LVL0:
  27              	.LFB124:
  28              		.file 1 "Drv/drv_adc.c"
   1:Drv/drv_adc.c **** #include "drv_adc.h"
   2:Drv/drv_adc.c **** #include "periph_adc.h"
   3:Drv/drv_adc.c **** #include "periph_gpio.h"
   4:Drv/drv_adc.c **** 
   5:Drv/drv_adc.c **** typedef struct
   6:Drv/drv_adc.c **** {
   7:Drv/drv_adc.c ****     bool InUse;
   8:Drv/drv_adc.c ****     uint8_t id;
   9:Drv/drv_adc.c **** } ADC_Channel_State;
  10:Drv/drv_adc.c **** 
  11:Drv/drv_adc.c **** /* internal variable */
  12:Drv/drv_adc.c **** static ADC_Channel_State Channel_State[ADC1_Channel_Sum] = {false};
  13:Drv/drv_adc.c **** static uint8_t InUse_ADC_Channel_cnt = 0;
  14:Drv/drv_adc.c **** 
  15:Drv/drv_adc.c **** /* external variable */
  16:Drv/drv_adc.c **** static uint16_t DrvADC_Get(ADC_Channel_List channel);
  17:Drv/drv_adc.c **** static bool DrvADC_Ctl(DrvADC_CMD_List cmd, uint8_t data);
  18:Drv/drv_adc.c **** 
  19:Drv/drv_adc.c **** /* driver object */
  20:Drv/drv_adc.c **** DrvADC_TypeDef DrvADC = {
  21:Drv/drv_adc.c ****     .ctl = DrvADC_Ctl,
  22:Drv/drv_adc.c ****     .read = DrvADC_Get,
  23:Drv/drv_adc.c **** };
  24:Drv/drv_adc.c **** 
  25:Drv/drv_adc.c **** static bool DrvADC_Open(ADC_Channel_List channel)
  26:Drv/drv_adc.c **** {
  27:Drv/drv_adc.c ****     if (channel >= ADC1_Channel_Sum)
  28:Drv/drv_adc.c ****         return false;
  29:Drv/drv_adc.c **** 
  30:Drv/drv_adc.c ****     if (!Channel_State[channel].InUse)
ARM GAS  /var/folders/lx/hc4sn_b53233_zkc9xbbl97r0000gp/T//ccwgug3N.s 			page 2


  31:Drv/drv_adc.c ****     {
  32:Drv/drv_adc.c ****         Channel_State[channel].InUse = true;
  33:Drv/drv_adc.c ****         Channel_State[channel].id = InUse_ADC_Channel_cnt;
  34:Drv/drv_adc.c **** 
  35:Drv/drv_adc.c ****         InUse_ADC_Channel_cnt++;
  36:Drv/drv_adc.c **** 
  37:Drv/drv_adc.c ****         Periph_ADC_IO_Init(channel);
  38:Drv/drv_adc.c ****         Periph_ADC_Init(channel);
  39:Drv/drv_adc.c **** 
  40:Drv/drv_adc.c ****         return true;
  41:Drv/drv_adc.c ****     }
  42:Drv/drv_adc.c **** 
  43:Drv/drv_adc.c ****     return false;
  44:Drv/drv_adc.c **** }
  45:Drv/drv_adc.c **** 
  46:Drv/drv_adc.c **** static uint16_t DrvADC_Get(ADC_Channel_List channel)
  47:Drv/drv_adc.c **** {
  29              		.loc 1 47 1 view -0
  30              		.cfi_startproc
  31              		@ args = 0, pretend = 0, frame = 0
  32              		@ frame_needed = 0, uses_anonymous_args = 0
  33              		.loc 1 47 1 is_stmt 0 view .LVU1
  34 0000 08B5     		push	{r3, lr}
  35              	.LCFI0:
  36              		.cfi_def_cfa_offset 8
  37              		.cfi_offset 3, -8
  38              		.cfi_offset 14, -4
  48:Drv/drv_adc.c ****     if (Channel_State[channel].InUse)
  39              		.loc 1 48 5 is_stmt 1 view .LVU2
  40              		.loc 1 48 31 is_stmt 0 view .LVU3
  41 0002 064B     		ldr	r3, .L6
  42 0004 13F81030 		ldrb	r3, [r3, r0, lsl #1]	@ zero_extendqisi2
  43              		.loc 1 48 8 view .LVU4
  44 0008 0BB9     		cbnz	r3, .L5
  49:Drv/drv_adc.c ****     {
  50:Drv/drv_adc.c ****         return Periph_ADC_GetValue(channel, Channel_State[channel].id);
  51:Drv/drv_adc.c ****     }
  52:Drv/drv_adc.c **** 
  53:Drv/drv_adc.c ****     return 0;
  45              		.loc 1 53 12 view .LVU5
  46 000a 0020     		movs	r0, #0
  47              	.LVL1:
  48              	.L2:
  54:Drv/drv_adc.c **** }
  49              		.loc 1 54 1 view .LVU6
  50 000c 08BD     		pop	{r3, pc}
  51              	.LVL2:
  52              	.L5:
  50:Drv/drv_adc.c ****     }
  53              		.loc 1 50 9 is_stmt 1 view .LVU7
  50:Drv/drv_adc.c ****     }
  54              		.loc 1 50 16 is_stmt 0 view .LVU8
  55 000e 034B     		ldr	r3, .L6
  56 0010 03EB4003 		add	r3, r3, r0, lsl #1
  57 0014 5978     		ldrb	r1, [r3, #1]	@ zero_extendqisi2
  58 0016 FFF7FEFF 		bl	Periph_ADC_GetValue
  59              	.LVL3:
ARM GAS  /var/folders/lx/hc4sn_b53233_zkc9xbbl97r0000gp/T//ccwgug3N.s 			page 3


  50:Drv/drv_adc.c ****     }
  60              		.loc 1 50 16 view .LVU9
  61 001a F7E7     		b	.L2
  62              	.L7:
  63              		.align	2
  64              	.L6:
  65 001c 00000000 		.word	.LANCHOR0
  66              		.cfi_endproc
  67              	.LFE124:
  69              		.section	.text.DrvADC_Open,"ax",%progbits
  70              		.align	1
  71              		.syntax unified
  72              		.thumb
  73              		.thumb_func
  74              		.fpu fpv4-sp-d16
  76              	DrvADC_Open:
  77              	.LVL4:
  78              	.LFB123:
  26:Drv/drv_adc.c ****     if (channel >= ADC1_Channel_Sum)
  79              		.loc 1 26 1 is_stmt 1 view -0
  80              		.cfi_startproc
  81              		@ args = 0, pretend = 0, frame = 0
  82              		@ frame_needed = 0, uses_anonymous_args = 0
  27:Drv/drv_adc.c ****         return false;
  83              		.loc 1 27 5 view .LVU11
  27:Drv/drv_adc.c ****         return false;
  84              		.loc 1 27 8 is_stmt 0 view .LVU12
  85 0000 0E28     		cmp	r0, #14
  86 0002 19D8     		bhi	.L10
  26:Drv/drv_adc.c ****     if (channel >= ADC1_Channel_Sum)
  87              		.loc 1 26 1 view .LVU13
  88 0004 38B5     		push	{r3, r4, r5, lr}
  89              	.LCFI1:
  90              		.cfi_def_cfa_offset 16
  91              		.cfi_offset 3, -16
  92              		.cfi_offset 4, -12
  93              		.cfi_offset 5, -8
  94              		.cfi_offset 14, -4
  95 0006 0446     		mov	r4, r0
  30:Drv/drv_adc.c ****     {
  96              		.loc 1 30 5 is_stmt 1 view .LVU14
  30:Drv/drv_adc.c ****     {
  97              		.loc 1 30 32 is_stmt 0 view .LVU15
  98 0008 0C4B     		ldr	r3, .L17
  99 000a 13F81030 		ldrb	r3, [r3, r0, lsl #1]	@ zero_extendqisi2
  30:Drv/drv_adc.c ****     {
 100              		.loc 1 30 8 view .LVU16
 101 000e 0BB1     		cbz	r3, .L16
  43:Drv/drv_adc.c **** }
 102              		.loc 1 43 12 view .LVU17
 103 0010 0020     		movs	r0, #0
 104              	.LVL5:
 105              	.L9:
  44:Drv/drv_adc.c **** 
 106              		.loc 1 44 1 view .LVU18
 107 0012 38BD     		pop	{r3, r4, r5, pc}
 108              	.LVL6:
ARM GAS  /var/folders/lx/hc4sn_b53233_zkc9xbbl97r0000gp/T//ccwgug3N.s 			page 4


 109              	.L16:
  32:Drv/drv_adc.c ****         Channel_State[channel].id = InUse_ADC_Channel_cnt;
 110              		.loc 1 32 9 is_stmt 1 view .LVU19
  32:Drv/drv_adc.c ****         Channel_State[channel].id = InUse_ADC_Channel_cnt;
 111              		.loc 1 32 38 is_stmt 0 view .LVU20
 112 0014 094A     		ldr	r2, .L17
 113 0016 0125     		movs	r5, #1
 114 0018 02F81050 		strb	r5, [r2, r0, lsl #1]
  33:Drv/drv_adc.c **** 
 115              		.loc 1 33 9 is_stmt 1 view .LVU21
  33:Drv/drv_adc.c **** 
 116              		.loc 1 33 35 is_stmt 0 view .LVU22
 117 001c 0849     		ldr	r1, .L17+4
 118 001e 0B78     		ldrb	r3, [r1]	@ zero_extendqisi2
 119 0020 02EB4002 		add	r2, r2, r0, lsl #1
 120 0024 5370     		strb	r3, [r2, #1]
  35:Drv/drv_adc.c **** 
 121              		.loc 1 35 9 is_stmt 1 view .LVU23
  35:Drv/drv_adc.c **** 
 122              		.loc 1 35 30 is_stmt 0 view .LVU24
 123 0026 2B44     		add	r3, r3, r5
 124 0028 0B70     		strb	r3, [r1]
  37:Drv/drv_adc.c ****         Periph_ADC_Init(channel);
 125              		.loc 1 37 9 is_stmt 1 view .LVU25
 126 002a FFF7FEFF 		bl	Periph_ADC_IO_Init
 127              	.LVL7:
  38:Drv/drv_adc.c **** 
 128              		.loc 1 38 9 view .LVU26
 129 002e 2046     		mov	r0, r4
 130 0030 FFF7FEFF 		bl	Periph_ADC_Init
 131              	.LVL8:
  40:Drv/drv_adc.c ****     }
 132              		.loc 1 40 9 view .LVU27
  40:Drv/drv_adc.c ****     }
 133              		.loc 1 40 16 is_stmt 0 view .LVU28
 134 0034 2846     		mov	r0, r5
 135 0036 ECE7     		b	.L9
 136              	.LVL9:
 137              	.L10:
 138              	.LCFI2:
 139              		.cfi_def_cfa_offset 0
 140              		.cfi_restore 3
 141              		.cfi_restore 4
 142              		.cfi_restore 5
 143              		.cfi_restore 14
  28:Drv/drv_adc.c **** 
 144              		.loc 1 28 16 view .LVU29
 145 0038 0020     		movs	r0, #0
 146              	.LVL10:
  44:Drv/drv_adc.c **** 
 147              		.loc 1 44 1 view .LVU30
 148 003a 7047     		bx	lr
 149              	.L18:
 150              		.align	2
 151              	.L17:
 152 003c 00000000 		.word	.LANCHOR0
 153 0040 00000000 		.word	.LANCHOR1
ARM GAS  /var/folders/lx/hc4sn_b53233_zkc9xbbl97r0000gp/T//ccwgug3N.s 			page 5


 154              		.cfi_endproc
 155              	.LFE123:
 157              		.section	.text.DrvADC_Ctl,"ax",%progbits
 158              		.align	1
 159              		.syntax unified
 160              		.thumb
 161              		.thumb_func
 162              		.fpu fpv4-sp-d16
 164              	DrvADC_Ctl:
 165              	.LVL11:
 166              	.LFB125:
  55:Drv/drv_adc.c **** 
  56:Drv/drv_adc.c **** static bool DrvADC_Ctl(DrvADC_CMD_List cmd, uint8_t data)
  57:Drv/drv_adc.c **** {
 167              		.loc 1 57 1 is_stmt 1 view -0
 168              		.cfi_startproc
 169              		@ args = 0, pretend = 0, frame = 0
 170              		@ frame_needed = 0, uses_anonymous_args = 0
  58:Drv/drv_adc.c ****     switch ((uint8_t)cmd)
 171              		.loc 1 58 5 view .LVU32
 172 0000 08B1     		cbz	r0, .L26
  59:Drv/drv_adc.c ****     {
  60:Drv/drv_adc.c ****     case ADC_Open:
  61:Drv/drv_adc.c ****         return DrvADC_Open((ADC_Channel_List)data);
  62:Drv/drv_adc.c **** 
  63:Drv/drv_adc.c ****     case ADC_Close:
  64:Drv/drv_adc.c ****         /* TODO */
  65:Drv/drv_adc.c ****         return false;
 173              		.loc 1 65 16 is_stmt 0 view .LVU33
 174 0002 0020     		movs	r0, #0
 175              	.LVL12:
  66:Drv/drv_adc.c **** 
  67:Drv/drv_adc.c ****     default:
  68:Drv/drv_adc.c ****         return false;
  69:Drv/drv_adc.c ****     }
  70:Drv/drv_adc.c **** 
  71:Drv/drv_adc.c ****     return false;
  72:Drv/drv_adc.c **** }
 176              		.loc 1 72 1 view .LVU34
 177 0004 7047     		bx	lr
 178              	.LVL13:
 179              	.L26:
  57:Drv/drv_adc.c ****     switch ((uint8_t)cmd)
 180              		.loc 1 57 1 view .LVU35
 181 0006 08B5     		push	{r3, lr}
 182              	.LCFI3:
 183              		.cfi_def_cfa_offset 8
 184              		.cfi_offset 3, -8
 185              		.cfi_offset 14, -4
  61:Drv/drv_adc.c **** 
 186              		.loc 1 61 9 is_stmt 1 view .LVU36
  61:Drv/drv_adc.c **** 
 187              		.loc 1 61 16 is_stmt 0 view .LVU37
 188 0008 0846     		mov	r0, r1
 189              	.LVL14:
  61:Drv/drv_adc.c **** 
 190              		.loc 1 61 16 view .LVU38
ARM GAS  /var/folders/lx/hc4sn_b53233_zkc9xbbl97r0000gp/T//ccwgug3N.s 			page 6


 191 000a FFF7FEFF 		bl	DrvADC_Open
 192              	.LVL15:
 193              		.loc 1 72 1 view .LVU39
 194 000e 08BD     		pop	{r3, pc}
 195              		.cfi_endproc
 196              	.LFE125:
 198              		.global	DrvADC
 199              		.section	.bss.Channel_State,"aw",%nobits
 200              		.align	2
 201              		.set	.LANCHOR0,. + 0
 204              	Channel_State:
 205 0000 00000000 		.space	30
 205      00000000 
 205      00000000 
 205      00000000 
 205      00000000 
 206              		.section	.bss.InUse_ADC_Channel_cnt,"aw",%nobits
 207              		.set	.LANCHOR1,. + 0
 210              	InUse_ADC_Channel_cnt:
 211 0000 00       		.space	1
 212              		.section	.data.DrvADC,"aw"
 213              		.align	2
 216              	DrvADC:
 217 0000 00000000 		.word	DrvADC_Ctl
 218 0004 00000000 		.word	DrvADC_Get
 219              		.text
 220              	.Letext0:
 221              		.file 2 "/usr/local/arm-none-eabi-gcc/gcc-arm-none-eabi-10-2020-q4-major/arm-none-eabi/include/mac
 222              		.file 3 "/usr/local/arm-none-eabi-gcc/gcc-arm-none-eabi-10-2020-q4-major/arm-none-eabi/include/sys
 223              		.file 4 "Bsp/periph_adc.h"
 224              		.file 5 "Drv/drv_adc.h"
ARM GAS  /var/folders/lx/hc4sn_b53233_zkc9xbbl97r0000gp/T//ccwgug3N.s 			page 7


DEFINED SYMBOLS
                            *ABS*:0000000000000000 drv_adc.c
/var/folders/lx/hc4sn_b53233_zkc9xbbl97r0000gp/T//ccwgug3N.s:18     .text.DrvADC_Get:0000000000000000 $t
/var/folders/lx/hc4sn_b53233_zkc9xbbl97r0000gp/T//ccwgug3N.s:25     .text.DrvADC_Get:0000000000000000 DrvADC_Get
/var/folders/lx/hc4sn_b53233_zkc9xbbl97r0000gp/T//ccwgug3N.s:65     .text.DrvADC_Get:000000000000001c $d
/var/folders/lx/hc4sn_b53233_zkc9xbbl97r0000gp/T//ccwgug3N.s:70     .text.DrvADC_Open:0000000000000000 $t
/var/folders/lx/hc4sn_b53233_zkc9xbbl97r0000gp/T//ccwgug3N.s:76     .text.DrvADC_Open:0000000000000000 DrvADC_Open
/var/folders/lx/hc4sn_b53233_zkc9xbbl97r0000gp/T//ccwgug3N.s:152    .text.DrvADC_Open:000000000000003c $d
/var/folders/lx/hc4sn_b53233_zkc9xbbl97r0000gp/T//ccwgug3N.s:158    .text.DrvADC_Ctl:0000000000000000 $t
/var/folders/lx/hc4sn_b53233_zkc9xbbl97r0000gp/T//ccwgug3N.s:164    .text.DrvADC_Ctl:0000000000000000 DrvADC_Ctl
/var/folders/lx/hc4sn_b53233_zkc9xbbl97r0000gp/T//ccwgug3N.s:216    .data.DrvADC:0000000000000000 DrvADC
/var/folders/lx/hc4sn_b53233_zkc9xbbl97r0000gp/T//ccwgug3N.s:200    .bss.Channel_State:0000000000000000 $d
/var/folders/lx/hc4sn_b53233_zkc9xbbl97r0000gp/T//ccwgug3N.s:204    .bss.Channel_State:0000000000000000 Channel_State
/var/folders/lx/hc4sn_b53233_zkc9xbbl97r0000gp/T//ccwgug3N.s:210    .bss.InUse_ADC_Channel_cnt:0000000000000000 InUse_ADC_Channel_cnt
/var/folders/lx/hc4sn_b53233_zkc9xbbl97r0000gp/T//ccwgug3N.s:211    .bss.InUse_ADC_Channel_cnt:0000000000000000 $d
/var/folders/lx/hc4sn_b53233_zkc9xbbl97r0000gp/T//ccwgug3N.s:213    .data.DrvADC:0000000000000000 $d

UNDEFINED SYMBOLS
Periph_ADC_GetValue
Periph_ADC_IO_Init
Periph_ADC_Init
