ARM GAS  /var/folders/lx/hc4sn_b53233_zkc9xbbl97r0000gp/T//ccolqoqu.s 			page 1


   1              		.cpu cortex-m4
   2              		.eabi_attribute 27, 1
   3              		.eabi_attribute 28, 1
   4              		.eabi_attribute 20, 1
   5              		.eabi_attribute 21, 1
   6              		.eabi_attribute 23, 3
   7              		.eabi_attribute 24, 1
   8              		.eabi_attribute 25, 1
   9              		.eabi_attribute 26, 1
  10              		.eabi_attribute 30, 1
  11              		.eabi_attribute 34, 1
  12              		.eabi_attribute 18, 4
  13              		.file	"drv_serial.c"
  14              		.text
  15              	.Ltext0:
  16              		.cfi_sections	.debug_frame
  17              		.section	.text.DrvSerial_Write,"ax",%progbits
  18              		.align	1
  19              		.arch armv7e-m
  20              		.syntax unified
  21              		.thumb
  22              		.thumb_func
  23              		.fpu fpv4-sp-d16
  25              	DrvSerial_Write:
  26              	.LVL0:
  27              	.LFB127:
  28              		.file 1 "Drv/drv_serial.c"
   1:Drv/drv_serial.c **** #include "drv_serial.h"
   2:Drv/drv_serial.c **** #include "vcp.h"
   3:Drv/drv_serial.c **** 
   4:Drv/drv_serial.c **** #define Serial_Default_Baudrate Serial_115200
   5:Drv/drv_serial.c **** 
   6:Drv/drv_serial.c **** /* internal virable */
   7:Drv/drv_serial.c **** static uint8_t Serial_TX_Buff[DrvSerial_Sum][SERIAL_MAX_RECLEN];
   8:Drv/drv_serial.c **** static uint8_t Serial_RX_Buff[DrvSerial_Sum][SERIAL_MAX_RECLEN];
   9:Drv/drv_serial.c **** static DrvSerial_SrcInfo_TypeDef DrvSerial_SrcInfo[DrvSerial_Sum] = {
  10:Drv/drv_serial.c ****     {.inuse = false},
  11:Drv/drv_serial.c ****     {.inuse = false},
  12:Drv/drv_serial.c ****     {.inuse = false},
  13:Drv/drv_serial.c ****     {.inuse = false},
  14:Drv/drv_serial.c **** };
  15:Drv/drv_serial.c **** 
  16:Drv/drv_serial.c **** /* internal function */
  17:Drv/drv_serial.c **** 
  18:Drv/drv_serial.c **** /* external function */
  19:Drv/drv_serial.c **** static bool
  20:Drv/drv_serial.c **** DrvSerial_Ctl(DrvSerial_Port_List portx, DrvSerial_CMD_List cmd, uint32_t data, uint8_t len);
  21:Drv/drv_serial.c **** static bool DrvSerial_Write(DrvSerial_Port_List portx, uint8_t *data, uint16_t len);
  22:Drv/drv_serial.c **** 
  23:Drv/drv_serial.c **** /* external virable */
  24:Drv/drv_serial.c **** DrvSerial_GenProcFunc_TypeDef DrvSerial = {
  25:Drv/drv_serial.c ****     .ctl = DrvSerial_Ctl,
  26:Drv/drv_serial.c ****     .read = NULL,
  27:Drv/drv_serial.c ****     .write = DrvSerial_Write,
  28:Drv/drv_serial.c **** };
  29:Drv/drv_serial.c **** 
  30:Drv/drv_serial.c **** static bool DrvSerial_Ctl(DrvSerial_Port_List portx, DrvSerial_CMD_List cmd, uint32_t data, uint8_t
ARM GAS  /var/folders/lx/hc4sn_b53233_zkc9xbbl97r0000gp/T//ccolqoqu.s 			page 2


  31:Drv/drv_serial.c **** {
  32:Drv/drv_serial.c ****     switch ((uint8_t)cmd)
  33:Drv/drv_serial.c ****     {
  34:Drv/drv_serial.c ****     case DrvSerial_Open:
  35:Drv/drv_serial.c ****         if ((len != sizeof(DrvSerial_Config_Typedef)) || (DrvSerial_SrcInfo[portx].inuse))
  36:Drv/drv_serial.c ****             return;
  37:Drv/drv_serial.c **** 
  38:Drv/drv_serial.c ****         if (portx != DrvSerial_Vcp)
  39:Drv/drv_serial.c ****         {
  40:Drv/drv_serial.c ****             switch ((uint8_t)(((DrvSerial_Config_Typedef *)data)->mode))
  41:Drv/drv_serial.c ****             {
  42:Drv/drv_serial.c ****             case DrvSerial_MODE_Normal:
  43:Drv/drv_serial.c ****                 Serial_IRQ_RX_Init(portx, ((DrvSerial_Config_Typedef *)data)->baudrate,
  44:Drv/drv_serial.c ****                                    ((DrvSerial_Config_Typedef *)data)->PreemptionPriority,
  45:Drv/drv_serial.c ****                                    ((DrvSerial_Config_Typedef *)data)->SubPriority, Serial_Normal);
  46:Drv/drv_serial.c **** 
  47:Drv/drv_serial.c ****                 Serial_Set_IRQ_Callback(portx, ((DrvSerial_Config_Typedef *)data)->Irq_Callback);
  48:Drv/drv_serial.c ****                 break;
  49:Drv/drv_serial.c **** 
  50:Drv/drv_serial.c ****             case DrvSerial_MODE_DMA_Rx:
  51:Drv/drv_serial.c ****                 Serial_DMA_RX_Init(portx, ((DrvSerial_Config_Typedef *)data)->baudrate, ((DrvSerial
  52:Drv/drv_serial.c ****                                    ((DrvSerial_Config_Typedef *)data)->SubPriority,
  53:Drv/drv_serial.c ****                                    (uint32_t)&Serial_RX_Buff[portx],
  54:Drv/drv_serial.c ****                                    SERIAL_MAX_RECLEN, Serial_Normal);
  55:Drv/drv_serial.c **** 
  56:Drv/drv_serial.c ****                 Serial_Set_IRQ_Callback(portx, ((DrvSerial_Config_Typedef *)data)->Irq_Callback);
  57:Drv/drv_serial.c ****                 break;
  58:Drv/drv_serial.c **** 
  59:Drv/drv_serial.c ****             case DrvSerial_MODE_DMA_TxRx:
  60:Drv/drv_serial.c ****                 Serial_DMA_RXTX_Init(portx, ((DrvSerial_Config_Typedef *)data)->baudrate,
  61:Drv/drv_serial.c ****                                      ((DrvSerial_Config_Typedef *)data)->PreemptionPriority,
  62:Drv/drv_serial.c ****                                      ((DrvSerial_Config_Typedef *)data)->SubPriority,
  63:Drv/drv_serial.c ****                                      (uint32_t)&Serial_RX_Buff[portx],
  64:Drv/drv_serial.c ****                                      (uint32_t)&Serial_TX_Buff[portx],
  65:Drv/drv_serial.c ****                                      SERIAL_MAX_RECLEN, Serial_Normal);
  66:Drv/drv_serial.c **** 
  67:Drv/drv_serial.c ****                 Serial_Set_IRQ_Callback(portx, ((DrvSerial_Config_Typedef *)data)->Irq_Callback);
  68:Drv/drv_serial.c ****                 Serial_Set_DMAIRQ_Callback(portx, ((DrvSerial_Config_Typedef *)data)->DmaIrq_Callba
  69:Drv/drv_serial.c ****                 break;
  70:Drv/drv_serial.c **** 
  71:Drv/drv_serial.c ****             default:
  72:Drv/drv_serial.c ****                 return false;
  73:Drv/drv_serial.c ****             }
  74:Drv/drv_serial.c ****         }
  75:Drv/drv_serial.c ****         else
  76:Drv/drv_serial.c ****         {
  77:Drv/drv_serial.c ****             VCP_Init();
  78:Drv/drv_serial.c ****         }
  79:Drv/drv_serial.c **** 
  80:Drv/drv_serial.c ****         DrvSerial_SrcInfo[portx].inuse = true;
  81:Drv/drv_serial.c ****         DrvSerial_SrcInfo[portx].cfg = *((DrvSerial_Config_Typedef *)data);
  82:Drv/drv_serial.c ****         break;
  83:Drv/drv_serial.c **** 
  84:Drv/drv_serial.c ****     case DrvSerial_Close:
  85:Drv/drv_serial.c ****         Serial_Deinit(portx);
  86:Drv/drv_serial.c ****         Serial_Set_IRQ_Callback(portx, NULL);
  87:Drv/drv_serial.c ****         ((DrvSerial_Config_Typedef *)data)->mode = DrvSerial_MODE_None;
ARM GAS  /var/folders/lx/hc4sn_b53233_zkc9xbbl97r0000gp/T//ccolqoqu.s 			page 3


  88:Drv/drv_serial.c ****         ((DrvSerial_Config_Typedef *)data)->PreemptionPriority = 0;
  89:Drv/drv_serial.c ****         ((DrvSerial_Config_Typedef *)data)->SubPriority = 0;
  90:Drv/drv_serial.c ****         ((DrvSerial_Config_Typedef *)data)->baudrate = 0;
  91:Drv/drv_serial.c ****         ((DrvSerial_Config_Typedef *)data)->DmaIrq_Callback = NULL;
  92:Drv/drv_serial.c ****         ((DrvSerial_Config_Typedef *)data)->Irq_Callback = NULL;
  93:Drv/drv_serial.c **** 
  94:Drv/drv_serial.c ****         DrvSerial_SrcInfo[portx].inuse = false;
  95:Drv/drv_serial.c ****         DrvSerial_SrcInfo[portx].cfg = *((DrvSerial_Config_Typedef *)data);
  96:Drv/drv_serial.c ****         break;
  97:Drv/drv_serial.c **** 
  98:Drv/drv_serial.c ****     case DrvSerial_Set_RxIRQCallback:
  99:Drv/drv_serial.c ****         Serial_Set_IRQ_Callback(portx, (Serial_IRQ_Callback)data);
 100:Drv/drv_serial.c ****         break;
 101:Drv/drv_serial.c **** 
 102:Drv/drv_serial.c ****     default:
 103:Drv/drv_serial.c ****         return false;
 104:Drv/drv_serial.c ****     }
 105:Drv/drv_serial.c **** 
 106:Drv/drv_serial.c ****     return true;
 107:Drv/drv_serial.c **** }
 108:Drv/drv_serial.c **** 
 109:Drv/drv_serial.c **** static bool DrvSerial_Write(DrvSerial_Port_List portx, uint8_t *data, uint16_t len)
 110:Drv/drv_serial.c **** {
  29              		.loc 1 110 1 view -0
  30              		.cfi_startproc
  31              		@ args = 0, pretend = 0, frame = 0
  32              		@ frame_needed = 0, uses_anonymous_args = 0
  33              		@ link register save eliminated.
 111:Drv/drv_serial.c **** }
  34              		.loc 1 111 1 view .LVU1
  35              	.LVL1:
  36              		.loc 1 111 1 is_stmt 0 view .LVU2
  37 0000 7047     		bx	lr
  38              		.cfi_endproc
  39              	.LFE127:
  41              		.section	.text.DrvSerial_Ctl,"ax",%progbits
  42              		.align	1
  43              		.syntax unified
  44              		.thumb
  45              		.thumb_func
  46              		.fpu fpv4-sp-d16
  48              	DrvSerial_Ctl:
  49              	.LVL2:
  50              	.LFB126:
  31:Drv/drv_serial.c ****     switch ((uint8_t)cmd)
  51              		.loc 1 31 1 is_stmt 1 view -0
  52              		.cfi_startproc
  53              		@ args = 0, pretend = 0, frame = 0
  54              		@ frame_needed = 0, uses_anonymous_args = 0
  31:Drv/drv_serial.c ****     switch ((uint8_t)cmd)
  55              		.loc 1 31 1 is_stmt 0 view .LVU4
  56 0000 70B5     		push	{r4, r5, r6, lr}
  57              	.LCFI0:
  58              		.cfi_def_cfa_offset 16
  59              		.cfi_offset 4, -16
  60              		.cfi_offset 5, -12
  61              		.cfi_offset 6, -8
ARM GAS  /var/folders/lx/hc4sn_b53233_zkc9xbbl97r0000gp/T//ccolqoqu.s 			page 4


  62              		.cfi_offset 14, -4
  63 0002 84B0     		sub	sp, sp, #16
  64              	.LCFI1:
  65              		.cfi_def_cfa_offset 32
  66 0004 0546     		mov	r5, r0
  67 0006 1446     		mov	r4, r2
  32:Drv/drv_serial.c ****     {
  68              		.loc 1 32 5 is_stmt 1 view .LVU5
  69 0008 0129     		cmp	r1, #1
  70 000a 67D0     		beq	.L3
  71 000c 0229     		cmp	r1, #2
  72 000e 00F08380 		beq	.L4
  73 0012 11B1     		cbz	r1, .L14
  74 0014 0020     		movs	r0, #0
  75              	.LVL3:
  76              	.L2:
 107:Drv/drv_serial.c **** 
  77              		.loc 1 107 1 is_stmt 0 view .LVU6
  78 0016 04B0     		add	sp, sp, #16
  79              	.LCFI2:
  80              		.cfi_remember_state
  81              		.cfi_def_cfa_offset 16
  82              		@ sp needed
  83 0018 70BD     		pop	{r4, r5, r6, pc}
  84              	.LVL4:
  85              	.L14:
  86              	.LCFI3:
  87              		.cfi_restore_state
  35:Drv/drv_serial.c ****             return;
  88              		.loc 1 35 9 is_stmt 1 view .LVU7
  35:Drv/drv_serial.c ****             return;
  89              		.loc 1 35 12 is_stmt 0 view .LVU8
  90 001a 142B     		cmp	r3, #20
  91 001c FBD1     		bne	.L2
  35:Drv/drv_serial.c ****             return;
  92              		.loc 1 35 83 discriminator 1 view .LVU9
  93 001e 00EB4003 		add	r3, r0, r0, lsl #1
  94              	.LVL5:
  35:Drv/drv_serial.c ****             return;
  95              		.loc 1 35 83 discriminator 1 view .LVU10
  96 0022 404A     		ldr	r2, .L15
  97              	.LVL6:
  35:Drv/drv_serial.c ****             return;
  98              		.loc 1 35 83 discriminator 1 view .LVU11
  99 0024 12F83300 		ldrb	r0, [r2, r3, lsl #3]	@ zero_extendqisi2
 100              	.LVL7:
  35:Drv/drv_serial.c ****             return;
 101              		.loc 1 35 55 discriminator 1 view .LVU12
 102 0028 0028     		cmp	r0, #0
 103 002a F4D1     		bne	.L2
  38:Drv/drv_serial.c ****         {
 104              		.loc 1 38 9 is_stmt 1 view .LVU13
  38:Drv/drv_serial.c ****         {
 105              		.loc 1 38 12 is_stmt 0 view .LVU14
 106 002c 042D     		cmp	r5, #4
 107 002e 43D0     		beq	.L8
  40:Drv/drv_serial.c ****             {
ARM GAS  /var/folders/lx/hc4sn_b53233_zkc9xbbl97r0000gp/T//ccolqoqu.s 			page 5


 108              		.loc 1 40 13 is_stmt 1 view .LVU15
  40:Drv/drv_serial.c ****             {
 109              		.loc 1 40 65 is_stmt 0 view .LVU16
 110 0030 A379     		ldrb	r3, [r4, #6]	@ zero_extendqisi2
 111 0032 012B     		cmp	r3, #1
 112 0034 10D0     		beq	.L9
 113 0036 022B     		cmp	r3, #2
 114 0038 22D0     		beq	.L10
 115 003a 002B     		cmp	r3, #0
 116 003c EBD1     		bne	.L2
  43:Drv/drv_serial.c ****                                    ((DrvSerial_Config_Typedef *)data)->PreemptionPriority,
 117              		.loc 1 43 17 is_stmt 1 view .LVU17
 118 003e 6379     		ldrb	r3, [r4, #5]	@ zero_extendqisi2
 119 0040 2279     		ldrb	r2, [r4, #4]	@ zero_extendqisi2
 120 0042 0021     		movs	r1, #0
 121              	.LVL8:
  43:Drv/drv_serial.c ****                                    ((DrvSerial_Config_Typedef *)data)->PreemptionPriority,
 122              		.loc 1 43 17 is_stmt 0 view .LVU18
 123 0044 0091     		str	r1, [sp]
 124 0046 2168     		ldr	r1, [r4]
 125 0048 2846     		mov	r0, r5
 126 004a FFF7FEFF 		bl	Serial_IRQ_RX_Init
 127              	.LVL9:
  47:Drv/drv_serial.c ****                 break;
 128              		.loc 1 47 17 is_stmt 1 view .LVU19
 129 004e A168     		ldr	r1, [r4, #8]
 130 0050 2846     		mov	r0, r5
 131 0052 FFF7FEFF 		bl	Serial_Set_IRQ_Callback
 132              	.LVL10:
  48:Drv/drv_serial.c **** 
 133              		.loc 1 48 17 view .LVU20
 134 0056 31E0     		b	.L11
 135              	.LVL11:
 136              	.L9:
  51:Drv/drv_serial.c ****                                    ((DrvSerial_Config_Typedef *)data)->SubPriority,
 137              		.loc 1 51 17 view .LVU21
  53:Drv/drv_serial.c ****                                    SERIAL_MAX_RECLEN, Serial_Normal);
 138              		.loc 1 53 46 is_stmt 0 view .LVU22
 139 0058 3349     		ldr	r1, .L15+4
 140              	.LVL12:
  53:Drv/drv_serial.c ****                                    SERIAL_MAX_RECLEN, Serial_Normal);
 141              		.loc 1 53 46 view .LVU23
 142 005a 01EB8521 		add	r1, r1, r5, lsl #10
  51:Drv/drv_serial.c ****                                    ((DrvSerial_Config_Typedef *)data)->SubPriority,
 143              		.loc 1 51 17 view .LVU24
 144 005e 6379     		ldrb	r3, [r4, #5]	@ zero_extendqisi2
 145 0060 2279     		ldrb	r2, [r4, #4]	@ zero_extendqisi2
 146 0062 0020     		movs	r0, #0
 147 0064 0290     		str	r0, [sp, #8]
 148 0066 4FF48060 		mov	r0, #1024
 149 006a 0190     		str	r0, [sp, #4]
 150 006c 0091     		str	r1, [sp]
 151 006e 2168     		ldr	r1, [r4]
 152 0070 2846     		mov	r0, r5
 153 0072 FFF7FEFF 		bl	Serial_DMA_RX_Init
 154              	.LVL13:
  56:Drv/drv_serial.c ****                 break;
ARM GAS  /var/folders/lx/hc4sn_b53233_zkc9xbbl97r0000gp/T//ccolqoqu.s 			page 6


 155              		.loc 1 56 17 is_stmt 1 view .LVU25
 156 0076 A168     		ldr	r1, [r4, #8]
 157 0078 2846     		mov	r0, r5
 158 007a FFF7FEFF 		bl	Serial_Set_IRQ_Callback
 159              	.LVL14:
  57:Drv/drv_serial.c **** 
 160              		.loc 1 57 17 view .LVU26
 161 007e 1DE0     		b	.L11
 162              	.LVL15:
 163              	.L10:
  60:Drv/drv_serial.c ****                                      ((DrvSerial_Config_Typedef *)data)->PreemptionPriority,
 164              		.loc 1 60 17 view .LVU27
  63:Drv/drv_serial.c ****                                      (uint32_t)&Serial_TX_Buff[portx],
 165              		.loc 1 63 48 is_stmt 0 view .LVU28
 166 0080 2949     		ldr	r1, .L15+4
 167              	.LVL16:
  63:Drv/drv_serial.c ****                                      (uint32_t)&Serial_TX_Buff[portx],
 168              		.loc 1 63 48 view .LVU29
 169 0082 01EB8521 		add	r1, r1, r5, lsl #10
  64:Drv/drv_serial.c ****                                      SERIAL_MAX_RECLEN, Serial_Normal);
 170              		.loc 1 64 48 view .LVU30
 171 0086 2948     		ldr	r0, .L15+8
 172 0088 00EB8520 		add	r0, r0, r5, lsl #10
  60:Drv/drv_serial.c ****                                      ((DrvSerial_Config_Typedef *)data)->PreemptionPriority,
 173              		.loc 1 60 17 view .LVU31
 174 008c 6379     		ldrb	r3, [r4, #5]	@ zero_extendqisi2
 175 008e 2279     		ldrb	r2, [r4, #4]	@ zero_extendqisi2
 176 0090 0026     		movs	r6, #0
 177 0092 0396     		str	r6, [sp, #12]
 178 0094 4FF48066 		mov	r6, #1024
 179 0098 0296     		str	r6, [sp, #8]
 180 009a 0190     		str	r0, [sp, #4]
 181 009c 0091     		str	r1, [sp]
 182 009e 2168     		ldr	r1, [r4]
 183 00a0 2846     		mov	r0, r5
 184 00a2 FFF7FEFF 		bl	Serial_DMA_RXTX_Init
 185              	.LVL17:
  67:Drv/drv_serial.c ****                 Serial_Set_DMAIRQ_Callback(portx, ((DrvSerial_Config_Typedef *)data)->DmaIrq_Callba
 186              		.loc 1 67 17 is_stmt 1 view .LVU32
 187 00a6 A168     		ldr	r1, [r4, #8]
 188 00a8 2846     		mov	r0, r5
 189 00aa FFF7FEFF 		bl	Serial_Set_IRQ_Callback
 190              	.LVL18:
  68:Drv/drv_serial.c ****                 break;
 191              		.loc 1 68 17 view .LVU33
 192 00ae E168     		ldr	r1, [r4, #12]
 193 00b0 2846     		mov	r0, r5
 194 00b2 FFF7FEFF 		bl	Serial_Set_DMAIRQ_Callback
 195              	.LVL19:
  69:Drv/drv_serial.c **** 
 196              		.loc 1 69 17 view .LVU34
 197 00b6 01E0     		b	.L11
 198              	.LVL20:
 199              	.L8:
  77:Drv/drv_serial.c ****         }
 200              		.loc 1 77 13 view .LVU35
 201 00b8 FFF7FEFF 		bl	VCP_Init
ARM GAS  /var/folders/lx/hc4sn_b53233_zkc9xbbl97r0000gp/T//ccolqoqu.s 			page 7


 202              	.LVL21:
 203              	.L11:
  80:Drv/drv_serial.c ****         DrvSerial_SrcInfo[portx].cfg = *((DrvSerial_Config_Typedef *)data);
 204              		.loc 1 80 9 view .LVU36
  80:Drv/drv_serial.c ****         DrvSerial_SrcInfo[portx].cfg = *((DrvSerial_Config_Typedef *)data);
 205              		.loc 1 80 40 is_stmt 0 view .LVU37
 206 00bc 194B     		ldr	r3, .L15
 207 00be 05EB4502 		add	r2, r5, r5, lsl #1
 208 00c2 4FF0010C 		mov	ip, #1
 209 00c6 03F832C0 		strb	ip, [r3, r2, lsl #3]
  81:Drv/drv_serial.c ****         break;
 210              		.loc 1 81 9 is_stmt 1 view .LVU38
  81:Drv/drv_serial.c ****         break;
 211              		.loc 1 81 38 is_stmt 0 view .LVU39
 212 00ca 03EBC205 		add	r5, r3, r2, lsl #3
 213 00ce 0435     		adds	r5, r5, #4
 214 00d0 0FCC     		ldmia	r4!, {r0, r1, r2, r3}
 215              	.LVL22:
  81:Drv/drv_serial.c ****         break;
 216              		.loc 1 81 38 view .LVU40
 217 00d2 0FC5     		stmia	r5!, {r0, r1, r2, r3}
 218 00d4 2368     		ldr	r3, [r4]
 219 00d6 2B60     		str	r3, [r5]
  82:Drv/drv_serial.c **** 
 220              		.loc 1 82 9 is_stmt 1 view .LVU41
 106:Drv/drv_serial.c **** }
 221              		.loc 1 106 12 is_stmt 0 view .LVU42
 222 00d8 6046     		mov	r0, ip
  82:Drv/drv_serial.c **** 
 223              		.loc 1 82 9 view .LVU43
 224 00da 9CE7     		b	.L2
 225              	.LVL23:
 226              	.L3:
  85:Drv/drv_serial.c ****         Serial_Set_IRQ_Callback(portx, NULL);
 227              		.loc 1 85 9 is_stmt 1 view .LVU44
 228 00dc FFF7FEFF 		bl	Serial_Deinit
 229              	.LVL24:
  86:Drv/drv_serial.c ****         ((DrvSerial_Config_Typedef *)data)->mode = DrvSerial_MODE_None;
 230              		.loc 1 86 9 view .LVU45
 231 00e0 0021     		movs	r1, #0
 232 00e2 2846     		mov	r0, r5
 233 00e4 FFF7FEFF 		bl	Serial_Set_IRQ_Callback
 234              	.LVL25:
  87:Drv/drv_serial.c ****         ((DrvSerial_Config_Typedef *)data)->PreemptionPriority = 0;
 235              		.loc 1 87 9 view .LVU46
  87:Drv/drv_serial.c ****         ((DrvSerial_Config_Typedef *)data)->PreemptionPriority = 0;
 236              		.loc 1 87 50 is_stmt 0 view .LVU47
 237 00e8 0323     		movs	r3, #3
 238 00ea A371     		strb	r3, [r4, #6]
  88:Drv/drv_serial.c ****         ((DrvSerial_Config_Typedef *)data)->SubPriority = 0;
 239              		.loc 1 88 9 is_stmt 1 view .LVU48
  88:Drv/drv_serial.c ****         ((DrvSerial_Config_Typedef *)data)->SubPriority = 0;
 240              		.loc 1 88 64 is_stmt 0 view .LVU49
 241 00ec 0022     		movs	r2, #0
 242 00ee 2271     		strb	r2, [r4, #4]
  89:Drv/drv_serial.c ****         ((DrvSerial_Config_Typedef *)data)->baudrate = 0;
 243              		.loc 1 89 9 is_stmt 1 view .LVU50
ARM GAS  /var/folders/lx/hc4sn_b53233_zkc9xbbl97r0000gp/T//ccolqoqu.s 			page 8


  89:Drv/drv_serial.c ****         ((DrvSerial_Config_Typedef *)data)->baudrate = 0;
 244              		.loc 1 89 57 is_stmt 0 view .LVU51
 245 00f0 6271     		strb	r2, [r4, #5]
  90:Drv/drv_serial.c ****         ((DrvSerial_Config_Typedef *)data)->DmaIrq_Callback = NULL;
 246              		.loc 1 90 9 is_stmt 1 view .LVU52
  90:Drv/drv_serial.c ****         ((DrvSerial_Config_Typedef *)data)->DmaIrq_Callback = NULL;
 247              		.loc 1 90 54 is_stmt 0 view .LVU53
 248 00f2 2260     		str	r2, [r4]
  91:Drv/drv_serial.c ****         ((DrvSerial_Config_Typedef *)data)->Irq_Callback = NULL;
 249              		.loc 1 91 9 is_stmt 1 view .LVU54
  91:Drv/drv_serial.c ****         ((DrvSerial_Config_Typedef *)data)->Irq_Callback = NULL;
 250              		.loc 1 91 61 is_stmt 0 view .LVU55
 251 00f4 E260     		str	r2, [r4, #12]
  92:Drv/drv_serial.c **** 
 252              		.loc 1 92 9 is_stmt 1 view .LVU56
  92:Drv/drv_serial.c **** 
 253              		.loc 1 92 58 is_stmt 0 view .LVU57
 254 00f6 A260     		str	r2, [r4, #8]
  94:Drv/drv_serial.c ****         DrvSerial_SrcInfo[portx].cfg = *((DrvSerial_Config_Typedef *)data);
 255              		.loc 1 94 9 is_stmt 1 view .LVU58
  94:Drv/drv_serial.c ****         DrvSerial_SrcInfo[portx].cfg = *((DrvSerial_Config_Typedef *)data);
 256              		.loc 1 94 40 is_stmt 0 view .LVU59
 257 00f8 0A4B     		ldr	r3, .L15
 258 00fa 05EB4501 		add	r1, r5, r5, lsl #1
 259 00fe C900     		lsls	r1, r1, #3
 260 0100 5A54     		strb	r2, [r3, r1]
  95:Drv/drv_serial.c ****         break;
 261              		.loc 1 95 9 is_stmt 1 view .LVU60
  95:Drv/drv_serial.c ****         break;
 262              		.loc 1 95 38 is_stmt 0 view .LVU61
 263 0102 05EB4505 		add	r5, r5, r5, lsl #1
 264 0106 03EBC505 		add	r5, r3, r5, lsl #3
 265 010a 0435     		adds	r5, r5, #4
 266 010c 0FCC     		ldmia	r4!, {r0, r1, r2, r3}
 267              	.LVL26:
  95:Drv/drv_serial.c ****         break;
 268              		.loc 1 95 38 view .LVU62
 269 010e 0FC5     		stmia	r5!, {r0, r1, r2, r3}
 270 0110 2368     		ldr	r3, [r4]
 271 0112 2B60     		str	r3, [r5]
  96:Drv/drv_serial.c **** 
 272              		.loc 1 96 9 is_stmt 1 view .LVU63
 106:Drv/drv_serial.c **** }
 273              		.loc 1 106 12 is_stmt 0 view .LVU64
 274 0114 0120     		movs	r0, #1
  96:Drv/drv_serial.c **** 
 275              		.loc 1 96 9 view .LVU65
 276 0116 7EE7     		b	.L2
 277              	.LVL27:
 278              	.L4:
  99:Drv/drv_serial.c ****         break;
 279              		.loc 1 99 9 is_stmt 1 view .LVU66
 280 0118 1146     		mov	r1, r2
 281              	.LVL28:
  99:Drv/drv_serial.c ****         break;
 282              		.loc 1 99 9 is_stmt 0 view .LVU67
 283 011a FFF7FEFF 		bl	Serial_Set_IRQ_Callback
ARM GAS  /var/folders/lx/hc4sn_b53233_zkc9xbbl97r0000gp/T//ccolqoqu.s 			page 9


 284              	.LVL29:
 100:Drv/drv_serial.c **** 
 285              		.loc 1 100 9 is_stmt 1 view .LVU68
 106:Drv/drv_serial.c **** }
 286              		.loc 1 106 12 is_stmt 0 view .LVU69
 287 011e 0120     		movs	r0, #1
 100:Drv/drv_serial.c **** 
 288              		.loc 1 100 9 view .LVU70
 289 0120 79E7     		b	.L2
 290              	.L16:
 291 0122 00BF     		.align	2
 292              	.L15:
 293 0124 00000000 		.word	.LANCHOR0
 294 0128 00000000 		.word	Serial_RX_Buff
 295 012c 00000000 		.word	Serial_TX_Buff
 296              		.cfi_endproc
 297              	.LFE126:
 299              		.global	DrvSerial
 300              		.section	.bss.DrvSerial_SrcInfo,"aw",%nobits
 301              		.align	2
 302              		.set	.LANCHOR0,. + 0
 305              	DrvSerial_SrcInfo:
 306 0000 00000000 		.space	120
 306      00000000 
 306      00000000 
 306      00000000 
 306      00000000 
 307              		.section	.bss.Serial_RX_Buff,"aw",%nobits
 308              		.align	2
 311              	Serial_RX_Buff:
 312 0000 00000000 		.space	5120
 312      00000000 
 312      00000000 
 312      00000000 
 312      00000000 
 313              		.section	.bss.Serial_TX_Buff,"aw",%nobits
 314              		.align	2
 317              	Serial_TX_Buff:
 318 0000 00000000 		.space	5120
 318      00000000 
 318      00000000 
 318      00000000 
 318      00000000 
 319              		.section	.data.DrvSerial,"aw"
 320              		.align	2
 323              	DrvSerial:
 324 0000 00000000 		.word	DrvSerial_Ctl
 325 0004 00000000 		.word	0
 326 0008 00000000 		.word	DrvSerial_Write
 327              		.text
 328              	.Letext0:
 329              		.file 2 "/usr/local/arm-none-eabi-gcc/gcc-arm-none-eabi-10-2020-q4-major/arm-none-eabi/include/mac
 330              		.file 3 "/usr/local/arm-none-eabi-gcc/gcc-arm-none-eabi-10-2020-q4-major/arm-none-eabi/include/sys
 331              		.file 4 "Bsp/periph_dma.h"
 332              		.file 5 "Bsp/periph_serial.h"
 333              		.file 6 "Drv/drv_serial.h"
 334              		.file 7 "USB/config/vcp.h"
ARM GAS  /var/folders/lx/hc4sn_b53233_zkc9xbbl97r0000gp/T//ccolqoqu.s 			page 10


ARM GAS  /var/folders/lx/hc4sn_b53233_zkc9xbbl97r0000gp/T//ccolqoqu.s 			page 11


DEFINED SYMBOLS
                            *ABS*:0000000000000000 drv_serial.c
/var/folders/lx/hc4sn_b53233_zkc9xbbl97r0000gp/T//ccolqoqu.s:18     .text.DrvSerial_Write:0000000000000000 $t
/var/folders/lx/hc4sn_b53233_zkc9xbbl97r0000gp/T//ccolqoqu.s:25     .text.DrvSerial_Write:0000000000000000 DrvSerial_Write
/var/folders/lx/hc4sn_b53233_zkc9xbbl97r0000gp/T//ccolqoqu.s:42     .text.DrvSerial_Ctl:0000000000000000 $t
/var/folders/lx/hc4sn_b53233_zkc9xbbl97r0000gp/T//ccolqoqu.s:48     .text.DrvSerial_Ctl:0000000000000000 DrvSerial_Ctl
/var/folders/lx/hc4sn_b53233_zkc9xbbl97r0000gp/T//ccolqoqu.s:293    .text.DrvSerial_Ctl:0000000000000124 $d
/var/folders/lx/hc4sn_b53233_zkc9xbbl97r0000gp/T//ccolqoqu.s:311    .bss.Serial_RX_Buff:0000000000000000 Serial_RX_Buff
/var/folders/lx/hc4sn_b53233_zkc9xbbl97r0000gp/T//ccolqoqu.s:317    .bss.Serial_TX_Buff:0000000000000000 Serial_TX_Buff
/var/folders/lx/hc4sn_b53233_zkc9xbbl97r0000gp/T//ccolqoqu.s:323    .data.DrvSerial:0000000000000000 DrvSerial
/var/folders/lx/hc4sn_b53233_zkc9xbbl97r0000gp/T//ccolqoqu.s:301    .bss.DrvSerial_SrcInfo:0000000000000000 $d
/var/folders/lx/hc4sn_b53233_zkc9xbbl97r0000gp/T//ccolqoqu.s:305    .bss.DrvSerial_SrcInfo:0000000000000000 DrvSerial_SrcInfo
/var/folders/lx/hc4sn_b53233_zkc9xbbl97r0000gp/T//ccolqoqu.s:308    .bss.Serial_RX_Buff:0000000000000000 $d
/var/folders/lx/hc4sn_b53233_zkc9xbbl97r0000gp/T//ccolqoqu.s:314    .bss.Serial_TX_Buff:0000000000000000 $d
/var/folders/lx/hc4sn_b53233_zkc9xbbl97r0000gp/T//ccolqoqu.s:320    .data.DrvSerial:0000000000000000 $d

UNDEFINED SYMBOLS
Serial_IRQ_RX_Init
Serial_Set_IRQ_Callback
Serial_DMA_RX_Init
Serial_DMA_RXTX_Init
Serial_Set_DMAIRQ_Callback
VCP_Init
Serial_Deinit
