ARM GAS  /var/folders/lx/hc4sn_b53233_zkc9xbbl97r0000gp/T//cchyr23l.s 			page 1


   1              		.cpu cortex-m4
   2              		.eabi_attribute 27, 1
   3              		.eabi_attribute 28, 1
   4              		.eabi_attribute 20, 1
   5              		.eabi_attribute 21, 1
   6              		.eabi_attribute 23, 3
   7              		.eabi_attribute 24, 1
   8              		.eabi_attribute 25, 1
   9              		.eabi_attribute 26, 1
  10              		.eabi_attribute 30, 1
  11              		.eabi_attribute 34, 1
  12              		.eabi_attribute 18, 4
  13              		.file	"GenDsp.c"
  14              		.text
  15              	.Ltext0:
  16              		.cfi_sections	.debug_frame
  17              		.section	.text.GenDsp_SetRange,"ax",%progbits
  18              		.align	1
  19              		.arch armv7e-m
  20              		.syntax unified
  21              		.thumb
  22              		.thumb_func
  23              		.fpu fpv4-sp-d16
  25              	GenDsp_SetRange:
  26              	.LVL0:
  27              	.LFB3:
  28              		.file 1 "Dsp/widget/wgt_core/GenDsp.c"
   1:Dsp/widget/wgt_core/GenDsp.c **** #include "GenDsp.h"
   2:Dsp/widget/wgt_core/GenDsp.c **** #include "oledfont.h"
   3:Dsp/widget/wgt_core/GenDsp.c **** #include <math.h>
   4:Dsp/widget/wgt_core/GenDsp.c **** 
   5:Dsp/widget/wgt_core/GenDsp.c **** #define DegToRad(x) x / (180 / M_PI)
   6:Dsp/widget/wgt_core/GenDsp.c **** 
   7:Dsp/widget/wgt_core/GenDsp.c **** /* internal variable */
   8:Dsp/widget/wgt_core/GenDsp.c **** GenDsp_DspArea_Limit_Range DspRange = {
   9:Dsp/widget/wgt_core/GenDsp.c ****     .width = 0,
  10:Dsp/widget/wgt_core/GenDsp.c ****     .heigh = 0,
  11:Dsp/widget/wgt_core/GenDsp.c ****     .x = 0,
  12:Dsp/widget/wgt_core/GenDsp.c ****     .y = 0,
  13:Dsp/widget/wgt_core/GenDsp.c **** };
  14:Dsp/widget/wgt_core/GenDsp.c **** 
  15:Dsp/widget/wgt_core/GenDsp.c **** /* internal function definition */
  16:Dsp/widget/wgt_core/GenDsp.c **** 
  17:Dsp/widget/wgt_core/GenDsp.c **** /* external draw funtion definition */
  18:Dsp/widget/wgt_core/GenDsp.c **** static uint8_t GenDsp_GetStrLen(GenFont_List font, char *str);
  19:Dsp/widget/wgt_core/GenDsp.c **** static void GenDsp_DrawPoint(uint8_t **map, uint8_t x, uint8_t y, bool set);
  20:Dsp/widget/wgt_core/GenDsp.c **** static void GenDsp_SetRange(uint8_t x, uint8_t y, uint8_t width, uint8_t height);
  21:Dsp/widget/wgt_core/GenDsp.c **** static bool GenDsp_DrawChar(GenFont_List font, uint8_t **map, char c, uint8_t x, uint8_t y, bool co
  22:Dsp/widget/wgt_core/GenDsp.c **** static void GenDsp_DrawStr(GenFont_List font, uint8_t **map, char *str, uint8_t x, uint8_t y, bool 
  23:Dsp/widget/wgt_core/GenDsp.c **** static void GenDsp_DrawNum(GenFont_List font, uint8_t **map, uint32_t num, uint8_t x, uint8_t y, bo
  24:Dsp/widget/wgt_core/GenDsp.c **** static void GenDsp_DrawCircle(uint8_t **map, uint8_t center_x, uint8_t center_y, uint8_t radius, ui
  25:Dsp/widget/wgt_core/GenDsp.c **** static void GenDsp_DrawRectangle(uint8_t **map, uint8_t x, uint8_t y, uint8_t width, uint8_t height
  26:Dsp/widget/wgt_core/GenDsp.c **** static void GenDsp_DrawLen(uint8_t **map, uint8_t start_x, uint8_t start_y, uint8_t end_x, uint8_t 
  27:Dsp/widget/wgt_core/GenDsp.c **** static void GenDsp_DrawRad(uint8_t **map, uint8_t center_x, uint8_t center_y, uint8_t radius, uint8
  28:Dsp/widget/wgt_core/GenDsp.c **** static void GenDsp_Draw_RadiusRectangle(uint8_t **map, uint8_t x, uint8_t y, uint8_t width, uint8_t
  29:Dsp/widget/wgt_core/GenDsp.c **** static void GenDsp_FillCircle(uint8_t **map, uint8_t x, uint8_t y, uint8_t radius, uint8_t option);
  30:Dsp/widget/wgt_core/GenDsp.c **** static void GenDsp_FillRectangle(uint8_t **map, uint8_t x, uint8_t y, uint8_t width, uint8_t height
ARM GAS  /var/folders/lx/hc4sn_b53233_zkc9xbbl97r0000gp/T//cchyr23l.s 			page 2


  31:Dsp/widget/wgt_core/GenDsp.c **** static void GenDsp_Fill_RadiusRectangle(uint8_t **map, uint8_t x, uint8_t y, uint8_t width, uint8_t
  32:Dsp/widget/wgt_core/GenDsp.c **** static void GenDsp_Draw_HLine(uint8_t **map, uint8_t x, uint8_t y, uint8_t len, uint8_t line_width)
  33:Dsp/widget/wgt_core/GenDsp.c **** static void GenDsp_Draw_VLine(uint8_t **map, uint8_t x, uint8_t y, uint8_t len, uint8_t line_width)
  34:Dsp/widget/wgt_core/GenDsp.c **** 
  35:Dsp/widget/wgt_core/GenDsp.c **** GeneralDispalyProc_TypeDef GenDsp_Interface = {
  36:Dsp/widget/wgt_core/GenDsp.c ****     .draw_img = NULL,
  37:Dsp/widget/wgt_core/GenDsp.c ****     .draw_str = GenDsp_DrawStr,
  38:Dsp/widget/wgt_core/GenDsp.c ****     .draw_num = GenDsp_DrawNum,
  39:Dsp/widget/wgt_core/GenDsp.c ****     .draw_line = GenDsp_DrawLen,
  40:Dsp/widget/wgt_core/GenDsp.c ****     .draw_vertical_line = GenDsp_Draw_VLine,
  41:Dsp/widget/wgt_core/GenDsp.c ****     .draw_horizon_line = GenDsp_Draw_HLine,
  42:Dsp/widget/wgt_core/GenDsp.c ****     .str_len = GenDsp_GetStrLen,
  43:Dsp/widget/wgt_core/GenDsp.c ****     .draw_char = GenDsp_DrawChar,
  44:Dsp/widget/wgt_core/GenDsp.c ****     .set_range = GenDsp_SetRange,
  45:Dsp/widget/wgt_core/GenDsp.c ****     .draw_point = GenDsp_DrawPoint,
  46:Dsp/widget/wgt_core/GenDsp.c ****     .draw_circle = GenDsp_DrawCircle,
  47:Dsp/widget/wgt_core/GenDsp.c ****     .draw_rectangle = GenDsp_DrawRectangle,
  48:Dsp/widget/wgt_core/GenDsp.c ****     .draw_radius_rectangle = GenDsp_Draw_RadiusRectangle,
  49:Dsp/widget/wgt_core/GenDsp.c ****     .fill_circle = GenDsp_FillCircle,
  50:Dsp/widget/wgt_core/GenDsp.c ****     .fill_rectangle = GenDsp_FillRectangle,
  51:Dsp/widget/wgt_core/GenDsp.c ****     .fill_radius_rectangle = GenDsp_Fill_RadiusRectangle,
  52:Dsp/widget/wgt_core/GenDsp.c **** };
  53:Dsp/widget/wgt_core/GenDsp.c **** 
  54:Dsp/widget/wgt_core/GenDsp.c **** static void GenDsp_SetRange(uint8_t x, uint8_t y, uint8_t width, uint8_t height)
  55:Dsp/widget/wgt_core/GenDsp.c **** {
  29              		.loc 1 55 1 view -0
  30              		.cfi_startproc
  31              		@ args = 0, pretend = 0, frame = 0
  32              		@ frame_needed = 0, uses_anonymous_args = 0
  33              		@ link register save eliminated.
  34              		.loc 1 55 1 is_stmt 0 view .LVU1
  35 0000 10B4     		push	{r4}
  36              	.LCFI0:
  37              		.cfi_def_cfa_offset 4
  38              		.cfi_offset 4, -4
  56:Dsp/widget/wgt_core/GenDsp.c ****     DspRange.heigh = height;
  39              		.loc 1 56 5 is_stmt 1 view .LVU2
  40              		.loc 1 56 20 is_stmt 0 view .LVU3
  41 0002 044C     		ldr	r4, .L3
  42 0004 E370     		strb	r3, [r4, #3]
  57:Dsp/widget/wgt_core/GenDsp.c ****     DspRange.width = width;
  43              		.loc 1 57 5 is_stmt 1 view .LVU4
  44              		.loc 1 57 20 is_stmt 0 view .LVU5
  45 0006 A270     		strb	r2, [r4, #2]
  58:Dsp/widget/wgt_core/GenDsp.c ****     DspRange.x = x;
  46              		.loc 1 58 5 is_stmt 1 view .LVU6
  47              		.loc 1 58 16 is_stmt 0 view .LVU7
  48 0008 2070     		strb	r0, [r4]
  59:Dsp/widget/wgt_core/GenDsp.c ****     DspRange.y = y;
  49              		.loc 1 59 5 is_stmt 1 view .LVU8
  50              		.loc 1 59 16 is_stmt 0 view .LVU9
  51 000a 6170     		strb	r1, [r4, #1]
  60:Dsp/widget/wgt_core/GenDsp.c **** }
  52              		.loc 1 60 1 view .LVU10
  53 000c 5DF8044B 		ldr	r4, [sp], #4
  54              	.LCFI1:
  55              		.cfi_restore 4
ARM GAS  /var/folders/lx/hc4sn_b53233_zkc9xbbl97r0000gp/T//cchyr23l.s 			page 3


  56              		.cfi_def_cfa_offset 0
  57 0010 7047     		bx	lr
  58              	.L4:
  59 0012 00BF     		.align	2
  60              	.L3:
  61 0014 00000000 		.word	.LANCHOR0
  62              		.cfi_endproc
  63              	.LFE3:
  65              		.section	.text.GenDsp_DrawPoint,"ax",%progbits
  66              		.align	1
  67              		.syntax unified
  68              		.thumb
  69              		.thumb_func
  70              		.fpu fpv4-sp-d16
  72              	GenDsp_DrawPoint:
  73              	.LVL1:
  74              	.LFB4:
  61:Dsp/widget/wgt_core/GenDsp.c **** 
  62:Dsp/widget/wgt_core/GenDsp.c **** static void GenDsp_DrawPoint(uint8_t **map, uint8_t x, uint8_t y, bool set)
  63:Dsp/widget/wgt_core/GenDsp.c **** {
  75              		.loc 1 63 1 is_stmt 1 view -0
  76              		.cfi_startproc
  77              		@ args = 0, pretend = 0, frame = 0
  78              		@ frame_needed = 0, uses_anonymous_args = 0
  79              		@ link register save eliminated.
  80              		.loc 1 63 1 is_stmt 0 view .LVU12
  81 0000 10B4     		push	{r4}
  82              	.LCFI2:
  83              		.cfi_def_cfa_offset 4
  84              		.cfi_offset 4, -4
  64:Dsp/widget/wgt_core/GenDsp.c ****     if ((x >= DspRange.width) || (y >= DspRange.heigh))
  85              		.loc 1 64 5 is_stmt 1 view .LVU13
  86              		.loc 1 64 23 is_stmt 0 view .LVU14
  87 0002 0A4C     		ldr	r4, .L9
  88 0004 94F802C0 		ldrb	ip, [r4, #2]	@ zero_extendqisi2
  89              		.loc 1 64 8 view .LVU15
  90 0008 8C45     		cmp	ip, r1
  91 000a 07D9     		bls	.L5
  92              		.loc 1 64 48 discriminator 1 view .LVU16
  93 000c E478     		ldrb	r4, [r4, #3]	@ zero_extendqisi2
  94              		.loc 1 64 31 discriminator 1 view .LVU17
  95 000e 9442     		cmp	r4, r2
  96 0010 04D9     		bls	.L5
  65:Dsp/widget/wgt_core/GenDsp.c ****         return;
  66:Dsp/widget/wgt_core/GenDsp.c **** 
  67:Dsp/widget/wgt_core/GenDsp.c ****     if (set)
  97              		.loc 1 67 5 is_stmt 1 view .LVU18
  98              		.loc 1 67 8 is_stmt 0 view .LVU19
  99 0012 33B1     		cbz	r3, .L7
  68:Dsp/widget/wgt_core/GenDsp.c ****     {
  69:Dsp/widget/wgt_core/GenDsp.c ****         map[y][x] = 1;
 100              		.loc 1 69 9 is_stmt 1 view .LVU20
 101              		.loc 1 69 12 is_stmt 0 view .LVU21
 102 0014 50F82230 		ldr	r3, [r0, r2, lsl #2]
 103              	.LVL2:
 104              		.loc 1 69 19 view .LVU22
 105 0018 0122     		movs	r2, #1
ARM GAS  /var/folders/lx/hc4sn_b53233_zkc9xbbl97r0000gp/T//cchyr23l.s 			page 4


 106              	.LVL3:
 107              		.loc 1 69 19 view .LVU23
 108 001a 5A54     		strb	r2, [r3, r1]
 109              	.L5:
  70:Dsp/widget/wgt_core/GenDsp.c ****     }
  71:Dsp/widget/wgt_core/GenDsp.c ****     else
  72:Dsp/widget/wgt_core/GenDsp.c ****         map[y][x] = 0;
  73:Dsp/widget/wgt_core/GenDsp.c **** }
 110              		.loc 1 73 1 view .LVU24
 111 001c 5DF8044B 		ldr	r4, [sp], #4
 112              	.LCFI3:
 113              		.cfi_remember_state
 114              		.cfi_restore 4
 115              		.cfi_def_cfa_offset 0
 116 0020 7047     		bx	lr
 117              	.LVL4:
 118              	.L7:
 119              	.LCFI4:
 120              		.cfi_restore_state
  72:Dsp/widget/wgt_core/GenDsp.c **** }
 121              		.loc 1 72 9 is_stmt 1 view .LVU25
  72:Dsp/widget/wgt_core/GenDsp.c **** }
 122              		.loc 1 72 12 is_stmt 0 view .LVU26
 123 0022 50F82230 		ldr	r3, [r0, r2, lsl #2]
 124              	.LVL5:
  72:Dsp/widget/wgt_core/GenDsp.c **** }
 125              		.loc 1 72 19 view .LVU27
 126 0026 0022     		movs	r2, #0
 127              	.LVL6:
  72:Dsp/widget/wgt_core/GenDsp.c **** }
 128              		.loc 1 72 19 view .LVU28
 129 0028 5A54     		strb	r2, [r3, r1]
 130 002a F7E7     		b	.L5
 131              	.L10:
 132              		.align	2
 133              	.L9:
 134 002c 00000000 		.word	.LANCHOR0
 135              		.cfi_endproc
 136              	.LFE4:
 138              		.section	.text.GenDsp_DrawChar,"ax",%progbits
 139              		.align	1
 140              		.syntax unified
 141              		.thumb
 142              		.thumb_func
 143              		.fpu fpv4-sp-d16
 145              	GenDsp_DrawChar:
 146              	.LVL7:
 147              	.LFB5:
  74:Dsp/widget/wgt_core/GenDsp.c **** 
  75:Dsp/widget/wgt_core/GenDsp.c **** static bool GenDsp_DrawChar(GenFont_List font, uint8_t **map, char c, uint8_t x, uint8_t y, bool co
  76:Dsp/widget/wgt_core/GenDsp.c **** {
 148              		.loc 1 76 1 is_stmt 1 view -0
 149              		.cfi_startproc
 150              		@ args = 8, pretend = 0, frame = 8
 151              		@ frame_needed = 0, uses_anonymous_args = 0
 152              		.loc 1 76 1 is_stmt 0 view .LVU30
 153 0000 2DE9F04F 		push	{r4, r5, r6, r7, r8, r9, r10, fp, lr}
ARM GAS  /var/folders/lx/hc4sn_b53233_zkc9xbbl97r0000gp/T//cchyr23l.s 			page 5


 154              	.LCFI5:
 155              		.cfi_def_cfa_offset 36
 156              		.cfi_offset 4, -36
 157              		.cfi_offset 5, -32
 158              		.cfi_offset 6, -28
 159              		.cfi_offset 7, -24
 160              		.cfi_offset 8, -20
 161              		.cfi_offset 9, -16
 162              		.cfi_offset 10, -12
 163              		.cfi_offset 11, -8
 164              		.cfi_offset 14, -4
 165 0004 83B0     		sub	sp, sp, #12
 166              	.LCFI6:
 167              		.cfi_def_cfa_offset 48
 168 0006 1F46     		mov	r7, r3
 169 0008 9DF830A0 		ldrb	r10, [sp, #48]	@ zero_extendqisi2
 170 000c 9DF834B0 		ldrb	fp, [sp, #52]	@ zero_extendqisi2
  77:Dsp/widget/wgt_core/GenDsp.c ****     uint8_t temp;
 171              		.loc 1 77 5 is_stmt 1 view .LVU31
  78:Dsp/widget/wgt_core/GenDsp.c ****     uint8_t y0 = y;
 172              		.loc 1 78 5 view .LVU32
 173              	.LVL8:
  79:Dsp/widget/wgt_core/GenDsp.c ****     c -= ' ';
 174              		.loc 1 79 5 view .LVU33
 175              		.loc 1 79 7 is_stmt 0 view .LVU34
 176 0010 203A     		subs	r2, r2, #32
 177              	.LVL9:
 178              		.loc 1 79 7 view .LVU35
 179 0012 D3B2     		uxtb	r3, r2
 180              	.LVL10:
 181              		.loc 1 79 7 view .LVU36
 182 0014 0193     		str	r3, [sp, #4]
 183              	.LVL11:
  80:Dsp/widget/wgt_core/GenDsp.c **** 
  81:Dsp/widget/wgt_core/GenDsp.c ****     if (DspRange.width <= x)
 184              		.loc 1 81 5 is_stmt 1 view .LVU37
 185              		.loc 1 81 17 is_stmt 0 view .LVU38
 186 0016 2F4B     		ldr	r3, .L29
 187 0018 9B78     		ldrb	r3, [r3, #2]	@ zero_extendqisi2
 188              		.loc 1 81 8 view .LVU39
 189 001a BB42     		cmp	r3, r7
 190 001c 54D9     		bls	.L23
 191 001e 8146     		mov	r9, r0
 192 0020 8846     		mov	r8, r1
 193 0022 5446     		mov	r4, r10
 194              	.LBB2:
  82:Dsp/widget/wgt_core/GenDsp.c ****         return false;
  83:Dsp/widget/wgt_core/GenDsp.c **** 
  84:Dsp/widget/wgt_core/GenDsp.c ****     for (uint8_t t = 0; t < font; t++)
 195              		.loc 1 84 18 view .LVU40
 196 0024 0023     		movs	r3, #0
 197 0026 0093     		str	r3, [sp]
 198 0028 3EE0     		b	.L13
 199              	.LVL12:
 200              	.L28:
  85:Dsp/widget/wgt_core/GenDsp.c ****     {
  86:Dsp/widget/wgt_core/GenDsp.c ****         if (font == Font_12)
ARM GAS  /var/folders/lx/hc4sn_b53233_zkc9xbbl97r0000gp/T//cchyr23l.s 			page 6


  87:Dsp/widget/wgt_core/GenDsp.c ****             temp = oled_asc2_1206[c][t];
 201              		.loc 1 87 13 is_stmt 1 view .LVU41
 202              		.loc 1 87 18 is_stmt 0 view .LVU42
 203 002a 019B     		ldr	r3, [sp, #4]
 204 002c 03EB4303 		add	r3, r3, r3, lsl #1
 205 0030 294A     		ldr	r2, .L29+4
 206 0032 02EB8303 		add	r3, r2, r3, lsl #2
 207 0036 009A     		ldr	r2, [sp]
 208 0038 9E5C     		ldrb	r6, [r3, r2]	@ zero_extendqisi2
 209              	.LVL13:
 210              		.loc 1 87 18 view .LVU43
 211 003a 41E0     		b	.L15
 212              	.LVL14:
 213              	.L16:
 214              	.LBB3:
  88:Dsp/widget/wgt_core/GenDsp.c ****         else
  89:Dsp/widget/wgt_core/GenDsp.c ****             temp = oled_asc2_1608[c][t];
  90:Dsp/widget/wgt_core/GenDsp.c **** 
  91:Dsp/widget/wgt_core/GenDsp.c ****         for (uint8_t bit_index = 0; bit_index < FONT_WIDTH; bit_index++)
  92:Dsp/widget/wgt_core/GenDsp.c ****         {
  93:Dsp/widget/wgt_core/GenDsp.c ****             if ((DspRange.x + DspRange.width) <= x)
  94:Dsp/widget/wgt_core/GenDsp.c ****                 return false;
  95:Dsp/widget/wgt_core/GenDsp.c **** 
  96:Dsp/widget/wgt_core/GenDsp.c ****             if (temp & 0x80)
  97:Dsp/widget/wgt_core/GenDsp.c ****                 GenDsp_DrawPoint(map, x, y, col_inv ^ map[y][x]);
  98:Dsp/widget/wgt_core/GenDsp.c ****             else
  99:Dsp/widget/wgt_core/GenDsp.c ****                 GenDsp_DrawPoint(map, x, y, !col_inv ^ map[y][x]);
 215              		.loc 1 99 17 is_stmt 1 view .LVU44
 216              		.loc 1 99 45 is_stmt 0 view .LVU45
 217 003c 8BF00103 		eor	r3, fp, #1
 218              		.loc 1 99 59 view .LVU46
 219 0040 58F82420 		ldr	r2, [r8, r4, lsl #2]
 220              		.loc 1 99 62 view .LVU47
 221 0044 D25D     		ldrb	r2, [r2, r7]	@ zero_extendqisi2
 222              		.loc 1 99 17 view .LVU48
 223 0046 9B1A     		subs	r3, r3, r2
 224 0048 18BF     		it	ne
 225 004a 0123     		movne	r3, #1
 226 004c 2246     		mov	r2, r4
 227 004e 3946     		mov	r1, r7
 228 0050 4046     		mov	r0, r8
 229 0052 FFF7FEFF 		bl	GenDsp_DrawPoint
 230              	.LVL15:
 231              	.L17:
 100:Dsp/widget/wgt_core/GenDsp.c **** 
 101:Dsp/widget/wgt_core/GenDsp.c ****             temp <<= 1;
 232              		.loc 1 101 13 is_stmt 1 view .LVU49
 233              		.loc 1 101 18 is_stmt 0 view .LVU50
 234 0056 7600     		lsls	r6, r6, #1
 235              	.LVL16:
 236              		.loc 1 101 18 view .LVU51
 237 0058 F6B2     		uxtb	r6, r6
 238              	.LVL17:
 102:Dsp/widget/wgt_core/GenDsp.c **** 
 103:Dsp/widget/wgt_core/GenDsp.c ****             y++;
 239              		.loc 1 103 13 is_stmt 1 view .LVU52
 240              		.loc 1 103 14 is_stmt 0 view .LVU53
ARM GAS  /var/folders/lx/hc4sn_b53233_zkc9xbbl97r0000gp/T//cchyr23l.s 			page 7


 241 005a 0134     		adds	r4, r4, #1
 242              	.LVL18:
 243              		.loc 1 103 14 view .LVU54
 244 005c E4B2     		uxtb	r4, r4
 245              	.LVL19:
 104:Dsp/widget/wgt_core/GenDsp.c ****             if ((y - y0) >= font)
 246              		.loc 1 104 13 is_stmt 1 view .LVU55
 247              		.loc 1 104 20 is_stmt 0 view .LVU56
 248 005e A4EB0A03 		sub	r3, r4, r10
 249              		.loc 1 104 16 view .LVU57
 250 0062 4B45     		cmp	r3, r9
 251 0064 19DA     		bge	.L26
  91:Dsp/widget/wgt_core/GenDsp.c ****         {
 252              		.loc 1 91 61 is_stmt 1 discriminator 2 view .LVU58
  91:Dsp/widget/wgt_core/GenDsp.c ****         {
 253              		.loc 1 91 70 is_stmt 0 discriminator 2 view .LVU59
 254 0066 0135     		adds	r5, r5, #1
 255              	.LVL20:
  91:Dsp/widget/wgt_core/GenDsp.c ****         {
 256              		.loc 1 91 70 discriminator 2 view .LVU60
 257 0068 EDB2     		uxtb	r5, r5
 258              	.LVL21:
 259              	.L20:
  91:Dsp/widget/wgt_core/GenDsp.c ****         {
 260              		.loc 1 91 37 is_stmt 1 discriminator 1 view .LVU61
  91:Dsp/widget/wgt_core/GenDsp.c ****         {
 261              		.loc 1 91 9 is_stmt 0 discriminator 1 view .LVU62
 262 006a 072D     		cmp	r5, #7
 263 006c 18D8     		bhi	.L19
  93:Dsp/widget/wgt_core/GenDsp.c ****                 return false;
 264              		.loc 1 93 13 is_stmt 1 view .LVU63
  93:Dsp/widget/wgt_core/GenDsp.c ****                 return false;
 265              		.loc 1 93 26 is_stmt 0 view .LVU64
 266 006e 194A     		ldr	r2, .L29
 267 0070 1378     		ldrb	r3, [r2]	@ zero_extendqisi2
  93:Dsp/widget/wgt_core/GenDsp.c ****                 return false;
 268              		.loc 1 93 39 view .LVU65
 269 0072 9278     		ldrb	r2, [r2, #2]	@ zero_extendqisi2
  93:Dsp/widget/wgt_core/GenDsp.c ****                 return false;
 270              		.loc 1 93 29 view .LVU66
 271 0074 1344     		add	r3, r3, r2
  93:Dsp/widget/wgt_core/GenDsp.c ****                 return false;
 272              		.loc 1 93 16 view .LVU67
 273 0076 BB42     		cmp	r3, r7
 274 0078 28DD     		ble	.L24
  96:Dsp/widget/wgt_core/GenDsp.c ****                 GenDsp_DrawPoint(map, x, y, col_inv ^ map[y][x]);
 275              		.loc 1 96 13 is_stmt 1 view .LVU68
  96:Dsp/widget/wgt_core/GenDsp.c ****                 GenDsp_DrawPoint(map, x, y, col_inv ^ map[y][x]);
 276              		.loc 1 96 16 is_stmt 0 view .LVU69
 277 007a 16F0800F 		tst	r6, #128
 278 007e DDD0     		beq	.L16
  97:Dsp/widget/wgt_core/GenDsp.c ****             else
 279              		.loc 1 97 17 is_stmt 1 view .LVU70
  97:Dsp/widget/wgt_core/GenDsp.c ****             else
 280              		.loc 1 97 58 is_stmt 0 view .LVU71
 281 0080 58F82430 		ldr	r3, [r8, r4, lsl #2]
  97:Dsp/widget/wgt_core/GenDsp.c ****             else
ARM GAS  /var/folders/lx/hc4sn_b53233_zkc9xbbl97r0000gp/T//cchyr23l.s 			page 8


 282              		.loc 1 97 61 view .LVU72
 283 0084 DB5D     		ldrb	r3, [r3, r7]	@ zero_extendqisi2
  97:Dsp/widget/wgt_core/GenDsp.c ****             else
 284              		.loc 1 97 17 view .LVU73
 285 0086 BBEB0303 		subs	r3, fp, r3
 286 008a 18BF     		it	ne
 287 008c 0123     		movne	r3, #1
 288 008e 2246     		mov	r2, r4
 289 0090 3946     		mov	r1, r7
 290 0092 4046     		mov	r0, r8
 291 0094 FFF7FEFF 		bl	GenDsp_DrawPoint
 292              	.LVL22:
 293 0098 DDE7     		b	.L17
 294              	.L26:
 105:Dsp/widget/wgt_core/GenDsp.c ****             {
 106:Dsp/widget/wgt_core/GenDsp.c ****                 y = y0;
 295              		.loc 1 106 17 is_stmt 1 view .LVU74
 296              	.LVL23:
 107:Dsp/widget/wgt_core/GenDsp.c ****                 x++;
 297              		.loc 1 107 17 view .LVU75
 298              		.loc 1 107 18 is_stmt 0 view .LVU76
 299 009a 0137     		adds	r7, r7, #1
 300              	.LVL24:
 301              		.loc 1 107 18 view .LVU77
 302 009c FFB2     		uxtb	r7, r7
 303              	.LVL25:
 108:Dsp/widget/wgt_core/GenDsp.c **** 
 109:Dsp/widget/wgt_core/GenDsp.c ****                 break;
 304              		.loc 1 109 17 is_stmt 1 view .LVU78
 106:Dsp/widget/wgt_core/GenDsp.c ****                 x++;
 305              		.loc 1 106 19 is_stmt 0 view .LVU79
 306 009e 5446     		mov	r4, r10
 307              	.LVL26:
 308              	.L19:
 106:Dsp/widget/wgt_core/GenDsp.c ****                 x++;
 309              		.loc 1 106 19 view .LVU80
 310              	.LBE3:
  84:Dsp/widget/wgt_core/GenDsp.c ****     {
 311              		.loc 1 84 35 is_stmt 1 discriminator 2 view .LVU81
  84:Dsp/widget/wgt_core/GenDsp.c ****     {
 312              		.loc 1 84 36 is_stmt 0 discriminator 2 view .LVU82
 313 00a0 009B     		ldr	r3, [sp]
 314 00a2 0133     		adds	r3, r3, #1
 315 00a4 DBB2     		uxtb	r3, r3
 316 00a6 0093     		str	r3, [sp]
 317              	.LVL27:
 318              	.L13:
  84:Dsp/widget/wgt_core/GenDsp.c ****     {
 319              		.loc 1 84 25 is_stmt 1 discriminator 1 view .LVU83
  84:Dsp/widget/wgt_core/GenDsp.c ****     {
 320              		.loc 1 84 5 is_stmt 0 discriminator 1 view .LVU84
 321 00a8 009B     		ldr	r3, [sp]
 322 00aa 4B45     		cmp	r3, r9
 323 00ac 0AD2     		bcs	.L27
  86:Dsp/widget/wgt_core/GenDsp.c ****             temp = oled_asc2_1206[c][t];
 324              		.loc 1 86 9 is_stmt 1 view .LVU85
  86:Dsp/widget/wgt_core/GenDsp.c ****             temp = oled_asc2_1206[c][t];
ARM GAS  /var/folders/lx/hc4sn_b53233_zkc9xbbl97r0000gp/T//cchyr23l.s 			page 9


 325              		.loc 1 86 12 is_stmt 0 view .LVU86
 326 00ae B9F10C0F 		cmp	r9, #12
 327 00b2 BAD0     		beq	.L28
  89:Dsp/widget/wgt_core/GenDsp.c **** 
 328              		.loc 1 89 13 is_stmt 1 view .LVU87
  89:Dsp/widget/wgt_core/GenDsp.c **** 
 329              		.loc 1 89 18 is_stmt 0 view .LVU88
 330 00b4 094B     		ldr	r3, .L29+8
 331 00b6 019A     		ldr	r2, [sp, #4]
 332 00b8 03EB0213 		add	r3, r3, r2, lsl #4
 333 00bc 009A     		ldr	r2, [sp]
 334 00be 9E5C     		ldrb	r6, [r3, r2]	@ zero_extendqisi2
 335              	.LVL28:
 336              	.L15:
  89:Dsp/widget/wgt_core/GenDsp.c **** 
 337              		.loc 1 89 18 view .LVU89
 338              	.LBE2:
  76:Dsp/widget/wgt_core/GenDsp.c ****     uint8_t temp;
 339              		.loc 1 76 1 discriminator 1 view .LVU90
 340 00c0 0025     		movs	r5, #0
 341 00c2 D2E7     		b	.L20
 342              	.LVL29:
 343              	.L27:
 110:Dsp/widget/wgt_core/GenDsp.c ****             }
 111:Dsp/widget/wgt_core/GenDsp.c ****         }
 112:Dsp/widget/wgt_core/GenDsp.c ****     }
 113:Dsp/widget/wgt_core/GenDsp.c **** 
 114:Dsp/widget/wgt_core/GenDsp.c ****     return true;
 344              		.loc 1 114 12 view .LVU91
 345 00c4 0120     		movs	r0, #1
 346              	.LBB5:
 347 00c6 02E0     		b	.L12
 348              	.LVL30:
 349              	.L23:
 350              		.loc 1 114 12 view .LVU92
 351              	.LBE5:
  82:Dsp/widget/wgt_core/GenDsp.c **** 
 352              		.loc 1 82 16 view .LVU93
 353 00c8 0020     		movs	r0, #0
 354              	.LVL31:
  82:Dsp/widget/wgt_core/GenDsp.c **** 
 355              		.loc 1 82 16 view .LVU94
 356 00ca 00E0     		b	.L12
 357              	.LVL32:
 358              	.L24:
 359              	.LBB6:
 360              	.LBB4:
  94:Dsp/widget/wgt_core/GenDsp.c **** 
 361              		.loc 1 94 24 view .LVU95
 362 00cc 0020     		movs	r0, #0
 363              	.LVL33:
 364              	.L12:
  94:Dsp/widget/wgt_core/GenDsp.c **** 
 365              		.loc 1 94 24 view .LVU96
 366              	.LBE4:
 367              	.LBE6:
 115:Dsp/widget/wgt_core/GenDsp.c **** }
ARM GAS  /var/folders/lx/hc4sn_b53233_zkc9xbbl97r0000gp/T//cchyr23l.s 			page 10


 368              		.loc 1 115 1 view .LVU97
 369 00ce 03B0     		add	sp, sp, #12
 370              	.LCFI7:
 371              		.cfi_def_cfa_offset 36
 372              		@ sp needed
 373 00d0 BDE8F08F 		pop	{r4, r5, r6, r7, r8, r9, r10, fp, pc}
 374              	.LVL34:
 375              	.L30:
 376              		.loc 1 115 1 view .LVU98
 377              		.align	2
 378              	.L29:
 379 00d4 00000000 		.word	.LANCHOR0
 380 00d8 00000000 		.word	oled_asc2_1206
 381 00dc 00000000 		.word	oled_asc2_1608
 382              		.cfi_endproc
 383              	.LFE5:
 385              		.section	.text.GenDsp_DrawStr,"ax",%progbits
 386              		.align	1
 387              		.syntax unified
 388              		.thumb
 389              		.thumb_func
 390              		.fpu fpv4-sp-d16
 392              	GenDsp_DrawStr:
 393              	.LVL35:
 394              	.LFB6:
 116:Dsp/widget/wgt_core/GenDsp.c **** 
 117:Dsp/widget/wgt_core/GenDsp.c **** static void GenDsp_DrawStr(GenFont_List font, uint8_t **map, char *str, uint8_t x, uint8_t y, bool 
 118:Dsp/widget/wgt_core/GenDsp.c **** {
 395              		.loc 1 118 1 is_stmt 1 view -0
 396              		.cfi_startproc
 397              		@ args = 8, pretend = 0, frame = 0
 398              		@ frame_needed = 0, uses_anonymous_args = 0
 399              		.loc 1 118 1 is_stmt 0 view .LVU100
 400 0000 2DE9F043 		push	{r4, r5, r6, r7, r8, r9, lr}
 401              	.LCFI8:
 402              		.cfi_def_cfa_offset 28
 403              		.cfi_offset 4, -28
 404              		.cfi_offset 5, -24
 405              		.cfi_offset 6, -20
 406              		.cfi_offset 7, -16
 407              		.cfi_offset 8, -12
 408              		.cfi_offset 9, -8
 409              		.cfi_offset 14, -4
 410 0004 83B0     		sub	sp, sp, #12
 411              	.LCFI9:
 412              		.cfi_def_cfa_offset 40
 413 0006 0746     		mov	r7, r0
 414 0008 0E46     		mov	r6, r1
 415 000a 1546     		mov	r5, r2
 416 000c 1C46     		mov	r4, r3
 417 000e 9DF82890 		ldrb	r9, [sp, #40]	@ zero_extendqisi2
 418 0012 9DF82C80 		ldrb	r8, [sp, #44]	@ zero_extendqisi2
 119:Dsp/widget/wgt_core/GenDsp.c ****     while (*str != '\0')
 419              		.loc 1 119 5 is_stmt 1 view .LVU101
 420              		.loc 1 119 11 is_stmt 0 view .LVU102
 421 0016 02E0     		b	.L32
 422              	.LVL36:
ARM GAS  /var/folders/lx/hc4sn_b53233_zkc9xbbl97r0000gp/T//cchyr23l.s 			page 11


 423              	.L36:
 120:Dsp/widget/wgt_core/GenDsp.c ****     {
 121:Dsp/widget/wgt_core/GenDsp.c ****         if (GenDsp_DrawChar(font, map, *str, x, y, col_inv))
 122:Dsp/widget/wgt_core/GenDsp.c ****         {
 123:Dsp/widget/wgt_core/GenDsp.c ****             x += FONT_WIDTH;
 424              		.loc 1 123 13 is_stmt 1 view .LVU103
 425              		.loc 1 123 15 is_stmt 0 view .LVU104
 426 0018 0834     		adds	r4, r4, #8
 427              	.LVL37:
 428              		.loc 1 123 15 view .LVU105
 429 001a E4B2     		uxtb	r4, r4
 430              	.LVL38:
 124:Dsp/widget/wgt_core/GenDsp.c ****             str++;
 431              		.loc 1 124 13 is_stmt 1 view .LVU106
 432              		.loc 1 124 16 is_stmt 0 view .LVU107
 433 001c 0135     		adds	r5, r5, #1
 434              	.LVL39:
 435              	.L32:
 119:Dsp/widget/wgt_core/GenDsp.c ****     while (*str != '\0')
 436              		.loc 1 119 11 is_stmt 1 view .LVU108
 119:Dsp/widget/wgt_core/GenDsp.c ****     while (*str != '\0')
 437              		.loc 1 119 12 is_stmt 0 view .LVU109
 438 001e 2A78     		ldrb	r2, [r5]	@ zero_extendqisi2
 119:Dsp/widget/wgt_core/GenDsp.c ****     while (*str != '\0')
 439              		.loc 1 119 11 view .LVU110
 440 0020 52B1     		cbz	r2, .L31
 121:Dsp/widget/wgt_core/GenDsp.c ****         {
 441              		.loc 1 121 9 is_stmt 1 view .LVU111
 121:Dsp/widget/wgt_core/GenDsp.c ****         {
 442              		.loc 1 121 13 is_stmt 0 view .LVU112
 443 0022 CDF80480 		str	r8, [sp, #4]
 444 0026 CDF80090 		str	r9, [sp]
 445 002a 2346     		mov	r3, r4
 446 002c 3146     		mov	r1, r6
 447 002e 3846     		mov	r0, r7
 448 0030 FFF7FEFF 		bl	GenDsp_DrawChar
 449              	.LVL40:
 121:Dsp/widget/wgt_core/GenDsp.c ****         {
 450              		.loc 1 121 12 view .LVU113
 451 0034 0028     		cmp	r0, #0
 452 0036 EFD1     		bne	.L36
 453              	.L31:
 125:Dsp/widget/wgt_core/GenDsp.c ****         }
 126:Dsp/widget/wgt_core/GenDsp.c ****         else
 127:Dsp/widget/wgt_core/GenDsp.c ****             break;
 128:Dsp/widget/wgt_core/GenDsp.c ****     }
 129:Dsp/widget/wgt_core/GenDsp.c **** }
 454              		.loc 1 129 1 view .LVU114
 455 0038 03B0     		add	sp, sp, #12
 456              	.LCFI10:
 457              		.cfi_def_cfa_offset 28
 458              		@ sp needed
 459 003a BDE8F083 		pop	{r4, r5, r6, r7, r8, r9, pc}
 460              		.loc 1 129 1 view .LVU115
 461              		.cfi_endproc
 462              	.LFE6:
 464              		.section	.text.GenDsp_GetStrLen,"ax",%progbits
ARM GAS  /var/folders/lx/hc4sn_b53233_zkc9xbbl97r0000gp/T//cchyr23l.s 			page 12


 465              		.align	1
 466              		.syntax unified
 467              		.thumb
 468              		.thumb_func
 469              		.fpu fpv4-sp-d16
 471              	GenDsp_GetStrLen:
 472              	.LVL41:
 473              	.LFB8:
 130:Dsp/widget/wgt_core/GenDsp.c **** 
 131:Dsp/widget/wgt_core/GenDsp.c **** static void GenDsp_DrawNum(GenFont_List font, uint8_t **map, uint32_t num, uint8_t x, uint8_t y, bo
 132:Dsp/widget/wgt_core/GenDsp.c **** {
 133:Dsp/widget/wgt_core/GenDsp.c ****     char num_buff[MAX_DSP_NUM_LEN];
 134:Dsp/widget/wgt_core/GenDsp.c **** 
 135:Dsp/widget/wgt_core/GenDsp.c ****     sprintf(num_buff, "%d", num);
 136:Dsp/widget/wgt_core/GenDsp.c ****     GenDsp_DrawStr(font, map, num_buff, x, y, col_inv);
 137:Dsp/widget/wgt_core/GenDsp.c **** }
 138:Dsp/widget/wgt_core/GenDsp.c **** 
 139:Dsp/widget/wgt_core/GenDsp.c **** static uint8_t GenDsp_GetStrLen(GenFont_List font, char *str)
 140:Dsp/widget/wgt_core/GenDsp.c **** {
 474              		.loc 1 140 1 is_stmt 1 view -0
 475              		.cfi_startproc
 476              		@ args = 0, pretend = 0, frame = 0
 477              		@ frame_needed = 0, uses_anonymous_args = 0
 478              		@ link register save eliminated.
 141:Dsp/widget/wgt_core/GenDsp.c ****     uint8_t len = 0;
 479              		.loc 1 141 5 view .LVU117
 142:Dsp/widget/wgt_core/GenDsp.c **** 
 143:Dsp/widget/wgt_core/GenDsp.c ****     while (*str != '\0')
 480              		.loc 1 143 5 view .LVU118
 141:Dsp/widget/wgt_core/GenDsp.c ****     uint8_t len = 0;
 481              		.loc 1 141 13 is_stmt 0 view .LVU119
 482 0000 0020     		movs	r0, #0
 483              	.LVL42:
 484              		.loc 1 143 11 view .LVU120
 485 0002 02E0     		b	.L38
 486              	.LVL43:
 487              	.L39:
 144:Dsp/widget/wgt_core/GenDsp.c ****     {
 145:Dsp/widget/wgt_core/GenDsp.c ****         len += FONT_WIDTH;
 488              		.loc 1 145 9 is_stmt 1 view .LVU121
 489              		.loc 1 145 13 is_stmt 0 view .LVU122
 490 0004 0830     		adds	r0, r0, #8
 491              	.LVL44:
 492              		.loc 1 145 13 view .LVU123
 493 0006 C0B2     		uxtb	r0, r0
 494              	.LVL45:
 146:Dsp/widget/wgt_core/GenDsp.c ****         str++;
 495              		.loc 1 146 9 is_stmt 1 view .LVU124
 496              		.loc 1 146 12 is_stmt 0 view .LVU125
 497 0008 0131     		adds	r1, r1, #1
 498              	.LVL46:
 499              	.L38:
 143:Dsp/widget/wgt_core/GenDsp.c ****     {
 500              		.loc 1 143 11 is_stmt 1 view .LVU126
 143:Dsp/widget/wgt_core/GenDsp.c ****     {
 501              		.loc 1 143 12 is_stmt 0 view .LVU127
 502 000a 0B78     		ldrb	r3, [r1]	@ zero_extendqisi2
ARM GAS  /var/folders/lx/hc4sn_b53233_zkc9xbbl97r0000gp/T//cchyr23l.s 			page 13


 143:Dsp/widget/wgt_core/GenDsp.c ****     {
 503              		.loc 1 143 11 view .LVU128
 504 000c 002B     		cmp	r3, #0
 505 000e F9D1     		bne	.L39
 147:Dsp/widget/wgt_core/GenDsp.c ****     }
 148:Dsp/widget/wgt_core/GenDsp.c **** 
 149:Dsp/widget/wgt_core/GenDsp.c ****     return len;
 506              		.loc 1 149 5 is_stmt 1 view .LVU129
 150:Dsp/widget/wgt_core/GenDsp.c **** }
 507              		.loc 1 150 1 is_stmt 0 view .LVU130
 508 0010 7047     		bx	lr
 509              		.cfi_endproc
 510              	.LFE8:
 512              		.section	.text.GenDsp_DrawLen,"ax",%progbits
 513              		.align	1
 514              		.syntax unified
 515              		.thumb
 516              		.thumb_func
 517              		.fpu fpv4-sp-d16
 519              	GenDsp_DrawLen:
 520              	.LVL47:
 521              	.LFB9:
 151:Dsp/widget/wgt_core/GenDsp.c **** 
 152:Dsp/widget/wgt_core/GenDsp.c **** static void GenDsp_DrawLen(uint8_t **map, uint8_t start_x, uint8_t start_y, uint8_t end_x, uint8_t 
 153:Dsp/widget/wgt_core/GenDsp.c **** {
 522              		.loc 1 153 1 is_stmt 1 view -0
 523              		.cfi_startproc
 524              		@ args = 8, pretend = 0, frame = 16
 525              		@ frame_needed = 0, uses_anonymous_args = 0
 526              		.loc 1 153 1 is_stmt 0 view .LVU132
 527 0000 2DE9F04F 		push	{r4, r5, r6, r7, r8, r9, r10, fp, lr}
 528              	.LCFI11:
 529              		.cfi_def_cfa_offset 36
 530              		.cfi_offset 4, -36
 531              		.cfi_offset 5, -32
 532              		.cfi_offset 6, -28
 533              		.cfi_offset 7, -24
 534              		.cfi_offset 8, -20
 535              		.cfi_offset 9, -16
 536              		.cfi_offset 10, -12
 537              		.cfi_offset 11, -8
 538              		.cfi_offset 14, -4
 539 0004 85B0     		sub	sp, sp, #20
 540              	.LCFI12:
 541              		.cfi_def_cfa_offset 56
 542 0006 0190     		str	r0, [sp, #4]
 543 0008 8846     		mov	r8, r1
 544 000a 9146     		mov	r9, r2
 545 000c 9DF83820 		ldrb	r2, [sp, #56]	@ zero_extendqisi2
 546              	.LVL48:
 154:Dsp/widget/wgt_core/GenDsp.c ****     int8_t xerr = 0;
 547              		.loc 1 154 5 is_stmt 1 view .LVU133
 155:Dsp/widget/wgt_core/GenDsp.c ****     int8_t yerr = 0;
 548              		.loc 1 155 5 view .LVU134
 156:Dsp/widget/wgt_core/GenDsp.c ****     int8_t delta_x = end_x - start_x;
 549              		.loc 1 156 5 view .LVU135
 550              		.loc 1 156 28 is_stmt 0 view .LVU136
ARM GAS  /var/folders/lx/hc4sn_b53233_zkc9xbbl97r0000gp/T//cchyr23l.s 			page 14


 551 0010 A3EB010A 		sub	r10, r3, r1
 552              		.loc 1 156 12 view .LVU137
 553 0014 4FFA8AFA 		sxtb	r10, r10
 554              	.LVL49:
 157:Dsp/widget/wgt_core/GenDsp.c ****     int8_t delta_y = end_y - start_y;
 555              		.loc 1 157 5 is_stmt 1 view .LVU138
 556              		.loc 1 157 28 is_stmt 0 view .LVU139
 557 0018 A2EB090B 		sub	fp, r2, r9
 558              		.loc 1 157 12 view .LVU140
 559 001c 4FFA8BFB 		sxtb	fp, fp
 560              	.LVL50:
 158:Dsp/widget/wgt_core/GenDsp.c ****     int16_t distance;
 561              		.loc 1 158 5 is_stmt 1 view .LVU141
 159:Dsp/widget/wgt_core/GenDsp.c ****     uint8_t uRow = start_x;
 562              		.loc 1 159 5 view .LVU142
 160:Dsp/widget/wgt_core/GenDsp.c ****     uint8_t uCol = start_y;
 563              		.loc 1 160 5 view .LVU143
 161:Dsp/widget/wgt_core/GenDsp.c **** 
 162:Dsp/widget/wgt_core/GenDsp.c ****     int8_t incx, incy;
 564              		.loc 1 162 5 view .LVU144
 163:Dsp/widget/wgt_core/GenDsp.c **** 
 164:Dsp/widget/wgt_core/GenDsp.c ****     if (delta_x > 0)
 565              		.loc 1 164 5 view .LVU145
 566              		.loc 1 164 8 is_stmt 0 view .LVU146
 567 0020 BAF1000F 		cmp	r10, #0
 568 0024 0EDD     		ble	.L54
 165:Dsp/widget/wgt_core/GenDsp.c ****     {
 166:Dsp/widget/wgt_core/GenDsp.c ****         incx = 1;
 569              		.loc 1 166 14 view .LVU147
 570 0026 0123     		movs	r3, #1
 571              	.LVL51:
 572              		.loc 1 166 14 view .LVU148
 573 0028 0293     		str	r3, [sp, #8]
 574              	.L41:
 575              	.LVL52:
 167:Dsp/widget/wgt_core/GenDsp.c ****     }
 168:Dsp/widget/wgt_core/GenDsp.c ****     else if (delta_x == 0)
 169:Dsp/widget/wgt_core/GenDsp.c ****     {
 170:Dsp/widget/wgt_core/GenDsp.c ****         incx = 0;
 171:Dsp/widget/wgt_core/GenDsp.c ****     }
 172:Dsp/widget/wgt_core/GenDsp.c ****     else
 173:Dsp/widget/wgt_core/GenDsp.c ****     {
 174:Dsp/widget/wgt_core/GenDsp.c ****         incx = -1;
 175:Dsp/widget/wgt_core/GenDsp.c ****         delta_x = -delta_x;
 176:Dsp/widget/wgt_core/GenDsp.c ****     }
 177:Dsp/widget/wgt_core/GenDsp.c **** 
 178:Dsp/widget/wgt_core/GenDsp.c ****     if (delta_y > 0)
 576              		.loc 1 178 5 is_stmt 1 view .LVU149
 577              		.loc 1 178 8 is_stmt 0 view .LVU150
 578 002a BBF1000F 		cmp	fp, #0
 579 002e 16DD     		ble	.L55
 179:Dsp/widget/wgt_core/GenDsp.c ****     {
 180:Dsp/widget/wgt_core/GenDsp.c ****         incy = 1;
 580              		.loc 1 180 14 view .LVU151
 581 0030 0123     		movs	r3, #1
 582 0032 0393     		str	r3, [sp, #12]
 583              	.L42:
ARM GAS  /var/folders/lx/hc4sn_b53233_zkc9xbbl97r0000gp/T//cchyr23l.s 			page 15


 584              	.LVL53:
 181:Dsp/widget/wgt_core/GenDsp.c ****     }
 182:Dsp/widget/wgt_core/GenDsp.c ****     else if (delta_y == 0)
 183:Dsp/widget/wgt_core/GenDsp.c ****     {
 184:Dsp/widget/wgt_core/GenDsp.c ****         incy = 0;
 185:Dsp/widget/wgt_core/GenDsp.c ****     }
 186:Dsp/widget/wgt_core/GenDsp.c ****     else
 187:Dsp/widget/wgt_core/GenDsp.c ****     {
 188:Dsp/widget/wgt_core/GenDsp.c ****         incy = -1;
 189:Dsp/widget/wgt_core/GenDsp.c ****         delta_y = -delta_y;
 190:Dsp/widget/wgt_core/GenDsp.c ****     }
 191:Dsp/widget/wgt_core/GenDsp.c **** 
 192:Dsp/widget/wgt_core/GenDsp.c ****     if (delta_x > delta_y)
 585              		.loc 1 192 5 is_stmt 1 view .LVU152
 586              		.loc 1 192 8 is_stmt 0 view .LVU153
 587 0034 DA45     		cmp	r10, fp
 588 0036 20DD     		ble	.L43
 193:Dsp/widget/wgt_core/GenDsp.c ****     {
 194:Dsp/widget/wgt_core/GenDsp.c ****         distance = delta_x;
 589              		.loc 1 194 9 is_stmt 1 view .LVU154
 590              		.loc 1 194 18 is_stmt 0 view .LVU155
 591 0038 0FFA8AF7 		sxth	r7, r10
 592              	.LVL54:
 593              	.L44:
 195:Dsp/widget/wgt_core/GenDsp.c ****     }
 196:Dsp/widget/wgt_core/GenDsp.c ****     else
 197:Dsp/widget/wgt_core/GenDsp.c ****     {
 198:Dsp/widget/wgt_core/GenDsp.c ****         distance = delta_y;
 199:Dsp/widget/wgt_core/GenDsp.c ****     }
 200:Dsp/widget/wgt_core/GenDsp.c **** 
 201:Dsp/widget/wgt_core/GenDsp.c ****     for (uint8_t t = 0; t < distance + 1; t++)
 594              		.loc 1 201 5 is_stmt 1 view .LVU156
 595              	.LBB7:
 596              		.loc 1 201 10 view .LVU157
 597              		.loc 1 201 18 is_stmt 0 view .LVU158
 598 003c 0026     		movs	r6, #0
 599              	.LBE7:
 155:Dsp/widget/wgt_core/GenDsp.c ****     int8_t delta_x = end_x - start_x;
 600              		.loc 1 155 12 view .LVU159
 601 003e 3546     		mov	r5, r6
 154:Dsp/widget/wgt_core/GenDsp.c ****     int8_t yerr = 0;
 602              		.loc 1 154 12 view .LVU160
 603 0040 3446     		mov	r4, r6
 604              	.LBB8:
 605              		.loc 1 201 5 view .LVU161
 606 0042 1FE0     		b	.L45
 607              	.LVL55:
 608              	.L54:
 609              		.loc 1 201 5 view .LVU162
 610              	.LBE8:
 168:Dsp/widget/wgt_core/GenDsp.c ****     {
 611              		.loc 1 168 10 is_stmt 1 view .LVU163
 168:Dsp/widget/wgt_core/GenDsp.c ****     {
 612              		.loc 1 168 13 is_stmt 0 view .LVU164
 613 0044 BAF1000F 		cmp	r10, #0
 614 0048 06D0     		beq	.L50
 174:Dsp/widget/wgt_core/GenDsp.c ****         delta_x = -delta_x;
ARM GAS  /var/folders/lx/hc4sn_b53233_zkc9xbbl97r0000gp/T//cchyr23l.s 			page 16


 615              		.loc 1 174 9 is_stmt 1 view .LVU165
 616              	.LVL56:
 175:Dsp/widget/wgt_core/GenDsp.c ****     }
 617              		.loc 1 175 9 view .LVU166
 175:Dsp/widget/wgt_core/GenDsp.c ****     }
 618              		.loc 1 175 17 is_stmt 0 view .LVU167
 619 004a CB1A     		subs	r3, r1, r3
 620              	.LVL57:
 175:Dsp/widget/wgt_core/GenDsp.c ****     }
 621              		.loc 1 175 17 view .LVU168
 622 004c 4FFA83FA 		sxtb	r10, r3
 623              	.LVL58:
 174:Dsp/widget/wgt_core/GenDsp.c ****         delta_x = -delta_x;
 624              		.loc 1 174 14 view .LVU169
 625 0050 4FF0FF33 		mov	r3, #-1
 626 0054 0293     		str	r3, [sp, #8]
 627 0056 E8E7     		b	.L41
 628              	.LVL59:
 629              	.L50:
 170:Dsp/widget/wgt_core/GenDsp.c ****     }
 630              		.loc 1 170 14 view .LVU170
 631 0058 CDF808A0 		str	r10, [sp, #8]
 632 005c E5E7     		b	.L41
 633              	.LVL60:
 634              	.L55:
 182:Dsp/widget/wgt_core/GenDsp.c ****     {
 635              		.loc 1 182 10 is_stmt 1 view .LVU171
 182:Dsp/widget/wgt_core/GenDsp.c ****     {
 636              		.loc 1 182 13 is_stmt 0 view .LVU172
 637 005e BBF1000F 		cmp	fp, #0
 638 0062 07D0     		beq	.L52
 188:Dsp/widget/wgt_core/GenDsp.c ****         delta_y = -delta_y;
 639              		.loc 1 188 9 is_stmt 1 view .LVU173
 640              	.LVL61:
 189:Dsp/widget/wgt_core/GenDsp.c ****     }
 641              		.loc 1 189 9 view .LVU174
 189:Dsp/widget/wgt_core/GenDsp.c ****     }
 642              		.loc 1 189 17 is_stmt 0 view .LVU175
 643 0064 A9EB0202 		sub	r2, r9, r2
 644 0068 4FFA82FB 		sxtb	fp, r2
 645              	.LVL62:
 188:Dsp/widget/wgt_core/GenDsp.c ****         delta_y = -delta_y;
 646              		.loc 1 188 14 view .LVU176
 647 006c 4FF0FF33 		mov	r3, #-1
 648 0070 0393     		str	r3, [sp, #12]
 649 0072 DFE7     		b	.L42
 650              	.LVL63:
 651              	.L52:
 184:Dsp/widget/wgt_core/GenDsp.c ****     }
 652              		.loc 1 184 14 view .LVU177
 653 0074 CDF80CB0 		str	fp, [sp, #12]
 654 0078 DCE7     		b	.L42
 655              	.LVL64:
 656              	.L43:
 198:Dsp/widget/wgt_core/GenDsp.c ****     }
 657              		.loc 1 198 9 is_stmt 1 view .LVU178
 198:Dsp/widget/wgt_core/GenDsp.c ****     }
ARM GAS  /var/folders/lx/hc4sn_b53233_zkc9xbbl97r0000gp/T//cchyr23l.s 			page 17


 658              		.loc 1 198 18 is_stmt 0 view .LVU179
 659 007a 0FFA8BF7 		sxth	r7, fp
 660              	.LVL65:
 198:Dsp/widget/wgt_core/GenDsp.c ****     }
 661              		.loc 1 198 18 view .LVU180
 662 007e DDE7     		b	.L44
 663              	.LVL66:
 664              	.L47:
 665              	.LBB9:
 666              		.loc 1 201 43 is_stmt 1 discriminator 2 view .LVU181
 667              		.loc 1 201 44 is_stmt 0 discriminator 2 view .LVU182
 668 0080 0136     		adds	r6, r6, #1
 669              	.LVL67:
 670              		.loc 1 201 44 discriminator 2 view .LVU183
 671 0082 F6B2     		uxtb	r6, r6
 672              	.LVL68:
 673              	.L45:
 674              		.loc 1 201 25 is_stmt 1 discriminator 1 view .LVU184
 675              		.loc 1 201 5 is_stmt 0 discriminator 1 view .LVU185
 676 0084 B742     		cmp	r7, r6
 677 0086 1EDB     		blt	.L56
 202:Dsp/widget/wgt_core/GenDsp.c ****     {
 203:Dsp/widget/wgt_core/GenDsp.c ****         GenDsp_DrawPoint(map, uRow, uCol, true);
 678              		.loc 1 203 9 is_stmt 1 view .LVU186
 679 0088 0123     		movs	r3, #1
 680 008a 4A46     		mov	r2, r9
 681 008c 4146     		mov	r1, r8
 682 008e 0198     		ldr	r0, [sp, #4]
 683 0090 FFF7FEFF 		bl	GenDsp_DrawPoint
 684              	.LVL69:
 204:Dsp/widget/wgt_core/GenDsp.c **** 
 205:Dsp/widget/wgt_core/GenDsp.c ****         xerr += delta_x;
 685              		.loc 1 205 9 view .LVU187
 686              		.loc 1 205 14 is_stmt 0 view .LVU188
 687 0094 5444     		add	r4, r4, r10
 688              	.LVL70:
 689              		.loc 1 205 14 view .LVU189
 690 0096 E2B2     		uxtb	r2, r4
 691 0098 64B2     		sxtb	r4, r4
 692              	.LVL71:
 206:Dsp/widget/wgt_core/GenDsp.c ****         yerr += delta_y;
 693              		.loc 1 206 9 is_stmt 1 view .LVU190
 694              		.loc 1 206 14 is_stmt 0 view .LVU191
 695 009a 5D44     		add	r5, r5, fp
 696              	.LVL72:
 697              		.loc 1 206 14 view .LVU192
 698 009c EBB2     		uxtb	r3, r5
 699 009e 6DB2     		sxtb	r5, r5
 700              	.LVL73:
 207:Dsp/widget/wgt_core/GenDsp.c **** 
 208:Dsp/widget/wgt_core/GenDsp.c ****         if (xerr >= distance)
 701              		.loc 1 208 9 is_stmt 1 view .LVU193
 702              		.loc 1 208 18 is_stmt 0 view .LVU194
 703 00a0 21B2     		sxth	r1, r4
 704              		.loc 1 208 12 view .LVU195
 705 00a2 B942     		cmp	r1, r7
 706 00a4 05DB     		blt	.L46
ARM GAS  /var/folders/lx/hc4sn_b53233_zkc9xbbl97r0000gp/T//cchyr23l.s 			page 18


 209:Dsp/widget/wgt_core/GenDsp.c ****         {
 210:Dsp/widget/wgt_core/GenDsp.c ****             xerr -= distance;
 707              		.loc 1 210 13 is_stmt 1 view .LVU196
 708              		.loc 1 210 18 is_stmt 0 view .LVU197
 709 00a6 D21B     		subs	r2, r2, r7
 710 00a8 54B2     		sxtb	r4, r2
 711              	.LVL74:
 211:Dsp/widget/wgt_core/GenDsp.c ****             uRow += incx;
 712              		.loc 1 211 13 is_stmt 1 view .LVU198
 713              		.loc 1 211 18 is_stmt 0 view .LVU199
 714 00aa 029A     		ldr	r2, [sp, #8]
 715 00ac 9044     		add	r8, r8, r2
 716              	.LVL75:
 717              		.loc 1 211 18 view .LVU200
 718 00ae 5FFA88F8 		uxtb	r8, r8
 719              	.LVL76:
 720              	.L46:
 212:Dsp/widget/wgt_core/GenDsp.c ****         }
 213:Dsp/widget/wgt_core/GenDsp.c ****         if (yerr >= distance)
 721              		.loc 1 213 9 is_stmt 1 view .LVU201
 722              		.loc 1 213 18 is_stmt 0 view .LVU202
 723 00b2 2AB2     		sxth	r2, r5
 724              		.loc 1 213 12 view .LVU203
 725 00b4 BA42     		cmp	r2, r7
 726 00b6 E3DB     		blt	.L47
 214:Dsp/widget/wgt_core/GenDsp.c ****         {
 215:Dsp/widget/wgt_core/GenDsp.c ****             yerr -= distance;
 727              		.loc 1 215 13 is_stmt 1 view .LVU204
 728              		.loc 1 215 18 is_stmt 0 view .LVU205
 729 00b8 DB1B     		subs	r3, r3, r7
 730 00ba 5DB2     		sxtb	r5, r3
 731              	.LVL77:
 216:Dsp/widget/wgt_core/GenDsp.c ****             uCol += incy;
 732              		.loc 1 216 13 is_stmt 1 view .LVU206
 733              		.loc 1 216 18 is_stmt 0 view .LVU207
 734 00bc 039B     		ldr	r3, [sp, #12]
 735 00be 9944     		add	r9, r9, r3
 736              	.LVL78:
 737              		.loc 1 216 18 view .LVU208
 738 00c0 5FFA89F9 		uxtb	r9, r9
 739              	.LVL79:
 740              		.loc 1 216 18 view .LVU209
 741 00c4 DCE7     		b	.L47
 742              	.L56:
 743              		.loc 1 216 18 view .LVU210
 744              	.LBE9:
 217:Dsp/widget/wgt_core/GenDsp.c ****         }
 218:Dsp/widget/wgt_core/GenDsp.c ****     }
 219:Dsp/widget/wgt_core/GenDsp.c **** }
 745              		.loc 1 219 1 view .LVU211
 746 00c6 05B0     		add	sp, sp, #20
 747              	.LCFI13:
 748              		.cfi_def_cfa_offset 36
 749              		@ sp needed
 750 00c8 BDE8F08F 		pop	{r4, r5, r6, r7, r8, r9, r10, fp, pc}
 751              		.loc 1 219 1 view .LVU212
 752              		.cfi_endproc
ARM GAS  /var/folders/lx/hc4sn_b53233_zkc9xbbl97r0000gp/T//cchyr23l.s 			page 19


 753              	.LFE9:
 755              		.section	.text.GenDsp_Draw_VLine,"ax",%progbits
 756              		.align	1
 757              		.syntax unified
 758              		.thumb
 759              		.thumb_func
 760              		.fpu fpv4-sp-d16
 762              	GenDsp_Draw_VLine:
 763              	.LVL80:
 764              	.LFB10:
 220:Dsp/widget/wgt_core/GenDsp.c **** 
 221:Dsp/widget/wgt_core/GenDsp.c **** static void GenDsp_Draw_VLine(uint8_t **map, uint8_t x, uint8_t y, uint8_t len, uint8_t line_width)
 222:Dsp/widget/wgt_core/GenDsp.c **** {
 765              		.loc 1 222 1 is_stmt 1 view -0
 766              		.cfi_startproc
 767              		@ args = 4, pretend = 0, frame = 0
 768              		@ frame_needed = 0, uses_anonymous_args = 0
 769              		.loc 1 222 1 is_stmt 0 view .LVU214
 770 0000 10B5     		push	{r4, lr}
 771              	.LCFI14:
 772              		.cfi_def_cfa_offset 8
 773              		.cfi_offset 4, -8
 774              		.cfi_offset 14, -4
 775 0002 82B0     		sub	sp, sp, #8
 776              	.LCFI15:
 777              		.cfi_def_cfa_offset 16
 223:Dsp/widget/wgt_core/GenDsp.c ****     GenDsp_DrawLen(map, x, y, x, y + len, line_width);
 778              		.loc 1 223 5 is_stmt 1 view .LVU215
 779 0004 9DF81040 		ldrb	r4, [sp, #16]	@ zero_extendqisi2
 780 0008 0194     		str	r4, [sp, #4]
 781 000a 1344     		add	r3, r3, r2
 782              	.LVL81:
 783              		.loc 1 223 5 is_stmt 0 view .LVU216
 784 000c DBB2     		uxtb	r3, r3
 785 000e 0093     		str	r3, [sp]
 786 0010 0B46     		mov	r3, r1
 787 0012 FFF7FEFF 		bl	GenDsp_DrawLen
 788              	.LVL82:
 224:Dsp/widget/wgt_core/GenDsp.c **** }
 789              		.loc 1 224 1 view .LVU217
 790 0016 02B0     		add	sp, sp, #8
 791              	.LCFI16:
 792              		.cfi_def_cfa_offset 8
 793              		@ sp needed
 794 0018 10BD     		pop	{r4, pc}
 795              		.loc 1 224 1 view .LVU218
 796              		.cfi_endproc
 797              	.LFE10:
 799              		.section	.text.GenDsp_Draw_HLine,"ax",%progbits
 800              		.align	1
 801              		.syntax unified
 802              		.thumb
 803              		.thumb_func
 804              		.fpu fpv4-sp-d16
 806              	GenDsp_Draw_HLine:
 807              	.LVL83:
 808              	.LFB11:
ARM GAS  /var/folders/lx/hc4sn_b53233_zkc9xbbl97r0000gp/T//cchyr23l.s 			page 20


 225:Dsp/widget/wgt_core/GenDsp.c **** 
 226:Dsp/widget/wgt_core/GenDsp.c **** static void GenDsp_Draw_HLine(uint8_t **map, uint8_t x, uint8_t y, uint8_t len, uint8_t line_width)
 227:Dsp/widget/wgt_core/GenDsp.c **** {
 809              		.loc 1 227 1 is_stmt 1 view -0
 810              		.cfi_startproc
 811              		@ args = 4, pretend = 0, frame = 0
 812              		@ frame_needed = 0, uses_anonymous_args = 0
 813              		.loc 1 227 1 is_stmt 0 view .LVU220
 814 0000 10B5     		push	{r4, lr}
 815              	.LCFI17:
 816              		.cfi_def_cfa_offset 8
 817              		.cfi_offset 4, -8
 818              		.cfi_offset 14, -4
 819 0002 82B0     		sub	sp, sp, #8
 820              	.LCFI18:
 821              		.cfi_def_cfa_offset 16
 228:Dsp/widget/wgt_core/GenDsp.c ****     GenDsp_DrawLen(map, x, y, x + len, y, line_width);
 822              		.loc 1 228 5 is_stmt 1 view .LVU221
 823 0004 0B44     		add	r3, r3, r1
 824              	.LVL84:
 825              		.loc 1 228 5 is_stmt 0 view .LVU222
 826 0006 9DF81040 		ldrb	r4, [sp, #16]	@ zero_extendqisi2
 827 000a 0194     		str	r4, [sp, #4]
 828 000c 0092     		str	r2, [sp]
 829 000e DBB2     		uxtb	r3, r3
 830 0010 FFF7FEFF 		bl	GenDsp_DrawLen
 831              	.LVL85:
 229:Dsp/widget/wgt_core/GenDsp.c **** }
 832              		.loc 1 229 1 view .LVU223
 833 0014 02B0     		add	sp, sp, #8
 834              	.LCFI19:
 835              		.cfi_def_cfa_offset 8
 836              		@ sp needed
 837 0016 10BD     		pop	{r4, pc}
 838              		.loc 1 229 1 view .LVU224
 839              		.cfi_endproc
 840              	.LFE11:
 842              		.section	.text.GenDsp_Draw_Circle_Section,"ax",%progbits
 843              		.align	1
 844              		.syntax unified
 845              		.thumb
 846              		.thumb_func
 847              		.fpu fpv4-sp-d16
 849              	GenDsp_Draw_Circle_Section:
 850              	.LVL86:
 851              	.LFB12:
 230:Dsp/widget/wgt_core/GenDsp.c **** 
 231:Dsp/widget/wgt_core/GenDsp.c **** static void GenDsp_Draw_Circle_Section(uint8_t **map, uint8_t x, uint8_t y, uint8_t x0, uint8_t y0,
 232:Dsp/widget/wgt_core/GenDsp.c **** {
 852              		.loc 1 232 1 is_stmt 1 view -0
 853              		.cfi_startproc
 854              		@ args = 8, pretend = 0, frame = 0
 855              		@ frame_needed = 0, uses_anonymous_args = 0
 856              		.loc 1 232 1 is_stmt 0 view .LVU226
 857 0000 2DE9F843 		push	{r3, r4, r5, r6, r7, r8, r9, lr}
 858              	.LCFI20:
 859              		.cfi_def_cfa_offset 32
ARM GAS  /var/folders/lx/hc4sn_b53233_zkc9xbbl97r0000gp/T//cchyr23l.s 			page 21


 860              		.cfi_offset 3, -32
 861              		.cfi_offset 4, -28
 862              		.cfi_offset 5, -24
 863              		.cfi_offset 6, -20
 864              		.cfi_offset 7, -16
 865              		.cfi_offset 8, -12
 866              		.cfi_offset 9, -8
 867              		.cfi_offset 14, -4
 868 0004 8046     		mov	r8, r0
 869 0006 0F46     		mov	r7, r1
 870 0008 9146     		mov	r9, r2
 871 000a 1C46     		mov	r4, r3
 872 000c 9DF82060 		ldrb	r6, [sp, #32]	@ zero_extendqisi2
 873 0010 9DF82450 		ldrb	r5, [sp, #36]	@ zero_extendqisi2
 233:Dsp/widget/wgt_core/GenDsp.c ****     /* upper right */
 234:Dsp/widget/wgt_core/GenDsp.c ****     if (option & DRAW_UPPER_RIGHT)
 874              		.loc 1 234 5 is_stmt 1 view .LVU227
 875              		.loc 1 234 8 is_stmt 0 view .LVU228
 876 0014 15F0010F 		tst	r5, #1
 877 0018 0AD1     		bne	.L67
 878              	.LVL87:
 879              	.L62:
 235:Dsp/widget/wgt_core/GenDsp.c ****     {
 236:Dsp/widget/wgt_core/GenDsp.c ****         GenDsp_DrawPoint(map, x0 + x, y0 - y, 1);
 237:Dsp/widget/wgt_core/GenDsp.c ****         GenDsp_DrawPoint(map, x0 + y, y0 - x, 1);
 238:Dsp/widget/wgt_core/GenDsp.c ****     }
 239:Dsp/widget/wgt_core/GenDsp.c **** 
 240:Dsp/widget/wgt_core/GenDsp.c ****     /* upper left */
 241:Dsp/widget/wgt_core/GenDsp.c ****     if (option & DRAW_UPPER_LEFT)
 880              		.loc 1 241 5 is_stmt 1 view .LVU229
 881              		.loc 1 241 8 is_stmt 0 view .LVU230
 882 001a 15F0020F 		tst	r5, #2
 883 001e 18D1     		bne	.L68
 884              	.L63:
 242:Dsp/widget/wgt_core/GenDsp.c ****     {
 243:Dsp/widget/wgt_core/GenDsp.c ****         GenDsp_DrawPoint(map, x0 - x, y0 - y, 1);
 244:Dsp/widget/wgt_core/GenDsp.c ****         GenDsp_DrawPoint(map, x0 - y, y0 - x, 1);
 245:Dsp/widget/wgt_core/GenDsp.c ****     }
 246:Dsp/widget/wgt_core/GenDsp.c **** 
 247:Dsp/widget/wgt_core/GenDsp.c ****     /* lower right */
 248:Dsp/widget/wgt_core/GenDsp.c ****     if (option & DRAW_LOWER_RIGHT)
 885              		.loc 1 248 5 is_stmt 1 view .LVU231
 886              		.loc 1 248 8 is_stmt 0 view .LVU232
 887 0020 15F0080F 		tst	r5, #8
 888 0024 28D1     		bne	.L69
 889              	.L64:
 249:Dsp/widget/wgt_core/GenDsp.c ****     {
 250:Dsp/widget/wgt_core/GenDsp.c ****         GenDsp_DrawPoint(map, x0 + x, y0 + y, 1);
 251:Dsp/widget/wgt_core/GenDsp.c ****         GenDsp_DrawPoint(map, x0 + y, y0 + x, 1);
 252:Dsp/widget/wgt_core/GenDsp.c ****     }
 253:Dsp/widget/wgt_core/GenDsp.c **** 
 254:Dsp/widget/wgt_core/GenDsp.c ****     /* lower left */
 255:Dsp/widget/wgt_core/GenDsp.c ****     if (option & DRAW_LOWER_LEFT)
 890              		.loc 1 255 5 is_stmt 1 view .LVU233
 891              		.loc 1 255 8 is_stmt 0 view .LVU234
 892 0026 15F0040F 		tst	r5, #4
 893 002a 38D1     		bne	.L70
ARM GAS  /var/folders/lx/hc4sn_b53233_zkc9xbbl97r0000gp/T//cchyr23l.s 			page 22


 894              	.L61:
 256:Dsp/widget/wgt_core/GenDsp.c ****     {
 257:Dsp/widget/wgt_core/GenDsp.c ****         GenDsp_DrawPoint(map, x0 - x, y0 + y, 1);
 258:Dsp/widget/wgt_core/GenDsp.c ****         GenDsp_DrawPoint(map, x0 - y, y0 + x, 1);
 259:Dsp/widget/wgt_core/GenDsp.c ****     }
 260:Dsp/widget/wgt_core/GenDsp.c **** }
 895              		.loc 1 260 1 view .LVU235
 896 002c BDE8F883 		pop	{r3, r4, r5, r6, r7, r8, r9, pc}
 897              	.LVL88:
 898              	.L67:
 236:Dsp/widget/wgt_core/GenDsp.c ****         GenDsp_DrawPoint(map, x0 + y, y0 - x, 1);
 899              		.loc 1 236 9 is_stmt 1 view .LVU236
 900 0030 B21A     		subs	r2, r6, r2
 901              	.LVL89:
 236:Dsp/widget/wgt_core/GenDsp.c ****         GenDsp_DrawPoint(map, x0 + y, y0 - x, 1);
 902              		.loc 1 236 9 is_stmt 0 view .LVU237
 903 0032 5918     		adds	r1, r3, r1
 904              	.LVL90:
 236:Dsp/widget/wgt_core/GenDsp.c ****         GenDsp_DrawPoint(map, x0 + y, y0 - x, 1);
 905              		.loc 1 236 9 view .LVU238
 906 0034 0123     		movs	r3, #1
 907              	.LVL91:
 236:Dsp/widget/wgt_core/GenDsp.c ****         GenDsp_DrawPoint(map, x0 + y, y0 - x, 1);
 908              		.loc 1 236 9 view .LVU239
 909 0036 D2B2     		uxtb	r2, r2
 910 0038 C9B2     		uxtb	r1, r1
 911 003a FFF7FEFF 		bl	GenDsp_DrawPoint
 912              	.LVL92:
 237:Dsp/widget/wgt_core/GenDsp.c ****     }
 913              		.loc 1 237 9 is_stmt 1 view .LVU240
 914 003e F21B     		subs	r2, r6, r7
 915 0040 04EB0901 		add	r1, r4, r9
 916 0044 0123     		movs	r3, #1
 917 0046 D2B2     		uxtb	r2, r2
 918 0048 C9B2     		uxtb	r1, r1
 919 004a 4046     		mov	r0, r8
 920 004c FFF7FEFF 		bl	GenDsp_DrawPoint
 921              	.LVL93:
 922 0050 E3E7     		b	.L62
 923              	.L68:
 243:Dsp/widget/wgt_core/GenDsp.c ****         GenDsp_DrawPoint(map, x0 - y, y0 - x, 1);
 924              		.loc 1 243 9 view .LVU241
 925 0052 A6EB0902 		sub	r2, r6, r9
 926 0056 E11B     		subs	r1, r4, r7
 927 0058 0123     		movs	r3, #1
 928 005a D2B2     		uxtb	r2, r2
 929 005c C9B2     		uxtb	r1, r1
 930 005e 4046     		mov	r0, r8
 931 0060 FFF7FEFF 		bl	GenDsp_DrawPoint
 932              	.LVL94:
 244:Dsp/widget/wgt_core/GenDsp.c ****     }
 933              		.loc 1 244 9 view .LVU242
 934 0064 F21B     		subs	r2, r6, r7
 935 0066 A4EB0901 		sub	r1, r4, r9
 936 006a 0123     		movs	r3, #1
 937 006c D2B2     		uxtb	r2, r2
 938 006e C9B2     		uxtb	r1, r1
ARM GAS  /var/folders/lx/hc4sn_b53233_zkc9xbbl97r0000gp/T//cchyr23l.s 			page 23


 939 0070 4046     		mov	r0, r8
 940 0072 FFF7FEFF 		bl	GenDsp_DrawPoint
 941              	.LVL95:
 942 0076 D3E7     		b	.L63
 943              	.L69:
 250:Dsp/widget/wgt_core/GenDsp.c ****         GenDsp_DrawPoint(map, x0 + y, y0 + x, 1);
 944              		.loc 1 250 9 view .LVU243
 945 0078 06EB0902 		add	r2, r6, r9
 946 007c E119     		adds	r1, r4, r7
 947 007e 0123     		movs	r3, #1
 948 0080 D2B2     		uxtb	r2, r2
 949 0082 C9B2     		uxtb	r1, r1
 950 0084 4046     		mov	r0, r8
 951 0086 FFF7FEFF 		bl	GenDsp_DrawPoint
 952              	.LVL96:
 251:Dsp/widget/wgt_core/GenDsp.c ****     }
 953              		.loc 1 251 9 view .LVU244
 954 008a BA19     		adds	r2, r7, r6
 955 008c 04EB0901 		add	r1, r4, r9
 956 0090 0123     		movs	r3, #1
 957 0092 D2B2     		uxtb	r2, r2
 958 0094 C9B2     		uxtb	r1, r1
 959 0096 4046     		mov	r0, r8
 960 0098 FFF7FEFF 		bl	GenDsp_DrawPoint
 961              	.LVL97:
 962 009c C3E7     		b	.L64
 963              	.L70:
 257:Dsp/widget/wgt_core/GenDsp.c ****         GenDsp_DrawPoint(map, x0 - y, y0 + x, 1);
 964              		.loc 1 257 9 view .LVU245
 965 009e 06EB0902 		add	r2, r6, r9
 966 00a2 E11B     		subs	r1, r4, r7
 967 00a4 0123     		movs	r3, #1
 968 00a6 D2B2     		uxtb	r2, r2
 969 00a8 C9B2     		uxtb	r1, r1
 970 00aa 4046     		mov	r0, r8
 971 00ac FFF7FEFF 		bl	GenDsp_DrawPoint
 972              	.LVL98:
 258:Dsp/widget/wgt_core/GenDsp.c ****     }
 973              		.loc 1 258 9 view .LVU246
 974 00b0 BA19     		adds	r2, r7, r6
 975 00b2 A4EB0901 		sub	r1, r4, r9
 976 00b6 0123     		movs	r3, #1
 977 00b8 D2B2     		uxtb	r2, r2
 978 00ba C9B2     		uxtb	r1, r1
 979 00bc 4046     		mov	r0, r8
 980 00be FFF7FEFF 		bl	GenDsp_DrawPoint
 981              	.LVL99:
 982              		.loc 1 260 1 is_stmt 0 view .LVU247
 983 00c2 B3E7     		b	.L61
 984              		.cfi_endproc
 985              	.LFE12:
 987              		.section	.text.GenDsp_Draw_Circle,"ax",%progbits
 988              		.align	1
 989              		.syntax unified
 990              		.thumb
 991              		.thumb_func
 992              		.fpu fpv4-sp-d16
ARM GAS  /var/folders/lx/hc4sn_b53233_zkc9xbbl97r0000gp/T//cchyr23l.s 			page 24


 994              	GenDsp_Draw_Circle:
 995              	.LVL100:
 996              	.LFB13:
 261:Dsp/widget/wgt_core/GenDsp.c **** 
 262:Dsp/widget/wgt_core/GenDsp.c **** static void GenDsp_Draw_Circle(uint8_t **map, uint8_t x0, uint8_t y0, uint8_t rad, uint8_t option)
 263:Dsp/widget/wgt_core/GenDsp.c **** {
 997              		.loc 1 263 1 is_stmt 1 view -0
 998              		.cfi_startproc
 999              		@ args = 4, pretend = 0, frame = 8
 1000              		@ frame_needed = 0, uses_anonymous_args = 0
 1001              		.loc 1 263 1 is_stmt 0 view .LVU249
 1002 0000 2DE9F04F 		push	{r4, r5, r6, r7, r8, r9, r10, fp, lr}
 1003              	.LCFI21:
 1004              		.cfi_def_cfa_offset 36
 1005              		.cfi_offset 4, -36
 1006              		.cfi_offset 5, -32
 1007              		.cfi_offset 6, -28
 1008              		.cfi_offset 7, -24
 1009              		.cfi_offset 8, -20
 1010              		.cfi_offset 9, -16
 1011              		.cfi_offset 10, -12
 1012              		.cfi_offset 11, -8
 1013              		.cfi_offset 14, -4
 1014 0004 85B0     		sub	sp, sp, #20
 1015              	.LCFI22:
 1016              		.cfi_def_cfa_offset 56
 1017 0006 0390     		str	r0, [sp, #12]
 1018 0008 8946     		mov	r9, r1
 1019 000a 9246     		mov	r10, r2
 1020 000c 1E46     		mov	r6, r3
 1021 000e 9DF838B0 		ldrb	fp, [sp, #56]	@ zero_extendqisi2
 264:Dsp/widget/wgt_core/GenDsp.c ****     int8_t f;
 1022              		.loc 1 264 5 is_stmt 1 view .LVU250
 265:Dsp/widget/wgt_core/GenDsp.c ****     int8_t ddF_x;
 1023              		.loc 1 265 5 view .LVU251
 266:Dsp/widget/wgt_core/GenDsp.c ****     int8_t ddF_y;
 1024              		.loc 1 266 5 view .LVU252
 267:Dsp/widget/wgt_core/GenDsp.c ****     uint8_t x;
 1025              		.loc 1 267 5 view .LVU253
 268:Dsp/widget/wgt_core/GenDsp.c ****     uint8_t y;
 1026              		.loc 1 268 5 view .LVU254
 269:Dsp/widget/wgt_core/GenDsp.c **** 
 270:Dsp/widget/wgt_core/GenDsp.c ****     f = 1;
 1027              		.loc 1 270 5 view .LVU255
 1028              	.LVL101:
 271:Dsp/widget/wgt_core/GenDsp.c ****     f -= rad;
 1029              		.loc 1 271 5 view .LVU256
 1030              		.loc 1 271 7 is_stmt 0 view .LVU257
 1031 0012 C3F10104 		rsb	r4, r3, #1
 1032 0016 64B2     		sxtb	r4, r4
 1033              	.LVL102:
 272:Dsp/widget/wgt_core/GenDsp.c ****     ddF_x = 1;
 1034              		.loc 1 272 5 is_stmt 1 view .LVU258
 273:Dsp/widget/wgt_core/GenDsp.c ****     ddF_y = 0;
 1035              		.loc 1 273 5 view .LVU259
 274:Dsp/widget/wgt_core/GenDsp.c ****     ddF_y -= rad;
 1036              		.loc 1 274 5 view .LVU260
ARM GAS  /var/folders/lx/hc4sn_b53233_zkc9xbbl97r0000gp/T//cchyr23l.s 			page 25


 275:Dsp/widget/wgt_core/GenDsp.c ****     ddF_y *= 2;
 1037              		.loc 1 275 5 view .LVU261
 1038              		.loc 1 275 11 is_stmt 0 view .LVU262
 1039 0018 C3EBC318 		rsb	r8, r3, r3, lsl #7
 1040 001c 4FEA4808 		lsl	r8, r8, #1
 1041 0020 4FFA88F8 		sxtb	r8, r8
 1042              	.LVL103:
 276:Dsp/widget/wgt_core/GenDsp.c ****     x = 0;
 1043              		.loc 1 276 5 is_stmt 1 view .LVU263
 277:Dsp/widget/wgt_core/GenDsp.c ****     y = rad;
 1044              		.loc 1 277 5 view .LVU264
 278:Dsp/widget/wgt_core/GenDsp.c **** 
 279:Dsp/widget/wgt_core/GenDsp.c ****     GenDsp_Draw_Circle_Section(map, x, y, x0, y0, option);
 1045              		.loc 1 279 5 view .LVU265
 1046 0024 CDF804B0 		str	fp, [sp, #4]
 1047 0028 0092     		str	r2, [sp]
 1048 002a 0B46     		mov	r3, r1
 1049              	.LVL104:
 1050              		.loc 1 279 5 is_stmt 0 view .LVU266
 1051 002c 3246     		mov	r2, r6
 1052              	.LVL105:
 1053              		.loc 1 279 5 view .LVU267
 1054 002e 0021     		movs	r1, #0
 1055              	.LVL106:
 1056              		.loc 1 279 5 view .LVU268
 1057 0030 FFF7FEFF 		bl	GenDsp_Draw_Circle_Section
 1058              	.LVL107:
 280:Dsp/widget/wgt_core/GenDsp.c **** 
 281:Dsp/widget/wgt_core/GenDsp.c ****     while (x < y)
 1059              		.loc 1 281 5 is_stmt 1 view .LVU269
 276:Dsp/widget/wgt_core/GenDsp.c ****     y = rad;
 1060              		.loc 1 276 7 is_stmt 0 view .LVU270
 1061 0034 0025     		movs	r5, #0
 272:Dsp/widget/wgt_core/GenDsp.c ****     ddF_y = 0;
 1062              		.loc 1 272 11 view .LVU271
 1063 0036 0127     		movs	r7, #1
 1064              		.loc 1 281 11 view .LVU272
 1065 0038 19E0     		b	.L72
 1066              	.LVL108:
 1067              	.L77:
 282:Dsp/widget/wgt_core/GenDsp.c ****     {
 283:Dsp/widget/wgt_core/GenDsp.c ****         if (f >= 0)
 284:Dsp/widget/wgt_core/GenDsp.c ****         {
 285:Dsp/widget/wgt_core/GenDsp.c ****             y--;
 1068              		.loc 1 285 13 is_stmt 1 view .LVU273
 1069              		.loc 1 285 14 is_stmt 0 view .LVU274
 1070 003a 013E     		subs	r6, r6, #1
 1071              	.LVL109:
 1072              		.loc 1 285 14 view .LVU275
 1073 003c F6B2     		uxtb	r6, r6
 1074              	.LVL110:
 286:Dsp/widget/wgt_core/GenDsp.c ****             ddF_y += 2;
 1075              		.loc 1 286 13 is_stmt 1 view .LVU276
 1076              		.loc 1 286 19 is_stmt 0 view .LVU277
 1077 003e 08F10203 		add	r3, r8, #2
 1078 0042 4FFA83F8 		sxtb	r8, r3
 1079              	.LVL111:
ARM GAS  /var/folders/lx/hc4sn_b53233_zkc9xbbl97r0000gp/T//cchyr23l.s 			page 26


 287:Dsp/widget/wgt_core/GenDsp.c ****             f += ddF_y;
 1080              		.loc 1 287 13 is_stmt 1 view .LVU278
 1081              		.loc 1 287 15 is_stmt 0 view .LVU279
 1082 0046 54FA83F4 		uxtab	r4, r4, r3
 1083              	.LVL112:
 1084              		.loc 1 287 15 view .LVU280
 1085 004a 64B2     		sxtb	r4, r4
 1086              	.LVL113:
 1087              	.L73:
 288:Dsp/widget/wgt_core/GenDsp.c ****         }
 289:Dsp/widget/wgt_core/GenDsp.c ****         x++;
 1088              		.loc 1 289 9 is_stmt 1 view .LVU281
 1089              		.loc 1 289 10 is_stmt 0 view .LVU282
 1090 004c 0135     		adds	r5, r5, #1
 1091              	.LVL114:
 1092              		.loc 1 289 10 view .LVU283
 1093 004e EDB2     		uxtb	r5, r5
 1094              	.LVL115:
 290:Dsp/widget/wgt_core/GenDsp.c ****         ddF_x += 2;
 1095              		.loc 1 290 9 is_stmt 1 view .LVU284
 1096              		.loc 1 290 15 is_stmt 0 view .LVU285
 1097 0050 BB1C     		adds	r3, r7, #2
 1098 0052 5FB2     		sxtb	r7, r3
 1099              	.LVL116:
 291:Dsp/widget/wgt_core/GenDsp.c ****         f += ddF_x;
 1100              		.loc 1 291 9 is_stmt 1 view .LVU286
 1101              		.loc 1 291 11 is_stmt 0 view .LVU287
 1102 0054 54FA83F4 		uxtab	r4, r4, r3
 1103              	.LVL117:
 1104              		.loc 1 291 11 view .LVU288
 1105 0058 64B2     		sxtb	r4, r4
 1106              	.LVL118:
 292:Dsp/widget/wgt_core/GenDsp.c **** 
 293:Dsp/widget/wgt_core/GenDsp.c ****         GenDsp_Draw_Circle_Section(map, x, y, x0, y0, option);
 1107              		.loc 1 293 9 is_stmt 1 view .LVU289
 1108 005a CDF804B0 		str	fp, [sp, #4]
 1109 005e CDF800A0 		str	r10, [sp]
 1110 0062 4B46     		mov	r3, r9
 1111 0064 3246     		mov	r2, r6
 1112 0066 2946     		mov	r1, r5
 1113 0068 0398     		ldr	r0, [sp, #12]
 1114 006a FFF7FEFF 		bl	GenDsp_Draw_Circle_Section
 1115              	.LVL119:
 1116              	.L72:
 281:Dsp/widget/wgt_core/GenDsp.c ****     {
 1117              		.loc 1 281 11 view .LVU290
 1118 006e B542     		cmp	r5, r6
 1119 0070 02D2     		bcs	.L76
 283:Dsp/widget/wgt_core/GenDsp.c ****         {
 1120              		.loc 1 283 9 view .LVU291
 283:Dsp/widget/wgt_core/GenDsp.c ****         {
 1121              		.loc 1 283 12 is_stmt 0 view .LVU292
 1122 0072 002C     		cmp	r4, #0
 1123 0074 E1DA     		bge	.L77
 1124 0076 E9E7     		b	.L73
 1125              	.L76:
 294:Dsp/widget/wgt_core/GenDsp.c ****     }
ARM GAS  /var/folders/lx/hc4sn_b53233_zkc9xbbl97r0000gp/T//cchyr23l.s 			page 27


 295:Dsp/widget/wgt_core/GenDsp.c **** }
 1126              		.loc 1 295 1 view .LVU293
 1127 0078 05B0     		add	sp, sp, #20
 1128              	.LCFI23:
 1129              		.cfi_def_cfa_offset 36
 1130              		@ sp needed
 1131 007a BDE8F08F 		pop	{r4, r5, r6, r7, r8, r9, r10, fp, pc}
 1132              		.loc 1 295 1 view .LVU294
 1133              		.cfi_endproc
 1134              	.LFE13:
 1136              		.section	.text.GenDsp_DrawCircle,"ax",%progbits
 1137              		.align	1
 1138              		.syntax unified
 1139              		.thumb
 1140              		.thumb_func
 1141              		.fpu fpv4-sp-d16
 1143              	GenDsp_DrawCircle:
 1144              	.LVL120:
 1145              	.LFB14:
 296:Dsp/widget/wgt_core/GenDsp.c **** 
 297:Dsp/widget/wgt_core/GenDsp.c **** static void GenDsp_DrawCircle(uint8_t **map, uint8_t x0, uint8_t y0, uint8_t rad, uint8_t option)
 298:Dsp/widget/wgt_core/GenDsp.c **** {
 1146              		.loc 1 298 1 is_stmt 1 view -0
 1147              		.cfi_startproc
 1148              		@ args = 4, pretend = 0, frame = 0
 1149              		@ frame_needed = 0, uses_anonymous_args = 0
 1150              		.loc 1 298 1 is_stmt 0 view .LVU296
 1151 0000 10B5     		push	{r4, lr}
 1152              	.LCFI24:
 1153              		.cfi_def_cfa_offset 8
 1154              		.cfi_offset 4, -8
 1155              		.cfi_offset 14, -4
 1156 0002 82B0     		sub	sp, sp, #8
 1157              	.LCFI25:
 1158              		.cfi_def_cfa_offset 16
 299:Dsp/widget/wgt_core/GenDsp.c ****     /* draw circle */
 300:Dsp/widget/wgt_core/GenDsp.c ****     GenDsp_Draw_Circle(map, x0, y0, rad, DRAW_ALL);
 1159              		.loc 1 300 5 is_stmt 1 view .LVU297
 1160 0004 0F24     		movs	r4, #15
 1161 0006 0094     		str	r4, [sp]
 1162 0008 FFF7FEFF 		bl	GenDsp_Draw_Circle
 1163              	.LVL121:
 301:Dsp/widget/wgt_core/GenDsp.c **** }
 1164              		.loc 1 301 1 is_stmt 0 view .LVU298
 1165 000c 02B0     		add	sp, sp, #8
 1166              	.LCFI26:
 1167              		.cfi_def_cfa_offset 8
 1168              		@ sp needed
 1169 000e 10BD     		pop	{r4, pc}
 1170              		.loc 1 301 1 view .LVU299
 1171              		.cfi_endproc
 1172              	.LFE14:
 1174              		.section	.text.GenDsp_DrawRectangle,"ax",%progbits
 1175              		.align	1
 1176              		.syntax unified
 1177              		.thumb
 1178              		.thumb_func
ARM GAS  /var/folders/lx/hc4sn_b53233_zkc9xbbl97r0000gp/T//cchyr23l.s 			page 28


 1179              		.fpu fpv4-sp-d16
 1181              	GenDsp_DrawRectangle:
 1182              	.LVL122:
 1183              	.LFB15:
 302:Dsp/widget/wgt_core/GenDsp.c **** 
 303:Dsp/widget/wgt_core/GenDsp.c **** static void GenDsp_DrawRectangle(uint8_t **map, uint8_t x, uint8_t y, uint8_t width, uint8_t height
 304:Dsp/widget/wgt_core/GenDsp.c **** {
 1184              		.loc 1 304 1 is_stmt 1 view -0
 1185              		.cfi_startproc
 1186              		@ args = 8, pretend = 0, frame = 0
 1187              		@ frame_needed = 0, uses_anonymous_args = 0
 1188              		.loc 1 304 1 is_stmt 0 view .LVU301
 1189 0000 2DE9F043 		push	{r4, r5, r6, r7, r8, r9, lr}
 1190              	.LCFI27:
 1191              		.cfi_def_cfa_offset 28
 1192              		.cfi_offset 4, -28
 1193              		.cfi_offset 5, -24
 1194              		.cfi_offset 6, -20
 1195              		.cfi_offset 7, -16
 1196              		.cfi_offset 8, -12
 1197              		.cfi_offset 9, -8
 1198              		.cfi_offset 14, -4
 1199 0004 83B0     		sub	sp, sp, #12
 1200              	.LCFI28:
 1201              		.cfi_def_cfa_offset 40
 1202 0006 8046     		mov	r8, r0
 1203 0008 0E46     		mov	r6, r1
 1204 000a 1746     		mov	r7, r2
 1205 000c 9DF82C90 		ldrb	r9, [sp, #44]	@ zero_extendqisi2
 305:Dsp/widget/wgt_core/GenDsp.c ****     uint8_t x_tmp = x + width - 1;
 1206              		.loc 1 305 5 is_stmt 1 view .LVU302
 1207              		.loc 1 305 23 is_stmt 0 view .LVU303
 1208 0010 CD18     		adds	r5, r1, r3
 1209 0012 EDB2     		uxtb	r5, r5
 1210              		.loc 1 305 13 view .LVU304
 1211 0014 013D     		subs	r5, r5, #1
 1212 0016 EDB2     		uxtb	r5, r5
 1213              	.LVL123:
 306:Dsp/widget/wgt_core/GenDsp.c ****     uint8_t y_tmp = y + height - 1;
 1214              		.loc 1 306 5 is_stmt 1 view .LVU305
 1215              		.loc 1 306 23 is_stmt 0 view .LVU306
 1216 0018 9DF82840 		ldrb	r4, [sp, #40]	@ zero_extendqisi2
 1217 001c 1444     		add	r4, r4, r2
 1218 001e E4B2     		uxtb	r4, r4
 1219              		.loc 1 306 13 view .LVU307
 1220 0020 013C     		subs	r4, r4, #1
 1221 0022 E4B2     		uxtb	r4, r4
 1222              	.LVL124:
 307:Dsp/widget/wgt_core/GenDsp.c **** 
 308:Dsp/widget/wgt_core/GenDsp.c ****     GenDsp_DrawLen(map, x, y, x_tmp, y, line_size);
 1223              		.loc 1 308 5 is_stmt 1 view .LVU308
 1224 0024 CDF80490 		str	r9, [sp, #4]
 1225 0028 0092     		str	r2, [sp]
 1226 002a 2B46     		mov	r3, r5
 1227              	.LVL125:
 1228              		.loc 1 308 5 is_stmt 0 view .LVU309
 1229 002c FFF7FEFF 		bl	GenDsp_DrawLen
ARM GAS  /var/folders/lx/hc4sn_b53233_zkc9xbbl97r0000gp/T//cchyr23l.s 			page 29


 1230              	.LVL126:
 309:Dsp/widget/wgt_core/GenDsp.c ****     GenDsp_DrawLen(map, x, y, x, y_tmp, line_size);
 1231              		.loc 1 309 5 is_stmt 1 view .LVU310
 1232 0030 CDF80490 		str	r9, [sp, #4]
 1233 0034 0094     		str	r4, [sp]
 1234 0036 3346     		mov	r3, r6
 1235 0038 3A46     		mov	r2, r7
 1236 003a 3146     		mov	r1, r6
 1237 003c 4046     		mov	r0, r8
 1238 003e FFF7FEFF 		bl	GenDsp_DrawLen
 1239              	.LVL127:
 310:Dsp/widget/wgt_core/GenDsp.c **** 
 311:Dsp/widget/wgt_core/GenDsp.c ****     GenDsp_DrawLen(map, x_tmp, y, x_tmp, y_tmp, line_size);
 1240              		.loc 1 311 5 view .LVU311
 1241 0042 CDF80490 		str	r9, [sp, #4]
 1242 0046 0094     		str	r4, [sp]
 1243 0048 2B46     		mov	r3, r5
 1244 004a 3A46     		mov	r2, r7
 1245 004c 2946     		mov	r1, r5
 1246 004e 4046     		mov	r0, r8
 1247 0050 FFF7FEFF 		bl	GenDsp_DrawLen
 1248              	.LVL128:
 312:Dsp/widget/wgt_core/GenDsp.c ****     GenDsp_DrawLen(map, x, y_tmp, x_tmp, y_tmp, line_size);
 1249              		.loc 1 312 5 view .LVU312
 1250 0054 CDF80490 		str	r9, [sp, #4]
 1251 0058 0094     		str	r4, [sp]
 1252 005a 2B46     		mov	r3, r5
 1253 005c 2246     		mov	r2, r4
 1254 005e 3146     		mov	r1, r6
 1255 0060 4046     		mov	r0, r8
 1256 0062 FFF7FEFF 		bl	GenDsp_DrawLen
 1257              	.LVL129:
 313:Dsp/widget/wgt_core/GenDsp.c **** }
 1258              		.loc 1 313 1 is_stmt 0 view .LVU313
 1259 0066 03B0     		add	sp, sp, #12
 1260              	.LCFI29:
 1261              		.cfi_def_cfa_offset 28
 1262              		@ sp needed
 1263 0068 BDE8F083 		pop	{r4, r5, r6, r7, r8, r9, pc}
 1264              		.loc 1 313 1 view .LVU314
 1265              		.cfi_endproc
 1266              	.LFE15:
 1268              		.section	.text.GenDsp_Draw_RadiusRectangle,"ax",%progbits
 1269              		.align	1
 1270              		.syntax unified
 1271              		.thumb
 1272              		.thumb_func
 1273              		.fpu fpv4-sp-d16
 1275              	GenDsp_Draw_RadiusRectangle:
 1276              	.LVL130:
 1277              	.LFB16:
 314:Dsp/widget/wgt_core/GenDsp.c **** 
 315:Dsp/widget/wgt_core/GenDsp.c **** /* bug in this function */
 316:Dsp/widget/wgt_core/GenDsp.c **** static void GenDsp_Draw_RadiusRectangle(uint8_t **map, uint8_t x, uint8_t y, uint8_t width, uint8_t
 317:Dsp/widget/wgt_core/GenDsp.c **** {
 1278              		.loc 1 317 1 is_stmt 1 view -0
 1279              		.cfi_startproc
ARM GAS  /var/folders/lx/hc4sn_b53233_zkc9xbbl97r0000gp/T//cchyr23l.s 			page 30


 1280              		@ args = 12, pretend = 0, frame = 16
 1281              		@ frame_needed = 0, uses_anonymous_args = 0
 1282              		.loc 1 317 1 is_stmt 0 view .LVU316
 1283 0000 2DE9F04F 		push	{r4, r5, r6, r7, r8, r9, r10, fp, lr}
 1284              	.LCFI30:
 1285              		.cfi_def_cfa_offset 36
 1286              		.cfi_offset 4, -36
 1287              		.cfi_offset 5, -32
 1288              		.cfi_offset 6, -28
 1289              		.cfi_offset 7, -24
 1290              		.cfi_offset 8, -20
 1291              		.cfi_offset 9, -16
 1292              		.cfi_offset 10, -12
 1293              		.cfi_offset 11, -8
 1294              		.cfi_offset 14, -4
 1295 0004 87B0     		sub	sp, sp, #28
 1296              	.LCFI31:
 1297              		.cfi_def_cfa_offset 64
 1298 0006 0646     		mov	r6, r0
 1299 0008 8A46     		mov	r10, r1
 1300 000a 1146     		mov	r1, r2
 1301              	.LVL131:
 1302              		.loc 1 317 1 view .LVU317
 1303 000c 9DF84470 		ldrb	r7, [sp, #68]	@ zero_extendqisi2
 1304 0010 9DF848B0 		ldrb	fp, [sp, #72]	@ zero_extendqisi2
 318:Dsp/widget/wgt_core/GenDsp.c ****     uint8_t x_start = x + radius;
 1305              		.loc 1 318 5 is_stmt 1 view .LVU318
 1306              		.loc 1 318 13 is_stmt 0 view .LVU319
 1307 0014 0AEB0709 		add	r9, r10, r7
 1308 0018 5FFA89F9 		uxtb	r9, r9
 1309              	.LVL132:
 319:Dsp/widget/wgt_core/GenDsp.c ****     uint8_t y_start = y + radius;
 1310              		.loc 1 319 5 is_stmt 1 view .LVU320
 1311              		.loc 1 319 13 is_stmt 0 view .LVU321
 1312 001c 07EB0208 		add	r8, r7, r2
 1313 0020 5FFA88F8 		uxtb	r8, r8
 1314              	.LVL133:
 320:Dsp/widget/wgt_core/GenDsp.c **** 
 321:Dsp/widget/wgt_core/GenDsp.c ****     uint8_t x_tmp = x + width - 1 - radius;
 1315              		.loc 1 321 5 is_stmt 1 view .LVU322
 1316              		.loc 1 321 23 is_stmt 0 view .LVU323
 1317 0024 0AEB0302 		add	r2, r10, r3
 1318              	.LVL134:
 1319              		.loc 1 321 23 view .LVU324
 1320 0028 D2B2     		uxtb	r2, r2
 1321              		.loc 1 321 35 view .LVU325
 1322 002a D51B     		subs	r5, r2, r7
 1323 002c EDB2     		uxtb	r5, r5
 1324              		.loc 1 321 13 view .LVU326
 1325 002e 013D     		subs	r5, r5, #1
 1326 0030 EDB2     		uxtb	r5, r5
 1327              	.LVL135:
 322:Dsp/widget/wgt_core/GenDsp.c ****     uint8_t y_tmp = y + height - 1 - radius;
 1328              		.loc 1 322 5 is_stmt 1 view .LVU327
 1329              		.loc 1 322 23 is_stmt 0 view .LVU328
 1330 0032 9DF84030 		ldrb	r3, [sp, #64]	@ zero_extendqisi2
 1331              	.LVL136:
ARM GAS  /var/folders/lx/hc4sn_b53233_zkc9xbbl97r0000gp/T//cchyr23l.s 			page 31


 1332              		.loc 1 322 23 view .LVU329
 1333 0036 0591     		str	r1, [sp, #20]
 1334 0038 0B44     		add	r3, r3, r1
 1335 003a DBB2     		uxtb	r3, r3
 1336              		.loc 1 322 36 view .LVU330
 1337 003c DC1B     		subs	r4, r3, r7
 1338 003e E4B2     		uxtb	r4, r4
 1339              		.loc 1 322 13 view .LVU331
 1340 0040 013C     		subs	r4, r4, #1
 1341 0042 E4B2     		uxtb	r4, r4
 1342              	.LVL137:
 323:Dsp/widget/wgt_core/GenDsp.c **** 
 324:Dsp/widget/wgt_core/GenDsp.c ****     uint8_t x_tmp_1 = x + width - 1;
 1343              		.loc 1 324 5 is_stmt 1 view .LVU332
 1344              		.loc 1 324 13 is_stmt 0 view .LVU333
 1345 0044 013A     		subs	r2, r2, #1
 1346 0046 D2B2     		uxtb	r2, r2
 1347 0048 0392     		str	r2, [sp, #12]
 1348              	.LVL138:
 325:Dsp/widget/wgt_core/GenDsp.c ****     uint8_t y_tmp_1 = y + height - 1;
 1349              		.loc 1 325 5 is_stmt 1 view .LVU334
 1350              		.loc 1 325 13 is_stmt 0 view .LVU335
 1351 004a 013B     		subs	r3, r3, #1
 1352 004c DBB2     		uxtb	r3, r3
 1353 004e 0493     		str	r3, [sp, #16]
 1354              	.LVL139:
 326:Dsp/widget/wgt_core/GenDsp.c **** 
 327:Dsp/widget/wgt_core/GenDsp.c ****     /* fixed */
 328:Dsp/widget/wgt_core/GenDsp.c ****     GenDsp_Draw_Circle(map, x_start, y_tmp, radius, DRAW_LOWER_LEFT);
 1355              		.loc 1 328 5 is_stmt 1 view .LVU336
 1356 0050 0423     		movs	r3, #4
 1357 0052 0093     		str	r3, [sp]
 1358 0054 3B46     		mov	r3, r7
 1359 0056 2246     		mov	r2, r4
 1360 0058 4946     		mov	r1, r9
 1361 005a FFF7FEFF 		bl	GenDsp_Draw_Circle
 1362              	.LVL140:
 329:Dsp/widget/wgt_core/GenDsp.c ****     GenDsp_DrawLen(map, x, y_start, x, y_tmp, line_size);
 1363              		.loc 1 329 5 view .LVU337
 1364 005e CDF804B0 		str	fp, [sp, #4]
 1365 0062 0094     		str	r4, [sp]
 1366 0064 5346     		mov	r3, r10
 1367 0066 4246     		mov	r2, r8
 1368 0068 5146     		mov	r1, r10
 1369 006a 3046     		mov	r0, r6
 1370 006c FFF7FEFF 		bl	GenDsp_DrawLen
 1371              	.LVL141:
 330:Dsp/widget/wgt_core/GenDsp.c **** 
 331:Dsp/widget/wgt_core/GenDsp.c ****     GenDsp_Draw_Circle(map, x_tmp, y_tmp, radius, DRAW_LOWER_RIGHT);
 1372              		.loc 1 331 5 view .LVU338
 1373 0070 0823     		movs	r3, #8
 1374 0072 0093     		str	r3, [sp]
 1375 0074 3B46     		mov	r3, r7
 1376 0076 2246     		mov	r2, r4
 1377 0078 2946     		mov	r1, r5
 1378 007a 3046     		mov	r0, r6
 1379 007c FFF7FEFF 		bl	GenDsp_Draw_Circle
ARM GAS  /var/folders/lx/hc4sn_b53233_zkc9xbbl97r0000gp/T//cchyr23l.s 			page 32


 1380              	.LVL142:
 332:Dsp/widget/wgt_core/GenDsp.c ****     GenDsp_DrawLen(map, x_start, y_tmp_1, x_tmp, y_tmp_1, line_size);
 1381              		.loc 1 332 5 view .LVU339
 1382 0080 CDF804B0 		str	fp, [sp, #4]
 1383 0084 049A     		ldr	r2, [sp, #16]
 1384 0086 0092     		str	r2, [sp]
 1385 0088 2B46     		mov	r3, r5
 1386 008a 4946     		mov	r1, r9
 1387 008c 3046     		mov	r0, r6
 1388 008e FFF7FEFF 		bl	GenDsp_DrawLen
 1389              	.LVL143:
 333:Dsp/widget/wgt_core/GenDsp.c **** 
 334:Dsp/widget/wgt_core/GenDsp.c ****     GenDsp_Draw_Circle(map, x_start, y_start, radius, DRAW_UPPER_LEFT);
 1390              		.loc 1 334 5 view .LVU340
 1391 0092 0223     		movs	r3, #2
 1392 0094 0093     		str	r3, [sp]
 1393 0096 3B46     		mov	r3, r7
 1394 0098 4246     		mov	r2, r8
 1395 009a 4946     		mov	r1, r9
 1396 009c 3046     		mov	r0, r6
 1397 009e FFF7FEFF 		bl	GenDsp_Draw_Circle
 1398              	.LVL144:
 335:Dsp/widget/wgt_core/GenDsp.c ****     GenDsp_DrawLen(map, x_start, y, x_tmp, y, line_size);
 1399              		.loc 1 335 5 view .LVU341
 1400 00a2 CDF804B0 		str	fp, [sp, #4]
 1401 00a6 0599     		ldr	r1, [sp, #20]
 1402 00a8 0091     		str	r1, [sp]
 1403 00aa 2B46     		mov	r3, r5
 1404 00ac 0A46     		mov	r2, r1
 1405 00ae 4946     		mov	r1, r9
 1406 00b0 3046     		mov	r0, r6
 1407 00b2 FFF7FEFF 		bl	GenDsp_DrawLen
 1408              	.LVL145:
 336:Dsp/widget/wgt_core/GenDsp.c **** 
 337:Dsp/widget/wgt_core/GenDsp.c ****     GenDsp_Draw_Circle(map, x_tmp, y_start, radius, DRAW_UPPER_RIGHT);
 1409              		.loc 1 337 5 view .LVU342
 1410 00b6 0123     		movs	r3, #1
 1411 00b8 0093     		str	r3, [sp]
 1412 00ba 3B46     		mov	r3, r7
 1413 00bc 4246     		mov	r2, r8
 1414 00be 2946     		mov	r1, r5
 1415 00c0 3046     		mov	r0, r6
 1416 00c2 FFF7FEFF 		bl	GenDsp_Draw_Circle
 1417              	.LVL146:
 338:Dsp/widget/wgt_core/GenDsp.c ****     GenDsp_DrawLen(map, x_tmp_1, y_start, x_tmp_1, y_tmp, line_size);
 1418              		.loc 1 338 5 view .LVU343
 1419 00c6 CDF804B0 		str	fp, [sp, #4]
 1420 00ca 0094     		str	r4, [sp]
 1421 00cc 039B     		ldr	r3, [sp, #12]
 1422 00ce 4246     		mov	r2, r8
 1423 00d0 1946     		mov	r1, r3
 1424 00d2 3046     		mov	r0, r6
 1425 00d4 FFF7FEFF 		bl	GenDsp_DrawLen
 1426              	.LVL147:
 339:Dsp/widget/wgt_core/GenDsp.c **** }
 1427              		.loc 1 339 1 is_stmt 0 view .LVU344
 1428 00d8 07B0     		add	sp, sp, #28
ARM GAS  /var/folders/lx/hc4sn_b53233_zkc9xbbl97r0000gp/T//cchyr23l.s 			page 33


 1429              	.LCFI32:
 1430              		.cfi_def_cfa_offset 36
 1431              		@ sp needed
 1432 00da BDE8F08F 		pop	{r4, r5, r6, r7, r8, r9, r10, fp, pc}
 1433              		.loc 1 339 1 view .LVU345
 1434              		.cfi_endproc
 1435              	.LFE16:
 1437              		.section	.text.GenDsp_Fill_Circle_Section,"ax",%progbits
 1438              		.align	1
 1439              		.syntax unified
 1440              		.thumb
 1441              		.thumb_func
 1442              		.fpu fpv4-sp-d16
 1444              	GenDsp_Fill_Circle_Section:
 1445              	.LVL148:
 1446              	.LFB17:
 340:Dsp/widget/wgt_core/GenDsp.c **** 
 341:Dsp/widget/wgt_core/GenDsp.c **** static void GenDsp_Fill_Circle_Section(uint8_t **map, uint8_t x, uint8_t y, uint8_t x0, uint8_t y0,
 342:Dsp/widget/wgt_core/GenDsp.c **** {
 1447              		.loc 1 342 1 is_stmt 1 view -0
 1448              		.cfi_startproc
 1449              		@ args = 8, pretend = 0, frame = 0
 1450              		@ frame_needed = 0, uses_anonymous_args = 0
 1451              		.loc 1 342 1 is_stmt 0 view .LVU347
 1452 0000 2DE9F047 		push	{r4, r5, r6, r7, r8, r9, r10, lr}
 1453              	.LCFI33:
 1454              		.cfi_def_cfa_offset 32
 1455              		.cfi_offset 4, -32
 1456              		.cfi_offset 5, -28
 1457              		.cfi_offset 6, -24
 1458              		.cfi_offset 7, -20
 1459              		.cfi_offset 8, -16
 1460              		.cfi_offset 9, -12
 1461              		.cfi_offset 10, -8
 1462              		.cfi_offset 14, -4
 1463 0004 82B0     		sub	sp, sp, #8
 1464              	.LCFI34:
 1465              		.cfi_def_cfa_offset 40
 1466 0006 8046     		mov	r8, r0
 1467 0008 0C46     		mov	r4, r1
 1468 000a 1746     		mov	r7, r2
 1469 000c 1D46     		mov	r5, r3
 1470 000e 9DF82890 		ldrb	r9, [sp, #40]	@ zero_extendqisi2
 1471 0012 9DF82C60 		ldrb	r6, [sp, #44]	@ zero_extendqisi2
 343:Dsp/widget/wgt_core/GenDsp.c ****     /* upper right */
 344:Dsp/widget/wgt_core/GenDsp.c ****     if (option & DRAW_UPPER_RIGHT)
 1472              		.loc 1 344 5 is_stmt 1 view .LVU348
 1473              		.loc 1 344 8 is_stmt 0 view .LVU349
 1474 0016 16F0010F 		tst	r6, #1
 1475 001a 0BD1     		bne	.L90
 1476              	.LVL149:
 1477              	.L85:
 345:Dsp/widget/wgt_core/GenDsp.c ****     {
 346:Dsp/widget/wgt_core/GenDsp.c ****         GenDsp_Draw_VLine(map, x0 + x, y0 - y, y + 1, 1);
 347:Dsp/widget/wgt_core/GenDsp.c ****         GenDsp_Draw_VLine(map, x0 + y, y0 - x, x + 1, 1);
 348:Dsp/widget/wgt_core/GenDsp.c ****     }
 349:Dsp/widget/wgt_core/GenDsp.c **** 
ARM GAS  /var/folders/lx/hc4sn_b53233_zkc9xbbl97r0000gp/T//cchyr23l.s 			page 34


 350:Dsp/widget/wgt_core/GenDsp.c ****     /* upper left */
 351:Dsp/widget/wgt_core/GenDsp.c ****     if (option & DRAW_UPPER_LEFT)
 1478              		.loc 1 351 5 is_stmt 1 view .LVU350
 1479              		.loc 1 351 8 is_stmt 0 view .LVU351
 1480 001c 16F0020F 		tst	r6, #2
 1481 0020 23D1     		bne	.L91
 1482              	.L86:
 352:Dsp/widget/wgt_core/GenDsp.c ****     {
 353:Dsp/widget/wgt_core/GenDsp.c ****         GenDsp_Draw_VLine(map, x0 - x, y0 - y, y + 1, 1);
 354:Dsp/widget/wgt_core/GenDsp.c ****         GenDsp_Draw_VLine(map, x0 - y, y0 - x, x + 1, 1);
 355:Dsp/widget/wgt_core/GenDsp.c ****     }
 356:Dsp/widget/wgt_core/GenDsp.c **** 
 357:Dsp/widget/wgt_core/GenDsp.c ****     /* lower right */
 358:Dsp/widget/wgt_core/GenDsp.c ****     if (option & DRAW_LOWER_RIGHT)
 1483              		.loc 1 358 5 is_stmt 1 view .LVU352
 1484              		.loc 1 358 8 is_stmt 0 view .LVU353
 1485 0022 16F0080F 		tst	r6, #8
 1486 0026 3CD1     		bne	.L92
 1487              	.L87:
 359:Dsp/widget/wgt_core/GenDsp.c ****     {
 360:Dsp/widget/wgt_core/GenDsp.c ****         GenDsp_Draw_VLine(map, x0 + x, y0, y + 1, 1);
 361:Dsp/widget/wgt_core/GenDsp.c ****         GenDsp_Draw_VLine(map, x0 + y, y0, x + 1, 1);
 362:Dsp/widget/wgt_core/GenDsp.c ****     }
 363:Dsp/widget/wgt_core/GenDsp.c **** 
 364:Dsp/widget/wgt_core/GenDsp.c ****     /* lower left */
 365:Dsp/widget/wgt_core/GenDsp.c ****     if (option & DRAW_LOWER_LEFT)
 1488              		.loc 1 365 5 is_stmt 1 view .LVU354
 1489              		.loc 1 365 8 is_stmt 0 view .LVU355
 1490 0028 16F0040F 		tst	r6, #4
 1491 002c 51D1     		bne	.L93
 1492              	.L84:
 366:Dsp/widget/wgt_core/GenDsp.c ****     {
 367:Dsp/widget/wgt_core/GenDsp.c ****         GenDsp_Draw_VLine(map, x0 - x, y0, y + 1, 1);
 368:Dsp/widget/wgt_core/GenDsp.c ****         GenDsp_Draw_VLine(map, x0 - y, y0, x + 1, 1);
 369:Dsp/widget/wgt_core/GenDsp.c ****     }
 370:Dsp/widget/wgt_core/GenDsp.c **** }
 1493              		.loc 1 370 1 view .LVU356
 1494 002e 02B0     		add	sp, sp, #8
 1495              	.LCFI35:
 1496              		.cfi_remember_state
 1497              		.cfi_def_cfa_offset 32
 1498              		@ sp needed
 1499 0030 BDE8F087 		pop	{r4, r5, r6, r7, r8, r9, r10, pc}
 1500              	.LVL150:
 1501              	.L90:
 1502              	.LCFI36:
 1503              		.cfi_restore_state
 346:Dsp/widget/wgt_core/GenDsp.c ****         GenDsp_Draw_VLine(map, x0 + y, y0 - x, x + 1, 1);
 1504              		.loc 1 346 9 is_stmt 1 view .LVU357
 1505 0034 531C     		adds	r3, r2, #1
 1506              	.LVL151:
 346:Dsp/widget/wgt_core/GenDsp.c ****         GenDsp_Draw_VLine(map, x0 + y, y0 - x, x + 1, 1);
 1507              		.loc 1 346 9 is_stmt 0 view .LVU358
 1508 0036 A9EB0202 		sub	r2, r9, r2
 1509              	.LVL152:
 346:Dsp/widget/wgt_core/GenDsp.c ****         GenDsp_Draw_VLine(map, x0 + y, y0 - x, x + 1, 1);
 1510              		.loc 1 346 9 view .LVU359
ARM GAS  /var/folders/lx/hc4sn_b53233_zkc9xbbl97r0000gp/T//cchyr23l.s 			page 35


 1511 003a 6918     		adds	r1, r5, r1
 1512              	.LVL153:
 346:Dsp/widget/wgt_core/GenDsp.c ****         GenDsp_Draw_VLine(map, x0 + y, y0 - x, x + 1, 1);
 1513              		.loc 1 346 9 view .LVU360
 1514 003c 4FF0010A 		mov	r10, #1
 1515 0040 CDF800A0 		str	r10, [sp]
 1516 0044 DBB2     		uxtb	r3, r3
 1517 0046 D2B2     		uxtb	r2, r2
 1518 0048 C9B2     		uxtb	r1, r1
 1519 004a FFF7FEFF 		bl	GenDsp_Draw_VLine
 1520              	.LVL154:
 347:Dsp/widget/wgt_core/GenDsp.c ****     }
 1521              		.loc 1 347 9 is_stmt 1 view .LVU361
 1522 004e 04EB0A03 		add	r3, r4, r10
 1523 0052 A9EB0402 		sub	r2, r9, r4
 1524 0056 E919     		adds	r1, r5, r7
 1525 0058 CDF800A0 		str	r10, [sp]
 1526 005c DBB2     		uxtb	r3, r3
 1527 005e D2B2     		uxtb	r2, r2
 1528 0060 C9B2     		uxtb	r1, r1
 1529 0062 4046     		mov	r0, r8
 1530 0064 FFF7FEFF 		bl	GenDsp_Draw_VLine
 1531              	.LVL155:
 1532 0068 D8E7     		b	.L85
 1533              	.L91:
 353:Dsp/widget/wgt_core/GenDsp.c ****         GenDsp_Draw_VLine(map, x0 - y, y0 - x, x + 1, 1);
 1534              		.loc 1 353 9 view .LVU362
 1535 006a 7B1C     		adds	r3, r7, #1
 1536 006c A9EB0702 		sub	r2, r9, r7
 1537 0070 291B     		subs	r1, r5, r4
 1538 0072 4FF0010A 		mov	r10, #1
 1539 0076 CDF800A0 		str	r10, [sp]
 1540 007a DBB2     		uxtb	r3, r3
 1541 007c D2B2     		uxtb	r2, r2
 1542 007e C9B2     		uxtb	r1, r1
 1543 0080 4046     		mov	r0, r8
 1544 0082 FFF7FEFF 		bl	GenDsp_Draw_VLine
 1545              	.LVL156:
 354:Dsp/widget/wgt_core/GenDsp.c ****     }
 1546              		.loc 1 354 9 view .LVU363
 1547 0086 04EB0A03 		add	r3, r4, r10
 1548 008a A9EB0402 		sub	r2, r9, r4
 1549 008e E91B     		subs	r1, r5, r7
 1550 0090 CDF800A0 		str	r10, [sp]
 1551 0094 DBB2     		uxtb	r3, r3
 1552 0096 D2B2     		uxtb	r2, r2
 1553 0098 C9B2     		uxtb	r1, r1
 1554 009a 4046     		mov	r0, r8
 1555 009c FFF7FEFF 		bl	GenDsp_Draw_VLine
 1556              	.LVL157:
 1557 00a0 BFE7     		b	.L86
 1558              	.L92:
 360:Dsp/widget/wgt_core/GenDsp.c ****         GenDsp_Draw_VLine(map, x0 + y, y0, x + 1, 1);
 1559              		.loc 1 360 9 view .LVU364
 1560 00a2 7B1C     		adds	r3, r7, #1
 1561 00a4 2919     		adds	r1, r5, r4
 1562 00a6 4FF0010A 		mov	r10, #1
ARM GAS  /var/folders/lx/hc4sn_b53233_zkc9xbbl97r0000gp/T//cchyr23l.s 			page 36


 1563 00aa CDF800A0 		str	r10, [sp]
 1564 00ae DBB2     		uxtb	r3, r3
 1565 00b0 4A46     		mov	r2, r9
 1566 00b2 C9B2     		uxtb	r1, r1
 1567 00b4 4046     		mov	r0, r8
 1568 00b6 FFF7FEFF 		bl	GenDsp_Draw_VLine
 1569              	.LVL158:
 361:Dsp/widget/wgt_core/GenDsp.c ****     }
 1570              		.loc 1 361 9 view .LVU365
 1571 00ba 04EB0A03 		add	r3, r4, r10
 1572 00be E919     		adds	r1, r5, r7
 1573 00c0 CDF800A0 		str	r10, [sp]
 1574 00c4 DBB2     		uxtb	r3, r3
 1575 00c6 4A46     		mov	r2, r9
 1576 00c8 C9B2     		uxtb	r1, r1
 1577 00ca 4046     		mov	r0, r8
 1578 00cc FFF7FEFF 		bl	GenDsp_Draw_VLine
 1579              	.LVL159:
 1580 00d0 AAE7     		b	.L87
 1581              	.L93:
 367:Dsp/widget/wgt_core/GenDsp.c ****         GenDsp_Draw_VLine(map, x0 - y, y0, x + 1, 1);
 1582              		.loc 1 367 9 view .LVU366
 1583 00d2 7B1C     		adds	r3, r7, #1
 1584 00d4 291B     		subs	r1, r5, r4
 1585 00d6 0126     		movs	r6, #1
 1586 00d8 0096     		str	r6, [sp]
 1587 00da DBB2     		uxtb	r3, r3
 1588 00dc 4A46     		mov	r2, r9
 1589 00de C9B2     		uxtb	r1, r1
 1590 00e0 4046     		mov	r0, r8
 1591 00e2 FFF7FEFF 		bl	GenDsp_Draw_VLine
 1592              	.LVL160:
 368:Dsp/widget/wgt_core/GenDsp.c ****     }
 1593              		.loc 1 368 9 view .LVU367
 1594 00e6 A319     		adds	r3, r4, r6
 1595 00e8 E91B     		subs	r1, r5, r7
 1596 00ea 0096     		str	r6, [sp]
 1597 00ec DBB2     		uxtb	r3, r3
 1598 00ee 4A46     		mov	r2, r9
 1599 00f0 C9B2     		uxtb	r1, r1
 1600 00f2 4046     		mov	r0, r8
 1601 00f4 FFF7FEFF 		bl	GenDsp_Draw_VLine
 1602              	.LVL161:
 1603              		.loc 1 370 1 is_stmt 0 view .LVU368
 1604 00f8 99E7     		b	.L84
 1605              		.cfi_endproc
 1606              	.LFE17:
 1608              		.section	.text.GenDsp_FillCircle,"ax",%progbits
 1609              		.align	1
 1610              		.syntax unified
 1611              		.thumb
 1612              		.thumb_func
 1613              		.fpu fpv4-sp-d16
 1615              	GenDsp_FillCircle:
 1616              	.LVL162:
 1617              	.LFB18:
 371:Dsp/widget/wgt_core/GenDsp.c **** 
ARM GAS  /var/folders/lx/hc4sn_b53233_zkc9xbbl97r0000gp/T//cchyr23l.s 			page 37


 372:Dsp/widget/wgt_core/GenDsp.c **** static void GenDsp_FillCircle(uint8_t **map, uint8_t x0, uint8_t y0, uint8_t radius, uint8_t option
 373:Dsp/widget/wgt_core/GenDsp.c **** {
 1618              		.loc 1 373 1 is_stmt 1 view -0
 1619              		.cfi_startproc
 1620              		@ args = 4, pretend = 0, frame = 8
 1621              		@ frame_needed = 0, uses_anonymous_args = 0
 1622              		.loc 1 373 1 is_stmt 0 view .LVU370
 1623 0000 2DE9F04F 		push	{r4, r5, r6, r7, r8, r9, r10, fp, lr}
 1624              	.LCFI37:
 1625              		.cfi_def_cfa_offset 36
 1626              		.cfi_offset 4, -36
 1627              		.cfi_offset 5, -32
 1628              		.cfi_offset 6, -28
 1629              		.cfi_offset 7, -24
 1630              		.cfi_offset 8, -20
 1631              		.cfi_offset 9, -16
 1632              		.cfi_offset 10, -12
 1633              		.cfi_offset 11, -8
 1634              		.cfi_offset 14, -4
 1635 0004 85B0     		sub	sp, sp, #20
 1636              	.LCFI38:
 1637              		.cfi_def_cfa_offset 56
 1638 0006 0390     		str	r0, [sp, #12]
 1639 0008 8946     		mov	r9, r1
 1640 000a 9246     		mov	r10, r2
 1641 000c 1E46     		mov	r6, r3
 1642 000e 9DF838B0 		ldrb	fp, [sp, #56]	@ zero_extendqisi2
 374:Dsp/widget/wgt_core/GenDsp.c ****     int8_t f;
 1643              		.loc 1 374 5 is_stmt 1 view .LVU371
 375:Dsp/widget/wgt_core/GenDsp.c ****     int8_t ddF_x;
 1644              		.loc 1 375 5 view .LVU372
 376:Dsp/widget/wgt_core/GenDsp.c ****     int8_t ddF_y;
 1645              		.loc 1 376 5 view .LVU373
 377:Dsp/widget/wgt_core/GenDsp.c ****     uint8_t x;
 1646              		.loc 1 377 5 view .LVU374
 378:Dsp/widget/wgt_core/GenDsp.c ****     uint8_t y;
 1647              		.loc 1 378 5 view .LVU375
 379:Dsp/widget/wgt_core/GenDsp.c **** 
 380:Dsp/widget/wgt_core/GenDsp.c ****     f = 1;
 1648              		.loc 1 380 5 view .LVU376
 1649              	.LVL163:
 381:Dsp/widget/wgt_core/GenDsp.c ****     f -= radius;
 1650              		.loc 1 381 5 view .LVU377
 1651              		.loc 1 381 7 is_stmt 0 view .LVU378
 1652 0012 C3F10104 		rsb	r4, r3, #1
 1653 0016 64B2     		sxtb	r4, r4
 1654              	.LVL164:
 382:Dsp/widget/wgt_core/GenDsp.c ****     ddF_x = 1;
 1655              		.loc 1 382 5 is_stmt 1 view .LVU379
 383:Dsp/widget/wgt_core/GenDsp.c ****     ddF_y = 0;
 1656              		.loc 1 383 5 view .LVU380
 384:Dsp/widget/wgt_core/GenDsp.c ****     ddF_y -= radius;
 1657              		.loc 1 384 5 view .LVU381
 385:Dsp/widget/wgt_core/GenDsp.c ****     ddF_y *= 2;
 1658              		.loc 1 385 5 view .LVU382
 1659              		.loc 1 385 11 is_stmt 0 view .LVU383
 1660 0018 C3EBC318 		rsb	r8, r3, r3, lsl #7
ARM GAS  /var/folders/lx/hc4sn_b53233_zkc9xbbl97r0000gp/T//cchyr23l.s 			page 38


 1661 001c 4FEA4808 		lsl	r8, r8, #1
 1662 0020 4FFA88F8 		sxtb	r8, r8
 1663              	.LVL165:
 386:Dsp/widget/wgt_core/GenDsp.c ****     x = 0;
 1664              		.loc 1 386 5 is_stmt 1 view .LVU384
 387:Dsp/widget/wgt_core/GenDsp.c ****     y = radius;
 1665              		.loc 1 387 5 view .LVU385
 388:Dsp/widget/wgt_core/GenDsp.c **** 
 389:Dsp/widget/wgt_core/GenDsp.c ****     GenDsp_Fill_Circle_Section(map, x, y, x0, y0, option);
 1666              		.loc 1 389 5 view .LVU386
 1667 0024 CDF804B0 		str	fp, [sp, #4]
 1668 0028 0092     		str	r2, [sp]
 1669 002a 0B46     		mov	r3, r1
 1670              	.LVL166:
 1671              		.loc 1 389 5 is_stmt 0 view .LVU387
 1672 002c 3246     		mov	r2, r6
 1673              	.LVL167:
 1674              		.loc 1 389 5 view .LVU388
 1675 002e 0021     		movs	r1, #0
 1676              	.LVL168:
 1677              		.loc 1 389 5 view .LVU389
 1678 0030 FFF7FEFF 		bl	GenDsp_Fill_Circle_Section
 1679              	.LVL169:
 390:Dsp/widget/wgt_core/GenDsp.c **** 
 391:Dsp/widget/wgt_core/GenDsp.c ****     while (x < y)
 1680              		.loc 1 391 5 is_stmt 1 view .LVU390
 386:Dsp/widget/wgt_core/GenDsp.c ****     y = radius;
 1681              		.loc 1 386 7 is_stmt 0 view .LVU391
 1682 0034 0025     		movs	r5, #0
 382:Dsp/widget/wgt_core/GenDsp.c ****     ddF_y = 0;
 1683              		.loc 1 382 11 view .LVU392
 1684 0036 0127     		movs	r7, #1
 1685              		.loc 1 391 11 view .LVU393
 1686 0038 19E0     		b	.L95
 1687              	.LVL170:
 1688              	.L100:
 392:Dsp/widget/wgt_core/GenDsp.c ****     {
 393:Dsp/widget/wgt_core/GenDsp.c ****         if (f >= 0)
 394:Dsp/widget/wgt_core/GenDsp.c ****         {
 395:Dsp/widget/wgt_core/GenDsp.c ****             y--;
 1689              		.loc 1 395 13 is_stmt 1 view .LVU394
 1690              		.loc 1 395 14 is_stmt 0 view .LVU395
 1691 003a 013E     		subs	r6, r6, #1
 1692              	.LVL171:
 1693              		.loc 1 395 14 view .LVU396
 1694 003c F6B2     		uxtb	r6, r6
 1695              	.LVL172:
 396:Dsp/widget/wgt_core/GenDsp.c ****             ddF_y += 2;
 1696              		.loc 1 396 13 is_stmt 1 view .LVU397
 1697              		.loc 1 396 19 is_stmt 0 view .LVU398
 1698 003e 08F10203 		add	r3, r8, #2
 1699 0042 4FFA83F8 		sxtb	r8, r3
 1700              	.LVL173:
 397:Dsp/widget/wgt_core/GenDsp.c ****             f += ddF_y;
 1701              		.loc 1 397 13 is_stmt 1 view .LVU399
 1702              		.loc 1 397 15 is_stmt 0 view .LVU400
 1703 0046 54FA83F4 		uxtab	r4, r4, r3
ARM GAS  /var/folders/lx/hc4sn_b53233_zkc9xbbl97r0000gp/T//cchyr23l.s 			page 39


 1704              	.LVL174:
 1705              		.loc 1 397 15 view .LVU401
 1706 004a 64B2     		sxtb	r4, r4
 1707              	.LVL175:
 1708              	.L96:
 398:Dsp/widget/wgt_core/GenDsp.c ****         }
 399:Dsp/widget/wgt_core/GenDsp.c ****         x++;
 1709              		.loc 1 399 9 is_stmt 1 view .LVU402
 1710              		.loc 1 399 10 is_stmt 0 view .LVU403
 1711 004c 0135     		adds	r5, r5, #1
 1712              	.LVL176:
 1713              		.loc 1 399 10 view .LVU404
 1714 004e EDB2     		uxtb	r5, r5
 1715              	.LVL177:
 400:Dsp/widget/wgt_core/GenDsp.c ****         ddF_x += 2;
 1716              		.loc 1 400 9 is_stmt 1 view .LVU405
 1717              		.loc 1 400 15 is_stmt 0 view .LVU406
 1718 0050 BB1C     		adds	r3, r7, #2
 1719 0052 5FB2     		sxtb	r7, r3
 1720              	.LVL178:
 401:Dsp/widget/wgt_core/GenDsp.c ****         f += ddF_x;
 1721              		.loc 1 401 9 is_stmt 1 view .LVU407
 1722              		.loc 1 401 11 is_stmt 0 view .LVU408
 1723 0054 54FA83F4 		uxtab	r4, r4, r3
 1724              	.LVL179:
 1725              		.loc 1 401 11 view .LVU409
 1726 0058 64B2     		sxtb	r4, r4
 1727              	.LVL180:
 402:Dsp/widget/wgt_core/GenDsp.c **** 
 403:Dsp/widget/wgt_core/GenDsp.c ****         GenDsp_Fill_Circle_Section(map, x, y, x0, y0, option);
 1728              		.loc 1 403 9 is_stmt 1 view .LVU410
 1729 005a CDF804B0 		str	fp, [sp, #4]
 1730 005e CDF800A0 		str	r10, [sp]
 1731 0062 4B46     		mov	r3, r9
 1732 0064 3246     		mov	r2, r6
 1733 0066 2946     		mov	r1, r5
 1734 0068 0398     		ldr	r0, [sp, #12]
 1735 006a FFF7FEFF 		bl	GenDsp_Fill_Circle_Section
 1736              	.LVL181:
 1737              	.L95:
 391:Dsp/widget/wgt_core/GenDsp.c ****     {
 1738              		.loc 1 391 11 view .LVU411
 1739 006e B542     		cmp	r5, r6
 1740 0070 02D2     		bcs	.L99
 393:Dsp/widget/wgt_core/GenDsp.c ****         {
 1741              		.loc 1 393 9 view .LVU412
 393:Dsp/widget/wgt_core/GenDsp.c ****         {
 1742              		.loc 1 393 12 is_stmt 0 view .LVU413
 1743 0072 002C     		cmp	r4, #0
 1744 0074 E1DA     		bge	.L100
 1745 0076 E9E7     		b	.L96
 1746              	.L99:
 404:Dsp/widget/wgt_core/GenDsp.c ****     }
 405:Dsp/widget/wgt_core/GenDsp.c **** }
 1747              		.loc 1 405 1 view .LVU414
 1748 0078 05B0     		add	sp, sp, #20
 1749              	.LCFI39:
ARM GAS  /var/folders/lx/hc4sn_b53233_zkc9xbbl97r0000gp/T//cchyr23l.s 			page 40


 1750              		.cfi_def_cfa_offset 36
 1751              		@ sp needed
 1752 007a BDE8F08F 		pop	{r4, r5, r6, r7, r8, r9, r10, fp, pc}
 1753              		.loc 1 405 1 view .LVU415
 1754              		.cfi_endproc
 1755              	.LFE18:
 1757              		.section	.text.GenDsp_FillRectangle,"ax",%progbits
 1758              		.align	1
 1759              		.syntax unified
 1760              		.thumb
 1761              		.thumb_func
 1762              		.fpu fpv4-sp-d16
 1764              	GenDsp_FillRectangle:
 1765              	.LVL182:
 1766              	.LFB19:
 406:Dsp/widget/wgt_core/GenDsp.c **** 
 407:Dsp/widget/wgt_core/GenDsp.c **** static void GenDsp_FillRectangle(uint8_t **map, uint8_t x, uint8_t y, uint8_t width, uint8_t height
 408:Dsp/widget/wgt_core/GenDsp.c **** {
 1767              		.loc 1 408 1 is_stmt 1 view -0
 1768              		.cfi_startproc
 1769              		@ args = 4, pretend = 0, frame = 0
 1770              		@ frame_needed = 0, uses_anonymous_args = 0
 1771              		.loc 1 408 1 is_stmt 0 view .LVU417
 1772 0000 2DE9F047 		push	{r4, r5, r6, r7, r8, r9, r10, lr}
 1773              	.LCFI40:
 1774              		.cfi_def_cfa_offset 32
 1775              		.cfi_offset 4, -32
 1776              		.cfi_offset 5, -28
 1777              		.cfi_offset 6, -24
 1778              		.cfi_offset 7, -20
 1779              		.cfi_offset 8, -16
 1780              		.cfi_offset 9, -12
 1781              		.cfi_offset 10, -8
 1782              		.cfi_offset 14, -4
 1783 0004 8046     		mov	r8, r0
 1784 0006 8946     		mov	r9, r1
 1785 0008 1646     		mov	r6, r2
 1786 000a 9A46     		mov	r10, r3
 1787 000c 9DF82070 		ldrb	r7, [sp, #32]	@ zero_extendqisi2
 409:Dsp/widget/wgt_core/GenDsp.c ****     for (uint8_t x_tmp = x; x_tmp < x + width; x_tmp++)
 1788              		.loc 1 409 5 is_stmt 1 view .LVU418
 1789              	.LBB10:
 1790              		.loc 1 409 10 view .LVU419
 1791              	.LVL183:
 1792              		.loc 1 409 18 is_stmt 0 view .LVU420
 1793 0010 0D46     		mov	r5, r1
 1794              		.loc 1 409 5 view .LVU421
 1795 0012 0CE0     		b	.L102
 1796              	.LVL184:
 1797              	.L103:
 1798              	.LBB11:
 410:Dsp/widget/wgt_core/GenDsp.c ****     {
 411:Dsp/widget/wgt_core/GenDsp.c ****         for (uint8_t y_tmp = y; y_tmp < y + height; y_tmp++)
 412:Dsp/widget/wgt_core/GenDsp.c ****         {
 413:Dsp/widget/wgt_core/GenDsp.c ****             GenDsp_DrawPoint(map, x_tmp, y_tmp, true);
 1799              		.loc 1 413 13 is_stmt 1 discriminator 3 view .LVU422
 1800 0014 0123     		movs	r3, #1
ARM GAS  /var/folders/lx/hc4sn_b53233_zkc9xbbl97r0000gp/T//cchyr23l.s 			page 41


 1801 0016 2246     		mov	r2, r4
 1802 0018 2946     		mov	r1, r5
 1803 001a 4046     		mov	r0, r8
 1804 001c FFF7FEFF 		bl	GenDsp_DrawPoint
 1805              	.LVL185:
 411:Dsp/widget/wgt_core/GenDsp.c ****         {
 1806              		.loc 1 411 53 discriminator 3 view .LVU423
 411:Dsp/widget/wgt_core/GenDsp.c ****         {
 1807              		.loc 1 411 58 is_stmt 0 discriminator 3 view .LVU424
 1808 0020 0134     		adds	r4, r4, #1
 1809              	.LVL186:
 411:Dsp/widget/wgt_core/GenDsp.c ****         {
 1810              		.loc 1 411 58 discriminator 3 view .LVU425
 1811 0022 E4B2     		uxtb	r4, r4
 1812              	.LVL187:
 1813              	.L104:
 411:Dsp/widget/wgt_core/GenDsp.c ****         {
 1814              		.loc 1 411 33 is_stmt 1 discriminator 1 view .LVU426
 411:Dsp/widget/wgt_core/GenDsp.c ****         {
 1815              		.loc 1 411 43 is_stmt 0 discriminator 1 view .LVU427
 1816 0024 F319     		adds	r3, r6, r7
 411:Dsp/widget/wgt_core/GenDsp.c ****         {
 1817              		.loc 1 411 9 discriminator 1 view .LVU428
 1818 0026 9C42     		cmp	r4, r3
 1819 0028 F4DB     		blt	.L103
 1820              	.LBE11:
 409:Dsp/widget/wgt_core/GenDsp.c ****     for (uint8_t x_tmp = x; x_tmp < x + width; x_tmp++)
 1821              		.loc 1 409 48 is_stmt 1 discriminator 2 view .LVU429
 409:Dsp/widget/wgt_core/GenDsp.c ****     for (uint8_t x_tmp = x; x_tmp < x + width; x_tmp++)
 1822              		.loc 1 409 53 is_stmt 0 discriminator 2 view .LVU430
 1823 002a 0135     		adds	r5, r5, #1
 1824              	.LVL188:
 409:Dsp/widget/wgt_core/GenDsp.c ****     for (uint8_t x_tmp = x; x_tmp < x + width; x_tmp++)
 1825              		.loc 1 409 53 discriminator 2 view .LVU431
 1826 002c EDB2     		uxtb	r5, r5
 1827              	.LVL189:
 1828              	.L102:
 409:Dsp/widget/wgt_core/GenDsp.c ****     for (uint8_t x_tmp = x; x_tmp < x + width; x_tmp++)
 1829              		.loc 1 409 29 is_stmt 1 discriminator 1 view .LVU432
 409:Dsp/widget/wgt_core/GenDsp.c ****     for (uint8_t x_tmp = x; x_tmp < x + width; x_tmp++)
 1830              		.loc 1 409 39 is_stmt 0 discriminator 1 view .LVU433
 1831 002e 09EB0A03 		add	r3, r9, r10
 409:Dsp/widget/wgt_core/GenDsp.c ****     for (uint8_t x_tmp = x; x_tmp < x + width; x_tmp++)
 1832              		.loc 1 409 5 discriminator 1 view .LVU434
 1833 0032 9D42     		cmp	r5, r3
 1834 0034 01DA     		bge	.L107
 1835              	.LBB12:
 411:Dsp/widget/wgt_core/GenDsp.c ****         {
 1836              		.loc 1 411 22 view .LVU435
 1837 0036 3446     		mov	r4, r6
 1838 0038 F4E7     		b	.L104
 1839              	.L107:
 1840              	.LBE12:
 1841              	.LBE10:
 414:Dsp/widget/wgt_core/GenDsp.c ****         }
 415:Dsp/widget/wgt_core/GenDsp.c ****     }
 416:Dsp/widget/wgt_core/GenDsp.c **** }
ARM GAS  /var/folders/lx/hc4sn_b53233_zkc9xbbl97r0000gp/T//cchyr23l.s 			page 42


 1842              		.loc 1 416 1 view .LVU436
 1843 003a BDE8F087 		pop	{r4, r5, r6, r7, r8, r9, r10, pc}
 1844              		.loc 1 416 1 view .LVU437
 1845              		.cfi_endproc
 1846              	.LFE19:
 1848              		.section	.text.GenDsp_Fill_RadiusRectangle,"ax",%progbits
 1849              		.align	1
 1850              		.syntax unified
 1851              		.thumb
 1852              		.thumb_func
 1853              		.fpu fpv4-sp-d16
 1855              	GenDsp_Fill_RadiusRectangle:
 1856              	.LVL190:
 1857              	.LFB20:
 417:Dsp/widget/wgt_core/GenDsp.c **** 
 418:Dsp/widget/wgt_core/GenDsp.c **** static void GenDsp_Fill_RadiusRectangle(uint8_t **map, uint8_t x, uint8_t y, uint8_t width, uint8_t
 419:Dsp/widget/wgt_core/GenDsp.c **** {
 1858              		.loc 1 419 1 is_stmt 1 view -0
 1859              		.cfi_startproc
 1860              		@ args = 8, pretend = 0, frame = 8
 1861              		@ frame_needed = 0, uses_anonymous_args = 0
 1862              		.loc 1 419 1 is_stmt 0 view .LVU439
 1863 0000 2DE9F04F 		push	{r4, r5, r6, r7, r8, r9, r10, fp, lr}
 1864              	.LCFI41:
 1865              		.cfi_def_cfa_offset 36
 1866              		.cfi_offset 4, -36
 1867              		.cfi_offset 5, -32
 1868              		.cfi_offset 6, -28
 1869              		.cfi_offset 7, -24
 1870              		.cfi_offset 8, -20
 1871              		.cfi_offset 9, -16
 1872              		.cfi_offset 10, -12
 1873              		.cfi_offset 11, -8
 1874              		.cfi_offset 14, -4
 1875 0004 85B0     		sub	sp, sp, #20
 1876              	.LCFI42:
 1877              		.cfi_def_cfa_offset 56
 1878 0006 0746     		mov	r7, r0
 1879 0008 0C46     		mov	r4, r1
 1880 000a 9046     		mov	r8, r2
 1881 000c 9DF838B0 		ldrb	fp, [sp, #56]	@ zero_extendqisi2
 1882 0010 9DF83C50 		ldrb	r5, [sp, #60]	@ zero_extendqisi2
 420:Dsp/widget/wgt_core/GenDsp.c ****     GenDsp_FillRectangle(map, x + radius, y, width - 2 * radius, height);
 1883              		.loc 1 420 5 is_stmt 1 view .LVU440
 1884 0014 01EB0509 		add	r9, r1, r5
 1885 0018 5FFA89F9 		uxtb	r9, r9
 1886 001c 6E00     		lsls	r6, r5, #1
 1887 001e F6B2     		uxtb	r6, r6
 1888 0020 0393     		str	r3, [sp, #12]
 1889 0022 9B1B     		subs	r3, r3, r6
 1890              	.LVL191:
 1891              		.loc 1 420 5 is_stmt 0 view .LVU441
 1892 0024 CDF800B0 		str	fp, [sp]
 1893 0028 DBB2     		uxtb	r3, r3
 1894 002a 4946     		mov	r1, r9
 1895              	.LVL192:
 1896              		.loc 1 420 5 view .LVU442
ARM GAS  /var/folders/lx/hc4sn_b53233_zkc9xbbl97r0000gp/T//cchyr23l.s 			page 43


 1897 002c FFF7FEFF 		bl	GenDsp_FillRectangle
 1898              	.LVL193:
 421:Dsp/widget/wgt_core/GenDsp.c ****     GenDsp_FillRectangle(map, x, y + radius, radius + 1, height - 2 * radius - 1);
 1899              		.loc 1 421 5 is_stmt 1 view .LVU443
 1900 0030 CDF80880 		str	r8, [sp, #8]
 1901 0034 A844     		add	r8, r5, r8
 1902 0036 5FFA88F8 		uxtb	r8, r8
 1903 003a 05F1010A 		add	r10, r5, #1
 1904 003e 5FFA8AFA 		uxtb	r10, r10
 1905              		.loc 1 421 65 is_stmt 0 view .LVU444
 1906 0042 ABEB0606 		sub	r6, fp, r6
 1907 0046 F6B2     		uxtb	r6, r6
 1908              		.loc 1 421 5 view .LVU445
 1909 0048 731E     		subs	r3, r6, #1
 1910 004a DBB2     		uxtb	r3, r3
 1911 004c 0093     		str	r3, [sp]
 1912 004e 5346     		mov	r3, r10
 1913 0050 4246     		mov	r2, r8
 1914 0052 2146     		mov	r1, r4
 1915 0054 3846     		mov	r0, r7
 1916 0056 FFF7FEFF 		bl	GenDsp_FillRectangle
 1917              	.LVL194:
 422:Dsp/widget/wgt_core/GenDsp.c ****     GenDsp_FillRectangle(map, x + width - radius, y + radius, radius + 1, height - 2 * radius);
 1918              		.loc 1 422 5 is_stmt 1 view .LVU446
 1919              		.loc 1 422 33 is_stmt 0 view .LVU447
 1920 005a 039B     		ldr	r3, [sp, #12]
 1921 005c 1C44     		add	r4, r4, r3
 1922 005e E4B2     		uxtb	r4, r4
 1923              		.loc 1 422 5 view .LVU448
 1924 0060 641B     		subs	r4, r4, r5
 1925 0062 E4B2     		uxtb	r4, r4
 1926 0064 0096     		str	r6, [sp]
 1927 0066 5346     		mov	r3, r10
 1928 0068 4246     		mov	r2, r8
 1929 006a 2146     		mov	r1, r4
 1930 006c 3846     		mov	r0, r7
 1931 006e FFF7FEFF 		bl	GenDsp_FillRectangle
 1932              	.LVL195:
 423:Dsp/widget/wgt_core/GenDsp.c **** 
 424:Dsp/widget/wgt_core/GenDsp.c ****     GenDsp_FillCircle(map, x + radius, y + radius, radius, DRAW_UPPER_LEFT);
 1933              		.loc 1 424 5 is_stmt 1 view .LVU449
 1934 0072 0223     		movs	r3, #2
 1935 0074 0093     		str	r3, [sp]
 1936 0076 2B46     		mov	r3, r5
 1937 0078 4246     		mov	r2, r8
 1938 007a 4946     		mov	r1, r9
 1939 007c 3846     		mov	r0, r7
 1940 007e FFF7FEFF 		bl	GenDsp_FillCircle
 1941              	.LVL196:
 425:Dsp/widget/wgt_core/GenDsp.c ****     GenDsp_FillCircle(map, x + width - radius, y + radius, radius, DRAW_UPPER_RIGHT);
 1942              		.loc 1 425 5 view .LVU450
 1943 0082 0123     		movs	r3, #1
 1944 0084 0093     		str	r3, [sp]
 1945 0086 2B46     		mov	r3, r5
 1946 0088 4246     		mov	r2, r8
 1947 008a 2146     		mov	r1, r4
 1948 008c 3846     		mov	r0, r7
ARM GAS  /var/folders/lx/hc4sn_b53233_zkc9xbbl97r0000gp/T//cchyr23l.s 			page 44


 1949 008e FFF7FEFF 		bl	GenDsp_FillCircle
 1950              	.LVL197:
 426:Dsp/widget/wgt_core/GenDsp.c ****     GenDsp_FillCircle(map, x + radius, y + height - radius - 2, radius, DRAW_LOWER_LEFT);
 1951              		.loc 1 426 5 view .LVU451
 1952              		.loc 1 426 42 is_stmt 0 view .LVU452
 1953 0092 029A     		ldr	r2, [sp, #8]
 1954 0094 02EB0B06 		add	r6, r2, fp
 1955 0098 F6B2     		uxtb	r6, r6
 1956              		.loc 1 426 51 view .LVU453
 1957 009a 761B     		subs	r6, r6, r5
 1958 009c F6B2     		uxtb	r6, r6
 1959              		.loc 1 426 5 view .LVU454
 1960 009e 023E     		subs	r6, r6, #2
 1961 00a0 F6B2     		uxtb	r6, r6
 1962 00a2 0423     		movs	r3, #4
 1963 00a4 0093     		str	r3, [sp]
 1964 00a6 2B46     		mov	r3, r5
 1965 00a8 3246     		mov	r2, r6
 1966 00aa 4946     		mov	r1, r9
 1967 00ac 3846     		mov	r0, r7
 1968 00ae FFF7FEFF 		bl	GenDsp_FillCircle
 1969              	.LVL198:
 427:Dsp/widget/wgt_core/GenDsp.c ****     GenDsp_FillCircle(map, x + width - radius, y + height - radius - 2, radius, DRAW_LOWER_RIGHT);
 1970              		.loc 1 427 5 is_stmt 1 view .LVU455
 1971 00b2 0823     		movs	r3, #8
 1972 00b4 0093     		str	r3, [sp]
 1973 00b6 2B46     		mov	r3, r5
 1974 00b8 3246     		mov	r2, r6
 1975 00ba 2146     		mov	r1, r4
 1976 00bc 3846     		mov	r0, r7
 1977 00be FFF7FEFF 		bl	GenDsp_FillCircle
 1978              	.LVL199:
 428:Dsp/widget/wgt_core/GenDsp.c **** }
 1979              		.loc 1 428 1 is_stmt 0 view .LVU456
 1980 00c2 05B0     		add	sp, sp, #20
 1981              	.LCFI43:
 1982              		.cfi_def_cfa_offset 36
 1983              		@ sp needed
 1984 00c4 BDE8F08F 		pop	{r4, r5, r6, r7, r8, r9, r10, fp, pc}
 1985              		.loc 1 428 1 view .LVU457
 1986              		.cfi_endproc
 1987              	.LFE20:
 1989              		.section	.rodata.GenDsp_DrawNum.str1.4,"aMS",%progbits,1
 1990              		.align	2
 1991              	.LC0:
 1992 0000 256400   		.ascii	"%d\000"
 1993              		.section	.text.GenDsp_DrawNum,"ax",%progbits
 1994              		.align	1
 1995              		.syntax unified
 1996              		.thumb
 1997              		.thumb_func
 1998              		.fpu fpv4-sp-d16
 2000              	GenDsp_DrawNum:
 2001              	.LVL200:
 2002              	.LFB7:
 132:Dsp/widget/wgt_core/GenDsp.c ****     char num_buff[MAX_DSP_NUM_LEN];
 2003              		.loc 1 132 1 is_stmt 1 view -0
ARM GAS  /var/folders/lx/hc4sn_b53233_zkc9xbbl97r0000gp/T//cchyr23l.s 			page 45


 2004              		.cfi_startproc
 2005              		@ args = 8, pretend = 0, frame = 16
 2006              		@ frame_needed = 0, uses_anonymous_args = 0
 132:Dsp/widget/wgt_core/GenDsp.c ****     char num_buff[MAX_DSP_NUM_LEN];
 2007              		.loc 1 132 1 is_stmt 0 view .LVU459
 2008 0000 70B5     		push	{r4, r5, r6, lr}
 2009              	.LCFI44:
 2010              		.cfi_def_cfa_offset 16
 2011              		.cfi_offset 4, -16
 2012              		.cfi_offset 5, -12
 2013              		.cfi_offset 6, -8
 2014              		.cfi_offset 14, -4
 2015 0002 86B0     		sub	sp, sp, #24
 2016              	.LCFI45:
 2017              		.cfi_def_cfa_offset 40
 2018 0004 0446     		mov	r4, r0
 2019 0006 0D46     		mov	r5, r1
 2020 0008 1E46     		mov	r6, r3
 133:Dsp/widget/wgt_core/GenDsp.c **** 
 2021              		.loc 1 133 5 is_stmt 1 view .LVU460
 135:Dsp/widget/wgt_core/GenDsp.c ****     GenDsp_DrawStr(font, map, num_buff, x, y, col_inv);
 2022              		.loc 1 135 5 view .LVU461
 2023 000a 0949     		ldr	r1, .L112
 2024              	.LVL201:
 135:Dsp/widget/wgt_core/GenDsp.c ****     GenDsp_DrawStr(font, map, num_buff, x, y, col_inv);
 2025              		.loc 1 135 5 is_stmt 0 view .LVU462
 2026 000c 03A8     		add	r0, sp, #12
 2027              	.LVL202:
 135:Dsp/widget/wgt_core/GenDsp.c ****     GenDsp_DrawStr(font, map, num_buff, x, y, col_inv);
 2028              		.loc 1 135 5 view .LVU463
 2029 000e FFF7FEFF 		bl	sprintf
 2030              	.LVL203:
 136:Dsp/widget/wgt_core/GenDsp.c **** }
 2031              		.loc 1 136 5 is_stmt 1 view .LVU464
 2032 0012 9DF82C30 		ldrb	r3, [sp, #44]	@ zero_extendqisi2
 2033 0016 0193     		str	r3, [sp, #4]
 2034 0018 9DF82830 		ldrb	r3, [sp, #40]	@ zero_extendqisi2
 2035 001c 0093     		str	r3, [sp]
 2036 001e 3346     		mov	r3, r6
 2037 0020 03AA     		add	r2, sp, #12
 2038 0022 2946     		mov	r1, r5
 2039 0024 2046     		mov	r0, r4
 2040 0026 FFF7FEFF 		bl	GenDsp_DrawStr
 2041              	.LVL204:
 137:Dsp/widget/wgt_core/GenDsp.c **** 
 2042              		.loc 1 137 1 is_stmt 0 view .LVU465
 2043 002a 06B0     		add	sp, sp, #24
 2044              	.LCFI46:
 2045              		.cfi_def_cfa_offset 16
 2046              		@ sp needed
 2047 002c 70BD     		pop	{r4, r5, r6, pc}
 2048              	.LVL205:
 2049              	.L113:
 137:Dsp/widget/wgt_core/GenDsp.c **** 
 2050              		.loc 1 137 1 view .LVU466
 2051 002e 00BF     		.align	2
 2052              	.L112:
ARM GAS  /var/folders/lx/hc4sn_b53233_zkc9xbbl97r0000gp/T//cchyr23l.s 			page 46


 2053 0030 00000000 		.word	.LC0
 2054              		.cfi_endproc
 2055              	.LFE7:
 2057              		.global	GenDsp_Interface
 2058              		.global	DspRange
 2059              		.section	.bss.DspRange,"aw",%nobits
 2060              		.align	2
 2061              		.set	.LANCHOR0,. + 0
 2064              	DspRange:
 2065 0000 00000000 		.space	4
 2066              		.section	.data.GenDsp_Interface,"aw"
 2067              		.align	2
 2070              	GenDsp_Interface:
 2071 0000 00000000 		.word	GenDsp_SetRange
 2072 0004 00000000 		.word	GenDsp_DrawPoint
 2073 0008 00000000 		.word	GenDsp_DrawCircle
 2074 000c 00000000 		.word	GenDsp_DrawChar
 2075 0010 00000000 		.word	GenDsp_DrawStr
 2076 0014 00000000 		.word	GenDsp_DrawNum
 2077 0018 00000000 		.word	GenDsp_DrawRectangle
 2078 001c 00000000 		.word	GenDsp_Draw_RadiusRectangle
 2079 0020 00000000 		.word	GenDsp_DrawLen
 2080 0024 00000000 		.word	GenDsp_Draw_VLine
 2081 0028 00000000 		.word	GenDsp_Draw_HLine
 2082 002c 00000000 		.word	0
 2083 0030 00000000 		.word	GenDsp_FillCircle
 2084 0034 00000000 		.word	GenDsp_FillRectangle
 2085 0038 00000000 		.word	GenDsp_Fill_RadiusRectangle
 2086 003c 00000000 		.word	GenDsp_GetStrLen
 2087              		.text
 2088              	.Letext0:
 2089              		.file 2 "/usr/local/arm-none-eabi-gcc/gcc-arm-none-eabi-10-2020-q4-major/arm-none-eabi/include/mac
 2090              		.file 3 "/usr/local/arm-none-eabi-gcc/gcc-arm-none-eabi-10-2020-q4-major/arm-none-eabi/include/sys
 2091              		.file 4 "Dsp/screen/font/oledfont.h"
 2092              		.file 5 "Dsp/widget/wgt_core/GenDsp.h"
 2093              		.file 6 "/usr/local/arm-none-eabi-gcc/gcc-arm-none-eabi-10-2020-q4-major/arm-none-eabi/include/std
ARM GAS  /var/folders/lx/hc4sn_b53233_zkc9xbbl97r0000gp/T//cchyr23l.s 			page 47


DEFINED SYMBOLS
                            *ABS*:0000000000000000 GenDsp.c
/var/folders/lx/hc4sn_b53233_zkc9xbbl97r0000gp/T//cchyr23l.s:18     .text.GenDsp_SetRange:0000000000000000 $t
/var/folders/lx/hc4sn_b53233_zkc9xbbl97r0000gp/T//cchyr23l.s:25     .text.GenDsp_SetRange:0000000000000000 GenDsp_SetRange
/var/folders/lx/hc4sn_b53233_zkc9xbbl97r0000gp/T//cchyr23l.s:61     .text.GenDsp_SetRange:0000000000000014 $d
/var/folders/lx/hc4sn_b53233_zkc9xbbl97r0000gp/T//cchyr23l.s:66     .text.GenDsp_DrawPoint:0000000000000000 $t
/var/folders/lx/hc4sn_b53233_zkc9xbbl97r0000gp/T//cchyr23l.s:72     .text.GenDsp_DrawPoint:0000000000000000 GenDsp_DrawPoint
/var/folders/lx/hc4sn_b53233_zkc9xbbl97r0000gp/T//cchyr23l.s:134    .text.GenDsp_DrawPoint:000000000000002c $d
/var/folders/lx/hc4sn_b53233_zkc9xbbl97r0000gp/T//cchyr23l.s:139    .text.GenDsp_DrawChar:0000000000000000 $t
/var/folders/lx/hc4sn_b53233_zkc9xbbl97r0000gp/T//cchyr23l.s:145    .text.GenDsp_DrawChar:0000000000000000 GenDsp_DrawChar
/var/folders/lx/hc4sn_b53233_zkc9xbbl97r0000gp/T//cchyr23l.s:379    .text.GenDsp_DrawChar:00000000000000d4 $d
/var/folders/lx/hc4sn_b53233_zkc9xbbl97r0000gp/T//cchyr23l.s:386    .text.GenDsp_DrawStr:0000000000000000 $t
/var/folders/lx/hc4sn_b53233_zkc9xbbl97r0000gp/T//cchyr23l.s:392    .text.GenDsp_DrawStr:0000000000000000 GenDsp_DrawStr
/var/folders/lx/hc4sn_b53233_zkc9xbbl97r0000gp/T//cchyr23l.s:465    .text.GenDsp_GetStrLen:0000000000000000 $t
/var/folders/lx/hc4sn_b53233_zkc9xbbl97r0000gp/T//cchyr23l.s:471    .text.GenDsp_GetStrLen:0000000000000000 GenDsp_GetStrLen
/var/folders/lx/hc4sn_b53233_zkc9xbbl97r0000gp/T//cchyr23l.s:513    .text.GenDsp_DrawLen:0000000000000000 $t
/var/folders/lx/hc4sn_b53233_zkc9xbbl97r0000gp/T//cchyr23l.s:519    .text.GenDsp_DrawLen:0000000000000000 GenDsp_DrawLen
/var/folders/lx/hc4sn_b53233_zkc9xbbl97r0000gp/T//cchyr23l.s:756    .text.GenDsp_Draw_VLine:0000000000000000 $t
/var/folders/lx/hc4sn_b53233_zkc9xbbl97r0000gp/T//cchyr23l.s:762    .text.GenDsp_Draw_VLine:0000000000000000 GenDsp_Draw_VLine
/var/folders/lx/hc4sn_b53233_zkc9xbbl97r0000gp/T//cchyr23l.s:800    .text.GenDsp_Draw_HLine:0000000000000000 $t
/var/folders/lx/hc4sn_b53233_zkc9xbbl97r0000gp/T//cchyr23l.s:806    .text.GenDsp_Draw_HLine:0000000000000000 GenDsp_Draw_HLine
/var/folders/lx/hc4sn_b53233_zkc9xbbl97r0000gp/T//cchyr23l.s:843    .text.GenDsp_Draw_Circle_Section:0000000000000000 $t
/var/folders/lx/hc4sn_b53233_zkc9xbbl97r0000gp/T//cchyr23l.s:849    .text.GenDsp_Draw_Circle_Section:0000000000000000 GenDsp_Draw_Circle_Section
/var/folders/lx/hc4sn_b53233_zkc9xbbl97r0000gp/T//cchyr23l.s:988    .text.GenDsp_Draw_Circle:0000000000000000 $t
/var/folders/lx/hc4sn_b53233_zkc9xbbl97r0000gp/T//cchyr23l.s:994    .text.GenDsp_Draw_Circle:0000000000000000 GenDsp_Draw_Circle
/var/folders/lx/hc4sn_b53233_zkc9xbbl97r0000gp/T//cchyr23l.s:1137   .text.GenDsp_DrawCircle:0000000000000000 $t
/var/folders/lx/hc4sn_b53233_zkc9xbbl97r0000gp/T//cchyr23l.s:1143   .text.GenDsp_DrawCircle:0000000000000000 GenDsp_DrawCircle
/var/folders/lx/hc4sn_b53233_zkc9xbbl97r0000gp/T//cchyr23l.s:1175   .text.GenDsp_DrawRectangle:0000000000000000 $t
/var/folders/lx/hc4sn_b53233_zkc9xbbl97r0000gp/T//cchyr23l.s:1181   .text.GenDsp_DrawRectangle:0000000000000000 GenDsp_DrawRectangle
/var/folders/lx/hc4sn_b53233_zkc9xbbl97r0000gp/T//cchyr23l.s:1269   .text.GenDsp_Draw_RadiusRectangle:0000000000000000 $t
/var/folders/lx/hc4sn_b53233_zkc9xbbl97r0000gp/T//cchyr23l.s:1275   .text.GenDsp_Draw_RadiusRectangle:0000000000000000 GenDsp_Draw_RadiusRectangle
/var/folders/lx/hc4sn_b53233_zkc9xbbl97r0000gp/T//cchyr23l.s:1438   .text.GenDsp_Fill_Circle_Section:0000000000000000 $t
/var/folders/lx/hc4sn_b53233_zkc9xbbl97r0000gp/T//cchyr23l.s:1444   .text.GenDsp_Fill_Circle_Section:0000000000000000 GenDsp_Fill_Circle_Section
/var/folders/lx/hc4sn_b53233_zkc9xbbl97r0000gp/T//cchyr23l.s:1609   .text.GenDsp_FillCircle:0000000000000000 $t
/var/folders/lx/hc4sn_b53233_zkc9xbbl97r0000gp/T//cchyr23l.s:1615   .text.GenDsp_FillCircle:0000000000000000 GenDsp_FillCircle
/var/folders/lx/hc4sn_b53233_zkc9xbbl97r0000gp/T//cchyr23l.s:1758   .text.GenDsp_FillRectangle:0000000000000000 $t
/var/folders/lx/hc4sn_b53233_zkc9xbbl97r0000gp/T//cchyr23l.s:1764   .text.GenDsp_FillRectangle:0000000000000000 GenDsp_FillRectangle
/var/folders/lx/hc4sn_b53233_zkc9xbbl97r0000gp/T//cchyr23l.s:1849   .text.GenDsp_Fill_RadiusRectangle:0000000000000000 $t
/var/folders/lx/hc4sn_b53233_zkc9xbbl97r0000gp/T//cchyr23l.s:1855   .text.GenDsp_Fill_RadiusRectangle:0000000000000000 GenDsp_Fill_RadiusRectangle
/var/folders/lx/hc4sn_b53233_zkc9xbbl97r0000gp/T//cchyr23l.s:1990   .rodata.GenDsp_DrawNum.str1.4:0000000000000000 $d
/var/folders/lx/hc4sn_b53233_zkc9xbbl97r0000gp/T//cchyr23l.s:1994   .text.GenDsp_DrawNum:0000000000000000 $t
/var/folders/lx/hc4sn_b53233_zkc9xbbl97r0000gp/T//cchyr23l.s:2000   .text.GenDsp_DrawNum:0000000000000000 GenDsp_DrawNum
/var/folders/lx/hc4sn_b53233_zkc9xbbl97r0000gp/T//cchyr23l.s:2053   .text.GenDsp_DrawNum:0000000000000030 $d
/var/folders/lx/hc4sn_b53233_zkc9xbbl97r0000gp/T//cchyr23l.s:2070   .data.GenDsp_Interface:0000000000000000 GenDsp_Interface
/var/folders/lx/hc4sn_b53233_zkc9xbbl97r0000gp/T//cchyr23l.s:2064   .bss.DspRange:0000000000000000 DspRange
/var/folders/lx/hc4sn_b53233_zkc9xbbl97r0000gp/T//cchyr23l.s:2060   .bss.DspRange:0000000000000000 $d
/var/folders/lx/hc4sn_b53233_zkc9xbbl97r0000gp/T//cchyr23l.s:2067   .data.GenDsp_Interface:0000000000000000 $d

UNDEFINED SYMBOLS
oled_asc2_1206
oled_asc2_1608
sprintf
