ARM GAS  C:\Users\why\AppData\Local\Temp\ccUBzzUc.s 			page 1


   1              		.syntax unified
   2              		.cpu cortex-m4
   3              		.eabi_attribute 27, 1
   4              		.eabi_attribute 28, 1
   5              		.fpu fpv4-sp-d16
   6              		.eabi_attribute 20, 1
   7              		.eabi_attribute 21, 1
   8              		.eabi_attribute 23, 3
   9              		.eabi_attribute 24, 1
  10              		.eabi_attribute 25, 1
  11              		.eabi_attribute 26, 1
  12              		.eabi_attribute 30, 1
  13              		.eabi_attribute 34, 1
  14              		.eabi_attribute 18, 4
  15              		.thumb
  16              		.syntax unified
  17              		.file	"GenDsp.c"
  18              		.text
  19              	.Ltext0:
  20              		.cfi_sections	.debug_frame
  21              		.section	.text.GenDsp_SetRange,"ax",%progbits
  22              		.align	2
  23              		.thumb
  24              		.thumb_func
  26              	GenDsp_SetRange:
  27              	.LFB1:
  28              		.file 1 "Dsp/widget/wgt_core/GenDsp.c"
   1:Dsp/widget/wgt_core/GenDsp.c **** #include "GenDsp.h"
   2:Dsp/widget/wgt_core/GenDsp.c **** #include "oledfont.h"
   3:Dsp/widget/wgt_core/GenDsp.c **** #include <math.h>
   4:Dsp/widget/wgt_core/GenDsp.c **** 
   5:Dsp/widget/wgt_core/GenDsp.c **** #define DegToRad(x) x / (180 / M_PI)
   6:Dsp/widget/wgt_core/GenDsp.c **** 
   7:Dsp/widget/wgt_core/GenDsp.c **** /* internal variable */
   8:Dsp/widget/wgt_core/GenDsp.c **** GenDsp_DspArea_Limit_Range DspRange = {
   9:Dsp/widget/wgt_core/GenDsp.c ****     .width = 0,
  10:Dsp/widget/wgt_core/GenDsp.c ****     .heigh = 0,
  11:Dsp/widget/wgt_core/GenDsp.c ****     .x = 0,
  12:Dsp/widget/wgt_core/GenDsp.c ****     .y = 0,
  13:Dsp/widget/wgt_core/GenDsp.c **** };
  14:Dsp/widget/wgt_core/GenDsp.c **** 
  15:Dsp/widget/wgt_core/GenDsp.c **** /* internal function definition */
  16:Dsp/widget/wgt_core/GenDsp.c **** 
  17:Dsp/widget/wgt_core/GenDsp.c **** /* external draw funtion definition */
  18:Dsp/widget/wgt_core/GenDsp.c **** static void GenDsp_DrawPoint(uint8_t **map, uint8_t x, uint8_t y, bool set);
  19:Dsp/widget/wgt_core/GenDsp.c **** static void GenDsp_SetRange(uint8_t x, uint8_t y, uint8_t width, uint8_t height);
  20:Dsp/widget/wgt_core/GenDsp.c **** static bool GenDsp_DrawChar(GenFont_List font, uint8_t **map, char c, uint8_t x, uint8_t y, bool co
  21:Dsp/widget/wgt_core/GenDsp.c **** static void GenDsp_DrawStr(GenFont_List font, uint8_t **map, char *str, uint8_t x, uint8_t y, bool 
  22:Dsp/widget/wgt_core/GenDsp.c **** static void GenDsp_DrawNum(GenFont_List font, uint8_t **map, uint32_t num, uint8_t x, uint8_t y, bo
  23:Dsp/widget/wgt_core/GenDsp.c **** static void GenDsp_DrawCircle(uint8_t **map, uint8_t center_x, uint8_t center_y, uint8_t radius, ui
  24:Dsp/widget/wgt_core/GenDsp.c **** static void GenDsp_DrawRectangle(uint8_t **map, uint8_t x, uint8_t y, uint8_t width, uint8_t height
  25:Dsp/widget/wgt_core/GenDsp.c **** static void GenDsp_DrawLen(uint8_t **map, uint8_t start_x, uint8_t start_y, uint8_t end_x, uint8_t 
  26:Dsp/widget/wgt_core/GenDsp.c **** static void GenDsp_DrawRad(uint8_t **map, uint8_t center_x, uint8_t center_y, uint8_t radius, uint8
  27:Dsp/widget/wgt_core/GenDsp.c **** static uint8_t GenDsp_GetStrLen(GenFont_List font, char *str);
  28:Dsp/widget/wgt_core/GenDsp.c **** 
  29:Dsp/widget/wgt_core/GenDsp.c **** GeneralDispalyProc_TypeDef GenDsp_Interface = {
  30:Dsp/widget/wgt_core/GenDsp.c ****     .draw_img = NULL,
ARM GAS  C:\Users\why\AppData\Local\Temp\ccUBzzUc.s 			page 2


  31:Dsp/widget/wgt_core/GenDsp.c ****     .draw_str = GenDsp_DrawStr,
  32:Dsp/widget/wgt_core/GenDsp.c ****     .draw_num = GenDsp_DrawNum,
  33:Dsp/widget/wgt_core/GenDsp.c ****     .draw_line = GenDsp_DrawLen,
  34:Dsp/widget/wgt_core/GenDsp.c ****     .str_len = GenDsp_GetStrLen,
  35:Dsp/widget/wgt_core/GenDsp.c ****     .draw_char = GenDsp_DrawChar,
  36:Dsp/widget/wgt_core/GenDsp.c ****     .set_range = GenDsp_SetRange,
  37:Dsp/widget/wgt_core/GenDsp.c ****     .draw_point = GenDsp_DrawPoint,
  38:Dsp/widget/wgt_core/GenDsp.c ****     .draw_circle = GenDsp_DrawCircle,
  39:Dsp/widget/wgt_core/GenDsp.c ****     .draw_rectangle = GenDsp_DrawRectangle,
  40:Dsp/widget/wgt_core/GenDsp.c **** };
  41:Dsp/widget/wgt_core/GenDsp.c **** 
  42:Dsp/widget/wgt_core/GenDsp.c **** static void GenDsp_SetRange(uint8_t x, uint8_t y, uint8_t width, uint8_t height)
  43:Dsp/widget/wgt_core/GenDsp.c **** {
  29              		.loc 1 43 0
  30              		.cfi_startproc
  31              		@ args = 0, pretend = 0, frame = 0
  32              		@ frame_needed = 0, uses_anonymous_args = 0
  33              		@ link register save eliminated.
  34              	.LVL0:
  35 0000 10B4     		push	{r4}
  36              	.LCFI0:
  37              		.cfi_def_cfa_offset 4
  38              		.cfi_offset 4, -4
  44:Dsp/widget/wgt_core/GenDsp.c ****     DspRange.heigh = height;
  39              		.loc 1 44 0
  40 0002 044C     		ldr	r4, .L3
  41 0004 E370     		strb	r3, [r4, #3]
  45:Dsp/widget/wgt_core/GenDsp.c ****     DspRange.width = width;
  42              		.loc 1 45 0
  43 0006 A270     		strb	r2, [r4, #2]
  46:Dsp/widget/wgt_core/GenDsp.c ****     DspRange.x = x;
  44              		.loc 1 46 0
  45 0008 2070     		strb	r0, [r4]
  47:Dsp/widget/wgt_core/GenDsp.c ****     DspRange.y = y;
  46              		.loc 1 47 0
  47 000a 6170     		strb	r1, [r4, #1]
  48:Dsp/widget/wgt_core/GenDsp.c **** }
  48              		.loc 1 48 0
  49 000c 5DF8044B 		ldr	r4, [sp], #4
  50              	.LCFI1:
  51              		.cfi_restore 4
  52              		.cfi_def_cfa_offset 0
  53 0010 7047     		bx	lr
  54              	.L4:
  55 0012 00BF     		.align	2
  56              	.L3:
  57 0014 00000000 		.word	.LANCHOR0
  58              		.cfi_endproc
  59              	.LFE1:
  61              		.section	.text.GenDsp_DrawPoint,"ax",%progbits
  62              		.align	2
  63              		.thumb
  64              		.thumb_func
  66              	GenDsp_DrawPoint:
  67              	.LFB2:
  49:Dsp/widget/wgt_core/GenDsp.c **** 
  50:Dsp/widget/wgt_core/GenDsp.c **** static void GenDsp_DrawPoint(uint8_t **map, uint8_t x, uint8_t y, bool set)
ARM GAS  C:\Users\why\AppData\Local\Temp\ccUBzzUc.s 			page 3


  51:Dsp/widget/wgt_core/GenDsp.c **** {
  68              		.loc 1 51 0
  69              		.cfi_startproc
  70              		@ args = 0, pretend = 0, frame = 0
  71              		@ frame_needed = 0, uses_anonymous_args = 0
  72              		@ link register save eliminated.
  73              	.LVL1:
  74 0000 70B4     		push	{r4, r5, r6}
  75              	.LCFI2:
  76              		.cfi_def_cfa_offset 12
  77              		.cfi_offset 4, -12
  78              		.cfi_offset 5, -8
  79              		.cfi_offset 6, -4
  52:Dsp/widget/wgt_core/GenDsp.c ****     if ((x >= DspRange.x + DspRange.width) || (y >= DspRange.y + DspRange.heigh))
  80              		.loc 1 52 0
  81 0002 0B4D     		ldr	r5, .L9
  82 0004 2E78     		ldrb	r6, [r5]	@ zero_extendqisi2
  83 0006 AC78     		ldrb	r4, [r5, #2]	@ zero_extendqisi2
  84 0008 3444     		add	r4, r4, r6
  85 000a A142     		cmp	r1, r4
  86 000c 0EDA     		bge	.L5
  87              		.loc 1 52 0 is_stmt 0 discriminator 1
  88 000e 6E78     		ldrb	r6, [r5, #1]	@ zero_extendqisi2
  89 0010 EC78     		ldrb	r4, [r5, #3]	@ zero_extendqisi2
  90 0012 3444     		add	r4, r4, r6
  91 0014 A242     		cmp	r2, r4
  92 0016 09DA     		bge	.L5
  53:Dsp/widget/wgt_core/GenDsp.c ****         return;
  54:Dsp/widget/wgt_core/GenDsp.c **** 
  55:Dsp/widget/wgt_core/GenDsp.c ****     if (set)
  93              		.loc 1 55 0 is_stmt 1
  94 0018 23B1     		cbz	r3, .L7
  56:Dsp/widget/wgt_core/GenDsp.c ****         map[y][x] = 1;
  95              		.loc 1 56 0
  96 001a 50F82230 		ldr	r3, [r0, r2, lsl #2]
  97              	.LVL2:
  98 001e 0122     		movs	r2, #1
  99              	.LVL3:
 100 0020 5A54     		strb	r2, [r3, r1]
 101 0022 03E0     		b	.L5
 102              	.LVL4:
 103              	.L7:
  57:Dsp/widget/wgt_core/GenDsp.c ****     else
  58:Dsp/widget/wgt_core/GenDsp.c ****         map[y][x] = 0;
 104              		.loc 1 58 0
 105 0024 50F82230 		ldr	r3, [r0, r2, lsl #2]
 106              	.LVL5:
 107 0028 0022     		movs	r2, #0
 108              	.LVL6:
 109 002a 5A54     		strb	r2, [r3, r1]
 110              	.L5:
  59:Dsp/widget/wgt_core/GenDsp.c **** }
 111              		.loc 1 59 0
 112 002c 70BC     		pop	{r4, r5, r6}
 113              	.LCFI3:
 114              		.cfi_restore 6
 115              		.cfi_restore 5
ARM GAS  C:\Users\why\AppData\Local\Temp\ccUBzzUc.s 			page 4


 116              		.cfi_restore 4
 117              		.cfi_def_cfa_offset 0
 118 002e 7047     		bx	lr
 119              	.L10:
 120              		.align	2
 121              	.L9:
 122 0030 00000000 		.word	.LANCHOR0
 123              		.cfi_endproc
 124              	.LFE2:
 126              		.section	.text.GenDsp_DrawChar,"ax",%progbits
 127              		.align	2
 128              		.thumb
 129              		.thumb_func
 131              	GenDsp_DrawChar:
 132              	.LFB3:
  60:Dsp/widget/wgt_core/GenDsp.c **** 
  61:Dsp/widget/wgt_core/GenDsp.c **** static bool GenDsp_DrawChar(GenFont_List font, uint8_t **map, char c, uint8_t x, uint8_t y, bool co
  62:Dsp/widget/wgt_core/GenDsp.c **** {
 133              		.loc 1 62 0
 134              		.cfi_startproc
 135              		@ args = 8, pretend = 0, frame = 8
 136              		@ frame_needed = 0, uses_anonymous_args = 0
 137              	.LVL7:
 138 0000 2DE9F04F 		push	{r4, r5, r6, r7, r8, r9, r10, fp, lr}
 139              	.LCFI4:
 140              		.cfi_def_cfa_offset 36
 141              		.cfi_offset 4, -36
 142              		.cfi_offset 5, -32
 143              		.cfi_offset 6, -28
 144              		.cfi_offset 7, -24
 145              		.cfi_offset 8, -20
 146              		.cfi_offset 9, -16
 147              		.cfi_offset 10, -12
 148              		.cfi_offset 11, -8
 149              		.cfi_offset 14, -4
 150 0004 83B0     		sub	sp, sp, #12
 151              	.LCFI5:
 152              		.cfi_def_cfa_offset 48
 153 0006 0091     		str	r1, [sp]
 154 0008 1F46     		mov	r7, r3
 155 000a 9DF83090 		ldrb	r9, [sp, #48]	@ zero_extendqisi2
 156 000e 9DF834A0 		ldrb	r10, [sp, #52]	@ zero_extendqisi2
 157              	.LVL8:
  63:Dsp/widget/wgt_core/GenDsp.c ****     uint8_t temp;
  64:Dsp/widget/wgt_core/GenDsp.c ****     uint8_t y0 = y;
  65:Dsp/widget/wgt_core/GenDsp.c ****     c -= ' ';
 158              		.loc 1 65 0
 159 0012 203A     		subs	r2, r2, #32
 160              	.LVL9:
 161 0014 D3B2     		uxtb	r3, r2
 162              	.LVL10:
 163 0016 0193     		str	r3, [sp, #4]
 164              	.LVL11:
  66:Dsp/widget/wgt_core/GenDsp.c **** 
  67:Dsp/widget/wgt_core/GenDsp.c ****     if (DspRange.width <= x)
 165              		.loc 1 67 0
 166 0018 284B     		ldr	r3, .L26
ARM GAS  C:\Users\why\AppData\Local\Temp\ccUBzzUc.s 			page 5


 167 001a 9B78     		ldrb	r3, [r3, #2]	@ zero_extendqisi2
 168 001c BB42     		cmp	r3, r7
 169 001e 47D9     		bls	.L23
 170 0020 8046     		mov	r8, r0
 171 0022 4C46     		mov	r4, r9
 172 0024 4FF0000B 		mov	fp, #0
 173 0028 3EE0     		b	.L13
 174              	.LVL12:
 175              	.L22:
 176              	.LBB2:
  68:Dsp/widget/wgt_core/GenDsp.c ****         return false;
  69:Dsp/widget/wgt_core/GenDsp.c **** 
  70:Dsp/widget/wgt_core/GenDsp.c ****     for (uint8_t t = 0; t < font; t++)
  71:Dsp/widget/wgt_core/GenDsp.c ****     {
  72:Dsp/widget/wgt_core/GenDsp.c ****         if (font == Font_12)
 177              		.loc 1 72 0
 178 002a B8F10C0F 		cmp	r8, #12
 179 002e 09D1     		bne	.L14
  73:Dsp/widget/wgt_core/GenDsp.c ****             temp = oled_asc2_1206[c][t];
 180              		.loc 1 73 0
 181 0030 019B     		ldr	r3, [sp, #4]
 182 0032 03EB4302 		add	r2, r3, r3, lsl #1
 183 0036 9300     		lsls	r3, r2, #2
 184 0038 214A     		ldr	r2, .L26+4
 185 003a 1344     		add	r3, r3, r2
 186 003c 13F80B60 		ldrb	r6, [r3, fp]	@ zero_extendqisi2
 187              	.LVL13:
 188              	.L16:
 189              	.LBE2:
  62:Dsp/widget/wgt_core/GenDsp.c ****     uint8_t temp;
 190              		.loc 1 62 0 discriminator 1
 191 0040 0025     		movs	r5, #0
 192 0042 2BE0     		b	.L15
 193              	.LVL14:
 194              	.L14:
 195              	.LBB5:
  74:Dsp/widget/wgt_core/GenDsp.c ****         else
  75:Dsp/widget/wgt_core/GenDsp.c ****             temp = oled_asc2_1608[c][t];
 196              		.loc 1 75 0
 197 0044 1F4B     		ldr	r3, .L26+8
 198 0046 019A     		ldr	r2, [sp, #4]
 199 0048 03EB0213 		add	r3, r3, r2, lsl #4
 200 004c 13F80B60 		ldrb	r6, [r3, fp]	@ zero_extendqisi2
 201              	.LVL15:
 202 0050 F6E7     		b	.L16
 203              	.LVL16:
 204              	.L21:
 205              	.LBB3:
  76:Dsp/widget/wgt_core/GenDsp.c **** 
  77:Dsp/widget/wgt_core/GenDsp.c ****         for (uint8_t bit_index = 0; bit_index < FONT_WIDTH; bit_index++)
  78:Dsp/widget/wgt_core/GenDsp.c ****         {
  79:Dsp/widget/wgt_core/GenDsp.c ****             if ((DspRange.x + DspRange.width) <= x)
 206              		.loc 1 79 0
 207 0052 1A4A     		ldr	r2, .L26
 208 0054 1178     		ldrb	r1, [r2]	@ zero_extendqisi2
 209 0056 9378     		ldrb	r3, [r2, #2]	@ zero_extendqisi2
 210 0058 0B44     		add	r3, r3, r1
ARM GAS  C:\Users\why\AppData\Local\Temp\ccUBzzUc.s 			page 6


 211 005a BB42     		cmp	r3, r7
 212 005c 2ADD     		ble	.L24
  80:Dsp/widget/wgt_core/GenDsp.c ****                 return false;
  81:Dsp/widget/wgt_core/GenDsp.c **** 
  82:Dsp/widget/wgt_core/GenDsp.c ****             if (temp & 0x80)
 213              		.loc 1 82 0
 214 005e 16F0800F 		tst	r6, #128
 215 0062 06D0     		beq	.L17
  83:Dsp/widget/wgt_core/GenDsp.c ****                 GenDsp_DrawPoint(map, x, y, col_inv);
 216              		.loc 1 83 0
 217 0064 5346     		mov	r3, r10
 218 0066 2246     		mov	r2, r4
 219 0068 3946     		mov	r1, r7
 220 006a 0098     		ldr	r0, [sp]
 221 006c FFF7FEFF 		bl	GenDsp_DrawPoint
 222              	.LVL17:
 223 0070 06E0     		b	.L18
 224              	.L17:
  84:Dsp/widget/wgt_core/GenDsp.c ****             else
  85:Dsp/widget/wgt_core/GenDsp.c ****                 GenDsp_DrawPoint(map, x, y, !col_inv);
 225              		.loc 1 85 0
 226 0072 8AF00103 		eor	r3, r10, #1
 227 0076 2246     		mov	r2, r4
 228 0078 3946     		mov	r1, r7
 229 007a 0098     		ldr	r0, [sp]
 230 007c FFF7FEFF 		bl	GenDsp_DrawPoint
 231              	.LVL18:
 232              	.L18:
  86:Dsp/widget/wgt_core/GenDsp.c **** 
  87:Dsp/widget/wgt_core/GenDsp.c ****             temp <<= 1;
 233              		.loc 1 87 0
 234 0080 7600     		lsls	r6, r6, #1
 235              	.LVL19:
 236 0082 F6B2     		uxtb	r6, r6
 237              	.LVL20:
  88:Dsp/widget/wgt_core/GenDsp.c **** 
  89:Dsp/widget/wgt_core/GenDsp.c ****             y++;
 238              		.loc 1 89 0
 239 0084 0134     		adds	r4, r4, #1
 240              	.LVL21:
 241 0086 E4B2     		uxtb	r4, r4
 242              	.LVL22:
  90:Dsp/widget/wgt_core/GenDsp.c ****             if ((y - y0) >= font)
 243              		.loc 1 90 0
 244 0088 C9EB0403 		rsb	r3, r9, r4
 245 008c 4345     		cmp	r3, r8
 246 008e 03DB     		blt	.L19
 247              	.LVL23:
  91:Dsp/widget/wgt_core/GenDsp.c ****             {
  92:Dsp/widget/wgt_core/GenDsp.c ****                 y = y0;
  93:Dsp/widget/wgt_core/GenDsp.c ****                 x++;
 248              		.loc 1 93 0
 249 0090 0137     		adds	r7, r7, #1
 250              	.LVL24:
 251 0092 FFB2     		uxtb	r7, r7
 252              	.LVL25:
  92:Dsp/widget/wgt_core/GenDsp.c ****                 x++;
ARM GAS  C:\Users\why\AppData\Local\Temp\ccUBzzUc.s 			page 7


 253              		.loc 1 92 0
 254 0094 4C46     		mov	r4, r9
  94:Dsp/widget/wgt_core/GenDsp.c **** 
  95:Dsp/widget/wgt_core/GenDsp.c ****                 break;
 255              		.loc 1 95 0
 256 0096 03E0     		b	.L20
 257              	.LVL26:
 258              	.L19:
  77:Dsp/widget/wgt_core/GenDsp.c ****         {
 259              		.loc 1 77 0 discriminator 2
 260 0098 0135     		adds	r5, r5, #1
 261              	.LVL27:
 262 009a EDB2     		uxtb	r5, r5
 263              	.LVL28:
 264              	.L15:
  77:Dsp/widget/wgt_core/GenDsp.c ****         {
 265              		.loc 1 77 0 is_stmt 0 discriminator 1
 266 009c 072D     		cmp	r5, #7
 267 009e D8D9     		bls	.L21
 268              	.LVL29:
 269              	.L20:
 270              	.LBE3:
  70:Dsp/widget/wgt_core/GenDsp.c ****     {
 271              		.loc 1 70 0 is_stmt 1 discriminator 2
 272 00a0 0BF1010B 		add	fp, fp, #1
 273              	.LVL30:
 274 00a4 5FFA8BFB 		uxtb	fp, fp
 275              	.LVL31:
 276              	.L13:
  70:Dsp/widget/wgt_core/GenDsp.c ****     {
 277              		.loc 1 70 0 is_stmt 0 discriminator 1
 278 00a8 C345     		cmp	fp, r8
 279 00aa BED3     		bcc	.L22
 280              	.LBE5:
  96:Dsp/widget/wgt_core/GenDsp.c ****             }
  97:Dsp/widget/wgt_core/GenDsp.c ****         }
  98:Dsp/widget/wgt_core/GenDsp.c ****     }
  99:Dsp/widget/wgt_core/GenDsp.c **** 
 100:Dsp/widget/wgt_core/GenDsp.c ****     return true;
 281              		.loc 1 100 0 is_stmt 1
 282 00ac 0120     		movs	r0, #1
 283              	.LBB6:
 284 00ae 02E0     		b	.L12
 285              	.LVL32:
 286              	.L23:
 287              	.LBE6:
  68:Dsp/widget/wgt_core/GenDsp.c **** 
 288              		.loc 1 68 0
 289 00b0 0020     		movs	r0, #0
 290              	.LVL33:
 291 00b2 00E0     		b	.L12
 292              	.LVL34:
 293              	.L24:
 294              	.LBB7:
 295              	.LBB4:
  80:Dsp/widget/wgt_core/GenDsp.c **** 
 296              		.loc 1 80 0
ARM GAS  C:\Users\why\AppData\Local\Temp\ccUBzzUc.s 			page 8


 297 00b4 0020     		movs	r0, #0
 298              	.LVL35:
 299              	.L12:
 300              	.LBE4:
 301              	.LBE7:
 101:Dsp/widget/wgt_core/GenDsp.c **** }
 302              		.loc 1 101 0
 303 00b6 03B0     		add	sp, sp, #12
 304              	.LCFI6:
 305              		.cfi_def_cfa_offset 36
 306              	.LVL36:
 307              		@ sp needed
 308 00b8 BDE8F08F 		pop	{r4, r5, r6, r7, r8, r9, r10, fp, pc}
 309              	.LVL37:
 310              	.L27:
 311              		.align	2
 312              	.L26:
 313 00bc 00000000 		.word	.LANCHOR0
 314 00c0 00000000 		.word	oled_asc2_1206
 315 00c4 00000000 		.word	oled_asc2_1608
 316              		.cfi_endproc
 317              	.LFE3:
 319              		.section	.text.GenDsp_DrawStr,"ax",%progbits
 320              		.align	2
 321              		.thumb
 322              		.thumb_func
 324              	GenDsp_DrawStr:
 325              	.LFB4:
 102:Dsp/widget/wgt_core/GenDsp.c **** 
 103:Dsp/widget/wgt_core/GenDsp.c **** static void GenDsp_DrawStr(GenFont_List font, uint8_t **map, char *str, uint8_t x, uint8_t y, bool 
 104:Dsp/widget/wgt_core/GenDsp.c **** {
 326              		.loc 1 104 0
 327              		.cfi_startproc
 328              		@ args = 8, pretend = 0, frame = 0
 329              		@ frame_needed = 0, uses_anonymous_args = 0
 330              	.LVL38:
 331 0000 2DE9F043 		push	{r4, r5, r6, r7, r8, r9, lr}
 332              	.LCFI7:
 333              		.cfi_def_cfa_offset 28
 334              		.cfi_offset 4, -28
 335              		.cfi_offset 5, -24
 336              		.cfi_offset 6, -20
 337              		.cfi_offset 7, -16
 338              		.cfi_offset 8, -12
 339              		.cfi_offset 9, -8
 340              		.cfi_offset 14, -4
 341 0004 83B0     		sub	sp, sp, #12
 342              	.LCFI8:
 343              		.cfi_def_cfa_offset 40
 344 0006 8146     		mov	r9, r0
 345 0008 8846     		mov	r8, r1
 346 000a 1546     		mov	r5, r2
 347 000c 1C46     		mov	r4, r3
 348 000e 9DF82870 		ldrb	r7, [sp, #40]	@ zero_extendqisi2
 349 0012 9DF82C60 		ldrb	r6, [sp, #44]	@ zero_extendqisi2
 105:Dsp/widget/wgt_core/GenDsp.c ****     while (*str != '\0')
 350              		.loc 1 105 0
ARM GAS  C:\Users\why\AppData\Local\Temp\ccUBzzUc.s 			page 9


 351 0016 0AE0     		b	.L29
 352              	.LVL39:
 353              	.L31:
 106:Dsp/widget/wgt_core/GenDsp.c ****     {
 107:Dsp/widget/wgt_core/GenDsp.c ****         if (GenDsp_DrawChar(font, map, *str, x, y, col_inv))
 354              		.loc 1 107 0
 355 0018 0196     		str	r6, [sp, #4]
 356 001a 0097     		str	r7, [sp]
 357 001c 2346     		mov	r3, r4
 358 001e 4146     		mov	r1, r8
 359 0020 4846     		mov	r0, r9
 360 0022 FFF7FEFF 		bl	GenDsp_DrawChar
 361              	.LVL40:
 362 0026 28B1     		cbz	r0, .L28
 108:Dsp/widget/wgt_core/GenDsp.c ****         {
 109:Dsp/widget/wgt_core/GenDsp.c ****             x += FONT_WIDTH;
 363              		.loc 1 109 0
 364 0028 0834     		adds	r4, r4, #8
 365              	.LVL41:
 366 002a E4B2     		uxtb	r4, r4
 367              	.LVL42:
 110:Dsp/widget/wgt_core/GenDsp.c ****             str++;
 368              		.loc 1 110 0
 369 002c 0135     		adds	r5, r5, #1
 370              	.LVL43:
 371              	.L29:
 105:Dsp/widget/wgt_core/GenDsp.c ****     {
 372              		.loc 1 105 0
 373 002e 2A78     		ldrb	r2, [r5]	@ zero_extendqisi2
 374 0030 002A     		cmp	r2, #0
 375 0032 F1D1     		bne	.L31
 376              	.L28:
 111:Dsp/widget/wgt_core/GenDsp.c ****         }
 112:Dsp/widget/wgt_core/GenDsp.c ****         else
 113:Dsp/widget/wgt_core/GenDsp.c ****             break;
 114:Dsp/widget/wgt_core/GenDsp.c ****     }
 115:Dsp/widget/wgt_core/GenDsp.c **** }
 377              		.loc 1 115 0
 378 0034 03B0     		add	sp, sp, #12
 379              	.LCFI9:
 380              		.cfi_def_cfa_offset 28
 381              		@ sp needed
 382 0036 BDE8F083 		pop	{r4, r5, r6, r7, r8, r9, pc}
 383              		.cfi_endproc
 384              	.LFE4:
 386 003a 00BF     		.section	.text.GenDsp_GetStrLen,"ax",%progbits
 387              		.align	2
 388              		.thumb
 389              		.thumb_func
 391              	GenDsp_GetStrLen:
 392              	.LFB6:
 116:Dsp/widget/wgt_core/GenDsp.c **** 
 117:Dsp/widget/wgt_core/GenDsp.c **** static void GenDsp_DrawNum(GenFont_List font, uint8_t **map, uint32_t num, uint8_t x, uint8_t y, bo
 118:Dsp/widget/wgt_core/GenDsp.c **** {
 119:Dsp/widget/wgt_core/GenDsp.c ****     char num_buff[MAX_DSP_NUM_LEN];
 120:Dsp/widget/wgt_core/GenDsp.c **** 
 121:Dsp/widget/wgt_core/GenDsp.c ****     sprintf(num_buff, "%d", num);
ARM GAS  C:\Users\why\AppData\Local\Temp\ccUBzzUc.s 			page 10


 122:Dsp/widget/wgt_core/GenDsp.c ****     GenDsp_DrawStr(font, map, num_buff, x, y, col_inv);
 123:Dsp/widget/wgt_core/GenDsp.c **** }
 124:Dsp/widget/wgt_core/GenDsp.c **** 
 125:Dsp/widget/wgt_core/GenDsp.c **** static uint8_t GenDsp_GetStrLen(GenFont_List font, char *str)
 126:Dsp/widget/wgt_core/GenDsp.c **** {
 393              		.loc 1 126 0
 394              		.cfi_startproc
 395              		@ args = 0, pretend = 0, frame = 0
 396              		@ frame_needed = 0, uses_anonymous_args = 0
 397              		@ link register save eliminated.
 398              	.LVL44:
 127:Dsp/widget/wgt_core/GenDsp.c ****     uint8_t len = 0;
 399              		.loc 1 127 0
 400 0000 0020     		movs	r0, #0
 401              	.LVL45:
 128:Dsp/widget/wgt_core/GenDsp.c **** 
 129:Dsp/widget/wgt_core/GenDsp.c ****     while (*str != '\0')
 402              		.loc 1 129 0
 403 0002 02E0     		b	.L34
 404              	.LVL46:
 405              	.L35:
 130:Dsp/widget/wgt_core/GenDsp.c ****     {
 131:Dsp/widget/wgt_core/GenDsp.c ****         len += FONT_WIDTH;
 406              		.loc 1 131 0
 407 0004 0830     		adds	r0, r0, #8
 408              	.LVL47:
 409 0006 C0B2     		uxtb	r0, r0
 410              	.LVL48:
 132:Dsp/widget/wgt_core/GenDsp.c ****         str++;
 411              		.loc 1 132 0
 412 0008 0131     		adds	r1, r1, #1
 413              	.LVL49:
 414              	.L34:
 129:Dsp/widget/wgt_core/GenDsp.c ****     {
 415              		.loc 1 129 0
 416 000a 0B78     		ldrb	r3, [r1]	@ zero_extendqisi2
 417 000c 002B     		cmp	r3, #0
 418 000e F9D1     		bne	.L35
 133:Dsp/widget/wgt_core/GenDsp.c ****     }
 134:Dsp/widget/wgt_core/GenDsp.c **** 
 135:Dsp/widget/wgt_core/GenDsp.c ****     return len;
 136:Dsp/widget/wgt_core/GenDsp.c **** }
 419              		.loc 1 136 0
 420 0010 7047     		bx	lr
 421              		.cfi_endproc
 422              	.LFE6:
 424 0012 00BF     		.section	.text.GenDsp_DrawLen,"ax",%progbits
 425              		.align	2
 426              		.thumb
 427              		.thumb_func
 429              	GenDsp_DrawLen:
 430              	.LFB7:
 137:Dsp/widget/wgt_core/GenDsp.c **** 
 138:Dsp/widget/wgt_core/GenDsp.c **** static void GenDsp_DrawLen(uint8_t **map, uint8_t start_x, uint8_t start_y, uint8_t end_x, uint8_t 
 139:Dsp/widget/wgt_core/GenDsp.c **** {
 431              		.loc 1 139 0
 432              		.cfi_startproc
ARM GAS  C:\Users\why\AppData\Local\Temp\ccUBzzUc.s 			page 11


 433              		@ args = 8, pretend = 0, frame = 16
 434              		@ frame_needed = 0, uses_anonymous_args = 0
 435              	.LVL50:
 436 0000 2DE9F04F 		push	{r4, r5, r6, r7, r8, r9, r10, fp, lr}
 437              	.LCFI10:
 438              		.cfi_def_cfa_offset 36
 439              		.cfi_offset 4, -36
 440              		.cfi_offset 5, -32
 441              		.cfi_offset 6, -28
 442              		.cfi_offset 7, -24
 443              		.cfi_offset 8, -20
 444              		.cfi_offset 9, -16
 445              		.cfi_offset 10, -12
 446              		.cfi_offset 11, -8
 447              		.cfi_offset 14, -4
 448 0004 85B0     		sub	sp, sp, #20
 449              	.LCFI11:
 450              		.cfi_def_cfa_offset 56
 451 0006 0190     		str	r0, [sp, #4]
 452 0008 8846     		mov	r8, r1
 453 000a 9146     		mov	r9, r2
 454              	.LVL51:
 140:Dsp/widget/wgt_core/GenDsp.c ****     int8_t xerr = 0;
 141:Dsp/widget/wgt_core/GenDsp.c ****     int8_t yerr = 0;
 142:Dsp/widget/wgt_core/GenDsp.c ****     int8_t delta_x = end_x - start_x;
 455              		.loc 1 142 0
 456 000c 5B1A     		subs	r3, r3, r1
 457              	.LVL52:
 458 000e DBB2     		uxtb	r3, r3
 459 0010 4FFA83FA 		sxtb	r10, r3
 460              	.LVL53:
 143:Dsp/widget/wgt_core/GenDsp.c ****     int8_t delta_y = end_y - start_y;
 461              		.loc 1 143 0
 462 0014 9DF83820 		ldrb	r2, [sp, #56]	@ zero_extendqisi2
 463              	.LVL54:
 464 0018 C9EB0202 		rsb	r2, r9, r2
 465 001c D2B2     		uxtb	r2, r2
 466 001e 4FFA82FB 		sxtb	fp, r2
 467              	.LVL55:
 144:Dsp/widget/wgt_core/GenDsp.c ****     int16_t distance;
 145:Dsp/widget/wgt_core/GenDsp.c ****     uint8_t uRow = start_x;
 146:Dsp/widget/wgt_core/GenDsp.c ****     uint8_t uCol = start_y;
 147:Dsp/widget/wgt_core/GenDsp.c **** 
 148:Dsp/widget/wgt_core/GenDsp.c ****     int8_t incx, incy;
 149:Dsp/widget/wgt_core/GenDsp.c **** 
 150:Dsp/widget/wgt_core/GenDsp.c ****     if (delta_x > 0)
 468              		.loc 1 150 0
 469 0022 BAF1000F 		cmp	r10, #0
 470 0026 09DC     		bgt	.L45
 151:Dsp/widget/wgt_core/GenDsp.c ****     {
 152:Dsp/widget/wgt_core/GenDsp.c ****         incx = 1;
 153:Dsp/widget/wgt_core/GenDsp.c ****     }
 154:Dsp/widget/wgt_core/GenDsp.c ****     else if (delta_x == 0)
 471              		.loc 1 154 0
 472 0028 BAF1000F 		cmp	r10, #0
 473 002c 09D0     		beq	.L46
 474              	.LVL56:
ARM GAS  C:\Users\why\AppData\Local\Temp\ccUBzzUc.s 			page 12


 155:Dsp/widget/wgt_core/GenDsp.c ****     {
 156:Dsp/widget/wgt_core/GenDsp.c ****         incx = 0;
 157:Dsp/widget/wgt_core/GenDsp.c ****     }
 158:Dsp/widget/wgt_core/GenDsp.c ****     else
 159:Dsp/widget/wgt_core/GenDsp.c ****     {
 160:Dsp/widget/wgt_core/GenDsp.c ****         incx = -1;
 161:Dsp/widget/wgt_core/GenDsp.c ****         delta_x = -delta_x;
 475              		.loc 1 161 0
 476 002e 5B42     		negs	r3, r3
 477 0030 4FFA83FA 		sxtb	r10, r3
 478              	.LVL57:
 160:Dsp/widget/wgt_core/GenDsp.c ****         delta_x = -delta_x;
 479              		.loc 1 160 0
 480 0034 4FF0FF33 		mov	r3, #-1
 481 0038 0293     		str	r3, [sp, #8]
 482 003a 04E0     		b	.L37
 483              	.LVL58:
 484              	.L45:
 152:Dsp/widget/wgt_core/GenDsp.c ****     }
 485              		.loc 1 152 0
 486 003c 0123     		movs	r3, #1
 487 003e 0293     		str	r3, [sp, #8]
 488 0040 01E0     		b	.L37
 489              	.L46:
 156:Dsp/widget/wgt_core/GenDsp.c ****     }
 490              		.loc 1 156 0
 491 0042 0023     		movs	r3, #0
 492 0044 0293     		str	r3, [sp, #8]
 493              	.L37:
 494              	.LVL59:
 162:Dsp/widget/wgt_core/GenDsp.c ****     }
 163:Dsp/widget/wgt_core/GenDsp.c **** 
 164:Dsp/widget/wgt_core/GenDsp.c ****     if (delta_y > 0)
 495              		.loc 1 164 0
 496 0046 BBF1000F 		cmp	fp, #0
 497 004a 09DC     		bgt	.L47
 165:Dsp/widget/wgt_core/GenDsp.c ****     {
 166:Dsp/widget/wgt_core/GenDsp.c ****         incy = 1;
 167:Dsp/widget/wgt_core/GenDsp.c ****     }
 168:Dsp/widget/wgt_core/GenDsp.c ****     else if (delta_y == 0)
 498              		.loc 1 168 0
 499 004c BBF1000F 		cmp	fp, #0
 500 0050 09D0     		beq	.L48
 501              	.LVL60:
 169:Dsp/widget/wgt_core/GenDsp.c ****     {
 170:Dsp/widget/wgt_core/GenDsp.c ****         incy = 0;
 171:Dsp/widget/wgt_core/GenDsp.c ****     }
 172:Dsp/widget/wgt_core/GenDsp.c ****     else
 173:Dsp/widget/wgt_core/GenDsp.c ****     {
 174:Dsp/widget/wgt_core/GenDsp.c ****         incy = -1;
 175:Dsp/widget/wgt_core/GenDsp.c ****         delta_y = -delta_y;
 502              		.loc 1 175 0
 503 0052 5242     		negs	r2, r2
 504 0054 4FFA82FB 		sxtb	fp, r2
 505              	.LVL61:
 174:Dsp/widget/wgt_core/GenDsp.c ****         delta_y = -delta_y;
 506              		.loc 1 174 0
ARM GAS  C:\Users\why\AppData\Local\Temp\ccUBzzUc.s 			page 13


 507 0058 4FF0FF33 		mov	r3, #-1
 508 005c 0393     		str	r3, [sp, #12]
 509 005e 04E0     		b	.L38
 510              	.LVL62:
 511              	.L47:
 166:Dsp/widget/wgt_core/GenDsp.c ****     }
 512              		.loc 1 166 0
 513 0060 0123     		movs	r3, #1
 514 0062 0393     		str	r3, [sp, #12]
 515 0064 01E0     		b	.L38
 516              	.L48:
 170:Dsp/widget/wgt_core/GenDsp.c ****     }
 517              		.loc 1 170 0
 518 0066 0023     		movs	r3, #0
 519 0068 0393     		str	r3, [sp, #12]
 520              	.L38:
 521              	.LVL63:
 176:Dsp/widget/wgt_core/GenDsp.c ****     }
 177:Dsp/widget/wgt_core/GenDsp.c **** 
 178:Dsp/widget/wgt_core/GenDsp.c ****     if (delta_x > delta_y)
 522              		.loc 1 178 0
 523 006a DA45     		cmp	r10, fp
 524 006c 02DD     		ble	.L39
 179:Dsp/widget/wgt_core/GenDsp.c ****     {
 180:Dsp/widget/wgt_core/GenDsp.c ****         distance = delta_x;
 525              		.loc 1 180 0
 526 006e 0FFA8AF7 		sxth	r7, r10
 527              	.LVL64:
 528 0072 01E0     		b	.L40
 529              	.LVL65:
 530              	.L39:
 181:Dsp/widget/wgt_core/GenDsp.c ****     }
 182:Dsp/widget/wgt_core/GenDsp.c ****     else
 183:Dsp/widget/wgt_core/GenDsp.c ****     {
 184:Dsp/widget/wgt_core/GenDsp.c ****         distance = delta_y;
 531              		.loc 1 184 0
 532 0074 0FFA8BF7 		sxth	r7, fp
 533              	.LVL66:
 534              	.L40:
 535              	.LBB8:
 185:Dsp/widget/wgt_core/GenDsp.c ****     }
 186:Dsp/widget/wgt_core/GenDsp.c **** 
 187:Dsp/widget/wgt_core/GenDsp.c ****     for (uint8_t t = 0; t < distance + 1; t++)
 536              		.loc 1 187 0
 537 0078 0026     		movs	r6, #0
 538              	.LBE8:
 141:Dsp/widget/wgt_core/GenDsp.c ****     int8_t delta_x = end_x - start_x;
 539              		.loc 1 141 0
 540 007a 3546     		mov	r5, r6
 140:Dsp/widget/wgt_core/GenDsp.c ****     int8_t yerr = 0;
 541              		.loc 1 140 0
 542 007c 3446     		mov	r4, r6
 543              	.LBB9:
 544              		.loc 1 187 0
 545 007e 1FE0     		b	.L41
 546              	.LVL67:
 547              	.L44:
ARM GAS  C:\Users\why\AppData\Local\Temp\ccUBzzUc.s 			page 14


 188:Dsp/widget/wgt_core/GenDsp.c ****     {
 189:Dsp/widget/wgt_core/GenDsp.c ****         GenDsp_DrawPoint(map, uRow, uCol, true);
 548              		.loc 1 189 0
 549 0080 0123     		movs	r3, #1
 550 0082 4A46     		mov	r2, r9
 551 0084 4146     		mov	r1, r8
 552 0086 0198     		ldr	r0, [sp, #4]
 553 0088 FFF7FEFF 		bl	GenDsp_DrawPoint
 554              	.LVL68:
 190:Dsp/widget/wgt_core/GenDsp.c **** 
 191:Dsp/widget/wgt_core/GenDsp.c ****         xerr += delta_x;
 555              		.loc 1 191 0
 556 008c 5444     		add	r4, r4, r10
 557              	.LVL69:
 558 008e E2B2     		uxtb	r2, r4
 559 0090 54B2     		sxtb	r4, r2
 560              	.LVL70:
 192:Dsp/widget/wgt_core/GenDsp.c ****         yerr += delta_y;
 561              		.loc 1 192 0
 562 0092 5D44     		add	r5, r5, fp
 563              	.LVL71:
 564 0094 EBB2     		uxtb	r3, r5
 565 0096 5DB2     		sxtb	r5, r3
 566              	.LVL72:
 193:Dsp/widget/wgt_core/GenDsp.c **** 
 194:Dsp/widget/wgt_core/GenDsp.c ****         if (xerr >= distance)
 567              		.loc 1 194 0
 568 0098 21B2     		sxth	r1, r4
 569 009a 8F42     		cmp	r7, r1
 570 009c 05DC     		bgt	.L42
 195:Dsp/widget/wgt_core/GenDsp.c ****         {
 196:Dsp/widget/wgt_core/GenDsp.c ****             xerr -= distance;
 571              		.loc 1 196 0
 572 009e D41B     		subs	r4, r2, r7
 573              	.LVL73:
 574 00a0 64B2     		sxtb	r4, r4
 575              	.LVL74:
 197:Dsp/widget/wgt_core/GenDsp.c ****             uRow += incx;
 576              		.loc 1 197 0
 577 00a2 029A     		ldr	r2, [sp, #8]
 578 00a4 9044     		add	r8, r8, r2
 579              	.LVL75:
 580 00a6 5FFA88F8 		uxtb	r8, r8
 581              	.LVL76:
 582              	.L42:
 198:Dsp/widget/wgt_core/GenDsp.c ****         }
 199:Dsp/widget/wgt_core/GenDsp.c ****         if (yerr >= distance)
 583              		.loc 1 199 0
 584 00aa 2AB2     		sxth	r2, r5
 585 00ac 9742     		cmp	r7, r2
 586 00ae 05DC     		bgt	.L43
 200:Dsp/widget/wgt_core/GenDsp.c ****         {
 201:Dsp/widget/wgt_core/GenDsp.c ****             yerr -= distance;
 587              		.loc 1 201 0
 588 00b0 DD1B     		subs	r5, r3, r7
 589              	.LVL77:
 590 00b2 6DB2     		sxtb	r5, r5
ARM GAS  C:\Users\why\AppData\Local\Temp\ccUBzzUc.s 			page 15


 591              	.LVL78:
 202:Dsp/widget/wgt_core/GenDsp.c ****             uCol += incy;
 592              		.loc 1 202 0
 593 00b4 039B     		ldr	r3, [sp, #12]
 594 00b6 9944     		add	r9, r9, r3
 595              	.LVL79:
 596 00b8 5FFA89F9 		uxtb	r9, r9
 597              	.LVL80:
 598              	.L43:
 187:Dsp/widget/wgt_core/GenDsp.c ****     {
 599              		.loc 1 187 0 discriminator 2
 600 00bc 0136     		adds	r6, r6, #1
 601              	.LVL81:
 602 00be F6B2     		uxtb	r6, r6
 603              	.LVL82:
 604              	.L41:
 187:Dsp/widget/wgt_core/GenDsp.c ****     {
 605              		.loc 1 187 0 is_stmt 0 discriminator 1
 606 00c0 7B1C     		adds	r3, r7, #1
 607 00c2 9E42     		cmp	r6, r3
 608 00c4 DCDB     		blt	.L44
 609              	.LBE9:
 203:Dsp/widget/wgt_core/GenDsp.c ****         }
 204:Dsp/widget/wgt_core/GenDsp.c ****     }
 205:Dsp/widget/wgt_core/GenDsp.c **** }
 610              		.loc 1 205 0 is_stmt 1
 611 00c6 05B0     		add	sp, sp, #20
 612              	.LCFI12:
 613              		.cfi_def_cfa_offset 36
 614              		@ sp needed
 615 00c8 BDE8F08F 		pop	{r4, r5, r6, r7, r8, r9, r10, fp, pc}
 616              		.cfi_endproc
 617              	.LFE7:
 619              		.section	.text.GenDsp_Draw_Circle_Section,"ax",%progbits
 620              		.align	2
 621              		.thumb
 622              		.thumb_func
 624              	GenDsp_Draw_Circle_Section:
 625              	.LFB8:
 206:Dsp/widget/wgt_core/GenDsp.c **** 
 207:Dsp/widget/wgt_core/GenDsp.c **** static void GenDsp_Draw_Circle_Section(uint8_t **map, uint8_t x, uint8_t y, uint8_t x0, uint8_t y0,
 208:Dsp/widget/wgt_core/GenDsp.c **** {
 626              		.loc 1 208 0
 627              		.cfi_startproc
 628              		@ args = 8, pretend = 0, frame = 0
 629              		@ frame_needed = 0, uses_anonymous_args = 0
 630              	.LVL83:
 631 0000 2DE9F843 		push	{r3, r4, r5, r6, r7, r8, r9, lr}
 632              	.LCFI13:
 633              		.cfi_def_cfa_offset 32
 634              		.cfi_offset 3, -32
 635              		.cfi_offset 4, -28
 636              		.cfi_offset 5, -24
 637              		.cfi_offset 6, -20
 638              		.cfi_offset 7, -16
 639              		.cfi_offset 8, -12
 640              		.cfi_offset 9, -8
ARM GAS  C:\Users\why\AppData\Local\Temp\ccUBzzUc.s 			page 16


 641              		.cfi_offset 14, -4
 642 0004 0746     		mov	r7, r0
 643 0006 8946     		mov	r9, r1
 644 0008 9046     		mov	r8, r2
 645 000a 1D46     		mov	r5, r3
 646 000c 9DF82060 		ldrb	r6, [sp, #32]	@ zero_extendqisi2
 647 0010 9DF82440 		ldrb	r4, [sp, #36]	@ zero_extendqisi2
 209:Dsp/widget/wgt_core/GenDsp.c ****     /* upper right */
 210:Dsp/widget/wgt_core/GenDsp.c ****     if (option & DRAW_UPPER_RIGHT)
 648              		.loc 1 210 0
 649 0014 14F0010F 		tst	r4, #1
 650 0018 10D0     		beq	.L51
 211:Dsp/widget/wgt_core/GenDsp.c ****     {
 212:Dsp/widget/wgt_core/GenDsp.c ****         GenDsp_DrawPoint(map, x0 + x, y0 - y, 1);
 651              		.loc 1 212 0
 652 001a B21A     		subs	r2, r6, r2
 653              	.LVL84:
 654 001c 5918     		adds	r1, r3, r1
 655              	.LVL85:
 656 001e 0123     		movs	r3, #1
 657              	.LVL86:
 658 0020 D2B2     		uxtb	r2, r2
 659 0022 C9B2     		uxtb	r1, r1
 660 0024 FFF7FEFF 		bl	GenDsp_DrawPoint
 661              	.LVL87:
 213:Dsp/widget/wgt_core/GenDsp.c ****         GenDsp_DrawPoint(map, x0 + y, y0 - x, 1);
 662              		.loc 1 213 0
 663 0028 C9EB0602 		rsb	r2, r9, r6
 664 002c 05EB0801 		add	r1, r5, r8
 665 0030 0123     		movs	r3, #1
 666 0032 D2B2     		uxtb	r2, r2
 667 0034 C9B2     		uxtb	r1, r1
 668 0036 3846     		mov	r0, r7
 669 0038 FFF7FEFF 		bl	GenDsp_DrawPoint
 670              	.LVL88:
 671              	.L51:
 214:Dsp/widget/wgt_core/GenDsp.c ****     }
 215:Dsp/widget/wgt_core/GenDsp.c **** 
 216:Dsp/widget/wgt_core/GenDsp.c ****     /* upper left */
 217:Dsp/widget/wgt_core/GenDsp.c ****     if (option & DRAW_UPPER_LEFT)
 672              		.loc 1 217 0
 673 003c 14F0020F 		tst	r4, #2
 674 0040 13D0     		beq	.L52
 218:Dsp/widget/wgt_core/GenDsp.c ****     {
 219:Dsp/widget/wgt_core/GenDsp.c ****         GenDsp_DrawPoint(map, x0 - x, y0 - y, 1);
 675              		.loc 1 219 0
 676 0042 C8EB0602 		rsb	r2, r8, r6
 677 0046 C9EB0501 		rsb	r1, r9, r5
 678 004a 0123     		movs	r3, #1
 679 004c D2B2     		uxtb	r2, r2
 680 004e C9B2     		uxtb	r1, r1
 681 0050 3846     		mov	r0, r7
 682 0052 FFF7FEFF 		bl	GenDsp_DrawPoint
 683              	.LVL89:
 220:Dsp/widget/wgt_core/GenDsp.c ****         GenDsp_DrawPoint(map, x0 - y, y0 - x, 1);
 684              		.loc 1 220 0
 685 0056 C9EB0602 		rsb	r2, r9, r6
ARM GAS  C:\Users\why\AppData\Local\Temp\ccUBzzUc.s 			page 17


 686 005a C8EB0501 		rsb	r1, r8, r5
 687 005e 0123     		movs	r3, #1
 688 0060 D2B2     		uxtb	r2, r2
 689 0062 C9B2     		uxtb	r1, r1
 690 0064 3846     		mov	r0, r7
 691 0066 FFF7FEFF 		bl	GenDsp_DrawPoint
 692              	.LVL90:
 693              	.L52:
 221:Dsp/widget/wgt_core/GenDsp.c ****     }
 222:Dsp/widget/wgt_core/GenDsp.c **** 
 223:Dsp/widget/wgt_core/GenDsp.c ****     /* lower right */
 224:Dsp/widget/wgt_core/GenDsp.c ****     if (option & DRAW_LOWER_RIGHT)
 694              		.loc 1 224 0
 695 006a 14F0080F 		tst	r4, #8
 696 006e 13D0     		beq	.L53
 225:Dsp/widget/wgt_core/GenDsp.c ****     {
 226:Dsp/widget/wgt_core/GenDsp.c ****         GenDsp_DrawPoint(map, x0 + x, y0 + y, 1);
 697              		.loc 1 226 0
 698 0070 06EB0802 		add	r2, r6, r8
 699 0074 05EB0901 		add	r1, r5, r9
 700 0078 0123     		movs	r3, #1
 701 007a D2B2     		uxtb	r2, r2
 702 007c C9B2     		uxtb	r1, r1
 703 007e 3846     		mov	r0, r7
 704 0080 FFF7FEFF 		bl	GenDsp_DrawPoint
 705              	.LVL91:
 227:Dsp/widget/wgt_core/GenDsp.c ****         GenDsp_DrawPoint(map, x0 + y, y0 + x, 1);
 706              		.loc 1 227 0
 707 0084 09EB0602 		add	r2, r9, r6
 708 0088 05EB0801 		add	r1, r5, r8
 709 008c 0123     		movs	r3, #1
 710 008e D2B2     		uxtb	r2, r2
 711 0090 C9B2     		uxtb	r1, r1
 712 0092 3846     		mov	r0, r7
 713 0094 FFF7FEFF 		bl	GenDsp_DrawPoint
 714              	.LVL92:
 715              	.L53:
 228:Dsp/widget/wgt_core/GenDsp.c ****     }
 229:Dsp/widget/wgt_core/GenDsp.c **** 
 230:Dsp/widget/wgt_core/GenDsp.c ****     /* lower left */
 231:Dsp/widget/wgt_core/GenDsp.c ****     if (option & DRAW_LOWER_LEFT)
 716              		.loc 1 231 0
 717 0098 14F0040F 		tst	r4, #4
 718 009c 13D0     		beq	.L50
 232:Dsp/widget/wgt_core/GenDsp.c ****     {
 233:Dsp/widget/wgt_core/GenDsp.c ****         GenDsp_DrawPoint(map, x0 - x, y0 + y, 1);
 719              		.loc 1 233 0
 720 009e 06EB0802 		add	r2, r6, r8
 721 00a2 C9EB0501 		rsb	r1, r9, r5
 722 00a6 0123     		movs	r3, #1
 723 00a8 D2B2     		uxtb	r2, r2
 724 00aa C9B2     		uxtb	r1, r1
 725 00ac 3846     		mov	r0, r7
 726 00ae FFF7FEFF 		bl	GenDsp_DrawPoint
 727              	.LVL93:
 234:Dsp/widget/wgt_core/GenDsp.c ****         GenDsp_DrawPoint(map, x0 - y, y0 + x, 1);
 728              		.loc 1 234 0
ARM GAS  C:\Users\why\AppData\Local\Temp\ccUBzzUc.s 			page 18


 729 00b2 09EB0602 		add	r2, r9, r6
 730 00b6 C8EB0501 		rsb	r1, r8, r5
 731 00ba 0123     		movs	r3, #1
 732 00bc D2B2     		uxtb	r2, r2
 733 00be C9B2     		uxtb	r1, r1
 734 00c0 3846     		mov	r0, r7
 735 00c2 FFF7FEFF 		bl	GenDsp_DrawPoint
 736              	.LVL94:
 737              	.L50:
 738 00c6 BDE8F883 		pop	{r3, r4, r5, r6, r7, r8, r9, pc}
 739              		.cfi_endproc
 740              	.LFE8:
 742 00ca 00BF     		.section	.text.GenDsp_Draw_Circle,"ax",%progbits
 743              		.align	2
 744              		.thumb
 745              		.thumb_func
 747              	GenDsp_Draw_Circle:
 748              	.LFB9:
 235:Dsp/widget/wgt_core/GenDsp.c ****     }
 236:Dsp/widget/wgt_core/GenDsp.c **** }
 237:Dsp/widget/wgt_core/GenDsp.c **** 
 238:Dsp/widget/wgt_core/GenDsp.c **** static void GenDsp_Draw_Circle(uint8_t **map, uint8_t x0, uint8_t y0, uint8_t rad, uint8_t option)
 239:Dsp/widget/wgt_core/GenDsp.c **** {
 749              		.loc 1 239 0
 750              		.cfi_startproc
 751              		@ args = 4, pretend = 0, frame = 8
 752              		@ frame_needed = 0, uses_anonymous_args = 0
 753              	.LVL95:
 754 0000 2DE9F04F 		push	{r4, r5, r6, r7, r8, r9, r10, fp, lr}
 755              	.LCFI14:
 756              		.cfi_def_cfa_offset 36
 757              		.cfi_offset 4, -36
 758              		.cfi_offset 5, -32
 759              		.cfi_offset 6, -28
 760              		.cfi_offset 7, -24
 761              		.cfi_offset 8, -20
 762              		.cfi_offset 9, -16
 763              		.cfi_offset 10, -12
 764              		.cfi_offset 11, -8
 765              		.cfi_offset 14, -4
 766 0004 85B0     		sub	sp, sp, #20
 767              	.LCFI15:
 768              		.cfi_def_cfa_offset 56
 769 0006 0390     		str	r0, [sp, #12]
 770 0008 8946     		mov	r9, r1
 771 000a 9246     		mov	r10, r2
 772 000c 1F46     		mov	r7, r3
 773 000e 9DF838B0 		ldrb	fp, [sp, #56]	@ zero_extendqisi2
 774              	.LVL96:
 240:Dsp/widget/wgt_core/GenDsp.c ****     int8_t f;
 241:Dsp/widget/wgt_core/GenDsp.c ****     int8_t ddF_x;
 242:Dsp/widget/wgt_core/GenDsp.c ****     int8_t ddF_y;
 243:Dsp/widget/wgt_core/GenDsp.c ****     uint8_t x;
 244:Dsp/widget/wgt_core/GenDsp.c ****     uint8_t y;
 245:Dsp/widget/wgt_core/GenDsp.c **** 
 246:Dsp/widget/wgt_core/GenDsp.c ****     f = 1;
 247:Dsp/widget/wgt_core/GenDsp.c ****     f -= rad;
ARM GAS  C:\Users\why\AppData\Local\Temp\ccUBzzUc.s 			page 19


 775              		.loc 1 247 0
 776 0012 C3F10108 		rsb	r8, r3, #1
 777 0016 4FFA88F8 		sxtb	r8, r8
 778              	.LVL97:
 248:Dsp/widget/wgt_core/GenDsp.c ****     ddF_x = 1;
 249:Dsp/widget/wgt_core/GenDsp.c ****     ddF_y = 0;
 250:Dsp/widget/wgt_core/GenDsp.c ****     ddF_y -= rad;
 779              		.loc 1 250 0
 780 001a 5D42     		negs	r5, r3
 781 001c EDB2     		uxtb	r5, r5
 782              	.LVL98:
 251:Dsp/widget/wgt_core/GenDsp.c ****     ddF_y *= 2;
 783              		.loc 1 251 0
 784 001e 6D00     		lsls	r5, r5, #1
 785              	.LVL99:
 786 0020 6DB2     		sxtb	r5, r5
 787              	.LVL100:
 252:Dsp/widget/wgt_core/GenDsp.c ****     x = 0;
 253:Dsp/widget/wgt_core/GenDsp.c ****     y = rad;
 254:Dsp/widget/wgt_core/GenDsp.c **** 
 255:Dsp/widget/wgt_core/GenDsp.c ****     GenDsp_Draw_Circle_Section(map, x, y, x0, y0, option);
 788              		.loc 1 255 0
 789 0022 CDF804B0 		str	fp, [sp, #4]
 790 0026 0092     		str	r2, [sp]
 791 0028 0B46     		mov	r3, r1
 792              	.LVL101:
 793 002a 3A46     		mov	r2, r7
 794              	.LVL102:
 795 002c 0021     		movs	r1, #0
 796              	.LVL103:
 797 002e FFF7FEFF 		bl	GenDsp_Draw_Circle_Section
 798              	.LVL104:
 252:Dsp/widget/wgt_core/GenDsp.c ****     x = 0;
 799              		.loc 1 252 0
 800 0032 0026     		movs	r6, #0
 248:Dsp/widget/wgt_core/GenDsp.c ****     ddF_y = 0;
 801              		.loc 1 248 0
 802 0034 0124     		movs	r4, #1
 256:Dsp/widget/wgt_core/GenDsp.c **** 
 257:Dsp/widget/wgt_core/GenDsp.c ****     while (x < y)
 803              		.loc 1 257 0
 804 0036 1CE0     		b	.L57
 805              	.LVL105:
 806              	.L59:
 258:Dsp/widget/wgt_core/GenDsp.c ****     {
 259:Dsp/widget/wgt_core/GenDsp.c ****         if (f >= 0)
 807              		.loc 1 259 0
 808 0038 B8F1000F 		cmp	r8, #0
 809 003c 07DB     		blt	.L58
 260:Dsp/widget/wgt_core/GenDsp.c ****         {
 261:Dsp/widget/wgt_core/GenDsp.c ****             y--;
 810              		.loc 1 261 0
 811 003e 013F     		subs	r7, r7, #1
 812              	.LVL106:
 813 0040 FFB2     		uxtb	r7, r7
 814              	.LVL107:
 262:Dsp/widget/wgt_core/GenDsp.c ****             ddF_y += 2;
ARM GAS  C:\Users\why\AppData\Local\Temp\ccUBzzUc.s 			page 20


 815              		.loc 1 262 0
 816 0042 0235     		adds	r5, r5, #2
 817              	.LVL108:
 818 0044 EBB2     		uxtb	r3, r5
 819 0046 5DB2     		sxtb	r5, r3
 820              	.LVL109:
 263:Dsp/widget/wgt_core/GenDsp.c ****             f += ddF_y;
 821              		.loc 1 263 0
 822 0048 9844     		add	r8, r8, r3
 823              	.LVL110:
 824 004a 4FFA88F8 		sxtb	r8, r8
 825              	.LVL111:
 826              	.L58:
 264:Dsp/widget/wgt_core/GenDsp.c ****         }
 265:Dsp/widget/wgt_core/GenDsp.c ****         x++;
 827              		.loc 1 265 0
 828 004e 0136     		adds	r6, r6, #1
 829              	.LVL112:
 830 0050 F6B2     		uxtb	r6, r6
 831              	.LVL113:
 266:Dsp/widget/wgt_core/GenDsp.c ****         ddF_x += 2;
 832              		.loc 1 266 0
 833 0052 0234     		adds	r4, r4, #2
 834              	.LVL114:
 835 0054 E3B2     		uxtb	r3, r4
 836 0056 5CB2     		sxtb	r4, r3
 837              	.LVL115:
 267:Dsp/widget/wgt_core/GenDsp.c ****         f += ddF_x;
 838              		.loc 1 267 0
 839 0058 9844     		add	r8, r8, r3
 840              	.LVL116:
 841 005a 4FFA88F8 		sxtb	r8, r8
 842              	.LVL117:
 268:Dsp/widget/wgt_core/GenDsp.c **** 
 269:Dsp/widget/wgt_core/GenDsp.c ****         GenDsp_Draw_Circle_Section(map, x, y, x0, y0, option);
 843              		.loc 1 269 0
 844 005e CDF804B0 		str	fp, [sp, #4]
 845 0062 CDF800A0 		str	r10, [sp]
 846 0066 4B46     		mov	r3, r9
 847 0068 3A46     		mov	r2, r7
 848 006a 3146     		mov	r1, r6
 849 006c 0398     		ldr	r0, [sp, #12]
 850 006e FFF7FEFF 		bl	GenDsp_Draw_Circle_Section
 851              	.LVL118:
 852              	.L57:
 257:Dsp/widget/wgt_core/GenDsp.c ****     {
 853              		.loc 1 257 0
 854 0072 BE42     		cmp	r6, r7
 855 0074 E0D3     		bcc	.L59
 270:Dsp/widget/wgt_core/GenDsp.c ****     }
 271:Dsp/widget/wgt_core/GenDsp.c **** }
 856              		.loc 1 271 0
 857 0076 05B0     		add	sp, sp, #20
 858              	.LCFI16:
 859              		.cfi_def_cfa_offset 36
 860              		@ sp needed
 861 0078 BDE8F08F 		pop	{r4, r5, r6, r7, r8, r9, r10, fp, pc}
ARM GAS  C:\Users\why\AppData\Local\Temp\ccUBzzUc.s 			page 21


 862              		.cfi_endproc
 863              	.LFE9:
 865              		.section	.text.GenDsp_DrawCircle,"ax",%progbits
 866              		.align	2
 867              		.thumb
 868              		.thumb_func
 870              	GenDsp_DrawCircle:
 871              	.LFB10:
 272:Dsp/widget/wgt_core/GenDsp.c **** 
 273:Dsp/widget/wgt_core/GenDsp.c **** void GenDsp_DrawCircle(uint8_t **map, uint8_t x0, uint8_t y0, uint8_t rad, uint8_t option)
 274:Dsp/widget/wgt_core/GenDsp.c **** {
 872              		.loc 1 274 0
 873              		.cfi_startproc
 874              		@ args = 4, pretend = 0, frame = 0
 875              		@ frame_needed = 0, uses_anonymous_args = 0
 876              	.LVL119:
 877 0000 10B5     		push	{r4, lr}
 878              	.LCFI17:
 879              		.cfi_def_cfa_offset 8
 880              		.cfi_offset 4, -8
 881              		.cfi_offset 14, -4
 882 0002 82B0     		sub	sp, sp, #8
 883              	.LCFI18:
 884              		.cfi_def_cfa_offset 16
 275:Dsp/widget/wgt_core/GenDsp.c ****     /* check for bounding box */
 276:Dsp/widget/wgt_core/GenDsp.c **** #ifdef U8G2_WITH_INTERSECTION
 277:Dsp/widget/wgt_core/GenDsp.c ****     {
 278:Dsp/widget/wgt_core/GenDsp.c ****         if (u8g2_IsIntersection(u8g2, x0 - rad, y0 - rad, x0 + rad + 1, y0 + rad + 1) == 0)
 279:Dsp/widget/wgt_core/GenDsp.c ****             return;
 280:Dsp/widget/wgt_core/GenDsp.c ****     }
 281:Dsp/widget/wgt_core/GenDsp.c **** #endif /* U8G2_WITH_INTERSECTION */
 282:Dsp/widget/wgt_core/GenDsp.c **** 
 283:Dsp/widget/wgt_core/GenDsp.c ****     /* draw circle */
 284:Dsp/widget/wgt_core/GenDsp.c ****     GenDsp_Draw_Circle(map, x0, y0, rad, DRAW_ALL);
 885              		.loc 1 284 0
 886 0004 0F24     		movs	r4, #15
 887 0006 0094     		str	r4, [sp]
 888 0008 FFF7FEFF 		bl	GenDsp_Draw_Circle
 889              	.LVL120:
 285:Dsp/widget/wgt_core/GenDsp.c **** }
 890              		.loc 1 285 0
 891 000c 02B0     		add	sp, sp, #8
 892              	.LCFI19:
 893              		.cfi_def_cfa_offset 8
 894              		@ sp needed
 895 000e 10BD     		pop	{r4, pc}
 896              		.cfi_endproc
 897              	.LFE10:
 899              		.section	.text.GenDsp_DrawRectangle,"ax",%progbits
 900              		.align	2
 901              		.thumb
 902              		.thumb_func
 904              	GenDsp_DrawRectangle:
 905              	.LFB11:
 286:Dsp/widget/wgt_core/GenDsp.c **** 
 287:Dsp/widget/wgt_core/GenDsp.c **** static void GenDsp_DrawRectangle(uint8_t **map, uint8_t x, uint8_t y, uint8_t width, uint8_t height
 288:Dsp/widget/wgt_core/GenDsp.c **** {
ARM GAS  C:\Users\why\AppData\Local\Temp\ccUBzzUc.s 			page 22


 906              		.loc 1 288 0
 907              		.cfi_startproc
 908              		@ args = 8, pretend = 0, frame = 0
 909              		@ frame_needed = 0, uses_anonymous_args = 0
 910              	.LVL121:
 911 0000 2DE9F043 		push	{r4, r5, r6, r7, r8, r9, lr}
 912              	.LCFI20:
 913              		.cfi_def_cfa_offset 28
 914              		.cfi_offset 4, -28
 915              		.cfi_offset 5, -24
 916              		.cfi_offset 6, -20
 917              		.cfi_offset 7, -16
 918              		.cfi_offset 8, -12
 919              		.cfi_offset 9, -8
 920              		.cfi_offset 14, -4
 921 0004 83B0     		sub	sp, sp, #12
 922              	.LCFI21:
 923              		.cfi_def_cfa_offset 40
 924 0006 8146     		mov	r9, r0
 925 0008 0E46     		mov	r6, r1
 926 000a 9046     		mov	r8, r2
 927 000c 9DF82C70 		ldrb	r7, [sp, #44]	@ zero_extendqisi2
 289:Dsp/widget/wgt_core/GenDsp.c ****     uint8_t x_tmp = x + width - 1;
 928              		.loc 1 289 0
 929 0010 0B44     		add	r3, r3, r1
 930              	.LVL122:
 931 0012 5D1E     		subs	r5, r3, #1
 932 0014 EDB2     		uxtb	r5, r5
 933              	.LVL123:
 290:Dsp/widget/wgt_core/GenDsp.c ****     uint8_t y_tmp = y + height - 1;
 934              		.loc 1 290 0
 935 0016 9DF82840 		ldrb	r4, [sp, #40]	@ zero_extendqisi2
 936 001a 1444     		add	r4, r4, r2
 937 001c 013C     		subs	r4, r4, #1
 938 001e E4B2     		uxtb	r4, r4
 939              	.LVL124:
 291:Dsp/widget/wgt_core/GenDsp.c **** 
 292:Dsp/widget/wgt_core/GenDsp.c ****     GenDsp_DrawLen(map, x, y, x_tmp, y, line_size);
 940              		.loc 1 292 0
 941 0020 0197     		str	r7, [sp, #4]
 942 0022 0092     		str	r2, [sp]
 943 0024 2B46     		mov	r3, r5
 944 0026 FFF7FEFF 		bl	GenDsp_DrawLen
 945              	.LVL125:
 293:Dsp/widget/wgt_core/GenDsp.c ****     GenDsp_DrawLen(map, x, y, x, y_tmp, line_size);
 946              		.loc 1 293 0
 947 002a 0197     		str	r7, [sp, #4]
 948 002c 0094     		str	r4, [sp]
 949 002e 3346     		mov	r3, r6
 950 0030 4246     		mov	r2, r8
 951 0032 3146     		mov	r1, r6
 952 0034 4846     		mov	r0, r9
 953 0036 FFF7FEFF 		bl	GenDsp_DrawLen
 954              	.LVL126:
 294:Dsp/widget/wgt_core/GenDsp.c **** 
 295:Dsp/widget/wgt_core/GenDsp.c ****     GenDsp_DrawLen(map, x_tmp, y, x_tmp, y_tmp, line_size);
 955              		.loc 1 295 0
ARM GAS  C:\Users\why\AppData\Local\Temp\ccUBzzUc.s 			page 23


 956 003a 0197     		str	r7, [sp, #4]
 957 003c 0094     		str	r4, [sp]
 958 003e 2B46     		mov	r3, r5
 959 0040 4246     		mov	r2, r8
 960 0042 2946     		mov	r1, r5
 961 0044 4846     		mov	r0, r9
 962 0046 FFF7FEFF 		bl	GenDsp_DrawLen
 963              	.LVL127:
 296:Dsp/widget/wgt_core/GenDsp.c ****     GenDsp_DrawLen(map, x, y_tmp, x_tmp, y_tmp, line_size);
 964              		.loc 1 296 0
 965 004a 0197     		str	r7, [sp, #4]
 966 004c 0094     		str	r4, [sp]
 967 004e 2B46     		mov	r3, r5
 968 0050 2246     		mov	r2, r4
 969 0052 3146     		mov	r1, r6
 970 0054 4846     		mov	r0, r9
 971 0056 FFF7FEFF 		bl	GenDsp_DrawLen
 972              	.LVL128:
 297:Dsp/widget/wgt_core/GenDsp.c **** }
 973              		.loc 1 297 0
 974 005a 03B0     		add	sp, sp, #12
 975              	.LCFI22:
 976              		.cfi_def_cfa_offset 28
 977              		@ sp needed
 978 005c BDE8F083 		pop	{r4, r5, r6, r7, r8, r9, pc}
 979              		.cfi_endproc
 980              	.LFE11:
 982              		.section	.text.GenDsp_DrawNum,"ax",%progbits
 983              		.align	2
 984              		.thumb
 985              		.thumb_func
 987              	GenDsp_DrawNum:
 988              	.LFB5:
 118:Dsp/widget/wgt_core/GenDsp.c ****     char num_buff[MAX_DSP_NUM_LEN];
 989              		.loc 1 118 0
 990              		.cfi_startproc
 991              		@ args = 8, pretend = 0, frame = 16
 992              		@ frame_needed = 0, uses_anonymous_args = 0
 993              	.LVL129:
 994 0000 70B5     		push	{r4, r5, r6, lr}
 995              	.LCFI23:
 996              		.cfi_def_cfa_offset 16
 997              		.cfi_offset 4, -16
 998              		.cfi_offset 5, -12
 999              		.cfi_offset 6, -8
 1000              		.cfi_offset 14, -4
 1001 0002 86B0     		sub	sp, sp, #24
 1002              	.LCFI24:
 1003              		.cfi_def_cfa_offset 40
 1004 0004 0446     		mov	r4, r0
 1005 0006 0D46     		mov	r5, r1
 1006 0008 1E46     		mov	r6, r3
 121:Dsp/widget/wgt_core/GenDsp.c ****     GenDsp_DrawStr(font, map, num_buff, x, y, col_inv);
 1007              		.loc 1 121 0
 1008 000a 0949     		ldr	r1, .L67
 1009              	.LVL130:
 1010 000c 03A8     		add	r0, sp, #12
ARM GAS  C:\Users\why\AppData\Local\Temp\ccUBzzUc.s 			page 24


 1011              	.LVL131:
 1012 000e FFF7FEFF 		bl	sprintf
 1013              	.LVL132:
 122:Dsp/widget/wgt_core/GenDsp.c **** }
 1014              		.loc 1 122 0
 1015 0012 9DF82C30 		ldrb	r3, [sp, #44]	@ zero_extendqisi2
 1016 0016 0193     		str	r3, [sp, #4]
 1017 0018 9DF82830 		ldrb	r3, [sp, #40]	@ zero_extendqisi2
 1018 001c 0093     		str	r3, [sp]
 1019 001e 3346     		mov	r3, r6
 1020 0020 03AA     		add	r2, sp, #12
 1021 0022 2946     		mov	r1, r5
 1022 0024 2046     		mov	r0, r4
 1023 0026 FFF7FEFF 		bl	GenDsp_DrawStr
 1024              	.LVL133:
 123:Dsp/widget/wgt_core/GenDsp.c **** 
 1025              		.loc 1 123 0
 1026 002a 06B0     		add	sp, sp, #24
 1027              	.LCFI25:
 1028              		.cfi_def_cfa_offset 16
 1029              		@ sp needed
 1030 002c 70BD     		pop	{r4, r5, r6, pc}
 1031              	.LVL134:
 1032              	.L68:
 1033 002e 00BF     		.align	2
 1034              	.L67:
 1035 0030 00000000 		.word	.LC0
 1036              		.cfi_endproc
 1037              	.LFE5:
 1039              		.global	GenDsp_Interface
 1040              		.global	DspRange
 1041              		.section	.rodata.str1.4,"aMS",%progbits,1
 1042              		.align	2
 1043              	.LC0:
 1044 0000 256400   		.ascii	"%d\000"
 1045              		.section	.bss.DspRange,"aw",%nobits
 1046              		.align	2
 1047              		.set	.LANCHOR0,. + 0
 1050              	DspRange:
 1051 0000 00000000 		.space	4
 1052              		.section	.data.GenDsp_Interface,"aw",%progbits
 1053              		.align	2
 1056              	GenDsp_Interface:
 1057 0000 00000000 		.word	GenDsp_SetRange
 1058 0004 00000000 		.word	GenDsp_DrawPoint
 1059 0008 00000000 		.word	GenDsp_DrawCircle
 1060 000c 00000000 		.word	GenDsp_DrawChar
 1061 0010 00000000 		.word	GenDsp_DrawStr
 1062 0014 00000000 		.word	GenDsp_DrawNum
 1063 0018 00000000 		.word	GenDsp_DrawRectangle
 1064 001c 00000000 		.word	GenDsp_DrawLen
 1065 0020 00000000 		.word	0
 1066 0024 00000000 		.word	GenDsp_GetStrLen
 1067              		.text
 1068              	.Letext0:
 1069              		.file 2 "d:\\gcc_arm\\5.4 2016q3\\arm-none-eabi\\include\\machine\\_default_types.h"
 1070              		.file 3 "d:\\gcc_arm\\5.4 2016q3\\arm-none-eabi\\include\\sys\\_stdint.h"
ARM GAS  C:\Users\why\AppData\Local\Temp\ccUBzzUc.s 			page 25


 1071              		.file 4 "Dsp/screen/font/oledfont.h"
 1072              		.file 5 "Dsp/widget/wgt_core/GenDsp.h"
 1073              		.file 6 "d:\\gcc_arm\\5.4 2016q3\\arm-none-eabi\\include\\stdio.h"
ARM GAS  C:\Users\why\AppData\Local\Temp\ccUBzzUc.s 			page 26


DEFINED SYMBOLS
                            *ABS*:00000000 GenDsp.c
C:\Users\why\AppData\Local\Temp\ccUBzzUc.s:22     .text.GenDsp_SetRange:00000000 $t
C:\Users\why\AppData\Local\Temp\ccUBzzUc.s:26     .text.GenDsp_SetRange:00000000 GenDsp_SetRange
C:\Users\why\AppData\Local\Temp\ccUBzzUc.s:57     .text.GenDsp_SetRange:00000014 $d
C:\Users\why\AppData\Local\Temp\ccUBzzUc.s:62     .text.GenDsp_DrawPoint:00000000 $t
C:\Users\why\AppData\Local\Temp\ccUBzzUc.s:66     .text.GenDsp_DrawPoint:00000000 GenDsp_DrawPoint
C:\Users\why\AppData\Local\Temp\ccUBzzUc.s:122    .text.GenDsp_DrawPoint:00000030 $d
C:\Users\why\AppData\Local\Temp\ccUBzzUc.s:127    .text.GenDsp_DrawChar:00000000 $t
C:\Users\why\AppData\Local\Temp\ccUBzzUc.s:131    .text.GenDsp_DrawChar:00000000 GenDsp_DrawChar
C:\Users\why\AppData\Local\Temp\ccUBzzUc.s:313    .text.GenDsp_DrawChar:000000bc $d
C:\Users\why\AppData\Local\Temp\ccUBzzUc.s:320    .text.GenDsp_DrawStr:00000000 $t
C:\Users\why\AppData\Local\Temp\ccUBzzUc.s:324    .text.GenDsp_DrawStr:00000000 GenDsp_DrawStr
C:\Users\why\AppData\Local\Temp\ccUBzzUc.s:387    .text.GenDsp_GetStrLen:00000000 $t
C:\Users\why\AppData\Local\Temp\ccUBzzUc.s:391    .text.GenDsp_GetStrLen:00000000 GenDsp_GetStrLen
C:\Users\why\AppData\Local\Temp\ccUBzzUc.s:425    .text.GenDsp_DrawLen:00000000 $t
C:\Users\why\AppData\Local\Temp\ccUBzzUc.s:429    .text.GenDsp_DrawLen:00000000 GenDsp_DrawLen
C:\Users\why\AppData\Local\Temp\ccUBzzUc.s:620    .text.GenDsp_Draw_Circle_Section:00000000 $t
C:\Users\why\AppData\Local\Temp\ccUBzzUc.s:624    .text.GenDsp_Draw_Circle_Section:00000000 GenDsp_Draw_Circle_Section
C:\Users\why\AppData\Local\Temp\ccUBzzUc.s:743    .text.GenDsp_Draw_Circle:00000000 $t
C:\Users\why\AppData\Local\Temp\ccUBzzUc.s:747    .text.GenDsp_Draw_Circle:00000000 GenDsp_Draw_Circle
C:\Users\why\AppData\Local\Temp\ccUBzzUc.s:866    .text.GenDsp_DrawCircle:00000000 $t
C:\Users\why\AppData\Local\Temp\ccUBzzUc.s:870    .text.GenDsp_DrawCircle:00000000 GenDsp_DrawCircle
C:\Users\why\AppData\Local\Temp\ccUBzzUc.s:900    .text.GenDsp_DrawRectangle:00000000 $t
C:\Users\why\AppData\Local\Temp\ccUBzzUc.s:904    .text.GenDsp_DrawRectangle:00000000 GenDsp_DrawRectangle
C:\Users\why\AppData\Local\Temp\ccUBzzUc.s:983    .text.GenDsp_DrawNum:00000000 $t
C:\Users\why\AppData\Local\Temp\ccUBzzUc.s:987    .text.GenDsp_DrawNum:00000000 GenDsp_DrawNum
C:\Users\why\AppData\Local\Temp\ccUBzzUc.s:1035   .text.GenDsp_DrawNum:00000030 $d
C:\Users\why\AppData\Local\Temp\ccUBzzUc.s:1056   .data.GenDsp_Interface:00000000 GenDsp_Interface
C:\Users\why\AppData\Local\Temp\ccUBzzUc.s:1050   .bss.DspRange:00000000 DspRange
C:\Users\why\AppData\Local\Temp\ccUBzzUc.s:1042   .rodata.str1.4:00000000 $d
C:\Users\why\AppData\Local\Temp\ccUBzzUc.s:1046   .bss.DspRange:00000000 $d
C:\Users\why\AppData\Local\Temp\ccUBzzUc.s:1053   .data.GenDsp_Interface:00000000 $d
                     .debug_frame:00000010 $d

UNDEFINED SYMBOLS
oled_asc2_1206
oled_asc2_1608
sprintf
