ARM GAS  /tmp/ccErjHfS.s 			page 1


   1              		.cpu cortex-m4
   2              		.eabi_attribute 27, 1
   3              		.eabi_attribute 28, 1
   4              		.eabi_attribute 20, 1
   5              		.eabi_attribute 21, 1
   6              		.eabi_attribute 23, 3
   7              		.eabi_attribute 24, 1
   8              		.eabi_attribute 25, 1
   9              		.eabi_attribute 26, 1
  10              		.eabi_attribute 30, 1
  11              		.eabi_attribute 34, 1
  12              		.eabi_attribute 18, 4
  13              		.file	"GenDsp.c"
  14              		.text
  15              	.Ltext0:
  16              		.cfi_sections	.debug_frame
  17              		.section	.text.GenDsp_SetRange,"ax",%progbits
  18              		.align	1
  19              		.arch armv7e-m
  20              		.syntax unified
  21              		.thumb
  22              		.thumb_func
  23              		.fpu fpv4-sp-d16
  25              	GenDsp_SetRange:
  26              	.LVL0:
  27              	.LFB3:
  28              		.file 1 "Dsp/widget/wgt_core/GenDsp.c"
   1:Dsp/widget/wgt_core/GenDsp.c **** #include "GenDsp.h"
   2:Dsp/widget/wgt_core/GenDsp.c **** #include "oledfont.h"
   3:Dsp/widget/wgt_core/GenDsp.c **** #include <math.h>
   4:Dsp/widget/wgt_core/GenDsp.c **** 
   5:Dsp/widget/wgt_core/GenDsp.c **** #define DegToRad(x) x / (180 / M_PI)
   6:Dsp/widget/wgt_core/GenDsp.c **** 
   7:Dsp/widget/wgt_core/GenDsp.c **** /* internal variable */
   8:Dsp/widget/wgt_core/GenDsp.c **** GenDsp_DspArea_Limit_Range DspRange = {
   9:Dsp/widget/wgt_core/GenDsp.c ****     .width = 0,
  10:Dsp/widget/wgt_core/GenDsp.c ****     .heigh = 0,
  11:Dsp/widget/wgt_core/GenDsp.c ****     .x = 0,
  12:Dsp/widget/wgt_core/GenDsp.c ****     .y = 0,
  13:Dsp/widget/wgt_core/GenDsp.c **** };
  14:Dsp/widget/wgt_core/GenDsp.c **** 
  15:Dsp/widget/wgt_core/GenDsp.c **** /* internal function definition */
  16:Dsp/widget/wgt_core/GenDsp.c **** 
  17:Dsp/widget/wgt_core/GenDsp.c **** /* external draw funtion definition */
  18:Dsp/widget/wgt_core/GenDsp.c **** static uint8_t GenDsp_GetStrLen(GenFont_List font, char *str);
  19:Dsp/widget/wgt_core/GenDsp.c **** static void GenDsp_DrawPoint(uint8_t **map, uint8_t x, uint8_t y, bool set);
  20:Dsp/widget/wgt_core/GenDsp.c **** static void GenDsp_SetRange(uint8_t x, uint8_t y, uint8_t width, uint8_t height);
  21:Dsp/widget/wgt_core/GenDsp.c **** static bool GenDsp_DrawChar(GenFont_List font, uint8_t **map, char c, uint8_t x, uint8_t y, bool co
  22:Dsp/widget/wgt_core/GenDsp.c **** static void GenDsp_DrawStr(GenFont_List font, uint8_t **map, char *str, uint8_t x, uint8_t y, bool 
  23:Dsp/widget/wgt_core/GenDsp.c **** static void GenDsp_DrawNum(GenFont_List font, uint8_t **map, uint32_t num, uint8_t x, uint8_t y, bo
  24:Dsp/widget/wgt_core/GenDsp.c **** static void GenDsp_DrawCircle(uint8_t **map, uint8_t center_x, uint8_t center_y, uint8_t radius, ui
  25:Dsp/widget/wgt_core/GenDsp.c **** static void GenDsp_DrawRectangle(uint8_t **map, uint8_t x, uint8_t y, uint8_t width, uint8_t height
  26:Dsp/widget/wgt_core/GenDsp.c **** static void GenDsp_DrawLen(uint8_t **map, uint8_t start_x, uint8_t start_y, uint8_t end_x, uint8_t 
  27:Dsp/widget/wgt_core/GenDsp.c **** static void GenDsp_DrawRad(uint8_t **map, uint8_t center_x, uint8_t center_y, uint8_t radius, uint8
  28:Dsp/widget/wgt_core/GenDsp.c **** static void GenDsp_Draw_RadiusRectangle(uint8_t **map, uint8_t x, uint8_t y, uint8_t width, uint8_t
  29:Dsp/widget/wgt_core/GenDsp.c **** static void GenDsp_FillCircle(uint8_t **map, uint8_t x, uint8_t y, uint8_t radius);
  30:Dsp/widget/wgt_core/GenDsp.c **** static void GenDsp_FillRectangle(uint8_t **map, uint8_t x, uint8_t y, uint8_t width, uint8_t height
ARM GAS  /tmp/ccErjHfS.s 			page 2


  31:Dsp/widget/wgt_core/GenDsp.c **** static void GenDsp_Fill_RadiusRectangle(uint8_t **map, uint8_t x, uint8_t y, uint8_t width, uint8_t
  32:Dsp/widget/wgt_core/GenDsp.c **** 
  33:Dsp/widget/wgt_core/GenDsp.c **** GeneralDispalyProc_TypeDef GenDsp_Interface = {
  34:Dsp/widget/wgt_core/GenDsp.c ****     .draw_img = NULL,
  35:Dsp/widget/wgt_core/GenDsp.c ****     .draw_str = GenDsp_DrawStr,
  36:Dsp/widget/wgt_core/GenDsp.c ****     .draw_num = GenDsp_DrawNum,
  37:Dsp/widget/wgt_core/GenDsp.c ****     .draw_line = GenDsp_DrawLen,
  38:Dsp/widget/wgt_core/GenDsp.c ****     .str_len = GenDsp_GetStrLen,
  39:Dsp/widget/wgt_core/GenDsp.c ****     .draw_char = GenDsp_DrawChar,
  40:Dsp/widget/wgt_core/GenDsp.c ****     .set_range = GenDsp_SetRange,
  41:Dsp/widget/wgt_core/GenDsp.c ****     .draw_point = GenDsp_DrawPoint,
  42:Dsp/widget/wgt_core/GenDsp.c ****     .draw_circle = GenDsp_DrawCircle,
  43:Dsp/widget/wgt_core/GenDsp.c ****     .draw_rectangle = GenDsp_DrawRectangle,
  44:Dsp/widget/wgt_core/GenDsp.c ****     .draw_radius_rectangle = GenDsp_Draw_RadiusRectangle,
  45:Dsp/widget/wgt_core/GenDsp.c ****     .fill_circle = GenDsp_FillCircle,
  46:Dsp/widget/wgt_core/GenDsp.c ****     .fill_rectangle = GenDsp_FillRectangle,
  47:Dsp/widget/wgt_core/GenDsp.c ****     .fill_radius_rectangle = GenDsp_Fill_RadiusRectangle,
  48:Dsp/widget/wgt_core/GenDsp.c **** };
  49:Dsp/widget/wgt_core/GenDsp.c **** 
  50:Dsp/widget/wgt_core/GenDsp.c **** static void GenDsp_SetRange(uint8_t x, uint8_t y, uint8_t width, uint8_t height)
  51:Dsp/widget/wgt_core/GenDsp.c **** {
  29              		.loc 1 51 1 view -0
  30              		.cfi_startproc
  31              		@ args = 0, pretend = 0, frame = 0
  32              		@ frame_needed = 0, uses_anonymous_args = 0
  33              		@ link register save eliminated.
  34              		.loc 1 51 1 is_stmt 0 view .LVU1
  35 0000 10B4     		push	{r4}
  36              	.LCFI0:
  37              		.cfi_def_cfa_offset 4
  38              		.cfi_offset 4, -4
  52:Dsp/widget/wgt_core/GenDsp.c ****     DspRange.heigh = height;
  39              		.loc 1 52 5 is_stmt 1 view .LVU2
  40              		.loc 1 52 20 is_stmt 0 view .LVU3
  41 0002 044C     		ldr	r4, .L3
  42 0004 E370     		strb	r3, [r4, #3]
  53:Dsp/widget/wgt_core/GenDsp.c ****     DspRange.width = width;
  43              		.loc 1 53 5 is_stmt 1 view .LVU4
  44              		.loc 1 53 20 is_stmt 0 view .LVU5
  45 0006 A270     		strb	r2, [r4, #2]
  54:Dsp/widget/wgt_core/GenDsp.c ****     DspRange.x = x;
  46              		.loc 1 54 5 is_stmt 1 view .LVU6
  47              		.loc 1 54 16 is_stmt 0 view .LVU7
  48 0008 2070     		strb	r0, [r4]
  55:Dsp/widget/wgt_core/GenDsp.c ****     DspRange.y = y;
  49              		.loc 1 55 5 is_stmt 1 view .LVU8
  50              		.loc 1 55 16 is_stmt 0 view .LVU9
  51 000a 6170     		strb	r1, [r4, #1]
  56:Dsp/widget/wgt_core/GenDsp.c **** }
  52              		.loc 1 56 1 view .LVU10
  53 000c 5DF8044B 		ldr	r4, [sp], #4
  54              	.LCFI1:
  55              		.cfi_restore 4
  56              		.cfi_def_cfa_offset 0
  57 0010 7047     		bx	lr
  58              	.L4:
  59 0012 00BF     		.align	2
ARM GAS  /tmp/ccErjHfS.s 			page 3


  60              	.L3:
  61 0014 00000000 		.word	.LANCHOR0
  62              		.cfi_endproc
  63              	.LFE3:
  65              		.section	.text.GenDsp_DrawPoint,"ax",%progbits
  66              		.align	1
  67              		.syntax unified
  68              		.thumb
  69              		.thumb_func
  70              		.fpu fpv4-sp-d16
  72              	GenDsp_DrawPoint:
  73              	.LVL1:
  74              	.LFB4:
  57:Dsp/widget/wgt_core/GenDsp.c **** 
  58:Dsp/widget/wgt_core/GenDsp.c **** static void GenDsp_DrawPoint(uint8_t **map, uint8_t x, uint8_t y, bool set)
  59:Dsp/widget/wgt_core/GenDsp.c **** {
  75              		.loc 1 59 1 is_stmt 1 view -0
  76              		.cfi_startproc
  77              		@ args = 0, pretend = 0, frame = 0
  78              		@ frame_needed = 0, uses_anonymous_args = 0
  79              		@ link register save eliminated.
  80              		.loc 1 59 1 is_stmt 0 view .LVU12
  81 0000 30B4     		push	{r4, r5}
  82              	.LCFI2:
  83              		.cfi_def_cfa_offset 8
  84              		.cfi_offset 4, -8
  85              		.cfi_offset 5, -4
  60:Dsp/widget/wgt_core/GenDsp.c ****     if ((x >= DspRange.x + DspRange.width) || (y >= DspRange.y + DspRange.heigh))
  86              		.loc 1 60 5 is_stmt 1 view .LVU13
  87              		.loc 1 60 23 is_stmt 0 view .LVU14
  88 0002 0C4D     		ldr	r5, .L9
  89 0004 2C78     		ldrb	r4, [r5]	@ zero_extendqisi2
  90              		.loc 1 60 36 view .LVU15
  91 0006 AD78     		ldrb	r5, [r5, #2]	@ zero_extendqisi2
  92              		.loc 1 60 26 view .LVU16
  93 0008 2C44     		add	r4, r4, r5
  94              		.loc 1 60 8 view .LVU17
  95 000a A142     		cmp	r1, r4
  96 000c 0ADA     		bge	.L5
  97              		.loc 1 60 61 discriminator 1 view .LVU18
  98 000e 094D     		ldr	r5, .L9
  99 0010 6C78     		ldrb	r4, [r5, #1]	@ zero_extendqisi2
 100              		.loc 1 60 74 discriminator 1 view .LVU19
 101 0012 ED78     		ldrb	r5, [r5, #3]	@ zero_extendqisi2
 102              		.loc 1 60 64 discriminator 1 view .LVU20
 103 0014 2C44     		add	r4, r4, r5
 104              		.loc 1 60 44 discriminator 1 view .LVU21
 105 0016 A242     		cmp	r2, r4
 106 0018 04DA     		bge	.L5
  61:Dsp/widget/wgt_core/GenDsp.c ****         return;
  62:Dsp/widget/wgt_core/GenDsp.c **** 
  63:Dsp/widget/wgt_core/GenDsp.c ****     if (set)
 107              		.loc 1 63 5 is_stmt 1 view .LVU22
 108              		.loc 1 63 8 is_stmt 0 view .LVU23
 109 001a 2BB1     		cbz	r3, .L7
  64:Dsp/widget/wgt_core/GenDsp.c ****         map[y][x] = 1;
 110              		.loc 1 64 9 is_stmt 1 view .LVU24
ARM GAS  /tmp/ccErjHfS.s 			page 4


 111              		.loc 1 64 12 is_stmt 0 view .LVU25
 112 001c 50F82230 		ldr	r3, [r0, r2, lsl #2]
 113              	.LVL2:
 114              		.loc 1 64 19 view .LVU26
 115 0020 0122     		movs	r2, #1
 116              	.LVL3:
 117              		.loc 1 64 19 view .LVU27
 118 0022 5A54     		strb	r2, [r3, r1]
 119              	.L5:
  65:Dsp/widget/wgt_core/GenDsp.c ****     else
  66:Dsp/widget/wgt_core/GenDsp.c ****         map[y][x] = 0;
  67:Dsp/widget/wgt_core/GenDsp.c **** }
 120              		.loc 1 67 1 view .LVU28
 121 0024 30BC     		pop	{r4, r5}
 122              	.LCFI3:
 123              		.cfi_remember_state
 124              		.cfi_restore 5
 125              		.cfi_restore 4
 126              		.cfi_def_cfa_offset 0
 127 0026 7047     		bx	lr
 128              	.LVL4:
 129              	.L7:
 130              	.LCFI4:
 131              		.cfi_restore_state
  66:Dsp/widget/wgt_core/GenDsp.c **** }
 132              		.loc 1 66 9 is_stmt 1 view .LVU29
  66:Dsp/widget/wgt_core/GenDsp.c **** }
 133              		.loc 1 66 12 is_stmt 0 view .LVU30
 134 0028 50F82230 		ldr	r3, [r0, r2, lsl #2]
 135              	.LVL5:
  66:Dsp/widget/wgt_core/GenDsp.c **** }
 136              		.loc 1 66 19 view .LVU31
 137 002c 0022     		movs	r2, #0
 138              	.LVL6:
  66:Dsp/widget/wgt_core/GenDsp.c **** }
 139              		.loc 1 66 19 view .LVU32
 140 002e 5A54     		strb	r2, [r3, r1]
 141 0030 F8E7     		b	.L5
 142              	.L10:
 143 0032 00BF     		.align	2
 144              	.L9:
 145 0034 00000000 		.word	.LANCHOR0
 146              		.cfi_endproc
 147              	.LFE4:
 149              		.section	.text.GenDsp_DrawChar,"ax",%progbits
 150              		.align	1
 151              		.syntax unified
 152              		.thumb
 153              		.thumb_func
 154              		.fpu fpv4-sp-d16
 156              	GenDsp_DrawChar:
 157              	.LVL7:
 158              	.LFB5:
  68:Dsp/widget/wgt_core/GenDsp.c **** 
  69:Dsp/widget/wgt_core/GenDsp.c **** static bool GenDsp_DrawChar(GenFont_List font, uint8_t **map, char c, uint8_t x, uint8_t y, bool co
  70:Dsp/widget/wgt_core/GenDsp.c **** {
 159              		.loc 1 70 1 is_stmt 1 view -0
ARM GAS  /tmp/ccErjHfS.s 			page 5


 160              		.cfi_startproc
 161              		@ args = 8, pretend = 0, frame = 8
 162              		@ frame_needed = 0, uses_anonymous_args = 0
 163              		.loc 1 70 1 is_stmt 0 view .LVU34
 164 0000 2DE9F04F 		push	{r4, r5, r6, r7, r8, r9, r10, fp, lr}
 165              	.LCFI5:
 166              		.cfi_def_cfa_offset 36
 167              		.cfi_offset 4, -36
 168              		.cfi_offset 5, -32
 169              		.cfi_offset 6, -28
 170              		.cfi_offset 7, -24
 171              		.cfi_offset 8, -20
 172              		.cfi_offset 9, -16
 173              		.cfi_offset 10, -12
 174              		.cfi_offset 11, -8
 175              		.cfi_offset 14, -4
 176 0004 83B0     		sub	sp, sp, #12
 177              	.LCFI6:
 178              		.cfi_def_cfa_offset 48
 179 0006 0091     		str	r1, [sp]
 180 0008 1F46     		mov	r7, r3
 181 000a 9DF83090 		ldrb	r9, [sp, #48]	@ zero_extendqisi2
 182 000e 9DF834B0 		ldrb	fp, [sp, #52]	@ zero_extendqisi2
  71:Dsp/widget/wgt_core/GenDsp.c ****     uint8_t temp;
 183              		.loc 1 71 5 is_stmt 1 view .LVU35
  72:Dsp/widget/wgt_core/GenDsp.c ****     uint8_t y0 = y;
 184              		.loc 1 72 5 view .LVU36
 185              	.LVL8:
  73:Dsp/widget/wgt_core/GenDsp.c ****     c -= ' ';
 186              		.loc 1 73 5 view .LVU37
 187              		.loc 1 73 7 is_stmt 0 view .LVU38
 188 0012 203A     		subs	r2, r2, #32
 189              	.LVL9:
 190              		.loc 1 73 7 view .LVU39
 191 0014 D3B2     		uxtb	r3, r2
 192              	.LVL10:
 193              		.loc 1 73 7 view .LVU40
 194 0016 0193     		str	r3, [sp, #4]
 195              	.LVL11:
  74:Dsp/widget/wgt_core/GenDsp.c **** 
  75:Dsp/widget/wgt_core/GenDsp.c ****     if (DspRange.width <= x)
 196              		.loc 1 75 5 is_stmt 1 view .LVU41
 197              		.loc 1 75 17 is_stmt 0 view .LVU42
 198 0018 284B     		ldr	r3, .L30
 199 001a 9B78     		ldrb	r3, [r3, #2]	@ zero_extendqisi2
 200              		.loc 1 75 8 view .LVU43
 201 001c BB42     		cmp	r3, r7
 202 001e 46D9     		bls	.L23
 203 0020 8046     		mov	r8, r0
 204 0022 4C46     		mov	r4, r9
 205              	.LBB2:
  76:Dsp/widget/wgt_core/GenDsp.c ****         return false;
  77:Dsp/widget/wgt_core/GenDsp.c **** 
  78:Dsp/widget/wgt_core/GenDsp.c ****     for (uint8_t t = 0; t < font; t++)
 206              		.loc 1 78 18 view .LVU44
 207 0024 4FF0000A 		mov	r10, #0
 208 0028 32E0     		b	.L13
ARM GAS  /tmp/ccErjHfS.s 			page 6


 209              	.LVL12:
 210              	.L29:
  79:Dsp/widget/wgt_core/GenDsp.c ****     {
  80:Dsp/widget/wgt_core/GenDsp.c ****         if (font == Font_12)
  81:Dsp/widget/wgt_core/GenDsp.c ****             temp = oled_asc2_1206[c][t];
 211              		.loc 1 81 13 is_stmt 1 view .LVU45
 212              		.loc 1 81 18 is_stmt 0 view .LVU46
 213 002a 019B     		ldr	r3, [sp, #4]
 214 002c 03EB4303 		add	r3, r3, r3, lsl #1
 215 0030 9A00     		lsls	r2, r3, #2
 216 0032 234B     		ldr	r3, .L30+4
 217 0034 1344     		add	r3, r3, r2
 218 0036 13F80A60 		ldrb	r6, [r3, r10]	@ zero_extendqisi2
 219              	.LVL13:
 220              		.loc 1 81 18 view .LVU47
 221 003a 34E0     		b	.L15
 222              	.LVL14:
 223              	.L27:
 224              	.LBB3:
  82:Dsp/widget/wgt_core/GenDsp.c ****         else
  83:Dsp/widget/wgt_core/GenDsp.c ****             temp = oled_asc2_1608[c][t];
  84:Dsp/widget/wgt_core/GenDsp.c **** 
  85:Dsp/widget/wgt_core/GenDsp.c ****         for (uint8_t bit_index = 0; bit_index < FONT_WIDTH; bit_index++)
  86:Dsp/widget/wgt_core/GenDsp.c ****         {
  87:Dsp/widget/wgt_core/GenDsp.c ****             if ((DspRange.x + DspRange.width) <= x)
  88:Dsp/widget/wgt_core/GenDsp.c ****                 return false;
  89:Dsp/widget/wgt_core/GenDsp.c **** 
  90:Dsp/widget/wgt_core/GenDsp.c ****             if (temp & 0x80)
  91:Dsp/widget/wgt_core/GenDsp.c ****                 GenDsp_DrawPoint(map, x, y, col_inv);
 225              		.loc 1 91 17 is_stmt 1 view .LVU48
 226 003c 5B46     		mov	r3, fp
 227 003e 2246     		mov	r2, r4
 228 0040 3946     		mov	r1, r7
 229 0042 0098     		ldr	r0, [sp]
 230 0044 FFF7FEFF 		bl	GenDsp_DrawPoint
 231              	.LVL15:
 232              	.L17:
  92:Dsp/widget/wgt_core/GenDsp.c ****             else
  93:Dsp/widget/wgt_core/GenDsp.c ****                 GenDsp_DrawPoint(map, x, y, !col_inv);
  94:Dsp/widget/wgt_core/GenDsp.c **** 
  95:Dsp/widget/wgt_core/GenDsp.c ****             temp <<= 1;
 233              		.loc 1 95 13 view .LVU49
 234              		.loc 1 95 18 is_stmt 0 view .LVU50
 235 0048 7600     		lsls	r6, r6, #1
 236              	.LVL16:
 237              		.loc 1 95 18 view .LVU51
 238 004a F6B2     		uxtb	r6, r6
 239              	.LVL17:
  96:Dsp/widget/wgt_core/GenDsp.c **** 
  97:Dsp/widget/wgt_core/GenDsp.c ****             y++;
 240              		.loc 1 97 13 is_stmt 1 view .LVU52
 241              		.loc 1 97 14 is_stmt 0 view .LVU53
 242 004c 0134     		adds	r4, r4, #1
 243              	.LVL18:
 244              		.loc 1 97 14 view .LVU54
 245 004e E4B2     		uxtb	r4, r4
 246              	.LVL19:
ARM GAS  /tmp/ccErjHfS.s 			page 7


  98:Dsp/widget/wgt_core/GenDsp.c ****             if ((y - y0) >= font)
 247              		.loc 1 98 13 is_stmt 1 view .LVU55
 248              		.loc 1 98 20 is_stmt 0 view .LVU56
 249 0050 A4EB0903 		sub	r3, r4, r9
 250              		.loc 1 98 16 view .LVU57
 251 0054 4345     		cmp	r3, r8
 252 0056 14DA     		bge	.L26
  85:Dsp/widget/wgt_core/GenDsp.c ****         {
 253              		.loc 1 85 70 discriminator 2 view .LVU58
 254 0058 0135     		adds	r5, r5, #1
 255              	.LVL20:
  85:Dsp/widget/wgt_core/GenDsp.c ****         {
 256              		.loc 1 85 70 discriminator 2 view .LVU59
 257 005a EDB2     		uxtb	r5, r5
 258              	.LVL21:
 259              	.L20:
  85:Dsp/widget/wgt_core/GenDsp.c ****         {
 260              		.loc 1 85 9 discriminator 1 view .LVU60
 261 005c 072D     		cmp	r5, #7
 262 005e 13D8     		bhi	.L19
  87:Dsp/widget/wgt_core/GenDsp.c ****                 return false;
 263              		.loc 1 87 13 is_stmt 1 view .LVU61
  87:Dsp/widget/wgt_core/GenDsp.c ****                 return false;
 264              		.loc 1 87 26 is_stmt 0 view .LVU62
 265 0060 164A     		ldr	r2, .L30
 266 0062 1378     		ldrb	r3, [r2]	@ zero_extendqisi2
  87:Dsp/widget/wgt_core/GenDsp.c ****                 return false;
 267              		.loc 1 87 39 view .LVU63
 268 0064 9278     		ldrb	r2, [r2, #2]	@ zero_extendqisi2
  87:Dsp/widget/wgt_core/GenDsp.c ****                 return false;
 269              		.loc 1 87 29 view .LVU64
 270 0066 1344     		add	r3, r3, r2
  87:Dsp/widget/wgt_core/GenDsp.c ****                 return false;
 271              		.loc 1 87 16 view .LVU65
 272 0068 BB42     		cmp	r3, r7
 273 006a 22DD     		ble	.L24
  90:Dsp/widget/wgt_core/GenDsp.c ****                 GenDsp_DrawPoint(map, x, y, col_inv);
 274              		.loc 1 90 13 is_stmt 1 view .LVU66
  90:Dsp/widget/wgt_core/GenDsp.c ****                 GenDsp_DrawPoint(map, x, y, col_inv);
 275              		.loc 1 90 16 is_stmt 0 view .LVU67
 276 006c 16F0800F 		tst	r6, #128
 277 0070 E4D1     		bne	.L27
  93:Dsp/widget/wgt_core/GenDsp.c **** 
 278              		.loc 1 93 17 is_stmt 1 view .LVU68
 279 0072 8BF00103 		eor	r3, fp, #1
 280 0076 2246     		mov	r2, r4
 281 0078 3946     		mov	r1, r7
 282 007a 0098     		ldr	r0, [sp]
 283 007c FFF7FEFF 		bl	GenDsp_DrawPoint
 284              	.LVL22:
 285 0080 E2E7     		b	.L17
 286              	.L26:
  99:Dsp/widget/wgt_core/GenDsp.c ****             {
 100:Dsp/widget/wgt_core/GenDsp.c ****                 y = y0;
 287              		.loc 1 100 17 view .LVU69
 288              	.LVL23:
 101:Dsp/widget/wgt_core/GenDsp.c ****                 x++;
ARM GAS  /tmp/ccErjHfS.s 			page 8


 289              		.loc 1 101 17 view .LVU70
 290              		.loc 1 101 18 is_stmt 0 view .LVU71
 291 0082 0137     		adds	r7, r7, #1
 292              	.LVL24:
 293              		.loc 1 101 18 view .LVU72
 294 0084 FFB2     		uxtb	r7, r7
 295              	.LVL25:
 102:Dsp/widget/wgt_core/GenDsp.c **** 
 103:Dsp/widget/wgt_core/GenDsp.c ****                 break;
 296              		.loc 1 103 17 is_stmt 1 view .LVU73
 100:Dsp/widget/wgt_core/GenDsp.c ****                 x++;
 297              		.loc 1 100 19 is_stmt 0 view .LVU74
 298 0086 4C46     		mov	r4, r9
 299              	.LVL26:
 300              	.L19:
 100:Dsp/widget/wgt_core/GenDsp.c ****                 x++;
 301              		.loc 1 100 19 view .LVU75
 302              	.LBE3:
  78:Dsp/widget/wgt_core/GenDsp.c ****     {
 303              		.loc 1 78 36 discriminator 2 view .LVU76
 304 0088 0AF1010A 		add	r10, r10, #1
 305              	.LVL27:
  78:Dsp/widget/wgt_core/GenDsp.c ****     {
 306              		.loc 1 78 36 discriminator 2 view .LVU77
 307 008c 5FFA8AFA 		uxtb	r10, r10
 308              	.LVL28:
 309              	.L13:
  78:Dsp/widget/wgt_core/GenDsp.c ****     {
 310              		.loc 1 78 5 discriminator 1 view .LVU78
 311 0090 C245     		cmp	r10, r8
 312 0092 0AD2     		bcs	.L28
  80:Dsp/widget/wgt_core/GenDsp.c ****             temp = oled_asc2_1206[c][t];
 313              		.loc 1 80 9 is_stmt 1 view .LVU79
  80:Dsp/widget/wgt_core/GenDsp.c ****             temp = oled_asc2_1206[c][t];
 314              		.loc 1 80 12 is_stmt 0 view .LVU80
 315 0094 B8F10C0F 		cmp	r8, #12
 316 0098 C7D0     		beq	.L29
  83:Dsp/widget/wgt_core/GenDsp.c **** 
 317              		.loc 1 83 13 is_stmt 1 view .LVU81
  83:Dsp/widget/wgt_core/GenDsp.c **** 
 318              		.loc 1 83 18 is_stmt 0 view .LVU82
 319 009a 0A4B     		ldr	r3, .L30+8
 320 009c 019A     		ldr	r2, [sp, #4]
 321 009e 03EB0213 		add	r3, r3, r2, lsl #4
 322 00a2 13F80A60 		ldrb	r6, [r3, r10]	@ zero_extendqisi2
 323              	.LVL29:
 324              	.L15:
  83:Dsp/widget/wgt_core/GenDsp.c **** 
 325              		.loc 1 83 18 view .LVU83
 326              	.LBE2:
  70:Dsp/widget/wgt_core/GenDsp.c ****     uint8_t temp;
 327              		.loc 1 70 1 discriminator 1 view .LVU84
 328 00a6 0025     		movs	r5, #0
 329 00a8 D8E7     		b	.L20
 330              	.LVL30:
 331              	.L28:
 104:Dsp/widget/wgt_core/GenDsp.c ****             }
ARM GAS  /tmp/ccErjHfS.s 			page 9


 105:Dsp/widget/wgt_core/GenDsp.c ****         }
 106:Dsp/widget/wgt_core/GenDsp.c ****     }
 107:Dsp/widget/wgt_core/GenDsp.c **** 
 108:Dsp/widget/wgt_core/GenDsp.c ****     return true;
 332              		.loc 1 108 12 view .LVU85
 333 00aa 0120     		movs	r0, #1
 334              	.LBB5:
 335 00ac 02E0     		b	.L12
 336              	.LVL31:
 337              	.L23:
 338              		.loc 1 108 12 view .LVU86
 339              	.LBE5:
  76:Dsp/widget/wgt_core/GenDsp.c **** 
 340              		.loc 1 76 16 view .LVU87
 341 00ae 0020     		movs	r0, #0
 342              	.LVL32:
  76:Dsp/widget/wgt_core/GenDsp.c **** 
 343              		.loc 1 76 16 view .LVU88
 344 00b0 00E0     		b	.L12
 345              	.LVL33:
 346              	.L24:
 347              	.LBB6:
 348              	.LBB4:
  88:Dsp/widget/wgt_core/GenDsp.c **** 
 349              		.loc 1 88 24 view .LVU89
 350 00b2 0020     		movs	r0, #0
 351              	.LVL34:
 352              	.L12:
  88:Dsp/widget/wgt_core/GenDsp.c **** 
 353              		.loc 1 88 24 view .LVU90
 354              	.LBE4:
 355              	.LBE6:
 109:Dsp/widget/wgt_core/GenDsp.c **** }
 356              		.loc 1 109 1 view .LVU91
 357 00b4 03B0     		add	sp, sp, #12
 358              	.LCFI7:
 359              		.cfi_def_cfa_offset 36
 360              	.LVL35:
 361              		.loc 1 109 1 view .LVU92
 362              		@ sp needed
 363 00b6 BDE8F08F 		pop	{r4, r5, r6, r7, r8, r9, r10, fp, pc}
 364              	.LVL36:
 365              	.L31:
 366              		.loc 1 109 1 view .LVU93
 367 00ba 00BF     		.align	2
 368              	.L30:
 369 00bc 00000000 		.word	.LANCHOR0
 370 00c0 00000000 		.word	oled_asc2_1206
 371 00c4 00000000 		.word	oled_asc2_1608
 372              		.cfi_endproc
 373              	.LFE5:
 375              		.section	.text.GenDsp_DrawStr,"ax",%progbits
 376              		.align	1
 377              		.syntax unified
 378              		.thumb
 379              		.thumb_func
 380              		.fpu fpv4-sp-d16
ARM GAS  /tmp/ccErjHfS.s 			page 10


 382              	GenDsp_DrawStr:
 383              	.LVL37:
 384              	.LFB6:
 110:Dsp/widget/wgt_core/GenDsp.c **** 
 111:Dsp/widget/wgt_core/GenDsp.c **** static void GenDsp_DrawStr(GenFont_List font, uint8_t **map, char *str, uint8_t x, uint8_t y, bool 
 112:Dsp/widget/wgt_core/GenDsp.c **** {
 385              		.loc 1 112 1 is_stmt 1 view -0
 386              		.cfi_startproc
 387              		@ args = 8, pretend = 0, frame = 0
 388              		@ frame_needed = 0, uses_anonymous_args = 0
 389              		.loc 1 112 1 is_stmt 0 view .LVU95
 390 0000 2DE9F043 		push	{r4, r5, r6, r7, r8, r9, lr}
 391              	.LCFI8:
 392              		.cfi_def_cfa_offset 28
 393              		.cfi_offset 4, -28
 394              		.cfi_offset 5, -24
 395              		.cfi_offset 6, -20
 396              		.cfi_offset 7, -16
 397              		.cfi_offset 8, -12
 398              		.cfi_offset 9, -8
 399              		.cfi_offset 14, -4
 400 0004 83B0     		sub	sp, sp, #12
 401              	.LCFI9:
 402              		.cfi_def_cfa_offset 40
 403 0006 8146     		mov	r9, r0
 404 0008 8846     		mov	r8, r1
 405 000a 1546     		mov	r5, r2
 406 000c 1C46     		mov	r4, r3
 407 000e 9DF82870 		ldrb	r7, [sp, #40]	@ zero_extendqisi2
 408 0012 9DF82C60 		ldrb	r6, [sp, #44]	@ zero_extendqisi2
 113:Dsp/widget/wgt_core/GenDsp.c ****     while (*str != '\0')
 409              		.loc 1 113 5 is_stmt 1 view .LVU96
 410              	.LVL38:
 411              	.L33:
 412              		.loc 1 113 12 is_stmt 0 view .LVU97
 413 0016 2A78     		ldrb	r2, [r5]	@ zero_extendqisi2
 414              		.loc 1 113 11 view .LVU98
 415 0018 5AB1     		cbz	r2, .L32
 114:Dsp/widget/wgt_core/GenDsp.c ****     {
 115:Dsp/widget/wgt_core/GenDsp.c ****         if (GenDsp_DrawChar(font, map, *str, x, y, col_inv))
 416              		.loc 1 115 9 is_stmt 1 view .LVU99
 417              		.loc 1 115 13 is_stmt 0 view .LVU100
 418 001a 0196     		str	r6, [sp, #4]
 419 001c 0097     		str	r7, [sp]
 420 001e 2346     		mov	r3, r4
 421 0020 4146     		mov	r1, r8
 422 0022 4846     		mov	r0, r9
 423 0024 FFF7FEFF 		bl	GenDsp_DrawChar
 424              	.LVL39:
 425              		.loc 1 115 12 view .LVU101
 426 0028 18B1     		cbz	r0, .L32
 116:Dsp/widget/wgt_core/GenDsp.c ****         {
 117:Dsp/widget/wgt_core/GenDsp.c ****             x += FONT_WIDTH;
 427              		.loc 1 117 13 is_stmt 1 view .LVU102
 428              		.loc 1 117 15 is_stmt 0 view .LVU103
 429 002a 0834     		adds	r4, r4, #8
 430              	.LVL40:
ARM GAS  /tmp/ccErjHfS.s 			page 11


 431              		.loc 1 117 15 view .LVU104
 432 002c E4B2     		uxtb	r4, r4
 433              	.LVL41:
 118:Dsp/widget/wgt_core/GenDsp.c ****             str++;
 434              		.loc 1 118 13 is_stmt 1 view .LVU105
 435              		.loc 1 118 16 is_stmt 0 view .LVU106
 436 002e 0135     		adds	r5, r5, #1
 437              	.LVL42:
 438              		.loc 1 118 16 view .LVU107
 439 0030 F1E7     		b	.L33
 440              	.L32:
 119:Dsp/widget/wgt_core/GenDsp.c ****         }
 120:Dsp/widget/wgt_core/GenDsp.c ****         else
 121:Dsp/widget/wgt_core/GenDsp.c ****             break;
 122:Dsp/widget/wgt_core/GenDsp.c ****     }
 123:Dsp/widget/wgt_core/GenDsp.c **** }
 441              		.loc 1 123 1 view .LVU108
 442 0032 03B0     		add	sp, sp, #12
 443              	.LCFI10:
 444              		.cfi_def_cfa_offset 28
 445              		@ sp needed
 446 0034 BDE8F083 		pop	{r4, r5, r6, r7, r8, r9, pc}
 447              		.loc 1 123 1 view .LVU109
 448              		.cfi_endproc
 449              	.LFE6:
 451              		.section	.text.GenDsp_GetStrLen,"ax",%progbits
 452              		.align	1
 453              		.syntax unified
 454              		.thumb
 455              		.thumb_func
 456              		.fpu fpv4-sp-d16
 458              	GenDsp_GetStrLen:
 459              	.LVL43:
 460              	.LFB8:
 124:Dsp/widget/wgt_core/GenDsp.c **** 
 125:Dsp/widget/wgt_core/GenDsp.c **** static void GenDsp_DrawNum(GenFont_List font, uint8_t **map, uint32_t num, uint8_t x, uint8_t y, bo
 126:Dsp/widget/wgt_core/GenDsp.c **** {
 127:Dsp/widget/wgt_core/GenDsp.c ****     char num_buff[MAX_DSP_NUM_LEN];
 128:Dsp/widget/wgt_core/GenDsp.c **** 
 129:Dsp/widget/wgt_core/GenDsp.c ****     sprintf(num_buff, "%d", num);
 130:Dsp/widget/wgt_core/GenDsp.c ****     GenDsp_DrawStr(font, map, num_buff, x, y, col_inv);
 131:Dsp/widget/wgt_core/GenDsp.c **** }
 132:Dsp/widget/wgt_core/GenDsp.c **** 
 133:Dsp/widget/wgt_core/GenDsp.c **** static uint8_t GenDsp_GetStrLen(GenFont_List font, char *str)
 134:Dsp/widget/wgt_core/GenDsp.c **** {
 461              		.loc 1 134 1 is_stmt 1 view -0
 462              		.cfi_startproc
 463              		@ args = 0, pretend = 0, frame = 0
 464              		@ frame_needed = 0, uses_anonymous_args = 0
 465              		@ link register save eliminated.
 135:Dsp/widget/wgt_core/GenDsp.c ****     uint8_t len = 0;
 466              		.loc 1 135 5 view .LVU111
 136:Dsp/widget/wgt_core/GenDsp.c **** 
 137:Dsp/widget/wgt_core/GenDsp.c ****     while (*str != '\0')
 467              		.loc 1 137 5 view .LVU112
 135:Dsp/widget/wgt_core/GenDsp.c ****     uint8_t len = 0;
 468              		.loc 1 135 13 is_stmt 0 view .LVU113
ARM GAS  /tmp/ccErjHfS.s 			page 12


 469 0000 0020     		movs	r0, #0
 470              	.LVL44:
 471              	.L38:
 472              		.loc 1 137 12 view .LVU114
 473 0002 0B78     		ldrb	r3, [r1]	@ zero_extendqisi2
 474              		.loc 1 137 11 view .LVU115
 475 0004 1BB1     		cbz	r3, .L40
 138:Dsp/widget/wgt_core/GenDsp.c ****     {
 139:Dsp/widget/wgt_core/GenDsp.c ****         len += FONT_WIDTH;
 476              		.loc 1 139 9 is_stmt 1 view .LVU116
 477              		.loc 1 139 13 is_stmt 0 view .LVU117
 478 0006 0830     		adds	r0, r0, #8
 479              	.LVL45:
 480              		.loc 1 139 13 view .LVU118
 481 0008 C0B2     		uxtb	r0, r0
 482              	.LVL46:
 140:Dsp/widget/wgt_core/GenDsp.c ****         str++;
 483              		.loc 1 140 9 is_stmt 1 view .LVU119
 484              		.loc 1 140 12 is_stmt 0 view .LVU120
 485 000a 0131     		adds	r1, r1, #1
 486              	.LVL47:
 487              		.loc 1 140 12 view .LVU121
 488 000c F9E7     		b	.L38
 489              	.L40:
 141:Dsp/widget/wgt_core/GenDsp.c ****     }
 142:Dsp/widget/wgt_core/GenDsp.c **** 
 143:Dsp/widget/wgt_core/GenDsp.c ****     return len;
 144:Dsp/widget/wgt_core/GenDsp.c **** }
 490              		.loc 1 144 1 view .LVU122
 491 000e 7047     		bx	lr
 492              		.cfi_endproc
 493              	.LFE8:
 495              		.section	.text.GenDsp_DrawLen,"ax",%progbits
 496              		.align	1
 497              		.syntax unified
 498              		.thumb
 499              		.thumb_func
 500              		.fpu fpv4-sp-d16
 502              	GenDsp_DrawLen:
 503              	.LVL48:
 504              	.LFB9:
 145:Dsp/widget/wgt_core/GenDsp.c **** 
 146:Dsp/widget/wgt_core/GenDsp.c **** static void GenDsp_DrawLen(uint8_t **map, uint8_t start_x, uint8_t start_y, uint8_t end_x, uint8_t 
 147:Dsp/widget/wgt_core/GenDsp.c **** {
 505              		.loc 1 147 1 is_stmt 1 view -0
 506              		.cfi_startproc
 507              		@ args = 8, pretend = 0, frame = 16
 508              		@ frame_needed = 0, uses_anonymous_args = 0
 509              		.loc 1 147 1 is_stmt 0 view .LVU124
 510 0000 2DE9F04F 		push	{r4, r5, r6, r7, r8, r9, r10, fp, lr}
 511              	.LCFI11:
 512              		.cfi_def_cfa_offset 36
 513              		.cfi_offset 4, -36
 514              		.cfi_offset 5, -32
 515              		.cfi_offset 6, -28
 516              		.cfi_offset 7, -24
 517              		.cfi_offset 8, -20
ARM GAS  /tmp/ccErjHfS.s 			page 13


 518              		.cfi_offset 9, -16
 519              		.cfi_offset 10, -12
 520              		.cfi_offset 11, -8
 521              		.cfi_offset 14, -4
 522 0004 85B0     		sub	sp, sp, #20
 523              	.LCFI12:
 524              		.cfi_def_cfa_offset 56
 525 0006 0190     		str	r0, [sp, #4]
 526 0008 8846     		mov	r8, r1
 527 000a 9146     		mov	r9, r2
 528 000c 9DF83820 		ldrb	r2, [sp, #56]	@ zero_extendqisi2
 529              	.LVL49:
 148:Dsp/widget/wgt_core/GenDsp.c ****     int8_t xerr = 0;
 530              		.loc 1 148 5 is_stmt 1 view .LVU125
 149:Dsp/widget/wgt_core/GenDsp.c ****     int8_t yerr = 0;
 531              		.loc 1 149 5 view .LVU126
 150:Dsp/widget/wgt_core/GenDsp.c ****     int8_t delta_x = end_x - start_x;
 532              		.loc 1 150 5 view .LVU127
 533              		.loc 1 150 28 is_stmt 0 view .LVU128
 534 0010 A3EB010A 		sub	r10, r3, r1
 535              		.loc 1 150 12 view .LVU129
 536 0014 4FFA8AFA 		sxtb	r10, r10
 537              	.LVL50:
 151:Dsp/widget/wgt_core/GenDsp.c ****     int8_t delta_y = end_y - start_y;
 538              		.loc 1 151 5 is_stmt 1 view .LVU130
 539              		.loc 1 151 28 is_stmt 0 view .LVU131
 540 0018 A2EB090B 		sub	fp, r2, r9
 541              		.loc 1 151 12 view .LVU132
 542 001c 4FFA8BFB 		sxtb	fp, fp
 543              	.LVL51:
 152:Dsp/widget/wgt_core/GenDsp.c ****     int16_t distance;
 544              		.loc 1 152 5 is_stmt 1 view .LVU133
 153:Dsp/widget/wgt_core/GenDsp.c ****     uint8_t uRow = start_x;
 545              		.loc 1 153 5 view .LVU134
 154:Dsp/widget/wgt_core/GenDsp.c ****     uint8_t uCol = start_y;
 546              		.loc 1 154 5 view .LVU135
 155:Dsp/widget/wgt_core/GenDsp.c **** 
 156:Dsp/widget/wgt_core/GenDsp.c ****     int8_t incx, incy;
 547              		.loc 1 156 5 view .LVU136
 157:Dsp/widget/wgt_core/GenDsp.c **** 
 158:Dsp/widget/wgt_core/GenDsp.c ****     if (delta_x > 0)
 548              		.loc 1 158 5 view .LVU137
 549              		.loc 1 158 8 is_stmt 0 view .LVU138
 550 0020 BAF1000F 		cmp	r10, #0
 551 0024 0EDD     		ble	.L55
 159:Dsp/widget/wgt_core/GenDsp.c ****     {
 160:Dsp/widget/wgt_core/GenDsp.c ****         incx = 1;
 552              		.loc 1 160 14 view .LVU139
 553 0026 0123     		movs	r3, #1
 554              	.LVL52:
 555              		.loc 1 160 14 view .LVU140
 556 0028 0293     		str	r3, [sp, #8]
 557              	.L42:
 558              	.LVL53:
 161:Dsp/widget/wgt_core/GenDsp.c ****     }
 162:Dsp/widget/wgt_core/GenDsp.c ****     else if (delta_x == 0)
 163:Dsp/widget/wgt_core/GenDsp.c ****     {
ARM GAS  /tmp/ccErjHfS.s 			page 14


 164:Dsp/widget/wgt_core/GenDsp.c ****         incx = 0;
 165:Dsp/widget/wgt_core/GenDsp.c ****     }
 166:Dsp/widget/wgt_core/GenDsp.c ****     else
 167:Dsp/widget/wgt_core/GenDsp.c ****     {
 168:Dsp/widget/wgt_core/GenDsp.c ****         incx = -1;
 169:Dsp/widget/wgt_core/GenDsp.c ****         delta_x = -delta_x;
 170:Dsp/widget/wgt_core/GenDsp.c ****     }
 171:Dsp/widget/wgt_core/GenDsp.c **** 
 172:Dsp/widget/wgt_core/GenDsp.c ****     if (delta_y > 0)
 559              		.loc 1 172 5 is_stmt 1 view .LVU141
 560              		.loc 1 172 8 is_stmt 0 view .LVU142
 561 002a BBF1000F 		cmp	fp, #0
 562 002e 16DD     		ble	.L56
 173:Dsp/widget/wgt_core/GenDsp.c ****     {
 174:Dsp/widget/wgt_core/GenDsp.c ****         incy = 1;
 563              		.loc 1 174 14 view .LVU143
 564 0030 0123     		movs	r3, #1
 565 0032 0393     		str	r3, [sp, #12]
 566              	.L43:
 567              	.LVL54:
 175:Dsp/widget/wgt_core/GenDsp.c ****     }
 176:Dsp/widget/wgt_core/GenDsp.c ****     else if (delta_y == 0)
 177:Dsp/widget/wgt_core/GenDsp.c ****     {
 178:Dsp/widget/wgt_core/GenDsp.c ****         incy = 0;
 179:Dsp/widget/wgt_core/GenDsp.c ****     }
 180:Dsp/widget/wgt_core/GenDsp.c ****     else
 181:Dsp/widget/wgt_core/GenDsp.c ****     {
 182:Dsp/widget/wgt_core/GenDsp.c ****         incy = -1;
 183:Dsp/widget/wgt_core/GenDsp.c ****         delta_y = -delta_y;
 184:Dsp/widget/wgt_core/GenDsp.c ****     }
 185:Dsp/widget/wgt_core/GenDsp.c **** 
 186:Dsp/widget/wgt_core/GenDsp.c ****     if (delta_x > delta_y)
 568              		.loc 1 186 5 is_stmt 1 view .LVU144
 569              		.loc 1 186 8 is_stmt 0 view .LVU145
 570 0034 DA45     		cmp	r10, fp
 571 0036 20DD     		ble	.L44
 187:Dsp/widget/wgt_core/GenDsp.c ****     {
 188:Dsp/widget/wgt_core/GenDsp.c ****         distance = delta_x;
 572              		.loc 1 188 9 is_stmt 1 view .LVU146
 573              		.loc 1 188 18 is_stmt 0 view .LVU147
 574 0038 0FFA8AF7 		sxth	r7, r10
 575              	.LVL55:
 576              	.L45:
 189:Dsp/widget/wgt_core/GenDsp.c ****     }
 190:Dsp/widget/wgt_core/GenDsp.c ****     else
 191:Dsp/widget/wgt_core/GenDsp.c ****     {
 192:Dsp/widget/wgt_core/GenDsp.c ****         distance = delta_y;
 193:Dsp/widget/wgt_core/GenDsp.c ****     }
 194:Dsp/widget/wgt_core/GenDsp.c **** 
 195:Dsp/widget/wgt_core/GenDsp.c ****     for (uint8_t t = 0; t < distance + 1; t++)
 577              		.loc 1 195 5 is_stmt 1 view .LVU148
 578              	.LBB7:
 579              		.loc 1 195 10 view .LVU149
 580              		.loc 1 195 18 is_stmt 0 view .LVU150
 581 003c 0026     		movs	r6, #0
 582              	.LBE7:
 149:Dsp/widget/wgt_core/GenDsp.c ****     int8_t delta_x = end_x - start_x;
ARM GAS  /tmp/ccErjHfS.s 			page 15


 583              		.loc 1 149 12 view .LVU151
 584 003e 3546     		mov	r5, r6
 148:Dsp/widget/wgt_core/GenDsp.c ****     int8_t yerr = 0;
 585              		.loc 1 148 12 view .LVU152
 586 0040 3446     		mov	r4, r6
 587              	.LBB8:
 588              		.loc 1 195 5 view .LVU153
 589 0042 1FE0     		b	.L46
 590              	.LVL56:
 591              	.L55:
 592              		.loc 1 195 5 view .LVU154
 593              	.LBE8:
 162:Dsp/widget/wgt_core/GenDsp.c ****     {
 594              		.loc 1 162 10 is_stmt 1 view .LVU155
 162:Dsp/widget/wgt_core/GenDsp.c ****     {
 595              		.loc 1 162 13 is_stmt 0 view .LVU156
 596 0044 BAF1000F 		cmp	r10, #0
 597 0048 06D0     		beq	.L51
 168:Dsp/widget/wgt_core/GenDsp.c ****         delta_x = -delta_x;
 598              		.loc 1 168 9 is_stmt 1 view .LVU157
 599              	.LVL57:
 169:Dsp/widget/wgt_core/GenDsp.c ****     }
 600              		.loc 1 169 9 view .LVU158
 169:Dsp/widget/wgt_core/GenDsp.c ****     }
 601              		.loc 1 169 17 is_stmt 0 view .LVU159
 602 004a CB1A     		subs	r3, r1, r3
 603              	.LVL58:
 169:Dsp/widget/wgt_core/GenDsp.c ****     }
 604              		.loc 1 169 17 view .LVU160
 605 004c 4FFA83FA 		sxtb	r10, r3
 606              	.LVL59:
 168:Dsp/widget/wgt_core/GenDsp.c ****         delta_x = -delta_x;
 607              		.loc 1 168 14 view .LVU161
 608 0050 4FF0FF33 		mov	r3, #-1
 609 0054 0293     		str	r3, [sp, #8]
 610 0056 E8E7     		b	.L42
 611              	.LVL60:
 612              	.L51:
 164:Dsp/widget/wgt_core/GenDsp.c ****     }
 613              		.loc 1 164 14 view .LVU162
 614 0058 CDF808A0 		str	r10, [sp, #8]
 615 005c E5E7     		b	.L42
 616              	.LVL61:
 617              	.L56:
 176:Dsp/widget/wgt_core/GenDsp.c ****     {
 618              		.loc 1 176 10 is_stmt 1 view .LVU163
 176:Dsp/widget/wgt_core/GenDsp.c ****     {
 619              		.loc 1 176 13 is_stmt 0 view .LVU164
 620 005e BBF1000F 		cmp	fp, #0
 621 0062 07D0     		beq	.L53
 182:Dsp/widget/wgt_core/GenDsp.c ****         delta_y = -delta_y;
 622              		.loc 1 182 9 is_stmt 1 view .LVU165
 623              	.LVL62:
 183:Dsp/widget/wgt_core/GenDsp.c ****     }
 624              		.loc 1 183 9 view .LVU166
 183:Dsp/widget/wgt_core/GenDsp.c ****     }
 625              		.loc 1 183 17 is_stmt 0 view .LVU167
ARM GAS  /tmp/ccErjHfS.s 			page 16


 626 0064 A9EB020B 		sub	fp, r9, r2
 627              	.LVL63:
 183:Dsp/widget/wgt_core/GenDsp.c ****     }
 628              		.loc 1 183 17 view .LVU168
 629 0068 4FFA8BFB 		sxtb	fp, fp
 630              	.LVL64:
 182:Dsp/widget/wgt_core/GenDsp.c ****         delta_y = -delta_y;
 631              		.loc 1 182 14 view .LVU169
 632 006c 4FF0FF33 		mov	r3, #-1
 633 0070 0393     		str	r3, [sp, #12]
 634 0072 DFE7     		b	.L43
 635              	.LVL65:
 636              	.L53:
 178:Dsp/widget/wgt_core/GenDsp.c ****     }
 637              		.loc 1 178 14 view .LVU170
 638 0074 CDF80CB0 		str	fp, [sp, #12]
 639 0078 DCE7     		b	.L43
 640              	.LVL66:
 641              	.L44:
 192:Dsp/widget/wgt_core/GenDsp.c ****     }
 642              		.loc 1 192 9 is_stmt 1 view .LVU171
 192:Dsp/widget/wgt_core/GenDsp.c ****     }
 643              		.loc 1 192 18 is_stmt 0 view .LVU172
 644 007a 0FFA8BF7 		sxth	r7, fp
 645              	.LVL67:
 192:Dsp/widget/wgt_core/GenDsp.c ****     }
 646              		.loc 1 192 18 view .LVU173
 647 007e DDE7     		b	.L45
 648              	.LVL68:
 649              	.L48:
 650              	.LBB9:
 651              		.loc 1 195 44 discriminator 2 view .LVU174
 652 0080 0136     		adds	r6, r6, #1
 653              	.LVL69:
 654              		.loc 1 195 44 discriminator 2 view .LVU175
 655 0082 F6B2     		uxtb	r6, r6
 656              	.LVL70:
 657              	.L46:
 658              		.loc 1 195 5 discriminator 1 view .LVU176
 659 0084 B742     		cmp	r7, r6
 660 0086 1EDB     		blt	.L57
 196:Dsp/widget/wgt_core/GenDsp.c ****     {
 197:Dsp/widget/wgt_core/GenDsp.c ****         GenDsp_DrawPoint(map, uRow, uCol, true);
 661              		.loc 1 197 9 is_stmt 1 view .LVU177
 662 0088 0123     		movs	r3, #1
 663 008a 4A46     		mov	r2, r9
 664 008c 4146     		mov	r1, r8
 665 008e 0198     		ldr	r0, [sp, #4]
 666 0090 FFF7FEFF 		bl	GenDsp_DrawPoint
 667              	.LVL71:
 198:Dsp/widget/wgt_core/GenDsp.c **** 
 199:Dsp/widget/wgt_core/GenDsp.c ****         xerr += delta_x;
 668              		.loc 1 199 9 view .LVU178
 669              		.loc 1 199 14 is_stmt 0 view .LVU179
 670 0094 5444     		add	r4, r4, r10
 671              	.LVL72:
 672              		.loc 1 199 14 view .LVU180
ARM GAS  /tmp/ccErjHfS.s 			page 17


 673 0096 E2B2     		uxtb	r2, r4
 674 0098 54B2     		sxtb	r4, r2
 675              	.LVL73:
 200:Dsp/widget/wgt_core/GenDsp.c ****         yerr += delta_y;
 676              		.loc 1 200 9 is_stmt 1 view .LVU181
 677              		.loc 1 200 14 is_stmt 0 view .LVU182
 678 009a 5D44     		add	r5, r5, fp
 679              	.LVL74:
 680              		.loc 1 200 14 view .LVU183
 681 009c EBB2     		uxtb	r3, r5
 682 009e 5DB2     		sxtb	r5, r3
 683              	.LVL75:
 201:Dsp/widget/wgt_core/GenDsp.c **** 
 202:Dsp/widget/wgt_core/GenDsp.c ****         if (xerr >= distance)
 684              		.loc 1 202 9 is_stmt 1 view .LVU184
 685              		.loc 1 202 18 is_stmt 0 view .LVU185
 686 00a0 21B2     		sxth	r1, r4
 687              		.loc 1 202 12 view .LVU186
 688 00a2 B942     		cmp	r1, r7
 689 00a4 05DB     		blt	.L47
 203:Dsp/widget/wgt_core/GenDsp.c ****         {
 204:Dsp/widget/wgt_core/GenDsp.c ****             xerr -= distance;
 690              		.loc 1 204 13 is_stmt 1 view .LVU187
 691              		.loc 1 204 18 is_stmt 0 view .LVU188
 692 00a6 D41B     		subs	r4, r2, r7
 693              	.LVL76:
 694              		.loc 1 204 18 view .LVU189
 695 00a8 64B2     		sxtb	r4, r4
 696              	.LVL77:
 205:Dsp/widget/wgt_core/GenDsp.c ****             uRow += incx;
 697              		.loc 1 205 13 is_stmt 1 view .LVU190
 698              		.loc 1 205 18 is_stmt 0 view .LVU191
 699 00aa 029A     		ldr	r2, [sp, #8]
 700 00ac 9044     		add	r8, r8, r2
 701              	.LVL78:
 702              		.loc 1 205 18 view .LVU192
 703 00ae 5FFA88F8 		uxtb	r8, r8
 704              	.LVL79:
 705              	.L47:
 206:Dsp/widget/wgt_core/GenDsp.c ****         }
 207:Dsp/widget/wgt_core/GenDsp.c ****         if (yerr >= distance)
 706              		.loc 1 207 9 is_stmt 1 view .LVU193
 707              		.loc 1 207 18 is_stmt 0 view .LVU194
 708 00b2 2AB2     		sxth	r2, r5
 709              		.loc 1 207 12 view .LVU195
 710 00b4 BA42     		cmp	r2, r7
 711 00b6 E3DB     		blt	.L48
 208:Dsp/widget/wgt_core/GenDsp.c ****         {
 209:Dsp/widget/wgt_core/GenDsp.c ****             yerr -= distance;
 712              		.loc 1 209 13 is_stmt 1 view .LVU196
 713              		.loc 1 209 18 is_stmt 0 view .LVU197
 714 00b8 DD1B     		subs	r5, r3, r7
 715              	.LVL80:
 716              		.loc 1 209 18 view .LVU198
 717 00ba 6DB2     		sxtb	r5, r5
 718              	.LVL81:
 210:Dsp/widget/wgt_core/GenDsp.c ****             uCol += incy;
ARM GAS  /tmp/ccErjHfS.s 			page 18


 719              		.loc 1 210 13 is_stmt 1 view .LVU199
 720              		.loc 1 210 18 is_stmt 0 view .LVU200
 721 00bc 039B     		ldr	r3, [sp, #12]
 722 00be 9944     		add	r9, r9, r3
 723              	.LVL82:
 724              		.loc 1 210 18 view .LVU201
 725 00c0 5FFA89F9 		uxtb	r9, r9
 726              	.LVL83:
 727              		.loc 1 210 18 view .LVU202
 728 00c4 DCE7     		b	.L48
 729              	.L57:
 730              		.loc 1 210 18 view .LVU203
 731              	.LBE9:
 211:Dsp/widget/wgt_core/GenDsp.c ****         }
 212:Dsp/widget/wgt_core/GenDsp.c ****     }
 213:Dsp/widget/wgt_core/GenDsp.c **** }
 732              		.loc 1 213 1 view .LVU204
 733 00c6 05B0     		add	sp, sp, #20
 734              	.LCFI13:
 735              		.cfi_def_cfa_offset 36
 736              		@ sp needed
 737 00c8 BDE8F08F 		pop	{r4, r5, r6, r7, r8, r9, r10, fp, pc}
 738              		.loc 1 213 1 view .LVU205
 739              		.cfi_endproc
 740              	.LFE9:
 742              		.section	.text.GenDsp_Draw_Circle_Section,"ax",%progbits
 743              		.align	1
 744              		.syntax unified
 745              		.thumb
 746              		.thumb_func
 747              		.fpu fpv4-sp-d16
 749              	GenDsp_Draw_Circle_Section:
 750              	.LVL84:
 751              	.LFB10:
 214:Dsp/widget/wgt_core/GenDsp.c **** 
 215:Dsp/widget/wgt_core/GenDsp.c **** static void GenDsp_Draw_Circle_Section(uint8_t **map, uint8_t x, uint8_t y, uint8_t x0, uint8_t y0,
 216:Dsp/widget/wgt_core/GenDsp.c **** {
 752              		.loc 1 216 1 is_stmt 1 view -0
 753              		.cfi_startproc
 754              		@ args = 8, pretend = 0, frame = 0
 755              		@ frame_needed = 0, uses_anonymous_args = 0
 756              		.loc 1 216 1 is_stmt 0 view .LVU207
 757 0000 2DE9F843 		push	{r3, r4, r5, r6, r7, r8, r9, lr}
 758              	.LCFI14:
 759              		.cfi_def_cfa_offset 32
 760              		.cfi_offset 3, -32
 761              		.cfi_offset 4, -28
 762              		.cfi_offset 5, -24
 763              		.cfi_offset 6, -20
 764              		.cfi_offset 7, -16
 765              		.cfi_offset 8, -12
 766              		.cfi_offset 9, -8
 767              		.cfi_offset 14, -4
 768 0004 0746     		mov	r7, r0
 769 0006 0E46     		mov	r6, r1
 770 0008 9046     		mov	r8, r2
 771 000a 1D46     		mov	r5, r3
ARM GAS  /tmp/ccErjHfS.s 			page 19


 772 000c 9DF82090 		ldrb	r9, [sp, #32]	@ zero_extendqisi2
 773 0010 9DF82440 		ldrb	r4, [sp, #36]	@ zero_extendqisi2
 217:Dsp/widget/wgt_core/GenDsp.c ****     /* upper right */
 218:Dsp/widget/wgt_core/GenDsp.c ****     if (option & DRAW_UPPER_RIGHT)
 774              		.loc 1 218 5 is_stmt 1 view .LVU208
 775              		.loc 1 218 8 is_stmt 0 view .LVU209
 776 0014 14F0010F 		tst	r4, #1
 777 0018 0AD1     		bne	.L64
 778              	.LVL85:
 779              	.L59:
 219:Dsp/widget/wgt_core/GenDsp.c ****     {
 220:Dsp/widget/wgt_core/GenDsp.c ****         GenDsp_DrawPoint(map, x0 + x, y0 - y, 1);
 221:Dsp/widget/wgt_core/GenDsp.c ****         GenDsp_DrawPoint(map, x0 + y, y0 - x, 1);
 222:Dsp/widget/wgt_core/GenDsp.c ****     }
 223:Dsp/widget/wgt_core/GenDsp.c **** 
 224:Dsp/widget/wgt_core/GenDsp.c ****     /* upper left */
 225:Dsp/widget/wgt_core/GenDsp.c ****     if (option & DRAW_UPPER_LEFT)
 780              		.loc 1 225 5 is_stmt 1 view .LVU210
 781              		.loc 1 225 8 is_stmt 0 view .LVU211
 782 001a 14F0020F 		tst	r4, #2
 783 001e 1AD1     		bne	.L65
 784              	.L60:
 226:Dsp/widget/wgt_core/GenDsp.c ****     {
 227:Dsp/widget/wgt_core/GenDsp.c ****         GenDsp_DrawPoint(map, x0 - x, y0 - y, 1);
 228:Dsp/widget/wgt_core/GenDsp.c ****         GenDsp_DrawPoint(map, x0 - y, y0 - x, 1);
 229:Dsp/widget/wgt_core/GenDsp.c ****     }
 230:Dsp/widget/wgt_core/GenDsp.c **** 
 231:Dsp/widget/wgt_core/GenDsp.c ****     /* lower right */
 232:Dsp/widget/wgt_core/GenDsp.c ****     if (option & DRAW_LOWER_RIGHT)
 785              		.loc 1 232 5 is_stmt 1 view .LVU212
 786              		.loc 1 232 8 is_stmt 0 view .LVU213
 787 0020 14F0080F 		tst	r4, #8
 788 0024 2BD1     		bne	.L66
 789              	.L61:
 233:Dsp/widget/wgt_core/GenDsp.c ****     {
 234:Dsp/widget/wgt_core/GenDsp.c ****         GenDsp_DrawPoint(map, x0 + x, y0 + y, 1);
 235:Dsp/widget/wgt_core/GenDsp.c ****         GenDsp_DrawPoint(map, x0 + y, y0 + x, 1);
 236:Dsp/widget/wgt_core/GenDsp.c ****     }
 237:Dsp/widget/wgt_core/GenDsp.c **** 
 238:Dsp/widget/wgt_core/GenDsp.c ****     /* lower left */
 239:Dsp/widget/wgt_core/GenDsp.c ****     if (option & DRAW_LOWER_LEFT)
 790              		.loc 1 239 5 is_stmt 1 view .LVU214
 791              		.loc 1 239 8 is_stmt 0 view .LVU215
 792 0026 14F0040F 		tst	r4, #4
 793 002a 3CD1     		bne	.L67
 794              	.L58:
 240:Dsp/widget/wgt_core/GenDsp.c ****     {
 241:Dsp/widget/wgt_core/GenDsp.c ****         GenDsp_DrawPoint(map, x0 - x, y0 + y, 1);
 242:Dsp/widget/wgt_core/GenDsp.c ****         GenDsp_DrawPoint(map, x0 - y, y0 + x, 1);
 243:Dsp/widget/wgt_core/GenDsp.c ****     }
 244:Dsp/widget/wgt_core/GenDsp.c **** }
 795              		.loc 1 244 1 view .LVU216
 796 002c BDE8F883 		pop	{r3, r4, r5, r6, r7, r8, r9, pc}
 797              	.LVL86:
 798              	.L64:
 220:Dsp/widget/wgt_core/GenDsp.c ****         GenDsp_DrawPoint(map, x0 + y, y0 - x, 1);
 799              		.loc 1 220 9 is_stmt 1 view .LVU217
ARM GAS  /tmp/ccErjHfS.s 			page 20


 800 0030 A9EB0202 		sub	r2, r9, r2
 801              	.LVL87:
 220:Dsp/widget/wgt_core/GenDsp.c ****         GenDsp_DrawPoint(map, x0 + y, y0 - x, 1);
 802              		.loc 1 220 9 is_stmt 0 view .LVU218
 803 0034 5918     		adds	r1, r3, r1
 804              	.LVL88:
 220:Dsp/widget/wgt_core/GenDsp.c ****         GenDsp_DrawPoint(map, x0 + y, y0 - x, 1);
 805              		.loc 1 220 9 view .LVU219
 806 0036 0123     		movs	r3, #1
 807              	.LVL89:
 220:Dsp/widget/wgt_core/GenDsp.c ****         GenDsp_DrawPoint(map, x0 + y, y0 - x, 1);
 808              		.loc 1 220 9 view .LVU220
 809 0038 D2B2     		uxtb	r2, r2
 810 003a C9B2     		uxtb	r1, r1
 811 003c FFF7FEFF 		bl	GenDsp_DrawPoint
 812              	.LVL90:
 221:Dsp/widget/wgt_core/GenDsp.c ****     }
 813              		.loc 1 221 9 is_stmt 1 view .LVU221
 814 0040 A9EB0602 		sub	r2, r9, r6
 815 0044 05EB0801 		add	r1, r5, r8
 816 0048 0123     		movs	r3, #1
 817 004a D2B2     		uxtb	r2, r2
 818 004c C9B2     		uxtb	r1, r1
 819 004e 3846     		mov	r0, r7
 820 0050 FFF7FEFF 		bl	GenDsp_DrawPoint
 821              	.LVL91:
 822 0054 E1E7     		b	.L59
 823              	.L65:
 227:Dsp/widget/wgt_core/GenDsp.c ****         GenDsp_DrawPoint(map, x0 - y, y0 - x, 1);
 824              		.loc 1 227 9 view .LVU222
 825 0056 A9EB0802 		sub	r2, r9, r8
 826 005a A91B     		subs	r1, r5, r6
 827 005c 0123     		movs	r3, #1
 828 005e D2B2     		uxtb	r2, r2
 829 0060 C9B2     		uxtb	r1, r1
 830 0062 3846     		mov	r0, r7
 831 0064 FFF7FEFF 		bl	GenDsp_DrawPoint
 832              	.LVL92:
 228:Dsp/widget/wgt_core/GenDsp.c ****     }
 833              		.loc 1 228 9 view .LVU223
 834 0068 A9EB0602 		sub	r2, r9, r6
 835 006c A5EB0801 		sub	r1, r5, r8
 836 0070 0123     		movs	r3, #1
 837 0072 D2B2     		uxtb	r2, r2
 838 0074 C9B2     		uxtb	r1, r1
 839 0076 3846     		mov	r0, r7
 840 0078 FFF7FEFF 		bl	GenDsp_DrawPoint
 841              	.LVL93:
 842 007c D0E7     		b	.L60
 843              	.L66:
 234:Dsp/widget/wgt_core/GenDsp.c ****         GenDsp_DrawPoint(map, x0 + y, y0 + x, 1);
 844              		.loc 1 234 9 view .LVU224
 845 007e 09EB0802 		add	r2, r9, r8
 846 0082 A919     		adds	r1, r5, r6
 847 0084 0123     		movs	r3, #1
 848 0086 D2B2     		uxtb	r2, r2
 849 0088 C9B2     		uxtb	r1, r1
ARM GAS  /tmp/ccErjHfS.s 			page 21


 850 008a 3846     		mov	r0, r7
 851 008c FFF7FEFF 		bl	GenDsp_DrawPoint
 852              	.LVL94:
 235:Dsp/widget/wgt_core/GenDsp.c ****     }
 853              		.loc 1 235 9 view .LVU225
 854 0090 06EB0902 		add	r2, r6, r9
 855 0094 05EB0801 		add	r1, r5, r8
 856 0098 0123     		movs	r3, #1
 857 009a D2B2     		uxtb	r2, r2
 858 009c C9B2     		uxtb	r1, r1
 859 009e 3846     		mov	r0, r7
 860 00a0 FFF7FEFF 		bl	GenDsp_DrawPoint
 861              	.LVL95:
 862 00a4 BFE7     		b	.L61
 863              	.L67:
 241:Dsp/widget/wgt_core/GenDsp.c ****         GenDsp_DrawPoint(map, x0 - y, y0 + x, 1);
 864              		.loc 1 241 9 view .LVU226
 865 00a6 09EB0802 		add	r2, r9, r8
 866 00aa A91B     		subs	r1, r5, r6
 867 00ac 0123     		movs	r3, #1
 868 00ae D2B2     		uxtb	r2, r2
 869 00b0 C9B2     		uxtb	r1, r1
 870 00b2 3846     		mov	r0, r7
 871 00b4 FFF7FEFF 		bl	GenDsp_DrawPoint
 872              	.LVL96:
 242:Dsp/widget/wgt_core/GenDsp.c ****     }
 873              		.loc 1 242 9 view .LVU227
 874 00b8 06EB0902 		add	r2, r6, r9
 875 00bc A5EB0801 		sub	r1, r5, r8
 876 00c0 0123     		movs	r3, #1
 877 00c2 D2B2     		uxtb	r2, r2
 878 00c4 C9B2     		uxtb	r1, r1
 879 00c6 3846     		mov	r0, r7
 880 00c8 FFF7FEFF 		bl	GenDsp_DrawPoint
 881              	.LVL97:
 882              		.loc 1 244 1 is_stmt 0 view .LVU228
 883 00cc AEE7     		b	.L58
 884              		.cfi_endproc
 885              	.LFE10:
 887              		.section	.text.GenDsp_Draw_Circle,"ax",%progbits
 888              		.align	1
 889              		.syntax unified
 890              		.thumb
 891              		.thumb_func
 892              		.fpu fpv4-sp-d16
 894              	GenDsp_Draw_Circle:
 895              	.LVL98:
 896              	.LFB11:
 245:Dsp/widget/wgt_core/GenDsp.c **** 
 246:Dsp/widget/wgt_core/GenDsp.c **** static void GenDsp_Draw_Circle(uint8_t **map, uint8_t x0, uint8_t y0, uint8_t rad, uint8_t option)
 247:Dsp/widget/wgt_core/GenDsp.c **** {
 897              		.loc 1 247 1 is_stmt 1 view -0
 898              		.cfi_startproc
 899              		@ args = 4, pretend = 0, frame = 8
 900              		@ frame_needed = 0, uses_anonymous_args = 0
 901              		.loc 1 247 1 is_stmt 0 view .LVU230
 902 0000 2DE9F04F 		push	{r4, r5, r6, r7, r8, r9, r10, fp, lr}
ARM GAS  /tmp/ccErjHfS.s 			page 22


 903              	.LCFI15:
 904              		.cfi_def_cfa_offset 36
 905              		.cfi_offset 4, -36
 906              		.cfi_offset 5, -32
 907              		.cfi_offset 6, -28
 908              		.cfi_offset 7, -24
 909              		.cfi_offset 8, -20
 910              		.cfi_offset 9, -16
 911              		.cfi_offset 10, -12
 912              		.cfi_offset 11, -8
 913              		.cfi_offset 14, -4
 914 0004 85B0     		sub	sp, sp, #20
 915              	.LCFI16:
 916              		.cfi_def_cfa_offset 56
 917 0006 0390     		str	r0, [sp, #12]
 918 0008 8946     		mov	r9, r1
 919 000a 9246     		mov	r10, r2
 920 000c 1F46     		mov	r7, r3
 921 000e 9DF838B0 		ldrb	fp, [sp, #56]	@ zero_extendqisi2
 248:Dsp/widget/wgt_core/GenDsp.c ****     int8_t f;
 922              		.loc 1 248 5 is_stmt 1 view .LVU231
 249:Dsp/widget/wgt_core/GenDsp.c ****     int8_t ddF_x;
 923              		.loc 1 249 5 view .LVU232
 250:Dsp/widget/wgt_core/GenDsp.c ****     int8_t ddF_y;
 924              		.loc 1 250 5 view .LVU233
 251:Dsp/widget/wgt_core/GenDsp.c ****     uint8_t x;
 925              		.loc 1 251 5 view .LVU234
 252:Dsp/widget/wgt_core/GenDsp.c ****     uint8_t y;
 926              		.loc 1 252 5 view .LVU235
 253:Dsp/widget/wgt_core/GenDsp.c **** 
 254:Dsp/widget/wgt_core/GenDsp.c ****     f = 1;
 927              		.loc 1 254 5 view .LVU236
 928              	.LVL99:
 255:Dsp/widget/wgt_core/GenDsp.c ****     f -= rad;
 929              		.loc 1 255 5 view .LVU237
 930              		.loc 1 255 7 is_stmt 0 view .LVU238
 931 0012 C3F10108 		rsb	r8, r3, #1
 932 0016 4FFA88F8 		sxtb	r8, r8
 933              	.LVL100:
 256:Dsp/widget/wgt_core/GenDsp.c ****     ddF_x = 1;
 934              		.loc 1 256 5 is_stmt 1 view .LVU239
 257:Dsp/widget/wgt_core/GenDsp.c ****     ddF_y = 0;
 935              		.loc 1 257 5 view .LVU240
 258:Dsp/widget/wgt_core/GenDsp.c ****     ddF_y -= rad;
 936              		.loc 1 258 5 view .LVU241
 259:Dsp/widget/wgt_core/GenDsp.c ****     ddF_y *= 2;
 937              		.loc 1 259 5 view .LVU242
 938              		.loc 1 259 11 is_stmt 0 view .LVU243
 939 001a C3EBC313 		rsb	r3, r3, r3, lsl #7
 940              	.LVL101:
 941              		.loc 1 259 11 view .LVU244
 942 001e 5E00     		lsls	r6, r3, #1
 943 0020 76B2     		sxtb	r6, r6
 944              	.LVL102:
 260:Dsp/widget/wgt_core/GenDsp.c ****     x = 0;
 945              		.loc 1 260 5 is_stmt 1 view .LVU245
 261:Dsp/widget/wgt_core/GenDsp.c ****     y = rad;
ARM GAS  /tmp/ccErjHfS.s 			page 23


 946              		.loc 1 261 5 view .LVU246
 262:Dsp/widget/wgt_core/GenDsp.c **** 
 263:Dsp/widget/wgt_core/GenDsp.c ****     GenDsp_Draw_Circle_Section(map, x, y, x0, y0, option);
 947              		.loc 1 263 5 view .LVU247
 948 0022 CDF804B0 		str	fp, [sp, #4]
 949 0026 0092     		str	r2, [sp]
 950 0028 0B46     		mov	r3, r1
 951 002a 3A46     		mov	r2, r7
 952              	.LVL103:
 953              		.loc 1 263 5 is_stmt 0 view .LVU248
 954 002c 0021     		movs	r1, #0
 955              	.LVL104:
 956              		.loc 1 263 5 view .LVU249
 957 002e FFF7FEFF 		bl	GenDsp_Draw_Circle_Section
 958              	.LVL105:
 264:Dsp/widget/wgt_core/GenDsp.c **** 
 265:Dsp/widget/wgt_core/GenDsp.c ****     while (x < y)
 959              		.loc 1 265 5 is_stmt 1 view .LVU250
 260:Dsp/widget/wgt_core/GenDsp.c ****     y = rad;
 960              		.loc 1 260 7 is_stmt 0 view .LVU251
 961 0032 0025     		movs	r5, #0
 256:Dsp/widget/wgt_core/GenDsp.c ****     ddF_y = 0;
 962              		.loc 1 256 11 view .LVU252
 963 0034 0124     		movs	r4, #1
 964              		.loc 1 265 11 view .LVU253
 965 0036 11E0     		b	.L69
 966              	.LVL106:
 967              	.L70:
 266:Dsp/widget/wgt_core/GenDsp.c ****     {
 267:Dsp/widget/wgt_core/GenDsp.c ****         if (f >= 0)
 268:Dsp/widget/wgt_core/GenDsp.c ****         {
 269:Dsp/widget/wgt_core/GenDsp.c ****             y--;
 270:Dsp/widget/wgt_core/GenDsp.c ****             ddF_y += 2;
 271:Dsp/widget/wgt_core/GenDsp.c ****             f += ddF_y;
 272:Dsp/widget/wgt_core/GenDsp.c ****         }
 273:Dsp/widget/wgt_core/GenDsp.c ****         x++;
 968              		.loc 1 273 9 is_stmt 1 view .LVU254
 969              		.loc 1 273 10 is_stmt 0 view .LVU255
 970 0038 0135     		adds	r5, r5, #1
 971              	.LVL107:
 972              		.loc 1 273 10 view .LVU256
 973 003a EDB2     		uxtb	r5, r5
 974              	.LVL108:
 274:Dsp/widget/wgt_core/GenDsp.c ****         ddF_x += 2;
 975              		.loc 1 274 9 is_stmt 1 view .LVU257
 976              		.loc 1 274 15 is_stmt 0 view .LVU258
 977 003c 0234     		adds	r4, r4, #2
 978              	.LVL109:
 979              		.loc 1 274 15 view .LVU259
 980 003e E3B2     		uxtb	r3, r4
 981 0040 5CB2     		sxtb	r4, r3
 982              	.LVL110:
 275:Dsp/widget/wgt_core/GenDsp.c ****         f += ddF_x;
 983              		.loc 1 275 9 is_stmt 1 view .LVU260
 984              		.loc 1 275 11 is_stmt 0 view .LVU261
 985 0042 9844     		add	r8, r8, r3
 986              	.LVL111:
ARM GAS  /tmp/ccErjHfS.s 			page 24


 987              		.loc 1 275 11 view .LVU262
 988 0044 4FFA88F8 		sxtb	r8, r8
 989              	.LVL112:
 276:Dsp/widget/wgt_core/GenDsp.c **** 
 277:Dsp/widget/wgt_core/GenDsp.c ****         GenDsp_Draw_Circle_Section(map, x, y, x0, y0, option);
 990              		.loc 1 277 9 is_stmt 1 view .LVU263
 991 0048 CDF804B0 		str	fp, [sp, #4]
 992 004c CDF800A0 		str	r10, [sp]
 993 0050 4B46     		mov	r3, r9
 994 0052 3A46     		mov	r2, r7
 995 0054 2946     		mov	r1, r5
 996 0056 0398     		ldr	r0, [sp, #12]
 997 0058 FFF7FEFF 		bl	GenDsp_Draw_Circle_Section
 998              	.LVL113:
 999              	.L69:
 265:Dsp/widget/wgt_core/GenDsp.c ****     {
 1000              		.loc 1 265 11 is_stmt 0 view .LVU264
 1001 005c BD42     		cmp	r5, r7
 1002 005e 0BD2     		bcs	.L73
 267:Dsp/widget/wgt_core/GenDsp.c ****         {
 1003              		.loc 1 267 9 is_stmt 1 view .LVU265
 267:Dsp/widget/wgt_core/GenDsp.c ****         {
 1004              		.loc 1 267 12 is_stmt 0 view .LVU266
 1005 0060 B8F1000F 		cmp	r8, #0
 1006 0064 E8DB     		blt	.L70
 269:Dsp/widget/wgt_core/GenDsp.c ****             ddF_y += 2;
 1007              		.loc 1 269 13 is_stmt 1 view .LVU267
 269:Dsp/widget/wgt_core/GenDsp.c ****             ddF_y += 2;
 1008              		.loc 1 269 14 is_stmt 0 view .LVU268
 1009 0066 013F     		subs	r7, r7, #1
 1010              	.LVL114:
 269:Dsp/widget/wgt_core/GenDsp.c ****             ddF_y += 2;
 1011              		.loc 1 269 14 view .LVU269
 1012 0068 FFB2     		uxtb	r7, r7
 1013              	.LVL115:
 270:Dsp/widget/wgt_core/GenDsp.c ****             f += ddF_y;
 1014              		.loc 1 270 13 is_stmt 1 view .LVU270
 270:Dsp/widget/wgt_core/GenDsp.c ****             f += ddF_y;
 1015              		.loc 1 270 19 is_stmt 0 view .LVU271
 1016 006a 0236     		adds	r6, r6, #2
 1017              	.LVL116:
 270:Dsp/widget/wgt_core/GenDsp.c ****             f += ddF_y;
 1018              		.loc 1 270 19 view .LVU272
 1019 006c F3B2     		uxtb	r3, r6
 1020 006e 5EB2     		sxtb	r6, r3
 1021              	.LVL117:
 271:Dsp/widget/wgt_core/GenDsp.c ****         }
 1022              		.loc 1 271 13 is_stmt 1 view .LVU273
 271:Dsp/widget/wgt_core/GenDsp.c ****         }
 1023              		.loc 1 271 15 is_stmt 0 view .LVU274
 1024 0070 9844     		add	r8, r8, r3
 1025              	.LVL118:
 271:Dsp/widget/wgt_core/GenDsp.c ****         }
 1026              		.loc 1 271 15 view .LVU275
 1027 0072 4FFA88F8 		sxtb	r8, r8
 1028              	.LVL119:
 271:Dsp/widget/wgt_core/GenDsp.c ****         }
ARM GAS  /tmp/ccErjHfS.s 			page 25


 1029              		.loc 1 271 15 view .LVU276
 1030 0076 DFE7     		b	.L70
 1031              	.L73:
 278:Dsp/widget/wgt_core/GenDsp.c ****     }
 279:Dsp/widget/wgt_core/GenDsp.c **** }
 1032              		.loc 1 279 1 view .LVU277
 1033 0078 05B0     		add	sp, sp, #20
 1034              	.LCFI17:
 1035              		.cfi_def_cfa_offset 36
 1036              		@ sp needed
 1037 007a BDE8F08F 		pop	{r4, r5, r6, r7, r8, r9, r10, fp, pc}
 1038              		.loc 1 279 1 view .LVU278
 1039              		.cfi_endproc
 1040              	.LFE11:
 1042              		.section	.text.GenDsp_DrawCircle,"ax",%progbits
 1043              		.align	1
 1044              		.syntax unified
 1045              		.thumb
 1046              		.thumb_func
 1047              		.fpu fpv4-sp-d16
 1049              	GenDsp_DrawCircle:
 1050              	.LVL120:
 1051              	.LFB12:
 280:Dsp/widget/wgt_core/GenDsp.c **** 
 281:Dsp/widget/wgt_core/GenDsp.c **** static void GenDsp_DrawCircle(uint8_t **map, uint8_t x0, uint8_t y0, uint8_t rad, uint8_t option)
 282:Dsp/widget/wgt_core/GenDsp.c **** {
 1052              		.loc 1 282 1 is_stmt 1 view -0
 1053              		.cfi_startproc
 1054              		@ args = 4, pretend = 0, frame = 0
 1055              		@ frame_needed = 0, uses_anonymous_args = 0
 1056              		.loc 1 282 1 is_stmt 0 view .LVU280
 1057 0000 10B5     		push	{r4, lr}
 1058              	.LCFI18:
 1059              		.cfi_def_cfa_offset 8
 1060              		.cfi_offset 4, -8
 1061              		.cfi_offset 14, -4
 1062 0002 82B0     		sub	sp, sp, #8
 1063              	.LCFI19:
 1064              		.cfi_def_cfa_offset 16
 283:Dsp/widget/wgt_core/GenDsp.c ****     /* check for bounding box */
 284:Dsp/widget/wgt_core/GenDsp.c **** #ifdef U8G2_WITH_INTERSECTION
 285:Dsp/widget/wgt_core/GenDsp.c ****     {
 286:Dsp/widget/wgt_core/GenDsp.c ****         if (u8g2_IsIntersection(u8g2, x0 - rad, y0 - rad, x0 + rad + 1, y0 + rad + 1) == 0)
 287:Dsp/widget/wgt_core/GenDsp.c ****             return;
 288:Dsp/widget/wgt_core/GenDsp.c ****     }
 289:Dsp/widget/wgt_core/GenDsp.c **** #endif /* U8G2_WITH_INTERSECTION */
 290:Dsp/widget/wgt_core/GenDsp.c **** 
 291:Dsp/widget/wgt_core/GenDsp.c ****     /* draw circle */
 292:Dsp/widget/wgt_core/GenDsp.c ****     GenDsp_Draw_Circle(map, x0, y0, rad, DRAW_ALL);
 1065              		.loc 1 292 5 is_stmt 1 view .LVU281
 1066 0004 0F24     		movs	r4, #15
 1067 0006 0094     		str	r4, [sp]
 1068 0008 FFF7FEFF 		bl	GenDsp_Draw_Circle
 1069              	.LVL121:
 293:Dsp/widget/wgt_core/GenDsp.c **** }
 1070              		.loc 1 293 1 is_stmt 0 view .LVU282
 1071 000c 02B0     		add	sp, sp, #8
ARM GAS  /tmp/ccErjHfS.s 			page 26


 1072              	.LCFI20:
 1073              		.cfi_def_cfa_offset 8
 1074              		@ sp needed
 1075 000e 10BD     		pop	{r4, pc}
 1076              		.loc 1 293 1 view .LVU283
 1077              		.cfi_endproc
 1078              	.LFE12:
 1080              		.section	.text.GenDsp_DrawRectangle,"ax",%progbits
 1081              		.align	1
 1082              		.syntax unified
 1083              		.thumb
 1084              		.thumb_func
 1085              		.fpu fpv4-sp-d16
 1087              	GenDsp_DrawRectangle:
 1088              	.LVL122:
 1089              	.LFB13:
 294:Dsp/widget/wgt_core/GenDsp.c **** 
 295:Dsp/widget/wgt_core/GenDsp.c **** static void GenDsp_DrawRectangle(uint8_t **map, uint8_t x, uint8_t y, uint8_t width, uint8_t height
 296:Dsp/widget/wgt_core/GenDsp.c **** {
 1090              		.loc 1 296 1 is_stmt 1 view -0
 1091              		.cfi_startproc
 1092              		@ args = 8, pretend = 0, frame = 0
 1093              		@ frame_needed = 0, uses_anonymous_args = 0
 1094              		.loc 1 296 1 is_stmt 0 view .LVU285
 1095 0000 2DE9F043 		push	{r4, r5, r6, r7, r8, r9, lr}
 1096              	.LCFI21:
 1097              		.cfi_def_cfa_offset 28
 1098              		.cfi_offset 4, -28
 1099              		.cfi_offset 5, -24
 1100              		.cfi_offset 6, -20
 1101              		.cfi_offset 7, -16
 1102              		.cfi_offset 8, -12
 1103              		.cfi_offset 9, -8
 1104              		.cfi_offset 14, -4
 1105 0004 83B0     		sub	sp, sp, #12
 1106              	.LCFI22:
 1107              		.cfi_def_cfa_offset 40
 1108 0006 8146     		mov	r9, r0
 1109 0008 0E46     		mov	r6, r1
 1110 000a 9046     		mov	r8, r2
 1111 000c 9DF82C70 		ldrb	r7, [sp, #44]	@ zero_extendqisi2
 297:Dsp/widget/wgt_core/GenDsp.c ****     uint8_t x_tmp = x + width - 1;
 1112              		.loc 1 297 5 is_stmt 1 view .LVU286
 1113              		.loc 1 297 23 is_stmt 0 view .LVU287
 1114 0010 CD18     		adds	r5, r1, r3
 1115 0012 EDB2     		uxtb	r5, r5
 1116              		.loc 1 297 13 view .LVU288
 1117 0014 013D     		subs	r5, r5, #1
 1118 0016 EDB2     		uxtb	r5, r5
 1119              	.LVL123:
 298:Dsp/widget/wgt_core/GenDsp.c ****     uint8_t y_tmp = y + height - 1;
 1120              		.loc 1 298 5 is_stmt 1 view .LVU289
 1121              		.loc 1 298 23 is_stmt 0 view .LVU290
 1122 0018 9DF82840 		ldrb	r4, [sp, #40]	@ zero_extendqisi2
 1123 001c 1444     		add	r4, r4, r2
 1124 001e E4B2     		uxtb	r4, r4
 1125              		.loc 1 298 13 view .LVU291
ARM GAS  /tmp/ccErjHfS.s 			page 27


 1126 0020 013C     		subs	r4, r4, #1
 1127 0022 E4B2     		uxtb	r4, r4
 1128              	.LVL124:
 299:Dsp/widget/wgt_core/GenDsp.c **** 
 300:Dsp/widget/wgt_core/GenDsp.c ****     GenDsp_DrawLen(map, x, y, x_tmp, y, line_size);
 1129              		.loc 1 300 5 is_stmt 1 view .LVU292
 1130 0024 0197     		str	r7, [sp, #4]
 1131 0026 0092     		str	r2, [sp]
 1132 0028 2B46     		mov	r3, r5
 1133              	.LVL125:
 1134              		.loc 1 300 5 is_stmt 0 view .LVU293
 1135 002a FFF7FEFF 		bl	GenDsp_DrawLen
 1136              	.LVL126:
 301:Dsp/widget/wgt_core/GenDsp.c ****     GenDsp_DrawLen(map, x, y, x, y_tmp, line_size);
 1137              		.loc 1 301 5 is_stmt 1 view .LVU294
 1138 002e 0197     		str	r7, [sp, #4]
 1139 0030 0094     		str	r4, [sp]
 1140 0032 3346     		mov	r3, r6
 1141 0034 4246     		mov	r2, r8
 1142 0036 3146     		mov	r1, r6
 1143 0038 4846     		mov	r0, r9
 1144 003a FFF7FEFF 		bl	GenDsp_DrawLen
 1145              	.LVL127:
 302:Dsp/widget/wgt_core/GenDsp.c **** 
 303:Dsp/widget/wgt_core/GenDsp.c ****     GenDsp_DrawLen(map, x_tmp, y, x_tmp, y_tmp, line_size);
 1146              		.loc 1 303 5 view .LVU295
 1147 003e 0197     		str	r7, [sp, #4]
 1148 0040 0094     		str	r4, [sp]
 1149 0042 2B46     		mov	r3, r5
 1150 0044 4246     		mov	r2, r8
 1151 0046 2946     		mov	r1, r5
 1152 0048 4846     		mov	r0, r9
 1153 004a FFF7FEFF 		bl	GenDsp_DrawLen
 1154              	.LVL128:
 304:Dsp/widget/wgt_core/GenDsp.c ****     GenDsp_DrawLen(map, x, y_tmp, x_tmp, y_tmp, line_size);
 1155              		.loc 1 304 5 view .LVU296
 1156 004e 0197     		str	r7, [sp, #4]
 1157 0050 0094     		str	r4, [sp]
 1158 0052 2B46     		mov	r3, r5
 1159 0054 2246     		mov	r2, r4
 1160 0056 3146     		mov	r1, r6
 1161 0058 4846     		mov	r0, r9
 1162 005a FFF7FEFF 		bl	GenDsp_DrawLen
 1163              	.LVL129:
 305:Dsp/widget/wgt_core/GenDsp.c **** }
 1164              		.loc 1 305 1 is_stmt 0 view .LVU297
 1165 005e 03B0     		add	sp, sp, #12
 1166              	.LCFI23:
 1167              		.cfi_def_cfa_offset 28
 1168              		@ sp needed
 1169 0060 BDE8F083 		pop	{r4, r5, r6, r7, r8, r9, pc}
 1170              		.loc 1 305 1 view .LVU298
 1171              		.cfi_endproc
 1172              	.LFE13:
 1174              		.section	.text.GenDsp_Draw_RadiusRectangle,"ax",%progbits
 1175              		.align	1
 1176              		.syntax unified
ARM GAS  /tmp/ccErjHfS.s 			page 28


 1177              		.thumb
 1178              		.thumb_func
 1179              		.fpu fpv4-sp-d16
 1181              	GenDsp_Draw_RadiusRectangle:
 1182              	.LVL130:
 1183              	.LFB14:
 306:Dsp/widget/wgt_core/GenDsp.c **** 
 307:Dsp/widget/wgt_core/GenDsp.c **** /* bug in this function */
 308:Dsp/widget/wgt_core/GenDsp.c **** static void GenDsp_Draw_RadiusRectangle(uint8_t **map, uint8_t x, uint8_t y, uint8_t width, uint8_t
 309:Dsp/widget/wgt_core/GenDsp.c **** {
 1184              		.loc 1 309 1 is_stmt 1 view -0
 1185              		.cfi_startproc
 1186              		@ args = 12, pretend = 0, frame = 16
 1187              		@ frame_needed = 0, uses_anonymous_args = 0
 1188              		.loc 1 309 1 is_stmt 0 view .LVU300
 1189 0000 2DE9F04F 		push	{r4, r5, r6, r7, r8, r9, r10, fp, lr}
 1190              	.LCFI24:
 1191              		.cfi_def_cfa_offset 36
 1192              		.cfi_offset 4, -36
 1193              		.cfi_offset 5, -32
 1194              		.cfi_offset 6, -28
 1195              		.cfi_offset 7, -24
 1196              		.cfi_offset 8, -20
 1197              		.cfi_offset 9, -16
 1198              		.cfi_offset 10, -12
 1199              		.cfi_offset 11, -8
 1200              		.cfi_offset 14, -4
 1201 0004 87B0     		sub	sp, sp, #28
 1202              	.LCFI25:
 1203              		.cfi_def_cfa_offset 64
 1204 0006 0590     		str	r0, [sp, #20]
 1205 0008 8B46     		mov	fp, r1
 1206 000a 9246     		mov	r10, r2
 1207 000c 9DF84460 		ldrb	r6, [sp, #68]	@ zero_extendqisi2
 1208 0010 9DF84890 		ldrb	r9, [sp, #72]	@ zero_extendqisi2
 310:Dsp/widget/wgt_core/GenDsp.c ****     uint8_t x_start = x + radius;
 1209              		.loc 1 310 5 is_stmt 1 view .LVU301
 1210              		.loc 1 310 13 is_stmt 0 view .LVU302
 1211 0014 01EB0608 		add	r8, r1, r6
 1212 0018 5FFA88F8 		uxtb	r8, r8
 1213              	.LVL131:
 311:Dsp/widget/wgt_core/GenDsp.c ****     uint8_t y_start = y + radius;
 1214              		.loc 1 311 5 is_stmt 1 view .LVU303
 1215              		.loc 1 311 13 is_stmt 0 view .LVU304
 1216 001c B218     		adds	r2, r6, r2
 1217              	.LVL132:
 1218              		.loc 1 311 13 view .LVU305
 1219 001e D7B2     		uxtb	r7, r2
 1220              	.LVL133:
 312:Dsp/widget/wgt_core/GenDsp.c **** 
 313:Dsp/widget/wgt_core/GenDsp.c ****     uint8_t x_tmp = x + width - 1 - radius;
 1221              		.loc 1 313 5 is_stmt 1 view .LVU306
 1222              		.loc 1 313 23 is_stmt 0 view .LVU307
 1223 0020 0B44     		add	r3, r3, r1
 1224              	.LVL134:
 1225              		.loc 1 313 23 view .LVU308
 1226 0022 DBB2     		uxtb	r3, r3
ARM GAS  /tmp/ccErjHfS.s 			page 29


 1227              		.loc 1 313 35 view .LVU309
 1228 0024 9A1B     		subs	r2, r3, r6
 1229 0026 D2B2     		uxtb	r2, r2
 1230              		.loc 1 313 13 view .LVU310
 1231 0028 013A     		subs	r2, r2, #1
 1232 002a D2B2     		uxtb	r2, r2
 1233 002c 0392     		str	r2, [sp, #12]
 1234              	.LVL135:
 314:Dsp/widget/wgt_core/GenDsp.c ****     uint8_t y_tmp = y + height - 1 - radius;
 1235              		.loc 1 314 5 is_stmt 1 view .LVU311
 1236              		.loc 1 314 23 is_stmt 0 view .LVU312
 1237 002e 9DF84040 		ldrb	r4, [sp, #64]	@ zero_extendqisi2
 1238 0032 5444     		add	r4, r4, r10
 1239 0034 E4B2     		uxtb	r4, r4
 1240              		.loc 1 314 36 view .LVU313
 1241 0036 A51B     		subs	r5, r4, r6
 1242 0038 EDB2     		uxtb	r5, r5
 1243              		.loc 1 314 13 view .LVU314
 1244 003a 013D     		subs	r5, r5, #1
 1245 003c EDB2     		uxtb	r5, r5
 1246              	.LVL136:
 315:Dsp/widget/wgt_core/GenDsp.c **** 
 316:Dsp/widget/wgt_core/GenDsp.c ****     uint8_t x_tmp_1 = x + width - 1;
 1247              		.loc 1 316 5 is_stmt 1 view .LVU315
 1248              		.loc 1 316 13 is_stmt 0 view .LVU316
 1249 003e 013B     		subs	r3, r3, #1
 1250 0040 DBB2     		uxtb	r3, r3
 1251 0042 0493     		str	r3, [sp, #16]
 1252              	.LVL137:
 317:Dsp/widget/wgt_core/GenDsp.c ****     uint8_t y_tmp_1 = y + height - 1;
 1253              		.loc 1 317 5 is_stmt 1 view .LVU317
 1254              		.loc 1 317 13 is_stmt 0 view .LVU318
 1255 0044 013C     		subs	r4, r4, #1
 1256 0046 E4B2     		uxtb	r4, r4
 1257              	.LVL138:
 318:Dsp/widget/wgt_core/GenDsp.c **** 
 319:Dsp/widget/wgt_core/GenDsp.c ****     /* fixed */
 320:Dsp/widget/wgt_core/GenDsp.c ****     GenDsp_Draw_Circle(map, x_start, y_tmp, radius, DRAW_LOWER_LEFT);
 1258              		.loc 1 320 5 is_stmt 1 view .LVU319
 1259 0048 0423     		movs	r3, #4
 1260 004a 0093     		str	r3, [sp]
 1261 004c 3346     		mov	r3, r6
 1262 004e 2A46     		mov	r2, r5
 1263 0050 4146     		mov	r1, r8
 1264              	.LVL139:
 1265              		.loc 1 320 5 is_stmt 0 view .LVU320
 1266 0052 FFF7FEFF 		bl	GenDsp_Draw_Circle
 1267              	.LVL140:
 321:Dsp/widget/wgt_core/GenDsp.c ****     GenDsp_DrawLen(map, x, y_start, x, y_tmp, line_size);
 1268              		.loc 1 321 5 is_stmt 1 view .LVU321
 1269 0056 CDF80490 		str	r9, [sp, #4]
 1270 005a 0095     		str	r5, [sp]
 1271 005c 5B46     		mov	r3, fp
 1272 005e 3A46     		mov	r2, r7
 1273 0060 5946     		mov	r1, fp
 1274 0062 DDF814B0 		ldr	fp, [sp, #20]
 1275 0066 5846     		mov	r0, fp
ARM GAS  /tmp/ccErjHfS.s 			page 30


 1276 0068 FFF7FEFF 		bl	GenDsp_DrawLen
 1277              	.LVL141:
 322:Dsp/widget/wgt_core/GenDsp.c **** 
 323:Dsp/widget/wgt_core/GenDsp.c ****     GenDsp_Draw_Circle(map, x_tmp, y_tmp, radius, DRAW_LOWER_RIGHT);
 1278              		.loc 1 323 5 view .LVU322
 1279 006c 0823     		movs	r3, #8
 1280 006e 0093     		str	r3, [sp]
 1281 0070 3346     		mov	r3, r6
 1282 0072 2A46     		mov	r2, r5
 1283 0074 0399     		ldr	r1, [sp, #12]
 1284 0076 5846     		mov	r0, fp
 1285 0078 FFF7FEFF 		bl	GenDsp_Draw_Circle
 1286              	.LVL142:
 324:Dsp/widget/wgt_core/GenDsp.c ****     GenDsp_DrawLen(map, x_start, y_tmp_1, x_tmp, y_tmp_1, line_size);
 1287              		.loc 1 324 5 view .LVU323
 1288 007c CDF80490 		str	r9, [sp, #4]
 1289 0080 0094     		str	r4, [sp]
 1290 0082 039B     		ldr	r3, [sp, #12]
 1291 0084 2246     		mov	r2, r4
 1292 0086 4146     		mov	r1, r8
 1293 0088 5846     		mov	r0, fp
 1294 008a FFF7FEFF 		bl	GenDsp_DrawLen
 1295              	.LVL143:
 325:Dsp/widget/wgt_core/GenDsp.c **** 
 326:Dsp/widget/wgt_core/GenDsp.c ****     GenDsp_Draw_Circle(map, x_start, y_start, radius, DRAW_UPPER_LEFT);
 1296              		.loc 1 326 5 view .LVU324
 1297 008e 0223     		movs	r3, #2
 1298 0090 0093     		str	r3, [sp]
 1299 0092 3346     		mov	r3, r6
 1300 0094 3A46     		mov	r2, r7
 1301 0096 4146     		mov	r1, r8
 1302 0098 5C46     		mov	r4, fp
 1303              	.LVL144:
 1304              		.loc 1 326 5 is_stmt 0 view .LVU325
 1305 009a 5846     		mov	r0, fp
 1306 009c FFF7FEFF 		bl	GenDsp_Draw_Circle
 1307              	.LVL145:
 327:Dsp/widget/wgt_core/GenDsp.c ****     GenDsp_DrawLen(map, x_start, y, x_tmp, y, line_size);
 1308              		.loc 1 327 5 is_stmt 1 view .LVU326
 1309 00a0 CDF80490 		str	r9, [sp, #4]
 1310 00a4 CDF800A0 		str	r10, [sp]
 1311 00a8 DDF80CB0 		ldr	fp, [sp, #12]
 1312 00ac 5B46     		mov	r3, fp
 1313 00ae 5246     		mov	r2, r10
 1314 00b0 4146     		mov	r1, r8
 1315 00b2 2046     		mov	r0, r4
 1316 00b4 FFF7FEFF 		bl	GenDsp_DrawLen
 1317              	.LVL146:
 328:Dsp/widget/wgt_core/GenDsp.c **** 
 329:Dsp/widget/wgt_core/GenDsp.c ****     GenDsp_Draw_Circle(map, x_tmp, y_start, radius, DRAW_UPPER_RIGHT);
 1318              		.loc 1 329 5 view .LVU327
 1319 00b8 0123     		movs	r3, #1
 1320 00ba 0093     		str	r3, [sp]
 1321 00bc 3346     		mov	r3, r6
 1322 00be 3A46     		mov	r2, r7
 1323 00c0 5946     		mov	r1, fp
 1324 00c2 2046     		mov	r0, r4
ARM GAS  /tmp/ccErjHfS.s 			page 31


 1325 00c4 FFF7FEFF 		bl	GenDsp_Draw_Circle
 1326              	.LVL147:
 330:Dsp/widget/wgt_core/GenDsp.c ****     GenDsp_DrawLen(map, x_tmp_1, y_start, x_tmp_1, y_tmp, line_size);
 1327              		.loc 1 330 5 view .LVU328
 1328 00c8 CDF80490 		str	r9, [sp, #4]
 1329 00cc 0095     		str	r5, [sp]
 1330 00ce 0499     		ldr	r1, [sp, #16]
 1331 00d0 0B46     		mov	r3, r1
 1332 00d2 3A46     		mov	r2, r7
 1333 00d4 2046     		mov	r0, r4
 1334 00d6 FFF7FEFF 		bl	GenDsp_DrawLen
 1335              	.LVL148:
 331:Dsp/widget/wgt_core/GenDsp.c **** }
 1336              		.loc 1 331 1 is_stmt 0 view .LVU329
 1337 00da 07B0     		add	sp, sp, #28
 1338              	.LCFI26:
 1339              		.cfi_def_cfa_offset 36
 1340              		@ sp needed
 1341 00dc BDE8F08F 		pop	{r4, r5, r6, r7, r8, r9, r10, fp, pc}
 1342              		.loc 1 331 1 view .LVU330
 1343              		.cfi_endproc
 1344              	.LFE14:
 1346              		.section	.text.GenDsp_FillCircle,"ax",%progbits
 1347              		.align	1
 1348              		.syntax unified
 1349              		.thumb
 1350              		.thumb_func
 1351              		.fpu fpv4-sp-d16
 1353              	GenDsp_FillCircle:
 1354              	.LVL149:
 1355              	.LFB15:
 332:Dsp/widget/wgt_core/GenDsp.c **** 
 333:Dsp/widget/wgt_core/GenDsp.c **** static void GenDsp_FillCircle(uint8_t **map, uint8_t x0, uint8_t y0, uint8_t radius)
 334:Dsp/widget/wgt_core/GenDsp.c **** {
 1356              		.loc 1 334 1 is_stmt 1 view -0
 1357              		.cfi_startproc
 1358              		@ args = 0, pretend = 0, frame = 0
 1359              		@ frame_needed = 0, uses_anonymous_args = 0
 1360              		.loc 1 334 1 is_stmt 0 view .LVU332
 1361 0000 2DE9F04F 		push	{r4, r5, r6, r7, r8, r9, r10, fp, lr}
 1362              	.LCFI27:
 1363              		.cfi_def_cfa_offset 36
 1364              		.cfi_offset 4, -36
 1365              		.cfi_offset 5, -32
 1366              		.cfi_offset 6, -28
 1367              		.cfi_offset 7, -24
 1368              		.cfi_offset 8, -20
 1369              		.cfi_offset 9, -16
 1370              		.cfi_offset 10, -12
 1371              		.cfi_offset 11, -8
 1372              		.cfi_offset 14, -4
 1373 0004 83B0     		sub	sp, sp, #12
 1374              	.LCFI28:
 1375              		.cfi_def_cfa_offset 48
 1376 0006 8346     		mov	fp, r0
 1377 0008 8946     		mov	r9, r1
 1378 000a 9246     		mov	r10, r2
ARM GAS  /tmp/ccErjHfS.s 			page 32


 1379 000c 1A46     		mov	r2, r3
 1380              	.LVL150:
 335:Dsp/widget/wgt_core/GenDsp.c ****     int32_t f;
 1381              		.loc 1 335 5 is_stmt 1 view .LVU333
 336:Dsp/widget/wgt_core/GenDsp.c ****     int32_t ddF_x;
 1382              		.loc 1 336 5 view .LVU334
 337:Dsp/widget/wgt_core/GenDsp.c ****     int32_t ddF_y;
 1383              		.loc 1 337 5 view .LVU335
 338:Dsp/widget/wgt_core/GenDsp.c ****     uint32_t x;
 1384              		.loc 1 338 5 view .LVU336
 339:Dsp/widget/wgt_core/GenDsp.c ****     uint32_t y;
 1385              		.loc 1 339 5 view .LVU337
 340:Dsp/widget/wgt_core/GenDsp.c **** 
 341:Dsp/widget/wgt_core/GenDsp.c ****     f = 1;
 1386              		.loc 1 341 5 view .LVU338
 342:Dsp/widget/wgt_core/GenDsp.c ****     f -= radius;
 1387              		.loc 1 342 5 view .LVU339
 1388              		.loc 1 342 7 is_stmt 0 view .LVU340
 1389 000e C3F10104 		rsb	r4, r3, #1
 1390              	.LVL151:
 343:Dsp/widget/wgt_core/GenDsp.c ****     ddF_x = 1;
 1391              		.loc 1 343 5 is_stmt 1 view .LVU341
 344:Dsp/widget/wgt_core/GenDsp.c ****     ddF_y = 0;
 1392              		.loc 1 344 5 view .LVU342
 345:Dsp/widget/wgt_core/GenDsp.c ****     ddF_y -= radius;
 1393              		.loc 1 345 5 view .LVU343
 346:Dsp/widget/wgt_core/GenDsp.c ****     ddF_y *= 2;
 1394              		.loc 1 346 5 view .LVU344
 1395              		.loc 1 346 11 is_stmt 0 view .LVU345
 1396 0012 C3EBC373 		rsb	r3, r3, r3, lsl #31
 1397              	.LVL152:
 1398              		.loc 1 346 11 view .LVU346
 1399 0016 4FEA4308 		lsl	r8, r3, #1
 1400              	.LVL153:
 347:Dsp/widget/wgt_core/GenDsp.c ****     x = 0;
 1401              		.loc 1 347 5 is_stmt 1 view .LVU347
 348:Dsp/widget/wgt_core/GenDsp.c ****     y = radius;
 1402              		.loc 1 348 5 view .LVU348
 1403              		.loc 1 348 7 is_stmt 0 view .LVU349
 1404 001a 1646     		mov	r6, r2
 1405              	.LVL154:
 349:Dsp/widget/wgt_core/GenDsp.c **** 
 350:Dsp/widget/wgt_core/GenDsp.c ****     GenDsp_Draw_Circle_Section(map, x, y, x0, y0, DRAW_ALL);
 1406              		.loc 1 350 5 is_stmt 1 view .LVU350
 1407 001c 0F23     		movs	r3, #15
 1408 001e 0193     		str	r3, [sp, #4]
 1409 0020 CDF800A0 		str	r10, [sp]
 1410 0024 0B46     		mov	r3, r1
 1411 0026 0021     		movs	r1, #0
 1412              	.LVL155:
 1413              		.loc 1 350 5 is_stmt 0 view .LVU351
 1414 0028 FFF7FEFF 		bl	GenDsp_Draw_Circle_Section
 1415              	.LVL156:
 351:Dsp/widget/wgt_core/GenDsp.c **** 
 352:Dsp/widget/wgt_core/GenDsp.c ****     while (x < y)
 1416              		.loc 1 352 5 is_stmt 1 view .LVU352
 347:Dsp/widget/wgt_core/GenDsp.c ****     y = radius;
ARM GAS  /tmp/ccErjHfS.s 			page 33


 1417              		.loc 1 347 7 is_stmt 0 view .LVU353
 1418 002c 0025     		movs	r5, #0
 343:Dsp/widget/wgt_core/GenDsp.c ****     ddF_y = 0;
 1419              		.loc 1 343 11 view .LVU354
 1420 002e 0127     		movs	r7, #1
 1421              		.loc 1 352 11 view .LVU355
 1422 0030 0CE0     		b	.L81
 1423              	.LVL157:
 1424              	.L82:
 353:Dsp/widget/wgt_core/GenDsp.c ****     {
 354:Dsp/widget/wgt_core/GenDsp.c ****         if (f >= 0)
 355:Dsp/widget/wgt_core/GenDsp.c ****         {
 356:Dsp/widget/wgt_core/GenDsp.c ****             y--;
 357:Dsp/widget/wgt_core/GenDsp.c ****             ddF_y += 2;
 358:Dsp/widget/wgt_core/GenDsp.c ****             f += ddF_y;
 359:Dsp/widget/wgt_core/GenDsp.c ****         }
 360:Dsp/widget/wgt_core/GenDsp.c ****         x++;
 1425              		.loc 1 360 9 is_stmt 1 view .LVU356
 1426              		.loc 1 360 10 is_stmt 0 view .LVU357
 1427 0032 0135     		adds	r5, r5, #1
 1428              	.LVL158:
 361:Dsp/widget/wgt_core/GenDsp.c ****         ddF_x += 2;
 1429              		.loc 1 361 9 is_stmt 1 view .LVU358
 1430              		.loc 1 361 15 is_stmt 0 view .LVU359
 1431 0034 0237     		adds	r7, r7, #2
 1432              	.LVL159:
 362:Dsp/widget/wgt_core/GenDsp.c ****         f += ddF_x;
 1433              		.loc 1 362 9 is_stmt 1 view .LVU360
 1434              		.loc 1 362 11 is_stmt 0 view .LVU361
 1435 0036 3C44     		add	r4, r4, r7
 1436              	.LVL160:
 363:Dsp/widget/wgt_core/GenDsp.c **** 
 364:Dsp/widget/wgt_core/GenDsp.c ****         GenDsp_Draw_Circle_Section(map, x, y, x0, y0, DRAW_ALL);
 1437              		.loc 1 364 9 is_stmt 1 view .LVU362
 1438 0038 0F23     		movs	r3, #15
 1439 003a 0193     		str	r3, [sp, #4]
 1440 003c CDF800A0 		str	r10, [sp]
 1441 0040 4B46     		mov	r3, r9
 1442 0042 F2B2     		uxtb	r2, r6
 1443 0044 E9B2     		uxtb	r1, r5
 1444 0046 5846     		mov	r0, fp
 1445 0048 FFF7FEFF 		bl	GenDsp_Draw_Circle_Section
 1446              	.LVL161:
 1447              	.L81:
 352:Dsp/widget/wgt_core/GenDsp.c ****     {
 1448              		.loc 1 352 11 is_stmt 0 view .LVU363
 1449 004c B542     		cmp	r5, r6
 1450 004e 06D2     		bcs	.L85
 354:Dsp/widget/wgt_core/GenDsp.c ****         {
 1451              		.loc 1 354 9 is_stmt 1 view .LVU364
 354:Dsp/widget/wgt_core/GenDsp.c ****         {
 1452              		.loc 1 354 12 is_stmt 0 view .LVU365
 1453 0050 002C     		cmp	r4, #0
 1454 0052 EEDB     		blt	.L82
 356:Dsp/widget/wgt_core/GenDsp.c ****             ddF_y += 2;
 1455              		.loc 1 356 13 is_stmt 1 view .LVU366
 356:Dsp/widget/wgt_core/GenDsp.c ****             ddF_y += 2;
ARM GAS  /tmp/ccErjHfS.s 			page 34


 1456              		.loc 1 356 14 is_stmt 0 view .LVU367
 1457 0054 013E     		subs	r6, r6, #1
 1458              	.LVL162:
 357:Dsp/widget/wgt_core/GenDsp.c ****             f += ddF_y;
 1459              		.loc 1 357 13 is_stmt 1 view .LVU368
 357:Dsp/widget/wgt_core/GenDsp.c ****             f += ddF_y;
 1460              		.loc 1 357 19 is_stmt 0 view .LVU369
 1461 0056 08F10208 		add	r8, r8, #2
 1462              	.LVL163:
 358:Dsp/widget/wgt_core/GenDsp.c ****         }
 1463              		.loc 1 358 13 is_stmt 1 view .LVU370
 358:Dsp/widget/wgt_core/GenDsp.c ****         }
 1464              		.loc 1 358 15 is_stmt 0 view .LVU371
 1465 005a 4444     		add	r4, r4, r8
 1466              	.LVL164:
 358:Dsp/widget/wgt_core/GenDsp.c ****         }
 1467              		.loc 1 358 15 view .LVU372
 1468 005c E9E7     		b	.L82
 1469              	.L85:
 365:Dsp/widget/wgt_core/GenDsp.c ****     }
 366:Dsp/widget/wgt_core/GenDsp.c **** }
 1470              		.loc 1 366 1 view .LVU373
 1471 005e 03B0     		add	sp, sp, #12
 1472              	.LCFI29:
 1473              		.cfi_def_cfa_offset 36
 1474              		@ sp needed
 1475 0060 BDE8F08F 		pop	{r4, r5, r6, r7, r8, r9, r10, fp, pc}
 1476              		.loc 1 366 1 view .LVU374
 1477              		.cfi_endproc
 1478              	.LFE15:
 1480              		.section	.text.GenDsp_FillRectangle,"ax",%progbits
 1481              		.align	1
 1482              		.syntax unified
 1483              		.thumb
 1484              		.thumb_func
 1485              		.fpu fpv4-sp-d16
 1487              	GenDsp_FillRectangle:
 1488              	.LVL165:
 1489              	.LFB16:
 367:Dsp/widget/wgt_core/GenDsp.c **** 
 368:Dsp/widget/wgt_core/GenDsp.c **** static void GenDsp_FillRectangle(uint8_t **map, uint8_t x, uint8_t y, uint8_t width, uint8_t height
 369:Dsp/widget/wgt_core/GenDsp.c **** {
 1490              		.loc 1 369 1 is_stmt 1 view -0
 1491              		.cfi_startproc
 1492              		@ args = 4, pretend = 0, frame = 0
 1493              		@ frame_needed = 0, uses_anonymous_args = 0
 1494              		.loc 1 369 1 is_stmt 0 view .LVU376
 1495 0000 2DE9F047 		push	{r4, r5, r6, r7, r8, r9, r10, lr}
 1496              	.LCFI30:
 1497              		.cfi_def_cfa_offset 32
 1498              		.cfi_offset 4, -32
 1499              		.cfi_offset 5, -28
 1500              		.cfi_offset 6, -24
 1501              		.cfi_offset 7, -20
 1502              		.cfi_offset 8, -16
 1503              		.cfi_offset 9, -12
 1504              		.cfi_offset 10, -8
ARM GAS  /tmp/ccErjHfS.s 			page 35


 1505              		.cfi_offset 14, -4
 1506 0004 8046     		mov	r8, r0
 1507 0006 8946     		mov	r9, r1
 1508 0008 1546     		mov	r5, r2
 1509 000a 9A46     		mov	r10, r3
 1510 000c 9DF82070 		ldrb	r7, [sp, #32]	@ zero_extendqisi2
 370:Dsp/widget/wgt_core/GenDsp.c ****     for (uint8_t x_tmp = x; x_tmp < x + width; x_tmp++)
 1511              		.loc 1 370 5 is_stmt 1 view .LVU377
 1512              	.LBB10:
 1513              		.loc 1 370 10 view .LVU378
 1514              	.LVL166:
 1515              		.loc 1 370 18 is_stmt 0 view .LVU379
 1516 0010 0E46     		mov	r6, r1
 1517              		.loc 1 370 5 view .LVU380
 1518 0012 02E0     		b	.L87
 1519              	.LVL167:
 1520              	.L93:
 1521              		.loc 1 370 53 discriminator 2 view .LVU381
 1522 0014 0136     		adds	r6, r6, #1
 1523              	.LVL168:
 1524              		.loc 1 370 53 discriminator 2 view .LVU382
 1525 0016 F6B2     		uxtb	r6, r6
 1526              	.LVL169:
 1527              		.loc 1 370 53 discriminator 2 view .LVU383
 1528 0018 2546     		mov	r5, r4
 1529              	.LVL170:
 1530              	.L87:
 1531              		.loc 1 370 39 discriminator 1 view .LVU384
 1532 001a 09EB0A03 		add	r3, r9, r10
 1533              		.loc 1 370 5 discriminator 1 view .LVU385
 1534 001e 9E42     		cmp	r6, r3
 1535 0020 0CDA     		bge	.L92
 1536 0022 2C46     		mov	r4, r5
 1537              	.LVL171:
 1538              	.L89:
 1539              	.LBB11:
 371:Dsp/widget/wgt_core/GenDsp.c ****     {
 372:Dsp/widget/wgt_core/GenDsp.c ****         for (uint8_t y_tmp = y; y_tmp < y + height; y++)
 1540              		.loc 1 372 43 discriminator 1 view .LVU386
 1541 0024 E319     		adds	r3, r4, r7
 1542              		.loc 1 372 9 discriminator 1 view .LVU387
 1543 0026 9D42     		cmp	r5, r3
 1544 0028 F4DA     		bge	.L93
 373:Dsp/widget/wgt_core/GenDsp.c ****         {
 374:Dsp/widget/wgt_core/GenDsp.c ****             GenDsp_DrawPoint(map, x_tmp, y_tmp, true);
 1545              		.loc 1 374 13 is_stmt 1 discriminator 3 view .LVU388
 1546 002a 0123     		movs	r3, #1
 1547 002c 2A46     		mov	r2, r5
 1548 002e 3146     		mov	r1, r6
 1549 0030 4046     		mov	r0, r8
 1550 0032 FFF7FEFF 		bl	GenDsp_DrawPoint
 1551              	.LVL172:
 372:Dsp/widget/wgt_core/GenDsp.c ****         {
 1552              		.loc 1 372 54 is_stmt 0 discriminator 3 view .LVU389
 1553 0036 0134     		adds	r4, r4, #1
 1554              	.LVL173:
 372:Dsp/widget/wgt_core/GenDsp.c ****         {
ARM GAS  /tmp/ccErjHfS.s 			page 36


 1555              		.loc 1 372 54 discriminator 3 view .LVU390
 1556 0038 E4B2     		uxtb	r4, r4
 1557              	.LVL174:
 372:Dsp/widget/wgt_core/GenDsp.c ****         {
 1558              		.loc 1 372 54 discriminator 3 view .LVU391
 1559 003a F3E7     		b	.L89
 1560              	.LVL175:
 1561              	.L92:
 372:Dsp/widget/wgt_core/GenDsp.c ****         {
 1562              		.loc 1 372 54 discriminator 3 view .LVU392
 1563              	.LBE11:
 1564              	.LBE10:
 375:Dsp/widget/wgt_core/GenDsp.c ****         }
 376:Dsp/widget/wgt_core/GenDsp.c ****     }
 377:Dsp/widget/wgt_core/GenDsp.c **** }
 1565              		.loc 1 377 1 view .LVU393
 1566 003c BDE8F087 		pop	{r4, r5, r6, r7, r8, r9, r10, pc}
 1567              		.loc 1 377 1 view .LVU394
 1568              		.cfi_endproc
 1569              	.LFE16:
 1571              		.section	.text.GenDsp_Fill_RadiusRectangle,"ax",%progbits
 1572              		.align	1
 1573              		.syntax unified
 1574              		.thumb
 1575              		.thumb_func
 1576              		.fpu fpv4-sp-d16
 1578              	GenDsp_Fill_RadiusRectangle:
 1579              	.LVL176:
 1580              	.LFB17:
 378:Dsp/widget/wgt_core/GenDsp.c **** 
 379:Dsp/widget/wgt_core/GenDsp.c **** static void GenDsp_Fill_RadiusRectangle(uint8_t **map, uint8_t x, uint8_t y, uint8_t width, uint8_t
 380:Dsp/widget/wgt_core/GenDsp.c **** {
 1581              		.loc 1 380 1 is_stmt 1 view -0
 1582              		.cfi_startproc
 1583              		@ args = 8, pretend = 0, frame = 0
 1584              		@ frame_needed = 0, uses_anonymous_args = 0
 1585              		.loc 1 380 1 is_stmt 0 view .LVU396
 1586 0000 2DE9F04F 		push	{r4, r5, r6, r7, r8, r9, r10, fp, lr}
 1587              	.LCFI31:
 1588              		.cfi_def_cfa_offset 36
 1589              		.cfi_offset 4, -36
 1590              		.cfi_offset 5, -32
 1591              		.cfi_offset 6, -28
 1592              		.cfi_offset 7, -24
 1593              		.cfi_offset 8, -20
 1594              		.cfi_offset 9, -16
 1595              		.cfi_offset 10, -12
 1596              		.cfi_offset 11, -8
 1597              		.cfi_offset 14, -4
 1598 0004 85B0     		sub	sp, sp, #20
 1599              	.LCFI32:
 1600              		.cfi_def_cfa_offset 56
 1601 0006 8046     		mov	r8, r0
 1602 0008 8946     		mov	r9, r1
 1603 000a 9246     		mov	r10, r2
 1604 000c 1E46     		mov	r6, r3
 1605 000e 9DF83870 		ldrb	r7, [sp, #56]	@ zero_extendqisi2
ARM GAS  /tmp/ccErjHfS.s 			page 37


 1606 0012 9DF83CB0 		ldrb	fp, [sp, #60]	@ zero_extendqisi2
 381:Dsp/widget/wgt_core/GenDsp.c ****     uint8_t diff = 0;
 1607              		.loc 1 381 5 is_stmt 1 view .LVU397
 1608              	.LVL177:
 382:Dsp/widget/wgt_core/GenDsp.c ****     uint8_t offset = 0;
 1609              		.loc 1 382 5 view .LVU398
 383:Dsp/widget/wgt_core/GenDsp.c **** 
 384:Dsp/widget/wgt_core/GenDsp.c ****     if (width >= height)
 1610              		.loc 1 384 5 view .LVU399
 1611              		.loc 1 384 8 is_stmt 0 view .LVU400
 1612 0016 BB42     		cmp	r3, r7
 1613 0018 1DD3     		bcc	.L98
 385:Dsp/widget/wgt_core/GenDsp.c ****     {
 386:Dsp/widget/wgt_core/GenDsp.c ****         diff = height;
 1614              		.loc 1 386 14 view .LVU401
 1615 001a 3D46     		mov	r5, r7
 1616              	.L95:
 1617 001c 0024     		movs	r4, #0
 1618              	.LVL178:
 1619              	.L96:
 387:Dsp/widget/wgt_core/GenDsp.c ****     }
 388:Dsp/widget/wgt_core/GenDsp.c ****     else
 389:Dsp/widget/wgt_core/GenDsp.c ****         diff = width;
 390:Dsp/widget/wgt_core/GenDsp.c **** 
 391:Dsp/widget/wgt_core/GenDsp.c ****     while (diff)
 1620              		.loc 1 391 11 view .LVU402
 1621 001e E5B1     		cbz	r5, .L100
 392:Dsp/widget/wgt_core/GenDsp.c ****     {
 393:Dsp/widget/wgt_core/GenDsp.c ****         GenDsp_Draw_RadiusRectangle(map, x + offset, y + offset, width - (2 * offset), height - (2 
 1622              		.loc 1 393 9 is_stmt 1 view .LVU403
 1623 0020 6000     		lsls	r0, r4, #1
 1624 0022 C0B2     		uxtb	r0, r0
 1625 0024 331A     		subs	r3, r6, r0
 1626 0026 04EB0A02 		add	r2, r4, r10
 1627 002a 04EB0901 		add	r1, r4, r9
 1628 002e 4FF0010C 		mov	ip, #1
 1629 0032 CDF808C0 		str	ip, [sp, #8]
 1630 0036 CDF804B0 		str	fp, [sp, #4]
 1631 003a 381A     		subs	r0, r7, r0
 1632 003c C0B2     		uxtb	r0, r0
 1633 003e 0090     		str	r0, [sp]
 1634 0040 DBB2     		uxtb	r3, r3
 1635 0042 D2B2     		uxtb	r2, r2
 1636 0044 C9B2     		uxtb	r1, r1
 1637 0046 4046     		mov	r0, r8
 1638 0048 FFF7FEFF 		bl	GenDsp_Draw_RadiusRectangle
 1639              	.LVL179:
 394:Dsp/widget/wgt_core/GenDsp.c **** 
 395:Dsp/widget/wgt_core/GenDsp.c ****         diff--;
 1640              		.loc 1 395 9 view .LVU404
 1641              		.loc 1 395 13 is_stmt 0 view .LVU405
 1642 004c 013D     		subs	r5, r5, #1
 1643              	.LVL180:
 1644              		.loc 1 395 13 view .LVU406
 1645 004e EDB2     		uxtb	r5, r5
 1646              	.LVL181:
 396:Dsp/widget/wgt_core/GenDsp.c ****         offset++;
ARM GAS  /tmp/ccErjHfS.s 			page 38


 1647              		.loc 1 396 9 is_stmt 1 view .LVU407
 1648              		.loc 1 396 15 is_stmt 0 view .LVU408
 1649 0050 0134     		adds	r4, r4, #1
 1650              	.LVL182:
 1651              		.loc 1 396 15 view .LVU409
 1652 0052 E4B2     		uxtb	r4, r4
 1653              	.LVL183:
 1654              		.loc 1 396 15 view .LVU410
 1655 0054 E3E7     		b	.L96
 1656              	.LVL184:
 1657              	.L98:
 389:Dsp/widget/wgt_core/GenDsp.c **** 
 1658              		.loc 1 389 14 view .LVU411
 1659 0056 1D46     		mov	r5, r3
 1660 0058 E0E7     		b	.L95
 1661              	.LVL185:
 1662              	.L100:
 397:Dsp/widget/wgt_core/GenDsp.c ****     }
 398:Dsp/widget/wgt_core/GenDsp.c **** }
 1663              		.loc 1 398 1 view .LVU412
 1664 005a 05B0     		add	sp, sp, #20
 1665              	.LCFI33:
 1666              		.cfi_def_cfa_offset 36
 1667              		@ sp needed
 1668 005c BDE8F08F 		pop	{r4, r5, r6, r7, r8, r9, r10, fp, pc}
 1669              		.loc 1 398 1 view .LVU413
 1670              		.cfi_endproc
 1671              	.LFE17:
 1673              		.section	.text.GenDsp_DrawNum,"ax",%progbits
 1674              		.align	1
 1675              		.syntax unified
 1676              		.thumb
 1677              		.thumb_func
 1678              		.fpu fpv4-sp-d16
 1680              	GenDsp_DrawNum:
 1681              	.LVL186:
 1682              	.LFB7:
 126:Dsp/widget/wgt_core/GenDsp.c ****     char num_buff[MAX_DSP_NUM_LEN];
 1683              		.loc 1 126 1 is_stmt 1 view -0
 1684              		.cfi_startproc
 1685              		@ args = 8, pretend = 0, frame = 16
 1686              		@ frame_needed = 0, uses_anonymous_args = 0
 126:Dsp/widget/wgt_core/GenDsp.c ****     char num_buff[MAX_DSP_NUM_LEN];
 1687              		.loc 1 126 1 is_stmt 0 view .LVU415
 1688 0000 70B5     		push	{r4, r5, r6, lr}
 1689              	.LCFI34:
 1690              		.cfi_def_cfa_offset 16
 1691              		.cfi_offset 4, -16
 1692              		.cfi_offset 5, -12
 1693              		.cfi_offset 6, -8
 1694              		.cfi_offset 14, -4
 1695 0002 86B0     		sub	sp, sp, #24
 1696              	.LCFI35:
 1697              		.cfi_def_cfa_offset 40
 1698 0004 0446     		mov	r4, r0
 1699 0006 0D46     		mov	r5, r1
 1700 0008 1E46     		mov	r6, r3
ARM GAS  /tmp/ccErjHfS.s 			page 39


 127:Dsp/widget/wgt_core/GenDsp.c **** 
 1701              		.loc 1 127 5 is_stmt 1 view .LVU416
 129:Dsp/widget/wgt_core/GenDsp.c ****     GenDsp_DrawStr(font, map, num_buff, x, y, col_inv);
 1702              		.loc 1 129 5 view .LVU417
 1703 000a 0949     		ldr	r1, .L103
 1704              	.LVL187:
 129:Dsp/widget/wgt_core/GenDsp.c ****     GenDsp_DrawStr(font, map, num_buff, x, y, col_inv);
 1705              		.loc 1 129 5 is_stmt 0 view .LVU418
 1706 000c 03A8     		add	r0, sp, #12
 1707              	.LVL188:
 129:Dsp/widget/wgt_core/GenDsp.c ****     GenDsp_DrawStr(font, map, num_buff, x, y, col_inv);
 1708              		.loc 1 129 5 view .LVU419
 1709 000e FFF7FEFF 		bl	sprintf
 1710              	.LVL189:
 130:Dsp/widget/wgt_core/GenDsp.c **** }
 1711              		.loc 1 130 5 is_stmt 1 view .LVU420
 1712 0012 9DF82C30 		ldrb	r3, [sp, #44]	@ zero_extendqisi2
 1713 0016 0193     		str	r3, [sp, #4]
 1714 0018 9DF82830 		ldrb	r3, [sp, #40]	@ zero_extendqisi2
 1715 001c 0093     		str	r3, [sp]
 1716 001e 3346     		mov	r3, r6
 1717 0020 03AA     		add	r2, sp, #12
 1718 0022 2946     		mov	r1, r5
 1719 0024 2046     		mov	r0, r4
 1720 0026 FFF7FEFF 		bl	GenDsp_DrawStr
 1721              	.LVL190:
 131:Dsp/widget/wgt_core/GenDsp.c **** 
 1722              		.loc 1 131 1 is_stmt 0 view .LVU421
 1723 002a 06B0     		add	sp, sp, #24
 1724              	.LCFI36:
 1725              		.cfi_def_cfa_offset 16
 1726              		@ sp needed
 1727 002c 70BD     		pop	{r4, r5, r6, pc}
 1728              	.LVL191:
 1729              	.L104:
 131:Dsp/widget/wgt_core/GenDsp.c **** 
 1730              		.loc 1 131 1 view .LVU422
 1731 002e 00BF     		.align	2
 1732              	.L103:
 1733 0030 00000000 		.word	.LC0
 1734              		.cfi_endproc
 1735              	.LFE7:
 1737              		.global	GenDsp_Interface
 1738              		.global	DspRange
 1739              		.section	.bss.DspRange,"aw",%nobits
 1740              		.align	2
 1741              		.set	.LANCHOR0,. + 0
 1744              	DspRange:
 1745 0000 00000000 		.space	4
 1746              		.section	.data.GenDsp_Interface,"aw"
 1747              		.align	2
 1750              	GenDsp_Interface:
 1751 0000 00000000 		.word	GenDsp_SetRange
 1752 0004 00000000 		.word	GenDsp_DrawPoint
 1753 0008 00000000 		.word	GenDsp_DrawCircle
 1754 000c 00000000 		.word	GenDsp_DrawChar
 1755 0010 00000000 		.word	GenDsp_DrawStr
ARM GAS  /tmp/ccErjHfS.s 			page 40


 1756 0014 00000000 		.word	GenDsp_DrawNum
 1757 0018 00000000 		.word	GenDsp_DrawRectangle
 1758 001c 00000000 		.word	GenDsp_Draw_RadiusRectangle
 1759 0020 00000000 		.word	GenDsp_DrawLen
 1760 0024 00000000 		.word	0
 1761 0028 00000000 		.word	GenDsp_FillCircle
 1762 002c 00000000 		.word	GenDsp_FillRectangle
 1763 0030 00000000 		.word	GenDsp_Fill_RadiusRectangle
 1764 0034 00000000 		.word	GenDsp_GetStrLen
 1765              		.section	.rodata.GenDsp_DrawNum.str1.4,"aMS",%progbits,1
 1766              		.align	2
 1767              	.LC0:
 1768 0000 256400   		.ascii	"%d\000"
 1769              		.text
 1770              	.Letext0:
 1771              		.file 2 "/home/bt0/stm32/compile-tool/gcc-arm-none-eabi-8-2018-q4-major-linux/gcc-arm-none-eabi-8-
 1772              		.file 3 "/home/bt0/stm32/compile-tool/gcc-arm-none-eabi-8-2018-q4-major-linux/gcc-arm-none-eabi-8-
 1773              		.file 4 "/home/bt0/stm32/compile-tool/gcc-arm-none-eabi-8-2018-q4-major-linux/gcc-arm-none-eabi-8-
 1774              		.file 5 "/home/bt0/stm32/compile-tool/gcc-arm-none-eabi-8-2018-q4-major-linux/gcc-arm-none-eabi-8-
 1775              		.file 6 "/home/bt0/stm32/compile-tool/gcc-arm-none-eabi-8-2018-q4-major-linux/gcc-arm-none-eabi-8-
 1776              		.file 7 "/home/bt0/stm32/compile-tool/gcc-arm-none-eabi-8-2018-q4-major-linux/gcc-arm-none-eabi-8-
 1777              		.file 8 "Dsp/screen/font/oledfont.h"
 1778              		.file 9 "Dsp/widget/wgt_core/GenDsp.h"
 1779              		.file 10 "/home/bt0/stm32/compile-tool/gcc-arm-none-eabi-8-2018-q4-major-linux/gcc-arm-none-eabi-8
 1780              		.file 11 "/home/bt0/stm32/compile-tool/gcc-arm-none-eabi-8-2018-q4-major-linux/gcc-arm-none-eabi-8
ARM GAS  /tmp/ccErjHfS.s 			page 41


DEFINED SYMBOLS
                            *ABS*:0000000000000000 GenDsp.c
     /tmp/ccErjHfS.s:18     .text.GenDsp_SetRange:0000000000000000 $t
     /tmp/ccErjHfS.s:25     .text.GenDsp_SetRange:0000000000000000 GenDsp_SetRange
     /tmp/ccErjHfS.s:61     .text.GenDsp_SetRange:0000000000000014 $d
     /tmp/ccErjHfS.s:66     .text.GenDsp_DrawPoint:0000000000000000 $t
     /tmp/ccErjHfS.s:72     .text.GenDsp_DrawPoint:0000000000000000 GenDsp_DrawPoint
     /tmp/ccErjHfS.s:145    .text.GenDsp_DrawPoint:0000000000000034 $d
     /tmp/ccErjHfS.s:150    .text.GenDsp_DrawChar:0000000000000000 $t
     /tmp/ccErjHfS.s:156    .text.GenDsp_DrawChar:0000000000000000 GenDsp_DrawChar
     /tmp/ccErjHfS.s:369    .text.GenDsp_DrawChar:00000000000000bc $d
     /tmp/ccErjHfS.s:376    .text.GenDsp_DrawStr:0000000000000000 $t
     /tmp/ccErjHfS.s:382    .text.GenDsp_DrawStr:0000000000000000 GenDsp_DrawStr
     /tmp/ccErjHfS.s:452    .text.GenDsp_GetStrLen:0000000000000000 $t
     /tmp/ccErjHfS.s:458    .text.GenDsp_GetStrLen:0000000000000000 GenDsp_GetStrLen
     /tmp/ccErjHfS.s:496    .text.GenDsp_DrawLen:0000000000000000 $t
     /tmp/ccErjHfS.s:502    .text.GenDsp_DrawLen:0000000000000000 GenDsp_DrawLen
     /tmp/ccErjHfS.s:743    .text.GenDsp_Draw_Circle_Section:0000000000000000 $t
     /tmp/ccErjHfS.s:749    .text.GenDsp_Draw_Circle_Section:0000000000000000 GenDsp_Draw_Circle_Section
     /tmp/ccErjHfS.s:888    .text.GenDsp_Draw_Circle:0000000000000000 $t
     /tmp/ccErjHfS.s:894    .text.GenDsp_Draw_Circle:0000000000000000 GenDsp_Draw_Circle
     /tmp/ccErjHfS.s:1043   .text.GenDsp_DrawCircle:0000000000000000 $t
     /tmp/ccErjHfS.s:1049   .text.GenDsp_DrawCircle:0000000000000000 GenDsp_DrawCircle
     /tmp/ccErjHfS.s:1081   .text.GenDsp_DrawRectangle:0000000000000000 $t
     /tmp/ccErjHfS.s:1087   .text.GenDsp_DrawRectangle:0000000000000000 GenDsp_DrawRectangle
     /tmp/ccErjHfS.s:1175   .text.GenDsp_Draw_RadiusRectangle:0000000000000000 $t
     /tmp/ccErjHfS.s:1181   .text.GenDsp_Draw_RadiusRectangle:0000000000000000 GenDsp_Draw_RadiusRectangle
     /tmp/ccErjHfS.s:1347   .text.GenDsp_FillCircle:0000000000000000 $t
     /tmp/ccErjHfS.s:1353   .text.GenDsp_FillCircle:0000000000000000 GenDsp_FillCircle
     /tmp/ccErjHfS.s:1481   .text.GenDsp_FillRectangle:0000000000000000 $t
     /tmp/ccErjHfS.s:1487   .text.GenDsp_FillRectangle:0000000000000000 GenDsp_FillRectangle
     /tmp/ccErjHfS.s:1572   .text.GenDsp_Fill_RadiusRectangle:0000000000000000 $t
     /tmp/ccErjHfS.s:1578   .text.GenDsp_Fill_RadiusRectangle:0000000000000000 GenDsp_Fill_RadiusRectangle
     /tmp/ccErjHfS.s:1674   .text.GenDsp_DrawNum:0000000000000000 $t
     /tmp/ccErjHfS.s:1680   .text.GenDsp_DrawNum:0000000000000000 GenDsp_DrawNum
     /tmp/ccErjHfS.s:1733   .text.GenDsp_DrawNum:0000000000000030 $d
     /tmp/ccErjHfS.s:1750   .data.GenDsp_Interface:0000000000000000 GenDsp_Interface
     /tmp/ccErjHfS.s:1744   .bss.DspRange:0000000000000000 DspRange
     /tmp/ccErjHfS.s:1740   .bss.DspRange:0000000000000000 $d
     /tmp/ccErjHfS.s:1747   .data.GenDsp_Interface:0000000000000000 $d
     /tmp/ccErjHfS.s:1766   .rodata.GenDsp_DrawNum.str1.4:0000000000000000 $d

UNDEFINED SYMBOLS
oled_asc2_1206
oled_asc2_1608
sprintf
