ARM GAS  C:\Users\huav\AppData\Local\Temp\ccuxtYbi.s 			page 1


   1              		.cpu cortex-m4
   2              		.eabi_attribute 27, 1
   3              		.eabi_attribute 28, 1
   4              		.eabi_attribute 20, 1
   5              		.eabi_attribute 21, 1
   6              		.eabi_attribute 23, 3
   7              		.eabi_attribute 24, 1
   8              		.eabi_attribute 25, 1
   9              		.eabi_attribute 26, 1
  10              		.eabi_attribute 30, 1
  11              		.eabi_attribute 34, 1
  12              		.eabi_attribute 18, 4
  13              		.file	"GenDsp.c"
  14              		.text
  15              	.Ltext0:
  16              		.cfi_sections	.debug_frame
  17              		.section	.text.GenDsp_SetRange,"ax",%progbits
  18              		.align	1
  19              		.arch armv7e-m
  20              		.syntax unified
  21              		.thumb
  22              		.thumb_func
  23              		.fpu fpv4-sp-d16
  25              	GenDsp_SetRange:
  26              	.LVL0:
  27              	.LFB3:
  28              		.file 1 "Dsp/widget/wgt_core/GenDsp.c"
   1:Dsp/widget/wgt_core/GenDsp.c **** #include "GenDsp.h"
   2:Dsp/widget/wgt_core/GenDsp.c **** #include "oledfont.h"
   3:Dsp/widget/wgt_core/GenDsp.c **** #include <math.h>
   4:Dsp/widget/wgt_core/GenDsp.c **** 
   5:Dsp/widget/wgt_core/GenDsp.c **** #define DegToRad(x) x / (180 / M_PI)
   6:Dsp/widget/wgt_core/GenDsp.c **** 
   7:Dsp/widget/wgt_core/GenDsp.c **** /* internal variable */
   8:Dsp/widget/wgt_core/GenDsp.c **** GenDsp_DspArea_Limit_Range DspRange = {
   9:Dsp/widget/wgt_core/GenDsp.c ****     .width = 0,
  10:Dsp/widget/wgt_core/GenDsp.c ****     .heigh = 0,
  11:Dsp/widget/wgt_core/GenDsp.c ****     .x = 0,
  12:Dsp/widget/wgt_core/GenDsp.c ****     .y = 0,
  13:Dsp/widget/wgt_core/GenDsp.c **** };
  14:Dsp/widget/wgt_core/GenDsp.c **** 
  15:Dsp/widget/wgt_core/GenDsp.c **** /* internal function definition */
  16:Dsp/widget/wgt_core/GenDsp.c **** 
  17:Dsp/widget/wgt_core/GenDsp.c **** /* external draw funtion definition */
  18:Dsp/widget/wgt_core/GenDsp.c **** static uint8_t GenDsp_GetStrLen(GenFont_List font, char *str);
  19:Dsp/widget/wgt_core/GenDsp.c **** static void GenDsp_DrawPoint(uint8_t **map, int16_t x, int16_t y, bool set);
  20:Dsp/widget/wgt_core/GenDsp.c **** static void GenDsp_SetRange(int16_t x, int16_t y, uint8_t width, uint8_t height);
  21:Dsp/widget/wgt_core/GenDsp.c **** static bool GenDsp_DrawChar(GenFont_List font, uint8_t **map, char c, int16_t x, int16_t y, bool co
  22:Dsp/widget/wgt_core/GenDsp.c **** static void GenDsp_DrawStr(GenFont_List font, uint8_t **map, char *str, int16_t x, int16_t y, bool 
  23:Dsp/widget/wgt_core/GenDsp.c **** static void GenDsp_DrawNum(GenFont_List font, uint8_t **map, uint32_t num, int16_t x, int16_t y, bo
  24:Dsp/widget/wgt_core/GenDsp.c **** static void GenDsp_DrawCircle(uint8_t **map, int16_t center_x, int16_t center_y, uint8_t radius, ui
  25:Dsp/widget/wgt_core/GenDsp.c **** static void GenDsp_DrawRectangle(uint8_t **map, int16_t x, int16_t y, uint8_t width, uint8_t height
  26:Dsp/widget/wgt_core/GenDsp.c **** static void GenDsp_DrawLen(uint8_t **map, int8_t start_x, int8_t start_y, int8_t end_x, int8_t end_
  27:Dsp/widget/wgt_core/GenDsp.c **** static void GenDsp_DrawRad(uint8_t **map, int8_t center_x, int8_t center_y, uint8_t radius, uint8_t
  28:Dsp/widget/wgt_core/GenDsp.c **** static void GenDsp_Draw_RadiusRectangle(uint8_t **map, int16_t x, int16_t y, uint8_t width, uint8_t
  29:Dsp/widget/wgt_core/GenDsp.c **** static void GenDsp_FillCircle(uint8_t **map, int16_t x, int16_t y, uint8_t radius, uint8_t option, 
  30:Dsp/widget/wgt_core/GenDsp.c **** static void GenDsp_FillRectangle(uint8_t **map, int16_t x, int16_t y, uint8_t width, uint8_t height
ARM GAS  C:\Users\huav\AppData\Local\Temp\ccuxtYbi.s 			page 2


  31:Dsp/widget/wgt_core/GenDsp.c **** static void GenDsp_Fill_RadiusRectangle(uint8_t **map, int16_t x, int16_t y, uint8_t width, uint8_t
  32:Dsp/widget/wgt_core/GenDsp.c **** static void GenDsp_Draw_HLine(uint8_t **map, int16_t x, int16_t y, uint8_t len, uint8_t line_width,
  33:Dsp/widget/wgt_core/GenDsp.c **** static void GenDsp_Draw_VLine(uint8_t **map, int16_t x, int16_t y, uint8_t len, uint8_t line_width,
  34:Dsp/widget/wgt_core/GenDsp.c **** 
  35:Dsp/widget/wgt_core/GenDsp.c **** GeneralDispalyProc_TypeDef GenDsp_Interface = {
  36:Dsp/widget/wgt_core/GenDsp.c ****     .draw_img = NULL,
  37:Dsp/widget/wgt_core/GenDsp.c ****     .draw_str = GenDsp_DrawStr,
  38:Dsp/widget/wgt_core/GenDsp.c ****     .draw_num = GenDsp_DrawNum,
  39:Dsp/widget/wgt_core/GenDsp.c ****     .draw_line = GenDsp_DrawLen,
  40:Dsp/widget/wgt_core/GenDsp.c ****     .draw_vertical_line = GenDsp_Draw_VLine,
  41:Dsp/widget/wgt_core/GenDsp.c ****     .draw_horizon_line = GenDsp_Draw_HLine,
  42:Dsp/widget/wgt_core/GenDsp.c ****     .str_len = GenDsp_GetStrLen,
  43:Dsp/widget/wgt_core/GenDsp.c ****     .draw_char = GenDsp_DrawChar,
  44:Dsp/widget/wgt_core/GenDsp.c ****     .set_range = GenDsp_SetRange,
  45:Dsp/widget/wgt_core/GenDsp.c ****     .draw_point = GenDsp_DrawPoint,
  46:Dsp/widget/wgt_core/GenDsp.c ****     .draw_circle = GenDsp_DrawCircle,
  47:Dsp/widget/wgt_core/GenDsp.c ****     .draw_rectangle = GenDsp_DrawRectangle,
  48:Dsp/widget/wgt_core/GenDsp.c ****     .draw_radius_rectangle = GenDsp_Draw_RadiusRectangle,
  49:Dsp/widget/wgt_core/GenDsp.c ****     .fill_circle = GenDsp_FillCircle,
  50:Dsp/widget/wgt_core/GenDsp.c ****     .fill_rectangle = GenDsp_FillRectangle,
  51:Dsp/widget/wgt_core/GenDsp.c ****     .fill_radius_rectangle = GenDsp_Fill_RadiusRectangle,
  52:Dsp/widget/wgt_core/GenDsp.c **** };
  53:Dsp/widget/wgt_core/GenDsp.c **** 
  54:Dsp/widget/wgt_core/GenDsp.c **** static void GenDsp_SetRange(int16_t x, int16_t y, uint8_t width, uint8_t height)
  55:Dsp/widget/wgt_core/GenDsp.c **** {
  29              		.loc 1 55 1 view -0
  30              		.cfi_startproc
  31              		@ args = 0, pretend = 0, frame = 0
  32              		@ frame_needed = 0, uses_anonymous_args = 0
  33              		@ link register save eliminated.
  34              		.loc 1 55 1 is_stmt 0 view .LVU1
  35 0000 10B4     		push	{r4}
  36              	.LCFI0:
  37              		.cfi_def_cfa_offset 4
  38              		.cfi_offset 4, -4
  56:Dsp/widget/wgt_core/GenDsp.c ****     DspRange.heigh = height;
  39              		.loc 1 56 5 is_stmt 1 view .LVU2
  40              		.loc 1 56 20 is_stmt 0 view .LVU3
  41 0002 044C     		ldr	r4, .L3
  42 0004 6371     		strb	r3, [r4, #5]
  57:Dsp/widget/wgt_core/GenDsp.c ****     DspRange.width = width;
  43              		.loc 1 57 5 is_stmt 1 view .LVU4
  44              		.loc 1 57 20 is_stmt 0 view .LVU5
  45 0006 2271     		strb	r2, [r4, #4]
  58:Dsp/widget/wgt_core/GenDsp.c ****     DspRange.x = x;
  46              		.loc 1 58 5 is_stmt 1 view .LVU6
  47              		.loc 1 58 16 is_stmt 0 view .LVU7
  48 0008 2080     		strh	r0, [r4]	@ movhi
  59:Dsp/widget/wgt_core/GenDsp.c ****     DspRange.y = y;
  49              		.loc 1 59 5 is_stmt 1 view .LVU8
  50              		.loc 1 59 16 is_stmt 0 view .LVU9
  51 000a 6180     		strh	r1, [r4, #2]	@ movhi
  60:Dsp/widget/wgt_core/GenDsp.c **** }
  52              		.loc 1 60 1 view .LVU10
  53 000c 5DF8044B 		ldr	r4, [sp], #4
  54              	.LCFI1:
  55              		.cfi_restore 4
ARM GAS  C:\Users\huav\AppData\Local\Temp\ccuxtYbi.s 			page 3


  56              		.cfi_def_cfa_offset 0
  57 0010 7047     		bx	lr
  58              	.L4:
  59 0012 00BF     		.align	2
  60              	.L3:
  61 0014 00000000 		.word	.LANCHOR0
  62              		.cfi_endproc
  63              	.LFE3:
  65              		.section	.text.GenDsp_DrawPoint,"ax",%progbits
  66              		.align	1
  67              		.syntax unified
  68              		.thumb
  69              		.thumb_func
  70              		.fpu fpv4-sp-d16
  72              	GenDsp_DrawPoint:
  73              	.LVL1:
  74              	.LFB4:
  61:Dsp/widget/wgt_core/GenDsp.c **** 
  62:Dsp/widget/wgt_core/GenDsp.c **** static void GenDsp_DrawPoint(uint8_t **map, int16_t x, int16_t y, bool set)
  63:Dsp/widget/wgt_core/GenDsp.c **** {
  75              		.loc 1 63 1 is_stmt 1 view -0
  76              		.cfi_startproc
  77              		@ args = 0, pretend = 0, frame = 0
  78              		@ frame_needed = 0, uses_anonymous_args = 0
  79              		@ link register save eliminated.
  80              		.loc 1 63 1 is_stmt 0 view .LVU12
  81 0000 10B4     		push	{r4}
  82              	.LCFI2:
  83              		.cfi_def_cfa_offset 4
  84              		.cfi_offset 4, -4
  64:Dsp/widget/wgt_core/GenDsp.c ****     if ((x >= DspRange.width) || (y >= DspRange.heigh) || (x < 0) || (y < 0))
  85              		.loc 1 64 5 is_stmt 1 view .LVU13
  86              		.loc 1 64 23 is_stmt 0 view .LVU14
  87 0002 0C4C     		ldr	r4, .L9
  88 0004 94F804C0 		ldrb	ip, [r4, #4]	@ zero_extendqisi2
  89              		.loc 1 64 8 view .LVU15
  90 0008 6145     		cmp	r1, ip
  91 000a 0BDA     		bge	.L5
  92              		.loc 1 64 48 discriminator 1 view .LVU16
  93 000c 6479     		ldrb	r4, [r4, #5]	@ zero_extendqisi2
  94              		.loc 1 64 31 discriminator 1 view .LVU17
  95 000e A242     		cmp	r2, r4
  96 0010 08DA     		bge	.L5
  97              		.loc 1 64 56 discriminator 2 view .LVU18
  98 0012 0029     		cmp	r1, #0
  99 0014 06DB     		blt	.L5
 100              		.loc 1 64 67 discriminator 3 view .LVU19
 101 0016 002A     		cmp	r2, #0
 102 0018 04DB     		blt	.L5
  65:Dsp/widget/wgt_core/GenDsp.c ****         return;
  66:Dsp/widget/wgt_core/GenDsp.c **** 
  67:Dsp/widget/wgt_core/GenDsp.c ****     if (set)
 103              		.loc 1 67 5 is_stmt 1 view .LVU20
 104              		.loc 1 67 8 is_stmt 0 view .LVU21
 105 001a 33B1     		cbz	r3, .L7
  68:Dsp/widget/wgt_core/GenDsp.c ****     {
  69:Dsp/widget/wgt_core/GenDsp.c ****         map[y][x] = 1;
ARM GAS  C:\Users\huav\AppData\Local\Temp\ccuxtYbi.s 			page 4


 106              		.loc 1 69 9 is_stmt 1 view .LVU22
 107              		.loc 1 69 12 is_stmt 0 view .LVU23
 108 001c 50F82230 		ldr	r3, [r0, r2, lsl #2]
 109              	.LVL2:
 110              		.loc 1 69 19 view .LVU24
 111 0020 0122     		movs	r2, #1
 112              	.LVL3:
 113              		.loc 1 69 19 view .LVU25
 114 0022 5A54     		strb	r2, [r3, r1]
 115              	.L5:
  70:Dsp/widget/wgt_core/GenDsp.c ****     }
  71:Dsp/widget/wgt_core/GenDsp.c ****     else
  72:Dsp/widget/wgt_core/GenDsp.c ****         map[y][x] = 0;
  73:Dsp/widget/wgt_core/GenDsp.c **** }
 116              		.loc 1 73 1 view .LVU26
 117 0024 5DF8044B 		ldr	r4, [sp], #4
 118              	.LCFI3:
 119              		.cfi_remember_state
 120              		.cfi_restore 4
 121              		.cfi_def_cfa_offset 0
 122 0028 7047     		bx	lr
 123              	.LVL4:
 124              	.L7:
 125              	.LCFI4:
 126              		.cfi_restore_state
  72:Dsp/widget/wgt_core/GenDsp.c **** }
 127              		.loc 1 72 9 is_stmt 1 view .LVU27
  72:Dsp/widget/wgt_core/GenDsp.c **** }
 128              		.loc 1 72 12 is_stmt 0 view .LVU28
 129 002a 50F82230 		ldr	r3, [r0, r2, lsl #2]
 130              	.LVL5:
  72:Dsp/widget/wgt_core/GenDsp.c **** }
 131              		.loc 1 72 19 view .LVU29
 132 002e 0022     		movs	r2, #0
 133              	.LVL6:
  72:Dsp/widget/wgt_core/GenDsp.c **** }
 134              		.loc 1 72 19 view .LVU30
 135 0030 5A54     		strb	r2, [r3, r1]
 136 0032 F7E7     		b	.L5
 137              	.L10:
 138              		.align	2
 139              	.L9:
 140 0034 00000000 		.word	.LANCHOR0
 141              		.cfi_endproc
 142              	.LFE4:
 144              		.section	.text.GenDsp_DrawChar,"ax",%progbits
 145              		.align	1
 146              		.syntax unified
 147              		.thumb
 148              		.thumb_func
 149              		.fpu fpv4-sp-d16
 151              	GenDsp_DrawChar:
 152              	.LVL7:
 153              	.LFB5:
  74:Dsp/widget/wgt_core/GenDsp.c **** 
  75:Dsp/widget/wgt_core/GenDsp.c **** static bool GenDsp_DrawChar(GenFont_List font, uint8_t **map, char c, int16_t x, int16_t y, bool co
  76:Dsp/widget/wgt_core/GenDsp.c **** {
ARM GAS  C:\Users\huav\AppData\Local\Temp\ccuxtYbi.s 			page 5


 154              		.loc 1 76 1 is_stmt 1 view -0
 155              		.cfi_startproc
 156              		@ args = 8, pretend = 0, frame = 8
 157              		@ frame_needed = 0, uses_anonymous_args = 0
 158              		.loc 1 76 1 is_stmt 0 view .LVU32
 159 0000 2DE9F04F 		push	{r4, r5, r6, r7, r8, r9, r10, fp, lr}
 160              	.LCFI5:
 161              		.cfi_def_cfa_offset 36
 162              		.cfi_offset 4, -36
 163              		.cfi_offset 5, -32
 164              		.cfi_offset 6, -28
 165              		.cfi_offset 7, -24
 166              		.cfi_offset 8, -20
 167              		.cfi_offset 9, -16
 168              		.cfi_offset 10, -12
 169              		.cfi_offset 11, -8
 170              		.cfi_offset 14, -4
 171 0004 83B0     		sub	sp, sp, #12
 172              	.LCFI6:
 173              		.cfi_def_cfa_offset 48
 174 0006 1F46     		mov	r7, r3
 175 0008 BDF930A0 		ldrsh	r10, [sp, #48]
 176 000c 9DF834B0 		ldrb	fp, [sp, #52]	@ zero_extendqisi2
  77:Dsp/widget/wgt_core/GenDsp.c ****     uint8_t temp;
 177              		.loc 1 77 5 is_stmt 1 view .LVU33
  78:Dsp/widget/wgt_core/GenDsp.c ****     int16_t y0 = y;
 178              		.loc 1 78 5 view .LVU34
 179              	.LVL8:
  79:Dsp/widget/wgt_core/GenDsp.c ****     c -= ' ';
 180              		.loc 1 79 5 view .LVU35
 181              		.loc 1 79 7 is_stmt 0 view .LVU36
 182 0010 203A     		subs	r2, r2, #32
 183              	.LVL9:
 184              		.loc 1 79 7 view .LVU37
 185 0012 D3B2     		uxtb	r3, r2
 186              	.LVL10:
 187              		.loc 1 79 7 view .LVU38
 188 0014 0193     		str	r3, [sp, #4]
 189              	.LVL11:
  80:Dsp/widget/wgt_core/GenDsp.c **** 
  81:Dsp/widget/wgt_core/GenDsp.c ****     if (DspRange.width <= x)
 190              		.loc 1 81 5 is_stmt 1 view .LVU39
 191              		.loc 1 81 17 is_stmt 0 view .LVU40
 192 0016 364B     		ldr	r3, .L32
 193 0018 1B79     		ldrb	r3, [r3, #4]	@ zero_extendqisi2
 194              		.loc 1 81 8 view .LVU41
 195 001a BB42     		cmp	r3, r7
 196 001c 62DD     		ble	.L24
 197 001e 8146     		mov	r9, r0
 198 0020 8846     		mov	r8, r1
 199 0022 0026     		movs	r6, #0
 200 0024 5446     		mov	r4, r10
 201              	.LBB2:
  82:Dsp/widget/wgt_core/GenDsp.c ****         return false;
  83:Dsp/widget/wgt_core/GenDsp.c **** 
  84:Dsp/widget/wgt_core/GenDsp.c ****     for (uint8_t t = 0; t < font; t++)
 202              		.loc 1 84 18 view .LVU42
ARM GAS  C:\Users\huav\AppData\Local\Temp\ccuxtYbi.s 			page 6


 203 0026 0096     		str	r6, [sp]
 204 0028 47E0     		b	.L13
 205              	.LVL12:
 206              	.L30:
  85:Dsp/widget/wgt_core/GenDsp.c ****     {
  86:Dsp/widget/wgt_core/GenDsp.c ****         if (font == Font_12)
  87:Dsp/widget/wgt_core/GenDsp.c ****             temp = oled_asc2_1206[c][t];
 207              		.loc 1 87 13 is_stmt 1 view .LVU43
 208              		.loc 1 87 18 is_stmt 0 view .LVU44
 209 002a 019B     		ldr	r3, [sp, #4]
 210 002c 03EB4303 		add	r3, r3, r3, lsl #1
 211 0030 304A     		ldr	r2, .L32+4
 212 0032 02EB8303 		add	r3, r2, r3, lsl #2
 213 0036 009A     		ldr	r2, [sp]
 214 0038 9E5C     		ldrb	r6, [r3, r2]	@ zero_extendqisi2
 215              	.LVL13:
 216              	.L15:
 217              		.loc 1 87 18 view .LVU45
 218              	.LBE2:
  76:Dsp/widget/wgt_core/GenDsp.c ****     uint8_t temp;
 219              		.loc 1 76 1 discriminator 1 view .LVU46
 220 003a 0025     		movs	r5, #0
 221 003c 1CE0     		b	.L21
 222              	.L31:
 223              	.LBB5:
  88:Dsp/widget/wgt_core/GenDsp.c ****         else if (font == Font_16)
  89:Dsp/widget/wgt_core/GenDsp.c ****             temp = oled_asc2_1608[c][t];
 224              		.loc 1 89 13 is_stmt 1 view .LVU47
 225              		.loc 1 89 18 is_stmt 0 view .LVU48
 226 003e 2E4B     		ldr	r3, .L32+8
 227 0040 019A     		ldr	r2, [sp, #4]
 228 0042 03EB0213 		add	r3, r3, r2, lsl #4
 229 0046 009A     		ldr	r2, [sp]
 230 0048 9E5C     		ldrb	r6, [r3, r2]	@ zero_extendqisi2
 231              	.LVL14:
 232              		.loc 1 89 18 view .LVU49
 233 004a F6E7     		b	.L15
 234              	.LVL15:
 235              	.L28:
 236              	.LBB3:
  90:Dsp/widget/wgt_core/GenDsp.c ****         else if (font == Font_8)
  91:Dsp/widget/wgt_core/GenDsp.c ****             temp = oled_asc2_0808[c][t];
  92:Dsp/widget/wgt_core/GenDsp.c **** 
  93:Dsp/widget/wgt_core/GenDsp.c ****         for (uint8_t bit_index = 0; bit_index < FONT_WIDTH; bit_index++)
  94:Dsp/widget/wgt_core/GenDsp.c ****         {
  95:Dsp/widget/wgt_core/GenDsp.c ****             if ((DspRange.x + DspRange.width) <= x)
  96:Dsp/widget/wgt_core/GenDsp.c ****                 return false;
  97:Dsp/widget/wgt_core/GenDsp.c **** 
  98:Dsp/widget/wgt_core/GenDsp.c ****             if (temp & 0x80)
  99:Dsp/widget/wgt_core/GenDsp.c ****                 GenDsp_DrawPoint(map, x, y, col_inv ^ map[y][x]);
 237              		.loc 1 99 17 is_stmt 1 view .LVU50
 238              		.loc 1 99 58 is_stmt 0 view .LVU51
 239 004c 58F82430 		ldr	r3, [r8, r4, lsl #2]
 240              		.loc 1 99 61 view .LVU52
 241 0050 DB5D     		ldrb	r3, [r3, r7]	@ zero_extendqisi2
 242              		.loc 1 99 17 view .LVU53
 243 0052 BBEB0303 		subs	r3, fp, r3
ARM GAS  C:\Users\huav\AppData\Local\Temp\ccuxtYbi.s 			page 7


 244 0056 18BF     		it	ne
 245 0058 0123     		movne	r3, #1
 246 005a 2246     		mov	r2, r4
 247 005c 3946     		mov	r1, r7
 248 005e 4046     		mov	r0, r8
 249 0060 FFF7FEFF 		bl	GenDsp_DrawPoint
 250              	.LVL16:
 251              	.L18:
 100:Dsp/widget/wgt_core/GenDsp.c ****             else
 101:Dsp/widget/wgt_core/GenDsp.c ****                 GenDsp_DrawPoint(map, x, y, !col_inv ^ map[y][x]);
 102:Dsp/widget/wgt_core/GenDsp.c **** 
 103:Dsp/widget/wgt_core/GenDsp.c ****             temp <<= 1;
 252              		.loc 1 103 13 is_stmt 1 view .LVU54
 253              		.loc 1 103 18 is_stmt 0 view .LVU55
 254 0064 7600     		lsls	r6, r6, #1
 255              	.LVL17:
 256              		.loc 1 103 18 view .LVU56
 257 0066 F6B2     		uxtb	r6, r6
 258              	.LVL18:
 104:Dsp/widget/wgt_core/GenDsp.c **** 
 105:Dsp/widget/wgt_core/GenDsp.c ****             y++;
 259              		.loc 1 105 13 is_stmt 1 view .LVU57
 260              		.loc 1 105 14 is_stmt 0 view .LVU58
 261 0068 0134     		adds	r4, r4, #1
 262              	.LVL19:
 263              		.loc 1 105 14 view .LVU59
 264 006a 24B2     		sxth	r4, r4
 265              	.LVL20:
 106:Dsp/widget/wgt_core/GenDsp.c ****             if ((y - y0) >= font)
 266              		.loc 1 106 13 is_stmt 1 view .LVU60
 267              		.loc 1 106 20 is_stmt 0 view .LVU61
 268 006c A4EB0A03 		sub	r3, r4, r10
 269              		.loc 1 106 16 view .LVU62
 270 0070 4B45     		cmp	r3, r9
 271 0072 1BDA     		bge	.L27
  93:Dsp/widget/wgt_core/GenDsp.c ****         {
 272              		.loc 1 93 61 is_stmt 1 discriminator 2 view .LVU63
  93:Dsp/widget/wgt_core/GenDsp.c ****         {
 273              		.loc 1 93 70 is_stmt 0 discriminator 2 view .LVU64
 274 0074 0135     		adds	r5, r5, #1
 275              	.LVL21:
  93:Dsp/widget/wgt_core/GenDsp.c ****         {
 276              		.loc 1 93 70 discriminator 2 view .LVU65
 277 0076 EDB2     		uxtb	r5, r5
 278              	.LVL22:
 279              	.L21:
  93:Dsp/widget/wgt_core/GenDsp.c ****         {
 280              		.loc 1 93 37 is_stmt 1 discriminator 1 view .LVU66
  93:Dsp/widget/wgt_core/GenDsp.c ****         {
 281              		.loc 1 93 9 is_stmt 0 discriminator 1 view .LVU67
 282 0078 072D     		cmp	r5, #7
 283 007a 1AD8     		bhi	.L20
  95:Dsp/widget/wgt_core/GenDsp.c ****                 return false;
 284              		.loc 1 95 13 is_stmt 1 view .LVU68
  95:Dsp/widget/wgt_core/GenDsp.c ****                 return false;
 285              		.loc 1 95 26 is_stmt 0 view .LVU69
 286 007c 1C4A     		ldr	r2, .L32
ARM GAS  C:\Users\huav\AppData\Local\Temp\ccuxtYbi.s 			page 8


 287 007e B2F90030 		ldrsh	r3, [r2]
  95:Dsp/widget/wgt_core/GenDsp.c ****                 return false;
 288              		.loc 1 95 39 view .LVU70
 289 0082 1279     		ldrb	r2, [r2, #4]	@ zero_extendqisi2
  95:Dsp/widget/wgt_core/GenDsp.c ****                 return false;
 290              		.loc 1 95 29 view .LVU71
 291 0084 1344     		add	r3, r3, r2
  95:Dsp/widget/wgt_core/GenDsp.c ****                 return false;
 292              		.loc 1 95 16 view .LVU72
 293 0086 BB42     		cmp	r3, r7
 294 0088 2EDD     		ble	.L25
  98:Dsp/widget/wgt_core/GenDsp.c ****                 GenDsp_DrawPoint(map, x, y, col_inv ^ map[y][x]);
 295              		.loc 1 98 13 is_stmt 1 view .LVU73
  98:Dsp/widget/wgt_core/GenDsp.c ****                 GenDsp_DrawPoint(map, x, y, col_inv ^ map[y][x]);
 296              		.loc 1 98 16 is_stmt 0 view .LVU74
 297 008a 16F0800F 		tst	r6, #128
 298 008e DDD1     		bne	.L28
 101:Dsp/widget/wgt_core/GenDsp.c **** 
 299              		.loc 1 101 17 is_stmt 1 view .LVU75
 101:Dsp/widget/wgt_core/GenDsp.c **** 
 300              		.loc 1 101 45 is_stmt 0 view .LVU76
 301 0090 8BF00103 		eor	r3, fp, #1
 101:Dsp/widget/wgt_core/GenDsp.c **** 
 302              		.loc 1 101 59 view .LVU77
 303 0094 58F82420 		ldr	r2, [r8, r4, lsl #2]
 101:Dsp/widget/wgt_core/GenDsp.c **** 
 304              		.loc 1 101 62 view .LVU78
 305 0098 D25D     		ldrb	r2, [r2, r7]	@ zero_extendqisi2
 101:Dsp/widget/wgt_core/GenDsp.c **** 
 306              		.loc 1 101 17 view .LVU79
 307 009a 9B1A     		subs	r3, r3, r2
 308 009c 18BF     		it	ne
 309 009e 0123     		movne	r3, #1
 310 00a0 2246     		mov	r2, r4
 311 00a2 3946     		mov	r1, r7
 312 00a4 4046     		mov	r0, r8
 313 00a6 FFF7FEFF 		bl	GenDsp_DrawPoint
 314              	.LVL23:
 315 00aa DBE7     		b	.L18
 316              	.L27:
 107:Dsp/widget/wgt_core/GenDsp.c ****             {
 108:Dsp/widget/wgt_core/GenDsp.c ****                 y = y0;
 317              		.loc 1 108 17 is_stmt 1 view .LVU80
 318              	.LVL24:
 109:Dsp/widget/wgt_core/GenDsp.c ****                 x++;
 319              		.loc 1 109 17 view .LVU81
 320              		.loc 1 109 18 is_stmt 0 view .LVU82
 321 00ac 0137     		adds	r7, r7, #1
 322              	.LVL25:
 323              		.loc 1 109 18 view .LVU83
 324 00ae 3FB2     		sxth	r7, r7
 325              	.LVL26:
 110:Dsp/widget/wgt_core/GenDsp.c **** 
 111:Dsp/widget/wgt_core/GenDsp.c ****                 break;
 326              		.loc 1 111 17 is_stmt 1 view .LVU84
 108:Dsp/widget/wgt_core/GenDsp.c ****                 x++;
 327              		.loc 1 108 19 is_stmt 0 view .LVU85
ARM GAS  C:\Users\huav\AppData\Local\Temp\ccuxtYbi.s 			page 9


 328 00b0 5446     		mov	r4, r10
 329              	.LVL27:
 330              	.L20:
 108:Dsp/widget/wgt_core/GenDsp.c ****                 x++;
 331              		.loc 1 108 19 view .LVU86
 332              	.LBE3:
  84:Dsp/widget/wgt_core/GenDsp.c ****     {
 333              		.loc 1 84 35 is_stmt 1 discriminator 2 view .LVU87
  84:Dsp/widget/wgt_core/GenDsp.c ****     {
 334              		.loc 1 84 36 is_stmt 0 discriminator 2 view .LVU88
 335 00b2 009B     		ldr	r3, [sp]
 336 00b4 0133     		adds	r3, r3, #1
 337 00b6 DBB2     		uxtb	r3, r3
 338 00b8 0093     		str	r3, [sp]
 339              	.LVL28:
 340              	.L13:
  84:Dsp/widget/wgt_core/GenDsp.c ****     {
 341              		.loc 1 84 25 is_stmt 1 discriminator 1 view .LVU89
  84:Dsp/widget/wgt_core/GenDsp.c ****     {
 342              		.loc 1 84 5 is_stmt 0 discriminator 1 view .LVU90
 343 00ba 009B     		ldr	r3, [sp]
 344 00bc 4B45     		cmp	r3, r9
 345 00be 0FD2     		bcs	.L29
  86:Dsp/widget/wgt_core/GenDsp.c ****             temp = oled_asc2_1206[c][t];
 346              		.loc 1 86 9 is_stmt 1 view .LVU91
  86:Dsp/widget/wgt_core/GenDsp.c ****             temp = oled_asc2_1206[c][t];
 347              		.loc 1 86 12 is_stmt 0 view .LVU92
 348 00c0 B9F10C0F 		cmp	r9, #12
 349 00c4 B1D0     		beq	.L30
  88:Dsp/widget/wgt_core/GenDsp.c ****             temp = oled_asc2_1608[c][t];
 350              		.loc 1 88 14 is_stmt 1 view .LVU93
  88:Dsp/widget/wgt_core/GenDsp.c ****             temp = oled_asc2_1608[c][t];
 351              		.loc 1 88 17 is_stmt 0 view .LVU94
 352 00c6 B9F1100F 		cmp	r9, #16
 353 00ca B8D0     		beq	.L31
  90:Dsp/widget/wgt_core/GenDsp.c ****             temp = oled_asc2_0808[c][t];
 354              		.loc 1 90 14 is_stmt 1 view .LVU95
  90:Dsp/widget/wgt_core/GenDsp.c ****             temp = oled_asc2_0808[c][t];
 355              		.loc 1 90 17 is_stmt 0 view .LVU96
 356 00cc B9F1080F 		cmp	r9, #8
 357 00d0 B3D1     		bne	.L15
  91:Dsp/widget/wgt_core/GenDsp.c **** 
 358              		.loc 1 91 13 is_stmt 1 view .LVU97
  91:Dsp/widget/wgt_core/GenDsp.c **** 
 359              		.loc 1 91 18 is_stmt 0 view .LVU98
 360 00d2 0A4B     		ldr	r3, .L32+12
 361 00d4 019A     		ldr	r2, [sp, #4]
 362 00d6 03EBC203 		add	r3, r3, r2, lsl #3
 363 00da 009A     		ldr	r2, [sp]
 364 00dc 9E5C     		ldrb	r6, [r3, r2]	@ zero_extendqisi2
 365              	.LVL29:
  91:Dsp/widget/wgt_core/GenDsp.c **** 
 366              		.loc 1 91 18 view .LVU99
 367 00de ACE7     		b	.L15
 368              	.L29:
  91:Dsp/widget/wgt_core/GenDsp.c **** 
 369              		.loc 1 91 18 view .LVU100
ARM GAS  C:\Users\huav\AppData\Local\Temp\ccuxtYbi.s 			page 10


 370              	.LBE5:
 112:Dsp/widget/wgt_core/GenDsp.c ****             }
 113:Dsp/widget/wgt_core/GenDsp.c ****         }
 114:Dsp/widget/wgt_core/GenDsp.c ****     }
 115:Dsp/widget/wgt_core/GenDsp.c **** 
 116:Dsp/widget/wgt_core/GenDsp.c ****     return true;
 371              		.loc 1 116 12 view .LVU101
 372 00e0 0120     		movs	r0, #1
 373              	.LBB6:
 374 00e2 02E0     		b	.L12
 375              	.LVL30:
 376              	.L24:
 377              		.loc 1 116 12 view .LVU102
 378              	.LBE6:
  82:Dsp/widget/wgt_core/GenDsp.c **** 
 379              		.loc 1 82 16 view .LVU103
 380 00e4 0020     		movs	r0, #0
 381              	.LVL31:
  82:Dsp/widget/wgt_core/GenDsp.c **** 
 382              		.loc 1 82 16 view .LVU104
 383 00e6 00E0     		b	.L12
 384              	.LVL32:
 385              	.L25:
 386              	.LBB7:
 387              	.LBB4:
  96:Dsp/widget/wgt_core/GenDsp.c **** 
 388              		.loc 1 96 24 view .LVU105
 389 00e8 0020     		movs	r0, #0
 390              	.LVL33:
 391              	.L12:
  96:Dsp/widget/wgt_core/GenDsp.c **** 
 392              		.loc 1 96 24 view .LVU106
 393              	.LBE4:
 394              	.LBE7:
 117:Dsp/widget/wgt_core/GenDsp.c **** }
 395              		.loc 1 117 1 view .LVU107
 396 00ea 03B0     		add	sp, sp, #12
 397              	.LCFI7:
 398              		.cfi_def_cfa_offset 36
 399              		@ sp needed
 400 00ec BDE8F08F 		pop	{r4, r5, r6, r7, r8, r9, r10, fp, pc}
 401              	.LVL34:
 402              	.L33:
 403              		.loc 1 117 1 view .LVU108
 404              		.align	2
 405              	.L32:
 406 00f0 00000000 		.word	.LANCHOR0
 407 00f4 00000000 		.word	oled_asc2_1206
 408 00f8 00000000 		.word	oled_asc2_1608
 409 00fc 00000000 		.word	oled_asc2_0808
 410              		.cfi_endproc
 411              	.LFE5:
 413              		.section	.text.GenDsp_DrawStr,"ax",%progbits
 414              		.align	1
 415              		.syntax unified
 416              		.thumb
 417              		.thumb_func
ARM GAS  C:\Users\huav\AppData\Local\Temp\ccuxtYbi.s 			page 11


 418              		.fpu fpv4-sp-d16
 420              	GenDsp_DrawStr:
 421              	.LVL35:
 422              	.LFB6:
 118:Dsp/widget/wgt_core/GenDsp.c **** 
 119:Dsp/widget/wgt_core/GenDsp.c **** static void GenDsp_DrawStr(GenFont_List font, uint8_t **map, char *str, int16_t x, int16_t y, bool 
 120:Dsp/widget/wgt_core/GenDsp.c **** {
 423              		.loc 1 120 1 is_stmt 1 view -0
 424              		.cfi_startproc
 425              		@ args = 8, pretend = 0, frame = 0
 426              		@ frame_needed = 0, uses_anonymous_args = 0
 427              		.loc 1 120 1 is_stmt 0 view .LVU110
 428 0000 2DE9F043 		push	{r4, r5, r6, r7, r8, r9, lr}
 429              	.LCFI8:
 430              		.cfi_def_cfa_offset 28
 431              		.cfi_offset 4, -28
 432              		.cfi_offset 5, -24
 433              		.cfi_offset 6, -20
 434              		.cfi_offset 7, -16
 435              		.cfi_offset 8, -12
 436              		.cfi_offset 9, -8
 437              		.cfi_offset 14, -4
 438 0004 83B0     		sub	sp, sp, #12
 439              	.LCFI9:
 440              		.cfi_def_cfa_offset 40
 441 0006 0746     		mov	r7, r0
 442 0008 0E46     		mov	r6, r1
 443 000a 1546     		mov	r5, r2
 444 000c 1C46     		mov	r4, r3
 445 000e BDF92890 		ldrsh	r9, [sp, #40]
 446 0012 9DF82C80 		ldrb	r8, [sp, #44]	@ zero_extendqisi2
 121:Dsp/widget/wgt_core/GenDsp.c ****     while (*str != '\0')
 447              		.loc 1 121 5 is_stmt 1 view .LVU111
 448              		.loc 1 121 11 is_stmt 0 view .LVU112
 449 0016 02E0     		b	.L35
 450              	.LVL36:
 451              	.L39:
 122:Dsp/widget/wgt_core/GenDsp.c ****     {
 123:Dsp/widget/wgt_core/GenDsp.c ****         if (GenDsp_DrawChar(font, map, *str, x, y, col_inv))
 124:Dsp/widget/wgt_core/GenDsp.c ****         {
 125:Dsp/widget/wgt_core/GenDsp.c ****             x += FONT_WIDTH;
 452              		.loc 1 125 13 is_stmt 1 view .LVU113
 453              		.loc 1 125 15 is_stmt 0 view .LVU114
 454 0018 0834     		adds	r4, r4, #8
 455              	.LVL37:
 456              		.loc 1 125 15 view .LVU115
 457 001a 24B2     		sxth	r4, r4
 458              	.LVL38:
 126:Dsp/widget/wgt_core/GenDsp.c ****             str++;
 459              		.loc 1 126 13 is_stmt 1 view .LVU116
 460              		.loc 1 126 16 is_stmt 0 view .LVU117
 461 001c 0135     		adds	r5, r5, #1
 462              	.LVL39:
 463              	.L35:
 121:Dsp/widget/wgt_core/GenDsp.c ****     while (*str != '\0')
 464              		.loc 1 121 11 is_stmt 1 view .LVU118
 121:Dsp/widget/wgt_core/GenDsp.c ****     while (*str != '\0')
ARM GAS  C:\Users\huav\AppData\Local\Temp\ccuxtYbi.s 			page 12


 465              		.loc 1 121 12 is_stmt 0 view .LVU119
 466 001e 2A78     		ldrb	r2, [r5]	@ zero_extendqisi2
 121:Dsp/widget/wgt_core/GenDsp.c ****     while (*str != '\0')
 467              		.loc 1 121 11 view .LVU120
 468 0020 52B1     		cbz	r2, .L34
 123:Dsp/widget/wgt_core/GenDsp.c ****         {
 469              		.loc 1 123 9 is_stmt 1 view .LVU121
 123:Dsp/widget/wgt_core/GenDsp.c ****         {
 470              		.loc 1 123 13 is_stmt 0 view .LVU122
 471 0022 CDF80480 		str	r8, [sp, #4]
 472 0026 CDF80090 		str	r9, [sp]
 473 002a 2346     		mov	r3, r4
 474 002c 3146     		mov	r1, r6
 475 002e 3846     		mov	r0, r7
 476 0030 FFF7FEFF 		bl	GenDsp_DrawChar
 477              	.LVL40:
 123:Dsp/widget/wgt_core/GenDsp.c ****         {
 478              		.loc 1 123 12 view .LVU123
 479 0034 0028     		cmp	r0, #0
 480 0036 EFD1     		bne	.L39
 481              	.L34:
 127:Dsp/widget/wgt_core/GenDsp.c ****         }
 128:Dsp/widget/wgt_core/GenDsp.c ****         else
 129:Dsp/widget/wgt_core/GenDsp.c ****             break;
 130:Dsp/widget/wgt_core/GenDsp.c ****     }
 131:Dsp/widget/wgt_core/GenDsp.c **** }
 482              		.loc 1 131 1 view .LVU124
 483 0038 03B0     		add	sp, sp, #12
 484              	.LCFI10:
 485              		.cfi_def_cfa_offset 28
 486              		@ sp needed
 487 003a BDE8F083 		pop	{r4, r5, r6, r7, r8, r9, pc}
 488              		.loc 1 131 1 view .LVU125
 489              		.cfi_endproc
 490              	.LFE6:
 492              		.section	.text.GenDsp_GetStrLen,"ax",%progbits
 493              		.align	1
 494              		.syntax unified
 495              		.thumb
 496              		.thumb_func
 497              		.fpu fpv4-sp-d16
 499              	GenDsp_GetStrLen:
 500              	.LVL41:
 501              	.LFB8:
 132:Dsp/widget/wgt_core/GenDsp.c **** 
 133:Dsp/widget/wgt_core/GenDsp.c **** static void GenDsp_DrawNum(GenFont_List font, uint8_t **map, uint32_t num, int16_t x, int16_t y, bo
 134:Dsp/widget/wgt_core/GenDsp.c **** {
 135:Dsp/widget/wgt_core/GenDsp.c ****     char num_buff[MAX_DSP_NUM_LEN];
 136:Dsp/widget/wgt_core/GenDsp.c **** 
 137:Dsp/widget/wgt_core/GenDsp.c ****     sprintf(num_buff, "%d", num);
 138:Dsp/widget/wgt_core/GenDsp.c ****     GenDsp_DrawStr(font, map, num_buff, x, y, col_inv);
 139:Dsp/widget/wgt_core/GenDsp.c **** }
 140:Dsp/widget/wgt_core/GenDsp.c **** 
 141:Dsp/widget/wgt_core/GenDsp.c **** static uint8_t GenDsp_GetStrLen(GenFont_List font, char *str)
 142:Dsp/widget/wgt_core/GenDsp.c **** {
 502              		.loc 1 142 1 is_stmt 1 view -0
 503              		.cfi_startproc
ARM GAS  C:\Users\huav\AppData\Local\Temp\ccuxtYbi.s 			page 13


 504              		@ args = 0, pretend = 0, frame = 0
 505              		@ frame_needed = 0, uses_anonymous_args = 0
 506              		@ link register save eliminated.
 143:Dsp/widget/wgt_core/GenDsp.c ****     uint8_t len = 0;
 507              		.loc 1 143 5 view .LVU127
 144:Dsp/widget/wgt_core/GenDsp.c **** 
 145:Dsp/widget/wgt_core/GenDsp.c ****     while (*str != '\0')
 508              		.loc 1 145 5 view .LVU128
 143:Dsp/widget/wgt_core/GenDsp.c ****     uint8_t len = 0;
 509              		.loc 1 143 13 is_stmt 0 view .LVU129
 510 0000 0020     		movs	r0, #0
 511              	.LVL42:
 512              		.loc 1 145 11 view .LVU130
 513 0002 02E0     		b	.L41
 514              	.LVL43:
 515              	.L42:
 146:Dsp/widget/wgt_core/GenDsp.c ****     {
 147:Dsp/widget/wgt_core/GenDsp.c ****         len += FONT_WIDTH;
 516              		.loc 1 147 9 is_stmt 1 view .LVU131
 517              		.loc 1 147 13 is_stmt 0 view .LVU132
 518 0004 0830     		adds	r0, r0, #8
 519              	.LVL44:
 520              		.loc 1 147 13 view .LVU133
 521 0006 C0B2     		uxtb	r0, r0
 522              	.LVL45:
 148:Dsp/widget/wgt_core/GenDsp.c ****         str++;
 523              		.loc 1 148 9 is_stmt 1 view .LVU134
 524              		.loc 1 148 12 is_stmt 0 view .LVU135
 525 0008 0131     		adds	r1, r1, #1
 526              	.LVL46:
 527              	.L41:
 145:Dsp/widget/wgt_core/GenDsp.c ****     {
 528              		.loc 1 145 11 is_stmt 1 view .LVU136
 145:Dsp/widget/wgt_core/GenDsp.c ****     {
 529              		.loc 1 145 12 is_stmt 0 view .LVU137
 530 000a 0B78     		ldrb	r3, [r1]	@ zero_extendqisi2
 145:Dsp/widget/wgt_core/GenDsp.c ****     {
 531              		.loc 1 145 11 view .LVU138
 532 000c 002B     		cmp	r3, #0
 533 000e F9D1     		bne	.L42
 149:Dsp/widget/wgt_core/GenDsp.c ****     }
 150:Dsp/widget/wgt_core/GenDsp.c **** 
 151:Dsp/widget/wgt_core/GenDsp.c ****     return len;
 534              		.loc 1 151 5 is_stmt 1 view .LVU139
 152:Dsp/widget/wgt_core/GenDsp.c **** }
 535              		.loc 1 152 1 is_stmt 0 view .LVU140
 536 0010 7047     		bx	lr
 537              		.cfi_endproc
 538              	.LFE8:
 540              		.section	.text.GenDsp_DrawLen,"ax",%progbits
 541              		.align	1
 542              		.syntax unified
 543              		.thumb
 544              		.thumb_func
 545              		.fpu fpv4-sp-d16
 547              	GenDsp_DrawLen:
 548              	.LVL47:
ARM GAS  C:\Users\huav\AppData\Local\Temp\ccuxtYbi.s 			page 14


 549              	.LFB9:
 153:Dsp/widget/wgt_core/GenDsp.c **** 
 154:Dsp/widget/wgt_core/GenDsp.c **** static void GenDsp_DrawLen(uint8_t **map, int8_t start_x, int8_t start_y, int8_t end_x, int8_t end_
 155:Dsp/widget/wgt_core/GenDsp.c **** {
 550              		.loc 1 155 1 is_stmt 1 view -0
 551              		.cfi_startproc
 552              		@ args = 12, pretend = 0, frame = 16
 553              		@ frame_needed = 0, uses_anonymous_args = 0
 554              		.loc 1 155 1 is_stmt 0 view .LVU142
 555 0000 2DE9F04F 		push	{r4, r5, r6, r7, r8, r9, r10, fp, lr}
 556              	.LCFI11:
 557              		.cfi_def_cfa_offset 36
 558              		.cfi_offset 4, -36
 559              		.cfi_offset 5, -32
 560              		.cfi_offset 6, -28
 561              		.cfi_offset 7, -24
 562              		.cfi_offset 8, -20
 563              		.cfi_offset 9, -16
 564              		.cfi_offset 10, -12
 565              		.cfi_offset 11, -8
 566              		.cfi_offset 14, -4
 567 0004 85B0     		sub	sp, sp, #20
 568              	.LCFI12:
 569              		.cfi_def_cfa_offset 56
 570 0006 0090     		str	r0, [sp]
 571 0008 8846     		mov	r8, r1
 572 000a 9146     		mov	r9, r2
 573 000c 9DF84020 		ldrb	r2, [sp, #64]	@ zero_extendqisi2
 574              	.LVL48:
 575              		.loc 1 155 1 view .LVU143
 576 0010 0192     		str	r2, [sp, #4]
 156:Dsp/widget/wgt_core/GenDsp.c ****     int16_t xerr = 0;
 577              		.loc 1 156 5 is_stmt 1 view .LVU144
 578              	.LVL49:
 157:Dsp/widget/wgt_core/GenDsp.c ****     int16_t yerr = 0;
 579              		.loc 1 157 5 view .LVU145
 158:Dsp/widget/wgt_core/GenDsp.c ****     int8_t delta_x = end_x - start_x;
 580              		.loc 1 158 5 view .LVU146
 581              		.loc 1 158 28 is_stmt 0 view .LVU147
 582 0012 DBB2     		uxtb	r3, r3
 583              		.loc 1 158 28 view .LVU148
 584 0014 C9B2     		uxtb	r1, r1
 585              		.loc 1 158 28 view .LVU149
 586 0016 A3EB010A 		sub	r10, r3, r1
 587              		.loc 1 158 12 view .LVU150
 588 001a 4FFA8AFA 		sxtb	r10, r10
 589              	.LVL50:
 159:Dsp/widget/wgt_core/GenDsp.c ****     int8_t delta_y = end_y - start_y;
 590              		.loc 1 159 5 is_stmt 1 view .LVU151
 591              		.loc 1 159 28 is_stmt 0 view .LVU152
 592 001e 9DF83800 		ldrb	r0, [sp, #56]	@ zero_extendqisi2
 593              	.LVL51:
 594              		.loc 1 159 28 view .LVU153
 595 0022 5FFA89F2 		uxtb	r2, r9
 596 0026 A0EB020B 		sub	fp, r0, r2
 597              		.loc 1 159 12 view .LVU154
 598 002a 4FFA8BFB 		sxtb	fp, fp
ARM GAS  C:\Users\huav\AppData\Local\Temp\ccuxtYbi.s 			page 15


 599              	.LVL52:
 160:Dsp/widget/wgt_core/GenDsp.c ****     int16_t distance;
 600              		.loc 1 160 5 is_stmt 1 view .LVU155
 161:Dsp/widget/wgt_core/GenDsp.c ****     int8_t uRow = start_x;
 601              		.loc 1 161 5 view .LVU156
 162:Dsp/widget/wgt_core/GenDsp.c ****     int8_t uCol = start_y;
 602              		.loc 1 162 5 view .LVU157
 163:Dsp/widget/wgt_core/GenDsp.c **** 
 164:Dsp/widget/wgt_core/GenDsp.c ****     int8_t incx, incy;
 603              		.loc 1 164 5 view .LVU158
 165:Dsp/widget/wgt_core/GenDsp.c **** 
 166:Dsp/widget/wgt_core/GenDsp.c ****     if (delta_x > 0)
 604              		.loc 1 166 5 view .LVU159
 605              		.loc 1 166 8 is_stmt 0 view .LVU160
 606 002e BAF1000F 		cmp	r10, #0
 607 0032 0EDD     		ble	.L57
 167:Dsp/widget/wgt_core/GenDsp.c ****     {
 168:Dsp/widget/wgt_core/GenDsp.c ****         incx = 1;
 608              		.loc 1 168 14 view .LVU161
 609 0034 0123     		movs	r3, #1
 610              	.LVL53:
 611              		.loc 1 168 14 view .LVU162
 612 0036 0293     		str	r3, [sp, #8]
 613              	.L44:
 614              	.LVL54:
 169:Dsp/widget/wgt_core/GenDsp.c ****     }
 170:Dsp/widget/wgt_core/GenDsp.c ****     else if (delta_x == 0)
 171:Dsp/widget/wgt_core/GenDsp.c ****     {
 172:Dsp/widget/wgt_core/GenDsp.c ****         incx = 0;
 173:Dsp/widget/wgt_core/GenDsp.c ****     }
 174:Dsp/widget/wgt_core/GenDsp.c ****     else
 175:Dsp/widget/wgt_core/GenDsp.c ****     {
 176:Dsp/widget/wgt_core/GenDsp.c ****         incx = -1;
 177:Dsp/widget/wgt_core/GenDsp.c ****         delta_x = -delta_x;
 178:Dsp/widget/wgt_core/GenDsp.c ****     }
 179:Dsp/widget/wgt_core/GenDsp.c **** 
 180:Dsp/widget/wgt_core/GenDsp.c ****     if (delta_y > 0)
 615              		.loc 1 180 5 is_stmt 1 view .LVU163
 616              		.loc 1 180 8 is_stmt 0 view .LVU164
 617 0038 BBF1000F 		cmp	fp, #0
 618 003c 16DD     		ble	.L58
 181:Dsp/widget/wgt_core/GenDsp.c ****     {
 182:Dsp/widget/wgt_core/GenDsp.c ****         incy = 1;
 619              		.loc 1 182 14 view .LVU165
 620 003e 0123     		movs	r3, #1
 621 0040 0393     		str	r3, [sp, #12]
 622              	.L45:
 623              	.LVL55:
 183:Dsp/widget/wgt_core/GenDsp.c ****     }
 184:Dsp/widget/wgt_core/GenDsp.c ****     else if (delta_y == 0)
 185:Dsp/widget/wgt_core/GenDsp.c ****     {
 186:Dsp/widget/wgt_core/GenDsp.c ****         incy = 0;
 187:Dsp/widget/wgt_core/GenDsp.c ****     }
 188:Dsp/widget/wgt_core/GenDsp.c ****     else
 189:Dsp/widget/wgt_core/GenDsp.c ****     {
 190:Dsp/widget/wgt_core/GenDsp.c ****         incy = -1;
 191:Dsp/widget/wgt_core/GenDsp.c ****         delta_y = -delta_y;
ARM GAS  C:\Users\huav\AppData\Local\Temp\ccuxtYbi.s 			page 16


 192:Dsp/widget/wgt_core/GenDsp.c ****     }
 193:Dsp/widget/wgt_core/GenDsp.c **** 
 194:Dsp/widget/wgt_core/GenDsp.c ****     if (delta_x > delta_y)
 624              		.loc 1 194 5 is_stmt 1 view .LVU166
 625              		.loc 1 194 8 is_stmt 0 view .LVU167
 626 0042 DA45     		cmp	r10, fp
 627 0044 1FDD     		ble	.L46
 195:Dsp/widget/wgt_core/GenDsp.c ****     {
 196:Dsp/widget/wgt_core/GenDsp.c ****         distance = delta_x;
 628              		.loc 1 196 9 is_stmt 1 view .LVU168
 629              		.loc 1 196 18 is_stmt 0 view .LVU169
 630 0046 0FFA8AF7 		sxth	r7, r10
 631              	.LVL56:
 632              	.L47:
 197:Dsp/widget/wgt_core/GenDsp.c ****     }
 198:Dsp/widget/wgt_core/GenDsp.c ****     else
 199:Dsp/widget/wgt_core/GenDsp.c ****     {
 200:Dsp/widget/wgt_core/GenDsp.c ****         distance = delta_y;
 201:Dsp/widget/wgt_core/GenDsp.c ****     }
 202:Dsp/widget/wgt_core/GenDsp.c **** 
 203:Dsp/widget/wgt_core/GenDsp.c ****     for (uint8_t t = 0; t < distance + 1; t++)
 633              		.loc 1 203 5 is_stmt 1 view .LVU170
 634              	.LBB8:
 635              		.loc 1 203 10 view .LVU171
 636              		.loc 1 203 18 is_stmt 0 view .LVU172
 637 004a 0026     		movs	r6, #0
 638              	.LBE8:
 157:Dsp/widget/wgt_core/GenDsp.c ****     int8_t delta_x = end_x - start_x;
 639              		.loc 1 157 13 view .LVU173
 640 004c 3546     		mov	r5, r6
 156:Dsp/widget/wgt_core/GenDsp.c ****     int16_t yerr = 0;
 641              		.loc 1 156 13 view .LVU174
 642 004e 3446     		mov	r4, r6
 643              	.LBB9:
 644              		.loc 1 203 5 view .LVU175
 645 0050 1EE0     		b	.L48
 646              	.LVL57:
 647              	.L57:
 648              		.loc 1 203 5 view .LVU176
 649              	.LBE9:
 170:Dsp/widget/wgt_core/GenDsp.c ****     {
 650              		.loc 1 170 10 is_stmt 1 view .LVU177
 170:Dsp/widget/wgt_core/GenDsp.c ****     {
 651              		.loc 1 170 13 is_stmt 0 view .LVU178
 652 0052 BAF1000F 		cmp	r10, #0
 653 0056 06D0     		beq	.L53
 176:Dsp/widget/wgt_core/GenDsp.c ****         delta_x = -delta_x;
 654              		.loc 1 176 9 is_stmt 1 view .LVU179
 655              	.LVL58:
 177:Dsp/widget/wgt_core/GenDsp.c ****     }
 656              		.loc 1 177 9 view .LVU180
 177:Dsp/widget/wgt_core/GenDsp.c ****     }
 657              		.loc 1 177 17 is_stmt 0 view .LVU181
 658 0058 CB1A     		subs	r3, r1, r3
 659 005a 4FFA83FA 		sxtb	r10, r3
 660              	.LVL59:
 176:Dsp/widget/wgt_core/GenDsp.c ****         delta_x = -delta_x;
ARM GAS  C:\Users\huav\AppData\Local\Temp\ccuxtYbi.s 			page 17


 661              		.loc 1 176 14 view .LVU182
 662 005e 4FF0FF33 		mov	r3, #-1
 663 0062 0293     		str	r3, [sp, #8]
 664 0064 E8E7     		b	.L44
 665              	.LVL60:
 666              	.L53:
 172:Dsp/widget/wgt_core/GenDsp.c ****     }
 667              		.loc 1 172 14 view .LVU183
 668 0066 CDF808A0 		str	r10, [sp, #8]
 669 006a E5E7     		b	.L44
 670              	.LVL61:
 671              	.L58:
 184:Dsp/widget/wgt_core/GenDsp.c ****     {
 672              		.loc 1 184 10 is_stmt 1 view .LVU184
 184:Dsp/widget/wgt_core/GenDsp.c ****     {
 673              		.loc 1 184 13 is_stmt 0 view .LVU185
 674 006c BBF1000F 		cmp	fp, #0
 675 0070 06D0     		beq	.L55
 190:Dsp/widget/wgt_core/GenDsp.c ****         delta_y = -delta_y;
 676              		.loc 1 190 9 is_stmt 1 view .LVU186
 677              	.LVL62:
 191:Dsp/widget/wgt_core/GenDsp.c ****     }
 678              		.loc 1 191 9 view .LVU187
 191:Dsp/widget/wgt_core/GenDsp.c ****     }
 679              		.loc 1 191 17 is_stmt 0 view .LVU188
 680 0072 121A     		subs	r2, r2, r0
 681 0074 4FFA82FB 		sxtb	fp, r2
 682              	.LVL63:
 190:Dsp/widget/wgt_core/GenDsp.c ****         delta_y = -delta_y;
 683              		.loc 1 190 14 view .LVU189
 684 0078 4FF0FF33 		mov	r3, #-1
 685 007c 0393     		str	r3, [sp, #12]
 686 007e E0E7     		b	.L45
 687              	.LVL64:
 688              	.L55:
 186:Dsp/widget/wgt_core/GenDsp.c ****     }
 689              		.loc 1 186 14 view .LVU190
 690 0080 CDF80CB0 		str	fp, [sp, #12]
 691 0084 DDE7     		b	.L45
 692              	.LVL65:
 693              	.L46:
 200:Dsp/widget/wgt_core/GenDsp.c ****     }
 694              		.loc 1 200 9 is_stmt 1 view .LVU191
 200:Dsp/widget/wgt_core/GenDsp.c ****     }
 695              		.loc 1 200 18 is_stmt 0 view .LVU192
 696 0086 0FFA8BF7 		sxth	r7, fp
 697              	.LVL66:
 200:Dsp/widget/wgt_core/GenDsp.c ****     }
 698              		.loc 1 200 18 view .LVU193
 699 008a DEE7     		b	.L47
 700              	.LVL67:
 701              	.L50:
 702              	.LBB10:
 703              		.loc 1 203 43 is_stmt 1 discriminator 2 view .LVU194
 704              		.loc 1 203 44 is_stmt 0 discriminator 2 view .LVU195
 705 008c 0136     		adds	r6, r6, #1
 706              	.LVL68:
ARM GAS  C:\Users\huav\AppData\Local\Temp\ccuxtYbi.s 			page 18


 707              		.loc 1 203 44 discriminator 2 view .LVU196
 708 008e F6B2     		uxtb	r6, r6
 709              	.LVL69:
 710              	.L48:
 711              		.loc 1 203 25 is_stmt 1 discriminator 1 view .LVU197
 712              		.loc 1 203 5 is_stmt 0 discriminator 1 view .LVU198
 713 0090 B742     		cmp	r7, r6
 714 0092 1CDB     		blt	.L59
 204:Dsp/widget/wgt_core/GenDsp.c ****     {
 205:Dsp/widget/wgt_core/GenDsp.c ****         GenDsp_DrawPoint(map, uRow, uCol, col_inv);
 715              		.loc 1 205 9 is_stmt 1 view .LVU199
 716 0094 019B     		ldr	r3, [sp, #4]
 717 0096 4A46     		mov	r2, r9
 718 0098 4146     		mov	r1, r8
 719 009a 0098     		ldr	r0, [sp]
 720 009c FFF7FEFF 		bl	GenDsp_DrawPoint
 721              	.LVL70:
 206:Dsp/widget/wgt_core/GenDsp.c **** 
 207:Dsp/widget/wgt_core/GenDsp.c ****         xerr += delta_x;
 722              		.loc 1 207 9 view .LVU200
 723              		.loc 1 207 14 is_stmt 0 view .LVU201
 724 00a0 5444     		add	r4, r4, r10
 725              	.LVL71:
 726              		.loc 1 207 14 view .LVU202
 727 00a2 A2B2     		uxth	r2, r4
 728 00a4 24B2     		sxth	r4, r4
 729              	.LVL72:
 208:Dsp/widget/wgt_core/GenDsp.c ****         yerr += delta_y;
 730              		.loc 1 208 9 is_stmt 1 view .LVU203
 731              		.loc 1 208 14 is_stmt 0 view .LVU204
 732 00a6 5D44     		add	r5, r5, fp
 733              	.LVL73:
 734              		.loc 1 208 14 view .LVU205
 735 00a8 ABB2     		uxth	r3, r5
 736 00aa 2DB2     		sxth	r5, r5
 737              	.LVL74:
 209:Dsp/widget/wgt_core/GenDsp.c **** 
 210:Dsp/widget/wgt_core/GenDsp.c ****         if (xerr >= distance)
 738              		.loc 1 210 9 is_stmt 1 view .LVU206
 739              		.loc 1 210 12 is_stmt 0 view .LVU207
 740 00ac A742     		cmp	r7, r4
 741 00ae 05DC     		bgt	.L49
 211:Dsp/widget/wgt_core/GenDsp.c ****         {
 212:Dsp/widget/wgt_core/GenDsp.c ****             xerr -= distance;
 742              		.loc 1 212 13 is_stmt 1 view .LVU208
 743              		.loc 1 212 18 is_stmt 0 view .LVU209
 744 00b0 D21B     		subs	r2, r2, r7
 745 00b2 14B2     		sxth	r4, r2
 746              	.LVL75:
 213:Dsp/widget/wgt_core/GenDsp.c ****             uRow += incx;
 747              		.loc 1 213 13 is_stmt 1 view .LVU210
 748              		.loc 1 213 18 is_stmt 0 view .LVU211
 749 00b4 029A     		ldr	r2, [sp, #8]
 750 00b6 9044     		add	r8, r8, r2
 751              	.LVL76:
 752              		.loc 1 213 18 view .LVU212
 753 00b8 4FFA88F8 		sxtb	r8, r8
ARM GAS  C:\Users\huav\AppData\Local\Temp\ccuxtYbi.s 			page 19


 754              	.LVL77:
 755              	.L49:
 214:Dsp/widget/wgt_core/GenDsp.c ****         }
 215:Dsp/widget/wgt_core/GenDsp.c ****         if (yerr >= distance)
 756              		.loc 1 215 9 is_stmt 1 view .LVU213
 757              		.loc 1 215 12 is_stmt 0 view .LVU214
 758 00bc AF42     		cmp	r7, r5
 759 00be E5DC     		bgt	.L50
 216:Dsp/widget/wgt_core/GenDsp.c ****         {
 217:Dsp/widget/wgt_core/GenDsp.c ****             yerr -= distance;
 760              		.loc 1 217 13 is_stmt 1 view .LVU215
 761              		.loc 1 217 18 is_stmt 0 view .LVU216
 762 00c0 DB1B     		subs	r3, r3, r7
 763 00c2 1DB2     		sxth	r5, r3
 764              	.LVL78:
 218:Dsp/widget/wgt_core/GenDsp.c ****             uCol += incy;
 765              		.loc 1 218 13 is_stmt 1 view .LVU217
 766              		.loc 1 218 18 is_stmt 0 view .LVU218
 767 00c4 039B     		ldr	r3, [sp, #12]
 768 00c6 9944     		add	r9, r9, r3
 769              	.LVL79:
 770              		.loc 1 218 18 view .LVU219
 771 00c8 4FFA89F9 		sxtb	r9, r9
 772              	.LVL80:
 773              		.loc 1 218 18 view .LVU220
 774 00cc DEE7     		b	.L50
 775              	.L59:
 776              		.loc 1 218 18 view .LVU221
 777              	.LBE10:
 219:Dsp/widget/wgt_core/GenDsp.c ****         }
 220:Dsp/widget/wgt_core/GenDsp.c ****     }
 221:Dsp/widget/wgt_core/GenDsp.c **** }
 778              		.loc 1 221 1 view .LVU222
 779 00ce 05B0     		add	sp, sp, #20
 780              	.LCFI13:
 781              		.cfi_def_cfa_offset 36
 782              	.LVL81:
 783              		.loc 1 221 1 view .LVU223
 784              		@ sp needed
 785 00d0 BDE8F08F 		pop	{r4, r5, r6, r7, r8, r9, r10, fp, pc}
 786              		.loc 1 221 1 view .LVU224
 787              		.cfi_endproc
 788              	.LFE9:
 790              		.section	.text.GenDsp_Draw_VLine,"ax",%progbits
 791              		.align	1
 792              		.syntax unified
 793              		.thumb
 794              		.thumb_func
 795              		.fpu fpv4-sp-d16
 797              	GenDsp_Draw_VLine:
 798              	.LVL82:
 799              	.LFB10:
 222:Dsp/widget/wgt_core/GenDsp.c **** 
 223:Dsp/widget/wgt_core/GenDsp.c **** static void GenDsp_Draw_VLine(uint8_t **map, int16_t x, int16_t y, uint8_t len, uint8_t line_width,
 224:Dsp/widget/wgt_core/GenDsp.c **** {
 800              		.loc 1 224 1 is_stmt 1 view -0
 801              		.cfi_startproc
ARM GAS  C:\Users\huav\AppData\Local\Temp\ccuxtYbi.s 			page 20


 802              		@ args = 8, pretend = 0, frame = 0
 803              		@ frame_needed = 0, uses_anonymous_args = 0
 804              		.loc 1 224 1 is_stmt 0 view .LVU226
 805 0000 10B5     		push	{r4, lr}
 806              	.LCFI14:
 807              		.cfi_def_cfa_offset 8
 808              		.cfi_offset 4, -8
 809              		.cfi_offset 14, -4
 810 0002 84B0     		sub	sp, sp, #16
 811              	.LCFI15:
 812              		.cfi_def_cfa_offset 24
 225:Dsp/widget/wgt_core/GenDsp.c ****     GenDsp_DrawLen(map, x, y, x, y + len, line_width, col_inv);
 813              		.loc 1 225 5 is_stmt 1 view .LVU227
 814 0004 49B2     		sxtb	r1, r1
 815              	.LVL83:
 816              		.loc 1 225 36 is_stmt 0 view .LVU228
 817 0006 9C18     		adds	r4, r3, r2
 818              		.loc 1 225 5 view .LVU229
 819 0008 9DF81C30 		ldrb	r3, [sp, #28]	@ zero_extendqisi2
 820              	.LVL84:
 821              		.loc 1 225 5 view .LVU230
 822 000c 0293     		str	r3, [sp, #8]
 823 000e 9DF81830 		ldrb	r3, [sp, #24]	@ zero_extendqisi2
 824 0012 0193     		str	r3, [sp, #4]
 825 0014 64B2     		sxtb	r4, r4
 826 0016 0094     		str	r4, [sp]
 827 0018 0B46     		mov	r3, r1
 828 001a 52B2     		sxtb	r2, r2
 829              	.LVL85:
 830              		.loc 1 225 5 view .LVU231
 831 001c FFF7FEFF 		bl	GenDsp_DrawLen
 832              	.LVL86:
 226:Dsp/widget/wgt_core/GenDsp.c **** }
 833              		.loc 1 226 1 view .LVU232
 834 0020 04B0     		add	sp, sp, #16
 835              	.LCFI16:
 836              		.cfi_def_cfa_offset 8
 837              		@ sp needed
 838 0022 10BD     		pop	{r4, pc}
 839              		.loc 1 226 1 view .LVU233
 840              		.cfi_endproc
 841              	.LFE10:
 843              		.section	.text.GenDsp_Draw_HLine,"ax",%progbits
 844              		.align	1
 845              		.syntax unified
 846              		.thumb
 847              		.thumb_func
 848              		.fpu fpv4-sp-d16
 850              	GenDsp_Draw_HLine:
 851              	.LVL87:
 852              	.LFB11:
 227:Dsp/widget/wgt_core/GenDsp.c **** 
 228:Dsp/widget/wgt_core/GenDsp.c **** static void GenDsp_Draw_HLine(uint8_t **map, int16_t x, int16_t y, uint8_t len, uint8_t line_width,
 229:Dsp/widget/wgt_core/GenDsp.c **** {
 853              		.loc 1 229 1 is_stmt 1 view -0
 854              		.cfi_startproc
 855              		@ args = 8, pretend = 0, frame = 0
ARM GAS  C:\Users\huav\AppData\Local\Temp\ccuxtYbi.s 			page 21


 856              		@ frame_needed = 0, uses_anonymous_args = 0
 857              		.loc 1 229 1 is_stmt 0 view .LVU235
 858 0000 10B5     		push	{r4, lr}
 859              	.LCFI17:
 860              		.cfi_def_cfa_offset 8
 861              		.cfi_offset 4, -8
 862              		.cfi_offset 14, -4
 863 0002 84B0     		sub	sp, sp, #16
 864              	.LCFI18:
 865              		.cfi_def_cfa_offset 24
 230:Dsp/widget/wgt_core/GenDsp.c ****     GenDsp_DrawLen(map, x, y, x + len, y, line_width, col_inv);
 866              		.loc 1 230 5 is_stmt 1 view .LVU236
 867 0004 52B2     		sxtb	r2, r2
 868              	.LVL88:
 869              		.loc 1 230 33 is_stmt 0 view .LVU237
 870 0006 0B44     		add	r3, r3, r1
 871              	.LVL89:
 872              		.loc 1 230 5 view .LVU238
 873 0008 9DF81C40 		ldrb	r4, [sp, #28]	@ zero_extendqisi2
 874 000c 0294     		str	r4, [sp, #8]
 875 000e 9DF81840 		ldrb	r4, [sp, #24]	@ zero_extendqisi2
 876 0012 0194     		str	r4, [sp, #4]
 877 0014 0092     		str	r2, [sp]
 878 0016 5BB2     		sxtb	r3, r3
 879 0018 49B2     		sxtb	r1, r1
 880              	.LVL90:
 881              		.loc 1 230 5 view .LVU239
 882 001a FFF7FEFF 		bl	GenDsp_DrawLen
 883              	.LVL91:
 231:Dsp/widget/wgt_core/GenDsp.c **** }
 884              		.loc 1 231 1 view .LVU240
 885 001e 04B0     		add	sp, sp, #16
 886              	.LCFI19:
 887              		.cfi_def_cfa_offset 8
 888              		@ sp needed
 889 0020 10BD     		pop	{r4, pc}
 890              		.loc 1 231 1 view .LVU241
 891              		.cfi_endproc
 892              	.LFE11:
 894              		.section	.text.GenDsp_Draw_Circle_Section,"ax",%progbits
 895              		.align	1
 896              		.syntax unified
 897              		.thumb
 898              		.thumb_func
 899              		.fpu fpv4-sp-d16
 901              	GenDsp_Draw_Circle_Section:
 902              	.LVL92:
 903              	.LFB12:
 232:Dsp/widget/wgt_core/GenDsp.c **** 
 233:Dsp/widget/wgt_core/GenDsp.c **** static void GenDsp_Draw_Circle_Section(uint8_t **map, int16_t x, int16_t y, int16_t x0, int16_t y0,
 234:Dsp/widget/wgt_core/GenDsp.c **** {
 904              		.loc 1 234 1 is_stmt 1 view -0
 905              		.cfi_startproc
 906              		@ args = 12, pretend = 0, frame = 16
 907              		@ frame_needed = 0, uses_anonymous_args = 0
 908              		.loc 1 234 1 is_stmt 0 view .LVU243
 909 0000 2DE9F04F 		push	{r4, r5, r6, r7, r8, r9, r10, fp, lr}
ARM GAS  C:\Users\huav\AppData\Local\Temp\ccuxtYbi.s 			page 22


 910              	.LCFI20:
 911              		.cfi_def_cfa_offset 36
 912              		.cfi_offset 4, -36
 913              		.cfi_offset 5, -32
 914              		.cfi_offset 6, -28
 915              		.cfi_offset 7, -24
 916              		.cfi_offset 8, -20
 917              		.cfi_offset 9, -16
 918              		.cfi_offset 10, -12
 919              		.cfi_offset 11, -8
 920              		.cfi_offset 14, -4
 921 0004 85B0     		sub	sp, sp, #20
 922              	.LCFI21:
 923              		.cfi_def_cfa_offset 56
 924 0006 0446     		mov	r4, r0
 925 0008 0191     		str	r1, [sp, #4]
 926 000a 0292     		str	r2, [sp, #8]
 927 000c 0393     		str	r3, [sp, #12]
 928 000e BDF93870 		ldrsh	r7, [sp, #56]
 929 0012 9DF83C50 		ldrb	r5, [sp, #60]	@ zero_extendqisi2
 930 0016 9DF84060 		ldrb	r6, [sp, #64]	@ zero_extendqisi2
 235:Dsp/widget/wgt_core/GenDsp.c ****     /* upper right */
 236:Dsp/widget/wgt_core/GenDsp.c ****     if (option & DRAW_UPPER_RIGHT)
 931              		.loc 1 236 5 is_stmt 1 view .LVU244
 932              		.loc 1 236 8 is_stmt 0 view .LVU245
 933 001a 15F0010F 		tst	r5, #1
 934 001e 0BD1     		bne	.L70
 935              	.LVL93:
 936              	.L65:
 237:Dsp/widget/wgt_core/GenDsp.c ****     {
 238:Dsp/widget/wgt_core/GenDsp.c ****         GenDsp_DrawPoint(map, x0 + x, y0 - y, col_inv);
 239:Dsp/widget/wgt_core/GenDsp.c ****         GenDsp_DrawPoint(map, x0 + y, y0 - x, col_inv);
 240:Dsp/widget/wgt_core/GenDsp.c ****     }
 241:Dsp/widget/wgt_core/GenDsp.c **** 
 242:Dsp/widget/wgt_core/GenDsp.c ****     /* upper left */
 243:Dsp/widget/wgt_core/GenDsp.c ****     if (option & DRAW_UPPER_LEFT)
 937              		.loc 1 243 5 is_stmt 1 view .LVU246
 938              		.loc 1 243 8 is_stmt 0 view .LVU247
 939 0020 15F0020F 		tst	r5, #2
 940 0024 24D1     		bne	.L71
 941              	.L66:
 244:Dsp/widget/wgt_core/GenDsp.c ****     {
 245:Dsp/widget/wgt_core/GenDsp.c ****         GenDsp_DrawPoint(map, x0 - x, y0 - y, col_inv);
 246:Dsp/widget/wgt_core/GenDsp.c ****         GenDsp_DrawPoint(map, x0 - y, y0 - x, col_inv);
 247:Dsp/widget/wgt_core/GenDsp.c ****     }
 248:Dsp/widget/wgt_core/GenDsp.c **** 
 249:Dsp/widget/wgt_core/GenDsp.c ****     /* lower right */
 250:Dsp/widget/wgt_core/GenDsp.c ****     if (option & DRAW_LOWER_RIGHT)
 942              		.loc 1 250 5 is_stmt 1 view .LVU248
 943              		.loc 1 250 8 is_stmt 0 view .LVU249
 944 0026 15F0080F 		tst	r5, #8
 945 002a 3ED1     		bne	.L72
 946              	.L67:
 251:Dsp/widget/wgt_core/GenDsp.c ****     {
 252:Dsp/widget/wgt_core/GenDsp.c ****         GenDsp_DrawPoint(map, x0 + x, y0 + y, col_inv);
 253:Dsp/widget/wgt_core/GenDsp.c ****         GenDsp_DrawPoint(map, x0 + y, y0 + x, col_inv);
 254:Dsp/widget/wgt_core/GenDsp.c ****     }
ARM GAS  C:\Users\huav\AppData\Local\Temp\ccuxtYbi.s 			page 23


 255:Dsp/widget/wgt_core/GenDsp.c **** 
 256:Dsp/widget/wgt_core/GenDsp.c ****     /* lower left */
 257:Dsp/widget/wgt_core/GenDsp.c ****     if (option & DRAW_LOWER_LEFT)
 947              		.loc 1 257 5 is_stmt 1 view .LVU250
 948              		.loc 1 257 8 is_stmt 0 view .LVU251
 949 002c 15F0040F 		tst	r5, #4
 950 0030 58D1     		bne	.L73
 951              	.L64:
 258:Dsp/widget/wgt_core/GenDsp.c ****     {
 259:Dsp/widget/wgt_core/GenDsp.c ****         GenDsp_DrawPoint(map, x0 - x, y0 + y, col_inv);
 260:Dsp/widget/wgt_core/GenDsp.c ****         GenDsp_DrawPoint(map, x0 - y, y0 + x, col_inv);
 261:Dsp/widget/wgt_core/GenDsp.c ****     }
 262:Dsp/widget/wgt_core/GenDsp.c **** }
 952              		.loc 1 262 1 view .LVU252
 953 0032 05B0     		add	sp, sp, #20
 954              	.LCFI22:
 955              		.cfi_remember_state
 956              		.cfi_def_cfa_offset 36
 957              		@ sp needed
 958 0034 BDE8F08F 		pop	{r4, r5, r6, r7, r8, r9, r10, fp, pc}
 959              	.LVL94:
 960              	.L70:
 961              	.LCFI23:
 962              		.cfi_restore_state
 238:Dsp/widget/wgt_core/GenDsp.c ****         GenDsp_DrawPoint(map, x0 + y, y0 - x, col_inv);
 963              		.loc 1 238 9 is_stmt 1 view .LVU253
 238:Dsp/widget/wgt_core/GenDsp.c ****         GenDsp_DrawPoint(map, x0 + y, y0 - x, col_inv);
 964              		.loc 1 238 34 is_stmt 0 view .LVU254
 965 0038 BDF80C80 		ldrh	r8, [sp, #12]
 966 003c BDF804A0 		ldrh	r10, [sp, #4]
 967 0040 08EB0A01 		add	r1, r8, r10
 968              	.LVL95:
 238:Dsp/widget/wgt_core/GenDsp.c ****         GenDsp_DrawPoint(map, x0 + y, y0 - x, col_inv);
 969              		.loc 1 238 42 view .LVU255
 970 0044 1FFA87F9 		uxth	r9, r7
 971 0048 BDF808B0 		ldrh	fp, [sp, #8]
 972 004c A9EB0B02 		sub	r2, r9, fp
 973              	.LVL96:
 238:Dsp/widget/wgt_core/GenDsp.c ****         GenDsp_DrawPoint(map, x0 + y, y0 - x, col_inv);
 974              		.loc 1 238 9 view .LVU256
 975 0050 3346     		mov	r3, r6
 976              	.LVL97:
 238:Dsp/widget/wgt_core/GenDsp.c ****         GenDsp_DrawPoint(map, x0 + y, y0 - x, col_inv);
 977              		.loc 1 238 9 view .LVU257
 978 0052 12B2     		sxth	r2, r2
 979 0054 09B2     		sxth	r1, r1
 980 0056 FFF7FEFF 		bl	GenDsp_DrawPoint
 981              	.LVL98:
 239:Dsp/widget/wgt_core/GenDsp.c ****     }
 982              		.loc 1 239 9 is_stmt 1 view .LVU258
 239:Dsp/widget/wgt_core/GenDsp.c ****     }
 983              		.loc 1 239 34 is_stmt 0 view .LVU259
 984 005a 08EB0B01 		add	r1, r8, fp
 239:Dsp/widget/wgt_core/GenDsp.c ****     }
 985              		.loc 1 239 42 view .LVU260
 986 005e A9EB0A02 		sub	r2, r9, r10
 239:Dsp/widget/wgt_core/GenDsp.c ****     }
ARM GAS  C:\Users\huav\AppData\Local\Temp\ccuxtYbi.s 			page 24


 987              		.loc 1 239 9 view .LVU261
 988 0062 3346     		mov	r3, r6
 989 0064 12B2     		sxth	r2, r2
 990 0066 09B2     		sxth	r1, r1
 991 0068 2046     		mov	r0, r4
 992 006a FFF7FEFF 		bl	GenDsp_DrawPoint
 993              	.LVL99:
 994 006e D7E7     		b	.L65
 995              	.L71:
 245:Dsp/widget/wgt_core/GenDsp.c ****         GenDsp_DrawPoint(map, x0 - y, y0 - x, col_inv);
 996              		.loc 1 245 9 is_stmt 1 view .LVU262
 245:Dsp/widget/wgt_core/GenDsp.c ****         GenDsp_DrawPoint(map, x0 - y, y0 - x, col_inv);
 997              		.loc 1 245 34 is_stmt 0 view .LVU263
 998 0070 BDF80C80 		ldrh	r8, [sp, #12]
 999 0074 BDF804A0 		ldrh	r10, [sp, #4]
 1000 0078 A8EB0A01 		sub	r1, r8, r10
 245:Dsp/widget/wgt_core/GenDsp.c ****         GenDsp_DrawPoint(map, x0 - y, y0 - x, col_inv);
 1001              		.loc 1 245 42 view .LVU264
 1002 007c 1FFA87F9 		uxth	r9, r7
 1003 0080 BDF808B0 		ldrh	fp, [sp, #8]
 1004 0084 A9EB0B02 		sub	r2, r9, fp
 245:Dsp/widget/wgt_core/GenDsp.c ****         GenDsp_DrawPoint(map, x0 - y, y0 - x, col_inv);
 1005              		.loc 1 245 9 view .LVU265
 1006 0088 3346     		mov	r3, r6
 1007 008a 12B2     		sxth	r2, r2
 1008 008c 09B2     		sxth	r1, r1
 1009 008e 2046     		mov	r0, r4
 1010 0090 FFF7FEFF 		bl	GenDsp_DrawPoint
 1011              	.LVL100:
 246:Dsp/widget/wgt_core/GenDsp.c ****     }
 1012              		.loc 1 246 9 is_stmt 1 view .LVU266
 246:Dsp/widget/wgt_core/GenDsp.c ****     }
 1013              		.loc 1 246 34 is_stmt 0 view .LVU267
 1014 0094 A8EB0B01 		sub	r1, r8, fp
 246:Dsp/widget/wgt_core/GenDsp.c ****     }
 1015              		.loc 1 246 42 view .LVU268
 1016 0098 A9EB0A02 		sub	r2, r9, r10
 246:Dsp/widget/wgt_core/GenDsp.c ****     }
 1017              		.loc 1 246 9 view .LVU269
 1018 009c 3346     		mov	r3, r6
 1019 009e 12B2     		sxth	r2, r2
 1020 00a0 09B2     		sxth	r1, r1
 1021 00a2 2046     		mov	r0, r4
 1022 00a4 FFF7FEFF 		bl	GenDsp_DrawPoint
 1023              	.LVL101:
 1024 00a8 BDE7     		b	.L66
 1025              	.L72:
 252:Dsp/widget/wgt_core/GenDsp.c ****         GenDsp_DrawPoint(map, x0 + y, y0 + x, col_inv);
 1026              		.loc 1 252 9 is_stmt 1 view .LVU270
 252:Dsp/widget/wgt_core/GenDsp.c ****         GenDsp_DrawPoint(map, x0 + y, y0 + x, col_inv);
 1027              		.loc 1 252 34 is_stmt 0 view .LVU271
 1028 00aa BDF80C80 		ldrh	r8, [sp, #12]
 1029 00ae BDF80490 		ldrh	r9, [sp, #4]
 1030 00b2 08EB0901 		add	r1, r8, r9
 252:Dsp/widget/wgt_core/GenDsp.c ****         GenDsp_DrawPoint(map, x0 + y, y0 + x, col_inv);
 1031              		.loc 1 252 42 view .LVU272
 1032 00b6 1FFA87FA 		uxth	r10, r7
ARM GAS  C:\Users\huav\AppData\Local\Temp\ccuxtYbi.s 			page 25


 1033 00ba BDF808B0 		ldrh	fp, [sp, #8]
 1034 00be 0AEB0B02 		add	r2, r10, fp
 252:Dsp/widget/wgt_core/GenDsp.c ****         GenDsp_DrawPoint(map, x0 + y, y0 + x, col_inv);
 1035              		.loc 1 252 9 view .LVU273
 1036 00c2 3346     		mov	r3, r6
 1037 00c4 12B2     		sxth	r2, r2
 1038 00c6 09B2     		sxth	r1, r1
 1039 00c8 2046     		mov	r0, r4
 1040 00ca FFF7FEFF 		bl	GenDsp_DrawPoint
 1041              	.LVL102:
 253:Dsp/widget/wgt_core/GenDsp.c ****     }
 1042              		.loc 1 253 9 is_stmt 1 view .LVU274
 253:Dsp/widget/wgt_core/GenDsp.c ****     }
 1043              		.loc 1 253 34 is_stmt 0 view .LVU275
 1044 00ce 08EB0B01 		add	r1, r8, fp
 253:Dsp/widget/wgt_core/GenDsp.c ****     }
 1045              		.loc 1 253 42 view .LVU276
 1046 00d2 09EB0A02 		add	r2, r9, r10
 253:Dsp/widget/wgt_core/GenDsp.c ****     }
 1047              		.loc 1 253 9 view .LVU277
 1048 00d6 3346     		mov	r3, r6
 1049 00d8 12B2     		sxth	r2, r2
 1050 00da 09B2     		sxth	r1, r1
 1051 00dc 2046     		mov	r0, r4
 1052 00de FFF7FEFF 		bl	GenDsp_DrawPoint
 1053              	.LVL103:
 1054 00e2 A3E7     		b	.L67
 1055              	.L73:
 259:Dsp/widget/wgt_core/GenDsp.c ****         GenDsp_DrawPoint(map, x0 - y, y0 + x, col_inv);
 1056              		.loc 1 259 9 is_stmt 1 view .LVU278
 259:Dsp/widget/wgt_core/GenDsp.c ****         GenDsp_DrawPoint(map, x0 - y, y0 + x, col_inv);
 1057              		.loc 1 259 34 is_stmt 0 view .LVU279
 1058 00e4 BDF80C80 		ldrh	r8, [sp, #12]
 1059 00e8 BDF80490 		ldrh	r9, [sp, #4]
 1060 00ec A8EB0901 		sub	r1, r8, r9
 259:Dsp/widget/wgt_core/GenDsp.c ****         GenDsp_DrawPoint(map, x0 - y, y0 + x, col_inv);
 1061              		.loc 1 259 42 view .LVU280
 1062 00f0 BFB2     		uxth	r7, r7
 1063 00f2 BDF80850 		ldrh	r5, [sp, #8]
 1064 00f6 7A19     		adds	r2, r7, r5
 259:Dsp/widget/wgt_core/GenDsp.c ****         GenDsp_DrawPoint(map, x0 - y, y0 + x, col_inv);
 1065              		.loc 1 259 9 view .LVU281
 1066 00f8 3346     		mov	r3, r6
 1067 00fa 12B2     		sxth	r2, r2
 1068 00fc 09B2     		sxth	r1, r1
 1069 00fe 2046     		mov	r0, r4
 1070 0100 FFF7FEFF 		bl	GenDsp_DrawPoint
 1071              	.LVL104:
 260:Dsp/widget/wgt_core/GenDsp.c ****     }
 1072              		.loc 1 260 9 is_stmt 1 view .LVU282
 260:Dsp/widget/wgt_core/GenDsp.c ****     }
 1073              		.loc 1 260 34 is_stmt 0 view .LVU283
 1074 0104 A8EB0501 		sub	r1, r8, r5
 260:Dsp/widget/wgt_core/GenDsp.c ****     }
 1075              		.loc 1 260 42 view .LVU284
 1076 0108 09EB0702 		add	r2, r9, r7
 260:Dsp/widget/wgt_core/GenDsp.c ****     }
ARM GAS  C:\Users\huav\AppData\Local\Temp\ccuxtYbi.s 			page 26


 1077              		.loc 1 260 9 view .LVU285
 1078 010c 3346     		mov	r3, r6
 1079 010e 12B2     		sxth	r2, r2
 1080 0110 09B2     		sxth	r1, r1
 1081 0112 2046     		mov	r0, r4
 1082 0114 FFF7FEFF 		bl	GenDsp_DrawPoint
 1083              	.LVL105:
 1084              		.loc 1 262 1 view .LVU286
 1085 0118 8BE7     		b	.L64
 1086              		.cfi_endproc
 1087              	.LFE12:
 1089              		.section	.text.GenDsp_Draw_Circle,"ax",%progbits
 1090              		.align	1
 1091              		.syntax unified
 1092              		.thumb
 1093              		.thumb_func
 1094              		.fpu fpv4-sp-d16
 1096              	GenDsp_Draw_Circle:
 1097              	.LVL106:
 1098              	.LFB13:
 263:Dsp/widget/wgt_core/GenDsp.c **** 
 264:Dsp/widget/wgt_core/GenDsp.c **** static void GenDsp_Draw_Circle(uint8_t **map, int16_t x0, int16_t y0, uint8_t rad, uint8_t option, 
 265:Dsp/widget/wgt_core/GenDsp.c **** {
 1099              		.loc 1 265 1 is_stmt 1 view -0
 1100              		.cfi_startproc
 1101              		@ args = 8, pretend = 0, frame = 8
 1102              		@ frame_needed = 0, uses_anonymous_args = 0
 1103              		.loc 1 265 1 is_stmt 0 view .LVU288
 1104 0000 2DE9F04F 		push	{r4, r5, r6, r7, r8, r9, r10, fp, lr}
 1105              	.LCFI24:
 1106              		.cfi_def_cfa_offset 36
 1107              		.cfi_offset 4, -36
 1108              		.cfi_offset 5, -32
 1109              		.cfi_offset 6, -28
 1110              		.cfi_offset 7, -24
 1111              		.cfi_offset 8, -20
 1112              		.cfi_offset 9, -16
 1113              		.cfi_offset 10, -12
 1114              		.cfi_offset 11, -8
 1115              		.cfi_offset 14, -4
 1116 0004 87B0     		sub	sp, sp, #28
 1117              	.LCFI25:
 1118              		.cfi_def_cfa_offset 64
 1119 0006 0490     		str	r0, [sp, #16]
 1120 0008 0591     		str	r1, [sp, #20]
 1121 000a 9146     		mov	r9, r2
 1122 000c 9DF840A0 		ldrb	r10, [sp, #64]	@ zero_extendqisi2
 1123 0010 9DF844B0 		ldrb	fp, [sp, #68]	@ zero_extendqisi2
 266:Dsp/widget/wgt_core/GenDsp.c ****     int8_t f;
 1124              		.loc 1 266 5 is_stmt 1 view .LVU289
 267:Dsp/widget/wgt_core/GenDsp.c ****     int8_t ddF_x;
 1125              		.loc 1 267 5 view .LVU290
 268:Dsp/widget/wgt_core/GenDsp.c ****     int8_t ddF_y;
 1126              		.loc 1 268 5 view .LVU291
 269:Dsp/widget/wgt_core/GenDsp.c ****     int16_t x;
 1127              		.loc 1 269 5 view .LVU292
 270:Dsp/widget/wgt_core/GenDsp.c ****     int16_t y;
ARM GAS  C:\Users\huav\AppData\Local\Temp\ccuxtYbi.s 			page 27


 1128              		.loc 1 270 5 view .LVU293
 271:Dsp/widget/wgt_core/GenDsp.c **** 
 272:Dsp/widget/wgt_core/GenDsp.c ****     f = 1;
 1129              		.loc 1 272 5 view .LVU294
 1130              	.LVL107:
 273:Dsp/widget/wgt_core/GenDsp.c ****     f -= rad;
 1131              		.loc 1 273 5 view .LVU295
 1132              		.loc 1 273 7 is_stmt 0 view .LVU296
 1133 0014 C3F10104 		rsb	r4, r3, #1
 1134 0018 64B2     		sxtb	r4, r4
 1135              	.LVL108:
 274:Dsp/widget/wgt_core/GenDsp.c ****     ddF_x = 1;
 1136              		.loc 1 274 5 is_stmt 1 view .LVU297
 275:Dsp/widget/wgt_core/GenDsp.c ****     ddF_y = 0;
 1137              		.loc 1 275 5 view .LVU298
 276:Dsp/widget/wgt_core/GenDsp.c ****     ddF_y -= rad;
 1138              		.loc 1 276 5 view .LVU299
 277:Dsp/widget/wgt_core/GenDsp.c ****     ddF_y *= 2;
 1139              		.loc 1 277 5 view .LVU300
 1140              		.loc 1 277 11 is_stmt 0 view .LVU301
 1141 001a C3EBC318 		rsb	r8, r3, r3, lsl #7
 1142 001e 4FEA4808 		lsl	r8, r8, #1
 1143 0022 4FFA88F8 		sxtb	r8, r8
 1144              	.LVL109:
 278:Dsp/widget/wgt_core/GenDsp.c ****     x = 0;
 1145              		.loc 1 278 5 is_stmt 1 view .LVU302
 279:Dsp/widget/wgt_core/GenDsp.c ****     y = rad;
 1146              		.loc 1 279 5 view .LVU303
 1147              		.loc 1 279 7 is_stmt 0 view .LVU304
 1148 0026 1EB2     		sxth	r6, r3
 1149              	.LVL110:
 280:Dsp/widget/wgt_core/GenDsp.c **** 
 281:Dsp/widget/wgt_core/GenDsp.c ****     GenDsp_Draw_Circle_Section(map, x, y, x0, y0, option, col_inv);
 1150              		.loc 1 281 5 is_stmt 1 view .LVU305
 1151 0028 CDF808B0 		str	fp, [sp, #8]
 1152 002c CDF804A0 		str	r10, [sp, #4]
 1153 0030 0092     		str	r2, [sp]
 1154 0032 0B46     		mov	r3, r1
 1155              	.LVL111:
 1156              		.loc 1 281 5 is_stmt 0 view .LVU306
 1157 0034 3246     		mov	r2, r6
 1158              	.LVL112:
 1159              		.loc 1 281 5 view .LVU307
 1160 0036 0021     		movs	r1, #0
 1161              	.LVL113:
 1162              		.loc 1 281 5 view .LVU308
 1163 0038 FFF7FEFF 		bl	GenDsp_Draw_Circle_Section
 1164              	.LVL114:
 282:Dsp/widget/wgt_core/GenDsp.c **** 
 283:Dsp/widget/wgt_core/GenDsp.c ****     while (x < y)
 1165              		.loc 1 283 5 is_stmt 1 view .LVU309
 278:Dsp/widget/wgt_core/GenDsp.c ****     y = rad;
 1166              		.loc 1 278 7 is_stmt 0 view .LVU310
 1167 003c 0025     		movs	r5, #0
 274:Dsp/widget/wgt_core/GenDsp.c ****     ddF_y = 0;
 1168              		.loc 1 274 11 view .LVU311
 1169 003e 0127     		movs	r7, #1
ARM GAS  C:\Users\huav\AppData\Local\Temp\ccuxtYbi.s 			page 28


 1170              		.loc 1 283 11 view .LVU312
 1171 0040 1BE0     		b	.L75
 1172              	.LVL115:
 1173              	.L80:
 284:Dsp/widget/wgt_core/GenDsp.c ****     {
 285:Dsp/widget/wgt_core/GenDsp.c ****         if (f >= 0)
 286:Dsp/widget/wgt_core/GenDsp.c ****         {
 287:Dsp/widget/wgt_core/GenDsp.c ****             y--;
 1174              		.loc 1 287 13 is_stmt 1 view .LVU313
 1175              		.loc 1 287 14 is_stmt 0 view .LVU314
 1176 0042 013E     		subs	r6, r6, #1
 1177              	.LVL116:
 1178              		.loc 1 287 14 view .LVU315
 1179 0044 36B2     		sxth	r6, r6
 1180              	.LVL117:
 288:Dsp/widget/wgt_core/GenDsp.c ****             ddF_y += 2;
 1181              		.loc 1 288 13 is_stmt 1 view .LVU316
 1182              		.loc 1 288 19 is_stmt 0 view .LVU317
 1183 0046 08F10203 		add	r3, r8, #2
 1184 004a 4FFA83F8 		sxtb	r8, r3
 1185              	.LVL118:
 289:Dsp/widget/wgt_core/GenDsp.c ****             f += ddF_y;
 1186              		.loc 1 289 13 is_stmt 1 view .LVU318
 1187              		.loc 1 289 15 is_stmt 0 view .LVU319
 1188 004e 54FA83F4 		uxtab	r4, r4, r3
 1189              	.LVL119:
 1190              		.loc 1 289 15 view .LVU320
 1191 0052 64B2     		sxtb	r4, r4
 1192              	.LVL120:
 1193              	.L76:
 290:Dsp/widget/wgt_core/GenDsp.c ****         }
 291:Dsp/widget/wgt_core/GenDsp.c ****         x++;
 1194              		.loc 1 291 9 is_stmt 1 view .LVU321
 1195              		.loc 1 291 10 is_stmt 0 view .LVU322
 1196 0054 0135     		adds	r5, r5, #1
 1197              	.LVL121:
 1198              		.loc 1 291 10 view .LVU323
 1199 0056 2DB2     		sxth	r5, r5
 1200              	.LVL122:
 292:Dsp/widget/wgt_core/GenDsp.c ****         ddF_x += 2;
 1201              		.loc 1 292 9 is_stmt 1 view .LVU324
 1202              		.loc 1 292 15 is_stmt 0 view .LVU325
 1203 0058 BB1C     		adds	r3, r7, #2
 1204 005a 5FB2     		sxtb	r7, r3
 1205              	.LVL123:
 293:Dsp/widget/wgt_core/GenDsp.c ****         f += ddF_x;
 1206              		.loc 1 293 9 is_stmt 1 view .LVU326
 1207              		.loc 1 293 11 is_stmt 0 view .LVU327
 1208 005c 54FA83F4 		uxtab	r4, r4, r3
 1209              	.LVL124:
 1210              		.loc 1 293 11 view .LVU328
 1211 0060 64B2     		sxtb	r4, r4
 1212              	.LVL125:
 294:Dsp/widget/wgt_core/GenDsp.c **** 
 295:Dsp/widget/wgt_core/GenDsp.c ****         GenDsp_Draw_Circle_Section(map, x, y, x0, y0, option, col_inv);
 1213              		.loc 1 295 9 is_stmt 1 view .LVU329
 1214 0062 CDF808B0 		str	fp, [sp, #8]
ARM GAS  C:\Users\huav\AppData\Local\Temp\ccuxtYbi.s 			page 29


 1215 0066 CDF804A0 		str	r10, [sp, #4]
 1216 006a CDF80090 		str	r9, [sp]
 1217 006e 059B     		ldr	r3, [sp, #20]
 1218 0070 3246     		mov	r2, r6
 1219 0072 2946     		mov	r1, r5
 1220 0074 0498     		ldr	r0, [sp, #16]
 1221 0076 FFF7FEFF 		bl	GenDsp_Draw_Circle_Section
 1222              	.LVL126:
 1223              	.L75:
 283:Dsp/widget/wgt_core/GenDsp.c ****     {
 1224              		.loc 1 283 11 view .LVU330
 1225 007a B542     		cmp	r5, r6
 1226 007c 02DA     		bge	.L79
 285:Dsp/widget/wgt_core/GenDsp.c ****         {
 1227              		.loc 1 285 9 view .LVU331
 285:Dsp/widget/wgt_core/GenDsp.c ****         {
 1228              		.loc 1 285 12 is_stmt 0 view .LVU332
 1229 007e 002C     		cmp	r4, #0
 1230 0080 DFDA     		bge	.L80
 1231 0082 E7E7     		b	.L76
 1232              	.L79:
 296:Dsp/widget/wgt_core/GenDsp.c ****     }
 297:Dsp/widget/wgt_core/GenDsp.c **** }
 1233              		.loc 1 297 1 view .LVU333
 1234 0084 07B0     		add	sp, sp, #28
 1235              	.LCFI26:
 1236              		.cfi_def_cfa_offset 36
 1237              		@ sp needed
 1238 0086 BDE8F08F 		pop	{r4, r5, r6, r7, r8, r9, r10, fp, pc}
 1239              		.loc 1 297 1 view .LVU334
 1240              		.cfi_endproc
 1241              	.LFE13:
 1243              		.section	.text.GenDsp_DrawCircle,"ax",%progbits
 1244              		.align	1
 1245              		.syntax unified
 1246              		.thumb
 1247              		.thumb_func
 1248              		.fpu fpv4-sp-d16
 1250              	GenDsp_DrawCircle:
 1251              	.LVL127:
 1252              	.LFB14:
 298:Dsp/widget/wgt_core/GenDsp.c **** 
 299:Dsp/widget/wgt_core/GenDsp.c **** static void GenDsp_DrawCircle(uint8_t **map, int16_t x0, int16_t y0, uint8_t rad, uint8_t option, b
 300:Dsp/widget/wgt_core/GenDsp.c **** {
 1253              		.loc 1 300 1 is_stmt 1 view -0
 1254              		.cfi_startproc
 1255              		@ args = 8, pretend = 0, frame = 0
 1256              		@ frame_needed = 0, uses_anonymous_args = 0
 1257              		.loc 1 300 1 is_stmt 0 view .LVU336
 1258 0000 10B5     		push	{r4, lr}
 1259              	.LCFI27:
 1260              		.cfi_def_cfa_offset 8
 1261              		.cfi_offset 4, -8
 1262              		.cfi_offset 14, -4
 1263 0002 82B0     		sub	sp, sp, #8
 1264              	.LCFI28:
 1265              		.cfi_def_cfa_offset 16
ARM GAS  C:\Users\huav\AppData\Local\Temp\ccuxtYbi.s 			page 30


 301:Dsp/widget/wgt_core/GenDsp.c ****     /* draw circle */
 302:Dsp/widget/wgt_core/GenDsp.c ****     GenDsp_Draw_Circle(map, x0, y0, rad, option, col_inv);
 1266              		.loc 1 302 5 is_stmt 1 view .LVU337
 1267 0004 9DF81440 		ldrb	r4, [sp, #20]	@ zero_extendqisi2
 1268 0008 0194     		str	r4, [sp, #4]
 1269 000a 9DF81040 		ldrb	r4, [sp, #16]	@ zero_extendqisi2
 1270 000e 0094     		str	r4, [sp]
 1271 0010 FFF7FEFF 		bl	GenDsp_Draw_Circle
 1272              	.LVL128:
 303:Dsp/widget/wgt_core/GenDsp.c **** }
 1273              		.loc 1 303 1 is_stmt 0 view .LVU338
 1274 0014 02B0     		add	sp, sp, #8
 1275              	.LCFI29:
 1276              		.cfi_def_cfa_offset 8
 1277              		@ sp needed
 1278 0016 10BD     		pop	{r4, pc}
 1279              		.loc 1 303 1 view .LVU339
 1280              		.cfi_endproc
 1281              	.LFE14:
 1283              		.section	.text.GenDsp_DrawRectangle,"ax",%progbits
 1284              		.align	1
 1285              		.syntax unified
 1286              		.thumb
 1287              		.thumb_func
 1288              		.fpu fpv4-sp-d16
 1290              	GenDsp_DrawRectangle:
 1291              	.LVL129:
 1292              	.LFB15:
 304:Dsp/widget/wgt_core/GenDsp.c **** 
 305:Dsp/widget/wgt_core/GenDsp.c **** static void GenDsp_DrawRectangle(uint8_t **map, int16_t x, int16_t y, uint8_t width, uint8_t height
 306:Dsp/widget/wgt_core/GenDsp.c **** {
 1293              		.loc 1 306 1 is_stmt 1 view -0
 1294              		.cfi_startproc
 1295              		@ args = 12, pretend = 0, frame = 8
 1296              		@ frame_needed = 0, uses_anonymous_args = 0
 1297              		.loc 1 306 1 is_stmt 0 view .LVU341
 1298 0000 2DE9F04F 		push	{r4, r5, r6, r7, r8, r9, r10, fp, lr}
 1299              	.LCFI30:
 1300              		.cfi_def_cfa_offset 36
 1301              		.cfi_offset 4, -36
 1302              		.cfi_offset 5, -32
 1303              		.cfi_offset 6, -28
 1304              		.cfi_offset 7, -24
 1305              		.cfi_offset 8, -20
 1306              		.cfi_offset 9, -16
 1307              		.cfi_offset 10, -12
 1308              		.cfi_offset 11, -8
 1309              		.cfi_offset 14, -4
 1310 0004 83B0     		sub	sp, sp, #12
 1311              	.LCFI31:
 1312              		.cfi_def_cfa_offset 48
 1313 0006 0546     		mov	r5, r0
 1314 0008 0191     		str	r1, [sp, #4]
 1315 000a 1446     		mov	r4, r2
 1316 000c 9DF83870 		ldrb	r7, [sp, #56]	@ zero_extendqisi2
 307:Dsp/widget/wgt_core/GenDsp.c ****     int16_t x_tmp = x + width - 1;
 1317              		.loc 1 307 5 is_stmt 1 view .LVU342
ARM GAS  C:\Users\huav\AppData\Local\Temp\ccuxtYbi.s 			page 31


 1318              		.loc 1 307 23 is_stmt 0 view .LVU343
 1319 0010 8AB2     		uxth	r2, r1
 1320              	.LVL130:
 1321              		.loc 1 307 23 view .LVU344
 1322 0012 0092     		str	r2, [sp]
 1323 0014 02EB0308 		add	r8, r2, r3
 1324 0018 1FFA88F8 		uxth	r8, r8
 1325              		.loc 1 307 31 view .LVU345
 1326 001c 08F1FF38 		add	r8, r8, #-1
 1327              		.loc 1 307 13 view .LVU346
 1328 0020 0FFA88F8 		sxth	r8, r8
 1329              	.LVL131:
 308:Dsp/widget/wgt_core/GenDsp.c ****     int16_t y_tmp = y + height - 1;
 1330              		.loc 1 308 5 is_stmt 1 view .LVU347
 1331              		.loc 1 308 23 is_stmt 0 view .LVU348
 1332 0024 9DF83090 		ldrb	r9, [sp, #48]	@ zero_extendqisi2
 1333 0028 A144     		add	r9, r9, r4
 1334 002a 1FFA89F9 		uxth	r9, r9
 1335              		.loc 1 308 32 view .LVU349
 1336 002e 09F1FF39 		add	r9, r9, #-1
 1337              		.loc 1 308 13 view .LVU350
 1338 0032 0FFA89F9 		sxth	r9, r9
 1339              	.LVL132:
 309:Dsp/widget/wgt_core/GenDsp.c **** 
 310:Dsp/widget/wgt_core/GenDsp.c ****     for (uint8_t width_tmp = x; width_tmp < x_tmp + 1; width_tmp++)
 1340              		.loc 1 310 5 is_stmt 1 view .LVU351
 1341              	.LBB11:
 1342              		.loc 1 310 10 view .LVU352
 1343              		.loc 1 310 18 is_stmt 0 view .LVU353
 1344 0036 CEB2     		uxtb	r6, r1
 1345              	.LVL133:
 1346              		.loc 1 310 5 view .LVU354
 1347 0038 1DE0     		b	.L84
 1348              	.LVL134:
 1349              	.L85:
 311:Dsp/widget/wgt_core/GenDsp.c ****     {
 312:Dsp/widget/wgt_core/GenDsp.c ****         if (col_inv)
 313:Dsp/widget/wgt_core/GenDsp.c ****         {
 314:Dsp/widget/wgt_core/GenDsp.c ****             GenDsp_DrawPoint(map, width_tmp, y, col_inv ^ map[y][width_tmp]);
 315:Dsp/widget/wgt_core/GenDsp.c ****             GenDsp_DrawPoint(map, width_tmp, y_tmp, col_inv ^ map[y_tmp][width_tmp]);
 316:Dsp/widget/wgt_core/GenDsp.c ****         }
 317:Dsp/widget/wgt_core/GenDsp.c ****         else
 318:Dsp/widget/wgt_core/GenDsp.c ****         {
 319:Dsp/widget/wgt_core/GenDsp.c ****             GenDsp_DrawPoint(map, width_tmp, y, !col_inv ^ map[y][width_tmp]);
 1350              		.loc 1 319 13 is_stmt 1 view .LVU355
 1351 003a 0FFA86FA 		sxth	r10, r6
 1352              		.loc 1 319 49 is_stmt 0 view .LVU356
 1353 003e 87F0010B 		eor	fp, r7, #1
 1354              		.loc 1 319 63 view .LVU357
 1355 0042 55F82430 		ldr	r3, [r5, r4, lsl #2]
 1356              		.loc 1 319 66 view .LVU358
 1357 0046 9B5D     		ldrb	r3, [r3, r6]	@ zero_extendqisi2
 1358              		.loc 1 319 13 view .LVU359
 1359 0048 BBEB0303 		subs	r3, fp, r3
 1360 004c 18BF     		it	ne
 1361 004e 0123     		movne	r3, #1
 1362 0050 2246     		mov	r2, r4
ARM GAS  C:\Users\huav\AppData\Local\Temp\ccuxtYbi.s 			page 32


 1363 0052 5146     		mov	r1, r10
 1364 0054 2846     		mov	r0, r5
 1365 0056 FFF7FEFF 		bl	GenDsp_DrawPoint
 1366              	.LVL135:
 320:Dsp/widget/wgt_core/GenDsp.c ****             GenDsp_DrawPoint(map, width_tmp, y_tmp, !col_inv ^ map[y_tmp][width_tmp]);
 1367              		.loc 1 320 13 is_stmt 1 view .LVU360
 1368              		.loc 1 320 67 is_stmt 0 view .LVU361
 1369 005a 55F82930 		ldr	r3, [r5, r9, lsl #2]
 1370              		.loc 1 320 74 view .LVU362
 1371 005e 9B5D     		ldrb	r3, [r3, r6]	@ zero_extendqisi2
 1372              		.loc 1 320 13 view .LVU363
 1373 0060 BBEB0303 		subs	r3, fp, r3
 1374 0064 18BF     		it	ne
 1375 0066 0123     		movne	r3, #1
 1376 0068 4A46     		mov	r2, r9
 1377 006a 5146     		mov	r1, r10
 1378 006c 2846     		mov	r0, r5
 1379 006e FFF7FEFF 		bl	GenDsp_DrawPoint
 1380              	.LVL136:
 1381              	.L86:
 310:Dsp/widget/wgt_core/GenDsp.c ****     {
 1382              		.loc 1 310 56 is_stmt 1 discriminator 2 view .LVU364
 310:Dsp/widget/wgt_core/GenDsp.c ****     {
 1383              		.loc 1 310 65 is_stmt 0 discriminator 2 view .LVU365
 1384 0072 0136     		adds	r6, r6, #1
 1385              	.LVL137:
 310:Dsp/widget/wgt_core/GenDsp.c ****     {
 1386              		.loc 1 310 65 discriminator 2 view .LVU366
 1387 0074 F6B2     		uxtb	r6, r6
 1388              	.LVL138:
 1389              	.L84:
 310:Dsp/widget/wgt_core/GenDsp.c ****     {
 1390              		.loc 1 310 33 is_stmt 1 discriminator 1 view .LVU367
 310:Dsp/widget/wgt_core/GenDsp.c ****     {
 1391              		.loc 1 310 5 is_stmt 0 discriminator 1 view .LVU368
 1392 0076 B045     		cmp	r8, r6
 1393 0078 1ADB     		blt	.L93
 312:Dsp/widget/wgt_core/GenDsp.c ****         {
 1394              		.loc 1 312 9 is_stmt 1 view .LVU369
 312:Dsp/widget/wgt_core/GenDsp.c ****         {
 1395              		.loc 1 312 12 is_stmt 0 view .LVU370
 1396 007a 002F     		cmp	r7, #0
 1397 007c DDD0     		beq	.L85
 314:Dsp/widget/wgt_core/GenDsp.c ****             GenDsp_DrawPoint(map, width_tmp, y_tmp, col_inv ^ map[y_tmp][width_tmp]);
 1398              		.loc 1 314 13 is_stmt 1 view .LVU371
 1399 007e 0FFA86FA 		sxth	r10, r6
 314:Dsp/widget/wgt_core/GenDsp.c ****             GenDsp_DrawPoint(map, width_tmp, y_tmp, col_inv ^ map[y_tmp][width_tmp]);
 1400              		.loc 1 314 62 is_stmt 0 view .LVU372
 1401 0082 55F82430 		ldr	r3, [r5, r4, lsl #2]
 314:Dsp/widget/wgt_core/GenDsp.c ****             GenDsp_DrawPoint(map, width_tmp, y_tmp, col_inv ^ map[y_tmp][width_tmp]);
 1402              		.loc 1 314 65 view .LVU373
 1403 0086 9B5D     		ldrb	r3, [r3, r6]	@ zero_extendqisi2
 314:Dsp/widget/wgt_core/GenDsp.c ****             GenDsp_DrawPoint(map, width_tmp, y_tmp, col_inv ^ map[y_tmp][width_tmp]);
 1404              		.loc 1 314 13 view .LVU374
 1405 0088 FB1A     		subs	r3, r7, r3
 1406 008a 18BF     		it	ne
 1407 008c 0123     		movne	r3, #1
ARM GAS  C:\Users\huav\AppData\Local\Temp\ccuxtYbi.s 			page 33


 1408 008e 2246     		mov	r2, r4
 1409 0090 5146     		mov	r1, r10
 1410 0092 2846     		mov	r0, r5
 1411 0094 FFF7FEFF 		bl	GenDsp_DrawPoint
 1412              	.LVL139:
 315:Dsp/widget/wgt_core/GenDsp.c ****         }
 1413              		.loc 1 315 13 is_stmt 1 view .LVU375
 315:Dsp/widget/wgt_core/GenDsp.c ****         }
 1414              		.loc 1 315 66 is_stmt 0 view .LVU376
 1415 0098 55F82930 		ldr	r3, [r5, r9, lsl #2]
 315:Dsp/widget/wgt_core/GenDsp.c ****         }
 1416              		.loc 1 315 73 view .LVU377
 1417 009c 9B5D     		ldrb	r3, [r3, r6]	@ zero_extendqisi2
 315:Dsp/widget/wgt_core/GenDsp.c ****         }
 1418              		.loc 1 315 13 view .LVU378
 1419 009e FB1A     		subs	r3, r7, r3
 1420 00a0 18BF     		it	ne
 1421 00a2 0123     		movne	r3, #1
 1422 00a4 4A46     		mov	r2, r9
 1423 00a6 5146     		mov	r1, r10
 1424 00a8 2846     		mov	r0, r5
 1425 00aa FFF7FEFF 		bl	GenDsp_DrawPoint
 1426              	.LVL140:
 1427 00ae E0E7     		b	.L86
 1428              	.L93:
 315:Dsp/widget/wgt_core/GenDsp.c ****         }
 1429              		.loc 1 315 13 view .LVU379
 1430              	.LBE11:
 321:Dsp/widget/wgt_core/GenDsp.c ****         }
 322:Dsp/widget/wgt_core/GenDsp.c ****     }
 323:Dsp/widget/wgt_core/GenDsp.c **** 
 324:Dsp/widget/wgt_core/GenDsp.c ****     for (uint8_t height_tmp = y + 1; height_tmp < y_tmp; height_tmp++)
 1431              		.loc 1 324 5 is_stmt 1 view .LVU380
 1432              	.LBB12:
 1433              		.loc 1 324 10 view .LVU381
 1434              		.loc 1 324 33 is_stmt 0 view .LVU382
 1435 00b0 E4B2     		uxtb	r4, r4
 1436              		.loc 1 324 18 view .LVU383
 1437 00b2 0134     		adds	r4, r4, #1
 1438 00b4 E4B2     		uxtb	r4, r4
 1439              	.LVL141:
 1440              		.loc 1 324 18 view .LVU384
 1441 00b6 DDF804B0 		ldr	fp, [sp, #4]
 1442              		.loc 1 324 5 view .LVU385
 1443 00ba 20E0     		b	.L88
 1444              	.LVL142:
 1445              	.L89:
 325:Dsp/widget/wgt_core/GenDsp.c ****     {
 326:Dsp/widget/wgt_core/GenDsp.c ****         if (col_inv)
 327:Dsp/widget/wgt_core/GenDsp.c ****         {
 328:Dsp/widget/wgt_core/GenDsp.c **** 
 329:Dsp/widget/wgt_core/GenDsp.c ****             GenDsp_DrawPoint(map, x, height_tmp, col_inv ^ map[height_tmp][x]);
 330:Dsp/widget/wgt_core/GenDsp.c ****             GenDsp_DrawPoint(map, x_tmp, height_tmp, col_inv ^ map[height_tmp][x_tmp]);
 331:Dsp/widget/wgt_core/GenDsp.c ****         }
 332:Dsp/widget/wgt_core/GenDsp.c ****         else
 333:Dsp/widget/wgt_core/GenDsp.c ****         {
 334:Dsp/widget/wgt_core/GenDsp.c ****             GenDsp_DrawPoint(map, x + 1, height_tmp, !col_inv ^ map[height_tmp][x]);
ARM GAS  C:\Users\huav\AppData\Local\Temp\ccuxtYbi.s 			page 34


 1446              		.loc 1 334 13 is_stmt 1 view .LVU386
 1447              		.loc 1 334 37 is_stmt 0 view .LVU387
 1448 00bc 009B     		ldr	r3, [sp]
 1449 00be 591C     		adds	r1, r3, #1
 1450              		.loc 1 334 13 view .LVU388
 1451 00c0 26B2     		sxth	r6, r4
 1452              		.loc 1 334 54 view .LVU389
 1453 00c2 87F0010A 		eor	r10, r7, #1
 1454              		.loc 1 334 68 view .LVU390
 1455 00c6 55F82430 		ldr	r3, [r5, r4, lsl #2]
 1456              		.loc 1 334 80 view .LVU391
 1457 00ca 13F80B30 		ldrb	r3, [r3, fp]	@ zero_extendqisi2
 1458              		.loc 1 334 13 view .LVU392
 1459 00ce BAEB0303 		subs	r3, r10, r3
 1460 00d2 18BF     		it	ne
 1461 00d4 0123     		movne	r3, #1
 1462 00d6 3246     		mov	r2, r6
 1463 00d8 09B2     		sxth	r1, r1
 1464 00da 2846     		mov	r0, r5
 1465 00dc FFF7FEFF 		bl	GenDsp_DrawPoint
 1466              	.LVL143:
 335:Dsp/widget/wgt_core/GenDsp.c ****             GenDsp_DrawPoint(map, x_tmp, height_tmp, !col_inv ^ map[height_tmp][x_tmp]);
 1467              		.loc 1 335 13 is_stmt 1 view .LVU393
 1468              		.loc 1 335 68 is_stmt 0 view .LVU394
 1469 00e0 55F82430 		ldr	r3, [r5, r4, lsl #2]
 1470              		.loc 1 335 80 view .LVU395
 1471 00e4 13F80830 		ldrb	r3, [r3, r8]	@ zero_extendqisi2
 1472              		.loc 1 335 13 view .LVU396
 1473 00e8 BAEB0303 		subs	r3, r10, r3
 1474 00ec 18BF     		it	ne
 1475 00ee 0123     		movne	r3, #1
 1476 00f0 3246     		mov	r2, r6
 1477 00f2 4146     		mov	r1, r8
 1478 00f4 2846     		mov	r0, r5
 1479 00f6 FFF7FEFF 		bl	GenDsp_DrawPoint
 1480              	.LVL144:
 1481              	.L90:
 324:Dsp/widget/wgt_core/GenDsp.c ****     {
 1482              		.loc 1 324 58 is_stmt 1 discriminator 2 view .LVU397
 324:Dsp/widget/wgt_core/GenDsp.c ****     {
 1483              		.loc 1 324 68 is_stmt 0 discriminator 2 view .LVU398
 1484 00fa 0134     		adds	r4, r4, #1
 1485              	.LVL145:
 324:Dsp/widget/wgt_core/GenDsp.c ****     {
 1486              		.loc 1 324 68 discriminator 2 view .LVU399
 1487 00fc E4B2     		uxtb	r4, r4
 1488              	.LVL146:
 1489              	.L88:
 324:Dsp/widget/wgt_core/GenDsp.c ****     {
 1490              		.loc 1 324 38 is_stmt 1 discriminator 1 view .LVU400
 324:Dsp/widget/wgt_core/GenDsp.c ****     {
 1491              		.loc 1 324 5 is_stmt 0 discriminator 1 view .LVU401
 1492 00fe 4C45     		cmp	r4, r9
 1493 0100 1BDA     		bge	.L94
 326:Dsp/widget/wgt_core/GenDsp.c ****         {
 1494              		.loc 1 326 9 is_stmt 1 view .LVU402
 326:Dsp/widget/wgt_core/GenDsp.c ****         {
ARM GAS  C:\Users\huav\AppData\Local\Temp\ccuxtYbi.s 			page 35


 1495              		.loc 1 326 12 is_stmt 0 view .LVU403
 1496 0102 002F     		cmp	r7, #0
 1497 0104 DAD0     		beq	.L89
 329:Dsp/widget/wgt_core/GenDsp.c ****             GenDsp_DrawPoint(map, x_tmp, height_tmp, col_inv ^ map[height_tmp][x_tmp]);
 1498              		.loc 1 329 13 is_stmt 1 view .LVU404
 1499 0106 26B2     		sxth	r6, r4
 329:Dsp/widget/wgt_core/GenDsp.c ****             GenDsp_DrawPoint(map, x_tmp, height_tmp, col_inv ^ map[height_tmp][x_tmp]);
 1500              		.loc 1 329 63 is_stmt 0 view .LVU405
 1501 0108 55F82430 		ldr	r3, [r5, r4, lsl #2]
 329:Dsp/widget/wgt_core/GenDsp.c ****             GenDsp_DrawPoint(map, x_tmp, height_tmp, col_inv ^ map[height_tmp][x_tmp]);
 1502              		.loc 1 329 75 view .LVU406
 1503 010c 13F80B30 		ldrb	r3, [r3, fp]	@ zero_extendqisi2
 329:Dsp/widget/wgt_core/GenDsp.c ****             GenDsp_DrawPoint(map, x_tmp, height_tmp, col_inv ^ map[height_tmp][x_tmp]);
 1504              		.loc 1 329 13 view .LVU407
 1505 0110 FB1A     		subs	r3, r7, r3
 1506 0112 18BF     		it	ne
 1507 0114 0123     		movne	r3, #1
 1508 0116 3246     		mov	r2, r6
 1509 0118 5946     		mov	r1, fp
 1510 011a 2846     		mov	r0, r5
 1511 011c FFF7FEFF 		bl	GenDsp_DrawPoint
 1512              	.LVL147:
 330:Dsp/widget/wgt_core/GenDsp.c ****         }
 1513              		.loc 1 330 13 is_stmt 1 view .LVU408
 330:Dsp/widget/wgt_core/GenDsp.c ****         }
 1514              		.loc 1 330 67 is_stmt 0 view .LVU409
 1515 0120 55F82430 		ldr	r3, [r5, r4, lsl #2]
 330:Dsp/widget/wgt_core/GenDsp.c ****         }
 1516              		.loc 1 330 79 view .LVU410
 1517 0124 13F80830 		ldrb	r3, [r3, r8]	@ zero_extendqisi2
 330:Dsp/widget/wgt_core/GenDsp.c ****         }
 1518              		.loc 1 330 13 view .LVU411
 1519 0128 FB1A     		subs	r3, r7, r3
 1520 012a 18BF     		it	ne
 1521 012c 0123     		movne	r3, #1
 1522 012e 3246     		mov	r2, r6
 1523 0130 4146     		mov	r1, r8
 1524 0132 2846     		mov	r0, r5
 1525 0134 FFF7FEFF 		bl	GenDsp_DrawPoint
 1526              	.LVL148:
 1527 0138 DFE7     		b	.L90
 1528              	.L94:
 330:Dsp/widget/wgt_core/GenDsp.c ****         }
 1529              		.loc 1 330 13 view .LVU412
 1530              	.LBE12:
 336:Dsp/widget/wgt_core/GenDsp.c ****         }
 337:Dsp/widget/wgt_core/GenDsp.c ****     }
 338:Dsp/widget/wgt_core/GenDsp.c **** }
 1531              		.loc 1 338 1 view .LVU413
 1532 013a 03B0     		add	sp, sp, #12
 1533              	.LCFI32:
 1534              		.cfi_def_cfa_offset 36
 1535              	.LVL149:
 1536              		.loc 1 338 1 view .LVU414
 1537              		@ sp needed
 1538 013c BDE8F08F 		pop	{r4, r5, r6, r7, r8, r9, r10, fp, pc}
 1539              		.loc 1 338 1 view .LVU415
ARM GAS  C:\Users\huav\AppData\Local\Temp\ccuxtYbi.s 			page 36


 1540              		.cfi_endproc
 1541              	.LFE15:
 1543              		.section	.text.GenDsp_Draw_RadiusRectangle,"ax",%progbits
 1544              		.align	1
 1545              		.syntax unified
 1546              		.thumb
 1547              		.thumb_func
 1548              		.fpu fpv4-sp-d16
 1550              	GenDsp_Draw_RadiusRectangle:
 1551              	.LVL150:
 1552              	.LFB16:
 339:Dsp/widget/wgt_core/GenDsp.c **** 
 340:Dsp/widget/wgt_core/GenDsp.c **** /* bug in this function */
 341:Dsp/widget/wgt_core/GenDsp.c **** static void GenDsp_Draw_RadiusRectangle(uint8_t **map, int16_t x, int16_t y, uint8_t width, uint8_t
 342:Dsp/widget/wgt_core/GenDsp.c **** {
 1553              		.loc 1 342 1 is_stmt 1 view -0
 1554              		.cfi_startproc
 1555              		@ args = 16, pretend = 0, frame = 32
 1556              		@ frame_needed = 0, uses_anonymous_args = 0
 1557              		.loc 1 342 1 is_stmt 0 view .LVU417
 1558 0000 2DE9F04F 		push	{r4, r5, r6, r7, r8, r9, r10, fp, lr}
 1559              	.LCFI33:
 1560              		.cfi_def_cfa_offset 36
 1561              		.cfi_offset 4, -36
 1562              		.cfi_offset 5, -32
 1563              		.cfi_offset 6, -28
 1564              		.cfi_offset 7, -24
 1565              		.cfi_offset 8, -20
 1566              		.cfi_offset 9, -16
 1567              		.cfi_offset 10, -12
 1568              		.cfi_offset 11, -8
 1569              		.cfi_offset 14, -4
 1570 0004 8DB0     		sub	sp, sp, #52
 1571              	.LCFI34:
 1572              		.cfi_def_cfa_offset 88
 1573 0006 0446     		mov	r4, r0
 1574 0008 9446     		mov	ip, r2
 1575 000a 9DF85C60 		ldrb	r6, [sp, #92]	@ zero_extendqisi2
 1576 000e 9DF86090 		ldrb	r9, [sp, #96]	@ zero_extendqisi2
 1577 0012 9DF86450 		ldrb	r5, [sp, #100]	@ zero_extendqisi2
 343:Dsp/widget/wgt_core/GenDsp.c ****     int16_t x_start = x + radius;
 1578              		.loc 1 343 5 is_stmt 1 view .LVU418
 1579              		.loc 1 343 25 is_stmt 0 view .LVU419
 1580 0016 0791     		str	r1, [sp, #28]
 1581 0018 BDF81C20 		ldrh	r2, [sp, #28]
 1582              	.LVL151:
 1583              		.loc 1 343 25 view .LVU420
 1584 001c B118     		adds	r1, r6, r2
 1585              	.LVL152:
 1586              		.loc 1 343 25 view .LVU421
 1587 001e 8FB2     		uxth	r7, r1
 1588 0020 0997     		str	r7, [sp, #36]
 1589              		.loc 1 343 13 view .LVU422
 1590 0022 09B2     		sxth	r1, r1
 1591 0024 0491     		str	r1, [sp, #16]
 1592              	.LVL153:
 344:Dsp/widget/wgt_core/GenDsp.c ****     int16_t y_start = y + radius;
ARM GAS  C:\Users\huav\AppData\Local\Temp\ccuxtYbi.s 			page 37


 1593              		.loc 1 344 5 is_stmt 1 view .LVU423
 1594              		.loc 1 344 25 is_stmt 0 view .LVU424
 1595 0026 CDF820C0 		str	ip, [sp, #32]
 1596 002a BDF820B0 		ldrh	fp, [sp, #32]
 1597 002e 06EB0B01 		add	r1, r6, fp
 1598 0032 8FB2     		uxth	r7, r1
 1599              		.loc 1 344 13 view .LVU425
 1600 0034 0FFA81FE 		sxth	lr, r1
 1601 0038 CDF814E0 		str	lr, [sp, #20]
 1602              	.LVL154:
 345:Dsp/widget/wgt_core/GenDsp.c **** 
 346:Dsp/widget/wgt_core/GenDsp.c ****     int16_t x_tmp = x + width - 1 - radius;
 1603              		.loc 1 346 5 is_stmt 1 view .LVU426
 1604              		.loc 1 346 23 is_stmt 0 view .LVU427
 1605 003c 1344     		add	r3, r3, r2
 1606              	.LVL155:
 1607              		.loc 1 346 23 view .LVU428
 1608 003e 9BB2     		uxth	r3, r3
 1609              		.loc 1 346 35 view .LVU429
 1610 0040 9A1B     		subs	r2, r3, r6
 1611 0042 013A     		subs	r2, r2, #1
 1612 0044 1FFA82FE 		uxth	lr, r2
 1613 0048 CDF828E0 		str	lr, [sp, #40]
 1614              		.loc 1 346 13 view .LVU430
 1615 004c 12B2     		sxth	r2, r2
 1616 004e 0692     		str	r2, [sp, #24]
 1617              	.LVL156:
 347:Dsp/widget/wgt_core/GenDsp.c ****     int16_t y_tmp = y + height - 1 - radius;
 1618              		.loc 1 347 5 is_stmt 1 view .LVU431
 1619              		.loc 1 347 23 is_stmt 0 view .LVU432
 1620 0050 9DF85820 		ldrb	r2, [sp, #88]	@ zero_extendqisi2
 1621 0054 9344     		add	fp, fp, r2
 1622 0056 1FFA8BFB 		uxth	fp, fp
 1623              		.loc 1 347 36 view .LVU433
 1624 005a ABEB060A 		sub	r10, fp, r6
 1625 005e 0AF1FF3A 		add	r10, r10, #-1
 1626 0062 1FFA8AF8 		uxth	r8, r10
 1627              		.loc 1 347 13 view .LVU434
 1628 0066 0FFA8AFA 		sxth	r10, r10
 1629              	.LVL157:
 348:Dsp/widget/wgt_core/GenDsp.c **** 
 349:Dsp/widget/wgt_core/GenDsp.c ****     int16_t x_tmp_1 = x + width - 1;
 1630              		.loc 1 349 5 is_stmt 1 view .LVU435
 1631              		.loc 1 349 33 is_stmt 0 view .LVU436
 1632 006a 013B     		subs	r3, r3, #1
 1633 006c 9BB2     		uxth	r3, r3
 1634 006e 0B93     		str	r3, [sp, #44]
 1635              	.LVL158:
 350:Dsp/widget/wgt_core/GenDsp.c ****     int16_t y_tmp_1 = y + height - 1;
 1636              		.loc 1 350 5 is_stmt 1 view .LVU437
 1637              		.loc 1 350 34 is_stmt 0 view .LVU438
 1638 0070 0BF1FF3B 		add	fp, fp, #-1
 1639 0074 1FFA8BFB 		uxth	fp, fp
 1640              	.LVL159:
 351:Dsp/widget/wgt_core/GenDsp.c **** 
 352:Dsp/widget/wgt_core/GenDsp.c ****     /* fixed */
 353:Dsp/widget/wgt_core/GenDsp.c ****     GenDsp_Draw_Circle(map, x_start, y_tmp, radius, DRAW_LOWER_LEFT, col_inv);
ARM GAS  C:\Users\huav\AppData\Local\Temp\ccuxtYbi.s 			page 38


 1641              		.loc 1 353 5 is_stmt 1 view .LVU439
 1642 0078 0195     		str	r5, [sp, #4]
 1643 007a 0423     		movs	r3, #4
 1644 007c 0093     		str	r3, [sp]
 1645 007e 3346     		mov	r3, r6
 1646 0080 5246     		mov	r2, r10
 1647 0082 0499     		ldr	r1, [sp, #16]
 1648 0084 FFF7FEFF 		bl	GenDsp_Draw_Circle
 1649              	.LVL160:
 354:Dsp/widget/wgt_core/GenDsp.c ****     GenDsp_DrawLen(map, x, y_start, x, y_tmp, line_size, col_inv);
 1650              		.loc 1 354 5 view .LVU440
 1651 0088 9DF91C10 		ldrsb	r1, [sp, #28]
 1652 008c 7FB2     		sxtb	r7, r7
 1653 008e 4FFA88F8 		sxtb	r8, r8
 1654 0092 0295     		str	r5, [sp, #8]
 1655 0094 CDF80490 		str	r9, [sp, #4]
 1656 0098 CDF80080 		str	r8, [sp]
 1657 009c 0B46     		mov	r3, r1
 1658 009e 3A46     		mov	r2, r7
 1659 00a0 2046     		mov	r0, r4
 1660 00a2 FFF7FEFF 		bl	GenDsp_DrawLen
 1661              	.LVL161:
 355:Dsp/widget/wgt_core/GenDsp.c **** 
 356:Dsp/widget/wgt_core/GenDsp.c ****     GenDsp_Draw_Circle(map, x_tmp, y_tmp, radius, DRAW_LOWER_RIGHT, col_inv);
 1662              		.loc 1 356 5 view .LVU441
 1663 00a6 0195     		str	r5, [sp, #4]
 1664 00a8 0823     		movs	r3, #8
 1665 00aa 0093     		str	r3, [sp]
 1666 00ac 3346     		mov	r3, r6
 1667 00ae 5246     		mov	r2, r10
 1668 00b0 0699     		ldr	r1, [sp, #24]
 1669 00b2 2046     		mov	r0, r4
 1670 00b4 FFF7FEFF 		bl	GenDsp_Draw_Circle
 1671              	.LVL162:
 357:Dsp/widget/wgt_core/GenDsp.c ****     GenDsp_DrawLen(map, x_start, y_tmp_1, x_tmp, y_tmp_1, line_size, col_inv);
 1672              		.loc 1 357 5 view .LVU442
 1673 00b8 9DF924A0 		ldrsb	r10, [sp, #36]
 1674              	.LVL163:
 1675              		.loc 1 357 5 is_stmt 0 view .LVU443
 1676 00bc 4FFA8BF2 		sxtb	r2, fp
 1677 00c0 9DF928B0 		ldrsb	fp, [sp, #40]
 1678              	.LVL164:
 1679              		.loc 1 357 5 view .LVU444
 1680 00c4 0295     		str	r5, [sp, #8]
 1681 00c6 CDF80490 		str	r9, [sp, #4]
 1682 00ca 0092     		str	r2, [sp]
 1683 00cc 5B46     		mov	r3, fp
 1684 00ce 5146     		mov	r1, r10
 1685 00d0 2046     		mov	r0, r4
 1686 00d2 FFF7FEFF 		bl	GenDsp_DrawLen
 1687              	.LVL165:
 358:Dsp/widget/wgt_core/GenDsp.c **** 
 359:Dsp/widget/wgt_core/GenDsp.c ****     GenDsp_Draw_Circle(map, x_start, y_start, radius, DRAW_UPPER_LEFT, col_inv);
 1688              		.loc 1 359 5 is_stmt 1 view .LVU445
 1689 00d6 0195     		str	r5, [sp, #4]
 1690 00d8 0223     		movs	r3, #2
 1691 00da 0093     		str	r3, [sp]
ARM GAS  C:\Users\huav\AppData\Local\Temp\ccuxtYbi.s 			page 39


 1692 00dc 3346     		mov	r3, r6
 1693 00de 059A     		ldr	r2, [sp, #20]
 1694 00e0 0499     		ldr	r1, [sp, #16]
 1695 00e2 2046     		mov	r0, r4
 1696 00e4 FFF7FEFF 		bl	GenDsp_Draw_Circle
 1697              	.LVL166:
 360:Dsp/widget/wgt_core/GenDsp.c ****     GenDsp_DrawLen(map, x_start, y, x_tmp, y, line_size, col_inv);
 1698              		.loc 1 360 5 view .LVU446
 1699 00e8 9DF92020 		ldrsb	r2, [sp, #32]
 1700 00ec 0295     		str	r5, [sp, #8]
 1701 00ee CDF80490 		str	r9, [sp, #4]
 1702 00f2 0092     		str	r2, [sp]
 1703 00f4 5B46     		mov	r3, fp
 1704 00f6 5146     		mov	r1, r10
 1705 00f8 2046     		mov	r0, r4
 1706 00fa FFF7FEFF 		bl	GenDsp_DrawLen
 1707              	.LVL167:
 361:Dsp/widget/wgt_core/GenDsp.c **** 
 362:Dsp/widget/wgt_core/GenDsp.c ****     GenDsp_Draw_Circle(map, x_tmp, y_start, radius, DRAW_UPPER_RIGHT, col_inv);
 1708              		.loc 1 362 5 view .LVU447
 1709 00fe 0195     		str	r5, [sp, #4]
 1710 0100 0123     		movs	r3, #1
 1711 0102 0093     		str	r3, [sp]
 1712 0104 3346     		mov	r3, r6
 1713 0106 059A     		ldr	r2, [sp, #20]
 1714 0108 0699     		ldr	r1, [sp, #24]
 1715 010a 2046     		mov	r0, r4
 1716 010c FFF7FEFF 		bl	GenDsp_Draw_Circle
 1717              	.LVL168:
 363:Dsp/widget/wgt_core/GenDsp.c ****     GenDsp_DrawLen(map, x_tmp_1, y_start, x_tmp_1, y_tmp, line_size, col_inv);
 1718              		.loc 1 363 5 view .LVU448
 1719 0110 9DF92C10 		ldrsb	r1, [sp, #44]
 1720 0114 0295     		str	r5, [sp, #8]
 1721 0116 CDF80490 		str	r9, [sp, #4]
 1722 011a CDF80080 		str	r8, [sp]
 1723 011e 0B46     		mov	r3, r1
 1724 0120 3A46     		mov	r2, r7
 1725 0122 2046     		mov	r0, r4
 1726 0124 FFF7FEFF 		bl	GenDsp_DrawLen
 1727              	.LVL169:
 364:Dsp/widget/wgt_core/GenDsp.c **** }
 1728              		.loc 1 364 1 is_stmt 0 view .LVU449
 1729 0128 0DB0     		add	sp, sp, #52
 1730              	.LCFI35:
 1731              		.cfi_def_cfa_offset 36
 1732              		@ sp needed
 1733 012a BDE8F08F 		pop	{r4, r5, r6, r7, r8, r9, r10, fp, pc}
 1734              		.loc 1 364 1 view .LVU450
 1735              		.cfi_endproc
 1736              	.LFE16:
 1738              		.section	.text.GenDsp_Fill_Circle_Section,"ax",%progbits
 1739              		.align	1
 1740              		.syntax unified
 1741              		.thumb
 1742              		.thumb_func
 1743              		.fpu fpv4-sp-d16
 1745              	GenDsp_Fill_Circle_Section:
ARM GAS  C:\Users\huav\AppData\Local\Temp\ccuxtYbi.s 			page 40


 1746              	.LVL170:
 1747              	.LFB17:
 365:Dsp/widget/wgt_core/GenDsp.c **** 
 366:Dsp/widget/wgt_core/GenDsp.c **** static void GenDsp_Fill_Circle_Section(uint8_t **map, int16_t x, int16_t y, int16_t x0, int16_t y0,
 367:Dsp/widget/wgt_core/GenDsp.c **** {
 1748              		.loc 1 367 1 is_stmt 1 view -0
 1749              		.cfi_startproc
 1750              		@ args = 12, pretend = 0, frame = 16
 1751              		@ frame_needed = 0, uses_anonymous_args = 0
 1752              		.loc 1 367 1 is_stmt 0 view .LVU452
 1753 0000 2DE9F04F 		push	{r4, r5, r6, r7, r8, r9, r10, fp, lr}
 1754              	.LCFI36:
 1755              		.cfi_def_cfa_offset 36
 1756              		.cfi_offset 4, -36
 1757              		.cfi_offset 5, -32
 1758              		.cfi_offset 6, -28
 1759              		.cfi_offset 7, -24
 1760              		.cfi_offset 8, -20
 1761              		.cfi_offset 9, -16
 1762              		.cfi_offset 10, -12
 1763              		.cfi_offset 11, -8
 1764              		.cfi_offset 14, -4
 1765 0004 87B0     		sub	sp, sp, #28
 1766              	.LCFI37:
 1767              		.cfi_def_cfa_offset 64
 1768 0006 0546     		mov	r5, r0
 1769 0008 0C46     		mov	r4, r1
 1770 000a 1646     		mov	r6, r2
 1771 000c 0393     		str	r3, [sp, #12]
 1772 000e BDF94090 		ldrsh	r9, [sp, #64]
 1773 0012 9DF84470 		ldrb	r7, [sp, #68]	@ zero_extendqisi2
 1774 0016 9DF84880 		ldrb	r8, [sp, #72]	@ zero_extendqisi2
 368:Dsp/widget/wgt_core/GenDsp.c ****     /* upper right */
 369:Dsp/widget/wgt_core/GenDsp.c ****     if (option & DRAW_UPPER_RIGHT)
 1775              		.loc 1 369 5 is_stmt 1 view .LVU453
 1776              		.loc 1 369 8 is_stmt 0 view .LVU454
 1777 001a 17F0010F 		tst	r7, #1
 1778 001e 0BD1     		bne	.L103
 1779              	.LVL171:
 1780              	.L98:
 370:Dsp/widget/wgt_core/GenDsp.c ****     {
 371:Dsp/widget/wgt_core/GenDsp.c ****         GenDsp_Draw_VLine(map, x0 + x, y0 - y, y + 1, 1, col_inv);
 372:Dsp/widget/wgt_core/GenDsp.c ****         GenDsp_Draw_VLine(map, x0 + y, y0 - x, x + 1, 1, col_inv);
 373:Dsp/widget/wgt_core/GenDsp.c ****     }
 374:Dsp/widget/wgt_core/GenDsp.c **** 
 375:Dsp/widget/wgt_core/GenDsp.c ****     /* upper left */
 376:Dsp/widget/wgt_core/GenDsp.c ****     if (option & DRAW_UPPER_LEFT)
 1781              		.loc 1 376 5 is_stmt 1 view .LVU455
 1782              		.loc 1 376 8 is_stmt 0 view .LVU456
 1783 0020 17F0020F 		tst	r7, #2
 1784 0024 32D1     		bne	.L104
 1785              	.L99:
 377:Dsp/widget/wgt_core/GenDsp.c ****     {
 378:Dsp/widget/wgt_core/GenDsp.c ****         GenDsp_Draw_VLine(map, x0 - x, y0 - y, y + 1, 1, col_inv);
 379:Dsp/widget/wgt_core/GenDsp.c ****         GenDsp_Draw_VLine(map, x0 - y, y0 - x, x + 1, 1, col_inv);
 380:Dsp/widget/wgt_core/GenDsp.c ****     }
 381:Dsp/widget/wgt_core/GenDsp.c **** 
ARM GAS  C:\Users\huav\AppData\Local\Temp\ccuxtYbi.s 			page 41


 382:Dsp/widget/wgt_core/GenDsp.c ****     /* lower right */
 383:Dsp/widget/wgt_core/GenDsp.c ****     if (option & DRAW_LOWER_RIGHT)
 1786              		.loc 1 383 5 is_stmt 1 view .LVU457
 1787              		.loc 1 383 8 is_stmt 0 view .LVU458
 1788 0026 17F0080F 		tst	r7, #8
 1789 002a 5AD1     		bne	.L105
 1790              	.L100:
 384:Dsp/widget/wgt_core/GenDsp.c ****     {
 385:Dsp/widget/wgt_core/GenDsp.c ****         GenDsp_Draw_VLine(map, x0 + x, y0, y + 1, 1, col_inv);
 386:Dsp/widget/wgt_core/GenDsp.c ****         GenDsp_Draw_VLine(map, x0 + y, y0, x + 1, 1, col_inv);
 387:Dsp/widget/wgt_core/GenDsp.c ****     }
 388:Dsp/widget/wgt_core/GenDsp.c **** 
 389:Dsp/widget/wgt_core/GenDsp.c ****     /* lower left */
 390:Dsp/widget/wgt_core/GenDsp.c ****     if (option & DRAW_LOWER_LEFT)
 1791              		.loc 1 390 5 is_stmt 1 view .LVU459
 1792              		.loc 1 390 8 is_stmt 0 view .LVU460
 1793 002c 17F0040F 		tst	r7, #4
 1794 0030 77D1     		bne	.L106
 1795              	.L97:
 391:Dsp/widget/wgt_core/GenDsp.c ****     {
 392:Dsp/widget/wgt_core/GenDsp.c ****         GenDsp_Draw_VLine(map, x0 - x, y0, y + 1, 1, col_inv);
 393:Dsp/widget/wgt_core/GenDsp.c ****         GenDsp_Draw_VLine(map, x0 - y, y0, x + 1, 1, col_inv);
 394:Dsp/widget/wgt_core/GenDsp.c ****     }
 395:Dsp/widget/wgt_core/GenDsp.c **** }
 1796              		.loc 1 395 1 view .LVU461
 1797 0032 07B0     		add	sp, sp, #28
 1798              	.LCFI38:
 1799              		.cfi_remember_state
 1800              		.cfi_def_cfa_offset 36
 1801              		@ sp needed
 1802 0034 BDE8F08F 		pop	{r4, r5, r6, r7, r8, r9, r10, fp, pc}
 1803              	.LVL172:
 1804              	.L103:
 1805              	.LCFI39:
 1806              		.cfi_restore_state
 371:Dsp/widget/wgt_core/GenDsp.c ****         GenDsp_Draw_VLine(map, x0 + y, y0 - x, x + 1, 1, col_inv);
 1807              		.loc 1 371 9 is_stmt 1 view .LVU462
 371:Dsp/widget/wgt_core/GenDsp.c ****         GenDsp_Draw_VLine(map, x0 + y, y0 - x, x + 1, 1, col_inv);
 1808              		.loc 1 371 35 is_stmt 0 view .LVU463
 1809 0038 BDF80C10 		ldrh	r1, [sp, #12]
 1810              	.LVL173:
 371:Dsp/widget/wgt_core/GenDsp.c ****         GenDsp_Draw_VLine(map, x0 + y, y0 - x, x + 1, 1, col_inv);
 1811              		.loc 1 371 35 view .LVU464
 1812 003c 1FFA84FA 		uxth	r10, r4
 1813 0040 0491     		str	r1, [sp, #16]
 1814 0042 5144     		add	r1, r1, r10
 371:Dsp/widget/wgt_core/GenDsp.c ****         GenDsp_Draw_VLine(map, x0 + y, y0 - x, x + 1, 1, col_inv);
 1815              		.loc 1 371 43 view .LVU465
 1816 0044 1FFA89F2 		uxth	r2, r9
 1817              	.LVL174:
 371:Dsp/widget/wgt_core/GenDsp.c ****         GenDsp_Draw_VLine(map, x0 + y, y0 - x, x + 1, 1, col_inv);
 1818              		.loc 1 371 43 view .LVU466
 1819 0048 1FFA86FB 		uxth	fp, r6
 1820 004c 0592     		str	r2, [sp, #20]
 1821 004e A2EB0B02 		sub	r2, r2, fp
 371:Dsp/widget/wgt_core/GenDsp.c ****         GenDsp_Draw_VLine(map, x0 + y, y0 - x, x + 1, 1, col_inv);
 1822              		.loc 1 371 9 view .LVU467
ARM GAS  C:\Users\huav\AppData\Local\Temp\ccuxtYbi.s 			page 42


 1823 0052 731C     		adds	r3, r6, #1
 1824              	.LVL175:
 371:Dsp/widget/wgt_core/GenDsp.c ****         GenDsp_Draw_VLine(map, x0 + y, y0 - x, x + 1, 1, col_inv);
 1825              		.loc 1 371 9 view .LVU468
 1826 0054 CDF80480 		str	r8, [sp, #4]
 1827 0058 0120     		movs	r0, #1
 1828              	.LVL176:
 371:Dsp/widget/wgt_core/GenDsp.c ****         GenDsp_Draw_VLine(map, x0 + y, y0 - x, x + 1, 1, col_inv);
 1829              		.loc 1 371 9 view .LVU469
 1830 005a 0090     		str	r0, [sp]
 1831 005c DBB2     		uxtb	r3, r3
 1832 005e 12B2     		sxth	r2, r2
 1833 0060 09B2     		sxth	r1, r1
 1834 0062 2846     		mov	r0, r5
 1835 0064 FFF7FEFF 		bl	GenDsp_Draw_VLine
 1836              	.LVL177:
 372:Dsp/widget/wgt_core/GenDsp.c ****     }
 1837              		.loc 1 372 9 is_stmt 1 view .LVU470
 372:Dsp/widget/wgt_core/GenDsp.c ****     }
 1838              		.loc 1 372 35 is_stmt 0 view .LVU471
 1839 0068 049B     		ldr	r3, [sp, #16]
 1840 006a 03EB0B01 		add	r1, r3, fp
 372:Dsp/widget/wgt_core/GenDsp.c ****     }
 1841              		.loc 1 372 43 view .LVU472
 1842 006e 059A     		ldr	r2, [sp, #20]
 1843 0070 A2EB0A02 		sub	r2, r2, r10
 372:Dsp/widget/wgt_core/GenDsp.c ****     }
 1844              		.loc 1 372 9 view .LVU473
 1845 0074 631C     		adds	r3, r4, #1
 1846 0076 CDF80480 		str	r8, [sp, #4]
 1847 007a 0120     		movs	r0, #1
 1848 007c 0090     		str	r0, [sp]
 1849 007e DBB2     		uxtb	r3, r3
 1850 0080 12B2     		sxth	r2, r2
 1851 0082 09B2     		sxth	r1, r1
 1852 0084 2846     		mov	r0, r5
 1853 0086 FFF7FEFF 		bl	GenDsp_Draw_VLine
 1854              	.LVL178:
 1855 008a C9E7     		b	.L98
 1856              	.L104:
 378:Dsp/widget/wgt_core/GenDsp.c ****         GenDsp_Draw_VLine(map, x0 - y, y0 - x, x + 1, 1, col_inv);
 1857              		.loc 1 378 9 is_stmt 1 view .LVU474
 378:Dsp/widget/wgt_core/GenDsp.c ****         GenDsp_Draw_VLine(map, x0 - y, y0 - x, x + 1, 1, col_inv);
 1858              		.loc 1 378 35 is_stmt 0 view .LVU475
 1859 008c BDF80C10 		ldrh	r1, [sp, #12]
 1860 0090 1FFA84FA 		uxth	r10, r4
 1861 0094 0491     		str	r1, [sp, #16]
 1862 0096 A1EB0A01 		sub	r1, r1, r10
 378:Dsp/widget/wgt_core/GenDsp.c ****         GenDsp_Draw_VLine(map, x0 - y, y0 - x, x + 1, 1, col_inv);
 1863              		.loc 1 378 43 view .LVU476
 1864 009a 1FFA89F2 		uxth	r2, r9
 1865 009e 1FFA86FB 		uxth	fp, r6
 1866 00a2 0592     		str	r2, [sp, #20]
 1867 00a4 A2EB0B02 		sub	r2, r2, fp
 378:Dsp/widget/wgt_core/GenDsp.c ****         GenDsp_Draw_VLine(map, x0 - y, y0 - x, x + 1, 1, col_inv);
 1868              		.loc 1 378 9 view .LVU477
 1869 00a8 731C     		adds	r3, r6, #1
ARM GAS  C:\Users\huav\AppData\Local\Temp\ccuxtYbi.s 			page 43


 1870 00aa CDF80480 		str	r8, [sp, #4]
 1871 00ae 0120     		movs	r0, #1
 1872 00b0 0090     		str	r0, [sp]
 1873 00b2 DBB2     		uxtb	r3, r3
 1874 00b4 12B2     		sxth	r2, r2
 1875 00b6 09B2     		sxth	r1, r1
 1876 00b8 2846     		mov	r0, r5
 1877 00ba FFF7FEFF 		bl	GenDsp_Draw_VLine
 1878              	.LVL179:
 379:Dsp/widget/wgt_core/GenDsp.c ****     }
 1879              		.loc 1 379 9 is_stmt 1 view .LVU478
 379:Dsp/widget/wgt_core/GenDsp.c ****     }
 1880              		.loc 1 379 35 is_stmt 0 view .LVU479
 1881 00be 049B     		ldr	r3, [sp, #16]
 1882 00c0 A3EB0B01 		sub	r1, r3, fp
 379:Dsp/widget/wgt_core/GenDsp.c ****     }
 1883              		.loc 1 379 43 view .LVU480
 1884 00c4 059A     		ldr	r2, [sp, #20]
 1885 00c6 A2EB0A02 		sub	r2, r2, r10
 379:Dsp/widget/wgt_core/GenDsp.c ****     }
 1886              		.loc 1 379 9 view .LVU481
 1887 00ca 631C     		adds	r3, r4, #1
 1888 00cc CDF80480 		str	r8, [sp, #4]
 1889 00d0 0120     		movs	r0, #1
 1890 00d2 0090     		str	r0, [sp]
 1891 00d4 DBB2     		uxtb	r3, r3
 1892 00d6 12B2     		sxth	r2, r2
 1893 00d8 09B2     		sxth	r1, r1
 1894 00da 2846     		mov	r0, r5
 1895 00dc FFF7FEFF 		bl	GenDsp_Draw_VLine
 1896              	.LVL180:
 1897 00e0 A1E7     		b	.L99
 1898              	.L105:
 385:Dsp/widget/wgt_core/GenDsp.c ****         GenDsp_Draw_VLine(map, x0 + y, y0, x + 1, 1, col_inv);
 1899              		.loc 1 385 9 is_stmt 1 view .LVU482
 385:Dsp/widget/wgt_core/GenDsp.c ****         GenDsp_Draw_VLine(map, x0 + y, y0, x + 1, 1, col_inv);
 1900              		.loc 1 385 35 is_stmt 0 view .LVU483
 1901 00e2 BDF80CA0 		ldrh	r10, [sp, #12]
 1902 00e6 0AEB0401 		add	r1, r10, r4
 385:Dsp/widget/wgt_core/GenDsp.c ****         GenDsp_Draw_VLine(map, x0 + y, y0, x + 1, 1, col_inv);
 1903              		.loc 1 385 9 view .LVU484
 1904 00ea 731C     		adds	r3, r6, #1
 1905 00ec CDF80480 		str	r8, [sp, #4]
 1906 00f0 4FF0010B 		mov	fp, #1
 1907 00f4 CDF800B0 		str	fp, [sp]
 1908 00f8 DBB2     		uxtb	r3, r3
 1909 00fa 4A46     		mov	r2, r9
 1910 00fc 09B2     		sxth	r1, r1
 1911 00fe 2846     		mov	r0, r5
 1912 0100 FFF7FEFF 		bl	GenDsp_Draw_VLine
 1913              	.LVL181:
 386:Dsp/widget/wgt_core/GenDsp.c ****     }
 1914              		.loc 1 386 9 is_stmt 1 view .LVU485
 386:Dsp/widget/wgt_core/GenDsp.c ****     }
 1915              		.loc 1 386 35 is_stmt 0 view .LVU486
 1916 0104 0AEB0601 		add	r1, r10, r6
 386:Dsp/widget/wgt_core/GenDsp.c ****     }
ARM GAS  C:\Users\huav\AppData\Local\Temp\ccuxtYbi.s 			page 44


 1917              		.loc 1 386 9 view .LVU487
 1918 0108 04EB0B03 		add	r3, r4, fp
 1919 010c CDF80480 		str	r8, [sp, #4]
 1920 0110 CDF800B0 		str	fp, [sp]
 1921 0114 DBB2     		uxtb	r3, r3
 1922 0116 4A46     		mov	r2, r9
 1923 0118 09B2     		sxth	r1, r1
 1924 011a 2846     		mov	r0, r5
 1925 011c FFF7FEFF 		bl	GenDsp_Draw_VLine
 1926              	.LVL182:
 1927 0120 84E7     		b	.L100
 1928              	.L106:
 392:Dsp/widget/wgt_core/GenDsp.c ****         GenDsp_Draw_VLine(map, x0 - y, y0, x + 1, 1, col_inv);
 1929              		.loc 1 392 9 is_stmt 1 view .LVU488
 392:Dsp/widget/wgt_core/GenDsp.c ****         GenDsp_Draw_VLine(map, x0 - y, y0, x + 1, 1, col_inv);
 1930              		.loc 1 392 35 is_stmt 0 view .LVU489
 1931 0122 BDF80C70 		ldrh	r7, [sp, #12]
 1932 0126 391B     		subs	r1, r7, r4
 392:Dsp/widget/wgt_core/GenDsp.c ****         GenDsp_Draw_VLine(map, x0 - y, y0, x + 1, 1, col_inv);
 1933              		.loc 1 392 9 view .LVU490
 1934 0128 731C     		adds	r3, r6, #1
 1935 012a CDF80480 		str	r8, [sp, #4]
 1936 012e 4FF0010A 		mov	r10, #1
 1937 0132 CDF800A0 		str	r10, [sp]
 1938 0136 DBB2     		uxtb	r3, r3
 1939 0138 4A46     		mov	r2, r9
 1940 013a 09B2     		sxth	r1, r1
 1941 013c 2846     		mov	r0, r5
 1942 013e FFF7FEFF 		bl	GenDsp_Draw_VLine
 1943              	.LVL183:
 393:Dsp/widget/wgt_core/GenDsp.c ****     }
 1944              		.loc 1 393 9 is_stmt 1 view .LVU491
 393:Dsp/widget/wgt_core/GenDsp.c ****     }
 1945              		.loc 1 393 35 is_stmt 0 view .LVU492
 1946 0142 B91B     		subs	r1, r7, r6
 393:Dsp/widget/wgt_core/GenDsp.c ****     }
 1947              		.loc 1 393 9 view .LVU493
 1948 0144 04EB0A03 		add	r3, r4, r10
 1949 0148 CDF80480 		str	r8, [sp, #4]
 1950 014c CDF800A0 		str	r10, [sp]
 1951 0150 DBB2     		uxtb	r3, r3
 1952 0152 4A46     		mov	r2, r9
 1953 0154 09B2     		sxth	r1, r1
 1954 0156 2846     		mov	r0, r5
 1955 0158 FFF7FEFF 		bl	GenDsp_Draw_VLine
 1956              	.LVL184:
 1957              		.loc 1 395 1 view .LVU494
 1958 015c 69E7     		b	.L97
 1959              		.cfi_endproc
 1960              	.LFE17:
 1962              		.section	.text.GenDsp_FillCircle,"ax",%progbits
 1963              		.align	1
 1964              		.syntax unified
 1965              		.thumb
 1966              		.thumb_func
 1967              		.fpu fpv4-sp-d16
 1969              	GenDsp_FillCircle:
ARM GAS  C:\Users\huav\AppData\Local\Temp\ccuxtYbi.s 			page 45


 1970              	.LVL185:
 1971              	.LFB18:
 396:Dsp/widget/wgt_core/GenDsp.c **** 
 397:Dsp/widget/wgt_core/GenDsp.c **** static void GenDsp_FillCircle(uint8_t **map, int16_t x0, int16_t y0, uint8_t radius, uint8_t option
 398:Dsp/widget/wgt_core/GenDsp.c **** {
 1972              		.loc 1 398 1 is_stmt 1 view -0
 1973              		.cfi_startproc
 1974              		@ args = 8, pretend = 0, frame = 8
 1975              		@ frame_needed = 0, uses_anonymous_args = 0
 1976              		.loc 1 398 1 is_stmt 0 view .LVU496
 1977 0000 2DE9F04F 		push	{r4, r5, r6, r7, r8, r9, r10, fp, lr}
 1978              	.LCFI40:
 1979              		.cfi_def_cfa_offset 36
 1980              		.cfi_offset 4, -36
 1981              		.cfi_offset 5, -32
 1982              		.cfi_offset 6, -28
 1983              		.cfi_offset 7, -24
 1984              		.cfi_offset 8, -20
 1985              		.cfi_offset 9, -16
 1986              		.cfi_offset 10, -12
 1987              		.cfi_offset 11, -8
 1988              		.cfi_offset 14, -4
 1989 0004 87B0     		sub	sp, sp, #28
 1990              	.LCFI41:
 1991              		.cfi_def_cfa_offset 64
 1992 0006 0490     		str	r0, [sp, #16]
 1993 0008 0591     		str	r1, [sp, #20]
 1994 000a 9146     		mov	r9, r2
 1995 000c 9DF840A0 		ldrb	r10, [sp, #64]	@ zero_extendqisi2
 1996 0010 9DF844B0 		ldrb	fp, [sp, #68]	@ zero_extendqisi2
 399:Dsp/widget/wgt_core/GenDsp.c ****     int8_t f;
 1997              		.loc 1 399 5 is_stmt 1 view .LVU497
 400:Dsp/widget/wgt_core/GenDsp.c ****     int8_t ddF_x;
 1998              		.loc 1 400 5 view .LVU498
 401:Dsp/widget/wgt_core/GenDsp.c ****     int8_t ddF_y;
 1999              		.loc 1 401 5 view .LVU499
 402:Dsp/widget/wgt_core/GenDsp.c ****     int16_t x;
 2000              		.loc 1 402 5 view .LVU500
 403:Dsp/widget/wgt_core/GenDsp.c ****     int16_t y;
 2001              		.loc 1 403 5 view .LVU501
 404:Dsp/widget/wgt_core/GenDsp.c **** 
 405:Dsp/widget/wgt_core/GenDsp.c ****     f = 1;
 2002              		.loc 1 405 5 view .LVU502
 2003              	.LVL186:
 406:Dsp/widget/wgt_core/GenDsp.c ****     f -= radius;
 2004              		.loc 1 406 5 view .LVU503
 2005              		.loc 1 406 7 is_stmt 0 view .LVU504
 2006 0014 C3F10104 		rsb	r4, r3, #1
 2007 0018 64B2     		sxtb	r4, r4
 2008              	.LVL187:
 407:Dsp/widget/wgt_core/GenDsp.c ****     ddF_x = 1;
 2009              		.loc 1 407 5 is_stmt 1 view .LVU505
 408:Dsp/widget/wgt_core/GenDsp.c ****     ddF_y = 0;
 2010              		.loc 1 408 5 view .LVU506
 409:Dsp/widget/wgt_core/GenDsp.c ****     ddF_y -= radius;
 2011              		.loc 1 409 5 view .LVU507
 410:Dsp/widget/wgt_core/GenDsp.c ****     ddF_y *= 2;
ARM GAS  C:\Users\huav\AppData\Local\Temp\ccuxtYbi.s 			page 46


 2012              		.loc 1 410 5 view .LVU508
 2013              		.loc 1 410 11 is_stmt 0 view .LVU509
 2014 001a C3EBC318 		rsb	r8, r3, r3, lsl #7
 2015 001e 4FEA4808 		lsl	r8, r8, #1
 2016 0022 4FFA88F8 		sxtb	r8, r8
 2017              	.LVL188:
 411:Dsp/widget/wgt_core/GenDsp.c ****     x = 0;
 2018              		.loc 1 411 5 is_stmt 1 view .LVU510
 412:Dsp/widget/wgt_core/GenDsp.c ****     y = radius;
 2019              		.loc 1 412 5 view .LVU511
 2020              		.loc 1 412 7 is_stmt 0 view .LVU512
 2021 0026 1EB2     		sxth	r6, r3
 2022              	.LVL189:
 413:Dsp/widget/wgt_core/GenDsp.c **** 
 414:Dsp/widget/wgt_core/GenDsp.c ****     GenDsp_Fill_Circle_Section(map, x, y, x0, y0, option, col_inv);
 2023              		.loc 1 414 5 is_stmt 1 view .LVU513
 2024 0028 CDF808B0 		str	fp, [sp, #8]
 2025 002c CDF804A0 		str	r10, [sp, #4]
 2026 0030 0092     		str	r2, [sp]
 2027 0032 0B46     		mov	r3, r1
 2028              	.LVL190:
 2029              		.loc 1 414 5 is_stmt 0 view .LVU514
 2030 0034 3246     		mov	r2, r6
 2031              	.LVL191:
 2032              		.loc 1 414 5 view .LVU515
 2033 0036 0021     		movs	r1, #0
 2034              	.LVL192:
 2035              		.loc 1 414 5 view .LVU516
 2036 0038 FFF7FEFF 		bl	GenDsp_Fill_Circle_Section
 2037              	.LVL193:
 415:Dsp/widget/wgt_core/GenDsp.c **** 
 416:Dsp/widget/wgt_core/GenDsp.c ****     while (x < y)
 2038              		.loc 1 416 5 is_stmt 1 view .LVU517
 411:Dsp/widget/wgt_core/GenDsp.c ****     y = radius;
 2039              		.loc 1 411 7 is_stmt 0 view .LVU518
 2040 003c 0025     		movs	r5, #0
 407:Dsp/widget/wgt_core/GenDsp.c ****     ddF_y = 0;
 2041              		.loc 1 407 11 view .LVU519
 2042 003e 0127     		movs	r7, #1
 2043              		.loc 1 416 11 view .LVU520
 2044 0040 1BE0     		b	.L108
 2045              	.LVL194:
 2046              	.L113:
 417:Dsp/widget/wgt_core/GenDsp.c ****     {
 418:Dsp/widget/wgt_core/GenDsp.c ****         if (f >= 0)
 419:Dsp/widget/wgt_core/GenDsp.c ****         {
 420:Dsp/widget/wgt_core/GenDsp.c ****             y--;
 2047              		.loc 1 420 13 is_stmt 1 view .LVU521
 2048              		.loc 1 420 14 is_stmt 0 view .LVU522
 2049 0042 013E     		subs	r6, r6, #1
 2050              	.LVL195:
 2051              		.loc 1 420 14 view .LVU523
 2052 0044 36B2     		sxth	r6, r6
 2053              	.LVL196:
 421:Dsp/widget/wgt_core/GenDsp.c ****             ddF_y += 2;
 2054              		.loc 1 421 13 is_stmt 1 view .LVU524
 2055              		.loc 1 421 19 is_stmt 0 view .LVU525
ARM GAS  C:\Users\huav\AppData\Local\Temp\ccuxtYbi.s 			page 47


 2056 0046 08F10203 		add	r3, r8, #2
 2057 004a 4FFA83F8 		sxtb	r8, r3
 2058              	.LVL197:
 422:Dsp/widget/wgt_core/GenDsp.c ****             f += ddF_y;
 2059              		.loc 1 422 13 is_stmt 1 view .LVU526
 2060              		.loc 1 422 15 is_stmt 0 view .LVU527
 2061 004e 54FA83F4 		uxtab	r4, r4, r3
 2062              	.LVL198:
 2063              		.loc 1 422 15 view .LVU528
 2064 0052 64B2     		sxtb	r4, r4
 2065              	.LVL199:
 2066              	.L109:
 423:Dsp/widget/wgt_core/GenDsp.c ****         }
 424:Dsp/widget/wgt_core/GenDsp.c ****         x++;
 2067              		.loc 1 424 9 is_stmt 1 view .LVU529
 2068              		.loc 1 424 10 is_stmt 0 view .LVU530
 2069 0054 0135     		adds	r5, r5, #1
 2070              	.LVL200:
 2071              		.loc 1 424 10 view .LVU531
 2072 0056 2DB2     		sxth	r5, r5
 2073              	.LVL201:
 425:Dsp/widget/wgt_core/GenDsp.c ****         ddF_x += 2;
 2074              		.loc 1 425 9 is_stmt 1 view .LVU532
 2075              		.loc 1 425 15 is_stmt 0 view .LVU533
 2076 0058 BB1C     		adds	r3, r7, #2
 2077 005a 5FB2     		sxtb	r7, r3
 2078              	.LVL202:
 426:Dsp/widget/wgt_core/GenDsp.c ****         f += ddF_x;
 2079              		.loc 1 426 9 is_stmt 1 view .LVU534
 2080              		.loc 1 426 11 is_stmt 0 view .LVU535
 2081 005c 54FA83F4 		uxtab	r4, r4, r3
 2082              	.LVL203:
 2083              		.loc 1 426 11 view .LVU536
 2084 0060 64B2     		sxtb	r4, r4
 2085              	.LVL204:
 427:Dsp/widget/wgt_core/GenDsp.c **** 
 428:Dsp/widget/wgt_core/GenDsp.c ****         GenDsp_Fill_Circle_Section(map, x, y, x0, y0, option, col_inv);
 2086              		.loc 1 428 9 is_stmt 1 view .LVU537
 2087 0062 CDF808B0 		str	fp, [sp, #8]
 2088 0066 CDF804A0 		str	r10, [sp, #4]
 2089 006a CDF80090 		str	r9, [sp]
 2090 006e 059B     		ldr	r3, [sp, #20]
 2091 0070 3246     		mov	r2, r6
 2092 0072 2946     		mov	r1, r5
 2093 0074 0498     		ldr	r0, [sp, #16]
 2094 0076 FFF7FEFF 		bl	GenDsp_Fill_Circle_Section
 2095              	.LVL205:
 2096              	.L108:
 416:Dsp/widget/wgt_core/GenDsp.c ****     {
 2097              		.loc 1 416 11 view .LVU538
 2098 007a B542     		cmp	r5, r6
 2099 007c 02DA     		bge	.L112
 418:Dsp/widget/wgt_core/GenDsp.c ****         {
 2100              		.loc 1 418 9 view .LVU539
 418:Dsp/widget/wgt_core/GenDsp.c ****         {
 2101              		.loc 1 418 12 is_stmt 0 view .LVU540
 2102 007e 002C     		cmp	r4, #0
ARM GAS  C:\Users\huav\AppData\Local\Temp\ccuxtYbi.s 			page 48


 2103 0080 DFDA     		bge	.L113
 2104 0082 E7E7     		b	.L109
 2105              	.L112:
 429:Dsp/widget/wgt_core/GenDsp.c ****     }
 430:Dsp/widget/wgt_core/GenDsp.c **** }
 2106              		.loc 1 430 1 view .LVU541
 2107 0084 07B0     		add	sp, sp, #28
 2108              	.LCFI42:
 2109              		.cfi_def_cfa_offset 36
 2110              		@ sp needed
 2111 0086 BDE8F08F 		pop	{r4, r5, r6, r7, r8, r9, r10, fp, pc}
 2112              		.loc 1 430 1 view .LVU542
 2113              		.cfi_endproc
 2114              	.LFE18:
 2116              		.section	.text.GenDsp_FillRectangle,"ax",%progbits
 2117              		.align	1
 2118              		.syntax unified
 2119              		.thumb
 2120              		.thumb_func
 2121              		.fpu fpv4-sp-d16
 2123              	GenDsp_FillRectangle:
 2124              	.LVL206:
 2125              	.LFB19:
 431:Dsp/widget/wgt_core/GenDsp.c **** 
 432:Dsp/widget/wgt_core/GenDsp.c **** static void GenDsp_FillRectangle(uint8_t **map, int16_t x, int16_t y, uint8_t width, uint8_t height
 433:Dsp/widget/wgt_core/GenDsp.c **** {
 2126              		.loc 1 433 1 is_stmt 1 view -0
 2127              		.cfi_startproc
 2128              		@ args = 8, pretend = 0, frame = 0
 2129              		@ frame_needed = 0, uses_anonymous_args = 0
 2130              		.loc 1 433 1 is_stmt 0 view .LVU544
 2131 0000 2DE9F84F 		push	{r3, r4, r5, r6, r7, r8, r9, r10, fp, lr}
 2132              	.LCFI43:
 2133              		.cfi_def_cfa_offset 40
 2134              		.cfi_offset 3, -40
 2135              		.cfi_offset 4, -36
 2136              		.cfi_offset 5, -32
 2137              		.cfi_offset 6, -28
 2138              		.cfi_offset 7, -24
 2139              		.cfi_offset 8, -20
 2140              		.cfi_offset 9, -16
 2141              		.cfi_offset 10, -12
 2142              		.cfi_offset 11, -8
 2143              		.cfi_offset 14, -4
 2144 0004 0646     		mov	r6, r0
 2145 0006 8A46     		mov	r10, r1
 2146 0008 1746     		mov	r7, r2
 2147 000a 9B46     		mov	fp, r3
 2148 000c 9DF82880 		ldrb	r8, [sp, #40]	@ zero_extendqisi2
 2149 0010 9DF82C90 		ldrb	r9, [sp, #44]	@ zero_extendqisi2
 434:Dsp/widget/wgt_core/GenDsp.c ****     for (int16_t x_tmp = x; x_tmp < x + width; x_tmp++)
 2150              		.loc 1 434 5 is_stmt 1 view .LVU545
 2151              	.LBB13:
 2152              		.loc 1 434 10 view .LVU546
 2153              	.LVL207:
 2154              		.loc 1 434 18 is_stmt 0 view .LVU547
 2155 0014 0D46     		mov	r5, r1
ARM GAS  C:\Users\huav\AppData\Local\Temp\ccuxtYbi.s 			page 49


 2156              		.loc 1 434 5 view .LVU548
 2157 0016 13E0     		b	.L115
 2158              	.LVL208:
 2159              	.L116:
 2160              	.LBB14:
 435:Dsp/widget/wgt_core/GenDsp.c ****     {
 436:Dsp/widget/wgt_core/GenDsp.c ****         for (int16_t y_tmp = y; y_tmp < y + height; y_tmp++)
 437:Dsp/widget/wgt_core/GenDsp.c ****         {
 438:Dsp/widget/wgt_core/GenDsp.c ****             GenDsp_DrawPoint(map, x_tmp, y_tmp, col_inv ^ map[y_tmp][x_tmp]);
 2161              		.loc 1 438 13 is_stmt 1 discriminator 3 view .LVU549
 2162              		.loc 1 438 62 is_stmt 0 discriminator 3 view .LVU550
 2163 0018 56F82430 		ldr	r3, [r6, r4, lsl #2]
 2164              		.loc 1 438 69 discriminator 3 view .LVU551
 2165 001c 5B5D     		ldrb	r3, [r3, r5]	@ zero_extendqisi2
 2166              		.loc 1 438 13 discriminator 3 view .LVU552
 2167 001e B9EB0303 		subs	r3, r9, r3
 2168 0022 18BF     		it	ne
 2169 0024 0123     		movne	r3, #1
 2170 0026 2246     		mov	r2, r4
 2171 0028 2946     		mov	r1, r5
 2172 002a 3046     		mov	r0, r6
 2173 002c FFF7FEFF 		bl	GenDsp_DrawPoint
 2174              	.LVL209:
 436:Dsp/widget/wgt_core/GenDsp.c ****         {
 2175              		.loc 1 436 53 is_stmt 1 discriminator 3 view .LVU553
 436:Dsp/widget/wgt_core/GenDsp.c ****         {
 2176              		.loc 1 436 58 is_stmt 0 discriminator 3 view .LVU554
 2177 0030 0134     		adds	r4, r4, #1
 2178              	.LVL210:
 436:Dsp/widget/wgt_core/GenDsp.c ****         {
 2179              		.loc 1 436 58 discriminator 3 view .LVU555
 2180 0032 24B2     		sxth	r4, r4
 2181              	.LVL211:
 2182              	.L117:
 436:Dsp/widget/wgt_core/GenDsp.c ****         {
 2183              		.loc 1 436 33 is_stmt 1 discriminator 1 view .LVU556
 436:Dsp/widget/wgt_core/GenDsp.c ****         {
 2184              		.loc 1 436 43 is_stmt 0 discriminator 1 view .LVU557
 2185 0034 07EB0803 		add	r3, r7, r8
 436:Dsp/widget/wgt_core/GenDsp.c ****         {
 2186              		.loc 1 436 9 discriminator 1 view .LVU558
 2187 0038 9C42     		cmp	r4, r3
 2188 003a EDDB     		blt	.L116
 2189              	.LBE14:
 434:Dsp/widget/wgt_core/GenDsp.c ****     for (int16_t x_tmp = x; x_tmp < x + width; x_tmp++)
 2190              		.loc 1 434 48 is_stmt 1 discriminator 2 view .LVU559
 434:Dsp/widget/wgt_core/GenDsp.c ****     for (int16_t x_tmp = x; x_tmp < x + width; x_tmp++)
 2191              		.loc 1 434 53 is_stmt 0 discriminator 2 view .LVU560
 2192 003c 0135     		adds	r5, r5, #1
 2193              	.LVL212:
 434:Dsp/widget/wgt_core/GenDsp.c ****     for (int16_t x_tmp = x; x_tmp < x + width; x_tmp++)
 2194              		.loc 1 434 53 discriminator 2 view .LVU561
 2195 003e 2DB2     		sxth	r5, r5
 2196              	.LVL213:
 2197              	.L115:
 434:Dsp/widget/wgt_core/GenDsp.c ****     for (int16_t x_tmp = x; x_tmp < x + width; x_tmp++)
 2198              		.loc 1 434 29 is_stmt 1 discriminator 1 view .LVU562
ARM GAS  C:\Users\huav\AppData\Local\Temp\ccuxtYbi.s 			page 50


 434:Dsp/widget/wgt_core/GenDsp.c ****     for (int16_t x_tmp = x; x_tmp < x + width; x_tmp++)
 2199              		.loc 1 434 39 is_stmt 0 discriminator 1 view .LVU563
 2200 0040 0AEB0B03 		add	r3, r10, fp
 434:Dsp/widget/wgt_core/GenDsp.c ****     for (int16_t x_tmp = x; x_tmp < x + width; x_tmp++)
 2201              		.loc 1 434 5 discriminator 1 view .LVU564
 2202 0044 9D42     		cmp	r5, r3
 2203 0046 01DA     		bge	.L120
 2204              	.LBB15:
 436:Dsp/widget/wgt_core/GenDsp.c ****         {
 2205              		.loc 1 436 22 view .LVU565
 2206 0048 3C46     		mov	r4, r7
 2207 004a F3E7     		b	.L117
 2208              	.L120:
 2209              	.LBE15:
 2210              	.LBE13:
 439:Dsp/widget/wgt_core/GenDsp.c ****         }
 440:Dsp/widget/wgt_core/GenDsp.c ****     }
 441:Dsp/widget/wgt_core/GenDsp.c **** }
 2211              		.loc 1 441 1 view .LVU566
 2212 004c BDE8F88F 		pop	{r3, r4, r5, r6, r7, r8, r9, r10, fp, pc}
 2213              		.loc 1 441 1 view .LVU567
 2214              		.cfi_endproc
 2215              	.LFE19:
 2217              		.section	.text.GenDsp_Fill_RadiusRectangle,"ax",%progbits
 2218              		.align	1
 2219              		.syntax unified
 2220              		.thumb
 2221              		.thumb_func
 2222              		.fpu fpv4-sp-d16
 2224              	GenDsp_Fill_RadiusRectangle:
 2225              	.LVL214:
 2226              	.LFB20:
 442:Dsp/widget/wgt_core/GenDsp.c **** 
 443:Dsp/widget/wgt_core/GenDsp.c **** static void GenDsp_Fill_RadiusRectangle(uint8_t **map, int16_t x, int16_t y, uint8_t width, uint8_t
 444:Dsp/widget/wgt_core/GenDsp.c **** {
 2227              		.loc 1 444 1 is_stmt 1 view -0
 2228              		.cfi_startproc
 2229              		@ args = 12, pretend = 0, frame = 16
 2230              		@ frame_needed = 0, uses_anonymous_args = 0
 2231              		.loc 1 444 1 is_stmt 0 view .LVU569
 2232 0000 2DE9F04F 		push	{r4, r5, r6, r7, r8, r9, r10, fp, lr}
 2233              	.LCFI44:
 2234              		.cfi_def_cfa_offset 36
 2235              		.cfi_offset 4, -36
 2236              		.cfi_offset 5, -32
 2237              		.cfi_offset 6, -28
 2238              		.cfi_offset 7, -24
 2239              		.cfi_offset 8, -20
 2240              		.cfi_offset 9, -16
 2241              		.cfi_offset 10, -12
 2242              		.cfi_offset 11, -8
 2243              		.cfi_offset 14, -4
 2244 0004 87B0     		sub	sp, sp, #28
 2245              	.LCFI45:
 2246              		.cfi_def_cfa_offset 64
 2247 0006 8046     		mov	r8, r0
 2248 0008 9246     		mov	r10, r2
ARM GAS  C:\Users\huav\AppData\Local\Temp\ccuxtYbi.s 			page 51


 2249 000a 9DF84040 		ldrb	r4, [sp, #64]	@ zero_extendqisi2
 2250 000e 9DF84460 		ldrb	r6, [sp, #68]	@ zero_extendqisi2
 2251 0012 9DF84890 		ldrb	r9, [sp, #72]	@ zero_extendqisi2
 445:Dsp/widget/wgt_core/GenDsp.c ****     GenDsp_FillRectangle(map, x + radius, y, width - 2 * radius, height, col_inv);
 2252              		.loc 1 445 5 is_stmt 1 view .LVU570
 2253              		.loc 1 445 33 is_stmt 0 view .LVU571
 2254 0016 B5B2     		uxth	r5, r6
 2255 0018 0295     		str	r5, [sp, #8]
 2256 001a 0391     		str	r1, [sp, #12]
 2257 001c BDF80C50 		ldrh	r5, [sp, #12]
 2258 0020 06EB050B 		add	fp, r6, r5
 2259              		.loc 1 445 5 view .LVU572
 2260 0024 0FFA8BFB 		sxth	fp, fp
 2261 0028 7700     		lsls	r7, r6, #1
 2262 002a FFB2     		uxtb	r7, r7
 2263 002c 0593     		str	r3, [sp, #20]
 2264 002e DB1B     		subs	r3, r3, r7
 2265              	.LVL215:
 2266              		.loc 1 445 5 view .LVU573
 2267 0030 CDF80490 		str	r9, [sp, #4]
 2268 0034 0094     		str	r4, [sp]
 2269 0036 DBB2     		uxtb	r3, r3
 2270 0038 5946     		mov	r1, fp
 2271              	.LVL216:
 2272              		.loc 1 445 5 view .LVU574
 2273 003a FFF7FEFF 		bl	GenDsp_FillRectangle
 2274              	.LVL217:
 446:Dsp/widget/wgt_core/GenDsp.c ****     GenDsp_FillRectangle(map, x, y + radius, radius, height - 2 * radius - 1, col_inv);
 2275              		.loc 1 446 5 is_stmt 1 view .LVU575
 2276              		.loc 1 446 36 is_stmt 0 view .LVU576
 2277 003e 1FFA8AF0 		uxth	r0, r10
 2278 0042 029B     		ldr	r3, [sp, #8]
 2279 0044 0490     		str	r0, [sp, #16]
 2280 0046 03EB000A 		add	r10, r3, r0
 2281              		.loc 1 446 5 view .LVU577
 2282 004a 0FFA8AFA 		sxth	r10, r10
 2283              		.loc 1 446 61 view .LVU578
 2284 004e E71B     		subs	r7, r4, r7
 2285 0050 FFB2     		uxtb	r7, r7
 2286              		.loc 1 446 5 view .LVU579
 2287 0052 CDF80490 		str	r9, [sp, #4]
 2288 0056 7B1E     		subs	r3, r7, #1
 2289 0058 DBB2     		uxtb	r3, r3
 2290 005a 0093     		str	r3, [sp]
 2291 005c 3346     		mov	r3, r6
 2292 005e 5246     		mov	r2, r10
 2293 0060 0399     		ldr	r1, [sp, #12]
 2294 0062 4046     		mov	r0, r8
 2295 0064 FFF7FEFF 		bl	GenDsp_FillRectangle
 2296              	.LVL218:
 447:Dsp/widget/wgt_core/GenDsp.c ****     GenDsp_FillRectangle(map, x + width - radius, y + radius, radius + 1, height - 2 * radius, col_
 2297              		.loc 1 447 5 is_stmt 1 view .LVU580
 2298              		.loc 1 447 33 is_stmt 0 view .LVU581
 2299 0068 059A     		ldr	r2, [sp, #20]
 2300 006a 1544     		add	r5, r5, r2
 2301 006c ADB2     		uxth	r5, r5
 2302              		.loc 1 447 41 view .LVU582
ARM GAS  C:\Users\huav\AppData\Local\Temp\ccuxtYbi.s 			page 52


 2303 006e 029B     		ldr	r3, [sp, #8]
 2304 0070 ED1A     		subs	r5, r5, r3
 2305              		.loc 1 447 5 view .LVU583
 2306 0072 2DB2     		sxth	r5, r5
 2307 0074 731C     		adds	r3, r6, #1
 2308 0076 CDF80490 		str	r9, [sp, #4]
 2309 007a 0097     		str	r7, [sp]
 2310 007c DBB2     		uxtb	r3, r3
 2311 007e 5246     		mov	r2, r10
 2312 0080 2946     		mov	r1, r5
 2313 0082 4046     		mov	r0, r8
 2314 0084 FFF7FEFF 		bl	GenDsp_FillRectangle
 2315              	.LVL219:
 448:Dsp/widget/wgt_core/GenDsp.c **** 
 449:Dsp/widget/wgt_core/GenDsp.c ****     GenDsp_FillCircle(map, x + radius, y + radius, radius, DRAW_UPPER_LEFT, col_inv);
 2316              		.loc 1 449 5 is_stmt 1 view .LVU584
 2317 0088 CDF80490 		str	r9, [sp, #4]
 2318 008c 0223     		movs	r3, #2
 2319 008e 0093     		str	r3, [sp]
 2320 0090 3346     		mov	r3, r6
 2321 0092 5246     		mov	r2, r10
 2322 0094 5946     		mov	r1, fp
 2323 0096 4046     		mov	r0, r8
 2324 0098 FFF7FEFF 		bl	GenDsp_FillCircle
 2325              	.LVL220:
 450:Dsp/widget/wgt_core/GenDsp.c ****     GenDsp_FillCircle(map, x + width - radius, y + radius, radius, DRAW_UPPER_RIGHT, col_inv);
 2326              		.loc 1 450 5 view .LVU585
 2327 009c CDF80490 		str	r9, [sp, #4]
 2328 00a0 0123     		movs	r3, #1
 2329 00a2 0093     		str	r3, [sp]
 2330 00a4 3346     		mov	r3, r6
 2331 00a6 5246     		mov	r2, r10
 2332 00a8 2946     		mov	r1, r5
 2333 00aa 4046     		mov	r0, r8
 2334 00ac FFF7FEFF 		bl	GenDsp_FillCircle
 2335              	.LVL221:
 451:Dsp/widget/wgt_core/GenDsp.c ****     GenDsp_FillCircle(map, x + radius, y + height - radius - 2, radius, DRAW_LOWER_LEFT, col_inv);
 2336              		.loc 1 451 5 view .LVU586
 2337              		.loc 1 451 42 is_stmt 0 view .LVU587
 2338 00b0 0498     		ldr	r0, [sp, #16]
 2339 00b2 0444     		add	r4, r4, r0
 2340 00b4 A4B2     		uxth	r4, r4
 2341              		.loc 1 451 51 view .LVU588
 2342 00b6 029B     		ldr	r3, [sp, #8]
 2343 00b8 E41A     		subs	r4, r4, r3
 2344 00ba A4B2     		uxth	r4, r4
 2345              		.loc 1 451 60 view .LVU589
 2346 00bc 023C     		subs	r4, r4, #2
 2347              		.loc 1 451 5 view .LVU590
 2348 00be 24B2     		sxth	r4, r4
 2349 00c0 CDF80490 		str	r9, [sp, #4]
 2350 00c4 0423     		movs	r3, #4
 2351 00c6 0093     		str	r3, [sp]
 2352 00c8 3346     		mov	r3, r6
 2353 00ca 2246     		mov	r2, r4
 2354 00cc 5946     		mov	r1, fp
 2355 00ce 4046     		mov	r0, r8
ARM GAS  C:\Users\huav\AppData\Local\Temp\ccuxtYbi.s 			page 53


 2356 00d0 FFF7FEFF 		bl	GenDsp_FillCircle
 2357              	.LVL222:
 452:Dsp/widget/wgt_core/GenDsp.c ****     GenDsp_FillCircle(map, x + width - radius, y + height - radius - 2, radius, DRAW_LOWER_RIGHT, c
 2358              		.loc 1 452 5 is_stmt 1 view .LVU591
 2359 00d4 CDF80490 		str	r9, [sp, #4]
 2360 00d8 0823     		movs	r3, #8
 2361 00da 0093     		str	r3, [sp]
 2362 00dc 3346     		mov	r3, r6
 2363 00de 2246     		mov	r2, r4
 2364 00e0 2946     		mov	r1, r5
 2365 00e2 4046     		mov	r0, r8
 2366 00e4 FFF7FEFF 		bl	GenDsp_FillCircle
 2367              	.LVL223:
 453:Dsp/widget/wgt_core/GenDsp.c **** }
 2368              		.loc 1 453 1 is_stmt 0 view .LVU592
 2369 00e8 07B0     		add	sp, sp, #28
 2370              	.LCFI46:
 2371              		.cfi_def_cfa_offset 36
 2372              		@ sp needed
 2373 00ea BDE8F08F 		pop	{r4, r5, r6, r7, r8, r9, r10, fp, pc}
 2374              		.loc 1 453 1 view .LVU593
 2375              		.cfi_endproc
 2376              	.LFE20:
 2378              		.section	.rodata.GenDsp_DrawNum.str1.4,"aMS",%progbits,1
 2379              		.align	2
 2380              	.LC0:
 2381 0000 256400   		.ascii	"%d\000"
 2382              		.section	.text.GenDsp_DrawNum,"ax",%progbits
 2383              		.align	1
 2384              		.syntax unified
 2385              		.thumb
 2386              		.thumb_func
 2387              		.fpu fpv4-sp-d16
 2389              	GenDsp_DrawNum:
 2390              	.LVL224:
 2391              	.LFB7:
 134:Dsp/widget/wgt_core/GenDsp.c ****     char num_buff[MAX_DSP_NUM_LEN];
 2392              		.loc 1 134 1 is_stmt 1 view -0
 2393              		.cfi_startproc
 2394              		@ args = 8, pretend = 0, frame = 16
 2395              		@ frame_needed = 0, uses_anonymous_args = 0
 134:Dsp/widget/wgt_core/GenDsp.c ****     char num_buff[MAX_DSP_NUM_LEN];
 2396              		.loc 1 134 1 is_stmt 0 view .LVU595
 2397 0000 70B5     		push	{r4, r5, r6, lr}
 2398              	.LCFI47:
 2399              		.cfi_def_cfa_offset 16
 2400              		.cfi_offset 4, -16
 2401              		.cfi_offset 5, -12
 2402              		.cfi_offset 6, -8
 2403              		.cfi_offset 14, -4
 2404 0002 86B0     		sub	sp, sp, #24
 2405              	.LCFI48:
 2406              		.cfi_def_cfa_offset 40
 2407 0004 0446     		mov	r4, r0
 2408 0006 0D46     		mov	r5, r1
 2409 0008 1E46     		mov	r6, r3
 135:Dsp/widget/wgt_core/GenDsp.c **** 
ARM GAS  C:\Users\huav\AppData\Local\Temp\ccuxtYbi.s 			page 54


 2410              		.loc 1 135 5 is_stmt 1 view .LVU596
 137:Dsp/widget/wgt_core/GenDsp.c ****     GenDsp_DrawStr(font, map, num_buff, x, y, col_inv);
 2411              		.loc 1 137 5 view .LVU597
 2412 000a 0949     		ldr	r1, .L125
 2413              	.LVL225:
 137:Dsp/widget/wgt_core/GenDsp.c ****     GenDsp_DrawStr(font, map, num_buff, x, y, col_inv);
 2414              		.loc 1 137 5 is_stmt 0 view .LVU598
 2415 000c 03A8     		add	r0, sp, #12
 2416              	.LVL226:
 137:Dsp/widget/wgt_core/GenDsp.c ****     GenDsp_DrawStr(font, map, num_buff, x, y, col_inv);
 2417              		.loc 1 137 5 view .LVU599
 2418 000e FFF7FEFF 		bl	sprintf
 2419              	.LVL227:
 138:Dsp/widget/wgt_core/GenDsp.c **** }
 2420              		.loc 1 138 5 is_stmt 1 view .LVU600
 2421 0012 9DF82C30 		ldrb	r3, [sp, #44]	@ zero_extendqisi2
 2422 0016 0193     		str	r3, [sp, #4]
 2423 0018 BDF92830 		ldrsh	r3, [sp, #40]
 2424 001c 0093     		str	r3, [sp]
 2425 001e 3346     		mov	r3, r6
 2426 0020 03AA     		add	r2, sp, #12
 2427 0022 2946     		mov	r1, r5
 2428 0024 2046     		mov	r0, r4
 2429 0026 FFF7FEFF 		bl	GenDsp_DrawStr
 2430              	.LVL228:
 139:Dsp/widget/wgt_core/GenDsp.c **** 
 2431              		.loc 1 139 1 is_stmt 0 view .LVU601
 2432 002a 06B0     		add	sp, sp, #24
 2433              	.LCFI49:
 2434              		.cfi_def_cfa_offset 16
 2435              		@ sp needed
 2436 002c 70BD     		pop	{r4, r5, r6, pc}
 2437              	.LVL229:
 2438              	.L126:
 139:Dsp/widget/wgt_core/GenDsp.c **** 
 2439              		.loc 1 139 1 view .LVU602
 2440 002e 00BF     		.align	2
 2441              	.L125:
 2442 0030 00000000 		.word	.LC0
 2443              		.cfi_endproc
 2444              	.LFE7:
 2446              		.global	GenDsp_Interface
 2447              		.global	DspRange
 2448              		.section	.bss.DspRange,"aw",%nobits
 2449              		.align	2
 2450              		.set	.LANCHOR0,. + 0
 2453              	DspRange:
 2454 0000 00000000 		.space	6
 2454      0000
 2455              		.section	.data.GenDsp_Interface,"aw"
 2456              		.align	2
 2459              	GenDsp_Interface:
 2460 0000 00000000 		.word	GenDsp_SetRange
 2461 0004 00000000 		.word	GenDsp_DrawPoint
 2462 0008 00000000 		.word	GenDsp_DrawCircle
 2463 000c 00000000 		.word	GenDsp_DrawChar
 2464 0010 00000000 		.word	GenDsp_DrawStr
ARM GAS  C:\Users\huav\AppData\Local\Temp\ccuxtYbi.s 			page 55


 2465 0014 00000000 		.word	GenDsp_DrawNum
 2466 0018 00000000 		.word	GenDsp_DrawRectangle
 2467 001c 00000000 		.word	GenDsp_Draw_RadiusRectangle
 2468 0020 00000000 		.word	GenDsp_DrawLen
 2469 0024 00000000 		.word	GenDsp_Draw_VLine
 2470 0028 00000000 		.word	GenDsp_Draw_HLine
 2471 002c 00000000 		.word	0
 2472 0030 00000000 		.word	GenDsp_FillCircle
 2473 0034 00000000 		.word	GenDsp_FillRectangle
 2474 0038 00000000 		.word	GenDsp_Fill_RadiusRectangle
 2475 003c 00000000 		.word	GenDsp_GetStrLen
 2476              		.text
 2477              	.Letext0:
 2478              		.file 2 "c:\\program files (x86)\\gnu arm embedded toolchain\\10 2020-q4-major\\arm-none-eabi\\inc
 2479              		.file 3 "c:\\program files (x86)\\gnu arm embedded toolchain\\10 2020-q4-major\\arm-none-eabi\\inc
 2480              		.file 4 "Dsp/screen/font/oledfont.h"
 2481              		.file 5 "Dsp/widget/wgt_core/GenDsp.h"
 2482              		.file 6 "c:\\program files (x86)\\gnu arm embedded toolchain\\10 2020-q4-major\\arm-none-eabi\\inc
ARM GAS  C:\Users\huav\AppData\Local\Temp\ccuxtYbi.s 			page 56


DEFINED SYMBOLS
                            *ABS*:00000000 GenDsp.c
C:\Users\huav\AppData\Local\Temp\ccuxtYbi.s:18     .text.GenDsp_SetRange:00000000 $t
C:\Users\huav\AppData\Local\Temp\ccuxtYbi.s:25     .text.GenDsp_SetRange:00000000 GenDsp_SetRange
C:\Users\huav\AppData\Local\Temp\ccuxtYbi.s:61     .text.GenDsp_SetRange:00000014 $d
C:\Users\huav\AppData\Local\Temp\ccuxtYbi.s:66     .text.GenDsp_DrawPoint:00000000 $t
C:\Users\huav\AppData\Local\Temp\ccuxtYbi.s:72     .text.GenDsp_DrawPoint:00000000 GenDsp_DrawPoint
C:\Users\huav\AppData\Local\Temp\ccuxtYbi.s:140    .text.GenDsp_DrawPoint:00000034 $d
C:\Users\huav\AppData\Local\Temp\ccuxtYbi.s:145    .text.GenDsp_DrawChar:00000000 $t
C:\Users\huav\AppData\Local\Temp\ccuxtYbi.s:151    .text.GenDsp_DrawChar:00000000 GenDsp_DrawChar
C:\Users\huav\AppData\Local\Temp\ccuxtYbi.s:406    .text.GenDsp_DrawChar:000000f0 $d
C:\Users\huav\AppData\Local\Temp\ccuxtYbi.s:414    .text.GenDsp_DrawStr:00000000 $t
C:\Users\huav\AppData\Local\Temp\ccuxtYbi.s:420    .text.GenDsp_DrawStr:00000000 GenDsp_DrawStr
C:\Users\huav\AppData\Local\Temp\ccuxtYbi.s:493    .text.GenDsp_GetStrLen:00000000 $t
C:\Users\huav\AppData\Local\Temp\ccuxtYbi.s:499    .text.GenDsp_GetStrLen:00000000 GenDsp_GetStrLen
C:\Users\huav\AppData\Local\Temp\ccuxtYbi.s:541    .text.GenDsp_DrawLen:00000000 $t
C:\Users\huav\AppData\Local\Temp\ccuxtYbi.s:547    .text.GenDsp_DrawLen:00000000 GenDsp_DrawLen
C:\Users\huav\AppData\Local\Temp\ccuxtYbi.s:791    .text.GenDsp_Draw_VLine:00000000 $t
C:\Users\huav\AppData\Local\Temp\ccuxtYbi.s:797    .text.GenDsp_Draw_VLine:00000000 GenDsp_Draw_VLine
C:\Users\huav\AppData\Local\Temp\ccuxtYbi.s:844    .text.GenDsp_Draw_HLine:00000000 $t
C:\Users\huav\AppData\Local\Temp\ccuxtYbi.s:850    .text.GenDsp_Draw_HLine:00000000 GenDsp_Draw_HLine
C:\Users\huav\AppData\Local\Temp\ccuxtYbi.s:895    .text.GenDsp_Draw_Circle_Section:00000000 $t
C:\Users\huav\AppData\Local\Temp\ccuxtYbi.s:901    .text.GenDsp_Draw_Circle_Section:00000000 GenDsp_Draw_Circle_Section
C:\Users\huav\AppData\Local\Temp\ccuxtYbi.s:1090   .text.GenDsp_Draw_Circle:00000000 $t
C:\Users\huav\AppData\Local\Temp\ccuxtYbi.s:1096   .text.GenDsp_Draw_Circle:00000000 GenDsp_Draw_Circle
C:\Users\huav\AppData\Local\Temp\ccuxtYbi.s:1244   .text.GenDsp_DrawCircle:00000000 $t
C:\Users\huav\AppData\Local\Temp\ccuxtYbi.s:1250   .text.GenDsp_DrawCircle:00000000 GenDsp_DrawCircle
C:\Users\huav\AppData\Local\Temp\ccuxtYbi.s:1284   .text.GenDsp_DrawRectangle:00000000 $t
C:\Users\huav\AppData\Local\Temp\ccuxtYbi.s:1290   .text.GenDsp_DrawRectangle:00000000 GenDsp_DrawRectangle
C:\Users\huav\AppData\Local\Temp\ccuxtYbi.s:1544   .text.GenDsp_Draw_RadiusRectangle:00000000 $t
C:\Users\huav\AppData\Local\Temp\ccuxtYbi.s:1550   .text.GenDsp_Draw_RadiusRectangle:00000000 GenDsp_Draw_RadiusRectangle
C:\Users\huav\AppData\Local\Temp\ccuxtYbi.s:1739   .text.GenDsp_Fill_Circle_Section:00000000 $t
C:\Users\huav\AppData\Local\Temp\ccuxtYbi.s:1745   .text.GenDsp_Fill_Circle_Section:00000000 GenDsp_Fill_Circle_Section
C:\Users\huav\AppData\Local\Temp\ccuxtYbi.s:1963   .text.GenDsp_FillCircle:00000000 $t
C:\Users\huav\AppData\Local\Temp\ccuxtYbi.s:1969   .text.GenDsp_FillCircle:00000000 GenDsp_FillCircle
C:\Users\huav\AppData\Local\Temp\ccuxtYbi.s:2117   .text.GenDsp_FillRectangle:00000000 $t
C:\Users\huav\AppData\Local\Temp\ccuxtYbi.s:2123   .text.GenDsp_FillRectangle:00000000 GenDsp_FillRectangle
C:\Users\huav\AppData\Local\Temp\ccuxtYbi.s:2218   .text.GenDsp_Fill_RadiusRectangle:00000000 $t
C:\Users\huav\AppData\Local\Temp\ccuxtYbi.s:2224   .text.GenDsp_Fill_RadiusRectangle:00000000 GenDsp_Fill_RadiusRectangle
C:\Users\huav\AppData\Local\Temp\ccuxtYbi.s:2379   .rodata.GenDsp_DrawNum.str1.4:00000000 $d
C:\Users\huav\AppData\Local\Temp\ccuxtYbi.s:2383   .text.GenDsp_DrawNum:00000000 $t
C:\Users\huav\AppData\Local\Temp\ccuxtYbi.s:2389   .text.GenDsp_DrawNum:00000000 GenDsp_DrawNum
C:\Users\huav\AppData\Local\Temp\ccuxtYbi.s:2442   .text.GenDsp_DrawNum:00000030 $d
C:\Users\huav\AppData\Local\Temp\ccuxtYbi.s:2459   .data.GenDsp_Interface:00000000 GenDsp_Interface
C:\Users\huav\AppData\Local\Temp\ccuxtYbi.s:2453   .bss.DspRange:00000000 DspRange
C:\Users\huav\AppData\Local\Temp\ccuxtYbi.s:2449   .bss.DspRange:00000000 $d
C:\Users\huav\AppData\Local\Temp\ccuxtYbi.s:2456   .data.GenDsp_Interface:00000000 $d

UNDEFINED SYMBOLS
oled_asc2_1206
oled_asc2_1608
oled_asc2_0808
sprintf
