ARM GAS  /var/folders/lx/hc4sn_b53233_zkc9xbbl97r0000gp/T//ccupGnhh.s 			page 1


   1              		.cpu cortex-m4
   2              		.eabi_attribute 27, 1
   3              		.eabi_attribute 28, 1
   4              		.eabi_attribute 20, 1
   5              		.eabi_attribute 21, 1
   6              		.eabi_attribute 23, 3
   7              		.eabi_attribute 24, 1
   8              		.eabi_attribute 25, 1
   9              		.eabi_attribute 26, 1
  10              		.eabi_attribute 30, 1
  11              		.eabi_attribute 34, 1
  12              		.eabi_attribute 18, 4
  13              		.file	"GenDsp.c"
  14              		.text
  15              	.Ltext0:
  16              		.cfi_sections	.debug_frame
  17              		.section	.text.GenDsp_SetRange,"ax",%progbits
  18              		.align	1
  19              		.arch armv7e-m
  20              		.syntax unified
  21              		.thumb
  22              		.thumb_func
  23              		.fpu fpv4-sp-d16
  25              	GenDsp_SetRange:
  26              	.LVL0:
  27              	.LFB3:
  28              		.file 1 "Dsp/widget/wgt_core/GenDsp.c"
   1:Dsp/widget/wgt_core/GenDsp.c **** #include "GenDsp.h"
   2:Dsp/widget/wgt_core/GenDsp.c **** #include "oledfont.h"
   3:Dsp/widget/wgt_core/GenDsp.c **** #include <math.h>
   4:Dsp/widget/wgt_core/GenDsp.c **** 
   5:Dsp/widget/wgt_core/GenDsp.c **** #define DegToRad(x) x / (180 / M_PI)
   6:Dsp/widget/wgt_core/GenDsp.c **** 
   7:Dsp/widget/wgt_core/GenDsp.c **** /* internal variable */
   8:Dsp/widget/wgt_core/GenDsp.c **** GenDsp_DspArea_Limit_Range DspRange = {
   9:Dsp/widget/wgt_core/GenDsp.c ****     .width = 0,
  10:Dsp/widget/wgt_core/GenDsp.c ****     .heigh = 0,
  11:Dsp/widget/wgt_core/GenDsp.c ****     .x = 0,
  12:Dsp/widget/wgt_core/GenDsp.c ****     .y = 0,
  13:Dsp/widget/wgt_core/GenDsp.c **** };
  14:Dsp/widget/wgt_core/GenDsp.c **** 
  15:Dsp/widget/wgt_core/GenDsp.c **** /* internal function definition */
  16:Dsp/widget/wgt_core/GenDsp.c **** 
  17:Dsp/widget/wgt_core/GenDsp.c **** /* external draw funtion definition */
  18:Dsp/widget/wgt_core/GenDsp.c **** static uint8_t GenDsp_GetStrLen(GenFont_List font, char *str);
  19:Dsp/widget/wgt_core/GenDsp.c **** static void GenDsp_DrawPoint(uint8_t **map, int8_t x, int8_t y, bool set);
  20:Dsp/widget/wgt_core/GenDsp.c **** static void GenDsp_SetRange(int8_t x, int8_t y, uint8_t width, uint8_t height);
  21:Dsp/widget/wgt_core/GenDsp.c **** static bool GenDsp_DrawChar(GenFont_List font, uint8_t **map, char c, int8_t x, int8_t y, bool col_
  22:Dsp/widget/wgt_core/GenDsp.c **** static void GenDsp_DrawStr(GenFont_List font, uint8_t **map, char *str, int8_t x, int8_t y, bool co
  23:Dsp/widget/wgt_core/GenDsp.c **** static void GenDsp_DrawNum(GenFont_List font, uint8_t **map, uint32_t num, int8_t x, int8_t y, bool
  24:Dsp/widget/wgt_core/GenDsp.c **** static void GenDsp_DrawCircle(uint8_t **map, int8_t center_x, int8_t center_y, uint8_t radius, uint
  25:Dsp/widget/wgt_core/GenDsp.c **** static void GenDsp_DrawRectangle(uint8_t **map, int8_t x, int8_t y, uint8_t width, uint8_t height, 
  26:Dsp/widget/wgt_core/GenDsp.c **** static void GenDsp_DrawLen(uint8_t **map, int8_t start_x, int8_t start_y, int8_t end_x, int8_t end_
  27:Dsp/widget/wgt_core/GenDsp.c **** static void GenDsp_DrawRad(uint8_t **map, int8_t center_x, int8_t center_y, uint8_t radius, uint8_t
  28:Dsp/widget/wgt_core/GenDsp.c **** static void GenDsp_Draw_RadiusRectangle(uint8_t **map, int8_t x, int8_t y, uint8_t width, uint8_t h
  29:Dsp/widget/wgt_core/GenDsp.c **** static void GenDsp_FillCircle(uint8_t **map, int8_t x, int8_t y, uint8_t radius, uint8_t option, bo
  30:Dsp/widget/wgt_core/GenDsp.c **** static void GenDsp_FillRectangle(uint8_t **map, int8_t x, int8_t y, uint8_t width, uint8_t height, 
ARM GAS  /var/folders/lx/hc4sn_b53233_zkc9xbbl97r0000gp/T//ccupGnhh.s 			page 2


  31:Dsp/widget/wgt_core/GenDsp.c **** static void GenDsp_Fill_RadiusRectangle(uint8_t **map, int8_t x, int8_t y, uint8_t width, uint8_t h
  32:Dsp/widget/wgt_core/GenDsp.c **** static void GenDsp_Draw_HLine(uint8_t **map, int8_t x, int8_t y, uint8_t len, uint8_t line_width, b
  33:Dsp/widget/wgt_core/GenDsp.c **** static void GenDsp_Draw_VLine(uint8_t **map, int8_t x, int8_t y, uint8_t len, uint8_t line_width, b
  34:Dsp/widget/wgt_core/GenDsp.c **** 
  35:Dsp/widget/wgt_core/GenDsp.c **** GeneralDispalyProc_TypeDef GenDsp_Interface = {
  36:Dsp/widget/wgt_core/GenDsp.c ****     .draw_img = NULL,
  37:Dsp/widget/wgt_core/GenDsp.c ****     .draw_str = GenDsp_DrawStr,
  38:Dsp/widget/wgt_core/GenDsp.c ****     .draw_num = GenDsp_DrawNum,
  39:Dsp/widget/wgt_core/GenDsp.c ****     .draw_line = GenDsp_DrawLen,
  40:Dsp/widget/wgt_core/GenDsp.c ****     .draw_vertical_line = GenDsp_Draw_VLine,
  41:Dsp/widget/wgt_core/GenDsp.c ****     .draw_horizon_line = GenDsp_Draw_HLine,
  42:Dsp/widget/wgt_core/GenDsp.c ****     .str_len = GenDsp_GetStrLen,
  43:Dsp/widget/wgt_core/GenDsp.c ****     .draw_char = GenDsp_DrawChar,
  44:Dsp/widget/wgt_core/GenDsp.c ****     .set_range = GenDsp_SetRange,
  45:Dsp/widget/wgt_core/GenDsp.c ****     .draw_point = GenDsp_DrawPoint,
  46:Dsp/widget/wgt_core/GenDsp.c ****     .draw_circle = GenDsp_DrawCircle,
  47:Dsp/widget/wgt_core/GenDsp.c ****     .draw_rectangle = GenDsp_DrawRectangle,
  48:Dsp/widget/wgt_core/GenDsp.c ****     .draw_radius_rectangle = GenDsp_Draw_RadiusRectangle,
  49:Dsp/widget/wgt_core/GenDsp.c ****     .fill_circle = GenDsp_FillCircle,
  50:Dsp/widget/wgt_core/GenDsp.c ****     .fill_rectangle = GenDsp_FillRectangle,
  51:Dsp/widget/wgt_core/GenDsp.c ****     .fill_radius_rectangle = GenDsp_Fill_RadiusRectangle,
  52:Dsp/widget/wgt_core/GenDsp.c **** };
  53:Dsp/widget/wgt_core/GenDsp.c **** 
  54:Dsp/widget/wgt_core/GenDsp.c **** static void GenDsp_SetRange(int8_t x, int8_t y, uint8_t width, uint8_t height)
  55:Dsp/widget/wgt_core/GenDsp.c **** {
  29              		.loc 1 55 1 view -0
  30              		.cfi_startproc
  31              		@ args = 0, pretend = 0, frame = 0
  32              		@ frame_needed = 0, uses_anonymous_args = 0
  33              		@ link register save eliminated.
  34              		.loc 1 55 1 is_stmt 0 view .LVU1
  35 0000 10B4     		push	{r4}
  36              	.LCFI0:
  37              		.cfi_def_cfa_offset 4
  38              		.cfi_offset 4, -4
  56:Dsp/widget/wgt_core/GenDsp.c ****     DspRange.heigh = height;
  39              		.loc 1 56 5 is_stmt 1 view .LVU2
  40              		.loc 1 56 20 is_stmt 0 view .LVU3
  41 0002 044C     		ldr	r4, .L3
  42 0004 E370     		strb	r3, [r4, #3]
  57:Dsp/widget/wgt_core/GenDsp.c ****     DspRange.width = width;
  43              		.loc 1 57 5 is_stmt 1 view .LVU4
  44              		.loc 1 57 20 is_stmt 0 view .LVU5
  45 0006 A270     		strb	r2, [r4, #2]
  58:Dsp/widget/wgt_core/GenDsp.c ****     DspRange.x = x;
  46              		.loc 1 58 5 is_stmt 1 view .LVU6
  47              		.loc 1 58 16 is_stmt 0 view .LVU7
  48 0008 2070     		strb	r0, [r4]
  59:Dsp/widget/wgt_core/GenDsp.c ****     DspRange.y = y;
  49              		.loc 1 59 5 is_stmt 1 view .LVU8
  50              		.loc 1 59 16 is_stmt 0 view .LVU9
  51 000a 6170     		strb	r1, [r4, #1]
  60:Dsp/widget/wgt_core/GenDsp.c **** }
  52              		.loc 1 60 1 view .LVU10
  53 000c 5DF8044B 		ldr	r4, [sp], #4
  54              	.LCFI1:
  55              		.cfi_restore 4
ARM GAS  /var/folders/lx/hc4sn_b53233_zkc9xbbl97r0000gp/T//ccupGnhh.s 			page 3


  56              		.cfi_def_cfa_offset 0
  57 0010 7047     		bx	lr
  58              	.L4:
  59 0012 00BF     		.align	2
  60              	.L3:
  61 0014 00000000 		.word	.LANCHOR0
  62              		.cfi_endproc
  63              	.LFE3:
  65              		.section	.text.GenDsp_DrawPoint,"ax",%progbits
  66              		.align	1
  67              		.syntax unified
  68              		.thumb
  69              		.thumb_func
  70              		.fpu fpv4-sp-d16
  72              	GenDsp_DrawPoint:
  73              	.LVL1:
  74              	.LFB4:
  61:Dsp/widget/wgt_core/GenDsp.c **** 
  62:Dsp/widget/wgt_core/GenDsp.c **** static void GenDsp_DrawPoint(uint8_t **map, int8_t x, int8_t y, bool set)
  63:Dsp/widget/wgt_core/GenDsp.c **** {
  75              		.loc 1 63 1 is_stmt 1 view -0
  76              		.cfi_startproc
  77              		@ args = 0, pretend = 0, frame = 0
  78              		@ frame_needed = 0, uses_anonymous_args = 0
  79              		@ link register save eliminated.
  80              		.loc 1 63 1 is_stmt 0 view .LVU12
  81 0000 10B4     		push	{r4}
  82              	.LCFI2:
  83              		.cfi_def_cfa_offset 4
  84              		.cfi_offset 4, -4
  64:Dsp/widget/wgt_core/GenDsp.c ****     if ((x >= DspRange.width) || (y >= DspRange.heigh) || (x < 0) || (y < 0))
  85              		.loc 1 64 5 is_stmt 1 view .LVU13
  86              		.loc 1 64 23 is_stmt 0 view .LVU14
  87 0002 0C4C     		ldr	r4, .L9
  88 0004 94F802C0 		ldrb	ip, [r4, #2]	@ zero_extendqisi2
  89              		.loc 1 64 8 view .LVU15
  90 0008 6145     		cmp	r1, ip
  91 000a 0BDA     		bge	.L5
  92              		.loc 1 64 48 discriminator 1 view .LVU16
  93 000c E478     		ldrb	r4, [r4, #3]	@ zero_extendqisi2
  94              		.loc 1 64 31 discriminator 1 view .LVU17
  95 000e A242     		cmp	r2, r4
  96 0010 08DA     		bge	.L5
  97              		.loc 1 64 56 discriminator 2 view .LVU18
  98 0012 0029     		cmp	r1, #0
  99 0014 06DB     		blt	.L5
 100              		.loc 1 64 67 discriminator 3 view .LVU19
 101 0016 002A     		cmp	r2, #0
 102 0018 04DB     		blt	.L5
  65:Dsp/widget/wgt_core/GenDsp.c ****         return;
  66:Dsp/widget/wgt_core/GenDsp.c **** 
  67:Dsp/widget/wgt_core/GenDsp.c ****     if (set)
 103              		.loc 1 67 5 is_stmt 1 view .LVU20
 104              		.loc 1 67 8 is_stmt 0 view .LVU21
 105 001a 33B1     		cbz	r3, .L7
  68:Dsp/widget/wgt_core/GenDsp.c ****     {
  69:Dsp/widget/wgt_core/GenDsp.c ****         map[y][x] = 1;
ARM GAS  /var/folders/lx/hc4sn_b53233_zkc9xbbl97r0000gp/T//ccupGnhh.s 			page 4


 106              		.loc 1 69 9 is_stmt 1 view .LVU22
 107              		.loc 1 69 12 is_stmt 0 view .LVU23
 108 001c 50F82230 		ldr	r3, [r0, r2, lsl #2]
 109              	.LVL2:
 110              		.loc 1 69 19 view .LVU24
 111 0020 0122     		movs	r2, #1
 112              	.LVL3:
 113              		.loc 1 69 19 view .LVU25
 114 0022 5A54     		strb	r2, [r3, r1]
 115              	.L5:
  70:Dsp/widget/wgt_core/GenDsp.c ****     }
  71:Dsp/widget/wgt_core/GenDsp.c ****     else
  72:Dsp/widget/wgt_core/GenDsp.c ****         map[y][x] = 0;
  73:Dsp/widget/wgt_core/GenDsp.c **** }
 116              		.loc 1 73 1 view .LVU26
 117 0024 5DF8044B 		ldr	r4, [sp], #4
 118              	.LCFI3:
 119              		.cfi_remember_state
 120              		.cfi_restore 4
 121              		.cfi_def_cfa_offset 0
 122 0028 7047     		bx	lr
 123              	.LVL4:
 124              	.L7:
 125              	.LCFI4:
 126              		.cfi_restore_state
  72:Dsp/widget/wgt_core/GenDsp.c **** }
 127              		.loc 1 72 9 is_stmt 1 view .LVU27
  72:Dsp/widget/wgt_core/GenDsp.c **** }
 128              		.loc 1 72 12 is_stmt 0 view .LVU28
 129 002a 50F82230 		ldr	r3, [r0, r2, lsl #2]
 130              	.LVL5:
  72:Dsp/widget/wgt_core/GenDsp.c **** }
 131              		.loc 1 72 19 view .LVU29
 132 002e 0022     		movs	r2, #0
 133              	.LVL6:
  72:Dsp/widget/wgt_core/GenDsp.c **** }
 134              		.loc 1 72 19 view .LVU30
 135 0030 5A54     		strb	r2, [r3, r1]
 136 0032 F7E7     		b	.L5
 137              	.L10:
 138              		.align	2
 139              	.L9:
 140 0034 00000000 		.word	.LANCHOR0
 141              		.cfi_endproc
 142              	.LFE4:
 144              		.section	.text.GenDsp_DrawChar,"ax",%progbits
 145              		.align	1
 146              		.syntax unified
 147              		.thumb
 148              		.thumb_func
 149              		.fpu fpv4-sp-d16
 151              	GenDsp_DrawChar:
 152              	.LVL7:
 153              	.LFB5:
  74:Dsp/widget/wgt_core/GenDsp.c **** 
  75:Dsp/widget/wgt_core/GenDsp.c **** static bool GenDsp_DrawChar(GenFont_List font, uint8_t **map, char c, int8_t x, int8_t y, bool col_
  76:Dsp/widget/wgt_core/GenDsp.c **** {
ARM GAS  /var/folders/lx/hc4sn_b53233_zkc9xbbl97r0000gp/T//ccupGnhh.s 			page 5


 154              		.loc 1 76 1 is_stmt 1 view -0
 155              		.cfi_startproc
 156              		@ args = 8, pretend = 0, frame = 8
 157              		@ frame_needed = 0, uses_anonymous_args = 0
 158              		.loc 1 76 1 is_stmt 0 view .LVU32
 159 0000 2DE9F04F 		push	{r4, r5, r6, r7, r8, r9, r10, fp, lr}
 160              	.LCFI5:
 161              		.cfi_def_cfa_offset 36
 162              		.cfi_offset 4, -36
 163              		.cfi_offset 5, -32
 164              		.cfi_offset 6, -28
 165              		.cfi_offset 7, -24
 166              		.cfi_offset 8, -20
 167              		.cfi_offset 9, -16
 168              		.cfi_offset 10, -12
 169              		.cfi_offset 11, -8
 170              		.cfi_offset 14, -4
 171 0004 83B0     		sub	sp, sp, #12
 172              	.LCFI6:
 173              		.cfi_def_cfa_offset 48
 174 0006 1F46     		mov	r7, r3
 175 0008 9DF930A0 		ldrsb	r10, [sp, #48]
 176 000c 9DF834B0 		ldrb	fp, [sp, #52]	@ zero_extendqisi2
  77:Dsp/widget/wgt_core/GenDsp.c ****     uint8_t temp;
 177              		.loc 1 77 5 is_stmt 1 view .LVU33
  78:Dsp/widget/wgt_core/GenDsp.c ****     int8_t y0 = y;
 178              		.loc 1 78 5 view .LVU34
 179              	.LVL8:
  79:Dsp/widget/wgt_core/GenDsp.c ****     c -= ' ';
 180              		.loc 1 79 5 view .LVU35
 181              		.loc 1 79 7 is_stmt 0 view .LVU36
 182 0010 203A     		subs	r2, r2, #32
 183              	.LVL9:
 184              		.loc 1 79 7 view .LVU37
 185 0012 D3B2     		uxtb	r3, r2
 186              	.LVL10:
 187              		.loc 1 79 7 view .LVU38
 188 0014 0193     		str	r3, [sp, #4]
 189              	.LVL11:
  80:Dsp/widget/wgt_core/GenDsp.c **** 
  81:Dsp/widget/wgt_core/GenDsp.c ****     if (DspRange.width <= x)
 190              		.loc 1 81 5 is_stmt 1 view .LVU39
 191              		.loc 1 81 17 is_stmt 0 view .LVU40
 192 0016 2F4B     		ldr	r3, .L29
 193 0018 9B78     		ldrb	r3, [r3, #2]	@ zero_extendqisi2
 194              		.loc 1 81 8 view .LVU41
 195 001a BB42     		cmp	r3, r7
 196 001c 54DD     		ble	.L23
 197 001e 8146     		mov	r9, r0
 198 0020 8846     		mov	r8, r1
 199 0022 5446     		mov	r4, r10
 200              	.LBB2:
  82:Dsp/widget/wgt_core/GenDsp.c ****         return false;
  83:Dsp/widget/wgt_core/GenDsp.c **** 
  84:Dsp/widget/wgt_core/GenDsp.c ****     for (uint8_t t = 0; t < font; t++)
 201              		.loc 1 84 18 view .LVU42
 202 0024 0023     		movs	r3, #0
ARM GAS  /var/folders/lx/hc4sn_b53233_zkc9xbbl97r0000gp/T//ccupGnhh.s 			page 6


 203 0026 0093     		str	r3, [sp]
 204 0028 3EE0     		b	.L13
 205              	.LVL12:
 206              	.L28:
  85:Dsp/widget/wgt_core/GenDsp.c ****     {
  86:Dsp/widget/wgt_core/GenDsp.c ****         if (font == Font_12)
  87:Dsp/widget/wgt_core/GenDsp.c ****             temp = oled_asc2_1206[c][t];
 207              		.loc 1 87 13 is_stmt 1 view .LVU43
 208              		.loc 1 87 18 is_stmt 0 view .LVU44
 209 002a 019B     		ldr	r3, [sp, #4]
 210 002c 03EB4303 		add	r3, r3, r3, lsl #1
 211 0030 294A     		ldr	r2, .L29+4
 212 0032 02EB8303 		add	r3, r2, r3, lsl #2
 213 0036 009A     		ldr	r2, [sp]
 214 0038 9E5C     		ldrb	r6, [r3, r2]	@ zero_extendqisi2
 215              	.LVL13:
 216              		.loc 1 87 18 view .LVU45
 217 003a 41E0     		b	.L15
 218              	.LVL14:
 219              	.L16:
 220              	.LBB3:
  88:Dsp/widget/wgt_core/GenDsp.c ****         else
  89:Dsp/widget/wgt_core/GenDsp.c ****             temp = oled_asc2_1608[c][t];
  90:Dsp/widget/wgt_core/GenDsp.c **** 
  91:Dsp/widget/wgt_core/GenDsp.c ****         for (uint8_t bit_index = 0; bit_index < FONT_WIDTH; bit_index++)
  92:Dsp/widget/wgt_core/GenDsp.c ****         {
  93:Dsp/widget/wgt_core/GenDsp.c ****             if ((DspRange.x + DspRange.width) <= x)
  94:Dsp/widget/wgt_core/GenDsp.c ****                 return false;
  95:Dsp/widget/wgt_core/GenDsp.c **** 
  96:Dsp/widget/wgt_core/GenDsp.c ****             if (temp & 0x80)
  97:Dsp/widget/wgt_core/GenDsp.c ****                 GenDsp_DrawPoint(map, x, y, col_inv ^ map[y][x]);
  98:Dsp/widget/wgt_core/GenDsp.c ****             else
  99:Dsp/widget/wgt_core/GenDsp.c ****                 GenDsp_DrawPoint(map, x, y, !col_inv ^ map[y][x]);
 221              		.loc 1 99 17 is_stmt 1 view .LVU46
 222              		.loc 1 99 45 is_stmt 0 view .LVU47
 223 003c 8BF00103 		eor	r3, fp, #1
 224              		.loc 1 99 59 view .LVU48
 225 0040 58F82420 		ldr	r2, [r8, r4, lsl #2]
 226              		.loc 1 99 62 view .LVU49
 227 0044 D25D     		ldrb	r2, [r2, r7]	@ zero_extendqisi2
 228              		.loc 1 99 17 view .LVU50
 229 0046 9B1A     		subs	r3, r3, r2
 230 0048 18BF     		it	ne
 231 004a 0123     		movne	r3, #1
 232 004c 2246     		mov	r2, r4
 233 004e 3946     		mov	r1, r7
 234 0050 4046     		mov	r0, r8
 235 0052 FFF7FEFF 		bl	GenDsp_DrawPoint
 236              	.LVL15:
 237              	.L17:
 100:Dsp/widget/wgt_core/GenDsp.c **** 
 101:Dsp/widget/wgt_core/GenDsp.c ****             temp <<= 1;
 238              		.loc 1 101 13 is_stmt 1 view .LVU51
 239              		.loc 1 101 18 is_stmt 0 view .LVU52
 240 0056 7600     		lsls	r6, r6, #1
 241              	.LVL16:
 242              		.loc 1 101 18 view .LVU53
ARM GAS  /var/folders/lx/hc4sn_b53233_zkc9xbbl97r0000gp/T//ccupGnhh.s 			page 7


 243 0058 F6B2     		uxtb	r6, r6
 244              	.LVL17:
 102:Dsp/widget/wgt_core/GenDsp.c **** 
 103:Dsp/widget/wgt_core/GenDsp.c ****             y++;
 245              		.loc 1 103 13 is_stmt 1 view .LVU54
 246              		.loc 1 103 14 is_stmt 0 view .LVU55
 247 005a 0134     		adds	r4, r4, #1
 248              	.LVL18:
 249              		.loc 1 103 14 view .LVU56
 250 005c 64B2     		sxtb	r4, r4
 251              	.LVL19:
 104:Dsp/widget/wgt_core/GenDsp.c ****             if ((y - y0) >= font)
 252              		.loc 1 104 13 is_stmt 1 view .LVU57
 253              		.loc 1 104 20 is_stmt 0 view .LVU58
 254 005e A4EB0A03 		sub	r3, r4, r10
 255              		.loc 1 104 16 view .LVU59
 256 0062 4B45     		cmp	r3, r9
 257 0064 19DA     		bge	.L26
  91:Dsp/widget/wgt_core/GenDsp.c ****         {
 258              		.loc 1 91 61 is_stmt 1 discriminator 2 view .LVU60
  91:Dsp/widget/wgt_core/GenDsp.c ****         {
 259              		.loc 1 91 70 is_stmt 0 discriminator 2 view .LVU61
 260 0066 0135     		adds	r5, r5, #1
 261              	.LVL20:
  91:Dsp/widget/wgt_core/GenDsp.c ****         {
 262              		.loc 1 91 70 discriminator 2 view .LVU62
 263 0068 EDB2     		uxtb	r5, r5
 264              	.LVL21:
 265              	.L20:
  91:Dsp/widget/wgt_core/GenDsp.c ****         {
 266              		.loc 1 91 37 is_stmt 1 discriminator 1 view .LVU63
  91:Dsp/widget/wgt_core/GenDsp.c ****         {
 267              		.loc 1 91 9 is_stmt 0 discriminator 1 view .LVU64
 268 006a 072D     		cmp	r5, #7
 269 006c 18D8     		bhi	.L19
  93:Dsp/widget/wgt_core/GenDsp.c ****                 return false;
 270              		.loc 1 93 13 is_stmt 1 view .LVU65
  93:Dsp/widget/wgt_core/GenDsp.c ****                 return false;
 271              		.loc 1 93 26 is_stmt 0 view .LVU66
 272 006e 194A     		ldr	r2, .L29
 273 0070 1378     		ldrb	r3, [r2]	@ zero_extendqisi2
  93:Dsp/widget/wgt_core/GenDsp.c ****                 return false;
 274              		.loc 1 93 39 view .LVU67
 275 0072 9278     		ldrb	r2, [r2, #2]	@ zero_extendqisi2
  93:Dsp/widget/wgt_core/GenDsp.c ****                 return false;
 276              		.loc 1 93 29 view .LVU68
 277 0074 1344     		add	r3, r3, r2
  93:Dsp/widget/wgt_core/GenDsp.c ****                 return false;
 278              		.loc 1 93 16 view .LVU69
 279 0076 BB42     		cmp	r3, r7
 280 0078 28DD     		ble	.L24
  96:Dsp/widget/wgt_core/GenDsp.c ****                 GenDsp_DrawPoint(map, x, y, col_inv ^ map[y][x]);
 281              		.loc 1 96 13 is_stmt 1 view .LVU70
  96:Dsp/widget/wgt_core/GenDsp.c ****                 GenDsp_DrawPoint(map, x, y, col_inv ^ map[y][x]);
 282              		.loc 1 96 16 is_stmt 0 view .LVU71
 283 007a 16F0800F 		tst	r6, #128
 284 007e DDD0     		beq	.L16
ARM GAS  /var/folders/lx/hc4sn_b53233_zkc9xbbl97r0000gp/T//ccupGnhh.s 			page 8


  97:Dsp/widget/wgt_core/GenDsp.c ****             else
 285              		.loc 1 97 17 is_stmt 1 view .LVU72
  97:Dsp/widget/wgt_core/GenDsp.c ****             else
 286              		.loc 1 97 58 is_stmt 0 view .LVU73
 287 0080 58F82430 		ldr	r3, [r8, r4, lsl #2]
  97:Dsp/widget/wgt_core/GenDsp.c ****             else
 288              		.loc 1 97 61 view .LVU74
 289 0084 DB5D     		ldrb	r3, [r3, r7]	@ zero_extendqisi2
  97:Dsp/widget/wgt_core/GenDsp.c ****             else
 290              		.loc 1 97 17 view .LVU75
 291 0086 BBEB0303 		subs	r3, fp, r3
 292 008a 18BF     		it	ne
 293 008c 0123     		movne	r3, #1
 294 008e 2246     		mov	r2, r4
 295 0090 3946     		mov	r1, r7
 296 0092 4046     		mov	r0, r8
 297 0094 FFF7FEFF 		bl	GenDsp_DrawPoint
 298              	.LVL22:
 299 0098 DDE7     		b	.L17
 300              	.L26:
 105:Dsp/widget/wgt_core/GenDsp.c ****             {
 106:Dsp/widget/wgt_core/GenDsp.c ****                 y = y0;
 301              		.loc 1 106 17 is_stmt 1 view .LVU76
 302              	.LVL23:
 107:Dsp/widget/wgt_core/GenDsp.c ****                 x++;
 303              		.loc 1 107 17 view .LVU77
 304              		.loc 1 107 18 is_stmt 0 view .LVU78
 305 009a 0137     		adds	r7, r7, #1
 306              	.LVL24:
 307              		.loc 1 107 18 view .LVU79
 308 009c 7FB2     		sxtb	r7, r7
 309              	.LVL25:
 108:Dsp/widget/wgt_core/GenDsp.c **** 
 109:Dsp/widget/wgt_core/GenDsp.c ****                 break;
 310              		.loc 1 109 17 is_stmt 1 view .LVU80
 106:Dsp/widget/wgt_core/GenDsp.c ****                 x++;
 311              		.loc 1 106 19 is_stmt 0 view .LVU81
 312 009e 5446     		mov	r4, r10
 313              	.LVL26:
 314              	.L19:
 106:Dsp/widget/wgt_core/GenDsp.c ****                 x++;
 315              		.loc 1 106 19 view .LVU82
 316              	.LBE3:
  84:Dsp/widget/wgt_core/GenDsp.c ****     {
 317              		.loc 1 84 35 is_stmt 1 discriminator 2 view .LVU83
  84:Dsp/widget/wgt_core/GenDsp.c ****     {
 318              		.loc 1 84 36 is_stmt 0 discriminator 2 view .LVU84
 319 00a0 009B     		ldr	r3, [sp]
 320 00a2 0133     		adds	r3, r3, #1
 321 00a4 DBB2     		uxtb	r3, r3
 322 00a6 0093     		str	r3, [sp]
 323              	.LVL27:
 324              	.L13:
  84:Dsp/widget/wgt_core/GenDsp.c ****     {
 325              		.loc 1 84 25 is_stmt 1 discriminator 1 view .LVU85
  84:Dsp/widget/wgt_core/GenDsp.c ****     {
 326              		.loc 1 84 5 is_stmt 0 discriminator 1 view .LVU86
ARM GAS  /var/folders/lx/hc4sn_b53233_zkc9xbbl97r0000gp/T//ccupGnhh.s 			page 9


 327 00a8 009B     		ldr	r3, [sp]
 328 00aa 4B45     		cmp	r3, r9
 329 00ac 0AD2     		bcs	.L27
  86:Dsp/widget/wgt_core/GenDsp.c ****             temp = oled_asc2_1206[c][t];
 330              		.loc 1 86 9 is_stmt 1 view .LVU87
  86:Dsp/widget/wgt_core/GenDsp.c ****             temp = oled_asc2_1206[c][t];
 331              		.loc 1 86 12 is_stmt 0 view .LVU88
 332 00ae B9F10C0F 		cmp	r9, #12
 333 00b2 BAD0     		beq	.L28
  89:Dsp/widget/wgt_core/GenDsp.c **** 
 334              		.loc 1 89 13 is_stmt 1 view .LVU89
  89:Dsp/widget/wgt_core/GenDsp.c **** 
 335              		.loc 1 89 18 is_stmt 0 view .LVU90
 336 00b4 094B     		ldr	r3, .L29+8
 337 00b6 019A     		ldr	r2, [sp, #4]
 338 00b8 03EB0213 		add	r3, r3, r2, lsl #4
 339 00bc 009A     		ldr	r2, [sp]
 340 00be 9E5C     		ldrb	r6, [r3, r2]	@ zero_extendqisi2
 341              	.LVL28:
 342              	.L15:
  89:Dsp/widget/wgt_core/GenDsp.c **** 
 343              		.loc 1 89 18 view .LVU91
 344              	.LBE2:
  76:Dsp/widget/wgt_core/GenDsp.c ****     uint8_t temp;
 345              		.loc 1 76 1 discriminator 1 view .LVU92
 346 00c0 0025     		movs	r5, #0
 347 00c2 D2E7     		b	.L20
 348              	.LVL29:
 349              	.L27:
 110:Dsp/widget/wgt_core/GenDsp.c ****             }
 111:Dsp/widget/wgt_core/GenDsp.c ****         }
 112:Dsp/widget/wgt_core/GenDsp.c ****     }
 113:Dsp/widget/wgt_core/GenDsp.c **** 
 114:Dsp/widget/wgt_core/GenDsp.c ****     return true;
 350              		.loc 1 114 12 view .LVU93
 351 00c4 0120     		movs	r0, #1
 352              	.LBB5:
 353 00c6 02E0     		b	.L12
 354              	.LVL30:
 355              	.L23:
 356              		.loc 1 114 12 view .LVU94
 357              	.LBE5:
  82:Dsp/widget/wgt_core/GenDsp.c **** 
 358              		.loc 1 82 16 view .LVU95
 359 00c8 0020     		movs	r0, #0
 360              	.LVL31:
  82:Dsp/widget/wgt_core/GenDsp.c **** 
 361              		.loc 1 82 16 view .LVU96
 362 00ca 00E0     		b	.L12
 363              	.LVL32:
 364              	.L24:
 365              	.LBB6:
 366              	.LBB4:
  94:Dsp/widget/wgt_core/GenDsp.c **** 
 367              		.loc 1 94 24 view .LVU97
 368 00cc 0020     		movs	r0, #0
 369              	.LVL33:
ARM GAS  /var/folders/lx/hc4sn_b53233_zkc9xbbl97r0000gp/T//ccupGnhh.s 			page 10


 370              	.L12:
  94:Dsp/widget/wgt_core/GenDsp.c **** 
 371              		.loc 1 94 24 view .LVU98
 372              	.LBE4:
 373              	.LBE6:
 115:Dsp/widget/wgt_core/GenDsp.c **** }
 374              		.loc 1 115 1 view .LVU99
 375 00ce 03B0     		add	sp, sp, #12
 376              	.LCFI7:
 377              		.cfi_def_cfa_offset 36
 378              		@ sp needed
 379 00d0 BDE8F08F 		pop	{r4, r5, r6, r7, r8, r9, r10, fp, pc}
 380              	.LVL34:
 381              	.L30:
 382              		.loc 1 115 1 view .LVU100
 383              		.align	2
 384              	.L29:
 385 00d4 00000000 		.word	.LANCHOR0
 386 00d8 00000000 		.word	oled_asc2_1206
 387 00dc 00000000 		.word	oled_asc2_1608
 388              		.cfi_endproc
 389              	.LFE5:
 391              		.section	.text.GenDsp_DrawStr,"ax",%progbits
 392              		.align	1
 393              		.syntax unified
 394              		.thumb
 395              		.thumb_func
 396              		.fpu fpv4-sp-d16
 398              	GenDsp_DrawStr:
 399              	.LVL35:
 400              	.LFB6:
 116:Dsp/widget/wgt_core/GenDsp.c **** 
 117:Dsp/widget/wgt_core/GenDsp.c **** static void GenDsp_DrawStr(GenFont_List font, uint8_t **map, char *str, int8_t x, int8_t y, bool co
 118:Dsp/widget/wgt_core/GenDsp.c **** {
 401              		.loc 1 118 1 is_stmt 1 view -0
 402              		.cfi_startproc
 403              		@ args = 8, pretend = 0, frame = 0
 404              		@ frame_needed = 0, uses_anonymous_args = 0
 405              		.loc 1 118 1 is_stmt 0 view .LVU102
 406 0000 2DE9F043 		push	{r4, r5, r6, r7, r8, r9, lr}
 407              	.LCFI8:
 408              		.cfi_def_cfa_offset 28
 409              		.cfi_offset 4, -28
 410              		.cfi_offset 5, -24
 411              		.cfi_offset 6, -20
 412              		.cfi_offset 7, -16
 413              		.cfi_offset 8, -12
 414              		.cfi_offset 9, -8
 415              		.cfi_offset 14, -4
 416 0004 83B0     		sub	sp, sp, #12
 417              	.LCFI9:
 418              		.cfi_def_cfa_offset 40
 419 0006 0746     		mov	r7, r0
 420 0008 0E46     		mov	r6, r1
 421 000a 1546     		mov	r5, r2
 422 000c 1C46     		mov	r4, r3
 423 000e 9DF92890 		ldrsb	r9, [sp, #40]
ARM GAS  /var/folders/lx/hc4sn_b53233_zkc9xbbl97r0000gp/T//ccupGnhh.s 			page 11


 424 0012 9DF82C80 		ldrb	r8, [sp, #44]	@ zero_extendqisi2
 119:Dsp/widget/wgt_core/GenDsp.c ****     while (*str != '\0')
 425              		.loc 1 119 5 is_stmt 1 view .LVU103
 426              		.loc 1 119 11 is_stmt 0 view .LVU104
 427 0016 02E0     		b	.L32
 428              	.LVL36:
 429              	.L36:
 120:Dsp/widget/wgt_core/GenDsp.c ****     {
 121:Dsp/widget/wgt_core/GenDsp.c ****         if (GenDsp_DrawChar(font, map, *str, x, y, col_inv))
 122:Dsp/widget/wgt_core/GenDsp.c ****         {
 123:Dsp/widget/wgt_core/GenDsp.c ****             x += FONT_WIDTH;
 430              		.loc 1 123 13 is_stmt 1 view .LVU105
 431              		.loc 1 123 15 is_stmt 0 view .LVU106
 432 0018 0834     		adds	r4, r4, #8
 433              	.LVL37:
 434              		.loc 1 123 15 view .LVU107
 435 001a 64B2     		sxtb	r4, r4
 436              	.LVL38:
 124:Dsp/widget/wgt_core/GenDsp.c ****             str++;
 437              		.loc 1 124 13 is_stmt 1 view .LVU108
 438              		.loc 1 124 16 is_stmt 0 view .LVU109
 439 001c 0135     		adds	r5, r5, #1
 440              	.LVL39:
 441              	.L32:
 119:Dsp/widget/wgt_core/GenDsp.c ****     while (*str != '\0')
 442              		.loc 1 119 11 is_stmt 1 view .LVU110
 119:Dsp/widget/wgt_core/GenDsp.c ****     while (*str != '\0')
 443              		.loc 1 119 12 is_stmt 0 view .LVU111
 444 001e 2A78     		ldrb	r2, [r5]	@ zero_extendqisi2
 119:Dsp/widget/wgt_core/GenDsp.c ****     while (*str != '\0')
 445              		.loc 1 119 11 view .LVU112
 446 0020 52B1     		cbz	r2, .L31
 121:Dsp/widget/wgt_core/GenDsp.c ****         {
 447              		.loc 1 121 9 is_stmt 1 view .LVU113
 121:Dsp/widget/wgt_core/GenDsp.c ****         {
 448              		.loc 1 121 13 is_stmt 0 view .LVU114
 449 0022 CDF80480 		str	r8, [sp, #4]
 450 0026 CDF80090 		str	r9, [sp]
 451 002a 2346     		mov	r3, r4
 452 002c 3146     		mov	r1, r6
 453 002e 3846     		mov	r0, r7
 454 0030 FFF7FEFF 		bl	GenDsp_DrawChar
 455              	.LVL40:
 121:Dsp/widget/wgt_core/GenDsp.c ****         {
 456              		.loc 1 121 12 view .LVU115
 457 0034 0028     		cmp	r0, #0
 458 0036 EFD1     		bne	.L36
 459              	.L31:
 125:Dsp/widget/wgt_core/GenDsp.c ****         }
 126:Dsp/widget/wgt_core/GenDsp.c ****         else
 127:Dsp/widget/wgt_core/GenDsp.c ****             break;
 128:Dsp/widget/wgt_core/GenDsp.c ****     }
 129:Dsp/widget/wgt_core/GenDsp.c **** }
 460              		.loc 1 129 1 view .LVU116
 461 0038 03B0     		add	sp, sp, #12
 462              	.LCFI10:
 463              		.cfi_def_cfa_offset 28
ARM GAS  /var/folders/lx/hc4sn_b53233_zkc9xbbl97r0000gp/T//ccupGnhh.s 			page 12


 464              		@ sp needed
 465 003a BDE8F083 		pop	{r4, r5, r6, r7, r8, r9, pc}
 466              		.loc 1 129 1 view .LVU117
 467              		.cfi_endproc
 468              	.LFE6:
 470              		.section	.text.GenDsp_GetStrLen,"ax",%progbits
 471              		.align	1
 472              		.syntax unified
 473              		.thumb
 474              		.thumb_func
 475              		.fpu fpv4-sp-d16
 477              	GenDsp_GetStrLen:
 478              	.LVL41:
 479              	.LFB8:
 130:Dsp/widget/wgt_core/GenDsp.c **** 
 131:Dsp/widget/wgt_core/GenDsp.c **** static void GenDsp_DrawNum(GenFont_List font, uint8_t **map, uint32_t num, int8_t x, int8_t y, bool
 132:Dsp/widget/wgt_core/GenDsp.c **** {
 133:Dsp/widget/wgt_core/GenDsp.c ****     char num_buff[MAX_DSP_NUM_LEN];
 134:Dsp/widget/wgt_core/GenDsp.c **** 
 135:Dsp/widget/wgt_core/GenDsp.c ****     sprintf(num_buff, "%d", num);
 136:Dsp/widget/wgt_core/GenDsp.c ****     GenDsp_DrawStr(font, map, num_buff, x, y, col_inv);
 137:Dsp/widget/wgt_core/GenDsp.c **** }
 138:Dsp/widget/wgt_core/GenDsp.c **** 
 139:Dsp/widget/wgt_core/GenDsp.c **** static uint8_t GenDsp_GetStrLen(GenFont_List font, char *str)
 140:Dsp/widget/wgt_core/GenDsp.c **** {
 480              		.loc 1 140 1 is_stmt 1 view -0
 481              		.cfi_startproc
 482              		@ args = 0, pretend = 0, frame = 0
 483              		@ frame_needed = 0, uses_anonymous_args = 0
 484              		@ link register save eliminated.
 141:Dsp/widget/wgt_core/GenDsp.c ****     uint8_t len = 0;
 485              		.loc 1 141 5 view .LVU119
 142:Dsp/widget/wgt_core/GenDsp.c **** 
 143:Dsp/widget/wgt_core/GenDsp.c ****     while (*str != '\0')
 486              		.loc 1 143 5 view .LVU120
 141:Dsp/widget/wgt_core/GenDsp.c ****     uint8_t len = 0;
 487              		.loc 1 141 13 is_stmt 0 view .LVU121
 488 0000 0020     		movs	r0, #0
 489              	.LVL42:
 490              		.loc 1 143 11 view .LVU122
 491 0002 02E0     		b	.L38
 492              	.LVL43:
 493              	.L39:
 144:Dsp/widget/wgt_core/GenDsp.c ****     {
 145:Dsp/widget/wgt_core/GenDsp.c ****         len += FONT_WIDTH;
 494              		.loc 1 145 9 is_stmt 1 view .LVU123
 495              		.loc 1 145 13 is_stmt 0 view .LVU124
 496 0004 0830     		adds	r0, r0, #8
 497              	.LVL44:
 498              		.loc 1 145 13 view .LVU125
 499 0006 C0B2     		uxtb	r0, r0
 500              	.LVL45:
 146:Dsp/widget/wgt_core/GenDsp.c ****         str++;
 501              		.loc 1 146 9 is_stmt 1 view .LVU126
 502              		.loc 1 146 12 is_stmt 0 view .LVU127
 503 0008 0131     		adds	r1, r1, #1
 504              	.LVL46:
ARM GAS  /var/folders/lx/hc4sn_b53233_zkc9xbbl97r0000gp/T//ccupGnhh.s 			page 13


 505              	.L38:
 143:Dsp/widget/wgt_core/GenDsp.c ****     {
 506              		.loc 1 143 11 is_stmt 1 view .LVU128
 143:Dsp/widget/wgt_core/GenDsp.c ****     {
 507              		.loc 1 143 12 is_stmt 0 view .LVU129
 508 000a 0B78     		ldrb	r3, [r1]	@ zero_extendqisi2
 143:Dsp/widget/wgt_core/GenDsp.c ****     {
 509              		.loc 1 143 11 view .LVU130
 510 000c 002B     		cmp	r3, #0
 511 000e F9D1     		bne	.L39
 147:Dsp/widget/wgt_core/GenDsp.c ****     }
 148:Dsp/widget/wgt_core/GenDsp.c **** 
 149:Dsp/widget/wgt_core/GenDsp.c ****     return len;
 512              		.loc 1 149 5 is_stmt 1 view .LVU131
 150:Dsp/widget/wgt_core/GenDsp.c **** }
 513              		.loc 1 150 1 is_stmt 0 view .LVU132
 514 0010 7047     		bx	lr
 515              		.cfi_endproc
 516              	.LFE8:
 518              		.section	.text.GenDsp_DrawLen,"ax",%progbits
 519              		.align	1
 520              		.syntax unified
 521              		.thumb
 522              		.thumb_func
 523              		.fpu fpv4-sp-d16
 525              	GenDsp_DrawLen:
 526              	.LVL47:
 527              	.LFB9:
 151:Dsp/widget/wgt_core/GenDsp.c **** 
 152:Dsp/widget/wgt_core/GenDsp.c **** static void GenDsp_DrawLen(uint8_t **map, int8_t start_x, int8_t start_y, int8_t end_x, int8_t end_
 153:Dsp/widget/wgt_core/GenDsp.c **** {
 528              		.loc 1 153 1 is_stmt 1 view -0
 529              		.cfi_startproc
 530              		@ args = 12, pretend = 0, frame = 16
 531              		@ frame_needed = 0, uses_anonymous_args = 0
 532              		.loc 1 153 1 is_stmt 0 view .LVU134
 533 0000 2DE9F04F 		push	{r4, r5, r6, r7, r8, r9, r10, fp, lr}
 534              	.LCFI11:
 535              		.cfi_def_cfa_offset 36
 536              		.cfi_offset 4, -36
 537              		.cfi_offset 5, -32
 538              		.cfi_offset 6, -28
 539              		.cfi_offset 7, -24
 540              		.cfi_offset 8, -20
 541              		.cfi_offset 9, -16
 542              		.cfi_offset 10, -12
 543              		.cfi_offset 11, -8
 544              		.cfi_offset 14, -4
 545 0004 85B0     		sub	sp, sp, #20
 546              	.LCFI12:
 547              		.cfi_def_cfa_offset 56
 548 0006 0090     		str	r0, [sp]
 549 0008 8846     		mov	r8, r1
 550 000a 9146     		mov	r9, r2
 551 000c 9DF84020 		ldrb	r2, [sp, #64]	@ zero_extendqisi2
 552              	.LVL48:
 553              		.loc 1 153 1 view .LVU135
ARM GAS  /var/folders/lx/hc4sn_b53233_zkc9xbbl97r0000gp/T//ccupGnhh.s 			page 14


 554 0010 0192     		str	r2, [sp, #4]
 154:Dsp/widget/wgt_core/GenDsp.c ****     int8_t xerr = 0;
 555              		.loc 1 154 5 is_stmt 1 view .LVU136
 556              	.LVL49:
 155:Dsp/widget/wgt_core/GenDsp.c ****     int8_t yerr = 0;
 557              		.loc 1 155 5 view .LVU137
 156:Dsp/widget/wgt_core/GenDsp.c ****     int8_t delta_x = end_x - start_x;
 558              		.loc 1 156 5 view .LVU138
 559              		.loc 1 156 28 is_stmt 0 view .LVU139
 560 0012 DBB2     		uxtb	r3, r3
 561              		.loc 1 156 28 view .LVU140
 562 0014 C9B2     		uxtb	r1, r1
 563              		.loc 1 156 28 view .LVU141
 564 0016 A3EB010A 		sub	r10, r3, r1
 565              		.loc 1 156 12 view .LVU142
 566 001a 4FFA8AFA 		sxtb	r10, r10
 567              	.LVL50:
 157:Dsp/widget/wgt_core/GenDsp.c ****     int8_t delta_y = end_y - start_y;
 568              		.loc 1 157 5 is_stmt 1 view .LVU143
 569              		.loc 1 157 28 is_stmt 0 view .LVU144
 570 001e 9DF83800 		ldrb	r0, [sp, #56]	@ zero_extendqisi2
 571              	.LVL51:
 572              		.loc 1 157 28 view .LVU145
 573 0022 5FFA89F2 		uxtb	r2, r9
 574 0026 A0EB020B 		sub	fp, r0, r2
 575              		.loc 1 157 12 view .LVU146
 576 002a 4FFA8BFB 		sxtb	fp, fp
 577              	.LVL52:
 158:Dsp/widget/wgt_core/GenDsp.c ****     int16_t distance;
 578              		.loc 1 158 5 is_stmt 1 view .LVU147
 159:Dsp/widget/wgt_core/GenDsp.c ****     int8_t uRow = start_x;
 579              		.loc 1 159 5 view .LVU148
 160:Dsp/widget/wgt_core/GenDsp.c ****     int8_t uCol = start_y;
 580              		.loc 1 160 5 view .LVU149
 161:Dsp/widget/wgt_core/GenDsp.c **** 
 162:Dsp/widget/wgt_core/GenDsp.c ****     int8_t incx, incy;
 581              		.loc 1 162 5 view .LVU150
 163:Dsp/widget/wgt_core/GenDsp.c **** 
 164:Dsp/widget/wgt_core/GenDsp.c ****     if (delta_x > 0)
 582              		.loc 1 164 5 view .LVU151
 583              		.loc 1 164 8 is_stmt 0 view .LVU152
 584 002e BAF1000F 		cmp	r10, #0
 585 0032 0EDD     		ble	.L54
 165:Dsp/widget/wgt_core/GenDsp.c ****     {
 166:Dsp/widget/wgt_core/GenDsp.c ****         incx = 1;
 586              		.loc 1 166 14 view .LVU153
 587 0034 0123     		movs	r3, #1
 588              	.LVL53:
 589              		.loc 1 166 14 view .LVU154
 590 0036 0293     		str	r3, [sp, #8]
 591              	.L41:
 592              	.LVL54:
 167:Dsp/widget/wgt_core/GenDsp.c ****     }
 168:Dsp/widget/wgt_core/GenDsp.c ****     else if (delta_x == 0)
 169:Dsp/widget/wgt_core/GenDsp.c ****     {
 170:Dsp/widget/wgt_core/GenDsp.c ****         incx = 0;
 171:Dsp/widget/wgt_core/GenDsp.c ****     }
ARM GAS  /var/folders/lx/hc4sn_b53233_zkc9xbbl97r0000gp/T//ccupGnhh.s 			page 15


 172:Dsp/widget/wgt_core/GenDsp.c ****     else
 173:Dsp/widget/wgt_core/GenDsp.c ****     {
 174:Dsp/widget/wgt_core/GenDsp.c ****         incx = -1;
 175:Dsp/widget/wgt_core/GenDsp.c ****         delta_x = -delta_x;
 176:Dsp/widget/wgt_core/GenDsp.c ****     }
 177:Dsp/widget/wgt_core/GenDsp.c **** 
 178:Dsp/widget/wgt_core/GenDsp.c ****     if (delta_y > 0)
 593              		.loc 1 178 5 is_stmt 1 view .LVU155
 594              		.loc 1 178 8 is_stmt 0 view .LVU156
 595 0038 BBF1000F 		cmp	fp, #0
 596 003c 16DD     		ble	.L55
 179:Dsp/widget/wgt_core/GenDsp.c ****     {
 180:Dsp/widget/wgt_core/GenDsp.c ****         incy = 1;
 597              		.loc 1 180 14 view .LVU157
 598 003e 0123     		movs	r3, #1
 599 0040 0393     		str	r3, [sp, #12]
 600              	.L42:
 601              	.LVL55:
 181:Dsp/widget/wgt_core/GenDsp.c ****     }
 182:Dsp/widget/wgt_core/GenDsp.c ****     else if (delta_y == 0)
 183:Dsp/widget/wgt_core/GenDsp.c ****     {
 184:Dsp/widget/wgt_core/GenDsp.c ****         incy = 0;
 185:Dsp/widget/wgt_core/GenDsp.c ****     }
 186:Dsp/widget/wgt_core/GenDsp.c ****     else
 187:Dsp/widget/wgt_core/GenDsp.c ****     {
 188:Dsp/widget/wgt_core/GenDsp.c ****         incy = -1;
 189:Dsp/widget/wgt_core/GenDsp.c ****         delta_y = -delta_y;
 190:Dsp/widget/wgt_core/GenDsp.c ****     }
 191:Dsp/widget/wgt_core/GenDsp.c **** 
 192:Dsp/widget/wgt_core/GenDsp.c ****     if (delta_x > delta_y)
 602              		.loc 1 192 5 is_stmt 1 view .LVU158
 603              		.loc 1 192 8 is_stmt 0 view .LVU159
 604 0042 DA45     		cmp	r10, fp
 605 0044 1FDD     		ble	.L43
 193:Dsp/widget/wgt_core/GenDsp.c ****     {
 194:Dsp/widget/wgt_core/GenDsp.c ****         distance = delta_x;
 606              		.loc 1 194 9 is_stmt 1 view .LVU160
 607              		.loc 1 194 18 is_stmt 0 view .LVU161
 608 0046 0FFA8AF7 		sxth	r7, r10
 609              	.LVL56:
 610              	.L44:
 195:Dsp/widget/wgt_core/GenDsp.c ****     }
 196:Dsp/widget/wgt_core/GenDsp.c ****     else
 197:Dsp/widget/wgt_core/GenDsp.c ****     {
 198:Dsp/widget/wgt_core/GenDsp.c ****         distance = delta_y;
 199:Dsp/widget/wgt_core/GenDsp.c ****     }
 200:Dsp/widget/wgt_core/GenDsp.c **** 
 201:Dsp/widget/wgt_core/GenDsp.c ****     for (uint8_t t = 0; t < distance + 1; t++)
 611              		.loc 1 201 5 is_stmt 1 view .LVU162
 612              	.LBB7:
 613              		.loc 1 201 10 view .LVU163
 614              		.loc 1 201 18 is_stmt 0 view .LVU164
 615 004a 0026     		movs	r6, #0
 616              	.LBE7:
 155:Dsp/widget/wgt_core/GenDsp.c ****     int8_t delta_x = end_x - start_x;
 617              		.loc 1 155 12 view .LVU165
 618 004c 3546     		mov	r5, r6
ARM GAS  /var/folders/lx/hc4sn_b53233_zkc9xbbl97r0000gp/T//ccupGnhh.s 			page 16


 154:Dsp/widget/wgt_core/GenDsp.c ****     int8_t yerr = 0;
 619              		.loc 1 154 12 view .LVU166
 620 004e 3446     		mov	r4, r6
 621              	.LBB8:
 622              		.loc 1 201 5 view .LVU167
 623 0050 1EE0     		b	.L45
 624              	.LVL57:
 625              	.L54:
 626              		.loc 1 201 5 view .LVU168
 627              	.LBE8:
 168:Dsp/widget/wgt_core/GenDsp.c ****     {
 628              		.loc 1 168 10 is_stmt 1 view .LVU169
 168:Dsp/widget/wgt_core/GenDsp.c ****     {
 629              		.loc 1 168 13 is_stmt 0 view .LVU170
 630 0052 BAF1000F 		cmp	r10, #0
 631 0056 06D0     		beq	.L50
 174:Dsp/widget/wgt_core/GenDsp.c ****         delta_x = -delta_x;
 632              		.loc 1 174 9 is_stmt 1 view .LVU171
 633              	.LVL58:
 175:Dsp/widget/wgt_core/GenDsp.c ****     }
 634              		.loc 1 175 9 view .LVU172
 175:Dsp/widget/wgt_core/GenDsp.c ****     }
 635              		.loc 1 175 17 is_stmt 0 view .LVU173
 636 0058 CB1A     		subs	r3, r1, r3
 637 005a 4FFA83FA 		sxtb	r10, r3
 638              	.LVL59:
 174:Dsp/widget/wgt_core/GenDsp.c ****         delta_x = -delta_x;
 639              		.loc 1 174 14 view .LVU174
 640 005e 4FF0FF33 		mov	r3, #-1
 641 0062 0293     		str	r3, [sp, #8]
 642 0064 E8E7     		b	.L41
 643              	.LVL60:
 644              	.L50:
 170:Dsp/widget/wgt_core/GenDsp.c ****     }
 645              		.loc 1 170 14 view .LVU175
 646 0066 CDF808A0 		str	r10, [sp, #8]
 647 006a E5E7     		b	.L41
 648              	.LVL61:
 649              	.L55:
 182:Dsp/widget/wgt_core/GenDsp.c ****     {
 650              		.loc 1 182 10 is_stmt 1 view .LVU176
 182:Dsp/widget/wgt_core/GenDsp.c ****     {
 651              		.loc 1 182 13 is_stmt 0 view .LVU177
 652 006c BBF1000F 		cmp	fp, #0
 653 0070 06D0     		beq	.L52
 188:Dsp/widget/wgt_core/GenDsp.c ****         delta_y = -delta_y;
 654              		.loc 1 188 9 is_stmt 1 view .LVU178
 655              	.LVL62:
 189:Dsp/widget/wgt_core/GenDsp.c ****     }
 656              		.loc 1 189 9 view .LVU179
 189:Dsp/widget/wgt_core/GenDsp.c ****     }
 657              		.loc 1 189 17 is_stmt 0 view .LVU180
 658 0072 121A     		subs	r2, r2, r0
 659 0074 4FFA82FB 		sxtb	fp, r2
 660              	.LVL63:
 188:Dsp/widget/wgt_core/GenDsp.c ****         delta_y = -delta_y;
 661              		.loc 1 188 14 view .LVU181
ARM GAS  /var/folders/lx/hc4sn_b53233_zkc9xbbl97r0000gp/T//ccupGnhh.s 			page 17


 662 0078 4FF0FF33 		mov	r3, #-1
 663 007c 0393     		str	r3, [sp, #12]
 664 007e E0E7     		b	.L42
 665              	.LVL64:
 666              	.L52:
 184:Dsp/widget/wgt_core/GenDsp.c ****     }
 667              		.loc 1 184 14 view .LVU182
 668 0080 CDF80CB0 		str	fp, [sp, #12]
 669 0084 DDE7     		b	.L42
 670              	.LVL65:
 671              	.L43:
 198:Dsp/widget/wgt_core/GenDsp.c ****     }
 672              		.loc 1 198 9 is_stmt 1 view .LVU183
 198:Dsp/widget/wgt_core/GenDsp.c ****     }
 673              		.loc 1 198 18 is_stmt 0 view .LVU184
 674 0086 0FFA8BF7 		sxth	r7, fp
 675              	.LVL66:
 198:Dsp/widget/wgt_core/GenDsp.c ****     }
 676              		.loc 1 198 18 view .LVU185
 677 008a DEE7     		b	.L44
 678              	.LVL67:
 679              	.L47:
 680              	.LBB9:
 681              		.loc 1 201 43 is_stmt 1 discriminator 2 view .LVU186
 682              		.loc 1 201 44 is_stmt 0 discriminator 2 view .LVU187
 683 008c 0136     		adds	r6, r6, #1
 684              	.LVL68:
 685              		.loc 1 201 44 discriminator 2 view .LVU188
 686 008e F6B2     		uxtb	r6, r6
 687              	.LVL69:
 688              	.L45:
 689              		.loc 1 201 25 is_stmt 1 discriminator 1 view .LVU189
 690              		.loc 1 201 5 is_stmt 0 discriminator 1 view .LVU190
 691 0090 B742     		cmp	r7, r6
 692 0092 1EDB     		blt	.L56
 202:Dsp/widget/wgt_core/GenDsp.c ****     {
 203:Dsp/widget/wgt_core/GenDsp.c ****         GenDsp_DrawPoint(map, uRow, uCol, col_inv);
 693              		.loc 1 203 9 is_stmt 1 view .LVU191
 694 0094 019B     		ldr	r3, [sp, #4]
 695 0096 4A46     		mov	r2, r9
 696 0098 4146     		mov	r1, r8
 697 009a 0098     		ldr	r0, [sp]
 698 009c FFF7FEFF 		bl	GenDsp_DrawPoint
 699              	.LVL70:
 204:Dsp/widget/wgt_core/GenDsp.c **** 
 205:Dsp/widget/wgt_core/GenDsp.c ****         xerr += delta_x;
 700              		.loc 1 205 9 view .LVU192
 701              		.loc 1 205 14 is_stmt 0 view .LVU193
 702 00a0 5444     		add	r4, r4, r10
 703              	.LVL71:
 704              		.loc 1 205 14 view .LVU194
 705 00a2 E2B2     		uxtb	r2, r4
 706 00a4 64B2     		sxtb	r4, r4
 707              	.LVL72:
 206:Dsp/widget/wgt_core/GenDsp.c ****         yerr += delta_y;
 708              		.loc 1 206 9 is_stmt 1 view .LVU195
 709              		.loc 1 206 14 is_stmt 0 view .LVU196
ARM GAS  /var/folders/lx/hc4sn_b53233_zkc9xbbl97r0000gp/T//ccupGnhh.s 			page 18


 710 00a6 5D44     		add	r5, r5, fp
 711              	.LVL73:
 712              		.loc 1 206 14 view .LVU197
 713 00a8 EBB2     		uxtb	r3, r5
 714 00aa 6DB2     		sxtb	r5, r5
 715              	.LVL74:
 207:Dsp/widget/wgt_core/GenDsp.c **** 
 208:Dsp/widget/wgt_core/GenDsp.c ****         if (xerr >= distance)
 716              		.loc 1 208 9 is_stmt 1 view .LVU198
 717              		.loc 1 208 18 is_stmt 0 view .LVU199
 718 00ac 21B2     		sxth	r1, r4
 719              		.loc 1 208 12 view .LVU200
 720 00ae B942     		cmp	r1, r7
 721 00b0 05DB     		blt	.L46
 209:Dsp/widget/wgt_core/GenDsp.c ****         {
 210:Dsp/widget/wgt_core/GenDsp.c ****             xerr -= distance;
 722              		.loc 1 210 13 is_stmt 1 view .LVU201
 723              		.loc 1 210 18 is_stmt 0 view .LVU202
 724 00b2 D21B     		subs	r2, r2, r7
 725 00b4 54B2     		sxtb	r4, r2
 726              	.LVL75:
 211:Dsp/widget/wgt_core/GenDsp.c ****             uRow += incx;
 727              		.loc 1 211 13 is_stmt 1 view .LVU203
 728              		.loc 1 211 18 is_stmt 0 view .LVU204
 729 00b6 029A     		ldr	r2, [sp, #8]
 730 00b8 9044     		add	r8, r8, r2
 731              	.LVL76:
 732              		.loc 1 211 18 view .LVU205
 733 00ba 4FFA88F8 		sxtb	r8, r8
 734              	.LVL77:
 735              	.L46:
 212:Dsp/widget/wgt_core/GenDsp.c ****         }
 213:Dsp/widget/wgt_core/GenDsp.c ****         if (yerr >= distance)
 736              		.loc 1 213 9 is_stmt 1 view .LVU206
 737              		.loc 1 213 18 is_stmt 0 view .LVU207
 738 00be 2AB2     		sxth	r2, r5
 739              		.loc 1 213 12 view .LVU208
 740 00c0 BA42     		cmp	r2, r7
 741 00c2 E3DB     		blt	.L47
 214:Dsp/widget/wgt_core/GenDsp.c ****         {
 215:Dsp/widget/wgt_core/GenDsp.c ****             yerr -= distance;
 742              		.loc 1 215 13 is_stmt 1 view .LVU209
 743              		.loc 1 215 18 is_stmt 0 view .LVU210
 744 00c4 DB1B     		subs	r3, r3, r7
 745 00c6 5DB2     		sxtb	r5, r3
 746              	.LVL78:
 216:Dsp/widget/wgt_core/GenDsp.c ****             uCol += incy;
 747              		.loc 1 216 13 is_stmt 1 view .LVU211
 748              		.loc 1 216 18 is_stmt 0 view .LVU212
 749 00c8 039B     		ldr	r3, [sp, #12]
 750 00ca 9944     		add	r9, r9, r3
 751              	.LVL79:
 752              		.loc 1 216 18 view .LVU213
 753 00cc 4FFA89F9 		sxtb	r9, r9
 754              	.LVL80:
 755              		.loc 1 216 18 view .LVU214
 756 00d0 DCE7     		b	.L47
ARM GAS  /var/folders/lx/hc4sn_b53233_zkc9xbbl97r0000gp/T//ccupGnhh.s 			page 19


 757              	.L56:
 758              		.loc 1 216 18 view .LVU215
 759              	.LBE9:
 217:Dsp/widget/wgt_core/GenDsp.c ****         }
 218:Dsp/widget/wgt_core/GenDsp.c ****     }
 219:Dsp/widget/wgt_core/GenDsp.c **** }
 760              		.loc 1 219 1 view .LVU216
 761 00d2 05B0     		add	sp, sp, #20
 762              	.LCFI13:
 763              		.cfi_def_cfa_offset 36
 764              	.LVL81:
 765              		.loc 1 219 1 view .LVU217
 766              		@ sp needed
 767 00d4 BDE8F08F 		pop	{r4, r5, r6, r7, r8, r9, r10, fp, pc}
 768              		.loc 1 219 1 view .LVU218
 769              		.cfi_endproc
 770              	.LFE9:
 772              		.section	.text.GenDsp_Draw_VLine,"ax",%progbits
 773              		.align	1
 774              		.syntax unified
 775              		.thumb
 776              		.thumb_func
 777              		.fpu fpv4-sp-d16
 779              	GenDsp_Draw_VLine:
 780              	.LVL82:
 781              	.LFB10:
 220:Dsp/widget/wgt_core/GenDsp.c **** 
 221:Dsp/widget/wgt_core/GenDsp.c **** static void GenDsp_Draw_VLine(uint8_t **map, int8_t x, int8_t y, uint8_t len, uint8_t line_width, b
 222:Dsp/widget/wgt_core/GenDsp.c **** {
 782              		.loc 1 222 1 is_stmt 1 view -0
 783              		.cfi_startproc
 784              		@ args = 8, pretend = 0, frame = 0
 785              		@ frame_needed = 0, uses_anonymous_args = 0
 786              		.loc 1 222 1 is_stmt 0 view .LVU220
 787 0000 10B5     		push	{r4, lr}
 788              	.LCFI14:
 789              		.cfi_def_cfa_offset 8
 790              		.cfi_offset 4, -8
 791              		.cfi_offset 14, -4
 792 0002 84B0     		sub	sp, sp, #16
 793              	.LCFI15:
 794              		.cfi_def_cfa_offset 24
 223:Dsp/widget/wgt_core/GenDsp.c ****     GenDsp_DrawLen(map, x, y, x, y + len, line_width, col_inv);
 795              		.loc 1 223 5 is_stmt 1 view .LVU221
 796              		.loc 1 223 36 is_stmt 0 view .LVU222
 797 0004 1344     		add	r3, r3, r2
 798              	.LVL83:
 799              		.loc 1 223 5 view .LVU223
 800 0006 9DF81C40 		ldrb	r4, [sp, #28]	@ zero_extendqisi2
 801 000a 0294     		str	r4, [sp, #8]
 802 000c 9DF81840 		ldrb	r4, [sp, #24]	@ zero_extendqisi2
 803 0010 0194     		str	r4, [sp, #4]
 804 0012 5BB2     		sxtb	r3, r3
 805 0014 0093     		str	r3, [sp]
 806 0016 0B46     		mov	r3, r1
 807 0018 FFF7FEFF 		bl	GenDsp_DrawLen
 808              	.LVL84:
ARM GAS  /var/folders/lx/hc4sn_b53233_zkc9xbbl97r0000gp/T//ccupGnhh.s 			page 20


 224:Dsp/widget/wgt_core/GenDsp.c **** }
 809              		.loc 1 224 1 view .LVU224
 810 001c 04B0     		add	sp, sp, #16
 811              	.LCFI16:
 812              		.cfi_def_cfa_offset 8
 813              		@ sp needed
 814 001e 10BD     		pop	{r4, pc}
 815              		.loc 1 224 1 view .LVU225
 816              		.cfi_endproc
 817              	.LFE10:
 819              		.section	.text.GenDsp_Draw_HLine,"ax",%progbits
 820              		.align	1
 821              		.syntax unified
 822              		.thumb
 823              		.thumb_func
 824              		.fpu fpv4-sp-d16
 826              	GenDsp_Draw_HLine:
 827              	.LVL85:
 828              	.LFB11:
 225:Dsp/widget/wgt_core/GenDsp.c **** 
 226:Dsp/widget/wgt_core/GenDsp.c **** static void GenDsp_Draw_HLine(uint8_t **map, int8_t x, int8_t y, uint8_t len, uint8_t line_width, b
 227:Dsp/widget/wgt_core/GenDsp.c **** {
 829              		.loc 1 227 1 is_stmt 1 view -0
 830              		.cfi_startproc
 831              		@ args = 8, pretend = 0, frame = 0
 832              		@ frame_needed = 0, uses_anonymous_args = 0
 833              		.loc 1 227 1 is_stmt 0 view .LVU227
 834 0000 10B5     		push	{r4, lr}
 835              	.LCFI17:
 836              		.cfi_def_cfa_offset 8
 837              		.cfi_offset 4, -8
 838              		.cfi_offset 14, -4
 839 0002 84B0     		sub	sp, sp, #16
 840              	.LCFI18:
 841              		.cfi_def_cfa_offset 24
 228:Dsp/widget/wgt_core/GenDsp.c ****     GenDsp_DrawLen(map, x, y, x + len, y, line_width, col_inv);
 842              		.loc 1 228 5 is_stmt 1 view .LVU228
 843              		.loc 1 228 33 is_stmt 0 view .LVU229
 844 0004 0B44     		add	r3, r3, r1
 845              	.LVL86:
 846              		.loc 1 228 5 view .LVU230
 847 0006 9DF81C40 		ldrb	r4, [sp, #28]	@ zero_extendqisi2
 848 000a 0294     		str	r4, [sp, #8]
 849 000c 9DF81840 		ldrb	r4, [sp, #24]	@ zero_extendqisi2
 850 0010 0194     		str	r4, [sp, #4]
 851 0012 0092     		str	r2, [sp]
 852 0014 5BB2     		sxtb	r3, r3
 853 0016 FFF7FEFF 		bl	GenDsp_DrawLen
 854              	.LVL87:
 229:Dsp/widget/wgt_core/GenDsp.c **** }
 855              		.loc 1 229 1 view .LVU231
 856 001a 04B0     		add	sp, sp, #16
 857              	.LCFI19:
 858              		.cfi_def_cfa_offset 8
 859              		@ sp needed
 860 001c 10BD     		pop	{r4, pc}
 861              		.loc 1 229 1 view .LVU232
ARM GAS  /var/folders/lx/hc4sn_b53233_zkc9xbbl97r0000gp/T//ccupGnhh.s 			page 21


 862              		.cfi_endproc
 863              	.LFE11:
 865              		.section	.text.GenDsp_Draw_Circle_Section,"ax",%progbits
 866              		.align	1
 867              		.syntax unified
 868              		.thumb
 869              		.thumb_func
 870              		.fpu fpv4-sp-d16
 872              	GenDsp_Draw_Circle_Section:
 873              	.LVL88:
 874              	.LFB12:
 230:Dsp/widget/wgt_core/GenDsp.c **** 
 231:Dsp/widget/wgt_core/GenDsp.c **** static void GenDsp_Draw_Circle_Section(uint8_t **map, int8_t x, int8_t y, int8_t x0, int8_t y0, uin
 232:Dsp/widget/wgt_core/GenDsp.c **** {
 875              		.loc 1 232 1 is_stmt 1 view -0
 876              		.cfi_startproc
 877              		@ args = 12, pretend = 0, frame = 16
 878              		@ frame_needed = 0, uses_anonymous_args = 0
 879              		.loc 1 232 1 is_stmt 0 view .LVU234
 880 0000 2DE9F04F 		push	{r4, r5, r6, r7, r8, r9, r10, fp, lr}
 881              	.LCFI20:
 882              		.cfi_def_cfa_offset 36
 883              		.cfi_offset 4, -36
 884              		.cfi_offset 5, -32
 885              		.cfi_offset 6, -28
 886              		.cfi_offset 7, -24
 887              		.cfi_offset 8, -20
 888              		.cfi_offset 9, -16
 889              		.cfi_offset 10, -12
 890              		.cfi_offset 11, -8
 891              		.cfi_offset 14, -4
 892 0004 85B0     		sub	sp, sp, #20
 893              	.LCFI21:
 894              		.cfi_def_cfa_offset 56
 895 0006 0446     		mov	r4, r0
 896 0008 0191     		str	r1, [sp, #4]
 897 000a 0292     		str	r2, [sp, #8]
 898 000c 0393     		str	r3, [sp, #12]
 899 000e 9DF93870 		ldrsb	r7, [sp, #56]
 900 0012 9DF83C50 		ldrb	r5, [sp, #60]	@ zero_extendqisi2
 901 0016 9DF84060 		ldrb	r6, [sp, #64]	@ zero_extendqisi2
 233:Dsp/widget/wgt_core/GenDsp.c ****     /* upper right */
 234:Dsp/widget/wgt_core/GenDsp.c ****     if (option & DRAW_UPPER_RIGHT)
 902              		.loc 1 234 5 is_stmt 1 view .LVU235
 903              		.loc 1 234 8 is_stmt 0 view .LVU236
 904 001a 15F0010F 		tst	r5, #1
 905 001e 0BD1     		bne	.L67
 906              	.LVL89:
 907              	.L62:
 235:Dsp/widget/wgt_core/GenDsp.c ****     {
 236:Dsp/widget/wgt_core/GenDsp.c ****         GenDsp_DrawPoint(map, x0 + x, y0 - y, col_inv);
 237:Dsp/widget/wgt_core/GenDsp.c ****         GenDsp_DrawPoint(map, x0 + y, y0 - x, col_inv);
 238:Dsp/widget/wgt_core/GenDsp.c ****     }
 239:Dsp/widget/wgt_core/GenDsp.c **** 
 240:Dsp/widget/wgt_core/GenDsp.c ****     /* upper left */
 241:Dsp/widget/wgt_core/GenDsp.c ****     if (option & DRAW_UPPER_LEFT)
 908              		.loc 1 241 5 is_stmt 1 view .LVU237
ARM GAS  /var/folders/lx/hc4sn_b53233_zkc9xbbl97r0000gp/T//ccupGnhh.s 			page 22


 909              		.loc 1 241 8 is_stmt 0 view .LVU238
 910 0020 15F0020F 		tst	r5, #2
 911 0024 24D1     		bne	.L68
 912              	.L63:
 242:Dsp/widget/wgt_core/GenDsp.c ****     {
 243:Dsp/widget/wgt_core/GenDsp.c ****         GenDsp_DrawPoint(map, x0 - x, y0 - y, col_inv);
 244:Dsp/widget/wgt_core/GenDsp.c ****         GenDsp_DrawPoint(map, x0 - y, y0 - x, col_inv);
 245:Dsp/widget/wgt_core/GenDsp.c ****     }
 246:Dsp/widget/wgt_core/GenDsp.c **** 
 247:Dsp/widget/wgt_core/GenDsp.c ****     /* lower right */
 248:Dsp/widget/wgt_core/GenDsp.c ****     if (option & DRAW_LOWER_RIGHT)
 913              		.loc 1 248 5 is_stmt 1 view .LVU239
 914              		.loc 1 248 8 is_stmt 0 view .LVU240
 915 0026 15F0080F 		tst	r5, #8
 916 002a 3ED1     		bne	.L69
 917              	.L64:
 249:Dsp/widget/wgt_core/GenDsp.c ****     {
 250:Dsp/widget/wgt_core/GenDsp.c ****         GenDsp_DrawPoint(map, x0 + x, y0 + y, col_inv);
 251:Dsp/widget/wgt_core/GenDsp.c ****         GenDsp_DrawPoint(map, x0 + y, y0 + x, col_inv);
 252:Dsp/widget/wgt_core/GenDsp.c ****     }
 253:Dsp/widget/wgt_core/GenDsp.c **** 
 254:Dsp/widget/wgt_core/GenDsp.c ****     /* lower left */
 255:Dsp/widget/wgt_core/GenDsp.c ****     if (option & DRAW_LOWER_LEFT)
 918              		.loc 1 255 5 is_stmt 1 view .LVU241
 919              		.loc 1 255 8 is_stmt 0 view .LVU242
 920 002c 15F0040F 		tst	r5, #4
 921 0030 58D1     		bne	.L70
 922              	.L61:
 256:Dsp/widget/wgt_core/GenDsp.c ****     {
 257:Dsp/widget/wgt_core/GenDsp.c ****         GenDsp_DrawPoint(map, x0 - x, y0 + y, col_inv);
 258:Dsp/widget/wgt_core/GenDsp.c ****         GenDsp_DrawPoint(map, x0 - y, y0 + x, col_inv);
 259:Dsp/widget/wgt_core/GenDsp.c ****     }
 260:Dsp/widget/wgt_core/GenDsp.c **** }
 923              		.loc 1 260 1 view .LVU243
 924 0032 05B0     		add	sp, sp, #20
 925              	.LCFI22:
 926              		.cfi_remember_state
 927              		.cfi_def_cfa_offset 36
 928              		@ sp needed
 929 0034 BDE8F08F 		pop	{r4, r5, r6, r7, r8, r9, r10, fp, pc}
 930              	.LVL90:
 931              	.L67:
 932              	.LCFI23:
 933              		.cfi_restore_state
 236:Dsp/widget/wgt_core/GenDsp.c ****         GenDsp_DrawPoint(map, x0 + y, y0 - x, col_inv);
 934              		.loc 1 236 9 is_stmt 1 view .LVU244
 236:Dsp/widget/wgt_core/GenDsp.c ****         GenDsp_DrawPoint(map, x0 + y, y0 - x, col_inv);
 935              		.loc 1 236 34 is_stmt 0 view .LVU245
 936 0038 9DF80C80 		ldrb	r8, [sp, #12]	@ zero_extendqisi2
 937 003c 9DF804A0 		ldrb	r10, [sp, #4]	@ zero_extendqisi2
 938 0040 08EB0A01 		add	r1, r8, r10
 939              	.LVL91:
 236:Dsp/widget/wgt_core/GenDsp.c ****         GenDsp_DrawPoint(map, x0 + y, y0 - x, col_inv);
 940              		.loc 1 236 42 view .LVU246
 941 0044 5FFA87F9 		uxtb	r9, r7
 942 0048 9DF808B0 		ldrb	fp, [sp, #8]	@ zero_extendqisi2
 943 004c A9EB0B02 		sub	r2, r9, fp
ARM GAS  /var/folders/lx/hc4sn_b53233_zkc9xbbl97r0000gp/T//ccupGnhh.s 			page 23


 944              	.LVL92:
 236:Dsp/widget/wgt_core/GenDsp.c ****         GenDsp_DrawPoint(map, x0 + y, y0 - x, col_inv);
 945              		.loc 1 236 9 view .LVU247
 946 0050 3346     		mov	r3, r6
 947              	.LVL93:
 236:Dsp/widget/wgt_core/GenDsp.c ****         GenDsp_DrawPoint(map, x0 + y, y0 - x, col_inv);
 948              		.loc 1 236 9 view .LVU248
 949 0052 52B2     		sxtb	r2, r2
 950 0054 49B2     		sxtb	r1, r1
 951 0056 FFF7FEFF 		bl	GenDsp_DrawPoint
 952              	.LVL94:
 237:Dsp/widget/wgt_core/GenDsp.c ****     }
 953              		.loc 1 237 9 is_stmt 1 view .LVU249
 237:Dsp/widget/wgt_core/GenDsp.c ****     }
 954              		.loc 1 237 34 is_stmt 0 view .LVU250
 955 005a 08EB0B01 		add	r1, r8, fp
 237:Dsp/widget/wgt_core/GenDsp.c ****     }
 956              		.loc 1 237 42 view .LVU251
 957 005e A9EB0A02 		sub	r2, r9, r10
 237:Dsp/widget/wgt_core/GenDsp.c ****     }
 958              		.loc 1 237 9 view .LVU252
 959 0062 3346     		mov	r3, r6
 960 0064 52B2     		sxtb	r2, r2
 961 0066 49B2     		sxtb	r1, r1
 962 0068 2046     		mov	r0, r4
 963 006a FFF7FEFF 		bl	GenDsp_DrawPoint
 964              	.LVL95:
 965 006e D7E7     		b	.L62
 966              	.L68:
 243:Dsp/widget/wgt_core/GenDsp.c ****         GenDsp_DrawPoint(map, x0 - y, y0 - x, col_inv);
 967              		.loc 1 243 9 is_stmt 1 view .LVU253
 243:Dsp/widget/wgt_core/GenDsp.c ****         GenDsp_DrawPoint(map, x0 - y, y0 - x, col_inv);
 968              		.loc 1 243 34 is_stmt 0 view .LVU254
 969 0070 9DF80C80 		ldrb	r8, [sp, #12]	@ zero_extendqisi2
 970 0074 9DF804A0 		ldrb	r10, [sp, #4]	@ zero_extendqisi2
 971 0078 A8EB0A01 		sub	r1, r8, r10
 243:Dsp/widget/wgt_core/GenDsp.c ****         GenDsp_DrawPoint(map, x0 - y, y0 - x, col_inv);
 972              		.loc 1 243 42 view .LVU255
 973 007c 5FFA87F9 		uxtb	r9, r7
 974 0080 9DF808B0 		ldrb	fp, [sp, #8]	@ zero_extendqisi2
 975 0084 A9EB0B02 		sub	r2, r9, fp
 243:Dsp/widget/wgt_core/GenDsp.c ****         GenDsp_DrawPoint(map, x0 - y, y0 - x, col_inv);
 976              		.loc 1 243 9 view .LVU256
 977 0088 3346     		mov	r3, r6
 978 008a 52B2     		sxtb	r2, r2
 979 008c 49B2     		sxtb	r1, r1
 980 008e 2046     		mov	r0, r4
 981 0090 FFF7FEFF 		bl	GenDsp_DrawPoint
 982              	.LVL96:
 244:Dsp/widget/wgt_core/GenDsp.c ****     }
 983              		.loc 1 244 9 is_stmt 1 view .LVU257
 244:Dsp/widget/wgt_core/GenDsp.c ****     }
 984              		.loc 1 244 34 is_stmt 0 view .LVU258
 985 0094 A8EB0B01 		sub	r1, r8, fp
 244:Dsp/widget/wgt_core/GenDsp.c ****     }
 986              		.loc 1 244 42 view .LVU259
 987 0098 A9EB0A02 		sub	r2, r9, r10
ARM GAS  /var/folders/lx/hc4sn_b53233_zkc9xbbl97r0000gp/T//ccupGnhh.s 			page 24


 244:Dsp/widget/wgt_core/GenDsp.c ****     }
 988              		.loc 1 244 9 view .LVU260
 989 009c 3346     		mov	r3, r6
 990 009e 52B2     		sxtb	r2, r2
 991 00a0 49B2     		sxtb	r1, r1
 992 00a2 2046     		mov	r0, r4
 993 00a4 FFF7FEFF 		bl	GenDsp_DrawPoint
 994              	.LVL97:
 995 00a8 BDE7     		b	.L63
 996              	.L69:
 250:Dsp/widget/wgt_core/GenDsp.c ****         GenDsp_DrawPoint(map, x0 + y, y0 + x, col_inv);
 997              		.loc 1 250 9 is_stmt 1 view .LVU261
 250:Dsp/widget/wgt_core/GenDsp.c ****         GenDsp_DrawPoint(map, x0 + y, y0 + x, col_inv);
 998              		.loc 1 250 34 is_stmt 0 view .LVU262
 999 00aa 9DF80C80 		ldrb	r8, [sp, #12]	@ zero_extendqisi2
 1000 00ae 9DF80490 		ldrb	r9, [sp, #4]	@ zero_extendqisi2
 1001 00b2 08EB0901 		add	r1, r8, r9
 250:Dsp/widget/wgt_core/GenDsp.c ****         GenDsp_DrawPoint(map, x0 + y, y0 + x, col_inv);
 1002              		.loc 1 250 42 view .LVU263
 1003 00b6 5FFA87FA 		uxtb	r10, r7
 1004 00ba 9DF808B0 		ldrb	fp, [sp, #8]	@ zero_extendqisi2
 1005 00be 0AEB0B02 		add	r2, r10, fp
 250:Dsp/widget/wgt_core/GenDsp.c ****         GenDsp_DrawPoint(map, x0 + y, y0 + x, col_inv);
 1006              		.loc 1 250 9 view .LVU264
 1007 00c2 3346     		mov	r3, r6
 1008 00c4 52B2     		sxtb	r2, r2
 1009 00c6 49B2     		sxtb	r1, r1
 1010 00c8 2046     		mov	r0, r4
 1011 00ca FFF7FEFF 		bl	GenDsp_DrawPoint
 1012              	.LVL98:
 251:Dsp/widget/wgt_core/GenDsp.c ****     }
 1013              		.loc 1 251 9 is_stmt 1 view .LVU265
 251:Dsp/widget/wgt_core/GenDsp.c ****     }
 1014              		.loc 1 251 34 is_stmt 0 view .LVU266
 1015 00ce 08EB0B01 		add	r1, r8, fp
 251:Dsp/widget/wgt_core/GenDsp.c ****     }
 1016              		.loc 1 251 42 view .LVU267
 1017 00d2 09EB0A02 		add	r2, r9, r10
 251:Dsp/widget/wgt_core/GenDsp.c ****     }
 1018              		.loc 1 251 9 view .LVU268
 1019 00d6 3346     		mov	r3, r6
 1020 00d8 52B2     		sxtb	r2, r2
 1021 00da 49B2     		sxtb	r1, r1
 1022 00dc 2046     		mov	r0, r4
 1023 00de FFF7FEFF 		bl	GenDsp_DrawPoint
 1024              	.LVL99:
 1025 00e2 A3E7     		b	.L64
 1026              	.L70:
 257:Dsp/widget/wgt_core/GenDsp.c ****         GenDsp_DrawPoint(map, x0 - y, y0 + x, col_inv);
 1027              		.loc 1 257 9 is_stmt 1 view .LVU269
 257:Dsp/widget/wgt_core/GenDsp.c ****         GenDsp_DrawPoint(map, x0 - y, y0 + x, col_inv);
 1028              		.loc 1 257 34 is_stmt 0 view .LVU270
 1029 00e4 9DF80C80 		ldrb	r8, [sp, #12]	@ zero_extendqisi2
 1030 00e8 9DF80490 		ldrb	r9, [sp, #4]	@ zero_extendqisi2
 1031 00ec A8EB0901 		sub	r1, r8, r9
 257:Dsp/widget/wgt_core/GenDsp.c ****         GenDsp_DrawPoint(map, x0 - y, y0 + x, col_inv);
 1032              		.loc 1 257 42 view .LVU271
ARM GAS  /var/folders/lx/hc4sn_b53233_zkc9xbbl97r0000gp/T//ccupGnhh.s 			page 25


 1033 00f0 FFB2     		uxtb	r7, r7
 1034 00f2 9DF80850 		ldrb	r5, [sp, #8]	@ zero_extendqisi2
 1035 00f6 7A19     		adds	r2, r7, r5
 257:Dsp/widget/wgt_core/GenDsp.c ****         GenDsp_DrawPoint(map, x0 - y, y0 + x, col_inv);
 1036              		.loc 1 257 9 view .LVU272
 1037 00f8 3346     		mov	r3, r6
 1038 00fa 52B2     		sxtb	r2, r2
 1039 00fc 49B2     		sxtb	r1, r1
 1040 00fe 2046     		mov	r0, r4
 1041 0100 FFF7FEFF 		bl	GenDsp_DrawPoint
 1042              	.LVL100:
 258:Dsp/widget/wgt_core/GenDsp.c ****     }
 1043              		.loc 1 258 9 is_stmt 1 view .LVU273
 258:Dsp/widget/wgt_core/GenDsp.c ****     }
 1044              		.loc 1 258 34 is_stmt 0 view .LVU274
 1045 0104 A8EB0501 		sub	r1, r8, r5
 258:Dsp/widget/wgt_core/GenDsp.c ****     }
 1046              		.loc 1 258 42 view .LVU275
 1047 0108 09EB0702 		add	r2, r9, r7
 258:Dsp/widget/wgt_core/GenDsp.c ****     }
 1048              		.loc 1 258 9 view .LVU276
 1049 010c 3346     		mov	r3, r6
 1050 010e 52B2     		sxtb	r2, r2
 1051 0110 49B2     		sxtb	r1, r1
 1052 0112 2046     		mov	r0, r4
 1053 0114 FFF7FEFF 		bl	GenDsp_DrawPoint
 1054              	.LVL101:
 1055              		.loc 1 260 1 view .LVU277
 1056 0118 8BE7     		b	.L61
 1057              		.cfi_endproc
 1058              	.LFE12:
 1060              		.section	.text.GenDsp_Draw_Circle,"ax",%progbits
 1061              		.align	1
 1062              		.syntax unified
 1063              		.thumb
 1064              		.thumb_func
 1065              		.fpu fpv4-sp-d16
 1067              	GenDsp_Draw_Circle:
 1068              	.LVL102:
 1069              	.LFB13:
 261:Dsp/widget/wgt_core/GenDsp.c **** 
 262:Dsp/widget/wgt_core/GenDsp.c **** static void GenDsp_Draw_Circle(uint8_t **map, int8_t x0, int8_t y0, uint8_t rad, uint8_t option, bo
 263:Dsp/widget/wgt_core/GenDsp.c **** {
 1070              		.loc 1 263 1 is_stmt 1 view -0
 1071              		.cfi_startproc
 1072              		@ args = 8, pretend = 0, frame = 8
 1073              		@ frame_needed = 0, uses_anonymous_args = 0
 1074              		.loc 1 263 1 is_stmt 0 view .LVU279
 1075 0000 2DE9F04F 		push	{r4, r5, r6, r7, r8, r9, r10, fp, lr}
 1076              	.LCFI24:
 1077              		.cfi_def_cfa_offset 36
 1078              		.cfi_offset 4, -36
 1079              		.cfi_offset 5, -32
 1080              		.cfi_offset 6, -28
 1081              		.cfi_offset 7, -24
 1082              		.cfi_offset 8, -20
 1083              		.cfi_offset 9, -16
ARM GAS  /var/folders/lx/hc4sn_b53233_zkc9xbbl97r0000gp/T//ccupGnhh.s 			page 26


 1084              		.cfi_offset 10, -12
 1085              		.cfi_offset 11, -8
 1086              		.cfi_offset 14, -4
 1087 0004 87B0     		sub	sp, sp, #28
 1088              	.LCFI25:
 1089              		.cfi_def_cfa_offset 64
 1090 0006 0490     		str	r0, [sp, #16]
 1091 0008 0591     		str	r1, [sp, #20]
 1092 000a 9146     		mov	r9, r2
 1093 000c 9DF840A0 		ldrb	r10, [sp, #64]	@ zero_extendqisi2
 1094 0010 9DF844B0 		ldrb	fp, [sp, #68]	@ zero_extendqisi2
 264:Dsp/widget/wgt_core/GenDsp.c ****     int8_t f;
 1095              		.loc 1 264 5 is_stmt 1 view .LVU280
 265:Dsp/widget/wgt_core/GenDsp.c ****     int8_t ddF_x;
 1096              		.loc 1 265 5 view .LVU281
 266:Dsp/widget/wgt_core/GenDsp.c ****     int8_t ddF_y;
 1097              		.loc 1 266 5 view .LVU282
 267:Dsp/widget/wgt_core/GenDsp.c ****     int8_t x;
 1098              		.loc 1 267 5 view .LVU283
 268:Dsp/widget/wgt_core/GenDsp.c ****     int8_t y;
 1099              		.loc 1 268 5 view .LVU284
 269:Dsp/widget/wgt_core/GenDsp.c **** 
 270:Dsp/widget/wgt_core/GenDsp.c ****     f = 1;
 1100              		.loc 1 270 5 view .LVU285
 1101              	.LVL103:
 271:Dsp/widget/wgt_core/GenDsp.c ****     f -= rad;
 1102              		.loc 1 271 5 view .LVU286
 1103              		.loc 1 271 7 is_stmt 0 view .LVU287
 1104 0014 C3F10104 		rsb	r4, r3, #1
 1105 0018 64B2     		sxtb	r4, r4
 1106              	.LVL104:
 272:Dsp/widget/wgt_core/GenDsp.c ****     ddF_x = 1;
 1107              		.loc 1 272 5 is_stmt 1 view .LVU288
 273:Dsp/widget/wgt_core/GenDsp.c ****     ddF_y = 0;
 1108              		.loc 1 273 5 view .LVU289
 274:Dsp/widget/wgt_core/GenDsp.c ****     ddF_y -= rad;
 1109              		.loc 1 274 5 view .LVU290
 275:Dsp/widget/wgt_core/GenDsp.c ****     ddF_y *= 2;
 1110              		.loc 1 275 5 view .LVU291
 1111              		.loc 1 275 11 is_stmt 0 view .LVU292
 1112 001a C3EBC318 		rsb	r8, r3, r3, lsl #7
 1113 001e 4FEA4808 		lsl	r8, r8, #1
 1114 0022 4FFA88F8 		sxtb	r8, r8
 1115              	.LVL105:
 276:Dsp/widget/wgt_core/GenDsp.c ****     x = 0;
 1116              		.loc 1 276 5 is_stmt 1 view .LVU293
 277:Dsp/widget/wgt_core/GenDsp.c ****     y = rad;
 1117              		.loc 1 277 5 view .LVU294
 1118              		.loc 1 277 7 is_stmt 0 view .LVU295
 1119 0026 5EB2     		sxtb	r6, r3
 1120              	.LVL106:
 278:Dsp/widget/wgt_core/GenDsp.c **** 
 279:Dsp/widget/wgt_core/GenDsp.c ****     GenDsp_Draw_Circle_Section(map, x, y, x0, y0, option, col_inv);
 1121              		.loc 1 279 5 is_stmt 1 view .LVU296
 1122 0028 CDF808B0 		str	fp, [sp, #8]
 1123 002c CDF804A0 		str	r10, [sp, #4]
 1124 0030 0092     		str	r2, [sp]
ARM GAS  /var/folders/lx/hc4sn_b53233_zkc9xbbl97r0000gp/T//ccupGnhh.s 			page 27


 1125 0032 0B46     		mov	r3, r1
 1126              	.LVL107:
 1127              		.loc 1 279 5 is_stmt 0 view .LVU297
 1128 0034 3246     		mov	r2, r6
 1129              	.LVL108:
 1130              		.loc 1 279 5 view .LVU298
 1131 0036 0021     		movs	r1, #0
 1132              	.LVL109:
 1133              		.loc 1 279 5 view .LVU299
 1134 0038 FFF7FEFF 		bl	GenDsp_Draw_Circle_Section
 1135              	.LVL110:
 280:Dsp/widget/wgt_core/GenDsp.c **** 
 281:Dsp/widget/wgt_core/GenDsp.c ****     while (x < y)
 1136              		.loc 1 281 5 is_stmt 1 view .LVU300
 276:Dsp/widget/wgt_core/GenDsp.c ****     y = rad;
 1137              		.loc 1 276 7 is_stmt 0 view .LVU301
 1138 003c 0025     		movs	r5, #0
 272:Dsp/widget/wgt_core/GenDsp.c ****     ddF_y = 0;
 1139              		.loc 1 272 11 view .LVU302
 1140 003e 0127     		movs	r7, #1
 1141              		.loc 1 281 11 view .LVU303
 1142 0040 1BE0     		b	.L72
 1143              	.LVL111:
 1144              	.L77:
 282:Dsp/widget/wgt_core/GenDsp.c ****     {
 283:Dsp/widget/wgt_core/GenDsp.c ****         if (f >= 0)
 284:Dsp/widget/wgt_core/GenDsp.c ****         {
 285:Dsp/widget/wgt_core/GenDsp.c ****             y--;
 1145              		.loc 1 285 13 is_stmt 1 view .LVU304
 1146              		.loc 1 285 14 is_stmt 0 view .LVU305
 1147 0042 013E     		subs	r6, r6, #1
 1148              	.LVL112:
 1149              		.loc 1 285 14 view .LVU306
 1150 0044 76B2     		sxtb	r6, r6
 1151              	.LVL113:
 286:Dsp/widget/wgt_core/GenDsp.c ****             ddF_y += 2;
 1152              		.loc 1 286 13 is_stmt 1 view .LVU307
 1153              		.loc 1 286 19 is_stmt 0 view .LVU308
 1154 0046 08F10203 		add	r3, r8, #2
 1155 004a 4FFA83F8 		sxtb	r8, r3
 1156              	.LVL114:
 287:Dsp/widget/wgt_core/GenDsp.c ****             f += ddF_y;
 1157              		.loc 1 287 13 is_stmt 1 view .LVU309
 1158              		.loc 1 287 15 is_stmt 0 view .LVU310
 1159 004e 54FA83F4 		uxtab	r4, r4, r3
 1160              	.LVL115:
 1161              		.loc 1 287 15 view .LVU311
 1162 0052 64B2     		sxtb	r4, r4
 1163              	.LVL116:
 1164              	.L73:
 288:Dsp/widget/wgt_core/GenDsp.c ****         }
 289:Dsp/widget/wgt_core/GenDsp.c ****         x++;
 1165              		.loc 1 289 9 is_stmt 1 view .LVU312
 1166              		.loc 1 289 10 is_stmt 0 view .LVU313
 1167 0054 0135     		adds	r5, r5, #1
 1168              	.LVL117:
 1169              		.loc 1 289 10 view .LVU314
ARM GAS  /var/folders/lx/hc4sn_b53233_zkc9xbbl97r0000gp/T//ccupGnhh.s 			page 28


 1170 0056 6DB2     		sxtb	r5, r5
 1171              	.LVL118:
 290:Dsp/widget/wgt_core/GenDsp.c ****         ddF_x += 2;
 1172              		.loc 1 290 9 is_stmt 1 view .LVU315
 1173              		.loc 1 290 15 is_stmt 0 view .LVU316
 1174 0058 BB1C     		adds	r3, r7, #2
 1175 005a 5FB2     		sxtb	r7, r3
 1176              	.LVL119:
 291:Dsp/widget/wgt_core/GenDsp.c ****         f += ddF_x;
 1177              		.loc 1 291 9 is_stmt 1 view .LVU317
 1178              		.loc 1 291 11 is_stmt 0 view .LVU318
 1179 005c 54FA83F4 		uxtab	r4, r4, r3
 1180              	.LVL120:
 1181              		.loc 1 291 11 view .LVU319
 1182 0060 64B2     		sxtb	r4, r4
 1183              	.LVL121:
 292:Dsp/widget/wgt_core/GenDsp.c **** 
 293:Dsp/widget/wgt_core/GenDsp.c ****         GenDsp_Draw_Circle_Section(map, x, y, x0, y0, option, col_inv);
 1184              		.loc 1 293 9 is_stmt 1 view .LVU320
 1185 0062 CDF808B0 		str	fp, [sp, #8]
 1186 0066 CDF804A0 		str	r10, [sp, #4]
 1187 006a CDF80090 		str	r9, [sp]
 1188 006e 059B     		ldr	r3, [sp, #20]
 1189 0070 3246     		mov	r2, r6
 1190 0072 2946     		mov	r1, r5
 1191 0074 0498     		ldr	r0, [sp, #16]
 1192 0076 FFF7FEFF 		bl	GenDsp_Draw_Circle_Section
 1193              	.LVL122:
 1194              	.L72:
 281:Dsp/widget/wgt_core/GenDsp.c ****     {
 1195              		.loc 1 281 11 view .LVU321
 1196 007a B542     		cmp	r5, r6
 1197 007c 02DA     		bge	.L76
 283:Dsp/widget/wgt_core/GenDsp.c ****         {
 1198              		.loc 1 283 9 view .LVU322
 283:Dsp/widget/wgt_core/GenDsp.c ****         {
 1199              		.loc 1 283 12 is_stmt 0 view .LVU323
 1200 007e 002C     		cmp	r4, #0
 1201 0080 DFDA     		bge	.L77
 1202 0082 E7E7     		b	.L73
 1203              	.L76:
 294:Dsp/widget/wgt_core/GenDsp.c ****     }
 295:Dsp/widget/wgt_core/GenDsp.c **** }
 1204              		.loc 1 295 1 view .LVU324
 1205 0084 07B0     		add	sp, sp, #28
 1206              	.LCFI26:
 1207              		.cfi_def_cfa_offset 36
 1208              		@ sp needed
 1209 0086 BDE8F08F 		pop	{r4, r5, r6, r7, r8, r9, r10, fp, pc}
 1210              		.loc 1 295 1 view .LVU325
 1211              		.cfi_endproc
 1212              	.LFE13:
 1214              		.section	.text.GenDsp_DrawCircle,"ax",%progbits
 1215              		.align	1
 1216              		.syntax unified
 1217              		.thumb
 1218              		.thumb_func
ARM GAS  /var/folders/lx/hc4sn_b53233_zkc9xbbl97r0000gp/T//ccupGnhh.s 			page 29


 1219              		.fpu fpv4-sp-d16
 1221              	GenDsp_DrawCircle:
 1222              	.LVL123:
 1223              	.LFB14:
 296:Dsp/widget/wgt_core/GenDsp.c **** 
 297:Dsp/widget/wgt_core/GenDsp.c **** static void GenDsp_DrawCircle(uint8_t **map, int8_t x0, int8_t y0, uint8_t rad, uint8_t option, boo
 298:Dsp/widget/wgt_core/GenDsp.c **** {
 1224              		.loc 1 298 1 is_stmt 1 view -0
 1225              		.cfi_startproc
 1226              		@ args = 8, pretend = 0, frame = 0
 1227              		@ frame_needed = 0, uses_anonymous_args = 0
 1228              		.loc 1 298 1 is_stmt 0 view .LVU327
 1229 0000 10B5     		push	{r4, lr}
 1230              	.LCFI27:
 1231              		.cfi_def_cfa_offset 8
 1232              		.cfi_offset 4, -8
 1233              		.cfi_offset 14, -4
 1234 0002 82B0     		sub	sp, sp, #8
 1235              	.LCFI28:
 1236              		.cfi_def_cfa_offset 16
 299:Dsp/widget/wgt_core/GenDsp.c ****     /* draw circle */
 300:Dsp/widget/wgt_core/GenDsp.c ****     GenDsp_Draw_Circle(map, x0, y0, rad, option, col_inv);
 1237              		.loc 1 300 5 is_stmt 1 view .LVU328
 1238 0004 9DF81440 		ldrb	r4, [sp, #20]	@ zero_extendqisi2
 1239 0008 0194     		str	r4, [sp, #4]
 1240 000a 9DF81040 		ldrb	r4, [sp, #16]	@ zero_extendqisi2
 1241 000e 0094     		str	r4, [sp]
 1242 0010 FFF7FEFF 		bl	GenDsp_Draw_Circle
 1243              	.LVL124:
 301:Dsp/widget/wgt_core/GenDsp.c **** }
 1244              		.loc 1 301 1 is_stmt 0 view .LVU329
 1245 0014 02B0     		add	sp, sp, #8
 1246              	.LCFI29:
 1247              		.cfi_def_cfa_offset 8
 1248              		@ sp needed
 1249 0016 10BD     		pop	{r4, pc}
 1250              		.loc 1 301 1 view .LVU330
 1251              		.cfi_endproc
 1252              	.LFE14:
 1254              		.section	.text.GenDsp_DrawRectangle,"ax",%progbits
 1255              		.align	1
 1256              		.syntax unified
 1257              		.thumb
 1258              		.thumb_func
 1259              		.fpu fpv4-sp-d16
 1261              	GenDsp_DrawRectangle:
 1262              	.LVL125:
 1263              	.LFB15:
 302:Dsp/widget/wgt_core/GenDsp.c **** 
 303:Dsp/widget/wgt_core/GenDsp.c **** static void GenDsp_DrawRectangle(uint8_t **map, int8_t x, int8_t y, uint8_t width, uint8_t height, 
 304:Dsp/widget/wgt_core/GenDsp.c **** {
 1264              		.loc 1 304 1 is_stmt 1 view -0
 1265              		.cfi_startproc
 1266              		@ args = 12, pretend = 0, frame = 0
 1267              		@ frame_needed = 0, uses_anonymous_args = 0
 1268              		.loc 1 304 1 is_stmt 0 view .LVU332
 1269 0000 2DE9F047 		push	{r4, r5, r6, r7, r8, r9, r10, lr}
ARM GAS  /var/folders/lx/hc4sn_b53233_zkc9xbbl97r0000gp/T//ccupGnhh.s 			page 30


 1270              	.LCFI30:
 1271              		.cfi_def_cfa_offset 32
 1272              		.cfi_offset 4, -32
 1273              		.cfi_offset 5, -28
 1274              		.cfi_offset 6, -24
 1275              		.cfi_offset 7, -20
 1276              		.cfi_offset 8, -16
 1277              		.cfi_offset 9, -12
 1278              		.cfi_offset 10, -8
 1279              		.cfi_offset 14, -4
 1280 0004 84B0     		sub	sp, sp, #16
 1281              	.LCFI31:
 1282              		.cfi_def_cfa_offset 48
 1283 0006 8046     		mov	r8, r0
 1284 0008 0E46     		mov	r6, r1
 1285 000a 1746     		mov	r7, r2
 1286 000c 9DF83490 		ldrb	r9, [sp, #52]	@ zero_extendqisi2
 1287 0010 9DF838A0 		ldrb	r10, [sp, #56]	@ zero_extendqisi2
 305:Dsp/widget/wgt_core/GenDsp.c ****     int8_t x_tmp = x + width - 1;
 1288              		.loc 1 305 5 is_stmt 1 view .LVU333
 1289              		.loc 1 305 22 is_stmt 0 view .LVU334
 1290 0014 5D18     		adds	r5, r3, r1
 1291 0016 EDB2     		uxtb	r5, r5
 1292              		.loc 1 305 30 view .LVU335
 1293 0018 013D     		subs	r5, r5, #1
 1294              		.loc 1 305 12 view .LVU336
 1295 001a 6DB2     		sxtb	r5, r5
 1296              	.LVL126:
 306:Dsp/widget/wgt_core/GenDsp.c ****     int8_t y_tmp = y + height - 1;
 1297              		.loc 1 306 5 is_stmt 1 view .LVU337
 1298              		.loc 1 306 22 is_stmt 0 view .LVU338
 1299 001c 9DF83040 		ldrb	r4, [sp, #48]	@ zero_extendqisi2
 1300 0020 1444     		add	r4, r4, r2
 1301 0022 E4B2     		uxtb	r4, r4
 1302              		.loc 1 306 31 view .LVU339
 1303 0024 013C     		subs	r4, r4, #1
 1304              		.loc 1 306 12 view .LVU340
 1305 0026 64B2     		sxtb	r4, r4
 1306              	.LVL127:
 307:Dsp/widget/wgt_core/GenDsp.c **** 
 308:Dsp/widget/wgt_core/GenDsp.c ****     GenDsp_DrawLen(map, x, y, x_tmp, y, line_size, col_inv);
 1307              		.loc 1 308 5 is_stmt 1 view .LVU341
 1308 0028 CDF808A0 		str	r10, [sp, #8]
 1309 002c CDF80490 		str	r9, [sp, #4]
 1310 0030 0092     		str	r2, [sp]
 1311 0032 2B46     		mov	r3, r5
 1312              	.LVL128:
 1313              		.loc 1 308 5 is_stmt 0 view .LVU342
 1314 0034 FFF7FEFF 		bl	GenDsp_DrawLen
 1315              	.LVL129:
 309:Dsp/widget/wgt_core/GenDsp.c ****     GenDsp_DrawLen(map, x, y, x, y_tmp, line_size, col_inv);
 1316              		.loc 1 309 5 is_stmt 1 view .LVU343
 1317 0038 CDF808A0 		str	r10, [sp, #8]
 1318 003c CDF80490 		str	r9, [sp, #4]
 1319 0040 0094     		str	r4, [sp]
 1320 0042 3346     		mov	r3, r6
 1321 0044 3A46     		mov	r2, r7
ARM GAS  /var/folders/lx/hc4sn_b53233_zkc9xbbl97r0000gp/T//ccupGnhh.s 			page 31


 1322 0046 3146     		mov	r1, r6
 1323 0048 4046     		mov	r0, r8
 1324 004a FFF7FEFF 		bl	GenDsp_DrawLen
 1325              	.LVL130:
 310:Dsp/widget/wgt_core/GenDsp.c **** 
 311:Dsp/widget/wgt_core/GenDsp.c ****     GenDsp_DrawLen(map, x_tmp, y, x_tmp, y_tmp, line_size, col_inv);
 1326              		.loc 1 311 5 view .LVU344
 1327 004e CDF808A0 		str	r10, [sp, #8]
 1328 0052 CDF80490 		str	r9, [sp, #4]
 1329 0056 0094     		str	r4, [sp]
 1330 0058 2B46     		mov	r3, r5
 1331 005a 3A46     		mov	r2, r7
 1332 005c 2946     		mov	r1, r5
 1333 005e 4046     		mov	r0, r8
 1334 0060 FFF7FEFF 		bl	GenDsp_DrawLen
 1335              	.LVL131:
 312:Dsp/widget/wgt_core/GenDsp.c ****     GenDsp_DrawLen(map, x, y_tmp, x_tmp, y_tmp, line_size, col_inv);
 1336              		.loc 1 312 5 view .LVU345
 1337 0064 CDF808A0 		str	r10, [sp, #8]
 1338 0068 CDF80490 		str	r9, [sp, #4]
 1339 006c 0094     		str	r4, [sp]
 1340 006e 2B46     		mov	r3, r5
 1341 0070 2246     		mov	r2, r4
 1342 0072 3146     		mov	r1, r6
 1343 0074 4046     		mov	r0, r8
 1344 0076 FFF7FEFF 		bl	GenDsp_DrawLen
 1345              	.LVL132:
 313:Dsp/widget/wgt_core/GenDsp.c **** }
 1346              		.loc 1 313 1 is_stmt 0 view .LVU346
 1347 007a 04B0     		add	sp, sp, #16
 1348              	.LCFI32:
 1349              		.cfi_def_cfa_offset 32
 1350              		@ sp needed
 1351 007c BDE8F087 		pop	{r4, r5, r6, r7, r8, r9, r10, pc}
 1352              		.loc 1 313 1 view .LVU347
 1353              		.cfi_endproc
 1354              	.LFE15:
 1356              		.section	.text.GenDsp_Draw_RadiusRectangle,"ax",%progbits
 1357              		.align	1
 1358              		.syntax unified
 1359              		.thumb
 1360              		.thumb_func
 1361              		.fpu fpv4-sp-d16
 1363              	GenDsp_Draw_RadiusRectangle:
 1364              	.LVL133:
 1365              	.LFB16:
 314:Dsp/widget/wgt_core/GenDsp.c **** 
 315:Dsp/widget/wgt_core/GenDsp.c **** /* bug in this function */
 316:Dsp/widget/wgt_core/GenDsp.c **** static void GenDsp_Draw_RadiusRectangle(uint8_t **map, int8_t x, int8_t y, uint8_t width, uint8_t h
 317:Dsp/widget/wgt_core/GenDsp.c **** {
 1366              		.loc 1 317 1 is_stmt 1 view -0
 1367              		.cfi_startproc
 1368              		@ args = 16, pretend = 0, frame = 16
 1369              		@ frame_needed = 0, uses_anonymous_args = 0
 1370              		.loc 1 317 1 is_stmt 0 view .LVU349
 1371 0000 2DE9F04F 		push	{r4, r5, r6, r7, r8, r9, r10, fp, lr}
 1372              	.LCFI33:
ARM GAS  /var/folders/lx/hc4sn_b53233_zkc9xbbl97r0000gp/T//ccupGnhh.s 			page 32


 1373              		.cfi_def_cfa_offset 36
 1374              		.cfi_offset 4, -36
 1375              		.cfi_offset 5, -32
 1376              		.cfi_offset 6, -28
 1377              		.cfi_offset 7, -24
 1378              		.cfi_offset 8, -20
 1379              		.cfi_offset 9, -16
 1380              		.cfi_offset 10, -12
 1381              		.cfi_offset 11, -8
 1382              		.cfi_offset 14, -4
 1383 0004 89B0     		sub	sp, sp, #36
 1384              	.LCFI34:
 1385              		.cfi_def_cfa_offset 72
 1386 0006 0446     		mov	r4, r0
 1387 0008 9DF84C70 		ldrb	r7, [sp, #76]	@ zero_extendqisi2
 1388 000c 9DF850B0 		ldrb	fp, [sp, #80]	@ zero_extendqisi2
 1389 0010 9DF85450 		ldrb	r5, [sp, #84]	@ zero_extendqisi2
 318:Dsp/widget/wgt_core/GenDsp.c ****     int8_t x_start = x + radius;
 1390              		.loc 1 318 5 is_stmt 1 view .LVU350
 1391              		.loc 1 318 24 is_stmt 0 view .LVU351
 1392 0014 0491     		str	r1, [sp, #16]
 1393 0016 9DF81010 		ldrb	r1, [sp, #16]	@ zero_extendqisi2
 1394              	.LVL134:
 1395              		.loc 1 318 24 view .LVU352
 1396 001a 01EB0709 		add	r9, r1, r7
 1397              		.loc 1 318 12 view .LVU353
 1398 001e 4FFA89F9 		sxtb	r9, r9
 1399              	.LVL135:
 319:Dsp/widget/wgt_core/GenDsp.c ****     int8_t y_start = y + radius;
 1400              		.loc 1 319 5 is_stmt 1 view .LVU354
 1401              		.loc 1 319 24 is_stmt 0 view .LVU355
 1402 0022 0592     		str	r2, [sp, #20]
 1403 0024 9DF81420 		ldrb	r2, [sp, #20]	@ zero_extendqisi2
 1404              	.LVL136:
 1405              		.loc 1 319 24 view .LVU356
 1406 0028 02EB0708 		add	r8, r2, r7
 1407              		.loc 1 319 12 view .LVU357
 1408 002c 4FFA88F8 		sxtb	r8, r8
 1409              	.LVL137:
 320:Dsp/widget/wgt_core/GenDsp.c **** 
 321:Dsp/widget/wgt_core/GenDsp.c ****     int8_t x_tmp = x + width - 1 - radius;
 1410              		.loc 1 321 5 is_stmt 1 view .LVU358
 1411              		.loc 1 321 22 is_stmt 0 view .LVU359
 1412 0030 1944     		add	r1, r1, r3
 1413 0032 C9B2     		uxtb	r1, r1
 1414              		.loc 1 321 34 view .LVU360
 1415 0034 CE1B     		subs	r6, r1, r7
 1416 0036 013E     		subs	r6, r6, #1
 1417              		.loc 1 321 12 view .LVU361
 1418 0038 76B2     		sxtb	r6, r6
 1419              	.LVL138:
 322:Dsp/widget/wgt_core/GenDsp.c ****     int8_t y_tmp = y + height - 1 - radius;
 1420              		.loc 1 322 5 is_stmt 1 view .LVU362
 1421              		.loc 1 322 22 is_stmt 0 view .LVU363
 1422 003a 9DF84830 		ldrb	r3, [sp, #72]	@ zero_extendqisi2
 1423              	.LVL139:
 1424              		.loc 1 322 22 view .LVU364
ARM GAS  /var/folders/lx/hc4sn_b53233_zkc9xbbl97r0000gp/T//ccupGnhh.s 			page 33


 1425 003e 1344     		add	r3, r3, r2
 1426 0040 DBB2     		uxtb	r3, r3
 1427              		.loc 1 322 35 view .LVU365
 1428 0042 DA1B     		subs	r2, r3, r7
 1429 0044 013A     		subs	r2, r2, #1
 1430              		.loc 1 322 12 view .LVU366
 1431 0046 4FFA82FA 		sxtb	r10, r2
 1432              	.LVL140:
 323:Dsp/widget/wgt_core/GenDsp.c **** 
 324:Dsp/widget/wgt_core/GenDsp.c ****     int8_t x_tmp_1 = x + width - 1;
 1433              		.loc 1 324 5 is_stmt 1 view .LVU367
 1434              		.loc 1 324 32 is_stmt 0 view .LVU368
 1435 004a 0139     		subs	r1, r1, #1
 1436              		.loc 1 324 12 view .LVU369
 1437 004c 4FFA81FC 		sxtb	ip, r1
 1438 0050 CDF818C0 		str	ip, [sp, #24]
 1439              	.LVL141:
 325:Dsp/widget/wgt_core/GenDsp.c ****     int8_t y_tmp_1 = y + height - 1;
 1440              		.loc 1 325 5 is_stmt 1 view .LVU370
 1441              		.loc 1 325 33 is_stmt 0 view .LVU371
 1442 0054 013B     		subs	r3, r3, #1
 1443              		.loc 1 325 12 view .LVU372
 1444 0056 5BB2     		sxtb	r3, r3
 1445 0058 0793     		str	r3, [sp, #28]
 1446              	.LVL142:
 326:Dsp/widget/wgt_core/GenDsp.c **** 
 327:Dsp/widget/wgt_core/GenDsp.c ****     /* fixed */
 328:Dsp/widget/wgt_core/GenDsp.c ****     GenDsp_Draw_Circle(map, x_start, y_tmp, radius, DRAW_LOWER_LEFT, col_inv);
 1447              		.loc 1 328 5 is_stmt 1 view .LVU373
 1448 005a 0195     		str	r5, [sp, #4]
 1449 005c 0423     		movs	r3, #4
 1450 005e 0093     		str	r3, [sp]
 1451 0060 3B46     		mov	r3, r7
 1452 0062 5246     		mov	r2, r10
 1453 0064 4946     		mov	r1, r9
 1454 0066 FFF7FEFF 		bl	GenDsp_Draw_Circle
 1455              	.LVL143:
 329:Dsp/widget/wgt_core/GenDsp.c ****     GenDsp_DrawLen(map, x, y_start, x, y_tmp, line_size, col_inv);
 1456              		.loc 1 329 5 view .LVU374
 1457 006a 0295     		str	r5, [sp, #8]
 1458 006c CDF804B0 		str	fp, [sp, #4]
 1459 0070 CDF800A0 		str	r10, [sp]
 1460 0074 0499     		ldr	r1, [sp, #16]
 1461 0076 0B46     		mov	r3, r1
 1462 0078 4246     		mov	r2, r8
 1463 007a 2046     		mov	r0, r4
 1464 007c FFF7FEFF 		bl	GenDsp_DrawLen
 1465              	.LVL144:
 330:Dsp/widget/wgt_core/GenDsp.c **** 
 331:Dsp/widget/wgt_core/GenDsp.c ****     GenDsp_Draw_Circle(map, x_tmp, y_tmp, radius, DRAW_LOWER_RIGHT, col_inv);
 1466              		.loc 1 331 5 view .LVU375
 1467 0080 0195     		str	r5, [sp, #4]
 1468 0082 0823     		movs	r3, #8
 1469 0084 0093     		str	r3, [sp]
 1470 0086 3B46     		mov	r3, r7
 1471 0088 5246     		mov	r2, r10
 1472 008a 3146     		mov	r1, r6
ARM GAS  /var/folders/lx/hc4sn_b53233_zkc9xbbl97r0000gp/T//ccupGnhh.s 			page 34


 1473 008c 2046     		mov	r0, r4
 1474 008e FFF7FEFF 		bl	GenDsp_Draw_Circle
 1475              	.LVL145:
 332:Dsp/widget/wgt_core/GenDsp.c ****     GenDsp_DrawLen(map, x_start, y_tmp_1, x_tmp, y_tmp_1, line_size, col_inv);
 1476              		.loc 1 332 5 view .LVU376
 1477 0092 0295     		str	r5, [sp, #8]
 1478 0094 CDF804B0 		str	fp, [sp, #4]
 1479 0098 079A     		ldr	r2, [sp, #28]
 1480 009a 0092     		str	r2, [sp]
 1481 009c 3346     		mov	r3, r6
 1482 009e 4946     		mov	r1, r9
 1483 00a0 2046     		mov	r0, r4
 1484 00a2 FFF7FEFF 		bl	GenDsp_DrawLen
 1485              	.LVL146:
 333:Dsp/widget/wgt_core/GenDsp.c **** 
 334:Dsp/widget/wgt_core/GenDsp.c ****     GenDsp_Draw_Circle(map, x_start, y_start, radius, DRAW_UPPER_LEFT, col_inv);
 1486              		.loc 1 334 5 view .LVU377
 1487 00a6 0195     		str	r5, [sp, #4]
 1488 00a8 0223     		movs	r3, #2
 1489 00aa 0093     		str	r3, [sp]
 1490 00ac 3B46     		mov	r3, r7
 1491 00ae 4246     		mov	r2, r8
 1492 00b0 4946     		mov	r1, r9
 1493 00b2 2046     		mov	r0, r4
 1494 00b4 FFF7FEFF 		bl	GenDsp_Draw_Circle
 1495              	.LVL147:
 335:Dsp/widget/wgt_core/GenDsp.c ****     GenDsp_DrawLen(map, x_start, y, x_tmp, y, line_size, col_inv);
 1496              		.loc 1 335 5 view .LVU378
 1497 00b8 0295     		str	r5, [sp, #8]
 1498 00ba CDF804B0 		str	fp, [sp, #4]
 1499 00be 059A     		ldr	r2, [sp, #20]
 1500 00c0 0092     		str	r2, [sp]
 1501 00c2 3346     		mov	r3, r6
 1502 00c4 4946     		mov	r1, r9
 1503 00c6 2046     		mov	r0, r4
 1504 00c8 FFF7FEFF 		bl	GenDsp_DrawLen
 1505              	.LVL148:
 336:Dsp/widget/wgt_core/GenDsp.c **** 
 337:Dsp/widget/wgt_core/GenDsp.c ****     GenDsp_Draw_Circle(map, x_tmp, y_start, radius, DRAW_UPPER_RIGHT, col_inv);
 1506              		.loc 1 337 5 view .LVU379
 1507 00cc 0195     		str	r5, [sp, #4]
 1508 00ce 0123     		movs	r3, #1
 1509 00d0 0093     		str	r3, [sp]
 1510 00d2 3B46     		mov	r3, r7
 1511 00d4 4246     		mov	r2, r8
 1512 00d6 3146     		mov	r1, r6
 1513 00d8 2046     		mov	r0, r4
 1514 00da FFF7FEFF 		bl	GenDsp_Draw_Circle
 1515              	.LVL149:
 338:Dsp/widget/wgt_core/GenDsp.c ****     GenDsp_DrawLen(map, x_tmp_1, y_start, x_tmp_1, y_tmp, line_size, col_inv);
 1516              		.loc 1 338 5 view .LVU380
 1517 00de 0295     		str	r5, [sp, #8]
 1518 00e0 CDF804B0 		str	fp, [sp, #4]
 1519 00e4 CDF800A0 		str	r10, [sp]
 1520 00e8 0699     		ldr	r1, [sp, #24]
 1521 00ea 0B46     		mov	r3, r1
 1522 00ec 4246     		mov	r2, r8
ARM GAS  /var/folders/lx/hc4sn_b53233_zkc9xbbl97r0000gp/T//ccupGnhh.s 			page 35


 1523 00ee 2046     		mov	r0, r4
 1524 00f0 FFF7FEFF 		bl	GenDsp_DrawLen
 1525              	.LVL150:
 339:Dsp/widget/wgt_core/GenDsp.c **** }
 1526              		.loc 1 339 1 is_stmt 0 view .LVU381
 1527 00f4 09B0     		add	sp, sp, #36
 1528              	.LCFI35:
 1529              		.cfi_def_cfa_offset 36
 1530              		@ sp needed
 1531 00f6 BDE8F08F 		pop	{r4, r5, r6, r7, r8, r9, r10, fp, pc}
 1532              		.loc 1 339 1 view .LVU382
 1533              		.cfi_endproc
 1534              	.LFE16:
 1536              		.section	.text.GenDsp_Fill_Circle_Section,"ax",%progbits
 1537              		.align	1
 1538              		.syntax unified
 1539              		.thumb
 1540              		.thumb_func
 1541              		.fpu fpv4-sp-d16
 1543              	GenDsp_Fill_Circle_Section:
 1544              	.LVL151:
 1545              	.LFB17:
 340:Dsp/widget/wgt_core/GenDsp.c **** 
 341:Dsp/widget/wgt_core/GenDsp.c **** static void GenDsp_Fill_Circle_Section(uint8_t **map, int8_t x, int8_t y, int8_t x0, int8_t y0, uin
 342:Dsp/widget/wgt_core/GenDsp.c **** {
 1546              		.loc 1 342 1 is_stmt 1 view -0
 1547              		.cfi_startproc
 1548              		@ args = 12, pretend = 0, frame = 16
 1549              		@ frame_needed = 0, uses_anonymous_args = 0
 1550              		.loc 1 342 1 is_stmt 0 view .LVU384
 1551 0000 2DE9F04F 		push	{r4, r5, r6, r7, r8, r9, r10, fp, lr}
 1552              	.LCFI36:
 1553              		.cfi_def_cfa_offset 36
 1554              		.cfi_offset 4, -36
 1555              		.cfi_offset 5, -32
 1556              		.cfi_offset 6, -28
 1557              		.cfi_offset 7, -24
 1558              		.cfi_offset 8, -20
 1559              		.cfi_offset 9, -16
 1560              		.cfi_offset 10, -12
 1561              		.cfi_offset 11, -8
 1562              		.cfi_offset 14, -4
 1563 0004 87B0     		sub	sp, sp, #28
 1564              	.LCFI37:
 1565              		.cfi_def_cfa_offset 64
 1566 0006 0446     		mov	r4, r0
 1567 0008 0291     		str	r1, [sp, #8]
 1568 000a 0392     		str	r2, [sp, #12]
 1569 000c 0493     		str	r3, [sp, #16]
 1570 000e 9DF94070 		ldrsb	r7, [sp, #64]
 1571 0012 9DF84450 		ldrb	r5, [sp, #68]	@ zero_extendqisi2
 1572 0016 9DF84860 		ldrb	r6, [sp, #72]	@ zero_extendqisi2
 343:Dsp/widget/wgt_core/GenDsp.c ****     /* upper right */
 344:Dsp/widget/wgt_core/GenDsp.c ****     if (option & DRAW_UPPER_RIGHT)
 1573              		.loc 1 344 5 is_stmt 1 view .LVU385
 1574              		.loc 1 344 8 is_stmt 0 view .LVU386
 1575 001a 15F0010F 		tst	r5, #1
ARM GAS  /var/folders/lx/hc4sn_b53233_zkc9xbbl97r0000gp/T//ccupGnhh.s 			page 36


 1576 001e 0BD1     		bne	.L90
 1577              	.LVL152:
 1578              	.L85:
 345:Dsp/widget/wgt_core/GenDsp.c ****     {
 346:Dsp/widget/wgt_core/GenDsp.c ****         GenDsp_Draw_VLine(map, x0 + x, y0 - y, y + 1, 1, col_inv);
 347:Dsp/widget/wgt_core/GenDsp.c ****         GenDsp_Draw_VLine(map, x0 + y, y0 - x, x + 1, 1, col_inv);
 348:Dsp/widget/wgt_core/GenDsp.c ****     }
 349:Dsp/widget/wgt_core/GenDsp.c **** 
 350:Dsp/widget/wgt_core/GenDsp.c ****     /* upper left */
 351:Dsp/widget/wgt_core/GenDsp.c ****     if (option & DRAW_UPPER_LEFT)
 1579              		.loc 1 351 5 is_stmt 1 view .LVU387
 1580              		.loc 1 351 8 is_stmt 0 view .LVU388
 1581 0020 15F0020F 		tst	r5, #2
 1582 0024 31D1     		bne	.L91
 1583              	.L86:
 352:Dsp/widget/wgt_core/GenDsp.c ****     {
 353:Dsp/widget/wgt_core/GenDsp.c ****         GenDsp_Draw_VLine(map, x0 - x, y0 - y, y + 1, 1, col_inv);
 354:Dsp/widget/wgt_core/GenDsp.c ****         GenDsp_Draw_VLine(map, x0 - y, y0 - x, x + 1, 1, col_inv);
 355:Dsp/widget/wgt_core/GenDsp.c ****     }
 356:Dsp/widget/wgt_core/GenDsp.c **** 
 357:Dsp/widget/wgt_core/GenDsp.c ****     /* lower right */
 358:Dsp/widget/wgt_core/GenDsp.c ****     if (option & DRAW_LOWER_RIGHT)
 1584              		.loc 1 358 5 is_stmt 1 view .LVU389
 1585              		.loc 1 358 8 is_stmt 0 view .LVU390
 1586 0026 15F0080F 		tst	r5, #8
 1587 002a 58D1     		bne	.L92
 1588              	.L87:
 359:Dsp/widget/wgt_core/GenDsp.c ****     {
 360:Dsp/widget/wgt_core/GenDsp.c ****         GenDsp_Draw_VLine(map, x0 + x, y0, y + 1, 1, col_inv);
 361:Dsp/widget/wgt_core/GenDsp.c ****         GenDsp_Draw_VLine(map, x0 + y, y0, x + 1, 1, col_inv);
 362:Dsp/widget/wgt_core/GenDsp.c ****     }
 363:Dsp/widget/wgt_core/GenDsp.c **** 
 364:Dsp/widget/wgt_core/GenDsp.c ****     /* lower left */
 365:Dsp/widget/wgt_core/GenDsp.c ****     if (option & DRAW_LOWER_LEFT)
 1589              		.loc 1 365 5 is_stmt 1 view .LVU391
 1590              		.loc 1 365 8 is_stmt 0 view .LVU392
 1591 002c 15F0040F 		tst	r5, #4
 1592 0030 78D1     		bne	.L93
 1593              	.L84:
 366:Dsp/widget/wgt_core/GenDsp.c ****     {
 367:Dsp/widget/wgt_core/GenDsp.c ****         GenDsp_Draw_VLine(map, x0 - x, y0, y + 1, 1, col_inv);
 368:Dsp/widget/wgt_core/GenDsp.c ****         GenDsp_Draw_VLine(map, x0 - y, y0, x + 1, 1, col_inv);
 369:Dsp/widget/wgt_core/GenDsp.c ****     }
 370:Dsp/widget/wgt_core/GenDsp.c **** }
 1594              		.loc 1 370 1 view .LVU393
 1595 0032 07B0     		add	sp, sp, #28
 1596              	.LCFI38:
 1597              		.cfi_remember_state
 1598              		.cfi_def_cfa_offset 36
 1599              		@ sp needed
 1600 0034 BDE8F08F 		pop	{r4, r5, r6, r7, r8, r9, r10, fp, pc}
 1601              	.LVL153:
 1602              	.L90:
 1603              	.LCFI39:
 1604              		.cfi_restore_state
 346:Dsp/widget/wgt_core/GenDsp.c ****         GenDsp_Draw_VLine(map, x0 + y, y0 - x, x + 1, 1, col_inv);
 1605              		.loc 1 346 9 is_stmt 1 view .LVU394
ARM GAS  /var/folders/lx/hc4sn_b53233_zkc9xbbl97r0000gp/T//ccupGnhh.s 			page 37


 346:Dsp/widget/wgt_core/GenDsp.c ****         GenDsp_Draw_VLine(map, x0 + y, y0 - x, x + 1, 1, col_inv);
 1606              		.loc 1 346 35 is_stmt 0 view .LVU395
 1607 0038 9DF81080 		ldrb	r8, [sp, #16]	@ zero_extendqisi2
 1608 003c 9DF80890 		ldrb	r9, [sp, #8]	@ zero_extendqisi2
 1609 0040 08EB0901 		add	r1, r8, r9
 1610              	.LVL154:
 346:Dsp/widget/wgt_core/GenDsp.c ****         GenDsp_Draw_VLine(map, x0 + y, y0 - x, x + 1, 1, col_inv);
 1611              		.loc 1 346 43 view .LVU396
 1612 0044 FAB2     		uxtb	r2, r7
 1613              	.LVL155:
 346:Dsp/widget/wgt_core/GenDsp.c ****         GenDsp_Draw_VLine(map, x0 + y, y0 - x, x + 1, 1, col_inv);
 1614              		.loc 1 346 43 view .LVU397
 1615 0046 9DF80CA0 		ldrb	r10, [sp, #12]	@ zero_extendqisi2
 1616 004a 0592     		str	r2, [sp, #20]
 1617 004c A2EB0A02 		sub	r2, r2, r10
 346:Dsp/widget/wgt_core/GenDsp.c ****         GenDsp_Draw_VLine(map, x0 + y, y0 - x, x + 1, 1, col_inv);
 1618              		.loc 1 346 9 view .LVU398
 1619 0050 0AF10103 		add	r3, r10, #1
 1620              	.LVL156:
 346:Dsp/widget/wgt_core/GenDsp.c ****         GenDsp_Draw_VLine(map, x0 + y, y0 - x, x + 1, 1, col_inv);
 1621              		.loc 1 346 9 view .LVU399
 1622 0054 0196     		str	r6, [sp, #4]
 1623 0056 4FF0010B 		mov	fp, #1
 1624 005a CDF800B0 		str	fp, [sp]
 1625 005e DBB2     		uxtb	r3, r3
 1626 0060 52B2     		sxtb	r2, r2
 1627 0062 49B2     		sxtb	r1, r1
 1628 0064 FFF7FEFF 		bl	GenDsp_Draw_VLine
 1629              	.LVL157:
 347:Dsp/widget/wgt_core/GenDsp.c ****     }
 1630              		.loc 1 347 9 is_stmt 1 view .LVU400
 347:Dsp/widget/wgt_core/GenDsp.c ****     }
 1631              		.loc 1 347 35 is_stmt 0 view .LVU401
 1632 0068 08EB0A01 		add	r1, r8, r10
 347:Dsp/widget/wgt_core/GenDsp.c ****     }
 1633              		.loc 1 347 43 view .LVU402
 1634 006c 059B     		ldr	r3, [sp, #20]
 1635 006e A3EB0902 		sub	r2, r3, r9
 347:Dsp/widget/wgt_core/GenDsp.c ****     }
 1636              		.loc 1 347 9 view .LVU403
 1637 0072 09EB0B03 		add	r3, r9, fp
 1638 0076 0196     		str	r6, [sp, #4]
 1639 0078 CDF800B0 		str	fp, [sp]
 1640 007c DBB2     		uxtb	r3, r3
 1641 007e 52B2     		sxtb	r2, r2
 1642 0080 49B2     		sxtb	r1, r1
 1643 0082 2046     		mov	r0, r4
 1644 0084 FFF7FEFF 		bl	GenDsp_Draw_VLine
 1645              	.LVL158:
 1646 0088 CAE7     		b	.L85
 1647              	.L91:
 353:Dsp/widget/wgt_core/GenDsp.c ****         GenDsp_Draw_VLine(map, x0 - y, y0 - x, x + 1, 1, col_inv);
 1648              		.loc 1 353 9 is_stmt 1 view .LVU404
 353:Dsp/widget/wgt_core/GenDsp.c ****         GenDsp_Draw_VLine(map, x0 - y, y0 - x, x + 1, 1, col_inv);
 1649              		.loc 1 353 35 is_stmt 0 view .LVU405
 1650 008a 9DF81080 		ldrb	r8, [sp, #16]	@ zero_extendqisi2
 1651 008e 9DF80890 		ldrb	r9, [sp, #8]	@ zero_extendqisi2
ARM GAS  /var/folders/lx/hc4sn_b53233_zkc9xbbl97r0000gp/T//ccupGnhh.s 			page 38


 1652 0092 A8EB0901 		sub	r1, r8, r9
 353:Dsp/widget/wgt_core/GenDsp.c ****         GenDsp_Draw_VLine(map, x0 - y, y0 - x, x + 1, 1, col_inv);
 1653              		.loc 1 353 43 view .LVU406
 1654 0096 FAB2     		uxtb	r2, r7
 1655 0098 9DF80CA0 		ldrb	r10, [sp, #12]	@ zero_extendqisi2
 1656 009c 0592     		str	r2, [sp, #20]
 1657 009e A2EB0A02 		sub	r2, r2, r10
 353:Dsp/widget/wgt_core/GenDsp.c ****         GenDsp_Draw_VLine(map, x0 - y, y0 - x, x + 1, 1, col_inv);
 1658              		.loc 1 353 9 view .LVU407
 1659 00a2 0AF10103 		add	r3, r10, #1
 1660 00a6 0196     		str	r6, [sp, #4]
 1661 00a8 4FF0010B 		mov	fp, #1
 1662 00ac CDF800B0 		str	fp, [sp]
 1663 00b0 DBB2     		uxtb	r3, r3
 1664 00b2 52B2     		sxtb	r2, r2
 1665 00b4 49B2     		sxtb	r1, r1
 1666 00b6 2046     		mov	r0, r4
 1667 00b8 FFF7FEFF 		bl	GenDsp_Draw_VLine
 1668              	.LVL159:
 354:Dsp/widget/wgt_core/GenDsp.c ****     }
 1669              		.loc 1 354 9 is_stmt 1 view .LVU408
 354:Dsp/widget/wgt_core/GenDsp.c ****     }
 1670              		.loc 1 354 35 is_stmt 0 view .LVU409
 1671 00bc A8EB0A01 		sub	r1, r8, r10
 354:Dsp/widget/wgt_core/GenDsp.c ****     }
 1672              		.loc 1 354 43 view .LVU410
 1673 00c0 059B     		ldr	r3, [sp, #20]
 1674 00c2 A3EB0902 		sub	r2, r3, r9
 354:Dsp/widget/wgt_core/GenDsp.c ****     }
 1675              		.loc 1 354 9 view .LVU411
 1676 00c6 09EB0B03 		add	r3, r9, fp
 1677 00ca 0196     		str	r6, [sp, #4]
 1678 00cc CDF800B0 		str	fp, [sp]
 1679 00d0 DBB2     		uxtb	r3, r3
 1680 00d2 52B2     		sxtb	r2, r2
 1681 00d4 49B2     		sxtb	r1, r1
 1682 00d6 2046     		mov	r0, r4
 1683 00d8 FFF7FEFF 		bl	GenDsp_Draw_VLine
 1684              	.LVL160:
 1685 00dc A3E7     		b	.L86
 1686              	.L92:
 360:Dsp/widget/wgt_core/GenDsp.c ****         GenDsp_Draw_VLine(map, x0 + y, y0, x + 1, 1, col_inv);
 1687              		.loc 1 360 9 is_stmt 1 view .LVU412
 360:Dsp/widget/wgt_core/GenDsp.c ****         GenDsp_Draw_VLine(map, x0 + y, y0, x + 1, 1, col_inv);
 1688              		.loc 1 360 35 is_stmt 0 view .LVU413
 1689 00de 9DF81080 		ldrb	r8, [sp, #16]	@ zero_extendqisi2
 1690 00e2 9DF80890 		ldrb	r9, [sp, #8]	@ zero_extendqisi2
 1691 00e6 08EB0901 		add	r1, r8, r9
 360:Dsp/widget/wgt_core/GenDsp.c ****         GenDsp_Draw_VLine(map, x0 + y, y0, x + 1, 1, col_inv);
 1692              		.loc 1 360 9 view .LVU414
 1693 00ea 9DF80CB0 		ldrb	fp, [sp, #12]	@ zero_extendqisi2
 1694 00ee 0BF10103 		add	r3, fp, #1
 1695 00f2 0196     		str	r6, [sp, #4]
 1696 00f4 4FF0010A 		mov	r10, #1
 1697 00f8 CDF800A0 		str	r10, [sp]
 1698 00fc DBB2     		uxtb	r3, r3
 1699 00fe 3A46     		mov	r2, r7
ARM GAS  /var/folders/lx/hc4sn_b53233_zkc9xbbl97r0000gp/T//ccupGnhh.s 			page 39


 1700 0100 49B2     		sxtb	r1, r1
 1701 0102 2046     		mov	r0, r4
 1702 0104 FFF7FEFF 		bl	GenDsp_Draw_VLine
 1703              	.LVL161:
 361:Dsp/widget/wgt_core/GenDsp.c ****     }
 1704              		.loc 1 361 9 is_stmt 1 view .LVU415
 361:Dsp/widget/wgt_core/GenDsp.c ****     }
 1705              		.loc 1 361 35 is_stmt 0 view .LVU416
 1706 0108 08EB0B01 		add	r1, r8, fp
 361:Dsp/widget/wgt_core/GenDsp.c ****     }
 1707              		.loc 1 361 9 view .LVU417
 1708 010c 09EB0A03 		add	r3, r9, r10
 1709 0110 0196     		str	r6, [sp, #4]
 1710 0112 CDF800A0 		str	r10, [sp]
 1711 0116 DBB2     		uxtb	r3, r3
 1712 0118 3A46     		mov	r2, r7
 1713 011a 49B2     		sxtb	r1, r1
 1714 011c 2046     		mov	r0, r4
 1715 011e FFF7FEFF 		bl	GenDsp_Draw_VLine
 1716              	.LVL162:
 1717 0122 83E7     		b	.L87
 1718              	.L93:
 367:Dsp/widget/wgt_core/GenDsp.c ****         GenDsp_Draw_VLine(map, x0 - y, y0, x + 1, 1, col_inv);
 1719              		.loc 1 367 9 is_stmt 1 view .LVU418
 367:Dsp/widget/wgt_core/GenDsp.c ****         GenDsp_Draw_VLine(map, x0 - y, y0, x + 1, 1, col_inv);
 1720              		.loc 1 367 35 is_stmt 0 view .LVU419
 1721 0124 9DF81050 		ldrb	r5, [sp, #16]	@ zero_extendqisi2
 1722 0128 9DF80880 		ldrb	r8, [sp, #8]	@ zero_extendqisi2
 1723 012c A5EB0801 		sub	r1, r5, r8
 367:Dsp/widget/wgt_core/GenDsp.c ****         GenDsp_Draw_VLine(map, x0 - y, y0, x + 1, 1, col_inv);
 1724              		.loc 1 367 9 view .LVU420
 1725 0130 9DF80CA0 		ldrb	r10, [sp, #12]	@ zero_extendqisi2
 1726 0134 0AF10103 		add	r3, r10, #1
 1727 0138 0196     		str	r6, [sp, #4]
 1728 013a 4FF00109 		mov	r9, #1
 1729 013e CDF80090 		str	r9, [sp]
 1730 0142 DBB2     		uxtb	r3, r3
 1731 0144 3A46     		mov	r2, r7
 1732 0146 49B2     		sxtb	r1, r1
 1733 0148 2046     		mov	r0, r4
 1734 014a FFF7FEFF 		bl	GenDsp_Draw_VLine
 1735              	.LVL163:
 368:Dsp/widget/wgt_core/GenDsp.c ****     }
 1736              		.loc 1 368 9 is_stmt 1 view .LVU421
 368:Dsp/widget/wgt_core/GenDsp.c ****     }
 1737              		.loc 1 368 35 is_stmt 0 view .LVU422
 1738 014e A5EB0A01 		sub	r1, r5, r10
 368:Dsp/widget/wgt_core/GenDsp.c ****     }
 1739              		.loc 1 368 9 view .LVU423
 1740 0152 08EB0903 		add	r3, r8, r9
 1741 0156 0196     		str	r6, [sp, #4]
 1742 0158 CDF80090 		str	r9, [sp]
 1743 015c DBB2     		uxtb	r3, r3
 1744 015e 3A46     		mov	r2, r7
 1745 0160 49B2     		sxtb	r1, r1
 1746 0162 2046     		mov	r0, r4
 1747 0164 FFF7FEFF 		bl	GenDsp_Draw_VLine
ARM GAS  /var/folders/lx/hc4sn_b53233_zkc9xbbl97r0000gp/T//ccupGnhh.s 			page 40


 1748              	.LVL164:
 1749              		.loc 1 370 1 view .LVU424
 1750 0168 63E7     		b	.L84
 1751              		.cfi_endproc
 1752              	.LFE17:
 1754              		.section	.text.GenDsp_FillCircle,"ax",%progbits
 1755              		.align	1
 1756              		.syntax unified
 1757              		.thumb
 1758              		.thumb_func
 1759              		.fpu fpv4-sp-d16
 1761              	GenDsp_FillCircle:
 1762              	.LVL165:
 1763              	.LFB18:
 371:Dsp/widget/wgt_core/GenDsp.c **** 
 372:Dsp/widget/wgt_core/GenDsp.c **** static void GenDsp_FillCircle(uint8_t **map, int8_t x0, int8_t y0, uint8_t radius, uint8_t option, 
 373:Dsp/widget/wgt_core/GenDsp.c **** {
 1764              		.loc 1 373 1 is_stmt 1 view -0
 1765              		.cfi_startproc
 1766              		@ args = 8, pretend = 0, frame = 8
 1767              		@ frame_needed = 0, uses_anonymous_args = 0
 1768              		.loc 1 373 1 is_stmt 0 view .LVU426
 1769 0000 2DE9F04F 		push	{r4, r5, r6, r7, r8, r9, r10, fp, lr}
 1770              	.LCFI40:
 1771              		.cfi_def_cfa_offset 36
 1772              		.cfi_offset 4, -36
 1773              		.cfi_offset 5, -32
 1774              		.cfi_offset 6, -28
 1775              		.cfi_offset 7, -24
 1776              		.cfi_offset 8, -20
 1777              		.cfi_offset 9, -16
 1778              		.cfi_offset 10, -12
 1779              		.cfi_offset 11, -8
 1780              		.cfi_offset 14, -4
 1781 0004 87B0     		sub	sp, sp, #28
 1782              	.LCFI41:
 1783              		.cfi_def_cfa_offset 64
 1784 0006 0490     		str	r0, [sp, #16]
 1785 0008 0591     		str	r1, [sp, #20]
 1786 000a 9146     		mov	r9, r2
 1787 000c 9DF840A0 		ldrb	r10, [sp, #64]	@ zero_extendqisi2
 1788 0010 9DF844B0 		ldrb	fp, [sp, #68]	@ zero_extendqisi2
 374:Dsp/widget/wgt_core/GenDsp.c ****     int8_t f;
 1789              		.loc 1 374 5 is_stmt 1 view .LVU427
 375:Dsp/widget/wgt_core/GenDsp.c ****     int8_t ddF_x;
 1790              		.loc 1 375 5 view .LVU428
 376:Dsp/widget/wgt_core/GenDsp.c ****     int8_t ddF_y;
 1791              		.loc 1 376 5 view .LVU429
 377:Dsp/widget/wgt_core/GenDsp.c ****     int8_t x;
 1792              		.loc 1 377 5 view .LVU430
 378:Dsp/widget/wgt_core/GenDsp.c ****     int8_t y;
 1793              		.loc 1 378 5 view .LVU431
 379:Dsp/widget/wgt_core/GenDsp.c **** 
 380:Dsp/widget/wgt_core/GenDsp.c ****     f = 1;
 1794              		.loc 1 380 5 view .LVU432
 1795              	.LVL166:
 381:Dsp/widget/wgt_core/GenDsp.c ****     f -= radius;
ARM GAS  /var/folders/lx/hc4sn_b53233_zkc9xbbl97r0000gp/T//ccupGnhh.s 			page 41


 1796              		.loc 1 381 5 view .LVU433
 1797              		.loc 1 381 7 is_stmt 0 view .LVU434
 1798 0014 C3F10104 		rsb	r4, r3, #1
 1799 0018 64B2     		sxtb	r4, r4
 1800              	.LVL167:
 382:Dsp/widget/wgt_core/GenDsp.c ****     ddF_x = 1;
 1801              		.loc 1 382 5 is_stmt 1 view .LVU435
 383:Dsp/widget/wgt_core/GenDsp.c ****     ddF_y = 0;
 1802              		.loc 1 383 5 view .LVU436
 384:Dsp/widget/wgt_core/GenDsp.c ****     ddF_y -= radius;
 1803              		.loc 1 384 5 view .LVU437
 385:Dsp/widget/wgt_core/GenDsp.c ****     ddF_y *= 2;
 1804              		.loc 1 385 5 view .LVU438
 1805              		.loc 1 385 11 is_stmt 0 view .LVU439
 1806 001a C3EBC318 		rsb	r8, r3, r3, lsl #7
 1807 001e 4FEA4808 		lsl	r8, r8, #1
 1808 0022 4FFA88F8 		sxtb	r8, r8
 1809              	.LVL168:
 386:Dsp/widget/wgt_core/GenDsp.c ****     x = 0;
 1810              		.loc 1 386 5 is_stmt 1 view .LVU440
 387:Dsp/widget/wgt_core/GenDsp.c ****     y = radius;
 1811              		.loc 1 387 5 view .LVU441
 1812              		.loc 1 387 7 is_stmt 0 view .LVU442
 1813 0026 5EB2     		sxtb	r6, r3
 1814              	.LVL169:
 388:Dsp/widget/wgt_core/GenDsp.c **** 
 389:Dsp/widget/wgt_core/GenDsp.c ****     GenDsp_Fill_Circle_Section(map, x, y, x0, y0, option, col_inv);
 1815              		.loc 1 389 5 is_stmt 1 view .LVU443
 1816 0028 CDF808B0 		str	fp, [sp, #8]
 1817 002c CDF804A0 		str	r10, [sp, #4]
 1818 0030 0092     		str	r2, [sp]
 1819 0032 0B46     		mov	r3, r1
 1820              	.LVL170:
 1821              		.loc 1 389 5 is_stmt 0 view .LVU444
 1822 0034 3246     		mov	r2, r6
 1823              	.LVL171:
 1824              		.loc 1 389 5 view .LVU445
 1825 0036 0021     		movs	r1, #0
 1826              	.LVL172:
 1827              		.loc 1 389 5 view .LVU446
 1828 0038 FFF7FEFF 		bl	GenDsp_Fill_Circle_Section
 1829              	.LVL173:
 390:Dsp/widget/wgt_core/GenDsp.c **** 
 391:Dsp/widget/wgt_core/GenDsp.c ****     while (x < y)
 1830              		.loc 1 391 5 is_stmt 1 view .LVU447
 386:Dsp/widget/wgt_core/GenDsp.c ****     y = radius;
 1831              		.loc 1 386 7 is_stmt 0 view .LVU448
 1832 003c 0025     		movs	r5, #0
 382:Dsp/widget/wgt_core/GenDsp.c ****     ddF_y = 0;
 1833              		.loc 1 382 11 view .LVU449
 1834 003e 0127     		movs	r7, #1
 1835              		.loc 1 391 11 view .LVU450
 1836 0040 1BE0     		b	.L95
 1837              	.LVL174:
 1838              	.L100:
 392:Dsp/widget/wgt_core/GenDsp.c ****     {
 393:Dsp/widget/wgt_core/GenDsp.c ****         if (f >= 0)
ARM GAS  /var/folders/lx/hc4sn_b53233_zkc9xbbl97r0000gp/T//ccupGnhh.s 			page 42


 394:Dsp/widget/wgt_core/GenDsp.c ****         {
 395:Dsp/widget/wgt_core/GenDsp.c ****             y--;
 1839              		.loc 1 395 13 is_stmt 1 view .LVU451
 1840              		.loc 1 395 14 is_stmt 0 view .LVU452
 1841 0042 013E     		subs	r6, r6, #1
 1842              	.LVL175:
 1843              		.loc 1 395 14 view .LVU453
 1844 0044 76B2     		sxtb	r6, r6
 1845              	.LVL176:
 396:Dsp/widget/wgt_core/GenDsp.c ****             ddF_y += 2;
 1846              		.loc 1 396 13 is_stmt 1 view .LVU454
 1847              		.loc 1 396 19 is_stmt 0 view .LVU455
 1848 0046 08F10203 		add	r3, r8, #2
 1849 004a 4FFA83F8 		sxtb	r8, r3
 1850              	.LVL177:
 397:Dsp/widget/wgt_core/GenDsp.c ****             f += ddF_y;
 1851              		.loc 1 397 13 is_stmt 1 view .LVU456
 1852              		.loc 1 397 15 is_stmt 0 view .LVU457
 1853 004e 54FA83F4 		uxtab	r4, r4, r3
 1854              	.LVL178:
 1855              		.loc 1 397 15 view .LVU458
 1856 0052 64B2     		sxtb	r4, r4
 1857              	.LVL179:
 1858              	.L96:
 398:Dsp/widget/wgt_core/GenDsp.c ****         }
 399:Dsp/widget/wgt_core/GenDsp.c ****         x++;
 1859              		.loc 1 399 9 is_stmt 1 view .LVU459
 1860              		.loc 1 399 10 is_stmt 0 view .LVU460
 1861 0054 0135     		adds	r5, r5, #1
 1862              	.LVL180:
 1863              		.loc 1 399 10 view .LVU461
 1864 0056 6DB2     		sxtb	r5, r5
 1865              	.LVL181:
 400:Dsp/widget/wgt_core/GenDsp.c ****         ddF_x += 2;
 1866              		.loc 1 400 9 is_stmt 1 view .LVU462
 1867              		.loc 1 400 15 is_stmt 0 view .LVU463
 1868 0058 BB1C     		adds	r3, r7, #2
 1869 005a 5FB2     		sxtb	r7, r3
 1870              	.LVL182:
 401:Dsp/widget/wgt_core/GenDsp.c ****         f += ddF_x;
 1871              		.loc 1 401 9 is_stmt 1 view .LVU464
 1872              		.loc 1 401 11 is_stmt 0 view .LVU465
 1873 005c 54FA83F4 		uxtab	r4, r4, r3
 1874              	.LVL183:
 1875              		.loc 1 401 11 view .LVU466
 1876 0060 64B2     		sxtb	r4, r4
 1877              	.LVL184:
 402:Dsp/widget/wgt_core/GenDsp.c **** 
 403:Dsp/widget/wgt_core/GenDsp.c ****         GenDsp_Fill_Circle_Section(map, x, y, x0, y0, option, col_inv);
 1878              		.loc 1 403 9 is_stmt 1 view .LVU467
 1879 0062 CDF808B0 		str	fp, [sp, #8]
 1880 0066 CDF804A0 		str	r10, [sp, #4]
 1881 006a CDF80090 		str	r9, [sp]
 1882 006e 059B     		ldr	r3, [sp, #20]
 1883 0070 3246     		mov	r2, r6
 1884 0072 2946     		mov	r1, r5
 1885 0074 0498     		ldr	r0, [sp, #16]
ARM GAS  /var/folders/lx/hc4sn_b53233_zkc9xbbl97r0000gp/T//ccupGnhh.s 			page 43


 1886 0076 FFF7FEFF 		bl	GenDsp_Fill_Circle_Section
 1887              	.LVL185:
 1888              	.L95:
 391:Dsp/widget/wgt_core/GenDsp.c ****     {
 1889              		.loc 1 391 11 view .LVU468
 1890 007a B542     		cmp	r5, r6
 1891 007c 02DA     		bge	.L99
 393:Dsp/widget/wgt_core/GenDsp.c ****         {
 1892              		.loc 1 393 9 view .LVU469
 393:Dsp/widget/wgt_core/GenDsp.c ****         {
 1893              		.loc 1 393 12 is_stmt 0 view .LVU470
 1894 007e 002C     		cmp	r4, #0
 1895 0080 DFDA     		bge	.L100
 1896 0082 E7E7     		b	.L96
 1897              	.L99:
 404:Dsp/widget/wgt_core/GenDsp.c ****     }
 405:Dsp/widget/wgt_core/GenDsp.c **** }
 1898              		.loc 1 405 1 view .LVU471
 1899 0084 07B0     		add	sp, sp, #28
 1900              	.LCFI42:
 1901              		.cfi_def_cfa_offset 36
 1902              		@ sp needed
 1903 0086 BDE8F08F 		pop	{r4, r5, r6, r7, r8, r9, r10, fp, pc}
 1904              		.loc 1 405 1 view .LVU472
 1905              		.cfi_endproc
 1906              	.LFE18:
 1908              		.section	.text.GenDsp_FillRectangle,"ax",%progbits
 1909              		.align	1
 1910              		.syntax unified
 1911              		.thumb
 1912              		.thumb_func
 1913              		.fpu fpv4-sp-d16
 1915              	GenDsp_FillRectangle:
 1916              	.LVL186:
 1917              	.LFB19:
 406:Dsp/widget/wgt_core/GenDsp.c **** 
 407:Dsp/widget/wgt_core/GenDsp.c **** static void GenDsp_FillRectangle(uint8_t **map, int8_t x, int8_t y, uint8_t width, uint8_t height, 
 408:Dsp/widget/wgt_core/GenDsp.c **** {
 1918              		.loc 1 408 1 is_stmt 1 view -0
 1919              		.cfi_startproc
 1920              		@ args = 8, pretend = 0, frame = 0
 1921              		@ frame_needed = 0, uses_anonymous_args = 0
 1922              		.loc 1 408 1 is_stmt 0 view .LVU474
 1923 0000 2DE9F84F 		push	{r3, r4, r5, r6, r7, r8, r9, r10, fp, lr}
 1924              	.LCFI43:
 1925              		.cfi_def_cfa_offset 40
 1926              		.cfi_offset 3, -40
 1927              		.cfi_offset 4, -36
 1928              		.cfi_offset 5, -32
 1929              		.cfi_offset 6, -28
 1930              		.cfi_offset 7, -24
 1931              		.cfi_offset 8, -20
 1932              		.cfi_offset 9, -16
 1933              		.cfi_offset 10, -12
 1934              		.cfi_offset 11, -8
 1935              		.cfi_offset 14, -4
 1936 0004 8046     		mov	r8, r0
ARM GAS  /var/folders/lx/hc4sn_b53233_zkc9xbbl97r0000gp/T//ccupGnhh.s 			page 44


 1937 0006 8A46     		mov	r10, r1
 1938 0008 1646     		mov	r6, r2
 1939 000a 9B46     		mov	fp, r3
 1940 000c 9DF82870 		ldrb	r7, [sp, #40]	@ zero_extendqisi2
 1941 0010 9DF82C90 		ldrb	r9, [sp, #44]	@ zero_extendqisi2
 409:Dsp/widget/wgt_core/GenDsp.c ****     for (int8_t x_tmp = x; x_tmp < x + width; x_tmp++)
 1942              		.loc 1 409 5 is_stmt 1 view .LVU475
 1943              	.LBB10:
 1944              		.loc 1 409 10 view .LVU476
 1945              	.LVL187:
 1946              		.loc 1 409 17 is_stmt 0 view .LVU477
 1947 0014 0D46     		mov	r5, r1
 1948              		.loc 1 409 5 view .LVU478
 1949 0016 0CE0     		b	.L102
 1950              	.LVL188:
 1951              	.L103:
 1952              	.LBB11:
 410:Dsp/widget/wgt_core/GenDsp.c ****     {
 411:Dsp/widget/wgt_core/GenDsp.c ****         for (int8_t y_tmp = y; y_tmp < y + height; y_tmp++)
 412:Dsp/widget/wgt_core/GenDsp.c ****         {
 413:Dsp/widget/wgt_core/GenDsp.c ****             GenDsp_DrawPoint(map, x_tmp, y_tmp, col_inv);
 1953              		.loc 1 413 13 is_stmt 1 discriminator 3 view .LVU479
 1954 0018 4B46     		mov	r3, r9
 1955 001a 2246     		mov	r2, r4
 1956 001c 2946     		mov	r1, r5
 1957 001e 4046     		mov	r0, r8
 1958 0020 FFF7FEFF 		bl	GenDsp_DrawPoint
 1959              	.LVL189:
 411:Dsp/widget/wgt_core/GenDsp.c ****         {
 1960              		.loc 1 411 52 discriminator 3 view .LVU480
 411:Dsp/widget/wgt_core/GenDsp.c ****         {
 1961              		.loc 1 411 57 is_stmt 0 discriminator 3 view .LVU481
 1962 0024 0134     		adds	r4, r4, #1
 1963              	.LVL190:
 411:Dsp/widget/wgt_core/GenDsp.c ****         {
 1964              		.loc 1 411 57 discriminator 3 view .LVU482
 1965 0026 64B2     		sxtb	r4, r4
 1966              	.LVL191:
 1967              	.L104:
 411:Dsp/widget/wgt_core/GenDsp.c ****         {
 1968              		.loc 1 411 32 is_stmt 1 discriminator 1 view .LVU483
 411:Dsp/widget/wgt_core/GenDsp.c ****         {
 1969              		.loc 1 411 42 is_stmt 0 discriminator 1 view .LVU484
 1970 0028 F319     		adds	r3, r6, r7
 411:Dsp/widget/wgt_core/GenDsp.c ****         {
 1971              		.loc 1 411 9 discriminator 1 view .LVU485
 1972 002a 9C42     		cmp	r4, r3
 1973 002c F4DB     		blt	.L103
 1974              	.LBE11:
 409:Dsp/widget/wgt_core/GenDsp.c ****     for (int8_t x_tmp = x; x_tmp < x + width; x_tmp++)
 1975              		.loc 1 409 47 is_stmt 1 discriminator 2 view .LVU486
 409:Dsp/widget/wgt_core/GenDsp.c ****     for (int8_t x_tmp = x; x_tmp < x + width; x_tmp++)
 1976              		.loc 1 409 52 is_stmt 0 discriminator 2 view .LVU487
 1977 002e 0135     		adds	r5, r5, #1
 1978              	.LVL192:
 409:Dsp/widget/wgt_core/GenDsp.c ****     for (int8_t x_tmp = x; x_tmp < x + width; x_tmp++)
 1979              		.loc 1 409 52 discriminator 2 view .LVU488
ARM GAS  /var/folders/lx/hc4sn_b53233_zkc9xbbl97r0000gp/T//ccupGnhh.s 			page 45


 1980 0030 6DB2     		sxtb	r5, r5
 1981              	.LVL193:
 1982              	.L102:
 409:Dsp/widget/wgt_core/GenDsp.c ****     for (int8_t x_tmp = x; x_tmp < x + width; x_tmp++)
 1983              		.loc 1 409 28 is_stmt 1 discriminator 1 view .LVU489
 409:Dsp/widget/wgt_core/GenDsp.c ****     for (int8_t x_tmp = x; x_tmp < x + width; x_tmp++)
 1984              		.loc 1 409 38 is_stmt 0 discriminator 1 view .LVU490
 1985 0032 0AEB0B03 		add	r3, r10, fp
 409:Dsp/widget/wgt_core/GenDsp.c ****     for (int8_t x_tmp = x; x_tmp < x + width; x_tmp++)
 1986              		.loc 1 409 5 discriminator 1 view .LVU491
 1987 0036 9D42     		cmp	r5, r3
 1988 0038 01DA     		bge	.L107
 1989              	.LBB12:
 411:Dsp/widget/wgt_core/GenDsp.c ****         {
 1990              		.loc 1 411 21 view .LVU492
 1991 003a 3446     		mov	r4, r6
 1992 003c F4E7     		b	.L104
 1993              	.L107:
 1994              	.LBE12:
 1995              	.LBE10:
 414:Dsp/widget/wgt_core/GenDsp.c ****         }
 415:Dsp/widget/wgt_core/GenDsp.c ****     }
 416:Dsp/widget/wgt_core/GenDsp.c **** }
 1996              		.loc 1 416 1 view .LVU493
 1997 003e BDE8F88F 		pop	{r3, r4, r5, r6, r7, r8, r9, r10, fp, pc}
 1998              		.loc 1 416 1 view .LVU494
 1999              		.cfi_endproc
 2000              	.LFE19:
 2002              		.section	.text.GenDsp_Fill_RadiusRectangle,"ax",%progbits
 2003              		.align	1
 2004              		.syntax unified
 2005              		.thumb
 2006              		.thumb_func
 2007              		.fpu fpv4-sp-d16
 2009              	GenDsp_Fill_RadiusRectangle:
 2010              	.LVL194:
 2011              	.LFB20:
 417:Dsp/widget/wgt_core/GenDsp.c **** 
 418:Dsp/widget/wgt_core/GenDsp.c **** static void GenDsp_Fill_RadiusRectangle(uint8_t **map, int8_t x, int8_t y, uint8_t width, uint8_t h
 419:Dsp/widget/wgt_core/GenDsp.c **** {
 2012              		.loc 1 419 1 is_stmt 1 view -0
 2013              		.cfi_startproc
 2014              		@ args = 12, pretend = 0, frame = 16
 2015              		@ frame_needed = 0, uses_anonymous_args = 0
 2016              		.loc 1 419 1 is_stmt 0 view .LVU496
 2017 0000 2DE9F04F 		push	{r4, r5, r6, r7, r8, r9, r10, fp, lr}
 2018              	.LCFI44:
 2019              		.cfi_def_cfa_offset 36
 2020              		.cfi_offset 4, -36
 2021              		.cfi_offset 5, -32
 2022              		.cfi_offset 6, -28
 2023              		.cfi_offset 7, -24
 2024              		.cfi_offset 8, -20
 2025              		.cfi_offset 9, -16
 2026              		.cfi_offset 10, -12
 2027              		.cfi_offset 11, -8
 2028              		.cfi_offset 14, -4
ARM GAS  /var/folders/lx/hc4sn_b53233_zkc9xbbl97r0000gp/T//ccupGnhh.s 			page 46


 2029 0004 87B0     		sub	sp, sp, #28
 2030              	.LCFI45:
 2031              		.cfi_def_cfa_offset 64
 2032 0006 0746     		mov	r7, r0
 2033 0008 9146     		mov	r9, r2
 2034 000a 9DF840B0 		ldrb	fp, [sp, #64]	@ zero_extendqisi2
 2035 000e 9DF84450 		ldrb	r5, [sp, #68]	@ zero_extendqisi2
 2036 0012 9DF84880 		ldrb	r8, [sp, #72]	@ zero_extendqisi2
 420:Dsp/widget/wgt_core/GenDsp.c ****     GenDsp_FillRectangle(map, x + radius, y, width - 2 * radius, height, col_inv);
 2037              		.loc 1 420 5 is_stmt 1 view .LVU497
 2038              		.loc 1 420 33 is_stmt 0 view .LVU498
 2039 0016 0291     		str	r1, [sp, #8]
 2040 0018 9DF80840 		ldrb	r4, [sp, #8]	@ zero_extendqisi2
 2041 001c 04EB050A 		add	r10, r4, r5
 2042              		.loc 1 420 5 view .LVU499
 2043 0020 4FFA8AFA 		sxtb	r10, r10
 2044 0024 6E00     		lsls	r6, r5, #1
 2045 0026 F6B2     		uxtb	r6, r6
 2046 0028 0593     		str	r3, [sp, #20]
 2047 002a 9B1B     		subs	r3, r3, r6
 2048              	.LVL195:
 2049              		.loc 1 420 5 view .LVU500
 2050 002c CDF80480 		str	r8, [sp, #4]
 2051 0030 CDF800B0 		str	fp, [sp]
 2052 0034 DBB2     		uxtb	r3, r3
 2053 0036 5146     		mov	r1, r10
 2054              	.LVL196:
 2055              		.loc 1 420 5 view .LVU501
 2056 0038 FFF7FEFF 		bl	GenDsp_FillRectangle
 2057              	.LVL197:
 421:Dsp/widget/wgt_core/GenDsp.c ****     GenDsp_FillRectangle(map, x, y + radius, radius + 1, height - 2 * radius - 1, col_inv);
 2058              		.loc 1 421 5 is_stmt 1 view .LVU502
 2059              		.loc 1 421 36 is_stmt 0 view .LVU503
 2060 003c 5FFA89F0 		uxtb	r0, r9
 2061 0040 0390     		str	r0, [sp, #12]
 2062 0042 00EB0509 		add	r9, r0, r5
 2063              		.loc 1 421 5 view .LVU504
 2064 0046 4FFA89F9 		sxtb	r9, r9
 2065 004a 6B1C     		adds	r3, r5, #1
 2066 004c DAB2     		uxtb	r2, r3
 2067              		.loc 1 421 65 view .LVU505
 2068 004e ABEB0606 		sub	r6, fp, r6
 2069 0052 F6B2     		uxtb	r6, r6
 2070              		.loc 1 421 5 view .LVU506
 2071 0054 CDF80480 		str	r8, [sp, #4]
 2072 0058 731E     		subs	r3, r6, #1
 2073 005a DBB2     		uxtb	r3, r3
 2074 005c 0093     		str	r3, [sp]
 2075 005e 0492     		str	r2, [sp, #16]
 2076 0060 1346     		mov	r3, r2
 2077 0062 4A46     		mov	r2, r9
 2078 0064 0299     		ldr	r1, [sp, #8]
 2079 0066 3846     		mov	r0, r7
 2080 0068 FFF7FEFF 		bl	GenDsp_FillRectangle
 2081              	.LVL198:
 422:Dsp/widget/wgt_core/GenDsp.c ****     GenDsp_FillRectangle(map, x + width - radius, y + radius, radius + 1, height - 2 * radius, col_
 2082              		.loc 1 422 5 is_stmt 1 view .LVU507
ARM GAS  /var/folders/lx/hc4sn_b53233_zkc9xbbl97r0000gp/T//ccupGnhh.s 			page 47


 2083              		.loc 1 422 33 is_stmt 0 view .LVU508
 2084 006c 059A     		ldr	r2, [sp, #20]
 2085 006e 1444     		add	r4, r4, r2
 2086 0070 E4B2     		uxtb	r4, r4
 2087              		.loc 1 422 41 view .LVU509
 2088 0072 641B     		subs	r4, r4, r5
 2089              		.loc 1 422 5 view .LVU510
 2090 0074 64B2     		sxtb	r4, r4
 2091 0076 CDF80480 		str	r8, [sp, #4]
 2092 007a 0096     		str	r6, [sp]
 2093 007c 049B     		ldr	r3, [sp, #16]
 2094 007e 4A46     		mov	r2, r9
 2095 0080 2146     		mov	r1, r4
 2096 0082 3846     		mov	r0, r7
 2097 0084 FFF7FEFF 		bl	GenDsp_FillRectangle
 2098              	.LVL199:
 423:Dsp/widget/wgt_core/GenDsp.c **** 
 424:Dsp/widget/wgt_core/GenDsp.c ****     GenDsp_FillCircle(map, x + radius, y + radius, radius, DRAW_UPPER_LEFT, col_inv);
 2099              		.loc 1 424 5 is_stmt 1 view .LVU511
 2100 0088 CDF80480 		str	r8, [sp, #4]
 2101 008c 0223     		movs	r3, #2
 2102 008e 0093     		str	r3, [sp]
 2103 0090 2B46     		mov	r3, r5
 2104 0092 4A46     		mov	r2, r9
 2105 0094 5146     		mov	r1, r10
 2106 0096 3846     		mov	r0, r7
 2107 0098 FFF7FEFF 		bl	GenDsp_FillCircle
 2108              	.LVL200:
 425:Dsp/widget/wgt_core/GenDsp.c ****     GenDsp_FillCircle(map, x + width - radius, y + radius, radius, DRAW_UPPER_RIGHT, col_inv);
 2109              		.loc 1 425 5 view .LVU512
 2110 009c CDF80480 		str	r8, [sp, #4]
 2111 00a0 0123     		movs	r3, #1
 2112 00a2 0093     		str	r3, [sp]
 2113 00a4 2B46     		mov	r3, r5
 2114 00a6 4A46     		mov	r2, r9
 2115 00a8 2146     		mov	r1, r4
 2116 00aa 3846     		mov	r0, r7
 2117 00ac FFF7FEFF 		bl	GenDsp_FillCircle
 2118              	.LVL201:
 426:Dsp/widget/wgt_core/GenDsp.c ****     GenDsp_FillCircle(map, x + radius, y + height - radius - 2, radius, DRAW_LOWER_LEFT, col_inv);
 2119              		.loc 1 426 5 view .LVU513
 2120              		.loc 1 426 42 is_stmt 0 view .LVU514
 2121 00b0 0398     		ldr	r0, [sp, #12]
 2122 00b2 00EB0B06 		add	r6, r0, fp
 2123 00b6 F6B2     		uxtb	r6, r6
 2124              		.loc 1 426 51 view .LVU515
 2125 00b8 761B     		subs	r6, r6, r5
 2126 00ba F6B2     		uxtb	r6, r6
 2127              		.loc 1 426 60 view .LVU516
 2128 00bc 023E     		subs	r6, r6, #2
 2129              		.loc 1 426 5 view .LVU517
 2130 00be 76B2     		sxtb	r6, r6
 2131 00c0 CDF80480 		str	r8, [sp, #4]
 2132 00c4 0423     		movs	r3, #4
 2133 00c6 0093     		str	r3, [sp]
 2134 00c8 2B46     		mov	r3, r5
 2135 00ca 3246     		mov	r2, r6
ARM GAS  /var/folders/lx/hc4sn_b53233_zkc9xbbl97r0000gp/T//ccupGnhh.s 			page 48


 2136 00cc 5146     		mov	r1, r10
 2137 00ce 3846     		mov	r0, r7
 2138 00d0 FFF7FEFF 		bl	GenDsp_FillCircle
 2139              	.LVL202:
 427:Dsp/widget/wgt_core/GenDsp.c ****     GenDsp_FillCircle(map, x + width - radius, y + height - radius - 2, radius, DRAW_LOWER_RIGHT, c
 2140              		.loc 1 427 5 is_stmt 1 view .LVU518
 2141 00d4 CDF80480 		str	r8, [sp, #4]
 2142 00d8 0823     		movs	r3, #8
 2143 00da 0093     		str	r3, [sp]
 2144 00dc 2B46     		mov	r3, r5
 2145 00de 3246     		mov	r2, r6
 2146 00e0 2146     		mov	r1, r4
 2147 00e2 3846     		mov	r0, r7
 2148 00e4 FFF7FEFF 		bl	GenDsp_FillCircle
 2149              	.LVL203:
 428:Dsp/widget/wgt_core/GenDsp.c **** }
 2150              		.loc 1 428 1 is_stmt 0 view .LVU519
 2151 00e8 07B0     		add	sp, sp, #28
 2152              	.LCFI46:
 2153              		.cfi_def_cfa_offset 36
 2154              		@ sp needed
 2155 00ea BDE8F08F 		pop	{r4, r5, r6, r7, r8, r9, r10, fp, pc}
 2156              		.loc 1 428 1 view .LVU520
 2157              		.cfi_endproc
 2158              	.LFE20:
 2160              		.section	.rodata.GenDsp_DrawNum.str1.4,"aMS",%progbits,1
 2161              		.align	2
 2162              	.LC0:
 2163 0000 256400   		.ascii	"%d\000"
 2164              		.section	.text.GenDsp_DrawNum,"ax",%progbits
 2165              		.align	1
 2166              		.syntax unified
 2167              		.thumb
 2168              		.thumb_func
 2169              		.fpu fpv4-sp-d16
 2171              	GenDsp_DrawNum:
 2172              	.LVL204:
 2173              	.LFB7:
 132:Dsp/widget/wgt_core/GenDsp.c ****     char num_buff[MAX_DSP_NUM_LEN];
 2174              		.loc 1 132 1 is_stmt 1 view -0
 2175              		.cfi_startproc
 2176              		@ args = 8, pretend = 0, frame = 16
 2177              		@ frame_needed = 0, uses_anonymous_args = 0
 132:Dsp/widget/wgt_core/GenDsp.c ****     char num_buff[MAX_DSP_NUM_LEN];
 2178              		.loc 1 132 1 is_stmt 0 view .LVU522
 2179 0000 70B5     		push	{r4, r5, r6, lr}
 2180              	.LCFI47:
 2181              		.cfi_def_cfa_offset 16
 2182              		.cfi_offset 4, -16
 2183              		.cfi_offset 5, -12
 2184              		.cfi_offset 6, -8
 2185              		.cfi_offset 14, -4
 2186 0002 86B0     		sub	sp, sp, #24
 2187              	.LCFI48:
 2188              		.cfi_def_cfa_offset 40
 2189 0004 0446     		mov	r4, r0
 2190 0006 0D46     		mov	r5, r1
ARM GAS  /var/folders/lx/hc4sn_b53233_zkc9xbbl97r0000gp/T//ccupGnhh.s 			page 49


 2191 0008 1E46     		mov	r6, r3
 133:Dsp/widget/wgt_core/GenDsp.c **** 
 2192              		.loc 1 133 5 is_stmt 1 view .LVU523
 135:Dsp/widget/wgt_core/GenDsp.c ****     GenDsp_DrawStr(font, map, num_buff, x, y, col_inv);
 2193              		.loc 1 135 5 view .LVU524
 2194 000a 0949     		ldr	r1, .L112
 2195              	.LVL205:
 135:Dsp/widget/wgt_core/GenDsp.c ****     GenDsp_DrawStr(font, map, num_buff, x, y, col_inv);
 2196              		.loc 1 135 5 is_stmt 0 view .LVU525
 2197 000c 03A8     		add	r0, sp, #12
 2198              	.LVL206:
 135:Dsp/widget/wgt_core/GenDsp.c ****     GenDsp_DrawStr(font, map, num_buff, x, y, col_inv);
 2199              		.loc 1 135 5 view .LVU526
 2200 000e FFF7FEFF 		bl	sprintf
 2201              	.LVL207:
 136:Dsp/widget/wgt_core/GenDsp.c **** }
 2202              		.loc 1 136 5 is_stmt 1 view .LVU527
 2203 0012 9DF82C30 		ldrb	r3, [sp, #44]	@ zero_extendqisi2
 2204 0016 0193     		str	r3, [sp, #4]
 2205 0018 9DF92830 		ldrsb	r3, [sp, #40]
 2206 001c 0093     		str	r3, [sp]
 2207 001e 3346     		mov	r3, r6
 2208 0020 03AA     		add	r2, sp, #12
 2209 0022 2946     		mov	r1, r5
 2210 0024 2046     		mov	r0, r4
 2211 0026 FFF7FEFF 		bl	GenDsp_DrawStr
 2212              	.LVL208:
 137:Dsp/widget/wgt_core/GenDsp.c **** 
 2213              		.loc 1 137 1 is_stmt 0 view .LVU528
 2214 002a 06B0     		add	sp, sp, #24
 2215              	.LCFI49:
 2216              		.cfi_def_cfa_offset 16
 2217              		@ sp needed
 2218 002c 70BD     		pop	{r4, r5, r6, pc}
 2219              	.LVL209:
 2220              	.L113:
 137:Dsp/widget/wgt_core/GenDsp.c **** 
 2221              		.loc 1 137 1 view .LVU529
 2222 002e 00BF     		.align	2
 2223              	.L112:
 2224 0030 00000000 		.word	.LC0
 2225              		.cfi_endproc
 2226              	.LFE7:
 2228              		.global	GenDsp_Interface
 2229              		.global	DspRange
 2230              		.section	.bss.DspRange,"aw",%nobits
 2231              		.align	2
 2232              		.set	.LANCHOR0,. + 0
 2235              	DspRange:
 2236 0000 00000000 		.space	4
 2237              		.section	.data.GenDsp_Interface,"aw"
 2238              		.align	2
 2241              	GenDsp_Interface:
 2242 0000 00000000 		.word	GenDsp_SetRange
 2243 0004 00000000 		.word	GenDsp_DrawPoint
 2244 0008 00000000 		.word	GenDsp_DrawCircle
 2245 000c 00000000 		.word	GenDsp_DrawChar
ARM GAS  /var/folders/lx/hc4sn_b53233_zkc9xbbl97r0000gp/T//ccupGnhh.s 			page 50


 2246 0010 00000000 		.word	GenDsp_DrawStr
 2247 0014 00000000 		.word	GenDsp_DrawNum
 2248 0018 00000000 		.word	GenDsp_DrawRectangle
 2249 001c 00000000 		.word	GenDsp_Draw_RadiusRectangle
 2250 0020 00000000 		.word	GenDsp_DrawLen
 2251 0024 00000000 		.word	GenDsp_Draw_VLine
 2252 0028 00000000 		.word	GenDsp_Draw_HLine
 2253 002c 00000000 		.word	0
 2254 0030 00000000 		.word	GenDsp_FillCircle
 2255 0034 00000000 		.word	GenDsp_FillRectangle
 2256 0038 00000000 		.word	GenDsp_Fill_RadiusRectangle
 2257 003c 00000000 		.word	GenDsp_GetStrLen
 2258              		.text
 2259              	.Letext0:
 2260              		.file 2 "/usr/local/arm-none-eabi-gcc/gcc-arm-none-eabi-10-2020-q4-major/arm-none-eabi/include/mac
 2261              		.file 3 "/usr/local/arm-none-eabi-gcc/gcc-arm-none-eabi-10-2020-q4-major/arm-none-eabi/include/sys
 2262              		.file 4 "Dsp/screen/font/oledfont.h"
 2263              		.file 5 "Dsp/widget/wgt_core/GenDsp.h"
 2264              		.file 6 "/usr/local/arm-none-eabi-gcc/gcc-arm-none-eabi-10-2020-q4-major/arm-none-eabi/include/std
ARM GAS  /var/folders/lx/hc4sn_b53233_zkc9xbbl97r0000gp/T//ccupGnhh.s 			page 51


DEFINED SYMBOLS
                            *ABS*:0000000000000000 GenDsp.c
/var/folders/lx/hc4sn_b53233_zkc9xbbl97r0000gp/T//ccupGnhh.s:18     .text.GenDsp_SetRange:0000000000000000 $t
/var/folders/lx/hc4sn_b53233_zkc9xbbl97r0000gp/T//ccupGnhh.s:25     .text.GenDsp_SetRange:0000000000000000 GenDsp_SetRange
/var/folders/lx/hc4sn_b53233_zkc9xbbl97r0000gp/T//ccupGnhh.s:61     .text.GenDsp_SetRange:0000000000000014 $d
/var/folders/lx/hc4sn_b53233_zkc9xbbl97r0000gp/T//ccupGnhh.s:66     .text.GenDsp_DrawPoint:0000000000000000 $t
/var/folders/lx/hc4sn_b53233_zkc9xbbl97r0000gp/T//ccupGnhh.s:72     .text.GenDsp_DrawPoint:0000000000000000 GenDsp_DrawPoint
/var/folders/lx/hc4sn_b53233_zkc9xbbl97r0000gp/T//ccupGnhh.s:140    .text.GenDsp_DrawPoint:0000000000000034 $d
/var/folders/lx/hc4sn_b53233_zkc9xbbl97r0000gp/T//ccupGnhh.s:145    .text.GenDsp_DrawChar:0000000000000000 $t
/var/folders/lx/hc4sn_b53233_zkc9xbbl97r0000gp/T//ccupGnhh.s:151    .text.GenDsp_DrawChar:0000000000000000 GenDsp_DrawChar
/var/folders/lx/hc4sn_b53233_zkc9xbbl97r0000gp/T//ccupGnhh.s:385    .text.GenDsp_DrawChar:00000000000000d4 $d
/var/folders/lx/hc4sn_b53233_zkc9xbbl97r0000gp/T//ccupGnhh.s:392    .text.GenDsp_DrawStr:0000000000000000 $t
/var/folders/lx/hc4sn_b53233_zkc9xbbl97r0000gp/T//ccupGnhh.s:398    .text.GenDsp_DrawStr:0000000000000000 GenDsp_DrawStr
/var/folders/lx/hc4sn_b53233_zkc9xbbl97r0000gp/T//ccupGnhh.s:471    .text.GenDsp_GetStrLen:0000000000000000 $t
/var/folders/lx/hc4sn_b53233_zkc9xbbl97r0000gp/T//ccupGnhh.s:477    .text.GenDsp_GetStrLen:0000000000000000 GenDsp_GetStrLen
/var/folders/lx/hc4sn_b53233_zkc9xbbl97r0000gp/T//ccupGnhh.s:519    .text.GenDsp_DrawLen:0000000000000000 $t
/var/folders/lx/hc4sn_b53233_zkc9xbbl97r0000gp/T//ccupGnhh.s:525    .text.GenDsp_DrawLen:0000000000000000 GenDsp_DrawLen
/var/folders/lx/hc4sn_b53233_zkc9xbbl97r0000gp/T//ccupGnhh.s:773    .text.GenDsp_Draw_VLine:0000000000000000 $t
/var/folders/lx/hc4sn_b53233_zkc9xbbl97r0000gp/T//ccupGnhh.s:779    .text.GenDsp_Draw_VLine:0000000000000000 GenDsp_Draw_VLine
/var/folders/lx/hc4sn_b53233_zkc9xbbl97r0000gp/T//ccupGnhh.s:820    .text.GenDsp_Draw_HLine:0000000000000000 $t
/var/folders/lx/hc4sn_b53233_zkc9xbbl97r0000gp/T//ccupGnhh.s:826    .text.GenDsp_Draw_HLine:0000000000000000 GenDsp_Draw_HLine
/var/folders/lx/hc4sn_b53233_zkc9xbbl97r0000gp/T//ccupGnhh.s:866    .text.GenDsp_Draw_Circle_Section:0000000000000000 $t
/var/folders/lx/hc4sn_b53233_zkc9xbbl97r0000gp/T//ccupGnhh.s:872    .text.GenDsp_Draw_Circle_Section:0000000000000000 GenDsp_Draw_Circle_Section
/var/folders/lx/hc4sn_b53233_zkc9xbbl97r0000gp/T//ccupGnhh.s:1061   .text.GenDsp_Draw_Circle:0000000000000000 $t
/var/folders/lx/hc4sn_b53233_zkc9xbbl97r0000gp/T//ccupGnhh.s:1067   .text.GenDsp_Draw_Circle:0000000000000000 GenDsp_Draw_Circle
/var/folders/lx/hc4sn_b53233_zkc9xbbl97r0000gp/T//ccupGnhh.s:1215   .text.GenDsp_DrawCircle:0000000000000000 $t
/var/folders/lx/hc4sn_b53233_zkc9xbbl97r0000gp/T//ccupGnhh.s:1221   .text.GenDsp_DrawCircle:0000000000000000 GenDsp_DrawCircle
/var/folders/lx/hc4sn_b53233_zkc9xbbl97r0000gp/T//ccupGnhh.s:1255   .text.GenDsp_DrawRectangle:0000000000000000 $t
/var/folders/lx/hc4sn_b53233_zkc9xbbl97r0000gp/T//ccupGnhh.s:1261   .text.GenDsp_DrawRectangle:0000000000000000 GenDsp_DrawRectangle
/var/folders/lx/hc4sn_b53233_zkc9xbbl97r0000gp/T//ccupGnhh.s:1357   .text.GenDsp_Draw_RadiusRectangle:0000000000000000 $t
/var/folders/lx/hc4sn_b53233_zkc9xbbl97r0000gp/T//ccupGnhh.s:1363   .text.GenDsp_Draw_RadiusRectangle:0000000000000000 GenDsp_Draw_RadiusRectangle
/var/folders/lx/hc4sn_b53233_zkc9xbbl97r0000gp/T//ccupGnhh.s:1537   .text.GenDsp_Fill_Circle_Section:0000000000000000 $t
/var/folders/lx/hc4sn_b53233_zkc9xbbl97r0000gp/T//ccupGnhh.s:1543   .text.GenDsp_Fill_Circle_Section:0000000000000000 GenDsp_Fill_Circle_Section
/var/folders/lx/hc4sn_b53233_zkc9xbbl97r0000gp/T//ccupGnhh.s:1755   .text.GenDsp_FillCircle:0000000000000000 $t
/var/folders/lx/hc4sn_b53233_zkc9xbbl97r0000gp/T//ccupGnhh.s:1761   .text.GenDsp_FillCircle:0000000000000000 GenDsp_FillCircle
/var/folders/lx/hc4sn_b53233_zkc9xbbl97r0000gp/T//ccupGnhh.s:1909   .text.GenDsp_FillRectangle:0000000000000000 $t
/var/folders/lx/hc4sn_b53233_zkc9xbbl97r0000gp/T//ccupGnhh.s:1915   .text.GenDsp_FillRectangle:0000000000000000 GenDsp_FillRectangle
/var/folders/lx/hc4sn_b53233_zkc9xbbl97r0000gp/T//ccupGnhh.s:2003   .text.GenDsp_Fill_RadiusRectangle:0000000000000000 $t
/var/folders/lx/hc4sn_b53233_zkc9xbbl97r0000gp/T//ccupGnhh.s:2009   .text.GenDsp_Fill_RadiusRectangle:0000000000000000 GenDsp_Fill_RadiusRectangle
/var/folders/lx/hc4sn_b53233_zkc9xbbl97r0000gp/T//ccupGnhh.s:2161   .rodata.GenDsp_DrawNum.str1.4:0000000000000000 $d
/var/folders/lx/hc4sn_b53233_zkc9xbbl97r0000gp/T//ccupGnhh.s:2165   .text.GenDsp_DrawNum:0000000000000000 $t
/var/folders/lx/hc4sn_b53233_zkc9xbbl97r0000gp/T//ccupGnhh.s:2171   .text.GenDsp_DrawNum:0000000000000000 GenDsp_DrawNum
/var/folders/lx/hc4sn_b53233_zkc9xbbl97r0000gp/T//ccupGnhh.s:2224   .text.GenDsp_DrawNum:0000000000000030 $d
/var/folders/lx/hc4sn_b53233_zkc9xbbl97r0000gp/T//ccupGnhh.s:2241   .data.GenDsp_Interface:0000000000000000 GenDsp_Interface
/var/folders/lx/hc4sn_b53233_zkc9xbbl97r0000gp/T//ccupGnhh.s:2235   .bss.DspRange:0000000000000000 DspRange
/var/folders/lx/hc4sn_b53233_zkc9xbbl97r0000gp/T//ccupGnhh.s:2231   .bss.DspRange:0000000000000000 $d
/var/folders/lx/hc4sn_b53233_zkc9xbbl97r0000gp/T//ccupGnhh.s:2238   .data.GenDsp_Interface:0000000000000000 $d

UNDEFINED SYMBOLS
oled_asc2_1206
oled_asc2_1608
sprintf
