ARM GAS  /var/folders/lx/hc4sn_b53233_zkc9xbbl97r0000gp/T//ccrUoNPa.s 			page 1


   1              		.cpu cortex-m4
   2              		.eabi_attribute 27, 1
   3              		.eabi_attribute 28, 1
   4              		.eabi_attribute 20, 1
   5              		.eabi_attribute 21, 1
   6              		.eabi_attribute 23, 3
   7              		.eabi_attribute 24, 1
   8              		.eabi_attribute 25, 1
   9              		.eabi_attribute 26, 1
  10              		.eabi_attribute 30, 1
  11              		.eabi_attribute 34, 1
  12              		.eabi_attribute 18, 4
  13              		.file	"GenDsp.c"
  14              		.text
  15              	.Ltext0:
  16              		.cfi_sections	.debug_frame
  17              		.section	.text.GenDsp_DrawPoint,"ax",%progbits
  18              		.align	1
  19              		.arch armv7e-m
  20              		.syntax unified
  21              		.thumb
  22              		.thumb_func
  23              		.fpu fpv4-sp-d16
  25              	GenDsp_DrawPoint:
  26              	.LVL0:
  27              	.LFB3:
  28              		.file 1 "Dsp/widget/wgt_core/GenDsp.c"
   1:Dsp/widget/wgt_core/GenDsp.c **** #include "GenDsp.h"
   2:Dsp/widget/wgt_core/GenDsp.c **** #include "pixel.h"
   3:Dsp/widget/wgt_core/GenDsp.c **** #include "oledfont.h"
   4:Dsp/widget/wgt_core/GenDsp.c **** #include <math.h>
   5:Dsp/widget/wgt_core/GenDsp.c **** 
   6:Dsp/widget/wgt_core/GenDsp.c **** #define DegToRad(x) x / (180 / M_PI)
   7:Dsp/widget/wgt_core/GenDsp.c **** 
   8:Dsp/widget/wgt_core/GenDsp.c **** /* internal variable */
   9:Dsp/widget/wgt_core/GenDsp.c **** 
  10:Dsp/widget/wgt_core/GenDsp.c **** /* internal function definition */
  11:Dsp/widget/wgt_core/GenDsp.c **** 
  12:Dsp/widget/wgt_core/GenDsp.c **** /* external draw funtion definition */
  13:Dsp/widget/wgt_core/GenDsp.c **** static void GenDsp_DrawPoint(uint8_t **map, uint8_t x, uint8_t y, bool set);
  14:Dsp/widget/wgt_core/GenDsp.c **** static void GenDsp_DrawChar(GenFont_List font, uint8_t **map, char c, uint8_t x, uint8_t y, bool co
  15:Dsp/widget/wgt_core/GenDsp.c **** static void GenDsp_DrawStr(GenFont_List font, uint8_t **map, char *str, uint8_t x, uint8_t y, bool 
  16:Dsp/widget/wgt_core/GenDsp.c **** static void GenDsp_DrawNum(GenFont_List font, uint8_t **map, uint32_t num, uint8_t x, uint8_t y, bo
  17:Dsp/widget/wgt_core/GenDsp.c **** static void GenDsp_DrawCircle(uint8_t **map, uint8_t center_x, uint8_t center_y, uint8_t radius, ui
  18:Dsp/widget/wgt_core/GenDsp.c **** static void GenDsp_DrawRectangle(uint8_t **map, uint8_t x, uint8_t y, uint8_t width, uint8_t height
  19:Dsp/widget/wgt_core/GenDsp.c **** static void GenDsp_DrawLen(uint8_t **map, uint8_t start_x, uint8_t start_y, uint8_t end_x, uint8_t 
  20:Dsp/widget/wgt_core/GenDsp.c **** static void GenDsp_DrawRad(uint8_t **map, uint8_t center_x, uint8_t center_y, uint8_t radius, uint8
  21:Dsp/widget/wgt_core/GenDsp.c **** static uint8_t GenDsp_GetStrLen(GenFont_List font, char *str);
  22:Dsp/widget/wgt_core/GenDsp.c **** 
  23:Dsp/widget/wgt_core/GenDsp.c **** GeneralDispalyProc_TypeDef GenDsp_Interface = {
  24:Dsp/widget/wgt_core/GenDsp.c ****     .draw_img = NULL,
  25:Dsp/widget/wgt_core/GenDsp.c ****     .draw_str = GenDsp_DrawStr,
  26:Dsp/widget/wgt_core/GenDsp.c ****     .draw_num = GenDsp_DrawNum,
  27:Dsp/widget/wgt_core/GenDsp.c ****     .draw_line = GenDsp_DrawLen,
  28:Dsp/widget/wgt_core/GenDsp.c ****     .str_len = GenDsp_GetStrLen,
  29:Dsp/widget/wgt_core/GenDsp.c ****     .draw_char = GenDsp_DrawChar,
  30:Dsp/widget/wgt_core/GenDsp.c ****     .draw_point = GenDsp_DrawPoint,
ARM GAS  /var/folders/lx/hc4sn_b53233_zkc9xbbl97r0000gp/T//ccrUoNPa.s 			page 2


  31:Dsp/widget/wgt_core/GenDsp.c ****     .draw_circle = GenDsp_DrawCircle,
  32:Dsp/widget/wgt_core/GenDsp.c ****     .draw_rectangle = GenDsp_DrawRectangle,
  33:Dsp/widget/wgt_core/GenDsp.c **** };
  34:Dsp/widget/wgt_core/GenDsp.c **** 
  35:Dsp/widget/wgt_core/GenDsp.c **** static void GenDsp_DrawPoint(uint8_t **map, uint8_t x, uint8_t y, bool set)
  36:Dsp/widget/wgt_core/GenDsp.c **** {
  29              		.loc 1 36 1 view -0
  30              		.cfi_startproc
  31              		@ args = 0, pretend = 0, frame = 0
  32              		@ frame_needed = 0, uses_anonymous_args = 0
  33              		@ link register save eliminated.
  37:Dsp/widget/wgt_core/GenDsp.c ****     if (set)
  34              		.loc 1 37 5 view .LVU1
  35              		.loc 1 37 8 is_stmt 0 view .LVU2
  36 0000 23B1     		cbz	r3, .L2
  38:Dsp/widget/wgt_core/GenDsp.c ****         map[y][x] = 1;
  37              		.loc 1 38 9 is_stmt 1 view .LVU3
  38              		.loc 1 38 12 is_stmt 0 view .LVU4
  39 0002 50F82230 		ldr	r3, [r0, r2, lsl #2]
  40              	.LVL1:
  41              		.loc 1 38 19 view .LVU5
  42 0006 0122     		movs	r2, #1
  43              	.LVL2:
  44              		.loc 1 38 19 view .LVU6
  45 0008 5A54     		strb	r2, [r3, r1]
  46 000a 7047     		bx	lr
  47              	.LVL3:
  48              	.L2:
  39:Dsp/widget/wgt_core/GenDsp.c ****     else
  40:Dsp/widget/wgt_core/GenDsp.c ****         map[y][x] = 0;
  49              		.loc 1 40 9 is_stmt 1 view .LVU7
  50              		.loc 1 40 12 is_stmt 0 view .LVU8
  51 000c 50F82230 		ldr	r3, [r0, r2, lsl #2]
  52              	.LVL4:
  53              		.loc 1 40 19 view .LVU9
  54 0010 0022     		movs	r2, #0
  55              	.LVL5:
  56              		.loc 1 40 19 view .LVU10
  57 0012 5A54     		strb	r2, [r3, r1]
  41:Dsp/widget/wgt_core/GenDsp.c **** }
  58              		.loc 1 41 1 view .LVU11
  59 0014 7047     		bx	lr
  60              		.cfi_endproc
  61              	.LFE3:
  63              		.section	.text.GenDsp_DrawChar,"ax",%progbits
  64              		.align	1
  65              		.syntax unified
  66              		.thumb
  67              		.thumb_func
  68              		.fpu fpv4-sp-d16
  70              	GenDsp_DrawChar:
  71              	.LVL6:
  72              	.LFB4:
  42:Dsp/widget/wgt_core/GenDsp.c **** 
  43:Dsp/widget/wgt_core/GenDsp.c **** static void GenDsp_DrawChar(GenFont_List font, uint8_t **map, char c, uint8_t x, uint8_t y, bool co
  44:Dsp/widget/wgt_core/GenDsp.c **** {
  73              		.loc 1 44 1 is_stmt 1 view -0
ARM GAS  /var/folders/lx/hc4sn_b53233_zkc9xbbl97r0000gp/T//ccrUoNPa.s 			page 3


  74              		.cfi_startproc
  75              		@ args = 8, pretend = 0, frame = 8
  76              		@ frame_needed = 0, uses_anonymous_args = 0
  77              		.loc 1 44 1 is_stmt 0 view .LVU13
  78 0000 2DE9F04F 		push	{r4, r5, r6, r7, r8, r9, r10, fp, lr}
  79              	.LCFI0:
  80              		.cfi_def_cfa_offset 36
  81              		.cfi_offset 4, -36
  82              		.cfi_offset 5, -32
  83              		.cfi_offset 6, -28
  84              		.cfi_offset 7, -24
  85              		.cfi_offset 8, -20
  86              		.cfi_offset 9, -16
  87              		.cfi_offset 10, -12
  88              		.cfi_offset 11, -8
  89              		.cfi_offset 14, -4
  90 0004 83B0     		sub	sp, sp, #12
  91              	.LCFI1:
  92              		.cfi_def_cfa_offset 48
  93 0006 0746     		mov	r7, r0
  94 0008 8A46     		mov	r10, r1
  95 000a 9846     		mov	r8, r3
  96 000c 9DF83090 		ldrb	r9, [sp, #48]	@ zero_extendqisi2
  97 0010 9DF834B0 		ldrb	fp, [sp, #52]	@ zero_extendqisi2
  45:Dsp/widget/wgt_core/GenDsp.c ****     uint8_t temp;
  98              		.loc 1 45 5 is_stmt 1 view .LVU14
  46:Dsp/widget/wgt_core/GenDsp.c ****     uint8_t y0 = y;
  99              		.loc 1 46 5 view .LVU15
 100              	.LVL7:
  47:Dsp/widget/wgt_core/GenDsp.c ****     c -= ' ';
 101              		.loc 1 47 5 view .LVU16
 102              		.loc 1 47 7 is_stmt 0 view .LVU17
 103 0014 203A     		subs	r2, r2, #32
 104              	.LVL8:
 105              		.loc 1 47 7 view .LVU18
 106 0016 D3B2     		uxtb	r3, r2
 107              	.LVL9:
 108              		.loc 1 47 7 view .LVU19
 109 0018 0193     		str	r3, [sp, #4]
 110              	.LVL10:
  48:Dsp/widget/wgt_core/GenDsp.c **** 
  49:Dsp/widget/wgt_core/GenDsp.c ****     for (uint8_t t = 0; t < font; t++)
 111              		.loc 1 49 5 is_stmt 1 view .LVU20
 112              	.LBB2:
 113              		.loc 1 49 10 view .LVU21
 114              		.loc 1 49 5 is_stmt 0 view .LVU22
 115 001a 4C46     		mov	r4, r9
 116              		.loc 1 49 18 view .LVU23
 117 001c 0023     		movs	r3, #0
 118 001e 0093     		str	r3, [sp]
 119              		.loc 1 49 5 view .LVU24
 120 0020 2EE0     		b	.L5
 121              	.LVL11:
 122              	.L18:
  50:Dsp/widget/wgt_core/GenDsp.c ****     {
  51:Dsp/widget/wgt_core/GenDsp.c ****         if (font == 12)
  52:Dsp/widget/wgt_core/GenDsp.c ****             temp = oled_asc2_1206[c][t]; //调用1206字体
ARM GAS  /var/folders/lx/hc4sn_b53233_zkc9xbbl97r0000gp/T//ccrUoNPa.s 			page 4


 123              		.loc 1 52 13 is_stmt 1 view .LVU25
 124              		.loc 1 52 18 is_stmt 0 view .LVU26
 125 0022 019B     		ldr	r3, [sp, #4]
 126 0024 03EB4303 		add	r3, r3, r3, lsl #1
 127 0028 1D4A     		ldr	r2, .L19
 128 002a 02EB8303 		add	r3, r2, r3, lsl #2
 129 002e 009A     		ldr	r2, [sp]
 130 0030 9D5C     		ldrb	r5, [r3, r2]	@ zero_extendqisi2
 131              	.LVL12:
 132              		.loc 1 52 18 view .LVU27
 133 0032 30E0     		b	.L7
 134              	.LVL13:
 135              	.L8:
 136              	.LBB3:
  53:Dsp/widget/wgt_core/GenDsp.c ****         else
  54:Dsp/widget/wgt_core/GenDsp.c ****             temp = oled_asc2_1608[c][t]; //调用1608字体
  55:Dsp/widget/wgt_core/GenDsp.c **** 
  56:Dsp/widget/wgt_core/GenDsp.c ****         for (uint8_t bit_index = 0; bit_index < FONT_WIDTH; bit_index++)
  57:Dsp/widget/wgt_core/GenDsp.c ****         {
  58:Dsp/widget/wgt_core/GenDsp.c ****             if (temp & 0x80)
  59:Dsp/widget/wgt_core/GenDsp.c ****                 GenDsp_DrawPoint(map, x, y, col_inv);
  60:Dsp/widget/wgt_core/GenDsp.c ****             else
  61:Dsp/widget/wgt_core/GenDsp.c ****                 GenDsp_DrawPoint(map, x, y, !col_inv);
 137              		.loc 1 61 17 is_stmt 1 view .LVU28
 138 0034 8BF00103 		eor	r3, fp, #1
 139 0038 2246     		mov	r2, r4
 140 003a 4146     		mov	r1, r8
 141 003c 5046     		mov	r0, r10
 142 003e FFF7FEFF 		bl	GenDsp_DrawPoint
 143              	.LVL14:
 144              	.L9:
  62:Dsp/widget/wgt_core/GenDsp.c **** 
  63:Dsp/widget/wgt_core/GenDsp.c ****             temp <<= 1;
 145              		.loc 1 63 13 view .LVU29
 146              		.loc 1 63 18 is_stmt 0 view .LVU30
 147 0042 6D00     		lsls	r5, r5, #1
 148              	.LVL15:
 149              		.loc 1 63 18 view .LVU31
 150 0044 EDB2     		uxtb	r5, r5
 151              	.LVL16:
  64:Dsp/widget/wgt_core/GenDsp.c **** 
  65:Dsp/widget/wgt_core/GenDsp.c ****             y++;
 152              		.loc 1 65 13 is_stmt 1 view .LVU32
 153              		.loc 1 65 14 is_stmt 0 view .LVU33
 154 0046 0134     		adds	r4, r4, #1
 155              	.LVL17:
 156              		.loc 1 65 14 view .LVU34
 157 0048 E4B2     		uxtb	r4, r4
 158              	.LVL18:
  66:Dsp/widget/wgt_core/GenDsp.c ****             if ((y - y0) == font)
 159              		.loc 1 66 13 is_stmt 1 view .LVU35
 160              		.loc 1 66 20 is_stmt 0 view .LVU36
 161 004a A4EB0903 		sub	r3, r4, r9
 162              		.loc 1 66 16 view .LVU37
 163 004e BB42     		cmp	r3, r7
 164 0050 0DD0     		beq	.L16
  56:Dsp/widget/wgt_core/GenDsp.c ****         {
ARM GAS  /var/folders/lx/hc4sn_b53233_zkc9xbbl97r0000gp/T//ccrUoNPa.s 			page 5


 165              		.loc 1 56 61 is_stmt 1 discriminator 2 view .LVU38
  56:Dsp/widget/wgt_core/GenDsp.c ****         {
 166              		.loc 1 56 70 is_stmt 0 discriminator 2 view .LVU39
 167 0052 0136     		adds	r6, r6, #1
 168              	.LVL19:
  56:Dsp/widget/wgt_core/GenDsp.c ****         {
 169              		.loc 1 56 70 discriminator 2 view .LVU40
 170 0054 F6B2     		uxtb	r6, r6
 171              	.LVL20:
 172              	.L12:
  56:Dsp/widget/wgt_core/GenDsp.c ****         {
 173              		.loc 1 56 37 is_stmt 1 discriminator 1 view .LVU41
  56:Dsp/widget/wgt_core/GenDsp.c ****         {
 174              		.loc 1 56 9 is_stmt 0 discriminator 1 view .LVU42
 175 0056 072E     		cmp	r6, #7
 176 0058 0ED8     		bhi	.L11
  58:Dsp/widget/wgt_core/GenDsp.c ****                 GenDsp_DrawPoint(map, x, y, col_inv);
 177              		.loc 1 58 13 is_stmt 1 view .LVU43
  58:Dsp/widget/wgt_core/GenDsp.c ****                 GenDsp_DrawPoint(map, x, y, col_inv);
 178              		.loc 1 58 16 is_stmt 0 view .LVU44
 179 005a 15F0800F 		tst	r5, #128
 180 005e E9D0     		beq	.L8
  59:Dsp/widget/wgt_core/GenDsp.c ****             else
 181              		.loc 1 59 17 is_stmt 1 view .LVU45
 182 0060 5B46     		mov	r3, fp
 183 0062 2246     		mov	r2, r4
 184 0064 4146     		mov	r1, r8
 185 0066 5046     		mov	r0, r10
 186 0068 FFF7FEFF 		bl	GenDsp_DrawPoint
 187              	.LVL21:
 188 006c E9E7     		b	.L9
 189              	.L16:
  67:Dsp/widget/wgt_core/GenDsp.c ****             {
  68:Dsp/widget/wgt_core/GenDsp.c ****                 y = y0;
 190              		.loc 1 68 17 view .LVU46
 191              	.LVL22:
  69:Dsp/widget/wgt_core/GenDsp.c ****                 x++;
 192              		.loc 1 69 17 view .LVU47
 193              		.loc 1 69 18 is_stmt 0 view .LVU48
 194 006e 08F10108 		add	r8, r8, #1
 195              	.LVL23:
 196              		.loc 1 69 18 view .LVU49
 197 0072 5FFA88F8 		uxtb	r8, r8
 198              	.LVL24:
  70:Dsp/widget/wgt_core/GenDsp.c ****                 break;
 199              		.loc 1 70 17 is_stmt 1 view .LVU50
  68:Dsp/widget/wgt_core/GenDsp.c ****                 x++;
 200              		.loc 1 68 19 is_stmt 0 view .LVU51
 201 0076 4C46     		mov	r4, r9
 202              	.LVL25:
 203              	.L11:
  68:Dsp/widget/wgt_core/GenDsp.c ****                 x++;
 204              		.loc 1 68 19 view .LVU52
 205              	.LBE3:
  49:Dsp/widget/wgt_core/GenDsp.c ****     {
 206              		.loc 1 49 35 is_stmt 1 discriminator 2 view .LVU53
  49:Dsp/widget/wgt_core/GenDsp.c ****     {
ARM GAS  /var/folders/lx/hc4sn_b53233_zkc9xbbl97r0000gp/T//ccrUoNPa.s 			page 6


 207              		.loc 1 49 36 is_stmt 0 discriminator 2 view .LVU54
 208 0078 009B     		ldr	r3, [sp]
 209 007a 0133     		adds	r3, r3, #1
 210 007c DBB2     		uxtb	r3, r3
 211 007e 0093     		str	r3, [sp]
 212              	.LVL26:
 213              	.L5:
  49:Dsp/widget/wgt_core/GenDsp.c ****     {
 214              		.loc 1 49 25 is_stmt 1 discriminator 1 view .LVU55
  49:Dsp/widget/wgt_core/GenDsp.c ****     {
 215              		.loc 1 49 5 is_stmt 0 discriminator 1 view .LVU56
 216 0080 009B     		ldr	r3, [sp]
 217 0082 BB42     		cmp	r3, r7
 218 0084 09D2     		bcs	.L17
  51:Dsp/widget/wgt_core/GenDsp.c ****             temp = oled_asc2_1206[c][t]; //调用1206字体
 219              		.loc 1 51 9 is_stmt 1 view .LVU57
  51:Dsp/widget/wgt_core/GenDsp.c ****             temp = oled_asc2_1206[c][t]; //调用1206字体
 220              		.loc 1 51 12 is_stmt 0 view .LVU58
 221 0086 0C2F     		cmp	r7, #12
 222 0088 CBD0     		beq	.L18
  54:Dsp/widget/wgt_core/GenDsp.c **** 
 223              		.loc 1 54 13 is_stmt 1 view .LVU59
  54:Dsp/widget/wgt_core/GenDsp.c **** 
 224              		.loc 1 54 18 is_stmt 0 view .LVU60
 225 008a 064B     		ldr	r3, .L19+4
 226 008c 019A     		ldr	r2, [sp, #4]
 227 008e 03EB0213 		add	r3, r3, r2, lsl #4
 228 0092 009A     		ldr	r2, [sp]
 229 0094 9D5C     		ldrb	r5, [r3, r2]	@ zero_extendqisi2
 230              	.LVL27:
 231              	.L7:
  54:Dsp/widget/wgt_core/GenDsp.c **** 
 232              		.loc 1 54 18 view .LVU61
 233              	.LBE2:
  44:Dsp/widget/wgt_core/GenDsp.c ****     uint8_t temp;
 234              		.loc 1 44 1 discriminator 1 view .LVU62
 235 0096 0026     		movs	r6, #0
 236 0098 DDE7     		b	.L12
 237              	.LVL28:
 238              	.L17:
  71:Dsp/widget/wgt_core/GenDsp.c ****             }
  72:Dsp/widget/wgt_core/GenDsp.c ****         }
  73:Dsp/widget/wgt_core/GenDsp.c ****     }
  74:Dsp/widget/wgt_core/GenDsp.c **** }
 239              		.loc 1 74 1 view .LVU63
 240 009a 03B0     		add	sp, sp, #12
 241              	.LCFI2:
 242              		.cfi_def_cfa_offset 36
 243              	.LVL29:
 244              		.loc 1 74 1 view .LVU64
 245              		@ sp needed
 246 009c BDE8F08F 		pop	{r4, r5, r6, r7, r8, r9, r10, fp, pc}
 247              	.LVL30:
 248              	.L20:
 249              		.loc 1 74 1 view .LVU65
 250              		.align	2
 251              	.L19:
ARM GAS  /var/folders/lx/hc4sn_b53233_zkc9xbbl97r0000gp/T//ccrUoNPa.s 			page 7


 252 00a0 00000000 		.word	oled_asc2_1206
 253 00a4 00000000 		.word	oled_asc2_1608
 254              		.cfi_endproc
 255              	.LFE4:
 257              		.section	.text.GenDsp_DrawStr,"ax",%progbits
 258              		.align	1
 259              		.syntax unified
 260              		.thumb
 261              		.thumb_func
 262              		.fpu fpv4-sp-d16
 264              	GenDsp_DrawStr:
 265              	.LVL31:
 266              	.LFB5:
  75:Dsp/widget/wgt_core/GenDsp.c **** 
  76:Dsp/widget/wgt_core/GenDsp.c **** static void GenDsp_DrawStr(GenFont_List font, uint8_t **map, char *str, uint8_t x, uint8_t y, bool 
  77:Dsp/widget/wgt_core/GenDsp.c **** {
 267              		.loc 1 77 1 is_stmt 1 view -0
 268              		.cfi_startproc
 269              		@ args = 8, pretend = 0, frame = 0
 270              		@ frame_needed = 0, uses_anonymous_args = 0
 271              		.loc 1 77 1 is_stmt 0 view .LVU67
 272 0000 2DE9F043 		push	{r4, r5, r6, r7, r8, r9, lr}
 273              	.LCFI3:
 274              		.cfi_def_cfa_offset 28
 275              		.cfi_offset 4, -28
 276              		.cfi_offset 5, -24
 277              		.cfi_offset 6, -20
 278              		.cfi_offset 7, -16
 279              		.cfi_offset 8, -12
 280              		.cfi_offset 9, -8
 281              		.cfi_offset 14, -4
 282 0004 83B0     		sub	sp, sp, #12
 283              	.LCFI4:
 284              		.cfi_def_cfa_offset 40
 285 0006 0746     		mov	r7, r0
 286 0008 0E46     		mov	r6, r1
 287 000a 1546     		mov	r5, r2
 288 000c 1C46     		mov	r4, r3
 289 000e 9DF82890 		ldrb	r9, [sp, #40]	@ zero_extendqisi2
 290 0012 9DF82C80 		ldrb	r8, [sp, #44]	@ zero_extendqisi2
  78:Dsp/widget/wgt_core/GenDsp.c ****     while (*str != '\0')
 291              		.loc 1 78 5 is_stmt 1 view .LVU68
 292              		.loc 1 78 11 is_stmt 0 view .LVU69
 293 0016 0BE0     		b	.L22
 294              	.LVL32:
 295              	.L23:
  79:Dsp/widget/wgt_core/GenDsp.c ****     {
  80:Dsp/widget/wgt_core/GenDsp.c ****         GenDsp_DrawChar(font, map, *str, x, y, col_inv);
 296              		.loc 1 80 9 is_stmt 1 view .LVU70
 297 0018 CDF80480 		str	r8, [sp, #4]
 298 001c CDF80090 		str	r9, [sp]
 299 0020 2346     		mov	r3, r4
 300 0022 3146     		mov	r1, r6
 301 0024 3846     		mov	r0, r7
 302 0026 FFF7FEFF 		bl	GenDsp_DrawChar
 303              	.LVL33:
  81:Dsp/widget/wgt_core/GenDsp.c ****         x += FONT_WIDTH;
ARM GAS  /var/folders/lx/hc4sn_b53233_zkc9xbbl97r0000gp/T//ccrUoNPa.s 			page 8


 304              		.loc 1 81 9 view .LVU71
 305              		.loc 1 81 11 is_stmt 0 view .LVU72
 306 002a 0834     		adds	r4, r4, #8
 307              	.LVL34:
 308              		.loc 1 81 11 view .LVU73
 309 002c E4B2     		uxtb	r4, r4
 310              	.LVL35:
  82:Dsp/widget/wgt_core/GenDsp.c ****         str++;
 311              		.loc 1 82 9 is_stmt 1 view .LVU74
 312              		.loc 1 82 12 is_stmt 0 view .LVU75
 313 002e 0135     		adds	r5, r5, #1
 314              	.LVL36:
 315              	.L22:
  78:Dsp/widget/wgt_core/GenDsp.c ****     {
 316              		.loc 1 78 11 is_stmt 1 view .LVU76
  78:Dsp/widget/wgt_core/GenDsp.c ****     {
 317              		.loc 1 78 12 is_stmt 0 view .LVU77
 318 0030 2A78     		ldrb	r2, [r5]	@ zero_extendqisi2
  78:Dsp/widget/wgt_core/GenDsp.c ****     {
 319              		.loc 1 78 11 view .LVU78
 320 0032 002A     		cmp	r2, #0
 321 0034 F0D1     		bne	.L23
  83:Dsp/widget/wgt_core/GenDsp.c ****     }
  84:Dsp/widget/wgt_core/GenDsp.c **** }
 322              		.loc 1 84 1 view .LVU79
 323 0036 03B0     		add	sp, sp, #12
 324              	.LCFI5:
 325              		.cfi_def_cfa_offset 28
 326              		@ sp needed
 327 0038 BDE8F083 		pop	{r4, r5, r6, r7, r8, r9, pc}
 328              		.loc 1 84 1 view .LVU80
 329              		.cfi_endproc
 330              	.LFE5:
 332              		.section	.text.GenDsp_GetStrLen,"ax",%progbits
 333              		.align	1
 334              		.syntax unified
 335              		.thumb
 336              		.thumb_func
 337              		.fpu fpv4-sp-d16
 339              	GenDsp_GetStrLen:
 340              	.LVL37:
 341              	.LFB7:
  85:Dsp/widget/wgt_core/GenDsp.c **** 
  86:Dsp/widget/wgt_core/GenDsp.c **** static void GenDsp_DrawNum(GenFont_List font, uint8_t **map, uint32_t num, uint8_t x, uint8_t y, bo
  87:Dsp/widget/wgt_core/GenDsp.c **** {
  88:Dsp/widget/wgt_core/GenDsp.c ****     char num_buff[MAX_DSP_NUM_LEN];
  89:Dsp/widget/wgt_core/GenDsp.c **** 
  90:Dsp/widget/wgt_core/GenDsp.c ****     sprintf(num_buff, "%d", num);
  91:Dsp/widget/wgt_core/GenDsp.c ****     GenDsp_DrawStr(font, map, num_buff, x, y, col_inv);
  92:Dsp/widget/wgt_core/GenDsp.c **** }
  93:Dsp/widget/wgt_core/GenDsp.c **** 
  94:Dsp/widget/wgt_core/GenDsp.c **** static uint8_t GenDsp_GetStrLen(GenFont_List font, char *str)
  95:Dsp/widget/wgt_core/GenDsp.c **** {
 342              		.loc 1 95 1 is_stmt 1 view -0
 343              		.cfi_startproc
 344              		@ args = 0, pretend = 0, frame = 0
 345              		@ frame_needed = 0, uses_anonymous_args = 0
ARM GAS  /var/folders/lx/hc4sn_b53233_zkc9xbbl97r0000gp/T//ccrUoNPa.s 			page 9


 346              		@ link register save eliminated.
  96:Dsp/widget/wgt_core/GenDsp.c ****     uint8_t len = 0;
 347              		.loc 1 96 5 view .LVU82
  97:Dsp/widget/wgt_core/GenDsp.c **** 
  98:Dsp/widget/wgt_core/GenDsp.c ****     while (*str != '\0')
 348              		.loc 1 98 5 view .LVU83
  96:Dsp/widget/wgt_core/GenDsp.c ****     uint8_t len = 0;
 349              		.loc 1 96 13 is_stmt 0 view .LVU84
 350 0000 0020     		movs	r0, #0
 351              	.LVL38:
 352              		.loc 1 98 11 view .LVU85
 353 0002 02E0     		b	.L26
 354              	.LVL39:
 355              	.L27:
  99:Dsp/widget/wgt_core/GenDsp.c ****     {
 100:Dsp/widget/wgt_core/GenDsp.c ****         len += FONT_WIDTH;
 356              		.loc 1 100 9 is_stmt 1 view .LVU86
 357              		.loc 1 100 13 is_stmt 0 view .LVU87
 358 0004 0830     		adds	r0, r0, #8
 359              	.LVL40:
 360              		.loc 1 100 13 view .LVU88
 361 0006 C0B2     		uxtb	r0, r0
 362              	.LVL41:
 101:Dsp/widget/wgt_core/GenDsp.c ****         str++;
 363              		.loc 1 101 9 is_stmt 1 view .LVU89
 364              		.loc 1 101 12 is_stmt 0 view .LVU90
 365 0008 0131     		adds	r1, r1, #1
 366              	.LVL42:
 367              	.L26:
  98:Dsp/widget/wgt_core/GenDsp.c ****     {
 368              		.loc 1 98 11 is_stmt 1 view .LVU91
  98:Dsp/widget/wgt_core/GenDsp.c ****     {
 369              		.loc 1 98 12 is_stmt 0 view .LVU92
 370 000a 0B78     		ldrb	r3, [r1]	@ zero_extendqisi2
  98:Dsp/widget/wgt_core/GenDsp.c ****     {
 371              		.loc 1 98 11 view .LVU93
 372 000c 002B     		cmp	r3, #0
 373 000e F9D1     		bne	.L27
 102:Dsp/widget/wgt_core/GenDsp.c ****     }
 103:Dsp/widget/wgt_core/GenDsp.c **** 
 104:Dsp/widget/wgt_core/GenDsp.c ****     return len;
 374              		.loc 1 104 5 is_stmt 1 view .LVU94
 105:Dsp/widget/wgt_core/GenDsp.c **** }
 375              		.loc 1 105 1 is_stmt 0 view .LVU95
 376 0010 7047     		bx	lr
 377              		.cfi_endproc
 378              	.LFE7:
 380              		.section	.text.GenDsp_DrawLen,"ax",%progbits
 381              		.align	1
 382              		.syntax unified
 383              		.thumb
 384              		.thumb_func
 385              		.fpu fpv4-sp-d16
 387              	GenDsp_DrawLen:
 388              	.LVL43:
 389              	.LFB8:
 106:Dsp/widget/wgt_core/GenDsp.c **** 
ARM GAS  /var/folders/lx/hc4sn_b53233_zkc9xbbl97r0000gp/T//ccrUoNPa.s 			page 10


 107:Dsp/widget/wgt_core/GenDsp.c **** static void GenDsp_DrawLen(uint8_t **map, uint8_t start_x, uint8_t start_y, uint8_t end_x, uint8_t 
 108:Dsp/widget/wgt_core/GenDsp.c **** {
 390              		.loc 1 108 1 is_stmt 1 view -0
 391              		.cfi_startproc
 392              		@ args = 8, pretend = 0, frame = 16
 393              		@ frame_needed = 0, uses_anonymous_args = 0
 394              		.loc 1 108 1 is_stmt 0 view .LVU97
 395 0000 2DE9F04F 		push	{r4, r5, r6, r7, r8, r9, r10, fp, lr}
 396              	.LCFI6:
 397              		.cfi_def_cfa_offset 36
 398              		.cfi_offset 4, -36
 399              		.cfi_offset 5, -32
 400              		.cfi_offset 6, -28
 401              		.cfi_offset 7, -24
 402              		.cfi_offset 8, -20
 403              		.cfi_offset 9, -16
 404              		.cfi_offset 10, -12
 405              		.cfi_offset 11, -8
 406              		.cfi_offset 14, -4
 407 0004 85B0     		sub	sp, sp, #20
 408              	.LCFI7:
 409              		.cfi_def_cfa_offset 56
 410 0006 0190     		str	r0, [sp, #4]
 411 0008 8846     		mov	r8, r1
 412 000a 9146     		mov	r9, r2
 413 000c 9DF83820 		ldrb	r2, [sp, #56]	@ zero_extendqisi2
 414              	.LVL44:
 109:Dsp/widget/wgt_core/GenDsp.c ****     int8_t xerr = 0;
 415              		.loc 1 109 5 is_stmt 1 view .LVU98
 110:Dsp/widget/wgt_core/GenDsp.c ****     int8_t yerr = 0;
 416              		.loc 1 110 5 view .LVU99
 111:Dsp/widget/wgt_core/GenDsp.c ****     int8_t delta_x = end_x - start_x;
 417              		.loc 1 111 5 view .LVU100
 418              		.loc 1 111 28 is_stmt 0 view .LVU101
 419 0010 A3EB010A 		sub	r10, r3, r1
 420              		.loc 1 111 12 view .LVU102
 421 0014 4FFA8AFA 		sxtb	r10, r10
 422              	.LVL45:
 112:Dsp/widget/wgt_core/GenDsp.c ****     int8_t delta_y = end_y - start_y;
 423              		.loc 1 112 5 is_stmt 1 view .LVU103
 424              		.loc 1 112 28 is_stmt 0 view .LVU104
 425 0018 A2EB090B 		sub	fp, r2, r9
 426              		.loc 1 112 12 view .LVU105
 427 001c 4FFA8BFB 		sxtb	fp, fp
 428              	.LVL46:
 113:Dsp/widget/wgt_core/GenDsp.c ****     int16_t distance;
 429              		.loc 1 113 5 is_stmt 1 view .LVU106
 114:Dsp/widget/wgt_core/GenDsp.c ****     uint8_t uRow = start_x;
 430              		.loc 1 114 5 view .LVU107
 115:Dsp/widget/wgt_core/GenDsp.c ****     uint8_t uCol = start_y;
 431              		.loc 1 115 5 view .LVU108
 116:Dsp/widget/wgt_core/GenDsp.c **** 
 117:Dsp/widget/wgt_core/GenDsp.c ****     int8_t incx, incy;
 432              		.loc 1 117 5 view .LVU109
 118:Dsp/widget/wgt_core/GenDsp.c **** 
 119:Dsp/widget/wgt_core/GenDsp.c ****     if (delta_x > 0)
 433              		.loc 1 119 5 view .LVU110
ARM GAS  /var/folders/lx/hc4sn_b53233_zkc9xbbl97r0000gp/T//ccrUoNPa.s 			page 11


 434              		.loc 1 119 8 is_stmt 0 view .LVU111
 435 0020 BAF1000F 		cmp	r10, #0
 436 0024 0EDD     		ble	.L42
 120:Dsp/widget/wgt_core/GenDsp.c ****     {
 121:Dsp/widget/wgt_core/GenDsp.c ****         incx = 1;
 437              		.loc 1 121 14 view .LVU112
 438 0026 0123     		movs	r3, #1
 439              	.LVL47:
 440              		.loc 1 121 14 view .LVU113
 441 0028 0293     		str	r3, [sp, #8]
 442              	.L29:
 443              	.LVL48:
 122:Dsp/widget/wgt_core/GenDsp.c ****     }
 123:Dsp/widget/wgt_core/GenDsp.c ****     else if (delta_x == 0)
 124:Dsp/widget/wgt_core/GenDsp.c ****     {
 125:Dsp/widget/wgt_core/GenDsp.c ****         incx = 0;
 126:Dsp/widget/wgt_core/GenDsp.c ****     }
 127:Dsp/widget/wgt_core/GenDsp.c ****     else
 128:Dsp/widget/wgt_core/GenDsp.c ****     {
 129:Dsp/widget/wgt_core/GenDsp.c ****         incx = -1;
 130:Dsp/widget/wgt_core/GenDsp.c ****         delta_x = -delta_x;
 131:Dsp/widget/wgt_core/GenDsp.c ****     }
 132:Dsp/widget/wgt_core/GenDsp.c **** 
 133:Dsp/widget/wgt_core/GenDsp.c ****     if (delta_y > 0)
 444              		.loc 1 133 5 is_stmt 1 view .LVU114
 445              		.loc 1 133 8 is_stmt 0 view .LVU115
 446 002a BBF1000F 		cmp	fp, #0
 447 002e 16DD     		ble	.L43
 134:Dsp/widget/wgt_core/GenDsp.c ****     {
 135:Dsp/widget/wgt_core/GenDsp.c ****         incy = 1;
 448              		.loc 1 135 14 view .LVU116
 449 0030 0123     		movs	r3, #1
 450 0032 0393     		str	r3, [sp, #12]
 451              	.L30:
 452              	.LVL49:
 136:Dsp/widget/wgt_core/GenDsp.c ****     }
 137:Dsp/widget/wgt_core/GenDsp.c ****     else if (delta_y == 0)
 138:Dsp/widget/wgt_core/GenDsp.c ****     {
 139:Dsp/widget/wgt_core/GenDsp.c ****         incy = 0;
 140:Dsp/widget/wgt_core/GenDsp.c ****     }
 141:Dsp/widget/wgt_core/GenDsp.c ****     else
 142:Dsp/widget/wgt_core/GenDsp.c ****     {
 143:Dsp/widget/wgt_core/GenDsp.c ****         incy = -1;
 144:Dsp/widget/wgt_core/GenDsp.c ****         delta_y = -delta_y;
 145:Dsp/widget/wgt_core/GenDsp.c ****     }
 146:Dsp/widget/wgt_core/GenDsp.c **** 
 147:Dsp/widget/wgt_core/GenDsp.c ****     if (delta_x > delta_y)
 453              		.loc 1 147 5 is_stmt 1 view .LVU117
 454              		.loc 1 147 8 is_stmt 0 view .LVU118
 455 0034 DA45     		cmp	r10, fp
 456 0036 20DD     		ble	.L31
 148:Dsp/widget/wgt_core/GenDsp.c ****     {
 149:Dsp/widget/wgt_core/GenDsp.c ****         distance = delta_x;
 457              		.loc 1 149 9 is_stmt 1 view .LVU119
 458              		.loc 1 149 18 is_stmt 0 view .LVU120
 459 0038 0FFA8AF7 		sxth	r7, r10
 460              	.LVL50:
ARM GAS  /var/folders/lx/hc4sn_b53233_zkc9xbbl97r0000gp/T//ccrUoNPa.s 			page 12


 461              	.L32:
 150:Dsp/widget/wgt_core/GenDsp.c ****     }
 151:Dsp/widget/wgt_core/GenDsp.c ****     else
 152:Dsp/widget/wgt_core/GenDsp.c ****     {
 153:Dsp/widget/wgt_core/GenDsp.c ****         distance = delta_y;
 154:Dsp/widget/wgt_core/GenDsp.c ****     }
 155:Dsp/widget/wgt_core/GenDsp.c **** 
 156:Dsp/widget/wgt_core/GenDsp.c ****     for (uint8_t t = 0; t < distance; t++)
 462              		.loc 1 156 5 is_stmt 1 view .LVU121
 463              	.LBB4:
 464              		.loc 1 156 10 view .LVU122
 465              		.loc 1 156 18 is_stmt 0 view .LVU123
 466 003c 0026     		movs	r6, #0
 467              	.LBE4:
 110:Dsp/widget/wgt_core/GenDsp.c ****     int8_t delta_x = end_x - start_x;
 468              		.loc 1 110 12 view .LVU124
 469 003e 3546     		mov	r5, r6
 109:Dsp/widget/wgt_core/GenDsp.c ****     int8_t yerr = 0;
 470              		.loc 1 109 12 view .LVU125
 471 0040 3446     		mov	r4, r6
 472              	.LBB5:
 473              		.loc 1 156 5 view .LVU126
 474 0042 1FE0     		b	.L33
 475              	.LVL51:
 476              	.L42:
 477              		.loc 1 156 5 view .LVU127
 478              	.LBE5:
 123:Dsp/widget/wgt_core/GenDsp.c ****     {
 479              		.loc 1 123 10 is_stmt 1 view .LVU128
 123:Dsp/widget/wgt_core/GenDsp.c ****     {
 480              		.loc 1 123 13 is_stmt 0 view .LVU129
 481 0044 BAF1000F 		cmp	r10, #0
 482 0048 06D0     		beq	.L38
 129:Dsp/widget/wgt_core/GenDsp.c ****         delta_x = -delta_x;
 483              		.loc 1 129 9 is_stmt 1 view .LVU130
 484              	.LVL52:
 130:Dsp/widget/wgt_core/GenDsp.c ****     }
 485              		.loc 1 130 9 view .LVU131
 130:Dsp/widget/wgt_core/GenDsp.c ****     }
 486              		.loc 1 130 17 is_stmt 0 view .LVU132
 487 004a CB1A     		subs	r3, r1, r3
 488              	.LVL53:
 130:Dsp/widget/wgt_core/GenDsp.c ****     }
 489              		.loc 1 130 17 view .LVU133
 490 004c 4FFA83FA 		sxtb	r10, r3
 491              	.LVL54:
 129:Dsp/widget/wgt_core/GenDsp.c ****         delta_x = -delta_x;
 492              		.loc 1 129 14 view .LVU134
 493 0050 4FF0FF33 		mov	r3, #-1
 494 0054 0293     		str	r3, [sp, #8]
 495 0056 E8E7     		b	.L29
 496              	.LVL55:
 497              	.L38:
 125:Dsp/widget/wgt_core/GenDsp.c ****     }
 498              		.loc 1 125 14 view .LVU135
 499 0058 CDF808A0 		str	r10, [sp, #8]
 500 005c E5E7     		b	.L29
ARM GAS  /var/folders/lx/hc4sn_b53233_zkc9xbbl97r0000gp/T//ccrUoNPa.s 			page 13


 501              	.LVL56:
 502              	.L43:
 137:Dsp/widget/wgt_core/GenDsp.c ****     {
 503              		.loc 1 137 10 is_stmt 1 view .LVU136
 137:Dsp/widget/wgt_core/GenDsp.c ****     {
 504              		.loc 1 137 13 is_stmt 0 view .LVU137
 505 005e BBF1000F 		cmp	fp, #0
 506 0062 07D0     		beq	.L40
 143:Dsp/widget/wgt_core/GenDsp.c ****         delta_y = -delta_y;
 507              		.loc 1 143 9 is_stmt 1 view .LVU138
 508              	.LVL57:
 144:Dsp/widget/wgt_core/GenDsp.c ****     }
 509              		.loc 1 144 9 view .LVU139
 144:Dsp/widget/wgt_core/GenDsp.c ****     }
 510              		.loc 1 144 17 is_stmt 0 view .LVU140
 511 0064 A9EB0202 		sub	r2, r9, r2
 512 0068 4FFA82FB 		sxtb	fp, r2
 513              	.LVL58:
 143:Dsp/widget/wgt_core/GenDsp.c ****         delta_y = -delta_y;
 514              		.loc 1 143 14 view .LVU141
 515 006c 4FF0FF33 		mov	r3, #-1
 516 0070 0393     		str	r3, [sp, #12]
 517 0072 DFE7     		b	.L30
 518              	.LVL59:
 519              	.L40:
 139:Dsp/widget/wgt_core/GenDsp.c ****     }
 520              		.loc 1 139 14 view .LVU142
 521 0074 CDF80CB0 		str	fp, [sp, #12]
 522 0078 DCE7     		b	.L30
 523              	.LVL60:
 524              	.L31:
 153:Dsp/widget/wgt_core/GenDsp.c ****     }
 525              		.loc 1 153 9 is_stmt 1 view .LVU143
 153:Dsp/widget/wgt_core/GenDsp.c ****     }
 526              		.loc 1 153 18 is_stmt 0 view .LVU144
 527 007a 0FFA8BF7 		sxth	r7, fp
 528              	.LVL61:
 153:Dsp/widget/wgt_core/GenDsp.c ****     }
 529              		.loc 1 153 18 view .LVU145
 530 007e DDE7     		b	.L32
 531              	.LVL62:
 532              	.L35:
 533              	.LBB6:
 534              		.loc 1 156 39 is_stmt 1 discriminator 2 view .LVU146
 535              		.loc 1 156 40 is_stmt 0 discriminator 2 view .LVU147
 536 0080 0136     		adds	r6, r6, #1
 537              	.LVL63:
 538              		.loc 1 156 40 discriminator 2 view .LVU148
 539 0082 F6B2     		uxtb	r6, r6
 540              	.LVL64:
 541              	.L33:
 542              		.loc 1 156 25 is_stmt 1 discriminator 1 view .LVU149
 543              		.loc 1 156 5 is_stmt 0 discriminator 1 view .LVU150
 544 0084 BE42     		cmp	r6, r7
 545 0086 1EDA     		bge	.L44
 157:Dsp/widget/wgt_core/GenDsp.c ****     {
 158:Dsp/widget/wgt_core/GenDsp.c ****         GenDsp_DrawPoint(map, uRow, uCol, true);
ARM GAS  /var/folders/lx/hc4sn_b53233_zkc9xbbl97r0000gp/T//ccrUoNPa.s 			page 14


 546              		.loc 1 158 9 is_stmt 1 view .LVU151
 547 0088 0123     		movs	r3, #1
 548 008a 4A46     		mov	r2, r9
 549 008c 4146     		mov	r1, r8
 550 008e 0198     		ldr	r0, [sp, #4]
 551 0090 FFF7FEFF 		bl	GenDsp_DrawPoint
 552              	.LVL65:
 159:Dsp/widget/wgt_core/GenDsp.c **** 
 160:Dsp/widget/wgt_core/GenDsp.c ****         xerr += delta_x;
 553              		.loc 1 160 9 view .LVU152
 554              		.loc 1 160 14 is_stmt 0 view .LVU153
 555 0094 5444     		add	r4, r4, r10
 556              	.LVL66:
 557              		.loc 1 160 14 view .LVU154
 558 0096 E2B2     		uxtb	r2, r4
 559 0098 64B2     		sxtb	r4, r4
 560              	.LVL67:
 161:Dsp/widget/wgt_core/GenDsp.c ****         yerr += delta_y;
 561              		.loc 1 161 9 is_stmt 1 view .LVU155
 562              		.loc 1 161 14 is_stmt 0 view .LVU156
 563 009a 5D44     		add	r5, r5, fp
 564              	.LVL68:
 565              		.loc 1 161 14 view .LVU157
 566 009c EBB2     		uxtb	r3, r5
 567 009e 6DB2     		sxtb	r5, r5
 568              	.LVL69:
 162:Dsp/widget/wgt_core/GenDsp.c **** 
 163:Dsp/widget/wgt_core/GenDsp.c ****         if (xerr >= distance)
 569              		.loc 1 163 9 is_stmt 1 view .LVU158
 570              		.loc 1 163 18 is_stmt 0 view .LVU159
 571 00a0 21B2     		sxth	r1, r4
 572              		.loc 1 163 12 view .LVU160
 573 00a2 B942     		cmp	r1, r7
 574 00a4 05DB     		blt	.L34
 164:Dsp/widget/wgt_core/GenDsp.c ****         {
 165:Dsp/widget/wgt_core/GenDsp.c ****             xerr -= distance;
 575              		.loc 1 165 13 is_stmt 1 view .LVU161
 576              		.loc 1 165 18 is_stmt 0 view .LVU162
 577 00a6 D21B     		subs	r2, r2, r7
 578 00a8 54B2     		sxtb	r4, r2
 579              	.LVL70:
 166:Dsp/widget/wgt_core/GenDsp.c ****             uRow += incx;
 580              		.loc 1 166 13 is_stmt 1 view .LVU163
 581              		.loc 1 166 18 is_stmt 0 view .LVU164
 582 00aa 029A     		ldr	r2, [sp, #8]
 583 00ac 9044     		add	r8, r8, r2
 584              	.LVL71:
 585              		.loc 1 166 18 view .LVU165
 586 00ae 5FFA88F8 		uxtb	r8, r8
 587              	.LVL72:
 588              	.L34:
 167:Dsp/widget/wgt_core/GenDsp.c ****         }
 168:Dsp/widget/wgt_core/GenDsp.c ****         if (yerr >= distance)
 589              		.loc 1 168 9 is_stmt 1 view .LVU166
 590              		.loc 1 168 18 is_stmt 0 view .LVU167
 591 00b2 2AB2     		sxth	r2, r5
 592              		.loc 1 168 12 view .LVU168
ARM GAS  /var/folders/lx/hc4sn_b53233_zkc9xbbl97r0000gp/T//ccrUoNPa.s 			page 15


 593 00b4 BA42     		cmp	r2, r7
 594 00b6 E3DB     		blt	.L35
 169:Dsp/widget/wgt_core/GenDsp.c ****         {
 170:Dsp/widget/wgt_core/GenDsp.c ****             yerr -= distance;
 595              		.loc 1 170 13 is_stmt 1 view .LVU169
 596              		.loc 1 170 18 is_stmt 0 view .LVU170
 597 00b8 DB1B     		subs	r3, r3, r7
 598 00ba 5DB2     		sxtb	r5, r3
 599              	.LVL73:
 171:Dsp/widget/wgt_core/GenDsp.c ****             uCol += incy;
 600              		.loc 1 171 13 is_stmt 1 view .LVU171
 601              		.loc 1 171 18 is_stmt 0 view .LVU172
 602 00bc 039B     		ldr	r3, [sp, #12]
 603 00be 9944     		add	r9, r9, r3
 604              	.LVL74:
 605              		.loc 1 171 18 view .LVU173
 606 00c0 5FFA89F9 		uxtb	r9, r9
 607              	.LVL75:
 608              		.loc 1 171 18 view .LVU174
 609 00c4 DCE7     		b	.L35
 610              	.L44:
 611              		.loc 1 171 18 view .LVU175
 612              	.LBE6:
 172:Dsp/widget/wgt_core/GenDsp.c ****         }
 173:Dsp/widget/wgt_core/GenDsp.c ****     }
 174:Dsp/widget/wgt_core/GenDsp.c **** }
 613              		.loc 1 174 1 view .LVU176
 614 00c6 05B0     		add	sp, sp, #20
 615              	.LCFI8:
 616              		.cfi_def_cfa_offset 36
 617              		@ sp needed
 618 00c8 BDE8F08F 		pop	{r4, r5, r6, r7, r8, r9, r10, fp, pc}
 619              		.loc 1 174 1 view .LVU177
 620              		.cfi_endproc
 621              	.LFE8:
 623              		.section	.text.GenDsp_DrawRectangle,"ax",%progbits
 624              		.align	1
 625              		.syntax unified
 626              		.thumb
 627              		.thumb_func
 628              		.fpu fpv4-sp-d16
 630              	GenDsp_DrawRectangle:
 631              	.LVL76:
 632              	.LFB11:
 175:Dsp/widget/wgt_core/GenDsp.c **** 
 176:Dsp/widget/wgt_core/GenDsp.c **** static void GenDsp_DrawRad(uint8_t **map, uint8_t center_x, uint8_t center_y, uint8_t radius, uint8
 177:Dsp/widget/wgt_core/GenDsp.c **** {
 178:Dsp/widget/wgt_core/GenDsp.c ****     float angle_rad = DegToRad(angle);
 179:Dsp/widget/wgt_core/GenDsp.c ****     uint8_t x_tmp = 0;
 180:Dsp/widget/wgt_core/GenDsp.c ****     uint8_t y_tmp = 0;
 181:Dsp/widget/wgt_core/GenDsp.c **** 
 182:Dsp/widget/wgt_core/GenDsp.c ****     if (angle < 0)
 183:Dsp/widget/wgt_core/GenDsp.c ****         angle += 360;
 184:Dsp/widget/wgt_core/GenDsp.c **** 
 185:Dsp/widget/wgt_core/GenDsp.c ****     for (uint8_t angle_tmp = 0; angle_tmp < angle; angle_tmp++)
 186:Dsp/widget/wgt_core/GenDsp.c ****     {
 187:Dsp/widget/wgt_core/GenDsp.c ****         x_tmp = center_x + sin(angle_rad) * radius;
ARM GAS  /var/folders/lx/hc4sn_b53233_zkc9xbbl97r0000gp/T//ccrUoNPa.s 			page 16


 188:Dsp/widget/wgt_core/GenDsp.c ****         y_tmp = center_y - cos(angle_rad) * radius;
 189:Dsp/widget/wgt_core/GenDsp.c **** 
 190:Dsp/widget/wgt_core/GenDsp.c ****         GenDsp_DrawPoint(map, x_tmp, y_tmp, true);
 191:Dsp/widget/wgt_core/GenDsp.c ****     }
 192:Dsp/widget/wgt_core/GenDsp.c **** }
 193:Dsp/widget/wgt_core/GenDsp.c **** 
 194:Dsp/widget/wgt_core/GenDsp.c **** static void GenDsp_DrawCircle(uint8_t **map, uint8_t center_x, uint8_t center_y, uint8_t radius, ui
 195:Dsp/widget/wgt_core/GenDsp.c **** {
 196:Dsp/widget/wgt_core/GenDsp.c ****     GenDsp_DrawRad(map, center_x, center_y, radius, line_size, 360);
 197:Dsp/widget/wgt_core/GenDsp.c **** }
 198:Dsp/widget/wgt_core/GenDsp.c **** 
 199:Dsp/widget/wgt_core/GenDsp.c **** static void GenDsp_DrawRectangle(uint8_t **map, uint8_t x, uint8_t y, uint8_t width, uint8_t height
 200:Dsp/widget/wgt_core/GenDsp.c **** {
 633              		.loc 1 200 1 is_stmt 1 view -0
 634              		.cfi_startproc
 635              		@ args = 8, pretend = 0, frame = 0
 636              		@ frame_needed = 0, uses_anonymous_args = 0
 637              		.loc 1 200 1 is_stmt 0 view .LVU179
 638 0000 2DE9F043 		push	{r4, r5, r6, r7, r8, r9, lr}
 639              	.LCFI9:
 640              		.cfi_def_cfa_offset 28
 641              		.cfi_offset 4, -28
 642              		.cfi_offset 5, -24
 643              		.cfi_offset 6, -20
 644              		.cfi_offset 7, -16
 645              		.cfi_offset 8, -12
 646              		.cfi_offset 9, -8
 647              		.cfi_offset 14, -4
 648 0004 83B0     		sub	sp, sp, #12
 649              	.LCFI10:
 650              		.cfi_def_cfa_offset 40
 651 0006 8046     		mov	r8, r0
 652 0008 0E46     		mov	r6, r1
 653 000a 1746     		mov	r7, r2
 654 000c 9DF82C90 		ldrb	r9, [sp, #44]	@ zero_extendqisi2
 201:Dsp/widget/wgt_core/GenDsp.c ****     uint8_t x_tmp = x + width - 1;
 655              		.loc 1 201 5 is_stmt 1 view .LVU180
 656              		.loc 1 201 23 is_stmt 0 view .LVU181
 657 0010 CD18     		adds	r5, r1, r3
 658 0012 EDB2     		uxtb	r5, r5
 659              		.loc 1 201 13 view .LVU182
 660 0014 013D     		subs	r5, r5, #1
 661 0016 EDB2     		uxtb	r5, r5
 662              	.LVL77:
 202:Dsp/widget/wgt_core/GenDsp.c ****     uint8_t y_tmp = y + height - 1;
 663              		.loc 1 202 5 is_stmt 1 view .LVU183
 664              		.loc 1 202 23 is_stmt 0 view .LVU184
 665 0018 9DF82840 		ldrb	r4, [sp, #40]	@ zero_extendqisi2
 666 001c 1444     		add	r4, r4, r2
 667 001e E4B2     		uxtb	r4, r4
 668              		.loc 1 202 13 view .LVU185
 669 0020 013C     		subs	r4, r4, #1
 670 0022 E4B2     		uxtb	r4, r4
 671              	.LVL78:
 203:Dsp/widget/wgt_core/GenDsp.c **** 
 204:Dsp/widget/wgt_core/GenDsp.c ****     GenDsp_DrawLen(map, x, y, x_tmp, y, line_size);
 672              		.loc 1 204 5 is_stmt 1 view .LVU186
ARM GAS  /var/folders/lx/hc4sn_b53233_zkc9xbbl97r0000gp/T//ccrUoNPa.s 			page 17


 673 0024 CDF80490 		str	r9, [sp, #4]
 674 0028 0092     		str	r2, [sp]
 675 002a 2B46     		mov	r3, r5
 676              	.LVL79:
 677              		.loc 1 204 5 is_stmt 0 view .LVU187
 678 002c FFF7FEFF 		bl	GenDsp_DrawLen
 679              	.LVL80:
 205:Dsp/widget/wgt_core/GenDsp.c ****     GenDsp_DrawLen(map, x, y, x, y_tmp, line_size);
 680              		.loc 1 205 5 is_stmt 1 view .LVU188
 681 0030 CDF80490 		str	r9, [sp, #4]
 682 0034 0094     		str	r4, [sp]
 683 0036 3346     		mov	r3, r6
 684 0038 3A46     		mov	r2, r7
 685 003a 3146     		mov	r1, r6
 686 003c 4046     		mov	r0, r8
 687 003e FFF7FEFF 		bl	GenDsp_DrawLen
 688              	.LVL81:
 206:Dsp/widget/wgt_core/GenDsp.c **** 
 207:Dsp/widget/wgt_core/GenDsp.c ****     GenDsp_DrawLen(map, x_tmp, y, x_tmp, y_tmp, line_size);
 689              		.loc 1 207 5 view .LVU189
 690 0042 CDF80490 		str	r9, [sp, #4]
 691 0046 0094     		str	r4, [sp]
 692 0048 2B46     		mov	r3, r5
 693 004a 3A46     		mov	r2, r7
 694 004c 2946     		mov	r1, r5
 695 004e 4046     		mov	r0, r8
 696 0050 FFF7FEFF 		bl	GenDsp_DrawLen
 697              	.LVL82:
 208:Dsp/widget/wgt_core/GenDsp.c ****     GenDsp_DrawLen(map, x, y_tmp, x_tmp, y_tmp, line_size);
 698              		.loc 1 208 5 view .LVU190
 699 0054 CDF80490 		str	r9, [sp, #4]
 700 0058 0094     		str	r4, [sp]
 701 005a 2B46     		mov	r3, r5
 702 005c 2246     		mov	r2, r4
 703 005e 3146     		mov	r1, r6
 704 0060 4046     		mov	r0, r8
 705 0062 FFF7FEFF 		bl	GenDsp_DrawLen
 706              	.LVL83:
 209:Dsp/widget/wgt_core/GenDsp.c **** }
 707              		.loc 1 209 1 is_stmt 0 view .LVU191
 708 0066 03B0     		add	sp, sp, #12
 709              	.LCFI11:
 710              		.cfi_def_cfa_offset 28
 711              		@ sp needed
 712 0068 BDE8F083 		pop	{r4, r5, r6, r7, r8, r9, pc}
 713              		.loc 1 209 1 view .LVU192
 714              		.cfi_endproc
 715              	.LFE11:
 717              		.section	.rodata.GenDsp_DrawNum.str1.4,"aMS",%progbits,1
 718              		.align	2
 719              	.LC0:
 720 0000 256400   		.ascii	"%d\000"
 721              		.section	.text.GenDsp_DrawNum,"ax",%progbits
 722              		.align	1
 723              		.syntax unified
 724              		.thumb
 725              		.thumb_func
ARM GAS  /var/folders/lx/hc4sn_b53233_zkc9xbbl97r0000gp/T//ccrUoNPa.s 			page 18


 726              		.fpu fpv4-sp-d16
 728              	GenDsp_DrawNum:
 729              	.LVL84:
 730              	.LFB6:
  87:Dsp/widget/wgt_core/GenDsp.c ****     char num_buff[MAX_DSP_NUM_LEN];
 731              		.loc 1 87 1 is_stmt 1 view -0
 732              		.cfi_startproc
 733              		@ args = 8, pretend = 0, frame = 16
 734              		@ frame_needed = 0, uses_anonymous_args = 0
  87:Dsp/widget/wgt_core/GenDsp.c ****     char num_buff[MAX_DSP_NUM_LEN];
 735              		.loc 1 87 1 is_stmt 0 view .LVU194
 736 0000 70B5     		push	{r4, r5, r6, lr}
 737              	.LCFI12:
 738              		.cfi_def_cfa_offset 16
 739              		.cfi_offset 4, -16
 740              		.cfi_offset 5, -12
 741              		.cfi_offset 6, -8
 742              		.cfi_offset 14, -4
 743 0002 86B0     		sub	sp, sp, #24
 744              	.LCFI13:
 745              		.cfi_def_cfa_offset 40
 746 0004 0446     		mov	r4, r0
 747 0006 0D46     		mov	r5, r1
 748 0008 1E46     		mov	r6, r3
  88:Dsp/widget/wgt_core/GenDsp.c **** 
 749              		.loc 1 88 5 is_stmt 1 view .LVU195
  90:Dsp/widget/wgt_core/GenDsp.c ****     GenDsp_DrawStr(font, map, num_buff, x, y, col_inv);
 750              		.loc 1 90 5 view .LVU196
 751 000a 0949     		ldr	r1, .L49
 752              	.LVL85:
  90:Dsp/widget/wgt_core/GenDsp.c ****     GenDsp_DrawStr(font, map, num_buff, x, y, col_inv);
 753              		.loc 1 90 5 is_stmt 0 view .LVU197
 754 000c 03A8     		add	r0, sp, #12
 755              	.LVL86:
  90:Dsp/widget/wgt_core/GenDsp.c ****     GenDsp_DrawStr(font, map, num_buff, x, y, col_inv);
 756              		.loc 1 90 5 view .LVU198
 757 000e FFF7FEFF 		bl	sprintf
 758              	.LVL87:
  91:Dsp/widget/wgt_core/GenDsp.c **** }
 759              		.loc 1 91 5 is_stmt 1 view .LVU199
 760 0012 9DF82C30 		ldrb	r3, [sp, #44]	@ zero_extendqisi2
 761 0016 0193     		str	r3, [sp, #4]
 762 0018 9DF82830 		ldrb	r3, [sp, #40]	@ zero_extendqisi2
 763 001c 0093     		str	r3, [sp]
 764 001e 3346     		mov	r3, r6
 765 0020 03AA     		add	r2, sp, #12
 766 0022 2946     		mov	r1, r5
 767 0024 2046     		mov	r0, r4
 768 0026 FFF7FEFF 		bl	GenDsp_DrawStr
 769              	.LVL88:
  92:Dsp/widget/wgt_core/GenDsp.c **** 
 770              		.loc 1 92 1 is_stmt 0 view .LVU200
 771 002a 06B0     		add	sp, sp, #24
 772              	.LCFI14:
 773              		.cfi_def_cfa_offset 16
 774              		@ sp needed
 775 002c 70BD     		pop	{r4, r5, r6, pc}
ARM GAS  /var/folders/lx/hc4sn_b53233_zkc9xbbl97r0000gp/T//ccrUoNPa.s 			page 19


 776              	.LVL89:
 777              	.L50:
  92:Dsp/widget/wgt_core/GenDsp.c **** 
 778              		.loc 1 92 1 view .LVU201
 779 002e 00BF     		.align	2
 780              	.L49:
 781 0030 00000000 		.word	.LC0
 782              		.cfi_endproc
 783              	.LFE6:
 785              		.global	__aeabi_i2d
 786              		.global	__aeabi_ddiv
 787              		.global	__aeabi_d2f
 788              		.global	__aeabi_f2d
 789              		.global	__aeabi_dmul
 790              		.global	__aeabi_dadd
 791              		.global	__aeabi_d2uiz
 792              		.global	__aeabi_dsub
 793              		.section	.text.GenDsp_DrawRad,"ax",%progbits
 794              		.align	1
 795              		.syntax unified
 796              		.thumb
 797              		.thumb_func
 798              		.fpu fpv4-sp-d16
 800              	GenDsp_DrawRad:
 801              	.LVL90:
 802              	.LFB9:
 177:Dsp/widget/wgt_core/GenDsp.c ****     float angle_rad = DegToRad(angle);
 803              		.loc 1 177 1 is_stmt 1 view -0
 804              		.cfi_startproc
 805              		@ args = 8, pretend = 0, frame = 16
 806              		@ frame_needed = 0, uses_anonymous_args = 0
 177:Dsp/widget/wgt_core/GenDsp.c ****     float angle_rad = DegToRad(angle);
 807              		.loc 1 177 1 is_stmt 0 view .LVU203
 808 0000 2DE9F04F 		push	{r4, r5, r6, r7, r8, r9, r10, fp, lr}
 809              	.LCFI15:
 810              		.cfi_def_cfa_offset 36
 811              		.cfi_offset 4, -36
 812              		.cfi_offset 5, -32
 813              		.cfi_offset 6, -28
 814              		.cfi_offset 7, -24
 815              		.cfi_offset 8, -20
 816              		.cfi_offset 9, -16
 817              		.cfi_offset 10, -12
 818              		.cfi_offset 11, -8
 819              		.cfi_offset 14, -4
 820 0004 2DED028B 		vpush.64	{d8}
 821              	.LCFI16:
 822              		.cfi_def_cfa_offset 44
 823              		.cfi_offset 80, -44
 824              		.cfi_offset 81, -40
 825 0008 85B0     		sub	sp, sp, #20
 826              	.LCFI17:
 827              		.cfi_def_cfa_offset 64
 828 000a 0390     		str	r0, [sp, #12]
 829 000c 0E46     		mov	r6, r1
 830 000e 9346     		mov	fp, r2
 831 0010 9A46     		mov	r10, r3
ARM GAS  /var/folders/lx/hc4sn_b53233_zkc9xbbl97r0000gp/T//ccrUoNPa.s 			page 20


 832 0012 9DF94450 		ldrsb	r5, [sp, #68]
 178:Dsp/widget/wgt_core/GenDsp.c ****     uint8_t x_tmp = 0;
 833              		.loc 1 178 5 is_stmt 1 view .LVU204
 178:Dsp/widget/wgt_core/GenDsp.c ****     uint8_t x_tmp = 0;
 834              		.loc 1 178 23 is_stmt 0 view .LVU205
 835 0016 2846     		mov	r0, r5
 836              	.LVL91:
 178:Dsp/widget/wgt_core/GenDsp.c ****     uint8_t x_tmp = 0;
 837              		.loc 1 178 23 view .LVU206
 838 0018 FFF7FEFF 		bl	__aeabi_i2d
 839              	.LVL92:
 178:Dsp/widget/wgt_core/GenDsp.c ****     uint8_t x_tmp = 0;
 840              		.loc 1 178 23 view .LVU207
 841 001c 2CA3     		adr	r3, .L57
 842 001e D3E90023 		ldrd	r2, [r3]
 843 0022 FFF7FEFF 		bl	__aeabi_ddiv
 844              	.LVL93:
 178:Dsp/widget/wgt_core/GenDsp.c ****     uint8_t x_tmp = 0;
 845              		.loc 1 178 11 view .LVU208
 846 0026 FFF7FEFF 		bl	__aeabi_d2f
 847              	.LVL94:
 848 002a 0290     		str	r0, [sp, #8]	@ float
 849              	.LVL95:
 179:Dsp/widget/wgt_core/GenDsp.c ****     uint8_t y_tmp = 0;
 850              		.loc 1 179 5 is_stmt 1 view .LVU209
 180:Dsp/widget/wgt_core/GenDsp.c **** 
 851              		.loc 1 180 5 view .LVU210
 182:Dsp/widget/wgt_core/GenDsp.c ****         angle += 360;
 852              		.loc 1 182 5 view .LVU211
 182:Dsp/widget/wgt_core/GenDsp.c ****         angle += 360;
 853              		.loc 1 182 8 is_stmt 0 view .LVU212
 854 002c 002D     		cmp	r5, #0
 855 002e 02DB     		blt	.L56
 856              	.LVL96:
 857              	.L52:
 185:Dsp/widget/wgt_core/GenDsp.c ****     {
 858              		.loc 1 185 5 is_stmt 1 view .LVU213
 859              	.LBB7:
 185:Dsp/widget/wgt_core/GenDsp.c ****     {
 860              		.loc 1 185 10 view .LVU214
 185:Dsp/widget/wgt_core/GenDsp.c ****     {
 861              		.loc 1 185 18 is_stmt 0 view .LVU215
 862 0030 0024     		movs	r4, #0
 863 0032 B146     		mov	r9, r6
 185:Dsp/widget/wgt_core/GenDsp.c ****     {
 864              		.loc 1 185 5 view .LVU216
 865 0034 44E0     		b	.L53
 866              	.LVL97:
 867              	.L56:
 185:Dsp/widget/wgt_core/GenDsp.c ****     {
 868              		.loc 1 185 5 view .LVU217
 869              	.LBE7:
 183:Dsp/widget/wgt_core/GenDsp.c **** 
 870              		.loc 1 183 9 is_stmt 1 view .LVU218
 183:Dsp/widget/wgt_core/GenDsp.c **** 
 871              		.loc 1 183 15 is_stmt 0 view .LVU219
 872 0036 6835     		adds	r5, r5, #104
ARM GAS  /var/folders/lx/hc4sn_b53233_zkc9xbbl97r0000gp/T//ccrUoNPa.s 			page 21


 873 0038 6DB2     		sxtb	r5, r5
 874              	.LVL98:
 183:Dsp/widget/wgt_core/GenDsp.c **** 
 875              		.loc 1 183 15 view .LVU220
 876 003a F9E7     		b	.L52
 877              	.LVL99:
 878              	.L54:
 879              	.LBB8:
 187:Dsp/widget/wgt_core/GenDsp.c ****         y_tmp = center_y - cos(angle_rad) * radius;
 880              		.loc 1 187 9 is_stmt 1 discriminator 3 view .LVU221
 187:Dsp/widget/wgt_core/GenDsp.c ****         y_tmp = center_y - cos(angle_rad) * radius;
 881              		.loc 1 187 28 is_stmt 0 discriminator 3 view .LVU222
 882 003c 0298     		ldr	r0, [sp, #8]	@ float
 883 003e FFF7FEFF 		bl	__aeabi_f2d
 884              	.LVL100:
 885 0042 41EC180B 		vmov	d8, r0, r1
 886 0046 41EC100B 		vmov	d0, r0, r1
 887 004a FFF7FEFF 		bl	sin
 888              	.LVL101:
 889 004e 57EC106B 		vmov	r6, r7, d0
 187:Dsp/widget/wgt_core/GenDsp.c ****         y_tmp = center_y - cos(angle_rad) * radius;
 890              		.loc 1 187 43 discriminator 3 view .LVU223
 891 0052 5046     		mov	r0, r10
 892 0054 FFF7FEFF 		bl	__aeabi_i2d
 893              	.LVL102:
 894 0058 CDE90001 		strd	r0, [sp]
 895 005c 0246     		mov	r2, r0
 896 005e 0B46     		mov	r3, r1
 897 0060 3046     		mov	r0, r6
 898 0062 3946     		mov	r1, r7
 899 0064 FFF7FEFF 		bl	__aeabi_dmul
 900              	.LVL103:
 901 0068 0646     		mov	r6, r0
 902 006a 0F46     		mov	r7, r1
 187:Dsp/widget/wgt_core/GenDsp.c ****         y_tmp = center_y - cos(angle_rad) * radius;
 903              		.loc 1 187 26 discriminator 3 view .LVU224
 904 006c 4846     		mov	r0, r9
 905 006e FFF7FEFF 		bl	__aeabi_i2d
 906              	.LVL104:
 907 0072 3246     		mov	r2, r6
 908 0074 3B46     		mov	r3, r7
 909 0076 FFF7FEFF 		bl	__aeabi_dadd
 910              	.LVL105:
 187:Dsp/widget/wgt_core/GenDsp.c ****         y_tmp = center_y - cos(angle_rad) * radius;
 911              		.loc 1 187 15 discriminator 3 view .LVU225
 912 007a FFF7FEFF 		bl	__aeabi_d2uiz
 913              	.LVL106:
 914 007e 5FFA80F8 		uxtb	r8, r0
 915              	.LVL107:
 188:Dsp/widget/wgt_core/GenDsp.c **** 
 916              		.loc 1 188 9 is_stmt 1 discriminator 3 view .LVU226
 188:Dsp/widget/wgt_core/GenDsp.c **** 
 917              		.loc 1 188 28 is_stmt 0 discriminator 3 view .LVU227
 918 0082 B0EE480A 		vmov.f32	s0, s16
 919 0086 F0EE680A 		vmov.f32	s1, s17
 920 008a FFF7FEFF 		bl	cos
 921              	.LVL108:
ARM GAS  /var/folders/lx/hc4sn_b53233_zkc9xbbl97r0000gp/T//ccrUoNPa.s 			page 22


 922 008e 53EC102B 		vmov	r2, r3, d0
 188:Dsp/widget/wgt_core/GenDsp.c **** 
 923              		.loc 1 188 43 discriminator 3 view .LVU228
 924 0092 DDE90001 		ldrd	r0, [sp]
 925 0096 FFF7FEFF 		bl	__aeabi_dmul
 926              	.LVL109:
 927 009a 0646     		mov	r6, r0
 928 009c 0F46     		mov	r7, r1
 188:Dsp/widget/wgt_core/GenDsp.c **** 
 929              		.loc 1 188 26 discriminator 3 view .LVU229
 930 009e 5846     		mov	r0, fp
 931 00a0 FFF7FEFF 		bl	__aeabi_i2d
 932              	.LVL110:
 933 00a4 3246     		mov	r2, r6
 934 00a6 3B46     		mov	r3, r7
 935 00a8 FFF7FEFF 		bl	__aeabi_dsub
 936              	.LVL111:
 188:Dsp/widget/wgt_core/GenDsp.c **** 
 937              		.loc 1 188 15 discriminator 3 view .LVU230
 938 00ac FFF7FEFF 		bl	__aeabi_d2uiz
 939              	.LVL112:
 190:Dsp/widget/wgt_core/GenDsp.c ****     }
 940              		.loc 1 190 9 is_stmt 1 discriminator 3 view .LVU231
 941 00b0 0123     		movs	r3, #1
 942 00b2 C2B2     		uxtb	r2, r0
 943 00b4 4146     		mov	r1, r8
 944 00b6 0398     		ldr	r0, [sp, #12]
 945              	.LVL113:
 190:Dsp/widget/wgt_core/GenDsp.c ****     }
 946              		.loc 1 190 9 is_stmt 0 discriminator 3 view .LVU232
 947 00b8 FFF7FEFF 		bl	GenDsp_DrawPoint
 948              	.LVL114:
 185:Dsp/widget/wgt_core/GenDsp.c ****     {
 949              		.loc 1 185 52 is_stmt 1 discriminator 3 view .LVU233
 185:Dsp/widget/wgt_core/GenDsp.c ****     {
 950              		.loc 1 185 61 is_stmt 0 discriminator 3 view .LVU234
 951 00bc 0134     		adds	r4, r4, #1
 952              	.LVL115:
 185:Dsp/widget/wgt_core/GenDsp.c ****     {
 953              		.loc 1 185 61 discriminator 3 view .LVU235
 954 00be E4B2     		uxtb	r4, r4
 955              	.LVL116:
 956              	.L53:
 185:Dsp/widget/wgt_core/GenDsp.c ****     {
 957              		.loc 1 185 33 is_stmt 1 discriminator 1 view .LVU236
 185:Dsp/widget/wgt_core/GenDsp.c ****     {
 958              		.loc 1 185 5 is_stmt 0 discriminator 1 view .LVU237
 959 00c0 AC42     		cmp	r4, r5
 960 00c2 BBDB     		blt	.L54
 961              	.LBE8:
 192:Dsp/widget/wgt_core/GenDsp.c **** 
 962              		.loc 1 192 1 view .LVU238
 963 00c4 05B0     		add	sp, sp, #20
 964              	.LCFI18:
 965              		.cfi_def_cfa_offset 44
 966              		@ sp needed
 967 00c6 BDEC028B 		vldm	sp!, {d8}
ARM GAS  /var/folders/lx/hc4sn_b53233_zkc9xbbl97r0000gp/T//ccrUoNPa.s 			page 23


 968              	.LCFI19:
 969              		.cfi_restore 80
 970              		.cfi_restore 81
 971              		.cfi_def_cfa_offset 36
 972 00ca BDE8F08F 		pop	{r4, r5, r6, r7, r8, r9, r10, fp, pc}
 973              	.LVL117:
 974              	.L58:
 192:Dsp/widget/wgt_core/GenDsp.c **** 
 975              		.loc 1 192 1 view .LVU239
 976 00ce 00BF     		.align	3
 977              	.L57:
 978 00d0 F8C1631A 		.word	442745336
 979 00d4 DCA54C40 		.word	1078765020
 980              		.cfi_endproc
 981              	.LFE9:
 983              		.section	.text.GenDsp_DrawCircle,"ax",%progbits
 984              		.align	1
 985              		.syntax unified
 986              		.thumb
 987              		.thumb_func
 988              		.fpu fpv4-sp-d16
 990              	GenDsp_DrawCircle:
 991              	.LVL118:
 992              	.LFB10:
 195:Dsp/widget/wgt_core/GenDsp.c ****     GenDsp_DrawRad(map, center_x, center_y, radius, line_size, 360);
 993              		.loc 1 195 1 is_stmt 1 view -0
 994              		.cfi_startproc
 995              		@ args = 4, pretend = 0, frame = 0
 996              		@ frame_needed = 0, uses_anonymous_args = 0
 195:Dsp/widget/wgt_core/GenDsp.c ****     GenDsp_DrawRad(map, center_x, center_y, radius, line_size, 360);
 997              		.loc 1 195 1 is_stmt 0 view .LVU241
 998 0000 10B5     		push	{r4, lr}
 999              	.LCFI20:
 1000              		.cfi_def_cfa_offset 8
 1001              		.cfi_offset 4, -8
 1002              		.cfi_offset 14, -4
 1003 0002 82B0     		sub	sp, sp, #8
 1004              	.LCFI21:
 1005              		.cfi_def_cfa_offset 16
 196:Dsp/widget/wgt_core/GenDsp.c **** }
 1006              		.loc 1 196 5 is_stmt 1 view .LVU242
 1007 0004 6824     		movs	r4, #104
 1008 0006 0194     		str	r4, [sp, #4]
 1009 0008 9DF81040 		ldrb	r4, [sp, #16]	@ zero_extendqisi2
 1010 000c 0094     		str	r4, [sp]
 1011 000e FFF7FEFF 		bl	GenDsp_DrawRad
 1012              	.LVL119:
 197:Dsp/widget/wgt_core/GenDsp.c **** 
 1013              		.loc 1 197 1 is_stmt 0 view .LVU243
 1014 0012 02B0     		add	sp, sp, #8
 1015              	.LCFI22:
 1016              		.cfi_def_cfa_offset 8
 1017              		@ sp needed
 1018 0014 10BD     		pop	{r4, pc}
 197:Dsp/widget/wgt_core/GenDsp.c **** 
 1019              		.loc 1 197 1 view .LVU244
 1020              		.cfi_endproc
ARM GAS  /var/folders/lx/hc4sn_b53233_zkc9xbbl97r0000gp/T//ccrUoNPa.s 			page 24


 1021              	.LFE10:
 1023              		.global	GenDsp_Interface
 1024              		.section	.data.GenDsp_Interface,"aw"
 1025              		.align	2
 1028              	GenDsp_Interface:
 1029 0000 00000000 		.word	GenDsp_DrawPoint
 1030 0004 00000000 		.word	GenDsp_DrawCircle
 1031 0008 00000000 		.word	GenDsp_DrawChar
 1032 000c 00000000 		.word	GenDsp_DrawStr
 1033 0010 00000000 		.word	GenDsp_DrawNum
 1034 0014 00000000 		.word	GenDsp_DrawRectangle
 1035 0018 00000000 		.word	GenDsp_DrawLen
 1036 001c 00000000 		.word	0
 1037 0020 00000000 		.word	GenDsp_GetStrLen
 1038              		.text
 1039              	.Letext0:
 1040              		.file 2 "/usr/local/arm-none-eabi-gcc/gcc-arm-none-eabi-10-2020-q4-major/arm-none-eabi/include/mac
 1041              		.file 3 "/usr/local/arm-none-eabi-gcc/gcc-arm-none-eabi-10-2020-q4-major/arm-none-eabi/include/sys
 1042              		.file 4 "Dsp/screen/font/oledfont.h"
 1043              		.file 5 "Dsp/widget/wgt_core/GenDsp.h"
 1044              		.file 6 "/usr/local/arm-none-eabi-gcc/gcc-arm-none-eabi-10-2020-q4-major/arm-none-eabi/include/mat
 1045              		.file 7 "/usr/local/arm-none-eabi-gcc/gcc-arm-none-eabi-10-2020-q4-major/arm-none-eabi/include/std
ARM GAS  /var/folders/lx/hc4sn_b53233_zkc9xbbl97r0000gp/T//ccrUoNPa.s 			page 25

