ARM GAS  /var/folders/lx/hc4sn_b53233_zkc9xbbl97r0000gp/T//ccuIDblL.s 			page 1


   1              		.cpu cortex-m4
   2              		.eabi_attribute 27, 1
   3              		.eabi_attribute 28, 1
   4              		.eabi_attribute 20, 1
   5              		.eabi_attribute 21, 1
   6              		.eabi_attribute 23, 3
   7              		.eabi_attribute 24, 1
   8              		.eabi_attribute 25, 1
   9              		.eabi_attribute 26, 1
  10              		.eabi_attribute 30, 1
  11              		.eabi_attribute 34, 1
  12              		.eabi_attribute 18, 4
  13              		.file	"GenDsp.c"
  14              		.text
  15              	.Ltext0:
  16              		.cfi_sections	.debug_frame
  17              		.section	.text.GenDsp_DrawPoint,"ax",%progbits
  18              		.align	1
  19              		.arch armv7e-m
  20              		.syntax unified
  21              		.thumb
  22              		.thumb_func
  23              		.fpu fpv4-sp-d16
  25              	GenDsp_DrawPoint:
  26              	.LVL0:
  27              	.LFB3:
  28              		.file 1 "Dsp/widget/wgt_core/GenDsp.c"
   1:Dsp/widget/wgt_core/GenDsp.c **** #include "GenDsp.h"
   2:Dsp/widget/wgt_core/GenDsp.c **** #include "pixel.h"
   3:Dsp/widget/wgt_core/GenDsp.c **** #include "oledfont.h"
   4:Dsp/widget/wgt_core/GenDsp.c **** #include <math.h>
   5:Dsp/widget/wgt_core/GenDsp.c **** 
   6:Dsp/widget/wgt_core/GenDsp.c **** #define DegToRad(x) x / (180 / M_PI)
   7:Dsp/widget/wgt_core/GenDsp.c **** 
   8:Dsp/widget/wgt_core/GenDsp.c **** /* internal variable */
   9:Dsp/widget/wgt_core/GenDsp.c **** 
  10:Dsp/widget/wgt_core/GenDsp.c **** /* internal function definition */
  11:Dsp/widget/wgt_core/GenDsp.c **** 
  12:Dsp/widget/wgt_core/GenDsp.c **** /* external draw funtion definition */
  13:Dsp/widget/wgt_core/GenDsp.c **** static void GenDsp_DrawPoint(uint8_t **map, uint8_t x, uint8_t y, bool set);
  14:Dsp/widget/wgt_core/GenDsp.c **** static void GenDsp_DrawChar(GenFont_List font, uint8_t **map, char c, uint8_t x, uint8_t y, bool co
  15:Dsp/widget/wgt_core/GenDsp.c **** static void GenDsp_DrawStr(GenFont_List font, uint8_t **map, char *str, uint8_t x, uint8_t y, bool 
  16:Dsp/widget/wgt_core/GenDsp.c **** static void GenDsp_DrawNum(GenFont_List font, uint8_t **map, uint32_t num, uint8_t x, uint8_t y, bo
  17:Dsp/widget/wgt_core/GenDsp.c **** static void GenDsp_DrawCircle(uint8_t **map, uint8_t center_x, uint8_t center_y, uint8_t radius, ui
  18:Dsp/widget/wgt_core/GenDsp.c **** static void GenDsp_DrawRectangle(uint8_t **map, uint8_t x, uint8_t y, uint8_t width, uint8_t height
  19:Dsp/widget/wgt_core/GenDsp.c **** static void GenDsp_DrawLen(uint8_t **map, uint8_t start_x, uint8_t start_y, uint8_t end_x, uint8_t 
  20:Dsp/widget/wgt_core/GenDsp.c **** static void GenDsp_DrawRad(uint8_t **map, uint8_t center_x, uint8_t center_y, uint8_t radius, uint8
  21:Dsp/widget/wgt_core/GenDsp.c **** 
  22:Dsp/widget/wgt_core/GenDsp.c **** GeneralDispalyProc_TypeDef GenDsp_Interface = {
  23:Dsp/widget/wgt_core/GenDsp.c ****     .draw_img = NULL,
  24:Dsp/widget/wgt_core/GenDsp.c ****     .init_rollbar = NULL,
  25:Dsp/widget/wgt_core/GenDsp.c ****     .draw_Roller_bar = NULL,
  26:Dsp/widget/wgt_core/GenDsp.c ****     .draw_process_bar = NULL,
  27:Dsp/widget/wgt_core/GenDsp.c ****     .draw_str = GenDsp_DrawStr,
  28:Dsp/widget/wgt_core/GenDsp.c ****     .draw_num = GenDsp_DrawNum,
  29:Dsp/widget/wgt_core/GenDsp.c ****     .draw_line = GenDsp_DrawLen,
  30:Dsp/widget/wgt_core/GenDsp.c ****     .draw_char = GenDsp_DrawChar,
ARM GAS  /var/folders/lx/hc4sn_b53233_zkc9xbbl97r0000gp/T//ccuIDblL.s 			page 2


  31:Dsp/widget/wgt_core/GenDsp.c ****     .draw_point = GenDsp_DrawPoint,
  32:Dsp/widget/wgt_core/GenDsp.c ****     .draw_circle = GenDsp_DrawCircle,
  33:Dsp/widget/wgt_core/GenDsp.c ****     .draw_rectangle = GenDsp_DrawRectangle,
  34:Dsp/widget/wgt_core/GenDsp.c **** };
  35:Dsp/widget/wgt_core/GenDsp.c **** 
  36:Dsp/widget/wgt_core/GenDsp.c **** static void GenDsp_DrawPoint(uint8_t **map, uint8_t x, uint8_t y, bool set)
  37:Dsp/widget/wgt_core/GenDsp.c **** {
  29              		.loc 1 37 1 view -0
  30              		.cfi_startproc
  31              		@ args = 0, pretend = 0, frame = 0
  32              		@ frame_needed = 0, uses_anonymous_args = 0
  33              		@ link register save eliminated.
  38:Dsp/widget/wgt_core/GenDsp.c ****     if (set)
  34              		.loc 1 38 5 view .LVU1
  35              		.loc 1 38 8 is_stmt 0 view .LVU2
  36 0000 23B1     		cbz	r3, .L2
  39:Dsp/widget/wgt_core/GenDsp.c ****         map[y][x] = 1;
  37              		.loc 1 39 9 is_stmt 1 view .LVU3
  38              		.loc 1 39 12 is_stmt 0 view .LVU4
  39 0002 50F82230 		ldr	r3, [r0, r2, lsl #2]
  40              	.LVL1:
  41              		.loc 1 39 19 view .LVU5
  42 0006 0122     		movs	r2, #1
  43              	.LVL2:
  44              		.loc 1 39 19 view .LVU6
  45 0008 5A54     		strb	r2, [r3, r1]
  46 000a 7047     		bx	lr
  47              	.LVL3:
  48              	.L2:
  40:Dsp/widget/wgt_core/GenDsp.c ****     else
  41:Dsp/widget/wgt_core/GenDsp.c ****         map[y][x] = 0;
  49              		.loc 1 41 9 is_stmt 1 view .LVU7
  50              		.loc 1 41 12 is_stmt 0 view .LVU8
  51 000c 50F82230 		ldr	r3, [r0, r2, lsl #2]
  52              	.LVL4:
  53              		.loc 1 41 19 view .LVU9
  54 0010 0022     		movs	r2, #0
  55              	.LVL5:
  56              		.loc 1 41 19 view .LVU10
  57 0012 5A54     		strb	r2, [r3, r1]
  42:Dsp/widget/wgt_core/GenDsp.c **** }
  58              		.loc 1 42 1 view .LVU11
  59 0014 7047     		bx	lr
  60              		.cfi_endproc
  61              	.LFE3:
  63              		.section	.text.GenDsp_DrawChar,"ax",%progbits
  64              		.align	1
  65              		.syntax unified
  66              		.thumb
  67              		.thumb_func
  68              		.fpu fpv4-sp-d16
  70              	GenDsp_DrawChar:
  71              	.LVL6:
  72              	.LFB4:
  43:Dsp/widget/wgt_core/GenDsp.c **** 
  44:Dsp/widget/wgt_core/GenDsp.c **** static void GenDsp_DrawChar(GenFont_List font, uint8_t **map, char c, uint8_t x, uint8_t y, bool co
  45:Dsp/widget/wgt_core/GenDsp.c **** {
ARM GAS  /var/folders/lx/hc4sn_b53233_zkc9xbbl97r0000gp/T//ccuIDblL.s 			page 3


  73              		.loc 1 45 1 is_stmt 1 view -0
  74              		.cfi_startproc
  75              		@ args = 8, pretend = 0, frame = 8
  76              		@ frame_needed = 0, uses_anonymous_args = 0
  77              		.loc 1 45 1 is_stmt 0 view .LVU13
  78 0000 2DE9F04F 		push	{r4, r5, r6, r7, r8, r9, r10, fp, lr}
  79              	.LCFI0:
  80              		.cfi_def_cfa_offset 36
  81              		.cfi_offset 4, -36
  82              		.cfi_offset 5, -32
  83              		.cfi_offset 6, -28
  84              		.cfi_offset 7, -24
  85              		.cfi_offset 8, -20
  86              		.cfi_offset 9, -16
  87              		.cfi_offset 10, -12
  88              		.cfi_offset 11, -8
  89              		.cfi_offset 14, -4
  90 0004 83B0     		sub	sp, sp, #12
  91              	.LCFI1:
  92              		.cfi_def_cfa_offset 48
  93 0006 0746     		mov	r7, r0
  94 0008 8A46     		mov	r10, r1
  95 000a 9846     		mov	r8, r3
  96 000c 9DF83090 		ldrb	r9, [sp, #48]	@ zero_extendqisi2
  97 0010 9DF834B0 		ldrb	fp, [sp, #52]	@ zero_extendqisi2
  46:Dsp/widget/wgt_core/GenDsp.c ****     uint8_t temp;
  98              		.loc 1 46 5 is_stmt 1 view .LVU14
  47:Dsp/widget/wgt_core/GenDsp.c ****     uint8_t y0 = y;
  99              		.loc 1 47 5 view .LVU15
 100              	.LVL7:
  48:Dsp/widget/wgt_core/GenDsp.c ****     c -= ' ';
 101              		.loc 1 48 5 view .LVU16
 102              		.loc 1 48 7 is_stmt 0 view .LVU17
 103 0014 203A     		subs	r2, r2, #32
 104              	.LVL8:
 105              		.loc 1 48 7 view .LVU18
 106 0016 D3B2     		uxtb	r3, r2
 107              	.LVL9:
 108              		.loc 1 48 7 view .LVU19
 109 0018 0193     		str	r3, [sp, #4]
 110              	.LVL10:
  49:Dsp/widget/wgt_core/GenDsp.c **** 
  50:Dsp/widget/wgt_core/GenDsp.c ****     for (uint8_t t = 0; t < font; t++)
 111              		.loc 1 50 5 is_stmt 1 view .LVU20
 112              	.LBB2:
 113              		.loc 1 50 10 view .LVU21
 114              		.loc 1 50 5 is_stmt 0 view .LVU22
 115 001a 4C46     		mov	r4, r9
 116              		.loc 1 50 18 view .LVU23
 117 001c 0023     		movs	r3, #0
 118 001e 0093     		str	r3, [sp]
 119              		.loc 1 50 5 view .LVU24
 120 0020 2EE0     		b	.L5
 121              	.LVL11:
 122              	.L18:
  51:Dsp/widget/wgt_core/GenDsp.c ****     {
  52:Dsp/widget/wgt_core/GenDsp.c ****         if (font == 12)
ARM GAS  /var/folders/lx/hc4sn_b53233_zkc9xbbl97r0000gp/T//ccuIDblL.s 			page 4


  53:Dsp/widget/wgt_core/GenDsp.c ****             temp = oled_asc2_1206[c][t]; //调用1206字体
 123              		.loc 1 53 13 is_stmt 1 view .LVU25
 124              		.loc 1 53 18 is_stmt 0 view .LVU26
 125 0022 019B     		ldr	r3, [sp, #4]
 126 0024 03EB4303 		add	r3, r3, r3, lsl #1
 127 0028 1D4A     		ldr	r2, .L19
 128 002a 02EB8303 		add	r3, r2, r3, lsl #2
 129 002e 009A     		ldr	r2, [sp]
 130 0030 9D5C     		ldrb	r5, [r3, r2]	@ zero_extendqisi2
 131              	.LVL12:
 132              		.loc 1 53 18 view .LVU27
 133 0032 30E0     		b	.L7
 134              	.LVL13:
 135              	.L8:
 136              	.LBB3:
  54:Dsp/widget/wgt_core/GenDsp.c ****         else
  55:Dsp/widget/wgt_core/GenDsp.c ****             temp = oled_asc2_1608[c][t]; //调用1608字体
  56:Dsp/widget/wgt_core/GenDsp.c **** 
  57:Dsp/widget/wgt_core/GenDsp.c ****         for (uint8_t bit_index = 0; bit_index < 8; bit_index++)
  58:Dsp/widget/wgt_core/GenDsp.c ****         {
  59:Dsp/widget/wgt_core/GenDsp.c ****             if (temp & 0x80)
  60:Dsp/widget/wgt_core/GenDsp.c ****                 GenDsp_DrawPoint(map, x, y, col_inv);
  61:Dsp/widget/wgt_core/GenDsp.c ****             else
  62:Dsp/widget/wgt_core/GenDsp.c ****                 GenDsp_DrawPoint(map, x, y, !col_inv);
 137              		.loc 1 62 17 is_stmt 1 view .LVU28
 138 0034 8BF00103 		eor	r3, fp, #1
 139 0038 2246     		mov	r2, r4
 140 003a 4146     		mov	r1, r8
 141 003c 5046     		mov	r0, r10
 142 003e FFF7FEFF 		bl	GenDsp_DrawPoint
 143              	.LVL14:
 144              	.L9:
  63:Dsp/widget/wgt_core/GenDsp.c **** 
  64:Dsp/widget/wgt_core/GenDsp.c ****             temp <<= 1;
 145              		.loc 1 64 13 view .LVU29
 146              		.loc 1 64 18 is_stmt 0 view .LVU30
 147 0042 6D00     		lsls	r5, r5, #1
 148              	.LVL15:
 149              		.loc 1 64 18 view .LVU31
 150 0044 EDB2     		uxtb	r5, r5
 151              	.LVL16:
  65:Dsp/widget/wgt_core/GenDsp.c **** 
  66:Dsp/widget/wgt_core/GenDsp.c ****             y++;
 152              		.loc 1 66 13 is_stmt 1 view .LVU32
 153              		.loc 1 66 14 is_stmt 0 view .LVU33
 154 0046 0134     		adds	r4, r4, #1
 155              	.LVL17:
 156              		.loc 1 66 14 view .LVU34
 157 0048 E4B2     		uxtb	r4, r4
 158              	.LVL18:
  67:Dsp/widget/wgt_core/GenDsp.c ****             if ((y - y0) == font)
 159              		.loc 1 67 13 is_stmt 1 view .LVU35
 160              		.loc 1 67 20 is_stmt 0 view .LVU36
 161 004a A4EB0903 		sub	r3, r4, r9
 162              		.loc 1 67 16 view .LVU37
 163 004e BB42     		cmp	r3, r7
 164 0050 0DD0     		beq	.L16
ARM GAS  /var/folders/lx/hc4sn_b53233_zkc9xbbl97r0000gp/T//ccuIDblL.s 			page 5


  57:Dsp/widget/wgt_core/GenDsp.c ****         {
 165              		.loc 1 57 52 is_stmt 1 discriminator 2 view .LVU38
  57:Dsp/widget/wgt_core/GenDsp.c ****         {
 166              		.loc 1 57 61 is_stmt 0 discriminator 2 view .LVU39
 167 0052 0136     		adds	r6, r6, #1
 168              	.LVL19:
  57:Dsp/widget/wgt_core/GenDsp.c ****         {
 169              		.loc 1 57 61 discriminator 2 view .LVU40
 170 0054 F6B2     		uxtb	r6, r6
 171              	.LVL20:
 172              	.L12:
  57:Dsp/widget/wgt_core/GenDsp.c ****         {
 173              		.loc 1 57 37 is_stmt 1 discriminator 1 view .LVU41
  57:Dsp/widget/wgt_core/GenDsp.c ****         {
 174              		.loc 1 57 9 is_stmt 0 discriminator 1 view .LVU42
 175 0056 072E     		cmp	r6, #7
 176 0058 0ED8     		bhi	.L11
  59:Dsp/widget/wgt_core/GenDsp.c ****                 GenDsp_DrawPoint(map, x, y, col_inv);
 177              		.loc 1 59 13 is_stmt 1 view .LVU43
  59:Dsp/widget/wgt_core/GenDsp.c ****                 GenDsp_DrawPoint(map, x, y, col_inv);
 178              		.loc 1 59 16 is_stmt 0 view .LVU44
 179 005a 15F0800F 		tst	r5, #128
 180 005e E9D0     		beq	.L8
  60:Dsp/widget/wgt_core/GenDsp.c ****             else
 181              		.loc 1 60 17 is_stmt 1 view .LVU45
 182 0060 5B46     		mov	r3, fp
 183 0062 2246     		mov	r2, r4
 184 0064 4146     		mov	r1, r8
 185 0066 5046     		mov	r0, r10
 186 0068 FFF7FEFF 		bl	GenDsp_DrawPoint
 187              	.LVL21:
 188 006c E9E7     		b	.L9
 189              	.L16:
  68:Dsp/widget/wgt_core/GenDsp.c ****             {
  69:Dsp/widget/wgt_core/GenDsp.c ****                 y = y0;
 190              		.loc 1 69 17 view .LVU46
 191              	.LVL22:
  70:Dsp/widget/wgt_core/GenDsp.c ****                 x++;
 192              		.loc 1 70 17 view .LVU47
 193              		.loc 1 70 18 is_stmt 0 view .LVU48
 194 006e 08F10108 		add	r8, r8, #1
 195              	.LVL23:
 196              		.loc 1 70 18 view .LVU49
 197 0072 5FFA88F8 		uxtb	r8, r8
 198              	.LVL24:
  71:Dsp/widget/wgt_core/GenDsp.c ****                 break;
 199              		.loc 1 71 17 is_stmt 1 view .LVU50
  69:Dsp/widget/wgt_core/GenDsp.c ****                 x++;
 200              		.loc 1 69 19 is_stmt 0 view .LVU51
 201 0076 4C46     		mov	r4, r9
 202              	.LVL25:
 203              	.L11:
  69:Dsp/widget/wgt_core/GenDsp.c ****                 x++;
 204              		.loc 1 69 19 view .LVU52
 205              	.LBE3:
  50:Dsp/widget/wgt_core/GenDsp.c ****     {
 206              		.loc 1 50 35 is_stmt 1 discriminator 2 view .LVU53
ARM GAS  /var/folders/lx/hc4sn_b53233_zkc9xbbl97r0000gp/T//ccuIDblL.s 			page 6


  50:Dsp/widget/wgt_core/GenDsp.c ****     {
 207              		.loc 1 50 36 is_stmt 0 discriminator 2 view .LVU54
 208 0078 009B     		ldr	r3, [sp]
 209 007a 0133     		adds	r3, r3, #1
 210 007c DBB2     		uxtb	r3, r3
 211 007e 0093     		str	r3, [sp]
 212              	.LVL26:
 213              	.L5:
  50:Dsp/widget/wgt_core/GenDsp.c ****     {
 214              		.loc 1 50 25 is_stmt 1 discriminator 1 view .LVU55
  50:Dsp/widget/wgt_core/GenDsp.c ****     {
 215              		.loc 1 50 5 is_stmt 0 discriminator 1 view .LVU56
 216 0080 009B     		ldr	r3, [sp]
 217 0082 BB42     		cmp	r3, r7
 218 0084 09D2     		bcs	.L17
  52:Dsp/widget/wgt_core/GenDsp.c ****             temp = oled_asc2_1206[c][t]; //调用1206字体
 219              		.loc 1 52 9 is_stmt 1 view .LVU57
  52:Dsp/widget/wgt_core/GenDsp.c ****             temp = oled_asc2_1206[c][t]; //调用1206字体
 220              		.loc 1 52 12 is_stmt 0 view .LVU58
 221 0086 0C2F     		cmp	r7, #12
 222 0088 CBD0     		beq	.L18
  55:Dsp/widget/wgt_core/GenDsp.c **** 
 223              		.loc 1 55 13 is_stmt 1 view .LVU59
  55:Dsp/widget/wgt_core/GenDsp.c **** 
 224              		.loc 1 55 18 is_stmt 0 view .LVU60
 225 008a 064B     		ldr	r3, .L19+4
 226 008c 019A     		ldr	r2, [sp, #4]
 227 008e 03EB0213 		add	r3, r3, r2, lsl #4
 228 0092 009A     		ldr	r2, [sp]
 229 0094 9D5C     		ldrb	r5, [r3, r2]	@ zero_extendqisi2
 230              	.LVL27:
 231              	.L7:
  55:Dsp/widget/wgt_core/GenDsp.c **** 
 232              		.loc 1 55 18 view .LVU61
 233              	.LBE2:
  45:Dsp/widget/wgt_core/GenDsp.c ****     uint8_t temp;
 234              		.loc 1 45 1 discriminator 1 view .LVU62
 235 0096 0026     		movs	r6, #0
 236 0098 DDE7     		b	.L12
 237              	.LVL28:
 238              	.L17:
  72:Dsp/widget/wgt_core/GenDsp.c ****             }
  73:Dsp/widget/wgt_core/GenDsp.c ****         }
  74:Dsp/widget/wgt_core/GenDsp.c ****     }
  75:Dsp/widget/wgt_core/GenDsp.c **** }
 239              		.loc 1 75 1 view .LVU63
 240 009a 03B0     		add	sp, sp, #12
 241              	.LCFI2:
 242              		.cfi_def_cfa_offset 36
 243              	.LVL29:
 244              		.loc 1 75 1 view .LVU64
 245              		@ sp needed
 246 009c BDE8F08F 		pop	{r4, r5, r6, r7, r8, r9, r10, fp, pc}
 247              	.LVL30:
 248              	.L20:
 249              		.loc 1 75 1 view .LVU65
 250              		.align	2
ARM GAS  /var/folders/lx/hc4sn_b53233_zkc9xbbl97r0000gp/T//ccuIDblL.s 			page 7


 251              	.L19:
 252 00a0 00000000 		.word	oled_asc2_1206
 253 00a4 00000000 		.word	oled_asc2_1608
 254              		.cfi_endproc
 255              	.LFE4:
 257              		.section	.text.GenDsp_DrawStr,"ax",%progbits
 258              		.align	1
 259              		.syntax unified
 260              		.thumb
 261              		.thumb_func
 262              		.fpu fpv4-sp-d16
 264              	GenDsp_DrawStr:
 265              	.LVL31:
 266              	.LFB5:
  76:Dsp/widget/wgt_core/GenDsp.c **** 
  77:Dsp/widget/wgt_core/GenDsp.c **** static void GenDsp_DrawStr(GenFont_List font, uint8_t **map, char *str, uint8_t x, uint8_t y, bool 
  78:Dsp/widget/wgt_core/GenDsp.c **** {
 267              		.loc 1 78 1 is_stmt 1 view -0
 268              		.cfi_startproc
 269              		@ args = 8, pretend = 0, frame = 0
 270              		@ frame_needed = 0, uses_anonymous_args = 0
 271              		.loc 1 78 1 is_stmt 0 view .LVU67
 272 0000 2DE9F043 		push	{r4, r5, r6, r7, r8, r9, lr}
 273              	.LCFI3:
 274              		.cfi_def_cfa_offset 28
 275              		.cfi_offset 4, -28
 276              		.cfi_offset 5, -24
 277              		.cfi_offset 6, -20
 278              		.cfi_offset 7, -16
 279              		.cfi_offset 8, -12
 280              		.cfi_offset 9, -8
 281              		.cfi_offset 14, -4
 282 0004 83B0     		sub	sp, sp, #12
 283              	.LCFI4:
 284              		.cfi_def_cfa_offset 40
 285 0006 0746     		mov	r7, r0
 286 0008 0E46     		mov	r6, r1
 287 000a 1546     		mov	r5, r2
 288 000c 1C46     		mov	r4, r3
 289 000e 9DF82890 		ldrb	r9, [sp, #40]	@ zero_extendqisi2
 290 0012 9DF82C80 		ldrb	r8, [sp, #44]	@ zero_extendqisi2
  79:Dsp/widget/wgt_core/GenDsp.c ****     while (*str != '\0')
 291              		.loc 1 79 5 is_stmt 1 view .LVU68
 292              		.loc 1 79 11 is_stmt 0 view .LVU69
 293 0016 0BE0     		b	.L22
 294              	.LVL32:
 295              	.L23:
  80:Dsp/widget/wgt_core/GenDsp.c ****     {
  81:Dsp/widget/wgt_core/GenDsp.c ****         GenDsp_DrawChar(font, map, *str, x, y, col_inv);
 296              		.loc 1 81 9 is_stmt 1 view .LVU70
 297 0018 CDF80480 		str	r8, [sp, #4]
 298 001c CDF80090 		str	r9, [sp]
 299 0020 2346     		mov	r3, r4
 300 0022 3146     		mov	r1, r6
 301 0024 3846     		mov	r0, r7
 302 0026 FFF7FEFF 		bl	GenDsp_DrawChar
 303              	.LVL33:
ARM GAS  /var/folders/lx/hc4sn_b53233_zkc9xbbl97r0000gp/T//ccuIDblL.s 			page 8


  82:Dsp/widget/wgt_core/GenDsp.c ****         x += 8;
 304              		.loc 1 82 9 view .LVU71
 305              		.loc 1 82 11 is_stmt 0 view .LVU72
 306 002a 0834     		adds	r4, r4, #8
 307              	.LVL34:
 308              		.loc 1 82 11 view .LVU73
 309 002c E4B2     		uxtb	r4, r4
 310              	.LVL35:
  83:Dsp/widget/wgt_core/GenDsp.c ****         str++;
 311              		.loc 1 83 9 is_stmt 1 view .LVU74
 312              		.loc 1 83 12 is_stmt 0 view .LVU75
 313 002e 0135     		adds	r5, r5, #1
 314              	.LVL36:
 315              	.L22:
  79:Dsp/widget/wgt_core/GenDsp.c ****     {
 316              		.loc 1 79 11 is_stmt 1 view .LVU76
  79:Dsp/widget/wgt_core/GenDsp.c ****     {
 317              		.loc 1 79 12 is_stmt 0 view .LVU77
 318 0030 2A78     		ldrb	r2, [r5]	@ zero_extendqisi2
  79:Dsp/widget/wgt_core/GenDsp.c ****     {
 319              		.loc 1 79 11 view .LVU78
 320 0032 002A     		cmp	r2, #0
 321 0034 F0D1     		bne	.L23
  84:Dsp/widget/wgt_core/GenDsp.c ****     }
  85:Dsp/widget/wgt_core/GenDsp.c **** }
 322              		.loc 1 85 1 view .LVU79
 323 0036 03B0     		add	sp, sp, #12
 324              	.LCFI5:
 325              		.cfi_def_cfa_offset 28
 326              		@ sp needed
 327 0038 BDE8F083 		pop	{r4, r5, r6, r7, r8, r9, pc}
 328              		.loc 1 85 1 view .LVU80
 329              		.cfi_endproc
 330              	.LFE5:
 332              		.section	.text.GenDsp_DrawLen,"ax",%progbits
 333              		.align	1
 334              		.syntax unified
 335              		.thumb
 336              		.thumb_func
 337              		.fpu fpv4-sp-d16
 339              	GenDsp_DrawLen:
 340              	.LVL37:
 341              	.LFB9:
  86:Dsp/widget/wgt_core/GenDsp.c **** 
  87:Dsp/widget/wgt_core/GenDsp.c **** static void GenDsp_DrawNum(GenFont_List font, uint8_t **map, uint32_t num, uint8_t x, uint8_t y, bo
  88:Dsp/widget/wgt_core/GenDsp.c **** {
  89:Dsp/widget/wgt_core/GenDsp.c ****     char num_buff[MAX_DSP_NUM_LEN];
  90:Dsp/widget/wgt_core/GenDsp.c **** 
  91:Dsp/widget/wgt_core/GenDsp.c ****     sprintf(num_buff, "%d", num);
  92:Dsp/widget/wgt_core/GenDsp.c ****     GenDsp_DrawStr(font, map, num_buff, x, y, col_inv);
  93:Dsp/widget/wgt_core/GenDsp.c **** }
  94:Dsp/widget/wgt_core/GenDsp.c **** 
  95:Dsp/widget/wgt_core/GenDsp.c **** /*** just for debug ***/
  96:Dsp/widget/wgt_core/GenDsp.c **** static void GenDsp_DrawVertical_Line(uint8_t **map, uint8_t start_x, uint8_t start_y, uint8_t len)
  97:Dsp/widget/wgt_core/GenDsp.c **** {
  98:Dsp/widget/wgt_core/GenDsp.c **** }
  99:Dsp/widget/wgt_core/GenDsp.c **** 
ARM GAS  /var/folders/lx/hc4sn_b53233_zkc9xbbl97r0000gp/T//ccuIDblL.s 			page 9


 100:Dsp/widget/wgt_core/GenDsp.c **** static void GenDsp_DrawHorizon_Line(uint8_t **map, uint8_t start_x, uint8_t start_y, uint8_t len)
 101:Dsp/widget/wgt_core/GenDsp.c **** {
 102:Dsp/widget/wgt_core/GenDsp.c **** }
 103:Dsp/widget/wgt_core/GenDsp.c **** /*** just for debug ***/
 104:Dsp/widget/wgt_core/GenDsp.c **** 
 105:Dsp/widget/wgt_core/GenDsp.c **** static void GenDsp_DrawLen(uint8_t **map, uint8_t start_x, uint8_t start_y, uint8_t end_x, uint8_t 
 106:Dsp/widget/wgt_core/GenDsp.c **** {
 342              		.loc 1 106 1 is_stmt 1 view -0
 343              		.cfi_startproc
 344              		@ args = 8, pretend = 0, frame = 16
 345              		@ frame_needed = 0, uses_anonymous_args = 0
 346              		.loc 1 106 1 is_stmt 0 view .LVU82
 347 0000 2DE9F04F 		push	{r4, r5, r6, r7, r8, r9, r10, fp, lr}
 348              	.LCFI6:
 349              		.cfi_def_cfa_offset 36
 350              		.cfi_offset 4, -36
 351              		.cfi_offset 5, -32
 352              		.cfi_offset 6, -28
 353              		.cfi_offset 7, -24
 354              		.cfi_offset 8, -20
 355              		.cfi_offset 9, -16
 356              		.cfi_offset 10, -12
 357              		.cfi_offset 11, -8
 358              		.cfi_offset 14, -4
 359 0004 85B0     		sub	sp, sp, #20
 360              	.LCFI7:
 361              		.cfi_def_cfa_offset 56
 362 0006 0190     		str	r0, [sp, #4]
 363 0008 9046     		mov	r8, r2
 364 000a 9DF83820 		ldrb	r2, [sp, #56]	@ zero_extendqisi2
 365              	.LVL38:
 107:Dsp/widget/wgt_core/GenDsp.c ****     uint8_t xerr = 0;
 366              		.loc 1 107 5 is_stmt 1 view .LVU83
 108:Dsp/widget/wgt_core/GenDsp.c ****     uint8_t yerr = 0;
 367              		.loc 1 108 5 view .LVU84
 109:Dsp/widget/wgt_core/GenDsp.c ****     int8_t delta_x = end_x - start_x;
 368              		.loc 1 109 5 view .LVU85
 369              		.loc 1 109 28 is_stmt 0 view .LVU86
 370 000e A3EB010A 		sub	r10, r3, r1
 371              	.LVL39:
 110:Dsp/widget/wgt_core/GenDsp.c ****     int8_t delta_y = end_y - start_y;
 372              		.loc 1 110 5 is_stmt 1 view .LVU87
 373              		.loc 1 110 28 is_stmt 0 view .LVU88
 374 0012 A2EB080B 		sub	fp, r2, r8
 375              	.LVL40:
 111:Dsp/widget/wgt_core/GenDsp.c ****     uint8_t distance;
 376              		.loc 1 111 5 is_stmt 1 view .LVU89
 112:Dsp/widget/wgt_core/GenDsp.c ****     uint8_t uRow = start_x;
 377              		.loc 1 112 5 view .LVU90
 113:Dsp/widget/wgt_core/GenDsp.c ****     uint8_t uCol = start_y;
 378              		.loc 1 113 5 view .LVU91
 114:Dsp/widget/wgt_core/GenDsp.c **** 
 115:Dsp/widget/wgt_core/GenDsp.c ****     int8_t incx, incy;
 379              		.loc 1 115 5 view .LVU92
 116:Dsp/widget/wgt_core/GenDsp.c **** 
 117:Dsp/widget/wgt_core/GenDsp.c ****     if (start_x - end_x == 0)
 380              		.loc 1 117 5 view .LVU93
ARM GAS  /var/folders/lx/hc4sn_b53233_zkc9xbbl97r0000gp/T//ccuIDblL.s 			page 10


 381              		.loc 1 117 8 is_stmt 0 view .LVU94
 382 0016 8B42     		cmp	r3, r1
 383 0018 58D0     		beq	.L25
 384 001a 0F46     		mov	r7, r1
 385 001c 4FFA8AFA 		sxtb	r10, r10
 386              		.loc 1 117 8 view .LVU95
 387 0020 4FFA8BFB 		sxtb	fp, fp
 118:Dsp/widget/wgt_core/GenDsp.c ****     {
 119:Dsp/widget/wgt_core/GenDsp.c ****         if (start_y - end_y == 0)
 120:Dsp/widget/wgt_core/GenDsp.c ****             return;
 121:Dsp/widget/wgt_core/GenDsp.c **** 
 122:Dsp/widget/wgt_core/GenDsp.c ****         GenDsp_DrawVertical_Line(map, start_x, start_y, end_y - start_y);
 123:Dsp/widget/wgt_core/GenDsp.c ****     }
 124:Dsp/widget/wgt_core/GenDsp.c ****     else if (start_y - end_y == 0)
 388              		.loc 1 124 10 is_stmt 1 view .LVU96
 389              		.loc 1 124 13 is_stmt 0 view .LVU97
 390 0024 4245     		cmp	r2, r8
 391 0026 51D0     		beq	.L25
 125:Dsp/widget/wgt_core/GenDsp.c ****     {
 126:Dsp/widget/wgt_core/GenDsp.c ****         if (start_x - end_x == 0)
 127:Dsp/widget/wgt_core/GenDsp.c ****             return;
 128:Dsp/widget/wgt_core/GenDsp.c **** 
 129:Dsp/widget/wgt_core/GenDsp.c ****         GenDsp_DrawHorizon_Line(map, start_x, start_y, end_x - start_x);
 130:Dsp/widget/wgt_core/GenDsp.c ****     }
 131:Dsp/widget/wgt_core/GenDsp.c ****     else
 132:Dsp/widget/wgt_core/GenDsp.c ****     {
 133:Dsp/widget/wgt_core/GenDsp.c ****         if (delta_x > 0)
 392              		.loc 1 133 9 is_stmt 1 view .LVU98
 393              		.loc 1 133 12 is_stmt 0 view .LVU99
 394 0028 BAF1000F 		cmp	r10, #0
 395 002c 0EDD     		ble	.L40
 134:Dsp/widget/wgt_core/GenDsp.c ****         {
 135:Dsp/widget/wgt_core/GenDsp.c ****             incx = 1;
 396              		.loc 1 135 18 view .LVU100
 397 002e 0123     		movs	r3, #1
 398              	.LVL41:
 399              		.loc 1 135 18 view .LVU101
 400 0030 0293     		str	r3, [sp, #8]
 401              	.LVL42:
 402              	.L27:
 136:Dsp/widget/wgt_core/GenDsp.c ****         }
 137:Dsp/widget/wgt_core/GenDsp.c ****         else if (delta_x == 0)
 138:Dsp/widget/wgt_core/GenDsp.c ****         {
 139:Dsp/widget/wgt_core/GenDsp.c ****             incx = 0;
 140:Dsp/widget/wgt_core/GenDsp.c ****         }
 141:Dsp/widget/wgt_core/GenDsp.c ****         else
 142:Dsp/widget/wgt_core/GenDsp.c ****         {
 143:Dsp/widget/wgt_core/GenDsp.c ****             incx = -1;
 144:Dsp/widget/wgt_core/GenDsp.c ****             delta_x = -delta_x;
 145:Dsp/widget/wgt_core/GenDsp.c ****         }
 146:Dsp/widget/wgt_core/GenDsp.c **** 
 147:Dsp/widget/wgt_core/GenDsp.c ****         if (delta_y > 0)
 403              		.loc 1 147 9 is_stmt 1 view .LVU102
 404              		.loc 1 147 12 is_stmt 0 view .LVU103
 405 0032 BBF1000F 		cmp	fp, #0
 406 0036 16DD     		ble	.L41
 148:Dsp/widget/wgt_core/GenDsp.c ****         {
ARM GAS  /var/folders/lx/hc4sn_b53233_zkc9xbbl97r0000gp/T//ccuIDblL.s 			page 11


 149:Dsp/widget/wgt_core/GenDsp.c ****             incy = 1;
 407              		.loc 1 149 18 view .LVU104
 408 0038 0123     		movs	r3, #1
 409 003a 0393     		str	r3, [sp, #12]
 410              	.LVL43:
 411              	.L28:
 150:Dsp/widget/wgt_core/GenDsp.c ****         }
 151:Dsp/widget/wgt_core/GenDsp.c ****         else if (delta_y == 0)
 152:Dsp/widget/wgt_core/GenDsp.c ****         {
 153:Dsp/widget/wgt_core/GenDsp.c ****             incy = 0;
 154:Dsp/widget/wgt_core/GenDsp.c ****         }
 155:Dsp/widget/wgt_core/GenDsp.c ****         else
 156:Dsp/widget/wgt_core/GenDsp.c ****         {
 157:Dsp/widget/wgt_core/GenDsp.c ****             incy = -1;
 158:Dsp/widget/wgt_core/GenDsp.c ****             delta_y = -delta_y;
 159:Dsp/widget/wgt_core/GenDsp.c ****         }
 160:Dsp/widget/wgt_core/GenDsp.c **** 
 161:Dsp/widget/wgt_core/GenDsp.c ****         if (delta_x > delta_y)
 412              		.loc 1 161 9 is_stmt 1 view .LVU105
 413              		.loc 1 161 12 is_stmt 0 view .LVU106
 414 003c DA45     		cmp	r10, fp
 415 003e 20DD     		ble	.L29
 162:Dsp/widget/wgt_core/GenDsp.c ****         {
 163:Dsp/widget/wgt_core/GenDsp.c ****             distance = delta_x;
 416              		.loc 1 163 13 is_stmt 1 view .LVU107
 417              		.loc 1 163 22 is_stmt 0 view .LVU108
 418 0040 5FFA8AF9 		uxtb	r9, r10
 419              	.LVL44:
 420              	.L30:
 164:Dsp/widget/wgt_core/GenDsp.c ****         }
 165:Dsp/widget/wgt_core/GenDsp.c ****         else
 166:Dsp/widget/wgt_core/GenDsp.c ****         {
 167:Dsp/widget/wgt_core/GenDsp.c ****             distance = delta_y;
 168:Dsp/widget/wgt_core/GenDsp.c ****         }
 169:Dsp/widget/wgt_core/GenDsp.c **** 
 170:Dsp/widget/wgt_core/GenDsp.c ****         for (uint8_t t = 0; t <= distance + 1; t++)
 421              		.loc 1 170 9 is_stmt 1 view .LVU109
 422              	.LBB4:
 423              		.loc 1 170 14 view .LVU110
 424              		.loc 1 170 22 is_stmt 0 view .LVU111
 425 0044 0026     		movs	r6, #0
 426              	.LBE4:
 108:Dsp/widget/wgt_core/GenDsp.c ****     int8_t delta_x = end_x - start_x;
 427              		.loc 1 108 13 view .LVU112
 428 0046 3546     		mov	r5, r6
 107:Dsp/widget/wgt_core/GenDsp.c ****     uint8_t yerr = 0;
 429              		.loc 1 107 13 view .LVU113
 430 0048 3446     		mov	r4, r6
 431              	.LBB5:
 432              		.loc 1 170 9 view .LVU114
 433 004a 1FE0     		b	.L31
 434              	.LVL45:
 435              	.L40:
 436              		.loc 1 170 9 view .LVU115
 437              	.LBE5:
 137:Dsp/widget/wgt_core/GenDsp.c ****         {
 438              		.loc 1 137 14 is_stmt 1 view .LVU116
ARM GAS  /var/folders/lx/hc4sn_b53233_zkc9xbbl97r0000gp/T//ccuIDblL.s 			page 12


 137:Dsp/widget/wgt_core/GenDsp.c ****         {
 439              		.loc 1 137 17 is_stmt 0 view .LVU117
 440 004c BAF1000F 		cmp	r10, #0
 441 0050 06D0     		beq	.L36
 143:Dsp/widget/wgt_core/GenDsp.c ****             delta_x = -delta_x;
 442              		.loc 1 143 13 is_stmt 1 view .LVU118
 443              	.LVL46:
 144:Dsp/widget/wgt_core/GenDsp.c ****         }
 444              		.loc 1 144 13 view .LVU119
 144:Dsp/widget/wgt_core/GenDsp.c ****         }
 445              		.loc 1 144 21 is_stmt 0 view .LVU120
 446 0052 CB1A     		subs	r3, r1, r3
 447              	.LVL47:
 144:Dsp/widget/wgt_core/GenDsp.c ****         }
 448              		.loc 1 144 21 view .LVU121
 449 0054 4FFA83FA 		sxtb	r10, r3
 450              	.LVL48:
 143:Dsp/widget/wgt_core/GenDsp.c ****             delta_x = -delta_x;
 451              		.loc 1 143 18 view .LVU122
 452 0058 4FF0FF33 		mov	r3, #-1
 453 005c 0293     		str	r3, [sp, #8]
 454 005e E8E7     		b	.L27
 455              	.LVL49:
 456              	.L36:
 139:Dsp/widget/wgt_core/GenDsp.c ****         }
 457              		.loc 1 139 18 view .LVU123
 458 0060 CDF808A0 		str	r10, [sp, #8]
 459 0064 E5E7     		b	.L27
 460              	.LVL50:
 461              	.L41:
 151:Dsp/widget/wgt_core/GenDsp.c ****         {
 462              		.loc 1 151 14 is_stmt 1 view .LVU124
 151:Dsp/widget/wgt_core/GenDsp.c ****         {
 463              		.loc 1 151 17 is_stmt 0 view .LVU125
 464 0066 BBF1000F 		cmp	fp, #0
 465 006a 07D0     		beq	.L38
 157:Dsp/widget/wgt_core/GenDsp.c ****             delta_y = -delta_y;
 466              		.loc 1 157 13 is_stmt 1 view .LVU126
 467              	.LVL51:
 158:Dsp/widget/wgt_core/GenDsp.c ****         }
 468              		.loc 1 158 13 view .LVU127
 158:Dsp/widget/wgt_core/GenDsp.c ****         }
 469              		.loc 1 158 21 is_stmt 0 view .LVU128
 470 006c A8EB0202 		sub	r2, r8, r2
 471 0070 4FFA82FB 		sxtb	fp, r2
 472              	.LVL52:
 157:Dsp/widget/wgt_core/GenDsp.c ****             delta_y = -delta_y;
 473              		.loc 1 157 18 view .LVU129
 474 0074 4FF0FF33 		mov	r3, #-1
 475 0078 0393     		str	r3, [sp, #12]
 476 007a DFE7     		b	.L28
 477              	.LVL53:
 478              	.L38:
 153:Dsp/widget/wgt_core/GenDsp.c ****         }
 479              		.loc 1 153 18 view .LVU130
 480 007c CDF80CB0 		str	fp, [sp, #12]
 481 0080 DCE7     		b	.L28
ARM GAS  /var/folders/lx/hc4sn_b53233_zkc9xbbl97r0000gp/T//ccuIDblL.s 			page 13


 482              	.LVL54:
 483              	.L29:
 167:Dsp/widget/wgt_core/GenDsp.c ****         }
 484              		.loc 1 167 13 is_stmt 1 view .LVU131
 167:Dsp/widget/wgt_core/GenDsp.c ****         }
 485              		.loc 1 167 22 is_stmt 0 view .LVU132
 486 0082 5FFA8BF9 		uxtb	r9, fp
 487              	.LVL55:
 167:Dsp/widget/wgt_core/GenDsp.c ****         }
 488              		.loc 1 167 22 view .LVU133
 489 0086 DDE7     		b	.L30
 490              	.LVL56:
 491              	.L33:
 492              	.LBB6:
 493              		.loc 1 170 48 is_stmt 1 discriminator 2 view .LVU134
 494              		.loc 1 170 49 is_stmt 0 discriminator 2 view .LVU135
 495 0088 0136     		adds	r6, r6, #1
 496              	.LVL57:
 497              		.loc 1 170 49 discriminator 2 view .LVU136
 498 008a F6B2     		uxtb	r6, r6
 499              	.LVL58:
 500              	.L31:
 501              		.loc 1 170 29 is_stmt 1 discriminator 1 view .LVU137
 502              		.loc 1 170 43 is_stmt 0 discriminator 1 view .LVU138
 503 008c 09F10103 		add	r3, r9, #1
 504              		.loc 1 170 9 discriminator 1 view .LVU139
 505 0090 9E42     		cmp	r6, r3
 506 0092 1BDC     		bgt	.L25
 171:Dsp/widget/wgt_core/GenDsp.c ****         {
 172:Dsp/widget/wgt_core/GenDsp.c ****             GenDsp_DrawPoint(map, uRow, uCol, true);
 507              		.loc 1 172 13 is_stmt 1 view .LVU140
 508 0094 0123     		movs	r3, #1
 509 0096 4246     		mov	r2, r8
 510 0098 3946     		mov	r1, r7
 511 009a 0198     		ldr	r0, [sp, #4]
 512 009c FFF7FEFF 		bl	GenDsp_DrawPoint
 513              	.LVL59:
 173:Dsp/widget/wgt_core/GenDsp.c **** 
 174:Dsp/widget/wgt_core/GenDsp.c ****             xerr += delta_x;
 514              		.loc 1 174 13 view .LVU141
 515              		.loc 1 174 18 is_stmt 0 view .LVU142
 516 00a0 5444     		add	r4, r4, r10
 517              	.LVL60:
 518              		.loc 1 174 18 view .LVU143
 519 00a2 E4B2     		uxtb	r4, r4
 520              	.LVL61:
 175:Dsp/widget/wgt_core/GenDsp.c ****             yerr += delta_y;
 521              		.loc 1 175 13 is_stmt 1 view .LVU144
 522              		.loc 1 175 18 is_stmt 0 view .LVU145
 523 00a4 5D44     		add	r5, r5, fp
 524              	.LVL62:
 525              		.loc 1 175 18 view .LVU146
 526 00a6 EDB2     		uxtb	r5, r5
 527              	.LVL63:
 176:Dsp/widget/wgt_core/GenDsp.c **** 
 177:Dsp/widget/wgt_core/GenDsp.c ****             if (xerr > distance)
 528              		.loc 1 177 13 is_stmt 1 view .LVU147
ARM GAS  /var/folders/lx/hc4sn_b53233_zkc9xbbl97r0000gp/T//ccuIDblL.s 			page 14


 529              		.loc 1 177 16 is_stmt 0 view .LVU148
 530 00a8 A145     		cmp	r9, r4
 531 00aa 05D2     		bcs	.L32
 178:Dsp/widget/wgt_core/GenDsp.c ****             {
 179:Dsp/widget/wgt_core/GenDsp.c ****                 xerr -= distance;
 532              		.loc 1 179 17 is_stmt 1 view .LVU149
 533              		.loc 1 179 22 is_stmt 0 view .LVU150
 534 00ac A4EB0904 		sub	r4, r4, r9
 535              	.LVL64:
 536              		.loc 1 179 22 view .LVU151
 537 00b0 E4B2     		uxtb	r4, r4
 538              	.LVL65:
 180:Dsp/widget/wgt_core/GenDsp.c ****                 uRow += incx;
 539              		.loc 1 180 17 is_stmt 1 view .LVU152
 540              		.loc 1 180 22 is_stmt 0 view .LVU153
 541 00b2 029B     		ldr	r3, [sp, #8]
 542 00b4 1F44     		add	r7, r7, r3
 543              	.LVL66:
 544              		.loc 1 180 22 view .LVU154
 545 00b6 FFB2     		uxtb	r7, r7
 546              	.LVL67:
 547              	.L32:
 181:Dsp/widget/wgt_core/GenDsp.c ****             }
 182:Dsp/widget/wgt_core/GenDsp.c ****             if (yerr > distance)
 548              		.loc 1 182 13 is_stmt 1 view .LVU155
 549              		.loc 1 182 16 is_stmt 0 view .LVU156
 550 00b8 A945     		cmp	r9, r5
 551 00ba E5D2     		bcs	.L33
 183:Dsp/widget/wgt_core/GenDsp.c ****             {
 184:Dsp/widget/wgt_core/GenDsp.c ****                 yerr -= distance;
 552              		.loc 1 184 17 is_stmt 1 view .LVU157
 553              		.loc 1 184 22 is_stmt 0 view .LVU158
 554 00bc A5EB0905 		sub	r5, r5, r9
 555              	.LVL68:
 556              		.loc 1 184 22 view .LVU159
 557 00c0 EDB2     		uxtb	r5, r5
 558              	.LVL69:
 185:Dsp/widget/wgt_core/GenDsp.c ****                 uCol += incy;
 559              		.loc 1 185 17 is_stmt 1 view .LVU160
 560              		.loc 1 185 22 is_stmt 0 view .LVU161
 561 00c2 039B     		ldr	r3, [sp, #12]
 562 00c4 9844     		add	r8, r8, r3
 563              	.LVL70:
 564              		.loc 1 185 22 view .LVU162
 565 00c6 5FFA88F8 		uxtb	r8, r8
 566              	.LVL71:
 567              		.loc 1 185 22 view .LVU163
 568 00ca DDE7     		b	.L33
 569              	.LVL72:
 570              	.L25:
 571              		.loc 1 185 22 view .LVU164
 572              	.LBE6:
 186:Dsp/widget/wgt_core/GenDsp.c ****             }
 187:Dsp/widget/wgt_core/GenDsp.c ****         }
 188:Dsp/widget/wgt_core/GenDsp.c ****     }
 189:Dsp/widget/wgt_core/GenDsp.c **** }
 573              		.loc 1 189 1 view .LVU165
ARM GAS  /var/folders/lx/hc4sn_b53233_zkc9xbbl97r0000gp/T//ccuIDblL.s 			page 15


 574 00cc 05B0     		add	sp, sp, #20
 575              	.LCFI8:
 576              		.cfi_def_cfa_offset 36
 577              		@ sp needed
 578 00ce BDE8F08F 		pop	{r4, r5, r6, r7, r8, r9, r10, fp, pc}
 579              		.loc 1 189 1 view .LVU166
 580              		.cfi_endproc
 581              	.LFE9:
 583              		.section	.text.GenDsp_DrawRectangle,"ax",%progbits
 584              		.align	1
 585              		.syntax unified
 586              		.thumb
 587              		.thumb_func
 588              		.fpu fpv4-sp-d16
 590              	GenDsp_DrawRectangle:
 591              	.LVL73:
 592              	.LFB12:
 190:Dsp/widget/wgt_core/GenDsp.c **** 
 191:Dsp/widget/wgt_core/GenDsp.c **** static void GenDsp_DrawRad(uint8_t **map, uint8_t center_x, uint8_t center_y, uint8_t radius, uint8
 192:Dsp/widget/wgt_core/GenDsp.c **** {
 193:Dsp/widget/wgt_core/GenDsp.c ****     float angle_rad = DegToRad(angle);
 194:Dsp/widget/wgt_core/GenDsp.c ****     uint8_t x_tmp = 0;
 195:Dsp/widget/wgt_core/GenDsp.c ****     uint8_t y_tmp = 0;
 196:Dsp/widget/wgt_core/GenDsp.c **** 
 197:Dsp/widget/wgt_core/GenDsp.c ****     if (angle < 0)
 198:Dsp/widget/wgt_core/GenDsp.c ****         angle += 360;
 199:Dsp/widget/wgt_core/GenDsp.c **** 
 200:Dsp/widget/wgt_core/GenDsp.c ****     for (uint8_t angle_tmp = 0; angle_tmp < angle; angle_tmp++)
 201:Dsp/widget/wgt_core/GenDsp.c ****     {
 202:Dsp/widget/wgt_core/GenDsp.c ****         x_tmp = center_x + sin(angle_rad) * radius;
 203:Dsp/widget/wgt_core/GenDsp.c ****         y_tmp = center_y - cos(angle_rad) * radius;
 204:Dsp/widget/wgt_core/GenDsp.c **** 
 205:Dsp/widget/wgt_core/GenDsp.c ****         GenDsp_DrawPoint(map, x_tmp, y_tmp, true);
 206:Dsp/widget/wgt_core/GenDsp.c ****     }
 207:Dsp/widget/wgt_core/GenDsp.c **** }
 208:Dsp/widget/wgt_core/GenDsp.c **** 
 209:Dsp/widget/wgt_core/GenDsp.c **** static void GenDsp_DrawCircle(uint8_t **map, uint8_t center_x, uint8_t center_y, uint8_t radius, ui
 210:Dsp/widget/wgt_core/GenDsp.c **** {
 211:Dsp/widget/wgt_core/GenDsp.c ****     GenDsp_DrawRad(map, center_x, center_y, radius, line_size, 360);
 212:Dsp/widget/wgt_core/GenDsp.c **** }
 213:Dsp/widget/wgt_core/GenDsp.c **** 
 214:Dsp/widget/wgt_core/GenDsp.c **** static void GenDsp_DrawRectangle(uint8_t **map, uint8_t x, uint8_t y, uint8_t width, uint8_t height
 215:Dsp/widget/wgt_core/GenDsp.c **** {
 593              		.loc 1 215 1 is_stmt 1 view -0
 594              		.cfi_startproc
 595              		@ args = 8, pretend = 0, frame = 0
 596              		@ frame_needed = 0, uses_anonymous_args = 0
 597              		.loc 1 215 1 is_stmt 0 view .LVU168
 598 0000 2DE9F043 		push	{r4, r5, r6, r7, r8, r9, lr}
 599              	.LCFI9:
 600              		.cfi_def_cfa_offset 28
 601              		.cfi_offset 4, -28
 602              		.cfi_offset 5, -24
 603              		.cfi_offset 6, -20
 604              		.cfi_offset 7, -16
 605              		.cfi_offset 8, -12
 606              		.cfi_offset 9, -8
ARM GAS  /var/folders/lx/hc4sn_b53233_zkc9xbbl97r0000gp/T//ccuIDblL.s 			page 16


 607              		.cfi_offset 14, -4
 608 0004 83B0     		sub	sp, sp, #12
 609              	.LCFI10:
 610              		.cfi_def_cfa_offset 40
 611 0006 8046     		mov	r8, r0
 612 0008 0E46     		mov	r6, r1
 613 000a 1746     		mov	r7, r2
 614 000c 9DF82C90 		ldrb	r9, [sp, #44]	@ zero_extendqisi2
 216:Dsp/widget/wgt_core/GenDsp.c ****     GenDsp_DrawLen(map, x, y, x + width, y, line_size);
 615              		.loc 1 216 5 is_stmt 1 view .LVU169
 616 0010 CD18     		adds	r5, r1, r3
 617 0012 EDB2     		uxtb	r5, r5
 618 0014 CDF80490 		str	r9, [sp, #4]
 619 0018 0092     		str	r2, [sp]
 620 001a 2B46     		mov	r3, r5
 621              	.LVL74:
 622              		.loc 1 216 5 is_stmt 0 view .LVU170
 623 001c FFF7FEFF 		bl	GenDsp_DrawLen
 624              	.LVL75:
 217:Dsp/widget/wgt_core/GenDsp.c ****     GenDsp_DrawLen(map, x, y, x, y + height, line_size);
 625              		.loc 1 217 5 is_stmt 1 view .LVU171
 626 0020 9DF82840 		ldrb	r4, [sp, #40]	@ zero_extendqisi2
 627 0024 3C44     		add	r4, r4, r7
 628 0026 E4B2     		uxtb	r4, r4
 629 0028 CDF80490 		str	r9, [sp, #4]
 630 002c 0094     		str	r4, [sp]
 631 002e 3346     		mov	r3, r6
 632 0030 3A46     		mov	r2, r7
 633 0032 3146     		mov	r1, r6
 634 0034 4046     		mov	r0, r8
 635 0036 FFF7FEFF 		bl	GenDsp_DrawLen
 636              	.LVL76:
 218:Dsp/widget/wgt_core/GenDsp.c ****     GenDsp_DrawLen(map, x + width, y, x + width, y + height, line_size);
 637              		.loc 1 218 5 view .LVU172
 638 003a CDF80490 		str	r9, [sp, #4]
 639 003e 0094     		str	r4, [sp]
 640 0040 2B46     		mov	r3, r5
 641 0042 3A46     		mov	r2, r7
 642 0044 2946     		mov	r1, r5
 643 0046 4046     		mov	r0, r8
 644 0048 FFF7FEFF 		bl	GenDsp_DrawLen
 645              	.LVL77:
 219:Dsp/widget/wgt_core/GenDsp.c ****     GenDsp_DrawLen(map, x, y + height, x + width, y + height, line_size);
 646              		.loc 1 219 5 view .LVU173
 647 004c CDF80490 		str	r9, [sp, #4]
 648 0050 0094     		str	r4, [sp]
 649 0052 2B46     		mov	r3, r5
 650 0054 2246     		mov	r2, r4
 651 0056 3146     		mov	r1, r6
 652 0058 4046     		mov	r0, r8
 653 005a FFF7FEFF 		bl	GenDsp_DrawLen
 654              	.LVL78:
 220:Dsp/widget/wgt_core/GenDsp.c **** }
 655              		.loc 1 220 1 is_stmt 0 view .LVU174
 656 005e 03B0     		add	sp, sp, #12
 657              	.LCFI11:
 658              		.cfi_def_cfa_offset 28
ARM GAS  /var/folders/lx/hc4sn_b53233_zkc9xbbl97r0000gp/T//ccuIDblL.s 			page 17


 659              		@ sp needed
 660 0060 BDE8F083 		pop	{r4, r5, r6, r7, r8, r9, pc}
 661              		.loc 1 220 1 view .LVU175
 662              		.cfi_endproc
 663              	.LFE12:
 665              		.section	.rodata.GenDsp_DrawNum.str1.4,"aMS",%progbits,1
 666              		.align	2
 667              	.LC0:
 668 0000 256400   		.ascii	"%d\000"
 669              		.section	.text.GenDsp_DrawNum,"ax",%progbits
 670              		.align	1
 671              		.syntax unified
 672              		.thumb
 673              		.thumb_func
 674              		.fpu fpv4-sp-d16
 676              	GenDsp_DrawNum:
 677              	.LVL79:
 678              	.LFB6:
  88:Dsp/widget/wgt_core/GenDsp.c ****     char num_buff[MAX_DSP_NUM_LEN];
 679              		.loc 1 88 1 is_stmt 1 view -0
 680              		.cfi_startproc
 681              		@ args = 8, pretend = 0, frame = 16
 682              		@ frame_needed = 0, uses_anonymous_args = 0
  88:Dsp/widget/wgt_core/GenDsp.c ****     char num_buff[MAX_DSP_NUM_LEN];
 683              		.loc 1 88 1 is_stmt 0 view .LVU177
 684 0000 70B5     		push	{r4, r5, r6, lr}
 685              	.LCFI12:
 686              		.cfi_def_cfa_offset 16
 687              		.cfi_offset 4, -16
 688              		.cfi_offset 5, -12
 689              		.cfi_offset 6, -8
 690              		.cfi_offset 14, -4
 691 0002 86B0     		sub	sp, sp, #24
 692              	.LCFI13:
 693              		.cfi_def_cfa_offset 40
 694 0004 0446     		mov	r4, r0
 695 0006 0D46     		mov	r5, r1
 696 0008 1E46     		mov	r6, r3
  89:Dsp/widget/wgt_core/GenDsp.c **** 
 697              		.loc 1 89 5 is_stmt 1 view .LVU178
  91:Dsp/widget/wgt_core/GenDsp.c ****     GenDsp_DrawStr(font, map, num_buff, x, y, col_inv);
 698              		.loc 1 91 5 view .LVU179
 699 000a 0949     		ldr	r1, .L46
 700              	.LVL80:
  91:Dsp/widget/wgt_core/GenDsp.c ****     GenDsp_DrawStr(font, map, num_buff, x, y, col_inv);
 701              		.loc 1 91 5 is_stmt 0 view .LVU180
 702 000c 03A8     		add	r0, sp, #12
 703              	.LVL81:
  91:Dsp/widget/wgt_core/GenDsp.c ****     GenDsp_DrawStr(font, map, num_buff, x, y, col_inv);
 704              		.loc 1 91 5 view .LVU181
 705 000e FFF7FEFF 		bl	sprintf
 706              	.LVL82:
  92:Dsp/widget/wgt_core/GenDsp.c **** }
 707              		.loc 1 92 5 is_stmt 1 view .LVU182
 708 0012 9DF82C30 		ldrb	r3, [sp, #44]	@ zero_extendqisi2
 709 0016 0193     		str	r3, [sp, #4]
 710 0018 9DF82830 		ldrb	r3, [sp, #40]	@ zero_extendqisi2
ARM GAS  /var/folders/lx/hc4sn_b53233_zkc9xbbl97r0000gp/T//ccuIDblL.s 			page 18


 711 001c 0093     		str	r3, [sp]
 712 001e 3346     		mov	r3, r6
 713 0020 03AA     		add	r2, sp, #12
 714 0022 2946     		mov	r1, r5
 715 0024 2046     		mov	r0, r4
 716 0026 FFF7FEFF 		bl	GenDsp_DrawStr
 717              	.LVL83:
  93:Dsp/widget/wgt_core/GenDsp.c **** 
 718              		.loc 1 93 1 is_stmt 0 view .LVU183
 719 002a 06B0     		add	sp, sp, #24
 720              	.LCFI14:
 721              		.cfi_def_cfa_offset 16
 722              		@ sp needed
 723 002c 70BD     		pop	{r4, r5, r6, pc}
 724              	.LVL84:
 725              	.L47:
  93:Dsp/widget/wgt_core/GenDsp.c **** 
 726              		.loc 1 93 1 view .LVU184
 727 002e 00BF     		.align	2
 728              	.L46:
 729 0030 00000000 		.word	.LC0
 730              		.cfi_endproc
 731              	.LFE6:
 733              		.global	__aeabi_i2d
 734              		.global	__aeabi_ddiv
 735              		.global	__aeabi_d2f
 736              		.global	__aeabi_f2d
 737              		.global	__aeabi_dmul
 738              		.global	__aeabi_dadd
 739              		.global	__aeabi_d2uiz
 740              		.global	__aeabi_dsub
 741              		.section	.text.GenDsp_DrawRad,"ax",%progbits
 742              		.align	1
 743              		.syntax unified
 744              		.thumb
 745              		.thumb_func
 746              		.fpu fpv4-sp-d16
 748              	GenDsp_DrawRad:
 749              	.LVL85:
 750              	.LFB10:
 192:Dsp/widget/wgt_core/GenDsp.c ****     float angle_rad = DegToRad(angle);
 751              		.loc 1 192 1 is_stmt 1 view -0
 752              		.cfi_startproc
 753              		@ args = 8, pretend = 0, frame = 16
 754              		@ frame_needed = 0, uses_anonymous_args = 0
 192:Dsp/widget/wgt_core/GenDsp.c ****     float angle_rad = DegToRad(angle);
 755              		.loc 1 192 1 is_stmt 0 view .LVU186
 756 0000 2DE9F04F 		push	{r4, r5, r6, r7, r8, r9, r10, fp, lr}
 757              	.LCFI15:
 758              		.cfi_def_cfa_offset 36
 759              		.cfi_offset 4, -36
 760              		.cfi_offset 5, -32
 761              		.cfi_offset 6, -28
 762              		.cfi_offset 7, -24
 763              		.cfi_offset 8, -20
 764              		.cfi_offset 9, -16
 765              		.cfi_offset 10, -12
ARM GAS  /var/folders/lx/hc4sn_b53233_zkc9xbbl97r0000gp/T//ccuIDblL.s 			page 19


 766              		.cfi_offset 11, -8
 767              		.cfi_offset 14, -4
 768 0004 2DED028B 		vpush.64	{d8}
 769              	.LCFI16:
 770              		.cfi_def_cfa_offset 44
 771              		.cfi_offset 80, -44
 772              		.cfi_offset 81, -40
 773 0008 85B0     		sub	sp, sp, #20
 774              	.LCFI17:
 775              		.cfi_def_cfa_offset 64
 776 000a 0390     		str	r0, [sp, #12]
 777 000c 0E46     		mov	r6, r1
 778 000e 9346     		mov	fp, r2
 779 0010 9A46     		mov	r10, r3
 780 0012 9DF94450 		ldrsb	r5, [sp, #68]
 193:Dsp/widget/wgt_core/GenDsp.c ****     uint8_t x_tmp = 0;
 781              		.loc 1 193 5 is_stmt 1 view .LVU187
 193:Dsp/widget/wgt_core/GenDsp.c ****     uint8_t x_tmp = 0;
 782              		.loc 1 193 23 is_stmt 0 view .LVU188
 783 0016 2846     		mov	r0, r5
 784              	.LVL86:
 193:Dsp/widget/wgt_core/GenDsp.c ****     uint8_t x_tmp = 0;
 785              		.loc 1 193 23 view .LVU189
 786 0018 FFF7FEFF 		bl	__aeabi_i2d
 787              	.LVL87:
 193:Dsp/widget/wgt_core/GenDsp.c ****     uint8_t x_tmp = 0;
 788              		.loc 1 193 23 view .LVU190
 789 001c 2CA3     		adr	r3, .L54
 790 001e D3E90023 		ldrd	r2, [r3]
 791 0022 FFF7FEFF 		bl	__aeabi_ddiv
 792              	.LVL88:
 193:Dsp/widget/wgt_core/GenDsp.c ****     uint8_t x_tmp = 0;
 793              		.loc 1 193 11 view .LVU191
 794 0026 FFF7FEFF 		bl	__aeabi_d2f
 795              	.LVL89:
 796 002a 0290     		str	r0, [sp, #8]	@ float
 797              	.LVL90:
 194:Dsp/widget/wgt_core/GenDsp.c ****     uint8_t y_tmp = 0;
 798              		.loc 1 194 5 is_stmt 1 view .LVU192
 195:Dsp/widget/wgt_core/GenDsp.c **** 
 799              		.loc 1 195 5 view .LVU193
 197:Dsp/widget/wgt_core/GenDsp.c ****         angle += 360;
 800              		.loc 1 197 5 view .LVU194
 197:Dsp/widget/wgt_core/GenDsp.c ****         angle += 360;
 801              		.loc 1 197 8 is_stmt 0 view .LVU195
 802 002c 002D     		cmp	r5, #0
 803 002e 02DB     		blt	.L53
 804              	.LVL91:
 805              	.L49:
 200:Dsp/widget/wgt_core/GenDsp.c ****     {
 806              		.loc 1 200 5 is_stmt 1 view .LVU196
 807              	.LBB7:
 200:Dsp/widget/wgt_core/GenDsp.c ****     {
 808              		.loc 1 200 10 view .LVU197
 200:Dsp/widget/wgt_core/GenDsp.c ****     {
 809              		.loc 1 200 18 is_stmt 0 view .LVU198
 810 0030 0024     		movs	r4, #0
ARM GAS  /var/folders/lx/hc4sn_b53233_zkc9xbbl97r0000gp/T//ccuIDblL.s 			page 20


 811 0032 B146     		mov	r9, r6
 200:Dsp/widget/wgt_core/GenDsp.c ****     {
 812              		.loc 1 200 5 view .LVU199
 813 0034 44E0     		b	.L50
 814              	.LVL92:
 815              	.L53:
 200:Dsp/widget/wgt_core/GenDsp.c ****     {
 816              		.loc 1 200 5 view .LVU200
 817              	.LBE7:
 198:Dsp/widget/wgt_core/GenDsp.c **** 
 818              		.loc 1 198 9 is_stmt 1 view .LVU201
 198:Dsp/widget/wgt_core/GenDsp.c **** 
 819              		.loc 1 198 15 is_stmt 0 view .LVU202
 820 0036 6835     		adds	r5, r5, #104
 821 0038 6DB2     		sxtb	r5, r5
 822              	.LVL93:
 198:Dsp/widget/wgt_core/GenDsp.c **** 
 823              		.loc 1 198 15 view .LVU203
 824 003a F9E7     		b	.L49
 825              	.LVL94:
 826              	.L51:
 827              	.LBB8:
 202:Dsp/widget/wgt_core/GenDsp.c ****         y_tmp = center_y - cos(angle_rad) * radius;
 828              		.loc 1 202 9 is_stmt 1 discriminator 3 view .LVU204
 202:Dsp/widget/wgt_core/GenDsp.c ****         y_tmp = center_y - cos(angle_rad) * radius;
 829              		.loc 1 202 28 is_stmt 0 discriminator 3 view .LVU205
 830 003c 0298     		ldr	r0, [sp, #8]	@ float
 831 003e FFF7FEFF 		bl	__aeabi_f2d
 832              	.LVL95:
 833 0042 41EC180B 		vmov	d8, r0, r1
 834 0046 41EC100B 		vmov	d0, r0, r1
 835 004a FFF7FEFF 		bl	sin
 836              	.LVL96:
 837 004e 57EC106B 		vmov	r6, r7, d0
 202:Dsp/widget/wgt_core/GenDsp.c ****         y_tmp = center_y - cos(angle_rad) * radius;
 838              		.loc 1 202 43 discriminator 3 view .LVU206
 839 0052 5046     		mov	r0, r10
 840 0054 FFF7FEFF 		bl	__aeabi_i2d
 841              	.LVL97:
 842 0058 CDE90001 		strd	r0, [sp]
 843 005c 0246     		mov	r2, r0
 844 005e 0B46     		mov	r3, r1
 845 0060 3046     		mov	r0, r6
 846 0062 3946     		mov	r1, r7
 847 0064 FFF7FEFF 		bl	__aeabi_dmul
 848              	.LVL98:
 849 0068 0646     		mov	r6, r0
 850 006a 0F46     		mov	r7, r1
 202:Dsp/widget/wgt_core/GenDsp.c ****         y_tmp = center_y - cos(angle_rad) * radius;
 851              		.loc 1 202 26 discriminator 3 view .LVU207
 852 006c 4846     		mov	r0, r9
 853 006e FFF7FEFF 		bl	__aeabi_i2d
 854              	.LVL99:
 855 0072 3246     		mov	r2, r6
 856 0074 3B46     		mov	r3, r7
 857 0076 FFF7FEFF 		bl	__aeabi_dadd
 858              	.LVL100:
ARM GAS  /var/folders/lx/hc4sn_b53233_zkc9xbbl97r0000gp/T//ccuIDblL.s 			page 21


 202:Dsp/widget/wgt_core/GenDsp.c ****         y_tmp = center_y - cos(angle_rad) * radius;
 859              		.loc 1 202 15 discriminator 3 view .LVU208
 860 007a FFF7FEFF 		bl	__aeabi_d2uiz
 861              	.LVL101:
 862 007e 5FFA80F8 		uxtb	r8, r0
 863              	.LVL102:
 203:Dsp/widget/wgt_core/GenDsp.c **** 
 864              		.loc 1 203 9 is_stmt 1 discriminator 3 view .LVU209
 203:Dsp/widget/wgt_core/GenDsp.c **** 
 865              		.loc 1 203 28 is_stmt 0 discriminator 3 view .LVU210
 866 0082 B0EE480A 		vmov.f32	s0, s16
 867 0086 F0EE680A 		vmov.f32	s1, s17
 868 008a FFF7FEFF 		bl	cos
 869              	.LVL103:
 870 008e 53EC102B 		vmov	r2, r3, d0
 203:Dsp/widget/wgt_core/GenDsp.c **** 
 871              		.loc 1 203 43 discriminator 3 view .LVU211
 872 0092 DDE90001 		ldrd	r0, [sp]
 873 0096 FFF7FEFF 		bl	__aeabi_dmul
 874              	.LVL104:
 875 009a 0646     		mov	r6, r0
 876 009c 0F46     		mov	r7, r1
 203:Dsp/widget/wgt_core/GenDsp.c **** 
 877              		.loc 1 203 26 discriminator 3 view .LVU212
 878 009e 5846     		mov	r0, fp
 879 00a0 FFF7FEFF 		bl	__aeabi_i2d
 880              	.LVL105:
 881 00a4 3246     		mov	r2, r6
 882 00a6 3B46     		mov	r3, r7
 883 00a8 FFF7FEFF 		bl	__aeabi_dsub
 884              	.LVL106:
 203:Dsp/widget/wgt_core/GenDsp.c **** 
 885              		.loc 1 203 15 discriminator 3 view .LVU213
 886 00ac FFF7FEFF 		bl	__aeabi_d2uiz
 887              	.LVL107:
 205:Dsp/widget/wgt_core/GenDsp.c ****     }
 888              		.loc 1 205 9 is_stmt 1 discriminator 3 view .LVU214
 889 00b0 0123     		movs	r3, #1
 890 00b2 C2B2     		uxtb	r2, r0
 891 00b4 4146     		mov	r1, r8
 892 00b6 0398     		ldr	r0, [sp, #12]
 893              	.LVL108:
 205:Dsp/widget/wgt_core/GenDsp.c ****     }
 894              		.loc 1 205 9 is_stmt 0 discriminator 3 view .LVU215
 895 00b8 FFF7FEFF 		bl	GenDsp_DrawPoint
 896              	.LVL109:
 200:Dsp/widget/wgt_core/GenDsp.c ****     {
 897              		.loc 1 200 52 is_stmt 1 discriminator 3 view .LVU216
 200:Dsp/widget/wgt_core/GenDsp.c ****     {
 898              		.loc 1 200 61 is_stmt 0 discriminator 3 view .LVU217
 899 00bc 0134     		adds	r4, r4, #1
 900              	.LVL110:
 200:Dsp/widget/wgt_core/GenDsp.c ****     {
 901              		.loc 1 200 61 discriminator 3 view .LVU218
 902 00be E4B2     		uxtb	r4, r4
 903              	.LVL111:
 904              	.L50:
ARM GAS  /var/folders/lx/hc4sn_b53233_zkc9xbbl97r0000gp/T//ccuIDblL.s 			page 22


 200:Dsp/widget/wgt_core/GenDsp.c ****     {
 905              		.loc 1 200 33 is_stmt 1 discriminator 1 view .LVU219
 200:Dsp/widget/wgt_core/GenDsp.c ****     {
 906              		.loc 1 200 5 is_stmt 0 discriminator 1 view .LVU220
 907 00c0 AC42     		cmp	r4, r5
 908 00c2 BBDB     		blt	.L51
 909              	.LBE8:
 207:Dsp/widget/wgt_core/GenDsp.c **** 
 910              		.loc 1 207 1 view .LVU221
 911 00c4 05B0     		add	sp, sp, #20
 912              	.LCFI18:
 913              		.cfi_def_cfa_offset 44
 914              		@ sp needed
 915 00c6 BDEC028B 		vldm	sp!, {d8}
 916              	.LCFI19:
 917              		.cfi_restore 80
 918              		.cfi_restore 81
 919              		.cfi_def_cfa_offset 36
 920 00ca BDE8F08F 		pop	{r4, r5, r6, r7, r8, r9, r10, fp, pc}
 921              	.LVL112:
 922              	.L55:
 207:Dsp/widget/wgt_core/GenDsp.c **** 
 923              		.loc 1 207 1 view .LVU222
 924 00ce 00BF     		.align	3
 925              	.L54:
 926 00d0 F8C1631A 		.word	442745336
 927 00d4 DCA54C40 		.word	1078765020
 928              		.cfi_endproc
 929              	.LFE10:
 931              		.section	.text.GenDsp_DrawCircle,"ax",%progbits
 932              		.align	1
 933              		.syntax unified
 934              		.thumb
 935              		.thumb_func
 936              		.fpu fpv4-sp-d16
 938              	GenDsp_DrawCircle:
 939              	.LVL113:
 940              	.LFB11:
 210:Dsp/widget/wgt_core/GenDsp.c ****     GenDsp_DrawRad(map, center_x, center_y, radius, line_size, 360);
 941              		.loc 1 210 1 is_stmt 1 view -0
 942              		.cfi_startproc
 943              		@ args = 4, pretend = 0, frame = 0
 944              		@ frame_needed = 0, uses_anonymous_args = 0
 210:Dsp/widget/wgt_core/GenDsp.c ****     GenDsp_DrawRad(map, center_x, center_y, radius, line_size, 360);
 945              		.loc 1 210 1 is_stmt 0 view .LVU224
 946 0000 10B5     		push	{r4, lr}
 947              	.LCFI20:
 948              		.cfi_def_cfa_offset 8
 949              		.cfi_offset 4, -8
 950              		.cfi_offset 14, -4
 951 0002 82B0     		sub	sp, sp, #8
 952              	.LCFI21:
 953              		.cfi_def_cfa_offset 16
 211:Dsp/widget/wgt_core/GenDsp.c **** }
 954              		.loc 1 211 5 is_stmt 1 view .LVU225
 955 0004 6824     		movs	r4, #104
 956 0006 0194     		str	r4, [sp, #4]
ARM GAS  /var/folders/lx/hc4sn_b53233_zkc9xbbl97r0000gp/T//ccuIDblL.s 			page 23


 957 0008 9DF81040 		ldrb	r4, [sp, #16]	@ zero_extendqisi2
 958 000c 0094     		str	r4, [sp]
 959 000e FFF7FEFF 		bl	GenDsp_DrawRad
 960              	.LVL114:
 212:Dsp/widget/wgt_core/GenDsp.c **** 
 961              		.loc 1 212 1 is_stmt 0 view .LVU226
 962 0012 02B0     		add	sp, sp, #8
 963              	.LCFI22:
 964              		.cfi_def_cfa_offset 8
 965              		@ sp needed
 966 0014 10BD     		pop	{r4, pc}
 212:Dsp/widget/wgt_core/GenDsp.c **** 
 967              		.loc 1 212 1 view .LVU227
 968              		.cfi_endproc
 969              	.LFE11:
 971              		.global	GenDsp_Interface
 972              		.section	.data.GenDsp_Interface,"aw"
 973              		.align	2
 976              	GenDsp_Interface:
 977 0000 00000000 		.word	GenDsp_DrawPoint
 978 0004 00000000 		.word	GenDsp_DrawCircle
 979 0008 00000000 		.word	GenDsp_DrawChar
 980 000c 00000000 		.word	GenDsp_DrawStr
 981 0010 00000000 		.word	GenDsp_DrawNum
 982 0014 00000000 		.word	GenDsp_DrawRectangle
 983 0018 00000000 		.word	GenDsp_DrawLen
 984 001c 00000000 		.word	0
 985 0020 00000000 		.word	0
 986 0024 00000000 		.word	0
 987 0028 00000000 		.word	0
 988              		.text
 989              	.Letext0:
 990              		.file 2 "/usr/local/arm-none-eabi-gcc/gcc-arm-none-eabi-10-2020-q4-major/arm-none-eabi/include/mac
 991              		.file 3 "/usr/local/arm-none-eabi-gcc/gcc-arm-none-eabi-10-2020-q4-major/arm-none-eabi/include/sys
 992              		.file 4 "Dsp/screen/font/oledfont.h"
 993              		.file 5 "Dsp/widget/wgt_core/GenDsp.h"
 994              		.file 6 "/usr/local/arm-none-eabi-gcc/gcc-arm-none-eabi-10-2020-q4-major/arm-none-eabi/include/mat
 995              		.file 7 "/usr/local/arm-none-eabi-gcc/gcc-arm-none-eabi-10-2020-q4-major/arm-none-eabi/include/std
ARM GAS  /var/folders/lx/hc4sn_b53233_zkc9xbbl97r0000gp/T//ccuIDblL.s 			page 24


DEFINED SYMBOLS
                            *ABS*:0000000000000000 GenDsp.c
/var/folders/lx/hc4sn_b53233_zkc9xbbl97r0000gp/T//ccuIDblL.s:18     .text.GenDsp_DrawPoint:0000000000000000 $t
/var/folders/lx/hc4sn_b53233_zkc9xbbl97r0000gp/T//ccuIDblL.s:25     .text.GenDsp_DrawPoint:0000000000000000 GenDsp_DrawPoint
/var/folders/lx/hc4sn_b53233_zkc9xbbl97r0000gp/T//ccuIDblL.s:64     .text.GenDsp_DrawChar:0000000000000000 $t
/var/folders/lx/hc4sn_b53233_zkc9xbbl97r0000gp/T//ccuIDblL.s:70     .text.GenDsp_DrawChar:0000000000000000 GenDsp_DrawChar
/var/folders/lx/hc4sn_b53233_zkc9xbbl97r0000gp/T//ccuIDblL.s:252    .text.GenDsp_DrawChar:00000000000000a0 $d
/var/folders/lx/hc4sn_b53233_zkc9xbbl97r0000gp/T//ccuIDblL.s:258    .text.GenDsp_DrawStr:0000000000000000 $t
/var/folders/lx/hc4sn_b53233_zkc9xbbl97r0000gp/T//ccuIDblL.s:264    .text.GenDsp_DrawStr:0000000000000000 GenDsp_DrawStr
/var/folders/lx/hc4sn_b53233_zkc9xbbl97r0000gp/T//ccuIDblL.s:333    .text.GenDsp_DrawLen:0000000000000000 $t
/var/folders/lx/hc4sn_b53233_zkc9xbbl97r0000gp/T//ccuIDblL.s:339    .text.GenDsp_DrawLen:0000000000000000 GenDsp_DrawLen
/var/folders/lx/hc4sn_b53233_zkc9xbbl97r0000gp/T//ccuIDblL.s:584    .text.GenDsp_DrawRectangle:0000000000000000 $t
/var/folders/lx/hc4sn_b53233_zkc9xbbl97r0000gp/T//ccuIDblL.s:590    .text.GenDsp_DrawRectangle:0000000000000000 GenDsp_DrawRectangle
/var/folders/lx/hc4sn_b53233_zkc9xbbl97r0000gp/T//ccuIDblL.s:666    .rodata.GenDsp_DrawNum.str1.4:0000000000000000 $d
/var/folders/lx/hc4sn_b53233_zkc9xbbl97r0000gp/T//ccuIDblL.s:670    .text.GenDsp_DrawNum:0000000000000000 $t
/var/folders/lx/hc4sn_b53233_zkc9xbbl97r0000gp/T//ccuIDblL.s:676    .text.GenDsp_DrawNum:0000000000000000 GenDsp_DrawNum
/var/folders/lx/hc4sn_b53233_zkc9xbbl97r0000gp/T//ccuIDblL.s:729    .text.GenDsp_DrawNum:0000000000000030 $d
/var/folders/lx/hc4sn_b53233_zkc9xbbl97r0000gp/T//ccuIDblL.s:742    .text.GenDsp_DrawRad:0000000000000000 $t
/var/folders/lx/hc4sn_b53233_zkc9xbbl97r0000gp/T//ccuIDblL.s:748    .text.GenDsp_DrawRad:0000000000000000 GenDsp_DrawRad
/var/folders/lx/hc4sn_b53233_zkc9xbbl97r0000gp/T//ccuIDblL.s:926    .text.GenDsp_DrawRad:00000000000000d0 $d
/var/folders/lx/hc4sn_b53233_zkc9xbbl97r0000gp/T//ccuIDblL.s:932    .text.GenDsp_DrawCircle:0000000000000000 $t
/var/folders/lx/hc4sn_b53233_zkc9xbbl97r0000gp/T//ccuIDblL.s:938    .text.GenDsp_DrawCircle:0000000000000000 GenDsp_DrawCircle
/var/folders/lx/hc4sn_b53233_zkc9xbbl97r0000gp/T//ccuIDblL.s:976    .data.GenDsp_Interface:0000000000000000 GenDsp_Interface
/var/folders/lx/hc4sn_b53233_zkc9xbbl97r0000gp/T//ccuIDblL.s:973    .data.GenDsp_Interface:0000000000000000 $d

UNDEFINED SYMBOLS
oled_asc2_1206
oled_asc2_1608
sprintf
__aeabi_i2d
__aeabi_ddiv
__aeabi_d2f
__aeabi_f2d
__aeabi_dmul
__aeabi_dadd
__aeabi_d2uiz
__aeabi_dsub
sin
cos
