ARM GAS  C:\Users\97116\AppData\Local\Temp\cchXdEe4.s 			page 1


   1              		.cpu cortex-m4
   2              		.eabi_attribute 27, 1
   3              		.eabi_attribute 28, 1
   4              		.eabi_attribute 20, 1
   5              		.eabi_attribute 21, 1
   6              		.eabi_attribute 23, 3
   7              		.eabi_attribute 24, 1
   8              		.eabi_attribute 25, 1
   9              		.eabi_attribute 26, 1
  10              		.eabi_attribute 30, 1
  11              		.eabi_attribute 34, 1
  12              		.eabi_attribute 18, 4
  13              		.file	"GenDsp.c"
  14              		.text
  15              	.Ltext0:
  16              		.cfi_sections	.debug_frame
  17              		.section	.text.GenDsp_SetRange,"ax",%progbits
  18              		.align	1
  19              		.arch armv7e-m
  20              		.syntax unified
  21              		.thumb
  22              		.thumb_func
  23              		.fpu fpv4-sp-d16
  25              	GenDsp_SetRange:
  26              	.LVL0:
  27              	.LFB3:
  28              		.file 1 "Dsp/widget/wgt_core/GenDsp.c"
   1:Dsp/widget/wgt_core/GenDsp.c **** #include "GenDsp.h"
   2:Dsp/widget/wgt_core/GenDsp.c **** #include "oledfont.h"
   3:Dsp/widget/wgt_core/GenDsp.c **** #include <math.h>
   4:Dsp/widget/wgt_core/GenDsp.c **** 
   5:Dsp/widget/wgt_core/GenDsp.c **** #define DegToRad(x) x / (180 / M_PI)
   6:Dsp/widget/wgt_core/GenDsp.c **** 
   7:Dsp/widget/wgt_core/GenDsp.c **** /* internal variable */
   8:Dsp/widget/wgt_core/GenDsp.c **** GenDsp_DspArea_Limit_Range DspRange = {
   9:Dsp/widget/wgt_core/GenDsp.c ****     .width = 0,
  10:Dsp/widget/wgt_core/GenDsp.c ****     .heigh = 0,
  11:Dsp/widget/wgt_core/GenDsp.c ****     .x = 0,
  12:Dsp/widget/wgt_core/GenDsp.c ****     .y = 0,
  13:Dsp/widget/wgt_core/GenDsp.c **** };
  14:Dsp/widget/wgt_core/GenDsp.c **** 
  15:Dsp/widget/wgt_core/GenDsp.c **** /* internal function definition */
  16:Dsp/widget/wgt_core/GenDsp.c **** 
  17:Dsp/widget/wgt_core/GenDsp.c **** /* external draw funtion definition */
  18:Dsp/widget/wgt_core/GenDsp.c **** static uint8_t GenDsp_GetStrLen(GenFont_List font, char *str);
  19:Dsp/widget/wgt_core/GenDsp.c **** static void GenDsp_DrawPoint(uint8_t **map, int8_t x, int8_t y, bool set);
  20:Dsp/widget/wgt_core/GenDsp.c **** static void GenDsp_SetRange(int8_t x, int8_t y, uint8_t width, uint8_t height);
  21:Dsp/widget/wgt_core/GenDsp.c **** static bool GenDsp_DrawChar(GenFont_List font, uint8_t **map, char c, int8_t x, int8_t y, bool col_
  22:Dsp/widget/wgt_core/GenDsp.c **** static void GenDsp_DrawStr(GenFont_List font, uint8_t **map, char *str, int8_t x, int8_t y, bool co
  23:Dsp/widget/wgt_core/GenDsp.c **** static void GenDsp_DrawNum(GenFont_List font, uint8_t **map, uint32_t num, int8_t x, int8_t y, bool
  24:Dsp/widget/wgt_core/GenDsp.c **** static void GenDsp_DrawCircle(uint8_t **map, int8_t center_x, int8_t center_y, uint8_t radius, uint
  25:Dsp/widget/wgt_core/GenDsp.c **** static void GenDsp_DrawRectangle(uint8_t **map, int8_t x, int8_t y, uint8_t width, uint8_t height, 
  26:Dsp/widget/wgt_core/GenDsp.c **** static void GenDsp_DrawLen(uint8_t **map, int8_t start_x, int8_t start_y, int8_t end_x, int8_t end_
  27:Dsp/widget/wgt_core/GenDsp.c **** static void GenDsp_DrawRad(uint8_t **map, int8_t center_x, int8_t center_y, uint8_t radius, uint8_t
  28:Dsp/widget/wgt_core/GenDsp.c **** static void GenDsp_Draw_RadiusRectangle(uint8_t **map, int8_t x, int8_t y, uint8_t width, uint8_t h
  29:Dsp/widget/wgt_core/GenDsp.c **** static void GenDsp_FillCircle(uint8_t **map, int8_t x, int8_t y, uint8_t radius, uint8_t option);
  30:Dsp/widget/wgt_core/GenDsp.c **** static void GenDsp_FillRectangle(uint8_t **map, int8_t x, int8_t y, uint8_t width, uint8_t height);
ARM GAS  C:\Users\97116\AppData\Local\Temp\cchXdEe4.s 			page 2


  31:Dsp/widget/wgt_core/GenDsp.c **** static void GenDsp_Fill_RadiusRectangle(uint8_t **map, int8_t x, int8_t y, uint8_t width, uint8_t h
  32:Dsp/widget/wgt_core/GenDsp.c **** static void GenDsp_Draw_HLine(uint8_t **map, int8_t x, int8_t y, uint8_t len, uint8_t line_width);
  33:Dsp/widget/wgt_core/GenDsp.c **** static void GenDsp_Draw_VLine(uint8_t **map, int8_t x, int8_t y, uint8_t len, uint8_t line_width);
  34:Dsp/widget/wgt_core/GenDsp.c **** 
  35:Dsp/widget/wgt_core/GenDsp.c **** GeneralDispalyProc_TypeDef GenDsp_Interface = {
  36:Dsp/widget/wgt_core/GenDsp.c ****     .draw_img = NULL,
  37:Dsp/widget/wgt_core/GenDsp.c ****     .draw_str = GenDsp_DrawStr,
  38:Dsp/widget/wgt_core/GenDsp.c ****     .draw_num = GenDsp_DrawNum,
  39:Dsp/widget/wgt_core/GenDsp.c ****     .draw_line = GenDsp_DrawLen,
  40:Dsp/widget/wgt_core/GenDsp.c ****     .draw_vertical_line = GenDsp_Draw_VLine,
  41:Dsp/widget/wgt_core/GenDsp.c ****     .draw_horizon_line = GenDsp_Draw_HLine,
  42:Dsp/widget/wgt_core/GenDsp.c ****     .str_len = GenDsp_GetStrLen,
  43:Dsp/widget/wgt_core/GenDsp.c ****     .draw_char = GenDsp_DrawChar,
  44:Dsp/widget/wgt_core/GenDsp.c ****     .set_range = GenDsp_SetRange,
  45:Dsp/widget/wgt_core/GenDsp.c ****     .draw_point = GenDsp_DrawPoint,
  46:Dsp/widget/wgt_core/GenDsp.c ****     .draw_circle = GenDsp_DrawCircle,
  47:Dsp/widget/wgt_core/GenDsp.c ****     .draw_rectangle = GenDsp_DrawRectangle,
  48:Dsp/widget/wgt_core/GenDsp.c ****     .draw_radius_rectangle = GenDsp_Draw_RadiusRectangle,
  49:Dsp/widget/wgt_core/GenDsp.c ****     .fill_circle = GenDsp_FillCircle,
  50:Dsp/widget/wgt_core/GenDsp.c ****     .fill_rectangle = GenDsp_FillRectangle,
  51:Dsp/widget/wgt_core/GenDsp.c ****     .fill_radius_rectangle = GenDsp_Fill_RadiusRectangle,
  52:Dsp/widget/wgt_core/GenDsp.c **** };
  53:Dsp/widget/wgt_core/GenDsp.c **** 
  54:Dsp/widget/wgt_core/GenDsp.c **** static void GenDsp_SetRange(int8_t x, int8_t y, uint8_t width, uint8_t height)
  55:Dsp/widget/wgt_core/GenDsp.c **** {
  29              		.loc 1 55 1 view -0
  30              		.cfi_startproc
  31              		@ args = 0, pretend = 0, frame = 0
  32              		@ frame_needed = 0, uses_anonymous_args = 0
  33              		@ link register save eliminated.
  34              		.loc 1 55 1 is_stmt 0 view .LVU1
  35 0000 10B4     		push	{r4}
  36              	.LCFI0:
  37              		.cfi_def_cfa_offset 4
  38              		.cfi_offset 4, -4
  56:Dsp/widget/wgt_core/GenDsp.c ****     DspRange.heigh = height;
  39              		.loc 1 56 5 is_stmt 1 view .LVU2
  40              		.loc 1 56 20 is_stmt 0 view .LVU3
  41 0002 044C     		ldr	r4, .L3
  42 0004 E370     		strb	r3, [r4, #3]
  57:Dsp/widget/wgt_core/GenDsp.c ****     DspRange.width = width;
  43              		.loc 1 57 5 is_stmt 1 view .LVU4
  44              		.loc 1 57 20 is_stmt 0 view .LVU5
  45 0006 A270     		strb	r2, [r4, #2]
  58:Dsp/widget/wgt_core/GenDsp.c ****     DspRange.x = x;
  46              		.loc 1 58 5 is_stmt 1 view .LVU6
  47              		.loc 1 58 16 is_stmt 0 view .LVU7
  48 0008 2070     		strb	r0, [r4]
  59:Dsp/widget/wgt_core/GenDsp.c ****     DspRange.y = y;
  49              		.loc 1 59 5 is_stmt 1 view .LVU8
  50              		.loc 1 59 16 is_stmt 0 view .LVU9
  51 000a 6170     		strb	r1, [r4, #1]
  60:Dsp/widget/wgt_core/GenDsp.c **** }
  52              		.loc 1 60 1 view .LVU10
  53 000c 5DF8044B 		ldr	r4, [sp], #4
  54              	.LCFI1:
  55              		.cfi_restore 4
ARM GAS  C:\Users\97116\AppData\Local\Temp\cchXdEe4.s 			page 3


  56              		.cfi_def_cfa_offset 0
  57 0010 7047     		bx	lr
  58              	.L4:
  59 0012 00BF     		.align	2
  60              	.L3:
  61 0014 00000000 		.word	.LANCHOR0
  62              		.cfi_endproc
  63              	.LFE3:
  65              		.section	.text.GenDsp_DrawPoint,"ax",%progbits
  66              		.align	1
  67              		.syntax unified
  68              		.thumb
  69              		.thumb_func
  70              		.fpu fpv4-sp-d16
  72              	GenDsp_DrawPoint:
  73              	.LVL1:
  74              	.LFB4:
  61:Dsp/widget/wgt_core/GenDsp.c **** 
  62:Dsp/widget/wgt_core/GenDsp.c **** static void GenDsp_DrawPoint(uint8_t **map, int8_t x, int8_t y, bool set)
  63:Dsp/widget/wgt_core/GenDsp.c **** {
  75              		.loc 1 63 1 is_stmt 1 view -0
  76              		.cfi_startproc
  77              		@ args = 0, pretend = 0, frame = 0
  78              		@ frame_needed = 0, uses_anonymous_args = 0
  79              		@ link register save eliminated.
  80              		.loc 1 63 1 is_stmt 0 view .LVU12
  81 0000 10B4     		push	{r4}
  82              	.LCFI2:
  83              		.cfi_def_cfa_offset 4
  84              		.cfi_offset 4, -4
  64:Dsp/widget/wgt_core/GenDsp.c ****     if ((x >= DspRange.width) || (y >= DspRange.heigh))
  85              		.loc 1 64 5 is_stmt 1 view .LVU13
  86              		.loc 1 64 23 is_stmt 0 view .LVU14
  87 0002 0A4C     		ldr	r4, .L9
  88 0004 94F802C0 		ldrb	ip, [r4, #2]	@ zero_extendqisi2
  89              		.loc 1 64 8 view .LVU15
  90 0008 6145     		cmp	r1, ip
  91 000a 07DA     		bge	.L5
  92              		.loc 1 64 48 discriminator 1 view .LVU16
  93 000c E478     		ldrb	r4, [r4, #3]	@ zero_extendqisi2
  94              		.loc 1 64 31 discriminator 1 view .LVU17
  95 000e A242     		cmp	r2, r4
  96 0010 04DA     		bge	.L5
  65:Dsp/widget/wgt_core/GenDsp.c ****         return;
  66:Dsp/widget/wgt_core/GenDsp.c **** 
  67:Dsp/widget/wgt_core/GenDsp.c ****     if (set)
  97              		.loc 1 67 5 is_stmt 1 view .LVU18
  98              		.loc 1 67 8 is_stmt 0 view .LVU19
  99 0012 33B1     		cbz	r3, .L7
  68:Dsp/widget/wgt_core/GenDsp.c ****     {
  69:Dsp/widget/wgt_core/GenDsp.c ****         map[y][x] = 1;
 100              		.loc 1 69 9 is_stmt 1 view .LVU20
 101              		.loc 1 69 12 is_stmt 0 view .LVU21
 102 0014 50F82230 		ldr	r3, [r0, r2, lsl #2]
 103              	.LVL2:
 104              		.loc 1 69 19 view .LVU22
 105 0018 0122     		movs	r2, #1
ARM GAS  C:\Users\97116\AppData\Local\Temp\cchXdEe4.s 			page 4


 106              	.LVL3:
 107              		.loc 1 69 19 view .LVU23
 108 001a 5A54     		strb	r2, [r3, r1]
 109              	.L5:
  70:Dsp/widget/wgt_core/GenDsp.c ****     }
  71:Dsp/widget/wgt_core/GenDsp.c ****     else
  72:Dsp/widget/wgt_core/GenDsp.c ****         map[y][x] = 0;
  73:Dsp/widget/wgt_core/GenDsp.c **** }
 110              		.loc 1 73 1 view .LVU24
 111 001c 5DF8044B 		ldr	r4, [sp], #4
 112              	.LCFI3:
 113              		.cfi_remember_state
 114              		.cfi_restore 4
 115              		.cfi_def_cfa_offset 0
 116 0020 7047     		bx	lr
 117              	.LVL4:
 118              	.L7:
 119              	.LCFI4:
 120              		.cfi_restore_state
  72:Dsp/widget/wgt_core/GenDsp.c **** }
 121              		.loc 1 72 9 is_stmt 1 view .LVU25
  72:Dsp/widget/wgt_core/GenDsp.c **** }
 122              		.loc 1 72 12 is_stmt 0 view .LVU26
 123 0022 50F82230 		ldr	r3, [r0, r2, lsl #2]
 124              	.LVL5:
  72:Dsp/widget/wgt_core/GenDsp.c **** }
 125              		.loc 1 72 19 view .LVU27
 126 0026 0022     		movs	r2, #0
 127              	.LVL6:
  72:Dsp/widget/wgt_core/GenDsp.c **** }
 128              		.loc 1 72 19 view .LVU28
 129 0028 5A54     		strb	r2, [r3, r1]
 130 002a F7E7     		b	.L5
 131              	.L10:
 132              		.align	2
 133              	.L9:
 134 002c 00000000 		.word	.LANCHOR0
 135              		.cfi_endproc
 136              	.LFE4:
 138              		.section	.text.GenDsp_DrawChar,"ax",%progbits
 139              		.align	1
 140              		.syntax unified
 141              		.thumb
 142              		.thumb_func
 143              		.fpu fpv4-sp-d16
 145              	GenDsp_DrawChar:
 146              	.LVL7:
 147              	.LFB5:
  74:Dsp/widget/wgt_core/GenDsp.c **** 
  75:Dsp/widget/wgt_core/GenDsp.c **** static bool GenDsp_DrawChar(GenFont_List font, uint8_t **map, char c, int8_t x, int8_t y, bool col_
  76:Dsp/widget/wgt_core/GenDsp.c **** {
 148              		.loc 1 76 1 is_stmt 1 view -0
 149              		.cfi_startproc
 150              		@ args = 8, pretend = 0, frame = 8
 151              		@ frame_needed = 0, uses_anonymous_args = 0
 152              		.loc 1 76 1 is_stmt 0 view .LVU30
 153 0000 2DE9F04F 		push	{r4, r5, r6, r7, r8, r9, r10, fp, lr}
ARM GAS  C:\Users\97116\AppData\Local\Temp\cchXdEe4.s 			page 5


 154              	.LCFI5:
 155              		.cfi_def_cfa_offset 36
 156              		.cfi_offset 4, -36
 157              		.cfi_offset 5, -32
 158              		.cfi_offset 6, -28
 159              		.cfi_offset 7, -24
 160              		.cfi_offset 8, -20
 161              		.cfi_offset 9, -16
 162              		.cfi_offset 10, -12
 163              		.cfi_offset 11, -8
 164              		.cfi_offset 14, -4
 165 0004 83B0     		sub	sp, sp, #12
 166              	.LCFI6:
 167              		.cfi_def_cfa_offset 48
 168 0006 1F46     		mov	r7, r3
 169 0008 9DF930A0 		ldrsb	r10, [sp, #48]
 170 000c 9DF834B0 		ldrb	fp, [sp, #52]	@ zero_extendqisi2
  77:Dsp/widget/wgt_core/GenDsp.c ****     uint8_t temp;
 171              		.loc 1 77 5 is_stmt 1 view .LVU31
  78:Dsp/widget/wgt_core/GenDsp.c ****     int8_t y0 = y;
 172              		.loc 1 78 5 view .LVU32
 173              	.LVL8:
  79:Dsp/widget/wgt_core/GenDsp.c ****     c -= ' ';
 174              		.loc 1 79 5 view .LVU33
 175              		.loc 1 79 7 is_stmt 0 view .LVU34
 176 0010 203A     		subs	r2, r2, #32
 177              	.LVL9:
 178              		.loc 1 79 7 view .LVU35
 179 0012 D3B2     		uxtb	r3, r2
 180              	.LVL10:
 181              		.loc 1 79 7 view .LVU36
 182 0014 0193     		str	r3, [sp, #4]
 183              	.LVL11:
  80:Dsp/widget/wgt_core/GenDsp.c **** 
  81:Dsp/widget/wgt_core/GenDsp.c ****     if (DspRange.width <= x)
 184              		.loc 1 81 5 is_stmt 1 view .LVU37
 185              		.loc 1 81 17 is_stmt 0 view .LVU38
 186 0016 2F4B     		ldr	r3, .L29
 187 0018 9B78     		ldrb	r3, [r3, #2]	@ zero_extendqisi2
 188              		.loc 1 81 8 view .LVU39
 189 001a BB42     		cmp	r3, r7
 190 001c 54DD     		ble	.L23
 191 001e 8146     		mov	r9, r0
 192 0020 8846     		mov	r8, r1
 193 0022 5446     		mov	r4, r10
 194              	.LBB2:
  82:Dsp/widget/wgt_core/GenDsp.c ****         return false;
  83:Dsp/widget/wgt_core/GenDsp.c **** 
  84:Dsp/widget/wgt_core/GenDsp.c ****     for (uint8_t t = 0; t < font; t++)
 195              		.loc 1 84 18 view .LVU40
 196 0024 0023     		movs	r3, #0
 197 0026 0093     		str	r3, [sp]
 198 0028 3EE0     		b	.L13
 199              	.LVL12:
 200              	.L28:
  85:Dsp/widget/wgt_core/GenDsp.c ****     {
  86:Dsp/widget/wgt_core/GenDsp.c ****         if (font == Font_12)
ARM GAS  C:\Users\97116\AppData\Local\Temp\cchXdEe4.s 			page 6


  87:Dsp/widget/wgt_core/GenDsp.c ****             temp = oled_asc2_1206[c][t];
 201              		.loc 1 87 13 is_stmt 1 view .LVU41
 202              		.loc 1 87 18 is_stmt 0 view .LVU42
 203 002a 019B     		ldr	r3, [sp, #4]
 204 002c 03EB4303 		add	r3, r3, r3, lsl #1
 205 0030 294A     		ldr	r2, .L29+4
 206 0032 02EB8303 		add	r3, r2, r3, lsl #2
 207 0036 009A     		ldr	r2, [sp]
 208 0038 9E5C     		ldrb	r6, [r3, r2]	@ zero_extendqisi2
 209              	.LVL13:
 210              		.loc 1 87 18 view .LVU43
 211 003a 41E0     		b	.L15
 212              	.LVL14:
 213              	.L16:
 214              	.LBB3:
  88:Dsp/widget/wgt_core/GenDsp.c ****         else
  89:Dsp/widget/wgt_core/GenDsp.c ****             temp = oled_asc2_1608[c][t];
  90:Dsp/widget/wgt_core/GenDsp.c **** 
  91:Dsp/widget/wgt_core/GenDsp.c ****         for (uint8_t bit_index = 0; bit_index < FONT_WIDTH; bit_index++)
  92:Dsp/widget/wgt_core/GenDsp.c ****         {
  93:Dsp/widget/wgt_core/GenDsp.c ****             if ((DspRange.x + DspRange.width) <= x)
  94:Dsp/widget/wgt_core/GenDsp.c ****                 return false;
  95:Dsp/widget/wgt_core/GenDsp.c **** 
  96:Dsp/widget/wgt_core/GenDsp.c ****             if (temp & 0x80)
  97:Dsp/widget/wgt_core/GenDsp.c ****                 GenDsp_DrawPoint(map, x, y, col_inv ^ map[y][x]);
  98:Dsp/widget/wgt_core/GenDsp.c ****             else
  99:Dsp/widget/wgt_core/GenDsp.c ****                 GenDsp_DrawPoint(map, x, y, !col_inv ^ map[y][x]);
 215              		.loc 1 99 17 is_stmt 1 view .LVU44
 216              		.loc 1 99 45 is_stmt 0 view .LVU45
 217 003c 8BF00103 		eor	r3, fp, #1
 218              		.loc 1 99 59 view .LVU46
 219 0040 58F82420 		ldr	r2, [r8, r4, lsl #2]
 220              		.loc 1 99 62 view .LVU47
 221 0044 D25D     		ldrb	r2, [r2, r7]	@ zero_extendqisi2
 222              		.loc 1 99 17 view .LVU48
 223 0046 9B1A     		subs	r3, r3, r2
 224 0048 18BF     		it	ne
 225 004a 0123     		movne	r3, #1
 226 004c 2246     		mov	r2, r4
 227 004e 3946     		mov	r1, r7
 228 0050 4046     		mov	r0, r8
 229 0052 FFF7FEFF 		bl	GenDsp_DrawPoint
 230              	.LVL15:
 231              	.L17:
 100:Dsp/widget/wgt_core/GenDsp.c **** 
 101:Dsp/widget/wgt_core/GenDsp.c ****             temp <<= 1;
 232              		.loc 1 101 13 is_stmt 1 view .LVU49
 233              		.loc 1 101 18 is_stmt 0 view .LVU50
 234 0056 7600     		lsls	r6, r6, #1
 235              	.LVL16:
 236              		.loc 1 101 18 view .LVU51
 237 0058 F6B2     		uxtb	r6, r6
 238              	.LVL17:
 102:Dsp/widget/wgt_core/GenDsp.c **** 
 103:Dsp/widget/wgt_core/GenDsp.c ****             y++;
 239              		.loc 1 103 13 is_stmt 1 view .LVU52
 240              		.loc 1 103 14 is_stmt 0 view .LVU53
ARM GAS  C:\Users\97116\AppData\Local\Temp\cchXdEe4.s 			page 7


 241 005a 0134     		adds	r4, r4, #1
 242              	.LVL18:
 243              		.loc 1 103 14 view .LVU54
 244 005c 64B2     		sxtb	r4, r4
 245              	.LVL19:
 104:Dsp/widget/wgt_core/GenDsp.c ****             if ((y - y0) >= font)
 246              		.loc 1 104 13 is_stmt 1 view .LVU55
 247              		.loc 1 104 20 is_stmt 0 view .LVU56
 248 005e A4EB0A03 		sub	r3, r4, r10
 249              		.loc 1 104 16 view .LVU57
 250 0062 4B45     		cmp	r3, r9
 251 0064 19DA     		bge	.L26
  91:Dsp/widget/wgt_core/GenDsp.c ****         {
 252              		.loc 1 91 61 is_stmt 1 discriminator 2 view .LVU58
  91:Dsp/widget/wgt_core/GenDsp.c ****         {
 253              		.loc 1 91 70 is_stmt 0 discriminator 2 view .LVU59
 254 0066 0135     		adds	r5, r5, #1
 255              	.LVL20:
  91:Dsp/widget/wgt_core/GenDsp.c ****         {
 256              		.loc 1 91 70 discriminator 2 view .LVU60
 257 0068 EDB2     		uxtb	r5, r5
 258              	.LVL21:
 259              	.L20:
  91:Dsp/widget/wgt_core/GenDsp.c ****         {
 260              		.loc 1 91 37 is_stmt 1 discriminator 1 view .LVU61
  91:Dsp/widget/wgt_core/GenDsp.c ****         {
 261              		.loc 1 91 9 is_stmt 0 discriminator 1 view .LVU62
 262 006a 072D     		cmp	r5, #7
 263 006c 18D8     		bhi	.L19
  93:Dsp/widget/wgt_core/GenDsp.c ****                 return false;
 264              		.loc 1 93 13 is_stmt 1 view .LVU63
  93:Dsp/widget/wgt_core/GenDsp.c ****                 return false;
 265              		.loc 1 93 26 is_stmt 0 view .LVU64
 266 006e 194A     		ldr	r2, .L29
 267 0070 1378     		ldrb	r3, [r2]	@ zero_extendqisi2
  93:Dsp/widget/wgt_core/GenDsp.c ****                 return false;
 268              		.loc 1 93 39 view .LVU65
 269 0072 9278     		ldrb	r2, [r2, #2]	@ zero_extendqisi2
  93:Dsp/widget/wgt_core/GenDsp.c ****                 return false;
 270              		.loc 1 93 29 view .LVU66
 271 0074 1344     		add	r3, r3, r2
  93:Dsp/widget/wgt_core/GenDsp.c ****                 return false;
 272              		.loc 1 93 16 view .LVU67
 273 0076 BB42     		cmp	r3, r7
 274 0078 28DD     		ble	.L24
  96:Dsp/widget/wgt_core/GenDsp.c ****                 GenDsp_DrawPoint(map, x, y, col_inv ^ map[y][x]);
 275              		.loc 1 96 13 is_stmt 1 view .LVU68
  96:Dsp/widget/wgt_core/GenDsp.c ****                 GenDsp_DrawPoint(map, x, y, col_inv ^ map[y][x]);
 276              		.loc 1 96 16 is_stmt 0 view .LVU69
 277 007a 16F0800F 		tst	r6, #128
 278 007e DDD0     		beq	.L16
  97:Dsp/widget/wgt_core/GenDsp.c ****             else
 279              		.loc 1 97 17 is_stmt 1 view .LVU70
  97:Dsp/widget/wgt_core/GenDsp.c ****             else
 280              		.loc 1 97 58 is_stmt 0 view .LVU71
 281 0080 58F82430 		ldr	r3, [r8, r4, lsl #2]
  97:Dsp/widget/wgt_core/GenDsp.c ****             else
ARM GAS  C:\Users\97116\AppData\Local\Temp\cchXdEe4.s 			page 8


 282              		.loc 1 97 61 view .LVU72
 283 0084 DB5D     		ldrb	r3, [r3, r7]	@ zero_extendqisi2
  97:Dsp/widget/wgt_core/GenDsp.c ****             else
 284              		.loc 1 97 17 view .LVU73
 285 0086 BBEB0303 		subs	r3, fp, r3
 286 008a 18BF     		it	ne
 287 008c 0123     		movne	r3, #1
 288 008e 2246     		mov	r2, r4
 289 0090 3946     		mov	r1, r7
 290 0092 4046     		mov	r0, r8
 291 0094 FFF7FEFF 		bl	GenDsp_DrawPoint
 292              	.LVL22:
 293 0098 DDE7     		b	.L17
 294              	.L26:
 105:Dsp/widget/wgt_core/GenDsp.c ****             {
 106:Dsp/widget/wgt_core/GenDsp.c ****                 y = y0;
 295              		.loc 1 106 17 is_stmt 1 view .LVU74
 296              	.LVL23:
 107:Dsp/widget/wgt_core/GenDsp.c ****                 x++;
 297              		.loc 1 107 17 view .LVU75
 298              		.loc 1 107 18 is_stmt 0 view .LVU76
 299 009a 0137     		adds	r7, r7, #1
 300              	.LVL24:
 301              		.loc 1 107 18 view .LVU77
 302 009c 7FB2     		sxtb	r7, r7
 303              	.LVL25:
 108:Dsp/widget/wgt_core/GenDsp.c **** 
 109:Dsp/widget/wgt_core/GenDsp.c ****                 break;
 304              		.loc 1 109 17 is_stmt 1 view .LVU78
 106:Dsp/widget/wgt_core/GenDsp.c ****                 x++;
 305              		.loc 1 106 19 is_stmt 0 view .LVU79
 306 009e 5446     		mov	r4, r10
 307              	.LVL26:
 308              	.L19:
 106:Dsp/widget/wgt_core/GenDsp.c ****                 x++;
 309              		.loc 1 106 19 view .LVU80
 310              	.LBE3:
  84:Dsp/widget/wgt_core/GenDsp.c ****     {
 311              		.loc 1 84 35 is_stmt 1 discriminator 2 view .LVU81
  84:Dsp/widget/wgt_core/GenDsp.c ****     {
 312              		.loc 1 84 36 is_stmt 0 discriminator 2 view .LVU82
 313 00a0 009B     		ldr	r3, [sp]
 314 00a2 0133     		adds	r3, r3, #1
 315 00a4 DBB2     		uxtb	r3, r3
 316 00a6 0093     		str	r3, [sp]
 317              	.LVL27:
 318              	.L13:
  84:Dsp/widget/wgt_core/GenDsp.c ****     {
 319              		.loc 1 84 25 is_stmt 1 discriminator 1 view .LVU83
  84:Dsp/widget/wgt_core/GenDsp.c ****     {
 320              		.loc 1 84 5 is_stmt 0 discriminator 1 view .LVU84
 321 00a8 009B     		ldr	r3, [sp]
 322 00aa 4B45     		cmp	r3, r9
 323 00ac 0AD2     		bcs	.L27
  86:Dsp/widget/wgt_core/GenDsp.c ****             temp = oled_asc2_1206[c][t];
 324              		.loc 1 86 9 is_stmt 1 view .LVU85
  86:Dsp/widget/wgt_core/GenDsp.c ****             temp = oled_asc2_1206[c][t];
ARM GAS  C:\Users\97116\AppData\Local\Temp\cchXdEe4.s 			page 9


 325              		.loc 1 86 12 is_stmt 0 view .LVU86
 326 00ae B9F10C0F 		cmp	r9, #12
 327 00b2 BAD0     		beq	.L28
  89:Dsp/widget/wgt_core/GenDsp.c **** 
 328              		.loc 1 89 13 is_stmt 1 view .LVU87
  89:Dsp/widget/wgt_core/GenDsp.c **** 
 329              		.loc 1 89 18 is_stmt 0 view .LVU88
 330 00b4 094B     		ldr	r3, .L29+8
 331 00b6 019A     		ldr	r2, [sp, #4]
 332 00b8 03EB0213 		add	r3, r3, r2, lsl #4
 333 00bc 009A     		ldr	r2, [sp]
 334 00be 9E5C     		ldrb	r6, [r3, r2]	@ zero_extendqisi2
 335              	.LVL28:
 336              	.L15:
  89:Dsp/widget/wgt_core/GenDsp.c **** 
 337              		.loc 1 89 18 view .LVU89
 338              	.LBE2:
  76:Dsp/widget/wgt_core/GenDsp.c ****     uint8_t temp;
 339              		.loc 1 76 1 discriminator 1 view .LVU90
 340 00c0 0025     		movs	r5, #0
 341 00c2 D2E7     		b	.L20
 342              	.LVL29:
 343              	.L27:
 110:Dsp/widget/wgt_core/GenDsp.c ****             }
 111:Dsp/widget/wgt_core/GenDsp.c ****         }
 112:Dsp/widget/wgt_core/GenDsp.c ****     }
 113:Dsp/widget/wgt_core/GenDsp.c **** 
 114:Dsp/widget/wgt_core/GenDsp.c ****     return true;
 344              		.loc 1 114 12 view .LVU91
 345 00c4 0120     		movs	r0, #1
 346              	.LBB5:
 347 00c6 02E0     		b	.L12
 348              	.LVL30:
 349              	.L23:
 350              		.loc 1 114 12 view .LVU92
 351              	.LBE5:
  82:Dsp/widget/wgt_core/GenDsp.c **** 
 352              		.loc 1 82 16 view .LVU93
 353 00c8 0020     		movs	r0, #0
 354              	.LVL31:
  82:Dsp/widget/wgt_core/GenDsp.c **** 
 355              		.loc 1 82 16 view .LVU94
 356 00ca 00E0     		b	.L12
 357              	.LVL32:
 358              	.L24:
 359              	.LBB6:
 360              	.LBB4:
  94:Dsp/widget/wgt_core/GenDsp.c **** 
 361              		.loc 1 94 24 view .LVU95
 362 00cc 0020     		movs	r0, #0
 363              	.LVL33:
 364              	.L12:
  94:Dsp/widget/wgt_core/GenDsp.c **** 
 365              		.loc 1 94 24 view .LVU96
 366              	.LBE4:
 367              	.LBE6:
 115:Dsp/widget/wgt_core/GenDsp.c **** }
ARM GAS  C:\Users\97116\AppData\Local\Temp\cchXdEe4.s 			page 10


 368              		.loc 1 115 1 view .LVU97
 369 00ce 03B0     		add	sp, sp, #12
 370              	.LCFI7:
 371              		.cfi_def_cfa_offset 36
 372              		@ sp needed
 373 00d0 BDE8F08F 		pop	{r4, r5, r6, r7, r8, r9, r10, fp, pc}
 374              	.LVL34:
 375              	.L30:
 376              		.loc 1 115 1 view .LVU98
 377              		.align	2
 378              	.L29:
 379 00d4 00000000 		.word	.LANCHOR0
 380 00d8 00000000 		.word	oled_asc2_1206
 381 00dc 00000000 		.word	oled_asc2_1608
 382              		.cfi_endproc
 383              	.LFE5:
 385              		.section	.text.GenDsp_DrawStr,"ax",%progbits
 386              		.align	1
 387              		.syntax unified
 388              		.thumb
 389              		.thumb_func
 390              		.fpu fpv4-sp-d16
 392              	GenDsp_DrawStr:
 393              	.LVL35:
 394              	.LFB6:
 116:Dsp/widget/wgt_core/GenDsp.c **** 
 117:Dsp/widget/wgt_core/GenDsp.c **** static void GenDsp_DrawStr(GenFont_List font, uint8_t **map, char *str, int8_t x, int8_t y, bool co
 118:Dsp/widget/wgt_core/GenDsp.c **** {
 395              		.loc 1 118 1 is_stmt 1 view -0
 396              		.cfi_startproc
 397              		@ args = 8, pretend = 0, frame = 0
 398              		@ frame_needed = 0, uses_anonymous_args = 0
 399              		.loc 1 118 1 is_stmt 0 view .LVU100
 400 0000 2DE9F043 		push	{r4, r5, r6, r7, r8, r9, lr}
 401              	.LCFI8:
 402              		.cfi_def_cfa_offset 28
 403              		.cfi_offset 4, -28
 404              		.cfi_offset 5, -24
 405              		.cfi_offset 6, -20
 406              		.cfi_offset 7, -16
 407              		.cfi_offset 8, -12
 408              		.cfi_offset 9, -8
 409              		.cfi_offset 14, -4
 410 0004 83B0     		sub	sp, sp, #12
 411              	.LCFI9:
 412              		.cfi_def_cfa_offset 40
 413 0006 0746     		mov	r7, r0
 414 0008 0E46     		mov	r6, r1
 415 000a 1546     		mov	r5, r2
 416 000c 1C46     		mov	r4, r3
 417 000e 9DF92890 		ldrsb	r9, [sp, #40]
 418 0012 9DF82C80 		ldrb	r8, [sp, #44]	@ zero_extendqisi2
 119:Dsp/widget/wgt_core/GenDsp.c ****     while (*str != '\0')
 419              		.loc 1 119 5 is_stmt 1 view .LVU101
 420              		.loc 1 119 11 is_stmt 0 view .LVU102
 421 0016 02E0     		b	.L32
 422              	.LVL36:
ARM GAS  C:\Users\97116\AppData\Local\Temp\cchXdEe4.s 			page 11


 423              	.L36:
 120:Dsp/widget/wgt_core/GenDsp.c ****     {
 121:Dsp/widget/wgt_core/GenDsp.c ****         if (GenDsp_DrawChar(font, map, *str, x, y, col_inv))
 122:Dsp/widget/wgt_core/GenDsp.c ****         {
 123:Dsp/widget/wgt_core/GenDsp.c ****             x += FONT_WIDTH;
 424              		.loc 1 123 13 is_stmt 1 view .LVU103
 425              		.loc 1 123 15 is_stmt 0 view .LVU104
 426 0018 0834     		adds	r4, r4, #8
 427              	.LVL37:
 428              		.loc 1 123 15 view .LVU105
 429 001a 64B2     		sxtb	r4, r4
 430              	.LVL38:
 124:Dsp/widget/wgt_core/GenDsp.c ****             str++;
 431              		.loc 1 124 13 is_stmt 1 view .LVU106
 432              		.loc 1 124 16 is_stmt 0 view .LVU107
 433 001c 0135     		adds	r5, r5, #1
 434              	.LVL39:
 435              	.L32:
 119:Dsp/widget/wgt_core/GenDsp.c ****     while (*str != '\0')
 436              		.loc 1 119 11 is_stmt 1 view .LVU108
 119:Dsp/widget/wgt_core/GenDsp.c ****     while (*str != '\0')
 437              		.loc 1 119 12 is_stmt 0 view .LVU109
 438 001e 2A78     		ldrb	r2, [r5]	@ zero_extendqisi2
 119:Dsp/widget/wgt_core/GenDsp.c ****     while (*str != '\0')
 439              		.loc 1 119 11 view .LVU110
 440 0020 52B1     		cbz	r2, .L31
 121:Dsp/widget/wgt_core/GenDsp.c ****         {
 441              		.loc 1 121 9 is_stmt 1 view .LVU111
 121:Dsp/widget/wgt_core/GenDsp.c ****         {
 442              		.loc 1 121 13 is_stmt 0 view .LVU112
 443 0022 CDF80480 		str	r8, [sp, #4]
 444 0026 CDF80090 		str	r9, [sp]
 445 002a 2346     		mov	r3, r4
 446 002c 3146     		mov	r1, r6
 447 002e 3846     		mov	r0, r7
 448 0030 FFF7FEFF 		bl	GenDsp_DrawChar
 449              	.LVL40:
 121:Dsp/widget/wgt_core/GenDsp.c ****         {
 450              		.loc 1 121 12 view .LVU113
 451 0034 0028     		cmp	r0, #0
 452 0036 EFD1     		bne	.L36
 453              	.L31:
 125:Dsp/widget/wgt_core/GenDsp.c ****         }
 126:Dsp/widget/wgt_core/GenDsp.c ****         else
 127:Dsp/widget/wgt_core/GenDsp.c ****             break;
 128:Dsp/widget/wgt_core/GenDsp.c ****     }
 129:Dsp/widget/wgt_core/GenDsp.c **** }
 454              		.loc 1 129 1 view .LVU114
 455 0038 03B0     		add	sp, sp, #12
 456              	.LCFI10:
 457              		.cfi_def_cfa_offset 28
 458              		@ sp needed
 459 003a BDE8F083 		pop	{r4, r5, r6, r7, r8, r9, pc}
 460              		.loc 1 129 1 view .LVU115
 461              		.cfi_endproc
 462              	.LFE6:
 464              		.section	.text.GenDsp_GetStrLen,"ax",%progbits
ARM GAS  C:\Users\97116\AppData\Local\Temp\cchXdEe4.s 			page 12


 465              		.align	1
 466              		.syntax unified
 467              		.thumb
 468              		.thumb_func
 469              		.fpu fpv4-sp-d16
 471              	GenDsp_GetStrLen:
 472              	.LVL41:
 473              	.LFB8:
 130:Dsp/widget/wgt_core/GenDsp.c **** 
 131:Dsp/widget/wgt_core/GenDsp.c **** static void GenDsp_DrawNum(GenFont_List font, uint8_t **map, uint32_t num, int8_t x, int8_t y, bool
 132:Dsp/widget/wgt_core/GenDsp.c **** {
 133:Dsp/widget/wgt_core/GenDsp.c ****     char num_buff[MAX_DSP_NUM_LEN];
 134:Dsp/widget/wgt_core/GenDsp.c **** 
 135:Dsp/widget/wgt_core/GenDsp.c ****     sprintf(num_buff, "%d", num);
 136:Dsp/widget/wgt_core/GenDsp.c ****     GenDsp_DrawStr(font, map, num_buff, x, y, col_inv);
 137:Dsp/widget/wgt_core/GenDsp.c **** }
 138:Dsp/widget/wgt_core/GenDsp.c **** 
 139:Dsp/widget/wgt_core/GenDsp.c **** static uint8_t GenDsp_GetStrLen(GenFont_List font, char *str)
 140:Dsp/widget/wgt_core/GenDsp.c **** {
 474              		.loc 1 140 1 is_stmt 1 view -0
 475              		.cfi_startproc
 476              		@ args = 0, pretend = 0, frame = 0
 477              		@ frame_needed = 0, uses_anonymous_args = 0
 478              		@ link register save eliminated.
 141:Dsp/widget/wgt_core/GenDsp.c ****     uint8_t len = 0;
 479              		.loc 1 141 5 view .LVU117
 142:Dsp/widget/wgt_core/GenDsp.c **** 
 143:Dsp/widget/wgt_core/GenDsp.c ****     while (*str != '\0')
 480              		.loc 1 143 5 view .LVU118
 141:Dsp/widget/wgt_core/GenDsp.c ****     uint8_t len = 0;
 481              		.loc 1 141 13 is_stmt 0 view .LVU119
 482 0000 0020     		movs	r0, #0
 483              	.LVL42:
 484              		.loc 1 143 11 view .LVU120
 485 0002 02E0     		b	.L38
 486              	.LVL43:
 487              	.L39:
 144:Dsp/widget/wgt_core/GenDsp.c ****     {
 145:Dsp/widget/wgt_core/GenDsp.c ****         len += FONT_WIDTH;
 488              		.loc 1 145 9 is_stmt 1 view .LVU121
 489              		.loc 1 145 13 is_stmt 0 view .LVU122
 490 0004 0830     		adds	r0, r0, #8
 491              	.LVL44:
 492              		.loc 1 145 13 view .LVU123
 493 0006 C0B2     		uxtb	r0, r0
 494              	.LVL45:
 146:Dsp/widget/wgt_core/GenDsp.c ****         str++;
 495              		.loc 1 146 9 is_stmt 1 view .LVU124
 496              		.loc 1 146 12 is_stmt 0 view .LVU125
 497 0008 0131     		adds	r1, r1, #1
 498              	.LVL46:
 499              	.L38:
 143:Dsp/widget/wgt_core/GenDsp.c ****     {
 500              		.loc 1 143 11 is_stmt 1 view .LVU126
 143:Dsp/widget/wgt_core/GenDsp.c ****     {
 501              		.loc 1 143 12 is_stmt 0 view .LVU127
 502 000a 0B78     		ldrb	r3, [r1]	@ zero_extendqisi2
ARM GAS  C:\Users\97116\AppData\Local\Temp\cchXdEe4.s 			page 13


 143:Dsp/widget/wgt_core/GenDsp.c ****     {
 503              		.loc 1 143 11 view .LVU128
 504 000c 002B     		cmp	r3, #0
 505 000e F9D1     		bne	.L39
 147:Dsp/widget/wgt_core/GenDsp.c ****     }
 148:Dsp/widget/wgt_core/GenDsp.c **** 
 149:Dsp/widget/wgt_core/GenDsp.c ****     return len;
 506              		.loc 1 149 5 is_stmt 1 view .LVU129
 150:Dsp/widget/wgt_core/GenDsp.c **** }
 507              		.loc 1 150 1 is_stmt 0 view .LVU130
 508 0010 7047     		bx	lr
 509              		.cfi_endproc
 510              	.LFE8:
 512              		.section	.text.GenDsp_DrawLen,"ax",%progbits
 513              		.align	1
 514              		.syntax unified
 515              		.thumb
 516              		.thumb_func
 517              		.fpu fpv4-sp-d16
 519              	GenDsp_DrawLen:
 520              	.LVL47:
 521              	.LFB9:
 151:Dsp/widget/wgt_core/GenDsp.c **** 
 152:Dsp/widget/wgt_core/GenDsp.c **** static void GenDsp_DrawLen(uint8_t **map, int8_t start_x, int8_t start_y, int8_t end_x, int8_t end_
 153:Dsp/widget/wgt_core/GenDsp.c **** {
 522              		.loc 1 153 1 is_stmt 1 view -0
 523              		.cfi_startproc
 524              		@ args = 8, pretend = 0, frame = 16
 525              		@ frame_needed = 0, uses_anonymous_args = 0
 526              		.loc 1 153 1 is_stmt 0 view .LVU132
 527 0000 2DE9F04F 		push	{r4, r5, r6, r7, r8, r9, r10, fp, lr}
 528              	.LCFI11:
 529              		.cfi_def_cfa_offset 36
 530              		.cfi_offset 4, -36
 531              		.cfi_offset 5, -32
 532              		.cfi_offset 6, -28
 533              		.cfi_offset 7, -24
 534              		.cfi_offset 8, -20
 535              		.cfi_offset 9, -16
 536              		.cfi_offset 10, -12
 537              		.cfi_offset 11, -8
 538              		.cfi_offset 14, -4
 539 0004 85B0     		sub	sp, sp, #20
 540              	.LCFI12:
 541              		.cfi_def_cfa_offset 56
 542 0006 0190     		str	r0, [sp, #4]
 543 0008 8846     		mov	r8, r1
 544 000a 9146     		mov	r9, r2
 154:Dsp/widget/wgt_core/GenDsp.c ****     int8_t xerr = 0;
 545              		.loc 1 154 5 is_stmt 1 view .LVU133
 546              	.LVL48:
 155:Dsp/widget/wgt_core/GenDsp.c ****     int8_t yerr = 0;
 547              		.loc 1 155 5 view .LVU134
 156:Dsp/widget/wgt_core/GenDsp.c ****     int8_t delta_x = end_x - start_x;
 548              		.loc 1 156 5 view .LVU135
 549              		.loc 1 156 28 is_stmt 0 view .LVU136
 550 000c DBB2     		uxtb	r3, r3
ARM GAS  C:\Users\97116\AppData\Local\Temp\cchXdEe4.s 			page 14


 551              		.loc 1 156 28 view .LVU137
 552 000e C9B2     		uxtb	r1, r1
 553              		.loc 1 156 28 view .LVU138
 554 0010 A3EB010A 		sub	r10, r3, r1
 555              		.loc 1 156 12 view .LVU139
 556 0014 4FFA8AFA 		sxtb	r10, r10
 557              	.LVL49:
 157:Dsp/widget/wgt_core/GenDsp.c ****     int8_t delta_y = end_y - start_y;
 558              		.loc 1 157 5 is_stmt 1 view .LVU140
 559              		.loc 1 157 28 is_stmt 0 view .LVU141
 560 0018 9DF83800 		ldrb	r0, [sp, #56]	@ zero_extendqisi2
 561              	.LVL50:
 562              		.loc 1 157 28 view .LVU142
 563 001c D2B2     		uxtb	r2, r2
 564              		.loc 1 157 28 view .LVU143
 565 001e A0EB020B 		sub	fp, r0, r2
 566              		.loc 1 157 12 view .LVU144
 567 0022 4FFA8BFB 		sxtb	fp, fp
 568              	.LVL51:
 158:Dsp/widget/wgt_core/GenDsp.c ****     int16_t distance;
 569              		.loc 1 158 5 is_stmt 1 view .LVU145
 159:Dsp/widget/wgt_core/GenDsp.c ****     int8_t uRow = start_x;
 570              		.loc 1 159 5 view .LVU146
 160:Dsp/widget/wgt_core/GenDsp.c ****     int8_t uCol = start_y;
 571              		.loc 1 160 5 view .LVU147
 161:Dsp/widget/wgt_core/GenDsp.c **** 
 162:Dsp/widget/wgt_core/GenDsp.c ****     int8_t incx, incy;
 572              		.loc 1 162 5 view .LVU148
 163:Dsp/widget/wgt_core/GenDsp.c **** 
 164:Dsp/widget/wgt_core/GenDsp.c ****     if (delta_x > 0)
 573              		.loc 1 164 5 view .LVU149
 574              		.loc 1 164 8 is_stmt 0 view .LVU150
 575 0026 BAF1000F 		cmp	r10, #0
 576 002a 0EDD     		ble	.L54
 165:Dsp/widget/wgt_core/GenDsp.c ****     {
 166:Dsp/widget/wgt_core/GenDsp.c ****         incx = 1;
 577              		.loc 1 166 14 view .LVU151
 578 002c 0123     		movs	r3, #1
 579              	.LVL52:
 580              		.loc 1 166 14 view .LVU152
 581 002e 0293     		str	r3, [sp, #8]
 582              	.L41:
 583              	.LVL53:
 167:Dsp/widget/wgt_core/GenDsp.c ****     }
 168:Dsp/widget/wgt_core/GenDsp.c ****     else if (delta_x == 0)
 169:Dsp/widget/wgt_core/GenDsp.c ****     {
 170:Dsp/widget/wgt_core/GenDsp.c ****         incx = 0;
 171:Dsp/widget/wgt_core/GenDsp.c ****     }
 172:Dsp/widget/wgt_core/GenDsp.c ****     else
 173:Dsp/widget/wgt_core/GenDsp.c ****     {
 174:Dsp/widget/wgt_core/GenDsp.c ****         incx = -1;
 175:Dsp/widget/wgt_core/GenDsp.c ****         delta_x = -delta_x;
 176:Dsp/widget/wgt_core/GenDsp.c ****     }
 177:Dsp/widget/wgt_core/GenDsp.c **** 
 178:Dsp/widget/wgt_core/GenDsp.c ****     if (delta_y > 0)
 584              		.loc 1 178 5 is_stmt 1 view .LVU153
 585              		.loc 1 178 8 is_stmt 0 view .LVU154
ARM GAS  C:\Users\97116\AppData\Local\Temp\cchXdEe4.s 			page 15


 586 0030 BBF1000F 		cmp	fp, #0
 587 0034 16DD     		ble	.L55
 179:Dsp/widget/wgt_core/GenDsp.c ****     {
 180:Dsp/widget/wgt_core/GenDsp.c ****         incy = 1;
 588              		.loc 1 180 14 view .LVU155
 589 0036 0123     		movs	r3, #1
 590 0038 0393     		str	r3, [sp, #12]
 591              	.LVL54:
 592              	.L42:
 181:Dsp/widget/wgt_core/GenDsp.c ****     }
 182:Dsp/widget/wgt_core/GenDsp.c ****     else if (delta_y == 0)
 183:Dsp/widget/wgt_core/GenDsp.c ****     {
 184:Dsp/widget/wgt_core/GenDsp.c ****         incy = 0;
 185:Dsp/widget/wgt_core/GenDsp.c ****     }
 186:Dsp/widget/wgt_core/GenDsp.c ****     else
 187:Dsp/widget/wgt_core/GenDsp.c ****     {
 188:Dsp/widget/wgt_core/GenDsp.c ****         incy = -1;
 189:Dsp/widget/wgt_core/GenDsp.c ****         delta_y = -delta_y;
 190:Dsp/widget/wgt_core/GenDsp.c ****     }
 191:Dsp/widget/wgt_core/GenDsp.c **** 
 192:Dsp/widget/wgt_core/GenDsp.c ****     if (delta_x > delta_y)
 593              		.loc 1 192 5 is_stmt 1 view .LVU156
 594              		.loc 1 192 8 is_stmt 0 view .LVU157
 595 003a DA45     		cmp	r10, fp
 596 003c 1FDD     		ble	.L43
 193:Dsp/widget/wgt_core/GenDsp.c ****     {
 194:Dsp/widget/wgt_core/GenDsp.c ****         distance = delta_x;
 597              		.loc 1 194 9 is_stmt 1 view .LVU158
 598              		.loc 1 194 18 is_stmt 0 view .LVU159
 599 003e 0FFA8AF7 		sxth	r7, r10
 600              	.LVL55:
 601              	.L44:
 195:Dsp/widget/wgt_core/GenDsp.c ****     }
 196:Dsp/widget/wgt_core/GenDsp.c ****     else
 197:Dsp/widget/wgt_core/GenDsp.c ****     {
 198:Dsp/widget/wgt_core/GenDsp.c ****         distance = delta_y;
 199:Dsp/widget/wgt_core/GenDsp.c ****     }
 200:Dsp/widget/wgt_core/GenDsp.c **** 
 201:Dsp/widget/wgt_core/GenDsp.c ****     for (uint8_t t = 0; t < distance + 1; t++)
 602              		.loc 1 201 5 is_stmt 1 view .LVU160
 603              	.LBB7:
 604              		.loc 1 201 10 view .LVU161
 605              		.loc 1 201 18 is_stmt 0 view .LVU162
 606 0042 0026     		movs	r6, #0
 607              	.LBE7:
 155:Dsp/widget/wgt_core/GenDsp.c ****     int8_t delta_x = end_x - start_x;
 608              		.loc 1 155 12 view .LVU163
 609 0044 3546     		mov	r5, r6
 154:Dsp/widget/wgt_core/GenDsp.c ****     int8_t yerr = 0;
 610              		.loc 1 154 12 view .LVU164
 611 0046 3446     		mov	r4, r6
 612              	.LBB8:
 613              		.loc 1 201 5 view .LVU165
 614 0048 1EE0     		b	.L45
 615              	.LVL56:
 616              	.L54:
 617              		.loc 1 201 5 view .LVU166
ARM GAS  C:\Users\97116\AppData\Local\Temp\cchXdEe4.s 			page 16


 618              	.LBE8:
 168:Dsp/widget/wgt_core/GenDsp.c ****     {
 619              		.loc 1 168 10 is_stmt 1 view .LVU167
 168:Dsp/widget/wgt_core/GenDsp.c ****     {
 620              		.loc 1 168 13 is_stmt 0 view .LVU168
 621 004a BAF1000F 		cmp	r10, #0
 622 004e 06D0     		beq	.L50
 174:Dsp/widget/wgt_core/GenDsp.c ****         delta_x = -delta_x;
 623              		.loc 1 174 9 is_stmt 1 view .LVU169
 624              	.LVL57:
 175:Dsp/widget/wgt_core/GenDsp.c ****     }
 625              		.loc 1 175 9 view .LVU170
 175:Dsp/widget/wgt_core/GenDsp.c ****     }
 626              		.loc 1 175 17 is_stmt 0 view .LVU171
 627 0050 CB1A     		subs	r3, r1, r3
 628 0052 4FFA83FA 		sxtb	r10, r3
 629              	.LVL58:
 174:Dsp/widget/wgt_core/GenDsp.c ****         delta_x = -delta_x;
 630              		.loc 1 174 14 view .LVU172
 631 0056 4FF0FF33 		mov	r3, #-1
 632 005a 0293     		str	r3, [sp, #8]
 633 005c E8E7     		b	.L41
 634              	.LVL59:
 635              	.L50:
 170:Dsp/widget/wgt_core/GenDsp.c ****     }
 636              		.loc 1 170 14 view .LVU173
 637 005e CDF808A0 		str	r10, [sp, #8]
 638 0062 E5E7     		b	.L41
 639              	.LVL60:
 640              	.L55:
 182:Dsp/widget/wgt_core/GenDsp.c ****     {
 641              		.loc 1 182 10 is_stmt 1 view .LVU174
 182:Dsp/widget/wgt_core/GenDsp.c ****     {
 642              		.loc 1 182 13 is_stmt 0 view .LVU175
 643 0064 BBF1000F 		cmp	fp, #0
 644 0068 06D0     		beq	.L52
 188:Dsp/widget/wgt_core/GenDsp.c ****         delta_y = -delta_y;
 645              		.loc 1 188 9 is_stmt 1 view .LVU176
 646              	.LVL61:
 189:Dsp/widget/wgt_core/GenDsp.c ****     }
 647              		.loc 1 189 9 view .LVU177
 189:Dsp/widget/wgt_core/GenDsp.c ****     }
 648              		.loc 1 189 17 is_stmt 0 view .LVU178
 649 006a 121A     		subs	r2, r2, r0
 650 006c 4FFA82FB 		sxtb	fp, r2
 651              	.LVL62:
 188:Dsp/widget/wgt_core/GenDsp.c ****         delta_y = -delta_y;
 652              		.loc 1 188 14 view .LVU179
 653 0070 4FF0FF33 		mov	r3, #-1
 654 0074 0393     		str	r3, [sp, #12]
 655 0076 E0E7     		b	.L42
 656              	.LVL63:
 657              	.L52:
 184:Dsp/widget/wgt_core/GenDsp.c ****     }
 658              		.loc 1 184 14 view .LVU180
 659 0078 CDF80CB0 		str	fp, [sp, #12]
 660 007c DDE7     		b	.L42
ARM GAS  C:\Users\97116\AppData\Local\Temp\cchXdEe4.s 			page 17


 661              	.LVL64:
 662              	.L43:
 198:Dsp/widget/wgt_core/GenDsp.c ****     }
 663              		.loc 1 198 9 is_stmt 1 view .LVU181
 198:Dsp/widget/wgt_core/GenDsp.c ****     }
 664              		.loc 1 198 18 is_stmt 0 view .LVU182
 665 007e 0FFA8BF7 		sxth	r7, fp
 666              	.LVL65:
 198:Dsp/widget/wgt_core/GenDsp.c ****     }
 667              		.loc 1 198 18 view .LVU183
 668 0082 DEE7     		b	.L44
 669              	.LVL66:
 670              	.L47:
 671              	.LBB9:
 672              		.loc 1 201 43 is_stmt 1 discriminator 2 view .LVU184
 673              		.loc 1 201 44 is_stmt 0 discriminator 2 view .LVU185
 674 0084 0136     		adds	r6, r6, #1
 675              	.LVL67:
 676              		.loc 1 201 44 discriminator 2 view .LVU186
 677 0086 F6B2     		uxtb	r6, r6
 678              	.LVL68:
 679              	.L45:
 680              		.loc 1 201 25 is_stmt 1 discriminator 1 view .LVU187
 681              		.loc 1 201 5 is_stmt 0 discriminator 1 view .LVU188
 682 0088 B742     		cmp	r7, r6
 683 008a 1EDB     		blt	.L56
 202:Dsp/widget/wgt_core/GenDsp.c ****     {
 203:Dsp/widget/wgt_core/GenDsp.c ****         GenDsp_DrawPoint(map, uRow, uCol, true);
 684              		.loc 1 203 9 is_stmt 1 view .LVU189
 685 008c 0123     		movs	r3, #1
 686 008e 4A46     		mov	r2, r9
 687 0090 4146     		mov	r1, r8
 688 0092 0198     		ldr	r0, [sp, #4]
 689 0094 FFF7FEFF 		bl	GenDsp_DrawPoint
 690              	.LVL69:
 204:Dsp/widget/wgt_core/GenDsp.c **** 
 205:Dsp/widget/wgt_core/GenDsp.c ****         xerr += delta_x;
 691              		.loc 1 205 9 view .LVU190
 692              		.loc 1 205 14 is_stmt 0 view .LVU191
 693 0098 5444     		add	r4, r4, r10
 694              	.LVL70:
 695              		.loc 1 205 14 view .LVU192
 696 009a E2B2     		uxtb	r2, r4
 697 009c 64B2     		sxtb	r4, r4
 698              	.LVL71:
 206:Dsp/widget/wgt_core/GenDsp.c ****         yerr += delta_y;
 699              		.loc 1 206 9 is_stmt 1 view .LVU193
 700              		.loc 1 206 14 is_stmt 0 view .LVU194
 701 009e 5D44     		add	r5, r5, fp
 702              	.LVL72:
 703              		.loc 1 206 14 view .LVU195
 704 00a0 EBB2     		uxtb	r3, r5
 705 00a2 6DB2     		sxtb	r5, r5
 706              	.LVL73:
 207:Dsp/widget/wgt_core/GenDsp.c **** 
 208:Dsp/widget/wgt_core/GenDsp.c ****         if (xerr >= distance)
 707              		.loc 1 208 9 is_stmt 1 view .LVU196
ARM GAS  C:\Users\97116\AppData\Local\Temp\cchXdEe4.s 			page 18


 708              		.loc 1 208 18 is_stmt 0 view .LVU197
 709 00a4 21B2     		sxth	r1, r4
 710              		.loc 1 208 12 view .LVU198
 711 00a6 B942     		cmp	r1, r7
 712 00a8 05DB     		blt	.L46
 209:Dsp/widget/wgt_core/GenDsp.c ****         {
 210:Dsp/widget/wgt_core/GenDsp.c ****             xerr -= distance;
 713              		.loc 1 210 13 is_stmt 1 view .LVU199
 714              		.loc 1 210 18 is_stmt 0 view .LVU200
 715 00aa D21B     		subs	r2, r2, r7
 716 00ac 54B2     		sxtb	r4, r2
 717              	.LVL74:
 211:Dsp/widget/wgt_core/GenDsp.c ****             uRow += incx;
 718              		.loc 1 211 13 is_stmt 1 view .LVU201
 719              		.loc 1 211 18 is_stmt 0 view .LVU202
 720 00ae 029A     		ldr	r2, [sp, #8]
 721 00b0 9044     		add	r8, r8, r2
 722              	.LVL75:
 723              		.loc 1 211 18 view .LVU203
 724 00b2 4FFA88F8 		sxtb	r8, r8
 725              	.LVL76:
 726              	.L46:
 212:Dsp/widget/wgt_core/GenDsp.c ****         }
 213:Dsp/widget/wgt_core/GenDsp.c ****         if (yerr >= distance)
 727              		.loc 1 213 9 is_stmt 1 view .LVU204
 728              		.loc 1 213 18 is_stmt 0 view .LVU205
 729 00b6 2AB2     		sxth	r2, r5
 730              		.loc 1 213 12 view .LVU206
 731 00b8 BA42     		cmp	r2, r7
 732 00ba E3DB     		blt	.L47
 214:Dsp/widget/wgt_core/GenDsp.c ****         {
 215:Dsp/widget/wgt_core/GenDsp.c ****             yerr -= distance;
 733              		.loc 1 215 13 is_stmt 1 view .LVU207
 734              		.loc 1 215 18 is_stmt 0 view .LVU208
 735 00bc DB1B     		subs	r3, r3, r7
 736 00be 5DB2     		sxtb	r5, r3
 737              	.LVL77:
 216:Dsp/widget/wgt_core/GenDsp.c ****             uCol += incy;
 738              		.loc 1 216 13 is_stmt 1 view .LVU209
 739              		.loc 1 216 18 is_stmt 0 view .LVU210
 740 00c0 039B     		ldr	r3, [sp, #12]
 741 00c2 9944     		add	r9, r9, r3
 742              	.LVL78:
 743              		.loc 1 216 18 view .LVU211
 744 00c4 4FFA89F9 		sxtb	r9, r9
 745              	.LVL79:
 746              		.loc 1 216 18 view .LVU212
 747 00c8 DCE7     		b	.L47
 748              	.L56:
 749              		.loc 1 216 18 view .LVU213
 750              	.LBE9:
 217:Dsp/widget/wgt_core/GenDsp.c ****         }
 218:Dsp/widget/wgt_core/GenDsp.c ****     }
 219:Dsp/widget/wgt_core/GenDsp.c **** }
 751              		.loc 1 219 1 view .LVU214
 752 00ca 05B0     		add	sp, sp, #20
 753              	.LCFI13:
ARM GAS  C:\Users\97116\AppData\Local\Temp\cchXdEe4.s 			page 19


 754              		.cfi_def_cfa_offset 36
 755              		@ sp needed
 756 00cc BDE8F08F 		pop	{r4, r5, r6, r7, r8, r9, r10, fp, pc}
 757              		.loc 1 219 1 view .LVU215
 758              		.cfi_endproc
 759              	.LFE9:
 761              		.section	.text.GenDsp_Draw_VLine,"ax",%progbits
 762              		.align	1
 763              		.syntax unified
 764              		.thumb
 765              		.thumb_func
 766              		.fpu fpv4-sp-d16
 768              	GenDsp_Draw_VLine:
 769              	.LVL80:
 770              	.LFB10:
 220:Dsp/widget/wgt_core/GenDsp.c **** 
 221:Dsp/widget/wgt_core/GenDsp.c **** static void GenDsp_Draw_VLine(uint8_t **map, int8_t x, int8_t y, uint8_t len, uint8_t line_width)
 222:Dsp/widget/wgt_core/GenDsp.c **** {
 771              		.loc 1 222 1 is_stmt 1 view -0
 772              		.cfi_startproc
 773              		@ args = 4, pretend = 0, frame = 0
 774              		@ frame_needed = 0, uses_anonymous_args = 0
 775              		.loc 1 222 1 is_stmt 0 view .LVU217
 776 0000 10B5     		push	{r4, lr}
 777              	.LCFI14:
 778              		.cfi_def_cfa_offset 8
 779              		.cfi_offset 4, -8
 780              		.cfi_offset 14, -4
 781 0002 82B0     		sub	sp, sp, #8
 782              	.LCFI15:
 783              		.cfi_def_cfa_offset 16
 223:Dsp/widget/wgt_core/GenDsp.c ****     GenDsp_DrawLen(map, x, y, x, y + len, line_width);
 784              		.loc 1 223 5 is_stmt 1 view .LVU218
 785              		.loc 1 223 36 is_stmt 0 view .LVU219
 786 0004 1344     		add	r3, r3, r2
 787              	.LVL81:
 788              		.loc 1 223 5 view .LVU220
 789 0006 9DF81040 		ldrb	r4, [sp, #16]	@ zero_extendqisi2
 790 000a 0194     		str	r4, [sp, #4]
 791 000c 5BB2     		sxtb	r3, r3
 792 000e 0093     		str	r3, [sp]
 793 0010 0B46     		mov	r3, r1
 794 0012 FFF7FEFF 		bl	GenDsp_DrawLen
 795              	.LVL82:
 224:Dsp/widget/wgt_core/GenDsp.c **** }
 796              		.loc 1 224 1 view .LVU221
 797 0016 02B0     		add	sp, sp, #8
 798              	.LCFI16:
 799              		.cfi_def_cfa_offset 8
 800              		@ sp needed
 801 0018 10BD     		pop	{r4, pc}
 802              		.loc 1 224 1 view .LVU222
 803              		.cfi_endproc
 804              	.LFE10:
 806              		.section	.text.GenDsp_Draw_HLine,"ax",%progbits
 807              		.align	1
 808              		.syntax unified
ARM GAS  C:\Users\97116\AppData\Local\Temp\cchXdEe4.s 			page 20


 809              		.thumb
 810              		.thumb_func
 811              		.fpu fpv4-sp-d16
 813              	GenDsp_Draw_HLine:
 814              	.LVL83:
 815              	.LFB11:
 225:Dsp/widget/wgt_core/GenDsp.c **** 
 226:Dsp/widget/wgt_core/GenDsp.c **** static void GenDsp_Draw_HLine(uint8_t **map, int8_t x, int8_t y, uint8_t len, uint8_t line_width)
 227:Dsp/widget/wgt_core/GenDsp.c **** {
 816              		.loc 1 227 1 is_stmt 1 view -0
 817              		.cfi_startproc
 818              		@ args = 4, pretend = 0, frame = 0
 819              		@ frame_needed = 0, uses_anonymous_args = 0
 820              		.loc 1 227 1 is_stmt 0 view .LVU224
 821 0000 10B5     		push	{r4, lr}
 822              	.LCFI17:
 823              		.cfi_def_cfa_offset 8
 824              		.cfi_offset 4, -8
 825              		.cfi_offset 14, -4
 826 0002 82B0     		sub	sp, sp, #8
 827              	.LCFI18:
 828              		.cfi_def_cfa_offset 16
 228:Dsp/widget/wgt_core/GenDsp.c ****     GenDsp_DrawLen(map, x, y, x + len, y, line_width);
 829              		.loc 1 228 5 is_stmt 1 view .LVU225
 830              		.loc 1 228 33 is_stmt 0 view .LVU226
 831 0004 0B44     		add	r3, r3, r1
 832              	.LVL84:
 833              		.loc 1 228 5 view .LVU227
 834 0006 9DF81040 		ldrb	r4, [sp, #16]	@ zero_extendqisi2
 835 000a 0194     		str	r4, [sp, #4]
 836 000c 0092     		str	r2, [sp]
 837 000e 5BB2     		sxtb	r3, r3
 838 0010 FFF7FEFF 		bl	GenDsp_DrawLen
 839              	.LVL85:
 229:Dsp/widget/wgt_core/GenDsp.c **** }
 840              		.loc 1 229 1 view .LVU228
 841 0014 02B0     		add	sp, sp, #8
 842              	.LCFI19:
 843              		.cfi_def_cfa_offset 8
 844              		@ sp needed
 845 0016 10BD     		pop	{r4, pc}
 846              		.loc 1 229 1 view .LVU229
 847              		.cfi_endproc
 848              	.LFE11:
 850              		.section	.text.GenDsp_Draw_Circle_Section,"ax",%progbits
 851              		.align	1
 852              		.syntax unified
 853              		.thumb
 854              		.thumb_func
 855              		.fpu fpv4-sp-d16
 857              	GenDsp_Draw_Circle_Section:
 858              	.LVL86:
 859              	.LFB12:
 230:Dsp/widget/wgt_core/GenDsp.c **** 
 231:Dsp/widget/wgt_core/GenDsp.c **** static void GenDsp_Draw_Circle_Section(uint8_t **map, int8_t x, int8_t y, int8_t x0, int8_t y0, uin
 232:Dsp/widget/wgt_core/GenDsp.c **** {
 860              		.loc 1 232 1 is_stmt 1 view -0
ARM GAS  C:\Users\97116\AppData\Local\Temp\cchXdEe4.s 			page 21


 861              		.cfi_startproc
 862              		@ args = 8, pretend = 0, frame = 8
 863              		@ frame_needed = 0, uses_anonymous_args = 0
 864              		.loc 1 232 1 is_stmt 0 view .LVU231
 865 0000 2DE9F04F 		push	{r4, r5, r6, r7, r8, r9, r10, fp, lr}
 866              	.LCFI20:
 867              		.cfi_def_cfa_offset 36
 868              		.cfi_offset 4, -36
 869              		.cfi_offset 5, -32
 870              		.cfi_offset 6, -28
 871              		.cfi_offset 7, -24
 872              		.cfi_offset 8, -20
 873              		.cfi_offset 9, -16
 874              		.cfi_offset 10, -12
 875              		.cfi_offset 11, -8
 876              		.cfi_offset 14, -4
 877 0004 83B0     		sub	sp, sp, #12
 878              	.LCFI21:
 879              		.cfi_def_cfa_offset 48
 880 0006 0546     		mov	r5, r0
 881 0008 0091     		str	r1, [sp]
 882 000a 0192     		str	r2, [sp, #4]
 883 000c 1C46     		mov	r4, r3
 884 000e 9DF93070 		ldrsb	r7, [sp, #48]
 885 0012 9DF83460 		ldrb	r6, [sp, #52]	@ zero_extendqisi2
 233:Dsp/widget/wgt_core/GenDsp.c ****     /* upper right */
 234:Dsp/widget/wgt_core/GenDsp.c ****     if (option & DRAW_UPPER_RIGHT)
 886              		.loc 1 234 5 is_stmt 1 view .LVU232
 887              		.loc 1 234 8 is_stmt 0 view .LVU233
 888 0016 16F0010F 		tst	r6, #1
 889 001a 0BD1     		bne	.L67
 890              	.LVL87:
 891              	.L62:
 235:Dsp/widget/wgt_core/GenDsp.c ****     {
 236:Dsp/widget/wgt_core/GenDsp.c ****         GenDsp_DrawPoint(map, x0 + x, y0 - y, 1);
 237:Dsp/widget/wgt_core/GenDsp.c ****         GenDsp_DrawPoint(map, x0 + y, y0 - x, 1);
 238:Dsp/widget/wgt_core/GenDsp.c ****     }
 239:Dsp/widget/wgt_core/GenDsp.c **** 
 240:Dsp/widget/wgt_core/GenDsp.c ****     /* upper left */
 241:Dsp/widget/wgt_core/GenDsp.c ****     if (option & DRAW_UPPER_LEFT)
 892              		.loc 1 241 5 is_stmt 1 view .LVU234
 893              		.loc 1 241 8 is_stmt 0 view .LVU235
 894 001c 16F0020F 		tst	r6, #2
 895 0020 24D1     		bne	.L68
 896              	.L63:
 242:Dsp/widget/wgt_core/GenDsp.c ****     {
 243:Dsp/widget/wgt_core/GenDsp.c ****         GenDsp_DrawPoint(map, x0 - x, y0 - y, 1);
 244:Dsp/widget/wgt_core/GenDsp.c ****         GenDsp_DrawPoint(map, x0 - y, y0 - x, 1);
 245:Dsp/widget/wgt_core/GenDsp.c ****     }
 246:Dsp/widget/wgt_core/GenDsp.c **** 
 247:Dsp/widget/wgt_core/GenDsp.c ****     /* lower right */
 248:Dsp/widget/wgt_core/GenDsp.c ****     if (option & DRAW_LOWER_RIGHT)
 897              		.loc 1 248 5 is_stmt 1 view .LVU236
 898              		.loc 1 248 8 is_stmt 0 view .LVU237
 899 0022 16F0080F 		tst	r6, #8
 900 0026 3ED1     		bne	.L69
 901              	.L64:
ARM GAS  C:\Users\97116\AppData\Local\Temp\cchXdEe4.s 			page 22


 249:Dsp/widget/wgt_core/GenDsp.c ****     {
 250:Dsp/widget/wgt_core/GenDsp.c ****         GenDsp_DrawPoint(map, x0 + x, y0 + y, 1);
 251:Dsp/widget/wgt_core/GenDsp.c ****         GenDsp_DrawPoint(map, x0 + y, y0 + x, 1);
 252:Dsp/widget/wgt_core/GenDsp.c ****     }
 253:Dsp/widget/wgt_core/GenDsp.c **** 
 254:Dsp/widget/wgt_core/GenDsp.c ****     /* lower left */
 255:Dsp/widget/wgt_core/GenDsp.c ****     if (option & DRAW_LOWER_LEFT)
 902              		.loc 1 255 5 is_stmt 1 view .LVU238
 903              		.loc 1 255 8 is_stmt 0 view .LVU239
 904 0028 16F0040F 		tst	r6, #4
 905 002c 58D1     		bne	.L70
 906              	.L61:
 256:Dsp/widget/wgt_core/GenDsp.c ****     {
 257:Dsp/widget/wgt_core/GenDsp.c ****         GenDsp_DrawPoint(map, x0 - x, y0 + y, 1);
 258:Dsp/widget/wgt_core/GenDsp.c ****         GenDsp_DrawPoint(map, x0 - y, y0 + x, 1);
 259:Dsp/widget/wgt_core/GenDsp.c ****     }
 260:Dsp/widget/wgt_core/GenDsp.c **** }
 907              		.loc 1 260 1 view .LVU240
 908 002e 03B0     		add	sp, sp, #12
 909              	.LCFI22:
 910              		.cfi_remember_state
 911              		.cfi_def_cfa_offset 36
 912              		@ sp needed
 913 0030 BDE8F08F 		pop	{r4, r5, r6, r7, r8, r9, r10, fp, pc}
 914              	.LVL88:
 915              	.L67:
 916              	.LCFI23:
 917              		.cfi_restore_state
 236:Dsp/widget/wgt_core/GenDsp.c ****         GenDsp_DrawPoint(map, x0 + y, y0 - x, 1);
 918              		.loc 1 236 9 is_stmt 1 view .LVU241
 236:Dsp/widget/wgt_core/GenDsp.c ****         GenDsp_DrawPoint(map, x0 + y, y0 - x, 1);
 919              		.loc 1 236 34 is_stmt 0 view .LVU242
 920 0034 5FFA83F8 		uxtb	r8, r3
 921 0038 9DF800A0 		ldrb	r10, [sp]	@ zero_extendqisi2
 922 003c 08EB0A01 		add	r1, r8, r10
 923              	.LVL89:
 236:Dsp/widget/wgt_core/GenDsp.c ****         GenDsp_DrawPoint(map, x0 + y, y0 - x, 1);
 924              		.loc 1 236 42 view .LVU243
 925 0040 5FFA87F9 		uxtb	r9, r7
 926 0044 9DF804B0 		ldrb	fp, [sp, #4]	@ zero_extendqisi2
 927 0048 A9EB0B02 		sub	r2, r9, fp
 928              	.LVL90:
 236:Dsp/widget/wgt_core/GenDsp.c ****         GenDsp_DrawPoint(map, x0 + y, y0 - x, 1);
 929              		.loc 1 236 9 view .LVU244
 930 004c 0123     		movs	r3, #1
 931              	.LVL91:
 236:Dsp/widget/wgt_core/GenDsp.c ****         GenDsp_DrawPoint(map, x0 + y, y0 - x, 1);
 932              		.loc 1 236 9 view .LVU245
 933 004e 52B2     		sxtb	r2, r2
 934 0050 49B2     		sxtb	r1, r1
 935 0052 FFF7FEFF 		bl	GenDsp_DrawPoint
 936              	.LVL92:
 237:Dsp/widget/wgt_core/GenDsp.c ****     }
 937              		.loc 1 237 9 is_stmt 1 view .LVU246
 237:Dsp/widget/wgt_core/GenDsp.c ****     }
 938              		.loc 1 237 34 is_stmt 0 view .LVU247
 939 0056 08EB0B01 		add	r1, r8, fp
ARM GAS  C:\Users\97116\AppData\Local\Temp\cchXdEe4.s 			page 23


 237:Dsp/widget/wgt_core/GenDsp.c ****     }
 940              		.loc 1 237 42 view .LVU248
 941 005a A9EB0A02 		sub	r2, r9, r10
 237:Dsp/widget/wgt_core/GenDsp.c ****     }
 942              		.loc 1 237 9 view .LVU249
 943 005e 0123     		movs	r3, #1
 944 0060 52B2     		sxtb	r2, r2
 945 0062 49B2     		sxtb	r1, r1
 946 0064 2846     		mov	r0, r5
 947 0066 FFF7FEFF 		bl	GenDsp_DrawPoint
 948              	.LVL93:
 949 006a D7E7     		b	.L62
 950              	.LVL94:
 951              	.L68:
 243:Dsp/widget/wgt_core/GenDsp.c ****         GenDsp_DrawPoint(map, x0 - y, y0 - x, 1);
 952              		.loc 1 243 9 is_stmt 1 view .LVU250
 243:Dsp/widget/wgt_core/GenDsp.c ****         GenDsp_DrawPoint(map, x0 - y, y0 - x, 1);
 953              		.loc 1 243 34 is_stmt 0 view .LVU251
 954 006c 5FFA84F8 		uxtb	r8, r4
 955 0070 9DF800A0 		ldrb	r10, [sp]	@ zero_extendqisi2
 956 0074 A8EB0A01 		sub	r1, r8, r10
 243:Dsp/widget/wgt_core/GenDsp.c ****         GenDsp_DrawPoint(map, x0 - y, y0 - x, 1);
 957              		.loc 1 243 42 view .LVU252
 958 0078 5FFA87F9 		uxtb	r9, r7
 959 007c 9DF804B0 		ldrb	fp, [sp, #4]	@ zero_extendqisi2
 960 0080 A9EB0B02 		sub	r2, r9, fp
 243:Dsp/widget/wgt_core/GenDsp.c ****         GenDsp_DrawPoint(map, x0 - y, y0 - x, 1);
 961              		.loc 1 243 9 view .LVU253
 962 0084 0123     		movs	r3, #1
 963 0086 52B2     		sxtb	r2, r2
 964 0088 49B2     		sxtb	r1, r1
 965 008a 2846     		mov	r0, r5
 966 008c FFF7FEFF 		bl	GenDsp_DrawPoint
 967              	.LVL95:
 244:Dsp/widget/wgt_core/GenDsp.c ****     }
 968              		.loc 1 244 9 is_stmt 1 view .LVU254
 244:Dsp/widget/wgt_core/GenDsp.c ****     }
 969              		.loc 1 244 34 is_stmt 0 view .LVU255
 970 0090 A8EB0B01 		sub	r1, r8, fp
 244:Dsp/widget/wgt_core/GenDsp.c ****     }
 971              		.loc 1 244 42 view .LVU256
 972 0094 A9EB0A02 		sub	r2, r9, r10
 244:Dsp/widget/wgt_core/GenDsp.c ****     }
 973              		.loc 1 244 9 view .LVU257
 974 0098 0123     		movs	r3, #1
 975 009a 52B2     		sxtb	r2, r2
 976 009c 49B2     		sxtb	r1, r1
 977 009e 2846     		mov	r0, r5
 978 00a0 FFF7FEFF 		bl	GenDsp_DrawPoint
 979              	.LVL96:
 980 00a4 BDE7     		b	.L63
 981              	.L69:
 250:Dsp/widget/wgt_core/GenDsp.c ****         GenDsp_DrawPoint(map, x0 + y, y0 + x, 1);
 982              		.loc 1 250 9 is_stmt 1 view .LVU258
 250:Dsp/widget/wgt_core/GenDsp.c ****         GenDsp_DrawPoint(map, x0 + y, y0 + x, 1);
 983              		.loc 1 250 34 is_stmt 0 view .LVU259
 984 00a6 5FFA84F8 		uxtb	r8, r4
ARM GAS  C:\Users\97116\AppData\Local\Temp\cchXdEe4.s 			page 24


 985 00aa 9DF80090 		ldrb	r9, [sp]	@ zero_extendqisi2
 986 00ae 08EB0901 		add	r1, r8, r9
 250:Dsp/widget/wgt_core/GenDsp.c ****         GenDsp_DrawPoint(map, x0 + y, y0 + x, 1);
 987              		.loc 1 250 42 view .LVU260
 988 00b2 5FFA87FA 		uxtb	r10, r7
 989 00b6 9DF804B0 		ldrb	fp, [sp, #4]	@ zero_extendqisi2
 990 00ba 0AEB0B02 		add	r2, r10, fp
 250:Dsp/widget/wgt_core/GenDsp.c ****         GenDsp_DrawPoint(map, x0 + y, y0 + x, 1);
 991              		.loc 1 250 9 view .LVU261
 992 00be 0123     		movs	r3, #1
 993 00c0 52B2     		sxtb	r2, r2
 994 00c2 49B2     		sxtb	r1, r1
 995 00c4 2846     		mov	r0, r5
 996 00c6 FFF7FEFF 		bl	GenDsp_DrawPoint
 997              	.LVL97:
 251:Dsp/widget/wgt_core/GenDsp.c ****     }
 998              		.loc 1 251 9 is_stmt 1 view .LVU262
 251:Dsp/widget/wgt_core/GenDsp.c ****     }
 999              		.loc 1 251 34 is_stmt 0 view .LVU263
 1000 00ca 08EB0B01 		add	r1, r8, fp
 251:Dsp/widget/wgt_core/GenDsp.c ****     }
 1001              		.loc 1 251 42 view .LVU264
 1002 00ce 09EB0A02 		add	r2, r9, r10
 251:Dsp/widget/wgt_core/GenDsp.c ****     }
 1003              		.loc 1 251 9 view .LVU265
 1004 00d2 0123     		movs	r3, #1
 1005 00d4 52B2     		sxtb	r2, r2
 1006 00d6 49B2     		sxtb	r1, r1
 1007 00d8 2846     		mov	r0, r5
 1008 00da FFF7FEFF 		bl	GenDsp_DrawPoint
 1009              	.LVL98:
 1010 00de A3E7     		b	.L64
 1011              	.L70:
 257:Dsp/widget/wgt_core/GenDsp.c ****         GenDsp_DrawPoint(map, x0 - y, y0 + x, 1);
 1012              		.loc 1 257 9 is_stmt 1 view .LVU266
 257:Dsp/widget/wgt_core/GenDsp.c ****         GenDsp_DrawPoint(map, x0 - y, y0 + x, 1);
 1013              		.loc 1 257 34 is_stmt 0 view .LVU267
 1014 00e0 E4B2     		uxtb	r4, r4
 1015 00e2 9DF80080 		ldrb	r8, [sp]	@ zero_extendqisi2
 1016 00e6 A4EB0801 		sub	r1, r4, r8
 257:Dsp/widget/wgt_core/GenDsp.c ****         GenDsp_DrawPoint(map, x0 - y, y0 + x, 1);
 1017              		.loc 1 257 42 view .LVU268
 1018 00ea FFB2     		uxtb	r7, r7
 1019 00ec 9DF80460 		ldrb	r6, [sp, #4]	@ zero_extendqisi2
 1020 00f0 BA19     		adds	r2, r7, r6
 257:Dsp/widget/wgt_core/GenDsp.c ****         GenDsp_DrawPoint(map, x0 - y, y0 + x, 1);
 1021              		.loc 1 257 9 view .LVU269
 1022 00f2 0123     		movs	r3, #1
 1023 00f4 52B2     		sxtb	r2, r2
 1024 00f6 49B2     		sxtb	r1, r1
 1025 00f8 2846     		mov	r0, r5
 1026 00fa FFF7FEFF 		bl	GenDsp_DrawPoint
 1027              	.LVL99:
 258:Dsp/widget/wgt_core/GenDsp.c ****     }
 1028              		.loc 1 258 9 is_stmt 1 view .LVU270
 258:Dsp/widget/wgt_core/GenDsp.c ****     }
 1029              		.loc 1 258 34 is_stmt 0 view .LVU271
ARM GAS  C:\Users\97116\AppData\Local\Temp\cchXdEe4.s 			page 25


 1030 00fe A41B     		subs	r4, r4, r6
 258:Dsp/widget/wgt_core/GenDsp.c ****     }
 1031              		.loc 1 258 42 view .LVU272
 1032 0100 08EB0702 		add	r2, r8, r7
 258:Dsp/widget/wgt_core/GenDsp.c ****     }
 1033              		.loc 1 258 9 view .LVU273
 1034 0104 0123     		movs	r3, #1
 1035 0106 52B2     		sxtb	r2, r2
 1036 0108 61B2     		sxtb	r1, r4
 1037 010a 2846     		mov	r0, r5
 1038 010c FFF7FEFF 		bl	GenDsp_DrawPoint
 1039              	.LVL100:
 1040              		.loc 1 260 1 view .LVU274
 1041 0110 8DE7     		b	.L61
 1042              		.cfi_endproc
 1043              	.LFE12:
 1045              		.section	.text.GenDsp_Draw_Circle,"ax",%progbits
 1046              		.align	1
 1047              		.syntax unified
 1048              		.thumb
 1049              		.thumb_func
 1050              		.fpu fpv4-sp-d16
 1052              	GenDsp_Draw_Circle:
 1053              	.LVL101:
 1054              	.LFB13:
 261:Dsp/widget/wgt_core/GenDsp.c **** 
 262:Dsp/widget/wgt_core/GenDsp.c **** static void GenDsp_Draw_Circle(uint8_t **map, int8_t x0, int8_t y0, uint8_t rad, uint8_t option)
 263:Dsp/widget/wgt_core/GenDsp.c **** {
 1055              		.loc 1 263 1 is_stmt 1 view -0
 1056              		.cfi_startproc
 1057              		@ args = 4, pretend = 0, frame = 8
 1058              		@ frame_needed = 0, uses_anonymous_args = 0
 1059              		.loc 1 263 1 is_stmt 0 view .LVU276
 1060 0000 2DE9F04F 		push	{r4, r5, r6, r7, r8, r9, r10, fp, lr}
 1061              	.LCFI24:
 1062              		.cfi_def_cfa_offset 36
 1063              		.cfi_offset 4, -36
 1064              		.cfi_offset 5, -32
 1065              		.cfi_offset 6, -28
 1066              		.cfi_offset 7, -24
 1067              		.cfi_offset 8, -20
 1068              		.cfi_offset 9, -16
 1069              		.cfi_offset 10, -12
 1070              		.cfi_offset 11, -8
 1071              		.cfi_offset 14, -4
 1072 0004 85B0     		sub	sp, sp, #20
 1073              	.LCFI25:
 1074              		.cfi_def_cfa_offset 56
 1075 0006 0390     		str	r0, [sp, #12]
 1076 0008 8946     		mov	r9, r1
 1077 000a 9246     		mov	r10, r2
 1078 000c 9DF838B0 		ldrb	fp, [sp, #56]	@ zero_extendqisi2
 264:Dsp/widget/wgt_core/GenDsp.c ****     int8_t f;
 1079              		.loc 1 264 5 is_stmt 1 view .LVU277
 265:Dsp/widget/wgt_core/GenDsp.c ****     int8_t ddF_x;
 1080              		.loc 1 265 5 view .LVU278
 266:Dsp/widget/wgt_core/GenDsp.c ****     int8_t ddF_y;
ARM GAS  C:\Users\97116\AppData\Local\Temp\cchXdEe4.s 			page 26


 1081              		.loc 1 266 5 view .LVU279
 267:Dsp/widget/wgt_core/GenDsp.c ****     int8_t x;
 1082              		.loc 1 267 5 view .LVU280
 268:Dsp/widget/wgt_core/GenDsp.c ****     int8_t y;
 1083              		.loc 1 268 5 view .LVU281
 269:Dsp/widget/wgt_core/GenDsp.c **** 
 270:Dsp/widget/wgt_core/GenDsp.c ****     f = 1;
 1084              		.loc 1 270 5 view .LVU282
 1085              	.LVL102:
 271:Dsp/widget/wgt_core/GenDsp.c ****     f -= rad;
 1086              		.loc 1 271 5 view .LVU283
 1087              		.loc 1 271 7 is_stmt 0 view .LVU284
 1088 0010 C3F10104 		rsb	r4, r3, #1
 1089 0014 64B2     		sxtb	r4, r4
 1090              	.LVL103:
 272:Dsp/widget/wgt_core/GenDsp.c ****     ddF_x = 1;
 1091              		.loc 1 272 5 is_stmt 1 view .LVU285
 273:Dsp/widget/wgt_core/GenDsp.c ****     ddF_y = 0;
 1092              		.loc 1 273 5 view .LVU286
 274:Dsp/widget/wgt_core/GenDsp.c ****     ddF_y -= rad;
 1093              		.loc 1 274 5 view .LVU287
 275:Dsp/widget/wgt_core/GenDsp.c ****     ddF_y *= 2;
 1094              		.loc 1 275 5 view .LVU288
 1095              		.loc 1 275 11 is_stmt 0 view .LVU289
 1096 0016 C3EBC318 		rsb	r8, r3, r3, lsl #7
 1097 001a 4FEA4808 		lsl	r8, r8, #1
 1098 001e 4FFA88F8 		sxtb	r8, r8
 1099              	.LVL104:
 276:Dsp/widget/wgt_core/GenDsp.c ****     x = 0;
 1100              		.loc 1 276 5 is_stmt 1 view .LVU290
 277:Dsp/widget/wgt_core/GenDsp.c ****     y = rad;
 1101              		.loc 1 277 5 view .LVU291
 1102              		.loc 1 277 7 is_stmt 0 view .LVU292
 1103 0022 5EB2     		sxtb	r6, r3
 1104              	.LVL105:
 278:Dsp/widget/wgt_core/GenDsp.c **** 
 279:Dsp/widget/wgt_core/GenDsp.c ****     GenDsp_Draw_Circle_Section(map, x, y, x0, y0, option);
 1105              		.loc 1 279 5 is_stmt 1 view .LVU293
 1106 0024 CDF804B0 		str	fp, [sp, #4]
 1107 0028 0092     		str	r2, [sp]
 1108 002a 0B46     		mov	r3, r1
 1109              	.LVL106:
 1110              		.loc 1 279 5 is_stmt 0 view .LVU294
 1111 002c 3246     		mov	r2, r6
 1112              	.LVL107:
 1113              		.loc 1 279 5 view .LVU295
 1114 002e 0021     		movs	r1, #0
 1115              	.LVL108:
 1116              		.loc 1 279 5 view .LVU296
 1117 0030 FFF7FEFF 		bl	GenDsp_Draw_Circle_Section
 1118              	.LVL109:
 280:Dsp/widget/wgt_core/GenDsp.c **** 
 281:Dsp/widget/wgt_core/GenDsp.c ****     while (x < y)
 1119              		.loc 1 281 5 is_stmt 1 view .LVU297
 276:Dsp/widget/wgt_core/GenDsp.c ****     y = rad;
 1120              		.loc 1 276 7 is_stmt 0 view .LVU298
 1121 0034 0025     		movs	r5, #0
ARM GAS  C:\Users\97116\AppData\Local\Temp\cchXdEe4.s 			page 27


 272:Dsp/widget/wgt_core/GenDsp.c ****     ddF_y = 0;
 1122              		.loc 1 272 11 view .LVU299
 1123 0036 0127     		movs	r7, #1
 1124              		.loc 1 281 11 view .LVU300
 1125 0038 19E0     		b	.L72
 1126              	.LVL110:
 1127              	.L77:
 282:Dsp/widget/wgt_core/GenDsp.c ****     {
 283:Dsp/widget/wgt_core/GenDsp.c ****         if (f >= 0)
 284:Dsp/widget/wgt_core/GenDsp.c ****         {
 285:Dsp/widget/wgt_core/GenDsp.c ****             y--;
 1128              		.loc 1 285 13 is_stmt 1 view .LVU301
 1129              		.loc 1 285 14 is_stmt 0 view .LVU302
 1130 003a 013E     		subs	r6, r6, #1
 1131              	.LVL111:
 1132              		.loc 1 285 14 view .LVU303
 1133 003c 76B2     		sxtb	r6, r6
 1134              	.LVL112:
 286:Dsp/widget/wgt_core/GenDsp.c ****             ddF_y += 2;
 1135              		.loc 1 286 13 is_stmt 1 view .LVU304
 1136              		.loc 1 286 19 is_stmt 0 view .LVU305
 1137 003e 08F10203 		add	r3, r8, #2
 1138 0042 4FFA83F8 		sxtb	r8, r3
 1139              	.LVL113:
 287:Dsp/widget/wgt_core/GenDsp.c ****             f += ddF_y;
 1140              		.loc 1 287 13 is_stmt 1 view .LVU306
 1141              		.loc 1 287 15 is_stmt 0 view .LVU307
 1142 0046 54FA83F4 		uxtab	r4, r4, r3
 1143              	.LVL114:
 1144              		.loc 1 287 15 view .LVU308
 1145 004a 64B2     		sxtb	r4, r4
 1146              	.LVL115:
 1147              	.L73:
 288:Dsp/widget/wgt_core/GenDsp.c ****         }
 289:Dsp/widget/wgt_core/GenDsp.c ****         x++;
 1148              		.loc 1 289 9 is_stmt 1 view .LVU309
 1149              		.loc 1 289 10 is_stmt 0 view .LVU310
 1150 004c 0135     		adds	r5, r5, #1
 1151              	.LVL116:
 1152              		.loc 1 289 10 view .LVU311
 1153 004e 6DB2     		sxtb	r5, r5
 1154              	.LVL117:
 290:Dsp/widget/wgt_core/GenDsp.c ****         ddF_x += 2;
 1155              		.loc 1 290 9 is_stmt 1 view .LVU312
 1156              		.loc 1 290 15 is_stmt 0 view .LVU313
 1157 0050 BB1C     		adds	r3, r7, #2
 1158 0052 5FB2     		sxtb	r7, r3
 1159              	.LVL118:
 291:Dsp/widget/wgt_core/GenDsp.c ****         f += ddF_x;
 1160              		.loc 1 291 9 is_stmt 1 view .LVU314
 1161              		.loc 1 291 11 is_stmt 0 view .LVU315
 1162 0054 54FA83F4 		uxtab	r4, r4, r3
 1163              	.LVL119:
 1164              		.loc 1 291 11 view .LVU316
 1165 0058 64B2     		sxtb	r4, r4
 1166              	.LVL120:
 292:Dsp/widget/wgt_core/GenDsp.c **** 
ARM GAS  C:\Users\97116\AppData\Local\Temp\cchXdEe4.s 			page 28


 293:Dsp/widget/wgt_core/GenDsp.c ****         GenDsp_Draw_Circle_Section(map, x, y, x0, y0, option);
 1167              		.loc 1 293 9 is_stmt 1 view .LVU317
 1168 005a CDF804B0 		str	fp, [sp, #4]
 1169 005e CDF800A0 		str	r10, [sp]
 1170 0062 4B46     		mov	r3, r9
 1171 0064 3246     		mov	r2, r6
 1172 0066 2946     		mov	r1, r5
 1173 0068 0398     		ldr	r0, [sp, #12]
 1174 006a FFF7FEFF 		bl	GenDsp_Draw_Circle_Section
 1175              	.LVL121:
 1176              	.L72:
 281:Dsp/widget/wgt_core/GenDsp.c ****     {
 1177              		.loc 1 281 11 view .LVU318
 1178 006e B542     		cmp	r5, r6
 1179 0070 02DA     		bge	.L76
 283:Dsp/widget/wgt_core/GenDsp.c ****         {
 1180              		.loc 1 283 9 view .LVU319
 283:Dsp/widget/wgt_core/GenDsp.c ****         {
 1181              		.loc 1 283 12 is_stmt 0 view .LVU320
 1182 0072 002C     		cmp	r4, #0
 1183 0074 E1DA     		bge	.L77
 1184 0076 E9E7     		b	.L73
 1185              	.L76:
 294:Dsp/widget/wgt_core/GenDsp.c ****     }
 295:Dsp/widget/wgt_core/GenDsp.c **** }
 1186              		.loc 1 295 1 view .LVU321
 1187 0078 05B0     		add	sp, sp, #20
 1188              	.LCFI26:
 1189              		.cfi_def_cfa_offset 36
 1190              		@ sp needed
 1191 007a BDE8F08F 		pop	{r4, r5, r6, r7, r8, r9, r10, fp, pc}
 1192              		.loc 1 295 1 view .LVU322
 1193              		.cfi_endproc
 1194              	.LFE13:
 1196              		.section	.text.GenDsp_DrawCircle,"ax",%progbits
 1197              		.align	1
 1198              		.syntax unified
 1199              		.thumb
 1200              		.thumb_func
 1201              		.fpu fpv4-sp-d16
 1203              	GenDsp_DrawCircle:
 1204              	.LVL122:
 1205              	.LFB14:
 296:Dsp/widget/wgt_core/GenDsp.c **** 
 297:Dsp/widget/wgt_core/GenDsp.c **** static void GenDsp_DrawCircle(uint8_t **map, int8_t x0, int8_t y0, uint8_t rad, uint8_t option)
 298:Dsp/widget/wgt_core/GenDsp.c **** {
 1206              		.loc 1 298 1 is_stmt 1 view -0
 1207              		.cfi_startproc
 1208              		@ args = 4, pretend = 0, frame = 0
 1209              		@ frame_needed = 0, uses_anonymous_args = 0
 1210              		.loc 1 298 1 is_stmt 0 view .LVU324
 1211 0000 10B5     		push	{r4, lr}
 1212              	.LCFI27:
 1213              		.cfi_def_cfa_offset 8
 1214              		.cfi_offset 4, -8
 1215              		.cfi_offset 14, -4
 1216 0002 82B0     		sub	sp, sp, #8
ARM GAS  C:\Users\97116\AppData\Local\Temp\cchXdEe4.s 			page 29


 1217              	.LCFI28:
 1218              		.cfi_def_cfa_offset 16
 299:Dsp/widget/wgt_core/GenDsp.c ****     /* draw circle */
 300:Dsp/widget/wgt_core/GenDsp.c ****     GenDsp_Draw_Circle(map, x0, y0, rad, DRAW_ALL);
 1219              		.loc 1 300 5 is_stmt 1 view .LVU325
 1220 0004 0F24     		movs	r4, #15
 1221 0006 0094     		str	r4, [sp]
 1222 0008 FFF7FEFF 		bl	GenDsp_Draw_Circle
 1223              	.LVL123:
 301:Dsp/widget/wgt_core/GenDsp.c **** }
 1224              		.loc 1 301 1 is_stmt 0 view .LVU326
 1225 000c 02B0     		add	sp, sp, #8
 1226              	.LCFI29:
 1227              		.cfi_def_cfa_offset 8
 1228              		@ sp needed
 1229 000e 10BD     		pop	{r4, pc}
 1230              		.loc 1 301 1 view .LVU327
 1231              		.cfi_endproc
 1232              	.LFE14:
 1234              		.section	.text.GenDsp_DrawRectangle,"ax",%progbits
 1235              		.align	1
 1236              		.syntax unified
 1237              		.thumb
 1238              		.thumb_func
 1239              		.fpu fpv4-sp-d16
 1241              	GenDsp_DrawRectangle:
 1242              	.LVL124:
 1243              	.LFB15:
 302:Dsp/widget/wgt_core/GenDsp.c **** 
 303:Dsp/widget/wgt_core/GenDsp.c **** static void GenDsp_DrawRectangle(uint8_t **map, int8_t x, int8_t y, uint8_t width, uint8_t height, 
 304:Dsp/widget/wgt_core/GenDsp.c **** {
 1244              		.loc 1 304 1 is_stmt 1 view -0
 1245              		.cfi_startproc
 1246              		@ args = 8, pretend = 0, frame = 0
 1247              		@ frame_needed = 0, uses_anonymous_args = 0
 1248              		.loc 1 304 1 is_stmt 0 view .LVU329
 1249 0000 2DE9F043 		push	{r4, r5, r6, r7, r8, r9, lr}
 1250              	.LCFI30:
 1251              		.cfi_def_cfa_offset 28
 1252              		.cfi_offset 4, -28
 1253              		.cfi_offset 5, -24
 1254              		.cfi_offset 6, -20
 1255              		.cfi_offset 7, -16
 1256              		.cfi_offset 8, -12
 1257              		.cfi_offset 9, -8
 1258              		.cfi_offset 14, -4
 1259 0004 83B0     		sub	sp, sp, #12
 1260              	.LCFI31:
 1261              		.cfi_def_cfa_offset 40
 1262 0006 8046     		mov	r8, r0
 1263 0008 0E46     		mov	r6, r1
 1264 000a 1746     		mov	r7, r2
 1265 000c 9DF82C90 		ldrb	r9, [sp, #44]	@ zero_extendqisi2
 305:Dsp/widget/wgt_core/GenDsp.c ****     int8_t x_tmp = x + width - 1;
 1266              		.loc 1 305 5 is_stmt 1 view .LVU330
 1267              		.loc 1 305 22 is_stmt 0 view .LVU331
 1268 0010 5D18     		adds	r5, r3, r1
ARM GAS  C:\Users\97116\AppData\Local\Temp\cchXdEe4.s 			page 30


 1269 0012 EDB2     		uxtb	r5, r5
 1270              		.loc 1 305 30 view .LVU332
 1271 0014 013D     		subs	r5, r5, #1
 1272              		.loc 1 305 12 view .LVU333
 1273 0016 6DB2     		sxtb	r5, r5
 1274              	.LVL125:
 306:Dsp/widget/wgt_core/GenDsp.c ****     int8_t y_tmp = y + height - 1;
 1275              		.loc 1 306 5 is_stmt 1 view .LVU334
 1276              		.loc 1 306 22 is_stmt 0 view .LVU335
 1277 0018 9DF82840 		ldrb	r4, [sp, #40]	@ zero_extendqisi2
 1278 001c 1444     		add	r4, r4, r2
 1279 001e E4B2     		uxtb	r4, r4
 1280              		.loc 1 306 31 view .LVU336
 1281 0020 013C     		subs	r4, r4, #1
 1282              		.loc 1 306 12 view .LVU337
 1283 0022 64B2     		sxtb	r4, r4
 1284              	.LVL126:
 307:Dsp/widget/wgt_core/GenDsp.c **** 
 308:Dsp/widget/wgt_core/GenDsp.c ****     GenDsp_DrawLen(map, x, y, x_tmp, y, line_size);
 1285              		.loc 1 308 5 is_stmt 1 view .LVU338
 1286 0024 CDF80490 		str	r9, [sp, #4]
 1287 0028 0092     		str	r2, [sp]
 1288 002a 2B46     		mov	r3, r5
 1289              	.LVL127:
 1290              		.loc 1 308 5 is_stmt 0 view .LVU339
 1291 002c FFF7FEFF 		bl	GenDsp_DrawLen
 1292              	.LVL128:
 309:Dsp/widget/wgt_core/GenDsp.c ****     GenDsp_DrawLen(map, x, y, x, y_tmp, line_size);
 1293              		.loc 1 309 5 is_stmt 1 view .LVU340
 1294 0030 CDF80490 		str	r9, [sp, #4]
 1295 0034 0094     		str	r4, [sp]
 1296 0036 3346     		mov	r3, r6
 1297 0038 3A46     		mov	r2, r7
 1298 003a 3146     		mov	r1, r6
 1299 003c 4046     		mov	r0, r8
 1300 003e FFF7FEFF 		bl	GenDsp_DrawLen
 1301              	.LVL129:
 310:Dsp/widget/wgt_core/GenDsp.c **** 
 311:Dsp/widget/wgt_core/GenDsp.c ****     GenDsp_DrawLen(map, x_tmp, y, x_tmp, y_tmp, line_size);
 1302              		.loc 1 311 5 view .LVU341
 1303 0042 CDF80490 		str	r9, [sp, #4]
 1304 0046 0094     		str	r4, [sp]
 1305 0048 2B46     		mov	r3, r5
 1306 004a 3A46     		mov	r2, r7
 1307 004c 2946     		mov	r1, r5
 1308 004e 4046     		mov	r0, r8
 1309 0050 FFF7FEFF 		bl	GenDsp_DrawLen
 1310              	.LVL130:
 312:Dsp/widget/wgt_core/GenDsp.c ****     GenDsp_DrawLen(map, x, y_tmp, x_tmp, y_tmp, line_size);
 1311              		.loc 1 312 5 view .LVU342
 1312 0054 CDF80490 		str	r9, [sp, #4]
 1313 0058 0094     		str	r4, [sp]
 1314 005a 2B46     		mov	r3, r5
 1315 005c 2246     		mov	r2, r4
 1316 005e 3146     		mov	r1, r6
 1317 0060 4046     		mov	r0, r8
 1318 0062 FFF7FEFF 		bl	GenDsp_DrawLen
ARM GAS  C:\Users\97116\AppData\Local\Temp\cchXdEe4.s 			page 31


 1319              	.LVL131:
 313:Dsp/widget/wgt_core/GenDsp.c **** }
 1320              		.loc 1 313 1 is_stmt 0 view .LVU343
 1321 0066 03B0     		add	sp, sp, #12
 1322              	.LCFI32:
 1323              		.cfi_def_cfa_offset 28
 1324              		@ sp needed
 1325 0068 BDE8F083 		pop	{r4, r5, r6, r7, r8, r9, pc}
 1326              		.loc 1 313 1 view .LVU344
 1327              		.cfi_endproc
 1328              	.LFE15:
 1330              		.section	.text.GenDsp_Draw_RadiusRectangle,"ax",%progbits
 1331              		.align	1
 1332              		.syntax unified
 1333              		.thumb
 1334              		.thumb_func
 1335              		.fpu fpv4-sp-d16
 1337              	GenDsp_Draw_RadiusRectangle:
 1338              	.LVL132:
 1339              	.LFB16:
 314:Dsp/widget/wgt_core/GenDsp.c **** 
 315:Dsp/widget/wgt_core/GenDsp.c **** /* bug in this function */
 316:Dsp/widget/wgt_core/GenDsp.c **** static void GenDsp_Draw_RadiusRectangle(uint8_t **map, int8_t x, int8_t y, uint8_t width, uint8_t h
 317:Dsp/widget/wgt_core/GenDsp.c **** {
 1340              		.loc 1 317 1 is_stmt 1 view -0
 1341              		.cfi_startproc
 1342              		@ args = 12, pretend = 0, frame = 16
 1343              		@ frame_needed = 0, uses_anonymous_args = 0
 1344              		.loc 1 317 1 is_stmt 0 view .LVU346
 1345 0000 2DE9F04F 		push	{r4, r5, r6, r7, r8, r9, r10, fp, lr}
 1346              	.LCFI33:
 1347              		.cfi_def_cfa_offset 36
 1348              		.cfi_offset 4, -36
 1349              		.cfi_offset 5, -32
 1350              		.cfi_offset 6, -28
 1351              		.cfi_offset 7, -24
 1352              		.cfi_offset 8, -20
 1353              		.cfi_offset 9, -16
 1354              		.cfi_offset 10, -12
 1355              		.cfi_offset 11, -8
 1356              		.cfi_offset 14, -4
 1357 0004 87B0     		sub	sp, sp, #28
 1358              	.LCFI34:
 1359              		.cfi_def_cfa_offset 64
 1360 0006 0446     		mov	r4, r0
 1361 0008 9DF84470 		ldrb	r7, [sp, #68]	@ zero_extendqisi2
 1362 000c 9DF848B0 		ldrb	fp, [sp, #72]	@ zero_extendqisi2
 318:Dsp/widget/wgt_core/GenDsp.c ****     int8_t x_start = x + radius;
 1363              		.loc 1 318 5 is_stmt 1 view .LVU347
 1364              		.loc 1 318 24 is_stmt 0 view .LVU348
 1365 0010 0391     		str	r1, [sp, #12]
 1366 0012 9DF80C10 		ldrb	r1, [sp, #12]	@ zero_extendqisi2
 1367              	.LVL133:
 1368              		.loc 1 318 24 view .LVU349
 1369 0016 01EB0709 		add	r9, r1, r7
 1370              		.loc 1 318 12 view .LVU350
 1371 001a 4FFA89F9 		sxtb	r9, r9
ARM GAS  C:\Users\97116\AppData\Local\Temp\cchXdEe4.s 			page 32


 1372              	.LVL134:
 319:Dsp/widget/wgt_core/GenDsp.c ****     int8_t y_start = y + radius;
 1373              		.loc 1 319 5 is_stmt 1 view .LVU351
 1374              		.loc 1 319 24 is_stmt 0 view .LVU352
 1375 001e 0492     		str	r2, [sp, #16]
 1376 0020 9DF81020 		ldrb	r2, [sp, #16]	@ zero_extendqisi2
 1377              	.LVL135:
 1378              		.loc 1 319 24 view .LVU353
 1379 0024 02EB0708 		add	r8, r2, r7
 1380              		.loc 1 319 12 view .LVU354
 1381 0028 4FFA88F8 		sxtb	r8, r8
 1382              	.LVL136:
 320:Dsp/widget/wgt_core/GenDsp.c **** 
 321:Dsp/widget/wgt_core/GenDsp.c ****     int8_t x_tmp = x + width - 1 - radius;
 1383              		.loc 1 321 5 is_stmt 1 view .LVU355
 1384              		.loc 1 321 22 is_stmt 0 view .LVU356
 1385 002c 1944     		add	r1, r1, r3
 1386 002e C9B2     		uxtb	r1, r1
 1387              		.loc 1 321 34 view .LVU357
 1388 0030 CE1B     		subs	r6, r1, r7
 1389 0032 013E     		subs	r6, r6, #1
 1390              		.loc 1 321 12 view .LVU358
 1391 0034 76B2     		sxtb	r6, r6
 1392              	.LVL137:
 322:Dsp/widget/wgt_core/GenDsp.c ****     int8_t y_tmp = y + height - 1 - radius;
 1393              		.loc 1 322 5 is_stmt 1 view .LVU359
 1394              		.loc 1 322 22 is_stmt 0 view .LVU360
 1395 0036 9DF84030 		ldrb	r3, [sp, #64]	@ zero_extendqisi2
 1396              	.LVL138:
 1397              		.loc 1 322 22 view .LVU361
 1398 003a 1344     		add	r3, r3, r2
 1399 003c DBB2     		uxtb	r3, r3
 1400              		.loc 1 322 35 view .LVU362
 1401 003e DD1B     		subs	r5, r3, r7
 1402 0040 013D     		subs	r5, r5, #1
 1403              		.loc 1 322 12 view .LVU363
 1404 0042 6DB2     		sxtb	r5, r5
 1405              	.LVL139:
 323:Dsp/widget/wgt_core/GenDsp.c **** 
 324:Dsp/widget/wgt_core/GenDsp.c ****     int8_t x_tmp_1 = x + width - 1;
 1406              		.loc 1 324 5 is_stmt 1 view .LVU364
 1407              		.loc 1 324 32 is_stmt 0 view .LVU365
 1408 0044 0139     		subs	r1, r1, #1
 1409              		.loc 1 324 12 view .LVU366
 1410 0046 4FFA81FA 		sxtb	r10, r1
 1411              	.LVL140:
 325:Dsp/widget/wgt_core/GenDsp.c ****     int8_t y_tmp_1 = y + height - 1;
 1412              		.loc 1 325 5 is_stmt 1 view .LVU367
 1413              		.loc 1 325 33 is_stmt 0 view .LVU368
 1414 004a 013B     		subs	r3, r3, #1
 1415              		.loc 1 325 12 view .LVU369
 1416 004c 5BB2     		sxtb	r3, r3
 1417 004e 0593     		str	r3, [sp, #20]
 1418              	.LVL141:
 326:Dsp/widget/wgt_core/GenDsp.c **** 
 327:Dsp/widget/wgt_core/GenDsp.c ****     /* fixed */
 328:Dsp/widget/wgt_core/GenDsp.c ****     GenDsp_Draw_Circle(map, x_start, y_tmp, radius, DRAW_LOWER_LEFT);
ARM GAS  C:\Users\97116\AppData\Local\Temp\cchXdEe4.s 			page 33


 1419              		.loc 1 328 5 is_stmt 1 view .LVU370
 1420 0050 0423     		movs	r3, #4
 1421 0052 0093     		str	r3, [sp]
 1422 0054 3B46     		mov	r3, r7
 1423 0056 2A46     		mov	r2, r5
 1424 0058 4946     		mov	r1, r9
 1425 005a FFF7FEFF 		bl	GenDsp_Draw_Circle
 1426              	.LVL142:
 329:Dsp/widget/wgt_core/GenDsp.c ****     GenDsp_DrawLen(map, x, y_start, x, y_tmp, line_size);
 1427              		.loc 1 329 5 view .LVU371
 1428 005e CDF804B0 		str	fp, [sp, #4]
 1429 0062 0095     		str	r5, [sp]
 1430 0064 0399     		ldr	r1, [sp, #12]
 1431 0066 0B46     		mov	r3, r1
 1432 0068 4246     		mov	r2, r8
 1433 006a 2046     		mov	r0, r4
 1434 006c FFF7FEFF 		bl	GenDsp_DrawLen
 1435              	.LVL143:
 330:Dsp/widget/wgt_core/GenDsp.c **** 
 331:Dsp/widget/wgt_core/GenDsp.c ****     GenDsp_Draw_Circle(map, x_tmp, y_tmp, radius, DRAW_LOWER_RIGHT);
 1436              		.loc 1 331 5 view .LVU372
 1437 0070 0823     		movs	r3, #8
 1438 0072 0093     		str	r3, [sp]
 1439 0074 3B46     		mov	r3, r7
 1440 0076 2A46     		mov	r2, r5
 1441 0078 3146     		mov	r1, r6
 1442 007a 2046     		mov	r0, r4
 1443 007c FFF7FEFF 		bl	GenDsp_Draw_Circle
 1444              	.LVL144:
 332:Dsp/widget/wgt_core/GenDsp.c ****     GenDsp_DrawLen(map, x_start, y_tmp_1, x_tmp, y_tmp_1, line_size);
 1445              		.loc 1 332 5 view .LVU373
 1446 0080 CDF804B0 		str	fp, [sp, #4]
 1447 0084 059A     		ldr	r2, [sp, #20]
 1448 0086 0092     		str	r2, [sp]
 1449 0088 3346     		mov	r3, r6
 1450 008a 4946     		mov	r1, r9
 1451 008c 2046     		mov	r0, r4
 1452 008e FFF7FEFF 		bl	GenDsp_DrawLen
 1453              	.LVL145:
 333:Dsp/widget/wgt_core/GenDsp.c **** 
 334:Dsp/widget/wgt_core/GenDsp.c ****     GenDsp_Draw_Circle(map, x_start, y_start, radius, DRAW_UPPER_LEFT);
 1454              		.loc 1 334 5 view .LVU374
 1455 0092 0223     		movs	r3, #2
 1456 0094 0093     		str	r3, [sp]
 1457 0096 3B46     		mov	r3, r7
 1458 0098 4246     		mov	r2, r8
 1459 009a 4946     		mov	r1, r9
 1460 009c 2046     		mov	r0, r4
 1461 009e FFF7FEFF 		bl	GenDsp_Draw_Circle
 1462              	.LVL146:
 335:Dsp/widget/wgt_core/GenDsp.c ****     GenDsp_DrawLen(map, x_start, y, x_tmp, y, line_size);
 1463              		.loc 1 335 5 view .LVU375
 1464 00a2 CDF804B0 		str	fp, [sp, #4]
 1465 00a6 049A     		ldr	r2, [sp, #16]
 1466 00a8 0092     		str	r2, [sp]
 1467 00aa 3346     		mov	r3, r6
 1468 00ac 4946     		mov	r1, r9
ARM GAS  C:\Users\97116\AppData\Local\Temp\cchXdEe4.s 			page 34


 1469 00ae 2046     		mov	r0, r4
 1470 00b0 FFF7FEFF 		bl	GenDsp_DrawLen
 1471              	.LVL147:
 336:Dsp/widget/wgt_core/GenDsp.c **** 
 337:Dsp/widget/wgt_core/GenDsp.c ****     GenDsp_Draw_Circle(map, x_tmp, y_start, radius, DRAW_UPPER_RIGHT);
 1472              		.loc 1 337 5 view .LVU376
 1473 00b4 0123     		movs	r3, #1
 1474 00b6 0093     		str	r3, [sp]
 1475 00b8 3B46     		mov	r3, r7
 1476 00ba 4246     		mov	r2, r8
 1477 00bc 3146     		mov	r1, r6
 1478 00be 2046     		mov	r0, r4
 1479 00c0 FFF7FEFF 		bl	GenDsp_Draw_Circle
 1480              	.LVL148:
 338:Dsp/widget/wgt_core/GenDsp.c ****     GenDsp_DrawLen(map, x_tmp_1, y_start, x_tmp_1, y_tmp, line_size);
 1481              		.loc 1 338 5 view .LVU377
 1482 00c4 CDF804B0 		str	fp, [sp, #4]
 1483 00c8 0095     		str	r5, [sp]
 1484 00ca 5346     		mov	r3, r10
 1485 00cc 4246     		mov	r2, r8
 1486 00ce 5146     		mov	r1, r10
 1487 00d0 2046     		mov	r0, r4
 1488 00d2 FFF7FEFF 		bl	GenDsp_DrawLen
 1489              	.LVL149:
 339:Dsp/widget/wgt_core/GenDsp.c **** }
 1490              		.loc 1 339 1 is_stmt 0 view .LVU378
 1491 00d6 07B0     		add	sp, sp, #28
 1492              	.LCFI35:
 1493              		.cfi_def_cfa_offset 36
 1494              		@ sp needed
 1495 00d8 BDE8F08F 		pop	{r4, r5, r6, r7, r8, r9, r10, fp, pc}
 1496              		.loc 1 339 1 view .LVU379
 1497              		.cfi_endproc
 1498              	.LFE16:
 1500              		.section	.text.GenDsp_Fill_Circle_Section,"ax",%progbits
 1501              		.align	1
 1502              		.syntax unified
 1503              		.thumb
 1504              		.thumb_func
 1505              		.fpu fpv4-sp-d16
 1507              	GenDsp_Fill_Circle_Section:
 1508              	.LVL150:
 1509              	.LFB17:
 340:Dsp/widget/wgt_core/GenDsp.c **** 
 341:Dsp/widget/wgt_core/GenDsp.c **** static void GenDsp_Fill_Circle_Section(uint8_t **map, int8_t x, int8_t y, int8_t x0, int8_t y0, uin
 342:Dsp/widget/wgt_core/GenDsp.c **** {
 1510              		.loc 1 342 1 is_stmt 1 view -0
 1511              		.cfi_startproc
 1512              		@ args = 8, pretend = 0, frame = 16
 1513              		@ frame_needed = 0, uses_anonymous_args = 0
 1514              		.loc 1 342 1 is_stmt 0 view .LVU381
 1515 0000 2DE9F04F 		push	{r4, r5, r6, r7, r8, r9, r10, fp, lr}
 1516              	.LCFI36:
 1517              		.cfi_def_cfa_offset 36
 1518              		.cfi_offset 4, -36
 1519              		.cfi_offset 5, -32
 1520              		.cfi_offset 6, -28
ARM GAS  C:\Users\97116\AppData\Local\Temp\cchXdEe4.s 			page 35


 1521              		.cfi_offset 7, -24
 1522              		.cfi_offset 8, -20
 1523              		.cfi_offset 9, -16
 1524              		.cfi_offset 10, -12
 1525              		.cfi_offset 11, -8
 1526              		.cfi_offset 14, -4
 1527 0004 87B0     		sub	sp, sp, #28
 1528              	.LCFI37:
 1529              		.cfi_def_cfa_offset 64
 1530 0006 0446     		mov	r4, r0
 1531 0008 0391     		str	r1, [sp, #12]
 1532 000a 0492     		str	r2, [sp, #16]
 1533 000c 0593     		str	r3, [sp, #20]
 1534 000e 9DF94060 		ldrsb	r6, [sp, #64]
 1535 0012 9DF84450 		ldrb	r5, [sp, #68]	@ zero_extendqisi2
 343:Dsp/widget/wgt_core/GenDsp.c ****     /* upper right */
 344:Dsp/widget/wgt_core/GenDsp.c ****     if (option & DRAW_UPPER_RIGHT)
 1536              		.loc 1 344 5 is_stmt 1 view .LVU382
 1537              		.loc 1 344 8 is_stmt 0 view .LVU383
 1538 0016 15F0010F 		tst	r5, #1
 1539 001a 0BD1     		bne	.L90
 1540              	.LVL151:
 1541              	.L85:
 345:Dsp/widget/wgt_core/GenDsp.c ****     {
 346:Dsp/widget/wgt_core/GenDsp.c ****         GenDsp_Draw_VLine(map, x0 + x, y0 - y, y + 1, 1);
 347:Dsp/widget/wgt_core/GenDsp.c ****         GenDsp_Draw_VLine(map, x0 + y, y0 - x, x + 1, 1);
 348:Dsp/widget/wgt_core/GenDsp.c ****     }
 349:Dsp/widget/wgt_core/GenDsp.c **** 
 350:Dsp/widget/wgt_core/GenDsp.c ****     /* upper left */
 351:Dsp/widget/wgt_core/GenDsp.c ****     if (option & DRAW_UPPER_LEFT)
 1542              		.loc 1 351 5 is_stmt 1 view .LVU384
 1543              		.loc 1 351 8 is_stmt 0 view .LVU385
 1544 001c 15F0020F 		tst	r5, #2
 1545 0020 2ED1     		bne	.L91
 1546              	.L86:
 352:Dsp/widget/wgt_core/GenDsp.c ****     {
 353:Dsp/widget/wgt_core/GenDsp.c ****         GenDsp_Draw_VLine(map, x0 - x, y0 - y, y + 1, 1);
 354:Dsp/widget/wgt_core/GenDsp.c ****         GenDsp_Draw_VLine(map, x0 - y, y0 - x, x + 1, 1);
 355:Dsp/widget/wgt_core/GenDsp.c ****     }
 356:Dsp/widget/wgt_core/GenDsp.c **** 
 357:Dsp/widget/wgt_core/GenDsp.c ****     /* lower right */
 358:Dsp/widget/wgt_core/GenDsp.c ****     if (option & DRAW_LOWER_RIGHT)
 1547              		.loc 1 358 5 is_stmt 1 view .LVU386
 1548              		.loc 1 358 8 is_stmt 0 view .LVU387
 1549 0022 15F0080F 		tst	r5, #8
 1550 0026 52D1     		bne	.L92
 1551              	.L87:
 359:Dsp/widget/wgt_core/GenDsp.c ****     {
 360:Dsp/widget/wgt_core/GenDsp.c ****         GenDsp_Draw_VLine(map, x0 + x, y0, y + 1, 1);
 361:Dsp/widget/wgt_core/GenDsp.c ****         GenDsp_Draw_VLine(map, x0 + y, y0, x + 1, 1);
 362:Dsp/widget/wgt_core/GenDsp.c ****     }
 363:Dsp/widget/wgt_core/GenDsp.c **** 
 364:Dsp/widget/wgt_core/GenDsp.c ****     /* lower left */
 365:Dsp/widget/wgt_core/GenDsp.c ****     if (option & DRAW_LOWER_LEFT)
 1552              		.loc 1 365 5 is_stmt 1 view .LVU388
 1553              		.loc 1 365 8 is_stmt 0 view .LVU389
 1554 0028 15F0040F 		tst	r5, #4
ARM GAS  C:\Users\97116\AppData\Local\Temp\cchXdEe4.s 			page 36


 1555 002c 70D1     		bne	.L93
 1556              	.L84:
 366:Dsp/widget/wgt_core/GenDsp.c ****     {
 367:Dsp/widget/wgt_core/GenDsp.c ****         GenDsp_Draw_VLine(map, x0 - x, y0, y + 1, 1);
 368:Dsp/widget/wgt_core/GenDsp.c ****         GenDsp_Draw_VLine(map, x0 - y, y0, x + 1, 1);
 369:Dsp/widget/wgt_core/GenDsp.c ****     }
 370:Dsp/widget/wgt_core/GenDsp.c **** }
 1557              		.loc 1 370 1 view .LVU390
 1558 002e 07B0     		add	sp, sp, #28
 1559              	.LCFI38:
 1560              		.cfi_remember_state
 1561              		.cfi_def_cfa_offset 36
 1562              		@ sp needed
 1563 0030 BDE8F08F 		pop	{r4, r5, r6, r7, r8, r9, r10, fp, pc}
 1564              	.LVL152:
 1565              	.L90:
 1566              	.LCFI39:
 1567              		.cfi_restore_state
 346:Dsp/widget/wgt_core/GenDsp.c ****         GenDsp_Draw_VLine(map, x0 + y, y0 - x, x + 1, 1);
 1568              		.loc 1 346 9 is_stmt 1 view .LVU391
 346:Dsp/widget/wgt_core/GenDsp.c ****         GenDsp_Draw_VLine(map, x0 + y, y0 - x, x + 1, 1);
 1569              		.loc 1 346 35 is_stmt 0 view .LVU392
 1570 0034 9DF81470 		ldrb	r7, [sp, #20]	@ zero_extendqisi2
 1571 0038 9DF80C90 		ldrb	r9, [sp, #12]	@ zero_extendqisi2
 1572 003c 07EB0901 		add	r1, r7, r9
 1573              	.LVL153:
 346:Dsp/widget/wgt_core/GenDsp.c ****         GenDsp_Draw_VLine(map, x0 + y, y0 - x, x + 1, 1);
 1574              		.loc 1 346 43 view .LVU393
 1575 0040 5FFA86F8 		uxtb	r8, r6
 1576 0044 9DF810A0 		ldrb	r10, [sp, #16]	@ zero_extendqisi2
 1577 0048 A8EB0A02 		sub	r2, r8, r10
 1578              	.LVL154:
 346:Dsp/widget/wgt_core/GenDsp.c ****         GenDsp_Draw_VLine(map, x0 + y, y0 - x, x + 1, 1);
 1579              		.loc 1 346 9 view .LVU394
 1580 004c 0AF10103 		add	r3, r10, #1
 1581              	.LVL155:
 346:Dsp/widget/wgt_core/GenDsp.c ****         GenDsp_Draw_VLine(map, x0 + y, y0 - x, x + 1, 1);
 1582              		.loc 1 346 9 view .LVU395
 1583 0050 4FF0010B 		mov	fp, #1
 1584 0054 CDF800B0 		str	fp, [sp]
 1585 0058 DBB2     		uxtb	r3, r3
 1586 005a 52B2     		sxtb	r2, r2
 1587 005c 49B2     		sxtb	r1, r1
 1588 005e FFF7FEFF 		bl	GenDsp_Draw_VLine
 1589              	.LVL156:
 347:Dsp/widget/wgt_core/GenDsp.c ****     }
 1590              		.loc 1 347 9 is_stmt 1 view .LVU396
 347:Dsp/widget/wgt_core/GenDsp.c ****     }
 1591              		.loc 1 347 35 is_stmt 0 view .LVU397
 1592 0062 07EB0A01 		add	r1, r7, r10
 347:Dsp/widget/wgt_core/GenDsp.c ****     }
 1593              		.loc 1 347 43 view .LVU398
 1594 0066 A8EB0902 		sub	r2, r8, r9
 347:Dsp/widget/wgt_core/GenDsp.c ****     }
 1595              		.loc 1 347 9 view .LVU399
 1596 006a 09EB0B03 		add	r3, r9, fp
 1597 006e CDF800B0 		str	fp, [sp]
ARM GAS  C:\Users\97116\AppData\Local\Temp\cchXdEe4.s 			page 37


 1598 0072 DBB2     		uxtb	r3, r3
 1599 0074 52B2     		sxtb	r2, r2
 1600 0076 49B2     		sxtb	r1, r1
 1601 0078 2046     		mov	r0, r4
 1602 007a FFF7FEFF 		bl	GenDsp_Draw_VLine
 1603              	.LVL157:
 1604 007e CDE7     		b	.L85
 1605              	.L91:
 353:Dsp/widget/wgt_core/GenDsp.c ****         GenDsp_Draw_VLine(map, x0 - y, y0 - x, x + 1, 1);
 1606              		.loc 1 353 9 is_stmt 1 view .LVU400
 353:Dsp/widget/wgt_core/GenDsp.c ****         GenDsp_Draw_VLine(map, x0 - y, y0 - x, x + 1, 1);
 1607              		.loc 1 353 35 is_stmt 0 view .LVU401
 1608 0080 9DF81470 		ldrb	r7, [sp, #20]	@ zero_extendqisi2
 1609 0084 9DF80C90 		ldrb	r9, [sp, #12]	@ zero_extendqisi2
 1610 0088 A7EB0901 		sub	r1, r7, r9
 353:Dsp/widget/wgt_core/GenDsp.c ****         GenDsp_Draw_VLine(map, x0 - y, y0 - x, x + 1, 1);
 1611              		.loc 1 353 43 view .LVU402
 1612 008c 5FFA86F8 		uxtb	r8, r6
 1613 0090 9DF810A0 		ldrb	r10, [sp, #16]	@ zero_extendqisi2
 1614 0094 A8EB0A02 		sub	r2, r8, r10
 353:Dsp/widget/wgt_core/GenDsp.c ****         GenDsp_Draw_VLine(map, x0 - y, y0 - x, x + 1, 1);
 1615              		.loc 1 353 9 view .LVU403
 1616 0098 0AF10103 		add	r3, r10, #1
 1617 009c 4FF0010B 		mov	fp, #1
 1618 00a0 CDF800B0 		str	fp, [sp]
 1619 00a4 DBB2     		uxtb	r3, r3
 1620 00a6 52B2     		sxtb	r2, r2
 1621 00a8 49B2     		sxtb	r1, r1
 1622 00aa 2046     		mov	r0, r4
 1623 00ac FFF7FEFF 		bl	GenDsp_Draw_VLine
 1624              	.LVL158:
 354:Dsp/widget/wgt_core/GenDsp.c ****     }
 1625              		.loc 1 354 9 is_stmt 1 view .LVU404
 354:Dsp/widget/wgt_core/GenDsp.c ****     }
 1626              		.loc 1 354 35 is_stmt 0 view .LVU405
 1627 00b0 A7EB0A01 		sub	r1, r7, r10
 354:Dsp/widget/wgt_core/GenDsp.c ****     }
 1628              		.loc 1 354 43 view .LVU406
 1629 00b4 A8EB0902 		sub	r2, r8, r9
 354:Dsp/widget/wgt_core/GenDsp.c ****     }
 1630              		.loc 1 354 9 view .LVU407
 1631 00b8 09EB0B03 		add	r3, r9, fp
 1632 00bc CDF800B0 		str	fp, [sp]
 1633 00c0 DBB2     		uxtb	r3, r3
 1634 00c2 52B2     		sxtb	r2, r2
 1635 00c4 49B2     		sxtb	r1, r1
 1636 00c6 2046     		mov	r0, r4
 1637 00c8 FFF7FEFF 		bl	GenDsp_Draw_VLine
 1638              	.LVL159:
 1639 00cc A9E7     		b	.L86
 1640              	.L92:
 360:Dsp/widget/wgt_core/GenDsp.c ****         GenDsp_Draw_VLine(map, x0 + y, y0, x + 1, 1);
 1641              		.loc 1 360 9 is_stmt 1 view .LVU408
 360:Dsp/widget/wgt_core/GenDsp.c ****         GenDsp_Draw_VLine(map, x0 + y, y0, x + 1, 1);
 1642              		.loc 1 360 35 is_stmt 0 view .LVU409
 1643 00ce 9DF81470 		ldrb	r7, [sp, #20]	@ zero_extendqisi2
 1644 00d2 9DF80C80 		ldrb	r8, [sp, #12]	@ zero_extendqisi2
ARM GAS  C:\Users\97116\AppData\Local\Temp\cchXdEe4.s 			page 38


 1645 00d6 07EB0801 		add	r1, r7, r8
 360:Dsp/widget/wgt_core/GenDsp.c ****         GenDsp_Draw_VLine(map, x0 + y, y0, x + 1, 1);
 1646              		.loc 1 360 9 view .LVU410
 1647 00da 9DF810A0 		ldrb	r10, [sp, #16]	@ zero_extendqisi2
 1648 00de 0AF10103 		add	r3, r10, #1
 1649 00e2 4FF00109 		mov	r9, #1
 1650 00e6 CDF80090 		str	r9, [sp]
 1651 00ea DBB2     		uxtb	r3, r3
 1652 00ec 3246     		mov	r2, r6
 1653 00ee 49B2     		sxtb	r1, r1
 1654 00f0 2046     		mov	r0, r4
 1655 00f2 FFF7FEFF 		bl	GenDsp_Draw_VLine
 1656              	.LVL160:
 361:Dsp/widget/wgt_core/GenDsp.c ****     }
 1657              		.loc 1 361 9 is_stmt 1 view .LVU411
 361:Dsp/widget/wgt_core/GenDsp.c ****     }
 1658              		.loc 1 361 35 is_stmt 0 view .LVU412
 1659 00f6 07EB0A01 		add	r1, r7, r10
 361:Dsp/widget/wgt_core/GenDsp.c ****     }
 1660              		.loc 1 361 9 view .LVU413
 1661 00fa 08EB0903 		add	r3, r8, r9
 1662 00fe CDF80090 		str	r9, [sp]
 1663 0102 DBB2     		uxtb	r3, r3
 1664 0104 3246     		mov	r2, r6
 1665 0106 49B2     		sxtb	r1, r1
 1666 0108 2046     		mov	r0, r4
 1667 010a FFF7FEFF 		bl	GenDsp_Draw_VLine
 1668              	.LVL161:
 1669 010e 8BE7     		b	.L87
 1670              	.L93:
 367:Dsp/widget/wgt_core/GenDsp.c ****         GenDsp_Draw_VLine(map, x0 - y, y0, x + 1, 1);
 1671              		.loc 1 367 9 is_stmt 1 view .LVU414
 367:Dsp/widget/wgt_core/GenDsp.c ****         GenDsp_Draw_VLine(map, x0 - y, y0, x + 1, 1);
 1672              		.loc 1 367 35 is_stmt 0 view .LVU415
 1673 0110 9DF81470 		ldrb	r7, [sp, #20]	@ zero_extendqisi2
 1674 0114 9DF80C80 		ldrb	r8, [sp, #12]	@ zero_extendqisi2
 1675 0118 A7EB0801 		sub	r1, r7, r8
 367:Dsp/widget/wgt_core/GenDsp.c ****         GenDsp_Draw_VLine(map, x0 - y, y0, x + 1, 1);
 1676              		.loc 1 367 9 view .LVU416
 1677 011c 9DF81050 		ldrb	r5, [sp, #16]	@ zero_extendqisi2
 1678 0120 6B1C     		adds	r3, r5, #1
 1679 0122 4FF00109 		mov	r9, #1
 1680 0126 CDF80090 		str	r9, [sp]
 1681 012a DBB2     		uxtb	r3, r3
 1682 012c 3246     		mov	r2, r6
 1683 012e 49B2     		sxtb	r1, r1
 1684 0130 2046     		mov	r0, r4
 1685 0132 FFF7FEFF 		bl	GenDsp_Draw_VLine
 1686              	.LVL162:
 368:Dsp/widget/wgt_core/GenDsp.c ****     }
 1687              		.loc 1 368 9 is_stmt 1 view .LVU417
 368:Dsp/widget/wgt_core/GenDsp.c ****     }
 1688              		.loc 1 368 35 is_stmt 0 view .LVU418
 1689 0136 791B     		subs	r1, r7, r5
 368:Dsp/widget/wgt_core/GenDsp.c ****     }
 1690              		.loc 1 368 9 view .LVU419
 1691 0138 08EB0903 		add	r3, r8, r9
ARM GAS  C:\Users\97116\AppData\Local\Temp\cchXdEe4.s 			page 39


 1692 013c CDF80090 		str	r9, [sp]
 1693 0140 DBB2     		uxtb	r3, r3
 1694 0142 3246     		mov	r2, r6
 1695 0144 49B2     		sxtb	r1, r1
 1696 0146 2046     		mov	r0, r4
 1697 0148 FFF7FEFF 		bl	GenDsp_Draw_VLine
 1698              	.LVL163:
 1699              		.loc 1 370 1 view .LVU420
 1700 014c 6FE7     		b	.L84
 1701              		.cfi_endproc
 1702              	.LFE17:
 1704              		.section	.text.GenDsp_FillCircle,"ax",%progbits
 1705              		.align	1
 1706              		.syntax unified
 1707              		.thumb
 1708              		.thumb_func
 1709              		.fpu fpv4-sp-d16
 1711              	GenDsp_FillCircle:
 1712              	.LVL164:
 1713              	.LFB18:
 371:Dsp/widget/wgt_core/GenDsp.c **** 
 372:Dsp/widget/wgt_core/GenDsp.c **** static void GenDsp_FillCircle(uint8_t **map, int8_t x0, int8_t y0, uint8_t radius, uint8_t option)
 373:Dsp/widget/wgt_core/GenDsp.c **** {
 1714              		.loc 1 373 1 is_stmt 1 view -0
 1715              		.cfi_startproc
 1716              		@ args = 4, pretend = 0, frame = 8
 1717              		@ frame_needed = 0, uses_anonymous_args = 0
 1718              		.loc 1 373 1 is_stmt 0 view .LVU422
 1719 0000 2DE9F04F 		push	{r4, r5, r6, r7, r8, r9, r10, fp, lr}
 1720              	.LCFI40:
 1721              		.cfi_def_cfa_offset 36
 1722              		.cfi_offset 4, -36
 1723              		.cfi_offset 5, -32
 1724              		.cfi_offset 6, -28
 1725              		.cfi_offset 7, -24
 1726              		.cfi_offset 8, -20
 1727              		.cfi_offset 9, -16
 1728              		.cfi_offset 10, -12
 1729              		.cfi_offset 11, -8
 1730              		.cfi_offset 14, -4
 1731 0004 85B0     		sub	sp, sp, #20
 1732              	.LCFI41:
 1733              		.cfi_def_cfa_offset 56
 1734 0006 0390     		str	r0, [sp, #12]
 1735 0008 8946     		mov	r9, r1
 1736 000a 9246     		mov	r10, r2
 1737 000c 9DF838B0 		ldrb	fp, [sp, #56]	@ zero_extendqisi2
 374:Dsp/widget/wgt_core/GenDsp.c ****     int8_t f;
 1738              		.loc 1 374 5 is_stmt 1 view .LVU423
 375:Dsp/widget/wgt_core/GenDsp.c ****     int8_t ddF_x;
 1739              		.loc 1 375 5 view .LVU424
 376:Dsp/widget/wgt_core/GenDsp.c ****     int8_t ddF_y;
 1740              		.loc 1 376 5 view .LVU425
 377:Dsp/widget/wgt_core/GenDsp.c ****     int8_t x;
 1741              		.loc 1 377 5 view .LVU426
 378:Dsp/widget/wgt_core/GenDsp.c ****     int8_t y;
 1742              		.loc 1 378 5 view .LVU427
ARM GAS  C:\Users\97116\AppData\Local\Temp\cchXdEe4.s 			page 40


 379:Dsp/widget/wgt_core/GenDsp.c **** 
 380:Dsp/widget/wgt_core/GenDsp.c ****     f = 1;
 1743              		.loc 1 380 5 view .LVU428
 1744              	.LVL165:
 381:Dsp/widget/wgt_core/GenDsp.c ****     f -= radius;
 1745              		.loc 1 381 5 view .LVU429
 1746              		.loc 1 381 7 is_stmt 0 view .LVU430
 1747 0010 C3F10104 		rsb	r4, r3, #1
 1748 0014 64B2     		sxtb	r4, r4
 1749              	.LVL166:
 382:Dsp/widget/wgt_core/GenDsp.c ****     ddF_x = 1;
 1750              		.loc 1 382 5 is_stmt 1 view .LVU431
 383:Dsp/widget/wgt_core/GenDsp.c ****     ddF_y = 0;
 1751              		.loc 1 383 5 view .LVU432
 384:Dsp/widget/wgt_core/GenDsp.c ****     ddF_y -= radius;
 1752              		.loc 1 384 5 view .LVU433
 385:Dsp/widget/wgt_core/GenDsp.c ****     ddF_y *= 2;
 1753              		.loc 1 385 5 view .LVU434
 1754              		.loc 1 385 11 is_stmt 0 view .LVU435
 1755 0016 C3EBC318 		rsb	r8, r3, r3, lsl #7
 1756 001a 4FEA4808 		lsl	r8, r8, #1
 1757 001e 4FFA88F8 		sxtb	r8, r8
 1758              	.LVL167:
 386:Dsp/widget/wgt_core/GenDsp.c ****     x = 0;
 1759              		.loc 1 386 5 is_stmt 1 view .LVU436
 387:Dsp/widget/wgt_core/GenDsp.c ****     y = radius;
 1760              		.loc 1 387 5 view .LVU437
 1761              		.loc 1 387 7 is_stmt 0 view .LVU438
 1762 0022 5EB2     		sxtb	r6, r3
 1763              	.LVL168:
 388:Dsp/widget/wgt_core/GenDsp.c **** 
 389:Dsp/widget/wgt_core/GenDsp.c ****     GenDsp_Fill_Circle_Section(map, x, y, x0, y0, option);
 1764              		.loc 1 389 5 is_stmt 1 view .LVU439
 1765 0024 CDF804B0 		str	fp, [sp, #4]
 1766 0028 0092     		str	r2, [sp]
 1767 002a 0B46     		mov	r3, r1
 1768              	.LVL169:
 1769              		.loc 1 389 5 is_stmt 0 view .LVU440
 1770 002c 3246     		mov	r2, r6
 1771              	.LVL170:
 1772              		.loc 1 389 5 view .LVU441
 1773 002e 0021     		movs	r1, #0
 1774              	.LVL171:
 1775              		.loc 1 389 5 view .LVU442
 1776 0030 FFF7FEFF 		bl	GenDsp_Fill_Circle_Section
 1777              	.LVL172:
 390:Dsp/widget/wgt_core/GenDsp.c **** 
 391:Dsp/widget/wgt_core/GenDsp.c ****     while (x < y)
 1778              		.loc 1 391 5 is_stmt 1 view .LVU443
 386:Dsp/widget/wgt_core/GenDsp.c ****     y = radius;
 1779              		.loc 1 386 7 is_stmt 0 view .LVU444
 1780 0034 0025     		movs	r5, #0
 382:Dsp/widget/wgt_core/GenDsp.c ****     ddF_y = 0;
 1781              		.loc 1 382 11 view .LVU445
 1782 0036 0127     		movs	r7, #1
 1783              		.loc 1 391 11 view .LVU446
 1784 0038 19E0     		b	.L95
ARM GAS  C:\Users\97116\AppData\Local\Temp\cchXdEe4.s 			page 41


 1785              	.LVL173:
 1786              	.L100:
 392:Dsp/widget/wgt_core/GenDsp.c ****     {
 393:Dsp/widget/wgt_core/GenDsp.c ****         if (f >= 0)
 394:Dsp/widget/wgt_core/GenDsp.c ****         {
 395:Dsp/widget/wgt_core/GenDsp.c ****             y--;
 1787              		.loc 1 395 13 is_stmt 1 view .LVU447
 1788              		.loc 1 395 14 is_stmt 0 view .LVU448
 1789 003a 013E     		subs	r6, r6, #1
 1790              	.LVL174:
 1791              		.loc 1 395 14 view .LVU449
 1792 003c 76B2     		sxtb	r6, r6
 1793              	.LVL175:
 396:Dsp/widget/wgt_core/GenDsp.c ****             ddF_y += 2;
 1794              		.loc 1 396 13 is_stmt 1 view .LVU450
 1795              		.loc 1 396 19 is_stmt 0 view .LVU451
 1796 003e 08F10203 		add	r3, r8, #2
 1797 0042 4FFA83F8 		sxtb	r8, r3
 1798              	.LVL176:
 397:Dsp/widget/wgt_core/GenDsp.c ****             f += ddF_y;
 1799              		.loc 1 397 13 is_stmt 1 view .LVU452
 1800              		.loc 1 397 15 is_stmt 0 view .LVU453
 1801 0046 54FA83F4 		uxtab	r4, r4, r3
 1802              	.LVL177:
 1803              		.loc 1 397 15 view .LVU454
 1804 004a 64B2     		sxtb	r4, r4
 1805              	.LVL178:
 1806              	.L96:
 398:Dsp/widget/wgt_core/GenDsp.c ****         }
 399:Dsp/widget/wgt_core/GenDsp.c ****         x++;
 1807              		.loc 1 399 9 is_stmt 1 view .LVU455
 1808              		.loc 1 399 10 is_stmt 0 view .LVU456
 1809 004c 0135     		adds	r5, r5, #1
 1810              	.LVL179:
 1811              		.loc 1 399 10 view .LVU457
 1812 004e 6DB2     		sxtb	r5, r5
 1813              	.LVL180:
 400:Dsp/widget/wgt_core/GenDsp.c ****         ddF_x += 2;
 1814              		.loc 1 400 9 is_stmt 1 view .LVU458
 1815              		.loc 1 400 15 is_stmt 0 view .LVU459
 1816 0050 BB1C     		adds	r3, r7, #2
 1817 0052 5FB2     		sxtb	r7, r3
 1818              	.LVL181:
 401:Dsp/widget/wgt_core/GenDsp.c ****         f += ddF_x;
 1819              		.loc 1 401 9 is_stmt 1 view .LVU460
 1820              		.loc 1 401 11 is_stmt 0 view .LVU461
 1821 0054 54FA83F4 		uxtab	r4, r4, r3
 1822              	.LVL182:
 1823              		.loc 1 401 11 view .LVU462
 1824 0058 64B2     		sxtb	r4, r4
 1825              	.LVL183:
 402:Dsp/widget/wgt_core/GenDsp.c **** 
 403:Dsp/widget/wgt_core/GenDsp.c ****         GenDsp_Fill_Circle_Section(map, x, y, x0, y0, option);
 1826              		.loc 1 403 9 is_stmt 1 view .LVU463
 1827 005a CDF804B0 		str	fp, [sp, #4]
 1828 005e CDF800A0 		str	r10, [sp]
 1829 0062 4B46     		mov	r3, r9
ARM GAS  C:\Users\97116\AppData\Local\Temp\cchXdEe4.s 			page 42


 1830 0064 3246     		mov	r2, r6
 1831 0066 2946     		mov	r1, r5
 1832 0068 0398     		ldr	r0, [sp, #12]
 1833 006a FFF7FEFF 		bl	GenDsp_Fill_Circle_Section
 1834              	.LVL184:
 1835              	.L95:
 391:Dsp/widget/wgt_core/GenDsp.c ****     {
 1836              		.loc 1 391 11 view .LVU464
 1837 006e B542     		cmp	r5, r6
 1838 0070 02DA     		bge	.L99
 393:Dsp/widget/wgt_core/GenDsp.c ****         {
 1839              		.loc 1 393 9 view .LVU465
 393:Dsp/widget/wgt_core/GenDsp.c ****         {
 1840              		.loc 1 393 12 is_stmt 0 view .LVU466
 1841 0072 002C     		cmp	r4, #0
 1842 0074 E1DA     		bge	.L100
 1843 0076 E9E7     		b	.L96
 1844              	.L99:
 404:Dsp/widget/wgt_core/GenDsp.c ****     }
 405:Dsp/widget/wgt_core/GenDsp.c **** }
 1845              		.loc 1 405 1 view .LVU467
 1846 0078 05B0     		add	sp, sp, #20
 1847              	.LCFI42:
 1848              		.cfi_def_cfa_offset 36
 1849              		@ sp needed
 1850 007a BDE8F08F 		pop	{r4, r5, r6, r7, r8, r9, r10, fp, pc}
 1851              		.loc 1 405 1 view .LVU468
 1852              		.cfi_endproc
 1853              	.LFE18:
 1855              		.section	.text.GenDsp_FillRectangle,"ax",%progbits
 1856              		.align	1
 1857              		.syntax unified
 1858              		.thumb
 1859              		.thumb_func
 1860              		.fpu fpv4-sp-d16
 1862              	GenDsp_FillRectangle:
 1863              	.LVL185:
 1864              	.LFB19:
 406:Dsp/widget/wgt_core/GenDsp.c **** 
 407:Dsp/widget/wgt_core/GenDsp.c **** static void GenDsp_FillRectangle(uint8_t **map, int8_t x, int8_t y, uint8_t width, uint8_t height)
 408:Dsp/widget/wgt_core/GenDsp.c **** {
 1865              		.loc 1 408 1 is_stmt 1 view -0
 1866              		.cfi_startproc
 1867              		@ args = 4, pretend = 0, frame = 0
 1868              		@ frame_needed = 0, uses_anonymous_args = 0
 1869              		.loc 1 408 1 is_stmt 0 view .LVU470
 1870 0000 2DE9F047 		push	{r4, r5, r6, r7, r8, r9, r10, lr}
 1871              	.LCFI43:
 1872              		.cfi_def_cfa_offset 32
 1873              		.cfi_offset 4, -32
 1874              		.cfi_offset 5, -28
 1875              		.cfi_offset 6, -24
 1876              		.cfi_offset 7, -20
 1877              		.cfi_offset 8, -16
 1878              		.cfi_offset 9, -12
 1879              		.cfi_offset 10, -8
 1880              		.cfi_offset 14, -4
ARM GAS  C:\Users\97116\AppData\Local\Temp\cchXdEe4.s 			page 43


 1881 0004 8046     		mov	r8, r0
 1882 0006 8946     		mov	r9, r1
 1883 0008 1646     		mov	r6, r2
 1884 000a 9A46     		mov	r10, r3
 1885 000c 9DF82070 		ldrb	r7, [sp, #32]	@ zero_extendqisi2
 409:Dsp/widget/wgt_core/GenDsp.c ****     for (int8_t x_tmp = x; x_tmp < x + width; x_tmp++)
 1886              		.loc 1 409 5 is_stmt 1 view .LVU471
 1887              	.LBB10:
 1888              		.loc 1 409 10 view .LVU472
 1889              	.LVL186:
 1890              		.loc 1 409 17 is_stmt 0 view .LVU473
 1891 0010 0D46     		mov	r5, r1
 1892              		.loc 1 409 5 view .LVU474
 1893 0012 0CE0     		b	.L102
 1894              	.LVL187:
 1895              	.L103:
 1896              	.LBB11:
 410:Dsp/widget/wgt_core/GenDsp.c ****     {
 411:Dsp/widget/wgt_core/GenDsp.c ****         for (int8_t y_tmp = y; y_tmp < y + height; y_tmp++)
 412:Dsp/widget/wgt_core/GenDsp.c ****         {
 413:Dsp/widget/wgt_core/GenDsp.c ****             GenDsp_DrawPoint(map, x_tmp, y_tmp, true);
 1897              		.loc 1 413 13 is_stmt 1 discriminator 3 view .LVU475
 1898 0014 0123     		movs	r3, #1
 1899 0016 2246     		mov	r2, r4
 1900 0018 2946     		mov	r1, r5
 1901 001a 4046     		mov	r0, r8
 1902 001c FFF7FEFF 		bl	GenDsp_DrawPoint
 1903              	.LVL188:
 411:Dsp/widget/wgt_core/GenDsp.c ****         {
 1904              		.loc 1 411 52 discriminator 3 view .LVU476
 411:Dsp/widget/wgt_core/GenDsp.c ****         {
 1905              		.loc 1 411 57 is_stmt 0 discriminator 3 view .LVU477
 1906 0020 0134     		adds	r4, r4, #1
 1907              	.LVL189:
 411:Dsp/widget/wgt_core/GenDsp.c ****         {
 1908              		.loc 1 411 57 discriminator 3 view .LVU478
 1909 0022 64B2     		sxtb	r4, r4
 1910              	.LVL190:
 1911              	.L104:
 411:Dsp/widget/wgt_core/GenDsp.c ****         {
 1912              		.loc 1 411 32 is_stmt 1 discriminator 1 view .LVU479
 411:Dsp/widget/wgt_core/GenDsp.c ****         {
 1913              		.loc 1 411 42 is_stmt 0 discriminator 1 view .LVU480
 1914 0024 F319     		adds	r3, r6, r7
 411:Dsp/widget/wgt_core/GenDsp.c ****         {
 1915              		.loc 1 411 9 discriminator 1 view .LVU481
 1916 0026 9C42     		cmp	r4, r3
 1917 0028 F4DB     		blt	.L103
 1918              	.LBE11:
 409:Dsp/widget/wgt_core/GenDsp.c ****     for (int8_t x_tmp = x; x_tmp < x + width; x_tmp++)
 1919              		.loc 1 409 47 is_stmt 1 discriminator 2 view .LVU482
 409:Dsp/widget/wgt_core/GenDsp.c ****     for (int8_t x_tmp = x; x_tmp < x + width; x_tmp++)
 1920              		.loc 1 409 52 is_stmt 0 discriminator 2 view .LVU483
 1921 002a 0135     		adds	r5, r5, #1
 1922              	.LVL191:
 409:Dsp/widget/wgt_core/GenDsp.c ****     for (int8_t x_tmp = x; x_tmp < x + width; x_tmp++)
 1923              		.loc 1 409 52 discriminator 2 view .LVU484
ARM GAS  C:\Users\97116\AppData\Local\Temp\cchXdEe4.s 			page 44


 1924 002c 6DB2     		sxtb	r5, r5
 1925              	.LVL192:
 1926              	.L102:
 409:Dsp/widget/wgt_core/GenDsp.c ****     for (int8_t x_tmp = x; x_tmp < x + width; x_tmp++)
 1927              		.loc 1 409 28 is_stmt 1 discriminator 1 view .LVU485
 409:Dsp/widget/wgt_core/GenDsp.c ****     for (int8_t x_tmp = x; x_tmp < x + width; x_tmp++)
 1928              		.loc 1 409 38 is_stmt 0 discriminator 1 view .LVU486
 1929 002e 09EB0A03 		add	r3, r9, r10
 409:Dsp/widget/wgt_core/GenDsp.c ****     for (int8_t x_tmp = x; x_tmp < x + width; x_tmp++)
 1930              		.loc 1 409 5 discriminator 1 view .LVU487
 1931 0032 9D42     		cmp	r5, r3
 1932 0034 01DA     		bge	.L107
 1933              	.LBB12:
 411:Dsp/widget/wgt_core/GenDsp.c ****         {
 1934              		.loc 1 411 21 view .LVU488
 1935 0036 3446     		mov	r4, r6
 1936 0038 F4E7     		b	.L104
 1937              	.L107:
 1938              	.LBE12:
 1939              	.LBE10:
 414:Dsp/widget/wgt_core/GenDsp.c ****         }
 415:Dsp/widget/wgt_core/GenDsp.c ****     }
 416:Dsp/widget/wgt_core/GenDsp.c **** }
 1940              		.loc 1 416 1 view .LVU489
 1941 003a BDE8F087 		pop	{r4, r5, r6, r7, r8, r9, r10, pc}
 1942              		.loc 1 416 1 view .LVU490
 1943              		.cfi_endproc
 1944              	.LFE19:
 1946              		.section	.text.GenDsp_Fill_RadiusRectangle,"ax",%progbits
 1947              		.align	1
 1948              		.syntax unified
 1949              		.thumb
 1950              		.thumb_func
 1951              		.fpu fpv4-sp-d16
 1953              	GenDsp_Fill_RadiusRectangle:
 1954              	.LVL193:
 1955              	.LFB20:
 417:Dsp/widget/wgt_core/GenDsp.c **** 
 418:Dsp/widget/wgt_core/GenDsp.c **** static void GenDsp_Fill_RadiusRectangle(uint8_t **map, int8_t x, int8_t y, uint8_t width, uint8_t h
 419:Dsp/widget/wgt_core/GenDsp.c **** {
 1956              		.loc 1 419 1 is_stmt 1 view -0
 1957              		.cfi_startproc
 1958              		@ args = 8, pretend = 0, frame = 16
 1959              		@ frame_needed = 0, uses_anonymous_args = 0
 1960              		.loc 1 419 1 is_stmt 0 view .LVU492
 1961 0000 2DE9F04F 		push	{r4, r5, r6, r7, r8, r9, r10, fp, lr}
 1962              	.LCFI44:
 1963              		.cfi_def_cfa_offset 36
 1964              		.cfi_offset 4, -36
 1965              		.cfi_offset 5, -32
 1966              		.cfi_offset 6, -28
 1967              		.cfi_offset 7, -24
 1968              		.cfi_offset 8, -20
 1969              		.cfi_offset 9, -16
 1970              		.cfi_offset 10, -12
 1971              		.cfi_offset 11, -8
 1972              		.cfi_offset 14, -4
ARM GAS  C:\Users\97116\AppData\Local\Temp\cchXdEe4.s 			page 45


 1973 0004 87B0     		sub	sp, sp, #28
 1974              	.LCFI45:
 1975              		.cfi_def_cfa_offset 64
 1976 0006 8046     		mov	r8, r0
 1977 0008 1446     		mov	r4, r2
 1978 000a 9DF840B0 		ldrb	fp, [sp, #64]	@ zero_extendqisi2
 1979 000e 9DF84460 		ldrb	r6, [sp, #68]	@ zero_extendqisi2
 420:Dsp/widget/wgt_core/GenDsp.c ****     GenDsp_FillRectangle(map, x + radius, y, width - 2 * radius, height);
 1980              		.loc 1 420 5 is_stmt 1 view .LVU493
 1981              		.loc 1 420 33 is_stmt 0 view .LVU494
 1982 0012 0391     		str	r1, [sp, #12]
 1983 0014 9DF80C50 		ldrb	r5, [sp, #12]	@ zero_extendqisi2
 1984 0018 05EB060A 		add	r10, r5, r6
 1985              		.loc 1 420 5 view .LVU495
 1986 001c 4FFA8AFA 		sxtb	r10, r10
 1987 0020 7700     		lsls	r7, r6, #1
 1988 0022 FFB2     		uxtb	r7, r7
 1989 0024 0593     		str	r3, [sp, #20]
 1990 0026 DB1B     		subs	r3, r3, r7
 1991              	.LVL194:
 1992              		.loc 1 420 5 view .LVU496
 1993 0028 CDF800B0 		str	fp, [sp]
 1994 002c DBB2     		uxtb	r3, r3
 1995 002e 5146     		mov	r1, r10
 1996              	.LVL195:
 1997              		.loc 1 420 5 view .LVU497
 1998 0030 FFF7FEFF 		bl	GenDsp_FillRectangle
 1999              	.LVL196:
 421:Dsp/widget/wgt_core/GenDsp.c ****     GenDsp_FillRectangle(map, x, y + radius, radius + 1, height - 2 * radius - 1);
 2000              		.loc 1 421 5 is_stmt 1 view .LVU498
 2001              		.loc 1 421 36 is_stmt 0 view .LVU499
 2002 0034 E4B2     		uxtb	r4, r4
 2003 0036 04EB0609 		add	r9, r4, r6
 2004              		.loc 1 421 5 view .LVU500
 2005 003a 4FFA89F9 		sxtb	r9, r9
 2006 003e 731C     		adds	r3, r6, #1
 2007 0040 D8B2     		uxtb	r0, r3
 2008              		.loc 1 421 65 view .LVU501
 2009 0042 ABEB0707 		sub	r7, fp, r7
 2010 0046 FFB2     		uxtb	r7, r7
 2011              		.loc 1 421 5 view .LVU502
 2012 0048 7B1E     		subs	r3, r7, #1
 2013 004a DBB2     		uxtb	r3, r3
 2014 004c 0093     		str	r3, [sp]
 2015 004e 0490     		str	r0, [sp, #16]
 2016 0050 0346     		mov	r3, r0
 2017 0052 4A46     		mov	r2, r9
 2018 0054 0399     		ldr	r1, [sp, #12]
 2019 0056 4046     		mov	r0, r8
 2020 0058 FFF7FEFF 		bl	GenDsp_FillRectangle
 2021              	.LVL197:
 422:Dsp/widget/wgt_core/GenDsp.c ****     GenDsp_FillRectangle(map, x + width - radius, y + radius, radius + 1, height - 2 * radius);
 2022              		.loc 1 422 5 is_stmt 1 view .LVU503
 2023              		.loc 1 422 33 is_stmt 0 view .LVU504
 2024 005c 059A     		ldr	r2, [sp, #20]
 2025 005e 1544     		add	r5, r5, r2
 2026 0060 EDB2     		uxtb	r5, r5
ARM GAS  C:\Users\97116\AppData\Local\Temp\cchXdEe4.s 			page 46


 2027              		.loc 1 422 41 view .LVU505
 2028 0062 AD1B     		subs	r5, r5, r6
 2029              		.loc 1 422 5 view .LVU506
 2030 0064 6DB2     		sxtb	r5, r5
 2031 0066 0097     		str	r7, [sp]
 2032 0068 049B     		ldr	r3, [sp, #16]
 2033 006a 4A46     		mov	r2, r9
 2034 006c 2946     		mov	r1, r5
 2035 006e 4046     		mov	r0, r8
 2036 0070 FFF7FEFF 		bl	GenDsp_FillRectangle
 2037              	.LVL198:
 423:Dsp/widget/wgt_core/GenDsp.c **** 
 424:Dsp/widget/wgt_core/GenDsp.c ****     GenDsp_FillCircle(map, x + radius, y + radius, radius, DRAW_UPPER_LEFT);
 2038              		.loc 1 424 5 is_stmt 1 view .LVU507
 2039 0074 0223     		movs	r3, #2
 2040 0076 0093     		str	r3, [sp]
 2041 0078 3346     		mov	r3, r6
 2042 007a 4A46     		mov	r2, r9
 2043 007c 5146     		mov	r1, r10
 2044 007e 4046     		mov	r0, r8
 2045 0080 FFF7FEFF 		bl	GenDsp_FillCircle
 2046              	.LVL199:
 425:Dsp/widget/wgt_core/GenDsp.c ****     GenDsp_FillCircle(map, x + width - radius, y + radius, radius, DRAW_UPPER_RIGHT);
 2047              		.loc 1 425 5 view .LVU508
 2048 0084 0123     		movs	r3, #1
 2049 0086 0093     		str	r3, [sp]
 2050 0088 3346     		mov	r3, r6
 2051 008a 4A46     		mov	r2, r9
 2052 008c 2946     		mov	r1, r5
 2053 008e 4046     		mov	r0, r8
 2054 0090 FFF7FEFF 		bl	GenDsp_FillCircle
 2055              	.LVL200:
 426:Dsp/widget/wgt_core/GenDsp.c ****     GenDsp_FillCircle(map, x + radius, y + height - radius - 2, radius, DRAW_LOWER_LEFT);
 2056              		.loc 1 426 5 view .LVU509
 2057              		.loc 1 426 42 is_stmt 0 view .LVU510
 2058 0094 5C44     		add	r4, r4, fp
 2059 0096 E4B2     		uxtb	r4, r4
 2060              		.loc 1 426 51 view .LVU511
 2061 0098 A41B     		subs	r4, r4, r6
 2062 009a E4B2     		uxtb	r4, r4
 2063              		.loc 1 426 60 view .LVU512
 2064 009c 023C     		subs	r4, r4, #2
 2065              		.loc 1 426 5 view .LVU513
 2066 009e 64B2     		sxtb	r4, r4
 2067 00a0 0423     		movs	r3, #4
 2068 00a2 0093     		str	r3, [sp]
 2069 00a4 3346     		mov	r3, r6
 2070 00a6 2246     		mov	r2, r4
 2071 00a8 5146     		mov	r1, r10
 2072 00aa 4046     		mov	r0, r8
 2073 00ac FFF7FEFF 		bl	GenDsp_FillCircle
 2074              	.LVL201:
 427:Dsp/widget/wgt_core/GenDsp.c ****     GenDsp_FillCircle(map, x + width - radius, y + height - radius - 2, radius, DRAW_LOWER_RIGHT);
 2075              		.loc 1 427 5 is_stmt 1 view .LVU514
 2076 00b0 0823     		movs	r3, #8
 2077 00b2 0093     		str	r3, [sp]
 2078 00b4 3346     		mov	r3, r6
ARM GAS  C:\Users\97116\AppData\Local\Temp\cchXdEe4.s 			page 47


 2079 00b6 2246     		mov	r2, r4
 2080 00b8 2946     		mov	r1, r5
 2081 00ba 4046     		mov	r0, r8
 2082 00bc FFF7FEFF 		bl	GenDsp_FillCircle
 2083              	.LVL202:
 428:Dsp/widget/wgt_core/GenDsp.c **** }
 2084              		.loc 1 428 1 is_stmt 0 view .LVU515
 2085 00c0 07B0     		add	sp, sp, #28
 2086              	.LCFI46:
 2087              		.cfi_def_cfa_offset 36
 2088              		@ sp needed
 2089 00c2 BDE8F08F 		pop	{r4, r5, r6, r7, r8, r9, r10, fp, pc}
 2090              		.loc 1 428 1 view .LVU516
 2091              		.cfi_endproc
 2092              	.LFE20:
 2094              		.section	.rodata.GenDsp_DrawNum.str1.4,"aMS",%progbits,1
 2095              		.align	2
 2096              	.LC0:
 2097 0000 256400   		.ascii	"%d\000"
 2098              		.section	.text.GenDsp_DrawNum,"ax",%progbits
 2099              		.align	1
 2100              		.syntax unified
 2101              		.thumb
 2102              		.thumb_func
 2103              		.fpu fpv4-sp-d16
 2105              	GenDsp_DrawNum:
 2106              	.LVL203:
 2107              	.LFB7:
 132:Dsp/widget/wgt_core/GenDsp.c ****     char num_buff[MAX_DSP_NUM_LEN];
 2108              		.loc 1 132 1 is_stmt 1 view -0
 2109              		.cfi_startproc
 2110              		@ args = 8, pretend = 0, frame = 16
 2111              		@ frame_needed = 0, uses_anonymous_args = 0
 132:Dsp/widget/wgt_core/GenDsp.c ****     char num_buff[MAX_DSP_NUM_LEN];
 2112              		.loc 1 132 1 is_stmt 0 view .LVU518
 2113 0000 70B5     		push	{r4, r5, r6, lr}
 2114              	.LCFI47:
 2115              		.cfi_def_cfa_offset 16
 2116              		.cfi_offset 4, -16
 2117              		.cfi_offset 5, -12
 2118              		.cfi_offset 6, -8
 2119              		.cfi_offset 14, -4
 2120 0002 86B0     		sub	sp, sp, #24
 2121              	.LCFI48:
 2122              		.cfi_def_cfa_offset 40
 2123 0004 0446     		mov	r4, r0
 2124 0006 0D46     		mov	r5, r1
 2125 0008 1E46     		mov	r6, r3
 133:Dsp/widget/wgt_core/GenDsp.c **** 
 2126              		.loc 1 133 5 is_stmt 1 view .LVU519
 135:Dsp/widget/wgt_core/GenDsp.c ****     GenDsp_DrawStr(font, map, num_buff, x, y, col_inv);
 2127              		.loc 1 135 5 view .LVU520
 2128 000a 0949     		ldr	r1, .L112
 2129              	.LVL204:
 135:Dsp/widget/wgt_core/GenDsp.c ****     GenDsp_DrawStr(font, map, num_buff, x, y, col_inv);
 2130              		.loc 1 135 5 is_stmt 0 view .LVU521
 2131 000c 03A8     		add	r0, sp, #12
ARM GAS  C:\Users\97116\AppData\Local\Temp\cchXdEe4.s 			page 48


 2132              	.LVL205:
 135:Dsp/widget/wgt_core/GenDsp.c ****     GenDsp_DrawStr(font, map, num_buff, x, y, col_inv);
 2133              		.loc 1 135 5 view .LVU522
 2134 000e FFF7FEFF 		bl	sprintf
 2135              	.LVL206:
 136:Dsp/widget/wgt_core/GenDsp.c **** }
 2136              		.loc 1 136 5 is_stmt 1 view .LVU523
 2137 0012 9DF82C30 		ldrb	r3, [sp, #44]	@ zero_extendqisi2
 2138 0016 0193     		str	r3, [sp, #4]
 2139 0018 9DF92830 		ldrsb	r3, [sp, #40]
 2140 001c 0093     		str	r3, [sp]
 2141 001e 3346     		mov	r3, r6
 2142 0020 03AA     		add	r2, sp, #12
 2143 0022 2946     		mov	r1, r5
 2144 0024 2046     		mov	r0, r4
 2145 0026 FFF7FEFF 		bl	GenDsp_DrawStr
 2146              	.LVL207:
 137:Dsp/widget/wgt_core/GenDsp.c **** 
 2147              		.loc 1 137 1 is_stmt 0 view .LVU524
 2148 002a 06B0     		add	sp, sp, #24
 2149              	.LCFI49:
 2150              		.cfi_def_cfa_offset 16
 2151              		@ sp needed
 2152 002c 70BD     		pop	{r4, r5, r6, pc}
 2153              	.LVL208:
 2154              	.L113:
 137:Dsp/widget/wgt_core/GenDsp.c **** 
 2155              		.loc 1 137 1 view .LVU525
 2156 002e 00BF     		.align	2
 2157              	.L112:
 2158 0030 00000000 		.word	.LC0
 2159              		.cfi_endproc
 2160              	.LFE7:
 2162              		.global	GenDsp_Interface
 2163              		.global	DspRange
 2164              		.section	.bss.DspRange,"aw",%nobits
 2165              		.align	2
 2166              		.set	.LANCHOR0,. + 0
 2169              	DspRange:
 2170 0000 00000000 		.space	4
 2171              		.section	.data.GenDsp_Interface,"aw"
 2172              		.align	2
 2175              	GenDsp_Interface:
 2176 0000 00000000 		.word	GenDsp_SetRange
 2177 0004 00000000 		.word	GenDsp_DrawPoint
 2178 0008 00000000 		.word	GenDsp_DrawCircle
 2179 000c 00000000 		.word	GenDsp_DrawChar
 2180 0010 00000000 		.word	GenDsp_DrawStr
 2181 0014 00000000 		.word	GenDsp_DrawNum
 2182 0018 00000000 		.word	GenDsp_DrawRectangle
 2183 001c 00000000 		.word	GenDsp_Draw_RadiusRectangle
 2184 0020 00000000 		.word	GenDsp_DrawLen
 2185 0024 00000000 		.word	GenDsp_Draw_VLine
 2186 0028 00000000 		.word	GenDsp_Draw_HLine
 2187 002c 00000000 		.word	0
 2188 0030 00000000 		.word	GenDsp_FillCircle
 2189 0034 00000000 		.word	GenDsp_FillRectangle
ARM GAS  C:\Users\97116\AppData\Local\Temp\cchXdEe4.s 			page 49


 2190 0038 00000000 		.word	GenDsp_Fill_RadiusRectangle
 2191 003c 00000000 		.word	GenDsp_GetStrLen
 2192              		.text
 2193              	.Letext0:
 2194              		.file 2 "c:\\program files (x86)\\gnu arm embedded toolchain\\10 2020-q4-major\\arm-none-eabi\\inc
 2195              		.file 3 "c:\\program files (x86)\\gnu arm embedded toolchain\\10 2020-q4-major\\arm-none-eabi\\inc
 2196              		.file 4 "Dsp/screen/font/oledfont.h"
 2197              		.file 5 "Dsp/widget/wgt_core/GenDsp.h"
 2198              		.file 6 "c:\\program files (x86)\\gnu arm embedded toolchain\\10 2020-q4-major\\arm-none-eabi\\inc
ARM GAS  C:\Users\97116\AppData\Local\Temp\cchXdEe4.s 			page 50


DEFINED SYMBOLS
                            *ABS*:00000000 GenDsp.c
C:\Users\97116\AppData\Local\Temp\cchXdEe4.s:18     .text.GenDsp_SetRange:00000000 $t
C:\Users\97116\AppData\Local\Temp\cchXdEe4.s:25     .text.GenDsp_SetRange:00000000 GenDsp_SetRange
C:\Users\97116\AppData\Local\Temp\cchXdEe4.s:61     .text.GenDsp_SetRange:00000014 $d
C:\Users\97116\AppData\Local\Temp\cchXdEe4.s:66     .text.GenDsp_DrawPoint:00000000 $t
C:\Users\97116\AppData\Local\Temp\cchXdEe4.s:72     .text.GenDsp_DrawPoint:00000000 GenDsp_DrawPoint
C:\Users\97116\AppData\Local\Temp\cchXdEe4.s:134    .text.GenDsp_DrawPoint:0000002c $d
C:\Users\97116\AppData\Local\Temp\cchXdEe4.s:139    .text.GenDsp_DrawChar:00000000 $t
C:\Users\97116\AppData\Local\Temp\cchXdEe4.s:145    .text.GenDsp_DrawChar:00000000 GenDsp_DrawChar
C:\Users\97116\AppData\Local\Temp\cchXdEe4.s:379    .text.GenDsp_DrawChar:000000d4 $d
C:\Users\97116\AppData\Local\Temp\cchXdEe4.s:386    .text.GenDsp_DrawStr:00000000 $t
C:\Users\97116\AppData\Local\Temp\cchXdEe4.s:392    .text.GenDsp_DrawStr:00000000 GenDsp_DrawStr
C:\Users\97116\AppData\Local\Temp\cchXdEe4.s:465    .text.GenDsp_GetStrLen:00000000 $t
C:\Users\97116\AppData\Local\Temp\cchXdEe4.s:471    .text.GenDsp_GetStrLen:00000000 GenDsp_GetStrLen
C:\Users\97116\AppData\Local\Temp\cchXdEe4.s:513    .text.GenDsp_DrawLen:00000000 $t
C:\Users\97116\AppData\Local\Temp\cchXdEe4.s:519    .text.GenDsp_DrawLen:00000000 GenDsp_DrawLen
C:\Users\97116\AppData\Local\Temp\cchXdEe4.s:762    .text.GenDsp_Draw_VLine:00000000 $t
C:\Users\97116\AppData\Local\Temp\cchXdEe4.s:768    .text.GenDsp_Draw_VLine:00000000 GenDsp_Draw_VLine
C:\Users\97116\AppData\Local\Temp\cchXdEe4.s:807    .text.GenDsp_Draw_HLine:00000000 $t
C:\Users\97116\AppData\Local\Temp\cchXdEe4.s:813    .text.GenDsp_Draw_HLine:00000000 GenDsp_Draw_HLine
C:\Users\97116\AppData\Local\Temp\cchXdEe4.s:851    .text.GenDsp_Draw_Circle_Section:00000000 $t
C:\Users\97116\AppData\Local\Temp\cchXdEe4.s:857    .text.GenDsp_Draw_Circle_Section:00000000 GenDsp_Draw_Circle_Section
C:\Users\97116\AppData\Local\Temp\cchXdEe4.s:1046   .text.GenDsp_Draw_Circle:00000000 $t
C:\Users\97116\AppData\Local\Temp\cchXdEe4.s:1052   .text.GenDsp_Draw_Circle:00000000 GenDsp_Draw_Circle
C:\Users\97116\AppData\Local\Temp\cchXdEe4.s:1197   .text.GenDsp_DrawCircle:00000000 $t
C:\Users\97116\AppData\Local\Temp\cchXdEe4.s:1203   .text.GenDsp_DrawCircle:00000000 GenDsp_DrawCircle
C:\Users\97116\AppData\Local\Temp\cchXdEe4.s:1235   .text.GenDsp_DrawRectangle:00000000 $t
C:\Users\97116\AppData\Local\Temp\cchXdEe4.s:1241   .text.GenDsp_DrawRectangle:00000000 GenDsp_DrawRectangle
C:\Users\97116\AppData\Local\Temp\cchXdEe4.s:1331   .text.GenDsp_Draw_RadiusRectangle:00000000 $t
C:\Users\97116\AppData\Local\Temp\cchXdEe4.s:1337   .text.GenDsp_Draw_RadiusRectangle:00000000 GenDsp_Draw_RadiusRectangle
C:\Users\97116\AppData\Local\Temp\cchXdEe4.s:1501   .text.GenDsp_Fill_Circle_Section:00000000 $t
C:\Users\97116\AppData\Local\Temp\cchXdEe4.s:1507   .text.GenDsp_Fill_Circle_Section:00000000 GenDsp_Fill_Circle_Section
C:\Users\97116\AppData\Local\Temp\cchXdEe4.s:1705   .text.GenDsp_FillCircle:00000000 $t
C:\Users\97116\AppData\Local\Temp\cchXdEe4.s:1711   .text.GenDsp_FillCircle:00000000 GenDsp_FillCircle
C:\Users\97116\AppData\Local\Temp\cchXdEe4.s:1856   .text.GenDsp_FillRectangle:00000000 $t
C:\Users\97116\AppData\Local\Temp\cchXdEe4.s:1862   .text.GenDsp_FillRectangle:00000000 GenDsp_FillRectangle
C:\Users\97116\AppData\Local\Temp\cchXdEe4.s:1947   .text.GenDsp_Fill_RadiusRectangle:00000000 $t
C:\Users\97116\AppData\Local\Temp\cchXdEe4.s:1953   .text.GenDsp_Fill_RadiusRectangle:00000000 GenDsp_Fill_RadiusRectangle
C:\Users\97116\AppData\Local\Temp\cchXdEe4.s:2095   .rodata.GenDsp_DrawNum.str1.4:00000000 $d
C:\Users\97116\AppData\Local\Temp\cchXdEe4.s:2099   .text.GenDsp_DrawNum:00000000 $t
C:\Users\97116\AppData\Local\Temp\cchXdEe4.s:2105   .text.GenDsp_DrawNum:00000000 GenDsp_DrawNum
C:\Users\97116\AppData\Local\Temp\cchXdEe4.s:2158   .text.GenDsp_DrawNum:00000030 $d
C:\Users\97116\AppData\Local\Temp\cchXdEe4.s:2175   .data.GenDsp_Interface:00000000 GenDsp_Interface
C:\Users\97116\AppData\Local\Temp\cchXdEe4.s:2169   .bss.DspRange:00000000 DspRange
C:\Users\97116\AppData\Local\Temp\cchXdEe4.s:2165   .bss.DspRange:00000000 $d
C:\Users\97116\AppData\Local\Temp\cchXdEe4.s:2172   .data.GenDsp_Interface:00000000 $d

UNDEFINED SYMBOLS
oled_asc2_1206
oled_asc2_1608
sprintf
