ARM GAS  /tmp/ccZtaq8j.s 			page 1


   1              		.cpu cortex-m4
   2              		.eabi_attribute 27, 1
   3              		.eabi_attribute 28, 1
   4              		.eabi_attribute 20, 1
   5              		.eabi_attribute 21, 1
   6              		.eabi_attribute 23, 3
   7              		.eabi_attribute 24, 1
   8              		.eabi_attribute 25, 1
   9              		.eabi_attribute 26, 1
  10              		.eabi_attribute 30, 1
  11              		.eabi_attribute 34, 1
  12              		.eabi_attribute 18, 4
  13              		.file	"linked_list.c"
  14              		.text
  15              	.Ltext0:
  16              		.cfi_sections	.debug_frame
  17              		.section	.text.Item_SwapLRData,"ax",%progbits
  18              		.align	1
  19              		.syntax unified
  20              		.thumb
  21              		.thumb_func
  22              		.fpu fpv4-sp-d16
  24              	Item_SwapLRData:
  25              	.LFB1:
  26              		.file 1 "SYS/data_structure/linked_list.c"
   1:SYS/data_structure/linked_list.c **** #include "linked_list.h"
   2:SYS/data_structure/linked_list.c **** #include <string.h>
   3:SYS/data_structure/linked_list.c **** 
   4:SYS/data_structure/linked_list.c **** void List_Init(list_obj *list, item_obj *first_item, list_arrangement_mode mode, item_compare_callb
   5:SYS/data_structure/linked_list.c **** {
   6:SYS/data_structure/linked_list.c ****     if ((first_item != NULL) && (first_item->data != NULL))
   7:SYS/data_structure/linked_list.c ****     {
   8:SYS/data_structure/linked_list.c ****         list->data = first_item->data;
   9:SYS/data_structure/linked_list.c ****         list->nxt = first_item->nxt;
  10:SYS/data_structure/linked_list.c **** 
  11:SYS/data_structure/linked_list.c ****         first_item->compare_callback = callback;
  12:SYS/data_structure/linked_list.c ****         first_item->mode = mode;
  13:SYS/data_structure/linked_list.c ****     }
  14:SYS/data_structure/linked_list.c ****     else
  15:SYS/data_structure/linked_list.c ****         list->nxt = NULL;
  16:SYS/data_structure/linked_list.c **** 
  17:SYS/data_structure/linked_list.c ****     list->mode = mode;
  18:SYS/data_structure/linked_list.c ****     list->compare_callback = callback;
  19:SYS/data_structure/linked_list.c **** 
  20:SYS/data_structure/linked_list.c ****     list->prv = NULL;
  21:SYS/data_structure/linked_list.c **** }
  22:SYS/data_structure/linked_list.c **** 
  23:SYS/data_structure/linked_list.c **** static void Item_SwapLRData(item_obj *item_L, item_obj *item_R)
  24:SYS/data_structure/linked_list.c **** {
  27              		.loc 1 24 0
  28              		.cfi_startproc
  29              		@ args = 0, pretend = 0, frame = 0
  30              		@ frame_needed = 0, uses_anonymous_args = 0
  31              		@ link register save eliminated.
  32              	.LVL0:
  25:SYS/data_structure/linked_list.c ****     void *data_tmp;
  26:SYS/data_structure/linked_list.c **** 
ARM GAS  /tmp/ccZtaq8j.s 			page 2


  27:SYS/data_structure/linked_list.c ****     data_tmp = item_L->data;
  33              		.loc 1 27 0
  34 0000 0369     		ldr	r3, [r0, #16]
  35              	.LVL1:
  28:SYS/data_structure/linked_list.c ****     item_L->data = item_R->data;
  36              		.loc 1 28 0
  37 0002 0A69     		ldr	r2, [r1, #16]
  38 0004 0261     		str	r2, [r0, #16]
  29:SYS/data_structure/linked_list.c ****     item_R->data = data_tmp;
  39              		.loc 1 29 0
  40 0006 0B61     		str	r3, [r1, #16]
  41 0008 7047     		bx	lr
  42              		.cfi_endproc
  43              	.LFE1:
  45              		.section	.text.List_Init,"ax",%progbits
  46              		.align	1
  47              		.global	List_Init
  48              		.syntax unified
  49              		.thumb
  50              		.thumb_func
  51              		.fpu fpv4-sp-d16
  53              	List_Init:
  54              	.LFB0:
   5:SYS/data_structure/linked_list.c ****     if ((first_item != NULL) && (first_item->data != NULL))
  55              		.loc 1 5 0
  56              		.cfi_startproc
  57              		@ args = 0, pretend = 0, frame = 0
  58              		@ frame_needed = 0, uses_anonymous_args = 0
  59              		@ link register save eliminated.
  60              	.LVL2:
   6:SYS/data_structure/linked_list.c ****     {
  61              		.loc 1 6 0
  62 0000 91B1     		cbz	r1, .L6
   5:SYS/data_structure/linked_list.c ****     if ((first_item != NULL) && (first_item->data != NULL))
  63              		.loc 1 5 0 discriminator 1
  64 0002 10B4     		push	{r4}
  65              	.LCFI0:
  66              		.cfi_def_cfa_offset 4
  67              		.cfi_offset 4, -4
  68 0004 0C46     		mov	r4, r1
   6:SYS/data_structure/linked_list.c ****     {
  69              		.loc 1 6 0 discriminator 1
  70 0006 0969     		ldr	r1, [r1, #16]
  71              	.LVL3:
  72 0008 59B1     		cbz	r1, .L3
   8:SYS/data_structure/linked_list.c ****         list->nxt = first_item->nxt;
  73              		.loc 1 8 0
  74 000a 0161     		str	r1, [r0, #16]
   9:SYS/data_structure/linked_list.c **** 
  75              		.loc 1 9 0
  76 000c E168     		ldr	r1, [r4, #12]
  77 000e C160     		str	r1, [r0, #12]
  11:SYS/data_structure/linked_list.c ****         first_item->mode = mode;
  78              		.loc 1 11 0
  79 0010 6360     		str	r3, [r4, #4]
  12:SYS/data_structure/linked_list.c ****     }
  80              		.loc 1 12 0
ARM GAS  /tmp/ccZtaq8j.s 			page 3


  81 0012 2270     		strb	r2, [r4]
  82              	.L4:
  17:SYS/data_structure/linked_list.c ****     list->compare_callback = callback;
  83              		.loc 1 17 0
  84 0014 0270     		strb	r2, [r0]
  18:SYS/data_structure/linked_list.c **** 
  85              		.loc 1 18 0
  86 0016 4360     		str	r3, [r0, #4]
  20:SYS/data_structure/linked_list.c **** }
  87              		.loc 1 20 0
  88 0018 0023     		movs	r3, #0
  89              	.LVL4:
  90 001a 8360     		str	r3, [r0, #8]
  21:SYS/data_structure/linked_list.c **** 
  91              		.loc 1 21 0
  92 001c 5DF8044B 		ldr	r4, [sp], #4
  93              	.LCFI1:
  94              		.cfi_remember_state
  95              		.cfi_restore 4
  96              		.cfi_def_cfa_offset 0
  97              	.LVL5:
  98 0020 7047     		bx	lr
  99              	.LVL6:
 100              	.L3:
 101              	.LCFI2:
 102              		.cfi_restore_state
  15:SYS/data_structure/linked_list.c **** 
 103              		.loc 1 15 0
 104 0022 0021     		movs	r1, #0
 105 0024 C160     		str	r1, [r0, #12]
 106 0026 F5E7     		b	.L4
 107              	.LVL7:
 108              	.L6:
 109              	.LCFI3:
 110              		.cfi_def_cfa_offset 0
 111              		.cfi_restore 4
 112 0028 0021     		movs	r1, #0
 113              	.LVL8:
 114 002a C160     		str	r1, [r0, #12]
  17:SYS/data_structure/linked_list.c ****     list->compare_callback = callback;
 115              		.loc 1 17 0
 116 002c 0270     		strb	r2, [r0]
  18:SYS/data_structure/linked_list.c **** 
 117              		.loc 1 18 0
 118 002e 4360     		str	r3, [r0, #4]
  20:SYS/data_structure/linked_list.c **** }
 119              		.loc 1 20 0
 120 0030 0023     		movs	r3, #0
 121              	.LVL9:
 122 0032 8360     		str	r3, [r0, #8]
 123 0034 7047     		bx	lr
 124              		.cfi_endproc
 125              	.LFE0:
 127              		.section	.text.List_CheckAt,"ax",%progbits
 128              		.align	1
 129              		.global	List_CheckAt
 130              		.syntax unified
ARM GAS  /tmp/ccZtaq8j.s 			page 4


 131              		.thumb
 132              		.thumb_func
 133              		.fpu fpv4-sp-d16
 135              	List_CheckAt:
 136              	.LFB3:
  30:SYS/data_structure/linked_list.c **** }
  31:SYS/data_structure/linked_list.c **** 
  32:SYS/data_structure/linked_list.c **** static void List_ItemSwapLRItem(item_obj *item)
  33:SYS/data_structure/linked_list.c **** {
  34:SYS/data_structure/linked_list.c ****     item_obj *item_tmp = NULL;
  35:SYS/data_structure/linked_list.c **** 
  36:SYS/data_structure/linked_list.c ****     if (item != NULL)
  37:SYS/data_structure/linked_list.c ****     {
  38:SYS/data_structure/linked_list.c ****         item_tmp = item->prv;
  39:SYS/data_structure/linked_list.c **** 
  40:SYS/data_structure/linked_list.c ****         item->prv = item->nxt;
  41:SYS/data_structure/linked_list.c ****         item->nxt = item_tmp;
  42:SYS/data_structure/linked_list.c ****     }
  43:SYS/data_structure/linked_list.c **** }
  44:SYS/data_structure/linked_list.c **** 
  45:SYS/data_structure/linked_list.c **** //minimun check pos is 1
  46:SYS/data_structure/linked_list.c **** item_obj *List_CheckAt(list_obj *list, uint16_t layer)
  47:SYS/data_structure/linked_list.c **** {
 137              		.loc 1 47 0
 138              		.cfi_startproc
 139              		@ args = 0, pretend = 0, frame = 0
 140              		@ frame_needed = 0, uses_anonymous_args = 0
 141              	.LVL10:
  48:SYS/data_structure/linked_list.c ****     item_obj *item_tmp = NULL;
  49:SYS/data_structure/linked_list.c **** 
  50:SYS/data_structure/linked_list.c ****     if (layer == 1)
 142              		.loc 1 50 0
 143 0000 0129     		cmp	r1, #1
 144 0002 07D0     		beq	.L15
  51:SYS/data_structure/linked_list.c ****     {
  52:SYS/data_structure/linked_list.c ****         return list;
  53:SYS/data_structure/linked_list.c ****     }
  54:SYS/data_structure/linked_list.c **** 
  55:SYS/data_structure/linked_list.c ****     if (layer < MINIMUN_SEARCH_POS)
 145              		.loc 1 55 0
 146 0004 21B1     		cbz	r1, .L13
  47:SYS/data_structure/linked_list.c ****     item_obj *item_tmp = NULL;
 147              		.loc 1 47 0
 148 0006 08B5     		push	{r3, lr}
 149              	.LCFI4:
 150              		.cfi_def_cfa_offset 8
 151              		.cfi_offset 3, -8
 152              		.cfi_offset 14, -4
 153              	.LVL11:
  56:SYS/data_structure/linked_list.c ****     {
  57:SYS/data_structure/linked_list.c ****         return NULL;
  58:SYS/data_structure/linked_list.c ****     }
  59:SYS/data_structure/linked_list.c ****     else
  60:SYS/data_structure/linked_list.c ****     {
  61:SYS/data_structure/linked_list.c ****         item_tmp = (item_obj *)List_CheckAt(list->nxt, layer--);
 154              		.loc 1 61 0
 155 0008 C068     		ldr	r0, [r0, #12]
ARM GAS  /tmp/ccZtaq8j.s 			page 5


 156              	.LVL12:
 157 000a FFF7FEFF 		bl	List_CheckAt
 158              	.LVL13:
  62:SYS/data_structure/linked_list.c ****     }
  63:SYS/data_structure/linked_list.c **** 
  64:SYS/data_structure/linked_list.c ****     return item_tmp;
 159              		.loc 1 64 0
 160 000e 08BD     		pop	{r3, pc}
 161              	.LVL14:
 162              	.L13:
 163              	.LCFI5:
 164              		.cfi_def_cfa_offset 0
 165              		.cfi_restore 3
 166              		.cfi_restore 14
  57:SYS/data_structure/linked_list.c ****     }
 167              		.loc 1 57 0
 168 0010 0020     		movs	r0, #0
 169              	.LVL15:
 170 0012 7047     		bx	lr
 171              	.LVL16:
 172              	.L15:
  65:SYS/data_structure/linked_list.c **** }
 173              		.loc 1 65 0
 174 0014 7047     		bx	lr
 175              		.cfi_endproc
 176              	.LFE3:
 178              		.section	.text.List_Chk_FirstItem,"ax",%progbits
 179              		.align	1
 180              		.global	List_Chk_FirstItem
 181              		.syntax unified
 182              		.thumb
 183              		.thumb_func
 184              		.fpu fpv4-sp-d16
 186              	List_Chk_FirstItem:
 187              	.LFB4:
  66:SYS/data_structure/linked_list.c **** 
  67:SYS/data_structure/linked_list.c **** item_obj *List_Chk_FirstItem(list_obj *list)
  68:SYS/data_structure/linked_list.c **** {
 188              		.loc 1 68 0
 189              		.cfi_startproc
 190              		@ args = 0, pretend = 0, frame = 0
 191              		@ frame_needed = 0, uses_anonymous_args = 0
 192              	.LVL17:
  69:SYS/data_structure/linked_list.c ****     if (list != NULL)
 193              		.loc 1 69 0
 194 0000 30B1     		cbz	r0, .L20
  68:SYS/data_structure/linked_list.c ****     if (list != NULL)
 195              		.loc 1 68 0
 196 0002 08B5     		push	{r3, lr}
 197              	.LCFI6:
 198              		.cfi_def_cfa_offset 8
 199              		.cfi_offset 3, -8
 200              		.cfi_offset 14, -4
 201 0004 0346     		mov	r3, r0
  70:SYS/data_structure/linked_list.c ****     {
  71:SYS/data_structure/linked_list.c ****         if (list->prv == NULL)
 202              		.loc 1 71 0
ARM GAS  /tmp/ccZtaq8j.s 			page 6


 203 0006 8068     		ldr	r0, [r0, #8]
 204              	.LVL18:
 205 0008 20B1     		cbz	r0, .L21
  72:SYS/data_structure/linked_list.c ****         {
  73:SYS/data_structure/linked_list.c ****             return list;
  74:SYS/data_structure/linked_list.c ****         }
  75:SYS/data_structure/linked_list.c ****         else
  76:SYS/data_structure/linked_list.c ****             return List_Chk_FirstItem(list->prv);
 206              		.loc 1 76 0
 207 000a FFF7FEFF 		bl	List_Chk_FirstItem
 208              	.LVL19:
 209 000e 08BD     		pop	{r3, pc}
 210              	.LVL20:
 211              	.L20:
 212              	.LCFI7:
 213              		.cfi_def_cfa_offset 0
 214              		.cfi_restore 3
 215              		.cfi_restore 14
  77:SYS/data_structure/linked_list.c ****     }
  78:SYS/data_structure/linked_list.c **** 
  79:SYS/data_structure/linked_list.c ****     return NULL;
 216              		.loc 1 79 0
 217 0010 0020     		movs	r0, #0
 218              	.LVL21:
 219 0012 7047     		bx	lr
 220              	.LVL22:
 221              	.L21:
 222              	.LCFI8:
 223              		.cfi_def_cfa_offset 8
 224              		.cfi_offset 3, -8
 225              		.cfi_offset 14, -4
  73:SYS/data_structure/linked_list.c ****         }
 226              		.loc 1 73 0
 227 0014 1846     		mov	r0, r3
  80:SYS/data_structure/linked_list.c **** }
 228              		.loc 1 80 0
 229 0016 08BD     		pop	{r3, pc}
 230              		.cfi_endproc
 231              	.LFE4:
 233              		.section	.text.List_Chk_LastItem,"ax",%progbits
 234              		.align	1
 235              		.global	List_Chk_LastItem
 236              		.syntax unified
 237              		.thumb
 238              		.thumb_func
 239              		.fpu fpv4-sp-d16
 241              	List_Chk_LastItem:
 242              	.LFB5:
  81:SYS/data_structure/linked_list.c **** 
  82:SYS/data_structure/linked_list.c **** item_obj *List_Chk_LastItem(list_obj *list)
  83:SYS/data_structure/linked_list.c **** {
 243              		.loc 1 83 0
 244              		.cfi_startproc
 245              		@ args = 0, pretend = 0, frame = 0
 246              		@ frame_needed = 0, uses_anonymous_args = 0
 247              	.LVL23:
  84:SYS/data_structure/linked_list.c ****     if (list != NULL)
ARM GAS  /tmp/ccZtaq8j.s 			page 7


 248              		.loc 1 84 0
 249 0000 30B1     		cbz	r0, .L28
  83:SYS/data_structure/linked_list.c ****     if (list != NULL)
 250              		.loc 1 83 0
 251 0002 08B5     		push	{r3, lr}
 252              	.LCFI9:
 253              		.cfi_def_cfa_offset 8
 254              		.cfi_offset 3, -8
 255              		.cfi_offset 14, -4
 256 0004 0346     		mov	r3, r0
  85:SYS/data_structure/linked_list.c ****     {
  86:SYS/data_structure/linked_list.c ****         if (list->nxt == NULL)
 257              		.loc 1 86 0
 258 0006 C068     		ldr	r0, [r0, #12]
 259              	.LVL24:
 260 0008 20B1     		cbz	r0, .L29
  87:SYS/data_structure/linked_list.c ****         {
  88:SYS/data_structure/linked_list.c ****             return list;
  89:SYS/data_structure/linked_list.c ****         }
  90:SYS/data_structure/linked_list.c ****         else
  91:SYS/data_structure/linked_list.c ****             return List_Chk_LastItem(list->nxt);
 261              		.loc 1 91 0
 262 000a FFF7FEFF 		bl	List_Chk_LastItem
 263              	.LVL25:
 264 000e 08BD     		pop	{r3, pc}
 265              	.LVL26:
 266              	.L28:
 267              	.LCFI10:
 268              		.cfi_def_cfa_offset 0
 269              		.cfi_restore 3
 270              		.cfi_restore 14
  92:SYS/data_structure/linked_list.c ****     }
  93:SYS/data_structure/linked_list.c **** 
  94:SYS/data_structure/linked_list.c ****     return NULL;
 271              		.loc 1 94 0
 272 0010 0020     		movs	r0, #0
 273              	.LVL27:
 274 0012 7047     		bx	lr
 275              	.LVL28:
 276              	.L29:
 277              	.LCFI11:
 278              		.cfi_def_cfa_offset 8
 279              		.cfi_offset 3, -8
 280              		.cfi_offset 14, -4
  88:SYS/data_structure/linked_list.c ****         }
 281              		.loc 1 88 0
 282 0014 1846     		mov	r0, r3
  95:SYS/data_structure/linked_list.c **** }
 283              		.loc 1 95 0
 284 0016 08BD     		pop	{r3, pc}
 285              		.cfi_endproc
 286              	.LFE5:
 288              		.section	.text.List_ItemClear,"ax",%progbits
 289              		.align	1
 290              		.global	List_ItemClear
 291              		.syntax unified
 292              		.thumb
ARM GAS  /tmp/ccZtaq8j.s 			page 8


 293              		.thumb_func
 294              		.fpu fpv4-sp-d16
 296              	List_ItemClear:
 297              	.LFB6:
  96:SYS/data_structure/linked_list.c **** 
  97:SYS/data_structure/linked_list.c **** list_error_code List_ItemClear(item_obj *item)
  98:SYS/data_structure/linked_list.c **** {
 298              		.loc 1 98 0
 299              		.cfi_startproc
 300              		@ args = 0, pretend = 0, frame = 0
 301              		@ frame_needed = 0, uses_anonymous_args = 0
 302              		@ link register save eliminated.
 303              	.LVL29:
  99:SYS/data_structure/linked_list.c ****     if (item != NULL)
 304              		.loc 1 99 0
 305 0000 0346     		mov	r3, r0
 306 0002 20B1     		cbz	r0, .L36
 100:SYS/data_structure/linked_list.c ****     {
 101:SYS/data_structure/linked_list.c ****         item->data = NULL;
 307              		.loc 1 101 0
 308 0004 0020     		movs	r0, #0
 309              	.LVL30:
 310 0006 1861     		str	r0, [r3, #16]
 102:SYS/data_structure/linked_list.c ****         item->prv = NULL;
 311              		.loc 1 102 0
 312 0008 9860     		str	r0, [r3, #8]
 103:SYS/data_structure/linked_list.c ****         item->nxt = NULL;
 313              		.loc 1 103 0
 314 000a D860     		str	r0, [r3, #12]
 104:SYS/data_structure/linked_list.c **** 
 105:SYS/data_structure/linked_list.c ****         return list_no_error;
 315              		.loc 1 105 0
 316 000c 7047     		bx	lr
 317              	.LVL31:
 318              	.L36:
 106:SYS/data_structure/linked_list.c ****     }
 107:SYS/data_structure/linked_list.c **** 
 108:SYS/data_structure/linked_list.c ****     return list_obj_error;
 319              		.loc 1 108 0
 320 000e 6FF00100 		mvn	r0, #1
 321              	.LVL32:
 109:SYS/data_structure/linked_list.c **** }
 322              		.loc 1 109 0
 323 0012 7047     		bx	lr
 324              		.cfi_endproc
 325              	.LFE6:
 327              		.section	.text.List_ItemInit,"ax",%progbits
 328              		.align	1
 329              		.global	List_ItemInit
 330              		.syntax unified
 331              		.thumb
 332              		.thumb_func
 333              		.fpu fpv4-sp-d16
 335              	List_ItemInit:
 336              	.LFB7:
 110:SYS/data_structure/linked_list.c **** 
 111:SYS/data_structure/linked_list.c **** void List_ItemInit(item_obj *obj, void *arg)
ARM GAS  /tmp/ccZtaq8j.s 			page 9


 112:SYS/data_structure/linked_list.c **** {
 337              		.loc 1 112 0
 338              		.cfi_startproc
 339              		@ args = 0, pretend = 0, frame = 0
 340              		@ frame_needed = 0, uses_anonymous_args = 0
 341              	.LVL33:
 342 0000 38B5     		push	{r3, r4, r5, lr}
 343              	.LCFI12:
 344              		.cfi_def_cfa_offset 16
 345              		.cfi_offset 3, -16
 346              		.cfi_offset 4, -12
 347              		.cfi_offset 5, -8
 348              		.cfi_offset 14, -4
 349 0002 0446     		mov	r4, r0
 350 0004 0D46     		mov	r5, r1
 113:SYS/data_structure/linked_list.c ****     if (List_ItemClear(obj) == list_no_error)
 351              		.loc 1 113 0
 352 0006 FFF7FEFF 		bl	List_ItemClear
 353              	.LVL34:
 354 000a 00B9     		cbnz	r0, .L37
 114:SYS/data_structure/linked_list.c ****     {
 115:SYS/data_structure/linked_list.c ****         obj->data = arg;
 355              		.loc 1 115 0
 356 000c 2561     		str	r5, [r4, #16]
 357              	.L37:
 358 000e 38BD     		pop	{r3, r4, r5, pc}
 359              		.cfi_endproc
 360              	.LFE7:
 362              		.section	.text.List_InsertToPrv,"ax",%progbits
 363              		.align	1
 364              		.global	List_InsertToPrv
 365              		.syntax unified
 366              		.thumb
 367              		.thumb_func
 368              		.fpu fpv4-sp-d16
 370              	List_InsertToPrv:
 371              	.LFB8:
 116:SYS/data_structure/linked_list.c ****     }
 117:SYS/data_structure/linked_list.c **** }
 118:SYS/data_structure/linked_list.c **** 
 119:SYS/data_structure/linked_list.c **** void List_InsertToPrv(list_obj *list, item_obj *item)
 120:SYS/data_structure/linked_list.c **** {
 372              		.loc 1 120 0
 373              		.cfi_startproc
 374              		@ args = 0, pretend = 0, frame = 0
 375              		@ frame_needed = 0, uses_anonymous_args = 0
 376              	.LVL35:
 377 0000 08B5     		push	{r3, lr}
 378              	.LCFI13:
 379              		.cfi_def_cfa_offset 8
 380              		.cfi_offset 3, -8
 381              		.cfi_offset 14, -4
 121:SYS/data_structure/linked_list.c ****     if (list->nxt != NULL)
 382              		.loc 1 121 0
 383 0002 C368     		ldr	r3, [r0, #12]
 384 0004 1BB1     		cbz	r3, .L41
 122:SYS/data_structure/linked_list.c ****     {
ARM GAS  /tmp/ccZtaq8j.s 			page 10


 123:SYS/data_structure/linked_list.c ****         List_InsertToPrv(list->prv, item);
 385              		.loc 1 123 0
 386 0006 8068     		ldr	r0, [r0, #8]
 387              	.LVL36:
 388 0008 FFF7FEFF 		bl	List_InsertToPrv
 389              	.LVL37:
 390 000c 08BD     		pop	{r3, pc}
 391              	.LVL38:
 392              	.L41:
 124:SYS/data_structure/linked_list.c ****     }
 125:SYS/data_structure/linked_list.c ****     else
 126:SYS/data_structure/linked_list.c ****     {
 127:SYS/data_structure/linked_list.c ****         list->prv = item;
 393              		.loc 1 127 0
 394 000e 8160     		str	r1, [r0, #8]
 128:SYS/data_structure/linked_list.c ****         item->nxt = list;
 395              		.loc 1 128 0
 396 0010 C860     		str	r0, [r1, #12]
 397 0012 08BD     		pop	{r3, pc}
 398              		.cfi_endproc
 399              	.LFE8:
 401              		.section	.text.List_InsertByOrder,"ax",%progbits
 402              		.align	1
 403              		.global	List_InsertByOrder
 404              		.syntax unified
 405              		.thumb
 406              		.thumb_func
 407              		.fpu fpv4-sp-d16
 409              	List_InsertByOrder:
 410              	.LFB9:
 129:SYS/data_structure/linked_list.c ****     }
 130:SYS/data_structure/linked_list.c **** }
 131:SYS/data_structure/linked_list.c **** 
 132:SYS/data_structure/linked_list.c **** void List_InsertByOrder(list_obj *list, item_obj *item)
 133:SYS/data_structure/linked_list.c **** {
 411              		.loc 1 133 0
 412              		.cfi_startproc
 413              		@ args = 0, pretend = 0, frame = 0
 414              		@ frame_needed = 0, uses_anonymous_args = 0
 415              	.LVL39:
 416 0000 08B5     		push	{r3, lr}
 417              	.LCFI14:
 418              		.cfi_def_cfa_offset 8
 419              		.cfi_offset 3, -8
 420              		.cfi_offset 14, -4
 134:SYS/data_structure/linked_list.c ****     if (list->nxt != NULL)
 421              		.loc 1 134 0
 422 0002 C368     		ldr	r3, [r0, #12]
 423 0004 1BB1     		cbz	r3, .L45
 135:SYS/data_structure/linked_list.c ****     {
 136:SYS/data_structure/linked_list.c ****         List_InsertByOrder(list->nxt, item);
 424              		.loc 1 136 0
 425 0006 1846     		mov	r0, r3
 426              	.LVL40:
 427 0008 FFF7FEFF 		bl	List_InsertByOrder
 428              	.LVL41:
 429 000c 08BD     		pop	{r3, pc}
ARM GAS  /tmp/ccZtaq8j.s 			page 11


 430              	.LVL42:
 431              	.L45:
 137:SYS/data_structure/linked_list.c ****     }
 138:SYS/data_structure/linked_list.c ****     else
 139:SYS/data_structure/linked_list.c ****     {
 140:SYS/data_structure/linked_list.c ****         list->nxt = item;
 432              		.loc 1 140 0
 433 000e C160     		str	r1, [r0, #12]
 141:SYS/data_structure/linked_list.c ****         item->prv = list;
 434              		.loc 1 141 0
 435 0010 8860     		str	r0, [r1, #8]
 436 0012 08BD     		pop	{r3, pc}
 437              		.cfi_endproc
 438              	.LFE9:
 440              		.section	.text.List_InsertByCondition,"ax",%progbits
 441              		.align	1
 442              		.global	List_InsertByCondition
 443              		.syntax unified
 444              		.thumb
 445              		.thumb_func
 446              		.fpu fpv4-sp-d16
 448              	List_InsertByCondition:
 449              	.LFB10:
 142:SYS/data_structure/linked_list.c ****     }
 143:SYS/data_structure/linked_list.c **** }
 144:SYS/data_structure/linked_list.c **** 
 145:SYS/data_structure/linked_list.c **** void List_InsertByCondition(list_obj *list, item_obj *item)
 146:SYS/data_structure/linked_list.c **** {
 450              		.loc 1 146 0
 451              		.cfi_startproc
 452              		@ args = 0, pretend = 0, frame = 0
 453              		@ frame_needed = 0, uses_anonymous_args = 0
 454              	.LVL43:
 147:SYS/data_structure/linked_list.c ****     if ((list->compare_callback != NULL) && (list->data != NULL) && (item->data != NULL))
 455              		.loc 1 147 0
 456 0000 4368     		ldr	r3, [r0, #4]
 457 0002 EBB1     		cbz	r3, .L53
 458              		.loc 1 147 0 is_stmt 0 discriminator 1
 459 0004 0269     		ldr	r2, [r0, #16]
 460 0006 DAB1     		cbz	r2, .L53
 146:SYS/data_structure/linked_list.c ****     if ((list->compare_callback != NULL) && (list->data != NULL) && (item->data != NULL))
 461              		.loc 1 146 0 is_stmt 1 discriminator 2
 462 0008 70B5     		push	{r4, r5, r6, lr}
 463              	.LCFI15:
 464              		.cfi_def_cfa_offset 16
 465              		.cfi_offset 4, -16
 466              		.cfi_offset 5, -12
 467              		.cfi_offset 6, -8
 468              		.cfi_offset 14, -4
 469              		.loc 1 147 0 discriminator 2
 470 000a 0E69     		ldr	r6, [r1, #16]
 471 000c BEB1     		cbz	r6, .L48
 472 000e 0D46     		mov	r5, r1
 473 0010 0446     		mov	r4, r0
 474              	.LBB2:
 148:SYS/data_structure/linked_list.c ****     {
 149:SYS/data_structure/linked_list.c ****         volatile void *cmp_out = list->compare_callback(list->data, item->data);
ARM GAS  /tmp/ccZtaq8j.s 			page 12


 475              		.loc 1 149 0
 476 0012 3146     		mov	r1, r6
 477              	.LVL44:
 478 0014 1046     		mov	r0, r2
 479              	.LVL45:
 480 0016 9847     		blx	r3
 481              	.LVL46:
 150:SYS/data_structure/linked_list.c **** 
 151:SYS/data_structure/linked_list.c ****         if (cmp_out == NULL)
 482              		.loc 1 151 0
 483 0018 88B1     		cbz	r0, .L48
 152:SYS/data_structure/linked_list.c ****         {
 153:SYS/data_structure/linked_list.c ****             return;
 154:SYS/data_structure/linked_list.c ****         }
 155:SYS/data_structure/linked_list.c **** 
 156:SYS/data_structure/linked_list.c ****         if (cmp_out == item->data)
 484              		.loc 1 156 0
 485 001a 2A69     		ldr	r2, [r5, #16]
 486 001c 9042     		cmp	r0, r2
 487 001e 05D0     		beq	.L56
 488              	.LVL47:
 489              	.L50:
 490              	.LBE2:
 157:SYS/data_structure/linked_list.c ****         {
 158:SYS/data_structure/linked_list.c ****             Item_SwapLRData(list, item);
 159:SYS/data_structure/linked_list.c ****         }
 160:SYS/data_structure/linked_list.c ****     }
 161:SYS/data_structure/linked_list.c ****     else
 162:SYS/data_structure/linked_list.c ****         return;
 163:SYS/data_structure/linked_list.c **** 
 164:SYS/data_structure/linked_list.c ****     if (list->nxt != NULL)
 491              		.loc 1 164 0
 492 0020 E068     		ldr	r0, [r4, #12]
 493 0022 40B1     		cbz	r0, .L51
 165:SYS/data_structure/linked_list.c ****     {
 166:SYS/data_structure/linked_list.c ****         List_InsertByCondition(list->nxt, item);
 494              		.loc 1 166 0
 495 0024 2946     		mov	r1, r5
 496 0026 FFF7FEFF 		bl	List_InsertByCondition
 497              	.LVL48:
 498 002a 70BD     		pop	{r4, r5, r6, pc}
 499              	.LVL49:
 500              	.L56:
 501              	.LBB3:
 158:SYS/data_structure/linked_list.c ****         }
 502              		.loc 1 158 0
 503 002c 2946     		mov	r1, r5
 504 002e 2046     		mov	r0, r4
 505              	.LVL50:
 506 0030 FFF7FEFF 		bl	Item_SwapLRData
 507              	.LVL51:
 508 0034 F4E7     		b	.L50
 509              	.L51:
 510              	.LBE3:
 167:SYS/data_structure/linked_list.c ****     }
 168:SYS/data_structure/linked_list.c ****     else
 169:SYS/data_structure/linked_list.c ****     {
ARM GAS  /tmp/ccZtaq8j.s 			page 13


 170:SYS/data_structure/linked_list.c ****         list->nxt = item;
 511              		.loc 1 170 0
 512 0036 E560     		str	r5, [r4, #12]
 171:SYS/data_structure/linked_list.c ****         item->prv = list;
 513              		.loc 1 171 0
 514 0038 AC60     		str	r4, [r5, #8]
 172:SYS/data_structure/linked_list.c ****         item->nxt = NULL;
 515              		.loc 1 172 0
 516 003a 0023     		movs	r3, #0
 517 003c EB60     		str	r3, [r5, #12]
 518              	.LVL52:
 519              	.L48:
 520 003e 70BD     		pop	{r4, r5, r6, pc}
 521              	.LVL53:
 522              	.L53:
 523              	.LCFI16:
 524              		.cfi_def_cfa_offset 0
 525              		.cfi_restore 4
 526              		.cfi_restore 5
 527              		.cfi_restore 6
 528              		.cfi_restore 14
 529 0040 7047     		bx	lr
 530              		.cfi_endproc
 531              	.LFE10:
 533              		.section	.text.List_Insert_Item,"ax",%progbits
 534              		.align	1
 535              		.global	List_Insert_Item
 536              		.syntax unified
 537              		.thumb
 538              		.thumb_func
 539              		.fpu fpv4-sp-d16
 541              	List_Insert_Item:
 542              	.LFB11:
 173:SYS/data_structure/linked_list.c ****     }
 174:SYS/data_structure/linked_list.c **** }
 175:SYS/data_structure/linked_list.c **** 
 176:SYS/data_structure/linked_list.c **** void List_Insert_Item(list_obj *list, item_obj *item)
 177:SYS/data_structure/linked_list.c **** {
 543              		.loc 1 177 0
 544              		.cfi_startproc
 545              		@ args = 0, pretend = 0, frame = 0
 546              		@ frame_needed = 0, uses_anonymous_args = 0
 547              	.LVL54:
 178:SYS/data_structure/linked_list.c ****     if ((list != NULL) && (item != NULL))
 548              		.loc 1 178 0
 549 0000 A8B1     		cbz	r0, .L63
 177:SYS/data_structure/linked_list.c ****     if ((list != NULL) && (item != NULL))
 550              		.loc 1 177 0 discriminator 1
 551 0002 08B5     		push	{r3, lr}
 552              	.LCFI17:
 553              		.cfi_def_cfa_offset 8
 554              		.cfi_offset 3, -8
 555              		.cfi_offset 14, -4
 556              		.loc 1 178 0 discriminator 1
 557 0004 91B1     		cbz	r1, .L57
 179:SYS/data_structure/linked_list.c ****     {
 180:SYS/data_structure/linked_list.c ****         item->compare_callback = list->compare_callback;
ARM GAS  /tmp/ccZtaq8j.s 			page 14


 558              		.loc 1 180 0
 559 0006 4368     		ldr	r3, [r0, #4]
 560 0008 4B60     		str	r3, [r1, #4]
 181:SYS/data_structure/linked_list.c ****         item->mode = list->mode;
 561              		.loc 1 181 0
 562 000a 0378     		ldrb	r3, [r0]	@ zero_extendqisi2
 563 000c 0B70     		strb	r3, [r1]
 182:SYS/data_structure/linked_list.c **** 
 183:SYS/data_structure/linked_list.c ****         switch (list->mode)
 564              		.loc 1 183 0
 565 000e 0378     		ldrb	r3, [r0]	@ zero_extendqisi2
 566 0010 012B     		cmp	r3, #1
 567 0012 06D0     		beq	.L59
 568 0014 13B1     		cbz	r3, .L60
 569 0016 022B     		cmp	r3, #2
 570 0018 06D0     		beq	.L61
 571 001a 08BD     		pop	{r3, pc}
 572              	.L60:
 184:SYS/data_structure/linked_list.c ****         {
 185:SYS/data_structure/linked_list.c ****         case to_front:
 186:SYS/data_structure/linked_list.c ****             List_InsertToPrv(list, item);
 573              		.loc 1 186 0
 574 001c FFF7FEFF 		bl	List_InsertToPrv
 575              	.LVL55:
 187:SYS/data_structure/linked_list.c ****             break;
 576              		.loc 1 187 0
 577 0020 08BD     		pop	{r3, pc}
 578              	.LVL56:
 579              	.L59:
 188:SYS/data_structure/linked_list.c **** 
 189:SYS/data_structure/linked_list.c ****         case by_order:
 190:SYS/data_structure/linked_list.c ****             List_InsertByOrder(list, item);
 580              		.loc 1 190 0
 581 0022 FFF7FEFF 		bl	List_InsertByOrder
 582              	.LVL57:
 191:SYS/data_structure/linked_list.c ****             break;
 583              		.loc 1 191 0
 584 0026 08BD     		pop	{r3, pc}
 585              	.LVL58:
 586              	.L61:
 192:SYS/data_structure/linked_list.c **** 
 193:SYS/data_structure/linked_list.c ****         case by_condition:
 194:SYS/data_structure/linked_list.c ****             List_InsertByCondition(list, item);
 587              		.loc 1 194 0
 588 0028 FFF7FEFF 		bl	List_InsertByCondition
 589              	.LVL59:
 590              	.L57:
 591 002c 08BD     		pop	{r3, pc}
 592              	.LVL60:
 593              	.L63:
 594              	.LCFI18:
 595              		.cfi_def_cfa_offset 0
 596              		.cfi_restore 3
 597              		.cfi_restore 14
 598 002e 7047     		bx	lr
 599              		.cfi_endproc
 600              	.LFE11:
ARM GAS  /tmp/ccZtaq8j.s 			page 15


 602              		.section	.text.List_traverse,"ax",%progbits
 603              		.align	1
 604              		.global	List_traverse
 605              		.syntax unified
 606              		.thumb
 607              		.thumb_func
 608              		.fpu fpv4-sp-d16
 610              	List_traverse:
 611              	.LFB13:
 195:SYS/data_structure/linked_list.c ****             break;
 196:SYS/data_structure/linked_list.c **** 
 197:SYS/data_structure/linked_list.c ****         default:
 198:SYS/data_structure/linked_list.c ****             return;
 199:SYS/data_structure/linked_list.c ****             break;
 200:SYS/data_structure/linked_list.c ****         }
 201:SYS/data_structure/linked_list.c ****     }
 202:SYS/data_structure/linked_list.c ****     else if ((list == NULL) && (item != NULL))
 203:SYS/data_structure/linked_list.c ****     {
 204:SYS/data_structure/linked_list.c ****         list = item;
 205:SYS/data_structure/linked_list.c ****     }
 206:SYS/data_structure/linked_list.c **** }
 207:SYS/data_structure/linked_list.c **** 
 208:SYS/data_structure/linked_list.c **** list_error_code List_traverse_ByCondition(list_obj *list, list_traverse_callback callback, void *ar
 209:SYS/data_structure/linked_list.c **** {
 210:SYS/data_structure/linked_list.c ****     if (list != NULL)
 211:SYS/data_structure/linked_list.c ****     {
 212:SYS/data_structure/linked_list.c ****         if ((callback != NULL) && (cb_serial == pre_callback))
 213:SYS/data_structure/linked_list.c ****         {
 214:SYS/data_structure/linked_list.c ****             if (condition == callback(list, list->data, arg))
 215:SYS/data_structure/linked_list.c ****                 return list_no_error;
 216:SYS/data_structure/linked_list.c ****         }
 217:SYS/data_structure/linked_list.c **** 
 218:SYS/data_structure/linked_list.c ****         if (list->nxt != NULL)
 219:SYS/data_structure/linked_list.c ****         {
 220:SYS/data_structure/linked_list.c ****             List_traverse(list->nxt, callback, arg, cb_serial);
 221:SYS/data_structure/linked_list.c ****         }
 222:SYS/data_structure/linked_list.c **** 
 223:SYS/data_structure/linked_list.c ****         if ((callback != NULL) && (cb_serial == sub_callback))
 224:SYS/data_structure/linked_list.c ****         {
 225:SYS/data_structure/linked_list.c ****             if (condition == callback(list, list->data, arg))
 226:SYS/data_structure/linked_list.c ****                 return list_no_error;
 227:SYS/data_structure/linked_list.c ****         }
 228:SYS/data_structure/linked_list.c ****     }
 229:SYS/data_structure/linked_list.c ****     else
 230:SYS/data_structure/linked_list.c ****         return list_obj_error;
 231:SYS/data_structure/linked_list.c **** 
 232:SYS/data_structure/linked_list.c ****     return list_no_error;
 233:SYS/data_structure/linked_list.c **** }
 234:SYS/data_structure/linked_list.c **** 
 235:SYS/data_structure/linked_list.c **** list_error_code List_traverse(list_obj *list, list_traverse_callback callback, void *arg, listtrv_c
 236:SYS/data_structure/linked_list.c **** {
 612              		.loc 1 236 0
 613              		.cfi_startproc
 614              		@ args = 0, pretend = 0, frame = 0
 615              		@ frame_needed = 0, uses_anonymous_args = 0
 616              	.LVL61:
 237:SYS/data_structure/linked_list.c ****     if (list != NULL)
ARM GAS  /tmp/ccZtaq8j.s 			page 16


 617              		.loc 1 237 0
 618 0000 D8B1     		cbz	r0, .L70
 236:SYS/data_structure/linked_list.c ****     if (list != NULL)
 619              		.loc 1 236 0
 620 0002 F8B5     		push	{r3, r4, r5, r6, r7, lr}
 621              	.LCFI19:
 622              		.cfi_def_cfa_offset 24
 623              		.cfi_offset 3, -24
 624              		.cfi_offset 4, -20
 625              		.cfi_offset 5, -16
 626              		.cfi_offset 6, -12
 627              		.cfi_offset 7, -8
 628              		.cfi_offset 14, -4
 629 0004 0646     		mov	r6, r0
 630 0006 1D46     		mov	r5, r3
 631 0008 1746     		mov	r7, r2
 632 000a 0C46     		mov	r4, r1
 238:SYS/data_structure/linked_list.c ****     {
 239:SYS/data_structure/linked_list.c ****         if ((callback != NULL) && (cb_serial == pre_callback))
 633              		.loc 1 239 0
 634 000c 01B1     		cbz	r1, .L68
 635              		.loc 1 239 0 is_stmt 0 discriminator 1
 636 000e 5BB1     		cbz	r3, .L77
 637              	.LVL62:
 638              	.L68:
 240:SYS/data_structure/linked_list.c ****         {
 241:SYS/data_structure/linked_list.c ****             callback(list, list->data, arg);
 242:SYS/data_structure/linked_list.c ****         }
 243:SYS/data_structure/linked_list.c **** 
 244:SYS/data_structure/linked_list.c ****         if (list->nxt != NULL)
 639              		.loc 1 244 0 is_stmt 1
 640 0010 F068     		ldr	r0, [r6, #12]
 641 0012 20B1     		cbz	r0, .L69
 245:SYS/data_structure/linked_list.c ****         {
 246:SYS/data_structure/linked_list.c ****             List_traverse(list->nxt, callback, arg, cb_serial);
 642              		.loc 1 246 0
 643 0014 2B46     		mov	r3, r5
 644 0016 3A46     		mov	r2, r7
 645 0018 2146     		mov	r1, r4
 646 001a FFF7FEFF 		bl	List_traverse
 647              	.LVL63:
 648              	.L69:
 247:SYS/data_structure/linked_list.c ****         }
 248:SYS/data_structure/linked_list.c **** 
 249:SYS/data_structure/linked_list.c ****         if ((callback != NULL) && (cb_serial == sub_callback))
 649              		.loc 1 249 0
 650 001e 7CB1     		cbz	r4, .L71
 651              		.loc 1 249 0 is_stmt 0 discriminator 1
 652 0020 012D     		cmp	r5, #1
 653 0022 04D0     		beq	.L78
 250:SYS/data_structure/linked_list.c ****         {
 251:SYS/data_structure/linked_list.c ****             callback(list, list->data, arg);
 252:SYS/data_structure/linked_list.c ****         }
 253:SYS/data_structure/linked_list.c ****     }
 254:SYS/data_structure/linked_list.c ****     else
 255:SYS/data_structure/linked_list.c ****         return list_obj_error;
 256:SYS/data_structure/linked_list.c **** 
ARM GAS  /tmp/ccZtaq8j.s 			page 17


 257:SYS/data_structure/linked_list.c ****     return list_no_error;
 654              		.loc 1 257 0 is_stmt 1
 655 0024 0020     		movs	r0, #0
 258:SYS/data_structure/linked_list.c **** }
 656              		.loc 1 258 0
 657 0026 F8BD     		pop	{r3, r4, r5, r6, r7, pc}
 658              	.LVL64:
 659              	.L77:
 241:SYS/data_structure/linked_list.c ****         }
 660              		.loc 1 241 0
 661 0028 0169     		ldr	r1, [r0, #16]
 662              	.LVL65:
 663 002a A047     		blx	r4
 664              	.LVL66:
 665 002c F0E7     		b	.L68
 666              	.L78:
 251:SYS/data_structure/linked_list.c ****         }
 667              		.loc 1 251 0
 668 002e 3A46     		mov	r2, r7
 669 0030 3169     		ldr	r1, [r6, #16]
 670 0032 3046     		mov	r0, r6
 671 0034 A047     		blx	r4
 672              	.LVL67:
 257:SYS/data_structure/linked_list.c **** }
 673              		.loc 1 257 0
 674 0036 0020     		movs	r0, #0
 675 0038 F8BD     		pop	{r3, r4, r5, r6, r7, pc}
 676              	.LVL68:
 677              	.L70:
 678              	.LCFI20:
 679              		.cfi_def_cfa_offset 0
 680              		.cfi_restore 3
 681              		.cfi_restore 4
 682              		.cfi_restore 5
 683              		.cfi_restore 6
 684              		.cfi_restore 7
 685              		.cfi_restore 14
 255:SYS/data_structure/linked_list.c **** 
 686              		.loc 1 255 0
 687 003a 6FF00100 		mvn	r0, #1
 688              	.LVL69:
 689 003e 7047     		bx	lr
 690              	.LVL70:
 691              	.L71:
 692              	.LCFI21:
 693              		.cfi_def_cfa_offset 24
 694              		.cfi_offset 3, -24
 695              		.cfi_offset 4, -20
 696              		.cfi_offset 5, -16
 697              		.cfi_offset 6, -12
 698              		.cfi_offset 7, -8
 699              		.cfi_offset 14, -4
 257:SYS/data_structure/linked_list.c **** }
 700              		.loc 1 257 0
 701 0040 0020     		movs	r0, #0
 702 0042 F8BD     		pop	{r3, r4, r5, r6, r7, pc}
 703              		.cfi_endproc
ARM GAS  /tmp/ccZtaq8j.s 			page 18


 704              	.LFE13:
 706              		.section	.text.List_traverse_ByCondition,"ax",%progbits
 707              		.align	1
 708              		.global	List_traverse_ByCondition
 709              		.syntax unified
 710              		.thumb
 711              		.thumb_func
 712              		.fpu fpv4-sp-d16
 714              	List_traverse_ByCondition:
 715              	.LFB12:
 209:SYS/data_structure/linked_list.c ****     if (list != NULL)
 716              		.loc 1 209 0
 717              		.cfi_startproc
 718              		@ args = 4, pretend = 0, frame = 0
 719              		@ frame_needed = 0, uses_anonymous_args = 0
 720              	.LVL71:
 210:SYS/data_structure/linked_list.c ****     {
 721              		.loc 1 210 0
 722 0000 F8B1     		cbz	r0, .L83
 209:SYS/data_structure/linked_list.c ****     if (list != NULL)
 723              		.loc 1 209 0
 724 0002 F8B5     		push	{r3, r4, r5, r6, r7, lr}
 725              	.LCFI22:
 726              		.cfi_def_cfa_offset 24
 727              		.cfi_offset 3, -24
 728              		.cfi_offset 4, -20
 729              		.cfi_offset 5, -16
 730              		.cfi_offset 6, -12
 731              		.cfi_offset 7, -8
 732              		.cfi_offset 14, -4
 733 0004 0646     		mov	r6, r0
 734 0006 1D46     		mov	r5, r3
 735 0008 1746     		mov	r7, r2
 736 000a 0C46     		mov	r4, r1
 212:SYS/data_structure/linked_list.c ****         {
 737              		.loc 1 212 0
 738 000c 01B1     		cbz	r1, .L81
 212:SYS/data_structure/linked_list.c ****         {
 739              		.loc 1 212 0 is_stmt 0 discriminator 1
 740 000e 5BB1     		cbz	r3, .L91
 741              	.LVL72:
 742              	.L81:
 218:SYS/data_structure/linked_list.c ****         {
 743              		.loc 1 218 0 is_stmt 1
 744 0010 F068     		ldr	r0, [r6, #12]
 745 0012 20B1     		cbz	r0, .L82
 220:SYS/data_structure/linked_list.c ****         }
 746              		.loc 1 220 0
 747 0014 2B46     		mov	r3, r5
 748 0016 3A46     		mov	r2, r7
 749 0018 2146     		mov	r1, r4
 750 001a FFF7FEFF 		bl	List_traverse
 751              	.LVL73:
 752              	.L82:
 223:SYS/data_structure/linked_list.c ****         {
 753              		.loc 1 223 0
 754 001e 9CB1     		cbz	r4, .L85
ARM GAS  /tmp/ccZtaq8j.s 			page 19


 223:SYS/data_structure/linked_list.c ****         {
 755              		.loc 1 223 0 is_stmt 0 discriminator 1
 756 0020 012D     		cmp	r5, #1
 757 0022 08D0     		beq	.L92
 232:SYS/data_structure/linked_list.c **** }
 758              		.loc 1 232 0 is_stmt 1
 759 0024 0020     		movs	r0, #0
 233:SYS/data_structure/linked_list.c **** 
 760              		.loc 1 233 0
 761 0026 F8BD     		pop	{r3, r4, r5, r6, r7, pc}
 762              	.LVL74:
 763              	.L91:
 214:SYS/data_structure/linked_list.c ****                 return list_no_error;
 764              		.loc 1 214 0
 765 0028 0169     		ldr	r1, [r0, #16]
 766              	.LVL75:
 767 002a A047     		blx	r4
 768              	.LVL76:
 769 002c 069B     		ldr	r3, [sp, #24]
 770 002e 9842     		cmp	r0, r3
 771 0030 EED1     		bne	.L81
 215:SYS/data_structure/linked_list.c ****         }
 772              		.loc 1 215 0
 773 0032 0020     		movs	r0, #0
 774 0034 F8BD     		pop	{r3, r4, r5, r6, r7, pc}
 775              	.LVL77:
 776              	.L92:
 225:SYS/data_structure/linked_list.c ****                 return list_no_error;
 777              		.loc 1 225 0
 778 0036 3A46     		mov	r2, r7
 779 0038 3169     		ldr	r1, [r6, #16]
 780 003a 3046     		mov	r0, r6
 781 003c A047     		blx	r4
 782              	.LVL78:
 226:SYS/data_structure/linked_list.c ****         }
 783              		.loc 1 226 0
 784 003e 0020     		movs	r0, #0
 785 0040 F8BD     		pop	{r3, r4, r5, r6, r7, pc}
 786              	.LVL79:
 787              	.L83:
 788              	.LCFI23:
 789              		.cfi_def_cfa_offset 0
 790              		.cfi_restore 3
 791              		.cfi_restore 4
 792              		.cfi_restore 5
 793              		.cfi_restore 6
 794              		.cfi_restore 7
 795              		.cfi_restore 14
 230:SYS/data_structure/linked_list.c **** 
 796              		.loc 1 230 0
 797 0042 6FF00100 		mvn	r0, #1
 798              	.LVL80:
 799 0046 7047     		bx	lr
 800              	.LVL81:
 801              	.L85:
 802              	.LCFI24:
 803              		.cfi_def_cfa_offset 24
ARM GAS  /tmp/ccZtaq8j.s 			page 20


 804              		.cfi_offset 3, -24
 805              		.cfi_offset 4, -20
 806              		.cfi_offset 5, -16
 807              		.cfi_offset 6, -12
 808              		.cfi_offset 7, -8
 809              		.cfi_offset 14, -4
 232:SYS/data_structure/linked_list.c **** }
 810              		.loc 1 232 0
 811 0048 0020     		movs	r0, #0
 812 004a F8BD     		pop	{r3, r4, r5, r6, r7, pc}
 813              		.cfi_endproc
 814              	.LFE12:
 816              		.section	.text.List_DecBelowID,"ax",%progbits
 817              		.align	1
 818              		.global	List_DecBelowID
 819              		.syntax unified
 820              		.thumb
 821              		.thumb_func
 822              		.fpu fpv4-sp-d16
 824              	List_DecBelowID:
 825              	.LFB14:
 259:SYS/data_structure/linked_list.c **** 
 260:SYS/data_structure/linked_list.c **** list_error_code List_DecBelowID(item_obj *obj)
 261:SYS/data_structure/linked_list.c **** {
 826              		.loc 1 261 0
 827              		.cfi_startproc
 828              		@ args = 0, pretend = 0, frame = 0
 829              		@ frame_needed = 0, uses_anonymous_args = 0
 830              	.LVL82:
 262:SYS/data_structure/linked_list.c ****     if (obj != NULL)
 831              		.loc 1 262 0
 832 0000 28B1     		cbz	r0, .L95
 261:SYS/data_structure/linked_list.c ****     if (obj != NULL)
 833              		.loc 1 261 0
 834 0002 08B5     		push	{r3, lr}
 835              	.LCFI25:
 836              		.cfi_def_cfa_offset 8
 837              		.cfi_offset 3, -8
 838              		.cfi_offset 14, -4
 263:SYS/data_structure/linked_list.c ****     {
 264:SYS/data_structure/linked_list.c ****         List_DecBelowID(obj->nxt);
 839              		.loc 1 264 0
 840 0004 C068     		ldr	r0, [r0, #12]
 841              	.LVL83:
 842 0006 FFF7FEFF 		bl	List_DecBelowID
 843              	.LVL84:
 265:SYS/data_structure/linked_list.c **** 
 266:SYS/data_structure/linked_list.c ****         return item_no_error;
 844              		.loc 1 266 0
 845 000a 0020     		movs	r0, #0
 846 000c 08BD     		pop	{r3, pc}
 847              	.LVL85:
 848              	.L95:
 849              	.LCFI26:
 850              		.cfi_def_cfa_offset 0
 851              		.cfi_restore 3
 852              		.cfi_restore 14
ARM GAS  /tmp/ccZtaq8j.s 			page 21


 267:SYS/data_structure/linked_list.c ****     }
 268:SYS/data_structure/linked_list.c **** 
 269:SYS/data_structure/linked_list.c ****     return item_obj_error;
 853              		.loc 1 269 0
 854 000e 4FF0FF30 		mov	r0, #-1
 855              	.LVL86:
 856 0012 7047     		bx	lr
 857              		.cfi_endproc
 858              	.LFE14:
 860              		.section	.text.List_Delete_Item,"ax",%progbits
 861              		.align	1
 862              		.global	List_Delete_Item
 863              		.syntax unified
 864              		.thumb
 865              		.thumb_func
 866              		.fpu fpv4-sp-d16
 868              	List_Delete_Item:
 869              	.LFB15:
 270:SYS/data_structure/linked_list.c **** }
 271:SYS/data_structure/linked_list.c **** 
 272:SYS/data_structure/linked_list.c **** list_error_code List_Delete_Item(item_obj *item, item_datareset_callback callback)
 273:SYS/data_structure/linked_list.c **** {
 870              		.loc 1 273 0
 871              		.cfi_startproc
 872              		@ args = 0, pretend = 0, frame = 0
 873              		@ frame_needed = 0, uses_anonymous_args = 0
 874              	.LVL87:
 274:SYS/data_structure/linked_list.c ****     if (item != NULL)
 875              		.loc 1 274 0
 876 0000 F8B1     		cbz	r0, .L105
 273:SYS/data_structure/linked_list.c ****     if (item != NULL)
 877              		.loc 1 273 0
 878 0002 08B5     		push	{r3, lr}
 879              	.LCFI27:
 880              		.cfi_def_cfa_offset 8
 881              		.cfi_offset 3, -8
 882              		.cfi_offset 14, -4
 883 0004 0346     		mov	r3, r0
 275:SYS/data_structure/linked_list.c ****     {
 276:SYS/data_structure/linked_list.c ****         if ((item->prv != NULL) && (item->nxt != NULL))
 884              		.loc 1 276 0
 885 0006 8268     		ldr	r2, [r0, #8]
 886 0008 6AB1     		cbz	r2, .L102
 887              		.loc 1 276 0 is_stmt 0 discriminator 1
 888 000a C068     		ldr	r0, [r0, #12]
 889              	.LVL88:
 890 000c 58B1     		cbz	r0, .L102
 277:SYS/data_structure/linked_list.c ****         {
 278:SYS/data_structure/linked_list.c ****             item->prv->nxt = item->nxt;
 891              		.loc 1 278 0 is_stmt 1
 892 000e D060     		str	r0, [r2, #12]
 279:SYS/data_structure/linked_list.c ****             item->nxt->prv = item->prv;
 893              		.loc 1 279 0
 894 0010 DA68     		ldr	r2, [r3, #12]
 895 0012 9868     		ldr	r0, [r3, #8]
 896 0014 9060     		str	r0, [r2, #8]
 280:SYS/data_structure/linked_list.c ****             item->prv = NULL;
ARM GAS  /tmp/ccZtaq8j.s 			page 22


 897              		.loc 1 280 0
 898 0016 0022     		movs	r2, #0
 899 0018 9A60     		str	r2, [r3, #8]
 281:SYS/data_structure/linked_list.c ****             item->nxt = NULL;
 900              		.loc 1 281 0
 901 001a DA60     		str	r2, [r3, #12]
 902              	.LVL89:
 903              	.L103:
 282:SYS/data_structure/linked_list.c ****         }
 283:SYS/data_structure/linked_list.c ****         else if ((item->prv != NULL) && (item->nxt == NULL))
 284:SYS/data_structure/linked_list.c ****         {
 285:SYS/data_structure/linked_list.c ****             item->prv->nxt = NULL;
 286:SYS/data_structure/linked_list.c ****             item->prv = NULL;
 287:SYS/data_structure/linked_list.c ****             item->nxt = NULL;
 288:SYS/data_structure/linked_list.c ****         }
 289:SYS/data_structure/linked_list.c ****         else if ((item->prv == NULL) && (item->nxt != NULL))
 290:SYS/data_structure/linked_list.c ****         {
 291:SYS/data_structure/linked_list.c ****             item = item->nxt;
 292:SYS/data_structure/linked_list.c ****         }
 293:SYS/data_structure/linked_list.c **** 
 294:SYS/data_structure/linked_list.c ****         if (callback != NULL)
 904              		.loc 1 294 0
 905 001c A1B1     		cbz	r1, .L107
 295:SYS/data_structure/linked_list.c ****         {
 296:SYS/data_structure/linked_list.c ****             callback(item->data);
 906              		.loc 1 296 0
 907 001e 1869     		ldr	r0, [r3, #16]
 908 0020 8847     		blx	r1
 909              	.LVL90:
 297:SYS/data_structure/linked_list.c ****         }
 298:SYS/data_structure/linked_list.c **** 
 299:SYS/data_structure/linked_list.c ****         return list_no_error;
 910              		.loc 1 299 0
 911 0022 0020     		movs	r0, #0
 912 0024 08BD     		pop	{r3, pc}
 913              	.LVL91:
 914              	.L102:
 283:SYS/data_structure/linked_list.c ****         {
 915              		.loc 1 283 0
 916 0026 0AB1     		cbz	r2, .L104
 283:SYS/data_structure/linked_list.c ****         {
 917              		.loc 1 283 0 is_stmt 0 discriminator 1
 918 0028 D868     		ldr	r0, [r3, #12]
 919 002a 30B1     		cbz	r0, .L112
 920              	.L104:
 289:SYS/data_structure/linked_list.c ****         {
 921              		.loc 1 289 0 is_stmt 1
 922 002c 002A     		cmp	r2, #0
 923 002e F5D1     		bne	.L103
 289:SYS/data_structure/linked_list.c ****         {
 924              		.loc 1 289 0 is_stmt 0 discriminator 1
 925 0030 DA68     		ldr	r2, [r3, #12]
 926 0032 002A     		cmp	r2, #0
 927 0034 F2D0     		beq	.L103
 291:SYS/data_structure/linked_list.c ****         }
 928              		.loc 1 291 0 is_stmt 1
 929 0036 1346     		mov	r3, r2
ARM GAS  /tmp/ccZtaq8j.s 			page 23


 930              	.LVL92:
 931 0038 F0E7     		b	.L103
 932              	.LVL93:
 933              	.L112:
 285:SYS/data_structure/linked_list.c ****             item->prv = NULL;
 934              		.loc 1 285 0
 935 003a D060     		str	r0, [r2, #12]
 286:SYS/data_structure/linked_list.c ****             item->nxt = NULL;
 936              		.loc 1 286 0
 937 003c 9860     		str	r0, [r3, #8]
 287:SYS/data_structure/linked_list.c ****         }
 938              		.loc 1 287 0
 939 003e D860     		str	r0, [r3, #12]
 940 0040 ECE7     		b	.L103
 941              	.LVL94:
 942              	.L105:
 943              	.LCFI28:
 944              		.cfi_def_cfa_offset 0
 945              		.cfi_restore 3
 946              		.cfi_restore 14
 300:SYS/data_structure/linked_list.c ****     }
 301:SYS/data_structure/linked_list.c **** 
 302:SYS/data_structure/linked_list.c ****     return list_obj_error;
 947              		.loc 1 302 0
 948 0042 6FF00100 		mvn	r0, #1
 949              	.LVL95:
 950 0046 7047     		bx	lr
 951              	.LVL96:
 952              	.L107:
 953              	.LCFI29:
 954              		.cfi_def_cfa_offset 8
 955              		.cfi_offset 3, -8
 956              		.cfi_offset 14, -4
 299:SYS/data_structure/linked_list.c ****     }
 957              		.loc 1 299 0
 958 0048 0020     		movs	r0, #0
 303:SYS/data_structure/linked_list.c **** }
 959              		.loc 1 303 0
 960 004a 08BD     		pop	{r3, pc}
 961              		.cfi_endproc
 962              	.LFE15:
 964              		.section	.text.List_PopFirst,"ax",%progbits
 965              		.align	1
 966              		.global	List_PopFirst
 967              		.syntax unified
 968              		.thumb
 969              		.thumb_func
 970              		.fpu fpv4-sp-d16
 972              	List_PopFirst:
 973              	.LFB16:
 304:SYS/data_structure/linked_list.c **** 
 305:SYS/data_structure/linked_list.c **** item_obj *List_PopFirst(list_obj *list)
 306:SYS/data_structure/linked_list.c **** {
 974              		.loc 1 306 0
 975              		.cfi_startproc
 976              		@ args = 0, pretend = 0, frame = 0
 977              		@ frame_needed = 0, uses_anonymous_args = 0
ARM GAS  /tmp/ccZtaq8j.s 			page 24


 978              	.LVL97:
 307:SYS/data_structure/linked_list.c ****     item_obj *item_tmp = NULL;
 308:SYS/data_structure/linked_list.c **** 
 309:SYS/data_structure/linked_list.c ****     if (list != NULL)
 979              		.loc 1 309 0
 980 0000 60B1     		cbz	r0, .L116
 306:SYS/data_structure/linked_list.c ****     item_obj *item_tmp = NULL;
 981              		.loc 1 306 0
 982 0002 08B5     		push	{r3, lr}
 983              	.LCFI30:
 984              		.cfi_def_cfa_offset 8
 985              		.cfi_offset 3, -8
 986              		.cfi_offset 14, -4
 987 0004 0346     		mov	r3, r0
 310:SYS/data_structure/linked_list.c ****     {
 311:SYS/data_structure/linked_list.c ****         if (list->prv != NULL)
 988              		.loc 1 311 0
 989 0006 8068     		ldr	r0, [r0, #8]
 990              	.LVL98:
 991 0008 20B9     		cbnz	r0, .L121
 992              	.LVL99:
 312:SYS/data_structure/linked_list.c ****         {
 313:SYS/data_structure/linked_list.c ****             List_PopFirst(list->prv);
 314:SYS/data_structure/linked_list.c ****         }
 315:SYS/data_structure/linked_list.c ****         else
 316:SYS/data_structure/linked_list.c ****         {
 317:SYS/data_structure/linked_list.c ****             item_tmp = list;
 318:SYS/data_structure/linked_list.c ****             item_tmp->nxt = NULL;
 993              		.loc 1 318 0
 994 000a 0022     		movs	r2, #0
 995 000c DA60     		str	r2, [r3, #12]
 996              	.LVL100:
 319:SYS/data_structure/linked_list.c **** 
 320:SYS/data_structure/linked_list.c ****             list = list->nxt;
 321:SYS/data_structure/linked_list.c ****             list->prv = NULL;
 997              		.loc 1 321 0
 998 000e 9260     		str	r2, [r2, #8]
 317:SYS/data_structure/linked_list.c ****             item_tmp->nxt = NULL;
 999              		.loc 1 317 0
 1000 0010 1846     		mov	r0, r3
 1001 0012 08BD     		pop	{r3, pc}
 1002              	.LVL101:
 1003              	.L121:
 313:SYS/data_structure/linked_list.c ****         }
 1004              		.loc 1 313 0
 1005 0014 FFF7FEFF 		bl	List_PopFirst
 1006              	.LVL102:
 307:SYS/data_structure/linked_list.c **** 
 1007              		.loc 1 307 0
 1008 0018 0020     		movs	r0, #0
 1009 001a 08BD     		pop	{r3, pc}
 1010              	.LVL103:
 1011              	.L116:
 1012              	.LCFI31:
 1013              		.cfi_def_cfa_offset 0
 1014              		.cfi_restore 3
 1015              		.cfi_restore 14
ARM GAS  /tmp/ccZtaq8j.s 			page 25


 1016 001c 0020     		movs	r0, #0
 1017              	.LVL104:
 322:SYS/data_structure/linked_list.c ****         }
 323:SYS/data_structure/linked_list.c ****     }
 324:SYS/data_structure/linked_list.c **** 
 325:SYS/data_structure/linked_list.c ****     return item_tmp;
 1018              		.loc 1 325 0
 1019 001e 7047     		bx	lr
 1020              		.cfi_endproc
 1021              	.LFE16:
 1023              		.section	.text.List_GetFront_Len,"ax",%progbits
 1024              		.align	1
 1025              		.global	List_GetFront_Len
 1026              		.syntax unified
 1027              		.thumb
 1028              		.thumb_func
 1029              		.fpu fpv4-sp-d16
 1031              	List_GetFront_Len:
 1032              	.LFB17:
 326:SYS/data_structure/linked_list.c **** }
 327:SYS/data_structure/linked_list.c **** 
 328:SYS/data_structure/linked_list.c **** int16_t List_GetFront_Len(item_obj *list)
 329:SYS/data_structure/linked_list.c **** {
 1033              		.loc 1 329 0
 1034              		.cfi_startproc
 1035              		@ args = 0, pretend = 0, frame = 0
 1036              		@ frame_needed = 0, uses_anonymous_args = 0
 1037              	.LVL105:
 330:SYS/data_structure/linked_list.c ****     int16_t fnt_len = 0;
 331:SYS/data_structure/linked_list.c **** 
 332:SYS/data_structure/linked_list.c ****     if (list != NULL)
 1038              		.loc 1 332 0
 1039 0000 38B1     		cbz	r0, .L124
 329:SYS/data_structure/linked_list.c ****     int16_t fnt_len = 0;
 1040              		.loc 1 329 0
 1041 0002 08B5     		push	{r3, lr}
 1042              	.LCFI32:
 1043              		.cfi_def_cfa_offset 8
 1044              		.cfi_offset 3, -8
 1045              		.cfi_offset 14, -4
 333:SYS/data_structure/linked_list.c ****     {
 334:SYS/data_structure/linked_list.c ****         if (list->prv == NULL)
 1046              		.loc 1 334 0
 1047 0004 8068     		ldr	r0, [r0, #8]
 1048              	.LVL106:
 1049 0006 38B1     		cbz	r0, .L125
 335:SYS/data_structure/linked_list.c ****         {
 336:SYS/data_structure/linked_list.c ****             return 0;
 337:SYS/data_structure/linked_list.c ****         }
 338:SYS/data_structure/linked_list.c ****         else
 339:SYS/data_structure/linked_list.c ****         {
 340:SYS/data_structure/linked_list.c ****             fnt_len = List_GetFront_Len(list->prv);
 1050              		.loc 1 340 0
 1051 0008 FFF7FEFF 		bl	List_GetFront_Len
 1052              	.LVL107:
 341:SYS/data_structure/linked_list.c ****             fnt_len++;
 1053              		.loc 1 341 0
ARM GAS  /tmp/ccZtaq8j.s 			page 26


 1054 000c 0130     		adds	r0, r0, #1
 1055              	.LVL108:
 1056 000e 00B2     		sxth	r0, r0
 1057              	.LVL109:
 342:SYS/data_structure/linked_list.c ****         }
 343:SYS/data_structure/linked_list.c ****     }
 344:SYS/data_structure/linked_list.c ****     else
 345:SYS/data_structure/linked_list.c ****         return list_obj_error;
 346:SYS/data_structure/linked_list.c **** 
 347:SYS/data_structure/linked_list.c ****     return fnt_len;
 1058              		.loc 1 347 0
 1059 0010 08BD     		pop	{r3, pc}
 1060              	.LVL110:
 1061              	.L124:
 1062              	.LCFI33:
 1063              		.cfi_def_cfa_offset 0
 1064              		.cfi_restore 3
 1065              		.cfi_restore 14
 345:SYS/data_structure/linked_list.c **** 
 1066              		.loc 1 345 0
 1067 0012 6FF00100 		mvn	r0, #1
 1068              	.LVL111:
 1069 0016 7047     		bx	lr
 1070              	.L125:
 1071              	.LCFI34:
 1072              		.cfi_def_cfa_offset 8
 1073              		.cfi_offset 3, -8
 1074              		.cfi_offset 14, -4
 336:SYS/data_structure/linked_list.c ****         }
 1075              		.loc 1 336 0
 1076 0018 0020     		movs	r0, #0
 348:SYS/data_structure/linked_list.c **** }
 1077              		.loc 1 348 0
 1078 001a 08BD     		pop	{r3, pc}
 1079              		.cfi_endproc
 1080              	.LFE17:
 1082              		.section	.text.List_GetBack_Len,"ax",%progbits
 1083              		.align	1
 1084              		.global	List_GetBack_Len
 1085              		.syntax unified
 1086              		.thumb
 1087              		.thumb_func
 1088              		.fpu fpv4-sp-d16
 1090              	List_GetBack_Len:
 1091              	.LFB18:
 349:SYS/data_structure/linked_list.c **** 
 350:SYS/data_structure/linked_list.c **** int16_t List_GetBack_Len(item_obj *list)
 351:SYS/data_structure/linked_list.c **** {
 1092              		.loc 1 351 0
 1093              		.cfi_startproc
 1094              		@ args = 0, pretend = 0, frame = 0
 1095              		@ frame_needed = 0, uses_anonymous_args = 0
 1096              	.LVL112:
 352:SYS/data_structure/linked_list.c ****     uint16_t bck_len = 0;
 353:SYS/data_structure/linked_list.c **** 
 354:SYS/data_structure/linked_list.c ****     if (list != NULL)
 1097              		.loc 1 354 0
ARM GAS  /tmp/ccZtaq8j.s 			page 27


 1098 0000 40B1     		cbz	r0, .L132
 351:SYS/data_structure/linked_list.c ****     uint16_t bck_len = 0;
 1099              		.loc 1 351 0
 1100 0002 08B5     		push	{r3, lr}
 1101              	.LCFI35:
 1102              		.cfi_def_cfa_offset 8
 1103              		.cfi_offset 3, -8
 1104              		.cfi_offset 14, -4
 355:SYS/data_structure/linked_list.c ****     {
 356:SYS/data_structure/linked_list.c ****         if (list->nxt == NULL)
 1105              		.loc 1 356 0
 1106 0004 C068     		ldr	r0, [r0, #12]
 1107              	.LVL113:
 1108 0006 40B1     		cbz	r0, .L133
 357:SYS/data_structure/linked_list.c ****         {
 358:SYS/data_structure/linked_list.c ****             return 0;
 359:SYS/data_structure/linked_list.c ****         }
 360:SYS/data_structure/linked_list.c ****         else
 361:SYS/data_structure/linked_list.c ****         {
 362:SYS/data_structure/linked_list.c ****             bck_len = List_GetBack_Len(list->nxt);
 1109              		.loc 1 362 0
 1110 0008 FFF7FEFF 		bl	List_GetBack_Len
 1111              	.LVL114:
 1112 000c 80B2     		uxth	r0, r0
 1113              	.LVL115:
 363:SYS/data_structure/linked_list.c ****             bck_len++;
 1114              		.loc 1 363 0
 1115 000e 0130     		adds	r0, r0, #1
 1116              	.LVL116:
 364:SYS/data_structure/linked_list.c ****         }
 365:SYS/data_structure/linked_list.c ****     }
 366:SYS/data_structure/linked_list.c ****     else
 367:SYS/data_structure/linked_list.c ****         return list_obj_error;
 368:SYS/data_structure/linked_list.c **** 
 369:SYS/data_structure/linked_list.c ****     return bck_len;
 1117              		.loc 1 369 0
 1118 0010 00B2     		sxth	r0, r0
 1119 0012 08BD     		pop	{r3, pc}
 1120              	.LVL117:
 1121              	.L132:
 1122              	.LCFI36:
 1123              		.cfi_def_cfa_offset 0
 1124              		.cfi_restore 3
 1125              		.cfi_restore 14
 367:SYS/data_structure/linked_list.c **** 
 1126              		.loc 1 367 0
 1127 0014 6FF00100 		mvn	r0, #1
 1128              	.LVL118:
 1129 0018 7047     		bx	lr
 1130              	.L133:
 1131              	.LCFI37:
 1132              		.cfi_def_cfa_offset 8
 1133              		.cfi_offset 3, -8
 1134              		.cfi_offset 14, -4
 358:SYS/data_structure/linked_list.c ****         }
 1135              		.loc 1 358 0
 1136 001a 0020     		movs	r0, #0
ARM GAS  /tmp/ccZtaq8j.s 			page 28


 370:SYS/data_structure/linked_list.c **** }
 1137              		.loc 1 370 0
 1138 001c 08BD     		pop	{r3, pc}
 1139              		.cfi_endproc
 1140              	.LFE18:
 1142              		.section	.text.List_GetLen,"ax",%progbits
 1143              		.align	1
 1144              		.global	List_GetLen
 1145              		.syntax unified
 1146              		.thumb
 1147              		.thumb_func
 1148              		.fpu fpv4-sp-d16
 1150              	List_GetLen:
 1151              	.LFB19:
 371:SYS/data_structure/linked_list.c **** 
 372:SYS/data_structure/linked_list.c **** int16_t List_GetLen(list_obj *list)
 373:SYS/data_structure/linked_list.c **** {
 1152              		.loc 1 373 0
 1153              		.cfi_startproc
 1154              		@ args = 0, pretend = 0, frame = 0
 1155              		@ frame_needed = 0, uses_anonymous_args = 0
 1156              	.LVL119:
 374:SYS/data_structure/linked_list.c ****     uint16_t len = 0;
 375:SYS/data_structure/linked_list.c **** 
 376:SYS/data_structure/linked_list.c ****     if (list != NULL)
 1157              		.loc 1 376 0
 1158 0000 58B1     		cbz	r0, .L140
 373:SYS/data_structure/linked_list.c ****     uint16_t len = 0;
 1159              		.loc 1 373 0
 1160 0002 38B5     		push	{r3, r4, r5, lr}
 1161              	.LCFI38:
 1162              		.cfi_def_cfa_offset 16
 1163              		.cfi_offset 3, -16
 1164              		.cfi_offset 4, -12
 1165              		.cfi_offset 5, -8
 1166              		.cfi_offset 14, -4
 1167 0004 0546     		mov	r5, r0
 377:SYS/data_structure/linked_list.c ****     {
 378:SYS/data_structure/linked_list.c ****         len = List_GetFront_Len(list);
 1168              		.loc 1 378 0
 1169 0006 FFF7FEFF 		bl	List_GetFront_Len
 1170              	.LVL120:
 1171 000a 84B2     		uxth	r4, r0
 1172              	.LVL121:
 379:SYS/data_structure/linked_list.c ****         len += List_GetBack_Len(list);
 1173              		.loc 1 379 0
 1174 000c 2846     		mov	r0, r5
 1175 000e FFF7FEFF 		bl	List_GetBack_Len
 1176              	.LVL122:
 1177 0012 14FA80F0 		uxtah	r0, r4, r0
 1178              	.LVL123:
 380:SYS/data_structure/linked_list.c ****     }
 381:SYS/data_structure/linked_list.c ****     else
 382:SYS/data_structure/linked_list.c ****         return list_obj_error;
 383:SYS/data_structure/linked_list.c **** 
 384:SYS/data_structure/linked_list.c ****     return len;
 1179              		.loc 1 384 0
ARM GAS  /tmp/ccZtaq8j.s 			page 29


 1180 0016 00B2     		sxth	r0, r0
 1181 0018 38BD     		pop	{r3, r4, r5, pc}
 1182              	.LVL124:
 1183              	.L140:
 1184              	.LCFI39:
 1185              		.cfi_def_cfa_offset 0
 1186              		.cfi_restore 3
 1187              		.cfi_restore 4
 1188              		.cfi_restore 5
 1189              		.cfi_restore 14
 382:SYS/data_structure/linked_list.c **** 
 1190              		.loc 1 382 0
 1191 001a 6FF00100 		mvn	r0, #1
 1192              	.LVL125:
 1193 001e 7047     		bx	lr
 1194              		.cfi_endproc
 1195              	.LFE19:
 1197              		.text
 1198              	.Letext0:
 1199              		.file 2 "/usr/include/newlib/machine/_default_types.h"
 1200              		.file 3 "/usr/include/newlib/sys/_stdint.h"
 1201              		.file 4 "/usr/include/newlib/sys/lock.h"
 1202              		.file 5 "/usr/include/newlib/sys/_types.h"
 1203              		.file 6 "/usr/lib/gcc/arm-none-eabi/6.3.1/include/stddef.h"
 1204              		.file 7 "/usr/include/newlib/sys/reent.h"
 1205              		.file 8 "/usr/include/newlib/stdlib.h"
 1206              		.file 9 "SYS/data_structure/linked_list.h"
ARM GAS  /tmp/ccZtaq8j.s 			page 30

