ARM GAS  C:\Users\why\AppData\Local\Temp\cc5APIFc.s 			page 1


   1              		.syntax unified
   2              		.cpu cortex-m4
   3              		.eabi_attribute 27, 1
   4              		.eabi_attribute 28, 1
   5              		.fpu fpv4-sp-d16
   6              		.eabi_attribute 20, 1
   7              		.eabi_attribute 21, 1
   8              		.eabi_attribute 23, 3
   9              		.eabi_attribute 24, 1
  10              		.eabi_attribute 25, 1
  11              		.eabi_attribute 26, 1
  12              		.eabi_attribute 30, 1
  13              		.eabi_attribute 34, 1
  14              		.eabi_attribute 18, 4
  15              		.thumb
  16              		.syntax unified
  17              		.file	"main.c"
  18              		.text
  19              	.Ltext0:
  20              		.cfi_sections	.debug_frame
  21              		.section	.text.Gpio_Flip,"ax",%progbits
  22              		.align	2
  23              		.global	Gpio_Flip
  24              		.thumb
  25              		.thumb_func
  27              	Gpio_Flip:
  28              	.LFB124:
  29              		.file 1 "USER/main.c"
   1:USER/main.c   **** #include "stddef.h"
   2:USER/main.c   **** #include "stdio.h"
   3:USER/main.c   **** #include "runtime.h"
   4:USER/main.c   **** #include "periph_gpio.h"
   5:USER/main.c   **** #include "drv_serial.h"
   6:USER/main.c   **** #include "task_manager.h"
   7:USER/main.c   **** #include "Task_Widget.h"
   8:USER/main.c   **** #include "Task_Shell.h"
   9:USER/main.c   **** #include "Task_Encoder.h"
  10:USER/main.c   **** 
  11:USER/main.c   **** void Gpio_Flip(void)
  12:USER/main.c   **** {
  30              		.loc 1 12 0
  31              		.cfi_startproc
  32              		@ args = 0, pretend = 0, frame = 0
  33              		@ frame_needed = 0, uses_anonymous_args = 0
  34 0000 08B5     		push	{r3, lr}
  35              	.LCFI0:
  36              		.cfi_def_cfa_offset 8
  37              		.cfi_offset 3, -8
  38              		.cfi_offset 14, -4
  13:USER/main.c   **** 	static bool io_level = false;
  14:USER/main.c   **** 
  15:USER/main.c   **** 	if (io_level)
  39              		.loc 1 15 0
  40 0002 0A4B     		ldr	r3, .L5
  41 0004 1B78     		ldrb	r3, [r3]	@ zero_extendqisi2
  42 0006 2BB1     		cbz	r3, .L2
  16:USER/main.c   **** 	{
ARM GAS  C:\Users\why\AppData\Local\Temp\cc5APIFc.s 			page 2


  17:USER/main.c   **** 		GPIO_Set_IO_LEVEL(GPIOB, GPIO_Pin_3, HI);
  43              		.loc 1 17 0
  44 0008 0022     		movs	r2, #0
  45 000a 0821     		movs	r1, #8
  46 000c 0848     		ldr	r0, .L5+4
  47 000e FFF7FEFF 		bl	GPIO_Set_IO_LEVEL
  48              	.LVL0:
  49 0012 04E0     		b	.L3
  50              	.L2:
  18:USER/main.c   **** 	}
  19:USER/main.c   **** 	else
  20:USER/main.c   **** 	{
  21:USER/main.c   **** 		GPIO_Set_IO_LEVEL(GPIOB, GPIO_Pin_3, LO);
  51              		.loc 1 21 0
  52 0014 0122     		movs	r2, #1
  53 0016 0821     		movs	r1, #8
  54 0018 0548     		ldr	r0, .L5+4
  55 001a FFF7FEFF 		bl	GPIO_Set_IO_LEVEL
  56              	.LVL1:
  57              	.L3:
  22:USER/main.c   **** 	}
  23:USER/main.c   **** 
  24:USER/main.c   **** 	io_level = !io_level;
  58              		.loc 1 24 0
  59 001e 034A     		ldr	r2, .L5
  60 0020 1378     		ldrb	r3, [r2]	@ zero_extendqisi2
  61 0022 83F00103 		eor	r3, r3, #1
  62 0026 1370     		strb	r3, [r2]
  63 0028 08BD     		pop	{r3, pc}
  64              	.L6:
  65 002a 00BF     		.align	2
  66              	.L5:
  67 002c 00000000 		.word	.LANCHOR0
  68 0030 00040240 		.word	1073873920
  69              		.cfi_endproc
  70              	.LFE124:
  72              		.section	.text.main,"ax",%progbits
  73              		.align	2
  74              		.global	main
  75              		.thumb
  76              		.thumb_func
  78              	main:
  79              	.LFB125:
  25:USER/main.c   **** }
  26:USER/main.c   **** 
  27:USER/main.c   **** /* the code up top is only for the test currently */
  28:USER/main.c   **** int main(void)
  29:USER/main.c   **** {
  80              		.loc 1 29 0
  81              		.cfi_startproc
  82              		@ args = 0, pretend = 0, frame = 0
  83              		@ frame_needed = 0, uses_anonymous_args = 0
  84 0000 10B5     		push	{r4, lr}
  85              	.LCFI1:
  86              		.cfi_def_cfa_offset 8
  87              		.cfi_offset 4, -8
  88              		.cfi_offset 14, -4
ARM GAS  C:\Users\why\AppData\Local\Temp\cc5APIFc.s 			page 3


  89 0002 82B0     		sub	sp, sp, #8
  90              	.LCFI2:
  91              		.cfi_def_cfa_offset 16
  30:USER/main.c   **** 	/* test pin */
  31:USER/main.c   **** 	GPIO_IO_Output_Init(RCC_AHB1Periph_GPIOB, GPIO_Pin_0, GPIOB);
  92              		.loc 1 31 0
  93 0004 344C     		ldr	r4, .L9
  94 0006 2246     		mov	r2, r4
  95 0008 0121     		movs	r1, #1
  96 000a 0220     		movs	r0, #2
  97 000c FFF7FEFF 		bl	GPIO_IO_Output_Init
  98              	.LVL2:
  32:USER/main.c   **** 	GPIO_IO_Output_Init(RCC_AHB1Periph_GPIOB, GPIO_Pin_1, GPIOB);
  99              		.loc 1 32 0
 100 0010 2246     		mov	r2, r4
 101 0012 0221     		movs	r1, #2
 102 0014 0846     		mov	r0, r1
 103 0016 FFF7FEFF 		bl	GPIO_IO_Output_Init
 104              	.LVL3:
  33:USER/main.c   **** 	GPIO_IO_Output_Init(RCC_AHB1Periph_GPIOB, GPIO_Pin_2, GPIOB);
 105              		.loc 1 33 0
 106 001a 2246     		mov	r2, r4
 107 001c 0421     		movs	r1, #4
 108 001e 0220     		movs	r0, #2
 109 0020 FFF7FEFF 		bl	GPIO_IO_Output_Init
 110              	.LVL4:
  34:USER/main.c   **** 	GPIO_IO_Output_Init(RCC_AHB1Periph_GPIOB, GPIO_Pin_3, GPIOB);
 111              		.loc 1 34 0
 112 0024 2246     		mov	r2, r4
 113 0026 0821     		movs	r1, #8
 114 0028 0220     		movs	r0, #2
 115 002a FFF7FEFF 		bl	GPIO_IO_Output_Init
 116              	.LVL5:
  35:USER/main.c   **** 	GPIO_IO_Output_Init(RCC_AHB1Periph_GPIOB, GPIO_Pin_4, GPIOB);
 117              		.loc 1 35 0
 118 002e 2246     		mov	r2, r4
 119 0030 1021     		movs	r1, #16
 120 0032 0220     		movs	r0, #2
 121 0034 FFF7FEFF 		bl	GPIO_IO_Output_Init
 122              	.LVL6:
  36:USER/main.c   **** 	GPIO_IO_Output_Init(RCC_AHB1Periph_GPIOB, GPIO_Pin_5, GPIOB);
 123              		.loc 1 36 0
 124 0038 2246     		mov	r2, r4
 125 003a 2021     		movs	r1, #32
 126 003c 0220     		movs	r0, #2
 127 003e FFF7FEFF 		bl	GPIO_IO_Output_Init
 128              	.LVL7:
  37:USER/main.c   **** 
  38:USER/main.c   **** 	GPIO_Set_IO_LEVEL(GPIOB, GPIO_Pin_0, LO);
 129              		.loc 1 38 0
 130 0042 0122     		movs	r2, #1
 131 0044 1146     		mov	r1, r2
 132 0046 2046     		mov	r0, r4
 133 0048 FFF7FEFF 		bl	GPIO_Set_IO_LEVEL
 134              	.LVL8:
  39:USER/main.c   **** 	GPIO_Set_IO_LEVEL(GPIOB, GPIO_Pin_1, LO);
 135              		.loc 1 39 0
ARM GAS  C:\Users\why\AppData\Local\Temp\cc5APIFc.s 			page 4


 136 004c 0122     		movs	r2, #1
 137 004e 0221     		movs	r1, #2
 138 0050 2046     		mov	r0, r4
 139 0052 FFF7FEFF 		bl	GPIO_Set_IO_LEVEL
 140              	.LVL9:
  40:USER/main.c   **** 	GPIO_Set_IO_LEVEL(GPIOB, GPIO_Pin_2, LO);
 141              		.loc 1 40 0
 142 0056 0122     		movs	r2, #1
 143 0058 0421     		movs	r1, #4
 144 005a 2046     		mov	r0, r4
 145 005c FFF7FEFF 		bl	GPIO_Set_IO_LEVEL
 146              	.LVL10:
  41:USER/main.c   **** 	GPIO_Set_IO_LEVEL(GPIOB, GPIO_Pin_3, LO);
 147              		.loc 1 41 0
 148 0060 0122     		movs	r2, #1
 149 0062 0821     		movs	r1, #8
 150 0064 2046     		mov	r0, r4
 151 0066 FFF7FEFF 		bl	GPIO_Set_IO_LEVEL
 152              	.LVL11:
  42:USER/main.c   **** 	GPIO_Set_IO_LEVEL(GPIOB, GPIO_Pin_4, LO);
 153              		.loc 1 42 0
 154 006a 0122     		movs	r2, #1
 155 006c 1021     		movs	r1, #16
 156 006e 2046     		mov	r0, r4
 157 0070 FFF7FEFF 		bl	GPIO_Set_IO_LEVEL
 158              	.LVL12:
  43:USER/main.c   **** 	GPIO_Set_IO_LEVEL(GPIOB, GPIO_Pin_5, LO);
 159              		.loc 1 43 0
 160 0074 0122     		movs	r2, #1
 161 0076 2021     		movs	r1, #32
 162 0078 2046     		mov	r0, r4
 163 007a FFF7FEFF 		bl	GPIO_Set_IO_LEVEL
 164              	.LVL13:
  44:USER/main.c   **** 	/* test pin */
  45:USER/main.c   **** 
  46:USER/main.c   **** 	SystemInit();
 165              		.loc 1 46 0
 166 007e FFF7FEFF 		bl	SystemInit
 167              	.LVL14:
  47:USER/main.c   **** 	TaskWidget_Hdl = Task_Create("Widget", TASK_EXEC_100HZ, Group_0, Task_Priority_1, TaskWidget_Core,
 168              		.loc 1 47 0
 169 0082 C823     		movs	r3, #200
 170 0084 0193     		str	r3, [sp, #4]
 171 0086 154B     		ldr	r3, .L9+4
 172 0088 0093     		str	r3, [sp]
 173 008a 0123     		movs	r3, #1
 174 008c 0022     		movs	r2, #0
 175 008e 6421     		movs	r1, #100
 176 0090 1348     		ldr	r0, .L9+8
 177 0092 FFF7FEFF 		bl	Task_Create
 178              	.LVL15:
 179 0096 134B     		ldr	r3, .L9+12
 180 0098 1860     		str	r0, [r3]
  48:USER/main.c   **** 	Shell_Tsk_Hdl = Task_Create("Shell", TASK_EXEC_1KHZ, Group_0, Task_Priority_4, TaskShell_Core, 204
 181              		.loc 1 48 0
 182 009a 4FF40064 		mov	r4, #2048
 183 009e 0194     		str	r4, [sp, #4]
ARM GAS  C:\Users\why\AppData\Local\Temp\cc5APIFc.s 			page 5


 184 00a0 114B     		ldr	r3, .L9+16
 185 00a2 0093     		str	r3, [sp]
 186 00a4 0423     		movs	r3, #4
 187 00a6 0022     		movs	r2, #0
 188 00a8 4FF47A71 		mov	r1, #1000
 189 00ac 0F48     		ldr	r0, .L9+20
 190 00ae FFF7FEFF 		bl	Task_Create
 191              	.LVL16:
 192 00b2 0F4B     		ldr	r3, .L9+24
 193 00b4 1860     		str	r0, [r3]
  49:USER/main.c   **** 	Encoder_Tsk_Hdl = Task_Create("Encoder", TASK_EXEC_1KHZ, Group_0, Task_Priority_3, Task_Encoder_Co
 194              		.loc 1 49 0
 195 00b6 0194     		str	r4, [sp, #4]
 196 00b8 0E4B     		ldr	r3, .L9+28
 197 00ba 0093     		str	r3, [sp]
 198 00bc 0323     		movs	r3, #3
 199 00be 0022     		movs	r2, #0
 200 00c0 4FF47A71 		mov	r1, #1000
 201 00c4 0C48     		ldr	r0, .L9+32
 202 00c6 FFF7FEFF 		bl	Task_Create
 203              	.LVL17:
 204 00ca 0C4B     		ldr	r3, .L9+36
 205 00cc 1860     		str	r0, [r3]
  50:USER/main.c   **** 
  51:USER/main.c   **** 	TaskSystem_Start();
 206              		.loc 1 51 0
 207 00ce FFF7FEFF 		bl	TaskSystem_Start
 208              	.LVL18:
  52:USER/main.c   **** 
  53:USER/main.c   **** 	return 0;
  54:USER/main.c   **** }
 209              		.loc 1 54 0
 210 00d2 0020     		movs	r0, #0
 211 00d4 02B0     		add	sp, sp, #8
 212              	.LCFI3:
 213              		.cfi_def_cfa_offset 8
 214              		@ sp needed
 215 00d6 10BD     		pop	{r4, pc}
 216              	.L10:
 217              		.align	2
 218              	.L9:
 219 00d8 00040240 		.word	1073873920
 220 00dc 00000000 		.word	TaskWidget_Core
 221 00e0 00000000 		.word	.LC0
 222 00e4 00000000 		.word	TaskWidget_Hdl
 223 00e8 00000000 		.word	TaskShell_Core
 224 00ec 08000000 		.word	.LC1
 225 00f0 00000000 		.word	Shell_Tsk_Hdl
 226 00f4 00000000 		.word	Task_Encoder_Core
 227 00f8 10000000 		.word	.LC2
 228 00fc 00000000 		.word	Encoder_Tsk_Hdl
 229              		.cfi_endproc
 230              	.LFE125:
 232              		.section	.bss.io_level.10069,"aw",%nobits
 233              		.set	.LANCHOR0,. + 0
 236              	io_level.10069:
 237 0000 00       		.space	1
ARM GAS  C:\Users\why\AppData\Local\Temp\cc5APIFc.s 			page 6


 238              		.section	.rodata.str1.4,"aMS",%progbits,1
 239              		.align	2
 240              	.LC0:
 241 0000 57696467 		.ascii	"Widget\000"
 241      657400
 242 0007 00       		.space	1
 243              	.LC1:
 244 0008 5368656C 		.ascii	"Shell\000"
 244      6C00
 245 000e 0000     		.space	2
 246              	.LC2:
 247 0010 456E636F 		.ascii	"Encoder\000"
 247      64657200 
 248              		.text
 249              	.Letext0:
 250              		.file 2 "d:\\gcc_arm\\5.4 2016q3\\arm-none-eabi\\include\\machine\\_default_types.h"
 251              		.file 3 "d:\\gcc_arm\\5.4 2016q3\\arm-none-eabi\\include\\sys\\_stdint.h"
 252              		.file 4 "USER/stm32f4xx.h"
 253              		.file 5 "SYS/task_manager/task_manager.h"
 254              		.file 6 "Bsp/periph_gpio.h"
 255              		.file 7 "F4_CORE/core_cm4.h"
 256              		.file 8 "App/Task_Display/Task_Widget.h"
 257              		.file 9 "App/Task_Shell/Task_Shell.h"
 258              		.file 10 "App/Task_Encoder/Task_Encoder.h"
 259              		.file 11 "USER/system_stm32f4xx.h"
ARM GAS  C:\Users\why\AppData\Local\Temp\cc5APIFc.s 			page 7

