ARM GAS  /var/folders/lx/hc4sn_b53233_zkc9xbbl97r0000gp/T//ccPp46RF.s 			page 1


   1              		.cpu cortex-m4
   2              		.eabi_attribute 27, 1
   3              		.eabi_attribute 28, 1
   4              		.eabi_attribute 20, 1
   5              		.eabi_attribute 21, 1
   6              		.eabi_attribute 23, 3
   7              		.eabi_attribute 24, 1
   8              		.eabi_attribute 25, 1
   9              		.eabi_attribute 26, 1
  10              		.eabi_attribute 30, 1
  11              		.eabi_attribute 34, 1
  12              		.eabi_attribute 18, 4
  13              		.file	"mmu.c"
  14              		.text
  15              	.Ltext0:
  16              		.cfi_sections	.debug_frame
  17              		.section	.text.MMU_Init,"ax",%progbits
  18              		.align	1
  19              		.arch armv7e-m
  20              		.syntax unified
  21              		.thumb
  22              		.thumb_func
  23              		.fpu fpv4-sp-d16
  25              	MMU_Init:
  26              	.LFB4:
  27              		.file 1 "SYS/memng/mmu.c"
   1:SYS/memng/mmu.c **** /*
   2:SYS/memng/mmu.c **** * copy from freeRTOS
   3:SYS/memng/mmu.c **** * coder : 8_B!T0
   4:SYS/memng/mmu.c **** */
   5:SYS/memng/mmu.c **** #include "mmu.h"
   6:SYS/memng/mmu.c **** 
   7:SYS/memng/mmu.c **** #pragma pack(BLOCK_ALIGMENT_SIZE)
   8:SYS/memng/mmu.c **** uint8_t Mem_Buff[PHY_MEM_SIZE] __attribute__((section(".ccmram")));
   9:SYS/memng/mmu.c **** #pragma pack()
  10:SYS/memng/mmu.c **** 
  11:SYS/memng/mmu.c **** Mem_Monitor_TypeDef Mem_Monitor;
  12:SYS/memng/mmu.c **** 
  13:SYS/memng/mmu.c **** MemBlock_TypeDef MemStart;
  14:SYS/memng/mmu.c **** MemBlock_TypeDef *MemEnd;
  15:SYS/memng/mmu.c **** 
  16:SYS/memng/mmu.c **** static void MMU_InsertFreeBlock(MemBlock_TypeDef *pxBlockToInsert);
  17:SYS/memng/mmu.c **** static void MMU_Init(void);
  18:SYS/memng/mmu.c **** 
  19:SYS/memng/mmu.c **** Mem_Monitor_TypeDef MMU_Get_Monitor(void)
  20:SYS/memng/mmu.c **** {
  21:SYS/memng/mmu.c ****     return Mem_Monitor;
  22:SYS/memng/mmu.c **** }
  23:SYS/memng/mmu.c **** 
  24:SYS/memng/mmu.c **** static void MMU_Init(void)
  25:SYS/memng/mmu.c **** {
  28              		.loc 1 25 1 view -0
  29              		.cfi_startproc
  30              		@ args = 0, pretend = 0, frame = 0
  31              		@ frame_needed = 0, uses_anonymous_args = 0
  32              		@ link register save eliminated.
  26:SYS/memng/mmu.c ****     MemBlock_TypeDef *FstFreeBlock_tmp = NULL;
ARM GAS  /var/folders/lx/hc4sn_b53233_zkc9xbbl97r0000gp/T//ccPp46RF.s 			page 2


  33              		.loc 1 26 5 view .LVU1
  34              	.LVL0:
  27:SYS/memng/mmu.c **** 
  28:SYS/memng/mmu.c ****     Mem_Monitor.phy_size = PHY_MEM_SIZE;
  35              		.loc 1 28 5 view .LVU2
  36              		.loc 1 28 26 is_stmt 0 view .LVU3
  37 0000 144A     		ldr	r2, .L4
  38 0002 4FF48033 		mov	r3, #65536
  39 0006 1360     		str	r3, [r2]
  29:SYS/memng/mmu.c ****     Mem_Monitor.used_size = 0;
  40              		.loc 1 29 5 is_stmt 1 view .LVU4
  41              		.loc 1 29 27 is_stmt 0 view .LVU5
  42 0008 0023     		movs	r3, #0
  43 000a 5360     		str	r3, [r2, #4]
  30:SYS/memng/mmu.c **** 
  31:SYS/memng/mmu.c ****     for (uint32_t i = 0; i < PHY_MEM_SIZE; i++)
  44              		.loc 1 31 5 is_stmt 1 view .LVU6
  45              	.LBB2:
  46              		.loc 1 31 10 view .LVU7
  47              	.LVL1:
  48              		.loc 1 31 5 is_stmt 0 view .LVU8
  49 000c 03E0     		b	.L2
  50              	.LVL2:
  51              	.L3:
  32:SYS/memng/mmu.c ****     {
  33:SYS/memng/mmu.c ****         Mem_Buff[i] = 0;
  52              		.loc 1 33 9 is_stmt 1 discriminator 3 view .LVU9
  53              		.loc 1 33 21 is_stmt 0 discriminator 3 view .LVU10
  54 000e 124A     		ldr	r2, .L4+4
  55 0010 0021     		movs	r1, #0
  56 0012 D154     		strb	r1, [r2, r3]
  31:SYS/memng/mmu.c ****     {
  57              		.loc 1 31 44 is_stmt 1 discriminator 3 view .LVU11
  31:SYS/memng/mmu.c ****     {
  58              		.loc 1 31 45 is_stmt 0 discriminator 3 view .LVU12
  59 0014 0133     		adds	r3, r3, #1
  60              	.LVL3:
  61              	.L2:
  31:SYS/memng/mmu.c ****     {
  62              		.loc 1 31 26 is_stmt 1 discriminator 1 view .LVU13
  31:SYS/memng/mmu.c ****     {
  63              		.loc 1 31 5 is_stmt 0 discriminator 1 view .LVU14
  64 0016 B3F5803F 		cmp	r3, #65536
  65 001a F8D3     		bcc	.L3
  66              	.LBE2:
  34:SYS/memng/mmu.c ****     }
  35:SYS/memng/mmu.c **** 
  36:SYS/memng/mmu.c ****     MemStart.nxtFree = (void *)Mem_Buff;
  67              		.loc 1 36 5 is_stmt 1 view .LVU15
  68              		.loc 1 36 22 is_stmt 0 view .LVU16
  69 001c 0F49     		ldr	r1, .L4+8
  70 001e 0E4A     		ldr	r2, .L4+4
  71 0020 0A60     		str	r2, [r1]
  37:SYS/memng/mmu.c ****     MemStart.size = 0;
  72              		.loc 1 37 5 is_stmt 1 view .LVU17
  73              		.loc 1 37 19 is_stmt 0 view .LVU18
  74 0022 0023     		movs	r3, #0
ARM GAS  /var/folders/lx/hc4sn_b53233_zkc9xbbl97r0000gp/T//ccPp46RF.s 			page 3


  75              	.LVL4:
  76              		.loc 1 37 19 view .LVU19
  77 0024 8B80     		strh	r3, [r1, #4]	@ movhi
  38:SYS/memng/mmu.c **** 
  39:SYS/memng/mmu.c ****     MemEnd = (void *)(&Mem_Buff[PHY_MEM_SIZE] - sizeof(MemBlock_TypeDef));
  78              		.loc 1 39 5 is_stmt 1 view .LVU20
  79              		.loc 1 39 12 is_stmt 0 view .LVU21
  80 0026 0E49     		ldr	r1, .L4+12
  81 0028 0E48     		ldr	r0, .L4+16
  82 002a 0160     		str	r1, [r0]
  40:SYS/memng/mmu.c ****     MemEnd->nxtFree = NULL;
  83              		.loc 1 40 5 is_stmt 1 view .LVU22
  84              		.loc 1 40 21 is_stmt 0 view .LVU23
  85 002c 02F57040 		add	r0, r2, #61440
  86 0030 C0F8F83F 		str	r3, [r0, #4088]
  41:SYS/memng/mmu.c ****     MemEnd->size = 0;
  87              		.loc 1 41 5 is_stmt 1 view .LVU24
  88              		.loc 1 41 18 is_stmt 0 view .LVU25
  89 0034 A0F8FC3F 		strh	r3, [r0, #4092]	@ movhi
  42:SYS/memng/mmu.c **** 
  43:SYS/memng/mmu.c ****     Mem_Monitor.total_size = (MemBlock_Addr)MemEnd - (MemBlock_Addr)MemStart.nxtFree;
  90              		.loc 1 43 5 is_stmt 1 view .LVU26
  91              		.loc 1 43 28 is_stmt 0 view .LVU27
  92 0038 064B     		ldr	r3, .L4
  93 003a 4FF6F870 		movw	r0, #65528
  94 003e D860     		str	r0, [r3, #12]
  44:SYS/memng/mmu.c **** 
  45:SYS/memng/mmu.c ****     FstFreeBlock_tmp = MemStart.nxtFree;
  95              		.loc 1 45 5 is_stmt 1 view .LVU28
  96              	.LVL5:
  46:SYS/memng/mmu.c ****     FstFreeBlock_tmp->nxtFree = MemEnd;
  97              		.loc 1 46 5 view .LVU29
  98              		.loc 1 46 31 is_stmt 0 view .LVU30
  99 0040 1160     		str	r1, [r2]
  47:SYS/memng/mmu.c **** 
  48:SYS/memng/mmu.c ****     Mem_Monitor.total_size -= sizeof(MemBlock_TypeDef);
 100              		.loc 1 48 5 is_stmt 1 view .LVU31
 101              		.loc 1 48 28 is_stmt 0 view .LVU32
 102 0042 4FF6F071 		movw	r1, #65520
 103 0046 D960     		str	r1, [r3, #12]
  49:SYS/memng/mmu.c ****     FstFreeBlock_tmp->size = Mem_Monitor.total_size;
 104              		.loc 1 49 5 is_stmt 1 view .LVU33
 105              		.loc 1 49 28 is_stmt 0 view .LVU34
 106 0048 9180     		strh	r1, [r2, #4]	@ movhi
  50:SYS/memng/mmu.c **** 
  51:SYS/memng/mmu.c ****     Mem_Monitor.remain_size = Mem_Monitor.total_size;
 107              		.loc 1 51 5 is_stmt 1 view .LVU35
 108              		.loc 1 51 29 is_stmt 0 view .LVU36
 109 004a 9960     		str	r1, [r3, #8]
  52:SYS/memng/mmu.c **** 
  53:SYS/memng/mmu.c ****     Mem_Monitor.init = true;
 110              		.loc 1 53 5 is_stmt 1 view .LVU37
 111              		.loc 1 53 22 is_stmt 0 view .LVU38
 112 004c 0122     		movs	r2, #1
 113 004e 1A75     		strb	r2, [r3, #20]
  54:SYS/memng/mmu.c **** }
 114              		.loc 1 54 1 view .LVU39
ARM GAS  /var/folders/lx/hc4sn_b53233_zkc9xbbl97r0000gp/T//ccPp46RF.s 			page 4


 115 0050 7047     		bx	lr
 116              	.L5:
 117 0052 00BF     		.align	2
 118              	.L4:
 119 0054 00000000 		.word	.LANCHOR0
 120 0058 00000000 		.word	Mem_Buff
 121 005c 00000000 		.word	.LANCHOR1
 122 0060 F8FF0000 		.word	Mem_Buff+65528
 123 0064 00000000 		.word	.LANCHOR2
 124              		.cfi_endproc
 125              	.LFE4:
 127              		.section	.text.MMU_InsertFreeBlock,"ax",%progbits
 128              		.align	1
 129              		.syntax unified
 130              		.thumb
 131              		.thumb_func
 132              		.fpu fpv4-sp-d16
 134              	MMU_InsertFreeBlock:
 135              	.LVL6:
 136              	.LFB7:
  55:SYS/memng/mmu.c **** 
  56:SYS/memng/mmu.c **** void *MMU_Malloc(uint16_t size)
  57:SYS/memng/mmu.c **** {
  58:SYS/memng/mmu.c ****     MemBlock_TypeDef *PrvFreeBlock = NULL;
  59:SYS/memng/mmu.c ****     MemBlock_TypeDef *NxtFreeBlock = NULL;
  60:SYS/memng/mmu.c ****     MemBlock_TypeDef *Block_Tmp = NULL;
  61:SYS/memng/mmu.c ****     void *mem_addr = NULL;
  62:SYS/memng/mmu.c **** 
  63:SYS/memng/mmu.c ****     __asm("cpsid i");
  64:SYS/memng/mmu.c **** 
  65:SYS/memng/mmu.c ****     if (!Mem_Monitor.init)
  66:SYS/memng/mmu.c ****     {
  67:SYS/memng/mmu.c ****         MMU_Init();
  68:SYS/memng/mmu.c ****     }
  69:SYS/memng/mmu.c **** 
  70:SYS/memng/mmu.c ****     if (size + sizeof(MemBlock_TypeDef) <= Mem_Monitor.remain_size)
  71:SYS/memng/mmu.c ****     {
  72:SYS/memng/mmu.c ****         size += sizeof(MemBlock_TypeDef);
  73:SYS/memng/mmu.c **** 
  74:SYS/memng/mmu.c ****         /* aligment request byte number */
  75:SYS/memng/mmu.c ****         size += (size % BLOCK_ALIGMENT_SIZE);
  76:SYS/memng/mmu.c **** 
  77:SYS/memng/mmu.c ****         PrvFreeBlock = &MemStart;
  78:SYS/memng/mmu.c ****         Block_Tmp = MemStart.nxtFree;
  79:SYS/memng/mmu.c ****         while ((Block_Tmp->size < size) && (Block_Tmp->nxtFree != NULL))
  80:SYS/memng/mmu.c ****         {
  81:SYS/memng/mmu.c ****             PrvFreeBlock = Block_Tmp;
  82:SYS/memng/mmu.c ****             Block_Tmp = Block_Tmp->nxtFree;
  83:SYS/memng/mmu.c ****         }
  84:SYS/memng/mmu.c **** 
  85:SYS/memng/mmu.c ****         if (Block_Tmp != MemEnd)
  86:SYS/memng/mmu.c ****         {
  87:SYS/memng/mmu.c ****             mem_addr = (void *)(((uint8_t *)Block_Tmp) + sizeof(MemBlock_TypeDef));
  88:SYS/memng/mmu.c **** 
  89:SYS/memng/mmu.c ****             PrvFreeBlock->nxtFree = Block_Tmp->nxtFree;
  90:SYS/memng/mmu.c **** 
  91:SYS/memng/mmu.c ****             if ((Block_Tmp->size - size) > MINIMUM_BLOCK_SIZE)
ARM GAS  /var/folders/lx/hc4sn_b53233_zkc9xbbl97r0000gp/T//ccPp46RF.s 			page 5


  92:SYS/memng/mmu.c ****             {
  93:SYS/memng/mmu.c ****                 NxtFreeBlock = (void *)(((uint8_t *)Block_Tmp) + size);
  94:SYS/memng/mmu.c ****                 NxtFreeBlock->size = Block_Tmp->size - size - sizeof(MemBlock_TypeDef);
  95:SYS/memng/mmu.c ****                 Block_Tmp->size = size;
  96:SYS/memng/mmu.c ****             }
  97:SYS/memng/mmu.c **** 
  98:SYS/memng/mmu.c ****             Mem_Monitor.remain_size -= size;
  99:SYS/memng/mmu.c ****             Mem_Monitor.used_size += size;
 100:SYS/memng/mmu.c **** 
 101:SYS/memng/mmu.c ****             MMU_InsertFreeBlock(NxtFreeBlock);
 102:SYS/memng/mmu.c **** 
 103:SYS/memng/mmu.c ****             Block_Tmp->nxtFree = NULL;
 104:SYS/memng/mmu.c ****         }
 105:SYS/memng/mmu.c ****     }
 106:SYS/memng/mmu.c **** 
 107:SYS/memng/mmu.c ****     __asm("cpsie i");
 108:SYS/memng/mmu.c **** 
 109:SYS/memng/mmu.c ****     Mem_Monitor.FreeBlock = &MemStart;
 110:SYS/memng/mmu.c **** 
 111:SYS/memng/mmu.c ****     return mem_addr;
 112:SYS/memng/mmu.c **** }
 113:SYS/memng/mmu.c **** 
 114:SYS/memng/mmu.c **** void MMU_Free(void *ptr)
 115:SYS/memng/mmu.c **** {
 116:SYS/memng/mmu.c ****     uint8_t *puc = (uint8_t *)ptr;
 117:SYS/memng/mmu.c ****     MemBlock_TypeDef *pxLink;
 118:SYS/memng/mmu.c **** 
 119:SYS/memng/mmu.c ****     if (ptr != NULL)
 120:SYS/memng/mmu.c ****     {
 121:SYS/memng/mmu.c ****         /* The memory being freed will have an BlockLink_t structure immediately
 122:SYS/memng/mmu.c **** 		before it. */
 123:SYS/memng/mmu.c ****         puc -= sizeof(MemBlock_TypeDef);
 124:SYS/memng/mmu.c **** 
 125:SYS/memng/mmu.c ****         /* This casting is to keep the compiler from issuing warnings. */
 126:SYS/memng/mmu.c ****         pxLink = (void *)puc;
 127:SYS/memng/mmu.c **** 
 128:SYS/memng/mmu.c ****         if (pxLink->nxtFree == NULL)
 129:SYS/memng/mmu.c ****         {
 130:SYS/memng/mmu.c ****             //pxLink->size &= ~xBlockAllocatedBit;
 131:SYS/memng/mmu.c **** 
 132:SYS/memng/mmu.c ****             __asm("cpsid i");
 133:SYS/memng/mmu.c ****             {
 134:SYS/memng/mmu.c ****                 /* Add this block to the list of free blocks. */
 135:SYS/memng/mmu.c ****                 Mem_Monitor.remain_size += pxLink->size;
 136:SYS/memng/mmu.c **** 
 137:SYS/memng/mmu.c ****                 //traceFREE(pv, pxLink->size);
 138:SYS/memng/mmu.c ****                 MMU_InsertFreeBlock(((MemBlock_TypeDef *)pxLink));
 139:SYS/memng/mmu.c ****             }
 140:SYS/memng/mmu.c ****             __asm("cpsie i");
 141:SYS/memng/mmu.c ****         }
 142:SYS/memng/mmu.c ****     }
 143:SYS/memng/mmu.c **** }
 144:SYS/memng/mmu.c **** 
 145:SYS/memng/mmu.c **** static void MMU_InsertFreeBlock(MemBlock_TypeDef *pxBlockToInsert)
 146:SYS/memng/mmu.c **** {
 137              		.loc 1 146 1 is_stmt 1 view -0
 138              		.cfi_startproc
ARM GAS  /var/folders/lx/hc4sn_b53233_zkc9xbbl97r0000gp/T//ccPp46RF.s 			page 6


 139              		@ args = 0, pretend = 0, frame = 0
 140              		@ frame_needed = 0, uses_anonymous_args = 0
 141              		@ link register save eliminated.
 147:SYS/memng/mmu.c ****     MemBlock_TypeDef *pxIterator;
 142              		.loc 1 147 5 view .LVU41
 148:SYS/memng/mmu.c ****     uint8_t *puc;
 143              		.loc 1 148 5 view .LVU42
 149:SYS/memng/mmu.c **** 
 150:SYS/memng/mmu.c ****     /* Iterate through the list until a block is found that has a higher address
 151:SYS/memng/mmu.c ****      * than the block being inserted. */
 152:SYS/memng/mmu.c ****     for (pxIterator = &MemStart; pxIterator->nxtFree < pxBlockToInsert; pxIterator = pxIterator->nx
 144              		.loc 1 152 5 view .LVU43
 145              		.loc 1 152 21 is_stmt 0 view .LVU44
 146 0000 164B     		ldr	r3, .L21
 147              	.LVL7:
 148              	.L7:
 149              		.loc 1 152 34 is_stmt 1 discriminator 1 view .LVU45
 150 0002 1A46     		mov	r2, r3
 151              		.loc 1 152 44 is_stmt 0 discriminator 1 view .LVU46
 152 0004 1B68     		ldr	r3, [r3]
 153              	.LVL8:
 154              		.loc 1 152 5 discriminator 1 view .LVU47
 155 0006 8342     		cmp	r3, r0
 156 0008 FBD3     		bcc	.L7
 153:SYS/memng/mmu.c ****     {
 154:SYS/memng/mmu.c ****         /* Nothing to do here, just iterate to the right position. */
 155:SYS/memng/mmu.c ****     }
 156:SYS/memng/mmu.c **** 
 157:SYS/memng/mmu.c ****     puc = (uint8_t *)pxIterator;
 157              		.loc 1 157 5 is_stmt 1 view .LVU48
 158              	.LVL9:
 158:SYS/memng/mmu.c **** 
 159:SYS/memng/mmu.c ****     if ((puc + pxIterator->size) == (uint8_t *)pxBlockToInsert)
 159              		.loc 1 159 5 view .LVU49
 160              		.loc 1 159 26 is_stmt 0 view .LVU50
 161 000a 9188     		ldrh	r1, [r2, #4]
 162              		.loc 1 159 14 view .LVU51
 163 000c 02EB010C 		add	ip, r2, r1
 164              		.loc 1 159 8 view .LVU52
 165 0010 8445     		cmp	ip, r0
 166 0012 09D0     		beq	.L19
 167              	.L8:
 160:SYS/memng/mmu.c ****     {
 161:SYS/memng/mmu.c ****         pxIterator->size += pxBlockToInsert->size;
 162:SYS/memng/mmu.c ****         pxBlockToInsert = pxIterator;
 163:SYS/memng/mmu.c ****     }
 164:SYS/memng/mmu.c **** 
 165:SYS/memng/mmu.c ****     /* Do the block being inserted, and the block it is being inserted before
 166:SYS/memng/mmu.c **** 	make a contiguous block of memory? */
 167:SYS/memng/mmu.c ****     puc = (uint8_t *)pxBlockToInsert;
 168              		.loc 1 167 5 is_stmt 1 view .LVU53
 169              	.LVL10:
 168:SYS/memng/mmu.c **** 
 169:SYS/memng/mmu.c ****     if ((puc + pxBlockToInsert->size) == (uint8_t *)pxIterator->nxtFree)
 170              		.loc 1 169 5 view .LVU54
 171              		.loc 1 169 31 is_stmt 0 view .LVU55
 172 0014 8188     		ldrh	r1, [r0, #4]
ARM GAS  /var/folders/lx/hc4sn_b53233_zkc9xbbl97r0000gp/T//ccPp46RF.s 			page 7


 173              		.loc 1 169 14 view .LVU56
 174 0016 00EB010C 		add	ip, r0, r1
 175              		.loc 1 169 8 view .LVU57
 176 001a 6345     		cmp	r3, ip
 177 001c 09D0     		beq	.L20
 170:SYS/memng/mmu.c ****     {
 171:SYS/memng/mmu.c ****         if (pxIterator->nxtFree != MemEnd)
 172:SYS/memng/mmu.c ****         {
 173:SYS/memng/mmu.c ****             /* Form one big block from the two blocks. */
 174:SYS/memng/mmu.c ****             pxBlockToInsert->size += pxIterator->nxtFree->size;
 175:SYS/memng/mmu.c ****             pxBlockToInsert->nxtFree = pxIterator->nxtFree->nxtFree;
 176:SYS/memng/mmu.c ****         }
 177:SYS/memng/mmu.c ****         else
 178:SYS/memng/mmu.c ****         {
 179:SYS/memng/mmu.c ****             pxBlockToInsert->nxtFree = MemEnd;
 180:SYS/memng/mmu.c ****         }
 181:SYS/memng/mmu.c ****     }
 182:SYS/memng/mmu.c ****     else
 183:SYS/memng/mmu.c ****     {
 184:SYS/memng/mmu.c ****         pxBlockToInsert->nxtFree = pxIterator->nxtFree;
 178              		.loc 1 184 9 is_stmt 1 view .LVU58
 179              		.loc 1 184 34 is_stmt 0 view .LVU59
 180 001e 0360     		str	r3, [r0]
 185:SYS/memng/mmu.c ****     }
 186:SYS/memng/mmu.c **** 
 187:SYS/memng/mmu.c ****     if (pxIterator != pxBlockToInsert)
 181              		.loc 1 187 5 is_stmt 1 view .LVU60
 182              		.loc 1 187 8 is_stmt 0 view .LVU61
 183 0020 9042     		cmp	r0, r2
 184 0022 19D0     		beq	.L16
 188:SYS/memng/mmu.c ****     {
 189:SYS/memng/mmu.c ****         pxIterator->nxtFree = pxBlockToInsert;
 185              		.loc 1 189 9 is_stmt 1 view .LVU62
 186              		.loc 1 189 29 is_stmt 0 view .LVU63
 187 0024 1060     		str	r0, [r2]
 188 0026 7047     		bx	lr
 189              	.LVL11:
 190              	.L19:
 161:SYS/memng/mmu.c ****         pxBlockToInsert = pxIterator;
 191              		.loc 1 161 9 is_stmt 1 view .LVU64
 161:SYS/memng/mmu.c ****         pxBlockToInsert = pxIterator;
 192              		.loc 1 161 44 is_stmt 0 view .LVU65
 193 0028 8088     		ldrh	r0, [r0, #4]
 194              	.LVL12:
 161:SYS/memng/mmu.c ****         pxBlockToInsert = pxIterator;
 195              		.loc 1 161 26 view .LVU66
 196 002a 0144     		add	r1, r1, r0
 197 002c 9180     		strh	r1, [r2, #4]	@ movhi
 162:SYS/memng/mmu.c ****     }
 198              		.loc 1 162 9 is_stmt 1 view .LVU67
 199              	.LVL13:
 162:SYS/memng/mmu.c ****     }
 200              		.loc 1 162 25 is_stmt 0 view .LVU68
 201 002e 1046     		mov	r0, r2
 202 0030 F0E7     		b	.L8
 203              	.LVL14:
 204              	.L20:
ARM GAS  /var/folders/lx/hc4sn_b53233_zkc9xbbl97r0000gp/T//ccPp46RF.s 			page 8


 146:SYS/memng/mmu.c ****     MemBlock_TypeDef *pxIterator;
 205              		.loc 1 146 1 view .LVU69
 206 0032 10B4     		push	{r4}
 207              	.LCFI0:
 208              		.cfi_def_cfa_offset 4
 209              		.cfi_offset 4, -4
 171:SYS/memng/mmu.c ****         {
 210              		.loc 1 171 9 is_stmt 1 view .LVU70
 171:SYS/memng/mmu.c ****         {
 211              		.loc 1 171 33 is_stmt 0 view .LVU71
 212 0034 0A4C     		ldr	r4, .L21+4
 213 0036 2468     		ldr	r4, [r4]
 171:SYS/memng/mmu.c ****         {
 214              		.loc 1 171 12 view .LVU72
 215 0038 A342     		cmp	r3, r4
 216 003a 0BD0     		beq	.L10
 174:SYS/memng/mmu.c ****             pxBlockToInsert->nxtFree = pxIterator->nxtFree->nxtFree;
 217              		.loc 1 174 13 is_stmt 1 view .LVU73
 174:SYS/memng/mmu.c ****             pxBlockToInsert->nxtFree = pxIterator->nxtFree->nxtFree;
 218              		.loc 1 174 57 is_stmt 0 view .LVU74
 219 003c 9B88     		ldrh	r3, [r3, #4]
 174:SYS/memng/mmu.c ****             pxBlockToInsert->nxtFree = pxIterator->nxtFree->nxtFree;
 220              		.loc 1 174 35 view .LVU75
 221 003e 1944     		add	r1, r1, r3
 222 0040 8180     		strh	r1, [r0, #4]	@ movhi
 175:SYS/memng/mmu.c ****         }
 223              		.loc 1 175 13 is_stmt 1 view .LVU76
 175:SYS/memng/mmu.c ****         }
 224              		.loc 1 175 50 is_stmt 0 view .LVU77
 225 0042 1368     		ldr	r3, [r2]
 175:SYS/memng/mmu.c ****         }
 226              		.loc 1 175 59 view .LVU78
 227 0044 1B68     		ldr	r3, [r3]
 175:SYS/memng/mmu.c ****         }
 228              		.loc 1 175 38 view .LVU79
 229 0046 0360     		str	r3, [r0]
 230              	.L11:
 187:SYS/memng/mmu.c ****     {
 231              		.loc 1 187 5 is_stmt 1 view .LVU80
 187:SYS/memng/mmu.c ****     {
 232              		.loc 1 187 8 is_stmt 0 view .LVU81
 233 0048 9042     		cmp	r0, r2
 234 004a 00D0     		beq	.L6
 235              		.loc 1 189 9 is_stmt 1 view .LVU82
 236              		.loc 1 189 29 is_stmt 0 view .LVU83
 237 004c 1060     		str	r0, [r2]
 238              	.L6:
 190:SYS/memng/mmu.c ****     }
 191:SYS/memng/mmu.c **** }
 239              		.loc 1 191 1 view .LVU84
 240 004e 5DF8044B 		ldr	r4, [sp], #4
 241              	.LCFI1:
 242              		.cfi_remember_state
 243              		.cfi_restore 4
 244              		.cfi_def_cfa_offset 0
 245 0052 7047     		bx	lr
 246              	.L10:
ARM GAS  /var/folders/lx/hc4sn_b53233_zkc9xbbl97r0000gp/T//ccPp46RF.s 			page 9


 247              	.LCFI2:
 248              		.cfi_restore_state
 179:SYS/memng/mmu.c ****         }
 249              		.loc 1 179 13 is_stmt 1 view .LVU85
 179:SYS/memng/mmu.c ****         }
 250              		.loc 1 179 38 is_stmt 0 view .LVU86
 251 0054 0460     		str	r4, [r0]
 252 0056 F7E7     		b	.L11
 253              	.L16:
 254              	.LCFI3:
 255              		.cfi_def_cfa_offset 0
 256              		.cfi_restore 4
 179:SYS/memng/mmu.c ****         }
 257              		.loc 1 179 38 view .LVU87
 258 0058 7047     		bx	lr
 259              	.L22:
 260 005a 00BF     		.align	2
 261              	.L21:
 262 005c 00000000 		.word	.LANCHOR1
 263 0060 00000000 		.word	.LANCHOR2
 264              		.cfi_endproc
 265              	.LFE7:
 267              		.section	.text.MMU_Get_Monitor,"ax",%progbits
 268              		.align	1
 269              		.global	MMU_Get_Monitor
 270              		.syntax unified
 271              		.thumb
 272              		.thumb_func
 273              		.fpu fpv4-sp-d16
 275              	MMU_Get_Monitor:
 276              	.LVL15:
 277              	.LFB3:
  20:SYS/memng/mmu.c ****     return Mem_Monitor;
 278              		.loc 1 20 1 is_stmt 1 view -0
 279              		.cfi_startproc
 280              		@ args = 0, pretend = 0, frame = 0
 281              		@ frame_needed = 0, uses_anonymous_args = 0
  20:SYS/memng/mmu.c ****     return Mem_Monitor;
 282              		.loc 1 20 1 is_stmt 0 view .LVU89
 283 0000 10B5     		push	{r4, lr}
 284              	.LCFI4:
 285              		.cfi_def_cfa_offset 8
 286              		.cfi_offset 4, -8
 287              		.cfi_offset 14, -4
 288 0002 8646     		mov	lr, r0
  21:SYS/memng/mmu.c **** }
 289              		.loc 1 21 5 is_stmt 1 view .LVU90
  21:SYS/memng/mmu.c **** }
 290              		.loc 1 21 12 is_stmt 0 view .LVU91
 291 0004 8446     		mov	ip, r0
 292 0006 054C     		ldr	r4, .L25
 293 0008 0FCC     		ldmia	r4!, {r0, r1, r2, r3}
 294              	.LVL16:
  21:SYS/memng/mmu.c **** }
 295              		.loc 1 21 12 view .LVU92
 296 000a ACE80F00 		stmia	ip!, {r0, r1, r2, r3}
 297              	.LVL17:
ARM GAS  /var/folders/lx/hc4sn_b53233_zkc9xbbl97r0000gp/T//ccPp46RF.s 			page 10


  21:SYS/memng/mmu.c **** }
 298              		.loc 1 21 12 view .LVU93
 299 000e 94E80300 		ldm	r4, {r0, r1}
 300 0012 8CE80300 		stm	ip, {r0, r1}
  22:SYS/memng/mmu.c **** 
 301              		.loc 1 22 1 view .LVU94
 302 0016 7046     		mov	r0, lr
 303 0018 10BD     		pop	{r4, pc}
 304              	.L26:
 305 001a 00BF     		.align	2
 306              	.L25:
 307 001c 00000000 		.word	.LANCHOR0
 308              		.cfi_endproc
 309              	.LFE3:
 311              		.section	.text.MMU_Malloc,"ax",%progbits
 312              		.align	1
 313              		.global	MMU_Malloc
 314              		.syntax unified
 315              		.thumb
 316              		.thumb_func
 317              		.fpu fpv4-sp-d16
 319              	MMU_Malloc:
 320              	.LVL18:
 321              	.LFB5:
  57:SYS/memng/mmu.c ****     MemBlock_TypeDef *PrvFreeBlock = NULL;
 322              		.loc 1 57 1 is_stmt 1 view -0
 323              		.cfi_startproc
 324              		@ args = 0, pretend = 0, frame = 0
 325              		@ frame_needed = 0, uses_anonymous_args = 0
  57:SYS/memng/mmu.c ****     MemBlock_TypeDef *PrvFreeBlock = NULL;
 326              		.loc 1 57 1 is_stmt 0 view .LVU96
 327 0000 38B5     		push	{r3, r4, r5, lr}
 328              	.LCFI5:
 329              		.cfi_def_cfa_offset 16
 330              		.cfi_offset 3, -16
 331              		.cfi_offset 4, -12
 332              		.cfi_offset 5, -8
 333              		.cfi_offset 14, -4
 334 0002 0446     		mov	r4, r0
  58:SYS/memng/mmu.c ****     MemBlock_TypeDef *NxtFreeBlock = NULL;
 335              		.loc 1 58 5 is_stmt 1 view .LVU97
 336              	.LVL19:
  59:SYS/memng/mmu.c ****     MemBlock_TypeDef *Block_Tmp = NULL;
 337              		.loc 1 59 5 view .LVU98
  60:SYS/memng/mmu.c ****     void *mem_addr = NULL;
 338              		.loc 1 60 5 view .LVU99
  61:SYS/memng/mmu.c **** 
 339              		.loc 1 61 5 view .LVU100
  63:SYS/memng/mmu.c **** 
 340              		.loc 1 63 5 view .LVU101
 341              		.syntax unified
 342              	@ 63 "SYS/memng/mmu.c" 1
 343 0004 72B6     		cpsid i
 344              	@ 0 "" 2
  65:SYS/memng/mmu.c ****     {
 345              		.loc 1 65 5 view .LVU102
  65:SYS/memng/mmu.c ****     {
ARM GAS  /var/folders/lx/hc4sn_b53233_zkc9xbbl97r0000gp/T//ccPp46RF.s 			page 11


 346              		.loc 1 65 21 is_stmt 0 view .LVU103
 347              		.thumb
 348              		.syntax unified
 349 0006 224B     		ldr	r3, .L39
 350 0008 1B7D     		ldrb	r3, [r3, #20]	@ zero_extendqisi2
  65:SYS/memng/mmu.c ****     {
 351              		.loc 1 65 8 view .LVU104
 352 000a 6BB1     		cbz	r3, .L38
 353              	.LVL20:
 354              	.L28:
  70:SYS/memng/mmu.c ****     {
 355              		.loc 1 70 5 is_stmt 1 view .LVU105
  70:SYS/memng/mmu.c ****     {
 356              		.loc 1 70 14 is_stmt 0 view .LVU106
 357 000c 04F10803 		add	r3, r4, #8
  70:SYS/memng/mmu.c ****     {
 358              		.loc 1 70 55 view .LVU107
 359 0010 1F4A     		ldr	r2, .L39
 360 0012 9268     		ldr	r2, [r2, #8]
  70:SYS/memng/mmu.c ****     {
 361              		.loc 1 70 8 view .LVU108
 362 0014 9342     		cmp	r3, r2
 363 0016 36D8     		bhi	.L33
  72:SYS/memng/mmu.c **** 
 364              		.loc 1 72 9 is_stmt 1 view .LVU109
 365              	.LVL21:
  75:SYS/memng/mmu.c **** 
 366              		.loc 1 75 9 view .LVU110
  75:SYS/memng/mmu.c **** 
 367              		.loc 1 75 23 is_stmt 0 view .LVU111
 368 0018 04F00304 		and	r4, r4, #3
  75:SYS/memng/mmu.c **** 
 369              		.loc 1 75 14 view .LVU112
 370 001c 14FA83F4 		uxtah	r4, r4, r3
 371 0020 A2B2     		uxth	r2, r4
 372              	.LVL22:
  77:SYS/memng/mmu.c ****         Block_Tmp = MemStart.nxtFree;
 373              		.loc 1 77 9 is_stmt 1 view .LVU113
  78:SYS/memng/mmu.c ****         while ((Block_Tmp->size < size) && (Block_Tmp->nxtFree != NULL))
 374              		.loc 1 78 9 view .LVU114
  78:SYS/memng/mmu.c ****         while ((Block_Tmp->size < size) && (Block_Tmp->nxtFree != NULL))
 375              		.loc 1 78 19 is_stmt 0 view .LVU115
 376 0022 1C49     		ldr	r1, .L39+4
 377 0024 0C68     		ldr	r4, [r1]
 378              	.LVL23:
  79:SYS/memng/mmu.c ****         {
 379              		.loc 1 79 9 is_stmt 1 view .LVU116
  79:SYS/memng/mmu.c ****         {
 380              		.loc 1 79 15 is_stmt 0 view .LVU117
 381 0026 04E0     		b	.L31
 382              	.LVL24:
 383              	.L38:
  67:SYS/memng/mmu.c ****     }
 384              		.loc 1 67 9 is_stmt 1 view .LVU118
 385 0028 FFF7FEFF 		bl	MMU_Init
 386              	.LVL25:
  67:SYS/memng/mmu.c ****     }
ARM GAS  /var/folders/lx/hc4sn_b53233_zkc9xbbl97r0000gp/T//ccPp46RF.s 			page 12


 387              		.loc 1 67 9 is_stmt 0 view .LVU119
 388 002c EEE7     		b	.L28
 389              	.LVL26:
 390              	.L34:
  81:SYS/memng/mmu.c ****             Block_Tmp = Block_Tmp->nxtFree;
 391              		.loc 1 81 26 view .LVU120
 392 002e 2146     		mov	r1, r4
 393              	.LVL27:
  82:SYS/memng/mmu.c ****         }
 394              		.loc 1 82 23 view .LVU121
 395 0030 1C46     		mov	r4, r3
 396              	.LVL28:
 397              	.L31:
  79:SYS/memng/mmu.c ****         {
 398              		.loc 1 79 15 is_stmt 1 view .LVU122
  79:SYS/memng/mmu.c ****         {
 399              		.loc 1 79 26 is_stmt 0 view .LVU123
 400 0032 A388     		ldrh	r3, [r4, #4]
  79:SYS/memng/mmu.c ****         {
 401              		.loc 1 79 15 view .LVU124
 402 0034 9342     		cmp	r3, r2
 403 0036 02D2     		bcs	.L30
  79:SYS/memng/mmu.c ****         {
 404              		.loc 1 79 54 discriminator 1 view .LVU125
 405 0038 2368     		ldr	r3, [r4]
  79:SYS/memng/mmu.c ****         {
 406              		.loc 1 79 41 discriminator 1 view .LVU126
 407 003a 002B     		cmp	r3, #0
 408 003c F7D1     		bne	.L34
 409              	.L30:
  85:SYS/memng/mmu.c ****         {
 410              		.loc 1 85 9 is_stmt 1 view .LVU127
  85:SYS/memng/mmu.c ****         {
 411              		.loc 1 85 23 is_stmt 0 view .LVU128
 412 003e 164B     		ldr	r3, .L39+8
 413 0040 1B68     		ldr	r3, [r3]
  85:SYS/memng/mmu.c ****         {
 414              		.loc 1 85 12 view .LVU129
 415 0042 A342     		cmp	r3, r4
 416 0044 21D0     		beq	.L35
  87:SYS/memng/mmu.c **** 
 417              		.loc 1 87 13 is_stmt 1 view .LVU130
  87:SYS/memng/mmu.c **** 
 418              		.loc 1 87 22 is_stmt 0 view .LVU131
 419 0046 2546     		mov	r5, r4
 420              	.LVL29:
  89:SYS/memng/mmu.c **** 
 421              		.loc 1 89 13 is_stmt 1 view .LVU132
  89:SYS/memng/mmu.c **** 
 422              		.loc 1 89 46 is_stmt 0 view .LVU133
 423 0048 55F8083B 		ldr	r3, [r5], #8
 424              	.LVL30:
  89:SYS/memng/mmu.c **** 
 425              		.loc 1 89 35 view .LVU134
 426 004c 0B60     		str	r3, [r1]
  91:SYS/memng/mmu.c ****             {
 427              		.loc 1 91 13 is_stmt 1 view .LVU135
ARM GAS  /var/folders/lx/hc4sn_b53233_zkc9xbbl97r0000gp/T//ccPp46RF.s 			page 13


  91:SYS/memng/mmu.c ****             {
 428              		.loc 1 91 27 is_stmt 0 view .LVU136
 429 004e A388     		ldrh	r3, [r4, #4]
  91:SYS/memng/mmu.c ****             {
 430              		.loc 1 91 34 view .LVU137
 431 0050 991A     		subs	r1, r3, r2
 432              	.LVL31:
  91:SYS/memng/mmu.c ****             {
 433              		.loc 1 91 16 view .LVU138
 434 0052 0829     		cmp	r1, #8
 435 0054 15DD     		ble	.L36
  93:SYS/memng/mmu.c ****                 NxtFreeBlock->size = Block_Tmp->size - size - sizeof(MemBlock_TypeDef);
 436              		.loc 1 93 17 is_stmt 1 view .LVU139
  93:SYS/memng/mmu.c ****                 NxtFreeBlock->size = Block_Tmp->size - size - sizeof(MemBlock_TypeDef);
 437              		.loc 1 93 30 is_stmt 0 view .LVU140
 438 0056 A018     		adds	r0, r4, r2
 439              	.LVL32:
  94:SYS/memng/mmu.c ****                 Block_Tmp->size = size;
 440              		.loc 1 94 17 is_stmt 1 view .LVU141
  94:SYS/memng/mmu.c ****                 Block_Tmp->size = size;
 441              		.loc 1 94 54 is_stmt 0 view .LVU142
 442 0058 8BB2     		uxth	r3, r1
  94:SYS/memng/mmu.c ****                 Block_Tmp->size = size;
 443              		.loc 1 94 61 view .LVU143
 444 005a 083B     		subs	r3, r3, #8
  94:SYS/memng/mmu.c ****                 Block_Tmp->size = size;
 445              		.loc 1 94 36 view .LVU144
 446 005c 8380     		strh	r3, [r0, #4]	@ movhi
  95:SYS/memng/mmu.c ****             }
 447              		.loc 1 95 17 is_stmt 1 view .LVU145
  95:SYS/memng/mmu.c ****             }
 448              		.loc 1 95 33 is_stmt 0 view .LVU146
 449 005e A280     		strh	r2, [r4, #4]	@ movhi
 450              	.LVL33:
 451              	.L32:
  98:SYS/memng/mmu.c ****             Mem_Monitor.used_size += size;
 452              		.loc 1 98 13 is_stmt 1 view .LVU147
  98:SYS/memng/mmu.c ****             Mem_Monitor.used_size += size;
 453              		.loc 1 98 37 is_stmt 0 view .LVU148
 454 0060 0B4B     		ldr	r3, .L39
 455 0062 9968     		ldr	r1, [r3, #8]
 456 0064 891A     		subs	r1, r1, r2
 457 0066 9960     		str	r1, [r3, #8]
  99:SYS/memng/mmu.c **** 
 458              		.loc 1 99 13 is_stmt 1 view .LVU149
  99:SYS/memng/mmu.c **** 
 459              		.loc 1 99 35 is_stmt 0 view .LVU150
 460 0068 5968     		ldr	r1, [r3, #4]
 461 006a 0A44     		add	r2, r2, r1
 462              	.LVL34:
  99:SYS/memng/mmu.c **** 
 463              		.loc 1 99 35 view .LVU151
 464 006c 5A60     		str	r2, [r3, #4]
 101:SYS/memng/mmu.c **** 
 465              		.loc 1 101 13 is_stmt 1 view .LVU152
 466 006e FFF7FEFF 		bl	MMU_InsertFreeBlock
 467              	.LVL35:
ARM GAS  /var/folders/lx/hc4sn_b53233_zkc9xbbl97r0000gp/T//ccPp46RF.s 			page 14


 103:SYS/memng/mmu.c ****         }
 468              		.loc 1 103 13 view .LVU153
 103:SYS/memng/mmu.c ****         }
 469              		.loc 1 103 32 is_stmt 0 view .LVU154
 470 0072 0023     		movs	r3, #0
 471 0074 2360     		str	r3, [r4]
 472              	.LVL36:
 473              	.L29:
 107:SYS/memng/mmu.c **** 
 474              		.loc 1 107 5 is_stmt 1 view .LVU155
 475              		.syntax unified
 476              	@ 107 "SYS/memng/mmu.c" 1
 477 0076 62B6     		cpsie i
 478              	@ 0 "" 2
 109:SYS/memng/mmu.c **** 
 479              		.loc 1 109 5 view .LVU156
 109:SYS/memng/mmu.c **** 
 480              		.loc 1 109 27 is_stmt 0 view .LVU157
 481              		.thumb
 482              		.syntax unified
 483 0078 054B     		ldr	r3, .L39
 484 007a 064A     		ldr	r2, .L39+4
 485 007c 1A61     		str	r2, [r3, #16]
 111:SYS/memng/mmu.c **** }
 486              		.loc 1 111 5 is_stmt 1 view .LVU158
 112:SYS/memng/mmu.c **** 
 487              		.loc 1 112 1 is_stmt 0 view .LVU159
 488 007e 2846     		mov	r0, r5
 489 0080 38BD     		pop	{r3, r4, r5, pc}
 490              	.LVL37:
 491              	.L36:
  59:SYS/memng/mmu.c ****     MemBlock_TypeDef *Block_Tmp = NULL;
 492              		.loc 1 59 23 view .LVU160
 493 0082 0020     		movs	r0, #0
 494 0084 ECE7     		b	.L32
 495              	.LVL38:
 496              	.L33:
  61:SYS/memng/mmu.c **** 
 497              		.loc 1 61 11 view .LVU161
 498 0086 0025     		movs	r5, #0
 499 0088 F5E7     		b	.L29
 500              	.LVL39:
 501              	.L35:
  61:SYS/memng/mmu.c **** 
 502              		.loc 1 61 11 view .LVU162
 503 008a 0025     		movs	r5, #0
 504 008c F3E7     		b	.L29
 505              	.L40:
 506 008e 00BF     		.align	2
 507              	.L39:
 508 0090 00000000 		.word	.LANCHOR0
 509 0094 00000000 		.word	.LANCHOR1
 510 0098 00000000 		.word	.LANCHOR2
 511              		.cfi_endproc
 512              	.LFE5:
 514              		.section	.text.MMU_Free,"ax",%progbits
 515              		.align	1
ARM GAS  /var/folders/lx/hc4sn_b53233_zkc9xbbl97r0000gp/T//ccPp46RF.s 			page 15


 516              		.global	MMU_Free
 517              		.syntax unified
 518              		.thumb
 519              		.thumb_func
 520              		.fpu fpv4-sp-d16
 522              	MMU_Free:
 523              	.LVL40:
 524              	.LFB6:
 115:SYS/memng/mmu.c ****     uint8_t *puc = (uint8_t *)ptr;
 525              		.loc 1 115 1 is_stmt 1 view -0
 526              		.cfi_startproc
 527              		@ args = 0, pretend = 0, frame = 0
 528              		@ frame_needed = 0, uses_anonymous_args = 0
 116:SYS/memng/mmu.c ****     MemBlock_TypeDef *pxLink;
 529              		.loc 1 116 5 view .LVU164
 117:SYS/memng/mmu.c **** 
 530              		.loc 1 117 5 view .LVU165
 119:SYS/memng/mmu.c ****     {
 531              		.loc 1 119 5 view .LVU166
 119:SYS/memng/mmu.c ****     {
 532              		.loc 1 119 8 is_stmt 0 view .LVU167
 533 0000 88B1     		cbz	r0, .L44
 115:SYS/memng/mmu.c ****     uint8_t *puc = (uint8_t *)ptr;
 534              		.loc 1 115 1 view .LVU168
 535 0002 08B5     		push	{r3, lr}
 536              	.LCFI6:
 537              		.cfi_def_cfa_offset 8
 538              		.cfi_offset 3, -8
 539              		.cfi_offset 14, -4
 540 0004 0346     		mov	r3, r0
 123:SYS/memng/mmu.c **** 
 541              		.loc 1 123 9 is_stmt 1 view .LVU169
 123:SYS/memng/mmu.c **** 
 542              		.loc 1 123 13 is_stmt 0 view .LVU170
 543 0006 0838     		subs	r0, r0, #8
 544              	.LVL41:
 126:SYS/memng/mmu.c **** 
 545              		.loc 1 126 9 is_stmt 1 view .LVU171
 128:SYS/memng/mmu.c ****         {
 546              		.loc 1 128 9 view .LVU172
 128:SYS/memng/mmu.c ****         {
 547              		.loc 1 128 19 is_stmt 0 view .LVU173
 548 0008 53F8082C 		ldr	r2, [r3, #-8]
 128:SYS/memng/mmu.c ****         {
 549              		.loc 1 128 12 view .LVU174
 550 000c 02B1     		cbz	r2, .L47
 551              	.LVL42:
 552              	.L41:
 143:SYS/memng/mmu.c **** 
 553              		.loc 1 143 1 view .LVU175
 554 000e 08BD     		pop	{r3, pc}
 555              	.LVL43:
 556              	.L47:
 132:SYS/memng/mmu.c ****             {
 557              		.loc 1 132 13 is_stmt 1 view .LVU176
 558              		.syntax unified
 559              	@ 132 "SYS/memng/mmu.c" 1
ARM GAS  /var/folders/lx/hc4sn_b53233_zkc9xbbl97r0000gp/T//ccPp46RF.s 			page 16


 560 0010 72B6     		cpsid i
 561              	@ 0 "" 2
 135:SYS/memng/mmu.c **** 
 562              		.loc 1 135 17 view .LVU177
 135:SYS/memng/mmu.c **** 
 563              		.loc 1 135 50 is_stmt 0 view .LVU178
 564              		.thumb
 565              		.syntax unified
 566 0012 33F8041C 		ldrh	r1, [r3, #-4]
 135:SYS/memng/mmu.c **** 
 567              		.loc 1 135 41 view .LVU179
 568 0016 044A     		ldr	r2, .L48
 569 0018 9368     		ldr	r3, [r2, #8]
 570              	.LVL44:
 135:SYS/memng/mmu.c **** 
 571              		.loc 1 135 41 view .LVU180
 572 001a 0B44     		add	r3, r3, r1
 573 001c 9360     		str	r3, [r2, #8]
 138:SYS/memng/mmu.c ****             }
 574              		.loc 1 138 17 is_stmt 1 view .LVU181
 575 001e FFF7FEFF 		bl	MMU_InsertFreeBlock
 576              	.LVL45:
 140:SYS/memng/mmu.c ****         }
 577              		.loc 1 140 13 view .LVU182
 578              		.syntax unified
 579              	@ 140 "SYS/memng/mmu.c" 1
 580 0022 62B6     		cpsie i
 581              	@ 0 "" 2
 143:SYS/memng/mmu.c **** 
 582              		.loc 1 143 1 is_stmt 0 view .LVU183
 583              		.thumb
 584              		.syntax unified
 585 0024 F3E7     		b	.L41
 586              	.LVL46:
 587              	.L44:
 588              	.LCFI7:
 589              		.cfi_def_cfa_offset 0
 590              		.cfi_restore 3
 591              		.cfi_restore 14
 143:SYS/memng/mmu.c **** 
 592              		.loc 1 143 1 view .LVU184
 593 0026 7047     		bx	lr
 594              	.L49:
 595              		.align	2
 596              	.L48:
 597 0028 00000000 		.word	.LANCHOR0
 598              		.cfi_endproc
 599              	.LFE6:
 601              		.global	MemEnd
 602              		.global	MemStart
 603              		.global	Mem_Monitor
 604              		.global	Mem_Buff
 605              		.section	.bss.MemEnd,"aw",%nobits
 606              		.align	2
 607              		.set	.LANCHOR2,. + 0
 610              	MemEnd:
 611 0000 00000000 		.space	4
ARM GAS  /var/folders/lx/hc4sn_b53233_zkc9xbbl97r0000gp/T//ccPp46RF.s 			page 17


 612              		.section	.bss.MemStart,"aw",%nobits
 613              		.align	2
 614              		.set	.LANCHOR1,. + 0
 617              	MemStart:
 618 0000 00000000 		.space	8
 618      00000000 
 619              		.section	.bss.Mem_Monitor,"aw",%nobits
 620              		.align	2
 621              		.set	.LANCHOR0,. + 0
 624              	Mem_Monitor:
 625 0000 00000000 		.space	24
 625      00000000 
 625      00000000 
 625      00000000 
 625      00000000 
 626              		.section	.ccmram,"aw"
 627              		.align	2
 630              	Mem_Buff:
 631 0000 00000000 		.space	65536
 631      00000000 
 631      00000000 
 631      00000000 
 631      00000000 
 632              		.text
 633              	.Letext0:
 634              		.file 2 "/usr/local/arm-none-eabi-gcc/gcc-arm-none-eabi-10-2020-q4-major/arm-none-eabi/include/mac
 635              		.file 3 "/usr/local/arm-none-eabi-gcc/gcc-arm-none-eabi-10-2020-q4-major/arm-none-eabi/include/sys
 636              		.file 4 "SYS/memng/mmu.h"
ARM GAS  /var/folders/lx/hc4sn_b53233_zkc9xbbl97r0000gp/T//ccPp46RF.s 			page 18


DEFINED SYMBOLS
                            *ABS*:0000000000000000 mmu.c
/var/folders/lx/hc4sn_b53233_zkc9xbbl97r0000gp/T//ccPp46RF.s:18     .text.MMU_Init:0000000000000000 $t
/var/folders/lx/hc4sn_b53233_zkc9xbbl97r0000gp/T//ccPp46RF.s:25     .text.MMU_Init:0000000000000000 MMU_Init
/var/folders/lx/hc4sn_b53233_zkc9xbbl97r0000gp/T//ccPp46RF.s:119    .text.MMU_Init:0000000000000054 $d
/var/folders/lx/hc4sn_b53233_zkc9xbbl97r0000gp/T//ccPp46RF.s:630    .ccmram:0000000000000000 Mem_Buff
/var/folders/lx/hc4sn_b53233_zkc9xbbl97r0000gp/T//ccPp46RF.s:128    .text.MMU_InsertFreeBlock:0000000000000000 $t
/var/folders/lx/hc4sn_b53233_zkc9xbbl97r0000gp/T//ccPp46RF.s:134    .text.MMU_InsertFreeBlock:0000000000000000 MMU_InsertFreeBlock
/var/folders/lx/hc4sn_b53233_zkc9xbbl97r0000gp/T//ccPp46RF.s:262    .text.MMU_InsertFreeBlock:000000000000005c $d
/var/folders/lx/hc4sn_b53233_zkc9xbbl97r0000gp/T//ccPp46RF.s:268    .text.MMU_Get_Monitor:0000000000000000 $t
/var/folders/lx/hc4sn_b53233_zkc9xbbl97r0000gp/T//ccPp46RF.s:275    .text.MMU_Get_Monitor:0000000000000000 MMU_Get_Monitor
/var/folders/lx/hc4sn_b53233_zkc9xbbl97r0000gp/T//ccPp46RF.s:307    .text.MMU_Get_Monitor:000000000000001c $d
/var/folders/lx/hc4sn_b53233_zkc9xbbl97r0000gp/T//ccPp46RF.s:312    .text.MMU_Malloc:0000000000000000 $t
/var/folders/lx/hc4sn_b53233_zkc9xbbl97r0000gp/T//ccPp46RF.s:319    .text.MMU_Malloc:0000000000000000 MMU_Malloc
/var/folders/lx/hc4sn_b53233_zkc9xbbl97r0000gp/T//ccPp46RF.s:508    .text.MMU_Malloc:0000000000000090 $d
/var/folders/lx/hc4sn_b53233_zkc9xbbl97r0000gp/T//ccPp46RF.s:515    .text.MMU_Free:0000000000000000 $t
/var/folders/lx/hc4sn_b53233_zkc9xbbl97r0000gp/T//ccPp46RF.s:522    .text.MMU_Free:0000000000000000 MMU_Free
/var/folders/lx/hc4sn_b53233_zkc9xbbl97r0000gp/T//ccPp46RF.s:597    .text.MMU_Free:0000000000000028 $d
/var/folders/lx/hc4sn_b53233_zkc9xbbl97r0000gp/T//ccPp46RF.s:610    .bss.MemEnd:0000000000000000 MemEnd
/var/folders/lx/hc4sn_b53233_zkc9xbbl97r0000gp/T//ccPp46RF.s:617    .bss.MemStart:0000000000000000 MemStart
/var/folders/lx/hc4sn_b53233_zkc9xbbl97r0000gp/T//ccPp46RF.s:624    .bss.Mem_Monitor:0000000000000000 Mem_Monitor
/var/folders/lx/hc4sn_b53233_zkc9xbbl97r0000gp/T//ccPp46RF.s:606    .bss.MemEnd:0000000000000000 $d
/var/folders/lx/hc4sn_b53233_zkc9xbbl97r0000gp/T//ccPp46RF.s:613    .bss.MemStart:0000000000000000 $d
/var/folders/lx/hc4sn_b53233_zkc9xbbl97r0000gp/T//ccPp46RF.s:620    .bss.Mem_Monitor:0000000000000000 $d
/var/folders/lx/hc4sn_b53233_zkc9xbbl97r0000gp/T//ccPp46RF.s:627    .ccmram:0000000000000000 $d

NO UNDEFINED SYMBOLS
