ARM GAS  /var/folders/lx/hc4sn_b53233_zkc9xbbl97r0000gp/T//ccMvf6BI.s 			page 1


   1              		.cpu cortex-m4
   2              		.eabi_attribute 27, 1
   3              		.eabi_attribute 28, 1
   4              		.eabi_attribute 20, 1
   5              		.eabi_attribute 21, 1
   6              		.eabi_attribute 23, 3
   7              		.eabi_attribute 24, 1
   8              		.eabi_attribute 25, 1
   9              		.eabi_attribute 26, 1
  10              		.eabi_attribute 30, 1
  11              		.eabi_attribute 34, 1
  12              		.eabi_attribute 18, 4
  13              		.file	"mmu.c"
  14              		.text
  15              	.Ltext0:
  16              		.cfi_sections	.debug_frame
  17              		.section	.text.MMU_Init,"ax",%progbits
  18              		.align	1
  19              		.arch armv7e-m
  20              		.syntax unified
  21              		.thumb
  22              		.thumb_func
  23              		.fpu fpv4-sp-d16
  25              	MMU_Init:
  26              	.LFB4:
  27              		.file 1 "SYS/memng/mmu.c"
   1:SYS/memng/mmu.c **** /*
   2:SYS/memng/mmu.c **** * copy from freeRTOS
   3:SYS/memng/mmu.c **** * coder : 8_B!T0
   4:SYS/memng/mmu.c **** */
   5:SYS/memng/mmu.c **** #include "mmu.h"
   6:SYS/memng/mmu.c **** 
   7:SYS/memng/mmu.c **** #pragma pack(BLOCK_ALIGMENT_SIZE)
   8:SYS/memng/mmu.c **** uint8_t Mem_Buff[PHY_MEM_SIZE] __attribute__((section(".ccmram")));
   9:SYS/memng/mmu.c **** #pragma pack()
  10:SYS/memng/mmu.c **** 
  11:SYS/memng/mmu.c **** Mem_Monitor_TypeDef Mem_Monitor;
  12:SYS/memng/mmu.c **** MemBlock_TypeDef MemStart;
  13:SYS/memng/mmu.c **** MemBlock_TypeDef *MemEnd;
  14:SYS/memng/mmu.c **** uint8_t trace;
  15:SYS/memng/mmu.c **** 
  16:SYS/memng/mmu.c **** static void MMU_InsertFreeBlock(MemBlock_TypeDef *pxBlockToInsert);
  17:SYS/memng/mmu.c **** static void MMU_Init(void);
  18:SYS/memng/mmu.c **** 
  19:SYS/memng/mmu.c **** Mem_Monitor_TypeDef MMU_Get_Monitor(void)
  20:SYS/memng/mmu.c **** {
  21:SYS/memng/mmu.c ****     MemBlock_TypeDef *pxIterator;
  22:SYS/memng/mmu.c **** 
  23:SYS/memng/mmu.c ****     /* comput freeblock number */
  24:SYS/memng/mmu.c ****     for (pxIterator = &MemStart; pxIterator->nxtFree != MemEnd; pxIterator = pxIterator->nxtFree)
  25:SYS/memng/mmu.c ****     {
  26:SYS/memng/mmu.c ****         Mem_Monitor.FreeBlock_Num++;
  27:SYS/memng/mmu.c ****     }
  28:SYS/memng/mmu.c **** 
  29:SYS/memng/mmu.c ****     return Mem_Monitor;
  30:SYS/memng/mmu.c **** }
  31:SYS/memng/mmu.c **** 
ARM GAS  /var/folders/lx/hc4sn_b53233_zkc9xbbl97r0000gp/T//ccMvf6BI.s 			page 2


  32:SYS/memng/mmu.c **** static void MMU_Init(void)
  33:SYS/memng/mmu.c **** {
  28              		.loc 1 33 1 view -0
  29              		.cfi_startproc
  30              		@ args = 0, pretend = 0, frame = 0
  31              		@ frame_needed = 0, uses_anonymous_args = 0
  32              		@ link register save eliminated.
  34:SYS/memng/mmu.c ****     MemBlock_TypeDef *FstFreeBlock_tmp = NULL;
  33              		.loc 1 34 5 view .LVU1
  34              	.LVL0:
  35:SYS/memng/mmu.c **** 
  36:SYS/memng/mmu.c ****     Mem_Monitor.phy_size = PHY_MEM_SIZE;
  35              		.loc 1 36 5 view .LVU2
  36              		.loc 1 36 26 is_stmt 0 view .LVU3
  37 0000 154A     		ldr	r2, .L4
  38 0002 4FF48033 		mov	r3, #65536
  39 0006 1360     		str	r3, [r2]
  37:SYS/memng/mmu.c ****     Mem_Monitor.used_size = 0;
  40              		.loc 1 37 5 is_stmt 1 view .LVU4
  41              		.loc 1 37 27 is_stmt 0 view .LVU5
  42 0008 0023     		movs	r3, #0
  43 000a 5360     		str	r3, [r2, #4]
  38:SYS/memng/mmu.c ****     Mem_Monitor.FreeBlock_Num = 1;
  44              		.loc 1 38 5 is_stmt 1 view .LVU6
  45              		.loc 1 38 31 is_stmt 0 view .LVU7
  46 000c 0121     		movs	r1, #1
  47 000e 9182     		strh	r1, [r2, #20]	@ movhi
  39:SYS/memng/mmu.c **** 
  40:SYS/memng/mmu.c ****     for (uint32_t i = 0; i < PHY_MEM_SIZE; i++)
  48              		.loc 1 40 5 is_stmt 1 view .LVU8
  49              	.LBB2:
  50              		.loc 1 40 10 view .LVU9
  51              	.LVL1:
  52              		.loc 1 40 5 is_stmt 0 view .LVU10
  53 0010 03E0     		b	.L2
  54              	.LVL2:
  55              	.L3:
  41:SYS/memng/mmu.c ****     {
  42:SYS/memng/mmu.c ****         Mem_Buff[i] = 0;
  56              		.loc 1 42 9 is_stmt 1 discriminator 3 view .LVU11
  57              		.loc 1 42 21 is_stmt 0 discriminator 3 view .LVU12
  58 0012 124A     		ldr	r2, .L4+4
  59 0014 0021     		movs	r1, #0
  60 0016 D154     		strb	r1, [r2, r3]
  40:SYS/memng/mmu.c ****     {
  61              		.loc 1 40 44 is_stmt 1 discriminator 3 view .LVU13
  40:SYS/memng/mmu.c ****     {
  62              		.loc 1 40 45 is_stmt 0 discriminator 3 view .LVU14
  63 0018 0133     		adds	r3, r3, #1
  64              	.LVL3:
  65              	.L2:
  40:SYS/memng/mmu.c ****     {
  66              		.loc 1 40 26 is_stmt 1 discriminator 1 view .LVU15
  40:SYS/memng/mmu.c ****     {
  67              		.loc 1 40 5 is_stmt 0 discriminator 1 view .LVU16
  68 001a B3F5803F 		cmp	r3, #65536
  69 001e F8D3     		bcc	.L3
ARM GAS  /var/folders/lx/hc4sn_b53233_zkc9xbbl97r0000gp/T//ccMvf6BI.s 			page 3


  70              	.LBE2:
  43:SYS/memng/mmu.c ****     }
  44:SYS/memng/mmu.c **** 
  45:SYS/memng/mmu.c ****     MemStart.nxtFree = (void *)Mem_Buff;
  71              		.loc 1 45 5 is_stmt 1 view .LVU17
  72              		.loc 1 45 22 is_stmt 0 view .LVU18
  73 0020 0F49     		ldr	r1, .L4+8
  74 0022 0E4A     		ldr	r2, .L4+4
  75 0024 0A60     		str	r2, [r1]
  46:SYS/memng/mmu.c ****     MemStart.size = 0;
  76              		.loc 1 46 5 is_stmt 1 view .LVU19
  77              		.loc 1 46 19 is_stmt 0 view .LVU20
  78 0026 0023     		movs	r3, #0
  79              	.LVL4:
  80              		.loc 1 46 19 view .LVU21
  81 0028 8B80     		strh	r3, [r1, #4]	@ movhi
  47:SYS/memng/mmu.c **** 
  48:SYS/memng/mmu.c ****     MemEnd = (void *)(&Mem_Buff[PHY_MEM_SIZE] - sizeof(MemBlock_TypeDef));
  82              		.loc 1 48 5 is_stmt 1 view .LVU22
  83              		.loc 1 48 12 is_stmt 0 view .LVU23
  84 002a 0E49     		ldr	r1, .L4+12
  85 002c 0E48     		ldr	r0, .L4+16
  86 002e 0160     		str	r1, [r0]
  49:SYS/memng/mmu.c ****     MemEnd->nxtFree = NULL;
  87              		.loc 1 49 5 is_stmt 1 view .LVU24
  88              		.loc 1 49 21 is_stmt 0 view .LVU25
  89 0030 02F57040 		add	r0, r2, #61440
  90 0034 C0F8F83F 		str	r3, [r0, #4088]
  50:SYS/memng/mmu.c ****     MemEnd->size = 0;
  91              		.loc 1 50 5 is_stmt 1 view .LVU26
  92              		.loc 1 50 18 is_stmt 0 view .LVU27
  93 0038 A0F8FC3F 		strh	r3, [r0, #4092]	@ movhi
  51:SYS/memng/mmu.c **** 
  52:SYS/memng/mmu.c ****     Mem_Monitor.total_size = (MemBlock_Addr)MemEnd - (MemBlock_Addr)MemStart.nxtFree;
  94              		.loc 1 52 5 is_stmt 1 view .LVU28
  95              		.loc 1 52 28 is_stmt 0 view .LVU29
  96 003c 064B     		ldr	r3, .L4
  97 003e 4FF6F870 		movw	r0, #65528
  98 0042 D860     		str	r0, [r3, #12]
  53:SYS/memng/mmu.c **** 
  54:SYS/memng/mmu.c ****     FstFreeBlock_tmp = MemStart.nxtFree;
  99              		.loc 1 54 5 is_stmt 1 view .LVU30
 100              	.LVL5:
  55:SYS/memng/mmu.c ****     FstFreeBlock_tmp->nxtFree = MemEnd;
 101              		.loc 1 55 5 view .LVU31
 102              		.loc 1 55 31 is_stmt 0 view .LVU32
 103 0044 1160     		str	r1, [r2]
  56:SYS/memng/mmu.c **** 
  57:SYS/memng/mmu.c ****     Mem_Monitor.total_size -= sizeof(MemBlock_TypeDef);
 104              		.loc 1 57 5 is_stmt 1 view .LVU33
 105              		.loc 1 57 28 is_stmt 0 view .LVU34
 106 0046 4FF6F071 		movw	r1, #65520
 107 004a D960     		str	r1, [r3, #12]
  58:SYS/memng/mmu.c ****     FstFreeBlock_tmp->size = Mem_Monitor.total_size;
 108              		.loc 1 58 5 is_stmt 1 view .LVU35
 109              		.loc 1 58 28 is_stmt 0 view .LVU36
 110 004c 9180     		strh	r1, [r2, #4]	@ movhi
ARM GAS  /var/folders/lx/hc4sn_b53233_zkc9xbbl97r0000gp/T//ccMvf6BI.s 			page 4


  59:SYS/memng/mmu.c **** 
  60:SYS/memng/mmu.c ****     Mem_Monitor.remain_size = Mem_Monitor.total_size;
 111              		.loc 1 60 5 is_stmt 1 view .LVU37
 112              		.loc 1 60 29 is_stmt 0 view .LVU38
 113 004e 9960     		str	r1, [r3, #8]
  61:SYS/memng/mmu.c **** 
  62:SYS/memng/mmu.c ****     Mem_Monitor.init = true;
 114              		.loc 1 62 5 is_stmt 1 view .LVU39
 115              		.loc 1 62 22 is_stmt 0 view .LVU40
 116 0050 0122     		movs	r2, #1
 117 0052 83F82020 		strb	r2, [r3, #32]
  63:SYS/memng/mmu.c **** }
 118              		.loc 1 63 1 view .LVU41
 119 0056 7047     		bx	lr
 120              	.L5:
 121              		.align	2
 122              	.L4:
 123 0058 00000000 		.word	.LANCHOR0
 124 005c 00000000 		.word	Mem_Buff
 125 0060 00000000 		.word	.LANCHOR1
 126 0064 F8FF0000 		.word	Mem_Buff+65528
 127 0068 00000000 		.word	.LANCHOR2
 128              		.cfi_endproc
 129              	.LFE4:
 131              		.section	.text.MMU_InsertFreeBlock,"ax",%progbits
 132              		.align	1
 133              		.syntax unified
 134              		.thumb
 135              		.thumb_func
 136              		.fpu fpv4-sp-d16
 138              	MMU_InsertFreeBlock:
 139              	.LVL6:
 140              	.LFB7:
  64:SYS/memng/mmu.c **** 
  65:SYS/memng/mmu.c **** void *MMU_Malloc(uint16_t size)
  66:SYS/memng/mmu.c **** {
  67:SYS/memng/mmu.c ****     MemBlock_TypeDef *PrvFreeBlock = NULL;
  68:SYS/memng/mmu.c ****     MemBlock_TypeDef *NxtFreeBlock = NULL;
  69:SYS/memng/mmu.c ****     MemBlock_TypeDef *Block_Tmp = NULL;
  70:SYS/memng/mmu.c ****     void *mem_addr = NULL;
  71:SYS/memng/mmu.c **** 
  72:SYS/memng/mmu.c ****     trace = 1;
  73:SYS/memng/mmu.c **** 
  74:SYS/memng/mmu.c ****     __asm("cpsid i");
  75:SYS/memng/mmu.c **** 
  76:SYS/memng/mmu.c ****     if (!Mem_Monitor.init)
  77:SYS/memng/mmu.c ****     {
  78:SYS/memng/mmu.c ****         MMU_Init();
  79:SYS/memng/mmu.c ****     }
  80:SYS/memng/mmu.c **** 
  81:SYS/memng/mmu.c ****     size += sizeof(MemBlock_TypeDef);
  82:SYS/memng/mmu.c **** 
  83:SYS/memng/mmu.c ****     if (size <= Mem_Monitor.remain_size)
  84:SYS/memng/mmu.c ****     {
  85:SYS/memng/mmu.c ****         /* aligment request byte number */
  86:SYS/memng/mmu.c ****         size += (size % BLOCK_ALIGMENT_SIZE);
  87:SYS/memng/mmu.c **** 
ARM GAS  /var/folders/lx/hc4sn_b53233_zkc9xbbl97r0000gp/T//ccMvf6BI.s 			page 5


  88:SYS/memng/mmu.c ****         PrvFreeBlock = &MemStart;
  89:SYS/memng/mmu.c ****         Block_Tmp = MemStart.nxtFree;
  90:SYS/memng/mmu.c **** 
  91:SYS/memng/mmu.c ****         while ((Block_Tmp->size < size) && (Block_Tmp->nxtFree != NULL))
  92:SYS/memng/mmu.c ****         {
  93:SYS/memng/mmu.c ****             PrvFreeBlock = Block_Tmp;
  94:SYS/memng/mmu.c **** 
  95:SYS/memng/mmu.c ****             if (((uint32_t)Block_Tmp->nxtFree & 0xF0000000) == (uint32_t)Mem_Buff)
  96:SYS/memng/mmu.c ****             {
  97:SYS/memng/mmu.c ****                 Block_Tmp = Block_Tmp->nxtFree;
  98:SYS/memng/mmu.c ****             }
  99:SYS/memng/mmu.c ****             else
 100:SYS/memng/mmu.c ****             {
 101:SYS/memng/mmu.c ****                 while (1)
 102:SYS/memng/mmu.c ****                     ;
 103:SYS/memng/mmu.c ****             }
 104:SYS/memng/mmu.c ****         }
 105:SYS/memng/mmu.c **** 
 106:SYS/memng/mmu.c ****         if ((((uint32_t)Block_Tmp & 0xF0000000) == (uint32_t)Mem_Buff) && (Block_Tmp != MemEnd))
 107:SYS/memng/mmu.c ****         {
 108:SYS/memng/mmu.c ****             Mem_Monitor.req_t++;
 109:SYS/memng/mmu.c **** 
 110:SYS/memng/mmu.c ****             mem_addr = (void *)(((uint8_t *)Block_Tmp) + sizeof(MemBlock_TypeDef));
 111:SYS/memng/mmu.c **** 
 112:SYS/memng/mmu.c ****             PrvFreeBlock->nxtFree = Block_Tmp->nxtFree;
 113:SYS/memng/mmu.c **** 
 114:SYS/memng/mmu.c ****             if ((Block_Tmp->size - size) > MINIMUM_BLOCK_SIZE)
 115:SYS/memng/mmu.c ****             {
 116:SYS/memng/mmu.c ****                 NxtFreeBlock = (void *)(((uint8_t *)Block_Tmp) + size);
 117:SYS/memng/mmu.c ****                 NxtFreeBlock->size = Block_Tmp->size - size - sizeof(MemBlock_TypeDef);
 118:SYS/memng/mmu.c ****                 Block_Tmp->size = size;
 119:SYS/memng/mmu.c ****             }
 120:SYS/memng/mmu.c **** 
 121:SYS/memng/mmu.c ****             Mem_Monitor.remain_size -= size;
 122:SYS/memng/mmu.c ****             Mem_Monitor.used_size += size;
 123:SYS/memng/mmu.c **** 
 124:SYS/memng/mmu.c ****             MMU_InsertFreeBlock(NxtFreeBlock);
 125:SYS/memng/mmu.c **** 
 126:SYS/memng/mmu.c ****             Block_Tmp->nxtFree = NULL;
 127:SYS/memng/mmu.c ****         }
 128:SYS/memng/mmu.c ****     }
 129:SYS/memng/mmu.c **** 
 130:SYS/memng/mmu.c ****     __asm("cpsie i");
 131:SYS/memng/mmu.c **** 
 132:SYS/memng/mmu.c ****     Mem_Monitor.FreeBlock = &MemStart;
 133:SYS/memng/mmu.c **** 
 134:SYS/memng/mmu.c ****     return mem_addr;
 135:SYS/memng/mmu.c **** }
 136:SYS/memng/mmu.c **** 
 137:SYS/memng/mmu.c **** void MMU_Free(void *ptr)
 138:SYS/memng/mmu.c **** {
 139:SYS/memng/mmu.c ****     uint8_t *puc = (uint8_t *)ptr;
 140:SYS/memng/mmu.c ****     MemBlock_TypeDef *pxLink;
 141:SYS/memng/mmu.c **** 
 142:SYS/memng/mmu.c ****     trace = 2;
 143:SYS/memng/mmu.c **** 
 144:SYS/memng/mmu.c ****     if (((uint32_t)ptr & 0xF0000000) != (uint32_t)Mem_Buff)
ARM GAS  /var/folders/lx/hc4sn_b53233_zkc9xbbl97r0000gp/T//ccMvf6BI.s 			page 6


 145:SYS/memng/mmu.c ****     {
 146:SYS/memng/mmu.c ****         while (1)
 147:SYS/memng/mmu.c ****             ;
 148:SYS/memng/mmu.c ****     }
 149:SYS/memng/mmu.c ****     __asm("cpsid i");
 150:SYS/memng/mmu.c ****     if (ptr != NULL)
 151:SYS/memng/mmu.c ****     {
 152:SYS/memng/mmu.c ****         Mem_Monitor.fre_t++;
 153:SYS/memng/mmu.c **** 
 154:SYS/memng/mmu.c ****         /* The memory being freed will have an BlockLink_t structure immediately
 155:SYS/memng/mmu.c **** 		before it. */
 156:SYS/memng/mmu.c ****         puc -= sizeof(MemBlock_TypeDef);
 157:SYS/memng/mmu.c **** 
 158:SYS/memng/mmu.c ****         /* This casting is to keep the compiler from issuing warnings. */
 159:SYS/memng/mmu.c ****         pxLink = (void *)puc;
 160:SYS/memng/mmu.c **** 
 161:SYS/memng/mmu.c ****         if (pxLink->nxtFree == NULL)
 162:SYS/memng/mmu.c ****         {
 163:SYS/memng/mmu.c ****             //pxLink->size &= ~xBlockAllocatedBit;
 164:SYS/memng/mmu.c **** 
 165:SYS/memng/mmu.c ****             /* Add this block to the list of free blocks. */
 166:SYS/memng/mmu.c ****             Mem_Monitor.used_size -= pxLink->size;
 167:SYS/memng/mmu.c ****             Mem_Monitor.remain_size += pxLink->size;
 168:SYS/memng/mmu.c **** 
 169:SYS/memng/mmu.c ****             if (Mem_Monitor.remain_size > Mem_Monitor.total_size)
 170:SYS/memng/mmu.c ****             {
 171:SYS/memng/mmu.c ****                 while (1)
 172:SYS/memng/mmu.c ****                     ;
 173:SYS/memng/mmu.c ****             }
 174:SYS/memng/mmu.c **** 
 175:SYS/memng/mmu.c ****             //traceFREE(pv, pxLink->size);
 176:SYS/memng/mmu.c ****             MMU_InsertFreeBlock(((MemBlock_TypeDef *)pxLink));
 177:SYS/memng/mmu.c ****         }
 178:SYS/memng/mmu.c ****     }
 179:SYS/memng/mmu.c ****     __asm("cpsie i");
 180:SYS/memng/mmu.c **** 
 181:SYS/memng/mmu.c ****     ptr = NULL;
 182:SYS/memng/mmu.c **** }
 183:SYS/memng/mmu.c **** 
 184:SYS/memng/mmu.c **** static void MMU_InsertFreeBlock(MemBlock_TypeDef *pxBlockToInsert)
 185:SYS/memng/mmu.c **** {
 141              		.loc 1 185 1 is_stmt 1 view -0
 142              		.cfi_startproc
 143              		@ args = 0, pretend = 0, frame = 0
 144              		@ frame_needed = 0, uses_anonymous_args = 0
 145              		@ link register save eliminated.
 186:SYS/memng/mmu.c ****     MemBlock_TypeDef *pxIterator;
 146              		.loc 1 186 5 view .LVU43
 187:SYS/memng/mmu.c ****     uint8_t *puc;
 147              		.loc 1 187 5 view .LVU44
 188:SYS/memng/mmu.c **** 
 189:SYS/memng/mmu.c ****     /* Iterate through the list until a block is found that has a higher address
 190:SYS/memng/mmu.c ****      * than the block being inserted. */
 191:SYS/memng/mmu.c ****     for (pxIterator = &MemStart; pxIterator->nxtFree < pxBlockToInsert; pxIterator = pxIterator->nx
 148              		.loc 1 191 5 view .LVU45
 149              		.loc 1 191 21 is_stmt 0 view .LVU46
 150 0000 1B4B     		ldr	r3, .L23
ARM GAS  /var/folders/lx/hc4sn_b53233_zkc9xbbl97r0000gp/T//ccMvf6BI.s 			page 7


 151              	.LVL7:
 152              	.L7:
 153              		.loc 1 191 34 is_stmt 1 discriminator 1 view .LVU47
 154 0002 1A46     		mov	r2, r3
 155              		.loc 1 191 44 is_stmt 0 discriminator 1 view .LVU48
 156 0004 1B68     		ldr	r3, [r3]
 157              	.LVL8:
 158              		.loc 1 191 5 discriminator 1 view .LVU49
 159 0006 8342     		cmp	r3, r0
 160 0008 FBD3     		bcc	.L7
 192:SYS/memng/mmu.c ****     {
 193:SYS/memng/mmu.c ****         /* Nothing to do here, just iterate to the right position. */
 194:SYS/memng/mmu.c ****     }
 195:SYS/memng/mmu.c **** 
 196:SYS/memng/mmu.c ****     if (pxIterator == NULL)
 161              		.loc 1 196 5 is_stmt 1 view .LVU50
 162              		.loc 1 196 8 is_stmt 0 view .LVU51
 163 000a 002A     		cmp	r2, #0
 164 000c 2FD0     		beq	.L16
 197:SYS/memng/mmu.c ****         return;
 198:SYS/memng/mmu.c **** 
 199:SYS/memng/mmu.c ****     puc = (uint8_t *)pxIterator;
 165              		.loc 1 199 5 is_stmt 1 view .LVU52
 166              	.LVL9:
 200:SYS/memng/mmu.c **** 
 201:SYS/memng/mmu.c ****     if ((puc != (uint8_t *)&MemStart) && ((uint32_t)puc & 0xF0000000) != (uint32_t)Mem_Buff)
 167              		.loc 1 201 5 view .LVU53
 168              		.loc 1 201 8 is_stmt 0 view .LVU54
 169 000e 1849     		ldr	r1, .L23
 170 0010 8A42     		cmp	r2, r1
 171 0012 05D0     		beq	.L9
 172              		.loc 1 201 57 discriminator 1 view .LVU55
 173 0014 02F0704C 		and	ip, r2, #-268435456
 174              		.loc 1 201 74 discriminator 1 view .LVU56
 175 0018 1649     		ldr	r1, .L23+4
 176              		.loc 1 201 39 discriminator 1 view .LVU57
 177 001a 8C45     		cmp	ip, r1
 178 001c 00D0     		beq	.L9
 179              	.L10:
 202:SYS/memng/mmu.c ****     {
 203:SYS/memng/mmu.c ****         while (1)
 180              		.loc 1 203 9 is_stmt 1 discriminator 1 view .LVU58
 204:SYS/memng/mmu.c ****             ;
 181              		.loc 1 204 13 discriminator 1 view .LVU59
 203:SYS/memng/mmu.c ****             ;
 182              		.loc 1 203 15 discriminator 1 view .LVU60
 183 001e FEE7     		b	.L10
 184              	.L9:
 205:SYS/memng/mmu.c ****     }
 206:SYS/memng/mmu.c **** 
 207:SYS/memng/mmu.c ****     if ((puc + pxIterator->size) == (uint8_t *)pxBlockToInsert)
 185              		.loc 1 207 5 view .LVU61
 186              		.loc 1 207 26 is_stmt 0 view .LVU62
 187 0020 9188     		ldrh	r1, [r2, #4]
 188              		.loc 1 207 14 view .LVU63
 189 0022 02EB010C 		add	ip, r2, r1
 190              		.loc 1 207 8 view .LVU64
ARM GAS  /var/folders/lx/hc4sn_b53233_zkc9xbbl97r0000gp/T//ccMvf6BI.s 			page 8


 191 0026 8445     		cmp	ip, r0
 192 0028 09D0     		beq	.L21
 193              	.L11:
 208:SYS/memng/mmu.c ****     {
 209:SYS/memng/mmu.c ****         pxIterator->size += pxBlockToInsert->size;
 210:SYS/memng/mmu.c ****         pxBlockToInsert = pxIterator;
 211:SYS/memng/mmu.c ****     }
 212:SYS/memng/mmu.c **** 
 213:SYS/memng/mmu.c ****     /* Do the block being inserted, and the block it is being inserted before
 214:SYS/memng/mmu.c **** 	make a contiguous block of memory? */
 215:SYS/memng/mmu.c ****     puc = (uint8_t *)pxBlockToInsert;
 194              		.loc 1 215 5 is_stmt 1 view .LVU65
 195              	.LVL10:
 216:SYS/memng/mmu.c **** 
 217:SYS/memng/mmu.c ****     if ((puc + pxBlockToInsert->size) == (uint8_t *)pxIterator->nxtFree)
 196              		.loc 1 217 5 view .LVU66
 197              		.loc 1 217 31 is_stmt 0 view .LVU67
 198 002a 8188     		ldrh	r1, [r0, #4]
 199              		.loc 1 217 14 view .LVU68
 200 002c 00EB010C 		add	ip, r0, r1
 201              		.loc 1 217 8 view .LVU69
 202 0030 6345     		cmp	r3, ip
 203 0032 09D0     		beq	.L22
 218:SYS/memng/mmu.c ****     {
 219:SYS/memng/mmu.c ****         if (pxIterator->nxtFree != MemEnd)
 220:SYS/memng/mmu.c ****         {
 221:SYS/memng/mmu.c ****             /* Form one big block from the two blocks. */
 222:SYS/memng/mmu.c ****             pxBlockToInsert->size += pxIterator->nxtFree->size;
 223:SYS/memng/mmu.c ****             pxBlockToInsert->nxtFree = pxIterator->nxtFree->nxtFree;
 224:SYS/memng/mmu.c ****         }
 225:SYS/memng/mmu.c ****         else
 226:SYS/memng/mmu.c ****         {
 227:SYS/memng/mmu.c ****             pxBlockToInsert->nxtFree = MemEnd;
 228:SYS/memng/mmu.c ****         }
 229:SYS/memng/mmu.c ****     }
 230:SYS/memng/mmu.c ****     else
 231:SYS/memng/mmu.c ****     {
 232:SYS/memng/mmu.c ****         pxBlockToInsert->nxtFree = pxIterator->nxtFree;
 204              		.loc 1 232 9 is_stmt 1 view .LVU70
 205              		.loc 1 232 34 is_stmt 0 view .LVU71
 206 0034 0360     		str	r3, [r0]
 233:SYS/memng/mmu.c ****     }
 234:SYS/memng/mmu.c **** 
 235:SYS/memng/mmu.c ****     if (pxIterator != pxBlockToInsert)
 207              		.loc 1 235 5 is_stmt 1 view .LVU72
 208              		.loc 1 235 8 is_stmt 0 view .LVU73
 209 0036 9042     		cmp	r0, r2
 210 0038 19D0     		beq	.L16
 236:SYS/memng/mmu.c ****     {
 237:SYS/memng/mmu.c ****         pxIterator->nxtFree = pxBlockToInsert;
 211              		.loc 1 237 9 is_stmt 1 view .LVU74
 212              		.loc 1 237 29 is_stmt 0 view .LVU75
 213 003a 1060     		str	r0, [r2]
 214 003c 7047     		bx	lr
 215              	.LVL11:
 216              	.L21:
 209:SYS/memng/mmu.c ****         pxBlockToInsert = pxIterator;
ARM GAS  /var/folders/lx/hc4sn_b53233_zkc9xbbl97r0000gp/T//ccMvf6BI.s 			page 9


 217              		.loc 1 209 9 is_stmt 1 view .LVU76
 209:SYS/memng/mmu.c ****         pxBlockToInsert = pxIterator;
 218              		.loc 1 209 44 is_stmt 0 view .LVU77
 219 003e 8088     		ldrh	r0, [r0, #4]
 220              	.LVL12:
 209:SYS/memng/mmu.c ****         pxBlockToInsert = pxIterator;
 221              		.loc 1 209 26 view .LVU78
 222 0040 0144     		add	r1, r1, r0
 223 0042 9180     		strh	r1, [r2, #4]	@ movhi
 210:SYS/memng/mmu.c ****     }
 224              		.loc 1 210 9 is_stmt 1 view .LVU79
 225              	.LVL13:
 210:SYS/memng/mmu.c ****     }
 226              		.loc 1 210 25 is_stmt 0 view .LVU80
 227 0044 1046     		mov	r0, r2
 228 0046 F0E7     		b	.L11
 229              	.LVL14:
 230              	.L22:
 185:SYS/memng/mmu.c ****     MemBlock_TypeDef *pxIterator;
 231              		.loc 1 185 1 view .LVU81
 232 0048 10B4     		push	{r4}
 233              	.LCFI0:
 234              		.cfi_def_cfa_offset 4
 235              		.cfi_offset 4, -4
 219:SYS/memng/mmu.c ****         {
 236              		.loc 1 219 9 is_stmt 1 view .LVU82
 219:SYS/memng/mmu.c ****         {
 237              		.loc 1 219 33 is_stmt 0 view .LVU83
 238 004a 0B4C     		ldr	r4, .L23+8
 239 004c 2468     		ldr	r4, [r4]
 219:SYS/memng/mmu.c ****         {
 240              		.loc 1 219 12 view .LVU84
 241 004e A342     		cmp	r3, r4
 242 0050 0BD0     		beq	.L13
 222:SYS/memng/mmu.c ****             pxBlockToInsert->nxtFree = pxIterator->nxtFree->nxtFree;
 243              		.loc 1 222 13 is_stmt 1 view .LVU85
 222:SYS/memng/mmu.c ****             pxBlockToInsert->nxtFree = pxIterator->nxtFree->nxtFree;
 244              		.loc 1 222 57 is_stmt 0 view .LVU86
 245 0052 9B88     		ldrh	r3, [r3, #4]
 222:SYS/memng/mmu.c ****             pxBlockToInsert->nxtFree = pxIterator->nxtFree->nxtFree;
 246              		.loc 1 222 35 view .LVU87
 247 0054 1944     		add	r1, r1, r3
 248 0056 8180     		strh	r1, [r0, #4]	@ movhi
 223:SYS/memng/mmu.c ****         }
 249              		.loc 1 223 13 is_stmt 1 view .LVU88
 223:SYS/memng/mmu.c ****         }
 250              		.loc 1 223 50 is_stmt 0 view .LVU89
 251 0058 1368     		ldr	r3, [r2]
 223:SYS/memng/mmu.c ****         }
 252              		.loc 1 223 59 view .LVU90
 253 005a 1B68     		ldr	r3, [r3]
 223:SYS/memng/mmu.c ****         }
 254              		.loc 1 223 38 view .LVU91
 255 005c 0360     		str	r3, [r0]
 256              	.L14:
 235:SYS/memng/mmu.c ****     {
 257              		.loc 1 235 5 is_stmt 1 view .LVU92
ARM GAS  /var/folders/lx/hc4sn_b53233_zkc9xbbl97r0000gp/T//ccMvf6BI.s 			page 10


 235:SYS/memng/mmu.c ****     {
 258              		.loc 1 235 8 is_stmt 0 view .LVU93
 259 005e 9042     		cmp	r0, r2
 260 0060 00D0     		beq	.L6
 261              		.loc 1 237 9 is_stmt 1 view .LVU94
 262              		.loc 1 237 29 is_stmt 0 view .LVU95
 263 0062 1060     		str	r0, [r2]
 264              	.L6:
 238:SYS/memng/mmu.c ****     }
 239:SYS/memng/mmu.c **** }
 265              		.loc 1 239 1 view .LVU96
 266 0064 5DF8044B 		ldr	r4, [sp], #4
 267              	.LCFI1:
 268              		.cfi_remember_state
 269              		.cfi_restore 4
 270              		.cfi_def_cfa_offset 0
 271 0068 7047     		bx	lr
 272              	.L13:
 273              	.LCFI2:
 274              		.cfi_restore_state
 227:SYS/memng/mmu.c ****         }
 275              		.loc 1 227 13 is_stmt 1 view .LVU97
 227:SYS/memng/mmu.c ****         }
 276              		.loc 1 227 38 is_stmt 0 view .LVU98
 277 006a 0460     		str	r4, [r0]
 278 006c F7E7     		b	.L14
 279              	.LVL15:
 280              	.L16:
 281              	.LCFI3:
 282              		.cfi_def_cfa_offset 0
 283              		.cfi_restore 4
 227:SYS/memng/mmu.c ****         }
 284              		.loc 1 227 38 view .LVU99
 285 006e 7047     		bx	lr
 286              	.L24:
 287              		.align	2
 288              	.L23:
 289 0070 00000000 		.word	.LANCHOR1
 290 0074 00000000 		.word	Mem_Buff
 291 0078 00000000 		.word	.LANCHOR2
 292              		.cfi_endproc
 293              	.LFE7:
 295              		.section	.text.MMU_Get_Monitor,"ax",%progbits
 296              		.align	1
 297              		.global	MMU_Get_Monitor
 298              		.syntax unified
 299              		.thumb
 300              		.thumb_func
 301              		.fpu fpv4-sp-d16
 303              	MMU_Get_Monitor:
 304              	.LVL16:
 305              	.LFB3:
  20:SYS/memng/mmu.c ****     MemBlock_TypeDef *pxIterator;
 306              		.loc 1 20 1 is_stmt 1 view -0
 307              		.cfi_startproc
 308              		@ args = 0, pretend = 0, frame = 0
 309              		@ frame_needed = 0, uses_anonymous_args = 0
ARM GAS  /var/folders/lx/hc4sn_b53233_zkc9xbbl97r0000gp/T//ccMvf6BI.s 			page 11


  20:SYS/memng/mmu.c ****     MemBlock_TypeDef *pxIterator;
 310              		.loc 1 20 1 is_stmt 0 view .LVU101
 311 0000 10B5     		push	{r4, lr}
 312              	.LCFI4:
 313              		.cfi_def_cfa_offset 8
 314              		.cfi_offset 4, -8
 315              		.cfi_offset 14, -4
 316 0002 8646     		mov	lr, r0
  21:SYS/memng/mmu.c **** 
 317              		.loc 1 21 5 is_stmt 1 view .LVU102
  24:SYS/memng/mmu.c ****     {
 318              		.loc 1 24 5 view .LVU103
 319              	.LVL17:
  24:SYS/memng/mmu.c ****     {
 320              		.loc 1 24 21 is_stmt 0 view .LVU104
 321 0004 0C4A     		ldr	r2, .L29
  24:SYS/memng/mmu.c ****     {
 322              		.loc 1 24 5 view .LVU105
 323 0006 04E0     		b	.L26
 324              	.LVL18:
 325              	.L27:
  26:SYS/memng/mmu.c ****     }
 326              		.loc 1 26 9 is_stmt 1 discriminator 3 view .LVU106
  26:SYS/memng/mmu.c ****     }
 327              		.loc 1 26 20 is_stmt 0 discriminator 3 view .LVU107
 328 0008 0C49     		ldr	r1, .L29+4
 329 000a 8B8A     		ldrh	r3, [r1, #20]
  26:SYS/memng/mmu.c ****     }
 330              		.loc 1 26 34 discriminator 3 view .LVU108
 331 000c 0133     		adds	r3, r3, #1
 332 000e 8B82     		strh	r3, [r1, #20]	@ movhi
  24:SYS/memng/mmu.c ****     {
 333              		.loc 1 24 65 is_stmt 1 discriminator 3 view .LVU109
  24:SYS/memng/mmu.c ****     {
 334              		.loc 1 24 76 is_stmt 0 discriminator 3 view .LVU110
 335 0010 1268     		ldr	r2, [r2]
 336              	.LVL19:
 337              	.L26:
  24:SYS/memng/mmu.c ****     {
 338              		.loc 1 24 34 is_stmt 1 discriminator 1 view .LVU111
  24:SYS/memng/mmu.c ****     {
 339              		.loc 1 24 44 is_stmt 0 discriminator 1 view .LVU112
 340 0012 1168     		ldr	r1, [r2]
  24:SYS/memng/mmu.c ****     {
 341              		.loc 1 24 54 discriminator 1 view .LVU113
 342 0014 0A4B     		ldr	r3, .L29+8
 343 0016 1B68     		ldr	r3, [r3]
  24:SYS/memng/mmu.c ****     {
 344              		.loc 1 24 5 discriminator 1 view .LVU114
 345 0018 9942     		cmp	r1, r3
 346 001a F5D1     		bne	.L27
  29:SYS/memng/mmu.c **** }
 347              		.loc 1 29 5 is_stmt 1 view .LVU115
  29:SYS/memng/mmu.c **** }
 348              		.loc 1 29 12 is_stmt 0 view .LVU116
 349 001c F446     		mov	ip, lr
 350 001e 074C     		ldr	r4, .L29+4
ARM GAS  /var/folders/lx/hc4sn_b53233_zkc9xbbl97r0000gp/T//ccMvf6BI.s 			page 12


 351 0020 0FCC     		ldmia	r4!, {r0, r1, r2, r3}
 352              	.LVL20:
  29:SYS/memng/mmu.c **** }
 353              		.loc 1 29 12 view .LVU117
 354 0022 ACE80F00 		stmia	ip!, {r0, r1, r2, r3}
 355 0026 0FCC     		ldmia	r4!, {r0, r1, r2, r3}
 356 0028 ACE80F00 		stmia	ip!, {r0, r1, r2, r3}
 357 002c 2368     		ldr	r3, [r4]
 358 002e CCF80030 		str	r3, [ip]
  30:SYS/memng/mmu.c **** 
 359              		.loc 1 30 1 view .LVU118
 360 0032 7046     		mov	r0, lr
 361 0034 10BD     		pop	{r4, pc}
 362              	.L30:
 363 0036 00BF     		.align	2
 364              	.L29:
 365 0038 00000000 		.word	.LANCHOR1
 366 003c 00000000 		.word	.LANCHOR0
 367 0040 00000000 		.word	.LANCHOR2
 368              		.cfi_endproc
 369              	.LFE3:
 371              		.section	.text.MMU_Malloc,"ax",%progbits
 372              		.align	1
 373              		.global	MMU_Malloc
 374              		.syntax unified
 375              		.thumb
 376              		.thumb_func
 377              		.fpu fpv4-sp-d16
 379              	MMU_Malloc:
 380              	.LVL21:
 381              	.LFB5:
  66:SYS/memng/mmu.c ****     MemBlock_TypeDef *PrvFreeBlock = NULL;
 382              		.loc 1 66 1 is_stmt 1 view -0
 383              		.cfi_startproc
 384              		@ args = 0, pretend = 0, frame = 0
 385              		@ frame_needed = 0, uses_anonymous_args = 0
  66:SYS/memng/mmu.c ****     MemBlock_TypeDef *PrvFreeBlock = NULL;
 386              		.loc 1 66 1 is_stmt 0 view .LVU120
 387 0000 38B5     		push	{r3, r4, r5, lr}
 388              	.LCFI5:
 389              		.cfi_def_cfa_offset 16
 390              		.cfi_offset 3, -16
 391              		.cfi_offset 4, -12
 392              		.cfi_offset 5, -8
 393              		.cfi_offset 14, -4
 394 0002 0446     		mov	r4, r0
  67:SYS/memng/mmu.c ****     MemBlock_TypeDef *NxtFreeBlock = NULL;
 395              		.loc 1 67 5 is_stmt 1 view .LVU121
 396              	.LVL22:
  68:SYS/memng/mmu.c ****     MemBlock_TypeDef *Block_Tmp = NULL;
 397              		.loc 1 68 5 view .LVU122
  69:SYS/memng/mmu.c ****     void *mem_addr = NULL;
 398              		.loc 1 69 5 view .LVU123
  70:SYS/memng/mmu.c **** 
 399              		.loc 1 70 5 view .LVU124
  72:SYS/memng/mmu.c **** 
 400              		.loc 1 72 5 view .LVU125
ARM GAS  /var/folders/lx/hc4sn_b53233_zkc9xbbl97r0000gp/T//ccMvf6BI.s 			page 13


  72:SYS/memng/mmu.c **** 
 401              		.loc 1 72 11 is_stmt 0 view .LVU126
 402 0004 2E4B     		ldr	r3, .L46
 403 0006 0122     		movs	r2, #1
 404 0008 1A70     		strb	r2, [r3]
  74:SYS/memng/mmu.c **** 
 405              		.loc 1 74 5 is_stmt 1 view .LVU127
 406              		.syntax unified
 407              	@ 74 "SYS/memng/mmu.c" 1
 408 000a 72B6     		cpsid i
 409              	@ 0 "" 2
  76:SYS/memng/mmu.c ****     {
 410              		.loc 1 76 5 view .LVU128
  76:SYS/memng/mmu.c ****     {
 411              		.loc 1 76 21 is_stmt 0 view .LVU129
 412              		.thumb
 413              		.syntax unified
 414 000c 2D4B     		ldr	r3, .L46+4
 415 000e 93F82030 		ldrb	r3, [r3, #32]	@ zero_extendqisi2
  76:SYS/memng/mmu.c ****     {
 416              		.loc 1 76 8 view .LVU130
 417 0012 D3B1     		cbz	r3, .L45
 418              	.LVL23:
 419              	.L32:
  81:SYS/memng/mmu.c **** 
 420              		.loc 1 81 5 is_stmt 1 view .LVU131
  81:SYS/memng/mmu.c **** 
 421              		.loc 1 81 10 is_stmt 0 view .LVU132
 422 0014 04F10803 		add	r3, r4, #8
 423 0018 9BB2     		uxth	r3, r3
 424              	.LVL24:
  83:SYS/memng/mmu.c ****     {
 425              		.loc 1 83 5 is_stmt 1 view .LVU133
  83:SYS/memng/mmu.c ****     {
 426              		.loc 1 83 28 is_stmt 0 view .LVU134
 427 001a 2A4A     		ldr	r2, .L46+4
 428 001c 9268     		ldr	r2, [r2, #8]
  83:SYS/memng/mmu.c ****     {
 429              		.loc 1 83 8 view .LVU135
 430 001e 9342     		cmp	r3, r2
 431 0020 43D8     		bhi	.L39
  86:SYS/memng/mmu.c **** 
 432              		.loc 1 86 9 is_stmt 1 view .LVU136
  86:SYS/memng/mmu.c **** 
 433              		.loc 1 86 23 is_stmt 0 view .LVU137
 434 0022 03F0030C 		and	ip, r3, #3
  86:SYS/memng/mmu.c **** 
 435              		.loc 1 86 14 view .LVU138
 436 0026 9C44     		add	ip, ip, r3
 437 0028 1FFA8CFC 		uxth	ip, ip
 438              	.LVL25:
  88:SYS/memng/mmu.c ****         Block_Tmp = MemStart.nxtFree;
 439              		.loc 1 88 9 is_stmt 1 view .LVU139
  89:SYS/memng/mmu.c **** 
 440              		.loc 1 89 9 view .LVU140
  89:SYS/memng/mmu.c **** 
 441              		.loc 1 89 19 is_stmt 0 view .LVU141
ARM GAS  /var/folders/lx/hc4sn_b53233_zkc9xbbl97r0000gp/T//ccMvf6BI.s 			page 14


 442 002c 2648     		ldr	r0, .L46+8
 443 002e 0468     		ldr	r4, [r0]
 444              	.LVL26:
  91:SYS/memng/mmu.c ****         {
 445              		.loc 1 91 9 is_stmt 1 view .LVU142
 446              	.L34:
  91:SYS/memng/mmu.c ****         {
 447              		.loc 1 91 15 view .LVU143
  91:SYS/memng/mmu.c ****         {
 448              		.loc 1 91 26 is_stmt 0 view .LVU144
 449 0030 A388     		ldrh	r3, [r4, #4]
  91:SYS/memng/mmu.c ****         {
 450              		.loc 1 91 15 view .LVU145
 451 0032 6345     		cmp	r3, ip
 452 0034 0DD2     		bcs	.L36
  91:SYS/memng/mmu.c ****         {
 453              		.loc 1 91 54 discriminator 1 view .LVU146
 454 0036 2368     		ldr	r3, [r4]
  91:SYS/memng/mmu.c ****         {
 455              		.loc 1 91 41 discriminator 1 view .LVU147
 456 0038 5BB1     		cbz	r3, .L36
  93:SYS/memng/mmu.c **** 
 457              		.loc 1 93 13 is_stmt 1 view .LVU148
 458              	.LVL27:
  95:SYS/memng/mmu.c ****             {
 459              		.loc 1 95 13 view .LVU149
  95:SYS/memng/mmu.c ****             {
 460              		.loc 1 95 47 is_stmt 0 view .LVU150
 461 003a 03F07041 		and	r1, r3, #-268435456
  93:SYS/memng/mmu.c **** 
 462              		.loc 1 93 26 view .LVU151
 463 003e 2046     		mov	r0, r4
  95:SYS/memng/mmu.c ****             {
 464              		.loc 1 95 16 view .LVU152
 465 0040 224A     		ldr	r2, .L46+12
 466 0042 9142     		cmp	r1, r2
 467 0044 04D1     		bne	.L35
  97:SYS/memng/mmu.c ****             }
 468              		.loc 1 97 27 view .LVU153
 469 0046 1C46     		mov	r4, r3
 470              	.LVL28:
  97:SYS/memng/mmu.c ****             }
 471              		.loc 1 97 27 view .LVU154
 472 0048 F2E7     		b	.L34
 473              	.LVL29:
 474              	.L45:
  78:SYS/memng/mmu.c ****     }
 475              		.loc 1 78 9 is_stmt 1 view .LVU155
 476 004a FFF7FEFF 		bl	MMU_Init
 477              	.LVL30:
  78:SYS/memng/mmu.c ****     }
 478              		.loc 1 78 9 is_stmt 0 view .LVU156
 479 004e E1E7     		b	.L32
 480              	.LVL31:
 481              	.L35:
 101:SYS/memng/mmu.c ****                     ;
 482              		.loc 1 101 17 is_stmt 1 discriminator 1 view .LVU157
ARM GAS  /var/folders/lx/hc4sn_b53233_zkc9xbbl97r0000gp/T//ccMvf6BI.s 			page 15


 102:SYS/memng/mmu.c ****             }
 483              		.loc 1 102 21 discriminator 1 view .LVU158
 101:SYS/memng/mmu.c ****                     ;
 484              		.loc 1 101 23 discriminator 1 view .LVU159
 485 0050 FEE7     		b	.L35
 486              	.LVL32:
 487              	.L36:
 106:SYS/memng/mmu.c ****         {
 488              		.loc 1 106 9 view .LVU160
 106:SYS/memng/mmu.c ****         {
 489              		.loc 1 106 35 is_stmt 0 view .LVU161
 490 0052 04F07042 		and	r2, r4, #-268435456
 106:SYS/memng/mmu.c ****         {
 491              		.loc 1 106 52 view .LVU162
 492 0056 1D4B     		ldr	r3, .L46+12
 106:SYS/memng/mmu.c ****         {
 493              		.loc 1 106 12 view .LVU163
 494 0058 9A42     		cmp	r2, r3
 495 005a 2DD1     		bne	.L41
 106:SYS/memng/mmu.c ****         {
 496              		.loc 1 106 86 discriminator 1 view .LVU164
 497 005c 1C4B     		ldr	r3, .L46+16
 498 005e 1B68     		ldr	r3, [r3]
 106:SYS/memng/mmu.c ****         {
 499              		.loc 1 106 72 discriminator 1 view .LVU165
 500 0060 A342     		cmp	r3, r4
 501 0062 2BD0     		beq	.L42
 108:SYS/memng/mmu.c **** 
 502              		.loc 1 108 13 is_stmt 1 view .LVU166
 108:SYS/memng/mmu.c **** 
 503              		.loc 1 108 24 is_stmt 0 view .LVU167
 504 0064 174A     		ldr	r2, .L46+4
 505 0066 9369     		ldr	r3, [r2, #24]
 108:SYS/memng/mmu.c **** 
 506              		.loc 1 108 30 view .LVU168
 507 0068 0133     		adds	r3, r3, #1
 508 006a 9361     		str	r3, [r2, #24]
 110:SYS/memng/mmu.c **** 
 509              		.loc 1 110 13 is_stmt 1 view .LVU169
 110:SYS/memng/mmu.c **** 
 510              		.loc 1 110 22 is_stmt 0 view .LVU170
 511 006c 2546     		mov	r5, r4
 512              	.LVL33:
 112:SYS/memng/mmu.c **** 
 513              		.loc 1 112 13 is_stmt 1 view .LVU171
 112:SYS/memng/mmu.c **** 
 514              		.loc 1 112 46 is_stmt 0 view .LVU172
 515 006e 55F8083B 		ldr	r3, [r5], #8
 516              	.LVL34:
 112:SYS/memng/mmu.c **** 
 517              		.loc 1 112 35 view .LVU173
 518 0072 0360     		str	r3, [r0]
 114:SYS/memng/mmu.c ****             {
 519              		.loc 1 114 13 is_stmt 1 view .LVU174
 114:SYS/memng/mmu.c ****             {
 520              		.loc 1 114 27 is_stmt 0 view .LVU175
 521 0074 A388     		ldrh	r3, [r4, #4]
ARM GAS  /var/folders/lx/hc4sn_b53233_zkc9xbbl97r0000gp/T//ccMvf6BI.s 			page 16


 114:SYS/memng/mmu.c ****             {
 522              		.loc 1 114 34 view .LVU176
 523 0076 A3EB0C02 		sub	r2, r3, ip
 114:SYS/memng/mmu.c ****             {
 524              		.loc 1 114 16 view .LVU177
 525 007a 082A     		cmp	r2, #8
 526 007c 13DD     		ble	.L43
 116:SYS/memng/mmu.c ****                 NxtFreeBlock->size = Block_Tmp->size - size - sizeof(MemBlock_TypeDef);
 527              		.loc 1 116 17 is_stmt 1 view .LVU178
 116:SYS/memng/mmu.c ****                 NxtFreeBlock->size = Block_Tmp->size - size - sizeof(MemBlock_TypeDef);
 528              		.loc 1 116 30 is_stmt 0 view .LVU179
 529 007e 04EB0C00 		add	r0, r4, ip
 530              	.LVL35:
 117:SYS/memng/mmu.c ****                 Block_Tmp->size = size;
 531              		.loc 1 117 17 is_stmt 1 view .LVU180
 117:SYS/memng/mmu.c ****                 Block_Tmp->size = size;
 532              		.loc 1 117 54 is_stmt 0 view .LVU181
 533 0082 93B2     		uxth	r3, r2
 117:SYS/memng/mmu.c ****                 Block_Tmp->size = size;
 534              		.loc 1 117 61 view .LVU182
 535 0084 083B     		subs	r3, r3, #8
 117:SYS/memng/mmu.c ****                 Block_Tmp->size = size;
 536              		.loc 1 117 36 view .LVU183
 537 0086 8380     		strh	r3, [r0, #4]	@ movhi
 118:SYS/memng/mmu.c ****             }
 538              		.loc 1 118 17 is_stmt 1 view .LVU184
 118:SYS/memng/mmu.c ****             }
 539              		.loc 1 118 33 is_stmt 0 view .LVU185
 540 0088 A4F804C0 		strh	ip, [r4, #4]	@ movhi
 541              	.LVL36:
 542              	.L38:
 121:SYS/memng/mmu.c ****             Mem_Monitor.used_size += size;
 543              		.loc 1 121 13 is_stmt 1 view .LVU186
 121:SYS/memng/mmu.c ****             Mem_Monitor.used_size += size;
 544              		.loc 1 121 37 is_stmt 0 view .LVU187
 545 008c 0D4B     		ldr	r3, .L46+4
 546 008e 9A68     		ldr	r2, [r3, #8]
 547 0090 A2EB0C02 		sub	r2, r2, ip
 548 0094 9A60     		str	r2, [r3, #8]
 122:SYS/memng/mmu.c **** 
 549              		.loc 1 122 13 is_stmt 1 view .LVU188
 122:SYS/memng/mmu.c **** 
 550              		.loc 1 122 35 is_stmt 0 view .LVU189
 551 0096 5A68     		ldr	r2, [r3, #4]
 552 0098 6244     		add	r2, r2, ip
 553 009a 5A60     		str	r2, [r3, #4]
 124:SYS/memng/mmu.c **** 
 554              		.loc 1 124 13 is_stmt 1 view .LVU190
 555 009c FFF7FEFF 		bl	MMU_InsertFreeBlock
 556              	.LVL37:
 126:SYS/memng/mmu.c ****         }
 557              		.loc 1 126 13 view .LVU191
 126:SYS/memng/mmu.c ****         }
 558              		.loc 1 126 32 is_stmt 0 view .LVU192
 559 00a0 0023     		movs	r3, #0
 560 00a2 2360     		str	r3, [r4]
 561 00a4 02E0     		b	.L33
ARM GAS  /var/folders/lx/hc4sn_b53233_zkc9xbbl97r0000gp/T//ccMvf6BI.s 			page 17


 562              	.LVL38:
 563              	.L43:
  68:SYS/memng/mmu.c ****     MemBlock_TypeDef *Block_Tmp = NULL;
 564              		.loc 1 68 23 view .LVU193
 565 00a6 0020     		movs	r0, #0
 566              	.LVL39:
  68:SYS/memng/mmu.c ****     MemBlock_TypeDef *Block_Tmp = NULL;
 567              		.loc 1 68 23 view .LVU194
 568 00a8 F0E7     		b	.L38
 569              	.LVL40:
 570              	.L39:
  70:SYS/memng/mmu.c **** 
 571              		.loc 1 70 11 view .LVU195
 572 00aa 0025     		movs	r5, #0
 573              	.LVL41:
 574              	.L33:
 130:SYS/memng/mmu.c **** 
 575              		.loc 1 130 5 is_stmt 1 view .LVU196
 576              		.syntax unified
 577              	@ 130 "SYS/memng/mmu.c" 1
 578 00ac 62B6     		cpsie i
 579              	@ 0 "" 2
 132:SYS/memng/mmu.c **** 
 580              		.loc 1 132 5 view .LVU197
 132:SYS/memng/mmu.c **** 
 581              		.loc 1 132 27 is_stmt 0 view .LVU198
 582              		.thumb
 583              		.syntax unified
 584 00ae 054B     		ldr	r3, .L46+4
 585 00b0 054A     		ldr	r2, .L46+8
 586 00b2 1A61     		str	r2, [r3, #16]
 134:SYS/memng/mmu.c **** }
 587              		.loc 1 134 5 is_stmt 1 view .LVU199
 135:SYS/memng/mmu.c **** 
 588              		.loc 1 135 1 is_stmt 0 view .LVU200
 589 00b4 2846     		mov	r0, r5
 590 00b6 38BD     		pop	{r3, r4, r5, pc}
 591              	.LVL42:
 592              	.L41:
  70:SYS/memng/mmu.c **** 
 593              		.loc 1 70 11 view .LVU201
 594 00b8 0025     		movs	r5, #0
 595 00ba F7E7     		b	.L33
 596              	.L42:
 597 00bc 0025     		movs	r5, #0
 598 00be F5E7     		b	.L33
 599              	.L47:
 600              		.align	2
 601              	.L46:
 602 00c0 00000000 		.word	.LANCHOR3
 603 00c4 00000000 		.word	.LANCHOR0
 604 00c8 00000000 		.word	.LANCHOR1
 605 00cc 00000000 		.word	Mem_Buff
 606 00d0 00000000 		.word	.LANCHOR2
 607              		.cfi_endproc
 608              	.LFE5:
 610              		.section	.text.MMU_Free,"ax",%progbits
ARM GAS  /var/folders/lx/hc4sn_b53233_zkc9xbbl97r0000gp/T//ccMvf6BI.s 			page 18


 611              		.align	1
 612              		.global	MMU_Free
 613              		.syntax unified
 614              		.thumb
 615              		.thumb_func
 616              		.fpu fpv4-sp-d16
 618              	MMU_Free:
 619              	.LVL43:
 620              	.LFB6:
 138:SYS/memng/mmu.c ****     uint8_t *puc = (uint8_t *)ptr;
 621              		.loc 1 138 1 is_stmt 1 view -0
 622              		.cfi_startproc
 623              		@ args = 0, pretend = 0, frame = 0
 624              		@ frame_needed = 0, uses_anonymous_args = 0
 138:SYS/memng/mmu.c ****     uint8_t *puc = (uint8_t *)ptr;
 625              		.loc 1 138 1 is_stmt 0 view .LVU203
 626 0000 08B5     		push	{r3, lr}
 627              	.LCFI6:
 628              		.cfi_def_cfa_offset 8
 629              		.cfi_offset 3, -8
 630              		.cfi_offset 14, -4
 139:SYS/memng/mmu.c ****     MemBlock_TypeDef *pxLink;
 631              		.loc 1 139 5 is_stmt 1 view .LVU204
 632              	.LVL44:
 140:SYS/memng/mmu.c **** 
 633              		.loc 1 140 5 view .LVU205
 142:SYS/memng/mmu.c **** 
 634              		.loc 1 142 5 view .LVU206
 142:SYS/memng/mmu.c **** 
 635              		.loc 1 142 11 is_stmt 0 view .LVU207
 636 0002 154B     		ldr	r3, .L56
 637 0004 0222     		movs	r2, #2
 638 0006 1A70     		strb	r2, [r3]
 144:SYS/memng/mmu.c ****     {
 639              		.loc 1 144 5 is_stmt 1 view .LVU208
 144:SYS/memng/mmu.c ****     {
 640              		.loc 1 144 24 is_stmt 0 view .LVU209
 641 0008 00F07042 		and	r2, r0, #-268435456
 144:SYS/memng/mmu.c ****     {
 642              		.loc 1 144 41 view .LVU210
 643 000c 134B     		ldr	r3, .L56+4
 144:SYS/memng/mmu.c ****     {
 644              		.loc 1 144 8 view .LVU211
 645 000e 9A42     		cmp	r2, r3
 646 0010 00D0     		beq	.L49
 647              	.L50:
 146:SYS/memng/mmu.c ****             ;
 648              		.loc 1 146 9 is_stmt 1 discriminator 1 view .LVU212
 147:SYS/memng/mmu.c ****     }
 649              		.loc 1 147 13 discriminator 1 view .LVU213
 146:SYS/memng/mmu.c ****             ;
 650              		.loc 1 146 15 discriminator 1 view .LVU214
 651 0012 FEE7     		b	.L50
 652              	.L49:
 149:SYS/memng/mmu.c ****     if (ptr != NULL)
 653              		.loc 1 149 5 view .LVU215
 654              		.syntax unified
ARM GAS  /var/folders/lx/hc4sn_b53233_zkc9xbbl97r0000gp/T//ccMvf6BI.s 			page 19


 655              	@ 149 "SYS/memng/mmu.c" 1
 656 0014 72B6     		cpsid i
 657              	@ 0 "" 2
 150:SYS/memng/mmu.c ****     {
 658              		.loc 1 150 5 view .LVU216
 150:SYS/memng/mmu.c ****     {
 659              		.loc 1 150 8 is_stmt 0 view .LVU217
 660              		.thumb
 661              		.syntax unified
 662 0016 40B1     		cbz	r0, .L51
 152:SYS/memng/mmu.c **** 
 663              		.loc 1 152 9 is_stmt 1 view .LVU218
 152:SYS/memng/mmu.c **** 
 664              		.loc 1 152 20 is_stmt 0 view .LVU219
 665 0018 114A     		ldr	r2, .L56+8
 666 001a D369     		ldr	r3, [r2, #28]
 152:SYS/memng/mmu.c **** 
 667              		.loc 1 152 26 view .LVU220
 668 001c 0133     		adds	r3, r3, #1
 669 001e D361     		str	r3, [r2, #28]
 156:SYS/memng/mmu.c **** 
 670              		.loc 1 156 9 is_stmt 1 view .LVU221
 156:SYS/memng/mmu.c **** 
 671              		.loc 1 156 13 is_stmt 0 view .LVU222
 672 0020 A0F10801 		sub	r1, r0, #8
 673              	.LVL45:
 159:SYS/memng/mmu.c **** 
 674              		.loc 1 159 9 is_stmt 1 view .LVU223
 161:SYS/memng/mmu.c ****         {
 675              		.loc 1 161 9 view .LVU224
 161:SYS/memng/mmu.c ****         {
 676              		.loc 1 161 19 is_stmt 0 view .LVU225
 677 0024 50F8083C 		ldr	r3, [r0, #-8]
 161:SYS/memng/mmu.c ****         {
 678              		.loc 1 161 12 view .LVU226
 679 0028 0BB1     		cbz	r3, .L55
 680              	.LVL46:
 681              	.L51:
 179:SYS/memng/mmu.c **** 
 682              		.loc 1 179 5 is_stmt 1 view .LVU227
 683              		.syntax unified
 684              	@ 179 "SYS/memng/mmu.c" 1
 685 002a 62B6     		cpsie i
 686              	@ 0 "" 2
 181:SYS/memng/mmu.c **** }
 687              		.loc 1 181 5 view .LVU228
 688              	.LVL47:
 182:SYS/memng/mmu.c **** 
 689              		.loc 1 182 1 is_stmt 0 view .LVU229
 690              		.thumb
 691              		.syntax unified
 692 002c 08BD     		pop	{r3, pc}
 693              	.LVL48:
 694              	.L55:
 166:SYS/memng/mmu.c ****             Mem_Monitor.remain_size += pxLink->size;
 695              		.loc 1 166 13 is_stmt 1 view .LVU230
 166:SYS/memng/mmu.c ****             Mem_Monitor.remain_size += pxLink->size;
ARM GAS  /var/folders/lx/hc4sn_b53233_zkc9xbbl97r0000gp/T//ccMvf6BI.s 			page 20


 696              		.loc 1 166 44 is_stmt 0 view .LVU231
 697 002e 30F804CC 		ldrh	ip, [r0, #-4]
 166:SYS/memng/mmu.c ****             Mem_Monitor.remain_size += pxLink->size;
 698              		.loc 1 166 35 view .LVU232
 699 0032 1346     		mov	r3, r2
 700 0034 5268     		ldr	r2, [r2, #4]
 701 0036 A2EB0C02 		sub	r2, r2, ip
 702 003a 5A60     		str	r2, [r3, #4]
 167:SYS/memng/mmu.c **** 
 703              		.loc 1 167 13 is_stmt 1 view .LVU233
 167:SYS/memng/mmu.c **** 
 704              		.loc 1 167 46 is_stmt 0 view .LVU234
 705 003c 30F8042C 		ldrh	r2, [r0, #-4]
 167:SYS/memng/mmu.c **** 
 706              		.loc 1 167 37 view .LVU235
 707 0040 9868     		ldr	r0, [r3, #8]
 708              	.LVL49:
 167:SYS/memng/mmu.c **** 
 709              		.loc 1 167 37 view .LVU236
 710 0042 0244     		add	r2, r2, r0
 711 0044 9A60     		str	r2, [r3, #8]
 169:SYS/memng/mmu.c ****             {
 712              		.loc 1 169 13 is_stmt 1 view .LVU237
 169:SYS/memng/mmu.c ****             {
 713              		.loc 1 169 54 is_stmt 0 view .LVU238
 714 0046 DB68     		ldr	r3, [r3, #12]
 169:SYS/memng/mmu.c ****             {
 715              		.loc 1 169 16 view .LVU239
 716 0048 9A42     		cmp	r2, r3
 717 004a 00D9     		bls	.L52
 718              	.L53:
 171:SYS/memng/mmu.c ****                     ;
 719              		.loc 1 171 17 is_stmt 1 discriminator 2 view .LVU240
 172:SYS/memng/mmu.c ****             }
 720              		.loc 1 172 21 discriminator 2 view .LVU241
 171:SYS/memng/mmu.c ****                     ;
 721              		.loc 1 171 23 discriminator 2 view .LVU242
 722 004c FEE7     		b	.L53
 723              	.L52:
 176:SYS/memng/mmu.c ****         }
 724              		.loc 1 176 13 view .LVU243
 725 004e 0846     		mov	r0, r1
 726 0050 FFF7FEFF 		bl	MMU_InsertFreeBlock
 727              	.LVL50:
 176:SYS/memng/mmu.c ****         }
 728              		.loc 1 176 13 is_stmt 0 view .LVU244
 729 0054 E9E7     		b	.L51
 730              	.L57:
 731 0056 00BF     		.align	2
 732              	.L56:
 733 0058 00000000 		.word	.LANCHOR3
 734 005c 00000000 		.word	Mem_Buff
 735 0060 00000000 		.word	.LANCHOR0
 736              		.cfi_endproc
 737              	.LFE6:
 739              		.global	trace
 740              		.global	MemEnd
ARM GAS  /var/folders/lx/hc4sn_b53233_zkc9xbbl97r0000gp/T//ccMvf6BI.s 			page 21


 741              		.global	MemStart
 742              		.global	Mem_Monitor
 743              		.global	Mem_Buff
 744              		.section	.bss.MemEnd,"aw",%nobits
 745              		.align	2
 746              		.set	.LANCHOR2,. + 0
 749              	MemEnd:
 750 0000 00000000 		.space	4
 751              		.section	.bss.MemStart,"aw",%nobits
 752              		.align	2
 753              		.set	.LANCHOR1,. + 0
 756              	MemStart:
 757 0000 00000000 		.space	8
 757      00000000 
 758              		.section	.bss.Mem_Monitor,"aw",%nobits
 759              		.align	2
 760              		.set	.LANCHOR0,. + 0
 763              	Mem_Monitor:
 764 0000 00000000 		.space	36
 764      00000000 
 764      00000000 
 764      00000000 
 764      00000000 
 765              		.section	.bss.trace,"aw",%nobits
 766              		.set	.LANCHOR3,. + 0
 769              	trace:
 770 0000 00       		.space	1
 771              		.section	.ccmram,"aw"
 772              		.align	2
 775              	Mem_Buff:
 776 0000 00000000 		.space	65536
 776      00000000 
 776      00000000 
 776      00000000 
 776      00000000 
 777              		.text
 778              	.Letext0:
 779              		.file 2 "/usr/local/arm-none-eabi-gcc/gcc-arm-none-eabi-10-2020-q4-major/arm-none-eabi/include/mac
 780              		.file 3 "/usr/local/arm-none-eabi-gcc/gcc-arm-none-eabi-10-2020-q4-major/arm-none-eabi/include/sys
 781              		.file 4 "SYS/memng/mmu.h"
ARM GAS  /var/folders/lx/hc4sn_b53233_zkc9xbbl97r0000gp/T//ccMvf6BI.s 			page 22


DEFINED SYMBOLS
                            *ABS*:0000000000000000 mmu.c
/var/folders/lx/hc4sn_b53233_zkc9xbbl97r0000gp/T//ccMvf6BI.s:18     .text.MMU_Init:0000000000000000 $t
/var/folders/lx/hc4sn_b53233_zkc9xbbl97r0000gp/T//ccMvf6BI.s:25     .text.MMU_Init:0000000000000000 MMU_Init
/var/folders/lx/hc4sn_b53233_zkc9xbbl97r0000gp/T//ccMvf6BI.s:123    .text.MMU_Init:0000000000000058 $d
/var/folders/lx/hc4sn_b53233_zkc9xbbl97r0000gp/T//ccMvf6BI.s:775    .ccmram:0000000000000000 Mem_Buff
/var/folders/lx/hc4sn_b53233_zkc9xbbl97r0000gp/T//ccMvf6BI.s:132    .text.MMU_InsertFreeBlock:0000000000000000 $t
/var/folders/lx/hc4sn_b53233_zkc9xbbl97r0000gp/T//ccMvf6BI.s:138    .text.MMU_InsertFreeBlock:0000000000000000 MMU_InsertFreeBlock
/var/folders/lx/hc4sn_b53233_zkc9xbbl97r0000gp/T//ccMvf6BI.s:289    .text.MMU_InsertFreeBlock:0000000000000070 $d
/var/folders/lx/hc4sn_b53233_zkc9xbbl97r0000gp/T//ccMvf6BI.s:296    .text.MMU_Get_Monitor:0000000000000000 $t
/var/folders/lx/hc4sn_b53233_zkc9xbbl97r0000gp/T//ccMvf6BI.s:303    .text.MMU_Get_Monitor:0000000000000000 MMU_Get_Monitor
/var/folders/lx/hc4sn_b53233_zkc9xbbl97r0000gp/T//ccMvf6BI.s:365    .text.MMU_Get_Monitor:0000000000000038 $d
/var/folders/lx/hc4sn_b53233_zkc9xbbl97r0000gp/T//ccMvf6BI.s:372    .text.MMU_Malloc:0000000000000000 $t
/var/folders/lx/hc4sn_b53233_zkc9xbbl97r0000gp/T//ccMvf6BI.s:379    .text.MMU_Malloc:0000000000000000 MMU_Malloc
/var/folders/lx/hc4sn_b53233_zkc9xbbl97r0000gp/T//ccMvf6BI.s:602    .text.MMU_Malloc:00000000000000c0 $d
/var/folders/lx/hc4sn_b53233_zkc9xbbl97r0000gp/T//ccMvf6BI.s:611    .text.MMU_Free:0000000000000000 $t
/var/folders/lx/hc4sn_b53233_zkc9xbbl97r0000gp/T//ccMvf6BI.s:618    .text.MMU_Free:0000000000000000 MMU_Free
/var/folders/lx/hc4sn_b53233_zkc9xbbl97r0000gp/T//ccMvf6BI.s:733    .text.MMU_Free:0000000000000058 $d
/var/folders/lx/hc4sn_b53233_zkc9xbbl97r0000gp/T//ccMvf6BI.s:769    .bss.trace:0000000000000000 trace
/var/folders/lx/hc4sn_b53233_zkc9xbbl97r0000gp/T//ccMvf6BI.s:749    .bss.MemEnd:0000000000000000 MemEnd
/var/folders/lx/hc4sn_b53233_zkc9xbbl97r0000gp/T//ccMvf6BI.s:756    .bss.MemStart:0000000000000000 MemStart
/var/folders/lx/hc4sn_b53233_zkc9xbbl97r0000gp/T//ccMvf6BI.s:763    .bss.Mem_Monitor:0000000000000000 Mem_Monitor
/var/folders/lx/hc4sn_b53233_zkc9xbbl97r0000gp/T//ccMvf6BI.s:745    .bss.MemEnd:0000000000000000 $d
/var/folders/lx/hc4sn_b53233_zkc9xbbl97r0000gp/T//ccMvf6BI.s:752    .bss.MemStart:0000000000000000 $d
/var/folders/lx/hc4sn_b53233_zkc9xbbl97r0000gp/T//ccMvf6BI.s:759    .bss.Mem_Monitor:0000000000000000 $d
/var/folders/lx/hc4sn_b53233_zkc9xbbl97r0000gp/T//ccMvf6BI.s:770    .bss.trace:0000000000000000 $d
/var/folders/lx/hc4sn_b53233_zkc9xbbl97r0000gp/T//ccMvf6BI.s:772    .ccmram:0000000000000000 $d

NO UNDEFINED SYMBOLS
