ARM GAS  C:\Users\huav\AppData\Local\Temp\ccNQUWMH.s 			page 1


   1              		.cpu cortex-m4
   2              		.eabi_attribute 27, 1
   3              		.eabi_attribute 28, 1
   4              		.eabi_attribute 20, 1
   5              		.eabi_attribute 21, 1
   6              		.eabi_attribute 23, 3
   7              		.eabi_attribute 24, 1
   8              		.eabi_attribute 25, 1
   9              		.eabi_attribute 26, 1
  10              		.eabi_attribute 30, 1
  11              		.eabi_attribute 34, 1
  12              		.eabi_attribute 18, 4
  13              		.file	"mmu.c"
  14              		.text
  15              	.Ltext0:
  16              		.cfi_sections	.debug_frame
  17              		.section	.text.MMU_Init,"ax",%progbits
  18              		.align	1
  19              		.arch armv7e-m
  20              		.syntax unified
  21              		.thumb
  22              		.thumb_func
  23              		.fpu fpv4-sp-d16
  25              	MMU_Init:
  26              	.LFB3:
  27              		.file 1 "SYS/memng/mmu.c"
   1:SYS/memng/mmu.c **** /*
   2:SYS/memng/mmu.c **** * code "modify"(copy) from freertos
   3:SYS/memng/mmu.c **** * i can`t create my own memory manager module
   4:SYS/memng/mmu.c **** * sorry guys maybe one day but not now
   5:SYS/memng/mmu.c **** * sad story...
   6:SYS/memng/mmu.c **** *
   7:SYS/memng/mmu.c **** * Coder : 8_B!T0
   8:SYS/memng/mmu.c **** */
   9:SYS/memng/mmu.c **** #include "mmu.h"
  10:SYS/memng/mmu.c **** #include <string.h>
  11:SYS/memng/mmu.c **** #include <stdio.h>
  12:SYS/memng/mmu.c **** 
  13:SYS/memng/mmu.c **** static Mem_Monitor_TypeDef Mem_Monitor = {
  14:SYS/memng/mmu.c ****     .remain_size = 0,
  15:SYS/memng/mmu.c ****     .total_size = PHY_MEM_SIZE,
  16:SYS/memng/mmu.c ****     .used_size = 0,
  17:SYS/memng/mmu.c ****     .init = false,
  18:SYS/memng/mmu.c **** };
  19:SYS/memng/mmu.c **** 
  20:SYS/memng/mmu.c **** static uint8_t MMU_Buff[PHY_MEM_SIZE] __attribute__((aligned(BLOCK_ALIGMENT_SIZE))) __attribute__((
  21:SYS/memng/mmu.c **** 
  22:SYS/memng/mmu.c **** static MemBlock_TypeDef MMU_Start;
  23:SYS/memng/mmu.c **** static MemBlock_TypeDef *MMU_End = NULL;
  24:SYS/memng/mmu.c **** 
  25:SYS/memng/mmu.c **** /* memory block initial */
  26:SYS/memng/mmu.c **** static void MMU_Init(void)
  27:SYS/memng/mmu.c **** {
  28              		.loc 1 27 1 view -0
  29              		.cfi_startproc
  30              		@ args = 0, pretend = 0, frame = 0
  31              		@ frame_needed = 0, uses_anonymous_args = 0
ARM GAS  C:\Users\huav\AppData\Local\Temp\ccNQUWMH.s 			page 2


  32              		@ link register save eliminated.
  33 0000 10B4     		push	{r4}
  34              	.LCFI0:
  35              		.cfi_def_cfa_offset 4
  36              		.cfi_offset 4, -4
  28:SYS/memng/mmu.c ****     MemBlock_TypeDef *FirstFreeBlock;
  37              		.loc 1 28 5 view .LVU1
  29:SYS/memng/mmu.c ****     uint32_t index = 0;
  38              		.loc 1 29 5 view .LVU2
  39              	.LVL0:
  30:SYS/memng/mmu.c ****     MemAddr addr = 0;
  40              		.loc 1 30 5 view .LVU3
  31:SYS/memng/mmu.c ****     uint8_t *aliged_addr = 0;
  41              		.loc 1 31 5 view .LVU4
  32:SYS/memng/mmu.c **** 
  33:SYS/memng/mmu.c ****     /* init memory state table */
  34:SYS/memng/mmu.c ****     for (index = 0; index < PHY_MEM_SIZE; index++)
  42              		.loc 1 34 5 view .LVU5
  43              		.loc 1 34 16 is_stmt 0 view .LVU6
  44 0002 0023     		movs	r3, #0
  45              		.loc 1 34 5 view .LVU7
  46 0004 03E0     		b	.L2
  47              	.LVL1:
  48              	.L3:
  35:SYS/memng/mmu.c ****     {
  36:SYS/memng/mmu.c ****         MMU_Buff[index] = 0;
  49              		.loc 1 36 9 is_stmt 1 discriminator 3 view .LVU8
  50              		.loc 1 36 25 is_stmt 0 discriminator 3 view .LVU9
  51 0006 0E4A     		ldr	r2, .L5
  52 0008 0021     		movs	r1, #0
  53 000a D154     		strb	r1, [r2, r3]
  34:SYS/memng/mmu.c ****     {
  54              		.loc 1 34 43 is_stmt 1 discriminator 3 view .LVU10
  34:SYS/memng/mmu.c ****     {
  55              		.loc 1 34 48 is_stmt 0 discriminator 3 view .LVU11
  56 000c 0133     		adds	r3, r3, #1
  57              	.LVL2:
  58              	.L2:
  34:SYS/memng/mmu.c ****     {
  59              		.loc 1 34 21 is_stmt 1 discriminator 1 view .LVU12
  34:SYS/memng/mmu.c ****     {
  60              		.loc 1 34 5 is_stmt 0 discriminator 1 view .LVU13
  61 000e B3F5803F 		cmp	r3, #65536
  62 0012 F8D3     		bcc	.L3
  37:SYS/memng/mmu.c ****     }
  38:SYS/memng/mmu.c **** 
  39:SYS/memng/mmu.c ****     /* aligment mmu address */
  40:SYS/memng/mmu.c ****     addr = (MemAddr)MMU_Buff;
  63              		.loc 1 40 5 is_stmt 1 view .LVU14
  64              		.loc 1 40 10 is_stmt 0 view .LVU15
  65 0014 0A4A     		ldr	r2, .L5
  66              	.LVL3:
  41:SYS/memng/mmu.c **** 
  42:SYS/memng/mmu.c ****     if (addr & (BLOCK_ALIGMENT_SIZE - 1))
  67              		.loc 1 42 5 is_stmt 1 view .LVU16
  43:SYS/memng/mmu.c ****     {
  44:SYS/memng/mmu.c ****         addr += BLOCK_ALIGMENT_SIZE - addr & (BLOCK_ALIGMENT_SIZE - 1);
ARM GAS  C:\Users\huav\AppData\Local\Temp\ccNQUWMH.s 			page 3


  45:SYS/memng/mmu.c ****         addr &= ~((size_t)(BLOCK_ALIGMENT_SIZE - 1));
  46:SYS/memng/mmu.c **** 
  47:SYS/memng/mmu.c ****         Mem_Monitor.total_size -= addr - (MemAddr)MMU_Buff;
  48:SYS/memng/mmu.c ****     }
  49:SYS/memng/mmu.c **** 
  50:SYS/memng/mmu.c ****     aliged_addr = (uint8_t *)addr;
  68              		.loc 1 50 5 view .LVU17
  51:SYS/memng/mmu.c **** 
  52:SYS/memng/mmu.c ****     MMU_Start.nxt = (void *)aliged_addr;
  69              		.loc 1 52 5 view .LVU18
  70              		.loc 1 52 19 is_stmt 0 view .LVU19
  71 0016 0B4B     		ldr	r3, .L5+4
  72              	.LVL4:
  73              		.loc 1 52 19 view .LVU20
  74 0018 1A60     		str	r2, [r3]
  53:SYS/memng/mmu.c ****     MMU_Start.len = 0;
  75              		.loc 1 53 5 is_stmt 1 view .LVU21
  76              		.loc 1 53 19 is_stmt 0 view .LVU22
  77 001a 0021     		movs	r1, #0
  78 001c 5960     		str	r1, [r3, #4]
  54:SYS/memng/mmu.c **** 
  55:SYS/memng/mmu.c ****     addr = ((MemAddr)aliged_addr) + Mem_Monitor.total_size;
  79              		.loc 1 55 5 is_stmt 1 view .LVU23
  80              		.loc 1 55 48 is_stmt 0 view .LVU24
  81 001e 0A48     		ldr	r0, .L5+8
  82 0020 8368     		ldr	r3, [r0, #8]
  83              		.loc 1 55 10 view .LVU25
  84 0022 1344     		add	r3, r3, r2
  85              	.LVL5:
  56:SYS/memng/mmu.c ****     addr -= sizeof(MemBlock_TypeDef);
  86              		.loc 1 56 5 is_stmt 1 view .LVU26
  87              		.loc 1 56 10 is_stmt 0 view .LVU27
  88 0024 083B     		subs	r3, r3, #8
  89              	.LVL6:
  57:SYS/memng/mmu.c ****     addr &= ~((MemAddr)(BLOCK_ALIGMENT_SIZE - 1));
  90              		.loc 1 57 5 is_stmt 1 view .LVU28
  91              		.loc 1 57 10 is_stmt 0 view .LVU29
  92 0026 23F00703 		bic	r3, r3, #7
  93              	.LVL7:
  58:SYS/memng/mmu.c **** 
  59:SYS/memng/mmu.c ****     MMU_End = (void *)addr;
  94              		.loc 1 59 5 is_stmt 1 view .LVU30
  95              		.loc 1 59 13 is_stmt 0 view .LVU31
  96 002a 084C     		ldr	r4, .L5+12
  97 002c 2360     		str	r3, [r4]
  60:SYS/memng/mmu.c ****     MMU_End->nxt = NULL;
  98              		.loc 1 60 5 is_stmt 1 view .LVU32
  99              		.loc 1 60 18 is_stmt 0 view .LVU33
 100 002e 1960     		str	r1, [r3]
  61:SYS/memng/mmu.c ****     MMU_End->len = 0;
 101              		.loc 1 61 5 is_stmt 1 view .LVU34
 102              		.loc 1 61 18 is_stmt 0 view .LVU35
 103 0030 5960     		str	r1, [r3, #4]
  62:SYS/memng/mmu.c **** 
  63:SYS/memng/mmu.c ****     FirstFreeBlock = (void *)aliged_addr;
 104              		.loc 1 63 5 is_stmt 1 view .LVU36
 105              	.LVL8:
ARM GAS  C:\Users\huav\AppData\Local\Temp\ccNQUWMH.s 			page 4


  64:SYS/memng/mmu.c ****     FirstFreeBlock->len = addr - (size_t)FirstFreeBlock;
 106              		.loc 1 64 5 view .LVU37
 107              		.loc 1 64 32 is_stmt 0 view .LVU38
 108 0032 991A     		subs	r1, r3, r2
 109              		.loc 1 64 25 view .LVU39
 110 0034 5160     		str	r1, [r2, #4]
  65:SYS/memng/mmu.c ****     FirstFreeBlock->nxt = MMU_End;
 111              		.loc 1 65 5 is_stmt 1 view .LVU40
 112              		.loc 1 65 25 is_stmt 0 view .LVU41
 113 0036 1360     		str	r3, [r2]
  66:SYS/memng/mmu.c **** 
  67:SYS/memng/mmu.c ****     Mem_Monitor.remain_size = FirstFreeBlock->len;
 114              		.loc 1 67 5 is_stmt 1 view .LVU42
 115              		.loc 1 67 29 is_stmt 0 view .LVU43
 116 0038 4160     		str	r1, [r0, #4]
  68:SYS/memng/mmu.c **** }
 117              		.loc 1 68 1 view .LVU44
 118 003a 5DF8044B 		ldr	r4, [sp], #4
 119              	.LCFI1:
 120              		.cfi_restore 4
 121              		.cfi_def_cfa_offset 0
 122 003e 7047     		bx	lr
 123              	.L6:
 124              		.align	2
 125              	.L5:
 126 0040 00000000 		.word	MMU_Buff
 127 0044 00000000 		.word	.LANCHOR0
 128 0048 00000000 		.word	.LANCHOR1
 129 004c 00000000 		.word	.LANCHOR2
 130              		.cfi_endproc
 131              	.LFE3:
 133              		.section	.text.MMU_Malloc,"ax",%progbits
 134              		.align	1
 135              		.global	MMU_Malloc
 136              		.syntax unified
 137              		.thumb
 138              		.thumb_func
 139              		.fpu fpv4-sp-d16
 141              	MMU_Malloc:
 142              	.LVL9:
 143              	.LFB5:
  69:SYS/memng/mmu.c **** 
  70:SYS/memng/mmu.c **** static void MMU_UpdateFreeBlock(MemBlock_TypeDef *block)
  71:SYS/memng/mmu.c **** {
  72:SYS/memng/mmu.c ****     if (MMU_Start.nxt == NULL)
  73:SYS/memng/mmu.c ****     {
  74:SYS/memng/mmu.c ****     }
  75:SYS/memng/mmu.c **** }
  76:SYS/memng/mmu.c **** 
  77:SYS/memng/mmu.c **** /* memory manager unit malloc */
  78:SYS/memng/mmu.c **** void *MMU_Malloc(uint32_t size)
  79:SYS/memng/mmu.c **** {
 144              		.loc 1 79 1 is_stmt 1 view -0
 145              		.cfi_startproc
 146              		@ args = 0, pretend = 0, frame = 0
 147              		@ frame_needed = 0, uses_anonymous_args = 0
 148              		.loc 1 79 1 is_stmt 0 view .LVU46
ARM GAS  C:\Users\huav\AppData\Local\Temp\ccNQUWMH.s 			page 5


 149 0000 70B5     		push	{r4, r5, r6, lr}
 150              	.LCFI2:
 151              		.cfi_def_cfa_offset 16
 152              		.cfi_offset 4, -16
 153              		.cfi_offset 5, -12
 154              		.cfi_offset 6, -8
 155              		.cfi_offset 14, -4
 156 0002 0446     		mov	r4, r0
  80:SYS/memng/mmu.c ****     MemBlock_TypeDef *Block = NULL;
 157              		.loc 1 80 5 is_stmt 1 view .LVU47
 158              	.LVL10:
  81:SYS/memng/mmu.c ****     MemBlock_TypeDef *MMU_PrvBlock = NULL;
 159              		.loc 1 81 5 view .LVU48
  82:SYS/memng/mmu.c ****     MemBlock_TypeDef *MMU_NewBlockLink = NULL;
 160              		.loc 1 82 5 view .LVU49
  83:SYS/memng/mmu.c **** 
  84:SYS/memng/mmu.c ****     uint32_t req_block_num = 0;
 161              		.loc 1 84 5 view .LVU50
  85:SYS/memng/mmu.c ****     uint32_t req_byte_size = 0;
 162              		.loc 1 85 5 view .LVU51
  86:SYS/memng/mmu.c ****     void *mem_addr;
 163              		.loc 1 86 5 view .LVU52
  87:SYS/memng/mmu.c **** 
  88:SYS/memng/mmu.c ****     __asm("cpsid i");
 164              		.loc 1 88 5 view .LVU53
 165              		.syntax unified
 166              	@ 88 "SYS/memng/mmu.c" 1
 167 0004 72B6     		cpsid i
 168              	@ 0 "" 2
  89:SYS/memng/mmu.c **** 
  90:SYS/memng/mmu.c ****     if (!Mem_Monitor.init)
 169              		.loc 1 90 5 view .LVU54
 170              		.loc 1 90 21 is_stmt 0 view .LVU55
 171              		.thumb
 172              		.syntax unified
 173 0006 1F4B     		ldr	r3, .L20
 174 0008 1B7B     		ldrb	r3, [r3, #12]	@ zero_extendqisi2
 175              		.loc 1 90 8 view .LVU56
 176 000a A3B1     		cbz	r3, .L19
 177              	.LVL11:
 178              	.L8:
  91:SYS/memng/mmu.c ****     {
  92:SYS/memng/mmu.c ****         MMU_Init();
  93:SYS/memng/mmu.c **** 
  94:SYS/memng/mmu.c ****         Mem_Monitor.init = true;
  95:SYS/memng/mmu.c ****     }
  96:SYS/memng/mmu.c **** 
  97:SYS/memng/mmu.c ****     if (Mem_Monitor.init)
 179              		.loc 1 97 5 is_stmt 1 view .LVU57
 180              		.loc 1 97 20 is_stmt 0 view .LVU58
 181 000c 1D4B     		ldr	r3, .L20
 182 000e 1B7B     		ldrb	r3, [r3, #12]	@ zero_extendqisi2
 183              		.loc 1 97 8 view .LVU59
 184 0010 002B     		cmp	r3, #0
 185 0012 2ED0     		beq	.L9
  98:SYS/memng/mmu.c ****     {
  99:SYS/memng/mmu.c ****         if ((size > Mem_Monitor.remain_size) || (size == 0))
ARM GAS  C:\Users\huav\AppData\Local\Temp\ccNQUWMH.s 			page 6


 186              		.loc 1 99 9 is_stmt 1 view .LVU60
 187              		.loc 1 99 32 is_stmt 0 view .LVU61
 188 0014 1B4B     		ldr	r3, .L20
 189 0016 5E68     		ldr	r6, [r3, #4]
 190              		.loc 1 99 12 view .LVU62
 191 0018 A642     		cmp	r6, r4
 192 001a 29D3     		bcc	.L13
 193              		.loc 1 99 46 discriminator 1 view .LVU63
 194 001c 64B3     		cbz	r4, .L14
 100:SYS/memng/mmu.c ****         {
 101:SYS/memng/mmu.c ****             /* illegal parameter input */
 102:SYS/memng/mmu.c ****             mem_addr = NULL;
 103:SYS/memng/mmu.c ****         }
 104:SYS/memng/mmu.c ****         else
 105:SYS/memng/mmu.c ****         {
 106:SYS/memng/mmu.c ****             req_block_num = size / BLOCK_ALIGMENT_SIZE;
 195              		.loc 1 106 13 is_stmt 1 view .LVU64
 196              		.loc 1 106 27 is_stmt 0 view .LVU65
 197 001e E108     		lsrs	r1, r4, #3
 198              	.LVL12:
 107:SYS/memng/mmu.c ****             if (size % BLOCK_ALIGMENT_SIZE)
 199              		.loc 1 107 13 is_stmt 1 view .LVU66
 200              		.loc 1 107 16 is_stmt 0 view .LVU67
 201 0020 14F0070F 		tst	r4, #7
 202 0024 00D0     		beq	.L10
 108:SYS/memng/mmu.c ****             {
 109:SYS/memng/mmu.c ****                 req_block_num++;
 203              		.loc 1 109 17 is_stmt 1 view .LVU68
 204              		.loc 1 109 30 is_stmt 0 view .LVU69
 205 0026 0131     		adds	r1, r1, #1
 206              	.LVL13:
 207              	.L10:
 110:SYS/memng/mmu.c ****             }
 111:SYS/memng/mmu.c **** 
 112:SYS/memng/mmu.c ****             req_byte_size = req_block_num * BLOCK_ALIGMENT_SIZE;
 208              		.loc 1 112 13 is_stmt 1 view .LVU70
 113:SYS/memng/mmu.c **** 
 114:SYS/memng/mmu.c ****             if ((req_byte_size > 0) && (req_byte_size <= Mem_Monitor.remain_size))
 209              		.loc 1 114 13 view .LVU71
 210              		.loc 1 114 16 is_stmt 0 view .LVU72
 211 0028 C900     		lsls	r1, r1, #3
 212              	.LVL14:
 213              		.loc 1 114 16 view .LVU73
 214 002a 27D0     		beq	.L15
 215              		.loc 1 114 37 discriminator 1 view .LVU74
 216 002c 8E42     		cmp	r6, r1
 217 002e 27D3     		bcc	.L16
 115:SYS/memng/mmu.c ****             {
 116:SYS/memng/mmu.c ****                 MMU_PrvBlock = &MMU_Start;
 218              		.loc 1 116 17 is_stmt 1 view .LVU75
 219              	.LVL15:
 117:SYS/memng/mmu.c ****                 Block = MMU_Start.nxt;
 220              		.loc 1 117 17 view .LVU76
 221              		.loc 1 117 23 is_stmt 0 view .LVU77
 222 0030 1548     		ldr	r0, .L20+4
 223 0032 0368     		ldr	r3, [r0]
 224              	.LVL16:
ARM GAS  C:\Users\huav\AppData\Local\Temp\ccNQUWMH.s 			page 7


 118:SYS/memng/mmu.c ****                 while ((Block->len < req_byte_size) && (Block->nxt != NULL))
 225              		.loc 1 118 17 is_stmt 1 view .LVU78
 226              		.loc 1 118 23 is_stmt 0 view .LVU79
 227 0034 07E0     		b	.L12
 228              	.LVL17:
 229              	.L19:
  92:SYS/memng/mmu.c **** 
 230              		.loc 1 92 9 is_stmt 1 view .LVU80
 231 0036 FFF7FEFF 		bl	MMU_Init
 232              	.LVL18:
  94:SYS/memng/mmu.c ****     }
 233              		.loc 1 94 9 view .LVU81
  94:SYS/memng/mmu.c ****     }
 234              		.loc 1 94 26 is_stmt 0 view .LVU82
 235 003a 124B     		ldr	r3, .L20
 236 003c 0122     		movs	r2, #1
 237 003e 1A73     		strb	r2, [r3, #12]
 238 0040 E4E7     		b	.L8
 239              	.LVL19:
 240              	.L17:
 119:SYS/memng/mmu.c ****                 {
 120:SYS/memng/mmu.c ****                     MMU_PrvBlock = Block;
 241              		.loc 1 120 34 view .LVU83
 242 0042 1846     		mov	r0, r3
 243              	.LVL20:
 121:SYS/memng/mmu.c ****                     Block = Block->nxt;
 244              		.loc 1 121 27 view .LVU84
 245 0044 1346     		mov	r3, r2
 246              	.LVL21:
 247              	.L12:
 118:SYS/memng/mmu.c ****                 {
 248              		.loc 1 118 23 is_stmt 1 view .LVU85
 118:SYS/memng/mmu.c ****                 {
 249              		.loc 1 118 30 is_stmt 0 view .LVU86
 250 0046 5A68     		ldr	r2, [r3, #4]
 118:SYS/memng/mmu.c ****                 {
 251              		.loc 1 118 23 view .LVU87
 252 0048 8A42     		cmp	r2, r1
 253 004a 02D2     		bcs	.L11
 118:SYS/memng/mmu.c ****                 {
 254              		.loc 1 118 62 discriminator 1 view .LVU88
 255 004c 1A68     		ldr	r2, [r3]
 118:SYS/memng/mmu.c ****                 {
 256              		.loc 1 118 53 discriminator 1 view .LVU89
 257 004e 002A     		cmp	r2, #0
 258 0050 F7D1     		bne	.L17
 259              	.L11:
 122:SYS/memng/mmu.c ****                 }
 123:SYS/memng/mmu.c **** 
 124:SYS/memng/mmu.c ****                 if (Block != MMU_End)
 260              		.loc 1 124 17 is_stmt 1 view .LVU90
 261              		.loc 1 124 27 is_stmt 0 view .LVU91
 262 0052 0E4A     		ldr	r2, .L20+8
 263 0054 1268     		ldr	r2, [r2]
 264              		.loc 1 124 20 view .LVU92
 265 0056 9A42     		cmp	r2, r3
 266 0058 0BD0     		beq	.L9
ARM GAS  C:\Users\huav\AppData\Local\Temp\ccNQUWMH.s 			page 8


 125:SYS/memng/mmu.c ****                 {
 126:SYS/memng/mmu.c ****                     Mem_Monitor.remain_size -= req_byte_size;
 267              		.loc 1 126 21 is_stmt 1 view .LVU93
 268              		.loc 1 126 45 is_stmt 0 view .LVU94
 269 005a 0A4A     		ldr	r2, .L20
 270 005c 761A     		subs	r6, r6, r1
 271 005e 5660     		str	r6, [r2, #4]
 127:SYS/memng/mmu.c ****                     Mem_Monitor.used_size += req_byte_size;
 272              		.loc 1 127 21 is_stmt 1 view .LVU95
 273              		.loc 1 127 43 is_stmt 0 view .LVU96
 274 0060 1468     		ldr	r4, [r2]
 275              	.LVL22:
 276              		.loc 1 127 43 view .LVU97
 277 0062 2144     		add	r1, r1, r4
 278              	.LVL23:
 279              		.loc 1 127 43 view .LVU98
 280 0064 1160     		str	r1, [r2]
 128:SYS/memng/mmu.c **** 
 129:SYS/memng/mmu.c ****                     mem_addr = (void *)(((uint8_t *)MMU_PrvBlock->nxt) + sizeof(MemBlock_TypeDef));
 281              		.loc 1 129 21 is_stmt 1 view .LVU99
 282              		.loc 1 129 65 is_stmt 0 view .LVU100
 283 0066 0568     		ldr	r5, [r0]
 284              		.loc 1 129 30 view .LVU101
 285 0068 0835     		adds	r5, r5, #8
 286              	.LVL24:
 130:SYS/memng/mmu.c ****                     MMU_PrvBlock->nxt = Block->nxt;
 287              		.loc 1 130 21 is_stmt 1 view .LVU102
 288              		.loc 1 130 46 is_stmt 0 view .LVU103
 289 006a 1B68     		ldr	r3, [r3]
 290              	.LVL25:
 291              		.loc 1 130 39 view .LVU104
 292 006c 0360     		str	r3, [r0]
 293 006e 00E0     		b	.L9
 294              	.LVL26:
 295              	.L13:
 102:SYS/memng/mmu.c ****         }
 296              		.loc 1 102 22 view .LVU105
 297 0070 0025     		movs	r5, #0
 298              	.LVL27:
 299              	.L9:
 131:SYS/memng/mmu.c ****                 }
 132:SYS/memng/mmu.c ****             }
 133:SYS/memng/mmu.c ****             else
 134:SYS/memng/mmu.c ****                 mem_addr = NULL;
 135:SYS/memng/mmu.c ****         }
 136:SYS/memng/mmu.c ****     }
 137:SYS/memng/mmu.c ****     __asm("cpsie i");
 300              		.loc 1 137 5 is_stmt 1 view .LVU106
 301              		.syntax unified
 302              	@ 137 "SYS/memng/mmu.c" 1
 303 0072 62B6     		cpsie i
 304              	@ 0 "" 2
 138:SYS/memng/mmu.c **** 
 139:SYS/memng/mmu.c ****     return mem_addr;
 305              		.loc 1 139 5 view .LVU107
 140:SYS/memng/mmu.c **** }
 306              		.loc 1 140 1 is_stmt 0 view .LVU108
ARM GAS  C:\Users\huav\AppData\Local\Temp\ccNQUWMH.s 			page 9


 307              		.thumb
 308              		.syntax unified
 309 0074 2846     		mov	r0, r5
 310 0076 70BD     		pop	{r4, r5, r6, pc}
 311              	.LVL28:
 312              	.L14:
 102:SYS/memng/mmu.c ****         }
 313              		.loc 1 102 22 view .LVU109
 314 0078 0025     		movs	r5, #0
 315 007a FAE7     		b	.L9
 316              	.LVL29:
 317              	.L15:
 134:SYS/memng/mmu.c ****         }
 318              		.loc 1 134 26 view .LVU110
 319 007c 0025     		movs	r5, #0
 320 007e F8E7     		b	.L9
 321              	.L16:
 322 0080 0025     		movs	r5, #0
 323 0082 F6E7     		b	.L9
 324              	.L21:
 325              		.align	2
 326              	.L20:
 327 0084 00000000 		.word	.LANCHOR1
 328 0088 00000000 		.word	.LANCHOR0
 329 008c 00000000 		.word	.LANCHOR2
 330              		.cfi_endproc
 331              	.LFE5:
 333              		.section	.text.MMU_Free,"ax",%progbits
 334              		.align	1
 335              		.global	MMU_Free
 336              		.syntax unified
 337              		.thumb
 338              		.thumb_func
 339              		.fpu fpv4-sp-d16
 341              	MMU_Free:
 342              	.LVL30:
 343              	.LFB6:
 141:SYS/memng/mmu.c **** 
 142:SYS/memng/mmu.c **** /* memory manager unit free */
 143:SYS/memng/mmu.c **** void MMU_Free(void *ptr)
 144:SYS/memng/mmu.c **** {
 344              		.loc 1 144 1 is_stmt 1 view -0
 345              		.cfi_startproc
 346              		@ args = 0, pretend = 0, frame = 0
 347              		@ frame_needed = 0, uses_anonymous_args = 0
 348              		@ link register save eliminated.
 145:SYS/memng/mmu.c ****     __asm("cpsid i");
 349              		.loc 1 145 5 view .LVU112
 350              		.syntax unified
 351              	@ 145 "SYS/memng/mmu.c" 1
 352 0000 72B6     		cpsid i
 353              	@ 0 "" 2
 146:SYS/memng/mmu.c **** 
 147:SYS/memng/mmu.c ****     __asm("cpsie i");
 354              		.loc 1 147 5 view .LVU113
 355              	@ 147 "SYS/memng/mmu.c" 1
 356 0002 62B6     		cpsie i
ARM GAS  C:\Users\huav\AppData\Local\Temp\ccNQUWMH.s 			page 10


 357              	@ 0 "" 2
 148:SYS/memng/mmu.c **** }
 358              		.loc 1 148 1 is_stmt 0 view .LVU114
 359              		.thumb
 360              		.syntax unified
 361 0004 7047     		bx	lr
 362              		.cfi_endproc
 363              	.LFE6:
 365              		.section	.text.MMU_Info,"ax",%progbits
 366              		.align	1
 367              		.global	MMU_Info
 368              		.syntax unified
 369              		.thumb
 370              		.thumb_func
 371              		.fpu fpv4-sp-d16
 373              	MMU_Info:
 374              	.LVL31:
 375              	.LFB7:
 149:SYS/memng/mmu.c **** 
 150:SYS/memng/mmu.c **** Mem_Monitor_TypeDef MMU_Info(void)
 151:SYS/memng/mmu.c **** {
 376              		.loc 1 151 1 is_stmt 1 view -0
 377              		.cfi_startproc
 378              		@ args = 0, pretend = 0, frame = 0
 379              		@ frame_needed = 0, uses_anonymous_args = 0
 380              		@ link register save eliminated.
 381              		.loc 1 151 1 is_stmt 0 view .LVU116
 382 0000 8446     		mov	ip, r0
 152:SYS/memng/mmu.c ****     return Mem_Monitor;
 383              		.loc 1 152 5 is_stmt 1 view .LVU117
 384              		.loc 1 152 12 is_stmt 0 view .LVU118
 385 0002 034B     		ldr	r3, .L24
 386 0004 0FCB     		ldm	r3, {r0, r1, r2, r3}
 387              	.LVL32:
 388              		.loc 1 152 12 view .LVU119
 389 0006 8CE80F00 		stm	ip, {r0, r1, r2, r3}
 153:SYS/memng/mmu.c **** }
 390              		.loc 1 153 1 view .LVU120
 391 000a 6046     		mov	r0, ip
 392 000c 7047     		bx	lr
 393              	.L25:
 394 000e 00BF     		.align	2
 395              	.L24:
 396 0010 00000000 		.word	.LANCHOR1
 397              		.cfi_endproc
 398              	.LFE7:
 400              		.section	.bss.MMU_Buff,"aw",%nobits
 401              		.align	3
 404              	MMU_Buff:
 405 0000 00000000 		.space	65536
 405      00000000 
 405      00000000 
 405      00000000 
 405      00000000 
 406              		.section	.bss.MMU_End,"aw",%nobits
 407              		.align	2
 408              		.set	.LANCHOR2,. + 0
ARM GAS  C:\Users\huav\AppData\Local\Temp\ccNQUWMH.s 			page 11


 411              	MMU_End:
 412 0000 00000000 		.space	4
 413              		.section	.bss.MMU_Start,"aw",%nobits
 414              		.align	2
 415              		.set	.LANCHOR0,. + 0
 418              	MMU_Start:
 419 0000 00000000 		.space	8
 419      00000000 
 420              		.section	.data.Mem_Monitor,"aw"
 421              		.align	2
 422              		.set	.LANCHOR1,. + 0
 425              	Mem_Monitor:
 426 0000 00000000 		.word	0
 427 0004 00000000 		.word	0
 428 0008 00000100 		.word	65536
 429 000c 00       		.byte	0
 430 000d 000000   		.space	3
 431              		.text
 432              	.Letext0:
 433              		.file 2 "c:\\program files (x86)\\gnu arm embedded toolchain\\10 2020-q4-major\\arm-none-eabi\\inc
 434              		.file 3 "c:\\program files (x86)\\gnu arm embedded toolchain\\10 2020-q4-major\\arm-none-eabi\\inc
 435              		.file 4 "c:\\program files (x86)\\gnu arm embedded toolchain\\10 2020-q4-major\\lib\\gcc\\arm-none
 436              		.file 5 "SYS/memng/mmu.h"
ARM GAS  C:\Users\huav\AppData\Local\Temp\ccNQUWMH.s 			page 12


DEFINED SYMBOLS
                            *ABS*:00000000 mmu.c
C:\Users\huav\AppData\Local\Temp\ccNQUWMH.s:18     .text.MMU_Init:00000000 $t
C:\Users\huav\AppData\Local\Temp\ccNQUWMH.s:25     .text.MMU_Init:00000000 MMU_Init
C:\Users\huav\AppData\Local\Temp\ccNQUWMH.s:126    .text.MMU_Init:00000040 $d
C:\Users\huav\AppData\Local\Temp\ccNQUWMH.s:404    .bss.MMU_Buff:00000000 MMU_Buff
C:\Users\huav\AppData\Local\Temp\ccNQUWMH.s:134    .text.MMU_Malloc:00000000 $t
C:\Users\huav\AppData\Local\Temp\ccNQUWMH.s:141    .text.MMU_Malloc:00000000 MMU_Malloc
C:\Users\huav\AppData\Local\Temp\ccNQUWMH.s:327    .text.MMU_Malloc:00000084 $d
C:\Users\huav\AppData\Local\Temp\ccNQUWMH.s:334    .text.MMU_Free:00000000 $t
C:\Users\huav\AppData\Local\Temp\ccNQUWMH.s:341    .text.MMU_Free:00000000 MMU_Free
C:\Users\huav\AppData\Local\Temp\ccNQUWMH.s:366    .text.MMU_Info:00000000 $t
C:\Users\huav\AppData\Local\Temp\ccNQUWMH.s:373    .text.MMU_Info:00000000 MMU_Info
C:\Users\huav\AppData\Local\Temp\ccNQUWMH.s:396    .text.MMU_Info:00000010 $d
C:\Users\huav\AppData\Local\Temp\ccNQUWMH.s:401    .bss.MMU_Buff:00000000 $d
C:\Users\huav\AppData\Local\Temp\ccNQUWMH.s:407    .bss.MMU_End:00000000 $d
C:\Users\huav\AppData\Local\Temp\ccNQUWMH.s:411    .bss.MMU_End:00000000 MMU_End
C:\Users\huav\AppData\Local\Temp\ccNQUWMH.s:414    .bss.MMU_Start:00000000 $d
C:\Users\huav\AppData\Local\Temp\ccNQUWMH.s:418    .bss.MMU_Start:00000000 MMU_Start
C:\Users\huav\AppData\Local\Temp\ccNQUWMH.s:421    .data.Mem_Monitor:00000000 $d
C:\Users\huav\AppData\Local\Temp\ccNQUWMH.s:425    .data.Mem_Monitor:00000000 Mem_Monitor

NO UNDEFINED SYMBOLS
