ARM GAS  /var/folders/lx/hc4sn_b53233_zkc9xbbl97r0000gp/T//ccx4iSPO.s 			page 1


   1              		.cpu cortex-m4
   2              		.eabi_attribute 27, 1
   3              		.eabi_attribute 28, 1
   4              		.eabi_attribute 20, 1
   5              		.eabi_attribute 21, 1
   6              		.eabi_attribute 23, 3
   7              		.eabi_attribute 24, 1
   8              		.eabi_attribute 25, 1
   9              		.eabi_attribute 26, 1
  10              		.eabi_attribute 30, 1
  11              		.eabi_attribute 34, 1
  12              		.eabi_attribute 18, 4
  13              		.file	"mmu.c"
  14              		.text
  15              	.Ltext0:
  16              		.cfi_sections	.debug_frame
  17              		.section	.text.MMU_Init,"ax",%progbits
  18              		.align	1
  19              		.arch armv7e-m
  20              		.syntax unified
  21              		.thumb
  22              		.thumb_func
  23              		.fpu fpv4-sp-d16
  25              	MMU_Init:
  26              	.LFB3:
  27              		.file 1 "SYS/memng/mmu.c"
   1:SYS/memng/mmu.c **** /*
   2:SYS/memng/mmu.c **** * code modify from freertos
   3:SYS/memng/mmu.c **** * i can`t create my own memory manager module
   4:SYS/memng/mmu.c **** * sorry guys maybe one day but not now
   5:SYS/memng/mmu.c **** * sad story
   6:SYS/memng/mmu.c **** */
   7:SYS/memng/mmu.c **** #include "mmu.h"
   8:SYS/memng/mmu.c **** #include <string.h>
   9:SYS/memng/mmu.c **** #include <stdio.h>
  10:SYS/memng/mmu.c **** 
  11:SYS/memng/mmu.c **** static Mem_Monitor_TypeDef Mem_Monitor = {
  12:SYS/memng/mmu.c ****     .remain_size = 0,
  13:SYS/memng/mmu.c ****     .total_size = PHY_MEM_SIZE,
  14:SYS/memng/mmu.c ****     .used_size = 0,
  15:SYS/memng/mmu.c ****     .init = false,
  16:SYS/memng/mmu.c **** };
  17:SYS/memng/mmu.c **** 
  18:SYS/memng/mmu.c **** static uint8_t MMU_Buff[PHY_MEM_SIZE] __attribute__((aligned(BLOCK_ALIGMENT_SIZE))) __attribute__((
  19:SYS/memng/mmu.c **** 
  20:SYS/memng/mmu.c **** static MemBlock_TypeDef MMU_Start;
  21:SYS/memng/mmu.c **** static MemBlock_TypeDef *MMU_End = NULL;
  22:SYS/memng/mmu.c **** 
  23:SYS/memng/mmu.c **** /* memory block initial */
  24:SYS/memng/mmu.c **** static void MMU_Init(void)
  25:SYS/memng/mmu.c **** {
  28              		.loc 1 25 1 view -0
  29              		.cfi_startproc
  30              		@ args = 0, pretend = 0, frame = 0
  31              		@ frame_needed = 0, uses_anonymous_args = 0
  32              		@ link register save eliminated.
  26:SYS/memng/mmu.c ****     MemBlock_TypeDef *FirstFreeBlock;
ARM GAS  /var/folders/lx/hc4sn_b53233_zkc9xbbl97r0000gp/T//ccx4iSPO.s 			page 2


  33              		.loc 1 26 5 view .LVU1
  27:SYS/memng/mmu.c ****     uint32_t index = 0;
  34              		.loc 1 27 5 view .LVU2
  35              	.LVL0:
  28:SYS/memng/mmu.c ****     MemAddr addr = 0;
  36              		.loc 1 28 5 view .LVU3
  29:SYS/memng/mmu.c ****     uint8_t *aliged_addr = 0;
  37              		.loc 1 29 5 view .LVU4
  30:SYS/memng/mmu.c **** 
  31:SYS/memng/mmu.c ****     /* init memory state table */
  32:SYS/memng/mmu.c ****     for (index = 0; index < PHY_MEM_SIZE; index++)
  38              		.loc 1 32 5 view .LVU5
  39              		.loc 1 32 16 is_stmt 0 view .LVU6
  40 0000 0023     		movs	r3, #0
  41              		.loc 1 32 5 view .LVU7
  42 0002 03E0     		b	.L2
  43              	.LVL1:
  44              	.L3:
  33:SYS/memng/mmu.c ****     {
  34:SYS/memng/mmu.c ****         MMU_Buff[index] = 0;
  45              		.loc 1 34 9 is_stmt 1 discriminator 3 view .LVU8
  46              		.loc 1 34 25 is_stmt 0 discriminator 3 view .LVU9
  47 0004 0C4A     		ldr	r2, .L4
  48 0006 0021     		movs	r1, #0
  49 0008 D154     		strb	r1, [r2, r3]
  32:SYS/memng/mmu.c ****     {
  50              		.loc 1 32 43 is_stmt 1 discriminator 3 view .LVU10
  32:SYS/memng/mmu.c ****     {
  51              		.loc 1 32 48 is_stmt 0 discriminator 3 view .LVU11
  52 000a 0133     		adds	r3, r3, #1
  53              	.LVL2:
  54              	.L2:
  32:SYS/memng/mmu.c ****     {
  55              		.loc 1 32 21 is_stmt 1 discriminator 1 view .LVU12
  32:SYS/memng/mmu.c ****     {
  56              		.loc 1 32 5 is_stmt 0 discriminator 1 view .LVU13
  57 000c B3F5803F 		cmp	r3, #65536
  58 0010 F8D3     		bcc	.L3
  35:SYS/memng/mmu.c ****     }
  36:SYS/memng/mmu.c **** 
  37:SYS/memng/mmu.c ****     /* aligment mmu address */
  38:SYS/memng/mmu.c ****     addr = (MemAddr)MMU_Buff;
  59              		.loc 1 38 5 is_stmt 1 view .LVU14
  60              		.loc 1 38 10 is_stmt 0 view .LVU15
  61 0012 094A     		ldr	r2, .L4
  62              	.LVL3:
  39:SYS/memng/mmu.c **** 
  40:SYS/memng/mmu.c ****     if (addr & (BLOCK_ALIGMENT_SIZE - 1))
  63              		.loc 1 40 5 is_stmt 1 view .LVU16
  41:SYS/memng/mmu.c ****     {
  42:SYS/memng/mmu.c ****         addr += BLOCK_ALIGMENT_SIZE - addr & (BLOCK_ALIGMENT_SIZE - 1);
  43:SYS/memng/mmu.c ****         addr &= ~((size_t)(BLOCK_ALIGMENT_SIZE - 1));
  44:SYS/memng/mmu.c **** 
  45:SYS/memng/mmu.c ****         Mem_Monitor.total_size -= addr - (MemAddr)MMU_Buff;
  46:SYS/memng/mmu.c ****         Mem_Monitor.remain_size = Mem_Monitor.total_size;
  47:SYS/memng/mmu.c ****     }
  48:SYS/memng/mmu.c **** 
ARM GAS  /var/folders/lx/hc4sn_b53233_zkc9xbbl97r0000gp/T//ccx4iSPO.s 			page 3


  49:SYS/memng/mmu.c ****     aliged_addr = (uint8_t *)addr;
  64              		.loc 1 49 5 view .LVU17
  50:SYS/memng/mmu.c **** 
  51:SYS/memng/mmu.c ****     MMU_Start.nxt = (void *)aliged_addr;
  65              		.loc 1 51 5 view .LVU18
  66              		.loc 1 51 19 is_stmt 0 view .LVU19
  67 0014 094B     		ldr	r3, .L4+4
  68              	.LVL4:
  69              		.loc 1 51 19 view .LVU20
  70 0016 1A60     		str	r2, [r3]
  52:SYS/memng/mmu.c ****     MMU_Start.len = 0;
  71              		.loc 1 52 5 is_stmt 1 view .LVU21
  72              		.loc 1 52 19 is_stmt 0 view .LVU22
  73 0018 0021     		movs	r1, #0
  74 001a 5960     		str	r1, [r3, #4]
  53:SYS/memng/mmu.c **** 
  54:SYS/memng/mmu.c ****     addr = ((MemAddr)aliged_addr) + Mem_Monitor.total_size;
  75              		.loc 1 54 5 is_stmt 1 view .LVU23
  76              		.loc 1 54 48 is_stmt 0 view .LVU24
  77 001c 084B     		ldr	r3, .L4+8
  78 001e 9B68     		ldr	r3, [r3, #8]
  79              		.loc 1 54 10 view .LVU25
  80 0020 1344     		add	r3, r3, r2
  81              	.LVL5:
  55:SYS/memng/mmu.c ****     addr -= sizeof(MemBlock_TypeDef);
  82              		.loc 1 55 5 is_stmt 1 view .LVU26
  83              		.loc 1 55 10 is_stmt 0 view .LVU27
  84 0022 083B     		subs	r3, r3, #8
  85              	.LVL6:
  56:SYS/memng/mmu.c ****     addr &= ~((MemAddr)(BLOCK_ALIGMENT_SIZE - 1));
  86              		.loc 1 56 5 is_stmt 1 view .LVU28
  87              		.loc 1 56 10 is_stmt 0 view .LVU29
  88 0024 23F00703 		bic	r3, r3, #7
  89              	.LVL7:
  57:SYS/memng/mmu.c **** 
  58:SYS/memng/mmu.c ****     MMU_End = (void *)addr;
  90              		.loc 1 58 5 is_stmt 1 view .LVU30
  91              		.loc 1 58 13 is_stmt 0 view .LVU31
  92 0028 0648     		ldr	r0, .L4+12
  93 002a 0360     		str	r3, [r0]
  59:SYS/memng/mmu.c ****     MMU_End->nxt = NULL;
  94              		.loc 1 59 5 is_stmt 1 view .LVU32
  95              		.loc 1 59 18 is_stmt 0 view .LVU33
  96 002c 1960     		str	r1, [r3]
  60:SYS/memng/mmu.c ****     MMU_End->len = 0;
  97              		.loc 1 60 5 is_stmt 1 view .LVU34
  98              		.loc 1 60 18 is_stmt 0 view .LVU35
  99 002e 5960     		str	r1, [r3, #4]
  61:SYS/memng/mmu.c **** 
  62:SYS/memng/mmu.c ****     FirstFreeBlock = (void *)aliged_addr;
 100              		.loc 1 62 5 is_stmt 1 view .LVU36
 101              	.LVL8:
  63:SYS/memng/mmu.c ****     FirstFreeBlock->len = addr - (size_t)FirstFreeBlock;
 102              		.loc 1 63 5 view .LVU37
 103              		.loc 1 63 32 is_stmt 0 view .LVU38
 104 0030 991A     		subs	r1, r3, r2
 105              		.loc 1 63 25 view .LVU39
ARM GAS  /var/folders/lx/hc4sn_b53233_zkc9xbbl97r0000gp/T//ccx4iSPO.s 			page 4


 106 0032 5160     		str	r1, [r2, #4]
  64:SYS/memng/mmu.c ****     FirstFreeBlock->nxt = MMU_End;
 107              		.loc 1 64 5 is_stmt 1 view .LVU40
 108              		.loc 1 64 25 is_stmt 0 view .LVU41
 109 0034 1360     		str	r3, [r2]
  65:SYS/memng/mmu.c **** }
 110              		.loc 1 65 1 view .LVU42
 111 0036 7047     		bx	lr
 112              	.L5:
 113              		.align	2
 114              	.L4:
 115 0038 00000000 		.word	MMU_Buff
 116 003c 00000000 		.word	.LANCHOR0
 117 0040 00000000 		.word	.LANCHOR1
 118 0044 00000000 		.word	.LANCHOR2
 119              		.cfi_endproc
 120              	.LFE3:
 122              		.section	.text.MMU_Malloc,"ax",%progbits
 123              		.align	1
 124              		.global	MMU_Malloc
 125              		.syntax unified
 126              		.thumb
 127              		.thumb_func
 128              		.fpu fpv4-sp-d16
 130              	MMU_Malloc:
 131              	.LVL9:
 132              	.LFB5:
  66:SYS/memng/mmu.c **** 
  67:SYS/memng/mmu.c **** static void MMU_UpdateFreeBlock(MemBlock_TypeDef *block)
  68:SYS/memng/mmu.c **** {
  69:SYS/memng/mmu.c ****     if (MMU_Start.nxt == NULL)
  70:SYS/memng/mmu.c ****     {
  71:SYS/memng/mmu.c ****     }
  72:SYS/memng/mmu.c **** }
  73:SYS/memng/mmu.c **** 
  74:SYS/memng/mmu.c **** /* memory manager unit malloc */
  75:SYS/memng/mmu.c **** void *MMU_Malloc(uint32_t size)
  76:SYS/memng/mmu.c **** {
 133              		.loc 1 76 1 is_stmt 1 view -0
 134              		.cfi_startproc
 135              		@ args = 0, pretend = 0, frame = 0
 136              		@ frame_needed = 0, uses_anonymous_args = 0
 137              		.loc 1 76 1 is_stmt 0 view .LVU44
 138 0000 10B5     		push	{r4, lr}
 139              	.LCFI0:
 140              		.cfi_def_cfa_offset 8
 141              		.cfi_offset 4, -8
 142              		.cfi_offset 14, -4
 143 0002 0446     		mov	r4, r0
  77:SYS/memng/mmu.c ****     uint32_t req_block_num = 0;
 144              		.loc 1 77 5 is_stmt 1 view .LVU45
 145              	.LVL10:
  78:SYS/memng/mmu.c ****     uint32_t req_byte_size = 0;
 146              		.loc 1 78 5 view .LVU46
  79:SYS/memng/mmu.c ****     void *mem_addr;
 147              		.loc 1 79 5 view .LVU47
  80:SYS/memng/mmu.c **** 
ARM GAS  /var/folders/lx/hc4sn_b53233_zkc9xbbl97r0000gp/T//ccx4iSPO.s 			page 5


  81:SYS/memng/mmu.c ****     if (!Mem_Monitor.init)
 148              		.loc 1 81 5 view .LVU48
 149              		.loc 1 81 21 is_stmt 0 view .LVU49
 150 0004 114B     		ldr	r3, .L13
 151 0006 1B7B     		ldrb	r3, [r3, #12]	@ zero_extendqisi2
 152              		.loc 1 81 8 view .LVU50
 153 0008 D3B1     		cbz	r3, .L12
 154              	.LVL11:
 155              	.L7:
  82:SYS/memng/mmu.c ****     {
  83:SYS/memng/mmu.c ****         MMU_Init();
  84:SYS/memng/mmu.c **** 
  85:SYS/memng/mmu.c ****         Mem_Monitor.init = true;
  86:SYS/memng/mmu.c ****     }
  87:SYS/memng/mmu.c **** 
  88:SYS/memng/mmu.c ****     if (Mem_Monitor.init)
 156              		.loc 1 88 5 is_stmt 1 view .LVU51
 157              		.loc 1 88 20 is_stmt 0 view .LVU52
 158 000a 104B     		ldr	r3, .L13
 159 000c 1B7B     		ldrb	r3, [r3, #12]	@ zero_extendqisi2
 160              		.loc 1 88 8 view .LVU53
 161 000e ABB1     		cbz	r3, .L8
  89:SYS/memng/mmu.c ****     {
  90:SYS/memng/mmu.c ****         __asm("cpsid i");
 162              		.loc 1 90 9 is_stmt 1 view .LVU54
 163              		.syntax unified
 164              	@ 90 "SYS/memng/mmu.c" 1
 165 0010 72B6     		cpsid i
 166              	@ 0 "" 2
  91:SYS/memng/mmu.c **** 
  92:SYS/memng/mmu.c ****         if ((size > Mem_Monitor.remain_size) || (size == 0))
 167              		.loc 1 92 9 view .LVU55
 168              		.loc 1 92 32 is_stmt 0 view .LVU56
 169              		.thumb
 170              		.syntax unified
 171 0012 0E4B     		ldr	r3, .L13
 172 0014 5B68     		ldr	r3, [r3, #4]
 173              		.loc 1 92 12 view .LVU57
 174 0016 A342     		cmp	r3, r4
 175 0018 0FD3     		bcc	.L9
 176              		.loc 1 92 46 discriminator 1 view .LVU58
 177 001a 74B1     		cbz	r4, .L9
  93:SYS/memng/mmu.c ****         {
  94:SYS/memng/mmu.c ****             /* illegal parameter input */
  95:SYS/memng/mmu.c ****             mem_addr = NULL;
  96:SYS/memng/mmu.c ****         }
  97:SYS/memng/mmu.c ****         else
  98:SYS/memng/mmu.c ****         {
  99:SYS/memng/mmu.c ****             req_block_num = size / BLOCK_ALIGMENT_SIZE;
 178              		.loc 1 99 13 is_stmt 1 view .LVU59
 179              		.loc 1 99 27 is_stmt 0 view .LVU60
 180 001c E208     		lsrs	r2, r4, #3
 181              	.LVL12:
 100:SYS/memng/mmu.c ****             if (size % BLOCK_ALIGMENT_SIZE)
 182              		.loc 1 100 13 is_stmt 1 view .LVU61
 183              		.loc 1 100 16 is_stmt 0 view .LVU62
 184 001e 14F0070F 		tst	r4, #7
ARM GAS  /var/folders/lx/hc4sn_b53233_zkc9xbbl97r0000gp/T//ccx4iSPO.s 			page 6


 185 0022 00D0     		beq	.L10
 101:SYS/memng/mmu.c ****             {
 102:SYS/memng/mmu.c ****                 req_block_num++;
 186              		.loc 1 102 17 is_stmt 1 view .LVU63
 187              		.loc 1 102 30 is_stmt 0 view .LVU64
 188 0024 0132     		adds	r2, r2, #1
 189              	.LVL13:
 190              	.L10:
 103:SYS/memng/mmu.c ****             }
 104:SYS/memng/mmu.c **** 
 105:SYS/memng/mmu.c ****             req_byte_size = req_block_num * BLOCK_ALIGMENT_SIZE;
 191              		.loc 1 105 13 is_stmt 1 view .LVU65
 106:SYS/memng/mmu.c **** 
 107:SYS/memng/mmu.c ****             if ((req_byte_size > 0) && (req_byte_size <= Mem_Monitor.remain_size))
 192              		.loc 1 107 13 view .LVU66
 193              		.loc 1 107 16 is_stmt 0 view .LVU67
 194 0026 D200     		lsls	r2, r2, #3
 195              	.LVL14:
 196              		.loc 1 107 16 view .LVU68
 197 0028 07D0     		beq	.L9
 198              		.loc 1 107 37 discriminator 1 view .LVU69
 199 002a 9342     		cmp	r3, r2
 200 002c 05D3     		bcc	.L9
 108:SYS/memng/mmu.c ****             {
 109:SYS/memng/mmu.c ****                 /* match the size of block */
 110:SYS/memng/mmu.c **** 
 111:SYS/memng/mmu.c ****                 Mem_Monitor.remain_size -= req_byte_size;
 201              		.loc 1 111 17 is_stmt 1 view .LVU70
 202              		.loc 1 111 41 is_stmt 0 view .LVU71
 203 002e 0749     		ldr	r1, .L13
 204 0030 9B1A     		subs	r3, r3, r2
 205 0032 4B60     		str	r3, [r1, #4]
 112:SYS/memng/mmu.c ****                 Mem_Monitor.used_size += req_byte_size;
 206              		.loc 1 112 17 is_stmt 1 view .LVU72
 207              		.loc 1 112 39 is_stmt 0 view .LVU73
 208 0034 0B68     		ldr	r3, [r1]
 209 0036 1A44     		add	r2, r2, r3
 210              	.LVL15:
 211              		.loc 1 112 39 view .LVU74
 212 0038 0A60     		str	r2, [r1]
 213              	.L9:
 214              	.LVL16:
 113:SYS/memng/mmu.c **** 
 114:SYS/memng/mmu.c ****                 //mem_addr = ;
 115:SYS/memng/mmu.c ****             }
 116:SYS/memng/mmu.c ****             else
 117:SYS/memng/mmu.c ****                 mem_addr = NULL;
 118:SYS/memng/mmu.c ****         }
 119:SYS/memng/mmu.c **** 
 120:SYS/memng/mmu.c ****         __asm("cpsie i");
 215              		.loc 1 120 9 is_stmt 1 view .LVU75
 216              		.syntax unified
 217              	@ 120 "SYS/memng/mmu.c" 1
 218 003a 62B6     		cpsie i
 219              	@ 0 "" 2
 220              	.LVL17:
 221              		.thumb
ARM GAS  /var/folders/lx/hc4sn_b53233_zkc9xbbl97r0000gp/T//ccx4iSPO.s 			page 7


 222              		.syntax unified
 223              	.L8:
 121:SYS/memng/mmu.c ****     }
 122:SYS/memng/mmu.c **** 
 123:SYS/memng/mmu.c ****     return mem_addr;
 224              		.loc 1 123 5 view .LVU76
 124:SYS/memng/mmu.c **** }
 225              		.loc 1 124 1 is_stmt 0 view .LVU77
 226 003c 0020     		movs	r0, #0
 227 003e 10BD     		pop	{r4, pc}
 228              	.LVL18:
 229              	.L12:
  83:SYS/memng/mmu.c **** 
 230              		.loc 1 83 9 is_stmt 1 view .LVU78
 231 0040 FFF7FEFF 		bl	MMU_Init
 232              	.LVL19:
  85:SYS/memng/mmu.c ****     }
 233              		.loc 1 85 9 view .LVU79
  85:SYS/memng/mmu.c ****     }
 234              		.loc 1 85 26 is_stmt 0 view .LVU80
 235 0044 014B     		ldr	r3, .L13
 236 0046 0122     		movs	r2, #1
 237 0048 1A73     		strb	r2, [r3, #12]
 238 004a DEE7     		b	.L7
 239              	.L14:
 240              		.align	2
 241              	.L13:
 242 004c 00000000 		.word	.LANCHOR1
 243              		.cfi_endproc
 244              	.LFE5:
 246              		.section	.text.MMU_Free,"ax",%progbits
 247              		.align	1
 248              		.global	MMU_Free
 249              		.syntax unified
 250              		.thumb
 251              		.thumb_func
 252              		.fpu fpv4-sp-d16
 254              	MMU_Free:
 255              	.LVL20:
 256              	.LFB6:
 125:SYS/memng/mmu.c **** 
 126:SYS/memng/mmu.c **** /* memory manager unit free */
 127:SYS/memng/mmu.c **** void MMU_Free(void *ptr)
 128:SYS/memng/mmu.c **** {
 257              		.loc 1 128 1 is_stmt 1 view -0
 258              		.cfi_startproc
 259              		@ args = 0, pretend = 0, frame = 0
 260              		@ frame_needed = 0, uses_anonymous_args = 0
 261              		@ link register save eliminated.
 129:SYS/memng/mmu.c ****     __asm("cpsid i");
 262              		.loc 1 129 5 view .LVU82
 263              		.syntax unified
 264              	@ 129 "SYS/memng/mmu.c" 1
 265 0000 72B6     		cpsid i
 266              	@ 0 "" 2
 130:SYS/memng/mmu.c **** 
 131:SYS/memng/mmu.c ****     __asm("cpsie i");
ARM GAS  /var/folders/lx/hc4sn_b53233_zkc9xbbl97r0000gp/T//ccx4iSPO.s 			page 8


 267              		.loc 1 131 5 view .LVU83
 268              	@ 131 "SYS/memng/mmu.c" 1
 269 0002 62B6     		cpsie i
 270              	@ 0 "" 2
 132:SYS/memng/mmu.c **** }
 271              		.loc 1 132 1 is_stmt 0 view .LVU84
 272              		.thumb
 273              		.syntax unified
 274 0004 7047     		bx	lr
 275              		.cfi_endproc
 276              	.LFE6:
 278              		.section	.text.MMU_Info,"ax",%progbits
 279              		.align	1
 280              		.global	MMU_Info
 281              		.syntax unified
 282              		.thumb
 283              		.thumb_func
 284              		.fpu fpv4-sp-d16
 286              	MMU_Info:
 287              	.LVL21:
 288              	.LFB7:
 133:SYS/memng/mmu.c **** 
 134:SYS/memng/mmu.c **** Mem_Monitor_TypeDef MMU_Info(void)
 135:SYS/memng/mmu.c **** {
 289              		.loc 1 135 1 is_stmt 1 view -0
 290              		.cfi_startproc
 291              		@ args = 0, pretend = 0, frame = 0
 292              		@ frame_needed = 0, uses_anonymous_args = 0
 293              		@ link register save eliminated.
 294              		.loc 1 135 1 is_stmt 0 view .LVU86
 295 0000 8446     		mov	ip, r0
 136:SYS/memng/mmu.c ****     return Mem_Monitor;
 296              		.loc 1 136 5 is_stmt 1 view .LVU87
 297              		.loc 1 136 12 is_stmt 0 view .LVU88
 298 0002 034B     		ldr	r3, .L17
 299 0004 0FCB     		ldm	r3, {r0, r1, r2, r3}
 300              	.LVL22:
 301              		.loc 1 136 12 view .LVU89
 302 0006 8CE80F00 		stm	ip, {r0, r1, r2, r3}
 137:SYS/memng/mmu.c **** }
 303              		.loc 1 137 1 view .LVU90
 304 000a 6046     		mov	r0, ip
 305 000c 7047     		bx	lr
 306              	.L18:
 307 000e 00BF     		.align	2
 308              	.L17:
 309 0010 00000000 		.word	.LANCHOR1
 310              		.cfi_endproc
 311              	.LFE7:
 313              		.section	.bss.MMU_Buff,"aw",%nobits
 314              		.align	3
 317              	MMU_Buff:
 318 0000 00000000 		.space	65536
 318      00000000 
 318      00000000 
 318      00000000 
 318      00000000 
ARM GAS  /var/folders/lx/hc4sn_b53233_zkc9xbbl97r0000gp/T//ccx4iSPO.s 			page 9


 319              		.section	.bss.MMU_End,"aw",%nobits
 320              		.align	2
 321              		.set	.LANCHOR2,. + 0
 324              	MMU_End:
 325 0000 00000000 		.space	4
 326              		.section	.bss.MMU_Start,"aw",%nobits
 327              		.align	2
 328              		.set	.LANCHOR0,. + 0
 331              	MMU_Start:
 332 0000 00000000 		.space	8
 332      00000000 
 333              		.section	.data.Mem_Monitor,"aw"
 334              		.align	2
 335              		.set	.LANCHOR1,. + 0
 338              	Mem_Monitor:
 339 0000 00000000 		.word	0
 340 0004 00000000 		.word	0
 341 0008 00000100 		.word	65536
 342 000c 00       		.byte	0
 343 000d 000000   		.space	3
 344              		.text
 345              	.Letext0:
 346              		.file 2 "/usr/local/arm-none-eabi-gcc/gcc-arm-none-eabi-10-2020-q4-major/arm-none-eabi/include/mac
 347              		.file 3 "/usr/local/arm-none-eabi-gcc/gcc-arm-none-eabi-10-2020-q4-major/arm-none-eabi/include/sys
 348              		.file 4 "/usr/local/arm-none-eabi-gcc/gcc-arm-none-eabi-10-2020-q4-major/lib/gcc/arm-none-eabi/10.
 349              		.file 5 "SYS/memng/mmu.h"
ARM GAS  /var/folders/lx/hc4sn_b53233_zkc9xbbl97r0000gp/T//ccx4iSPO.s 			page 10


DEFINED SYMBOLS
                            *ABS*:0000000000000000 mmu.c
/var/folders/lx/hc4sn_b53233_zkc9xbbl97r0000gp/T//ccx4iSPO.s:18     .text.MMU_Init:0000000000000000 $t
/var/folders/lx/hc4sn_b53233_zkc9xbbl97r0000gp/T//ccx4iSPO.s:25     .text.MMU_Init:0000000000000000 MMU_Init
/var/folders/lx/hc4sn_b53233_zkc9xbbl97r0000gp/T//ccx4iSPO.s:115    .text.MMU_Init:0000000000000038 $d
/var/folders/lx/hc4sn_b53233_zkc9xbbl97r0000gp/T//ccx4iSPO.s:317    .bss.MMU_Buff:0000000000000000 MMU_Buff
/var/folders/lx/hc4sn_b53233_zkc9xbbl97r0000gp/T//ccx4iSPO.s:123    .text.MMU_Malloc:0000000000000000 $t
/var/folders/lx/hc4sn_b53233_zkc9xbbl97r0000gp/T//ccx4iSPO.s:130    .text.MMU_Malloc:0000000000000000 MMU_Malloc
/var/folders/lx/hc4sn_b53233_zkc9xbbl97r0000gp/T//ccx4iSPO.s:242    .text.MMU_Malloc:000000000000004c $d
/var/folders/lx/hc4sn_b53233_zkc9xbbl97r0000gp/T//ccx4iSPO.s:247    .text.MMU_Free:0000000000000000 $t
/var/folders/lx/hc4sn_b53233_zkc9xbbl97r0000gp/T//ccx4iSPO.s:254    .text.MMU_Free:0000000000000000 MMU_Free
/var/folders/lx/hc4sn_b53233_zkc9xbbl97r0000gp/T//ccx4iSPO.s:279    .text.MMU_Info:0000000000000000 $t
/var/folders/lx/hc4sn_b53233_zkc9xbbl97r0000gp/T//ccx4iSPO.s:286    .text.MMU_Info:0000000000000000 MMU_Info
/var/folders/lx/hc4sn_b53233_zkc9xbbl97r0000gp/T//ccx4iSPO.s:309    .text.MMU_Info:0000000000000010 $d
/var/folders/lx/hc4sn_b53233_zkc9xbbl97r0000gp/T//ccx4iSPO.s:314    .bss.MMU_Buff:0000000000000000 $d
/var/folders/lx/hc4sn_b53233_zkc9xbbl97r0000gp/T//ccx4iSPO.s:320    .bss.MMU_End:0000000000000000 $d
/var/folders/lx/hc4sn_b53233_zkc9xbbl97r0000gp/T//ccx4iSPO.s:324    .bss.MMU_End:0000000000000000 MMU_End
/var/folders/lx/hc4sn_b53233_zkc9xbbl97r0000gp/T//ccx4iSPO.s:327    .bss.MMU_Start:0000000000000000 $d
/var/folders/lx/hc4sn_b53233_zkc9xbbl97r0000gp/T//ccx4iSPO.s:331    .bss.MMU_Start:0000000000000000 MMU_Start
/var/folders/lx/hc4sn_b53233_zkc9xbbl97r0000gp/T//ccx4iSPO.s:334    .data.Mem_Monitor:0000000000000000 $d
/var/folders/lx/hc4sn_b53233_zkc9xbbl97r0000gp/T//ccx4iSPO.s:338    .data.Mem_Monitor:0000000000000000 Mem_Monitor

NO UNDEFINED SYMBOLS
