ARM GAS  /var/folders/lx/hc4sn_b53233_zkc9xbbl97r0000gp/T//ccWP0fmF.s 			page 1


   1              		.cpu cortex-m4
   2              		.eabi_attribute 27, 1
   3              		.eabi_attribute 28, 1
   4              		.eabi_attribute 20, 1
   5              		.eabi_attribute 21, 1
   6              		.eabi_attribute 23, 3
   7              		.eabi_attribute 24, 1
   8              		.eabi_attribute 25, 1
   9              		.eabi_attribute 26, 1
  10              		.eabi_attribute 30, 1
  11              		.eabi_attribute 34, 1
  12              		.eabi_attribute 18, 4
  13              		.file	"mmu.c"
  14              		.text
  15              	.Ltext0:
  16              		.cfi_sections	.debug_frame
  17              		.section	.text.MMU_Init,"ax",%progbits
  18              		.align	1
  19              		.arch armv7e-m
  20              		.syntax unified
  21              		.thumb
  22              		.thumb_func
  23              		.fpu fpv4-sp-d16
  25              	MMU_Init:
  26              	.LFB4:
  27              		.file 1 "SYS/memng/mmu.c"
   1:SYS/memng/mmu.c **** /*
   2:SYS/memng/mmu.c **** * copy from freeRTOS
   3:SYS/memng/mmu.c **** * coder : 8_B!T0
   4:SYS/memng/mmu.c **** */
   5:SYS/memng/mmu.c **** #include "mmu.h"
   6:SYS/memng/mmu.c **** 
   7:SYS/memng/mmu.c **** #pragma pack(BLOCK_ALIGMENT_SIZE)
   8:SYS/memng/mmu.c **** uint8_t Mem_Buff[PHY_MEM_SIZE] __attribute__((section(".ccmram")));
   9:SYS/memng/mmu.c **** #pragma pack()
  10:SYS/memng/mmu.c **** 
  11:SYS/memng/mmu.c **** Mem_Monitor_TypeDef Mem_Monitor;
  12:SYS/memng/mmu.c **** 
  13:SYS/memng/mmu.c **** MemBlock_TypeDef MemStart;
  14:SYS/memng/mmu.c **** MemBlock_TypeDef *MemEnd;
  15:SYS/memng/mmu.c **** 
  16:SYS/memng/mmu.c **** static void MMU_InsertFreeBlock(MemBlock_TypeDef *pxBlockToInsert);
  17:SYS/memng/mmu.c **** static void MMU_Init(void);
  18:SYS/memng/mmu.c **** 
  19:SYS/memng/mmu.c **** Mem_Monitor_TypeDef MMU_Get_Monitor(void)
  20:SYS/memng/mmu.c **** {
  21:SYS/memng/mmu.c ****     MemBlock_TypeDef *pxIterator;
  22:SYS/memng/mmu.c **** 
  23:SYS/memng/mmu.c ****     /* comput freeblock number */
  24:SYS/memng/mmu.c ****     for (pxIterator = &MemStart; pxIterator->nxtFree != MemEnd; pxIterator = pxIterator->nxtFree)
  25:SYS/memng/mmu.c ****     {
  26:SYS/memng/mmu.c ****         Mem_Monitor.FreeBlock_Num++;
  27:SYS/memng/mmu.c ****     }
  28:SYS/memng/mmu.c **** 
  29:SYS/memng/mmu.c ****     return Mem_Monitor;
  30:SYS/memng/mmu.c **** }
  31:SYS/memng/mmu.c **** 
ARM GAS  /var/folders/lx/hc4sn_b53233_zkc9xbbl97r0000gp/T//ccWP0fmF.s 			page 2


  32:SYS/memng/mmu.c **** static void MMU_Init(void)
  33:SYS/memng/mmu.c **** {
  28              		.loc 1 33 1 view -0
  29              		.cfi_startproc
  30              		@ args = 0, pretend = 0, frame = 0
  31              		@ frame_needed = 0, uses_anonymous_args = 0
  32              		@ link register save eliminated.
  34:SYS/memng/mmu.c ****     MemBlock_TypeDef *FstFreeBlock_tmp = NULL;
  33              		.loc 1 34 5 view .LVU1
  34              	.LVL0:
  35:SYS/memng/mmu.c **** 
  36:SYS/memng/mmu.c ****     Mem_Monitor.phy_size = PHY_MEM_SIZE;
  35              		.loc 1 36 5 view .LVU2
  36              		.loc 1 36 26 is_stmt 0 view .LVU3
  37 0000 154A     		ldr	r2, .L4
  38 0002 4FF48033 		mov	r3, #65536
  39 0006 1360     		str	r3, [r2]
  37:SYS/memng/mmu.c ****     Mem_Monitor.used_size = 0;
  40              		.loc 1 37 5 is_stmt 1 view .LVU4
  41              		.loc 1 37 27 is_stmt 0 view .LVU5
  42 0008 0023     		movs	r3, #0
  43 000a 5360     		str	r3, [r2, #4]
  38:SYS/memng/mmu.c ****     Mem_Monitor.FreeBlock_Num = 1;
  44              		.loc 1 38 5 is_stmt 1 view .LVU6
  45              		.loc 1 38 31 is_stmt 0 view .LVU7
  46 000c 0121     		movs	r1, #1
  47 000e 9182     		strh	r1, [r2, #20]	@ movhi
  39:SYS/memng/mmu.c **** 
  40:SYS/memng/mmu.c ****     for (uint32_t i = 0; i < PHY_MEM_SIZE; i++)
  48              		.loc 1 40 5 is_stmt 1 view .LVU8
  49              	.LBB2:
  50              		.loc 1 40 10 view .LVU9
  51              	.LVL1:
  52              		.loc 1 40 5 is_stmt 0 view .LVU10
  53 0010 03E0     		b	.L2
  54              	.LVL2:
  55              	.L3:
  41:SYS/memng/mmu.c ****     {
  42:SYS/memng/mmu.c ****         Mem_Buff[i] = 0;
  56              		.loc 1 42 9 is_stmt 1 discriminator 3 view .LVU11
  57              		.loc 1 42 21 is_stmt 0 discriminator 3 view .LVU12
  58 0012 124A     		ldr	r2, .L4+4
  59 0014 0021     		movs	r1, #0
  60 0016 D154     		strb	r1, [r2, r3]
  40:SYS/memng/mmu.c ****     {
  61              		.loc 1 40 44 is_stmt 1 discriminator 3 view .LVU13
  40:SYS/memng/mmu.c ****     {
  62              		.loc 1 40 45 is_stmt 0 discriminator 3 view .LVU14
  63 0018 0133     		adds	r3, r3, #1
  64              	.LVL3:
  65              	.L2:
  40:SYS/memng/mmu.c ****     {
  66              		.loc 1 40 26 is_stmt 1 discriminator 1 view .LVU15
  40:SYS/memng/mmu.c ****     {
  67              		.loc 1 40 5 is_stmt 0 discriminator 1 view .LVU16
  68 001a B3F5803F 		cmp	r3, #65536
  69 001e F8D3     		bcc	.L3
ARM GAS  /var/folders/lx/hc4sn_b53233_zkc9xbbl97r0000gp/T//ccWP0fmF.s 			page 3


  70              	.LBE2:
  43:SYS/memng/mmu.c ****     }
  44:SYS/memng/mmu.c **** 
  45:SYS/memng/mmu.c ****     MemStart.nxtFree = (void *)Mem_Buff;
  71              		.loc 1 45 5 is_stmt 1 view .LVU17
  72              		.loc 1 45 22 is_stmt 0 view .LVU18
  73 0020 0F49     		ldr	r1, .L4+8
  74 0022 0E4A     		ldr	r2, .L4+4
  75 0024 0A60     		str	r2, [r1]
  46:SYS/memng/mmu.c ****     MemStart.size = 0;
  76              		.loc 1 46 5 is_stmt 1 view .LVU19
  77              		.loc 1 46 19 is_stmt 0 view .LVU20
  78 0026 0023     		movs	r3, #0
  79              	.LVL4:
  80              		.loc 1 46 19 view .LVU21
  81 0028 8B80     		strh	r3, [r1, #4]	@ movhi
  47:SYS/memng/mmu.c **** 
  48:SYS/memng/mmu.c ****     MemEnd = (void *)(&Mem_Buff[PHY_MEM_SIZE] - sizeof(MemBlock_TypeDef));
  82              		.loc 1 48 5 is_stmt 1 view .LVU22
  83              		.loc 1 48 12 is_stmt 0 view .LVU23
  84 002a 0E49     		ldr	r1, .L4+12
  85 002c 0E48     		ldr	r0, .L4+16
  86 002e 0160     		str	r1, [r0]
  49:SYS/memng/mmu.c ****     MemEnd->nxtFree = NULL;
  87              		.loc 1 49 5 is_stmt 1 view .LVU24
  88              		.loc 1 49 21 is_stmt 0 view .LVU25
  89 0030 02F57040 		add	r0, r2, #61440
  90 0034 C0F8F83F 		str	r3, [r0, #4088]
  50:SYS/memng/mmu.c ****     MemEnd->size = 0;
  91              		.loc 1 50 5 is_stmt 1 view .LVU26
  92              		.loc 1 50 18 is_stmt 0 view .LVU27
  93 0038 A0F8FC3F 		strh	r3, [r0, #4092]	@ movhi
  51:SYS/memng/mmu.c **** 
  52:SYS/memng/mmu.c ****     Mem_Monitor.total_size = (MemBlock_Addr)MemEnd - (MemBlock_Addr)MemStart.nxtFree;
  94              		.loc 1 52 5 is_stmt 1 view .LVU28
  95              		.loc 1 52 28 is_stmt 0 view .LVU29
  96 003c 064B     		ldr	r3, .L4
  97 003e 4FF6F870 		movw	r0, #65528
  98 0042 D860     		str	r0, [r3, #12]
  53:SYS/memng/mmu.c **** 
  54:SYS/memng/mmu.c ****     FstFreeBlock_tmp = MemStart.nxtFree;
  99              		.loc 1 54 5 is_stmt 1 view .LVU30
 100              	.LVL5:
  55:SYS/memng/mmu.c ****     FstFreeBlock_tmp->nxtFree = MemEnd;
 101              		.loc 1 55 5 view .LVU31
 102              		.loc 1 55 31 is_stmt 0 view .LVU32
 103 0044 1160     		str	r1, [r2]
  56:SYS/memng/mmu.c **** 
  57:SYS/memng/mmu.c ****     Mem_Monitor.total_size -= sizeof(MemBlock_TypeDef);
 104              		.loc 1 57 5 is_stmt 1 view .LVU33
 105              		.loc 1 57 28 is_stmt 0 view .LVU34
 106 0046 4FF6F071 		movw	r1, #65520
 107 004a D960     		str	r1, [r3, #12]
  58:SYS/memng/mmu.c ****     FstFreeBlock_tmp->size = Mem_Monitor.total_size;
 108              		.loc 1 58 5 is_stmt 1 view .LVU35
 109              		.loc 1 58 28 is_stmt 0 view .LVU36
 110 004c 9180     		strh	r1, [r2, #4]	@ movhi
ARM GAS  /var/folders/lx/hc4sn_b53233_zkc9xbbl97r0000gp/T//ccWP0fmF.s 			page 4


  59:SYS/memng/mmu.c **** 
  60:SYS/memng/mmu.c ****     Mem_Monitor.remain_size = Mem_Monitor.total_size;
 111              		.loc 1 60 5 is_stmt 1 view .LVU37
 112              		.loc 1 60 29 is_stmt 0 view .LVU38
 113 004e 9960     		str	r1, [r3, #8]
  61:SYS/memng/mmu.c **** 
  62:SYS/memng/mmu.c ****     Mem_Monitor.init = true;
 114              		.loc 1 62 5 is_stmt 1 view .LVU39
 115              		.loc 1 62 22 is_stmt 0 view .LVU40
 116 0050 0122     		movs	r2, #1
 117 0052 9A75     		strb	r2, [r3, #22]
  63:SYS/memng/mmu.c **** }
 118              		.loc 1 63 1 view .LVU41
 119 0054 7047     		bx	lr
 120              	.L5:
 121 0056 00BF     		.align	2
 122              	.L4:
 123 0058 00000000 		.word	.LANCHOR0
 124 005c 00000000 		.word	Mem_Buff
 125 0060 00000000 		.word	.LANCHOR1
 126 0064 F8FF0000 		.word	Mem_Buff+65528
 127 0068 00000000 		.word	.LANCHOR2
 128              		.cfi_endproc
 129              	.LFE4:
 131              		.section	.text.MMU_InsertFreeBlock,"ax",%progbits
 132              		.align	1
 133              		.syntax unified
 134              		.thumb
 135              		.thumb_func
 136              		.fpu fpv4-sp-d16
 138              	MMU_InsertFreeBlock:
 139              	.LVL6:
 140              	.LFB7:
  64:SYS/memng/mmu.c **** 
  65:SYS/memng/mmu.c **** void *MMU_Malloc(uint16_t size)
  66:SYS/memng/mmu.c **** {
  67:SYS/memng/mmu.c ****     MemBlock_TypeDef *PrvFreeBlock = NULL;
  68:SYS/memng/mmu.c ****     MemBlock_TypeDef *NxtFreeBlock = NULL;
  69:SYS/memng/mmu.c ****     MemBlock_TypeDef *Block_Tmp = NULL;
  70:SYS/memng/mmu.c ****     void *mem_addr = NULL;
  71:SYS/memng/mmu.c **** 
  72:SYS/memng/mmu.c ****     __asm("cpsid i");
  73:SYS/memng/mmu.c **** 
  74:SYS/memng/mmu.c ****     if (!Mem_Monitor.init)
  75:SYS/memng/mmu.c ****     {
  76:SYS/memng/mmu.c ****         MMU_Init();
  77:SYS/memng/mmu.c ****     }
  78:SYS/memng/mmu.c **** 
  79:SYS/memng/mmu.c ****     if (size + sizeof(MemBlock_TypeDef) <= Mem_Monitor.remain_size)
  80:SYS/memng/mmu.c ****     {
  81:SYS/memng/mmu.c ****         size += sizeof(MemBlock_TypeDef);
  82:SYS/memng/mmu.c **** 
  83:SYS/memng/mmu.c ****         /* aligment request byte number */
  84:SYS/memng/mmu.c ****         size += (size % BLOCK_ALIGMENT_SIZE);
  85:SYS/memng/mmu.c **** 
  86:SYS/memng/mmu.c ****         PrvFreeBlock = &MemStart;
  87:SYS/memng/mmu.c ****         Block_Tmp = MemStart.nxtFree;
ARM GAS  /var/folders/lx/hc4sn_b53233_zkc9xbbl97r0000gp/T//ccWP0fmF.s 			page 5


  88:SYS/memng/mmu.c ****         while ((Block_Tmp->size < size) && (Block_Tmp->nxtFree != NULL))
  89:SYS/memng/mmu.c ****         {
  90:SYS/memng/mmu.c ****             PrvFreeBlock = Block_Tmp;
  91:SYS/memng/mmu.c ****             Block_Tmp = Block_Tmp->nxtFree;
  92:SYS/memng/mmu.c ****         }
  93:SYS/memng/mmu.c **** 
  94:SYS/memng/mmu.c ****         if (Block_Tmp != MemEnd)
  95:SYS/memng/mmu.c ****         {
  96:SYS/memng/mmu.c ****             mem_addr = (void *)(((uint8_t *)Block_Tmp) + sizeof(MemBlock_TypeDef));
  97:SYS/memng/mmu.c **** 
  98:SYS/memng/mmu.c ****             PrvFreeBlock->nxtFree = Block_Tmp->nxtFree;
  99:SYS/memng/mmu.c **** 
 100:SYS/memng/mmu.c ****             if ((Block_Tmp->size - size) > MINIMUM_BLOCK_SIZE)
 101:SYS/memng/mmu.c ****             {
 102:SYS/memng/mmu.c ****                 NxtFreeBlock = (void *)(((uint8_t *)Block_Tmp) + size);
 103:SYS/memng/mmu.c ****                 NxtFreeBlock->size = Block_Tmp->size - size - sizeof(MemBlock_TypeDef);
 104:SYS/memng/mmu.c ****                 Block_Tmp->size = size;
 105:SYS/memng/mmu.c ****             }
 106:SYS/memng/mmu.c **** 
 107:SYS/memng/mmu.c ****             Mem_Monitor.remain_size -= size;
 108:SYS/memng/mmu.c ****             Mem_Monitor.used_size += size;
 109:SYS/memng/mmu.c **** 
 110:SYS/memng/mmu.c ****             MMU_InsertFreeBlock(NxtFreeBlock);
 111:SYS/memng/mmu.c **** 
 112:SYS/memng/mmu.c ****             Block_Tmp->nxtFree = NULL;
 113:SYS/memng/mmu.c ****         }
 114:SYS/memng/mmu.c ****     }
 115:SYS/memng/mmu.c **** 
 116:SYS/memng/mmu.c ****     __asm("cpsie i");
 117:SYS/memng/mmu.c **** 
 118:SYS/memng/mmu.c ****     Mem_Monitor.FreeBlock = &MemStart;
 119:SYS/memng/mmu.c **** 
 120:SYS/memng/mmu.c ****     return mem_addr;
 121:SYS/memng/mmu.c **** }
 122:SYS/memng/mmu.c **** 
 123:SYS/memng/mmu.c **** void MMU_Free(void *ptr)
 124:SYS/memng/mmu.c **** {
 125:SYS/memng/mmu.c ****     uint8_t *puc = (uint8_t *)ptr;
 126:SYS/memng/mmu.c ****     MemBlock_TypeDef *pxLink;
 127:SYS/memng/mmu.c **** 
 128:SYS/memng/mmu.c ****     if (ptr != NULL)
 129:SYS/memng/mmu.c ****     {
 130:SYS/memng/mmu.c ****         /* The memory being freed will have an BlockLink_t structure immediately
 131:SYS/memng/mmu.c **** 		before it. */
 132:SYS/memng/mmu.c ****         puc -= sizeof(MemBlock_TypeDef);
 133:SYS/memng/mmu.c **** 
 134:SYS/memng/mmu.c ****         /* This casting is to keep the compiler from issuing warnings. */
 135:SYS/memng/mmu.c ****         pxLink = (void *)puc;
 136:SYS/memng/mmu.c **** 
 137:SYS/memng/mmu.c ****         if (pxLink->nxtFree == NULL)
 138:SYS/memng/mmu.c ****         {
 139:SYS/memng/mmu.c ****             //pxLink->size &= ~xBlockAllocatedBit;
 140:SYS/memng/mmu.c **** 
 141:SYS/memng/mmu.c ****             __asm("cpsid i");
 142:SYS/memng/mmu.c ****             {
 143:SYS/memng/mmu.c ****                 /* Add this block to the list of free blocks. */
 144:SYS/memng/mmu.c ****                 Mem_Monitor.remain_size += pxLink->size;
ARM GAS  /var/folders/lx/hc4sn_b53233_zkc9xbbl97r0000gp/T//ccWP0fmF.s 			page 6


 145:SYS/memng/mmu.c **** 
 146:SYS/memng/mmu.c ****                 //traceFREE(pv, pxLink->size);
 147:SYS/memng/mmu.c ****                 MMU_InsertFreeBlock(((MemBlock_TypeDef *)pxLink));
 148:SYS/memng/mmu.c ****             }
 149:SYS/memng/mmu.c ****             __asm("cpsie i");
 150:SYS/memng/mmu.c ****         }
 151:SYS/memng/mmu.c ****     }
 152:SYS/memng/mmu.c **** }
 153:SYS/memng/mmu.c **** 
 154:SYS/memng/mmu.c **** static void MMU_InsertFreeBlock(MemBlock_TypeDef *pxBlockToInsert)
 155:SYS/memng/mmu.c **** {
 141              		.loc 1 155 1 is_stmt 1 view -0
 142              		.cfi_startproc
 143              		@ args = 0, pretend = 0, frame = 0
 144              		@ frame_needed = 0, uses_anonymous_args = 0
 145              		@ link register save eliminated.
 156:SYS/memng/mmu.c ****     MemBlock_TypeDef *pxIterator;
 146              		.loc 1 156 5 view .LVU43
 157:SYS/memng/mmu.c ****     uint8_t *puc;
 147              		.loc 1 157 5 view .LVU44
 158:SYS/memng/mmu.c **** 
 159:SYS/memng/mmu.c ****     /* Iterate through the list until a block is found that has a higher address
 160:SYS/memng/mmu.c ****      * than the block being inserted. */
 161:SYS/memng/mmu.c ****     for (pxIterator = &MemStart; pxIterator->nxtFree < pxBlockToInsert; pxIterator = pxIterator->nx
 148              		.loc 1 161 5 view .LVU45
 149              		.loc 1 161 21 is_stmt 0 view .LVU46
 150 0000 164B     		ldr	r3, .L21
 151              	.LVL7:
 152              	.L7:
 153              		.loc 1 161 34 is_stmt 1 discriminator 1 view .LVU47
 154 0002 1A46     		mov	r2, r3
 155              		.loc 1 161 44 is_stmt 0 discriminator 1 view .LVU48
 156 0004 1B68     		ldr	r3, [r3]
 157              	.LVL8:
 158              		.loc 1 161 5 discriminator 1 view .LVU49
 159 0006 8342     		cmp	r3, r0
 160 0008 FBD3     		bcc	.L7
 162:SYS/memng/mmu.c ****     {
 163:SYS/memng/mmu.c ****         /* Nothing to do here, just iterate to the right position. */
 164:SYS/memng/mmu.c ****     }
 165:SYS/memng/mmu.c **** 
 166:SYS/memng/mmu.c ****     puc = (uint8_t *)pxIterator;
 161              		.loc 1 166 5 is_stmt 1 view .LVU50
 162              	.LVL9:
 167:SYS/memng/mmu.c **** 
 168:SYS/memng/mmu.c ****     if ((puc + pxIterator->size) == (uint8_t *)pxBlockToInsert)
 163              		.loc 1 168 5 view .LVU51
 164              		.loc 1 168 26 is_stmt 0 view .LVU52
 165 000a 9188     		ldrh	r1, [r2, #4]
 166              		.loc 1 168 14 view .LVU53
 167 000c 02EB010C 		add	ip, r2, r1
 168              		.loc 1 168 8 view .LVU54
 169 0010 8445     		cmp	ip, r0
 170 0012 09D0     		beq	.L19
 171              	.L8:
 169:SYS/memng/mmu.c ****     {
 170:SYS/memng/mmu.c ****         pxIterator->size += pxBlockToInsert->size;
ARM GAS  /var/folders/lx/hc4sn_b53233_zkc9xbbl97r0000gp/T//ccWP0fmF.s 			page 7


 171:SYS/memng/mmu.c ****         pxBlockToInsert = pxIterator;
 172:SYS/memng/mmu.c ****     }
 173:SYS/memng/mmu.c **** 
 174:SYS/memng/mmu.c ****     /* Do the block being inserted, and the block it is being inserted before
 175:SYS/memng/mmu.c **** 	make a contiguous block of memory? */
 176:SYS/memng/mmu.c ****     puc = (uint8_t *)pxBlockToInsert;
 172              		.loc 1 176 5 is_stmt 1 view .LVU55
 173              	.LVL10:
 177:SYS/memng/mmu.c **** 
 178:SYS/memng/mmu.c ****     if ((puc + pxBlockToInsert->size) == (uint8_t *)pxIterator->nxtFree)
 174              		.loc 1 178 5 view .LVU56
 175              		.loc 1 178 31 is_stmt 0 view .LVU57
 176 0014 8188     		ldrh	r1, [r0, #4]
 177              		.loc 1 178 14 view .LVU58
 178 0016 00EB010C 		add	ip, r0, r1
 179              		.loc 1 178 8 view .LVU59
 180 001a 6345     		cmp	r3, ip
 181 001c 09D0     		beq	.L20
 179:SYS/memng/mmu.c ****     {
 180:SYS/memng/mmu.c ****         if (pxIterator->nxtFree != MemEnd)
 181:SYS/memng/mmu.c ****         {
 182:SYS/memng/mmu.c ****             /* Form one big block from the two blocks. */
 183:SYS/memng/mmu.c ****             pxBlockToInsert->size += pxIterator->nxtFree->size;
 184:SYS/memng/mmu.c ****             pxBlockToInsert->nxtFree = pxIterator->nxtFree->nxtFree;
 185:SYS/memng/mmu.c ****         }
 186:SYS/memng/mmu.c ****         else
 187:SYS/memng/mmu.c ****         {
 188:SYS/memng/mmu.c ****             pxBlockToInsert->nxtFree = MemEnd;
 189:SYS/memng/mmu.c ****         }
 190:SYS/memng/mmu.c ****     }
 191:SYS/memng/mmu.c ****     else
 192:SYS/memng/mmu.c ****     {
 193:SYS/memng/mmu.c ****         pxBlockToInsert->nxtFree = pxIterator->nxtFree;
 182              		.loc 1 193 9 is_stmt 1 view .LVU60
 183              		.loc 1 193 34 is_stmt 0 view .LVU61
 184 001e 0360     		str	r3, [r0]
 194:SYS/memng/mmu.c ****     }
 195:SYS/memng/mmu.c **** 
 196:SYS/memng/mmu.c ****     if (pxIterator != pxBlockToInsert)
 185              		.loc 1 196 5 is_stmt 1 view .LVU62
 186              		.loc 1 196 8 is_stmt 0 view .LVU63
 187 0020 9042     		cmp	r0, r2
 188 0022 19D0     		beq	.L16
 197:SYS/memng/mmu.c ****     {
 198:SYS/memng/mmu.c ****         pxIterator->nxtFree = pxBlockToInsert;
 189              		.loc 1 198 9 is_stmt 1 view .LVU64
 190              		.loc 1 198 29 is_stmt 0 view .LVU65
 191 0024 1060     		str	r0, [r2]
 192 0026 7047     		bx	lr
 193              	.LVL11:
 194              	.L19:
 170:SYS/memng/mmu.c ****         pxBlockToInsert = pxIterator;
 195              		.loc 1 170 9 is_stmt 1 view .LVU66
 170:SYS/memng/mmu.c ****         pxBlockToInsert = pxIterator;
 196              		.loc 1 170 44 is_stmt 0 view .LVU67
 197 0028 8088     		ldrh	r0, [r0, #4]
 198              	.LVL12:
ARM GAS  /var/folders/lx/hc4sn_b53233_zkc9xbbl97r0000gp/T//ccWP0fmF.s 			page 8


 170:SYS/memng/mmu.c ****         pxBlockToInsert = pxIterator;
 199              		.loc 1 170 26 view .LVU68
 200 002a 0144     		add	r1, r1, r0
 201 002c 9180     		strh	r1, [r2, #4]	@ movhi
 171:SYS/memng/mmu.c ****     }
 202              		.loc 1 171 9 is_stmt 1 view .LVU69
 203              	.LVL13:
 171:SYS/memng/mmu.c ****     }
 204              		.loc 1 171 25 is_stmt 0 view .LVU70
 205 002e 1046     		mov	r0, r2
 206 0030 F0E7     		b	.L8
 207              	.LVL14:
 208              	.L20:
 155:SYS/memng/mmu.c ****     MemBlock_TypeDef *pxIterator;
 209              		.loc 1 155 1 view .LVU71
 210 0032 10B4     		push	{r4}
 211              	.LCFI0:
 212              		.cfi_def_cfa_offset 4
 213              		.cfi_offset 4, -4
 180:SYS/memng/mmu.c ****         {
 214              		.loc 1 180 9 is_stmt 1 view .LVU72
 180:SYS/memng/mmu.c ****         {
 215              		.loc 1 180 33 is_stmt 0 view .LVU73
 216 0034 0A4C     		ldr	r4, .L21+4
 217 0036 2468     		ldr	r4, [r4]
 180:SYS/memng/mmu.c ****         {
 218              		.loc 1 180 12 view .LVU74
 219 0038 A342     		cmp	r3, r4
 220 003a 0BD0     		beq	.L10
 183:SYS/memng/mmu.c ****             pxBlockToInsert->nxtFree = pxIterator->nxtFree->nxtFree;
 221              		.loc 1 183 13 is_stmt 1 view .LVU75
 183:SYS/memng/mmu.c ****             pxBlockToInsert->nxtFree = pxIterator->nxtFree->nxtFree;
 222              		.loc 1 183 57 is_stmt 0 view .LVU76
 223 003c 9B88     		ldrh	r3, [r3, #4]
 183:SYS/memng/mmu.c ****             pxBlockToInsert->nxtFree = pxIterator->nxtFree->nxtFree;
 224              		.loc 1 183 35 view .LVU77
 225 003e 1944     		add	r1, r1, r3
 226 0040 8180     		strh	r1, [r0, #4]	@ movhi
 184:SYS/memng/mmu.c ****         }
 227              		.loc 1 184 13 is_stmt 1 view .LVU78
 184:SYS/memng/mmu.c ****         }
 228              		.loc 1 184 50 is_stmt 0 view .LVU79
 229 0042 1368     		ldr	r3, [r2]
 184:SYS/memng/mmu.c ****         }
 230              		.loc 1 184 59 view .LVU80
 231 0044 1B68     		ldr	r3, [r3]
 184:SYS/memng/mmu.c ****         }
 232              		.loc 1 184 38 view .LVU81
 233 0046 0360     		str	r3, [r0]
 234              	.L11:
 196:SYS/memng/mmu.c ****     {
 235              		.loc 1 196 5 is_stmt 1 view .LVU82
 196:SYS/memng/mmu.c ****     {
 236              		.loc 1 196 8 is_stmt 0 view .LVU83
 237 0048 9042     		cmp	r0, r2
 238 004a 00D0     		beq	.L6
 239              		.loc 1 198 9 is_stmt 1 view .LVU84
ARM GAS  /var/folders/lx/hc4sn_b53233_zkc9xbbl97r0000gp/T//ccWP0fmF.s 			page 9


 240              		.loc 1 198 29 is_stmt 0 view .LVU85
 241 004c 1060     		str	r0, [r2]
 242              	.L6:
 199:SYS/memng/mmu.c ****     }
 200:SYS/memng/mmu.c **** }
 243              		.loc 1 200 1 view .LVU86
 244 004e 5DF8044B 		ldr	r4, [sp], #4
 245              	.LCFI1:
 246              		.cfi_remember_state
 247              		.cfi_restore 4
 248              		.cfi_def_cfa_offset 0
 249 0052 7047     		bx	lr
 250              	.L10:
 251              	.LCFI2:
 252              		.cfi_restore_state
 188:SYS/memng/mmu.c ****         }
 253              		.loc 1 188 13 is_stmt 1 view .LVU87
 188:SYS/memng/mmu.c ****         }
 254              		.loc 1 188 38 is_stmt 0 view .LVU88
 255 0054 0460     		str	r4, [r0]
 256 0056 F7E7     		b	.L11
 257              	.L16:
 258              	.LCFI3:
 259              		.cfi_def_cfa_offset 0
 260              		.cfi_restore 4
 188:SYS/memng/mmu.c ****         }
 261              		.loc 1 188 38 view .LVU89
 262 0058 7047     		bx	lr
 263              	.L22:
 264 005a 00BF     		.align	2
 265              	.L21:
 266 005c 00000000 		.word	.LANCHOR1
 267 0060 00000000 		.word	.LANCHOR2
 268              		.cfi_endproc
 269              	.LFE7:
 271              		.section	.text.MMU_Get_Monitor,"ax",%progbits
 272              		.align	1
 273              		.global	MMU_Get_Monitor
 274              		.syntax unified
 275              		.thumb
 276              		.thumb_func
 277              		.fpu fpv4-sp-d16
 279              	MMU_Get_Monitor:
 280              	.LVL15:
 281              	.LFB3:
  20:SYS/memng/mmu.c ****     MemBlock_TypeDef *pxIterator;
 282              		.loc 1 20 1 is_stmt 1 view -0
 283              		.cfi_startproc
 284              		@ args = 0, pretend = 0, frame = 0
 285              		@ frame_needed = 0, uses_anonymous_args = 0
  20:SYS/memng/mmu.c ****     MemBlock_TypeDef *pxIterator;
 286              		.loc 1 20 1 is_stmt 0 view .LVU91
 287 0000 10B5     		push	{r4, lr}
 288              	.LCFI4:
 289              		.cfi_def_cfa_offset 8
 290              		.cfi_offset 4, -8
 291              		.cfi_offset 14, -4
ARM GAS  /var/folders/lx/hc4sn_b53233_zkc9xbbl97r0000gp/T//ccWP0fmF.s 			page 10


 292 0002 8646     		mov	lr, r0
  21:SYS/memng/mmu.c **** 
 293              		.loc 1 21 5 is_stmt 1 view .LVU92
  24:SYS/memng/mmu.c ****     {
 294              		.loc 1 24 5 view .LVU93
 295              	.LVL16:
  24:SYS/memng/mmu.c ****     {
 296              		.loc 1 24 21 is_stmt 0 view .LVU94
 297 0004 0B4A     		ldr	r2, .L27
  24:SYS/memng/mmu.c ****     {
 298              		.loc 1 24 5 view .LVU95
 299 0006 04E0     		b	.L24
 300              	.LVL17:
 301              	.L25:
  26:SYS/memng/mmu.c ****     }
 302              		.loc 1 26 9 is_stmt 1 discriminator 3 view .LVU96
  26:SYS/memng/mmu.c ****     }
 303              		.loc 1 26 20 is_stmt 0 discriminator 3 view .LVU97
 304 0008 0B49     		ldr	r1, .L27+4
 305 000a 8B8A     		ldrh	r3, [r1, #20]
  26:SYS/memng/mmu.c ****     }
 306              		.loc 1 26 34 discriminator 3 view .LVU98
 307 000c 0133     		adds	r3, r3, #1
 308 000e 8B82     		strh	r3, [r1, #20]	@ movhi
  24:SYS/memng/mmu.c ****     {
 309              		.loc 1 24 65 is_stmt 1 discriminator 3 view .LVU99
  24:SYS/memng/mmu.c ****     {
 310              		.loc 1 24 76 is_stmt 0 discriminator 3 view .LVU100
 311 0010 1268     		ldr	r2, [r2]
 312              	.LVL18:
 313              	.L24:
  24:SYS/memng/mmu.c ****     {
 314              		.loc 1 24 34 is_stmt 1 discriminator 1 view .LVU101
  24:SYS/memng/mmu.c ****     {
 315              		.loc 1 24 44 is_stmt 0 discriminator 1 view .LVU102
 316 0012 1168     		ldr	r1, [r2]
  24:SYS/memng/mmu.c ****     {
 317              		.loc 1 24 54 discriminator 1 view .LVU103
 318 0014 094B     		ldr	r3, .L27+8
 319 0016 1B68     		ldr	r3, [r3]
  24:SYS/memng/mmu.c ****     {
 320              		.loc 1 24 5 discriminator 1 view .LVU104
 321 0018 9942     		cmp	r1, r3
 322 001a F5D1     		bne	.L25
  29:SYS/memng/mmu.c **** }
 323              		.loc 1 29 5 is_stmt 1 view .LVU105
  29:SYS/memng/mmu.c **** }
 324              		.loc 1 29 12 is_stmt 0 view .LVU106
 325 001c F446     		mov	ip, lr
 326 001e 064C     		ldr	r4, .L27+4
 327 0020 0FCC     		ldmia	r4!, {r0, r1, r2, r3}
 328              	.LVL19:
  29:SYS/memng/mmu.c **** }
 329              		.loc 1 29 12 view .LVU107
 330 0022 ACE80F00 		stmia	ip!, {r0, r1, r2, r3}
 331 0026 94E80300 		ldm	r4, {r0, r1}
 332 002a 8CE80300 		stm	ip, {r0, r1}
ARM GAS  /var/folders/lx/hc4sn_b53233_zkc9xbbl97r0000gp/T//ccWP0fmF.s 			page 11


  30:SYS/memng/mmu.c **** 
 333              		.loc 1 30 1 view .LVU108
 334 002e 7046     		mov	r0, lr
 335 0030 10BD     		pop	{r4, pc}
 336              	.L28:
 337 0032 00BF     		.align	2
 338              	.L27:
 339 0034 00000000 		.word	.LANCHOR1
 340 0038 00000000 		.word	.LANCHOR0
 341 003c 00000000 		.word	.LANCHOR2
 342              		.cfi_endproc
 343              	.LFE3:
 345              		.section	.text.MMU_Malloc,"ax",%progbits
 346              		.align	1
 347              		.global	MMU_Malloc
 348              		.syntax unified
 349              		.thumb
 350              		.thumb_func
 351              		.fpu fpv4-sp-d16
 353              	MMU_Malloc:
 354              	.LVL20:
 355              	.LFB5:
  66:SYS/memng/mmu.c ****     MemBlock_TypeDef *PrvFreeBlock = NULL;
 356              		.loc 1 66 1 is_stmt 1 view -0
 357              		.cfi_startproc
 358              		@ args = 0, pretend = 0, frame = 0
 359              		@ frame_needed = 0, uses_anonymous_args = 0
  66:SYS/memng/mmu.c ****     MemBlock_TypeDef *PrvFreeBlock = NULL;
 360              		.loc 1 66 1 is_stmt 0 view .LVU110
 361 0000 38B5     		push	{r3, r4, r5, lr}
 362              	.LCFI5:
 363              		.cfi_def_cfa_offset 16
 364              		.cfi_offset 3, -16
 365              		.cfi_offset 4, -12
 366              		.cfi_offset 5, -8
 367              		.cfi_offset 14, -4
 368 0002 0446     		mov	r4, r0
  67:SYS/memng/mmu.c ****     MemBlock_TypeDef *NxtFreeBlock = NULL;
 369              		.loc 1 67 5 is_stmt 1 view .LVU111
 370              	.LVL21:
  68:SYS/memng/mmu.c ****     MemBlock_TypeDef *Block_Tmp = NULL;
 371              		.loc 1 68 5 view .LVU112
  69:SYS/memng/mmu.c ****     void *mem_addr = NULL;
 372              		.loc 1 69 5 view .LVU113
  70:SYS/memng/mmu.c **** 
 373              		.loc 1 70 5 view .LVU114
  72:SYS/memng/mmu.c **** 
 374              		.loc 1 72 5 view .LVU115
 375              		.syntax unified
 376              	@ 72 "SYS/memng/mmu.c" 1
 377 0004 72B6     		cpsid i
 378              	@ 0 "" 2
  74:SYS/memng/mmu.c ****     {
 379              		.loc 1 74 5 view .LVU116
  74:SYS/memng/mmu.c ****     {
 380              		.loc 1 74 21 is_stmt 0 view .LVU117
 381              		.thumb
ARM GAS  /var/folders/lx/hc4sn_b53233_zkc9xbbl97r0000gp/T//ccWP0fmF.s 			page 12


 382              		.syntax unified
 383 0006 224B     		ldr	r3, .L41
 384 0008 9B7D     		ldrb	r3, [r3, #22]	@ zero_extendqisi2
  74:SYS/memng/mmu.c ****     {
 385              		.loc 1 74 8 view .LVU118
 386 000a 6BB1     		cbz	r3, .L40
 387              	.LVL22:
 388              	.L30:
  79:SYS/memng/mmu.c ****     {
 389              		.loc 1 79 5 is_stmt 1 view .LVU119
  79:SYS/memng/mmu.c ****     {
 390              		.loc 1 79 14 is_stmt 0 view .LVU120
 391 000c 04F10803 		add	r3, r4, #8
  79:SYS/memng/mmu.c ****     {
 392              		.loc 1 79 55 view .LVU121
 393 0010 1F4A     		ldr	r2, .L41
 394 0012 9268     		ldr	r2, [r2, #8]
  79:SYS/memng/mmu.c ****     {
 395              		.loc 1 79 8 view .LVU122
 396 0014 9342     		cmp	r3, r2
 397 0016 36D8     		bhi	.L35
  81:SYS/memng/mmu.c **** 
 398              		.loc 1 81 9 is_stmt 1 view .LVU123
 399              	.LVL23:
  84:SYS/memng/mmu.c **** 
 400              		.loc 1 84 9 view .LVU124
  84:SYS/memng/mmu.c **** 
 401              		.loc 1 84 23 is_stmt 0 view .LVU125
 402 0018 04F00304 		and	r4, r4, #3
  84:SYS/memng/mmu.c **** 
 403              		.loc 1 84 14 view .LVU126
 404 001c 14FA83F4 		uxtah	r4, r4, r3
 405 0020 A2B2     		uxth	r2, r4
 406              	.LVL24:
  86:SYS/memng/mmu.c ****         Block_Tmp = MemStart.nxtFree;
 407              		.loc 1 86 9 is_stmt 1 view .LVU127
  87:SYS/memng/mmu.c ****         while ((Block_Tmp->size < size) && (Block_Tmp->nxtFree != NULL))
 408              		.loc 1 87 9 view .LVU128
  87:SYS/memng/mmu.c ****         while ((Block_Tmp->size < size) && (Block_Tmp->nxtFree != NULL))
 409              		.loc 1 87 19 is_stmt 0 view .LVU129
 410 0022 1C49     		ldr	r1, .L41+4
 411 0024 0C68     		ldr	r4, [r1]
 412              	.LVL25:
  88:SYS/memng/mmu.c ****         {
 413              		.loc 1 88 9 is_stmt 1 view .LVU130
  88:SYS/memng/mmu.c ****         {
 414              		.loc 1 88 15 is_stmt 0 view .LVU131
 415 0026 04E0     		b	.L33
 416              	.LVL26:
 417              	.L40:
  76:SYS/memng/mmu.c ****     }
 418              		.loc 1 76 9 is_stmt 1 view .LVU132
 419 0028 FFF7FEFF 		bl	MMU_Init
 420              	.LVL27:
  76:SYS/memng/mmu.c ****     }
 421              		.loc 1 76 9 is_stmt 0 view .LVU133
 422 002c EEE7     		b	.L30
ARM GAS  /var/folders/lx/hc4sn_b53233_zkc9xbbl97r0000gp/T//ccWP0fmF.s 			page 13


 423              	.LVL28:
 424              	.L36:
  90:SYS/memng/mmu.c ****             Block_Tmp = Block_Tmp->nxtFree;
 425              		.loc 1 90 26 view .LVU134
 426 002e 2146     		mov	r1, r4
 427              	.LVL29:
  91:SYS/memng/mmu.c ****         }
 428              		.loc 1 91 23 view .LVU135
 429 0030 1C46     		mov	r4, r3
 430              	.LVL30:
 431              	.L33:
  88:SYS/memng/mmu.c ****         {
 432              		.loc 1 88 15 is_stmt 1 view .LVU136
  88:SYS/memng/mmu.c ****         {
 433              		.loc 1 88 26 is_stmt 0 view .LVU137
 434 0032 A388     		ldrh	r3, [r4, #4]
  88:SYS/memng/mmu.c ****         {
 435              		.loc 1 88 15 view .LVU138
 436 0034 9342     		cmp	r3, r2
 437 0036 02D2     		bcs	.L32
  88:SYS/memng/mmu.c ****         {
 438              		.loc 1 88 54 discriminator 1 view .LVU139
 439 0038 2368     		ldr	r3, [r4]
  88:SYS/memng/mmu.c ****         {
 440              		.loc 1 88 41 discriminator 1 view .LVU140
 441 003a 002B     		cmp	r3, #0
 442 003c F7D1     		bne	.L36
 443              	.L32:
  94:SYS/memng/mmu.c ****         {
 444              		.loc 1 94 9 is_stmt 1 view .LVU141
  94:SYS/memng/mmu.c ****         {
 445              		.loc 1 94 23 is_stmt 0 view .LVU142
 446 003e 164B     		ldr	r3, .L41+8
 447 0040 1B68     		ldr	r3, [r3]
  94:SYS/memng/mmu.c ****         {
 448              		.loc 1 94 12 view .LVU143
 449 0042 A342     		cmp	r3, r4
 450 0044 21D0     		beq	.L37
  96:SYS/memng/mmu.c **** 
 451              		.loc 1 96 13 is_stmt 1 view .LVU144
  96:SYS/memng/mmu.c **** 
 452              		.loc 1 96 22 is_stmt 0 view .LVU145
 453 0046 2546     		mov	r5, r4
 454              	.LVL31:
  98:SYS/memng/mmu.c **** 
 455              		.loc 1 98 13 is_stmt 1 view .LVU146
  98:SYS/memng/mmu.c **** 
 456              		.loc 1 98 46 is_stmt 0 view .LVU147
 457 0048 55F8083B 		ldr	r3, [r5], #8
 458              	.LVL32:
  98:SYS/memng/mmu.c **** 
 459              		.loc 1 98 35 view .LVU148
 460 004c 0B60     		str	r3, [r1]
 100:SYS/memng/mmu.c ****             {
 461              		.loc 1 100 13 is_stmt 1 view .LVU149
 100:SYS/memng/mmu.c ****             {
 462              		.loc 1 100 27 is_stmt 0 view .LVU150
ARM GAS  /var/folders/lx/hc4sn_b53233_zkc9xbbl97r0000gp/T//ccWP0fmF.s 			page 14


 463 004e A388     		ldrh	r3, [r4, #4]
 100:SYS/memng/mmu.c ****             {
 464              		.loc 1 100 34 view .LVU151
 465 0050 991A     		subs	r1, r3, r2
 466              	.LVL33:
 100:SYS/memng/mmu.c ****             {
 467              		.loc 1 100 16 view .LVU152
 468 0052 0829     		cmp	r1, #8
 469 0054 15DD     		ble	.L38
 102:SYS/memng/mmu.c ****                 NxtFreeBlock->size = Block_Tmp->size - size - sizeof(MemBlock_TypeDef);
 470              		.loc 1 102 17 is_stmt 1 view .LVU153
 102:SYS/memng/mmu.c ****                 NxtFreeBlock->size = Block_Tmp->size - size - sizeof(MemBlock_TypeDef);
 471              		.loc 1 102 30 is_stmt 0 view .LVU154
 472 0056 A018     		adds	r0, r4, r2
 473              	.LVL34:
 103:SYS/memng/mmu.c ****                 Block_Tmp->size = size;
 474              		.loc 1 103 17 is_stmt 1 view .LVU155
 103:SYS/memng/mmu.c ****                 Block_Tmp->size = size;
 475              		.loc 1 103 54 is_stmt 0 view .LVU156
 476 0058 8BB2     		uxth	r3, r1
 103:SYS/memng/mmu.c ****                 Block_Tmp->size = size;
 477              		.loc 1 103 61 view .LVU157
 478 005a 083B     		subs	r3, r3, #8
 103:SYS/memng/mmu.c ****                 Block_Tmp->size = size;
 479              		.loc 1 103 36 view .LVU158
 480 005c 8380     		strh	r3, [r0, #4]	@ movhi
 104:SYS/memng/mmu.c ****             }
 481              		.loc 1 104 17 is_stmt 1 view .LVU159
 104:SYS/memng/mmu.c ****             }
 482              		.loc 1 104 33 is_stmt 0 view .LVU160
 483 005e A280     		strh	r2, [r4, #4]	@ movhi
 484              	.LVL35:
 485              	.L34:
 107:SYS/memng/mmu.c ****             Mem_Monitor.used_size += size;
 486              		.loc 1 107 13 is_stmt 1 view .LVU161
 107:SYS/memng/mmu.c ****             Mem_Monitor.used_size += size;
 487              		.loc 1 107 37 is_stmt 0 view .LVU162
 488 0060 0B4B     		ldr	r3, .L41
 489 0062 9968     		ldr	r1, [r3, #8]
 490 0064 891A     		subs	r1, r1, r2
 491 0066 9960     		str	r1, [r3, #8]
 108:SYS/memng/mmu.c **** 
 492              		.loc 1 108 13 is_stmt 1 view .LVU163
 108:SYS/memng/mmu.c **** 
 493              		.loc 1 108 35 is_stmt 0 view .LVU164
 494 0068 5968     		ldr	r1, [r3, #4]
 495 006a 0A44     		add	r2, r2, r1
 496              	.LVL36:
 108:SYS/memng/mmu.c **** 
 497              		.loc 1 108 35 view .LVU165
 498 006c 5A60     		str	r2, [r3, #4]
 110:SYS/memng/mmu.c **** 
 499              		.loc 1 110 13 is_stmt 1 view .LVU166
 500 006e FFF7FEFF 		bl	MMU_InsertFreeBlock
 501              	.LVL37:
 112:SYS/memng/mmu.c ****         }
 502              		.loc 1 112 13 view .LVU167
ARM GAS  /var/folders/lx/hc4sn_b53233_zkc9xbbl97r0000gp/T//ccWP0fmF.s 			page 15


 112:SYS/memng/mmu.c ****         }
 503              		.loc 1 112 32 is_stmt 0 view .LVU168
 504 0072 0023     		movs	r3, #0
 505 0074 2360     		str	r3, [r4]
 506              	.LVL38:
 507              	.L31:
 116:SYS/memng/mmu.c **** 
 508              		.loc 1 116 5 is_stmt 1 view .LVU169
 509              		.syntax unified
 510              	@ 116 "SYS/memng/mmu.c" 1
 511 0076 62B6     		cpsie i
 512              	@ 0 "" 2
 118:SYS/memng/mmu.c **** 
 513              		.loc 1 118 5 view .LVU170
 118:SYS/memng/mmu.c **** 
 514              		.loc 1 118 27 is_stmt 0 view .LVU171
 515              		.thumb
 516              		.syntax unified
 517 0078 054B     		ldr	r3, .L41
 518 007a 064A     		ldr	r2, .L41+4
 519 007c 1A61     		str	r2, [r3, #16]
 120:SYS/memng/mmu.c **** }
 520              		.loc 1 120 5 is_stmt 1 view .LVU172
 121:SYS/memng/mmu.c **** 
 521              		.loc 1 121 1 is_stmt 0 view .LVU173
 522 007e 2846     		mov	r0, r5
 523 0080 38BD     		pop	{r3, r4, r5, pc}
 524              	.LVL39:
 525              	.L38:
  68:SYS/memng/mmu.c ****     MemBlock_TypeDef *Block_Tmp = NULL;
 526              		.loc 1 68 23 view .LVU174
 527 0082 0020     		movs	r0, #0
 528 0084 ECE7     		b	.L34
 529              	.LVL40:
 530              	.L35:
  70:SYS/memng/mmu.c **** 
 531              		.loc 1 70 11 view .LVU175
 532 0086 0025     		movs	r5, #0
 533 0088 F5E7     		b	.L31
 534              	.LVL41:
 535              	.L37:
  70:SYS/memng/mmu.c **** 
 536              		.loc 1 70 11 view .LVU176
 537 008a 0025     		movs	r5, #0
 538 008c F3E7     		b	.L31
 539              	.L42:
 540 008e 00BF     		.align	2
 541              	.L41:
 542 0090 00000000 		.word	.LANCHOR0
 543 0094 00000000 		.word	.LANCHOR1
 544 0098 00000000 		.word	.LANCHOR2
 545              		.cfi_endproc
 546              	.LFE5:
 548              		.section	.text.MMU_Free,"ax",%progbits
 549              		.align	1
 550              		.global	MMU_Free
 551              		.syntax unified
ARM GAS  /var/folders/lx/hc4sn_b53233_zkc9xbbl97r0000gp/T//ccWP0fmF.s 			page 16


 552              		.thumb
 553              		.thumb_func
 554              		.fpu fpv4-sp-d16
 556              	MMU_Free:
 557              	.LVL42:
 558              	.LFB6:
 124:SYS/memng/mmu.c ****     uint8_t *puc = (uint8_t *)ptr;
 559              		.loc 1 124 1 is_stmt 1 view -0
 560              		.cfi_startproc
 561              		@ args = 0, pretend = 0, frame = 0
 562              		@ frame_needed = 0, uses_anonymous_args = 0
 125:SYS/memng/mmu.c ****     MemBlock_TypeDef *pxLink;
 563              		.loc 1 125 5 view .LVU178
 126:SYS/memng/mmu.c **** 
 564              		.loc 1 126 5 view .LVU179
 128:SYS/memng/mmu.c ****     {
 565              		.loc 1 128 5 view .LVU180
 128:SYS/memng/mmu.c ****     {
 566              		.loc 1 128 8 is_stmt 0 view .LVU181
 567 0000 88B1     		cbz	r0, .L46
 124:SYS/memng/mmu.c ****     uint8_t *puc = (uint8_t *)ptr;
 568              		.loc 1 124 1 view .LVU182
 569 0002 08B5     		push	{r3, lr}
 570              	.LCFI6:
 571              		.cfi_def_cfa_offset 8
 572              		.cfi_offset 3, -8
 573              		.cfi_offset 14, -4
 574 0004 0346     		mov	r3, r0
 132:SYS/memng/mmu.c **** 
 575              		.loc 1 132 9 is_stmt 1 view .LVU183
 132:SYS/memng/mmu.c **** 
 576              		.loc 1 132 13 is_stmt 0 view .LVU184
 577 0006 0838     		subs	r0, r0, #8
 578              	.LVL43:
 135:SYS/memng/mmu.c **** 
 579              		.loc 1 135 9 is_stmt 1 view .LVU185
 137:SYS/memng/mmu.c ****         {
 580              		.loc 1 137 9 view .LVU186
 137:SYS/memng/mmu.c ****         {
 581              		.loc 1 137 19 is_stmt 0 view .LVU187
 582 0008 53F8082C 		ldr	r2, [r3, #-8]
 137:SYS/memng/mmu.c ****         {
 583              		.loc 1 137 12 view .LVU188
 584 000c 02B1     		cbz	r2, .L49
 585              	.LVL44:
 586              	.L43:
 152:SYS/memng/mmu.c **** 
 587              		.loc 1 152 1 view .LVU189
 588 000e 08BD     		pop	{r3, pc}
 589              	.LVL45:
 590              	.L49:
 141:SYS/memng/mmu.c ****             {
 591              		.loc 1 141 13 is_stmt 1 view .LVU190
 592              		.syntax unified
 593              	@ 141 "SYS/memng/mmu.c" 1
 594 0010 72B6     		cpsid i
 595              	@ 0 "" 2
ARM GAS  /var/folders/lx/hc4sn_b53233_zkc9xbbl97r0000gp/T//ccWP0fmF.s 			page 17


 144:SYS/memng/mmu.c **** 
 596              		.loc 1 144 17 view .LVU191
 144:SYS/memng/mmu.c **** 
 597              		.loc 1 144 50 is_stmt 0 view .LVU192
 598              		.thumb
 599              		.syntax unified
 600 0012 33F8041C 		ldrh	r1, [r3, #-4]
 144:SYS/memng/mmu.c **** 
 601              		.loc 1 144 41 view .LVU193
 602 0016 044A     		ldr	r2, .L50
 603 0018 9368     		ldr	r3, [r2, #8]
 604              	.LVL46:
 144:SYS/memng/mmu.c **** 
 605              		.loc 1 144 41 view .LVU194
 606 001a 0B44     		add	r3, r3, r1
 607 001c 9360     		str	r3, [r2, #8]
 147:SYS/memng/mmu.c ****             }
 608              		.loc 1 147 17 is_stmt 1 view .LVU195
 609 001e FFF7FEFF 		bl	MMU_InsertFreeBlock
 610              	.LVL47:
 149:SYS/memng/mmu.c ****         }
 611              		.loc 1 149 13 view .LVU196
 612              		.syntax unified
 613              	@ 149 "SYS/memng/mmu.c" 1
 614 0022 62B6     		cpsie i
 615              	@ 0 "" 2
 152:SYS/memng/mmu.c **** 
 616              		.loc 1 152 1 is_stmt 0 view .LVU197
 617              		.thumb
 618              		.syntax unified
 619 0024 F3E7     		b	.L43
 620              	.LVL48:
 621              	.L46:
 622              	.LCFI7:
 623              		.cfi_def_cfa_offset 0
 624              		.cfi_restore 3
 625              		.cfi_restore 14
 152:SYS/memng/mmu.c **** 
 626              		.loc 1 152 1 view .LVU198
 627 0026 7047     		bx	lr
 628              	.L51:
 629              		.align	2
 630              	.L50:
 631 0028 00000000 		.word	.LANCHOR0
 632              		.cfi_endproc
 633              	.LFE6:
 635              		.global	MemEnd
 636              		.global	MemStart
 637              		.global	Mem_Monitor
 638              		.global	Mem_Buff
 639              		.section	.bss.MemEnd,"aw",%nobits
 640              		.align	2
 641              		.set	.LANCHOR2,. + 0
 644              	MemEnd:
 645 0000 00000000 		.space	4
 646              		.section	.bss.MemStart,"aw",%nobits
 647              		.align	2
ARM GAS  /var/folders/lx/hc4sn_b53233_zkc9xbbl97r0000gp/T//ccWP0fmF.s 			page 18


 648              		.set	.LANCHOR1,. + 0
 651              	MemStart:
 652 0000 00000000 		.space	8
 652      00000000 
 653              		.section	.bss.Mem_Monitor,"aw",%nobits
 654              		.align	2
 655              		.set	.LANCHOR0,. + 0
 658              	Mem_Monitor:
 659 0000 00000000 		.space	24
 659      00000000 
 659      00000000 
 659      00000000 
 659      00000000 
 660              		.section	.ccmram,"aw"
 661              		.align	2
 664              	Mem_Buff:
 665 0000 00000000 		.space	65536
 665      00000000 
 665      00000000 
 665      00000000 
 665      00000000 
 666              		.text
 667              	.Letext0:
 668              		.file 2 "/usr/local/arm-none-eabi-gcc/gcc-arm-none-eabi-10-2020-q4-major/arm-none-eabi/include/mac
 669              		.file 3 "/usr/local/arm-none-eabi-gcc/gcc-arm-none-eabi-10-2020-q4-major/arm-none-eabi/include/sys
 670              		.file 4 "SYS/memng/mmu.h"
ARM GAS  /var/folders/lx/hc4sn_b53233_zkc9xbbl97r0000gp/T//ccWP0fmF.s 			page 19


DEFINED SYMBOLS
                            *ABS*:0000000000000000 mmu.c
/var/folders/lx/hc4sn_b53233_zkc9xbbl97r0000gp/T//ccWP0fmF.s:18     .text.MMU_Init:0000000000000000 $t
/var/folders/lx/hc4sn_b53233_zkc9xbbl97r0000gp/T//ccWP0fmF.s:25     .text.MMU_Init:0000000000000000 MMU_Init
/var/folders/lx/hc4sn_b53233_zkc9xbbl97r0000gp/T//ccWP0fmF.s:123    .text.MMU_Init:0000000000000058 $d
/var/folders/lx/hc4sn_b53233_zkc9xbbl97r0000gp/T//ccWP0fmF.s:664    .ccmram:0000000000000000 Mem_Buff
/var/folders/lx/hc4sn_b53233_zkc9xbbl97r0000gp/T//ccWP0fmF.s:132    .text.MMU_InsertFreeBlock:0000000000000000 $t
/var/folders/lx/hc4sn_b53233_zkc9xbbl97r0000gp/T//ccWP0fmF.s:138    .text.MMU_InsertFreeBlock:0000000000000000 MMU_InsertFreeBlock
/var/folders/lx/hc4sn_b53233_zkc9xbbl97r0000gp/T//ccWP0fmF.s:266    .text.MMU_InsertFreeBlock:000000000000005c $d
/var/folders/lx/hc4sn_b53233_zkc9xbbl97r0000gp/T//ccWP0fmF.s:272    .text.MMU_Get_Monitor:0000000000000000 $t
/var/folders/lx/hc4sn_b53233_zkc9xbbl97r0000gp/T//ccWP0fmF.s:279    .text.MMU_Get_Monitor:0000000000000000 MMU_Get_Monitor
/var/folders/lx/hc4sn_b53233_zkc9xbbl97r0000gp/T//ccWP0fmF.s:339    .text.MMU_Get_Monitor:0000000000000034 $d
/var/folders/lx/hc4sn_b53233_zkc9xbbl97r0000gp/T//ccWP0fmF.s:346    .text.MMU_Malloc:0000000000000000 $t
/var/folders/lx/hc4sn_b53233_zkc9xbbl97r0000gp/T//ccWP0fmF.s:353    .text.MMU_Malloc:0000000000000000 MMU_Malloc
/var/folders/lx/hc4sn_b53233_zkc9xbbl97r0000gp/T//ccWP0fmF.s:542    .text.MMU_Malloc:0000000000000090 $d
/var/folders/lx/hc4sn_b53233_zkc9xbbl97r0000gp/T//ccWP0fmF.s:549    .text.MMU_Free:0000000000000000 $t
/var/folders/lx/hc4sn_b53233_zkc9xbbl97r0000gp/T//ccWP0fmF.s:556    .text.MMU_Free:0000000000000000 MMU_Free
/var/folders/lx/hc4sn_b53233_zkc9xbbl97r0000gp/T//ccWP0fmF.s:631    .text.MMU_Free:0000000000000028 $d
/var/folders/lx/hc4sn_b53233_zkc9xbbl97r0000gp/T//ccWP0fmF.s:644    .bss.MemEnd:0000000000000000 MemEnd
/var/folders/lx/hc4sn_b53233_zkc9xbbl97r0000gp/T//ccWP0fmF.s:651    .bss.MemStart:0000000000000000 MemStart
/var/folders/lx/hc4sn_b53233_zkc9xbbl97r0000gp/T//ccWP0fmF.s:658    .bss.Mem_Monitor:0000000000000000 Mem_Monitor
/var/folders/lx/hc4sn_b53233_zkc9xbbl97r0000gp/T//ccWP0fmF.s:640    .bss.MemEnd:0000000000000000 $d
/var/folders/lx/hc4sn_b53233_zkc9xbbl97r0000gp/T//ccWP0fmF.s:647    .bss.MemStart:0000000000000000 $d
/var/folders/lx/hc4sn_b53233_zkc9xbbl97r0000gp/T//ccWP0fmF.s:654    .bss.Mem_Monitor:0000000000000000 $d
/var/folders/lx/hc4sn_b53233_zkc9xbbl97r0000gp/T//ccWP0fmF.s:661    .ccmram:0000000000000000 $d

NO UNDEFINED SYMBOLS
