ARM GAS  /var/folders/lx/hc4sn_b53233_zkc9xbbl97r0000gp/T//ccQG3nkw.s 			page 1


   1              		.cpu cortex-m4
   2              		.eabi_attribute 27, 1
   3              		.eabi_attribute 28, 1
   4              		.eabi_attribute 20, 1
   5              		.eabi_attribute 21, 1
   6              		.eabi_attribute 23, 3
   7              		.eabi_attribute 24, 1
   8              		.eabi_attribute 25, 1
   9              		.eabi_attribute 26, 1
  10              		.eabi_attribute 30, 1
  11              		.eabi_attribute 34, 1
  12              		.eabi_attribute 18, 4
  13              		.file	"mmu.c"
  14              		.text
  15              	.Ltext0:
  16              		.cfi_sections	.debug_frame
  17              		.section	.text.MMU_Init,"ax",%progbits
  18              		.align	1
  19              		.arch armv7e-m
  20              		.syntax unified
  21              		.thumb
  22              		.thumb_func
  23              		.fpu fpv4-sp-d16
  25              	MMU_Init:
  26              	.LFB4:
  27              		.file 1 "SYS/memng/mmu.c"
   1:SYS/memng/mmu.c **** /*
   2:SYS/memng/mmu.c **** * copy from freeRTOS
   3:SYS/memng/mmu.c **** * coder : 8_B!T0
   4:SYS/memng/mmu.c **** */
   5:SYS/memng/mmu.c **** #include "mmu.h"
   6:SYS/memng/mmu.c **** 
   7:SYS/memng/mmu.c **** #pragma pack(BLOCK_ALIGMENT_SIZE)
   8:SYS/memng/mmu.c **** uint8_t Mem_Buff[PHY_MEM_SIZE] __attribute__((section(".ccmram")));
   9:SYS/memng/mmu.c **** #pragma pack()
  10:SYS/memng/mmu.c **** 
  11:SYS/memng/mmu.c **** Mem_Monitor_TypeDef Mem_Monitor;
  12:SYS/memng/mmu.c **** MemBlock_TypeDef MemStart;
  13:SYS/memng/mmu.c **** MemBlock_TypeDef *MemEnd;
  14:SYS/memng/mmu.c **** uint8_t trace;
  15:SYS/memng/mmu.c **** 
  16:SYS/memng/mmu.c **** static void MMU_InsertFreeBlock(MemBlock_TypeDef *pxBlockToInsert);
  17:SYS/memng/mmu.c **** static void MMU_Init(void);
  18:SYS/memng/mmu.c **** 
  19:SYS/memng/mmu.c **** Mem_Monitor_TypeDef MMU_Get_Monitor(void)
  20:SYS/memng/mmu.c **** {
  21:SYS/memng/mmu.c ****     MemBlock_TypeDef *pxIterator;
  22:SYS/memng/mmu.c **** 
  23:SYS/memng/mmu.c ****     /* comput freeblock number */
  24:SYS/memng/mmu.c ****     for (pxIterator = &MemStart; pxIterator->nxtFree != MemEnd; pxIterator = pxIterator->nxtFree)
  25:SYS/memng/mmu.c ****     {
  26:SYS/memng/mmu.c ****         Mem_Monitor.FreeBlock_Num++;
  27:SYS/memng/mmu.c ****     }
  28:SYS/memng/mmu.c **** 
  29:SYS/memng/mmu.c ****     return Mem_Monitor;
  30:SYS/memng/mmu.c **** }
  31:SYS/memng/mmu.c **** 
ARM GAS  /var/folders/lx/hc4sn_b53233_zkc9xbbl97r0000gp/T//ccQG3nkw.s 			page 2


  32:SYS/memng/mmu.c **** static void MMU_Init(void)
  33:SYS/memng/mmu.c **** {
  28              		.loc 1 33 1 view -0
  29              		.cfi_startproc
  30              		@ args = 0, pretend = 0, frame = 0
  31              		@ frame_needed = 0, uses_anonymous_args = 0
  32              		@ link register save eliminated.
  34:SYS/memng/mmu.c ****     MemBlock_TypeDef *FstFreeBlock_tmp = NULL;
  33              		.loc 1 34 5 view .LVU1
  34              	.LVL0:
  35:SYS/memng/mmu.c **** 
  36:SYS/memng/mmu.c ****     Mem_Monitor.phy_size = PHY_MEM_SIZE;
  35              		.loc 1 36 5 view .LVU2
  36              		.loc 1 36 26 is_stmt 0 view .LVU3
  37 0000 154A     		ldr	r2, .L4
  38 0002 4FF48033 		mov	r3, #65536
  39 0006 1360     		str	r3, [r2]
  37:SYS/memng/mmu.c ****     Mem_Monitor.used_size = 0;
  40              		.loc 1 37 5 is_stmt 1 view .LVU4
  41              		.loc 1 37 27 is_stmt 0 view .LVU5
  42 0008 0023     		movs	r3, #0
  43 000a 5360     		str	r3, [r2, #4]
  38:SYS/memng/mmu.c ****     Mem_Monitor.FreeBlock_Num = 1;
  44              		.loc 1 38 5 is_stmt 1 view .LVU6
  45              		.loc 1 38 31 is_stmt 0 view .LVU7
  46 000c 0121     		movs	r1, #1
  47 000e 9182     		strh	r1, [r2, #20]	@ movhi
  39:SYS/memng/mmu.c **** 
  40:SYS/memng/mmu.c ****     for (uint32_t i = 0; i < PHY_MEM_SIZE; i++)
  48              		.loc 1 40 5 is_stmt 1 view .LVU8
  49              	.LBB2:
  50              		.loc 1 40 10 view .LVU9
  51              	.LVL1:
  52              		.loc 1 40 5 is_stmt 0 view .LVU10
  53 0010 03E0     		b	.L2
  54              	.LVL2:
  55              	.L3:
  41:SYS/memng/mmu.c ****     {
  42:SYS/memng/mmu.c ****         Mem_Buff[i] = 0;
  56              		.loc 1 42 9 is_stmt 1 discriminator 3 view .LVU11
  57              		.loc 1 42 21 is_stmt 0 discriminator 3 view .LVU12
  58 0012 124A     		ldr	r2, .L4+4
  59 0014 0021     		movs	r1, #0
  60 0016 D154     		strb	r1, [r2, r3]
  40:SYS/memng/mmu.c ****     {
  61              		.loc 1 40 44 is_stmt 1 discriminator 3 view .LVU13
  40:SYS/memng/mmu.c ****     {
  62              		.loc 1 40 45 is_stmt 0 discriminator 3 view .LVU14
  63 0018 0133     		adds	r3, r3, #1
  64              	.LVL3:
  65              	.L2:
  40:SYS/memng/mmu.c ****     {
  66              		.loc 1 40 26 is_stmt 1 discriminator 1 view .LVU15
  40:SYS/memng/mmu.c ****     {
  67              		.loc 1 40 5 is_stmt 0 discriminator 1 view .LVU16
  68 001a B3F5803F 		cmp	r3, #65536
  69 001e F8D3     		bcc	.L3
ARM GAS  /var/folders/lx/hc4sn_b53233_zkc9xbbl97r0000gp/T//ccQG3nkw.s 			page 3


  70              	.LBE2:
  43:SYS/memng/mmu.c ****     }
  44:SYS/memng/mmu.c **** 
  45:SYS/memng/mmu.c ****     MemStart.nxtFree = (void *)Mem_Buff;
  71              		.loc 1 45 5 is_stmt 1 view .LVU17
  72              		.loc 1 45 22 is_stmt 0 view .LVU18
  73 0020 0F49     		ldr	r1, .L4+8
  74 0022 0E4A     		ldr	r2, .L4+4
  75 0024 0A60     		str	r2, [r1]
  46:SYS/memng/mmu.c ****     MemStart.size = 0;
  76              		.loc 1 46 5 is_stmt 1 view .LVU19
  77              		.loc 1 46 19 is_stmt 0 view .LVU20
  78 0026 0023     		movs	r3, #0
  79              	.LVL4:
  80              		.loc 1 46 19 view .LVU21
  81 0028 8B80     		strh	r3, [r1, #4]	@ movhi
  47:SYS/memng/mmu.c **** 
  48:SYS/memng/mmu.c ****     MemEnd = (void *)(&Mem_Buff[PHY_MEM_SIZE] - sizeof(MemBlock_TypeDef));
  82              		.loc 1 48 5 is_stmt 1 view .LVU22
  83              		.loc 1 48 12 is_stmt 0 view .LVU23
  84 002a 0E49     		ldr	r1, .L4+12
  85 002c 0E48     		ldr	r0, .L4+16
  86 002e 0160     		str	r1, [r0]
  49:SYS/memng/mmu.c ****     MemEnd->nxtFree = NULL;
  87              		.loc 1 49 5 is_stmt 1 view .LVU24
  88              		.loc 1 49 21 is_stmt 0 view .LVU25
  89 0030 02F57040 		add	r0, r2, #61440
  90 0034 C0F8F83F 		str	r3, [r0, #4088]
  50:SYS/memng/mmu.c ****     MemEnd->size = 0;
  91              		.loc 1 50 5 is_stmt 1 view .LVU26
  92              		.loc 1 50 18 is_stmt 0 view .LVU27
  93 0038 A0F8FC3F 		strh	r3, [r0, #4092]	@ movhi
  51:SYS/memng/mmu.c **** 
  52:SYS/memng/mmu.c ****     Mem_Monitor.total_size = (MemBlock_Addr)MemEnd - (MemBlock_Addr)MemStart.nxtFree;
  94              		.loc 1 52 5 is_stmt 1 view .LVU28
  95              		.loc 1 52 28 is_stmt 0 view .LVU29
  96 003c 064B     		ldr	r3, .L4
  97 003e 4FF6F870 		movw	r0, #65528
  98 0042 D860     		str	r0, [r3, #12]
  53:SYS/memng/mmu.c **** 
  54:SYS/memng/mmu.c ****     FstFreeBlock_tmp = MemStart.nxtFree;
  99              		.loc 1 54 5 is_stmt 1 view .LVU30
 100              	.LVL5:
  55:SYS/memng/mmu.c ****     FstFreeBlock_tmp->nxtFree = MemEnd;
 101              		.loc 1 55 5 view .LVU31
 102              		.loc 1 55 31 is_stmt 0 view .LVU32
 103 0044 1160     		str	r1, [r2]
  56:SYS/memng/mmu.c **** 
  57:SYS/memng/mmu.c ****     Mem_Monitor.total_size -= sizeof(MemBlock_TypeDef);
 104              		.loc 1 57 5 is_stmt 1 view .LVU33
 105              		.loc 1 57 28 is_stmt 0 view .LVU34
 106 0046 4FF6F071 		movw	r1, #65520
 107 004a D960     		str	r1, [r3, #12]
  58:SYS/memng/mmu.c ****     FstFreeBlock_tmp->size = Mem_Monitor.total_size;
 108              		.loc 1 58 5 is_stmt 1 view .LVU35
 109              		.loc 1 58 28 is_stmt 0 view .LVU36
 110 004c 9180     		strh	r1, [r2, #4]	@ movhi
ARM GAS  /var/folders/lx/hc4sn_b53233_zkc9xbbl97r0000gp/T//ccQG3nkw.s 			page 4


  59:SYS/memng/mmu.c **** 
  60:SYS/memng/mmu.c ****     Mem_Monitor.remain_size = Mem_Monitor.total_size;
 111              		.loc 1 60 5 is_stmt 1 view .LVU37
 112              		.loc 1 60 29 is_stmt 0 view .LVU38
 113 004e 9960     		str	r1, [r3, #8]
  61:SYS/memng/mmu.c **** 
  62:SYS/memng/mmu.c ****     Mem_Monitor.init = true;
 114              		.loc 1 62 5 is_stmt 1 view .LVU39
 115              		.loc 1 62 22 is_stmt 0 view .LVU40
 116 0050 0122     		movs	r2, #1
 117 0052 83F82020 		strb	r2, [r3, #32]
  63:SYS/memng/mmu.c **** }
 118              		.loc 1 63 1 view .LVU41
 119 0056 7047     		bx	lr
 120              	.L5:
 121              		.align	2
 122              	.L4:
 123 0058 00000000 		.word	.LANCHOR0
 124 005c 00000000 		.word	Mem_Buff
 125 0060 00000000 		.word	.LANCHOR1
 126 0064 F8FF0000 		.word	Mem_Buff+65528
 127 0068 00000000 		.word	.LANCHOR2
 128              		.cfi_endproc
 129              	.LFE4:
 131              		.section	.text.MMU_InsertFreeBlock,"ax",%progbits
 132              		.align	1
 133              		.syntax unified
 134              		.thumb
 135              		.thumb_func
 136              		.fpu fpv4-sp-d16
 138              	MMU_InsertFreeBlock:
 139              	.LVL6:
 140              	.LFB7:
  64:SYS/memng/mmu.c **** 
  65:SYS/memng/mmu.c **** void *MMU_Malloc(uint16_t size)
  66:SYS/memng/mmu.c **** {
  67:SYS/memng/mmu.c ****     MemBlock_TypeDef *PrvFreeBlock = NULL;
  68:SYS/memng/mmu.c ****     MemBlock_TypeDef *NxtFreeBlock = NULL;
  69:SYS/memng/mmu.c ****     MemBlock_TypeDef *Block_Tmp = NULL;
  70:SYS/memng/mmu.c ****     void *mem_addr = NULL;
  71:SYS/memng/mmu.c **** 
  72:SYS/memng/mmu.c ****     trace = 1;
  73:SYS/memng/mmu.c **** 
  74:SYS/memng/mmu.c ****     __asm("cpsid i");
  75:SYS/memng/mmu.c **** 
  76:SYS/memng/mmu.c ****     if (!Mem_Monitor.init)
  77:SYS/memng/mmu.c ****     {
  78:SYS/memng/mmu.c ****         MMU_Init();
  79:SYS/memng/mmu.c ****     }
  80:SYS/memng/mmu.c **** 
  81:SYS/memng/mmu.c ****     size += sizeof(MemBlock_TypeDef);
  82:SYS/memng/mmu.c **** 
  83:SYS/memng/mmu.c ****     if (size < Mem_Monitor.remain_size)
  84:SYS/memng/mmu.c ****     {
  85:SYS/memng/mmu.c ****         /* aligment request byte number */
  86:SYS/memng/mmu.c ****         size += (size % BLOCK_ALIGMENT_SIZE);
  87:SYS/memng/mmu.c **** 
ARM GAS  /var/folders/lx/hc4sn_b53233_zkc9xbbl97r0000gp/T//ccQG3nkw.s 			page 5


  88:SYS/memng/mmu.c ****         PrvFreeBlock = &MemStart;
  89:SYS/memng/mmu.c ****         Block_Tmp = MemStart.nxtFree;
  90:SYS/memng/mmu.c **** 
  91:SYS/memng/mmu.c ****         while ((Block_Tmp->size < size) && (Block_Tmp->nxtFree != NULL))
  92:SYS/memng/mmu.c ****         {
  93:SYS/memng/mmu.c ****             PrvFreeBlock = Block_Tmp;
  94:SYS/memng/mmu.c **** 
  95:SYS/memng/mmu.c ****             if (((uint32_t)Block_Tmp->nxtFree & 0xF0000000) == (uint32_t)Mem_Buff)
  96:SYS/memng/mmu.c ****             {
  97:SYS/memng/mmu.c ****                 Block_Tmp = Block_Tmp->nxtFree;
  98:SYS/memng/mmu.c ****             }
  99:SYS/memng/mmu.c ****         }
 100:SYS/memng/mmu.c **** 
 101:SYS/memng/mmu.c ****         if ((((uint32_t)Block_Tmp & 0xF0000000) == (uint32_t)Mem_Buff) && (Block_Tmp != MemEnd))
 102:SYS/memng/mmu.c ****         {
 103:SYS/memng/mmu.c ****             Mem_Monitor.req_t++;
 104:SYS/memng/mmu.c **** 
 105:SYS/memng/mmu.c ****             mem_addr = (void *)(((uint8_t *)Block_Tmp) + sizeof(MemBlock_TypeDef));
 106:SYS/memng/mmu.c **** 
 107:SYS/memng/mmu.c ****             PrvFreeBlock->nxtFree = Block_Tmp->nxtFree;
 108:SYS/memng/mmu.c **** 
 109:SYS/memng/mmu.c ****             if ((Block_Tmp->size - size) > MINIMUM_BLOCK_SIZE)
 110:SYS/memng/mmu.c ****             {
 111:SYS/memng/mmu.c ****                 NxtFreeBlock = (void *)(((uint8_t *)Block_Tmp) + size);
 112:SYS/memng/mmu.c ****                 NxtFreeBlock->size = Block_Tmp->size - size - sizeof(MemBlock_TypeDef);
 113:SYS/memng/mmu.c ****                 Block_Tmp->size = size;
 114:SYS/memng/mmu.c **** 
 115:SYS/memng/mmu.c ****                 MMU_InsertFreeBlock(NxtFreeBlock);
 116:SYS/memng/mmu.c ****             }
 117:SYS/memng/mmu.c **** 
 118:SYS/memng/mmu.c ****             Mem_Monitor.remain_size -= size;
 119:SYS/memng/mmu.c ****             Mem_Monitor.used_size += size;
 120:SYS/memng/mmu.c **** 
 121:SYS/memng/mmu.c ****             Block_Tmp->nxtFree = NULL;
 122:SYS/memng/mmu.c ****         }
 123:SYS/memng/mmu.c ****     }
 124:SYS/memng/mmu.c **** 
 125:SYS/memng/mmu.c ****     __asm("cpsie i");
 126:SYS/memng/mmu.c **** 
 127:SYS/memng/mmu.c ****     Mem_Monitor.FreeBlock = &MemStart;
 128:SYS/memng/mmu.c **** 
 129:SYS/memng/mmu.c ****     return mem_addr;
 130:SYS/memng/mmu.c **** }
 131:SYS/memng/mmu.c **** 
 132:SYS/memng/mmu.c **** void MMU_Free(void *ptr)
 133:SYS/memng/mmu.c **** {
 134:SYS/memng/mmu.c ****     uint8_t *puc = (uint8_t *)ptr;
 135:SYS/memng/mmu.c ****     MemBlock_TypeDef *pxLink;
 136:SYS/memng/mmu.c **** 
 137:SYS/memng/mmu.c ****     trace = 2;
 138:SYS/memng/mmu.c **** 
 139:SYS/memng/mmu.c ****     if (((uint32_t)ptr & 0xF0000000) != (uint32_t)Mem_Buff)
 140:SYS/memng/mmu.c ****     {
 141:SYS/memng/mmu.c ****         while (1)
 142:SYS/memng/mmu.c ****             ;
 143:SYS/memng/mmu.c ****     }
 144:SYS/memng/mmu.c **** 
ARM GAS  /var/folders/lx/hc4sn_b53233_zkc9xbbl97r0000gp/T//ccQG3nkw.s 			page 6


 145:SYS/memng/mmu.c ****     if (ptr != NULL)
 146:SYS/memng/mmu.c ****     {
 147:SYS/memng/mmu.c ****         Mem_Monitor.fre_t++;
 148:SYS/memng/mmu.c **** 
 149:SYS/memng/mmu.c ****         /* The memory being freed will have an BlockLink_t structure immediately
 150:SYS/memng/mmu.c **** 		before it. */
 151:SYS/memng/mmu.c ****         puc -= sizeof(MemBlock_TypeDef);
 152:SYS/memng/mmu.c **** 
 153:SYS/memng/mmu.c ****         /* This casting is to keep the compiler from issuing warnings. */
 154:SYS/memng/mmu.c ****         pxLink = (void *)puc;
 155:SYS/memng/mmu.c **** 
 156:SYS/memng/mmu.c ****         if (pxLink->nxtFree == NULL)
 157:SYS/memng/mmu.c ****         {
 158:SYS/memng/mmu.c ****             __asm("cpsid i");
 159:SYS/memng/mmu.c **** 
 160:SYS/memng/mmu.c ****             /* Add this block to the list of free blocks. */
 161:SYS/memng/mmu.c ****             Mem_Monitor.used_size -= pxLink->size;
 162:SYS/memng/mmu.c ****             Mem_Monitor.remain_size += pxLink->size;
 163:SYS/memng/mmu.c **** 
 164:SYS/memng/mmu.c ****             //traceFREE(pv, pxLink->size);
 165:SYS/memng/mmu.c ****             MMU_InsertFreeBlock(((MemBlock_TypeDef *)pxLink));
 166:SYS/memng/mmu.c **** 
 167:SYS/memng/mmu.c ****             __asm("cpsie i");
 168:SYS/memng/mmu.c ****         }
 169:SYS/memng/mmu.c ****     }
 170:SYS/memng/mmu.c **** 
 171:SYS/memng/mmu.c ****     ptr = NULL;
 172:SYS/memng/mmu.c **** }
 173:SYS/memng/mmu.c **** 
 174:SYS/memng/mmu.c **** static void MMU_InsertFreeBlock(MemBlock_TypeDef *pxBlockToInsert)
 175:SYS/memng/mmu.c **** {
 141              		.loc 1 175 1 is_stmt 1 view -0
 142              		.cfi_startproc
 143              		@ args = 0, pretend = 0, frame = 0
 144              		@ frame_needed = 0, uses_anonymous_args = 0
 145              		@ link register save eliminated.
 176:SYS/memng/mmu.c ****     MemBlock_TypeDef *pxIterator;
 146              		.loc 1 176 5 view .LVU43
 177:SYS/memng/mmu.c ****     uint8_t *puc;
 147              		.loc 1 177 5 view .LVU44
 178:SYS/memng/mmu.c **** 
 179:SYS/memng/mmu.c ****     /* Iterate through the list until a block is found that has a higher address
 180:SYS/memng/mmu.c ****      * than the block being inserted. */
 181:SYS/memng/mmu.c ****     for (pxIterator = &MemStart; pxIterator->nxtFree < pxBlockToInsert; pxIterator = pxIterator->nx
 148              		.loc 1 181 5 view .LVU45
 149              		.loc 1 181 21 is_stmt 0 view .LVU46
 150 0000 1B4B     		ldr	r3, .L23
 151              	.LVL7:
 152              	.L7:
 153              		.loc 1 181 34 is_stmt 1 discriminator 1 view .LVU47
 154 0002 1A46     		mov	r2, r3
 155              		.loc 1 181 44 is_stmt 0 discriminator 1 view .LVU48
 156 0004 1B68     		ldr	r3, [r3]
 157              	.LVL8:
 158              		.loc 1 181 5 discriminator 1 view .LVU49
 159 0006 8342     		cmp	r3, r0
 160 0008 FBD3     		bcc	.L7
ARM GAS  /var/folders/lx/hc4sn_b53233_zkc9xbbl97r0000gp/T//ccQG3nkw.s 			page 7


 182:SYS/memng/mmu.c ****     {
 183:SYS/memng/mmu.c ****         /* Nothing to do here, just iterate to the right position. */
 184:SYS/memng/mmu.c ****     }
 185:SYS/memng/mmu.c **** 
 186:SYS/memng/mmu.c ****     if (pxIterator == NULL)
 161              		.loc 1 186 5 is_stmt 1 view .LVU50
 162              		.loc 1 186 8 is_stmt 0 view .LVU51
 163 000a 002A     		cmp	r2, #0
 164 000c 2FD0     		beq	.L16
 187:SYS/memng/mmu.c ****         return;
 188:SYS/memng/mmu.c **** 
 189:SYS/memng/mmu.c ****     puc = (uint8_t *)pxIterator;
 165              		.loc 1 189 5 is_stmt 1 view .LVU52
 166              	.LVL9:
 190:SYS/memng/mmu.c **** 
 191:SYS/memng/mmu.c ****     if ((puc != (uint8_t *)&MemStart) && ((uint32_t)puc & 0xF0000000) != (uint32_t)Mem_Buff)
 167              		.loc 1 191 5 view .LVU53
 168              		.loc 1 191 8 is_stmt 0 view .LVU54
 169 000e 1849     		ldr	r1, .L23
 170 0010 8A42     		cmp	r2, r1
 171 0012 05D0     		beq	.L9
 172              		.loc 1 191 57 discriminator 1 view .LVU55
 173 0014 02F0704C 		and	ip, r2, #-268435456
 174              		.loc 1 191 74 discriminator 1 view .LVU56
 175 0018 1649     		ldr	r1, .L23+4
 176              		.loc 1 191 39 discriminator 1 view .LVU57
 177 001a 8C45     		cmp	ip, r1
 178 001c 00D0     		beq	.L9
 179              	.L10:
 192:SYS/memng/mmu.c ****     {
 193:SYS/memng/mmu.c ****         while (1)
 180              		.loc 1 193 9 is_stmt 1 discriminator 1 view .LVU58
 194:SYS/memng/mmu.c ****             ;
 181              		.loc 1 194 13 discriminator 1 view .LVU59
 193:SYS/memng/mmu.c ****             ;
 182              		.loc 1 193 15 discriminator 1 view .LVU60
 183 001e FEE7     		b	.L10
 184              	.L9:
 195:SYS/memng/mmu.c ****     }
 196:SYS/memng/mmu.c **** 
 197:SYS/memng/mmu.c ****     if ((puc + pxIterator->size) == (uint8_t *)pxBlockToInsert)
 185              		.loc 1 197 5 view .LVU61
 186              		.loc 1 197 26 is_stmt 0 view .LVU62
 187 0020 9188     		ldrh	r1, [r2, #4]
 188              		.loc 1 197 14 view .LVU63
 189 0022 02EB010C 		add	ip, r2, r1
 190              		.loc 1 197 8 view .LVU64
 191 0026 8445     		cmp	ip, r0
 192 0028 09D0     		beq	.L21
 193              	.L11:
 198:SYS/memng/mmu.c ****     {
 199:SYS/memng/mmu.c ****         pxIterator->size += pxBlockToInsert->size;
 200:SYS/memng/mmu.c ****         pxBlockToInsert = pxIterator;
 201:SYS/memng/mmu.c ****     }
 202:SYS/memng/mmu.c **** 
 203:SYS/memng/mmu.c ****     /* Do the block being inserted, and the block it is being inserted before
 204:SYS/memng/mmu.c **** 	make a contiguous block of memory? */
ARM GAS  /var/folders/lx/hc4sn_b53233_zkc9xbbl97r0000gp/T//ccQG3nkw.s 			page 8


 205:SYS/memng/mmu.c ****     puc = (uint8_t *)pxBlockToInsert;
 194              		.loc 1 205 5 is_stmt 1 view .LVU65
 195              	.LVL10:
 206:SYS/memng/mmu.c **** 
 207:SYS/memng/mmu.c ****     if ((puc + pxBlockToInsert->size) == (uint8_t *)pxIterator->nxtFree)
 196              		.loc 1 207 5 view .LVU66
 197              		.loc 1 207 31 is_stmt 0 view .LVU67
 198 002a 8188     		ldrh	r1, [r0, #4]
 199              		.loc 1 207 14 view .LVU68
 200 002c 00EB010C 		add	ip, r0, r1
 201              		.loc 1 207 8 view .LVU69
 202 0030 6345     		cmp	r3, ip
 203 0032 09D0     		beq	.L22
 208:SYS/memng/mmu.c ****     {
 209:SYS/memng/mmu.c ****         if (pxIterator->nxtFree != MemEnd)
 210:SYS/memng/mmu.c ****         {
 211:SYS/memng/mmu.c ****             /* Form one big block from the two blocks. */
 212:SYS/memng/mmu.c ****             pxBlockToInsert->size += pxIterator->nxtFree->size;
 213:SYS/memng/mmu.c ****             pxBlockToInsert->nxtFree = pxIterator->nxtFree->nxtFree;
 214:SYS/memng/mmu.c ****         }
 215:SYS/memng/mmu.c ****         else
 216:SYS/memng/mmu.c ****         {
 217:SYS/memng/mmu.c ****             pxBlockToInsert->nxtFree = MemEnd;
 218:SYS/memng/mmu.c ****         }
 219:SYS/memng/mmu.c ****     }
 220:SYS/memng/mmu.c ****     else
 221:SYS/memng/mmu.c ****     {
 222:SYS/memng/mmu.c ****         pxBlockToInsert->nxtFree = pxIterator->nxtFree;
 204              		.loc 1 222 9 is_stmt 1 view .LVU70
 205              		.loc 1 222 34 is_stmt 0 view .LVU71
 206 0034 0360     		str	r3, [r0]
 223:SYS/memng/mmu.c ****     }
 224:SYS/memng/mmu.c **** 
 225:SYS/memng/mmu.c ****     if (pxIterator != pxBlockToInsert)
 207              		.loc 1 225 5 is_stmt 1 view .LVU72
 208              		.loc 1 225 8 is_stmt 0 view .LVU73
 209 0036 9042     		cmp	r0, r2
 210 0038 19D0     		beq	.L16
 226:SYS/memng/mmu.c ****     {
 227:SYS/memng/mmu.c ****         pxIterator->nxtFree = pxBlockToInsert;
 211              		.loc 1 227 9 is_stmt 1 view .LVU74
 212              		.loc 1 227 29 is_stmt 0 view .LVU75
 213 003a 1060     		str	r0, [r2]
 214 003c 7047     		bx	lr
 215              	.LVL11:
 216              	.L21:
 199:SYS/memng/mmu.c ****         pxBlockToInsert = pxIterator;
 217              		.loc 1 199 9 is_stmt 1 view .LVU76
 199:SYS/memng/mmu.c ****         pxBlockToInsert = pxIterator;
 218              		.loc 1 199 44 is_stmt 0 view .LVU77
 219 003e 8088     		ldrh	r0, [r0, #4]
 220              	.LVL12:
 199:SYS/memng/mmu.c ****         pxBlockToInsert = pxIterator;
 221              		.loc 1 199 26 view .LVU78
 222 0040 0144     		add	r1, r1, r0
 223 0042 9180     		strh	r1, [r2, #4]	@ movhi
 200:SYS/memng/mmu.c ****     }
ARM GAS  /var/folders/lx/hc4sn_b53233_zkc9xbbl97r0000gp/T//ccQG3nkw.s 			page 9


 224              		.loc 1 200 9 is_stmt 1 view .LVU79
 225              	.LVL13:
 200:SYS/memng/mmu.c ****     }
 226              		.loc 1 200 25 is_stmt 0 view .LVU80
 227 0044 1046     		mov	r0, r2
 228 0046 F0E7     		b	.L11
 229              	.LVL14:
 230              	.L22:
 175:SYS/memng/mmu.c ****     MemBlock_TypeDef *pxIterator;
 231              		.loc 1 175 1 view .LVU81
 232 0048 10B4     		push	{r4}
 233              	.LCFI0:
 234              		.cfi_def_cfa_offset 4
 235              		.cfi_offset 4, -4
 209:SYS/memng/mmu.c ****         {
 236              		.loc 1 209 9 is_stmt 1 view .LVU82
 209:SYS/memng/mmu.c ****         {
 237              		.loc 1 209 33 is_stmt 0 view .LVU83
 238 004a 0B4C     		ldr	r4, .L23+8
 239 004c 2468     		ldr	r4, [r4]
 209:SYS/memng/mmu.c ****         {
 240              		.loc 1 209 12 view .LVU84
 241 004e A342     		cmp	r3, r4
 242 0050 0BD0     		beq	.L13
 212:SYS/memng/mmu.c ****             pxBlockToInsert->nxtFree = pxIterator->nxtFree->nxtFree;
 243              		.loc 1 212 13 is_stmt 1 view .LVU85
 212:SYS/memng/mmu.c ****             pxBlockToInsert->nxtFree = pxIterator->nxtFree->nxtFree;
 244              		.loc 1 212 57 is_stmt 0 view .LVU86
 245 0052 9B88     		ldrh	r3, [r3, #4]
 212:SYS/memng/mmu.c ****             pxBlockToInsert->nxtFree = pxIterator->nxtFree->nxtFree;
 246              		.loc 1 212 35 view .LVU87
 247 0054 1944     		add	r1, r1, r3
 248 0056 8180     		strh	r1, [r0, #4]	@ movhi
 213:SYS/memng/mmu.c ****         }
 249              		.loc 1 213 13 is_stmt 1 view .LVU88
 213:SYS/memng/mmu.c ****         }
 250              		.loc 1 213 50 is_stmt 0 view .LVU89
 251 0058 1368     		ldr	r3, [r2]
 213:SYS/memng/mmu.c ****         }
 252              		.loc 1 213 59 view .LVU90
 253 005a 1B68     		ldr	r3, [r3]
 213:SYS/memng/mmu.c ****         }
 254              		.loc 1 213 38 view .LVU91
 255 005c 0360     		str	r3, [r0]
 256              	.L14:
 225:SYS/memng/mmu.c ****     {
 257              		.loc 1 225 5 is_stmt 1 view .LVU92
 225:SYS/memng/mmu.c ****     {
 258              		.loc 1 225 8 is_stmt 0 view .LVU93
 259 005e 9042     		cmp	r0, r2
 260 0060 00D0     		beq	.L6
 261              		.loc 1 227 9 is_stmt 1 view .LVU94
 262              		.loc 1 227 29 is_stmt 0 view .LVU95
 263 0062 1060     		str	r0, [r2]
 264              	.L6:
 228:SYS/memng/mmu.c ****     }
 229:SYS/memng/mmu.c **** }
ARM GAS  /var/folders/lx/hc4sn_b53233_zkc9xbbl97r0000gp/T//ccQG3nkw.s 			page 10


 265              		.loc 1 229 1 view .LVU96
 266 0064 5DF8044B 		ldr	r4, [sp], #4
 267              	.LCFI1:
 268              		.cfi_remember_state
 269              		.cfi_restore 4
 270              		.cfi_def_cfa_offset 0
 271 0068 7047     		bx	lr
 272              	.L13:
 273              	.LCFI2:
 274              		.cfi_restore_state
 217:SYS/memng/mmu.c ****         }
 275              		.loc 1 217 13 is_stmt 1 view .LVU97
 217:SYS/memng/mmu.c ****         }
 276              		.loc 1 217 38 is_stmt 0 view .LVU98
 277 006a 0460     		str	r4, [r0]
 278 006c F7E7     		b	.L14
 279              	.LVL15:
 280              	.L16:
 281              	.LCFI3:
 282              		.cfi_def_cfa_offset 0
 283              		.cfi_restore 4
 217:SYS/memng/mmu.c ****         }
 284              		.loc 1 217 38 view .LVU99
 285 006e 7047     		bx	lr
 286              	.L24:
 287              		.align	2
 288              	.L23:
 289 0070 00000000 		.word	.LANCHOR1
 290 0074 00000000 		.word	Mem_Buff
 291 0078 00000000 		.word	.LANCHOR2
 292              		.cfi_endproc
 293              	.LFE7:
 295              		.section	.text.MMU_Get_Monitor,"ax",%progbits
 296              		.align	1
 297              		.global	MMU_Get_Monitor
 298              		.syntax unified
 299              		.thumb
 300              		.thumb_func
 301              		.fpu fpv4-sp-d16
 303              	MMU_Get_Monitor:
 304              	.LVL16:
 305              	.LFB3:
  20:SYS/memng/mmu.c ****     MemBlock_TypeDef *pxIterator;
 306              		.loc 1 20 1 is_stmt 1 view -0
 307              		.cfi_startproc
 308              		@ args = 0, pretend = 0, frame = 0
 309              		@ frame_needed = 0, uses_anonymous_args = 0
  20:SYS/memng/mmu.c ****     MemBlock_TypeDef *pxIterator;
 310              		.loc 1 20 1 is_stmt 0 view .LVU101
 311 0000 10B5     		push	{r4, lr}
 312              	.LCFI4:
 313              		.cfi_def_cfa_offset 8
 314              		.cfi_offset 4, -8
 315              		.cfi_offset 14, -4
 316 0002 8646     		mov	lr, r0
  21:SYS/memng/mmu.c **** 
 317              		.loc 1 21 5 is_stmt 1 view .LVU102
ARM GAS  /var/folders/lx/hc4sn_b53233_zkc9xbbl97r0000gp/T//ccQG3nkw.s 			page 11


  24:SYS/memng/mmu.c ****     {
 318              		.loc 1 24 5 view .LVU103
 319              	.LVL17:
  24:SYS/memng/mmu.c ****     {
 320              		.loc 1 24 21 is_stmt 0 view .LVU104
 321 0004 0C4A     		ldr	r2, .L29
  24:SYS/memng/mmu.c ****     {
 322              		.loc 1 24 5 view .LVU105
 323 0006 04E0     		b	.L26
 324              	.LVL18:
 325              	.L27:
  26:SYS/memng/mmu.c ****     }
 326              		.loc 1 26 9 is_stmt 1 discriminator 3 view .LVU106
  26:SYS/memng/mmu.c ****     }
 327              		.loc 1 26 20 is_stmt 0 discriminator 3 view .LVU107
 328 0008 0C49     		ldr	r1, .L29+4
 329 000a 8B8A     		ldrh	r3, [r1, #20]
  26:SYS/memng/mmu.c ****     }
 330              		.loc 1 26 34 discriminator 3 view .LVU108
 331 000c 0133     		adds	r3, r3, #1
 332 000e 8B82     		strh	r3, [r1, #20]	@ movhi
  24:SYS/memng/mmu.c ****     {
 333              		.loc 1 24 65 is_stmt 1 discriminator 3 view .LVU109
  24:SYS/memng/mmu.c ****     {
 334              		.loc 1 24 76 is_stmt 0 discriminator 3 view .LVU110
 335 0010 1268     		ldr	r2, [r2]
 336              	.LVL19:
 337              	.L26:
  24:SYS/memng/mmu.c ****     {
 338              		.loc 1 24 34 is_stmt 1 discriminator 1 view .LVU111
  24:SYS/memng/mmu.c ****     {
 339              		.loc 1 24 44 is_stmt 0 discriminator 1 view .LVU112
 340 0012 1168     		ldr	r1, [r2]
  24:SYS/memng/mmu.c ****     {
 341              		.loc 1 24 54 discriminator 1 view .LVU113
 342 0014 0A4B     		ldr	r3, .L29+8
 343 0016 1B68     		ldr	r3, [r3]
  24:SYS/memng/mmu.c ****     {
 344              		.loc 1 24 5 discriminator 1 view .LVU114
 345 0018 9942     		cmp	r1, r3
 346 001a F5D1     		bne	.L27
  29:SYS/memng/mmu.c **** }
 347              		.loc 1 29 5 is_stmt 1 view .LVU115
  29:SYS/memng/mmu.c **** }
 348              		.loc 1 29 12 is_stmt 0 view .LVU116
 349 001c F446     		mov	ip, lr
 350 001e 074C     		ldr	r4, .L29+4
 351 0020 0FCC     		ldmia	r4!, {r0, r1, r2, r3}
 352              	.LVL20:
  29:SYS/memng/mmu.c **** }
 353              		.loc 1 29 12 view .LVU117
 354 0022 ACE80F00 		stmia	ip!, {r0, r1, r2, r3}
 355 0026 0FCC     		ldmia	r4!, {r0, r1, r2, r3}
 356 0028 ACE80F00 		stmia	ip!, {r0, r1, r2, r3}
 357 002c 2368     		ldr	r3, [r4]
 358 002e CCF80030 		str	r3, [ip]
  30:SYS/memng/mmu.c **** 
ARM GAS  /var/folders/lx/hc4sn_b53233_zkc9xbbl97r0000gp/T//ccQG3nkw.s 			page 12


 359              		.loc 1 30 1 view .LVU118
 360 0032 7046     		mov	r0, lr
 361 0034 10BD     		pop	{r4, pc}
 362              	.L30:
 363 0036 00BF     		.align	2
 364              	.L29:
 365 0038 00000000 		.word	.LANCHOR1
 366 003c 00000000 		.word	.LANCHOR0
 367 0040 00000000 		.word	.LANCHOR2
 368              		.cfi_endproc
 369              	.LFE3:
 371              		.section	.text.MMU_Malloc,"ax",%progbits
 372              		.align	1
 373              		.global	MMU_Malloc
 374              		.syntax unified
 375              		.thumb
 376              		.thumb_func
 377              		.fpu fpv4-sp-d16
 379              	MMU_Malloc:
 380              	.LVL21:
 381              	.LFB5:
  66:SYS/memng/mmu.c ****     MemBlock_TypeDef *PrvFreeBlock = NULL;
 382              		.loc 1 66 1 is_stmt 1 view -0
 383              		.cfi_startproc
 384              		@ args = 0, pretend = 0, frame = 0
 385              		@ frame_needed = 0, uses_anonymous_args = 0
  66:SYS/memng/mmu.c ****     MemBlock_TypeDef *PrvFreeBlock = NULL;
 386              		.loc 1 66 1 is_stmt 0 view .LVU120
 387 0000 70B5     		push	{r4, r5, r6, lr}
 388              	.LCFI5:
 389              		.cfi_def_cfa_offset 16
 390              		.cfi_offset 4, -16
 391              		.cfi_offset 5, -12
 392              		.cfi_offset 6, -8
 393              		.cfi_offset 14, -4
 394 0002 0546     		mov	r5, r0
  67:SYS/memng/mmu.c ****     MemBlock_TypeDef *NxtFreeBlock = NULL;
 395              		.loc 1 67 5 is_stmt 1 view .LVU121
 396              	.LVL22:
  68:SYS/memng/mmu.c ****     MemBlock_TypeDef *Block_Tmp = NULL;
 397              		.loc 1 68 5 view .LVU122
  69:SYS/memng/mmu.c ****     void *mem_addr = NULL;
 398              		.loc 1 69 5 view .LVU123
  70:SYS/memng/mmu.c **** 
 399              		.loc 1 70 5 view .LVU124
  72:SYS/memng/mmu.c **** 
 400              		.loc 1 72 5 view .LVU125
  72:SYS/memng/mmu.c **** 
 401              		.loc 1 72 11 is_stmt 0 view .LVU126
 402 0004 2B4B     		ldr	r3, .L45
 403 0006 0122     		movs	r2, #1
 404 0008 1A70     		strb	r2, [r3]
  74:SYS/memng/mmu.c **** 
 405              		.loc 1 74 5 is_stmt 1 view .LVU127
 406              		.syntax unified
 407              	@ 74 "SYS/memng/mmu.c" 1
 408 000a 72B6     		cpsid i
ARM GAS  /var/folders/lx/hc4sn_b53233_zkc9xbbl97r0000gp/T//ccQG3nkw.s 			page 13


 409              	@ 0 "" 2
  76:SYS/memng/mmu.c ****     {
 410              		.loc 1 76 5 view .LVU128
  76:SYS/memng/mmu.c ****     {
 411              		.loc 1 76 21 is_stmt 0 view .LVU129
 412              		.thumb
 413              		.syntax unified
 414 000c 2A4B     		ldr	r3, .L45+4
 415 000e 93F82030 		ldrb	r3, [r3, #32]	@ zero_extendqisi2
  76:SYS/memng/mmu.c ****     {
 416              		.loc 1 76 8 view .LVU130
 417 0012 63B1     		cbz	r3, .L43
 418              	.LVL23:
 419              	.L32:
  81:SYS/memng/mmu.c **** 
 420              		.loc 1 81 5 is_stmt 1 view .LVU131
  81:SYS/memng/mmu.c **** 
 421              		.loc 1 81 10 is_stmt 0 view .LVU132
 422 0014 0835     		adds	r5, r5, #8
 423 0016 ABB2     		uxth	r3, r5
 424              	.LVL24:
  83:SYS/memng/mmu.c ****     {
 425              		.loc 1 83 5 is_stmt 1 view .LVU133
  83:SYS/memng/mmu.c ****     {
 426              		.loc 1 83 27 is_stmt 0 view .LVU134
 427 0018 274A     		ldr	r2, .L45+4
 428 001a 9268     		ldr	r2, [r2, #8]
  83:SYS/memng/mmu.c ****     {
 429              		.loc 1 83 8 view .LVU135
 430 001c 9342     		cmp	r3, r2
 431 001e 43D2     		bcs	.L39
  86:SYS/memng/mmu.c **** 
 432              		.loc 1 86 9 is_stmt 1 view .LVU136
  86:SYS/memng/mmu.c **** 
 433              		.loc 1 86 23 is_stmt 0 view .LVU137
 434 0020 03F00305 		and	r5, r3, #3
  86:SYS/memng/mmu.c **** 
 435              		.loc 1 86 14 view .LVU138
 436 0024 1D44     		add	r5, r5, r3
 437 0026 ADB2     		uxth	r5, r5
 438              	.LVL25:
  88:SYS/memng/mmu.c ****         Block_Tmp = MemStart.nxtFree;
 439              		.loc 1 88 9 is_stmt 1 view .LVU139
  89:SYS/memng/mmu.c **** 
 440              		.loc 1 89 9 view .LVU140
  89:SYS/memng/mmu.c **** 
 441              		.loc 1 89 19 is_stmt 0 view .LVU141
 442 0028 244A     		ldr	r2, .L45+8
 443 002a 1468     		ldr	r4, [r2]
 444              	.LVL26:
  91:SYS/memng/mmu.c ****         {
 445              		.loc 1 91 9 is_stmt 1 view .LVU142
  91:SYS/memng/mmu.c ****         {
 446              		.loc 1 91 15 is_stmt 0 view .LVU143
 447 002c 04E0     		b	.L34
 448              	.LVL27:
 449              	.L43:
ARM GAS  /var/folders/lx/hc4sn_b53233_zkc9xbbl97r0000gp/T//ccQG3nkw.s 			page 14


  78:SYS/memng/mmu.c ****     }
 450              		.loc 1 78 9 is_stmt 1 view .LVU144
 451 002e FFF7FEFF 		bl	MMU_Init
 452              	.LVL28:
  78:SYS/memng/mmu.c ****     }
 453              		.loc 1 78 9 is_stmt 0 view .LVU145
 454 0032 EFE7     		b	.L32
 455              	.LVL29:
 456              	.L35:
  95:SYS/memng/mmu.c ****             {
 457              		.loc 1 95 16 view .LVU146
 458 0034 2246     		mov	r2, r4
 459 0036 1C46     		mov	r4, r3
 460              	.LVL30:
 461              	.L34:
  91:SYS/memng/mmu.c ****         {
 462              		.loc 1 91 15 is_stmt 1 view .LVU147
  91:SYS/memng/mmu.c ****         {
 463              		.loc 1 91 26 is_stmt 0 view .LVU148
 464 0038 A388     		ldrh	r3, [r4, #4]
  91:SYS/memng/mmu.c ****         {
 465              		.loc 1 91 15 view .LVU149
 466 003a AB42     		cmp	r3, r5
 467 003c 08D2     		bcs	.L36
  91:SYS/memng/mmu.c ****         {
 468              		.loc 1 91 54 discriminator 1 view .LVU150
 469 003e 2368     		ldr	r3, [r4]
  91:SYS/memng/mmu.c ****         {
 470              		.loc 1 91 41 discriminator 1 view .LVU151
 471 0040 33B1     		cbz	r3, .L36
  93:SYS/memng/mmu.c **** 
 472              		.loc 1 93 13 is_stmt 1 view .LVU152
 473              	.LVL31:
  95:SYS/memng/mmu.c ****             {
 474              		.loc 1 95 13 view .LVU153
  95:SYS/memng/mmu.c ****             {
 475              		.loc 1 95 47 is_stmt 0 view .LVU154
 476 0042 03F07041 		and	r1, r3, #-268435456
  95:SYS/memng/mmu.c ****             {
 477              		.loc 1 95 64 view .LVU155
 478 0046 1E4A     		ldr	r2, .L45+12
  95:SYS/memng/mmu.c ****             {
 479              		.loc 1 95 16 view .LVU156
 480 0048 9142     		cmp	r1, r2
 481 004a F3D0     		beq	.L35
 482 004c 2346     		mov	r3, r4
 483 004e F1E7     		b	.L35
 484              	.LVL32:
 485              	.L36:
 101:SYS/memng/mmu.c ****         {
 486              		.loc 1 101 9 is_stmt 1 view .LVU157
 101:SYS/memng/mmu.c ****         {
 487              		.loc 1 101 35 is_stmt 0 view .LVU158
 488 0050 04F07041 		and	r1, r4, #-268435456
 101:SYS/memng/mmu.c ****         {
 489              		.loc 1 101 52 view .LVU159
 490 0054 1A4B     		ldr	r3, .L45+12
ARM GAS  /var/folders/lx/hc4sn_b53233_zkc9xbbl97r0000gp/T//ccQG3nkw.s 			page 15


 101:SYS/memng/mmu.c ****         {
 491              		.loc 1 101 12 view .LVU160
 492 0056 9942     		cmp	r1, r3
 493 0058 28D1     		bne	.L40
 101:SYS/memng/mmu.c ****         {
 494              		.loc 1 101 86 discriminator 1 view .LVU161
 495 005a 1A4B     		ldr	r3, .L45+16
 496 005c 1B68     		ldr	r3, [r3]
 101:SYS/memng/mmu.c ****         {
 497              		.loc 1 101 72 discriminator 1 view .LVU162
 498 005e A342     		cmp	r3, r4
 499 0060 26D0     		beq	.L41
 103:SYS/memng/mmu.c **** 
 500              		.loc 1 103 13 is_stmt 1 view .LVU163
 103:SYS/memng/mmu.c **** 
 501              		.loc 1 103 24 is_stmt 0 view .LVU164
 502 0062 1549     		ldr	r1, .L45+4
 503 0064 8B69     		ldr	r3, [r1, #24]
 103:SYS/memng/mmu.c **** 
 504              		.loc 1 103 30 view .LVU165
 505 0066 0133     		adds	r3, r3, #1
 506 0068 8B61     		str	r3, [r1, #24]
 105:SYS/memng/mmu.c **** 
 507              		.loc 1 105 13 is_stmt 1 view .LVU166
 105:SYS/memng/mmu.c **** 
 508              		.loc 1 105 22 is_stmt 0 view .LVU167
 509 006a 2646     		mov	r6, r4
 510              	.LVL33:
 107:SYS/memng/mmu.c **** 
 511              		.loc 1 107 13 is_stmt 1 view .LVU168
 107:SYS/memng/mmu.c **** 
 512              		.loc 1 107 46 is_stmt 0 view .LVU169
 513 006c 56F8083B 		ldr	r3, [r6], #8
 514              	.LVL34:
 107:SYS/memng/mmu.c **** 
 515              		.loc 1 107 35 view .LVU170
 516 0070 1360     		str	r3, [r2]
 109:SYS/memng/mmu.c ****             {
 517              		.loc 1 109 13 is_stmt 1 view .LVU171
 109:SYS/memng/mmu.c ****             {
 518              		.loc 1 109 27 is_stmt 0 view .LVU172
 519 0072 A388     		ldrh	r3, [r4, #4]
 109:SYS/memng/mmu.c ****             {
 520              		.loc 1 109 34 view .LVU173
 521 0074 5A1B     		subs	r2, r3, r5
 522              	.LVL35:
 109:SYS/memng/mmu.c ****             {
 523              		.loc 1 109 16 view .LVU174
 524 0076 082A     		cmp	r2, #8
 525 0078 0EDC     		bgt	.L44
 526              	.LVL36:
 527              	.L38:
 118:SYS/memng/mmu.c ****             Mem_Monitor.used_size += size;
 528              		.loc 1 118 13 is_stmt 1 view .LVU175
 118:SYS/memng/mmu.c ****             Mem_Monitor.used_size += size;
 529              		.loc 1 118 37 is_stmt 0 view .LVU176
 530 007a 0F4B     		ldr	r3, .L45+4
ARM GAS  /var/folders/lx/hc4sn_b53233_zkc9xbbl97r0000gp/T//ccQG3nkw.s 			page 16


 531 007c 9A68     		ldr	r2, [r3, #8]
 532 007e 521B     		subs	r2, r2, r5
 533 0080 9A60     		str	r2, [r3, #8]
 119:SYS/memng/mmu.c **** 
 534              		.loc 1 119 13 is_stmt 1 view .LVU177
 119:SYS/memng/mmu.c **** 
 535              		.loc 1 119 35 is_stmt 0 view .LVU178
 536 0082 5A68     		ldr	r2, [r3, #4]
 537 0084 2A44     		add	r2, r2, r5
 538 0086 5A60     		str	r2, [r3, #4]
 121:SYS/memng/mmu.c ****         }
 539              		.loc 1 121 13 is_stmt 1 view .LVU179
 121:SYS/memng/mmu.c ****         }
 540              		.loc 1 121 32 is_stmt 0 view .LVU180
 541 0088 0023     		movs	r3, #0
 542 008a 2360     		str	r3, [r4]
 543              	.LVL37:
 544              	.L33:
 125:SYS/memng/mmu.c **** 
 545              		.loc 1 125 5 is_stmt 1 view .LVU181
 546              		.syntax unified
 547              	@ 125 "SYS/memng/mmu.c" 1
 548 008c 62B6     		cpsie i
 549              	@ 0 "" 2
 127:SYS/memng/mmu.c **** 
 550              		.loc 1 127 5 view .LVU182
 127:SYS/memng/mmu.c **** 
 551              		.loc 1 127 27 is_stmt 0 view .LVU183
 552              		.thumb
 553              		.syntax unified
 554 008e 0A4B     		ldr	r3, .L45+4
 555 0090 0A4A     		ldr	r2, .L45+8
 556 0092 1A61     		str	r2, [r3, #16]
 129:SYS/memng/mmu.c **** }
 557              		.loc 1 129 5 is_stmt 1 view .LVU184
 130:SYS/memng/mmu.c **** 
 558              		.loc 1 130 1 is_stmt 0 view .LVU185
 559 0094 3046     		mov	r0, r6
 560 0096 70BD     		pop	{r4, r5, r6, pc}
 561              	.LVL38:
 562              	.L44:
 111:SYS/memng/mmu.c ****                 NxtFreeBlock->size = Block_Tmp->size - size - sizeof(MemBlock_TypeDef);
 563              		.loc 1 111 17 is_stmt 1 view .LVU186
 111:SYS/memng/mmu.c ****                 NxtFreeBlock->size = Block_Tmp->size - size - sizeof(MemBlock_TypeDef);
 564              		.loc 1 111 30 is_stmt 0 view .LVU187
 565 0098 6019     		adds	r0, r4, r5
 566              	.LVL39:
 112:SYS/memng/mmu.c ****                 Block_Tmp->size = size;
 567              		.loc 1 112 17 is_stmt 1 view .LVU188
 112:SYS/memng/mmu.c ****                 Block_Tmp->size = size;
 568              		.loc 1 112 54 is_stmt 0 view .LVU189
 569 009a 93B2     		uxth	r3, r2
 112:SYS/memng/mmu.c ****                 Block_Tmp->size = size;
 570              		.loc 1 112 61 view .LVU190
 571 009c 083B     		subs	r3, r3, #8
 112:SYS/memng/mmu.c ****                 Block_Tmp->size = size;
 572              		.loc 1 112 36 view .LVU191
ARM GAS  /var/folders/lx/hc4sn_b53233_zkc9xbbl97r0000gp/T//ccQG3nkw.s 			page 17


 573 009e 8380     		strh	r3, [r0, #4]	@ movhi
 113:SYS/memng/mmu.c **** 
 574              		.loc 1 113 17 is_stmt 1 view .LVU192
 113:SYS/memng/mmu.c **** 
 575              		.loc 1 113 33 is_stmt 0 view .LVU193
 576 00a0 A580     		strh	r5, [r4, #4]	@ movhi
 115:SYS/memng/mmu.c ****             }
 577              		.loc 1 115 17 is_stmt 1 view .LVU194
 578 00a2 FFF7FEFF 		bl	MMU_InsertFreeBlock
 579              	.LVL40:
 580 00a6 E8E7     		b	.L38
 581              	.LVL41:
 582              	.L39:
  70:SYS/memng/mmu.c **** 
 583              		.loc 1 70 11 is_stmt 0 view .LVU195
 584 00a8 0026     		movs	r6, #0
 585 00aa EFE7     		b	.L33
 586              	.LVL42:
 587              	.L40:
  70:SYS/memng/mmu.c **** 
 588              		.loc 1 70 11 view .LVU196
 589 00ac 0026     		movs	r6, #0
 590 00ae EDE7     		b	.L33
 591              	.L41:
 592 00b0 0026     		movs	r6, #0
 593 00b2 EBE7     		b	.L33
 594              	.L46:
 595              		.align	2
 596              	.L45:
 597 00b4 00000000 		.word	.LANCHOR3
 598 00b8 00000000 		.word	.LANCHOR0
 599 00bc 00000000 		.word	.LANCHOR1
 600 00c0 00000000 		.word	Mem_Buff
 601 00c4 00000000 		.word	.LANCHOR2
 602              		.cfi_endproc
 603              	.LFE5:
 605              		.section	.text.MMU_Free,"ax",%progbits
 606              		.align	1
 607              		.global	MMU_Free
 608              		.syntax unified
 609              		.thumb
 610              		.thumb_func
 611              		.fpu fpv4-sp-d16
 613              	MMU_Free:
 614              	.LVL43:
 615              	.LFB6:
 133:SYS/memng/mmu.c ****     uint8_t *puc = (uint8_t *)ptr;
 616              		.loc 1 133 1 is_stmt 1 view -0
 617              		.cfi_startproc
 618              		@ args = 0, pretend = 0, frame = 0
 619              		@ frame_needed = 0, uses_anonymous_args = 0
 133:SYS/memng/mmu.c ****     uint8_t *puc = (uint8_t *)ptr;
 620              		.loc 1 133 1 is_stmt 0 view .LVU198
 621 0000 08B5     		push	{r3, lr}
 622              	.LCFI6:
 623              		.cfi_def_cfa_offset 8
 624              		.cfi_offset 3, -8
ARM GAS  /var/folders/lx/hc4sn_b53233_zkc9xbbl97r0000gp/T//ccQG3nkw.s 			page 18


 625              		.cfi_offset 14, -4
 134:SYS/memng/mmu.c ****     MemBlock_TypeDef *pxLink;
 626              		.loc 1 134 5 is_stmt 1 view .LVU199
 627              	.LVL44:
 135:SYS/memng/mmu.c **** 
 628              		.loc 1 135 5 view .LVU200
 137:SYS/memng/mmu.c **** 
 629              		.loc 1 137 5 view .LVU201
 137:SYS/memng/mmu.c **** 
 630              		.loc 1 137 11 is_stmt 0 view .LVU202
 631 0002 134B     		ldr	r3, .L53
 632 0004 0222     		movs	r2, #2
 633 0006 1A70     		strb	r2, [r3]
 139:SYS/memng/mmu.c ****     {
 634              		.loc 1 139 5 is_stmt 1 view .LVU203
 139:SYS/memng/mmu.c ****     {
 635              		.loc 1 139 24 is_stmt 0 view .LVU204
 636 0008 00F07042 		and	r2, r0, #-268435456
 139:SYS/memng/mmu.c ****     {
 637              		.loc 1 139 41 view .LVU205
 638 000c 114B     		ldr	r3, .L53+4
 139:SYS/memng/mmu.c ****     {
 639              		.loc 1 139 8 view .LVU206
 640 000e 9A42     		cmp	r2, r3
 641 0010 00D0     		beq	.L48
 642              	.L49:
 141:SYS/memng/mmu.c ****             ;
 643              		.loc 1 141 9 is_stmt 1 discriminator 1 view .LVU207
 142:SYS/memng/mmu.c ****     }
 644              		.loc 1 142 13 discriminator 1 view .LVU208
 141:SYS/memng/mmu.c ****             ;
 645              		.loc 1 141 15 discriminator 1 view .LVU209
 646 0012 FEE7     		b	.L49
 647              	.L48:
 145:SYS/memng/mmu.c ****     {
 648              		.loc 1 145 5 view .LVU210
 145:SYS/memng/mmu.c ****     {
 649              		.loc 1 145 8 is_stmt 0 view .LVU211
 650 0014 40B1     		cbz	r0, .L47
 147:SYS/memng/mmu.c **** 
 651              		.loc 1 147 9 is_stmt 1 view .LVU212
 147:SYS/memng/mmu.c **** 
 652              		.loc 1 147 20 is_stmt 0 view .LVU213
 653 0016 104A     		ldr	r2, .L53+8
 654 0018 D369     		ldr	r3, [r2, #28]
 147:SYS/memng/mmu.c **** 
 655              		.loc 1 147 26 view .LVU214
 656 001a 0133     		adds	r3, r3, #1
 657 001c D361     		str	r3, [r2, #28]
 151:SYS/memng/mmu.c **** 
 658              		.loc 1 151 9 is_stmt 1 view .LVU215
 151:SYS/memng/mmu.c **** 
 659              		.loc 1 151 13 is_stmt 0 view .LVU216
 660 001e A0F10802 		sub	r2, r0, #8
 661              	.LVL45:
 154:SYS/memng/mmu.c **** 
 662              		.loc 1 154 9 is_stmt 1 view .LVU217
ARM GAS  /var/folders/lx/hc4sn_b53233_zkc9xbbl97r0000gp/T//ccQG3nkw.s 			page 19


 156:SYS/memng/mmu.c ****         {
 663              		.loc 1 156 9 view .LVU218
 156:SYS/memng/mmu.c ****         {
 664              		.loc 1 156 19 is_stmt 0 view .LVU219
 665 0022 50F8083C 		ldr	r3, [r0, #-8]
 156:SYS/memng/mmu.c ****         {
 666              		.loc 1 156 12 view .LVU220
 667 0026 03B1     		cbz	r3, .L52
 668              	.LVL46:
 669              	.L47:
 172:SYS/memng/mmu.c **** 
 670              		.loc 1 172 1 view .LVU221
 671 0028 08BD     		pop	{r3, pc}
 672              	.LVL47:
 673              	.L52:
 158:SYS/memng/mmu.c **** 
 674              		.loc 1 158 13 is_stmt 1 view .LVU222
 675              		.syntax unified
 676              	@ 158 "SYS/memng/mmu.c" 1
 677 002a 72B6     		cpsid i
 678              	@ 0 "" 2
 161:SYS/memng/mmu.c ****             Mem_Monitor.remain_size += pxLink->size;
 679              		.loc 1 161 13 view .LVU223
 161:SYS/memng/mmu.c ****             Mem_Monitor.remain_size += pxLink->size;
 680              		.loc 1 161 44 is_stmt 0 view .LVU224
 681              		.thumb
 682              		.syntax unified
 683 002c 30F804CC 		ldrh	ip, [r0, #-4]
 161:SYS/memng/mmu.c ****             Mem_Monitor.remain_size += pxLink->size;
 684              		.loc 1 161 35 view .LVU225
 685 0030 094B     		ldr	r3, .L53+8
 686 0032 5968     		ldr	r1, [r3, #4]
 687 0034 A1EB0C01 		sub	r1, r1, ip
 688 0038 5960     		str	r1, [r3, #4]
 162:SYS/memng/mmu.c **** 
 689              		.loc 1 162 13 is_stmt 1 view .LVU226
 162:SYS/memng/mmu.c **** 
 690              		.loc 1 162 46 is_stmt 0 view .LVU227
 691 003a 30F8040C 		ldrh	r0, [r0, #-4]
 692              	.LVL48:
 162:SYS/memng/mmu.c **** 
 693              		.loc 1 162 37 view .LVU228
 694 003e 9968     		ldr	r1, [r3, #8]
 695 0040 0144     		add	r1, r1, r0
 696 0042 9960     		str	r1, [r3, #8]
 165:SYS/memng/mmu.c **** 
 697              		.loc 1 165 13 is_stmt 1 view .LVU229
 698 0044 1046     		mov	r0, r2
 699 0046 FFF7FEFF 		bl	MMU_InsertFreeBlock
 700              	.LVL49:
 167:SYS/memng/mmu.c ****         }
 701              		.loc 1 167 13 view .LVU230
 702              		.syntax unified
 703              	@ 167 "SYS/memng/mmu.c" 1
 704 004a 62B6     		cpsie i
 705              	@ 0 "" 2
 171:SYS/memng/mmu.c **** }
ARM GAS  /var/folders/lx/hc4sn_b53233_zkc9xbbl97r0000gp/T//ccQG3nkw.s 			page 20


 706              		.loc 1 171 5 view .LVU231
 707              	.LVL50:
 172:SYS/memng/mmu.c **** 
 708              		.loc 1 172 1 is_stmt 0 view .LVU232
 709              		.thumb
 710              		.syntax unified
 711 004c ECE7     		b	.L47
 712              	.L54:
 713 004e 00BF     		.align	2
 714              	.L53:
 715 0050 00000000 		.word	.LANCHOR3
 716 0054 00000000 		.word	Mem_Buff
 717 0058 00000000 		.word	.LANCHOR0
 718              		.cfi_endproc
 719              	.LFE6:
 721              		.global	trace
 722              		.global	MemEnd
 723              		.global	MemStart
 724              		.global	Mem_Monitor
 725              		.global	Mem_Buff
 726              		.section	.bss.MemEnd,"aw",%nobits
 727              		.align	2
 728              		.set	.LANCHOR2,. + 0
 731              	MemEnd:
 732 0000 00000000 		.space	4
 733              		.section	.bss.MemStart,"aw",%nobits
 734              		.align	2
 735              		.set	.LANCHOR1,. + 0
 738              	MemStart:
 739 0000 00000000 		.space	8
 739      00000000 
 740              		.section	.bss.Mem_Monitor,"aw",%nobits
 741              		.align	2
 742              		.set	.LANCHOR0,. + 0
 745              	Mem_Monitor:
 746 0000 00000000 		.space	36
 746      00000000 
 746      00000000 
 746      00000000 
 746      00000000 
 747              		.section	.bss.trace,"aw",%nobits
 748              		.set	.LANCHOR3,. + 0
 751              	trace:
 752 0000 00       		.space	1
 753              		.section	.ccmram,"aw"
 754              		.align	2
 757              	Mem_Buff:
 758 0000 00000000 		.space	65536
 758      00000000 
 758      00000000 
 758      00000000 
 758      00000000 
 759              		.text
 760              	.Letext0:
 761              		.file 2 "/usr/local/arm-none-eabi-gcc/gcc-arm-none-eabi-10-2020-q4-major/arm-none-eabi/include/mac
 762              		.file 3 "/usr/local/arm-none-eabi-gcc/gcc-arm-none-eabi-10-2020-q4-major/arm-none-eabi/include/sys
 763              		.file 4 "SYS/memng/mmu.h"
ARM GAS  /var/folders/lx/hc4sn_b53233_zkc9xbbl97r0000gp/T//ccQG3nkw.s 			page 21


ARM GAS  /var/folders/lx/hc4sn_b53233_zkc9xbbl97r0000gp/T//ccQG3nkw.s 			page 22


DEFINED SYMBOLS
                            *ABS*:0000000000000000 mmu.c
/var/folders/lx/hc4sn_b53233_zkc9xbbl97r0000gp/T//ccQG3nkw.s:18     .text.MMU_Init:0000000000000000 $t
/var/folders/lx/hc4sn_b53233_zkc9xbbl97r0000gp/T//ccQG3nkw.s:25     .text.MMU_Init:0000000000000000 MMU_Init
/var/folders/lx/hc4sn_b53233_zkc9xbbl97r0000gp/T//ccQG3nkw.s:123    .text.MMU_Init:0000000000000058 $d
/var/folders/lx/hc4sn_b53233_zkc9xbbl97r0000gp/T//ccQG3nkw.s:757    .ccmram:0000000000000000 Mem_Buff
/var/folders/lx/hc4sn_b53233_zkc9xbbl97r0000gp/T//ccQG3nkw.s:132    .text.MMU_InsertFreeBlock:0000000000000000 $t
/var/folders/lx/hc4sn_b53233_zkc9xbbl97r0000gp/T//ccQG3nkw.s:138    .text.MMU_InsertFreeBlock:0000000000000000 MMU_InsertFreeBlock
/var/folders/lx/hc4sn_b53233_zkc9xbbl97r0000gp/T//ccQG3nkw.s:289    .text.MMU_InsertFreeBlock:0000000000000070 $d
/var/folders/lx/hc4sn_b53233_zkc9xbbl97r0000gp/T//ccQG3nkw.s:296    .text.MMU_Get_Monitor:0000000000000000 $t
/var/folders/lx/hc4sn_b53233_zkc9xbbl97r0000gp/T//ccQG3nkw.s:303    .text.MMU_Get_Monitor:0000000000000000 MMU_Get_Monitor
/var/folders/lx/hc4sn_b53233_zkc9xbbl97r0000gp/T//ccQG3nkw.s:365    .text.MMU_Get_Monitor:0000000000000038 $d
/var/folders/lx/hc4sn_b53233_zkc9xbbl97r0000gp/T//ccQG3nkw.s:372    .text.MMU_Malloc:0000000000000000 $t
/var/folders/lx/hc4sn_b53233_zkc9xbbl97r0000gp/T//ccQG3nkw.s:379    .text.MMU_Malloc:0000000000000000 MMU_Malloc
/var/folders/lx/hc4sn_b53233_zkc9xbbl97r0000gp/T//ccQG3nkw.s:597    .text.MMU_Malloc:00000000000000b4 $d
/var/folders/lx/hc4sn_b53233_zkc9xbbl97r0000gp/T//ccQG3nkw.s:606    .text.MMU_Free:0000000000000000 $t
/var/folders/lx/hc4sn_b53233_zkc9xbbl97r0000gp/T//ccQG3nkw.s:613    .text.MMU_Free:0000000000000000 MMU_Free
/var/folders/lx/hc4sn_b53233_zkc9xbbl97r0000gp/T//ccQG3nkw.s:715    .text.MMU_Free:0000000000000050 $d
/var/folders/lx/hc4sn_b53233_zkc9xbbl97r0000gp/T//ccQG3nkw.s:751    .bss.trace:0000000000000000 trace
/var/folders/lx/hc4sn_b53233_zkc9xbbl97r0000gp/T//ccQG3nkw.s:731    .bss.MemEnd:0000000000000000 MemEnd
/var/folders/lx/hc4sn_b53233_zkc9xbbl97r0000gp/T//ccQG3nkw.s:738    .bss.MemStart:0000000000000000 MemStart
/var/folders/lx/hc4sn_b53233_zkc9xbbl97r0000gp/T//ccQG3nkw.s:745    .bss.Mem_Monitor:0000000000000000 Mem_Monitor
/var/folders/lx/hc4sn_b53233_zkc9xbbl97r0000gp/T//ccQG3nkw.s:727    .bss.MemEnd:0000000000000000 $d
/var/folders/lx/hc4sn_b53233_zkc9xbbl97r0000gp/T//ccQG3nkw.s:734    .bss.MemStart:0000000000000000 $d
/var/folders/lx/hc4sn_b53233_zkc9xbbl97r0000gp/T//ccQG3nkw.s:741    .bss.Mem_Monitor:0000000000000000 $d
/var/folders/lx/hc4sn_b53233_zkc9xbbl97r0000gp/T//ccQG3nkw.s:752    .bss.trace:0000000000000000 $d
/var/folders/lx/hc4sn_b53233_zkc9xbbl97r0000gp/T//ccQG3nkw.s:754    .ccmram:0000000000000000 $d

NO UNDEFINED SYMBOLS
