ARM GAS  C:\Users\huav\AppData\Local\Temp\cce42Oqu.s 			page 1


   1              		.cpu cortex-m4
   2              		.eabi_attribute 27, 1
   3              		.eabi_attribute 28, 1
   4              		.eabi_attribute 20, 1
   5              		.eabi_attribute 21, 1
   6              		.eabi_attribute 23, 3
   7              		.eabi_attribute 24, 1
   8              		.eabi_attribute 25, 1
   9              		.eabi_attribute 26, 1
  10              		.eabi_attribute 30, 1
  11              		.eabi_attribute 34, 1
  12              		.eabi_attribute 18, 4
  13              		.file	"mmu.c"
  14              		.text
  15              	.Ltext0:
  16              		.cfi_sections	.debug_frame
  17              		.section	.text.MMU_Init,"ax",%progbits
  18              		.align	1
  19              		.global	MMU_Init
  20              		.arch armv7e-m
  21              		.syntax unified
  22              		.thumb
  23              		.thumb_func
  24              		.fpu fpv4-sp-d16
  26              	MMU_Init:
  27              	.LFB3:
  28              		.file 1 "SYS/memng/mmu.c"
   1:SYS/memng/mmu.c **** #include "mmu.h"
   2:SYS/memng/mmu.c **** 
   3:SYS/memng/mmu.c **** uint8_t Mem_Buff[PHY_MEM_SIZE] __attribute__((align(BLOCK_ALIGMENT_SIZE), at(0x10000000)));
   4:SYS/memng/mmu.c **** 
   5:SYS/memng/mmu.c **** Mem_Monitor_TypeDef Mem_Monitor;
   6:SYS/memng/mmu.c **** MemBlock_TypeDef MemStart;
   7:SYS/memng/mmu.c **** MemBlock_TypeDef *MemEnd;
   8:SYS/memng/mmu.c **** 
   9:SYS/memng/mmu.c **** void MMU_Init(void)
  10:SYS/memng/mmu.c **** {
  29              		.loc 1 10 1 view -0
  30              		.cfi_startproc
  31              		@ args = 0, pretend = 0, frame = 0
  32              		@ frame_needed = 0, uses_anonymous_args = 0
  33              		@ link register save eliminated.
  11:SYS/memng/mmu.c ****     MemBlock_Addr mem_addr;
  34              		.loc 1 11 5 view .LVU1
  12:SYS/memng/mmu.c **** 
  13:SYS/memng/mmu.c ****     Mem_Monitor.phy_size = PHY_MEM_SIZE;
  35              		.loc 1 13 5 view .LVU2
  36              		.loc 1 13 26 is_stmt 0 view .LVU3
  37 0000 044A     		ldr	r2, .L3
  38 0002 0023     		movs	r3, #0
  39 0004 1380     		strh	r3, [r2]	@ movhi
  14:SYS/memng/mmu.c ****     Mem_Monitor.used_size = 0;
  40              		.loc 1 14 5 is_stmt 1 view .LVU4
  41              		.loc 1 14 27 is_stmt 0 view .LVU5
  42 0006 5380     		strh	r3, [r2, #2]	@ movhi
  15:SYS/memng/mmu.c **** 
  16:SYS/memng/mmu.c ****     for (uint16_t i = 0; i < PHY_MEM_SIZE; i++)
ARM GAS  C:\Users\huav\AppData\Local\Temp\cce42Oqu.s 			page 2


  43              		.loc 1 16 5 is_stmt 1 view .LVU6
  44              	.LBB2:
  45              		.loc 1 16 10 view .LVU7
  46              	.LVL0:
  47              	.L2:
  17:SYS/memng/mmu.c ****     {
  18:SYS/memng/mmu.c ****         Mem_Buff[i] = 0;
  48              		.loc 1 18 9 discriminator 2 view .LVU8
  49              		.loc 1 18 21 is_stmt 0 discriminator 2 view .LVU9
  50 0008 034A     		ldr	r2, .L3+4
  51 000a 0021     		movs	r1, #0
  52 000c D154     		strb	r1, [r2, r3]
  16:SYS/memng/mmu.c ****     {
  53              		.loc 1 16 44 is_stmt 1 discriminator 2 view .LVU10
  16:SYS/memng/mmu.c ****     {
  54              		.loc 1 16 45 is_stmt 0 discriminator 2 view .LVU11
  55 000e 0133     		adds	r3, r3, #1
  56              	.LVL1:
  16:SYS/memng/mmu.c ****     {
  57              		.loc 1 16 45 discriminator 2 view .LVU12
  58 0010 9BB2     		uxth	r3, r3
  59              	.LVL2:
  16:SYS/memng/mmu.c ****     {
  60              		.loc 1 16 26 is_stmt 1 discriminator 2 view .LVU13
  61 0012 F9E7     		b	.L2
  62              	.L4:
  63              		.align	2
  64              	.L3:
  65 0014 00000000 		.word	.LANCHOR0
  66 0018 00000000 		.word	Mem_Buff
  67              	.LBE2:
  68              		.cfi_endproc
  69              	.LFE3:
  71              		.section	.text.MMU_InsertFreeBlock,"ax",%progbits
  72              		.align	1
  73              		.global	MMU_InsertFreeBlock
  74              		.syntax unified
  75              		.thumb
  76              		.thumb_func
  77              		.fpu fpv4-sp-d16
  79              	MMU_InsertFreeBlock:
  80              	.LVL3:
  81              	.LFB4:
  19:SYS/memng/mmu.c ****     }
  20:SYS/memng/mmu.c **** 
  21:SYS/memng/mmu.c ****     MemStart.nxtFree = (void *)Mem_Buff;
  22:SYS/memng/mmu.c ****     MemStart.size = 0;
  23:SYS/memng/mmu.c **** 
  24:SYS/memng/mmu.c ****     MemEnd = (void *)(&Mem_Buff[PHY_MEM_SIZE] - sizeof(MemBlock_TypeDef));
  25:SYS/memng/mmu.c ****     MemEnd->nxtFree = NULL;
  26:SYS/memng/mmu.c ****     MemEnd->size = 0;
  27:SYS/memng/mmu.c **** 
  28:SYS/memng/mmu.c ****     Mem_Monitor.total_size = (MemBlock_Addr)MemEnd - (MemBlock_Addr)MemStart.nxtFree;
  29:SYS/memng/mmu.c ****     Mem_Monitor.remain_size = Mem_Monitor.total_size;
  30:SYS/memng/mmu.c **** 
  31:SYS/memng/mmu.c ****     Mem_Monitor.init = true;
  32:SYS/memng/mmu.c **** }
ARM GAS  C:\Users\huav\AppData\Local\Temp\cce42Oqu.s 			page 3


  33:SYS/memng/mmu.c **** 
  34:SYS/memng/mmu.c **** void MMU_InsertFreeBlock(MemBlock_TypeDef *blk)
  35:SYS/memng/mmu.c **** {
  82              		.loc 1 35 1 view -0
  83              		.cfi_startproc
  84              		@ args = 0, pretend = 0, frame = 0
  85              		@ frame_needed = 0, uses_anonymous_args = 0
  86              		@ link register save eliminated.
  36:SYS/memng/mmu.c **** }
  87              		.loc 1 36 1 view .LVU15
  88 0000 7047     		bx	lr
  89              		.cfi_endproc
  90              	.LFE4:
  92              		.section	.text.MMU_Molloc,"ax",%progbits
  93              		.align	1
  94              		.global	MMU_Molloc
  95              		.syntax unified
  96              		.thumb
  97              		.thumb_func
  98              		.fpu fpv4-sp-d16
 100              	MMU_Molloc:
 101              	.LVL4:
 102              	.LFB5:
  37:SYS/memng/mmu.c **** 
  38:SYS/memng/mmu.c **** void *MMU_Molloc(uint16_t size)
  39:SYS/memng/mmu.c **** {
 103              		.loc 1 39 1 view -0
 104              		.cfi_startproc
 105              		@ args = 0, pretend = 0, frame = 0
 106              		@ frame_needed = 0, uses_anonymous_args = 0
 107              		.loc 1 39 1 is_stmt 0 view .LVU17
 108 0000 08B5     		push	{r3, lr}
 109              	.LCFI0:
 110              		.cfi_def_cfa_offset 8
 111              		.cfi_offset 3, -8
 112              		.cfi_offset 14, -4
  40:SYS/memng/mmu.c ****     MemBlock_TypeDef *NxtFreeBlock = NULL;
 113              		.loc 1 40 5 is_stmt 1 view .LVU18
 114              	.LVL5:
  41:SYS/memng/mmu.c ****     MemBlock_TypeDef *PrvFreeBlock = NULL;
 115              		.loc 1 41 5 view .LVU19
  42:SYS/memng/mmu.c ****     MemBlock_TypeDef *Block_Tmp = NULL;
 116              		.loc 1 42 5 view .LVU20
  43:SYS/memng/mmu.c ****     void *mem_addr;
 117              		.loc 1 43 5 view .LVU21
  44:SYS/memng/mmu.c **** 
  45:SYS/memng/mmu.c ****     if (!Mem_Monitor.init)
 118              		.loc 1 45 5 view .LVU22
 119              		.loc 1 45 21 is_stmt 0 view .LVU23
 120 0002 044B     		ldr	r3, .L10
 121 0004 1B7A     		ldrb	r3, [r3, #8]	@ zero_extendqisi2
 122              		.loc 1 45 8 view .LVU24
 123 0006 1BB1     		cbz	r3, .L9
  46:SYS/memng/mmu.c ****     {
  47:SYS/memng/mmu.c ****         MMU_Init();
  48:SYS/memng/mmu.c ****     }
  49:SYS/memng/mmu.c **** 
ARM GAS  C:\Users\huav\AppData\Local\Temp\cce42Oqu.s 			page 4


  50:SYS/memng/mmu.c ****     __asm("cpsid i");
 124              		.loc 1 50 5 is_stmt 1 view .LVU25
 125              		.syntax unified
 126              	@ 50 "SYS/memng/mmu.c" 1
 127 0008 72B6     		cpsid i
 128              	@ 0 "" 2
  51:SYS/memng/mmu.c **** 
  52:SYS/memng/mmu.c ****     if (size <= Mem_Monitor.remain_size)
 129              		.loc 1 52 5 view .LVU26
  53:SYS/memng/mmu.c ****     {
  54:SYS/memng/mmu.c ****     }
 130              		.loc 1 54 5 view .LVU27
  55:SYS/memng/mmu.c **** 
  56:SYS/memng/mmu.c ****     __asm("cpsie i");
 131              		.loc 1 56 5 view .LVU28
 132              	@ 56 "SYS/memng/mmu.c" 1
 133 000a 62B6     		cpsie i
 134              	@ 0 "" 2
  57:SYS/memng/mmu.c **** 
  58:SYS/memng/mmu.c ****     return mem_addr;
 135              		.loc 1 58 5 view .LVU29
  59:SYS/memng/mmu.c **** }
 136              		.loc 1 59 1 is_stmt 0 view .LVU30
 137              		.thumb
 138              		.syntax unified
 139 000c 0020     		movs	r0, #0
 140              	.LVL6:
 141              		.loc 1 59 1 view .LVU31
 142 000e 08BD     		pop	{r3, pc}
 143              	.LVL7:
 144              	.L9:
  47:SYS/memng/mmu.c ****     }
 145              		.loc 1 47 9 is_stmt 1 view .LVU32
 146 0010 FFF7FEFF 		bl	MMU_Init
 147              	.LVL8:
 148              	.L11:
  47:SYS/memng/mmu.c ****     }
 149              		.loc 1 47 9 is_stmt 0 view .LVU33
 150              		.align	2
 151              	.L10:
 152 0014 00000000 		.word	.LANCHOR0
 153              		.cfi_endproc
 154              	.LFE5:
 156              		.global	MemEnd
 157              		.global	MemStart
 158              		.global	Mem_Monitor
 159              		.global	Mem_Buff
 160              		.section	.bss.MemEnd,"aw",%nobits
 161              		.align	2
 164              	MemEnd:
 165 0000 00000000 		.space	4
 166              		.section	.bss.MemStart,"aw",%nobits
 167              		.align	2
 170              	MemStart:
 171 0000 00000000 		.space	8
 171      00000000 
 172              		.section	.bss.Mem_Buff,"aw",%nobits
ARM GAS  C:\Users\huav\AppData\Local\Temp\cce42Oqu.s 			page 5


 173              		.align	2
 176              	Mem_Buff:
 177 0000 00000000 		.space	65536
 177      00000000 
 177      00000000 
 177      00000000 
 177      00000000 
 178              		.section	.bss.Mem_Monitor,"aw",%nobits
 179              		.align	2
 180              		.set	.LANCHOR0,. + 0
 183              	Mem_Monitor:
 184 0000 00000000 		.space	10
 184      00000000 
 184      0000
 185              		.text
 186              	.Letext0:
 187              		.file 2 "c:\\program files (x86)\\gnu arm embedded toolchain\\10 2020-q4-major\\arm-none-eabi\\inc
 188              		.file 3 "c:\\program files (x86)\\gnu arm embedded toolchain\\10 2020-q4-major\\arm-none-eabi\\inc
 189              		.file 4 "SYS/memng/mmu.h"
ARM GAS  C:\Users\huav\AppData\Local\Temp\cce42Oqu.s 			page 6


DEFINED SYMBOLS
                            *ABS*:00000000 mmu.c
C:\Users\huav\AppData\Local\Temp\cce42Oqu.s:18     .text.MMU_Init:00000000 $t
C:\Users\huav\AppData\Local\Temp\cce42Oqu.s:26     .text.MMU_Init:00000000 MMU_Init
C:\Users\huav\AppData\Local\Temp\cce42Oqu.s:65     .text.MMU_Init:00000014 $d
C:\Users\huav\AppData\Local\Temp\cce42Oqu.s:176    .bss.Mem_Buff:00000000 Mem_Buff
C:\Users\huav\AppData\Local\Temp\cce42Oqu.s:72     .text.MMU_InsertFreeBlock:00000000 $t
C:\Users\huav\AppData\Local\Temp\cce42Oqu.s:79     .text.MMU_InsertFreeBlock:00000000 MMU_InsertFreeBlock
C:\Users\huav\AppData\Local\Temp\cce42Oqu.s:93     .text.MMU_Molloc:00000000 $t
C:\Users\huav\AppData\Local\Temp\cce42Oqu.s:100    .text.MMU_Molloc:00000000 MMU_Molloc
C:\Users\huav\AppData\Local\Temp\cce42Oqu.s:152    .text.MMU_Molloc:00000014 $d
C:\Users\huav\AppData\Local\Temp\cce42Oqu.s:164    .bss.MemEnd:00000000 MemEnd
C:\Users\huav\AppData\Local\Temp\cce42Oqu.s:170    .bss.MemStart:00000000 MemStart
C:\Users\huav\AppData\Local\Temp\cce42Oqu.s:183    .bss.Mem_Monitor:00000000 Mem_Monitor
C:\Users\huav\AppData\Local\Temp\cce42Oqu.s:161    .bss.MemEnd:00000000 $d
C:\Users\huav\AppData\Local\Temp\cce42Oqu.s:167    .bss.MemStart:00000000 $d
C:\Users\huav\AppData\Local\Temp\cce42Oqu.s:173    .bss.Mem_Buff:00000000 $d
C:\Users\huav\AppData\Local\Temp\cce42Oqu.s:179    .bss.Mem_Monitor:00000000 $d

NO UNDEFINED SYMBOLS
