ARM GAS  /var/folders/lx/hc4sn_b53233_zkc9xbbl97r0000gp/T//cctJNOJ1.s 			page 1


   1              		.cpu cortex-m4
   2              		.eabi_attribute 27, 1
   3              		.eabi_attribute 28, 1
   4              		.eabi_attribute 20, 1
   5              		.eabi_attribute 21, 1
   6              		.eabi_attribute 23, 3
   7              		.eabi_attribute 24, 1
   8              		.eabi_attribute 25, 1
   9              		.eabi_attribute 26, 1
  10              		.eabi_attribute 30, 1
  11              		.eabi_attribute 34, 1
  12              		.eabi_attribute 18, 4
  13              		.file	"mmu.c"
  14              		.text
  15              	.Ltext0:
  16              		.cfi_sections	.debug_frame
  17              		.section	.text.MMU_Init,"ax",%progbits
  18              		.align	1
  19              		.global	MMU_Init
  20              		.arch armv7e-m
  21              		.syntax unified
  22              		.thumb
  23              		.thumb_func
  24              		.fpu fpv4-sp-d16
  26              	MMU_Init:
  27              	.LFB3:
  28              		.file 1 "SYS/memng/mmu.c"
   1:SYS/memng/mmu.c **** #include "mmu.h"
   2:SYS/memng/mmu.c **** 
   3:SYS/memng/mmu.c **** uint8_t Mem_Buff[PHY_MEM_SIZE] __attribute__((aligned(BLOCK_ALIGMENT_SIZE))) __attribute__((at(0x10
   4:SYS/memng/mmu.c **** 
   5:SYS/memng/mmu.c **** Mem_Monitor_TypeDef Mem_Monitor;
   6:SYS/memng/mmu.c **** 
   7:SYS/memng/mmu.c **** MemBlock_TypeDef MemStart;
   8:SYS/memng/mmu.c **** MemBlock_TypeDef *MemEnd;
   9:SYS/memng/mmu.c **** 
  10:SYS/memng/mmu.c **** void MMU_Init(void)
  11:SYS/memng/mmu.c **** {
  29              		.loc 1 11 1 view -0
  30              		.cfi_startproc
  31              		@ args = 0, pretend = 0, frame = 0
  32              		@ frame_needed = 0, uses_anonymous_args = 0
  33              		@ link register save eliminated.
  12:SYS/memng/mmu.c ****     MemBlock_TypeDef *FstFreeBlock_tmp = NULL;
  34              		.loc 1 12 5 view .LVU1
  35              	.LVL0:
  13:SYS/memng/mmu.c **** 
  14:SYS/memng/mmu.c ****     Mem_Monitor.phy_size = PHY_MEM_SIZE;
  36              		.loc 1 14 5 view .LVU2
  37              		.loc 1 14 26 is_stmt 0 view .LVU3
  38 0000 144A     		ldr	r2, .L4
  39 0002 4FF48033 		mov	r3, #65536
  40 0006 1360     		str	r3, [r2]
  15:SYS/memng/mmu.c ****     Mem_Monitor.used_size = 0;
  41              		.loc 1 15 5 is_stmt 1 view .LVU4
  42              		.loc 1 15 27 is_stmt 0 view .LVU5
  43 0008 0023     		movs	r3, #0
ARM GAS  /var/folders/lx/hc4sn_b53233_zkc9xbbl97r0000gp/T//cctJNOJ1.s 			page 2


  44 000a 5360     		str	r3, [r2, #4]
  16:SYS/memng/mmu.c **** 
  17:SYS/memng/mmu.c ****     for (uint32_t i = 0; i < PHY_MEM_SIZE; i++)
  45              		.loc 1 17 5 is_stmt 1 view .LVU6
  46              	.LBB2:
  47              		.loc 1 17 10 view .LVU7
  48              	.LVL1:
  49              		.loc 1 17 5 is_stmt 0 view .LVU8
  50 000c 03E0     		b	.L2
  51              	.LVL2:
  52              	.L3:
  18:SYS/memng/mmu.c ****     {
  19:SYS/memng/mmu.c ****         Mem_Buff[i] = 0;
  53              		.loc 1 19 9 is_stmt 1 discriminator 3 view .LVU9
  54              		.loc 1 19 21 is_stmt 0 discriminator 3 view .LVU10
  55 000e 124A     		ldr	r2, .L4+4
  56 0010 0021     		movs	r1, #0
  57 0012 D154     		strb	r1, [r2, r3]
  17:SYS/memng/mmu.c ****     {
  58              		.loc 1 17 44 is_stmt 1 discriminator 3 view .LVU11
  17:SYS/memng/mmu.c ****     {
  59              		.loc 1 17 45 is_stmt 0 discriminator 3 view .LVU12
  60 0014 0133     		adds	r3, r3, #1
  61              	.LVL3:
  62              	.L2:
  17:SYS/memng/mmu.c ****     {
  63              		.loc 1 17 26 is_stmt 1 discriminator 1 view .LVU13
  17:SYS/memng/mmu.c ****     {
  64              		.loc 1 17 5 is_stmt 0 discriminator 1 view .LVU14
  65 0016 B3F5803F 		cmp	r3, #65536
  66 001a F8D3     		bcc	.L3
  67              	.LBE2:
  20:SYS/memng/mmu.c ****     }
  21:SYS/memng/mmu.c **** 
  22:SYS/memng/mmu.c ****     MemStart.nxtFree = (void *)Mem_Buff;
  68              		.loc 1 22 5 is_stmt 1 view .LVU15
  69              		.loc 1 22 22 is_stmt 0 view .LVU16
  70 001c 0F49     		ldr	r1, .L4+8
  71 001e 0E4A     		ldr	r2, .L4+4
  72 0020 0A60     		str	r2, [r1]
  23:SYS/memng/mmu.c ****     MemStart.size = 0;
  73              		.loc 1 23 5 is_stmt 1 view .LVU17
  74              		.loc 1 23 19 is_stmt 0 view .LVU18
  75 0022 0023     		movs	r3, #0
  76              	.LVL4:
  77              		.loc 1 23 19 view .LVU19
  78 0024 8B80     		strh	r3, [r1, #4]	@ movhi
  24:SYS/memng/mmu.c **** 
  25:SYS/memng/mmu.c ****     MemEnd = (void *)(&Mem_Buff[PHY_MEM_SIZE] - sizeof(MemBlock_TypeDef));
  79              		.loc 1 25 5 is_stmt 1 view .LVU20
  80              		.loc 1 25 12 is_stmt 0 view .LVU21
  81 0026 0E49     		ldr	r1, .L4+12
  82 0028 0E48     		ldr	r0, .L4+16
  83 002a 0160     		str	r1, [r0]
  26:SYS/memng/mmu.c ****     MemEnd->nxtFree = NULL;
  84              		.loc 1 26 5 is_stmt 1 view .LVU22
  85              		.loc 1 26 21 is_stmt 0 view .LVU23
ARM GAS  /var/folders/lx/hc4sn_b53233_zkc9xbbl97r0000gp/T//cctJNOJ1.s 			page 3


  86 002c 02F57040 		add	r0, r2, #61440
  87 0030 C0F8F83F 		str	r3, [r0, #4088]
  27:SYS/memng/mmu.c ****     MemEnd->size = 0;
  88              		.loc 1 27 5 is_stmt 1 view .LVU24
  89              		.loc 1 27 18 is_stmt 0 view .LVU25
  90 0034 A0F8FC3F 		strh	r3, [r0, #4092]	@ movhi
  28:SYS/memng/mmu.c **** 
  29:SYS/memng/mmu.c ****     Mem_Monitor.total_size = (MemBlock_Addr)MemEnd - (MemBlock_Addr)MemStart.nxtFree;
  91              		.loc 1 29 5 is_stmt 1 view .LVU26
  92              		.loc 1 29 28 is_stmt 0 view .LVU27
  93 0038 064B     		ldr	r3, .L4
  94 003a 4FF6F870 		movw	r0, #65528
  95 003e D860     		str	r0, [r3, #12]
  30:SYS/memng/mmu.c **** 
  31:SYS/memng/mmu.c ****     FstFreeBlock_tmp = MemStart.nxtFree;
  96              		.loc 1 31 5 is_stmt 1 view .LVU28
  97              	.LVL5:
  32:SYS/memng/mmu.c ****     FstFreeBlock_tmp->nxtFree = MemEnd;
  98              		.loc 1 32 5 view .LVU29
  99              		.loc 1 32 31 is_stmt 0 view .LVU30
 100 0040 1160     		str	r1, [r2]
  33:SYS/memng/mmu.c **** 
  34:SYS/memng/mmu.c ****     Mem_Monitor.total_size -= sizeof(MemBlock_TypeDef);
 101              		.loc 1 34 5 is_stmt 1 view .LVU31
 102              		.loc 1 34 28 is_stmt 0 view .LVU32
 103 0042 4FF6F071 		movw	r1, #65520
 104 0046 D960     		str	r1, [r3, #12]
  35:SYS/memng/mmu.c ****     FstFreeBlock_tmp->size = Mem_Monitor.total_size;
 105              		.loc 1 35 5 is_stmt 1 view .LVU33
 106              		.loc 1 35 28 is_stmt 0 view .LVU34
 107 0048 9180     		strh	r1, [r2, #4]	@ movhi
  36:SYS/memng/mmu.c **** 
  37:SYS/memng/mmu.c ****     Mem_Monitor.remain_size = Mem_Monitor.total_size;
 108              		.loc 1 37 5 is_stmt 1 view .LVU35
 109              		.loc 1 37 29 is_stmt 0 view .LVU36
 110 004a 9960     		str	r1, [r3, #8]
  38:SYS/memng/mmu.c **** 
  39:SYS/memng/mmu.c ****     Mem_Monitor.init = true;
 111              		.loc 1 39 5 is_stmt 1 view .LVU37
 112              		.loc 1 39 22 is_stmt 0 view .LVU38
 113 004c 0122     		movs	r2, #1
 114 004e 1A74     		strb	r2, [r3, #16]
  40:SYS/memng/mmu.c **** }
 115              		.loc 1 40 1 view .LVU39
 116 0050 7047     		bx	lr
 117              	.L5:
 118 0052 00BF     		.align	2
 119              	.L4:
 120 0054 00000000 		.word	.LANCHOR0
 121 0058 00000000 		.word	Mem_Buff
 122 005c 00000000 		.word	.LANCHOR1
 123 0060 F8FF0000 		.word	Mem_Buff+65528
 124 0064 00000000 		.word	.LANCHOR2
 125              		.cfi_endproc
 126              	.LFE3:
 128              		.section	.text.MMU_InsertFreeBlock,"ax",%progbits
 129              		.align	1
ARM GAS  /var/folders/lx/hc4sn_b53233_zkc9xbbl97r0000gp/T//cctJNOJ1.s 			page 4


 130              		.global	MMU_InsertFreeBlock
 131              		.syntax unified
 132              		.thumb
 133              		.thumb_func
 134              		.fpu fpv4-sp-d16
 136              	MMU_InsertFreeBlock:
 137              	.LVL6:
 138              	.LFB4:
  41:SYS/memng/mmu.c **** 
  42:SYS/memng/mmu.c **** void MMU_InsertFreeBlock(MemBlock_TypeDef *pxBlockToInsert)
  43:SYS/memng/mmu.c **** {
 139              		.loc 1 43 1 is_stmt 1 view -0
 140              		.cfi_startproc
 141              		@ args = 0, pretend = 0, frame = 0
 142              		@ frame_needed = 0, uses_anonymous_args = 0
 143              		@ link register save eliminated.
  44:SYS/memng/mmu.c ****     MemBlock_TypeDef *pxIterator;
 144              		.loc 1 44 5 view .LVU41
  45:SYS/memng/mmu.c ****     uint8_t *puc;
 145              		.loc 1 45 5 view .LVU42
  46:SYS/memng/mmu.c **** 
  47:SYS/memng/mmu.c ****     for (pxIterator = &MemStart; pxIterator->nxtFree < (void *)pxBlockToInsert; pxIterator = pxIter
 146              		.loc 1 47 5 view .LVU43
 147              		.loc 1 47 21 is_stmt 0 view .LVU44
 148 0000 164B     		ldr	r3, .L21
 149              	.LVL7:
 150              	.L7:
 151              		.loc 1 47 34 is_stmt 1 discriminator 1 view .LVU45
 152 0002 1A46     		mov	r2, r3
 153              		.loc 1 47 44 is_stmt 0 discriminator 1 view .LVU46
 154 0004 1B68     		ldr	r3, [r3]
 155              	.LVL8:
 156              		.loc 1 47 5 discriminator 1 view .LVU47
 157 0006 8342     		cmp	r3, r0
 158 0008 FBD3     		bcc	.L7
  48:SYS/memng/mmu.c ****     {
  49:SYS/memng/mmu.c ****         /* Nothing to do here, just iterate to the right position. */
  50:SYS/memng/mmu.c ****     }
  51:SYS/memng/mmu.c **** 
  52:SYS/memng/mmu.c ****     puc = (uint8_t *)pxIterator;
 159              		.loc 1 52 5 is_stmt 1 view .LVU48
 160              	.LVL9:
  53:SYS/memng/mmu.c ****     if ((puc + pxIterator->size) == (uint8_t *)pxBlockToInsert)
 161              		.loc 1 53 5 view .LVU49
 162              		.loc 1 53 26 is_stmt 0 view .LVU50
 163 000a 9188     		ldrh	r1, [r2, #4]
 164              		.loc 1 53 14 view .LVU51
 165 000c 02EB010C 		add	ip, r2, r1
 166              		.loc 1 53 8 view .LVU52
 167 0010 8445     		cmp	ip, r0
 168 0012 09D0     		beq	.L19
 169              	.L8:
  54:SYS/memng/mmu.c ****     {
  55:SYS/memng/mmu.c ****         pxIterator->size += pxBlockToInsert->size;
  56:SYS/memng/mmu.c ****         pxBlockToInsert = pxIterator;
  57:SYS/memng/mmu.c ****     }
  58:SYS/memng/mmu.c **** 
ARM GAS  /var/folders/lx/hc4sn_b53233_zkc9xbbl97r0000gp/T//cctJNOJ1.s 			page 5


  59:SYS/memng/mmu.c ****     /* Do the block being inserted, and the block it is being inserted before
  60:SYS/memng/mmu.c **** 	make a contiguous block of memory? */
  61:SYS/memng/mmu.c ****     puc = (uint8_t *)pxBlockToInsert;
 170              		.loc 1 61 5 is_stmt 1 view .LVU53
 171              	.LVL10:
  62:SYS/memng/mmu.c ****     if ((puc + pxBlockToInsert->size) == (uint8_t *)pxIterator->nxtFree)
 172              		.loc 1 62 5 view .LVU54
 173              		.loc 1 62 31 is_stmt 0 view .LVU55
 174 0014 8188     		ldrh	r1, [r0, #4]
 175              		.loc 1 62 14 view .LVU56
 176 0016 00EB010C 		add	ip, r0, r1
 177              		.loc 1 62 8 view .LVU57
 178 001a 6345     		cmp	r3, ip
 179 001c 09D0     		beq	.L20
  63:SYS/memng/mmu.c ****     {
  64:SYS/memng/mmu.c ****         if (pxIterator->nxtFree != MemEnd)
  65:SYS/memng/mmu.c ****         {
  66:SYS/memng/mmu.c ****             /* Form one big block from the two blocks. */
  67:SYS/memng/mmu.c ****             pxBlockToInsert->size += ((MemBlock_TypeDef *)pxIterator->nxtFree)->size;
  68:SYS/memng/mmu.c ****             pxBlockToInsert->nxtFree = ((MemBlock_TypeDef *)pxIterator->nxtFree)->nxtFree;
  69:SYS/memng/mmu.c ****         }
  70:SYS/memng/mmu.c ****         else
  71:SYS/memng/mmu.c ****         {
  72:SYS/memng/mmu.c ****             pxBlockToInsert->nxtFree = MemEnd;
  73:SYS/memng/mmu.c ****         }
  74:SYS/memng/mmu.c ****     }
  75:SYS/memng/mmu.c ****     else
  76:SYS/memng/mmu.c ****     {
  77:SYS/memng/mmu.c ****         pxBlockToInsert->nxtFree = pxIterator->nxtFree;
 180              		.loc 1 77 9 is_stmt 1 view .LVU58
 181              		.loc 1 77 34 is_stmt 0 view .LVU59
 182 001e 0360     		str	r3, [r0]
  78:SYS/memng/mmu.c ****     }
  79:SYS/memng/mmu.c **** 
  80:SYS/memng/mmu.c ****     if (pxIterator != pxBlockToInsert)
 183              		.loc 1 80 5 is_stmt 1 view .LVU60
 184              		.loc 1 80 8 is_stmt 0 view .LVU61
 185 0020 9042     		cmp	r0, r2
 186 0022 19D0     		beq	.L16
  81:SYS/memng/mmu.c ****     {
  82:SYS/memng/mmu.c ****         pxIterator->nxtFree = pxBlockToInsert;
 187              		.loc 1 82 9 is_stmt 1 view .LVU62
 188              		.loc 1 82 29 is_stmt 0 view .LVU63
 189 0024 1060     		str	r0, [r2]
 190 0026 7047     		bx	lr
 191              	.LVL11:
 192              	.L19:
  55:SYS/memng/mmu.c ****         pxBlockToInsert = pxIterator;
 193              		.loc 1 55 9 is_stmt 1 view .LVU64
  55:SYS/memng/mmu.c ****         pxBlockToInsert = pxIterator;
 194              		.loc 1 55 44 is_stmt 0 view .LVU65
 195 0028 8088     		ldrh	r0, [r0, #4]
 196              	.LVL12:
  55:SYS/memng/mmu.c ****         pxBlockToInsert = pxIterator;
 197              		.loc 1 55 26 view .LVU66
 198 002a 0144     		add	r1, r1, r0
 199 002c 9180     		strh	r1, [r2, #4]	@ movhi
ARM GAS  /var/folders/lx/hc4sn_b53233_zkc9xbbl97r0000gp/T//cctJNOJ1.s 			page 6


  56:SYS/memng/mmu.c ****     }
 200              		.loc 1 56 9 is_stmt 1 view .LVU67
 201              	.LVL13:
  56:SYS/memng/mmu.c ****     }
 202              		.loc 1 56 25 is_stmt 0 view .LVU68
 203 002e 1046     		mov	r0, r2
 204 0030 F0E7     		b	.L8
 205              	.LVL14:
 206              	.L20:
  43:SYS/memng/mmu.c ****     MemBlock_TypeDef *pxIterator;
 207              		.loc 1 43 1 view .LVU69
 208 0032 10B4     		push	{r4}
 209              	.LCFI0:
 210              		.cfi_def_cfa_offset 4
 211              		.cfi_offset 4, -4
  64:SYS/memng/mmu.c ****         {
 212              		.loc 1 64 9 is_stmt 1 view .LVU70
  64:SYS/memng/mmu.c ****         {
 213              		.loc 1 64 33 is_stmt 0 view .LVU71
 214 0034 0A4C     		ldr	r4, .L21+4
 215 0036 2468     		ldr	r4, [r4]
  64:SYS/memng/mmu.c ****         {
 216              		.loc 1 64 12 view .LVU72
 217 0038 A342     		cmp	r3, r4
 218 003a 0BD0     		beq	.L10
  67:SYS/memng/mmu.c ****             pxBlockToInsert->nxtFree = ((MemBlock_TypeDef *)pxIterator->nxtFree)->nxtFree;
 219              		.loc 1 67 13 is_stmt 1 view .LVU73
  67:SYS/memng/mmu.c ****             pxBlockToInsert->nxtFree = ((MemBlock_TypeDef *)pxIterator->nxtFree)->nxtFree;
 220              		.loc 1 67 79 is_stmt 0 view .LVU74
 221 003c 9B88     		ldrh	r3, [r3, #4]
  67:SYS/memng/mmu.c ****             pxBlockToInsert->nxtFree = ((MemBlock_TypeDef *)pxIterator->nxtFree)->nxtFree;
 222              		.loc 1 67 35 view .LVU75
 223 003e 1944     		add	r1, r1, r3
 224 0040 8180     		strh	r1, [r0, #4]	@ movhi
  68:SYS/memng/mmu.c ****         }
 225              		.loc 1 68 13 is_stmt 1 view .LVU76
  68:SYS/memng/mmu.c ****         }
 226              		.loc 1 68 71 is_stmt 0 view .LVU77
 227 0042 1368     		ldr	r3, [r2]
  68:SYS/memng/mmu.c ****         }
 228              		.loc 1 68 81 view .LVU78
 229 0044 1B68     		ldr	r3, [r3]
  68:SYS/memng/mmu.c ****         }
 230              		.loc 1 68 38 view .LVU79
 231 0046 0360     		str	r3, [r0]
 232              	.L11:
  80:SYS/memng/mmu.c ****     {
 233              		.loc 1 80 5 is_stmt 1 view .LVU80
  80:SYS/memng/mmu.c ****     {
 234              		.loc 1 80 8 is_stmt 0 view .LVU81
 235 0048 9042     		cmp	r0, r2
 236 004a 00D0     		beq	.L6
 237              		.loc 1 82 9 is_stmt 1 view .LVU82
 238              		.loc 1 82 29 is_stmt 0 view .LVU83
 239 004c 1060     		str	r0, [r2]
 240              	.L6:
  83:SYS/memng/mmu.c ****     }
ARM GAS  /var/folders/lx/hc4sn_b53233_zkc9xbbl97r0000gp/T//cctJNOJ1.s 			page 7


  84:SYS/memng/mmu.c **** }
 241              		.loc 1 84 1 view .LVU84
 242 004e 5DF8044B 		ldr	r4, [sp], #4
 243              	.LCFI1:
 244              		.cfi_remember_state
 245              		.cfi_restore 4
 246              		.cfi_def_cfa_offset 0
 247 0052 7047     		bx	lr
 248              	.L10:
 249              	.LCFI2:
 250              		.cfi_restore_state
  72:SYS/memng/mmu.c ****         }
 251              		.loc 1 72 13 is_stmt 1 view .LVU85
  72:SYS/memng/mmu.c ****         }
 252              		.loc 1 72 38 is_stmt 0 view .LVU86
 253 0054 0460     		str	r4, [r0]
 254 0056 F7E7     		b	.L11
 255              	.L16:
 256              	.LCFI3:
 257              		.cfi_def_cfa_offset 0
 258              		.cfi_restore 4
  72:SYS/memng/mmu.c ****         }
 259              		.loc 1 72 38 view .LVU87
 260 0058 7047     		bx	lr
 261              	.L22:
 262 005a 00BF     		.align	2
 263              	.L21:
 264 005c 00000000 		.word	.LANCHOR1
 265 0060 00000000 		.word	.LANCHOR2
 266              		.cfi_endproc
 267              	.LFE4:
 269              		.section	.text.MMU_Molloc,"ax",%progbits
 270              		.align	1
 271              		.global	MMU_Molloc
 272              		.syntax unified
 273              		.thumb
 274              		.thumb_func
 275              		.fpu fpv4-sp-d16
 277              	MMU_Molloc:
 278              	.LVL15:
 279              	.LFB5:
  85:SYS/memng/mmu.c **** 
  86:SYS/memng/mmu.c **** void *MMU_Molloc(uint16_t size)
  87:SYS/memng/mmu.c **** {
 280              		.loc 1 87 1 is_stmt 1 view -0
 281              		.cfi_startproc
 282              		@ args = 0, pretend = 0, frame = 0
 283              		@ frame_needed = 0, uses_anonymous_args = 0
 284              		.loc 1 87 1 is_stmt 0 view .LVU89
 285 0000 70B5     		push	{r4, r5, r6, lr}
 286              	.LCFI4:
 287              		.cfi_def_cfa_offset 16
 288              		.cfi_offset 4, -16
 289              		.cfi_offset 5, -12
 290              		.cfi_offset 6, -8
 291              		.cfi_offset 14, -4
 292 0002 0546     		mov	r5, r0
ARM GAS  /var/folders/lx/hc4sn_b53233_zkc9xbbl97r0000gp/T//cctJNOJ1.s 			page 8


  88:SYS/memng/mmu.c ****     MemBlock_TypeDef *PrvFreeBlock = NULL;
 293              		.loc 1 88 5 is_stmt 1 view .LVU90
 294              	.LVL16:
  89:SYS/memng/mmu.c ****     MemBlock_TypeDef *NxtFreeBlock = NULL;
 295              		.loc 1 89 5 view .LVU91
  90:SYS/memng/mmu.c ****     MemBlock_TypeDef *Block_Tmp = NULL;
 296              		.loc 1 90 5 view .LVU92
  91:SYS/memng/mmu.c ****     void *mem_addr = NULL;
 297              		.loc 1 91 5 view .LVU93
  92:SYS/memng/mmu.c **** 
  93:SYS/memng/mmu.c ****     if (!Mem_Monitor.init)
 298              		.loc 1 93 5 view .LVU94
 299              		.loc 1 93 21 is_stmt 0 view .LVU95
 300 0004 194B     		ldr	r3, .L34
 301 0006 1B7C     		ldrb	r3, [r3, #16]	@ zero_extendqisi2
 302              		.loc 1 93 8 view .LVU96
 303 0008 5BB1     		cbz	r3, .L33
 304              	.LVL17:
 305              	.L24:
  94:SYS/memng/mmu.c ****     {
  95:SYS/memng/mmu.c ****         MMU_Init();
  96:SYS/memng/mmu.c ****     }
  97:SYS/memng/mmu.c **** 
  98:SYS/memng/mmu.c ****     __asm("cpsid i");
 306              		.loc 1 98 5 is_stmt 1 view .LVU97
 307              		.syntax unified
 308              	@ 98 "SYS/memng/mmu.c" 1
 309 000a 72B6     		cpsid i
 310              	@ 0 "" 2
  99:SYS/memng/mmu.c **** 
 100:SYS/memng/mmu.c ****     if (size <= Mem_Monitor.remain_size)
 311              		.loc 1 100 5 view .LVU98
 312              		.loc 1 100 28 is_stmt 0 view .LVU99
 313              		.thumb
 314              		.syntax unified
 315 000c 174B     		ldr	r3, .L34
 316 000e 9B68     		ldr	r3, [r3, #8]
 317              		.loc 1 100 8 view .LVU100
 318 0010 9D42     		cmp	r5, r3
 319 0012 24D8     		bhi	.L28
 101:SYS/memng/mmu.c ****     {
 102:SYS/memng/mmu.c ****         /* aligment request byte number */
 103:SYS/memng/mmu.c ****         size += (size % BLOCK_ALIGMENT_SIZE);
 320              		.loc 1 103 9 is_stmt 1 view .LVU101
 321              		.loc 1 103 23 is_stmt 0 view .LVU102
 322 0014 05F00700 		and	r0, r5, #7
 323              		.loc 1 103 14 view .LVU103
 324 0018 0544     		add	r5, r5, r0
 325 001a ADB2     		uxth	r5, r5
 326              	.LVL18:
 104:SYS/memng/mmu.c **** 
 105:SYS/memng/mmu.c ****         PrvFreeBlock = &MemStart;
 327              		.loc 1 105 9 is_stmt 1 view .LVU104
 106:SYS/memng/mmu.c ****         Block_Tmp = MemStart.nxtFree;
 328              		.loc 1 106 9 view .LVU105
 329              		.loc 1 106 19 is_stmt 0 view .LVU106
 330 001c 144A     		ldr	r2, .L34+4
ARM GAS  /var/folders/lx/hc4sn_b53233_zkc9xbbl97r0000gp/T//cctJNOJ1.s 			page 9


 331 001e 1468     		ldr	r4, [r2]
 332              	.LVL19:
 107:SYS/memng/mmu.c ****         while ((Block_Tmp->size < size) && (Block_Tmp->nxtFree != NULL))
 333              		.loc 1 107 9 is_stmt 1 view .LVU107
 334              		.loc 1 107 15 is_stmt 0 view .LVU108
 335 0020 04E0     		b	.L27
 336              	.LVL20:
 337              	.L33:
  95:SYS/memng/mmu.c ****     }
 338              		.loc 1 95 9 is_stmt 1 view .LVU109
 339 0022 FFF7FEFF 		bl	MMU_Init
 340              	.LVL21:
  95:SYS/memng/mmu.c ****     }
 341              		.loc 1 95 9 is_stmt 0 view .LVU110
 342 0026 F0E7     		b	.L24
 343              	.LVL22:
 344              	.L29:
 108:SYS/memng/mmu.c ****         {
 109:SYS/memng/mmu.c ****             PrvFreeBlock = Block_Tmp;
 345              		.loc 1 109 26 view .LVU111
 346 0028 2246     		mov	r2, r4
 347              	.LVL23:
 110:SYS/memng/mmu.c ****             Block_Tmp = Block_Tmp->nxtFree;
 348              		.loc 1 110 23 view .LVU112
 349 002a 1C46     		mov	r4, r3
 350              	.LVL24:
 351              	.L27:
 107:SYS/memng/mmu.c ****         {
 352              		.loc 1 107 15 is_stmt 1 view .LVU113
 107:SYS/memng/mmu.c ****         {
 353              		.loc 1 107 26 is_stmt 0 view .LVU114
 354 002c A388     		ldrh	r3, [r4, #4]
 107:SYS/memng/mmu.c ****         {
 355              		.loc 1 107 15 view .LVU115
 356 002e AB42     		cmp	r3, r5
 357 0030 02D2     		bcs	.L26
 107:SYS/memng/mmu.c ****         {
 358              		.loc 1 107 54 discriminator 1 view .LVU116
 359 0032 2368     		ldr	r3, [r4]
 107:SYS/memng/mmu.c ****         {
 360              		.loc 1 107 41 discriminator 1 view .LVU117
 361 0034 002B     		cmp	r3, #0
 362 0036 F7D1     		bne	.L29
 363              	.L26:
 111:SYS/memng/mmu.c ****         }
 112:SYS/memng/mmu.c **** 
 113:SYS/memng/mmu.c ****         if ((Block_Tmp != MemEnd) && (Block_Tmp != NULL))
 364              		.loc 1 113 9 is_stmt 1 view .LVU118
 365              		.loc 1 113 24 is_stmt 0 view .LVU119
 366 0038 0E4B     		ldr	r3, .L34+8
 367 003a 1B68     		ldr	r3, [r3]
 368              		.loc 1 113 12 view .LVU120
 369 003c A342     		cmp	r3, r4
 370 003e 10D0     		beq	.L30
 371              		.loc 1 113 35 discriminator 1 view .LVU121
 372 0040 8CB1     		cbz	r4, .L31
 114:SYS/memng/mmu.c ****         {
ARM GAS  /var/folders/lx/hc4sn_b53233_zkc9xbbl97r0000gp/T//cctJNOJ1.s 			page 10


 115:SYS/memng/mmu.c ****             mem_addr = (void *)(((uint8_t *)Block_Tmp->nxtFree) + sizeof(MemBlock_TypeDef));
 373              		.loc 1 115 13 is_stmt 1 view .LVU122
 374              		.loc 1 115 54 is_stmt 0 view .LVU123
 375 0042 2368     		ldr	r3, [r4]
 376              		.loc 1 115 22 view .LVU124
 377 0044 03F10806 		add	r6, r3, #8
 378              	.LVL25:
 116:SYS/memng/mmu.c ****             PrvFreeBlock->nxtFree = Block_Tmp->nxtFree;
 379              		.loc 1 116 13 is_stmt 1 view .LVU125
 380              		.loc 1 116 35 is_stmt 0 view .LVU126
 381 0048 1360     		str	r3, [r2]
 117:SYS/memng/mmu.c **** 
 118:SYS/memng/mmu.c ****             NxtFreeBlock = (void *)(((uint8_t *)Block_Tmp) + size);
 382              		.loc 1 118 13 is_stmt 1 view .LVU127
 383              		.loc 1 118 26 is_stmt 0 view .LVU128
 384 004a 6019     		adds	r0, r4, r5
 385              	.LVL26:
 119:SYS/memng/mmu.c ****             NxtFreeBlock->size = Block_Tmp->size - size;
 386              		.loc 1 119 13 is_stmt 1 view .LVU129
 387              		.loc 1 119 43 is_stmt 0 view .LVU130
 388 004c A388     		ldrh	r3, [r4, #4]
 389              		.loc 1 119 50 view .LVU131
 390 004e 5B1B     		subs	r3, r3, r5
 391              		.loc 1 119 32 view .LVU132
 392 0050 8380     		strh	r3, [r0, #4]	@ movhi
 120:SYS/memng/mmu.c **** 
 121:SYS/memng/mmu.c ****             MMU_InsertFreeBlock(NxtFreeBlock);
 393              		.loc 1 121 13 is_stmt 1 view .LVU133
 394 0052 FFF7FEFF 		bl	MMU_InsertFreeBlock
 395              	.LVL27:
 122:SYS/memng/mmu.c **** 
 123:SYS/memng/mmu.c ****             Block_Tmp->size = size;
 396              		.loc 1 123 13 view .LVU134
 397              		.loc 1 123 29 is_stmt 0 view .LVU135
 398 0056 A580     		strh	r5, [r4, #4]	@ movhi
 399              	.LVL28:
 400              	.L25:
 124:SYS/memng/mmu.c ****         }
 125:SYS/memng/mmu.c ****     }
 126:SYS/memng/mmu.c **** 
 127:SYS/memng/mmu.c ****     __asm("cpsie i");
 401              		.loc 1 127 5 is_stmt 1 view .LVU136
 402              		.syntax unified
 403              	@ 127 "SYS/memng/mmu.c" 1
 404 0058 62B6     		cpsie i
 405              	@ 0 "" 2
 128:SYS/memng/mmu.c **** 
 129:SYS/memng/mmu.c ****     return mem_addr;
 406              		.loc 1 129 5 view .LVU137
 130:SYS/memng/mmu.c **** }
 407              		.loc 1 130 1 is_stmt 0 view .LVU138
 408              		.thumb
 409              		.syntax unified
 410 005a 3046     		mov	r0, r6
 411 005c 70BD     		pop	{r4, r5, r6, pc}
 412              	.LVL29:
 413              	.L28:
ARM GAS  /var/folders/lx/hc4sn_b53233_zkc9xbbl97r0000gp/T//cctJNOJ1.s 			page 11


  91:SYS/memng/mmu.c **** 
 414              		.loc 1 91 11 view .LVU139
 415 005e 0026     		movs	r6, #0
 416 0060 FAE7     		b	.L25
 417              	.LVL30:
 418              	.L30:
  91:SYS/memng/mmu.c **** 
 419              		.loc 1 91 11 view .LVU140
 420 0062 0026     		movs	r6, #0
 421 0064 F8E7     		b	.L25
 422              	.L31:
 423 0066 2646     		mov	r6, r4
 424 0068 F6E7     		b	.L25
 425              	.L35:
 426 006a 00BF     		.align	2
 427              	.L34:
 428 006c 00000000 		.word	.LANCHOR0
 429 0070 00000000 		.word	.LANCHOR1
 430 0074 00000000 		.word	.LANCHOR2
 431              		.cfi_endproc
 432              	.LFE5:
 434              		.section	.text.MMU_Free,"ax",%progbits
 435              		.align	1
 436              		.global	MMU_Free
 437              		.syntax unified
 438              		.thumb
 439              		.thumb_func
 440              		.fpu fpv4-sp-d16
 442              	MMU_Free:
 443              	.LVL31:
 444              	.LFB6:
 131:SYS/memng/mmu.c **** 
 132:SYS/memng/mmu.c **** void MMU_Free(void *ptr)
 133:SYS/memng/mmu.c **** {
 445              		.loc 1 133 1 is_stmt 1 view -0
 446              		.cfi_startproc
 447              		@ args = 0, pretend = 0, frame = 0
 448              		@ frame_needed = 0, uses_anonymous_args = 0
 134:SYS/memng/mmu.c ****     uint8_t *puc = (uint8_t *)ptr;
 449              		.loc 1 134 5 view .LVU142
 135:SYS/memng/mmu.c ****     MemBlock_TypeDef *pxLink;
 450              		.loc 1 135 5 view .LVU143
 136:SYS/memng/mmu.c **** 
 137:SYS/memng/mmu.c ****     if (ptr != NULL)
 451              		.loc 1 137 5 view .LVU144
 452              		.loc 1 137 8 is_stmt 0 view .LVU145
 453 0000 88B1     		cbz	r0, .L39
 133:SYS/memng/mmu.c ****     uint8_t *puc = (uint8_t *)ptr;
 454              		.loc 1 133 1 view .LVU146
 455 0002 08B5     		push	{r3, lr}
 456              	.LCFI5:
 457              		.cfi_def_cfa_offset 8
 458              		.cfi_offset 3, -8
 459              		.cfi_offset 14, -4
 460 0004 0346     		mov	r3, r0
 138:SYS/memng/mmu.c ****     {
 139:SYS/memng/mmu.c ****         /* The memory being freed will have an BlockLink_t structure immediately
ARM GAS  /var/folders/lx/hc4sn_b53233_zkc9xbbl97r0000gp/T//cctJNOJ1.s 			page 12


 140:SYS/memng/mmu.c **** 		before it. */
 141:SYS/memng/mmu.c ****         puc -= sizeof(MemBlock_TypeDef);
 461              		.loc 1 141 9 is_stmt 1 view .LVU147
 462              		.loc 1 141 13 is_stmt 0 view .LVU148
 463 0006 0838     		subs	r0, r0, #8
 464              	.LVL32:
 142:SYS/memng/mmu.c **** 
 143:SYS/memng/mmu.c ****         /* This casting is to keep the compiler from issuing warnings. */
 144:SYS/memng/mmu.c ****         pxLink = (void *)puc;
 465              		.loc 1 144 9 is_stmt 1 view .LVU149
 145:SYS/memng/mmu.c **** 
 146:SYS/memng/mmu.c ****         if (pxLink->nxtFree == NULL)
 466              		.loc 1 146 9 view .LVU150
 467              		.loc 1 146 19 is_stmt 0 view .LVU151
 468 0008 53F8082C 		ldr	r2, [r3, #-8]
 469              		.loc 1 146 12 view .LVU152
 470 000c 02B1     		cbz	r2, .L42
 471              	.LVL33:
 472              	.L36:
 147:SYS/memng/mmu.c ****         {
 148:SYS/memng/mmu.c ****             //pxLink->size &= ~xBlockAllocatedBit;
 149:SYS/memng/mmu.c **** 
 150:SYS/memng/mmu.c ****             __asm("cpsid i");
 151:SYS/memng/mmu.c ****             {
 152:SYS/memng/mmu.c ****                 /* Add this block to the list of free blocks. */
 153:SYS/memng/mmu.c ****                 Mem_Monitor.remain_size += pxLink->size;
 154:SYS/memng/mmu.c **** 
 155:SYS/memng/mmu.c ****                 //traceFREE(pv, pxLink->size);
 156:SYS/memng/mmu.c ****                 MMU_InsertFreeBlock(((MemBlock_TypeDef *)pxLink));
 157:SYS/memng/mmu.c ****             }
 158:SYS/memng/mmu.c ****             __asm("cpsie i");
 159:SYS/memng/mmu.c ****         }
 160:SYS/memng/mmu.c ****     }
 161:SYS/memng/mmu.c **** }
 473              		.loc 1 161 1 view .LVU153
 474 000e 08BD     		pop	{r3, pc}
 475              	.LVL34:
 476              	.L42:
 150:SYS/memng/mmu.c ****             {
 477              		.loc 1 150 13 is_stmt 1 view .LVU154
 478              		.syntax unified
 479              	@ 150 "SYS/memng/mmu.c" 1
 480 0010 72B6     		cpsid i
 481              	@ 0 "" 2
 153:SYS/memng/mmu.c **** 
 482              		.loc 1 153 17 view .LVU155
 153:SYS/memng/mmu.c **** 
 483              		.loc 1 153 50 is_stmt 0 view .LVU156
 484              		.thumb
 485              		.syntax unified
 486 0012 33F8041C 		ldrh	r1, [r3, #-4]
 153:SYS/memng/mmu.c **** 
 487              		.loc 1 153 41 view .LVU157
 488 0016 044A     		ldr	r2, .L43
 489 0018 9368     		ldr	r3, [r2, #8]
 490              	.LVL35:
 153:SYS/memng/mmu.c **** 
ARM GAS  /var/folders/lx/hc4sn_b53233_zkc9xbbl97r0000gp/T//cctJNOJ1.s 			page 13


 491              		.loc 1 153 41 view .LVU158
 492 001a 0B44     		add	r3, r3, r1
 493 001c 9360     		str	r3, [r2, #8]
 156:SYS/memng/mmu.c ****             }
 494              		.loc 1 156 17 is_stmt 1 view .LVU159
 495 001e FFF7FEFF 		bl	MMU_InsertFreeBlock
 496              	.LVL36:
 158:SYS/memng/mmu.c ****         }
 497              		.loc 1 158 13 view .LVU160
 498              		.syntax unified
 499              	@ 158 "SYS/memng/mmu.c" 1
 500 0022 62B6     		cpsie i
 501              	@ 0 "" 2
 502              		.loc 1 161 1 is_stmt 0 view .LVU161
 503              		.thumb
 504              		.syntax unified
 505 0024 F3E7     		b	.L36
 506              	.LVL37:
 507              	.L39:
 508              	.LCFI6:
 509              		.cfi_def_cfa_offset 0
 510              		.cfi_restore 3
 511              		.cfi_restore 14
 512              		.loc 1 161 1 view .LVU162
 513 0026 7047     		bx	lr
 514              	.L44:
 515              		.align	2
 516              	.L43:
 517 0028 00000000 		.word	.LANCHOR0
 518              		.cfi_endproc
 519              	.LFE6:
 521              		.global	MemEnd
 522              		.global	MemStart
 523              		.global	Mem_Monitor
 524              		.global	Mem_Buff
 525              		.section	.bss.MemEnd,"aw",%nobits
 526              		.align	2
 527              		.set	.LANCHOR2,. + 0
 530              	MemEnd:
 531 0000 00000000 		.space	4
 532              		.section	.bss.MemStart,"aw",%nobits
 533              		.align	2
 534              		.set	.LANCHOR1,. + 0
 537              	MemStart:
 538 0000 00000000 		.space	8
 538      00000000 
 539              		.section	.bss.Mem_Buff,"aw",%nobits
 540              		.align	3
 543              	Mem_Buff:
 544 0000 00000000 		.space	65536
 544      00000000 
 544      00000000 
 544      00000000 
 544      00000000 
 545              		.section	.bss.Mem_Monitor,"aw",%nobits
 546              		.align	2
 547              		.set	.LANCHOR0,. + 0
ARM GAS  /var/folders/lx/hc4sn_b53233_zkc9xbbl97r0000gp/T//cctJNOJ1.s 			page 14


 550              	Mem_Monitor:
 551 0000 00000000 		.space	20
 551      00000000 
 551      00000000 
 551      00000000 
 551      00000000 
 552              		.text
 553              	.Letext0:
 554              		.file 2 "/usr/local/arm-none-eabi-gcc/gcc-arm-none-eabi-10-2020-q4-major/arm-none-eabi/include/mac
 555              		.file 3 "/usr/local/arm-none-eabi-gcc/gcc-arm-none-eabi-10-2020-q4-major/arm-none-eabi/include/sys
 556              		.file 4 "SYS/memng/mmu.h"
ARM GAS  /var/folders/lx/hc4sn_b53233_zkc9xbbl97r0000gp/T//cctJNOJ1.s 			page 15


DEFINED SYMBOLS
                            *ABS*:0000000000000000 mmu.c
/var/folders/lx/hc4sn_b53233_zkc9xbbl97r0000gp/T//cctJNOJ1.s:18     .text.MMU_Init:0000000000000000 $t
/var/folders/lx/hc4sn_b53233_zkc9xbbl97r0000gp/T//cctJNOJ1.s:26     .text.MMU_Init:0000000000000000 MMU_Init
/var/folders/lx/hc4sn_b53233_zkc9xbbl97r0000gp/T//cctJNOJ1.s:120    .text.MMU_Init:0000000000000054 $d
/var/folders/lx/hc4sn_b53233_zkc9xbbl97r0000gp/T//cctJNOJ1.s:543    .bss.Mem_Buff:0000000000000000 Mem_Buff
/var/folders/lx/hc4sn_b53233_zkc9xbbl97r0000gp/T//cctJNOJ1.s:129    .text.MMU_InsertFreeBlock:0000000000000000 $t
/var/folders/lx/hc4sn_b53233_zkc9xbbl97r0000gp/T//cctJNOJ1.s:136    .text.MMU_InsertFreeBlock:0000000000000000 MMU_InsertFreeBlock
/var/folders/lx/hc4sn_b53233_zkc9xbbl97r0000gp/T//cctJNOJ1.s:264    .text.MMU_InsertFreeBlock:000000000000005c $d
/var/folders/lx/hc4sn_b53233_zkc9xbbl97r0000gp/T//cctJNOJ1.s:270    .text.MMU_Molloc:0000000000000000 $t
/var/folders/lx/hc4sn_b53233_zkc9xbbl97r0000gp/T//cctJNOJ1.s:277    .text.MMU_Molloc:0000000000000000 MMU_Molloc
/var/folders/lx/hc4sn_b53233_zkc9xbbl97r0000gp/T//cctJNOJ1.s:428    .text.MMU_Molloc:000000000000006c $d
/var/folders/lx/hc4sn_b53233_zkc9xbbl97r0000gp/T//cctJNOJ1.s:435    .text.MMU_Free:0000000000000000 $t
/var/folders/lx/hc4sn_b53233_zkc9xbbl97r0000gp/T//cctJNOJ1.s:442    .text.MMU_Free:0000000000000000 MMU_Free
/var/folders/lx/hc4sn_b53233_zkc9xbbl97r0000gp/T//cctJNOJ1.s:517    .text.MMU_Free:0000000000000028 $d
/var/folders/lx/hc4sn_b53233_zkc9xbbl97r0000gp/T//cctJNOJ1.s:530    .bss.MemEnd:0000000000000000 MemEnd
/var/folders/lx/hc4sn_b53233_zkc9xbbl97r0000gp/T//cctJNOJ1.s:537    .bss.MemStart:0000000000000000 MemStart
/var/folders/lx/hc4sn_b53233_zkc9xbbl97r0000gp/T//cctJNOJ1.s:550    .bss.Mem_Monitor:0000000000000000 Mem_Monitor
/var/folders/lx/hc4sn_b53233_zkc9xbbl97r0000gp/T//cctJNOJ1.s:526    .bss.MemEnd:0000000000000000 $d
/var/folders/lx/hc4sn_b53233_zkc9xbbl97r0000gp/T//cctJNOJ1.s:533    .bss.MemStart:0000000000000000 $d
/var/folders/lx/hc4sn_b53233_zkc9xbbl97r0000gp/T//cctJNOJ1.s:540    .bss.Mem_Buff:0000000000000000 $d
/var/folders/lx/hc4sn_b53233_zkc9xbbl97r0000gp/T//cctJNOJ1.s:546    .bss.Mem_Monitor:0000000000000000 $d

NO UNDEFINED SYMBOLS
