ARM GAS  /var/folders/lx/hc4sn_b53233_zkc9xbbl97r0000gp/T//ccL8Eqph.s 			page 1


   1              		.cpu cortex-m4
   2              		.eabi_attribute 27, 1
   3              		.eabi_attribute 28, 1
   4              		.eabi_attribute 20, 1
   5              		.eabi_attribute 21, 1
   6              		.eabi_attribute 23, 3
   7              		.eabi_attribute 24, 1
   8              		.eabi_attribute 25, 1
   9              		.eabi_attribute 26, 1
  10              		.eabi_attribute 30, 1
  11              		.eabi_attribute 34, 1
  12              		.eabi_attribute 18, 4
  13              		.file	"mmu.c"
  14              		.text
  15              	.Ltext0:
  16              		.cfi_sections	.debug_frame
  17              		.section	.text.MMU_Init,"ax",%progbits
  18              		.align	1
  19              		.arch armv7e-m
  20              		.syntax unified
  21              		.thumb
  22              		.thumb_func
  23              		.fpu fpv4-sp-d16
  25              	MMU_Init:
  26              	.LFB4:
  27              		.file 1 "SYS/memng/mmu.c"
   1:SYS/memng/mmu.c **** #include "mmu.h"
   2:SYS/memng/mmu.c **** #include <string.h>
   3:SYS/memng/mmu.c **** #include <stdio.h>
   4:SYS/memng/mmu.c **** 
   5:SYS/memng/mmu.c **** static Mem_Monitor_TypeDef Mem_Monitor = {
   6:SYS/memng/mmu.c ****     .remain_size = PHY_MEM_SIZE,
   7:SYS/memng/mmu.c ****     .total_size = PHY_MEM_SIZE,
   8:SYS/memng/mmu.c ****     .table_size = MEM_ALLOC_TABLE_SIZE,
   9:SYS/memng/mmu.c ****     .used_size = 0,
  10:SYS/memng/mmu.c ****     .init = false,
  11:SYS/memng/mmu.c **** };
  12:SYS/memng/mmu.c **** 
  13:SYS/memng/mmu.c **** static uint8_t MMU_Buff[PHY_MEM_SIZE] __attribute__((aligned(BLOCK_ALIGMENT_SIZE)));
  14:SYS/memng/mmu.c **** static uint8_t MMU_StateTable[MEM_ALLOC_TABLE_SIZE];
  15:SYS/memng/mmu.c **** 
  16:SYS/memng/mmu.c **** static void MMU_Trim(void)
  17:SYS/memng/mmu.c **** {
  18:SYS/memng/mmu.c **** }
  19:SYS/memng/mmu.c **** 
  20:SYS/memng/mmu.c **** /* memory block initial */
  21:SYS/memng/mmu.c **** static void MMU_Init(void)
  22:SYS/memng/mmu.c **** {
  28              		.loc 1 22 1 view -0
  29              		.cfi_startproc
  30              		@ args = 0, pretend = 0, frame = 0
  31              		@ frame_needed = 0, uses_anonymous_args = 0
  32              		@ link register save eliminated.
  23:SYS/memng/mmu.c ****     /* init memory state table */
  24:SYS/memng/mmu.c ****     for (uint32_t index = 0; index < MEM_ALLOC_TABLE_SIZE; index++)
  33              		.loc 1 24 5 view .LVU1
  34              	.LBB2:
ARM GAS  /var/folders/lx/hc4sn_b53233_zkc9xbbl97r0000gp/T//ccL8Eqph.s 			page 2


  35              		.loc 1 24 10 view .LVU2
  36              	.LVL0:
  37              		.loc 1 24 19 is_stmt 0 view .LVU3
  38 0000 0023     		movs	r3, #0
  39              		.loc 1 24 5 view .LVU4
  40 0002 03E0     		b	.L2
  41              	.LVL1:
  42              	.L3:
  25:SYS/memng/mmu.c ****     {
  26:SYS/memng/mmu.c ****         MMU_StateTable[index] = 0;
  43              		.loc 1 26 9 is_stmt 1 discriminator 3 view .LVU5
  44              		.loc 1 26 31 is_stmt 0 discriminator 3 view .LVU6
  45 0004 034A     		ldr	r2, .L4
  46 0006 0021     		movs	r1, #0
  47 0008 D154     		strb	r1, [r2, r3]
  24:SYS/memng/mmu.c ****     {
  48              		.loc 1 24 60 is_stmt 1 discriminator 3 view .LVU7
  24:SYS/memng/mmu.c ****     {
  49              		.loc 1 24 65 is_stmt 0 discriminator 3 view .LVU8
  50 000a 0133     		adds	r3, r3, #1
  51              	.LVL2:
  52              	.L2:
  24:SYS/memng/mmu.c ****     {
  53              		.loc 1 24 30 is_stmt 1 discriminator 1 view .LVU9
  24:SYS/memng/mmu.c ****     {
  54              		.loc 1 24 5 is_stmt 0 discriminator 1 view .LVU10
  55 000c B3F5F85F 		cmp	r3, #7936
  56 0010 F8D3     		bcc	.L3
  57              	.LBE2:
  27:SYS/memng/mmu.c ****     }
  28:SYS/memng/mmu.c **** }
  58              		.loc 1 28 1 view .LVU11
  59 0012 7047     		bx	lr
  60              	.L5:
  61              		.align	2
  62              	.L4:
  63 0014 00000000 		.word	MMU_StateTable
  64              		.cfi_endproc
  65              	.LFE4:
  67              		.section	.text.MMU_Malloc,"ax",%progbits
  68              		.align	1
  69              		.global	MMU_Malloc
  70              		.syntax unified
  71              		.thumb
  72              		.thumb_func
  73              		.fpu fpv4-sp-d16
  75              	MMU_Malloc:
  76              	.LVL3:
  77              	.LFB5:
  29:SYS/memng/mmu.c **** 
  30:SYS/memng/mmu.c **** /* memory manager unit malloc */
  31:SYS/memng/mmu.c **** void *MMU_Malloc(uint32_t size)
  32:SYS/memng/mmu.c **** {
  78              		.loc 1 32 1 is_stmt 1 view -0
  79              		.cfi_startproc
  80              		@ args = 0, pretend = 0, frame = 0
  81              		@ frame_needed = 0, uses_anonymous_args = 0
ARM GAS  /var/folders/lx/hc4sn_b53233_zkc9xbbl97r0000gp/T//ccL8Eqph.s 			page 3


  82              		.loc 1 32 1 is_stmt 0 view .LVU13
  83 0000 10B5     		push	{r4, lr}
  84              	.LCFI0:
  85              		.cfi_def_cfa_offset 8
  86              		.cfi_offset 4, -8
  87              		.cfi_offset 14, -4
  88 0002 0446     		mov	r4, r0
  33:SYS/memng/mmu.c ****     uint32_t req_block_num = 0;
  89              		.loc 1 33 5 is_stmt 1 view .LVU14
  90              	.LVL4:
  34:SYS/memng/mmu.c ****     void *mem_addr;
  91              		.loc 1 34 5 view .LVU15
  35:SYS/memng/mmu.c **** 
  36:SYS/memng/mmu.c ****     if (!Mem_Monitor.init)
  92              		.loc 1 36 5 view .LVU16
  93              		.loc 1 36 21 is_stmt 0 view .LVU17
  94 0004 104B     		ldr	r3, .L13
  95 0006 1B7C     		ldrb	r3, [r3, #16]	@ zero_extendqisi2
  96              		.loc 1 36 8 view .LVU18
  97 0008 C3B1     		cbz	r3, .L12
  98              	.LVL5:
  99              	.L7:
  37:SYS/memng/mmu.c ****     {
  38:SYS/memng/mmu.c ****         MMU_Init();
  39:SYS/memng/mmu.c **** 
  40:SYS/memng/mmu.c ****         Mem_Monitor.init = true;
  41:SYS/memng/mmu.c ****     }
  42:SYS/memng/mmu.c **** 
  43:SYS/memng/mmu.c ****     if (Mem_Monitor.init)
 100              		.loc 1 43 5 is_stmt 1 view .LVU19
 101              		.loc 1 43 20 is_stmt 0 view .LVU20
 102 000a 0F4B     		ldr	r3, .L13
 103 000c 1B7C     		ldrb	r3, [r3, #16]	@ zero_extendqisi2
 104              		.loc 1 43 8 view .LVU21
 105 000e 9BB1     		cbz	r3, .L8
  44:SYS/memng/mmu.c ****     {
  45:SYS/memng/mmu.c ****         __asm("cpsid i");
 106              		.loc 1 45 9 is_stmt 1 view .LVU22
 107              		.syntax unified
 108              	@ 45 "SYS/memng/mmu.c" 1
 109 0010 72B6     		cpsid i
 110              	@ 0 "" 2
  46:SYS/memng/mmu.c **** 
  47:SYS/memng/mmu.c ****         if ((size > Mem_Monitor.remain_size) || (size == 0))
 111              		.loc 1 47 9 view .LVU23
 112              		.loc 1 47 32 is_stmt 0 view .LVU24
 113              		.thumb
 114              		.syntax unified
 115 0012 0D4B     		ldr	r3, .L13
 116 0014 5B68     		ldr	r3, [r3, #4]
 117              		.loc 1 47 12 view .LVU25
 118 0016 A342     		cmp	r3, r4
 119 0018 0DD3     		bcc	.L9
 120              		.loc 1 47 46 discriminator 1 view .LVU26
 121 001a 64B1     		cbz	r4, .L9
  48:SYS/memng/mmu.c ****         {
  49:SYS/memng/mmu.c ****             mem_addr = 0;
ARM GAS  /var/folders/lx/hc4sn_b53233_zkc9xbbl97r0000gp/T//ccL8Eqph.s 			page 4


  50:SYS/memng/mmu.c ****         }
  51:SYS/memng/mmu.c ****         else
  52:SYS/memng/mmu.c ****         {
  53:SYS/memng/mmu.c ****             req_block_num = size / BLOCK_ALIGMENT_SIZE;
 122              		.loc 1 53 13 is_stmt 1 view .LVU27
 123              		.loc 1 53 27 is_stmt 0 view .LVU28
 124 001c E108     		lsrs	r1, r4, #3
 125              	.LVL6:
  54:SYS/memng/mmu.c ****             if (size % BLOCK_ALIGMENT_SIZE)
 126              		.loc 1 54 13 is_stmt 1 view .LVU29
 127              		.loc 1 54 16 is_stmt 0 view .LVU30
 128 001e 14F0070F 		tst	r4, #7
 129 0022 00D0     		beq	.L10
  55:SYS/memng/mmu.c ****             {
  56:SYS/memng/mmu.c ****                 req_block_num++;
 130              		.loc 1 56 17 is_stmt 1 view .LVU31
 131              		.loc 1 56 30 is_stmt 0 view .LVU32
 132 0024 0131     		adds	r1, r1, #1
 133              	.LVL7:
 134              	.L10:
  57:SYS/memng/mmu.c ****             }
  58:SYS/memng/mmu.c **** 
  59:SYS/memng/mmu.c ****             Mem_Monitor.remain_size -= req_block_num * BLOCK_ALIGMENT_SIZE;
 135              		.loc 1 59 13 is_stmt 1 view .LVU33
 136              		.loc 1 59 37 is_stmt 0 view .LVU34
 137 0026 084A     		ldr	r2, .L13
 138 0028 A3EBC103 		sub	r3, r3, r1, lsl #3
 139 002c 5360     		str	r3, [r2, #4]
  60:SYS/memng/mmu.c ****             Mem_Monitor.used_size += req_block_num * BLOCK_ALIGMENT_SIZE;
 140              		.loc 1 60 13 is_stmt 1 view .LVU35
 141              		.loc 1 60 35 is_stmt 0 view .LVU36
 142 002e 1368     		ldr	r3, [r2]
 143 0030 03EBC103 		add	r3, r3, r1, lsl #3
 144 0034 1360     		str	r3, [r2]
 145              	.LVL8:
 146              	.L9:
  61:SYS/memng/mmu.c ****         }
  62:SYS/memng/mmu.c **** 
  63:SYS/memng/mmu.c ****         __asm("cpsie i");
 147              		.loc 1 63 9 is_stmt 1 view .LVU37
 148              		.syntax unified
 149              	@ 63 "SYS/memng/mmu.c" 1
 150 0036 62B6     		cpsie i
 151              	@ 0 "" 2
 152              	.LVL9:
 153              		.thumb
 154              		.syntax unified
 155              	.L8:
  64:SYS/memng/mmu.c **** 
  65:SYS/memng/mmu.c ****         //mem_addr = ;
  66:SYS/memng/mmu.c ****     }
  67:SYS/memng/mmu.c **** 
  68:SYS/memng/mmu.c ****     return mem_addr;
 156              		.loc 1 68 5 view .LVU38
  69:SYS/memng/mmu.c **** }
 157              		.loc 1 69 1 is_stmt 0 view .LVU39
 158 0038 0020     		movs	r0, #0
ARM GAS  /var/folders/lx/hc4sn_b53233_zkc9xbbl97r0000gp/T//ccL8Eqph.s 			page 5


 159 003a 10BD     		pop	{r4, pc}
 160              	.LVL10:
 161              	.L12:
  38:SYS/memng/mmu.c **** 
 162              		.loc 1 38 9 is_stmt 1 view .LVU40
 163 003c FFF7FEFF 		bl	MMU_Init
 164              	.LVL11:
  40:SYS/memng/mmu.c ****     }
 165              		.loc 1 40 9 view .LVU41
  40:SYS/memng/mmu.c ****     }
 166              		.loc 1 40 26 is_stmt 0 view .LVU42
 167 0040 014B     		ldr	r3, .L13
 168 0042 0122     		movs	r2, #1
 169 0044 1A74     		strb	r2, [r3, #16]
 170 0046 E0E7     		b	.L7
 171              	.L14:
 172              		.align	2
 173              	.L13:
 174 0048 00000000 		.word	.LANCHOR0
 175              		.cfi_endproc
 176              	.LFE5:
 178              		.section	.text.MMU_Free,"ax",%progbits
 179              		.align	1
 180              		.global	MMU_Free
 181              		.syntax unified
 182              		.thumb
 183              		.thumb_func
 184              		.fpu fpv4-sp-d16
 186              	MMU_Free:
 187              	.LVL12:
 188              	.LFB6:
  70:SYS/memng/mmu.c **** 
  71:SYS/memng/mmu.c **** /* memory manager unit free */
  72:SYS/memng/mmu.c **** void MMU_Free(void *ptr)
  73:SYS/memng/mmu.c **** {
 189              		.loc 1 73 1 is_stmt 1 view -0
 190              		.cfi_startproc
 191              		@ args = 0, pretend = 0, frame = 0
 192              		@ frame_needed = 0, uses_anonymous_args = 0
 193              		@ link register save eliminated.
  74:SYS/memng/mmu.c ****     __asm("cpsid i");
 194              		.loc 1 74 5 view .LVU44
 195              		.syntax unified
 196              	@ 74 "SYS/memng/mmu.c" 1
 197 0000 72B6     		cpsid i
 198              	@ 0 "" 2
  75:SYS/memng/mmu.c **** 
  76:SYS/memng/mmu.c ****     __asm("cpsie i");
 199              		.loc 1 76 5 view .LVU45
 200              	@ 76 "SYS/memng/mmu.c" 1
 201 0002 62B6     		cpsie i
 202              	@ 0 "" 2
  77:SYS/memng/mmu.c **** }
 203              		.loc 1 77 1 is_stmt 0 view .LVU46
 204              		.thumb
 205              		.syntax unified
 206 0004 7047     		bx	lr
ARM GAS  /var/folders/lx/hc4sn_b53233_zkc9xbbl97r0000gp/T//ccL8Eqph.s 			page 6


 207              		.cfi_endproc
 208              	.LFE6:
 210              		.section	.text.MMU_Info,"ax",%progbits
 211              		.align	1
 212              		.global	MMU_Info
 213              		.syntax unified
 214              		.thumb
 215              		.thumb_func
 216              		.fpu fpv4-sp-d16
 218              	MMU_Info:
 219              	.LVL13:
 220              	.LFB7:
  78:SYS/memng/mmu.c **** 
  79:SYS/memng/mmu.c **** Mem_Monitor_TypeDef MMU_Info(void)
  80:SYS/memng/mmu.c **** {
 221              		.loc 1 80 1 is_stmt 1 view -0
 222              		.cfi_startproc
 223              		@ args = 0, pretend = 0, frame = 0
 224              		@ frame_needed = 0, uses_anonymous_args = 0
 225              		.loc 1 80 1 is_stmt 0 view .LVU48
 226 0000 10B5     		push	{r4, lr}
 227              	.LCFI1:
 228              		.cfi_def_cfa_offset 8
 229              		.cfi_offset 4, -8
 230              		.cfi_offset 14, -4
 231 0002 8646     		mov	lr, r0
  81:SYS/memng/mmu.c ****     return Mem_Monitor;
 232              		.loc 1 81 5 is_stmt 1 view .LVU49
 233              		.loc 1 81 12 is_stmt 0 view .LVU50
 234 0004 8446     		mov	ip, r0
 235 0006 044C     		ldr	r4, .L18
 236 0008 0FCC     		ldmia	r4!, {r0, r1, r2, r3}
 237              	.LVL14:
 238              		.loc 1 81 12 view .LVU51
 239 000a ACE80F00 		stmia	ip!, {r0, r1, r2, r3}
 240              	.LVL15:
 241              		.loc 1 81 12 view .LVU52
 242 000e 2368     		ldr	r3, [r4]
 243 0010 CCF80030 		str	r3, [ip]
  82:SYS/memng/mmu.c **** }
 244              		.loc 1 82 1 view .LVU53
 245 0014 7046     		mov	r0, lr
 246 0016 10BD     		pop	{r4, pc}
 247              	.L19:
 248              		.align	2
 249              	.L18:
 250 0018 00000000 		.word	.LANCHOR0
 251              		.cfi_endproc
 252              	.LFE7:
 254              		.section	.bss.MMU_StateTable,"aw",%nobits
 255              		.align	2
 258              	MMU_StateTable:
 259 0000 00000000 		.space	7936
 259      00000000 
 259      00000000 
 259      00000000 
 259      00000000 
ARM GAS  /var/folders/lx/hc4sn_b53233_zkc9xbbl97r0000gp/T//ccL8Eqph.s 			page 7


 260              		.section	.data.Mem_Monitor,"aw"
 261              		.align	2
 262              		.set	.LANCHOR0,. + 0
 265              	Mem_Monitor:
 266 0000 00000000 		.word	0
 267 0004 00F80000 		.word	63488
 268 0008 00F80000 		.word	63488
 269 000c 001F0000 		.word	7936
 270 0010 00       		.byte	0
 271 0011 000000   		.space	3
 272              		.text
 273              	.Letext0:
 274              		.file 2 "/usr/local/arm-none-eabi-gcc/gcc-arm-none-eabi-10-2020-q4-major/arm-none-eabi/include/mac
 275              		.file 3 "/usr/local/arm-none-eabi-gcc/gcc-arm-none-eabi-10-2020-q4-major/arm-none-eabi/include/sys
 276              		.file 4 "SYS/memng/mmu.h"
ARM GAS  /var/folders/lx/hc4sn_b53233_zkc9xbbl97r0000gp/T//ccL8Eqph.s 			page 8


DEFINED SYMBOLS
                            *ABS*:0000000000000000 mmu.c
/var/folders/lx/hc4sn_b53233_zkc9xbbl97r0000gp/T//ccL8Eqph.s:18     .text.MMU_Init:0000000000000000 $t
/var/folders/lx/hc4sn_b53233_zkc9xbbl97r0000gp/T//ccL8Eqph.s:25     .text.MMU_Init:0000000000000000 MMU_Init
/var/folders/lx/hc4sn_b53233_zkc9xbbl97r0000gp/T//ccL8Eqph.s:63     .text.MMU_Init:0000000000000014 $d
/var/folders/lx/hc4sn_b53233_zkc9xbbl97r0000gp/T//ccL8Eqph.s:258    .bss.MMU_StateTable:0000000000000000 MMU_StateTable
/var/folders/lx/hc4sn_b53233_zkc9xbbl97r0000gp/T//ccL8Eqph.s:68     .text.MMU_Malloc:0000000000000000 $t
/var/folders/lx/hc4sn_b53233_zkc9xbbl97r0000gp/T//ccL8Eqph.s:75     .text.MMU_Malloc:0000000000000000 MMU_Malloc
/var/folders/lx/hc4sn_b53233_zkc9xbbl97r0000gp/T//ccL8Eqph.s:174    .text.MMU_Malloc:0000000000000048 $d
/var/folders/lx/hc4sn_b53233_zkc9xbbl97r0000gp/T//ccL8Eqph.s:179    .text.MMU_Free:0000000000000000 $t
/var/folders/lx/hc4sn_b53233_zkc9xbbl97r0000gp/T//ccL8Eqph.s:186    .text.MMU_Free:0000000000000000 MMU_Free
/var/folders/lx/hc4sn_b53233_zkc9xbbl97r0000gp/T//ccL8Eqph.s:211    .text.MMU_Info:0000000000000000 $t
/var/folders/lx/hc4sn_b53233_zkc9xbbl97r0000gp/T//ccL8Eqph.s:218    .text.MMU_Info:0000000000000000 MMU_Info
/var/folders/lx/hc4sn_b53233_zkc9xbbl97r0000gp/T//ccL8Eqph.s:250    .text.MMU_Info:0000000000000018 $d
/var/folders/lx/hc4sn_b53233_zkc9xbbl97r0000gp/T//ccL8Eqph.s:255    .bss.MMU_StateTable:0000000000000000 $d
/var/folders/lx/hc4sn_b53233_zkc9xbbl97r0000gp/T//ccL8Eqph.s:261    .data.Mem_Monitor:0000000000000000 $d
/var/folders/lx/hc4sn_b53233_zkc9xbbl97r0000gp/T//ccL8Eqph.s:265    .data.Mem_Monitor:0000000000000000 Mem_Monitor

NO UNDEFINED SYMBOLS
