ARM GAS  C:\Users\huav\AppData\Local\Temp\ccKKQyoD.s 			page 1


   1              		.cpu cortex-m4
   2              		.eabi_attribute 27, 1
   3              		.eabi_attribute 28, 1
   4              		.eabi_attribute 20, 1
   5              		.eabi_attribute 21, 1
   6              		.eabi_attribute 23, 3
   7              		.eabi_attribute 24, 1
   8              		.eabi_attribute 25, 1
   9              		.eabi_attribute 26, 1
  10              		.eabi_attribute 30, 1
  11              		.eabi_attribute 34, 1
  12              		.eabi_attribute 18, 4
  13              		.file	"mmu.c"
  14              		.text
  15              	.Ltext0:
  16              		.cfi_sections	.debug_frame
  17              		.section	.text.MMU_Init,"ax",%progbits
  18              		.align	1
  19              		.global	MMU_Init
  20              		.arch armv7e-m
  21              		.syntax unified
  22              		.thumb
  23              		.thumb_func
  24              		.fpu fpv4-sp-d16
  26              	MMU_Init:
  27              	.LFB3:
  28              		.file 1 "SYS/memng/mmu.c"
   1:SYS/memng/mmu.c **** #include "mmu.h"
   2:SYS/memng/mmu.c **** 
   3:SYS/memng/mmu.c **** uint8_t Mem_Buff[PHY_MEM_SIZE] __attribute__((align(BLOCK_ALIGMENT_SIZE), at(0x10000000)));
   4:SYS/memng/mmu.c **** 
   5:SYS/memng/mmu.c **** Mem_Monitor_TypeDef Mem_Monitor;
   6:SYS/memng/mmu.c **** MemBlock_TypeDef MemStart;
   7:SYS/memng/mmu.c **** MemBlock_TypeDef *MemEnd;
   8:SYS/memng/mmu.c **** 
   9:SYS/memng/mmu.c **** void MMU_Init(void)
  10:SYS/memng/mmu.c **** {
  29              		.loc 1 10 1 view -0
  30              		.cfi_startproc
  31              		@ args = 0, pretend = 0, frame = 0
  32              		@ frame_needed = 0, uses_anonymous_args = 0
  33              		@ link register save eliminated.
  11:SYS/memng/mmu.c ****     Mem_Monitor.phy_size = PHY_MEM_SIZE;
  34              		.loc 1 11 5 view .LVU1
  35              		.loc 1 11 26 is_stmt 0 view .LVU2
  36 0000 044A     		ldr	r2, .L3
  37 0002 0023     		movs	r3, #0
  38 0004 1380     		strh	r3, [r2]	@ movhi
  12:SYS/memng/mmu.c ****     Mem_Monitor.used_size = 0;
  39              		.loc 1 12 5 is_stmt 1 view .LVU3
  40              		.loc 1 12 27 is_stmt 0 view .LVU4
  41 0006 5380     		strh	r3, [r2, #2]	@ movhi
  13:SYS/memng/mmu.c **** 
  14:SYS/memng/mmu.c ****     for (uint16_t i = 0; i < PHY_MEM_SIZE; i++)
  42              		.loc 1 14 5 is_stmt 1 view .LVU5
  43              	.LBB2:
  44              		.loc 1 14 10 view .LVU6
ARM GAS  C:\Users\huav\AppData\Local\Temp\ccKKQyoD.s 			page 2


  45              	.LVL0:
  46              	.L2:
  15:SYS/memng/mmu.c ****     {
  16:SYS/memng/mmu.c ****         Mem_Buff[i] = 0;
  47              		.loc 1 16 9 discriminator 2 view .LVU7
  48              		.loc 1 16 21 is_stmt 0 discriminator 2 view .LVU8
  49 0008 034A     		ldr	r2, .L3+4
  50 000a 0021     		movs	r1, #0
  51 000c D154     		strb	r1, [r2, r3]
  14:SYS/memng/mmu.c ****     {
  52              		.loc 1 14 44 is_stmt 1 discriminator 2 view .LVU9
  14:SYS/memng/mmu.c ****     {
  53              		.loc 1 14 45 is_stmt 0 discriminator 2 view .LVU10
  54 000e 0133     		adds	r3, r3, #1
  55              	.LVL1:
  14:SYS/memng/mmu.c ****     {
  56              		.loc 1 14 45 discriminator 2 view .LVU11
  57 0010 9BB2     		uxth	r3, r3
  58              	.LVL2:
  14:SYS/memng/mmu.c ****     {
  59              		.loc 1 14 26 is_stmt 1 discriminator 2 view .LVU12
  60 0012 F9E7     		b	.L2
  61              	.L4:
  62              		.align	2
  63              	.L3:
  64 0014 00000000 		.word	.LANCHOR0
  65 0018 00000000 		.word	Mem_Buff
  66              	.LBE2:
  67              		.cfi_endproc
  68              	.LFE3:
  70              		.section	.text.MMU_InsertFreeBlock,"ax",%progbits
  71              		.align	1
  72              		.global	MMU_InsertFreeBlock
  73              		.syntax unified
  74              		.thumb
  75              		.thumb_func
  76              		.fpu fpv4-sp-d16
  78              	MMU_InsertFreeBlock:
  79              	.LVL3:
  80              	.LFB4:
  17:SYS/memng/mmu.c ****     }
  18:SYS/memng/mmu.c **** 
  19:SYS/memng/mmu.c ****     Mem_Monitor.init = true;
  20:SYS/memng/mmu.c **** }
  21:SYS/memng/mmu.c **** 
  22:SYS/memng/mmu.c **** void MMU_InsertFreeBlock(MemBlock_TypeDef *blk)
  23:SYS/memng/mmu.c **** {
  81              		.loc 1 23 1 view -0
  82              		.cfi_startproc
  83              		@ args = 0, pretend = 0, frame = 0
  84              		@ frame_needed = 0, uses_anonymous_args = 0
  85              		@ link register save eliminated.
  24:SYS/memng/mmu.c **** }
  86              		.loc 1 24 1 view .LVU14
  87 0000 7047     		bx	lr
  88              		.cfi_endproc
  89              	.LFE4:
ARM GAS  C:\Users\huav\AppData\Local\Temp\ccKKQyoD.s 			page 3


  91              		.section	.text.MMU_Molloc,"ax",%progbits
  92              		.align	1
  93              		.global	MMU_Molloc
  94              		.syntax unified
  95              		.thumb
  96              		.thumb_func
  97              		.fpu fpv4-sp-d16
  99              	MMU_Molloc:
 100              	.LVL4:
 101              	.LFB5:
  25:SYS/memng/mmu.c **** 
  26:SYS/memng/mmu.c **** void *MMU_Molloc(uint16_t size)
  27:SYS/memng/mmu.c **** {
 102              		.loc 1 27 1 view -0
 103              		.cfi_startproc
 104              		@ args = 0, pretend = 0, frame = 0
 105              		@ frame_needed = 0, uses_anonymous_args = 0
 106              		.loc 1 27 1 is_stmt 0 view .LVU16
 107 0000 08B5     		push	{r3, lr}
 108              	.LCFI0:
 109              		.cfi_def_cfa_offset 8
 110              		.cfi_offset 3, -8
 111              		.cfi_offset 14, -4
  28:SYS/memng/mmu.c ****     void *mem_addr;
 112              		.loc 1 28 5 is_stmt 1 view .LVU17
  29:SYS/memng/mmu.c **** 
  30:SYS/memng/mmu.c ****     if (!Mem_Monitor.init)
 113              		.loc 1 30 5 view .LVU18
 114              		.loc 1 30 21 is_stmt 0 view .LVU19
 115 0002 044B     		ldr	r3, .L10
 116 0004 1B7A     		ldrb	r3, [r3, #8]	@ zero_extendqisi2
 117              		.loc 1 30 8 view .LVU20
 118 0006 1BB1     		cbz	r3, .L9
  31:SYS/memng/mmu.c ****     {
  32:SYS/memng/mmu.c ****         MMU_Init();
  33:SYS/memng/mmu.c ****     }
  34:SYS/memng/mmu.c **** 
  35:SYS/memng/mmu.c ****     __asm("cpsid i");
 119              		.loc 1 35 5 is_stmt 1 view .LVU21
 120              		.syntax unified
 121              	@ 35 "SYS/memng/mmu.c" 1
 122 0008 72B6     		cpsid i
 123              	@ 0 "" 2
  36:SYS/memng/mmu.c **** 
  37:SYS/memng/mmu.c ****     if (size <= Mem_Monitor.remain_size)
 124              		.loc 1 37 5 view .LVU22
  38:SYS/memng/mmu.c ****     {
  39:SYS/memng/mmu.c ****     }
 125              		.loc 1 39 5 view .LVU23
  40:SYS/memng/mmu.c **** 
  41:SYS/memng/mmu.c ****     __asm("cpsie i");
 126              		.loc 1 41 5 view .LVU24
 127              	@ 41 "SYS/memng/mmu.c" 1
 128 000a 62B6     		cpsie i
 129              	@ 0 "" 2
  42:SYS/memng/mmu.c **** 
  43:SYS/memng/mmu.c ****     return mem_addr;
ARM GAS  C:\Users\huav\AppData\Local\Temp\ccKKQyoD.s 			page 4


 130              		.loc 1 43 5 view .LVU25
  44:SYS/memng/mmu.c **** }
 131              		.loc 1 44 1 is_stmt 0 view .LVU26
 132              		.thumb
 133              		.syntax unified
 134 000c 0020     		movs	r0, #0
 135              	.LVL5:
 136              		.loc 1 44 1 view .LVU27
 137 000e 08BD     		pop	{r3, pc}
 138              	.LVL6:
 139              	.L9:
  32:SYS/memng/mmu.c ****     }
 140              		.loc 1 32 9 is_stmt 1 view .LVU28
 141 0010 FFF7FEFF 		bl	MMU_Init
 142              	.LVL7:
 143              	.L11:
  32:SYS/memng/mmu.c ****     }
 144              		.loc 1 32 9 is_stmt 0 view .LVU29
 145              		.align	2
 146              	.L10:
 147 0014 00000000 		.word	.LANCHOR0
 148              		.cfi_endproc
 149              	.LFE5:
 151              		.global	MemEnd
 152              		.global	MemStart
 153              		.global	Mem_Monitor
 154              		.global	Mem_Buff
 155              		.section	.bss.MemEnd,"aw",%nobits
 156              		.align	2
 159              	MemEnd:
 160 0000 00000000 		.space	4
 161              		.section	.bss.MemStart,"aw",%nobits
 162              		.align	2
 165              	MemStart:
 166 0000 00000000 		.space	8
 166      00000000 
 167              		.section	.bss.Mem_Buff,"aw",%nobits
 168              		.align	2
 171              	Mem_Buff:
 172 0000 00000000 		.space	65536
 172      00000000 
 172      00000000 
 172      00000000 
 172      00000000 
 173              		.section	.bss.Mem_Monitor,"aw",%nobits
 174              		.align	2
 175              		.set	.LANCHOR0,. + 0
 178              	Mem_Monitor:
 179 0000 00000000 		.space	10
 179      00000000 
 179      0000
 180              		.text
 181              	.Letext0:
 182              		.file 2 "c:\\program files (x86)\\gnu arm embedded toolchain\\10 2020-q4-major\\arm-none-eabi\\inc
 183              		.file 3 "c:\\program files (x86)\\gnu arm embedded toolchain\\10 2020-q4-major\\arm-none-eabi\\inc
 184              		.file 4 "SYS/memng/mmu.h"
ARM GAS  C:\Users\huav\AppData\Local\Temp\ccKKQyoD.s 			page 5


DEFINED SYMBOLS
                            *ABS*:00000000 mmu.c
C:\Users\huav\AppData\Local\Temp\ccKKQyoD.s:18     .text.MMU_Init:00000000 $t
C:\Users\huav\AppData\Local\Temp\ccKKQyoD.s:26     .text.MMU_Init:00000000 MMU_Init
C:\Users\huav\AppData\Local\Temp\ccKKQyoD.s:64     .text.MMU_Init:00000014 $d
C:\Users\huav\AppData\Local\Temp\ccKKQyoD.s:171    .bss.Mem_Buff:00000000 Mem_Buff
C:\Users\huav\AppData\Local\Temp\ccKKQyoD.s:71     .text.MMU_InsertFreeBlock:00000000 $t
C:\Users\huav\AppData\Local\Temp\ccKKQyoD.s:78     .text.MMU_InsertFreeBlock:00000000 MMU_InsertFreeBlock
C:\Users\huav\AppData\Local\Temp\ccKKQyoD.s:92     .text.MMU_Molloc:00000000 $t
C:\Users\huav\AppData\Local\Temp\ccKKQyoD.s:99     .text.MMU_Molloc:00000000 MMU_Molloc
C:\Users\huav\AppData\Local\Temp\ccKKQyoD.s:147    .text.MMU_Molloc:00000014 $d
C:\Users\huav\AppData\Local\Temp\ccKKQyoD.s:159    .bss.MemEnd:00000000 MemEnd
C:\Users\huav\AppData\Local\Temp\ccKKQyoD.s:165    .bss.MemStart:00000000 MemStart
C:\Users\huav\AppData\Local\Temp\ccKKQyoD.s:178    .bss.Mem_Monitor:00000000 Mem_Monitor
C:\Users\huav\AppData\Local\Temp\ccKKQyoD.s:156    .bss.MemEnd:00000000 $d
C:\Users\huav\AppData\Local\Temp\ccKKQyoD.s:162    .bss.MemStart:00000000 $d
C:\Users\huav\AppData\Local\Temp\ccKKQyoD.s:168    .bss.Mem_Buff:00000000 $d
C:\Users\huav\AppData\Local\Temp\ccKKQyoD.s:174    .bss.Mem_Monitor:00000000 $d

NO UNDEFINED SYMBOLS
