ARM GAS  /var/folders/lx/hc4sn_b53233_zkc9xbbl97r0000gp/T//cclO3XUq.s 			page 1


   1              		.cpu cortex-m4
   2              		.eabi_attribute 27, 1
   3              		.eabi_attribute 28, 1
   4              		.eabi_attribute 20, 1
   5              		.eabi_attribute 21, 1
   6              		.eabi_attribute 23, 3
   7              		.eabi_attribute 24, 1
   8              		.eabi_attribute 25, 1
   9              		.eabi_attribute 26, 1
  10              		.eabi_attribute 30, 1
  11              		.eabi_attribute 34, 1
  12              		.eabi_attribute 18, 4
  13              		.file	"mmu.c"
  14              		.text
  15              	.Ltext0:
  16              		.cfi_sections	.debug_frame
  17              		.section	.text.MMU_Init,"ax",%progbits
  18              		.align	1
  19              		.global	MMU_Init
  20              		.arch armv7e-m
  21              		.syntax unified
  22              		.thumb
  23              		.thumb_func
  24              		.fpu fpv4-sp-d16
  26              	MMU_Init:
  27              	.LFB3:
  28              		.file 1 "SYS/memng/mmu.c"
   1:SYS/memng/mmu.c **** #include "mmu.h"
   2:SYS/memng/mmu.c **** 
   3:SYS/memng/mmu.c **** uint8_t Mem_Buff[PHY_MEM_SIZE] __attribute__((align(BLOCK_ALIGMENT_SIZE), at(0x10000000)));
   4:SYS/memng/mmu.c **** 
   5:SYS/memng/mmu.c **** Mem_Monitor_TypeDef Mem_Monitor;
   6:SYS/memng/mmu.c **** 
   7:SYS/memng/mmu.c **** MemBlock_TypeDef MemStart;
   8:SYS/memng/mmu.c **** MemBlock_TypeDef *MemEnd;
   9:SYS/memng/mmu.c **** 
  10:SYS/memng/mmu.c **** void MMU_Init(void)
  11:SYS/memng/mmu.c **** {
  29              		.loc 1 11 1 view -0
  30              		.cfi_startproc
  31              		@ args = 0, pretend = 0, frame = 0
  32              		@ frame_needed = 0, uses_anonymous_args = 0
  33              		@ link register save eliminated.
  12:SYS/memng/mmu.c ****     MemBlock_TypeDef *FstFreeBlock_tmp = NULL;
  34              		.loc 1 12 5 view .LVU1
  35              	.LVL0:
  13:SYS/memng/mmu.c **** 
  14:SYS/memng/mmu.c ****     Mem_Monitor.phy_size = PHY_MEM_SIZE;
  36              		.loc 1 14 5 view .LVU2
  37              		.loc 1 14 26 is_stmt 0 view .LVU3
  38 0000 144A     		ldr	r2, .L4
  39 0002 4FF48033 		mov	r3, #65536
  40 0006 1360     		str	r3, [r2]
  15:SYS/memng/mmu.c ****     Mem_Monitor.used_size = 0;
  41              		.loc 1 15 5 is_stmt 1 view .LVU4
  42              		.loc 1 15 27 is_stmt 0 view .LVU5
  43 0008 0023     		movs	r3, #0
ARM GAS  /var/folders/lx/hc4sn_b53233_zkc9xbbl97r0000gp/T//cclO3XUq.s 			page 2


  44 000a 5360     		str	r3, [r2, #4]
  16:SYS/memng/mmu.c **** 
  17:SYS/memng/mmu.c ****     for (uint32_t i = 0; i < PHY_MEM_SIZE; i++)
  45              		.loc 1 17 5 is_stmt 1 view .LVU6
  46              	.LBB2:
  47              		.loc 1 17 10 view .LVU7
  48              	.LVL1:
  49              		.loc 1 17 5 is_stmt 0 view .LVU8
  50 000c 03E0     		b	.L2
  51              	.LVL2:
  52              	.L3:
  18:SYS/memng/mmu.c ****     {
  19:SYS/memng/mmu.c ****         Mem_Buff[i] = 0;
  53              		.loc 1 19 9 is_stmt 1 discriminator 3 view .LVU9
  54              		.loc 1 19 21 is_stmt 0 discriminator 3 view .LVU10
  55 000e 124A     		ldr	r2, .L4+4
  56 0010 0021     		movs	r1, #0
  57 0012 D154     		strb	r1, [r2, r3]
  17:SYS/memng/mmu.c ****     {
  58              		.loc 1 17 44 is_stmt 1 discriminator 3 view .LVU11
  17:SYS/memng/mmu.c ****     {
  59              		.loc 1 17 45 is_stmt 0 discriminator 3 view .LVU12
  60 0014 0133     		adds	r3, r3, #1
  61              	.LVL3:
  62              	.L2:
  17:SYS/memng/mmu.c ****     {
  63              		.loc 1 17 26 is_stmt 1 discriminator 1 view .LVU13
  17:SYS/memng/mmu.c ****     {
  64              		.loc 1 17 5 is_stmt 0 discriminator 1 view .LVU14
  65 0016 B3F5803F 		cmp	r3, #65536
  66 001a F8D3     		bcc	.L3
  67              	.LBE2:
  20:SYS/memng/mmu.c ****     }
  21:SYS/memng/mmu.c **** 
  22:SYS/memng/mmu.c ****     MemStart.nxtFree = (void *)Mem_Buff;
  68              		.loc 1 22 5 is_stmt 1 view .LVU15
  69              		.loc 1 22 22 is_stmt 0 view .LVU16
  70 001c 0F49     		ldr	r1, .L4+8
  71 001e 0E4A     		ldr	r2, .L4+4
  72 0020 0A60     		str	r2, [r1]
  23:SYS/memng/mmu.c ****     MemStart.size = 0;
  73              		.loc 1 23 5 is_stmt 1 view .LVU17
  74              		.loc 1 23 19 is_stmt 0 view .LVU18
  75 0022 0023     		movs	r3, #0
  76              	.LVL4:
  77              		.loc 1 23 19 view .LVU19
  78 0024 8B80     		strh	r3, [r1, #4]	@ movhi
  24:SYS/memng/mmu.c **** 
  25:SYS/memng/mmu.c ****     MemEnd = (void *)(&Mem_Buff[PHY_MEM_SIZE] - sizeof(MemBlock_TypeDef));
  79              		.loc 1 25 5 is_stmt 1 view .LVU20
  80              		.loc 1 25 12 is_stmt 0 view .LVU21
  81 0026 0E49     		ldr	r1, .L4+12
  82 0028 0E48     		ldr	r0, .L4+16
  83 002a 0160     		str	r1, [r0]
  26:SYS/memng/mmu.c ****     MemEnd->nxtFree = NULL;
  84              		.loc 1 26 5 is_stmt 1 view .LVU22
  85              		.loc 1 26 21 is_stmt 0 view .LVU23
ARM GAS  /var/folders/lx/hc4sn_b53233_zkc9xbbl97r0000gp/T//cclO3XUq.s 			page 3


  86 002c 02F57040 		add	r0, r2, #61440
  87 0030 C0F8F83F 		str	r3, [r0, #4088]
  27:SYS/memng/mmu.c ****     MemEnd->size = 0;
  88              		.loc 1 27 5 is_stmt 1 view .LVU24
  89              		.loc 1 27 18 is_stmt 0 view .LVU25
  90 0034 A0F8FC3F 		strh	r3, [r0, #4092]	@ movhi
  28:SYS/memng/mmu.c **** 
  29:SYS/memng/mmu.c ****     Mem_Monitor.total_size = (MemBlock_Addr)MemEnd - (MemBlock_Addr)MemStart.nxtFree;
  91              		.loc 1 29 5 is_stmt 1 view .LVU26
  92              		.loc 1 29 28 is_stmt 0 view .LVU27
  93 0038 064B     		ldr	r3, .L4
  94 003a 4FF6F870 		movw	r0, #65528
  95 003e D860     		str	r0, [r3, #12]
  30:SYS/memng/mmu.c **** 
  31:SYS/memng/mmu.c ****     FstFreeBlock_tmp = MemStart.nxtFree;
  96              		.loc 1 31 5 is_stmt 1 view .LVU28
  97              	.LVL5:
  32:SYS/memng/mmu.c ****     FstFreeBlock_tmp->nxtFree = MemEnd;
  98              		.loc 1 32 5 view .LVU29
  99              		.loc 1 32 31 is_stmt 0 view .LVU30
 100 0040 1160     		str	r1, [r2]
  33:SYS/memng/mmu.c **** 
  34:SYS/memng/mmu.c ****     Mem_Monitor.total_size -= sizeof(MemBlock_TypeDef);
 101              		.loc 1 34 5 is_stmt 1 view .LVU31
 102              		.loc 1 34 28 is_stmt 0 view .LVU32
 103 0042 4FF6F071 		movw	r1, #65520
 104 0046 D960     		str	r1, [r3, #12]
  35:SYS/memng/mmu.c ****     FstFreeBlock_tmp->size = Mem_Monitor.total_size;
 105              		.loc 1 35 5 is_stmt 1 view .LVU33
 106              		.loc 1 35 28 is_stmt 0 view .LVU34
 107 0048 9180     		strh	r1, [r2, #4]	@ movhi
  36:SYS/memng/mmu.c **** 
  37:SYS/memng/mmu.c ****     Mem_Monitor.remain_size = Mem_Monitor.total_size;
 108              		.loc 1 37 5 is_stmt 1 view .LVU35
 109              		.loc 1 37 29 is_stmt 0 view .LVU36
 110 004a 9960     		str	r1, [r3, #8]
  38:SYS/memng/mmu.c **** 
  39:SYS/memng/mmu.c ****     Mem_Monitor.init = true;
 111              		.loc 1 39 5 is_stmt 1 view .LVU37
 112              		.loc 1 39 22 is_stmt 0 view .LVU38
 113 004c 0122     		movs	r2, #1
 114 004e 1A74     		strb	r2, [r3, #16]
  40:SYS/memng/mmu.c **** }
 115              		.loc 1 40 1 view .LVU39
 116 0050 7047     		bx	lr
 117              	.L5:
 118 0052 00BF     		.align	2
 119              	.L4:
 120 0054 00000000 		.word	.LANCHOR0
 121 0058 00000000 		.word	Mem_Buff
 122 005c 00000000 		.word	.LANCHOR1
 123 0060 F8FF0000 		.word	Mem_Buff+65528
 124 0064 00000000 		.word	.LANCHOR2
 125              		.cfi_endproc
 126              	.LFE3:
 128              		.section	.text.MMU_InsertFreeBlock,"ax",%progbits
 129              		.align	1
ARM GAS  /var/folders/lx/hc4sn_b53233_zkc9xbbl97r0000gp/T//cclO3XUq.s 			page 4


 130              		.global	MMU_InsertFreeBlock
 131              		.syntax unified
 132              		.thumb
 133              		.thumb_func
 134              		.fpu fpv4-sp-d16
 136              	MMU_InsertFreeBlock:
 137              	.LVL6:
 138              	.LFB4:
  41:SYS/memng/mmu.c **** 
  42:SYS/memng/mmu.c **** void MMU_InsertFreeBlock(MemBlock_TypeDef *blk)
  43:SYS/memng/mmu.c **** {
 139              		.loc 1 43 1 is_stmt 1 view -0
 140              		.cfi_startproc
 141              		@ args = 0, pretend = 0, frame = 0
 142              		@ frame_needed = 0, uses_anonymous_args = 0
 143              		@ link register save eliminated.
  44:SYS/memng/mmu.c **** }
 144              		.loc 1 44 1 view .LVU41
 145 0000 7047     		bx	lr
 146              		.cfi_endproc
 147              	.LFE4:
 149              		.section	.text.MMU_Molloc,"ax",%progbits
 150              		.align	1
 151              		.global	MMU_Molloc
 152              		.syntax unified
 153              		.thumb
 154              		.thumb_func
 155              		.fpu fpv4-sp-d16
 157              	MMU_Molloc:
 158              	.LVL7:
 159              	.LFB5:
  45:SYS/memng/mmu.c **** 
  46:SYS/memng/mmu.c **** void *MMU_Molloc(uint16_t size)
  47:SYS/memng/mmu.c **** {
 160              		.loc 1 47 1 view -0
 161              		.cfi_startproc
 162              		@ args = 0, pretend = 0, frame = 0
 163              		@ frame_needed = 0, uses_anonymous_args = 0
 164              		.loc 1 47 1 is_stmt 0 view .LVU43
 165 0000 10B5     		push	{r4, lr}
 166              	.LCFI0:
 167              		.cfi_def_cfa_offset 8
 168              		.cfi_offset 4, -8
 169              		.cfi_offset 14, -4
 170 0002 0446     		mov	r4, r0
  48:SYS/memng/mmu.c ****     MemBlock_TypeDef *PrvFreeBlock = NULL;
 171              		.loc 1 48 5 is_stmt 1 view .LVU44
 172              	.LVL8:
  49:SYS/memng/mmu.c ****     MemBlock_TypeDef *NxtFreeBlock = NULL;
 173              		.loc 1 49 5 view .LVU45
  50:SYS/memng/mmu.c ****     MemBlock_TypeDef *Block_Tmp = NULL;
 174              		.loc 1 50 5 view .LVU46
  51:SYS/memng/mmu.c ****     void *mem_addr = NULL;
 175              		.loc 1 51 5 view .LVU47
  52:SYS/memng/mmu.c **** 
  53:SYS/memng/mmu.c ****     if (!Mem_Monitor.init)
 176              		.loc 1 53 5 view .LVU48
ARM GAS  /var/folders/lx/hc4sn_b53233_zkc9xbbl97r0000gp/T//cclO3XUq.s 			page 5


 177              		.loc 1 53 21 is_stmt 0 view .LVU49
 178 0004 184B     		ldr	r3, .L18
 179 0006 1B7C     		ldrb	r3, [r3, #16]	@ zero_extendqisi2
 180              		.loc 1 53 8 view .LVU50
 181 0008 63B1     		cbz	r3, .L17
 182              	.LVL9:
 183              	.L8:
  54:SYS/memng/mmu.c ****     {
  55:SYS/memng/mmu.c ****         MMU_Init();
  56:SYS/memng/mmu.c ****     }
  57:SYS/memng/mmu.c **** 
  58:SYS/memng/mmu.c ****     __asm("cpsid i");
 184              		.loc 1 58 5 is_stmt 1 view .LVU51
 185              		.syntax unified
 186              	@ 58 "SYS/memng/mmu.c" 1
 187 000a 72B6     		cpsid i
 188              	@ 0 "" 2
  59:SYS/memng/mmu.c **** 
  60:SYS/memng/mmu.c ****     if (size <= Mem_Monitor.remain_size)
 189              		.loc 1 60 5 view .LVU52
 190              		.loc 1 60 28 is_stmt 0 view .LVU53
 191              		.thumb
 192              		.syntax unified
 193 000c 164B     		ldr	r3, .L18
 194 000e 9B68     		ldr	r3, [r3, #8]
 195              		.loc 1 60 8 view .LVU54
 196 0010 9C42     		cmp	r4, r3
 197 0012 22D8     		bhi	.L12
  61:SYS/memng/mmu.c ****     {
  62:SYS/memng/mmu.c ****         /* aligment request byte number */
  63:SYS/memng/mmu.c ****         size += (size % BLOCK_ALIGMENT_SIZE);
 198              		.loc 1 63 9 is_stmt 1 view .LVU55
 199              		.loc 1 63 23 is_stmt 0 view .LVU56
 200 0014 04F00701 		and	r1, r4, #7
 201              		.loc 1 63 14 view .LVU57
 202 0018 2144     		add	r1, r1, r4
 203 001a 89B2     		uxth	r1, r1
 204              	.LVL10:
  64:SYS/memng/mmu.c **** 
  65:SYS/memng/mmu.c ****         PrvFreeBlock = &MemStart;
 205              		.loc 1 65 9 is_stmt 1 view .LVU58
  66:SYS/memng/mmu.c ****         Block_Tmp = MemStart.nxtFree;
 206              		.loc 1 66 9 view .LVU59
 207              		.loc 1 66 19 is_stmt 0 view .LVU60
 208 001c 134A     		ldr	r2, .L18+4
 209 001e 1368     		ldr	r3, [r2]
 210              	.LVL11:
  67:SYS/memng/mmu.c ****         while ((Block_Tmp->size < size) && (Block_Tmp->nxtFree != NULL))
 211              		.loc 1 67 9 is_stmt 1 view .LVU61
  65:SYS/memng/mmu.c ****         Block_Tmp = MemStart.nxtFree;
 212              		.loc 1 65 22 is_stmt 0 view .LVU62
 213 0020 9446     		mov	ip, r2
 214              		.loc 1 67 15 view .LVU63
 215 0022 04E0     		b	.L11
 216              	.LVL12:
 217              	.L17:
  55:SYS/memng/mmu.c ****     }
ARM GAS  /var/folders/lx/hc4sn_b53233_zkc9xbbl97r0000gp/T//cclO3XUq.s 			page 6


 218              		.loc 1 55 9 is_stmt 1 view .LVU64
 219 0024 FFF7FEFF 		bl	MMU_Init
 220              	.LVL13:
  55:SYS/memng/mmu.c ****     }
 221              		.loc 1 55 9 is_stmt 0 view .LVU65
 222 0028 EFE7     		b	.L8
 223              	.LVL14:
 224              	.L13:
  68:SYS/memng/mmu.c ****         {
  69:SYS/memng/mmu.c ****             PrvFreeBlock = Block_Tmp;
 225              		.loc 1 69 26 view .LVU66
 226 002a 9C46     		mov	ip, r3
 227              	.LVL15:
  70:SYS/memng/mmu.c ****             Block_Tmp = Block_Tmp->nxtFree;
 228              		.loc 1 70 23 view .LVU67
 229 002c 1346     		mov	r3, r2
 230              	.LVL16:
 231              	.L11:
  67:SYS/memng/mmu.c ****         {
 232              		.loc 1 67 15 is_stmt 1 view .LVU68
  67:SYS/memng/mmu.c ****         {
 233              		.loc 1 67 26 is_stmt 0 view .LVU69
 234 002e 9A88     		ldrh	r2, [r3, #4]
  67:SYS/memng/mmu.c ****         {
 235              		.loc 1 67 15 view .LVU70
 236 0030 8A42     		cmp	r2, r1
 237 0032 02D2     		bcs	.L10
  67:SYS/memng/mmu.c ****         {
 238              		.loc 1 67 54 discriminator 1 view .LVU71
 239 0034 1A68     		ldr	r2, [r3]
  67:SYS/memng/mmu.c ****         {
 240              		.loc 1 67 41 discriminator 1 view .LVU72
 241 0036 002A     		cmp	r2, #0
 242 0038 F7D1     		bne	.L13
 243              	.L10:
  71:SYS/memng/mmu.c ****         }
  72:SYS/memng/mmu.c **** 
  73:SYS/memng/mmu.c ****         if ((Block_Tmp != MemEnd) && (Block_Tmp != NULL))
 244              		.loc 1 73 9 is_stmt 1 view .LVU73
 245              		.loc 1 73 24 is_stmt 0 view .LVU74
 246 003a 0D4A     		ldr	r2, .L18+8
 247 003c 1268     		ldr	r2, [r2]
 248              		.loc 1 73 12 view .LVU75
 249 003e 9A42     		cmp	r2, r3
 250 0040 0DD0     		beq	.L14
 251              		.loc 1 73 35 discriminator 1 view .LVU76
 252 0042 73B1     		cbz	r3, .L15
  74:SYS/memng/mmu.c ****         {
  75:SYS/memng/mmu.c ****             mem_addr = (void *)(((uint8_t *)Block_Tmp->nxtFree) + sizeof(MemBlock_TypeDef));
 253              		.loc 1 75 13 is_stmt 1 view .LVU77
 254              		.loc 1 75 54 is_stmt 0 view .LVU78
 255 0044 1A68     		ldr	r2, [r3]
 256              		.loc 1 75 22 view .LVU79
 257 0046 02F10800 		add	r0, r2, #8
 258              	.LVL17:
  76:SYS/memng/mmu.c ****             PrvFreeBlock->nxtFree = Block_Tmp->nxtFree;
 259              		.loc 1 76 13 is_stmt 1 view .LVU80
ARM GAS  /var/folders/lx/hc4sn_b53233_zkc9xbbl97r0000gp/T//cclO3XUq.s 			page 7


 260              		.loc 1 76 35 is_stmt 0 view .LVU81
 261 004a CCF80020 		str	r2, [ip]
  77:SYS/memng/mmu.c **** 
  78:SYS/memng/mmu.c ****             NxtFreeBlock = (void *)(((uint8_t *)Block_Tmp) + size);
 262              		.loc 1 78 13 is_stmt 1 view .LVU82
 263              		.loc 1 78 26 is_stmt 0 view .LVU83
 264 004e 5A18     		adds	r2, r3, r1
 265              	.LVL18:
  79:SYS/memng/mmu.c ****             NxtFreeBlock->size = Block_Tmp->size - size;
 266              		.loc 1 79 13 is_stmt 1 view .LVU84
 267              		.loc 1 79 43 is_stmt 0 view .LVU85
 268 0050 9B88     		ldrh	r3, [r3, #4]
 269              	.LVL19:
 270              		.loc 1 79 50 view .LVU86
 271 0052 591A     		subs	r1, r3, r1
 272              	.LVL20:
 273              		.loc 1 79 32 view .LVU87
 274 0054 9180     		strh	r1, [r2, #4]	@ movhi
 275              	.LVL21:
 276              	.L9:
  80:SYS/memng/mmu.c ****         }
  81:SYS/memng/mmu.c ****     }
  82:SYS/memng/mmu.c **** 
  83:SYS/memng/mmu.c ****     __asm("cpsie i");
 277              		.loc 1 83 5 is_stmt 1 view .LVU88
 278              		.syntax unified
 279              	@ 83 "SYS/memng/mmu.c" 1
 280 0056 62B6     		cpsie i
 281              	@ 0 "" 2
  84:SYS/memng/mmu.c **** 
  85:SYS/memng/mmu.c ****     return mem_addr;
 282              		.loc 1 85 5 view .LVU89
  86:SYS/memng/mmu.c **** }
 283              		.loc 1 86 1 is_stmt 0 view .LVU90
 284              		.thumb
 285              		.syntax unified
 286 0058 10BD     		pop	{r4, pc}
 287              	.LVL22:
 288              	.L12:
  51:SYS/memng/mmu.c **** 
 289              		.loc 1 51 11 view .LVU91
 290 005a 0020     		movs	r0, #0
 291 005c FBE7     		b	.L9
 292              	.LVL23:
 293              	.L14:
  51:SYS/memng/mmu.c **** 
 294              		.loc 1 51 11 view .LVU92
 295 005e 0020     		movs	r0, #0
 296 0060 F9E7     		b	.L9
 297              	.L15:
 298 0062 1846     		mov	r0, r3
 299 0064 F7E7     		b	.L9
 300              	.L19:
 301 0066 00BF     		.align	2
 302              	.L18:
 303 0068 00000000 		.word	.LANCHOR0
 304 006c 00000000 		.word	.LANCHOR1
ARM GAS  /var/folders/lx/hc4sn_b53233_zkc9xbbl97r0000gp/T//cclO3XUq.s 			page 8


 305 0070 00000000 		.word	.LANCHOR2
 306              		.cfi_endproc
 307              	.LFE5:
 309              		.global	MemEnd
 310              		.global	MemStart
 311              		.global	Mem_Monitor
 312              		.global	Mem_Buff
 313              		.section	.bss.MemEnd,"aw",%nobits
 314              		.align	2
 315              		.set	.LANCHOR2,. + 0
 318              	MemEnd:
 319 0000 00000000 		.space	4
 320              		.section	.bss.MemStart,"aw",%nobits
 321              		.align	2
 322              		.set	.LANCHOR1,. + 0
 325              	MemStart:
 326 0000 00000000 		.space	8
 326      00000000 
 327              		.section	.bss.Mem_Buff,"aw",%nobits
 328              		.align	2
 331              	Mem_Buff:
 332 0000 00000000 		.space	65536
 332      00000000 
 332      00000000 
 332      00000000 
 332      00000000 
 333              		.section	.bss.Mem_Monitor,"aw",%nobits
 334              		.align	2
 335              		.set	.LANCHOR0,. + 0
 338              	Mem_Monitor:
 339 0000 00000000 		.space	20
 339      00000000 
 339      00000000 
 339      00000000 
 339      00000000 
 340              		.text
 341              	.Letext0:
 342              		.file 2 "/usr/local/arm-none-eabi-gcc/gcc-arm-none-eabi-10-2020-q4-major/arm-none-eabi/include/mac
 343              		.file 3 "/usr/local/arm-none-eabi-gcc/gcc-arm-none-eabi-10-2020-q4-major/arm-none-eabi/include/sys
 344              		.file 4 "SYS/memng/mmu.h"
ARM GAS  /var/folders/lx/hc4sn_b53233_zkc9xbbl97r0000gp/T//cclO3XUq.s 			page 9


DEFINED SYMBOLS
                            *ABS*:0000000000000000 mmu.c
/var/folders/lx/hc4sn_b53233_zkc9xbbl97r0000gp/T//cclO3XUq.s:18     .text.MMU_Init:0000000000000000 $t
/var/folders/lx/hc4sn_b53233_zkc9xbbl97r0000gp/T//cclO3XUq.s:26     .text.MMU_Init:0000000000000000 MMU_Init
/var/folders/lx/hc4sn_b53233_zkc9xbbl97r0000gp/T//cclO3XUq.s:120    .text.MMU_Init:0000000000000054 $d
/var/folders/lx/hc4sn_b53233_zkc9xbbl97r0000gp/T//cclO3XUq.s:331    .bss.Mem_Buff:0000000000000000 Mem_Buff
/var/folders/lx/hc4sn_b53233_zkc9xbbl97r0000gp/T//cclO3XUq.s:129    .text.MMU_InsertFreeBlock:0000000000000000 $t
/var/folders/lx/hc4sn_b53233_zkc9xbbl97r0000gp/T//cclO3XUq.s:136    .text.MMU_InsertFreeBlock:0000000000000000 MMU_InsertFreeBlock
/var/folders/lx/hc4sn_b53233_zkc9xbbl97r0000gp/T//cclO3XUq.s:150    .text.MMU_Molloc:0000000000000000 $t
/var/folders/lx/hc4sn_b53233_zkc9xbbl97r0000gp/T//cclO3XUq.s:157    .text.MMU_Molloc:0000000000000000 MMU_Molloc
/var/folders/lx/hc4sn_b53233_zkc9xbbl97r0000gp/T//cclO3XUq.s:303    .text.MMU_Molloc:0000000000000068 $d
/var/folders/lx/hc4sn_b53233_zkc9xbbl97r0000gp/T//cclO3XUq.s:318    .bss.MemEnd:0000000000000000 MemEnd
/var/folders/lx/hc4sn_b53233_zkc9xbbl97r0000gp/T//cclO3XUq.s:325    .bss.MemStart:0000000000000000 MemStart
/var/folders/lx/hc4sn_b53233_zkc9xbbl97r0000gp/T//cclO3XUq.s:338    .bss.Mem_Monitor:0000000000000000 Mem_Monitor
/var/folders/lx/hc4sn_b53233_zkc9xbbl97r0000gp/T//cclO3XUq.s:314    .bss.MemEnd:0000000000000000 $d
/var/folders/lx/hc4sn_b53233_zkc9xbbl97r0000gp/T//cclO3XUq.s:321    .bss.MemStart:0000000000000000 $d
/var/folders/lx/hc4sn_b53233_zkc9xbbl97r0000gp/T//cclO3XUq.s:328    .bss.Mem_Buff:0000000000000000 $d
/var/folders/lx/hc4sn_b53233_zkc9xbbl97r0000gp/T//cclO3XUq.s:334    .bss.Mem_Monitor:0000000000000000 $d

NO UNDEFINED SYMBOLS
