ARM GAS  /var/folders/lx/hc4sn_b53233_zkc9xbbl97r0000gp/T//ccb8UyKX.s 			page 1


   1              		.cpu cortex-m4
   2              		.eabi_attribute 27, 1
   3              		.eabi_attribute 28, 1
   4              		.eabi_attribute 20, 1
   5              		.eabi_attribute 21, 1
   6              		.eabi_attribute 23, 3
   7              		.eabi_attribute 24, 1
   8              		.eabi_attribute 25, 1
   9              		.eabi_attribute 26, 1
  10              		.eabi_attribute 30, 1
  11              		.eabi_attribute 34, 1
  12              		.eabi_attribute 18, 4
  13              		.file	"oled.c"
  14              		.text
  15              	.Ltext0:
  16              		.cfi_sections	.debug_frame
  17              		.section	.text.Oled_TransmitByte,"ax",%progbits
  18              		.align	1
  19              		.arch armv7e-m
  20              		.syntax unified
  21              		.thumb
  22              		.thumb_func
  23              		.fpu fpv4-sp-d16
  25              	Oled_TransmitByte:
  26              	.LVL0:
  27              	.LFB123:
  28              		.file 1 "Dsp/screen/device/oled.c"
   1:Dsp/screen/device/oled.c **** #include "oled.h"
   2:Dsp/screen/device/oled.c **** #include "delay.h"
   3:Dsp/screen/device/oled.c **** 
   4:Dsp/screen/device/oled.c **** static Pixel_Block_TypeDef blackboard[COLUMN_SIZE][OLED_MAX_WIDTH];
   5:Dsp/screen/device/oled.c **** 
   6:Dsp/screen/device/oled.c **** /* const static variable */
   7:Dsp/screen/device/oled.c **** const uint8_t OledEnable_CMD[2] = {0X14, 0XAF};
   8:Dsp/screen/device/oled.c **** const uint8_t OledDisable_CMD[2] = {0X10, 0XAE};
   9:Dsp/screen/device/oled.c **** 
  10:Dsp/screen/device/oled.c **** /* external funtion for app or midware */
  11:Dsp/screen/device/oled.c **** static void Oled_EnableControl(Oled_Obj_TypeDef *Oled_Obj, Oled_Enable_State_List state);
  12:Dsp/screen/device/oled.c **** static bool Oled_Init(Oled_Obj_TypeDef *Oled_Obj);
  13:Dsp/screen/device/oled.c **** static void Oled_Clear(Oled_Obj_TypeDef *Oled_Obj);
  14:Dsp/screen/device/oled.c **** static bool Oled_MapUpdate(Oled_Obj_TypeDef *Oled_Obj, uint8_t **map);
  15:Dsp/screen/device/oled.c **** static uint8_t Oled_GetMax_Width(void);
  16:Dsp/screen/device/oled.c **** static uint8_t Oled_GetMax_Height(void);
  17:Dsp/screen/device/oled.c **** static bool Oled_Refresh(Oled_Obj_TypeDef *Oled_Obj, uint8_t **val);
  18:Dsp/screen/device/oled.c **** 
  19:Dsp/screen/device/oled.c **** /* internal function */
  20:Dsp/screen/device/oled.c **** static void Oled_TransmitByte(Oled_Obj_TypeDef *Oled_Obj, uint8_t data, Oled_Write_Type type);
  21:Dsp/screen/device/oled.c **** 
  22:Dsp/screen/device/oled.c **** Oled_GenProcFunc_TypeDef DrvOled = {
  23:Dsp/screen/device/oled.c **** 	.init = Oled_Init,
  24:Dsp/screen/device/oled.c **** 	.enable_set = Oled_EnableControl,
  25:Dsp/screen/device/oled.c **** 	.fresh = Oled_Refresh,
  26:Dsp/screen/device/oled.c **** 	.clear = Oled_Clear,
  27:Dsp/screen/device/oled.c **** 	.get_max_height = Oled_GetMax_Height,
  28:Dsp/screen/device/oled.c **** 	.get_max_width = Oled_GetMax_Width,
  29:Dsp/screen/device/oled.c **** };
  30:Dsp/screen/device/oled.c **** 
ARM GAS  /var/folders/lx/hc4sn_b53233_zkc9xbbl97r0000gp/T//ccb8UyKX.s 			page 2


  31:Dsp/screen/device/oled.c **** /* device Bsp IO SPI_Bus correspond control Function */
  32:Dsp/screen/device/oled.c **** static void Oled_TransmitByte(Oled_Obj_TypeDef *Oled_Obj, uint8_t data, Oled_Write_Type type)
  33:Dsp/screen/device/oled.c **** {
  29              		.loc 1 33 1 view -0
  30              		.cfi_startproc
  31              		@ args = 0, pretend = 0, frame = 0
  32              		@ frame_needed = 0, uses_anonymous_args = 0
  33              		.loc 1 33 1 is_stmt 0 view .LVU1
  34 0000 38B5     		push	{r3, r4, r5, lr}
  35              	.LCFI0:
  36              		.cfi_def_cfa_offset 16
  37              		.cfi_offset 3, -16
  38              		.cfi_offset 4, -12
  39              		.cfi_offset 5, -8
  40              		.cfi_offset 14, -4
  41 0002 0446     		mov	r4, r0
  42 0004 0D46     		mov	r5, r1
  34:Dsp/screen/device/oled.c **** 	if (type == Oled_Write_CMD)
  43              		.loc 1 34 2 is_stmt 1 view .LVU2
  44              		.loc 1 34 5 is_stmt 0 view .LVU3
  45 0006 4AB9     		cbnz	r2, .L2
  35:Dsp/screen/device/oled.c **** 	{
  36:Dsp/screen/device/oled.c **** 		Oled_Obj->rs_ctl(Oled_RS_Disable);
  46              		.loc 1 36 3 is_stmt 1 view .LVU4
  47              		.loc 1 36 11 is_stmt 0 view .LVU5
  48 0008 0369     		ldr	r3, [r0, #16]
  49              		.loc 1 36 3 view .LVU6
  50 000a 0120     		movs	r0, #1
  51              	.LVL1:
  52              		.loc 1 36 3 view .LVU7
  53 000c 9847     		blx	r3
  54              	.LVL2:
  55              	.L3:
  37:Dsp/screen/device/oled.c **** 	}
  38:Dsp/screen/device/oled.c **** 	else
  39:Dsp/screen/device/oled.c **** 		Oled_Obj->rs_ctl(Oled_RS_Enable);
  40:Dsp/screen/device/oled.c **** 
  41:Dsp/screen/device/oled.c **** 	Oled_Obj->bus_transmit(data);
  56              		.loc 1 41 2 is_stmt 1 view .LVU8
  57              		.loc 1 41 10 is_stmt 0 view .LVU9
  58 000e E369     		ldr	r3, [r4, #28]
  59              		.loc 1 41 2 view .LVU10
  60 0010 2846     		mov	r0, r5
  61 0012 9847     		blx	r3
  62              	.LVL3:
  42:Dsp/screen/device/oled.c **** 
  43:Dsp/screen/device/oled.c **** 	Oled_Obj->rs_ctl(Oled_RS_Disable);
  63              		.loc 1 43 2 is_stmt 1 view .LVU11
  64              		.loc 1 43 10 is_stmt 0 view .LVU12
  65 0014 2369     		ldr	r3, [r4, #16]
  66              		.loc 1 43 2 view .LVU13
  67 0016 0120     		movs	r0, #1
  68 0018 9847     		blx	r3
  69              	.LVL4:
  44:Dsp/screen/device/oled.c **** }
  70              		.loc 1 44 1 view .LVU14
  71 001a 38BD     		pop	{r3, r4, r5, pc}
ARM GAS  /var/folders/lx/hc4sn_b53233_zkc9xbbl97r0000gp/T//ccb8UyKX.s 			page 3


  72              	.LVL5:
  73              	.L2:
  39:Dsp/screen/device/oled.c **** 
  74              		.loc 1 39 3 is_stmt 1 view .LVU15
  39:Dsp/screen/device/oled.c **** 
  75              		.loc 1 39 11 is_stmt 0 view .LVU16
  76 001c 0369     		ldr	r3, [r0, #16]
  39:Dsp/screen/device/oled.c **** 
  77              		.loc 1 39 3 view .LVU17
  78 001e 0020     		movs	r0, #0
  79              	.LVL6:
  39:Dsp/screen/device/oled.c **** 
  80              		.loc 1 39 3 view .LVU18
  81 0020 9847     		blx	r3
  82              	.LVL7:
  39:Dsp/screen/device/oled.c **** 
  83              		.loc 1 39 3 view .LVU19
  84 0022 F4E7     		b	.L3
  85              		.cfi_endproc
  86              	.LFE123:
  88              		.section	.text.Oled_EnableControl,"ax",%progbits
  89              		.align	1
  90              		.syntax unified
  91              		.thumb
  92              		.thumb_func
  93              		.fpu fpv4-sp-d16
  95              	Oled_EnableControl:
  96              	.LVL8:
  97              	.LFB124:
  45:Dsp/screen/device/oled.c **** 
  46:Dsp/screen/device/oled.c **** static void Oled_EnableControl(Oled_Obj_TypeDef *Oled_Obj, Oled_Enable_State_List state)
  47:Dsp/screen/device/oled.c **** {
  98              		.loc 1 47 1 is_stmt 1 view -0
  99              		.cfi_startproc
 100              		@ args = 0, pretend = 0, frame = 0
 101              		@ frame_needed = 0, uses_anonymous_args = 0
 102              		.loc 1 47 1 is_stmt 0 view .LVU21
 103 0000 38B5     		push	{r3, r4, r5, lr}
 104              	.LCFI1:
 105              		.cfi_def_cfa_offset 16
 106              		.cfi_offset 3, -16
 107              		.cfi_offset 4, -12
 108              		.cfi_offset 5, -8
 109              		.cfi_offset 14, -4
 110 0002 0546     		mov	r5, r0
  48:Dsp/screen/device/oled.c **** 	uint8_t *Enb_CMD_Buff;
 111              		.loc 1 48 2 is_stmt 1 view .LVU22
  49:Dsp/screen/device/oled.c **** 	Oled_TransmitByte(Oled_Obj, 0X8D, Oled_Write_CMD);
 112              		.loc 1 49 2 view .LVU23
 113 0004 0022     		movs	r2, #0
 114 0006 8D21     		movs	r1, #141
 115              	.LVL9:
 116              		.loc 1 49 2 is_stmt 0 view .LVU24
 117 0008 FFF7FEFF 		bl	Oled_TransmitByte
 118              	.LVL10:
  50:Dsp/screen/device/oled.c **** 
  51:Dsp/screen/device/oled.c **** 	if (state == Oled_Display_Enable)
ARM GAS  /var/folders/lx/hc4sn_b53233_zkc9xbbl97r0000gp/T//ccb8UyKX.s 			page 4


 119              		.loc 1 51 2 is_stmt 1 view .LVU25
 120              	.LBB2:
  52:Dsp/screen/device/oled.c **** 	{
  53:Dsp/screen/device/oled.c **** 		Enb_CMD_Buff = (uint8_t *)OledEnable_CMD;
  54:Dsp/screen/device/oled.c **** 	}
  55:Dsp/screen/device/oled.c **** 	else
  56:Dsp/screen/device/oled.c **** 		Enb_CMD_Buff = (uint8_t *)OledDisable_CMD;
  57:Dsp/screen/device/oled.c **** 
  58:Dsp/screen/device/oled.c **** 	for (uint8_t i = 0; i < sizeof(OledEnable_CMD); i++)
 121              		.loc 1 58 15 is_stmt 0 view .LVU26
 122 000c 0024     		movs	r4, #0
 123              	.LBE2:
 124 000e 07E0     		b	.L6
 125              	.LVL11:
 126              	.L7:
 127              	.LBB3:
  59:Dsp/screen/device/oled.c **** 	{
  60:Dsp/screen/device/oled.c **** 		Oled_TransmitByte(Oled_Obj, OledEnable_CMD[i], Oled_Write_CMD);
 128              		.loc 1 60 3 is_stmt 1 discriminator 3 view .LVU27
 129 0010 0022     		movs	r2, #0
 130 0012 054B     		ldr	r3, .L9
 131 0014 195D     		ldrb	r1, [r3, r4]	@ zero_extendqisi2
 132 0016 2846     		mov	r0, r5
 133 0018 FFF7FEFF 		bl	Oled_TransmitByte
 134              	.LVL12:
  58:Dsp/screen/device/oled.c **** 	{
 135              		.loc 1 58 50 discriminator 3 view .LVU28
  58:Dsp/screen/device/oled.c **** 	{
 136              		.loc 1 58 51 is_stmt 0 discriminator 3 view .LVU29
 137 001c 0134     		adds	r4, r4, #1
 138              	.LVL13:
  58:Dsp/screen/device/oled.c **** 	{
 139              		.loc 1 58 51 discriminator 3 view .LVU30
 140 001e E4B2     		uxtb	r4, r4
 141              	.LVL14:
 142              	.L6:
  58:Dsp/screen/device/oled.c **** 	{
 143              		.loc 1 58 22 is_stmt 1 discriminator 1 view .LVU31
  58:Dsp/screen/device/oled.c **** 	{
 144              		.loc 1 58 2 is_stmt 0 discriminator 1 view .LVU32
 145 0020 012C     		cmp	r4, #1
 146 0022 F5D9     		bls	.L7
 147              	.LBE3:
  61:Dsp/screen/device/oled.c **** 	}
  62:Dsp/screen/device/oled.c **** }
 148              		.loc 1 62 1 view .LVU33
 149 0024 38BD     		pop	{r3, r4, r5, pc}
 150              	.LVL15:
 151              	.L10:
 152              		.loc 1 62 1 view .LVU34
 153 0026 00BF     		.align	2
 154              	.L9:
 155 0028 00000000 		.word	.LANCHOR0
 156              		.cfi_endproc
 157              	.LFE124:
 159              		.section	.text.Oled_Clear,"ax",%progbits
 160              		.align	1
ARM GAS  /var/folders/lx/hc4sn_b53233_zkc9xbbl97r0000gp/T//ccb8UyKX.s 			page 5


 161              		.syntax unified
 162              		.thumb
 163              		.thumb_func
 164              		.fpu fpv4-sp-d16
 166              	Oled_Clear:
 167              	.LVL16:
 168              	.LFB127:
  63:Dsp/screen/device/oled.c **** 
  64:Dsp/screen/device/oled.c **** static bool Oled_Init(Oled_Obj_TypeDef *Oled_Obj)
  65:Dsp/screen/device/oled.c **** {
  66:Dsp/screen/device/oled.c **** 	Oled_Obj->bus_init(Oled_Obj->BusID);
  67:Dsp/screen/device/oled.c **** 	Oled_Obj->dc_init();
  68:Dsp/screen/device/oled.c **** 	Oled_Obj->rs_init();
  69:Dsp/screen/device/oled.c **** 
  70:Dsp/screen/device/oled.c **** 	Oled_Obj->pixel_map = NULL;
  71:Dsp/screen/device/oled.c **** 
  72:Dsp/screen/device/oled.c **** 	Oled_Obj->rs_ctl(Oled_RS_Disable);
  73:Dsp/screen/device/oled.c **** 	delay_ms(100);
  74:Dsp/screen/device/oled.c **** 	Oled_Obj->rs_ctl(Oled_RS_Enable);
  75:Dsp/screen/device/oled.c **** 
  76:Dsp/screen/device/oled.c **** 	Oled_TransmitByte(Oled_Obj, 0xAE, Oled_Write_CMD);
  77:Dsp/screen/device/oled.c **** 	Oled_TransmitByte(Oled_Obj, 0xD5, Oled_Write_CMD);
  78:Dsp/screen/device/oled.c **** 	Oled_TransmitByte(Oled_Obj, 80, Oled_Write_CMD);
  79:Dsp/screen/device/oled.c **** 	Oled_TransmitByte(Oled_Obj, 0xA8, Oled_Write_CMD);
  80:Dsp/screen/device/oled.c **** 	Oled_TransmitByte(Oled_Obj, 0X3F, Oled_Write_CMD);
  81:Dsp/screen/device/oled.c **** 	Oled_TransmitByte(Oled_Obj, 0xD3, Oled_Write_CMD);
  82:Dsp/screen/device/oled.c **** 	Oled_TransmitByte(Oled_Obj, 0X00, Oled_Write_CMD);
  83:Dsp/screen/device/oled.c **** 
  84:Dsp/screen/device/oled.c **** 	Oled_TransmitByte(Oled_Obj, 0x40, Oled_Write_CMD);
  85:Dsp/screen/device/oled.c **** 
  86:Dsp/screen/device/oled.c **** 	Oled_TransmitByte(Oled_Obj, 0x8D, Oled_Write_CMD);
  87:Dsp/screen/device/oled.c **** 	Oled_TransmitByte(Oled_Obj, 0x14, Oled_Write_CMD);
  88:Dsp/screen/device/oled.c **** 	Oled_TransmitByte(Oled_Obj, 0x14, Oled_Write_CMD);
  89:Dsp/screen/device/oled.c **** 	Oled_TransmitByte(Oled_Obj, 0x20, Oled_Write_CMD);
  90:Dsp/screen/device/oled.c **** 	Oled_TransmitByte(Oled_Obj, 0x02, Oled_Write_CMD);
  91:Dsp/screen/device/oled.c **** 
  92:Dsp/screen/device/oled.c **** 	Oled_TransmitByte(Oled_Obj, 0xA0, Oled_Write_CMD);
  93:Dsp/screen/device/oled.c **** 	Oled_TransmitByte(Oled_Obj, 0xC8, Oled_Write_CMD);
  94:Dsp/screen/device/oled.c **** 
  95:Dsp/screen/device/oled.c **** 	Oled_TransmitByte(Oled_Obj, 0xDA, Oled_Write_CMD);
  96:Dsp/screen/device/oled.c **** 	Oled_TransmitByte(Oled_Obj, 0x12, Oled_Write_CMD);
  97:Dsp/screen/device/oled.c **** 
  98:Dsp/screen/device/oled.c **** 	Oled_TransmitByte(Oled_Obj, 0x81, Oled_Write_CMD);
  99:Dsp/screen/device/oled.c **** 	Oled_TransmitByte(Oled_Obj, 0xEF, Oled_Write_CMD);
 100:Dsp/screen/device/oled.c **** 	Oled_TransmitByte(Oled_Obj, 0xD9, Oled_Write_CMD);
 101:Dsp/screen/device/oled.c **** 	Oled_TransmitByte(Oled_Obj, 0xf1, Oled_Write_CMD);
 102:Dsp/screen/device/oled.c **** 	Oled_TransmitByte(Oled_Obj, 0xDB, Oled_Write_CMD);
 103:Dsp/screen/device/oled.c **** 	Oled_TransmitByte(Oled_Obj, 0x30, Oled_Write_CMD);
 104:Dsp/screen/device/oled.c **** 
 105:Dsp/screen/device/oled.c **** 	Oled_TransmitByte(Oled_Obj, 0xA4, Oled_Write_CMD);
 106:Dsp/screen/device/oled.c **** 	Oled_TransmitByte(Oled_Obj, 0xA6, Oled_Write_CMD);
 107:Dsp/screen/device/oled.c **** 	Oled_TransmitByte(Oled_Obj, 0xAF, Oled_Write_CMD);
 108:Dsp/screen/device/oled.c **** 
 109:Dsp/screen/device/oled.c **** 	Oled_Clear(Oled_Obj);
 110:Dsp/screen/device/oled.c **** }
 111:Dsp/screen/device/oled.c **** 
 112:Dsp/screen/device/oled.c **** static bool Oled_Refresh(Oled_Obj_TypeDef *Oled_Obj, uint8_t **val)
ARM GAS  /var/folders/lx/hc4sn_b53233_zkc9xbbl97r0000gp/T//ccb8UyKX.s 			page 6


 113:Dsp/screen/device/oled.c **** {
 114:Dsp/screen/device/oled.c **** 	//update pixel map
 115:Dsp/screen/device/oled.c **** 	if (!Oled_MapUpdate(Oled_Obj, val))
 116:Dsp/screen/device/oled.c **** 	{
 117:Dsp/screen/device/oled.c **** 		return false;
 118:Dsp/screen/device/oled.c **** 	}
 119:Dsp/screen/device/oled.c **** 
 120:Dsp/screen/device/oled.c **** 	for (uint8_t c = 0; c < OLED_COLUMN_BLOCK_NUM; c++)
 121:Dsp/screen/device/oled.c **** 	{
 122:Dsp/screen/device/oled.c **** 		Oled_TransmitByte(Oled_Obj, (0xb0 + c), Oled_Write_CMD);
 123:Dsp/screen/device/oled.c **** 		Oled_TransmitByte(Oled_Obj, 0x00, Oled_Write_CMD);
 124:Dsp/screen/device/oled.c **** 		Oled_TransmitByte(Oled_Obj, 0x10, Oled_Write_CMD);
 125:Dsp/screen/device/oled.c **** 
 126:Dsp/screen/device/oled.c **** 		//can use spi dma for transmit
 127:Dsp/screen/device/oled.c **** 		for (uint8_t r = 0; r < OLED_MAX_WIDTH; r++)
 128:Dsp/screen/device/oled.c **** 		{
 129:Dsp/screen/device/oled.c **** 			Oled_TransmitByte(Oled_Obj, Oled_Obj->pixel_map[c * OLED_MAX_WIDTH + r].val, Oled_Write_CMD);
 130:Dsp/screen/device/oled.c **** 		}
 131:Dsp/screen/device/oled.c **** 	}
 132:Dsp/screen/device/oled.c **** 
 133:Dsp/screen/device/oled.c **** 	return true;
 134:Dsp/screen/device/oled.c **** }
 135:Dsp/screen/device/oled.c **** 
 136:Dsp/screen/device/oled.c **** static void Oled_Clear(Oled_Obj_TypeDef *Oled_Obj)
 137:Dsp/screen/device/oled.c **** {
 169              		.loc 1 137 1 is_stmt 1 view -0
 170              		.cfi_startproc
 171              		@ args = 0, pretend = 0, frame = 0
 172              		@ frame_needed = 0, uses_anonymous_args = 0
 173              		.loc 1 137 1 is_stmt 0 view .LVU36
 174 0000 70B5     		push	{r4, r5, r6, lr}
 175              	.LCFI2:
 176              		.cfi_def_cfa_offset 16
 177              		.cfi_offset 4, -16
 178              		.cfi_offset 5, -12
 179              		.cfi_offset 6, -8
 180              		.cfi_offset 14, -4
 181 0002 0546     		mov	r5, r0
 138:Dsp/screen/device/oled.c **** 	for (uint8_t c = 0; c < OLED_COLUMN_BLOCK_NUM; c++)
 182              		.loc 1 138 2 is_stmt 1 view .LVU37
 183              	.LBB4:
 184              		.loc 1 138 7 view .LVU38
 185              	.LVL17:
 186              		.loc 1 138 15 is_stmt 0 view .LVU39
 187 0004 0026     		movs	r6, #0
 188              		.loc 1 138 2 view .LVU40
 189 0006 0BE0     		b	.L12
 190              	.LVL18:
 191              	.L14:
 192              	.LBB5:
 139:Dsp/screen/device/oled.c **** 	{
 140:Dsp/screen/device/oled.c **** 		Oled_TransmitByte(Oled_Obj, (0xb0 + c), Oled_Write_CMD);
 141:Dsp/screen/device/oled.c **** 		Oled_TransmitByte(Oled_Obj, 0x00, Oled_Write_CMD);
 142:Dsp/screen/device/oled.c **** 		Oled_TransmitByte(Oled_Obj, 0x10, Oled_Write_CMD);
 143:Dsp/screen/device/oled.c **** 
 144:Dsp/screen/device/oled.c **** 		for (uint8_t r = 0; r < OLED_MAX_WIDTH; r++)
 145:Dsp/screen/device/oled.c **** 		{
ARM GAS  /var/folders/lx/hc4sn_b53233_zkc9xbbl97r0000gp/T//ccb8UyKX.s 			page 7


 146:Dsp/screen/device/oled.c **** 			Oled_TransmitByte(Oled_Obj, 0x00, Oled_Write_CMD);
 193              		.loc 1 146 4 is_stmt 1 discriminator 3 view .LVU41
 194 0008 0022     		movs	r2, #0
 195 000a 1146     		mov	r1, r2
 196 000c 2846     		mov	r0, r5
 197 000e FFF7FEFF 		bl	Oled_TransmitByte
 198              	.LVL19:
 144:Dsp/screen/device/oled.c **** 		{
 199              		.loc 1 144 43 discriminator 3 view .LVU42
 144:Dsp/screen/device/oled.c **** 		{
 200              		.loc 1 144 44 is_stmt 0 discriminator 3 view .LVU43
 201 0012 0134     		adds	r4, r4, #1
 202              	.LVL20:
 144:Dsp/screen/device/oled.c **** 		{
 203              		.loc 1 144 44 discriminator 3 view .LVU44
 204 0014 E4B2     		uxtb	r4, r4
 205              	.LVL21:
 206              	.L13:
 144:Dsp/screen/device/oled.c **** 		{
 207              		.loc 1 144 23 is_stmt 1 discriminator 1 view .LVU45
 144:Dsp/screen/device/oled.c **** 		{
 208              		.loc 1 144 3 is_stmt 0 discriminator 1 view .LVU46
 209 0016 14F0800F 		tst	r4, #128
 210 001a F5D0     		beq	.L14
 211              	.LBE5:
 138:Dsp/screen/device/oled.c **** 	for (uint8_t c = 0; c < OLED_COLUMN_BLOCK_NUM; c++)
 212              		.loc 1 138 49 is_stmt 1 discriminator 2 view .LVU47
 138:Dsp/screen/device/oled.c **** 	for (uint8_t c = 0; c < OLED_COLUMN_BLOCK_NUM; c++)
 213              		.loc 1 138 50 is_stmt 0 discriminator 2 view .LVU48
 214 001c 0136     		adds	r6, r6, #1
 215              	.LVL22:
 138:Dsp/screen/device/oled.c **** 	for (uint8_t c = 0; c < OLED_COLUMN_BLOCK_NUM; c++)
 216              		.loc 1 138 50 discriminator 2 view .LVU49
 217 001e F6B2     		uxtb	r6, r6
 218              	.LVL23:
 219              	.L12:
 138:Dsp/screen/device/oled.c **** 	for (uint8_t c = 0; c < OLED_COLUMN_BLOCK_NUM; c++)
 220              		.loc 1 138 22 is_stmt 1 discriminator 1 view .LVU50
 138:Dsp/screen/device/oled.c **** 	for (uint8_t c = 0; c < OLED_COLUMN_BLOCK_NUM; c++)
 221              		.loc 1 138 2 is_stmt 0 discriminator 1 view .LVU51
 222 0020 072E     		cmp	r6, #7
 223 0022 12D8     		bhi	.L17
 140:Dsp/screen/device/oled.c **** 		Oled_TransmitByte(Oled_Obj, 0x00, Oled_Write_CMD);
 224              		.loc 1 140 3 is_stmt 1 view .LVU52
 225 0024 A6F15001 		sub	r1, r6, #80
 226 0028 0022     		movs	r2, #0
 227 002a C9B2     		uxtb	r1, r1
 228 002c 2846     		mov	r0, r5
 229 002e FFF7FEFF 		bl	Oled_TransmitByte
 230              	.LVL24:
 141:Dsp/screen/device/oled.c **** 		Oled_TransmitByte(Oled_Obj, 0x10, Oled_Write_CMD);
 231              		.loc 1 141 3 view .LVU53
 232 0032 0022     		movs	r2, #0
 233 0034 1146     		mov	r1, r2
 234 0036 2846     		mov	r0, r5
 235 0038 FFF7FEFF 		bl	Oled_TransmitByte
 236              	.LVL25:
ARM GAS  /var/folders/lx/hc4sn_b53233_zkc9xbbl97r0000gp/T//ccb8UyKX.s 			page 8


 142:Dsp/screen/device/oled.c **** 
 237              		.loc 1 142 3 view .LVU54
 238 003c 0022     		movs	r2, #0
 239 003e 1021     		movs	r1, #16
 240 0040 2846     		mov	r0, r5
 241 0042 FFF7FEFF 		bl	Oled_TransmitByte
 242              	.LVL26:
 144:Dsp/screen/device/oled.c **** 		{
 243              		.loc 1 144 3 view .LVU55
 244              	.LBB6:
 144:Dsp/screen/device/oled.c **** 		{
 245              		.loc 1 144 8 view .LVU56
 144:Dsp/screen/device/oled.c **** 		{
 246              		.loc 1 144 16 is_stmt 0 view .LVU57
 247 0046 0024     		movs	r4, #0
 144:Dsp/screen/device/oled.c **** 		{
 248              		.loc 1 144 3 view .LVU58
 249 0048 E5E7     		b	.L13
 250              	.LVL27:
 251              	.L17:
 144:Dsp/screen/device/oled.c **** 		{
 252              		.loc 1 144 3 view .LVU59
 253              	.LBE6:
 254              	.LBE4:
 147:Dsp/screen/device/oled.c **** 		}
 148:Dsp/screen/device/oled.c **** 	}
 149:Dsp/screen/device/oled.c **** }
 255              		.loc 1 149 1 view .LVU60
 256 004a 70BD     		pop	{r4, r5, r6, pc}
 257              		.loc 1 149 1 view .LVU61
 258              		.cfi_endproc
 259              	.LFE127:
 261              		.section	.text.Oled_GetMax_Width,"ax",%progbits
 262              		.align	1
 263              		.syntax unified
 264              		.thumb
 265              		.thumb_func
 266              		.fpu fpv4-sp-d16
 268              	Oled_GetMax_Width:
 269              	.LFB128:
 150:Dsp/screen/device/oled.c **** 
 151:Dsp/screen/device/oled.c **** static uint8_t Oled_GetMax_Width(void)
 152:Dsp/screen/device/oled.c **** {
 270              		.loc 1 152 1 is_stmt 1 view -0
 271              		.cfi_startproc
 272              		@ args = 0, pretend = 0, frame = 0
 273              		@ frame_needed = 0, uses_anonymous_args = 0
 274              		@ link register save eliminated.
 153:Dsp/screen/device/oled.c **** 	return OLED_MAX_WIDTH;
 275              		.loc 1 153 2 view .LVU63
 154:Dsp/screen/device/oled.c **** }
 276              		.loc 1 154 1 is_stmt 0 view .LVU64
 277 0000 8020     		movs	r0, #128
 278 0002 7047     		bx	lr
 279              		.cfi_endproc
 280              	.LFE128:
 282              		.section	.text.Oled_GetMax_Height,"ax",%progbits
ARM GAS  /var/folders/lx/hc4sn_b53233_zkc9xbbl97r0000gp/T//ccb8UyKX.s 			page 9


 283              		.align	1
 284              		.syntax unified
 285              		.thumb
 286              		.thumb_func
 287              		.fpu fpv4-sp-d16
 289              	Oled_GetMax_Height:
 290              	.LFB129:
 155:Dsp/screen/device/oled.c **** 
 156:Dsp/screen/device/oled.c **** static uint8_t Oled_GetMax_Height(void)
 157:Dsp/screen/device/oled.c **** {
 291              		.loc 1 157 1 is_stmt 1 view -0
 292              		.cfi_startproc
 293              		@ args = 0, pretend = 0, frame = 0
 294              		@ frame_needed = 0, uses_anonymous_args = 0
 295              		@ link register save eliminated.
 158:Dsp/screen/device/oled.c **** 	return OLED_MAX_HEIGHT;
 296              		.loc 1 158 2 view .LVU66
 159:Dsp/screen/device/oled.c **** }
 297              		.loc 1 159 1 is_stmt 0 view .LVU67
 298 0000 4020     		movs	r0, #64
 299 0002 7047     		bx	lr
 300              		.cfi_endproc
 301              	.LFE129:
 303              		.section	.text.Oled_MapUpdate,"ax",%progbits
 304              		.align	1
 305              		.syntax unified
 306              		.thumb
 307              		.thumb_func
 308              		.fpu fpv4-sp-d16
 310              	Oled_MapUpdate:
 311              	.LVL28:
 312              	.LFB130:
 160:Dsp/screen/device/oled.c **** 
 161:Dsp/screen/device/oled.c **** static bool Oled_MapUpdate(Oled_Obj_TypeDef *Oled_Obj, uint8_t **map)
 162:Dsp/screen/device/oled.c **** {
 313              		.loc 1 162 1 is_stmt 1 view -0
 314              		.cfi_startproc
 315              		@ args = 0, pretend = 0, frame = 0
 316              		@ frame_needed = 0, uses_anonymous_args = 0
 163:Dsp/screen/device/oled.c **** 	if ((Oled_Obj == NULL) || (map == NULL))
 317              		.loc 1 163 2 view .LVU69
 318              		.loc 1 163 5 is_stmt 0 view .LVU70
 319 0000 30B3     		cbz	r0, .L25
 162:Dsp/screen/device/oled.c **** 	if ((Oled_Obj == NULL) || (map == NULL))
 320              		.loc 1 162 1 discriminator 1 view .LVU71
 321 0002 10B5     		push	{r4, lr}
 322              	.LCFI3:
 323              		.cfi_def_cfa_offset 8
 324              		.cfi_offset 4, -8
 325              		.cfi_offset 14, -4
 326 0004 0C46     		mov	r4, r1
 327              		.loc 1 163 25 discriminator 1 view .LVU72
 328 0006 29B3     		cbz	r1, .L26
 329              	.LBB7:
 164:Dsp/screen/device/oled.c **** 		return false;
 165:Dsp/screen/device/oled.c **** 
 166:Dsp/screen/device/oled.c **** 	for (uint8_t row_index = 0; row_index < OLED_MAX_WIDTH; row_index++)
ARM GAS  /var/folders/lx/hc4sn_b53233_zkc9xbbl97r0000gp/T//ccb8UyKX.s 			page 10


 330              		.loc 1 166 15 view .LVU73
 331 0008 4FF0000C 		mov	ip, #0
 332 000c 19E0     		b	.L22
 333              	.LVL29:
 334              	.L23:
 335              	.LBB8:
 167:Dsp/screen/device/oled.c **** 	{
 168:Dsp/screen/device/oled.c **** 		for (uint8_t column_index = 0; column_index < OLED_MAX_HEIGHT; column_index++)
 169:Dsp/screen/device/oled.c **** 		{
 170:Dsp/screen/device/oled.c **** 			blackboard[column_index / COLUMN_SIZE][row_index].val |= map[column_index][row_index] << (column
 336              		.loc 1 170 4 is_stmt 1 discriminator 3 view .LVU74
 337              		.loc 1 170 58 is_stmt 0 discriminator 3 view .LVU75
 338 000e 4FEAD30E 		lsr	lr, r3, #3
 339              		.loc 1 170 64 discriminator 3 view .LVU76
 340 0012 54F82320 		ldr	r2, [r4, r3, lsl #2]
 341              		.loc 1 170 78 discriminator 3 view .LVU77
 342 0016 12F80C10 		ldrb	r1, [r2, ip]	@ zero_extendqisi2
 343              		.loc 1 170 107 discriminator 3 view .LVU78
 344 001a 03F00700 		and	r0, r3, #7
 345              		.loc 1 170 90 discriminator 3 view .LVU79
 346 001e 01FA00F0 		lsl	r0, r1, r0
 347              		.loc 1 170 58 discriminator 3 view .LVU80
 348 0022 0D4A     		ldr	r2, .L33
 349 0024 02EBCE12 		add	r2, r2, lr, lsl #7
 350 0028 12F80C10 		ldrb	r1, [r2, ip]	@ zero_extendqisi2
 351 002c 0143     		orrs	r1, r1, r0
 352 002e 02F80C10 		strb	r1, [r2, ip]
 168:Dsp/screen/device/oled.c **** 		{
 353              		.loc 1 168 66 is_stmt 1 discriminator 3 view .LVU81
 168:Dsp/screen/device/oled.c **** 		{
 354              		.loc 1 168 78 is_stmt 0 discriminator 3 view .LVU82
 355 0032 0133     		adds	r3, r3, #1
 356              	.LVL30:
 168:Dsp/screen/device/oled.c **** 		{
 357              		.loc 1 168 78 discriminator 3 view .LVU83
 358 0034 DBB2     		uxtb	r3, r3
 359              	.LVL31:
 360              	.L24:
 168:Dsp/screen/device/oled.c **** 		{
 361              		.loc 1 168 34 is_stmt 1 discriminator 1 view .LVU84
 168:Dsp/screen/device/oled.c **** 		{
 362              		.loc 1 168 3 is_stmt 0 discriminator 1 view .LVU85
 363 0036 3F2B     		cmp	r3, #63
 364 0038 E9D9     		bls	.L23
 365              	.LBE8:
 166:Dsp/screen/device/oled.c **** 	{
 366              		.loc 1 166 58 is_stmt 1 discriminator 2 view .LVU86
 166:Dsp/screen/device/oled.c **** 	{
 367              		.loc 1 166 67 is_stmt 0 discriminator 2 view .LVU87
 368 003a 0CF1010C 		add	ip, ip, #1
 369              	.LVL32:
 166:Dsp/screen/device/oled.c **** 	{
 370              		.loc 1 166 67 discriminator 2 view .LVU88
 371 003e 5FFA8CFC 		uxtb	ip, ip
 372              	.LVL33:
 373              	.L22:
 166:Dsp/screen/device/oled.c **** 	{
ARM GAS  /var/folders/lx/hc4sn_b53233_zkc9xbbl97r0000gp/T//ccb8UyKX.s 			page 11


 374              		.loc 1 166 30 is_stmt 1 discriminator 1 view .LVU89
 166:Dsp/screen/device/oled.c **** 	{
 375              		.loc 1 166 2 is_stmt 0 discriminator 1 view .LVU90
 376 0042 1CF0800F 		tst	ip, #128
 377 0046 01D1     		bne	.L32
 378              	.LBB9:
 168:Dsp/screen/device/oled.c **** 		{
 379              		.loc 1 168 16 view .LVU91
 380 0048 0023     		movs	r3, #0
 381 004a F4E7     		b	.L24
 382              	.L32:
 383              	.LBE9:
 384              	.LBE7:
 171:Dsp/screen/device/oled.c **** 		}
 172:Dsp/screen/device/oled.c **** 	}
 173:Dsp/screen/device/oled.c **** 	return true;
 385              		.loc 1 173 9 view .LVU92
 386 004c 0120     		movs	r0, #1
 387              	.LVL34:
 388              	.L21:
 174:Dsp/screen/device/oled.c **** }
 389              		.loc 1 174 1 view .LVU93
 390 004e 10BD     		pop	{r4, pc}
 391              	.LVL35:
 392              	.L25:
 393              	.LCFI4:
 394              		.cfi_def_cfa_offset 0
 395              		.cfi_restore 4
 396              		.cfi_restore 14
 164:Dsp/screen/device/oled.c **** 
 397              		.loc 1 164 10 view .LVU94
 398 0050 0020     		movs	r0, #0
 399              	.LVL36:
 400              		.loc 1 174 1 view .LVU95
 401 0052 7047     		bx	lr
 402              	.LVL37:
 403              	.L26:
 404              	.LCFI5:
 405              		.cfi_def_cfa_offset 8
 406              		.cfi_offset 4, -8
 407              		.cfi_offset 14, -4
 164:Dsp/screen/device/oled.c **** 
 408              		.loc 1 164 10 view .LVU96
 409 0054 0020     		movs	r0, #0
 410              	.LVL38:
 164:Dsp/screen/device/oled.c **** 
 411              		.loc 1 164 10 view .LVU97
 412 0056 FAE7     		b	.L21
 413              	.L34:
 414              		.align	2
 415              	.L33:
 416 0058 00000000 		.word	.LANCHOR1
 417              		.cfi_endproc
 418              	.LFE130:
 420              		.section	.text.Oled_Refresh,"ax",%progbits
 421              		.align	1
 422              		.syntax unified
ARM GAS  /var/folders/lx/hc4sn_b53233_zkc9xbbl97r0000gp/T//ccb8UyKX.s 			page 12


 423              		.thumb
 424              		.thumb_func
 425              		.fpu fpv4-sp-d16
 427              	Oled_Refresh:
 428              	.LVL39:
 429              	.LFB126:
 113:Dsp/screen/device/oled.c **** 	//update pixel map
 430              		.loc 1 113 1 is_stmt 1 view -0
 431              		.cfi_startproc
 432              		@ args = 0, pretend = 0, frame = 0
 433              		@ frame_needed = 0, uses_anonymous_args = 0
 113:Dsp/screen/device/oled.c **** 	//update pixel map
 434              		.loc 1 113 1 is_stmt 0 view .LVU99
 435 0000 F8B5     		push	{r3, r4, r5, r6, r7, lr}
 436              	.LCFI6:
 437              		.cfi_def_cfa_offset 24
 438              		.cfi_offset 3, -24
 439              		.cfi_offset 4, -20
 440              		.cfi_offset 5, -16
 441              		.cfi_offset 6, -12
 442              		.cfi_offset 7, -8
 443              		.cfi_offset 14, -4
 444 0002 0546     		mov	r5, r0
 115:Dsp/screen/device/oled.c **** 	{
 445              		.loc 1 115 2 is_stmt 1 view .LVU100
 115:Dsp/screen/device/oled.c **** 	{
 446              		.loc 1 115 7 is_stmt 0 view .LVU101
 447 0004 FFF7FEFF 		bl	Oled_MapUpdate
 448              	.LVL40:
 115:Dsp/screen/device/oled.c **** 	{
 449              		.loc 1 115 5 view .LVU102
 450 0008 0746     		mov	r7, r0
 451 000a 28B3     		cbz	r0, .L37
 452              	.LBB10:
 120:Dsp/screen/device/oled.c **** 	{
 453              		.loc 1 120 15 view .LVU103
 454 000c 0026     		movs	r6, #0
 455 000e 0EE0     		b	.L36
 456              	.LVL41:
 457              	.L39:
 458              	.LBB11:
 129:Dsp/screen/device/oled.c **** 		}
 459              		.loc 1 129 4 is_stmt 1 discriminator 3 view .LVU104
 129:Dsp/screen/device/oled.c **** 		}
 460              		.loc 1 129 40 is_stmt 0 discriminator 3 view .LVU105
 461 0010 6968     		ldr	r1, [r5, #4]
 129:Dsp/screen/device/oled.c **** 		}
 462              		.loc 1 129 71 discriminator 3 view .LVU106
 463 0012 04EBC613 		add	r3, r4, r6, lsl #7
 129:Dsp/screen/device/oled.c **** 		}
 464              		.loc 1 129 4 discriminator 3 view .LVU107
 465 0016 0022     		movs	r2, #0
 466 0018 C95C     		ldrb	r1, [r1, r3]	@ zero_extendqisi2
 467 001a 2846     		mov	r0, r5
 468 001c FFF7FEFF 		bl	Oled_TransmitByte
 469              	.LVL42:
 127:Dsp/screen/device/oled.c **** 		{
ARM GAS  /var/folders/lx/hc4sn_b53233_zkc9xbbl97r0000gp/T//ccb8UyKX.s 			page 13


 470              		.loc 1 127 43 is_stmt 1 discriminator 3 view .LVU108
 127:Dsp/screen/device/oled.c **** 		{
 471              		.loc 1 127 44 is_stmt 0 discriminator 3 view .LVU109
 472 0020 0134     		adds	r4, r4, #1
 473              	.LVL43:
 127:Dsp/screen/device/oled.c **** 		{
 474              		.loc 1 127 44 discriminator 3 view .LVU110
 475 0022 E4B2     		uxtb	r4, r4
 476              	.LVL44:
 477              	.L38:
 127:Dsp/screen/device/oled.c **** 		{
 478              		.loc 1 127 23 is_stmt 1 discriminator 1 view .LVU111
 127:Dsp/screen/device/oled.c **** 		{
 479              		.loc 1 127 3 is_stmt 0 discriminator 1 view .LVU112
 480 0024 14F0800F 		tst	r4, #128
 481 0028 F2D0     		beq	.L39
 482              	.LBE11:
 120:Dsp/screen/device/oled.c **** 	{
 483              		.loc 1 120 49 is_stmt 1 discriminator 2 view .LVU113
 120:Dsp/screen/device/oled.c **** 	{
 484              		.loc 1 120 50 is_stmt 0 discriminator 2 view .LVU114
 485 002a 0136     		adds	r6, r6, #1
 486              	.LVL45:
 120:Dsp/screen/device/oled.c **** 	{
 487              		.loc 1 120 50 discriminator 2 view .LVU115
 488 002c F6B2     		uxtb	r6, r6
 489              	.LVL46:
 490              	.L36:
 120:Dsp/screen/device/oled.c **** 	{
 491              		.loc 1 120 22 is_stmt 1 discriminator 1 view .LVU116
 120:Dsp/screen/device/oled.c **** 	{
 492              		.loc 1 120 2 is_stmt 0 discriminator 1 view .LVU117
 493 002e 072E     		cmp	r6, #7
 494 0030 12D8     		bhi	.L37
 122:Dsp/screen/device/oled.c **** 		Oled_TransmitByte(Oled_Obj, 0x00, Oled_Write_CMD);
 495              		.loc 1 122 3 is_stmt 1 view .LVU118
 496 0032 A6F15001 		sub	r1, r6, #80
 497 0036 0022     		movs	r2, #0
 498 0038 C9B2     		uxtb	r1, r1
 499 003a 2846     		mov	r0, r5
 500 003c FFF7FEFF 		bl	Oled_TransmitByte
 501              	.LVL47:
 123:Dsp/screen/device/oled.c **** 		Oled_TransmitByte(Oled_Obj, 0x10, Oled_Write_CMD);
 502              		.loc 1 123 3 view .LVU119
 503 0040 0022     		movs	r2, #0
 504 0042 1146     		mov	r1, r2
 505 0044 2846     		mov	r0, r5
 506 0046 FFF7FEFF 		bl	Oled_TransmitByte
 507              	.LVL48:
 124:Dsp/screen/device/oled.c **** 
 508              		.loc 1 124 3 view .LVU120
 509 004a 0022     		movs	r2, #0
 510 004c 1021     		movs	r1, #16
 511 004e 2846     		mov	r0, r5
 512 0050 FFF7FEFF 		bl	Oled_TransmitByte
 513              	.LVL49:
 127:Dsp/screen/device/oled.c **** 		{
ARM GAS  /var/folders/lx/hc4sn_b53233_zkc9xbbl97r0000gp/T//ccb8UyKX.s 			page 14


 514              		.loc 1 127 3 view .LVU121
 515              	.LBB12:
 127:Dsp/screen/device/oled.c **** 		{
 516              		.loc 1 127 8 view .LVU122
 127:Dsp/screen/device/oled.c **** 		{
 517              		.loc 1 127 16 is_stmt 0 view .LVU123
 518 0054 0024     		movs	r4, #0
 127:Dsp/screen/device/oled.c **** 		{
 519              		.loc 1 127 3 view .LVU124
 520 0056 E5E7     		b	.L38
 521              	.LVL50:
 522              	.L37:
 127:Dsp/screen/device/oled.c **** 		{
 523              		.loc 1 127 3 view .LVU125
 524              	.LBE12:
 525              	.LBE10:
 134:Dsp/screen/device/oled.c **** 
 526              		.loc 1 134 1 view .LVU126
 527 0058 3846     		mov	r0, r7
 528 005a F8BD     		pop	{r3, r4, r5, r6, r7, pc}
 134:Dsp/screen/device/oled.c **** 
 529              		.loc 1 134 1 view .LVU127
 530              		.cfi_endproc
 531              	.LFE126:
 533              		.section	.text.Oled_Init,"ax",%progbits
 534              		.align	1
 535              		.syntax unified
 536              		.thumb
 537              		.thumb_func
 538              		.fpu fpv4-sp-d16
 540              	Oled_Init:
 541              	.LVL51:
 542              	.LFB125:
  65:Dsp/screen/device/oled.c **** 	Oled_Obj->bus_init(Oled_Obj->BusID);
 543              		.loc 1 65 1 is_stmt 1 view -0
 544              		.cfi_startproc
 545              		@ args = 0, pretend = 0, frame = 0
 546              		@ frame_needed = 0, uses_anonymous_args = 0
  65:Dsp/screen/device/oled.c **** 	Oled_Obj->bus_init(Oled_Obj->BusID);
 547              		.loc 1 65 1 is_stmt 0 view .LVU129
 548 0000 38B5     		push	{r3, r4, r5, lr}
 549              	.LCFI7:
 550              		.cfi_def_cfa_offset 16
 551              		.cfi_offset 3, -16
 552              		.cfi_offset 4, -12
 553              		.cfi_offset 5, -8
 554              		.cfi_offset 14, -4
 555 0002 0446     		mov	r4, r0
  66:Dsp/screen/device/oled.c **** 	Oled_Obj->dc_init();
 556              		.loc 1 66 2 is_stmt 1 view .LVU130
  66:Dsp/screen/device/oled.c **** 	Oled_Obj->dc_init();
 557              		.loc 1 66 10 is_stmt 0 view .LVU131
 558 0004 8369     		ldr	r3, [r0, #24]
  66:Dsp/screen/device/oled.c **** 	Oled_Obj->dc_init();
 559              		.loc 1 66 2 view .LVU132
 560 0006 4078     		ldrb	r0, [r0, #1]	@ zero_extendqisi2
 561              	.LVL52:
ARM GAS  /var/folders/lx/hc4sn_b53233_zkc9xbbl97r0000gp/T//ccb8UyKX.s 			page 15


  66:Dsp/screen/device/oled.c **** 	Oled_Obj->dc_init();
 562              		.loc 1 66 2 view .LVU133
 563 0008 9847     		blx	r3
 564              	.LVL53:
  67:Dsp/screen/device/oled.c **** 	Oled_Obj->rs_init();
 565              		.loc 1 67 2 is_stmt 1 view .LVU134
  67:Dsp/screen/device/oled.c **** 	Oled_Obj->rs_init();
 566              		.loc 1 67 10 is_stmt 0 view .LVU135
 567 000a E368     		ldr	r3, [r4, #12]
  67:Dsp/screen/device/oled.c **** 	Oled_Obj->rs_init();
 568              		.loc 1 67 2 view .LVU136
 569 000c 9847     		blx	r3
 570              	.LVL54:
  68:Dsp/screen/device/oled.c **** 
 571              		.loc 1 68 2 is_stmt 1 view .LVU137
  68:Dsp/screen/device/oled.c **** 
 572              		.loc 1 68 10 is_stmt 0 view .LVU138
 573 000e A368     		ldr	r3, [r4, #8]
  68:Dsp/screen/device/oled.c **** 
 574              		.loc 1 68 2 view .LVU139
 575 0010 9847     		blx	r3
 576              	.LVL55:
  70:Dsp/screen/device/oled.c **** 
 577              		.loc 1 70 2 is_stmt 1 view .LVU140
  70:Dsp/screen/device/oled.c **** 
 578              		.loc 1 70 22 is_stmt 0 view .LVU141
 579 0012 0025     		movs	r5, #0
 580 0014 6560     		str	r5, [r4, #4]
  72:Dsp/screen/device/oled.c **** 	delay_ms(100);
 581              		.loc 1 72 2 is_stmt 1 view .LVU142
  72:Dsp/screen/device/oled.c **** 	delay_ms(100);
 582              		.loc 1 72 10 is_stmt 0 view .LVU143
 583 0016 2369     		ldr	r3, [r4, #16]
  72:Dsp/screen/device/oled.c **** 	delay_ms(100);
 584              		.loc 1 72 2 view .LVU144
 585 0018 0120     		movs	r0, #1
 586 001a 9847     		blx	r3
 587              	.LVL56:
  73:Dsp/screen/device/oled.c **** 	Oled_Obj->rs_ctl(Oled_RS_Enable);
 588              		.loc 1 73 2 is_stmt 1 view .LVU145
 589 001c 6420     		movs	r0, #100
 590 001e FFF7FEFF 		bl	delay_ms
 591              	.LVL57:
  74:Dsp/screen/device/oled.c **** 
 592              		.loc 1 74 2 view .LVU146
  74:Dsp/screen/device/oled.c **** 
 593              		.loc 1 74 10 is_stmt 0 view .LVU147
 594 0022 2369     		ldr	r3, [r4, #16]
  74:Dsp/screen/device/oled.c **** 
 595              		.loc 1 74 2 view .LVU148
 596 0024 2846     		mov	r0, r5
 597 0026 9847     		blx	r3
 598              	.LVL58:
  76:Dsp/screen/device/oled.c **** 	Oled_TransmitByte(Oled_Obj, 0xD5, Oled_Write_CMD);
 599              		.loc 1 76 2 is_stmt 1 view .LVU149
 600 0028 2A46     		mov	r2, r5
 601 002a AE21     		movs	r1, #174
ARM GAS  /var/folders/lx/hc4sn_b53233_zkc9xbbl97r0000gp/T//ccb8UyKX.s 			page 16


 602 002c 2046     		mov	r0, r4
 603 002e FFF7FEFF 		bl	Oled_TransmitByte
 604              	.LVL59:
  77:Dsp/screen/device/oled.c **** 	Oled_TransmitByte(Oled_Obj, 80, Oled_Write_CMD);
 605              		.loc 1 77 2 view .LVU150
 606 0032 2A46     		mov	r2, r5
 607 0034 D521     		movs	r1, #213
 608 0036 2046     		mov	r0, r4
 609 0038 FFF7FEFF 		bl	Oled_TransmitByte
 610              	.LVL60:
  78:Dsp/screen/device/oled.c **** 	Oled_TransmitByte(Oled_Obj, 0xA8, Oled_Write_CMD);
 611              		.loc 1 78 2 view .LVU151
 612 003c 2A46     		mov	r2, r5
 613 003e 5021     		movs	r1, #80
 614 0040 2046     		mov	r0, r4
 615 0042 FFF7FEFF 		bl	Oled_TransmitByte
 616              	.LVL61:
  79:Dsp/screen/device/oled.c **** 	Oled_TransmitByte(Oled_Obj, 0X3F, Oled_Write_CMD);
 617              		.loc 1 79 2 view .LVU152
 618 0046 2A46     		mov	r2, r5
 619 0048 A821     		movs	r1, #168
 620 004a 2046     		mov	r0, r4
 621 004c FFF7FEFF 		bl	Oled_TransmitByte
 622              	.LVL62:
  80:Dsp/screen/device/oled.c **** 	Oled_TransmitByte(Oled_Obj, 0xD3, Oled_Write_CMD);
 623              		.loc 1 80 2 view .LVU153
 624 0050 2A46     		mov	r2, r5
 625 0052 3F21     		movs	r1, #63
 626 0054 2046     		mov	r0, r4
 627 0056 FFF7FEFF 		bl	Oled_TransmitByte
 628              	.LVL63:
  81:Dsp/screen/device/oled.c **** 	Oled_TransmitByte(Oled_Obj, 0X00, Oled_Write_CMD);
 629              		.loc 1 81 2 view .LVU154
 630 005a 2A46     		mov	r2, r5
 631 005c D321     		movs	r1, #211
 632 005e 2046     		mov	r0, r4
 633 0060 FFF7FEFF 		bl	Oled_TransmitByte
 634              	.LVL64:
  82:Dsp/screen/device/oled.c **** 
 635              		.loc 1 82 2 view .LVU155
 636 0064 2A46     		mov	r2, r5
 637 0066 2946     		mov	r1, r5
 638 0068 2046     		mov	r0, r4
 639 006a FFF7FEFF 		bl	Oled_TransmitByte
 640              	.LVL65:
  84:Dsp/screen/device/oled.c **** 
 641              		.loc 1 84 2 view .LVU156
 642 006e 2A46     		mov	r2, r5
 643 0070 4021     		movs	r1, #64
 644 0072 2046     		mov	r0, r4
 645 0074 FFF7FEFF 		bl	Oled_TransmitByte
 646              	.LVL66:
  86:Dsp/screen/device/oled.c **** 	Oled_TransmitByte(Oled_Obj, 0x14, Oled_Write_CMD);
 647              		.loc 1 86 2 view .LVU157
 648 0078 2A46     		mov	r2, r5
 649 007a 8D21     		movs	r1, #141
 650 007c 2046     		mov	r0, r4
ARM GAS  /var/folders/lx/hc4sn_b53233_zkc9xbbl97r0000gp/T//ccb8UyKX.s 			page 17


 651 007e FFF7FEFF 		bl	Oled_TransmitByte
 652              	.LVL67:
  87:Dsp/screen/device/oled.c **** 	Oled_TransmitByte(Oled_Obj, 0x14, Oled_Write_CMD);
 653              		.loc 1 87 2 view .LVU158
 654 0082 2A46     		mov	r2, r5
 655 0084 1421     		movs	r1, #20
 656 0086 2046     		mov	r0, r4
 657 0088 FFF7FEFF 		bl	Oled_TransmitByte
 658              	.LVL68:
  88:Dsp/screen/device/oled.c **** 	Oled_TransmitByte(Oled_Obj, 0x20, Oled_Write_CMD);
 659              		.loc 1 88 2 view .LVU159
 660 008c 2A46     		mov	r2, r5
 661 008e 1421     		movs	r1, #20
 662 0090 2046     		mov	r0, r4
 663 0092 FFF7FEFF 		bl	Oled_TransmitByte
 664              	.LVL69:
  89:Dsp/screen/device/oled.c **** 	Oled_TransmitByte(Oled_Obj, 0x02, Oled_Write_CMD);
 665              		.loc 1 89 2 view .LVU160
 666 0096 2A46     		mov	r2, r5
 667 0098 2021     		movs	r1, #32
 668 009a 2046     		mov	r0, r4
 669 009c FFF7FEFF 		bl	Oled_TransmitByte
 670              	.LVL70:
  90:Dsp/screen/device/oled.c **** 
 671              		.loc 1 90 2 view .LVU161
 672 00a0 2A46     		mov	r2, r5
 673 00a2 0221     		movs	r1, #2
 674 00a4 2046     		mov	r0, r4
 675 00a6 FFF7FEFF 		bl	Oled_TransmitByte
 676              	.LVL71:
  92:Dsp/screen/device/oled.c **** 	Oled_TransmitByte(Oled_Obj, 0xC8, Oled_Write_CMD);
 677              		.loc 1 92 2 view .LVU162
 678 00aa 2A46     		mov	r2, r5
 679 00ac A021     		movs	r1, #160
 680 00ae 2046     		mov	r0, r4
 681 00b0 FFF7FEFF 		bl	Oled_TransmitByte
 682              	.LVL72:
  93:Dsp/screen/device/oled.c **** 
 683              		.loc 1 93 2 view .LVU163
 684 00b4 2A46     		mov	r2, r5
 685 00b6 C821     		movs	r1, #200
 686 00b8 2046     		mov	r0, r4
 687 00ba FFF7FEFF 		bl	Oled_TransmitByte
 688              	.LVL73:
  95:Dsp/screen/device/oled.c **** 	Oled_TransmitByte(Oled_Obj, 0x12, Oled_Write_CMD);
 689              		.loc 1 95 2 view .LVU164
 690 00be 2A46     		mov	r2, r5
 691 00c0 DA21     		movs	r1, #218
 692 00c2 2046     		mov	r0, r4
 693 00c4 FFF7FEFF 		bl	Oled_TransmitByte
 694              	.LVL74:
  96:Dsp/screen/device/oled.c **** 
 695              		.loc 1 96 2 view .LVU165
 696 00c8 2A46     		mov	r2, r5
 697 00ca 1221     		movs	r1, #18
 698 00cc 2046     		mov	r0, r4
 699 00ce FFF7FEFF 		bl	Oled_TransmitByte
ARM GAS  /var/folders/lx/hc4sn_b53233_zkc9xbbl97r0000gp/T//ccb8UyKX.s 			page 18


 700              	.LVL75:
  98:Dsp/screen/device/oled.c **** 	Oled_TransmitByte(Oled_Obj, 0xEF, Oled_Write_CMD);
 701              		.loc 1 98 2 view .LVU166
 702 00d2 2A46     		mov	r2, r5
 703 00d4 8121     		movs	r1, #129
 704 00d6 2046     		mov	r0, r4
 705 00d8 FFF7FEFF 		bl	Oled_TransmitByte
 706              	.LVL76:
  99:Dsp/screen/device/oled.c **** 	Oled_TransmitByte(Oled_Obj, 0xD9, Oled_Write_CMD);
 707              		.loc 1 99 2 view .LVU167
 708 00dc 2A46     		mov	r2, r5
 709 00de EF21     		movs	r1, #239
 710 00e0 2046     		mov	r0, r4
 711 00e2 FFF7FEFF 		bl	Oled_TransmitByte
 712              	.LVL77:
 100:Dsp/screen/device/oled.c **** 	Oled_TransmitByte(Oled_Obj, 0xf1, Oled_Write_CMD);
 713              		.loc 1 100 2 view .LVU168
 714 00e6 2A46     		mov	r2, r5
 715 00e8 D921     		movs	r1, #217
 716 00ea 2046     		mov	r0, r4
 717 00ec FFF7FEFF 		bl	Oled_TransmitByte
 718              	.LVL78:
 101:Dsp/screen/device/oled.c **** 	Oled_TransmitByte(Oled_Obj, 0xDB, Oled_Write_CMD);
 719              		.loc 1 101 2 view .LVU169
 720 00f0 2A46     		mov	r2, r5
 721 00f2 F121     		movs	r1, #241
 722 00f4 2046     		mov	r0, r4
 723 00f6 FFF7FEFF 		bl	Oled_TransmitByte
 724              	.LVL79:
 102:Dsp/screen/device/oled.c **** 	Oled_TransmitByte(Oled_Obj, 0x30, Oled_Write_CMD);
 725              		.loc 1 102 2 view .LVU170
 726 00fa 2A46     		mov	r2, r5
 727 00fc DB21     		movs	r1, #219
 728 00fe 2046     		mov	r0, r4
 729 0100 FFF7FEFF 		bl	Oled_TransmitByte
 730              	.LVL80:
 103:Dsp/screen/device/oled.c **** 
 731              		.loc 1 103 2 view .LVU171
 732 0104 2A46     		mov	r2, r5
 733 0106 3021     		movs	r1, #48
 734 0108 2046     		mov	r0, r4
 735 010a FFF7FEFF 		bl	Oled_TransmitByte
 736              	.LVL81:
 105:Dsp/screen/device/oled.c **** 	Oled_TransmitByte(Oled_Obj, 0xA6, Oled_Write_CMD);
 737              		.loc 1 105 2 view .LVU172
 738 010e 2A46     		mov	r2, r5
 739 0110 A421     		movs	r1, #164
 740 0112 2046     		mov	r0, r4
 741 0114 FFF7FEFF 		bl	Oled_TransmitByte
 742              	.LVL82:
 106:Dsp/screen/device/oled.c **** 	Oled_TransmitByte(Oled_Obj, 0xAF, Oled_Write_CMD);
 743              		.loc 1 106 2 view .LVU173
 744 0118 2A46     		mov	r2, r5
 745 011a A621     		movs	r1, #166
 746 011c 2046     		mov	r0, r4
 747 011e FFF7FEFF 		bl	Oled_TransmitByte
 748              	.LVL83:
ARM GAS  /var/folders/lx/hc4sn_b53233_zkc9xbbl97r0000gp/T//ccb8UyKX.s 			page 19


 107:Dsp/screen/device/oled.c **** 
 749              		.loc 1 107 2 view .LVU174
 750 0122 2A46     		mov	r2, r5
 751 0124 AF21     		movs	r1, #175
 752 0126 2046     		mov	r0, r4
 753 0128 FFF7FEFF 		bl	Oled_TransmitByte
 754              	.LVL84:
 109:Dsp/screen/device/oled.c **** }
 755              		.loc 1 109 2 view .LVU175
 756 012c 2046     		mov	r0, r4
 757 012e FFF7FEFF 		bl	Oled_Clear
 758              	.LVL85:
 110:Dsp/screen/device/oled.c **** 
 759              		.loc 1 110 1 is_stmt 0 view .LVU176
 760 0132 38BD     		pop	{r3, r4, r5, pc}
 110:Dsp/screen/device/oled.c **** 
 761              		.loc 1 110 1 view .LVU177
 762              		.cfi_endproc
 763              	.LFE125:
 765              		.global	DrvOled
 766              		.global	OledDisable_CMD
 767              		.global	OledEnable_CMD
 768              		.section	.bss.blackboard,"aw",%nobits
 769              		.align	2
 770              		.set	.LANCHOR1,. + 0
 773              	blackboard:
 774 0000 00000000 		.space	1024
 774      00000000 
 774      00000000 
 774      00000000 
 774      00000000 
 775              		.section	.data.DrvOled,"aw"
 776              		.align	2
 779              	DrvOled:
 780 0000 00000000 		.word	Oled_Init
 781 0004 00000000 		.word	Oled_EnableControl
 782 0008 00000000 		.word	Oled_Refresh
 783 000c 00000000 		.word	Oled_Clear
 784 0010 00000000 		.word	Oled_GetMax_Width
 785 0014 00000000 		.word	Oled_GetMax_Height
 786              		.section	.rodata.OledDisable_CMD,"a"
 787              		.align	2
 790              	OledDisable_CMD:
 791 0000 10AE     		.ascii	"\020\256"
 792              		.section	.rodata.OledEnable_CMD,"a"
 793              		.align	2
 794              		.set	.LANCHOR0,. + 0
 797              	OledEnable_CMD:
 798 0000 14AF     		.ascii	"\024\257"
 799              		.text
 800              	.Letext0:
 801              		.file 2 "/usr/local/arm-none-eabi-gcc/gcc-arm-none-eabi-10-2020-q4-major/arm-none-eabi/include/mac
 802              		.file 3 "/usr/local/arm-none-eabi-gcc/gcc-arm-none-eabi-10-2020-q4-major/arm-none-eabi/include/sys
 803              		.file 4 "Dsp/pixel.h"
 804              		.file 5 "Dsp/screen/device/oled.h"
 805              		.file 6 "SYS/delay/delay.h"
ARM GAS  /var/folders/lx/hc4sn_b53233_zkc9xbbl97r0000gp/T//ccb8UyKX.s 			page 20

