ARM GAS  /var/folders/lx/hc4sn_b53233_zkc9xbbl97r0000gp/T//cc4W4OTW.s 			page 1


   1              		.cpu cortex-m4
   2              		.eabi_attribute 27, 1
   3              		.eabi_attribute 28, 1
   4              		.eabi_attribute 20, 1
   5              		.eabi_attribute 21, 1
   6              		.eabi_attribute 23, 3
   7              		.eabi_attribute 24, 1
   8              		.eabi_attribute 25, 1
   9              		.eabi_attribute 26, 1
  10              		.eabi_attribute 30, 1
  11              		.eabi_attribute 34, 1
  12              		.eabi_attribute 18, 4
  13              		.file	"oled1306.c"
  14              		.text
  15              	.Ltext0:
  16              		.cfi_sections	.debug_frame
  17              		.section	.text.Oled_TransmitByte,"ax",%progbits
  18              		.align	1
  19              		.arch armv7e-m
  20              		.syntax unified
  21              		.thumb
  22              		.thumb_func
  23              		.fpu fpv4-sp-d16
  25              	Oled_TransmitByte:
  26              	.LVL0:
  27              	.LFB123:
  28              		.file 1 "Dsp/screen/device/oled1306.c"
   1:Dsp/screen/device/oled1306.c **** #include "oled1306.h"
   2:Dsp/screen/device/oled1306.c **** #include "delay.h"
   3:Dsp/screen/device/oled1306.c **** 
   4:Dsp/screen/device/oled1306.c **** static uint8_t blackboard[OLED_MAX_WIDTH][COLUMN_SIZE];
   5:Dsp/screen/device/oled1306.c **** 
   6:Dsp/screen/device/oled1306.c **** /* const static variable */
   7:Dsp/screen/device/oled1306.c **** const uint8_t OledEnable_CMD[2] = {0X14, 0XAF};
   8:Dsp/screen/device/oled1306.c **** const uint8_t OledDisable_CMD[2] = {0X10, 0XAE};
   9:Dsp/screen/device/oled1306.c **** 
  10:Dsp/screen/device/oled1306.c **** /* external funtion for app or midware */
  11:Dsp/screen/device/oled1306.c **** static void Oled_EnableControl(Oled_Obj_TypeDef *Oled_Obj, Oled_Enable_State_List state);
  12:Dsp/screen/device/oled1306.c **** static bool Oled_Init(Oled_Obj_TypeDef *Oled_Obj);
  13:Dsp/screen/device/oled1306.c **** static void Oled_Clear(Oled_Obj_TypeDef *Oled_Obj);
  14:Dsp/screen/device/oled1306.c **** static bool Oled_MapUpdate(Oled_Obj_TypeDef *Oled_Obj, uint8_t **map);
  15:Dsp/screen/device/oled1306.c **** static uint8_t Oled_GetMax_Width(void);
  16:Dsp/screen/device/oled1306.c **** static uint8_t Oled_GetMax_Height(void);
  17:Dsp/screen/device/oled1306.c **** static bool Oled_Refresh(Oled_Obj_TypeDef *Oled_Obj, uint8_t **val);
  18:Dsp/screen/device/oled1306.c **** 
  19:Dsp/screen/device/oled1306.c **** /* internal function */
  20:Dsp/screen/device/oled1306.c **** static void Oled_TransmitByte(Oled_Obj_TypeDef *Oled_Obj, uint8_t data, Oled_Write_Type type);
  21:Dsp/screen/device/oled1306.c **** 
  22:Dsp/screen/device/oled1306.c **** Oled_GenProcFunc_TypeDef DrvOled = {
  23:Dsp/screen/device/oled1306.c **** 	.init = Oled_Init,
  24:Dsp/screen/device/oled1306.c **** 	.enable_set = Oled_EnableControl,
  25:Dsp/screen/device/oled1306.c **** 	.fresh = Oled_Refresh,
  26:Dsp/screen/device/oled1306.c **** 	.clear = Oled_Clear,
  27:Dsp/screen/device/oled1306.c **** 	.get_max_height = Oled_GetMax_Height,
  28:Dsp/screen/device/oled1306.c **** 	.get_max_width = Oled_GetMax_Width,
  29:Dsp/screen/device/oled1306.c **** };
  30:Dsp/screen/device/oled1306.c **** 
ARM GAS  /var/folders/lx/hc4sn_b53233_zkc9xbbl97r0000gp/T//cc4W4OTW.s 			page 2


  31:Dsp/screen/device/oled1306.c **** /* device Bsp IO SPI_Bus correspond control Function */
  32:Dsp/screen/device/oled1306.c **** static void Oled_TransmitByte(Oled_Obj_TypeDef *Oled_Obj, uint8_t data, Oled_Write_Type type)
  33:Dsp/screen/device/oled1306.c **** {
  29              		.loc 1 33 1 view -0
  30              		.cfi_startproc
  31              		@ args = 0, pretend = 0, frame = 0
  32              		@ frame_needed = 0, uses_anonymous_args = 0
  33              		.loc 1 33 1 is_stmt 0 view .LVU1
  34 0000 38B5     		push	{r3, r4, r5, lr}
  35              	.LCFI0:
  36              		.cfi_def_cfa_offset 16
  37              		.cfi_offset 3, -16
  38              		.cfi_offset 4, -12
  39              		.cfi_offset 5, -8
  40              		.cfi_offset 14, -4
  41 0002 0446     		mov	r4, r0
  42 0004 0D46     		mov	r5, r1
  34:Dsp/screen/device/oled1306.c **** 	if (type == Oled_Write_CMD)
  43              		.loc 1 34 2 is_stmt 1 view .LVU2
  44              		.loc 1 34 5 is_stmt 0 view .LVU3
  45 0006 62B9     		cbnz	r2, .L2
  35:Dsp/screen/device/oled1306.c **** 	{
  36:Dsp/screen/device/oled1306.c **** 		Oled_Obj->rs_ctl(Oled_RS_Disable);
  46              		.loc 1 36 3 is_stmt 1 view .LVU4
  47              		.loc 1 36 11 is_stmt 0 view .LVU5
  48 0008 D0F80E30 		ldr	r3, [r0, #14]	@ unaligned
  49              		.loc 1 36 3 view .LVU6
  50 000c 0120     		movs	r0, #1
  51              	.LVL1:
  52              		.loc 1 36 3 view .LVU7
  53 000e 9847     		blx	r3
  54              	.LVL2:
  55              	.L3:
  37:Dsp/screen/device/oled1306.c **** 	}
  38:Dsp/screen/device/oled1306.c **** 	else
  39:Dsp/screen/device/oled1306.c **** 		Oled_Obj->rs_ctl(Oled_RS_Enable);
  40:Dsp/screen/device/oled1306.c **** 
  41:Dsp/screen/device/oled1306.c **** 	Oled_Obj->bus_transmit(data);
  56              		.loc 1 41 2 is_stmt 1 view .LVU8
  57              		.loc 1 41 10 is_stmt 0 view .LVU9
  58 0010 D4F81A30 		ldr	r3, [r4, #26]	@ unaligned
  59              		.loc 1 41 2 view .LVU10
  60 0014 2846     		mov	r0, r5
  61 0016 9847     		blx	r3
  62              	.LVL3:
  42:Dsp/screen/device/oled1306.c **** 
  43:Dsp/screen/device/oled1306.c **** 	Oled_Obj->rs_ctl(Oled_RS_Enable);
  63              		.loc 1 43 2 is_stmt 1 view .LVU11
  64              		.loc 1 43 10 is_stmt 0 view .LVU12
  65 0018 D4F80E30 		ldr	r3, [r4, #14]	@ unaligned
  66              		.loc 1 43 2 view .LVU13
  67 001c 0020     		movs	r0, #0
  68 001e 9847     		blx	r3
  69              	.LVL4:
  44:Dsp/screen/device/oled1306.c **** }
  70              		.loc 1 44 1 view .LVU14
  71 0020 38BD     		pop	{r3, r4, r5, pc}
ARM GAS  /var/folders/lx/hc4sn_b53233_zkc9xbbl97r0000gp/T//cc4W4OTW.s 			page 3


  72              	.LVL5:
  73              	.L2:
  39:Dsp/screen/device/oled1306.c **** 
  74              		.loc 1 39 3 is_stmt 1 view .LVU15
  39:Dsp/screen/device/oled1306.c **** 
  75              		.loc 1 39 11 is_stmt 0 view .LVU16
  76 0022 D0F80E30 		ldr	r3, [r0, #14]	@ unaligned
  39:Dsp/screen/device/oled1306.c **** 
  77              		.loc 1 39 3 view .LVU17
  78 0026 0020     		movs	r0, #0
  79              	.LVL6:
  39:Dsp/screen/device/oled1306.c **** 
  80              		.loc 1 39 3 view .LVU18
  81 0028 9847     		blx	r3
  82              	.LVL7:
  39:Dsp/screen/device/oled1306.c **** 
  83              		.loc 1 39 3 view .LVU19
  84 002a F1E7     		b	.L3
  85              		.cfi_endproc
  86              	.LFE123:
  88              		.section	.text.Oled_EnableControl,"ax",%progbits
  89              		.align	1
  90              		.syntax unified
  91              		.thumb
  92              		.thumb_func
  93              		.fpu fpv4-sp-d16
  95              	Oled_EnableControl:
  96              	.LVL8:
  97              	.LFB124:
  45:Dsp/screen/device/oled1306.c **** 
  46:Dsp/screen/device/oled1306.c **** static void Oled_EnableControl(Oled_Obj_TypeDef *Oled_Obj, Oled_Enable_State_List state)
  47:Dsp/screen/device/oled1306.c **** {
  98              		.loc 1 47 1 is_stmt 1 view -0
  99              		.cfi_startproc
 100              		@ args = 0, pretend = 0, frame = 0
 101              		@ frame_needed = 0, uses_anonymous_args = 0
 102              		.loc 1 47 1 is_stmt 0 view .LVU21
 103 0000 70B5     		push	{r4, r5, r6, lr}
 104              	.LCFI1:
 105              		.cfi_def_cfa_offset 16
 106              		.cfi_offset 4, -16
 107              		.cfi_offset 5, -12
 108              		.cfi_offset 6, -8
 109              		.cfi_offset 14, -4
 110 0002 0546     		mov	r5, r0
 111 0004 0C46     		mov	r4, r1
  48:Dsp/screen/device/oled1306.c **** 	uint8_t *Enb_CMD_Buff;
 112              		.loc 1 48 2 is_stmt 1 view .LVU22
  49:Dsp/screen/device/oled1306.c **** 	Oled_TransmitByte(Oled_Obj, 0X8D, Oled_Write_CMD);
 113              		.loc 1 49 2 view .LVU23
 114 0006 0022     		movs	r2, #0
 115 0008 8D21     		movs	r1, #141
 116              	.LVL9:
 117              		.loc 1 49 2 is_stmt 0 view .LVU24
 118 000a FFF7FEFF 		bl	Oled_TransmitByte
 119              	.LVL10:
  50:Dsp/screen/device/oled1306.c **** 
ARM GAS  /var/folders/lx/hc4sn_b53233_zkc9xbbl97r0000gp/T//cc4W4OTW.s 			page 4


  51:Dsp/screen/device/oled1306.c **** 	if (state == Oled_Display_Enable)
 120              		.loc 1 51 2 is_stmt 1 view .LVU25
 121              		.loc 1 51 5 is_stmt 0 view .LVU26
 122 000e 14B9     		cbnz	r4, .L9
  52:Dsp/screen/device/oled1306.c **** 	{
  53:Dsp/screen/device/oled1306.c **** 		Enb_CMD_Buff = (uint8_t *)OledEnable_CMD;
 123              		.loc 1 53 16 view .LVU27
 124 0010 074E     		ldr	r6, .L11
 125              	.L6:
 126              	.LVL11:
  54:Dsp/screen/device/oled1306.c **** 	}
  55:Dsp/screen/device/oled1306.c **** 	else
  56:Dsp/screen/device/oled1306.c **** 		Enb_CMD_Buff = (uint8_t *)OledDisable_CMD;
  57:Dsp/screen/device/oled1306.c **** 
  58:Dsp/screen/device/oled1306.c **** 	for (uint8_t i = 0; i < sizeof(OledEnable_CMD); i++)
 127              		.loc 1 58 2 is_stmt 1 view .LVU28
 128              	.LBB2:
 129              		.loc 1 58 7 view .LVU29
 130              		.loc 1 58 15 is_stmt 0 view .LVU30
 131 0012 0024     		movs	r4, #0
 132              		.loc 1 58 2 view .LVU31
 133 0014 08E0     		b	.L7
 134              	.LVL12:
 135              	.L9:
 136              		.loc 1 58 2 view .LVU32
 137              	.LBE2:
  56:Dsp/screen/device/oled1306.c **** 
 138              		.loc 1 56 16 view .LVU33
 139 0016 074E     		ldr	r6, .L11+4
 140 0018 FBE7     		b	.L6
 141              	.LVL13:
 142              	.L8:
 143              	.LBB3:
  59:Dsp/screen/device/oled1306.c **** 	{
  60:Dsp/screen/device/oled1306.c **** 		Oled_TransmitByte(Oled_Obj, Enb_CMD_Buff[i], Oled_Write_CMD);
 144              		.loc 1 60 3 is_stmt 1 discriminator 3 view .LVU34
 145 001a 0022     		movs	r2, #0
 146 001c 315D     		ldrb	r1, [r6, r4]	@ zero_extendqisi2
 147 001e 2846     		mov	r0, r5
 148 0020 FFF7FEFF 		bl	Oled_TransmitByte
 149              	.LVL14:
  58:Dsp/screen/device/oled1306.c **** 	{
 150              		.loc 1 58 50 discriminator 3 view .LVU35
  58:Dsp/screen/device/oled1306.c **** 	{
 151              		.loc 1 58 51 is_stmt 0 discriminator 3 view .LVU36
 152 0024 0134     		adds	r4, r4, #1
 153              	.LVL15:
  58:Dsp/screen/device/oled1306.c **** 	{
 154              		.loc 1 58 51 discriminator 3 view .LVU37
 155 0026 E4B2     		uxtb	r4, r4
 156              	.LVL16:
 157              	.L7:
  58:Dsp/screen/device/oled1306.c **** 	{
 158              		.loc 1 58 22 is_stmt 1 discriminator 1 view .LVU38
  58:Dsp/screen/device/oled1306.c **** 	{
 159              		.loc 1 58 2 is_stmt 0 discriminator 1 view .LVU39
 160 0028 012C     		cmp	r4, #1
ARM GAS  /var/folders/lx/hc4sn_b53233_zkc9xbbl97r0000gp/T//cc4W4OTW.s 			page 5


 161 002a F6D9     		bls	.L8
 162              	.LBE3:
  61:Dsp/screen/device/oled1306.c **** 	}
  62:Dsp/screen/device/oled1306.c **** }
 163              		.loc 1 62 1 view .LVU40
 164 002c 70BD     		pop	{r4, r5, r6, pc}
 165              	.LVL17:
 166              	.L12:
 167              		.loc 1 62 1 view .LVU41
 168 002e 00BF     		.align	2
 169              	.L11:
 170 0030 00000000 		.word	.LANCHOR1
 171 0034 00000000 		.word	.LANCHOR0
 172              		.cfi_endproc
 173              	.LFE124:
 175              		.section	.text.Oled_Clear,"ax",%progbits
 176              		.align	1
 177              		.syntax unified
 178              		.thumb
 179              		.thumb_func
 180              		.fpu fpv4-sp-d16
 182              	Oled_Clear:
 183              	.LVL18:
 184              	.LFB127:
  63:Dsp/screen/device/oled1306.c **** 
  64:Dsp/screen/device/oled1306.c **** static bool Oled_Init(Oled_Obj_TypeDef *Oled_Obj)
  65:Dsp/screen/device/oled1306.c **** {
  66:Dsp/screen/device/oled1306.c **** 	Oled_Obj->bus_init(Oled_Obj->BusID);
  67:Dsp/screen/device/oled1306.c **** 	Oled_Obj->dc_init();
  68:Dsp/screen/device/oled1306.c **** 	Oled_Obj->rs_init();
  69:Dsp/screen/device/oled1306.c **** 
  70:Dsp/screen/device/oled1306.c **** 	Oled_Obj->rs_ctl(Oled_RS_Disable);
  71:Dsp/screen/device/oled1306.c **** 	delay_ms(100);
  72:Dsp/screen/device/oled1306.c **** 	Oled_Obj->rs_ctl(Oled_RS_Enable);
  73:Dsp/screen/device/oled1306.c **** 
  74:Dsp/screen/device/oled1306.c **** 	Oled_TransmitByte(Oled_Obj, 0xAE, Oled_Write_CMD);
  75:Dsp/screen/device/oled1306.c **** 	Oled_TransmitByte(Oled_Obj, 0xD5, Oled_Write_CMD);
  76:Dsp/screen/device/oled1306.c **** 	Oled_TransmitByte(Oled_Obj, 80, Oled_Write_CMD);
  77:Dsp/screen/device/oled1306.c **** 	Oled_TransmitByte(Oled_Obj, 0xA8, Oled_Write_CMD);
  78:Dsp/screen/device/oled1306.c **** 	Oled_TransmitByte(Oled_Obj, 0X3F, Oled_Write_CMD);
  79:Dsp/screen/device/oled1306.c **** 	Oled_TransmitByte(Oled_Obj, 0xD3, Oled_Write_CMD);
  80:Dsp/screen/device/oled1306.c **** 	Oled_TransmitByte(Oled_Obj, 0X00, Oled_Write_CMD);
  81:Dsp/screen/device/oled1306.c **** 
  82:Dsp/screen/device/oled1306.c **** 	Oled_TransmitByte(Oled_Obj, 0x40, Oled_Write_CMD);
  83:Dsp/screen/device/oled1306.c **** 
  84:Dsp/screen/device/oled1306.c **** 	Oled_TransmitByte(Oled_Obj, 0x8D, Oled_Write_CMD);
  85:Dsp/screen/device/oled1306.c **** 	Oled_TransmitByte(Oled_Obj, 0x14, Oled_Write_CMD);
  86:Dsp/screen/device/oled1306.c **** 	Oled_TransmitByte(Oled_Obj, 0x14, Oled_Write_CMD);
  87:Dsp/screen/device/oled1306.c **** 	Oled_TransmitByte(Oled_Obj, 0x20, Oled_Write_CMD);
  88:Dsp/screen/device/oled1306.c **** 	Oled_TransmitByte(Oled_Obj, 0x02, Oled_Write_CMD);
  89:Dsp/screen/device/oled1306.c **** 
  90:Dsp/screen/device/oled1306.c **** 	Oled_TransmitByte(Oled_Obj, 0xA0, Oled_Write_CMD);
  91:Dsp/screen/device/oled1306.c **** 	Oled_TransmitByte(Oled_Obj, 0xC8, Oled_Write_CMD);
  92:Dsp/screen/device/oled1306.c **** 
  93:Dsp/screen/device/oled1306.c **** 	Oled_TransmitByte(Oled_Obj, 0xDA, Oled_Write_CMD);
  94:Dsp/screen/device/oled1306.c **** 	Oled_TransmitByte(Oled_Obj, 0x12, Oled_Write_CMD);
  95:Dsp/screen/device/oled1306.c **** 
ARM GAS  /var/folders/lx/hc4sn_b53233_zkc9xbbl97r0000gp/T//cc4W4OTW.s 			page 6


  96:Dsp/screen/device/oled1306.c **** 	Oled_TransmitByte(Oled_Obj, 0x81, Oled_Write_CMD);
  97:Dsp/screen/device/oled1306.c **** 	Oled_TransmitByte(Oled_Obj, 0xEF, Oled_Write_CMD);
  98:Dsp/screen/device/oled1306.c **** 	Oled_TransmitByte(Oled_Obj, 0xD9, Oled_Write_CMD);
  99:Dsp/screen/device/oled1306.c **** 	Oled_TransmitByte(Oled_Obj, 0xf1, Oled_Write_CMD);
 100:Dsp/screen/device/oled1306.c **** 	Oled_TransmitByte(Oled_Obj, 0xDB, Oled_Write_CMD);
 101:Dsp/screen/device/oled1306.c **** 	Oled_TransmitByte(Oled_Obj, 0x30, Oled_Write_CMD);
 102:Dsp/screen/device/oled1306.c **** 
 103:Dsp/screen/device/oled1306.c **** 	Oled_TransmitByte(Oled_Obj, 0xA4, Oled_Write_CMD);
 104:Dsp/screen/device/oled1306.c **** 	Oled_TransmitByte(Oled_Obj, 0xA6, Oled_Write_CMD);
 105:Dsp/screen/device/oled1306.c **** 	Oled_TransmitByte(Oled_Obj, 0xAF, Oled_Write_CMD);
 106:Dsp/screen/device/oled1306.c **** 
 107:Dsp/screen/device/oled1306.c **** 	Oled_Clear(Oled_Obj);
 108:Dsp/screen/device/oled1306.c **** 
 109:Dsp/screen/device/oled1306.c **** 	return true;
 110:Dsp/screen/device/oled1306.c **** }
 111:Dsp/screen/device/oled1306.c **** 
 112:Dsp/screen/device/oled1306.c **** static bool Oled_Refresh(Oled_Obj_TypeDef *Oled_Obj, uint8_t **val)
 113:Dsp/screen/device/oled1306.c **** {
 114:Dsp/screen/device/oled1306.c **** 	//update pixel map
 115:Dsp/screen/device/oled1306.c **** 	if (!Oled_MapUpdate(Oled_Obj, val))
 116:Dsp/screen/device/oled1306.c **** 	{
 117:Dsp/screen/device/oled1306.c **** 		return false;
 118:Dsp/screen/device/oled1306.c **** 	}
 119:Dsp/screen/device/oled1306.c **** 
 120:Dsp/screen/device/oled1306.c **** 	for (uint8_t c = 0; c < OLED_COLUMN_BLOCK_NUM; c++)
 121:Dsp/screen/device/oled1306.c **** 	{
 122:Dsp/screen/device/oled1306.c **** 
 123:Dsp/screen/device/oled1306.c **** 		Oled_TransmitByte(Oled_Obj, (0xb0 + c), Oled_Write_CMD);
 124:Dsp/screen/device/oled1306.c **** 		Oled_TransmitByte(Oled_Obj, 0x00, Oled_Write_CMD);
 125:Dsp/screen/device/oled1306.c **** 		Oled_TransmitByte(Oled_Obj, 0x10, Oled_Write_CMD);
 126:Dsp/screen/device/oled1306.c **** 
 127:Dsp/screen/device/oled1306.c **** 		//can use spi dma for transmit
 128:Dsp/screen/device/oled1306.c **** 		for (uint8_t r = 0; r < OLED_MAX_WIDTH; r++)
 129:Dsp/screen/device/oled1306.c **** 		{
 130:Dsp/screen/device/oled1306.c **** 			blackboard[r][c] = 1;
 131:Dsp/screen/device/oled1306.c **** 			Oled_TransmitByte(Oled_Obj, blackboard[r][c], Oled_Write_Data);
 132:Dsp/screen/device/oled1306.c **** 		}
 133:Dsp/screen/device/oled1306.c **** 	}
 134:Dsp/screen/device/oled1306.c **** 
 135:Dsp/screen/device/oled1306.c **** 	return true;
 136:Dsp/screen/device/oled1306.c **** }
 137:Dsp/screen/device/oled1306.c **** 
 138:Dsp/screen/device/oled1306.c **** static void Oled_Clear(Oled_Obj_TypeDef *Oled_Obj)
 139:Dsp/screen/device/oled1306.c **** {
 185              		.loc 1 139 1 is_stmt 1 view -0
 186              		.cfi_startproc
 187              		@ args = 0, pretend = 0, frame = 0
 188              		@ frame_needed = 0, uses_anonymous_args = 0
 189              		.loc 1 139 1 is_stmt 0 view .LVU43
 190 0000 70B5     		push	{r4, r5, r6, lr}
 191              	.LCFI2:
 192              		.cfi_def_cfa_offset 16
 193              		.cfi_offset 4, -16
 194              		.cfi_offset 5, -12
 195              		.cfi_offset 6, -8
 196              		.cfi_offset 14, -4
 197 0002 0546     		mov	r5, r0
ARM GAS  /var/folders/lx/hc4sn_b53233_zkc9xbbl97r0000gp/T//cc4W4OTW.s 			page 7


 140:Dsp/screen/device/oled1306.c **** 	for (uint8_t c = 0; c < OLED_COLUMN_BLOCK_NUM; c++)
 198              		.loc 1 140 2 is_stmt 1 view .LVU44
 199              	.LBB4:
 200              		.loc 1 140 7 view .LVU45
 201              	.LVL19:
 202              		.loc 1 140 15 is_stmt 0 view .LVU46
 203 0004 0026     		movs	r6, #0
 204              		.loc 1 140 2 view .LVU47
 205 0006 0BE0     		b	.L14
 206              	.LVL20:
 207              	.L16:
 208              	.LBB5:
 141:Dsp/screen/device/oled1306.c **** 	{
 142:Dsp/screen/device/oled1306.c **** 		Oled_TransmitByte(Oled_Obj, (0xb0 + c), Oled_Write_CMD);
 143:Dsp/screen/device/oled1306.c **** 		Oled_TransmitByte(Oled_Obj, 0x00, Oled_Write_CMD);
 144:Dsp/screen/device/oled1306.c **** 		Oled_TransmitByte(Oled_Obj, 0x10, Oled_Write_CMD);
 145:Dsp/screen/device/oled1306.c **** 
 146:Dsp/screen/device/oled1306.c **** 		for (uint8_t r = 0; r < OLED_MAX_WIDTH; r++)
 147:Dsp/screen/device/oled1306.c **** 		{
 148:Dsp/screen/device/oled1306.c **** 			Oled_TransmitByte(Oled_Obj, 0x00, Oled_Write_Data);
 209              		.loc 1 148 4 is_stmt 1 discriminator 3 view .LVU48
 210 0008 0122     		movs	r2, #1
 211 000a 0021     		movs	r1, #0
 212 000c 2846     		mov	r0, r5
 213 000e FFF7FEFF 		bl	Oled_TransmitByte
 214              	.LVL21:
 146:Dsp/screen/device/oled1306.c **** 		{
 215              		.loc 1 146 43 discriminator 3 view .LVU49
 146:Dsp/screen/device/oled1306.c **** 		{
 216              		.loc 1 146 44 is_stmt 0 discriminator 3 view .LVU50
 217 0012 0134     		adds	r4, r4, #1
 218              	.LVL22:
 146:Dsp/screen/device/oled1306.c **** 		{
 219              		.loc 1 146 44 discriminator 3 view .LVU51
 220 0014 E4B2     		uxtb	r4, r4
 221              	.LVL23:
 222              	.L15:
 146:Dsp/screen/device/oled1306.c **** 		{
 223              		.loc 1 146 23 is_stmt 1 discriminator 1 view .LVU52
 146:Dsp/screen/device/oled1306.c **** 		{
 224              		.loc 1 146 3 is_stmt 0 discriminator 1 view .LVU53
 225 0016 14F0800F 		tst	r4, #128
 226 001a F5D0     		beq	.L16
 227              	.LBE5:
 140:Dsp/screen/device/oled1306.c **** 	for (uint8_t c = 0; c < OLED_COLUMN_BLOCK_NUM; c++)
 228              		.loc 1 140 49 is_stmt 1 discriminator 2 view .LVU54
 140:Dsp/screen/device/oled1306.c **** 	for (uint8_t c = 0; c < OLED_COLUMN_BLOCK_NUM; c++)
 229              		.loc 1 140 50 is_stmt 0 discriminator 2 view .LVU55
 230 001c 0136     		adds	r6, r6, #1
 231              	.LVL24:
 140:Dsp/screen/device/oled1306.c **** 	for (uint8_t c = 0; c < OLED_COLUMN_BLOCK_NUM; c++)
 232              		.loc 1 140 50 discriminator 2 view .LVU56
 233 001e F6B2     		uxtb	r6, r6
 234              	.LVL25:
 235              	.L14:
 140:Dsp/screen/device/oled1306.c **** 	for (uint8_t c = 0; c < OLED_COLUMN_BLOCK_NUM; c++)
 236              		.loc 1 140 22 is_stmt 1 discriminator 1 view .LVU57
ARM GAS  /var/folders/lx/hc4sn_b53233_zkc9xbbl97r0000gp/T//cc4W4OTW.s 			page 8


 140:Dsp/screen/device/oled1306.c **** 	for (uint8_t c = 0; c < OLED_COLUMN_BLOCK_NUM; c++)
 237              		.loc 1 140 2 is_stmt 0 discriminator 1 view .LVU58
 238 0020 072E     		cmp	r6, #7
 239 0022 12D8     		bhi	.L19
 142:Dsp/screen/device/oled1306.c **** 		Oled_TransmitByte(Oled_Obj, 0x00, Oled_Write_CMD);
 240              		.loc 1 142 3 is_stmt 1 view .LVU59
 241 0024 A6F15001 		sub	r1, r6, #80
 242 0028 0022     		movs	r2, #0
 243 002a C9B2     		uxtb	r1, r1
 244 002c 2846     		mov	r0, r5
 245 002e FFF7FEFF 		bl	Oled_TransmitByte
 246              	.LVL26:
 143:Dsp/screen/device/oled1306.c **** 		Oled_TransmitByte(Oled_Obj, 0x10, Oled_Write_CMD);
 247              		.loc 1 143 3 view .LVU60
 248 0032 0022     		movs	r2, #0
 249 0034 1146     		mov	r1, r2
 250 0036 2846     		mov	r0, r5
 251 0038 FFF7FEFF 		bl	Oled_TransmitByte
 252              	.LVL27:
 144:Dsp/screen/device/oled1306.c **** 
 253              		.loc 1 144 3 view .LVU61
 254 003c 0022     		movs	r2, #0
 255 003e 1021     		movs	r1, #16
 256 0040 2846     		mov	r0, r5
 257 0042 FFF7FEFF 		bl	Oled_TransmitByte
 258              	.LVL28:
 146:Dsp/screen/device/oled1306.c **** 		{
 259              		.loc 1 146 3 view .LVU62
 260              	.LBB6:
 146:Dsp/screen/device/oled1306.c **** 		{
 261              		.loc 1 146 8 view .LVU63
 146:Dsp/screen/device/oled1306.c **** 		{
 262              		.loc 1 146 16 is_stmt 0 view .LVU64
 263 0046 0024     		movs	r4, #0
 146:Dsp/screen/device/oled1306.c **** 		{
 264              		.loc 1 146 3 view .LVU65
 265 0048 E5E7     		b	.L15
 266              	.LVL29:
 267              	.L19:
 146:Dsp/screen/device/oled1306.c **** 		{
 268              		.loc 1 146 3 view .LVU66
 269              	.LBE6:
 270              	.LBE4:
 149:Dsp/screen/device/oled1306.c **** 		}
 150:Dsp/screen/device/oled1306.c **** 	}
 151:Dsp/screen/device/oled1306.c **** }
 271              		.loc 1 151 1 view .LVU67
 272 004a 70BD     		pop	{r4, r5, r6, pc}
 273              		.loc 1 151 1 view .LVU68
 274              		.cfi_endproc
 275              	.LFE127:
 277              		.section	.text.Oled_GetMax_Width,"ax",%progbits
 278              		.align	1
 279              		.syntax unified
 280              		.thumb
 281              		.thumb_func
 282              		.fpu fpv4-sp-d16
ARM GAS  /var/folders/lx/hc4sn_b53233_zkc9xbbl97r0000gp/T//cc4W4OTW.s 			page 9


 284              	Oled_GetMax_Width:
 285              	.LFB128:
 152:Dsp/screen/device/oled1306.c **** 
 153:Dsp/screen/device/oled1306.c **** static uint8_t Oled_GetMax_Width(void)
 154:Dsp/screen/device/oled1306.c **** {
 286              		.loc 1 154 1 is_stmt 1 view -0
 287              		.cfi_startproc
 288              		@ args = 0, pretend = 0, frame = 0
 289              		@ frame_needed = 0, uses_anonymous_args = 0
 290              		@ link register save eliminated.
 155:Dsp/screen/device/oled1306.c **** 	return OLED_MAX_WIDTH;
 291              		.loc 1 155 2 view .LVU70
 156:Dsp/screen/device/oled1306.c **** }
 292              		.loc 1 156 1 is_stmt 0 view .LVU71
 293 0000 8020     		movs	r0, #128
 294 0002 7047     		bx	lr
 295              		.cfi_endproc
 296              	.LFE128:
 298              		.section	.text.Oled_GetMax_Height,"ax",%progbits
 299              		.align	1
 300              		.syntax unified
 301              		.thumb
 302              		.thumb_func
 303              		.fpu fpv4-sp-d16
 305              	Oled_GetMax_Height:
 306              	.LFB129:
 157:Dsp/screen/device/oled1306.c **** 
 158:Dsp/screen/device/oled1306.c **** static uint8_t Oled_GetMax_Height(void)
 159:Dsp/screen/device/oled1306.c **** {
 307              		.loc 1 159 1 is_stmt 1 view -0
 308              		.cfi_startproc
 309              		@ args = 0, pretend = 0, frame = 0
 310              		@ frame_needed = 0, uses_anonymous_args = 0
 311              		@ link register save eliminated.
 160:Dsp/screen/device/oled1306.c **** 	return OLED_MAX_HEIGHT;
 312              		.loc 1 160 2 view .LVU73
 161:Dsp/screen/device/oled1306.c **** }
 313              		.loc 1 161 1 is_stmt 0 view .LVU74
 314 0000 4020     		movs	r0, #64
 315 0002 7047     		bx	lr
 316              		.cfi_endproc
 317              	.LFE129:
 319              		.section	.text.Oled_MapUpdate,"ax",%progbits
 320              		.align	1
 321              		.syntax unified
 322              		.thumb
 323              		.thumb_func
 324              		.fpu fpv4-sp-d16
 326              	Oled_MapUpdate:
 327              	.LVL30:
 328              	.LFB130:
 162:Dsp/screen/device/oled1306.c **** 
 163:Dsp/screen/device/oled1306.c **** static bool Oled_MapUpdate(Oled_Obj_TypeDef *Oled_Obj, uint8_t **map)
 164:Dsp/screen/device/oled1306.c **** {
 329              		.loc 1 164 1 is_stmt 1 view -0
 330              		.cfi_startproc
 331              		@ args = 0, pretend = 0, frame = 8
ARM GAS  /var/folders/lx/hc4sn_b53233_zkc9xbbl97r0000gp/T//cc4W4OTW.s 			page 10


 332              		@ frame_needed = 0, uses_anonymous_args = 0
 333              		.loc 1 164 1 is_stmt 0 view .LVU76
 334 0000 10B5     		push	{r4, lr}
 335              	.LCFI3:
 336              		.cfi_def_cfa_offset 8
 337              		.cfi_offset 4, -8
 338              		.cfi_offset 14, -4
 339 0002 82B0     		sub	sp, sp, #8
 340              	.LCFI4:
 341              		.cfi_def_cfa_offset 16
 165:Dsp/screen/device/oled1306.c **** 	volatile uint8_t tmp = 0;
 342              		.loc 1 165 2 is_stmt 1 view .LVU77
 343              		.loc 1 165 19 is_stmt 0 view .LVU78
 344 0004 0023     		movs	r3, #0
 345 0006 8DF80730 		strb	r3, [sp, #7]
 166:Dsp/screen/device/oled1306.c **** 
 167:Dsp/screen/device/oled1306.c **** 	if ((Oled_Obj == NULL) || (map == NULL))
 346              		.loc 1 167 2 is_stmt 1 view .LVU79
 347              		.loc 1 167 5 is_stmt 0 view .LVU80
 348 000a 28B3     		cbz	r0, .L27
 349 000c 0C46     		mov	r4, r1
 350              		.loc 1 167 25 discriminator 1 view .LVU81
 351 000e 29B3     		cbz	r1, .L28
 352              	.LBB7:
 168:Dsp/screen/device/oled1306.c **** 		return false;
 169:Dsp/screen/device/oled1306.c **** 
 170:Dsp/screen/device/oled1306.c **** 	for (uint8_t row_index = 0; row_index < OLED_MAX_WIDTH; row_index++)
 353              		.loc 1 170 15 view .LVU82
 354 0010 9E46     		mov	lr, r3
 355 0012 19E0     		b	.L24
 356              	.LVL31:
 357              	.L25:
 358              	.LBB8:
 171:Dsp/screen/device/oled1306.c **** 	{
 172:Dsp/screen/device/oled1306.c **** 		for (uint8_t column_index = 0; column_index < OLED_MAX_HEIGHT; column_index++)
 173:Dsp/screen/device/oled1306.c **** 		{
 174:Dsp/screen/device/oled1306.c **** 			blackboard[row_index][column_index / COLUMN_SIZE] |= map[column_index][row_index] << (column_ind
 359              		.loc 1 174 4 is_stmt 1 discriminator 3 view .LVU83
 360              		.loc 1 174 54 is_stmt 0 discriminator 3 view .LVU84
 361 0014 4FEAD30C 		lsr	ip, r3, #3
 362              		.loc 1 174 60 discriminator 3 view .LVU85
 363 0018 54F82320 		ldr	r2, [r4, r3, lsl #2]
 364              		.loc 1 174 74 discriminator 3 view .LVU86
 365 001c 12F80E10 		ldrb	r1, [r2, lr]	@ zero_extendqisi2
 366              		.loc 1 174 103 discriminator 3 view .LVU87
 367 0020 03F00700 		and	r0, r3, #7
 368              		.loc 1 174 86 discriminator 3 view .LVU88
 369 0024 01FA00F0 		lsl	r0, r1, r0
 370              		.loc 1 174 54 discriminator 3 view .LVU89
 371 0028 0D4A     		ldr	r2, .L32
 372 002a 02EBCE02 		add	r2, r2, lr, lsl #3
 373 002e 12F80C10 		ldrb	r1, [r2, ip]	@ zero_extendqisi2
 374 0032 0143     		orrs	r1, r1, r0
 375 0034 02F80C10 		strb	r1, [r2, ip]
 172:Dsp/screen/device/oled1306.c **** 		{
 376              		.loc 1 172 66 is_stmt 1 discriminator 3 view .LVU90
 172:Dsp/screen/device/oled1306.c **** 		{
ARM GAS  /var/folders/lx/hc4sn_b53233_zkc9xbbl97r0000gp/T//cc4W4OTW.s 			page 11


 377              		.loc 1 172 78 is_stmt 0 discriminator 3 view .LVU91
 378 0038 0133     		adds	r3, r3, #1
 379              	.LVL32:
 172:Dsp/screen/device/oled1306.c **** 		{
 380              		.loc 1 172 78 discriminator 3 view .LVU92
 381 003a DBB2     		uxtb	r3, r3
 382              	.LVL33:
 383              	.L26:
 172:Dsp/screen/device/oled1306.c **** 		{
 384              		.loc 1 172 34 is_stmt 1 discriminator 1 view .LVU93
 172:Dsp/screen/device/oled1306.c **** 		{
 385              		.loc 1 172 3 is_stmt 0 discriminator 1 view .LVU94
 386 003c 3F2B     		cmp	r3, #63
 387 003e E9D9     		bls	.L25
 388              	.LBE8:
 170:Dsp/screen/device/oled1306.c **** 	{
 389              		.loc 1 170 58 is_stmt 1 discriminator 2 view .LVU95
 170:Dsp/screen/device/oled1306.c **** 	{
 390              		.loc 1 170 67 is_stmt 0 discriminator 2 view .LVU96
 391 0040 0EF1010E 		add	lr, lr, #1
 392              	.LVL34:
 170:Dsp/screen/device/oled1306.c **** 	{
 393              		.loc 1 170 67 discriminator 2 view .LVU97
 394 0044 5FFA8EFE 		uxtb	lr, lr
 395              	.LVL35:
 396              	.L24:
 170:Dsp/screen/device/oled1306.c **** 	{
 397              		.loc 1 170 30 is_stmt 1 discriminator 1 view .LVU98
 170:Dsp/screen/device/oled1306.c **** 	{
 398              		.loc 1 170 2 is_stmt 0 discriminator 1 view .LVU99
 399 0048 1EF0800F 		tst	lr, #128
 400 004c 01D1     		bne	.L31
 401              	.LBB9:
 172:Dsp/screen/device/oled1306.c **** 		{
 402              		.loc 1 172 16 view .LVU100
 403 004e 0023     		movs	r3, #0
 404 0050 F4E7     		b	.L26
 405              	.L31:
 406              	.LBE9:
 407              	.LBE7:
 175:Dsp/screen/device/oled1306.c **** 		}
 176:Dsp/screen/device/oled1306.c **** 	}
 177:Dsp/screen/device/oled1306.c **** 	return true;
 408              		.loc 1 177 9 view .LVU101
 409 0052 0120     		movs	r0, #1
 410              	.LVL36:
 411              	.L23:
 178:Dsp/screen/device/oled1306.c **** }
 412              		.loc 1 178 1 view .LVU102
 413 0054 02B0     		add	sp, sp, #8
 414              	.LCFI5:
 415              		.cfi_remember_state
 416              		.cfi_def_cfa_offset 8
 417              		@ sp needed
 418 0056 10BD     		pop	{r4, pc}
 419              	.LVL37:
 420              	.L27:
ARM GAS  /var/folders/lx/hc4sn_b53233_zkc9xbbl97r0000gp/T//cc4W4OTW.s 			page 12


 421              	.LCFI6:
 422              		.cfi_restore_state
 168:Dsp/screen/device/oled1306.c **** 
 423              		.loc 1 168 10 view .LVU103
 424 0058 0020     		movs	r0, #0
 425              	.LVL38:
 168:Dsp/screen/device/oled1306.c **** 
 426              		.loc 1 168 10 view .LVU104
 427 005a FBE7     		b	.L23
 428              	.LVL39:
 429              	.L28:
 168:Dsp/screen/device/oled1306.c **** 
 430              		.loc 1 168 10 view .LVU105
 431 005c 0020     		movs	r0, #0
 432              	.LVL40:
 168:Dsp/screen/device/oled1306.c **** 
 433              		.loc 1 168 10 view .LVU106
 434 005e F9E7     		b	.L23
 435              	.L33:
 436              		.align	2
 437              	.L32:
 438 0060 00000000 		.word	.LANCHOR2
 439              		.cfi_endproc
 440              	.LFE130:
 442              		.section	.text.Oled_Refresh,"ax",%progbits
 443              		.align	1
 444              		.syntax unified
 445              		.thumb
 446              		.thumb_func
 447              		.fpu fpv4-sp-d16
 449              	Oled_Refresh:
 450              	.LVL41:
 451              	.LFB126:
 113:Dsp/screen/device/oled1306.c **** 	//update pixel map
 452              		.loc 1 113 1 is_stmt 1 view -0
 453              		.cfi_startproc
 454              		@ args = 0, pretend = 0, frame = 0
 455              		@ frame_needed = 0, uses_anonymous_args = 0
 113:Dsp/screen/device/oled1306.c **** 	//update pixel map
 456              		.loc 1 113 1 is_stmt 0 view .LVU108
 457 0000 F8B5     		push	{r3, r4, r5, r6, r7, lr}
 458              	.LCFI7:
 459              		.cfi_def_cfa_offset 24
 460              		.cfi_offset 3, -24
 461              		.cfi_offset 4, -20
 462              		.cfi_offset 5, -16
 463              		.cfi_offset 6, -12
 464              		.cfi_offset 7, -8
 465              		.cfi_offset 14, -4
 466 0002 0646     		mov	r6, r0
 115:Dsp/screen/device/oled1306.c **** 	{
 467              		.loc 1 115 2 is_stmt 1 view .LVU109
 115:Dsp/screen/device/oled1306.c **** 	{
 468              		.loc 1 115 7 is_stmt 0 view .LVU110
 469 0004 FFF7FEFF 		bl	Oled_MapUpdate
 470              	.LVL42:
 115:Dsp/screen/device/oled1306.c **** 	{
ARM GAS  /var/folders/lx/hc4sn_b53233_zkc9xbbl97r0000gp/T//cc4W4OTW.s 			page 13


 471              		.loc 1 115 5 view .LVU111
 472 0008 0746     		mov	r7, r0
 473 000a 30B3     		cbz	r0, .L36
 474              	.LBB10:
 120:Dsp/screen/device/oled1306.c **** 	{
 475              		.loc 1 120 15 view .LVU112
 476 000c 0025     		movs	r5, #0
 477 000e 0FE0     		b	.L35
 478              	.LVL43:
 479              	.L38:
 480              	.LBB11:
 130:Dsp/screen/device/oled1306.c **** 			Oled_TransmitByte(Oled_Obj, blackboard[r][c], Oled_Write_Data);
 481              		.loc 1 130 4 is_stmt 1 discriminator 3 view .LVU113
 130:Dsp/screen/device/oled1306.c **** 			Oled_TransmitByte(Oled_Obj, blackboard[r][c], Oled_Write_Data);
 482              		.loc 1 130 21 is_stmt 0 discriminator 3 view .LVU114
 483 0010 134B     		ldr	r3, .L42
 484 0012 03EBC403 		add	r3, r3, r4, lsl #3
 485 0016 0121     		movs	r1, #1
 486 0018 5955     		strb	r1, [r3, r5]
 131:Dsp/screen/device/oled1306.c **** 		}
 487              		.loc 1 131 4 is_stmt 1 discriminator 3 view .LVU115
 488 001a 0A46     		mov	r2, r1
 489 001c 3046     		mov	r0, r6
 490 001e FFF7FEFF 		bl	Oled_TransmitByte
 491              	.LVL44:
 128:Dsp/screen/device/oled1306.c **** 		{
 492              		.loc 1 128 43 discriminator 3 view .LVU116
 128:Dsp/screen/device/oled1306.c **** 		{
 493              		.loc 1 128 44 is_stmt 0 discriminator 3 view .LVU117
 494 0022 0134     		adds	r4, r4, #1
 495              	.LVL45:
 128:Dsp/screen/device/oled1306.c **** 		{
 496              		.loc 1 128 44 discriminator 3 view .LVU118
 497 0024 E4B2     		uxtb	r4, r4
 498              	.LVL46:
 499              	.L37:
 128:Dsp/screen/device/oled1306.c **** 		{
 500              		.loc 1 128 23 is_stmt 1 discriminator 1 view .LVU119
 128:Dsp/screen/device/oled1306.c **** 		{
 501              		.loc 1 128 3 is_stmt 0 discriminator 1 view .LVU120
 502 0026 14F0800F 		tst	r4, #128
 503 002a F1D0     		beq	.L38
 504              	.LBE11:
 120:Dsp/screen/device/oled1306.c **** 	{
 505              		.loc 1 120 49 is_stmt 1 discriminator 2 view .LVU121
 120:Dsp/screen/device/oled1306.c **** 	{
 506              		.loc 1 120 50 is_stmt 0 discriminator 2 view .LVU122
 507 002c 0135     		adds	r5, r5, #1
 508              	.LVL47:
 120:Dsp/screen/device/oled1306.c **** 	{
 509              		.loc 1 120 50 discriminator 2 view .LVU123
 510 002e EDB2     		uxtb	r5, r5
 511              	.LVL48:
 512              	.L35:
 120:Dsp/screen/device/oled1306.c **** 	{
 513              		.loc 1 120 22 is_stmt 1 discriminator 1 view .LVU124
 120:Dsp/screen/device/oled1306.c **** 	{
ARM GAS  /var/folders/lx/hc4sn_b53233_zkc9xbbl97r0000gp/T//cc4W4OTW.s 			page 14


 514              		.loc 1 120 2 is_stmt 0 discriminator 1 view .LVU125
 515 0030 072D     		cmp	r5, #7
 516 0032 12D8     		bhi	.L36
 123:Dsp/screen/device/oled1306.c **** 		Oled_TransmitByte(Oled_Obj, 0x00, Oled_Write_CMD);
 517              		.loc 1 123 3 is_stmt 1 view .LVU126
 518 0034 A5F15001 		sub	r1, r5, #80
 519 0038 0022     		movs	r2, #0
 520 003a C9B2     		uxtb	r1, r1
 521 003c 3046     		mov	r0, r6
 522 003e FFF7FEFF 		bl	Oled_TransmitByte
 523              	.LVL49:
 124:Dsp/screen/device/oled1306.c **** 		Oled_TransmitByte(Oled_Obj, 0x10, Oled_Write_CMD);
 524              		.loc 1 124 3 view .LVU127
 525 0042 0022     		movs	r2, #0
 526 0044 1146     		mov	r1, r2
 527 0046 3046     		mov	r0, r6
 528 0048 FFF7FEFF 		bl	Oled_TransmitByte
 529              	.LVL50:
 125:Dsp/screen/device/oled1306.c **** 
 530              		.loc 1 125 3 view .LVU128
 531 004c 0022     		movs	r2, #0
 532 004e 1021     		movs	r1, #16
 533 0050 3046     		mov	r0, r6
 534 0052 FFF7FEFF 		bl	Oled_TransmitByte
 535              	.LVL51:
 128:Dsp/screen/device/oled1306.c **** 		{
 536              		.loc 1 128 3 view .LVU129
 537              	.LBB12:
 128:Dsp/screen/device/oled1306.c **** 		{
 538              		.loc 1 128 8 view .LVU130
 128:Dsp/screen/device/oled1306.c **** 		{
 539              		.loc 1 128 16 is_stmt 0 view .LVU131
 540 0056 0024     		movs	r4, #0
 128:Dsp/screen/device/oled1306.c **** 		{
 541              		.loc 1 128 3 view .LVU132
 542 0058 E5E7     		b	.L37
 543              	.LVL52:
 544              	.L36:
 128:Dsp/screen/device/oled1306.c **** 		{
 545              		.loc 1 128 3 view .LVU133
 546              	.LBE12:
 547              	.LBE10:
 136:Dsp/screen/device/oled1306.c **** 
 548              		.loc 1 136 1 view .LVU134
 549 005a 3846     		mov	r0, r7
 550 005c F8BD     		pop	{r3, r4, r5, r6, r7, pc}
 551              	.LVL53:
 552              	.L43:
 136:Dsp/screen/device/oled1306.c **** 
 553              		.loc 1 136 1 view .LVU135
 554 005e 00BF     		.align	2
 555              	.L42:
 556 0060 00000000 		.word	.LANCHOR2
 557              		.cfi_endproc
 558              	.LFE126:
 560              		.section	.text.Oled_Init,"ax",%progbits
 561              		.align	1
ARM GAS  /var/folders/lx/hc4sn_b53233_zkc9xbbl97r0000gp/T//cc4W4OTW.s 			page 15


 562              		.syntax unified
 563              		.thumb
 564              		.thumb_func
 565              		.fpu fpv4-sp-d16
 567              	Oled_Init:
 568              	.LVL54:
 569              	.LFB125:
  65:Dsp/screen/device/oled1306.c **** 	Oled_Obj->bus_init(Oled_Obj->BusID);
 570              		.loc 1 65 1 is_stmt 1 view -0
 571              		.cfi_startproc
 572              		@ args = 0, pretend = 0, frame = 0
 573              		@ frame_needed = 0, uses_anonymous_args = 0
  65:Dsp/screen/device/oled1306.c **** 	Oled_Obj->bus_init(Oled_Obj->BusID);
 574              		.loc 1 65 1 is_stmt 0 view .LVU137
 575 0000 10B5     		push	{r4, lr}
 576              	.LCFI8:
 577              		.cfi_def_cfa_offset 8
 578              		.cfi_offset 4, -8
 579              		.cfi_offset 14, -4
 580 0002 0446     		mov	r4, r0
  66:Dsp/screen/device/oled1306.c **** 	Oled_Obj->dc_init();
 581              		.loc 1 66 2 is_stmt 1 view .LVU138
  66:Dsp/screen/device/oled1306.c **** 	Oled_Obj->dc_init();
 582              		.loc 1 66 10 is_stmt 0 view .LVU139
 583 0004 D0F81630 		ldr	r3, [r0, #22]	@ unaligned
  66:Dsp/screen/device/oled1306.c **** 	Oled_Obj->dc_init();
 584              		.loc 1 66 2 view .LVU140
 585 0008 4079     		ldrb	r0, [r0, #5]	@ zero_extendqisi2
 586              	.LVL55:
  66:Dsp/screen/device/oled1306.c **** 	Oled_Obj->dc_init();
 587              		.loc 1 66 2 view .LVU141
 588 000a 9847     		blx	r3
 589              	.LVL56:
  67:Dsp/screen/device/oled1306.c **** 	Oled_Obj->rs_init();
 590              		.loc 1 67 2 is_stmt 1 view .LVU142
  67:Dsp/screen/device/oled1306.c **** 	Oled_Obj->rs_init();
 591              		.loc 1 67 10 is_stmt 0 view .LVU143
 592 000c D4F80A30 		ldr	r3, [r4, #10]	@ unaligned
  67:Dsp/screen/device/oled1306.c **** 	Oled_Obj->rs_init();
 593              		.loc 1 67 2 view .LVU144
 594 0010 9847     		blx	r3
 595              	.LVL57:
  68:Dsp/screen/device/oled1306.c **** 
 596              		.loc 1 68 2 is_stmt 1 view .LVU145
  68:Dsp/screen/device/oled1306.c **** 
 597              		.loc 1 68 10 is_stmt 0 view .LVU146
 598 0012 D4F80630 		ldr	r3, [r4, #6]	@ unaligned
  68:Dsp/screen/device/oled1306.c **** 
 599              		.loc 1 68 2 view .LVU147
 600 0016 9847     		blx	r3
 601              	.LVL58:
  70:Dsp/screen/device/oled1306.c **** 	delay_ms(100);
 602              		.loc 1 70 2 is_stmt 1 view .LVU148
  70:Dsp/screen/device/oled1306.c **** 	delay_ms(100);
 603              		.loc 1 70 10 is_stmt 0 view .LVU149
 604 0018 D4F80E30 		ldr	r3, [r4, #14]	@ unaligned
  70:Dsp/screen/device/oled1306.c **** 	delay_ms(100);
ARM GAS  /var/folders/lx/hc4sn_b53233_zkc9xbbl97r0000gp/T//cc4W4OTW.s 			page 16


 605              		.loc 1 70 2 view .LVU150
 606 001c 0120     		movs	r0, #1
 607 001e 9847     		blx	r3
 608              	.LVL59:
  71:Dsp/screen/device/oled1306.c **** 	Oled_Obj->rs_ctl(Oled_RS_Enable);
 609              		.loc 1 71 2 is_stmt 1 view .LVU151
 610 0020 6420     		movs	r0, #100
 611 0022 FFF7FEFF 		bl	delay_ms
 612              	.LVL60:
  72:Dsp/screen/device/oled1306.c **** 
 613              		.loc 1 72 2 view .LVU152
  72:Dsp/screen/device/oled1306.c **** 
 614              		.loc 1 72 10 is_stmt 0 view .LVU153
 615 0026 D4F80E30 		ldr	r3, [r4, #14]	@ unaligned
  72:Dsp/screen/device/oled1306.c **** 
 616              		.loc 1 72 2 view .LVU154
 617 002a 0020     		movs	r0, #0
 618 002c 9847     		blx	r3
 619              	.LVL61:
  74:Dsp/screen/device/oled1306.c **** 	Oled_TransmitByte(Oled_Obj, 0xD5, Oled_Write_CMD);
 620              		.loc 1 74 2 is_stmt 1 view .LVU155
 621 002e 0022     		movs	r2, #0
 622 0030 AE21     		movs	r1, #174
 623 0032 2046     		mov	r0, r4
 624 0034 FFF7FEFF 		bl	Oled_TransmitByte
 625              	.LVL62:
  75:Dsp/screen/device/oled1306.c **** 	Oled_TransmitByte(Oled_Obj, 80, Oled_Write_CMD);
 626              		.loc 1 75 2 view .LVU156
 627 0038 0022     		movs	r2, #0
 628 003a D521     		movs	r1, #213
 629 003c 2046     		mov	r0, r4
 630 003e FFF7FEFF 		bl	Oled_TransmitByte
 631              	.LVL63:
  76:Dsp/screen/device/oled1306.c **** 	Oled_TransmitByte(Oled_Obj, 0xA8, Oled_Write_CMD);
 632              		.loc 1 76 2 view .LVU157
 633 0042 0022     		movs	r2, #0
 634 0044 5021     		movs	r1, #80
 635 0046 2046     		mov	r0, r4
 636 0048 FFF7FEFF 		bl	Oled_TransmitByte
 637              	.LVL64:
  77:Dsp/screen/device/oled1306.c **** 	Oled_TransmitByte(Oled_Obj, 0X3F, Oled_Write_CMD);
 638              		.loc 1 77 2 view .LVU158
 639 004c 0022     		movs	r2, #0
 640 004e A821     		movs	r1, #168
 641 0050 2046     		mov	r0, r4
 642 0052 FFF7FEFF 		bl	Oled_TransmitByte
 643              	.LVL65:
  78:Dsp/screen/device/oled1306.c **** 	Oled_TransmitByte(Oled_Obj, 0xD3, Oled_Write_CMD);
 644              		.loc 1 78 2 view .LVU159
 645 0056 0022     		movs	r2, #0
 646 0058 3F21     		movs	r1, #63
 647 005a 2046     		mov	r0, r4
 648 005c FFF7FEFF 		bl	Oled_TransmitByte
 649              	.LVL66:
  79:Dsp/screen/device/oled1306.c **** 	Oled_TransmitByte(Oled_Obj, 0X00, Oled_Write_CMD);
 650              		.loc 1 79 2 view .LVU160
 651 0060 0022     		movs	r2, #0
ARM GAS  /var/folders/lx/hc4sn_b53233_zkc9xbbl97r0000gp/T//cc4W4OTW.s 			page 17


 652 0062 D321     		movs	r1, #211
 653 0064 2046     		mov	r0, r4
 654 0066 FFF7FEFF 		bl	Oled_TransmitByte
 655              	.LVL67:
  80:Dsp/screen/device/oled1306.c **** 
 656              		.loc 1 80 2 view .LVU161
 657 006a 0022     		movs	r2, #0
 658 006c 1146     		mov	r1, r2
 659 006e 2046     		mov	r0, r4
 660 0070 FFF7FEFF 		bl	Oled_TransmitByte
 661              	.LVL68:
  82:Dsp/screen/device/oled1306.c **** 
 662              		.loc 1 82 2 view .LVU162
 663 0074 0022     		movs	r2, #0
 664 0076 4021     		movs	r1, #64
 665 0078 2046     		mov	r0, r4
 666 007a FFF7FEFF 		bl	Oled_TransmitByte
 667              	.LVL69:
  84:Dsp/screen/device/oled1306.c **** 	Oled_TransmitByte(Oled_Obj, 0x14, Oled_Write_CMD);
 668              		.loc 1 84 2 view .LVU163
 669 007e 0022     		movs	r2, #0
 670 0080 8D21     		movs	r1, #141
 671 0082 2046     		mov	r0, r4
 672 0084 FFF7FEFF 		bl	Oled_TransmitByte
 673              	.LVL70:
  85:Dsp/screen/device/oled1306.c **** 	Oled_TransmitByte(Oled_Obj, 0x14, Oled_Write_CMD);
 674              		.loc 1 85 2 view .LVU164
 675 0088 0022     		movs	r2, #0
 676 008a 1421     		movs	r1, #20
 677 008c 2046     		mov	r0, r4
 678 008e FFF7FEFF 		bl	Oled_TransmitByte
 679              	.LVL71:
  86:Dsp/screen/device/oled1306.c **** 	Oled_TransmitByte(Oled_Obj, 0x20, Oled_Write_CMD);
 680              		.loc 1 86 2 view .LVU165
 681 0092 0022     		movs	r2, #0
 682 0094 1421     		movs	r1, #20
 683 0096 2046     		mov	r0, r4
 684 0098 FFF7FEFF 		bl	Oled_TransmitByte
 685              	.LVL72:
  87:Dsp/screen/device/oled1306.c **** 	Oled_TransmitByte(Oled_Obj, 0x02, Oled_Write_CMD);
 686              		.loc 1 87 2 view .LVU166
 687 009c 0022     		movs	r2, #0
 688 009e 2021     		movs	r1, #32
 689 00a0 2046     		mov	r0, r4
 690 00a2 FFF7FEFF 		bl	Oled_TransmitByte
 691              	.LVL73:
  88:Dsp/screen/device/oled1306.c **** 
 692              		.loc 1 88 2 view .LVU167
 693 00a6 0022     		movs	r2, #0
 694 00a8 0221     		movs	r1, #2
 695 00aa 2046     		mov	r0, r4
 696 00ac FFF7FEFF 		bl	Oled_TransmitByte
 697              	.LVL74:
  90:Dsp/screen/device/oled1306.c **** 	Oled_TransmitByte(Oled_Obj, 0xC8, Oled_Write_CMD);
 698              		.loc 1 90 2 view .LVU168
 699 00b0 0022     		movs	r2, #0
 700 00b2 A021     		movs	r1, #160
ARM GAS  /var/folders/lx/hc4sn_b53233_zkc9xbbl97r0000gp/T//cc4W4OTW.s 			page 18


 701 00b4 2046     		mov	r0, r4
 702 00b6 FFF7FEFF 		bl	Oled_TransmitByte
 703              	.LVL75:
  91:Dsp/screen/device/oled1306.c **** 
 704              		.loc 1 91 2 view .LVU169
 705 00ba 0022     		movs	r2, #0
 706 00bc C821     		movs	r1, #200
 707 00be 2046     		mov	r0, r4
 708 00c0 FFF7FEFF 		bl	Oled_TransmitByte
 709              	.LVL76:
  93:Dsp/screen/device/oled1306.c **** 	Oled_TransmitByte(Oled_Obj, 0x12, Oled_Write_CMD);
 710              		.loc 1 93 2 view .LVU170
 711 00c4 0022     		movs	r2, #0
 712 00c6 DA21     		movs	r1, #218
 713 00c8 2046     		mov	r0, r4
 714 00ca FFF7FEFF 		bl	Oled_TransmitByte
 715              	.LVL77:
  94:Dsp/screen/device/oled1306.c **** 
 716              		.loc 1 94 2 view .LVU171
 717 00ce 0022     		movs	r2, #0
 718 00d0 1221     		movs	r1, #18
 719 00d2 2046     		mov	r0, r4
 720 00d4 FFF7FEFF 		bl	Oled_TransmitByte
 721              	.LVL78:
  96:Dsp/screen/device/oled1306.c **** 	Oled_TransmitByte(Oled_Obj, 0xEF, Oled_Write_CMD);
 722              		.loc 1 96 2 view .LVU172
 723 00d8 0022     		movs	r2, #0
 724 00da 8121     		movs	r1, #129
 725 00dc 2046     		mov	r0, r4
 726 00de FFF7FEFF 		bl	Oled_TransmitByte
 727              	.LVL79:
  97:Dsp/screen/device/oled1306.c **** 	Oled_TransmitByte(Oled_Obj, 0xD9, Oled_Write_CMD);
 728              		.loc 1 97 2 view .LVU173
 729 00e2 0022     		movs	r2, #0
 730 00e4 EF21     		movs	r1, #239
 731 00e6 2046     		mov	r0, r4
 732 00e8 FFF7FEFF 		bl	Oled_TransmitByte
 733              	.LVL80:
  98:Dsp/screen/device/oled1306.c **** 	Oled_TransmitByte(Oled_Obj, 0xf1, Oled_Write_CMD);
 734              		.loc 1 98 2 view .LVU174
 735 00ec 0022     		movs	r2, #0
 736 00ee D921     		movs	r1, #217
 737 00f0 2046     		mov	r0, r4
 738 00f2 FFF7FEFF 		bl	Oled_TransmitByte
 739              	.LVL81:
  99:Dsp/screen/device/oled1306.c **** 	Oled_TransmitByte(Oled_Obj, 0xDB, Oled_Write_CMD);
 740              		.loc 1 99 2 view .LVU175
 741 00f6 0022     		movs	r2, #0
 742 00f8 F121     		movs	r1, #241
 743 00fa 2046     		mov	r0, r4
 744 00fc FFF7FEFF 		bl	Oled_TransmitByte
 745              	.LVL82:
 100:Dsp/screen/device/oled1306.c **** 	Oled_TransmitByte(Oled_Obj, 0x30, Oled_Write_CMD);
 746              		.loc 1 100 2 view .LVU176
 747 0100 0022     		movs	r2, #0
 748 0102 DB21     		movs	r1, #219
 749 0104 2046     		mov	r0, r4
ARM GAS  /var/folders/lx/hc4sn_b53233_zkc9xbbl97r0000gp/T//cc4W4OTW.s 			page 19


 750 0106 FFF7FEFF 		bl	Oled_TransmitByte
 751              	.LVL83:
 101:Dsp/screen/device/oled1306.c **** 
 752              		.loc 1 101 2 view .LVU177
 753 010a 0022     		movs	r2, #0
 754 010c 3021     		movs	r1, #48
 755 010e 2046     		mov	r0, r4
 756 0110 FFF7FEFF 		bl	Oled_TransmitByte
 757              	.LVL84:
 103:Dsp/screen/device/oled1306.c **** 	Oled_TransmitByte(Oled_Obj, 0xA6, Oled_Write_CMD);
 758              		.loc 1 103 2 view .LVU178
 759 0114 0022     		movs	r2, #0
 760 0116 A421     		movs	r1, #164
 761 0118 2046     		mov	r0, r4
 762 011a FFF7FEFF 		bl	Oled_TransmitByte
 763              	.LVL85:
 104:Dsp/screen/device/oled1306.c **** 	Oled_TransmitByte(Oled_Obj, 0xAF, Oled_Write_CMD);
 764              		.loc 1 104 2 view .LVU179
 765 011e 0022     		movs	r2, #0
 766 0120 A621     		movs	r1, #166
 767 0122 2046     		mov	r0, r4
 768 0124 FFF7FEFF 		bl	Oled_TransmitByte
 769              	.LVL86:
 105:Dsp/screen/device/oled1306.c **** 
 770              		.loc 1 105 2 view .LVU180
 771 0128 0022     		movs	r2, #0
 772 012a AF21     		movs	r1, #175
 773 012c 2046     		mov	r0, r4
 774 012e FFF7FEFF 		bl	Oled_TransmitByte
 775              	.LVL87:
 107:Dsp/screen/device/oled1306.c **** 
 776              		.loc 1 107 2 view .LVU181
 777 0132 2046     		mov	r0, r4
 778 0134 FFF7FEFF 		bl	Oled_Clear
 779              	.LVL88:
 109:Dsp/screen/device/oled1306.c **** }
 780              		.loc 1 109 2 view .LVU182
 110:Dsp/screen/device/oled1306.c **** 
 781              		.loc 1 110 1 is_stmt 0 view .LVU183
 782 0138 0120     		movs	r0, #1
 783 013a 10BD     		pop	{r4, pc}
 110:Dsp/screen/device/oled1306.c **** 
 784              		.loc 1 110 1 view .LVU184
 785              		.cfi_endproc
 786              	.LFE125:
 788              		.global	DrvOled
 789              		.global	OledDisable_CMD
 790              		.global	OledEnable_CMD
 791              		.section	.bss.blackboard,"aw",%nobits
 792              		.align	2
 793              		.set	.LANCHOR2,. + 0
 796              	blackboard:
 797 0000 00000000 		.space	1024
 797      00000000 
 797      00000000 
 797      00000000 
 797      00000000 
ARM GAS  /var/folders/lx/hc4sn_b53233_zkc9xbbl97r0000gp/T//cc4W4OTW.s 			page 20


 798              		.section	.data.DrvOled,"aw"
 799              		.align	2
 802              	DrvOled:
 803 0000 00000000 		.word	Oled_Init
 804 0004 00000000 		.word	Oled_EnableControl
 805 0008 00000000 		.word	Oled_Refresh
 806 000c 00000000 		.word	Oled_Clear
 807 0010 00000000 		.word	Oled_GetMax_Width
 808 0014 00000000 		.word	Oled_GetMax_Height
 809              		.section	.rodata.OledDisable_CMD,"a"
 810              		.align	2
 811              		.set	.LANCHOR0,. + 0
 814              	OledDisable_CMD:
 815 0000 10AE     		.ascii	"\020\256"
 816              		.section	.rodata.OledEnable_CMD,"a"
 817              		.align	2
 818              		.set	.LANCHOR1,. + 0
 821              	OledEnable_CMD:
 822 0000 14AF     		.ascii	"\024\257"
 823              		.text
 824              	.Letext0:
 825              		.file 2 "/usr/local/arm-none-eabi-gcc/gcc-arm-none-eabi-10-2020-q4-major/arm-none-eabi/include/mac
 826              		.file 3 "/usr/local/arm-none-eabi-gcc/gcc-arm-none-eabi-10-2020-q4-major/arm-none-eabi/include/sys
 827              		.file 4 "Dsp/screen/device/oled1306.h"
 828              		.file 5 "SYS/delay/delay.h"
ARM GAS  /var/folders/lx/hc4sn_b53233_zkc9xbbl97r0000gp/T//cc4W4OTW.s 			page 21


DEFINED SYMBOLS
                            *ABS*:0000000000000000 oled1306.c
/var/folders/lx/hc4sn_b53233_zkc9xbbl97r0000gp/T//cc4W4OTW.s:18     .text.Oled_TransmitByte:0000000000000000 $t
/var/folders/lx/hc4sn_b53233_zkc9xbbl97r0000gp/T//cc4W4OTW.s:25     .text.Oled_TransmitByte:0000000000000000 Oled_TransmitByte
/var/folders/lx/hc4sn_b53233_zkc9xbbl97r0000gp/T//cc4W4OTW.s:89     .text.Oled_EnableControl:0000000000000000 $t
/var/folders/lx/hc4sn_b53233_zkc9xbbl97r0000gp/T//cc4W4OTW.s:95     .text.Oled_EnableControl:0000000000000000 Oled_EnableControl
/var/folders/lx/hc4sn_b53233_zkc9xbbl97r0000gp/T//cc4W4OTW.s:170    .text.Oled_EnableControl:0000000000000030 $d
/var/folders/lx/hc4sn_b53233_zkc9xbbl97r0000gp/T//cc4W4OTW.s:176    .text.Oled_Clear:0000000000000000 $t
/var/folders/lx/hc4sn_b53233_zkc9xbbl97r0000gp/T//cc4W4OTW.s:182    .text.Oled_Clear:0000000000000000 Oled_Clear
/var/folders/lx/hc4sn_b53233_zkc9xbbl97r0000gp/T//cc4W4OTW.s:278    .text.Oled_GetMax_Width:0000000000000000 $t
/var/folders/lx/hc4sn_b53233_zkc9xbbl97r0000gp/T//cc4W4OTW.s:284    .text.Oled_GetMax_Width:0000000000000000 Oled_GetMax_Width
/var/folders/lx/hc4sn_b53233_zkc9xbbl97r0000gp/T//cc4W4OTW.s:299    .text.Oled_GetMax_Height:0000000000000000 $t
/var/folders/lx/hc4sn_b53233_zkc9xbbl97r0000gp/T//cc4W4OTW.s:305    .text.Oled_GetMax_Height:0000000000000000 Oled_GetMax_Height
/var/folders/lx/hc4sn_b53233_zkc9xbbl97r0000gp/T//cc4W4OTW.s:320    .text.Oled_MapUpdate:0000000000000000 $t
/var/folders/lx/hc4sn_b53233_zkc9xbbl97r0000gp/T//cc4W4OTW.s:326    .text.Oled_MapUpdate:0000000000000000 Oled_MapUpdate
/var/folders/lx/hc4sn_b53233_zkc9xbbl97r0000gp/T//cc4W4OTW.s:438    .text.Oled_MapUpdate:0000000000000060 $d
/var/folders/lx/hc4sn_b53233_zkc9xbbl97r0000gp/T//cc4W4OTW.s:443    .text.Oled_Refresh:0000000000000000 $t
/var/folders/lx/hc4sn_b53233_zkc9xbbl97r0000gp/T//cc4W4OTW.s:449    .text.Oled_Refresh:0000000000000000 Oled_Refresh
/var/folders/lx/hc4sn_b53233_zkc9xbbl97r0000gp/T//cc4W4OTW.s:556    .text.Oled_Refresh:0000000000000060 $d
/var/folders/lx/hc4sn_b53233_zkc9xbbl97r0000gp/T//cc4W4OTW.s:561    .text.Oled_Init:0000000000000000 $t
/var/folders/lx/hc4sn_b53233_zkc9xbbl97r0000gp/T//cc4W4OTW.s:567    .text.Oled_Init:0000000000000000 Oled_Init
/var/folders/lx/hc4sn_b53233_zkc9xbbl97r0000gp/T//cc4W4OTW.s:802    .data.DrvOled:0000000000000000 DrvOled
/var/folders/lx/hc4sn_b53233_zkc9xbbl97r0000gp/T//cc4W4OTW.s:814    .rodata.OledDisable_CMD:0000000000000000 OledDisable_CMD
/var/folders/lx/hc4sn_b53233_zkc9xbbl97r0000gp/T//cc4W4OTW.s:821    .rodata.OledEnable_CMD:0000000000000000 OledEnable_CMD
/var/folders/lx/hc4sn_b53233_zkc9xbbl97r0000gp/T//cc4W4OTW.s:792    .bss.blackboard:0000000000000000 $d
/var/folders/lx/hc4sn_b53233_zkc9xbbl97r0000gp/T//cc4W4OTW.s:796    .bss.blackboard:0000000000000000 blackboard
/var/folders/lx/hc4sn_b53233_zkc9xbbl97r0000gp/T//cc4W4OTW.s:799    .data.DrvOled:0000000000000000 $d
/var/folders/lx/hc4sn_b53233_zkc9xbbl97r0000gp/T//cc4W4OTW.s:810    .rodata.OledDisable_CMD:0000000000000000 $d
/var/folders/lx/hc4sn_b53233_zkc9xbbl97r0000gp/T//cc4W4OTW.s:817    .rodata.OledEnable_CMD:0000000000000000 $d

UNDEFINED SYMBOLS
delay_ms
