ARM GAS  /tmp/ccMOjsKl.s 			page 1


   1              		.cpu cortex-m4
   2              		.eabi_attribute 27, 1
   3              		.eabi_attribute 28, 1
   4              		.eabi_attribute 20, 1
   5              		.eabi_attribute 21, 1
   6              		.eabi_attribute 23, 3
   7              		.eabi_attribute 24, 1
   8              		.eabi_attribute 25, 1
   9              		.eabi_attribute 26, 1
  10              		.eabi_attribute 30, 1
  11              		.eabi_attribute 34, 1
  12              		.eabi_attribute 18, 4
  13              		.file	"oled1306.c"
  14              		.text
  15              	.Ltext0:
  16              		.cfi_sections	.debug_frame
  17              		.section	.text.Oled_TransmitByte,"ax",%progbits
  18              		.align	1
  19              		.arch armv7e-m
  20              		.syntax unified
  21              		.thumb
  22              		.thumb_func
  23              		.fpu fpv4-sp-d16
  25              	Oled_TransmitByte:
  26              	.LVL0:
  27              	.LFB123:
  28              		.file 1 "Dsp/screen/device/oled1306.c"
   1:Dsp/screen/device/oled1306.c **** #include "oled1306.h"
   2:Dsp/screen/device/oled1306.c **** #include "delay.h"
   3:Dsp/screen/device/oled1306.c **** 
   4:Dsp/screen/device/oled1306.c **** static Pixel_Block_TypeDef blackboard[OLED_MAX_WIDTH][COLUMN_SIZE];
   5:Dsp/screen/device/oled1306.c **** 
   6:Dsp/screen/device/oled1306.c **** /* const static variable */
   7:Dsp/screen/device/oled1306.c **** const uint8_t OledEnable_CMD[2] = {0X14, 0XAF};
   8:Dsp/screen/device/oled1306.c **** const uint8_t OledDisable_CMD[2] = {0X10, 0XAE};
   9:Dsp/screen/device/oled1306.c **** 
  10:Dsp/screen/device/oled1306.c **** /* external funtion for app or midware */
  11:Dsp/screen/device/oled1306.c **** static void Oled_EnableControl(Oled_Obj_TypeDef *Oled_Obj, Oled_Enable_State_List state);
  12:Dsp/screen/device/oled1306.c **** static bool Oled_Init(Oled_Obj_TypeDef *Oled_Obj);
  13:Dsp/screen/device/oled1306.c **** static void Oled_Clear(Oled_Obj_TypeDef *Oled_Obj);
  14:Dsp/screen/device/oled1306.c **** static bool Oled_MapUpdate(Oled_Obj_TypeDef *Oled_Obj, uint8_t **map);
  15:Dsp/screen/device/oled1306.c **** static uint8_t Oled_GetMax_Width(void);
  16:Dsp/screen/device/oled1306.c **** static uint8_t Oled_GetMax_Height(void);
  17:Dsp/screen/device/oled1306.c **** static bool Oled_Refresh(Oled_Obj_TypeDef *Oled_Obj, uint8_t **val);
  18:Dsp/screen/device/oled1306.c **** 
  19:Dsp/screen/device/oled1306.c **** /* internal function */
  20:Dsp/screen/device/oled1306.c **** static void Oled_TransmitByte(Oled_Obj_TypeDef *Oled_Obj, uint8_t data, Oled_Write_Type type);
  21:Dsp/screen/device/oled1306.c **** 
  22:Dsp/screen/device/oled1306.c **** Oled_GenProcFunc_TypeDef DrvOled = {
  23:Dsp/screen/device/oled1306.c **** 	.init = Oled_Init,
  24:Dsp/screen/device/oled1306.c **** 	.enable_set = Oled_EnableControl,
  25:Dsp/screen/device/oled1306.c **** 	.fresh = Oled_Refresh,
  26:Dsp/screen/device/oled1306.c **** 	.clear = Oled_Clear,
  27:Dsp/screen/device/oled1306.c **** 	.get_max_height = Oled_GetMax_Height,
  28:Dsp/screen/device/oled1306.c **** 	.get_max_width = Oled_GetMax_Width,
  29:Dsp/screen/device/oled1306.c **** };
  30:Dsp/screen/device/oled1306.c **** 
ARM GAS  /tmp/ccMOjsKl.s 			page 2


  31:Dsp/screen/device/oled1306.c **** /* device Bsp IO SPI_Bus correspond control Function */
  32:Dsp/screen/device/oled1306.c **** static void Oled_TransmitByte(Oled_Obj_TypeDef *Oled_Obj, uint8_t data, Oled_Write_Type type)
  33:Dsp/screen/device/oled1306.c **** {
  29              		.loc 1 33 1 view -0
  30              		.cfi_startproc
  31              		@ args = 0, pretend = 0, frame = 0
  32              		@ frame_needed = 0, uses_anonymous_args = 0
  33              		.loc 1 33 1 is_stmt 0 view .LVU1
  34 0000 38B5     		push	{r3, r4, r5, lr}
  35              	.LCFI0:
  36              		.cfi_def_cfa_offset 16
  37              		.cfi_offset 3, -16
  38              		.cfi_offset 4, -12
  39              		.cfi_offset 5, -8
  40              		.cfi_offset 14, -4
  41 0002 0446     		mov	r4, r0
  42 0004 0D46     		mov	r5, r1
  34:Dsp/screen/device/oled1306.c **** 	if (type == Oled_Write_CMD)
  43              		.loc 1 34 2 is_stmt 1 view .LVU2
  44              		.loc 1 34 5 is_stmt 0 view .LVU3
  45 0006 4AB9     		cbnz	r2, .L2
  35:Dsp/screen/device/oled1306.c **** 	{
  36:Dsp/screen/device/oled1306.c **** 		Oled_Obj->rs_ctl(Oled_RS_Disable);
  46              		.loc 1 36 3 is_stmt 1 view .LVU4
  47              		.loc 1 36 11 is_stmt 0 view .LVU5
  48 0008 C368     		ldr	r3, [r0, #12]
  49              		.loc 1 36 3 view .LVU6
  50 000a 0120     		movs	r0, #1
  51              	.LVL1:
  52              		.loc 1 36 3 view .LVU7
  53 000c 9847     		blx	r3
  54              	.LVL2:
  55              	.L3:
  37:Dsp/screen/device/oled1306.c **** 	}
  38:Dsp/screen/device/oled1306.c **** 	else
  39:Dsp/screen/device/oled1306.c **** 		Oled_Obj->rs_ctl(Oled_RS_Enable);
  40:Dsp/screen/device/oled1306.c **** 
  41:Dsp/screen/device/oled1306.c **** 	Oled_Obj->bus_transmit(data);
  56              		.loc 1 41 2 is_stmt 1 view .LVU8
  57              		.loc 1 41 10 is_stmt 0 view .LVU9
  58 000e A369     		ldr	r3, [r4, #24]
  59              		.loc 1 41 2 view .LVU10
  60 0010 2846     		mov	r0, r5
  61 0012 9847     		blx	r3
  62              	.LVL3:
  42:Dsp/screen/device/oled1306.c **** 
  43:Dsp/screen/device/oled1306.c **** 	Oled_Obj->rs_ctl(Oled_RS_Disable);
  63              		.loc 1 43 2 is_stmt 1 view .LVU11
  64              		.loc 1 43 10 is_stmt 0 view .LVU12
  65 0014 E368     		ldr	r3, [r4, #12]
  66              		.loc 1 43 2 view .LVU13
  67 0016 0120     		movs	r0, #1
  68 0018 9847     		blx	r3
  69              	.LVL4:
  44:Dsp/screen/device/oled1306.c **** }
  70              		.loc 1 44 1 view .LVU14
  71 001a 38BD     		pop	{r3, r4, r5, pc}
ARM GAS  /tmp/ccMOjsKl.s 			page 3


  72              	.LVL5:
  73              	.L2:
  39:Dsp/screen/device/oled1306.c **** 
  74              		.loc 1 39 3 is_stmt 1 view .LVU15
  39:Dsp/screen/device/oled1306.c **** 
  75              		.loc 1 39 11 is_stmt 0 view .LVU16
  76 001c C368     		ldr	r3, [r0, #12]
  39:Dsp/screen/device/oled1306.c **** 
  77              		.loc 1 39 3 view .LVU17
  78 001e 0020     		movs	r0, #0
  79              	.LVL6:
  39:Dsp/screen/device/oled1306.c **** 
  80              		.loc 1 39 3 view .LVU18
  81 0020 9847     		blx	r3
  82              	.LVL7:
  39:Dsp/screen/device/oled1306.c **** 
  83              		.loc 1 39 3 view .LVU19
  84 0022 F4E7     		b	.L3
  85              		.cfi_endproc
  86              	.LFE123:
  88              		.section	.text.Oled_EnableControl,"ax",%progbits
  89              		.align	1
  90              		.syntax unified
  91              		.thumb
  92              		.thumb_func
  93              		.fpu fpv4-sp-d16
  95              	Oled_EnableControl:
  96              	.LVL8:
  97              	.LFB124:
  45:Dsp/screen/device/oled1306.c **** 
  46:Dsp/screen/device/oled1306.c **** static void Oled_EnableControl(Oled_Obj_TypeDef *Oled_Obj, Oled_Enable_State_List state)
  47:Dsp/screen/device/oled1306.c **** {
  98              		.loc 1 47 1 is_stmt 1 view -0
  99              		.cfi_startproc
 100              		@ args = 0, pretend = 0, frame = 0
 101              		@ frame_needed = 0, uses_anonymous_args = 0
 102              		.loc 1 47 1 is_stmt 0 view .LVU21
 103 0000 38B5     		push	{r3, r4, r5, lr}
 104              	.LCFI1:
 105              		.cfi_def_cfa_offset 16
 106              		.cfi_offset 3, -16
 107              		.cfi_offset 4, -12
 108              		.cfi_offset 5, -8
 109              		.cfi_offset 14, -4
 110 0002 0546     		mov	r5, r0
  48:Dsp/screen/device/oled1306.c **** 	uint8_t *Enb_CMD_Buff;
 111              		.loc 1 48 2 is_stmt 1 view .LVU22
  49:Dsp/screen/device/oled1306.c **** 	Oled_TransmitByte(Oled_Obj, 0X8D, Oled_Write_CMD);
 112              		.loc 1 49 2 view .LVU23
 113 0004 0022     		movs	r2, #0
 114 0006 8D21     		movs	r1, #141
 115              	.LVL9:
 116              		.loc 1 49 2 is_stmt 0 view .LVU24
 117 0008 FFF7FEFF 		bl	Oled_TransmitByte
 118              	.LVL10:
  50:Dsp/screen/device/oled1306.c **** 
  51:Dsp/screen/device/oled1306.c **** 	if (state == Oled_Display_Enable)
ARM GAS  /tmp/ccMOjsKl.s 			page 4


 119              		.loc 1 51 2 is_stmt 1 view .LVU25
 120              	.LBB2:
  52:Dsp/screen/device/oled1306.c **** 	{
  53:Dsp/screen/device/oled1306.c **** 		Enb_CMD_Buff = (uint8_t *)OledEnable_CMD;
  54:Dsp/screen/device/oled1306.c **** 	}
  55:Dsp/screen/device/oled1306.c **** 	else
  56:Dsp/screen/device/oled1306.c **** 		Enb_CMD_Buff = (uint8_t *)OledDisable_CMD;
  57:Dsp/screen/device/oled1306.c **** 
  58:Dsp/screen/device/oled1306.c **** 	for (uint8_t i = 0; i < sizeof(OledEnable_CMD); i++)
 121              		.loc 1 58 15 is_stmt 0 view .LVU26
 122 000c 0024     		movs	r4, #0
 123              	.LBE2:
 124 000e 07E0     		b	.L6
 125              	.LVL11:
 126              	.L7:
 127              	.LBB3:
  59:Dsp/screen/device/oled1306.c **** 	{
  60:Dsp/screen/device/oled1306.c **** 		Oled_TransmitByte(Oled_Obj, OledEnable_CMD[i], Oled_Write_CMD);
 128              		.loc 1 60 3 is_stmt 1 discriminator 3 view .LVU27
 129 0010 0022     		movs	r2, #0
 130 0012 054B     		ldr	r3, .L9
 131 0014 195D     		ldrb	r1, [r3, r4]	@ zero_extendqisi2
 132 0016 2846     		mov	r0, r5
 133 0018 FFF7FEFF 		bl	Oled_TransmitByte
 134              	.LVL12:
  58:Dsp/screen/device/oled1306.c **** 	{
 135              		.loc 1 58 51 is_stmt 0 discriminator 3 view .LVU28
 136 001c 0134     		adds	r4, r4, #1
 137              	.LVL13:
  58:Dsp/screen/device/oled1306.c **** 	{
 138              		.loc 1 58 51 discriminator 3 view .LVU29
 139 001e E4B2     		uxtb	r4, r4
 140              	.LVL14:
 141              	.L6:
  58:Dsp/screen/device/oled1306.c **** 	{
 142              		.loc 1 58 2 discriminator 1 view .LVU30
 143 0020 012C     		cmp	r4, #1
 144 0022 F5D9     		bls	.L7
 145              	.LBE3:
  61:Dsp/screen/device/oled1306.c **** 	}
  62:Dsp/screen/device/oled1306.c **** }
 146              		.loc 1 62 1 view .LVU31
 147 0024 38BD     		pop	{r3, r4, r5, pc}
 148              	.LVL15:
 149              	.L10:
 150              		.loc 1 62 1 view .LVU32
 151 0026 00BF     		.align	2
 152              	.L9:
 153 0028 00000000 		.word	.LANCHOR0
 154              		.cfi_endproc
 155              	.LFE124:
 157              		.section	.text.Oled_Clear,"ax",%progbits
 158              		.align	1
 159              		.syntax unified
 160              		.thumb
 161              		.thumb_func
 162              		.fpu fpv4-sp-d16
ARM GAS  /tmp/ccMOjsKl.s 			page 5


 164              	Oled_Clear:
 165              	.LVL16:
 166              	.LFB127:
  63:Dsp/screen/device/oled1306.c **** 
  64:Dsp/screen/device/oled1306.c **** static bool Oled_Init(Oled_Obj_TypeDef *Oled_Obj)
  65:Dsp/screen/device/oled1306.c **** {
  66:Dsp/screen/device/oled1306.c **** 	Oled_Obj->bus_init(Oled_Obj->BusID);
  67:Dsp/screen/device/oled1306.c **** 	Oled_Obj->dc_init();
  68:Dsp/screen/device/oled1306.c **** 	Oled_Obj->rs_init();
  69:Dsp/screen/device/oled1306.c **** 
  70:Dsp/screen/device/oled1306.c **** 	Oled_Obj->rs_ctl(Oled_RS_Disable);
  71:Dsp/screen/device/oled1306.c **** 	delay_ms(100);
  72:Dsp/screen/device/oled1306.c **** 	Oled_Obj->rs_ctl(Oled_RS_Enable);
  73:Dsp/screen/device/oled1306.c **** 
  74:Dsp/screen/device/oled1306.c **** 	Oled_TransmitByte(Oled_Obj, 0xAE, Oled_Write_CMD);
  75:Dsp/screen/device/oled1306.c **** 	Oled_TransmitByte(Oled_Obj, 0xD5, Oled_Write_CMD);
  76:Dsp/screen/device/oled1306.c **** 	Oled_TransmitByte(Oled_Obj, 80, Oled_Write_CMD);
  77:Dsp/screen/device/oled1306.c **** 	Oled_TransmitByte(Oled_Obj, 0xA8, Oled_Write_CMD);
  78:Dsp/screen/device/oled1306.c **** 	Oled_TransmitByte(Oled_Obj, 0X3F, Oled_Write_CMD);
  79:Dsp/screen/device/oled1306.c **** 	Oled_TransmitByte(Oled_Obj, 0xD3, Oled_Write_CMD);
  80:Dsp/screen/device/oled1306.c **** 	Oled_TransmitByte(Oled_Obj, 0X00, Oled_Write_CMD);
  81:Dsp/screen/device/oled1306.c **** 
  82:Dsp/screen/device/oled1306.c **** 	Oled_TransmitByte(Oled_Obj, 0x40, Oled_Write_CMD);
  83:Dsp/screen/device/oled1306.c **** 
  84:Dsp/screen/device/oled1306.c **** 	Oled_TransmitByte(Oled_Obj, 0x8D, Oled_Write_CMD);
  85:Dsp/screen/device/oled1306.c **** 	Oled_TransmitByte(Oled_Obj, 0x14, Oled_Write_CMD);
  86:Dsp/screen/device/oled1306.c **** 	Oled_TransmitByte(Oled_Obj, 0x14, Oled_Write_CMD);
  87:Dsp/screen/device/oled1306.c **** 	Oled_TransmitByte(Oled_Obj, 0x20, Oled_Write_CMD);
  88:Dsp/screen/device/oled1306.c **** 	Oled_TransmitByte(Oled_Obj, 0x02, Oled_Write_CMD);
  89:Dsp/screen/device/oled1306.c **** 
  90:Dsp/screen/device/oled1306.c **** 	Oled_TransmitByte(Oled_Obj, 0xA0, Oled_Write_CMD);
  91:Dsp/screen/device/oled1306.c **** 	Oled_TransmitByte(Oled_Obj, 0xC8, Oled_Write_CMD);
  92:Dsp/screen/device/oled1306.c **** 
  93:Dsp/screen/device/oled1306.c **** 	Oled_TransmitByte(Oled_Obj, 0xDA, Oled_Write_CMD);
  94:Dsp/screen/device/oled1306.c **** 	Oled_TransmitByte(Oled_Obj, 0x12, Oled_Write_CMD);
  95:Dsp/screen/device/oled1306.c **** 
  96:Dsp/screen/device/oled1306.c **** 	Oled_TransmitByte(Oled_Obj, 0x81, Oled_Write_CMD);
  97:Dsp/screen/device/oled1306.c **** 	Oled_TransmitByte(Oled_Obj, 0xEF, Oled_Write_CMD);
  98:Dsp/screen/device/oled1306.c **** 	Oled_TransmitByte(Oled_Obj, 0xD9, Oled_Write_CMD);
  99:Dsp/screen/device/oled1306.c **** 	Oled_TransmitByte(Oled_Obj, 0xf1, Oled_Write_CMD);
 100:Dsp/screen/device/oled1306.c **** 	Oled_TransmitByte(Oled_Obj, 0xDB, Oled_Write_CMD);
 101:Dsp/screen/device/oled1306.c **** 	Oled_TransmitByte(Oled_Obj, 0x30, Oled_Write_CMD);
 102:Dsp/screen/device/oled1306.c **** 
 103:Dsp/screen/device/oled1306.c **** 	Oled_TransmitByte(Oled_Obj, 0xA4, Oled_Write_CMD);
 104:Dsp/screen/device/oled1306.c **** 	Oled_TransmitByte(Oled_Obj, 0xA6, Oled_Write_CMD);
 105:Dsp/screen/device/oled1306.c **** 	Oled_TransmitByte(Oled_Obj, 0xAF, Oled_Write_CMD);
 106:Dsp/screen/device/oled1306.c **** 
 107:Dsp/screen/device/oled1306.c **** 	Oled_Clear(Oled_Obj);
 108:Dsp/screen/device/oled1306.c **** 
 109:Dsp/screen/device/oled1306.c **** 	return true;
 110:Dsp/screen/device/oled1306.c **** }
 111:Dsp/screen/device/oled1306.c **** 
 112:Dsp/screen/device/oled1306.c **** static bool Oled_Refresh(Oled_Obj_TypeDef *Oled_Obj, uint8_t **val)
 113:Dsp/screen/device/oled1306.c **** {
 114:Dsp/screen/device/oled1306.c **** 	//update pixel map
 115:Dsp/screen/device/oled1306.c **** 	if (!Oled_MapUpdate(Oled_Obj, val))
 116:Dsp/screen/device/oled1306.c **** 	{
ARM GAS  /tmp/ccMOjsKl.s 			page 6


 117:Dsp/screen/device/oled1306.c **** 		return false;
 118:Dsp/screen/device/oled1306.c **** 	}
 119:Dsp/screen/device/oled1306.c **** 
 120:Dsp/screen/device/oled1306.c **** 	for (uint8_t c = 0; c < OLED_COLUMN_BLOCK_NUM; c++)
 121:Dsp/screen/device/oled1306.c **** 	{
 122:Dsp/screen/device/oled1306.c **** 		Oled_TransmitByte(Oled_Obj, (0xb0 + c), Oled_Write_CMD);
 123:Dsp/screen/device/oled1306.c **** 		Oled_TransmitByte(Oled_Obj, 0x00, Oled_Write_CMD);
 124:Dsp/screen/device/oled1306.c **** 		Oled_TransmitByte(Oled_Obj, 0x10, Oled_Write_CMD);
 125:Dsp/screen/device/oled1306.c **** 
 126:Dsp/screen/device/oled1306.c **** 		//can use spi dma for transmit
 127:Dsp/screen/device/oled1306.c **** 		for (uint8_t r = 0; r < OLED_MAX_WIDTH; r++)
 128:Dsp/screen/device/oled1306.c **** 		{
 129:Dsp/screen/device/oled1306.c **** 			Oled_TransmitByte(Oled_Obj, blackboard[r][c].val, Oled_Write_CMD);
 130:Dsp/screen/device/oled1306.c **** 		}
 131:Dsp/screen/device/oled1306.c **** 	}
 132:Dsp/screen/device/oled1306.c **** 
 133:Dsp/screen/device/oled1306.c **** 	return true;
 134:Dsp/screen/device/oled1306.c **** }
 135:Dsp/screen/device/oled1306.c **** 
 136:Dsp/screen/device/oled1306.c **** static void Oled_Clear(Oled_Obj_TypeDef *Oled_Obj)
 137:Dsp/screen/device/oled1306.c **** {
 167              		.loc 1 137 1 is_stmt 1 view -0
 168              		.cfi_startproc
 169              		@ args = 0, pretend = 0, frame = 0
 170              		@ frame_needed = 0, uses_anonymous_args = 0
 171              		.loc 1 137 1 is_stmt 0 view .LVU34
 172 0000 70B5     		push	{r4, r5, r6, lr}
 173              	.LCFI2:
 174              		.cfi_def_cfa_offset 16
 175              		.cfi_offset 4, -16
 176              		.cfi_offset 5, -12
 177              		.cfi_offset 6, -8
 178              		.cfi_offset 14, -4
 179 0002 0546     		mov	r5, r0
 138:Dsp/screen/device/oled1306.c **** 	for (uint8_t c = 0; c < OLED_COLUMN_BLOCK_NUM; c++)
 180              		.loc 1 138 2 is_stmt 1 view .LVU35
 181              	.LBB4:
 182              		.loc 1 138 7 view .LVU36
 183              	.LVL17:
 184              		.loc 1 138 15 is_stmt 0 view .LVU37
 185 0004 0026     		movs	r6, #0
 186              		.loc 1 138 2 view .LVU38
 187 0006 01E0     		b	.L12
 188              	.LVL18:
 189              	.L18:
 190              		.loc 1 138 50 discriminator 2 view .LVU39
 191 0008 0136     		adds	r6, r6, #1
 192              	.LVL19:
 193              		.loc 1 138 50 discriminator 2 view .LVU40
 194 000a F6B2     		uxtb	r6, r6
 195              	.LVL20:
 196              	.L12:
 197              		.loc 1 138 2 discriminator 1 view .LVU41
 198 000c 072E     		cmp	r6, #7
 199 000e 1CD8     		bhi	.L17
 139:Dsp/screen/device/oled1306.c **** 	{
 140:Dsp/screen/device/oled1306.c **** 		Oled_TransmitByte(Oled_Obj, (0xb0 + c), Oled_Write_CMD);
ARM GAS  /tmp/ccMOjsKl.s 			page 7


 200              		.loc 1 140 3 is_stmt 1 view .LVU42
 201 0010 A6F15001 		sub	r1, r6, #80
 202 0014 0022     		movs	r2, #0
 203 0016 C9B2     		uxtb	r1, r1
 204 0018 2846     		mov	r0, r5
 205 001a FFF7FEFF 		bl	Oled_TransmitByte
 206              	.LVL21:
 141:Dsp/screen/device/oled1306.c **** 		Oled_TransmitByte(Oled_Obj, 0x00, Oled_Write_CMD);
 207              		.loc 1 141 3 view .LVU43
 208 001e 0022     		movs	r2, #0
 209 0020 1146     		mov	r1, r2
 210 0022 2846     		mov	r0, r5
 211 0024 FFF7FEFF 		bl	Oled_TransmitByte
 212              	.LVL22:
 142:Dsp/screen/device/oled1306.c **** 		Oled_TransmitByte(Oled_Obj, 0x10, Oled_Write_CMD);
 213              		.loc 1 142 3 view .LVU44
 214 0028 0022     		movs	r2, #0
 215 002a 1021     		movs	r1, #16
 216 002c 2846     		mov	r0, r5
 217 002e FFF7FEFF 		bl	Oled_TransmitByte
 218              	.LVL23:
 143:Dsp/screen/device/oled1306.c **** 
 144:Dsp/screen/device/oled1306.c **** 		for (uint8_t r = 0; r < OLED_MAX_WIDTH; r++)
 219              		.loc 1 144 3 view .LVU45
 220              	.LBB5:
 221              		.loc 1 144 8 view .LVU46
 222              		.loc 1 144 16 is_stmt 0 view .LVU47
 223 0032 0024     		movs	r4, #0
 224              	.LVL24:
 225              	.L13:
 226              		.loc 1 144 3 discriminator 1 view .LVU48
 227 0034 14F0800F 		tst	r4, #128
 228 0038 E6D1     		bne	.L18
 145:Dsp/screen/device/oled1306.c **** 		{
 146:Dsp/screen/device/oled1306.c **** 			Oled_TransmitByte(Oled_Obj, 0x00, Oled_Write_CMD);
 229              		.loc 1 146 4 is_stmt 1 discriminator 3 view .LVU49
 230 003a 0022     		movs	r2, #0
 231 003c 1146     		mov	r1, r2
 232 003e 2846     		mov	r0, r5
 233 0040 FFF7FEFF 		bl	Oled_TransmitByte
 234              	.LVL25:
 144:Dsp/screen/device/oled1306.c **** 		{
 235              		.loc 1 144 44 is_stmt 0 discriminator 3 view .LVU50
 236 0044 0134     		adds	r4, r4, #1
 237              	.LVL26:
 144:Dsp/screen/device/oled1306.c **** 		{
 238              		.loc 1 144 44 discriminator 3 view .LVU51
 239 0046 E4B2     		uxtb	r4, r4
 240              	.LVL27:
 144:Dsp/screen/device/oled1306.c **** 		{
 241              		.loc 1 144 44 discriminator 3 view .LVU52
 242 0048 F4E7     		b	.L13
 243              	.LVL28:
 244              	.L17:
 144:Dsp/screen/device/oled1306.c **** 		{
 245              		.loc 1 144 44 discriminator 3 view .LVU53
 246              	.LBE5:
ARM GAS  /tmp/ccMOjsKl.s 			page 8


 247              	.LBE4:
 147:Dsp/screen/device/oled1306.c **** 		}
 148:Dsp/screen/device/oled1306.c **** 	}
 149:Dsp/screen/device/oled1306.c **** }
 248              		.loc 1 149 1 view .LVU54
 249 004a 70BD     		pop	{r4, r5, r6, pc}
 250              		.loc 1 149 1 view .LVU55
 251              		.cfi_endproc
 252              	.LFE127:
 254              		.section	.text.Oled_GetMax_Width,"ax",%progbits
 255              		.align	1
 256              		.syntax unified
 257              		.thumb
 258              		.thumb_func
 259              		.fpu fpv4-sp-d16
 261              	Oled_GetMax_Width:
 262              	.LFB128:
 150:Dsp/screen/device/oled1306.c **** 
 151:Dsp/screen/device/oled1306.c **** static uint8_t Oled_GetMax_Width(void)
 152:Dsp/screen/device/oled1306.c **** {
 263              		.loc 1 152 1 is_stmt 1 view -0
 264              		.cfi_startproc
 265              		@ args = 0, pretend = 0, frame = 0
 266              		@ frame_needed = 0, uses_anonymous_args = 0
 267              		@ link register save eliminated.
 153:Dsp/screen/device/oled1306.c **** 	return OLED_MAX_WIDTH;
 268              		.loc 1 153 2 view .LVU57
 154:Dsp/screen/device/oled1306.c **** }
 269              		.loc 1 154 1 is_stmt 0 view .LVU58
 270 0000 8020     		movs	r0, #128
 271 0002 7047     		bx	lr
 272              		.cfi_endproc
 273              	.LFE128:
 275              		.section	.text.Oled_GetMax_Height,"ax",%progbits
 276              		.align	1
 277              		.syntax unified
 278              		.thumb
 279              		.thumb_func
 280              		.fpu fpv4-sp-d16
 282              	Oled_GetMax_Height:
 283              	.LFB129:
 155:Dsp/screen/device/oled1306.c **** 
 156:Dsp/screen/device/oled1306.c **** static uint8_t Oled_GetMax_Height(void)
 157:Dsp/screen/device/oled1306.c **** {
 284              		.loc 1 157 1 is_stmt 1 view -0
 285              		.cfi_startproc
 286              		@ args = 0, pretend = 0, frame = 0
 287              		@ frame_needed = 0, uses_anonymous_args = 0
 288              		@ link register save eliminated.
 158:Dsp/screen/device/oled1306.c **** 	return OLED_MAX_HEIGHT;
 289              		.loc 1 158 2 view .LVU60
 159:Dsp/screen/device/oled1306.c **** }
 290              		.loc 1 159 1 is_stmt 0 view .LVU61
 291 0000 4020     		movs	r0, #64
 292 0002 7047     		bx	lr
 293              		.cfi_endproc
 294              	.LFE129:
ARM GAS  /tmp/ccMOjsKl.s 			page 9


 296              		.section	.text.Oled_MapUpdate,"ax",%progbits
 297              		.align	1
 298              		.syntax unified
 299              		.thumb
 300              		.thumb_func
 301              		.fpu fpv4-sp-d16
 303              	Oled_MapUpdate:
 304              	.LVL29:
 305              	.LFB130:
 160:Dsp/screen/device/oled1306.c **** 
 161:Dsp/screen/device/oled1306.c **** static bool Oled_MapUpdate(Oled_Obj_TypeDef *Oled_Obj, uint8_t **map)
 162:Dsp/screen/device/oled1306.c **** {
 306              		.loc 1 162 1 is_stmt 1 view -0
 307              		.cfi_startproc
 308              		@ args = 0, pretend = 0, frame = 0
 309              		@ frame_needed = 0, uses_anonymous_args = 0
 310              		@ link register save eliminated.
 163:Dsp/screen/device/oled1306.c **** 	if ((Oled_Obj == NULL) || (map == NULL))
 311              		.loc 1 163 2 view .LVU63
 312              		.loc 1 163 5 is_stmt 0 view .LVU64
 313 0000 F8B1     		cbz	r0, .L26
 314              		.loc 1 163 25 discriminator 1 view .LVU65
 315 0002 01B3     		cbz	r1, .L27
 162:Dsp/screen/device/oled1306.c **** 	if ((Oled_Obj == NULL) || (map == NULL))
 316              		.loc 1 162 1 view .LVU66
 317 0004 70B4     		push	{r4, r5, r6}
 318              	.LCFI3:
 319              		.cfi_def_cfa_offset 12
 320              		.cfi_offset 4, -12
 321              		.cfi_offset 5, -8
 322              		.cfi_offset 6, -4
 323              	.LBB6:
 164:Dsp/screen/device/oled1306.c **** 		return false;
 165:Dsp/screen/device/oled1306.c **** 
 166:Dsp/screen/device/oled1306.c **** 	for (uint8_t row_index = 0; row_index < OLED_MAX_WIDTH; row_index++)
 324              		.loc 1 166 15 view .LVU67
 325 0006 0026     		movs	r6, #0
 326 0008 13E0     		b	.L23
 327              	.LVL30:
 328              	.L24:
 329              	.LBB7:
 167:Dsp/screen/device/oled1306.c **** 	{
 168:Dsp/screen/device/oled1306.c **** 		for (uint8_t column_index = 0; column_index < OLED_MAX_HEIGHT; column_index++)
 169:Dsp/screen/device/oled1306.c **** 		{
 170:Dsp/screen/device/oled1306.c **** 			blackboard[row_index][column_index / COLUMN_SIZE].val |= map[row_index][column_index] << (column
 330              		.loc 1 170 4 is_stmt 1 discriminator 3 view .LVU68
 331              		.loc 1 170 58 is_stmt 0 discriminator 3 view .LVU69
 332 000a DD08     		lsrs	r5, r3, #3
 333              		.loc 1 170 64 discriminator 3 view .LVU70
 334 000c 51F82620 		ldr	r2, [r1, r6, lsl #2]
 335              		.loc 1 170 75 discriminator 3 view .LVU71
 336 0010 D05C     		ldrb	r0, [r2, r3]	@ zero_extendqisi2
 337              		.loc 1 170 107 discriminator 3 view .LVU72
 338 0012 03F00704 		and	r4, r3, #7
 339              		.loc 1 170 90 discriminator 3 view .LVU73
 340 0016 00FA04F4 		lsl	r4, r0, r4
 341              		.loc 1 170 58 discriminator 3 view .LVU74
ARM GAS  /tmp/ccMOjsKl.s 			page 10


 342 001a 0C4A     		ldr	r2, .L34
 343 001c 02EBC602 		add	r2, r2, r6, lsl #3
 344 0020 505D     		ldrb	r0, [r2, r5]	@ zero_extendqisi2
 345 0022 2043     		orrs	r0, r0, r4
 346 0024 5055     		strb	r0, [r2, r5]
 168:Dsp/screen/device/oled1306.c **** 		{
 347              		.loc 1 168 78 discriminator 3 view .LVU75
 348 0026 0133     		adds	r3, r3, #1
 349              	.LVL31:
 168:Dsp/screen/device/oled1306.c **** 		{
 350              		.loc 1 168 78 discriminator 3 view .LVU76
 351 0028 DBB2     		uxtb	r3, r3
 352              	.LVL32:
 353              	.L25:
 168:Dsp/screen/device/oled1306.c **** 		{
 354              		.loc 1 168 3 discriminator 1 view .LVU77
 355 002a 3F2B     		cmp	r3, #63
 356 002c EDD9     		bls	.L24
 357              	.LBE7:
 166:Dsp/screen/device/oled1306.c **** 	{
 358              		.loc 1 166 67 discriminator 2 view .LVU78
 359 002e 0136     		adds	r6, r6, #1
 360              	.LVL33:
 166:Dsp/screen/device/oled1306.c **** 	{
 361              		.loc 1 166 67 discriminator 2 view .LVU79
 362 0030 F6B2     		uxtb	r6, r6
 363              	.LVL34:
 364              	.L23:
 166:Dsp/screen/device/oled1306.c **** 	{
 365              		.loc 1 166 2 discriminator 1 view .LVU80
 366 0032 16F0800F 		tst	r6, #128
 367 0036 01D1     		bne	.L33
 368              	.LBB8:
 168:Dsp/screen/device/oled1306.c **** 		{
 369              		.loc 1 168 16 view .LVU81
 370 0038 0023     		movs	r3, #0
 371 003a F6E7     		b	.L25
 372              	.L33:
 373              	.LBE8:
 374              	.LBE6:
 171:Dsp/screen/device/oled1306.c **** 		}
 172:Dsp/screen/device/oled1306.c **** 	}
 173:Dsp/screen/device/oled1306.c **** 	return true;
 375              		.loc 1 173 9 view .LVU82
 376 003c 0120     		movs	r0, #1
 174:Dsp/screen/device/oled1306.c **** }
 377              		.loc 1 174 1 view .LVU83
 378 003e 70BC     		pop	{r4, r5, r6}
 379              	.LCFI4:
 380              		.cfi_restore 6
 381              		.cfi_restore 5
 382              		.cfi_restore 4
 383              		.cfi_def_cfa_offset 0
 384              	.LVL35:
 385              		.loc 1 174 1 view .LVU84
 386 0040 7047     		bx	lr
 387              	.LVL36:
ARM GAS  /tmp/ccMOjsKl.s 			page 11


 388              	.L26:
 164:Dsp/screen/device/oled1306.c **** 
 389              		.loc 1 164 10 view .LVU85
 390 0042 0020     		movs	r0, #0
 391              	.LVL37:
 164:Dsp/screen/device/oled1306.c **** 
 392              		.loc 1 164 10 view .LVU86
 393 0044 7047     		bx	lr
 394              	.LVL38:
 395              	.L27:
 164:Dsp/screen/device/oled1306.c **** 
 396              		.loc 1 164 10 view .LVU87
 397 0046 0020     		movs	r0, #0
 398              	.LVL39:
 399              		.loc 1 174 1 view .LVU88
 400 0048 7047     		bx	lr
 401              	.L35:
 402 004a 00BF     		.align	2
 403              	.L34:
 404 004c 00000000 		.word	.LANCHOR1
 405              		.cfi_endproc
 406              	.LFE130:
 408              		.section	.text.Oled_Refresh,"ax",%progbits
 409              		.align	1
 410              		.syntax unified
 411              		.thumb
 412              		.thumb_func
 413              		.fpu fpv4-sp-d16
 415              	Oled_Refresh:
 416              	.LVL40:
 417              	.LFB126:
 113:Dsp/screen/device/oled1306.c **** 	//update pixel map
 418              		.loc 1 113 1 is_stmt 1 view -0
 419              		.cfi_startproc
 420              		@ args = 0, pretend = 0, frame = 0
 421              		@ frame_needed = 0, uses_anonymous_args = 0
 113:Dsp/screen/device/oled1306.c **** 	//update pixel map
 422              		.loc 1 113 1 is_stmt 0 view .LVU90
 423 0000 F8B5     		push	{r3, r4, r5, r6, r7, lr}
 424              	.LCFI5:
 425              		.cfi_def_cfa_offset 24
 426              		.cfi_offset 3, -24
 427              		.cfi_offset 4, -20
 428              		.cfi_offset 5, -16
 429              		.cfi_offset 6, -12
 430              		.cfi_offset 7, -8
 431              		.cfi_offset 14, -4
 432 0002 0646     		mov	r6, r0
 115:Dsp/screen/device/oled1306.c **** 	{
 433              		.loc 1 115 2 is_stmt 1 view .LVU91
 115:Dsp/screen/device/oled1306.c **** 	{
 434              		.loc 1 115 7 is_stmt 0 view .LVU92
 435 0004 FFF7FEFF 		bl	Oled_MapUpdate
 436              	.LVL41:
 115:Dsp/screen/device/oled1306.c **** 	{
 437              		.loc 1 115 5 view .LVU93
 438 0008 0746     		mov	r7, r0
ARM GAS  /tmp/ccMOjsKl.s 			page 12


 439 000a 28B3     		cbz	r0, .L38
 440              	.LBB9:
 120:Dsp/screen/device/oled1306.c **** 	{
 441              		.loc 1 120 15 view .LVU94
 442 000c 0025     		movs	r5, #0
 443 000e 01E0     		b	.L37
 444              	.LVL42:
 445              	.L44:
 120:Dsp/screen/device/oled1306.c **** 	{
 446              		.loc 1 120 50 discriminator 2 view .LVU95
 447 0010 0135     		adds	r5, r5, #1
 448              	.LVL43:
 120:Dsp/screen/device/oled1306.c **** 	{
 449              		.loc 1 120 50 discriminator 2 view .LVU96
 450 0012 EDB2     		uxtb	r5, r5
 451              	.LVL44:
 452              	.L37:
 120:Dsp/screen/device/oled1306.c **** 	{
 453              		.loc 1 120 2 discriminator 1 view .LVU97
 454 0014 072D     		cmp	r5, #7
 455 0016 1FD8     		bhi	.L38
 122:Dsp/screen/device/oled1306.c **** 		Oled_TransmitByte(Oled_Obj, 0x00, Oled_Write_CMD);
 456              		.loc 1 122 3 is_stmt 1 view .LVU98
 457 0018 A5F15001 		sub	r1, r5, #80
 458 001c 0022     		movs	r2, #0
 459 001e C9B2     		uxtb	r1, r1
 460 0020 3046     		mov	r0, r6
 461 0022 FFF7FEFF 		bl	Oled_TransmitByte
 462              	.LVL45:
 123:Dsp/screen/device/oled1306.c **** 		Oled_TransmitByte(Oled_Obj, 0x10, Oled_Write_CMD);
 463              		.loc 1 123 3 view .LVU99
 464 0026 0022     		movs	r2, #0
 465 0028 1146     		mov	r1, r2
 466 002a 3046     		mov	r0, r6
 467 002c FFF7FEFF 		bl	Oled_TransmitByte
 468              	.LVL46:
 124:Dsp/screen/device/oled1306.c **** 
 469              		.loc 1 124 3 view .LVU100
 470 0030 0022     		movs	r2, #0
 471 0032 1021     		movs	r1, #16
 472 0034 3046     		mov	r0, r6
 473 0036 FFF7FEFF 		bl	Oled_TransmitByte
 474              	.LVL47:
 127:Dsp/screen/device/oled1306.c **** 		{
 475              		.loc 1 127 3 view .LVU101
 476              	.LBB10:
 127:Dsp/screen/device/oled1306.c **** 		{
 477              		.loc 1 127 8 view .LVU102
 127:Dsp/screen/device/oled1306.c **** 		{
 478              		.loc 1 127 16 is_stmt 0 view .LVU103
 479 003a 0024     		movs	r4, #0
 480              	.LVL48:
 481              	.L39:
 127:Dsp/screen/device/oled1306.c **** 		{
 482              		.loc 1 127 3 discriminator 1 view .LVU104
 483 003c 14F0800F 		tst	r4, #128
 484 0040 E6D1     		bne	.L44
ARM GAS  /tmp/ccMOjsKl.s 			page 13


 129:Dsp/screen/device/oled1306.c **** 		}
 485              		.loc 1 129 4 is_stmt 1 discriminator 3 view .LVU105
 486 0042 064B     		ldr	r3, .L45
 487 0044 03EBC403 		add	r3, r3, r4, lsl #3
 488 0048 0022     		movs	r2, #0
 489 004a 595D     		ldrb	r1, [r3, r5]	@ zero_extendqisi2
 490 004c 3046     		mov	r0, r6
 491 004e FFF7FEFF 		bl	Oled_TransmitByte
 492              	.LVL49:
 127:Dsp/screen/device/oled1306.c **** 		{
 493              		.loc 1 127 44 is_stmt 0 discriminator 3 view .LVU106
 494 0052 0134     		adds	r4, r4, #1
 495              	.LVL50:
 127:Dsp/screen/device/oled1306.c **** 		{
 496              		.loc 1 127 44 discriminator 3 view .LVU107
 497 0054 E4B2     		uxtb	r4, r4
 498              	.LVL51:
 127:Dsp/screen/device/oled1306.c **** 		{
 499              		.loc 1 127 44 discriminator 3 view .LVU108
 500 0056 F1E7     		b	.L39
 501              	.LVL52:
 502              	.L38:
 127:Dsp/screen/device/oled1306.c **** 		{
 503              		.loc 1 127 44 discriminator 3 view .LVU109
 504              	.LBE10:
 505              	.LBE9:
 134:Dsp/screen/device/oled1306.c **** 
 506              		.loc 1 134 1 view .LVU110
 507 0058 3846     		mov	r0, r7
 508 005a F8BD     		pop	{r3, r4, r5, r6, r7, pc}
 509              	.LVL53:
 510              	.L46:
 134:Dsp/screen/device/oled1306.c **** 
 511              		.loc 1 134 1 view .LVU111
 512              		.align	2
 513              	.L45:
 514 005c 00000000 		.word	.LANCHOR1
 515              		.cfi_endproc
 516              	.LFE126:
 518              		.section	.text.Oled_Init,"ax",%progbits
 519              		.align	1
 520              		.syntax unified
 521              		.thumb
 522              		.thumb_func
 523              		.fpu fpv4-sp-d16
 525              	Oled_Init:
 526              	.LVL54:
 527              	.LFB125:
  65:Dsp/screen/device/oled1306.c **** 	Oled_Obj->bus_init(Oled_Obj->BusID);
 528              		.loc 1 65 1 is_stmt 1 view -0
 529              		.cfi_startproc
 530              		@ args = 0, pretend = 0, frame = 0
 531              		@ frame_needed = 0, uses_anonymous_args = 0
  65:Dsp/screen/device/oled1306.c **** 	Oled_Obj->bus_init(Oled_Obj->BusID);
 532              		.loc 1 65 1 is_stmt 0 view .LVU113
 533 0000 10B5     		push	{r4, lr}
 534              	.LCFI6:
ARM GAS  /tmp/ccMOjsKl.s 			page 14


 535              		.cfi_def_cfa_offset 8
 536              		.cfi_offset 4, -8
 537              		.cfi_offset 14, -4
 538 0002 0446     		mov	r4, r0
  66:Dsp/screen/device/oled1306.c **** 	Oled_Obj->dc_init();
 539              		.loc 1 66 2 is_stmt 1 view .LVU114
  66:Dsp/screen/device/oled1306.c **** 	Oled_Obj->dc_init();
 540              		.loc 1 66 10 is_stmt 0 view .LVU115
 541 0004 4369     		ldr	r3, [r0, #20]
  66:Dsp/screen/device/oled1306.c **** 	Oled_Obj->dc_init();
 542              		.loc 1 66 2 view .LVU116
 543 0006 4078     		ldrb	r0, [r0, #1]	@ zero_extendqisi2
 544              	.LVL55:
  66:Dsp/screen/device/oled1306.c **** 	Oled_Obj->dc_init();
 545              		.loc 1 66 2 view .LVU117
 546 0008 9847     		blx	r3
 547              	.LVL56:
  67:Dsp/screen/device/oled1306.c **** 	Oled_Obj->rs_init();
 548              		.loc 1 67 2 is_stmt 1 view .LVU118
  67:Dsp/screen/device/oled1306.c **** 	Oled_Obj->rs_init();
 549              		.loc 1 67 10 is_stmt 0 view .LVU119
 550 000a A368     		ldr	r3, [r4, #8]
  67:Dsp/screen/device/oled1306.c **** 	Oled_Obj->rs_init();
 551              		.loc 1 67 2 view .LVU120
 552 000c 9847     		blx	r3
 553              	.LVL57:
  68:Dsp/screen/device/oled1306.c **** 
 554              		.loc 1 68 2 is_stmt 1 view .LVU121
  68:Dsp/screen/device/oled1306.c **** 
 555              		.loc 1 68 10 is_stmt 0 view .LVU122
 556 000e 6368     		ldr	r3, [r4, #4]
  68:Dsp/screen/device/oled1306.c **** 
 557              		.loc 1 68 2 view .LVU123
 558 0010 9847     		blx	r3
 559              	.LVL58:
  70:Dsp/screen/device/oled1306.c **** 	delay_ms(100);
 560              		.loc 1 70 2 is_stmt 1 view .LVU124
  70:Dsp/screen/device/oled1306.c **** 	delay_ms(100);
 561              		.loc 1 70 10 is_stmt 0 view .LVU125
 562 0012 E368     		ldr	r3, [r4, #12]
  70:Dsp/screen/device/oled1306.c **** 	delay_ms(100);
 563              		.loc 1 70 2 view .LVU126
 564 0014 0120     		movs	r0, #1
 565 0016 9847     		blx	r3
 566              	.LVL59:
  71:Dsp/screen/device/oled1306.c **** 	Oled_Obj->rs_ctl(Oled_RS_Enable);
 567              		.loc 1 71 2 is_stmt 1 view .LVU127
 568 0018 6420     		movs	r0, #100
 569 001a FFF7FEFF 		bl	delay_ms
 570              	.LVL60:
  72:Dsp/screen/device/oled1306.c **** 
 571              		.loc 1 72 2 view .LVU128
  72:Dsp/screen/device/oled1306.c **** 
 572              		.loc 1 72 10 is_stmt 0 view .LVU129
 573 001e E368     		ldr	r3, [r4, #12]
  72:Dsp/screen/device/oled1306.c **** 
 574              		.loc 1 72 2 view .LVU130
ARM GAS  /tmp/ccMOjsKl.s 			page 15


 575 0020 0020     		movs	r0, #0
 576 0022 9847     		blx	r3
 577              	.LVL61:
  74:Dsp/screen/device/oled1306.c **** 	Oled_TransmitByte(Oled_Obj, 0xD5, Oled_Write_CMD);
 578              		.loc 1 74 2 is_stmt 1 view .LVU131
 579 0024 0022     		movs	r2, #0
 580 0026 AE21     		movs	r1, #174
 581 0028 2046     		mov	r0, r4
 582 002a FFF7FEFF 		bl	Oled_TransmitByte
 583              	.LVL62:
  75:Dsp/screen/device/oled1306.c **** 	Oled_TransmitByte(Oled_Obj, 80, Oled_Write_CMD);
 584              		.loc 1 75 2 view .LVU132
 585 002e 0022     		movs	r2, #0
 586 0030 D521     		movs	r1, #213
 587 0032 2046     		mov	r0, r4
 588 0034 FFF7FEFF 		bl	Oled_TransmitByte
 589              	.LVL63:
  76:Dsp/screen/device/oled1306.c **** 	Oled_TransmitByte(Oled_Obj, 0xA8, Oled_Write_CMD);
 590              		.loc 1 76 2 view .LVU133
 591 0038 0022     		movs	r2, #0
 592 003a 5021     		movs	r1, #80
 593 003c 2046     		mov	r0, r4
 594 003e FFF7FEFF 		bl	Oled_TransmitByte
 595              	.LVL64:
  77:Dsp/screen/device/oled1306.c **** 	Oled_TransmitByte(Oled_Obj, 0X3F, Oled_Write_CMD);
 596              		.loc 1 77 2 view .LVU134
 597 0042 0022     		movs	r2, #0
 598 0044 A821     		movs	r1, #168
 599 0046 2046     		mov	r0, r4
 600 0048 FFF7FEFF 		bl	Oled_TransmitByte
 601              	.LVL65:
  78:Dsp/screen/device/oled1306.c **** 	Oled_TransmitByte(Oled_Obj, 0xD3, Oled_Write_CMD);
 602              		.loc 1 78 2 view .LVU135
 603 004c 0022     		movs	r2, #0
 604 004e 3F21     		movs	r1, #63
 605 0050 2046     		mov	r0, r4
 606 0052 FFF7FEFF 		bl	Oled_TransmitByte
 607              	.LVL66:
  79:Dsp/screen/device/oled1306.c **** 	Oled_TransmitByte(Oled_Obj, 0X00, Oled_Write_CMD);
 608              		.loc 1 79 2 view .LVU136
 609 0056 0022     		movs	r2, #0
 610 0058 D321     		movs	r1, #211
 611 005a 2046     		mov	r0, r4
 612 005c FFF7FEFF 		bl	Oled_TransmitByte
 613              	.LVL67:
  80:Dsp/screen/device/oled1306.c **** 
 614              		.loc 1 80 2 view .LVU137
 615 0060 0022     		movs	r2, #0
 616 0062 1146     		mov	r1, r2
 617 0064 2046     		mov	r0, r4
 618 0066 FFF7FEFF 		bl	Oled_TransmitByte
 619              	.LVL68:
  82:Dsp/screen/device/oled1306.c **** 
 620              		.loc 1 82 2 view .LVU138
 621 006a 0022     		movs	r2, #0
 622 006c 4021     		movs	r1, #64
 623 006e 2046     		mov	r0, r4
ARM GAS  /tmp/ccMOjsKl.s 			page 16


 624 0070 FFF7FEFF 		bl	Oled_TransmitByte
 625              	.LVL69:
  84:Dsp/screen/device/oled1306.c **** 	Oled_TransmitByte(Oled_Obj, 0x14, Oled_Write_CMD);
 626              		.loc 1 84 2 view .LVU139
 627 0074 0022     		movs	r2, #0
 628 0076 8D21     		movs	r1, #141
 629 0078 2046     		mov	r0, r4
 630 007a FFF7FEFF 		bl	Oled_TransmitByte
 631              	.LVL70:
  85:Dsp/screen/device/oled1306.c **** 	Oled_TransmitByte(Oled_Obj, 0x14, Oled_Write_CMD);
 632              		.loc 1 85 2 view .LVU140
 633 007e 0022     		movs	r2, #0
 634 0080 1421     		movs	r1, #20
 635 0082 2046     		mov	r0, r4
 636 0084 FFF7FEFF 		bl	Oled_TransmitByte
 637              	.LVL71:
  86:Dsp/screen/device/oled1306.c **** 	Oled_TransmitByte(Oled_Obj, 0x20, Oled_Write_CMD);
 638              		.loc 1 86 2 view .LVU141
 639 0088 0022     		movs	r2, #0
 640 008a 1421     		movs	r1, #20
 641 008c 2046     		mov	r0, r4
 642 008e FFF7FEFF 		bl	Oled_TransmitByte
 643              	.LVL72:
  87:Dsp/screen/device/oled1306.c **** 	Oled_TransmitByte(Oled_Obj, 0x02, Oled_Write_CMD);
 644              		.loc 1 87 2 view .LVU142
 645 0092 0022     		movs	r2, #0
 646 0094 2021     		movs	r1, #32
 647 0096 2046     		mov	r0, r4
 648 0098 FFF7FEFF 		bl	Oled_TransmitByte
 649              	.LVL73:
  88:Dsp/screen/device/oled1306.c **** 
 650              		.loc 1 88 2 view .LVU143
 651 009c 0022     		movs	r2, #0
 652 009e 0221     		movs	r1, #2
 653 00a0 2046     		mov	r0, r4
 654 00a2 FFF7FEFF 		bl	Oled_TransmitByte
 655              	.LVL74:
  90:Dsp/screen/device/oled1306.c **** 	Oled_TransmitByte(Oled_Obj, 0xC8, Oled_Write_CMD);
 656              		.loc 1 90 2 view .LVU144
 657 00a6 0022     		movs	r2, #0
 658 00a8 A021     		movs	r1, #160
 659 00aa 2046     		mov	r0, r4
 660 00ac FFF7FEFF 		bl	Oled_TransmitByte
 661              	.LVL75:
  91:Dsp/screen/device/oled1306.c **** 
 662              		.loc 1 91 2 view .LVU145
 663 00b0 0022     		movs	r2, #0
 664 00b2 C821     		movs	r1, #200
 665 00b4 2046     		mov	r0, r4
 666 00b6 FFF7FEFF 		bl	Oled_TransmitByte
 667              	.LVL76:
  93:Dsp/screen/device/oled1306.c **** 	Oled_TransmitByte(Oled_Obj, 0x12, Oled_Write_CMD);
 668              		.loc 1 93 2 view .LVU146
 669 00ba 0022     		movs	r2, #0
 670 00bc DA21     		movs	r1, #218
 671 00be 2046     		mov	r0, r4
 672 00c0 FFF7FEFF 		bl	Oled_TransmitByte
ARM GAS  /tmp/ccMOjsKl.s 			page 17


 673              	.LVL77:
  94:Dsp/screen/device/oled1306.c **** 
 674              		.loc 1 94 2 view .LVU147
 675 00c4 0022     		movs	r2, #0
 676 00c6 1221     		movs	r1, #18
 677 00c8 2046     		mov	r0, r4
 678 00ca FFF7FEFF 		bl	Oled_TransmitByte
 679              	.LVL78:
  96:Dsp/screen/device/oled1306.c **** 	Oled_TransmitByte(Oled_Obj, 0xEF, Oled_Write_CMD);
 680              		.loc 1 96 2 view .LVU148
 681 00ce 0022     		movs	r2, #0
 682 00d0 8121     		movs	r1, #129
 683 00d2 2046     		mov	r0, r4
 684 00d4 FFF7FEFF 		bl	Oled_TransmitByte
 685              	.LVL79:
  97:Dsp/screen/device/oled1306.c **** 	Oled_TransmitByte(Oled_Obj, 0xD9, Oled_Write_CMD);
 686              		.loc 1 97 2 view .LVU149
 687 00d8 0022     		movs	r2, #0
 688 00da EF21     		movs	r1, #239
 689 00dc 2046     		mov	r0, r4
 690 00de FFF7FEFF 		bl	Oled_TransmitByte
 691              	.LVL80:
  98:Dsp/screen/device/oled1306.c **** 	Oled_TransmitByte(Oled_Obj, 0xf1, Oled_Write_CMD);
 692              		.loc 1 98 2 view .LVU150
 693 00e2 0022     		movs	r2, #0
 694 00e4 D921     		movs	r1, #217
 695 00e6 2046     		mov	r0, r4
 696 00e8 FFF7FEFF 		bl	Oled_TransmitByte
 697              	.LVL81:
  99:Dsp/screen/device/oled1306.c **** 	Oled_TransmitByte(Oled_Obj, 0xDB, Oled_Write_CMD);
 698              		.loc 1 99 2 view .LVU151
 699 00ec 0022     		movs	r2, #0
 700 00ee F121     		movs	r1, #241
 701 00f0 2046     		mov	r0, r4
 702 00f2 FFF7FEFF 		bl	Oled_TransmitByte
 703              	.LVL82:
 100:Dsp/screen/device/oled1306.c **** 	Oled_TransmitByte(Oled_Obj, 0x30, Oled_Write_CMD);
 704              		.loc 1 100 2 view .LVU152
 705 00f6 0022     		movs	r2, #0
 706 00f8 DB21     		movs	r1, #219
 707 00fa 2046     		mov	r0, r4
 708 00fc FFF7FEFF 		bl	Oled_TransmitByte
 709              	.LVL83:
 101:Dsp/screen/device/oled1306.c **** 
 710              		.loc 1 101 2 view .LVU153
 711 0100 0022     		movs	r2, #0
 712 0102 3021     		movs	r1, #48
 713 0104 2046     		mov	r0, r4
 714 0106 FFF7FEFF 		bl	Oled_TransmitByte
 715              	.LVL84:
 103:Dsp/screen/device/oled1306.c **** 	Oled_TransmitByte(Oled_Obj, 0xA6, Oled_Write_CMD);
 716              		.loc 1 103 2 view .LVU154
 717 010a 0022     		movs	r2, #0
 718 010c A421     		movs	r1, #164
 719 010e 2046     		mov	r0, r4
 720 0110 FFF7FEFF 		bl	Oled_TransmitByte
 721              	.LVL85:
ARM GAS  /tmp/ccMOjsKl.s 			page 18


 104:Dsp/screen/device/oled1306.c **** 	Oled_TransmitByte(Oled_Obj, 0xAF, Oled_Write_CMD);
 722              		.loc 1 104 2 view .LVU155
 723 0114 0022     		movs	r2, #0
 724 0116 A621     		movs	r1, #166
 725 0118 2046     		mov	r0, r4
 726 011a FFF7FEFF 		bl	Oled_TransmitByte
 727              	.LVL86:
 105:Dsp/screen/device/oled1306.c **** 
 728              		.loc 1 105 2 view .LVU156
 729 011e 0022     		movs	r2, #0
 730 0120 AF21     		movs	r1, #175
 731 0122 2046     		mov	r0, r4
 732 0124 FFF7FEFF 		bl	Oled_TransmitByte
 733              	.LVL87:
 107:Dsp/screen/device/oled1306.c **** 
 734              		.loc 1 107 2 view .LVU157
 735 0128 2046     		mov	r0, r4
 736 012a FFF7FEFF 		bl	Oled_Clear
 737              	.LVL88:
 109:Dsp/screen/device/oled1306.c **** }
 738              		.loc 1 109 2 view .LVU158
 110:Dsp/screen/device/oled1306.c **** 
 739              		.loc 1 110 1 is_stmt 0 view .LVU159
 740 012e 0120     		movs	r0, #1
 741 0130 10BD     		pop	{r4, pc}
 110:Dsp/screen/device/oled1306.c **** 
 742              		.loc 1 110 1 view .LVU160
 743              		.cfi_endproc
 744              	.LFE125:
 746              		.global	DrvOled
 747              		.global	OledDisable_CMD
 748              		.global	OledEnable_CMD
 749              		.section	.bss.blackboard,"aw",%nobits
 750              		.align	2
 751              		.set	.LANCHOR1,. + 0
 754              	blackboard:
 755 0000 00000000 		.space	1024
 755      00000000 
 755      00000000 
 755      00000000 
 755      00000000 
 756              		.section	.data.DrvOled,"aw"
 757              		.align	2
 760              	DrvOled:
 761 0000 00000000 		.word	Oled_Init
 762 0004 00000000 		.word	Oled_EnableControl
 763 0008 00000000 		.word	Oled_Refresh
 764 000c 00000000 		.word	Oled_Clear
 765 0010 00000000 		.word	Oled_GetMax_Width
 766 0014 00000000 		.word	Oled_GetMax_Height
 767              		.section	.rodata.OledDisable_CMD,"a"
 768              		.align	2
 771              	OledDisable_CMD:
 772 0000 10       		.byte	16
 773 0001 AE       		.byte	-82
 774              		.section	.rodata.OledEnable_CMD,"a"
 775              		.align	2
ARM GAS  /tmp/ccMOjsKl.s 			page 19


 776              		.set	.LANCHOR0,. + 0
 779              	OledEnable_CMD:
 780 0000 14       		.byte	20
 781 0001 AF       		.byte	-81
 782              		.text
 783              	.Letext0:
 784              		.file 2 "/home/bt0/stm32/compile-tool/gcc-arm-none-eabi-8-2018-q4-major-linux/gcc-arm-none-eabi-8-
 785              		.file 3 "/home/bt0/stm32/compile-tool/gcc-arm-none-eabi-8-2018-q4-major-linux/gcc-arm-none-eabi-8-
 786              		.file 4 "/home/bt0/stm32/compile-tool/gcc-arm-none-eabi-8-2018-q4-major-linux/gcc-arm-none-eabi-8-
 787              		.file 5 "/home/bt0/stm32/compile-tool/gcc-arm-none-eabi-8-2018-q4-major-linux/gcc-arm-none-eabi-8-
 788              		.file 6 "/home/bt0/stm32/compile-tool/gcc-arm-none-eabi-8-2018-q4-major-linux/gcc-arm-none-eabi-8-
 789              		.file 7 "/home/bt0/stm32/compile-tool/gcc-arm-none-eabi-8-2018-q4-major-linux/gcc-arm-none-eabi-8-
 790              		.file 8 "Dsp/pixel.h"
 791              		.file 9 "Dsp/screen/device/oled1306.h"
 792              		.file 10 "F4_CORE/core_cm4.h"
 793              		.file 11 "USER/system_stm32f4xx.h"
 794              		.file 12 "SYS/delay/delay.h"
ARM GAS  /tmp/ccMOjsKl.s 			page 20


DEFINED SYMBOLS
                            *ABS*:0000000000000000 oled1306.c
     /tmp/ccMOjsKl.s:18     .text.Oled_TransmitByte:0000000000000000 $t
     /tmp/ccMOjsKl.s:25     .text.Oled_TransmitByte:0000000000000000 Oled_TransmitByte
     /tmp/ccMOjsKl.s:89     .text.Oled_EnableControl:0000000000000000 $t
     /tmp/ccMOjsKl.s:95     .text.Oled_EnableControl:0000000000000000 Oled_EnableControl
     /tmp/ccMOjsKl.s:153    .text.Oled_EnableControl:0000000000000028 $d
     /tmp/ccMOjsKl.s:158    .text.Oled_Clear:0000000000000000 $t
     /tmp/ccMOjsKl.s:164    .text.Oled_Clear:0000000000000000 Oled_Clear
     /tmp/ccMOjsKl.s:255    .text.Oled_GetMax_Width:0000000000000000 $t
     /tmp/ccMOjsKl.s:261    .text.Oled_GetMax_Width:0000000000000000 Oled_GetMax_Width
     /tmp/ccMOjsKl.s:276    .text.Oled_GetMax_Height:0000000000000000 $t
     /tmp/ccMOjsKl.s:282    .text.Oled_GetMax_Height:0000000000000000 Oled_GetMax_Height
     /tmp/ccMOjsKl.s:297    .text.Oled_MapUpdate:0000000000000000 $t
     /tmp/ccMOjsKl.s:303    .text.Oled_MapUpdate:0000000000000000 Oled_MapUpdate
     /tmp/ccMOjsKl.s:404    .text.Oled_MapUpdate:000000000000004c $d
     /tmp/ccMOjsKl.s:409    .text.Oled_Refresh:0000000000000000 $t
     /tmp/ccMOjsKl.s:415    .text.Oled_Refresh:0000000000000000 Oled_Refresh
     /tmp/ccMOjsKl.s:514    .text.Oled_Refresh:000000000000005c $d
     /tmp/ccMOjsKl.s:519    .text.Oled_Init:0000000000000000 $t
     /tmp/ccMOjsKl.s:525    .text.Oled_Init:0000000000000000 Oled_Init
     /tmp/ccMOjsKl.s:760    .data.DrvOled:0000000000000000 DrvOled
     /tmp/ccMOjsKl.s:771    .rodata.OledDisable_CMD:0000000000000000 OledDisable_CMD
     /tmp/ccMOjsKl.s:779    .rodata.OledEnable_CMD:0000000000000000 OledEnable_CMD
     /tmp/ccMOjsKl.s:750    .bss.blackboard:0000000000000000 $d
     /tmp/ccMOjsKl.s:754    .bss.blackboard:0000000000000000 blackboard
     /tmp/ccMOjsKl.s:757    .data.DrvOled:0000000000000000 $d
     /tmp/ccMOjsKl.s:768    .rodata.OledDisable_CMD:0000000000000000 $d
     /tmp/ccMOjsKl.s:775    .rodata.OledEnable_CMD:0000000000000000 $d

UNDEFINED SYMBOLS
delay_ms
