ARM GAS  /var/folders/lx/hc4sn_b53233_zkc9xbbl97r0000gp/T//ccX8wDmK.s 			page 1


   1              		.cpu cortex-m4
   2              		.eabi_attribute 27, 1
   3              		.eabi_attribute 28, 1
   4              		.eabi_attribute 20, 1
   5              		.eabi_attribute 21, 1
   6              		.eabi_attribute 23, 3
   7              		.eabi_attribute 24, 1
   8              		.eabi_attribute 25, 1
   9              		.eabi_attribute 26, 1
  10              		.eabi_attribute 30, 1
  11              		.eabi_attribute 34, 1
  12              		.eabi_attribute 18, 4
  13              		.file	"oled1306.c"
  14              		.text
  15              	.Ltext0:
  16              		.cfi_sections	.debug_frame
  17              		.section	.text.Oled_TransmitByte,"ax",%progbits
  18              		.align	1
  19              		.arch armv7e-m
  20              		.syntax unified
  21              		.thumb
  22              		.thumb_func
  23              		.fpu fpv4-sp-d16
  25              	Oled_TransmitByte:
  26              	.LVL0:
  27              	.LFB123:
  28              		.file 1 "Dsp/screen/device/oled1306.c"
   1:Dsp/screen/device/oled1306.c **** #include "oled1306.h"
   2:Dsp/screen/device/oled1306.c **** #include "delay.h"
   3:Dsp/screen/device/oled1306.c **** 
   4:Dsp/screen/device/oled1306.c **** static uint8_t blackboard[OLED_MAX_WIDTH][COLUMN_SIZE];
   5:Dsp/screen/device/oled1306.c **** 
   6:Dsp/screen/device/oled1306.c **** /* const static variable */
   7:Dsp/screen/device/oled1306.c **** const uint8_t OledEnable_CMD[2] = {0X14, 0XAF};
   8:Dsp/screen/device/oled1306.c **** const uint8_t OledDisable_CMD[2] = {0X10, 0XAE};
   9:Dsp/screen/device/oled1306.c **** 
  10:Dsp/screen/device/oled1306.c **** /* external funtion for app or midware */
  11:Dsp/screen/device/oled1306.c **** static void Oled_EnableControl(Oled_Obj_TypeDef *Oled_Obj, Oled_Enable_State_List state);
  12:Dsp/screen/device/oled1306.c **** static bool Oled_Init(Oled_Obj_TypeDef *Oled_Obj);
  13:Dsp/screen/device/oled1306.c **** static void Oled_Clear(Oled_Obj_TypeDef *Oled_Obj);
  14:Dsp/screen/device/oled1306.c **** static bool Oled_MapUpdate(Oled_Obj_TypeDef *Oled_Obj, uint8_t **map);
  15:Dsp/screen/device/oled1306.c **** static uint8_t Oled_GetMax_Width(void);
  16:Dsp/screen/device/oled1306.c **** static uint8_t Oled_GetMax_Height(void);
  17:Dsp/screen/device/oled1306.c **** static bool Oled_Refresh(Oled_Obj_TypeDef *Oled_Obj, uint8_t **val);
  18:Dsp/screen/device/oled1306.c **** 
  19:Dsp/screen/device/oled1306.c **** /* internal function */
  20:Dsp/screen/device/oled1306.c **** static void Oled_TransmitByte(Oled_Obj_TypeDef *Oled_Obj, uint8_t data, Oled_Write_Type type);
  21:Dsp/screen/device/oled1306.c **** 
  22:Dsp/screen/device/oled1306.c **** Oled_GenProcFunc_TypeDef DrvOled = {
  23:Dsp/screen/device/oled1306.c **** 	.init = Oled_Init,
  24:Dsp/screen/device/oled1306.c **** 	.enable_set = Oled_EnableControl,
  25:Dsp/screen/device/oled1306.c **** 	.fresh = Oled_Refresh,
  26:Dsp/screen/device/oled1306.c **** 	.clear = Oled_Clear,
  27:Dsp/screen/device/oled1306.c **** 	.get_max_height = Oled_GetMax_Height,
  28:Dsp/screen/device/oled1306.c **** 	.get_max_width = Oled_GetMax_Width,
  29:Dsp/screen/device/oled1306.c **** };
  30:Dsp/screen/device/oled1306.c **** 
ARM GAS  /var/folders/lx/hc4sn_b53233_zkc9xbbl97r0000gp/T//ccX8wDmK.s 			page 2


  31:Dsp/screen/device/oled1306.c **** /* device Bsp IO SPI_Bus correspond control Function */
  32:Dsp/screen/device/oled1306.c **** static void Oled_TransmitByte(Oled_Obj_TypeDef *Oled_Obj, uint8_t data, Oled_Write_Type type)
  33:Dsp/screen/device/oled1306.c **** {
  29              		.loc 1 33 1 view -0
  30              		.cfi_startproc
  31              		@ args = 0, pretend = 0, frame = 0
  32              		@ frame_needed = 0, uses_anonymous_args = 0
  33              		.loc 1 33 1 is_stmt 0 view .LVU1
  34 0000 38B5     		push	{r3, r4, r5, lr}
  35              	.LCFI0:
  36              		.cfi_def_cfa_offset 16
  37              		.cfi_offset 3, -16
  38              		.cfi_offset 4, -12
  39              		.cfi_offset 5, -8
  40              		.cfi_offset 14, -4
  41 0002 0446     		mov	r4, r0
  42 0004 0D46     		mov	r5, r1
  34:Dsp/screen/device/oled1306.c **** 	if (type == Oled_Write_CMD)
  43              		.loc 1 34 2 is_stmt 1 view .LVU2
  44              		.loc 1 34 5 is_stmt 0 view .LVU3
  45 0006 62B9     		cbnz	r2, .L2
  35:Dsp/screen/device/oled1306.c **** 	{
  36:Dsp/screen/device/oled1306.c **** 		Oled_Obj->dc_ctl(Oled_RS_Disable);
  46              		.loc 1 36 3 is_stmt 1 view .LVU4
  47              		.loc 1 36 11 is_stmt 0 view .LVU5
  48 0008 D0F81230 		ldr	r3, [r0, #18]	@ unaligned
  49              		.loc 1 36 3 view .LVU6
  50 000c 0120     		movs	r0, #1
  51              	.LVL1:
  52              		.loc 1 36 3 view .LVU7
  53 000e 9847     		blx	r3
  54              	.LVL2:
  55              	.L3:
  37:Dsp/screen/device/oled1306.c **** 	}
  38:Dsp/screen/device/oled1306.c **** 	else
  39:Dsp/screen/device/oled1306.c **** 		Oled_Obj->dc_ctl(Oled_RS_Enable);
  40:Dsp/screen/device/oled1306.c **** 
  41:Dsp/screen/device/oled1306.c **** 	Oled_Obj->bus_transmit(data);
  56              		.loc 1 41 2 is_stmt 1 view .LVU8
  57              		.loc 1 41 10 is_stmt 0 view .LVU9
  58 0010 D4F81A30 		ldr	r3, [r4, #26]	@ unaligned
  59              		.loc 1 41 2 view .LVU10
  60 0014 2846     		mov	r0, r5
  61 0016 9847     		blx	r3
  62              	.LVL3:
  42:Dsp/screen/device/oled1306.c **** 
  43:Dsp/screen/device/oled1306.c **** 	Oled_Obj->dc_ctl(Oled_RS_Enable);
  63              		.loc 1 43 2 is_stmt 1 view .LVU11
  64              		.loc 1 43 10 is_stmt 0 view .LVU12
  65 0018 D4F81230 		ldr	r3, [r4, #18]	@ unaligned
  66              		.loc 1 43 2 view .LVU13
  67 001c 0020     		movs	r0, #0
  68 001e 9847     		blx	r3
  69              	.LVL4:
  44:Dsp/screen/device/oled1306.c **** }
  70              		.loc 1 44 1 view .LVU14
  71 0020 38BD     		pop	{r3, r4, r5, pc}
ARM GAS  /var/folders/lx/hc4sn_b53233_zkc9xbbl97r0000gp/T//ccX8wDmK.s 			page 3


  72              	.LVL5:
  73              	.L2:
  39:Dsp/screen/device/oled1306.c **** 
  74              		.loc 1 39 3 is_stmt 1 view .LVU15
  39:Dsp/screen/device/oled1306.c **** 
  75              		.loc 1 39 11 is_stmt 0 view .LVU16
  76 0022 D0F81230 		ldr	r3, [r0, #18]	@ unaligned
  39:Dsp/screen/device/oled1306.c **** 
  77              		.loc 1 39 3 view .LVU17
  78 0026 0020     		movs	r0, #0
  79              	.LVL6:
  39:Dsp/screen/device/oled1306.c **** 
  80              		.loc 1 39 3 view .LVU18
  81 0028 9847     		blx	r3
  82              	.LVL7:
  39:Dsp/screen/device/oled1306.c **** 
  83              		.loc 1 39 3 view .LVU19
  84 002a F1E7     		b	.L3
  85              		.cfi_endproc
  86              	.LFE123:
  88              		.section	.text.Oled_EnableControl,"ax",%progbits
  89              		.align	1
  90              		.syntax unified
  91              		.thumb
  92              		.thumb_func
  93              		.fpu fpv4-sp-d16
  95              	Oled_EnableControl:
  96              	.LVL8:
  97              	.LFB124:
  45:Dsp/screen/device/oled1306.c **** 
  46:Dsp/screen/device/oled1306.c **** static void Oled_EnableControl(Oled_Obj_TypeDef *Oled_Obj, Oled_Enable_State_List state)
  47:Dsp/screen/device/oled1306.c **** {
  98              		.loc 1 47 1 is_stmt 1 view -0
  99              		.cfi_startproc
 100              		@ args = 0, pretend = 0, frame = 0
 101              		@ frame_needed = 0, uses_anonymous_args = 0
 102              		.loc 1 47 1 is_stmt 0 view .LVU21
 103 0000 70B5     		push	{r4, r5, r6, lr}
 104              	.LCFI1:
 105              		.cfi_def_cfa_offset 16
 106              		.cfi_offset 4, -16
 107              		.cfi_offset 5, -12
 108              		.cfi_offset 6, -8
 109              		.cfi_offset 14, -4
 110 0002 0546     		mov	r5, r0
 111 0004 0C46     		mov	r4, r1
  48:Dsp/screen/device/oled1306.c **** 	uint8_t *Enb_CMD_Buff;
 112              		.loc 1 48 2 is_stmt 1 view .LVU22
  49:Dsp/screen/device/oled1306.c **** 	Oled_TransmitByte(Oled_Obj, 0X8D, Oled_Write_CMD);
 113              		.loc 1 49 2 view .LVU23
 114 0006 0022     		movs	r2, #0
 115 0008 8D21     		movs	r1, #141
 116              	.LVL9:
 117              		.loc 1 49 2 is_stmt 0 view .LVU24
 118 000a FFF7FEFF 		bl	Oled_TransmitByte
 119              	.LVL10:
  50:Dsp/screen/device/oled1306.c **** 
ARM GAS  /var/folders/lx/hc4sn_b53233_zkc9xbbl97r0000gp/T//ccX8wDmK.s 			page 4


  51:Dsp/screen/device/oled1306.c **** 	if (state == Oled_Display_Enable)
 120              		.loc 1 51 2 is_stmt 1 view .LVU25
 121              		.loc 1 51 5 is_stmt 0 view .LVU26
 122 000e 14B9     		cbnz	r4, .L9
  52:Dsp/screen/device/oled1306.c **** 	{
  53:Dsp/screen/device/oled1306.c **** 		Enb_CMD_Buff = (uint8_t *)OledEnable_CMD;
 123              		.loc 1 53 16 view .LVU27
 124 0010 074E     		ldr	r6, .L11
 125              	.L6:
 126              	.LVL11:
  54:Dsp/screen/device/oled1306.c **** 	}
  55:Dsp/screen/device/oled1306.c **** 	else
  56:Dsp/screen/device/oled1306.c **** 		Enb_CMD_Buff = (uint8_t *)OledDisable_CMD;
  57:Dsp/screen/device/oled1306.c **** 
  58:Dsp/screen/device/oled1306.c **** 	for (uint8_t i = 0; i < sizeof(OledEnable_CMD); i++)
 127              		.loc 1 58 2 is_stmt 1 view .LVU28
 128              	.LBB2:
 129              		.loc 1 58 7 view .LVU29
 130              		.loc 1 58 15 is_stmt 0 view .LVU30
 131 0012 0024     		movs	r4, #0
 132              		.loc 1 58 2 view .LVU31
 133 0014 08E0     		b	.L7
 134              	.LVL12:
 135              	.L9:
 136              		.loc 1 58 2 view .LVU32
 137              	.LBE2:
  56:Dsp/screen/device/oled1306.c **** 
 138              		.loc 1 56 16 view .LVU33
 139 0016 074E     		ldr	r6, .L11+4
 140 0018 FBE7     		b	.L6
 141              	.LVL13:
 142              	.L8:
 143              	.LBB3:
  59:Dsp/screen/device/oled1306.c **** 	{
  60:Dsp/screen/device/oled1306.c **** 		Oled_TransmitByte(Oled_Obj, Enb_CMD_Buff[i], Oled_Write_CMD);
 144              		.loc 1 60 3 is_stmt 1 discriminator 3 view .LVU34
 145 001a 0022     		movs	r2, #0
 146 001c 315D     		ldrb	r1, [r6, r4]	@ zero_extendqisi2
 147 001e 2846     		mov	r0, r5
 148 0020 FFF7FEFF 		bl	Oled_TransmitByte
 149              	.LVL14:
  58:Dsp/screen/device/oled1306.c **** 	{
 150              		.loc 1 58 50 discriminator 3 view .LVU35
  58:Dsp/screen/device/oled1306.c **** 	{
 151              		.loc 1 58 51 is_stmt 0 discriminator 3 view .LVU36
 152 0024 0134     		adds	r4, r4, #1
 153              	.LVL15:
  58:Dsp/screen/device/oled1306.c **** 	{
 154              		.loc 1 58 51 discriminator 3 view .LVU37
 155 0026 E4B2     		uxtb	r4, r4
 156              	.LVL16:
 157              	.L7:
  58:Dsp/screen/device/oled1306.c **** 	{
 158              		.loc 1 58 22 is_stmt 1 discriminator 1 view .LVU38
  58:Dsp/screen/device/oled1306.c **** 	{
 159              		.loc 1 58 2 is_stmt 0 discriminator 1 view .LVU39
 160 0028 012C     		cmp	r4, #1
ARM GAS  /var/folders/lx/hc4sn_b53233_zkc9xbbl97r0000gp/T//ccX8wDmK.s 			page 5


 161 002a F6D9     		bls	.L8
 162              	.LBE3:
  61:Dsp/screen/device/oled1306.c **** 	}
  62:Dsp/screen/device/oled1306.c **** }
 163              		.loc 1 62 1 view .LVU40
 164 002c 70BD     		pop	{r4, r5, r6, pc}
 165              	.LVL17:
 166              	.L12:
 167              		.loc 1 62 1 view .LVU41
 168 002e 00BF     		.align	2
 169              	.L11:
 170 0030 00000000 		.word	.LANCHOR1
 171 0034 00000000 		.word	.LANCHOR0
 172              		.cfi_endproc
 173              	.LFE124:
 175              		.section	.text.Oled_Clear,"ax",%progbits
 176              		.align	1
 177              		.syntax unified
 178              		.thumb
 179              		.thumb_func
 180              		.fpu fpv4-sp-d16
 182              	Oled_Clear:
 183              	.LVL18:
 184              	.LFB127:
  63:Dsp/screen/device/oled1306.c **** 
  64:Dsp/screen/device/oled1306.c **** static bool Oled_Init(Oled_Obj_TypeDef *Oled_Obj)
  65:Dsp/screen/device/oled1306.c **** {
  66:Dsp/screen/device/oled1306.c **** 	Oled_Obj->bus_init(Oled_Obj->BusID);
  67:Dsp/screen/device/oled1306.c **** 	Oled_Obj->dc_init();
  68:Dsp/screen/device/oled1306.c **** 	Oled_Obj->rs_init();
  69:Dsp/screen/device/oled1306.c **** 
  70:Dsp/screen/device/oled1306.c **** 	Oled_Obj->rs_ctl(Oled_RS_Disable);
  71:Dsp/screen/device/oled1306.c **** 	delay_ms(100);
  72:Dsp/screen/device/oled1306.c **** 	Oled_Obj->rs_ctl(Oled_RS_Enable);
  73:Dsp/screen/device/oled1306.c **** 
  74:Dsp/screen/device/oled1306.c **** 	Oled_TransmitByte(Oled_Obj, 0xAE, Oled_Write_CMD);
  75:Dsp/screen/device/oled1306.c **** 	Oled_TransmitByte(Oled_Obj, 0xD5, Oled_Write_CMD);
  76:Dsp/screen/device/oled1306.c **** 	Oled_TransmitByte(Oled_Obj, 80, Oled_Write_CMD);
  77:Dsp/screen/device/oled1306.c **** 	Oled_TransmitByte(Oled_Obj, 0xA8, Oled_Write_CMD);
  78:Dsp/screen/device/oled1306.c **** 	Oled_TransmitByte(Oled_Obj, 0X3F, Oled_Write_CMD);
  79:Dsp/screen/device/oled1306.c **** 	Oled_TransmitByte(Oled_Obj, 0xD3, Oled_Write_CMD);
  80:Dsp/screen/device/oled1306.c **** 	Oled_TransmitByte(Oled_Obj, 0X00, Oled_Write_CMD);
  81:Dsp/screen/device/oled1306.c **** 
  82:Dsp/screen/device/oled1306.c **** 	Oled_TransmitByte(Oled_Obj, 0x40, Oled_Write_CMD);
  83:Dsp/screen/device/oled1306.c **** 
  84:Dsp/screen/device/oled1306.c **** 	Oled_TransmitByte(Oled_Obj, 0x8D, Oled_Write_CMD);
  85:Dsp/screen/device/oled1306.c **** 	Oled_TransmitByte(Oled_Obj, 0x14, Oled_Write_CMD);
  86:Dsp/screen/device/oled1306.c **** 	Oled_TransmitByte(Oled_Obj, 0x14, Oled_Write_CMD);
  87:Dsp/screen/device/oled1306.c **** 	Oled_TransmitByte(Oled_Obj, 0x20, Oled_Write_CMD);
  88:Dsp/screen/device/oled1306.c **** 	Oled_TransmitByte(Oled_Obj, 0x02, Oled_Write_CMD);
  89:Dsp/screen/device/oled1306.c **** 
  90:Dsp/screen/device/oled1306.c **** 	Oled_TransmitByte(Oled_Obj, 0xA0, Oled_Write_CMD);
  91:Dsp/screen/device/oled1306.c **** 	Oled_TransmitByte(Oled_Obj, 0xC8, Oled_Write_CMD);
  92:Dsp/screen/device/oled1306.c **** 
  93:Dsp/screen/device/oled1306.c **** 	Oled_TransmitByte(Oled_Obj, 0xDA, Oled_Write_CMD);
  94:Dsp/screen/device/oled1306.c **** 	Oled_TransmitByte(Oled_Obj, 0x12, Oled_Write_CMD);
  95:Dsp/screen/device/oled1306.c **** 
ARM GAS  /var/folders/lx/hc4sn_b53233_zkc9xbbl97r0000gp/T//ccX8wDmK.s 			page 6


  96:Dsp/screen/device/oled1306.c **** 	Oled_TransmitByte(Oled_Obj, 0x81, Oled_Write_CMD);
  97:Dsp/screen/device/oled1306.c **** 	Oled_TransmitByte(Oled_Obj, 0xEF, Oled_Write_CMD);
  98:Dsp/screen/device/oled1306.c **** 	Oled_TransmitByte(Oled_Obj, 0xD9, Oled_Write_CMD);
  99:Dsp/screen/device/oled1306.c **** 	Oled_TransmitByte(Oled_Obj, 0xf1, Oled_Write_CMD);
 100:Dsp/screen/device/oled1306.c **** 	Oled_TransmitByte(Oled_Obj, 0xDB, Oled_Write_CMD);
 101:Dsp/screen/device/oled1306.c **** 	Oled_TransmitByte(Oled_Obj, 0x30, Oled_Write_CMD);
 102:Dsp/screen/device/oled1306.c **** 
 103:Dsp/screen/device/oled1306.c **** 	Oled_TransmitByte(Oled_Obj, 0xA4, Oled_Write_CMD);
 104:Dsp/screen/device/oled1306.c **** 	Oled_TransmitByte(Oled_Obj, 0xA6, Oled_Write_CMD);
 105:Dsp/screen/device/oled1306.c **** 	Oled_TransmitByte(Oled_Obj, 0xAF, Oled_Write_CMD);
 106:Dsp/screen/device/oled1306.c **** 
 107:Dsp/screen/device/oled1306.c **** 	Oled_Clear(Oled_Obj);
 108:Dsp/screen/device/oled1306.c **** 
 109:Dsp/screen/device/oled1306.c **** 	return true;
 110:Dsp/screen/device/oled1306.c **** }
 111:Dsp/screen/device/oled1306.c **** 
 112:Dsp/screen/device/oled1306.c **** static bool Oled_Refresh(Oled_Obj_TypeDef *Oled_Obj, uint8_t **val)
 113:Dsp/screen/device/oled1306.c **** {
 114:Dsp/screen/device/oled1306.c **** 	//update pixel map
 115:Dsp/screen/device/oled1306.c **** 	if (!Oled_MapUpdate(Oled_Obj, val))
 116:Dsp/screen/device/oled1306.c **** 	{
 117:Dsp/screen/device/oled1306.c **** 		return false;
 118:Dsp/screen/device/oled1306.c **** 	}
 119:Dsp/screen/device/oled1306.c **** 
 120:Dsp/screen/device/oled1306.c **** 	for (uint8_t c = 0; c < OLED_COLUMN_BLOCK_NUM; c++)
 121:Dsp/screen/device/oled1306.c **** 	{
 122:Dsp/screen/device/oled1306.c **** 
 123:Dsp/screen/device/oled1306.c **** 		Oled_TransmitByte(Oled_Obj, (0xb0 + c), Oled_Write_CMD);
 124:Dsp/screen/device/oled1306.c **** 		Oled_TransmitByte(Oled_Obj, 0x00, Oled_Write_CMD);
 125:Dsp/screen/device/oled1306.c **** 		Oled_TransmitByte(Oled_Obj, 0x10, Oled_Write_CMD);
 126:Dsp/screen/device/oled1306.c **** 
 127:Dsp/screen/device/oled1306.c **** 		//can use spi dma for transmit
 128:Dsp/screen/device/oled1306.c **** 		for (uint8_t r = 0; r < OLED_MAX_WIDTH; r++)
 129:Dsp/screen/device/oled1306.c **** 		{
 130:Dsp/screen/device/oled1306.c **** 			Oled_TransmitByte(Oled_Obj, blackboard[r][c], Oled_Write_Data);
 131:Dsp/screen/device/oled1306.c **** 		}
 132:Dsp/screen/device/oled1306.c **** 	}
 133:Dsp/screen/device/oled1306.c **** 
 134:Dsp/screen/device/oled1306.c **** 	return true;
 135:Dsp/screen/device/oled1306.c **** }
 136:Dsp/screen/device/oled1306.c **** 
 137:Dsp/screen/device/oled1306.c **** static void Oled_Clear(Oled_Obj_TypeDef *Oled_Obj)
 138:Dsp/screen/device/oled1306.c **** {
 185              		.loc 1 138 1 is_stmt 1 view -0
 186              		.cfi_startproc
 187              		@ args = 0, pretend = 0, frame = 0
 188              		@ frame_needed = 0, uses_anonymous_args = 0
 189              		.loc 1 138 1 is_stmt 0 view .LVU43
 190 0000 70B5     		push	{r4, r5, r6, lr}
 191              	.LCFI2:
 192              		.cfi_def_cfa_offset 16
 193              		.cfi_offset 4, -16
 194              		.cfi_offset 5, -12
 195              		.cfi_offset 6, -8
 196              		.cfi_offset 14, -4
 197 0002 0546     		mov	r5, r0
 139:Dsp/screen/device/oled1306.c **** 	for (uint8_t c = 0; c < OLED_COLUMN_BLOCK_NUM; c++)
ARM GAS  /var/folders/lx/hc4sn_b53233_zkc9xbbl97r0000gp/T//ccX8wDmK.s 			page 7


 198              		.loc 1 139 2 is_stmt 1 view .LVU44
 199              	.LBB4:
 200              		.loc 1 139 7 view .LVU45
 201              	.LVL19:
 202              		.loc 1 139 15 is_stmt 0 view .LVU46
 203 0004 0026     		movs	r6, #0
 204              		.loc 1 139 2 view .LVU47
 205 0006 0BE0     		b	.L14
 206              	.LVL20:
 207              	.L16:
 208              	.LBB5:
 140:Dsp/screen/device/oled1306.c **** 	{
 141:Dsp/screen/device/oled1306.c **** 		Oled_TransmitByte(Oled_Obj, (0xb0 + c), Oled_Write_CMD);
 142:Dsp/screen/device/oled1306.c **** 		Oled_TransmitByte(Oled_Obj, 0x00, Oled_Write_CMD);
 143:Dsp/screen/device/oled1306.c **** 		Oled_TransmitByte(Oled_Obj, 0x10, Oled_Write_CMD);
 144:Dsp/screen/device/oled1306.c **** 
 145:Dsp/screen/device/oled1306.c **** 		for (uint8_t r = 0; r < OLED_MAX_WIDTH; r++)
 146:Dsp/screen/device/oled1306.c **** 		{
 147:Dsp/screen/device/oled1306.c **** 			Oled_TransmitByte(Oled_Obj, 0x00, Oled_Write_Data);
 209              		.loc 1 147 4 is_stmt 1 discriminator 3 view .LVU48
 210 0008 0122     		movs	r2, #1
 211 000a 0021     		movs	r1, #0
 212 000c 2846     		mov	r0, r5
 213 000e FFF7FEFF 		bl	Oled_TransmitByte
 214              	.LVL21:
 145:Dsp/screen/device/oled1306.c **** 		{
 215              		.loc 1 145 43 discriminator 3 view .LVU49
 145:Dsp/screen/device/oled1306.c **** 		{
 216              		.loc 1 145 44 is_stmt 0 discriminator 3 view .LVU50
 217 0012 0134     		adds	r4, r4, #1
 218              	.LVL22:
 145:Dsp/screen/device/oled1306.c **** 		{
 219              		.loc 1 145 44 discriminator 3 view .LVU51
 220 0014 E4B2     		uxtb	r4, r4
 221              	.LVL23:
 222              	.L15:
 145:Dsp/screen/device/oled1306.c **** 		{
 223              		.loc 1 145 23 is_stmt 1 discriminator 1 view .LVU52
 145:Dsp/screen/device/oled1306.c **** 		{
 224              		.loc 1 145 3 is_stmt 0 discriminator 1 view .LVU53
 225 0016 14F0800F 		tst	r4, #128
 226 001a F5D0     		beq	.L16
 227              	.LBE5:
 139:Dsp/screen/device/oled1306.c **** 	for (uint8_t c = 0; c < OLED_COLUMN_BLOCK_NUM; c++)
 228              		.loc 1 139 49 is_stmt 1 discriminator 2 view .LVU54
 139:Dsp/screen/device/oled1306.c **** 	for (uint8_t c = 0; c < OLED_COLUMN_BLOCK_NUM; c++)
 229              		.loc 1 139 50 is_stmt 0 discriminator 2 view .LVU55
 230 001c 0136     		adds	r6, r6, #1
 231              	.LVL24:
 139:Dsp/screen/device/oled1306.c **** 	for (uint8_t c = 0; c < OLED_COLUMN_BLOCK_NUM; c++)
 232              		.loc 1 139 50 discriminator 2 view .LVU56
 233 001e F6B2     		uxtb	r6, r6
 234              	.LVL25:
 235              	.L14:
 139:Dsp/screen/device/oled1306.c **** 	for (uint8_t c = 0; c < OLED_COLUMN_BLOCK_NUM; c++)
 236              		.loc 1 139 22 is_stmt 1 discriminator 1 view .LVU57
 139:Dsp/screen/device/oled1306.c **** 	for (uint8_t c = 0; c < OLED_COLUMN_BLOCK_NUM; c++)
ARM GAS  /var/folders/lx/hc4sn_b53233_zkc9xbbl97r0000gp/T//ccX8wDmK.s 			page 8


 237              		.loc 1 139 2 is_stmt 0 discriminator 1 view .LVU58
 238 0020 072E     		cmp	r6, #7
 239 0022 12D8     		bhi	.L19
 141:Dsp/screen/device/oled1306.c **** 		Oled_TransmitByte(Oled_Obj, 0x00, Oled_Write_CMD);
 240              		.loc 1 141 3 is_stmt 1 view .LVU59
 241 0024 A6F15001 		sub	r1, r6, #80
 242 0028 0022     		movs	r2, #0
 243 002a C9B2     		uxtb	r1, r1
 244 002c 2846     		mov	r0, r5
 245 002e FFF7FEFF 		bl	Oled_TransmitByte
 246              	.LVL26:
 142:Dsp/screen/device/oled1306.c **** 		Oled_TransmitByte(Oled_Obj, 0x10, Oled_Write_CMD);
 247              		.loc 1 142 3 view .LVU60
 248 0032 0022     		movs	r2, #0
 249 0034 1146     		mov	r1, r2
 250 0036 2846     		mov	r0, r5
 251 0038 FFF7FEFF 		bl	Oled_TransmitByte
 252              	.LVL27:
 143:Dsp/screen/device/oled1306.c **** 
 253              		.loc 1 143 3 view .LVU61
 254 003c 0022     		movs	r2, #0
 255 003e 1021     		movs	r1, #16
 256 0040 2846     		mov	r0, r5
 257 0042 FFF7FEFF 		bl	Oled_TransmitByte
 258              	.LVL28:
 145:Dsp/screen/device/oled1306.c **** 		{
 259              		.loc 1 145 3 view .LVU62
 260              	.LBB6:
 145:Dsp/screen/device/oled1306.c **** 		{
 261              		.loc 1 145 8 view .LVU63
 145:Dsp/screen/device/oled1306.c **** 		{
 262              		.loc 1 145 16 is_stmt 0 view .LVU64
 263 0046 0024     		movs	r4, #0
 145:Dsp/screen/device/oled1306.c **** 		{
 264              		.loc 1 145 3 view .LVU65
 265 0048 E5E7     		b	.L15
 266              	.LVL29:
 267              	.L19:
 145:Dsp/screen/device/oled1306.c **** 		{
 268              		.loc 1 145 3 view .LVU66
 269              	.LBE6:
 270              	.LBE4:
 148:Dsp/screen/device/oled1306.c **** 		}
 149:Dsp/screen/device/oled1306.c **** 	}
 150:Dsp/screen/device/oled1306.c **** }
 271              		.loc 1 150 1 view .LVU67
 272 004a 70BD     		pop	{r4, r5, r6, pc}
 273              		.loc 1 150 1 view .LVU68
 274              		.cfi_endproc
 275              	.LFE127:
 277              		.section	.text.Oled_GetMax_Width,"ax",%progbits
 278              		.align	1
 279              		.syntax unified
 280              		.thumb
 281              		.thumb_func
 282              		.fpu fpv4-sp-d16
 284              	Oled_GetMax_Width:
ARM GAS  /var/folders/lx/hc4sn_b53233_zkc9xbbl97r0000gp/T//ccX8wDmK.s 			page 9


 285              	.LFB128:
 151:Dsp/screen/device/oled1306.c **** 
 152:Dsp/screen/device/oled1306.c **** static uint8_t Oled_GetMax_Width(void)
 153:Dsp/screen/device/oled1306.c **** {
 286              		.loc 1 153 1 is_stmt 1 view -0
 287              		.cfi_startproc
 288              		@ args = 0, pretend = 0, frame = 0
 289              		@ frame_needed = 0, uses_anonymous_args = 0
 290              		@ link register save eliminated.
 154:Dsp/screen/device/oled1306.c **** 	return OLED_MAX_WIDTH;
 291              		.loc 1 154 2 view .LVU70
 155:Dsp/screen/device/oled1306.c **** }
 292              		.loc 1 155 1 is_stmt 0 view .LVU71
 293 0000 8020     		movs	r0, #128
 294 0002 7047     		bx	lr
 295              		.cfi_endproc
 296              	.LFE128:
 298              		.section	.text.Oled_GetMax_Height,"ax",%progbits
 299              		.align	1
 300              		.syntax unified
 301              		.thumb
 302              		.thumb_func
 303              		.fpu fpv4-sp-d16
 305              	Oled_GetMax_Height:
 306              	.LFB129:
 156:Dsp/screen/device/oled1306.c **** 
 157:Dsp/screen/device/oled1306.c **** static uint8_t Oled_GetMax_Height(void)
 158:Dsp/screen/device/oled1306.c **** {
 307              		.loc 1 158 1 is_stmt 1 view -0
 308              		.cfi_startproc
 309              		@ args = 0, pretend = 0, frame = 0
 310              		@ frame_needed = 0, uses_anonymous_args = 0
 311              		@ link register save eliminated.
 159:Dsp/screen/device/oled1306.c **** 	return OLED_MAX_HEIGHT;
 312              		.loc 1 159 2 view .LVU73
 160:Dsp/screen/device/oled1306.c **** }
 313              		.loc 1 160 1 is_stmt 0 view .LVU74
 314 0000 4020     		movs	r0, #64
 315 0002 7047     		bx	lr
 316              		.cfi_endproc
 317              	.LFE129:
 319              		.section	.text.Oled_MapUpdate,"ax",%progbits
 320              		.align	1
 321              		.syntax unified
 322              		.thumb
 323              		.thumb_func
 324              		.fpu fpv4-sp-d16
 326              	Oled_MapUpdate:
 327              	.LVL30:
 328              	.LFB130:
 161:Dsp/screen/device/oled1306.c **** 
 162:Dsp/screen/device/oled1306.c **** static bool Oled_MapUpdate(Oled_Obj_TypeDef *Oled_Obj, uint8_t **map)
 163:Dsp/screen/device/oled1306.c **** {
 329              		.loc 1 163 1 is_stmt 1 view -0
 330              		.cfi_startproc
 331              		@ args = 0, pretend = 0, frame = 8
 332              		@ frame_needed = 0, uses_anonymous_args = 0
ARM GAS  /var/folders/lx/hc4sn_b53233_zkc9xbbl97r0000gp/T//ccX8wDmK.s 			page 10


 333              		.loc 1 163 1 is_stmt 0 view .LVU76
 334 0000 10B5     		push	{r4, lr}
 335              	.LCFI3:
 336              		.cfi_def_cfa_offset 8
 337              		.cfi_offset 4, -8
 338              		.cfi_offset 14, -4
 339 0002 82B0     		sub	sp, sp, #8
 340              	.LCFI4:
 341              		.cfi_def_cfa_offset 16
 164:Dsp/screen/device/oled1306.c **** 	volatile uint8_t tmp = 0;
 342              		.loc 1 164 2 is_stmt 1 view .LVU77
 343              		.loc 1 164 19 is_stmt 0 view .LVU78
 344 0004 0023     		movs	r3, #0
 345 0006 8DF80730 		strb	r3, [sp, #7]
 165:Dsp/screen/device/oled1306.c **** 
 166:Dsp/screen/device/oled1306.c **** 	if ((Oled_Obj == NULL) || (map == NULL))
 346              		.loc 1 166 2 is_stmt 1 view .LVU79
 347              		.loc 1 166 5 is_stmt 0 view .LVU80
 348 000a 28B3     		cbz	r0, .L27
 349 000c 0C46     		mov	r4, r1
 350              		.loc 1 166 25 discriminator 1 view .LVU81
 351 000e 29B3     		cbz	r1, .L28
 352              	.LBB7:
 167:Dsp/screen/device/oled1306.c **** 		return false;
 168:Dsp/screen/device/oled1306.c **** 
 169:Dsp/screen/device/oled1306.c **** 	for (uint8_t row_index = 0; row_index < OLED_MAX_WIDTH; row_index++)
 353              		.loc 1 169 15 view .LVU82
 354 0010 9E46     		mov	lr, r3
 355 0012 19E0     		b	.L24
 356              	.LVL31:
 357              	.L25:
 358              	.LBB8:
 170:Dsp/screen/device/oled1306.c **** 	{
 171:Dsp/screen/device/oled1306.c **** 		for (uint8_t column_index = 0; column_index < OLED_MAX_HEIGHT; column_index++)
 172:Dsp/screen/device/oled1306.c **** 		{
 173:Dsp/screen/device/oled1306.c **** 			blackboard[row_index][column_index / COLUMN_SIZE] |= map[column_index][row_index] << (column_ind
 359              		.loc 1 173 4 is_stmt 1 discriminator 3 view .LVU83
 360              		.loc 1 173 54 is_stmt 0 discriminator 3 view .LVU84
 361 0014 4FEAD30C 		lsr	ip, r3, #3
 362              		.loc 1 173 60 discriminator 3 view .LVU85
 363 0018 54F82320 		ldr	r2, [r4, r3, lsl #2]
 364              		.loc 1 173 74 discriminator 3 view .LVU86
 365 001c 12F80E10 		ldrb	r1, [r2, lr]	@ zero_extendqisi2
 366              		.loc 1 173 103 discriminator 3 view .LVU87
 367 0020 03F00700 		and	r0, r3, #7
 368              		.loc 1 173 86 discriminator 3 view .LVU88
 369 0024 01FA00F0 		lsl	r0, r1, r0
 370              		.loc 1 173 54 discriminator 3 view .LVU89
 371 0028 0D4A     		ldr	r2, .L32
 372 002a 02EBCE02 		add	r2, r2, lr, lsl #3
 373 002e 12F80C10 		ldrb	r1, [r2, ip]	@ zero_extendqisi2
 374 0032 0143     		orrs	r1, r1, r0
 375 0034 02F80C10 		strb	r1, [r2, ip]
 171:Dsp/screen/device/oled1306.c **** 		{
 376              		.loc 1 171 66 is_stmt 1 discriminator 3 view .LVU90
 171:Dsp/screen/device/oled1306.c **** 		{
 377              		.loc 1 171 78 is_stmt 0 discriminator 3 view .LVU91
ARM GAS  /var/folders/lx/hc4sn_b53233_zkc9xbbl97r0000gp/T//ccX8wDmK.s 			page 11


 378 0038 0133     		adds	r3, r3, #1
 379              	.LVL32:
 171:Dsp/screen/device/oled1306.c **** 		{
 380              		.loc 1 171 78 discriminator 3 view .LVU92
 381 003a DBB2     		uxtb	r3, r3
 382              	.LVL33:
 383              	.L26:
 171:Dsp/screen/device/oled1306.c **** 		{
 384              		.loc 1 171 34 is_stmt 1 discriminator 1 view .LVU93
 171:Dsp/screen/device/oled1306.c **** 		{
 385              		.loc 1 171 3 is_stmt 0 discriminator 1 view .LVU94
 386 003c 3F2B     		cmp	r3, #63
 387 003e E9D9     		bls	.L25
 388              	.LBE8:
 169:Dsp/screen/device/oled1306.c **** 	{
 389              		.loc 1 169 58 is_stmt 1 discriminator 2 view .LVU95
 169:Dsp/screen/device/oled1306.c **** 	{
 390              		.loc 1 169 67 is_stmt 0 discriminator 2 view .LVU96
 391 0040 0EF1010E 		add	lr, lr, #1
 392              	.LVL34:
 169:Dsp/screen/device/oled1306.c **** 	{
 393              		.loc 1 169 67 discriminator 2 view .LVU97
 394 0044 5FFA8EFE 		uxtb	lr, lr
 395              	.LVL35:
 396              	.L24:
 169:Dsp/screen/device/oled1306.c **** 	{
 397              		.loc 1 169 30 is_stmt 1 discriminator 1 view .LVU98
 169:Dsp/screen/device/oled1306.c **** 	{
 398              		.loc 1 169 2 is_stmt 0 discriminator 1 view .LVU99
 399 0048 1EF0800F 		tst	lr, #128
 400 004c 01D1     		bne	.L31
 401              	.LBB9:
 171:Dsp/screen/device/oled1306.c **** 		{
 402              		.loc 1 171 16 view .LVU100
 403 004e 0023     		movs	r3, #0
 404 0050 F4E7     		b	.L26
 405              	.L31:
 406              	.LBE9:
 407              	.LBE7:
 174:Dsp/screen/device/oled1306.c **** 		}
 175:Dsp/screen/device/oled1306.c **** 	}
 176:Dsp/screen/device/oled1306.c **** 	return true;
 408              		.loc 1 176 9 view .LVU101
 409 0052 0120     		movs	r0, #1
 410              	.LVL36:
 411              	.L23:
 177:Dsp/screen/device/oled1306.c **** }
 412              		.loc 1 177 1 view .LVU102
 413 0054 02B0     		add	sp, sp, #8
 414              	.LCFI5:
 415              		.cfi_remember_state
 416              		.cfi_def_cfa_offset 8
 417              		@ sp needed
 418 0056 10BD     		pop	{r4, pc}
 419              	.LVL37:
 420              	.L27:
 421              	.LCFI6:
ARM GAS  /var/folders/lx/hc4sn_b53233_zkc9xbbl97r0000gp/T//ccX8wDmK.s 			page 12


 422              		.cfi_restore_state
 167:Dsp/screen/device/oled1306.c **** 
 423              		.loc 1 167 10 view .LVU103
 424 0058 0020     		movs	r0, #0
 425              	.LVL38:
 167:Dsp/screen/device/oled1306.c **** 
 426              		.loc 1 167 10 view .LVU104
 427 005a FBE7     		b	.L23
 428              	.LVL39:
 429              	.L28:
 167:Dsp/screen/device/oled1306.c **** 
 430              		.loc 1 167 10 view .LVU105
 431 005c 0020     		movs	r0, #0
 432              	.LVL40:
 167:Dsp/screen/device/oled1306.c **** 
 433              		.loc 1 167 10 view .LVU106
 434 005e F9E7     		b	.L23
 435              	.L33:
 436              		.align	2
 437              	.L32:
 438 0060 00000000 		.word	.LANCHOR2
 439              		.cfi_endproc
 440              	.LFE130:
 442              		.section	.text.Oled_Refresh,"ax",%progbits
 443              		.align	1
 444              		.syntax unified
 445              		.thumb
 446              		.thumb_func
 447              		.fpu fpv4-sp-d16
 449              	Oled_Refresh:
 450              	.LVL41:
 451              	.LFB126:
 113:Dsp/screen/device/oled1306.c **** 	//update pixel map
 452              		.loc 1 113 1 is_stmt 1 view -0
 453              		.cfi_startproc
 454              		@ args = 0, pretend = 0, frame = 0
 455              		@ frame_needed = 0, uses_anonymous_args = 0
 113:Dsp/screen/device/oled1306.c **** 	//update pixel map
 456              		.loc 1 113 1 is_stmt 0 view .LVU108
 457 0000 F8B5     		push	{r3, r4, r5, r6, r7, lr}
 458              	.LCFI7:
 459              		.cfi_def_cfa_offset 24
 460              		.cfi_offset 3, -24
 461              		.cfi_offset 4, -20
 462              		.cfi_offset 5, -16
 463              		.cfi_offset 6, -12
 464              		.cfi_offset 7, -8
 465              		.cfi_offset 14, -4
 466 0002 0646     		mov	r6, r0
 115:Dsp/screen/device/oled1306.c **** 	{
 467              		.loc 1 115 2 is_stmt 1 view .LVU109
 115:Dsp/screen/device/oled1306.c **** 	{
 468              		.loc 1 115 7 is_stmt 0 view .LVU110
 469 0004 FFF7FEFF 		bl	Oled_MapUpdate
 470              	.LVL42:
 115:Dsp/screen/device/oled1306.c **** 	{
 471              		.loc 1 115 5 view .LVU111
ARM GAS  /var/folders/lx/hc4sn_b53233_zkc9xbbl97r0000gp/T//ccX8wDmK.s 			page 13


 472 0008 0746     		mov	r7, r0
 473 000a 28B3     		cbz	r0, .L36
 474              	.LBB10:
 120:Dsp/screen/device/oled1306.c **** 	{
 475              		.loc 1 120 15 view .LVU112
 476 000c 0025     		movs	r5, #0
 477 000e 0EE0     		b	.L35
 478              	.LVL43:
 479              	.L38:
 480              	.LBB11:
 130:Dsp/screen/device/oled1306.c **** 		}
 481              		.loc 1 130 4 is_stmt 1 discriminator 3 view .LVU113
 482 0010 124B     		ldr	r3, .L42
 483 0012 03EBC403 		add	r3, r3, r4, lsl #3
 484 0016 0122     		movs	r2, #1
 485 0018 595D     		ldrb	r1, [r3, r5]	@ zero_extendqisi2
 486 001a 3046     		mov	r0, r6
 487 001c FFF7FEFF 		bl	Oled_TransmitByte
 488              	.LVL44:
 128:Dsp/screen/device/oled1306.c **** 		{
 489              		.loc 1 128 43 discriminator 3 view .LVU114
 128:Dsp/screen/device/oled1306.c **** 		{
 490              		.loc 1 128 44 is_stmt 0 discriminator 3 view .LVU115
 491 0020 0134     		adds	r4, r4, #1
 492              	.LVL45:
 128:Dsp/screen/device/oled1306.c **** 		{
 493              		.loc 1 128 44 discriminator 3 view .LVU116
 494 0022 E4B2     		uxtb	r4, r4
 495              	.LVL46:
 496              	.L37:
 128:Dsp/screen/device/oled1306.c **** 		{
 497              		.loc 1 128 23 is_stmt 1 discriminator 1 view .LVU117
 128:Dsp/screen/device/oled1306.c **** 		{
 498              		.loc 1 128 3 is_stmt 0 discriminator 1 view .LVU118
 499 0024 14F0800F 		tst	r4, #128
 500 0028 F2D0     		beq	.L38
 501              	.LBE11:
 120:Dsp/screen/device/oled1306.c **** 	{
 502              		.loc 1 120 49 is_stmt 1 discriminator 2 view .LVU119
 120:Dsp/screen/device/oled1306.c **** 	{
 503              		.loc 1 120 50 is_stmt 0 discriminator 2 view .LVU120
 504 002a 0135     		adds	r5, r5, #1
 505              	.LVL47:
 120:Dsp/screen/device/oled1306.c **** 	{
 506              		.loc 1 120 50 discriminator 2 view .LVU121
 507 002c EDB2     		uxtb	r5, r5
 508              	.LVL48:
 509              	.L35:
 120:Dsp/screen/device/oled1306.c **** 	{
 510              		.loc 1 120 22 is_stmt 1 discriminator 1 view .LVU122
 120:Dsp/screen/device/oled1306.c **** 	{
 511              		.loc 1 120 2 is_stmt 0 discriminator 1 view .LVU123
 512 002e 072D     		cmp	r5, #7
 513 0030 12D8     		bhi	.L36
 123:Dsp/screen/device/oled1306.c **** 		Oled_TransmitByte(Oled_Obj, 0x00, Oled_Write_CMD);
 514              		.loc 1 123 3 is_stmt 1 view .LVU124
 515 0032 A5F15001 		sub	r1, r5, #80
ARM GAS  /var/folders/lx/hc4sn_b53233_zkc9xbbl97r0000gp/T//ccX8wDmK.s 			page 14


 516 0036 0022     		movs	r2, #0
 517 0038 C9B2     		uxtb	r1, r1
 518 003a 3046     		mov	r0, r6
 519 003c FFF7FEFF 		bl	Oled_TransmitByte
 520              	.LVL49:
 124:Dsp/screen/device/oled1306.c **** 		Oled_TransmitByte(Oled_Obj, 0x10, Oled_Write_CMD);
 521              		.loc 1 124 3 view .LVU125
 522 0040 0022     		movs	r2, #0
 523 0042 1146     		mov	r1, r2
 524 0044 3046     		mov	r0, r6
 525 0046 FFF7FEFF 		bl	Oled_TransmitByte
 526              	.LVL50:
 125:Dsp/screen/device/oled1306.c **** 
 527              		.loc 1 125 3 view .LVU126
 528 004a 0022     		movs	r2, #0
 529 004c 1021     		movs	r1, #16
 530 004e 3046     		mov	r0, r6
 531 0050 FFF7FEFF 		bl	Oled_TransmitByte
 532              	.LVL51:
 128:Dsp/screen/device/oled1306.c **** 		{
 533              		.loc 1 128 3 view .LVU127
 534              	.LBB12:
 128:Dsp/screen/device/oled1306.c **** 		{
 535              		.loc 1 128 8 view .LVU128
 128:Dsp/screen/device/oled1306.c **** 		{
 536              		.loc 1 128 16 is_stmt 0 view .LVU129
 537 0054 0024     		movs	r4, #0
 128:Dsp/screen/device/oled1306.c **** 		{
 538              		.loc 1 128 3 view .LVU130
 539 0056 E5E7     		b	.L37
 540              	.LVL52:
 541              	.L36:
 128:Dsp/screen/device/oled1306.c **** 		{
 542              		.loc 1 128 3 view .LVU131
 543              	.LBE12:
 544              	.LBE10:
 135:Dsp/screen/device/oled1306.c **** 
 545              		.loc 1 135 1 view .LVU132
 546 0058 3846     		mov	r0, r7
 547 005a F8BD     		pop	{r3, r4, r5, r6, r7, pc}
 548              	.LVL53:
 549              	.L43:
 135:Dsp/screen/device/oled1306.c **** 
 550              		.loc 1 135 1 view .LVU133
 551              		.align	2
 552              	.L42:
 553 005c 00000000 		.word	.LANCHOR2
 554              		.cfi_endproc
 555              	.LFE126:
 557              		.section	.text.Oled_Init,"ax",%progbits
 558              		.align	1
 559              		.syntax unified
 560              		.thumb
 561              		.thumb_func
 562              		.fpu fpv4-sp-d16
 564              	Oled_Init:
 565              	.LVL54:
ARM GAS  /var/folders/lx/hc4sn_b53233_zkc9xbbl97r0000gp/T//ccX8wDmK.s 			page 15


 566              	.LFB125:
  65:Dsp/screen/device/oled1306.c **** 	Oled_Obj->bus_init(Oled_Obj->BusID);
 567              		.loc 1 65 1 is_stmt 1 view -0
 568              		.cfi_startproc
 569              		@ args = 0, pretend = 0, frame = 0
 570              		@ frame_needed = 0, uses_anonymous_args = 0
  65:Dsp/screen/device/oled1306.c **** 	Oled_Obj->bus_init(Oled_Obj->BusID);
 571              		.loc 1 65 1 is_stmt 0 view .LVU135
 572 0000 10B5     		push	{r4, lr}
 573              	.LCFI8:
 574              		.cfi_def_cfa_offset 8
 575              		.cfi_offset 4, -8
 576              		.cfi_offset 14, -4
 577 0002 0446     		mov	r4, r0
  66:Dsp/screen/device/oled1306.c **** 	Oled_Obj->dc_init();
 578              		.loc 1 66 2 is_stmt 1 view .LVU136
  66:Dsp/screen/device/oled1306.c **** 	Oled_Obj->dc_init();
 579              		.loc 1 66 10 is_stmt 0 view .LVU137
 580 0004 D0F81630 		ldr	r3, [r0, #22]	@ unaligned
  66:Dsp/screen/device/oled1306.c **** 	Oled_Obj->dc_init();
 581              		.loc 1 66 2 view .LVU138
 582 0008 4079     		ldrb	r0, [r0, #5]	@ zero_extendqisi2
 583              	.LVL55:
  66:Dsp/screen/device/oled1306.c **** 	Oled_Obj->dc_init();
 584              		.loc 1 66 2 view .LVU139
 585 000a 9847     		blx	r3
 586              	.LVL56:
  67:Dsp/screen/device/oled1306.c **** 	Oled_Obj->rs_init();
 587              		.loc 1 67 2 is_stmt 1 view .LVU140
  67:Dsp/screen/device/oled1306.c **** 	Oled_Obj->rs_init();
 588              		.loc 1 67 10 is_stmt 0 view .LVU141
 589 000c D4F80A30 		ldr	r3, [r4, #10]	@ unaligned
  67:Dsp/screen/device/oled1306.c **** 	Oled_Obj->rs_init();
 590              		.loc 1 67 2 view .LVU142
 591 0010 9847     		blx	r3
 592              	.LVL57:
  68:Dsp/screen/device/oled1306.c **** 
 593              		.loc 1 68 2 is_stmt 1 view .LVU143
  68:Dsp/screen/device/oled1306.c **** 
 594              		.loc 1 68 10 is_stmt 0 view .LVU144
 595 0012 D4F80630 		ldr	r3, [r4, #6]	@ unaligned
  68:Dsp/screen/device/oled1306.c **** 
 596              		.loc 1 68 2 view .LVU145
 597 0016 9847     		blx	r3
 598              	.LVL58:
  70:Dsp/screen/device/oled1306.c **** 	delay_ms(100);
 599              		.loc 1 70 2 is_stmt 1 view .LVU146
  70:Dsp/screen/device/oled1306.c **** 	delay_ms(100);
 600              		.loc 1 70 10 is_stmt 0 view .LVU147
 601 0018 D4F80E30 		ldr	r3, [r4, #14]	@ unaligned
  70:Dsp/screen/device/oled1306.c **** 	delay_ms(100);
 602              		.loc 1 70 2 view .LVU148
 603 001c 0120     		movs	r0, #1
 604 001e 9847     		blx	r3
 605              	.LVL59:
  71:Dsp/screen/device/oled1306.c **** 	Oled_Obj->rs_ctl(Oled_RS_Enable);
 606              		.loc 1 71 2 is_stmt 1 view .LVU149
ARM GAS  /var/folders/lx/hc4sn_b53233_zkc9xbbl97r0000gp/T//ccX8wDmK.s 			page 16


 607 0020 6420     		movs	r0, #100
 608 0022 FFF7FEFF 		bl	delay_ms
 609              	.LVL60:
  72:Dsp/screen/device/oled1306.c **** 
 610              		.loc 1 72 2 view .LVU150
  72:Dsp/screen/device/oled1306.c **** 
 611              		.loc 1 72 10 is_stmt 0 view .LVU151
 612 0026 D4F80E30 		ldr	r3, [r4, #14]	@ unaligned
  72:Dsp/screen/device/oled1306.c **** 
 613              		.loc 1 72 2 view .LVU152
 614 002a 0020     		movs	r0, #0
 615 002c 9847     		blx	r3
 616              	.LVL61:
  74:Dsp/screen/device/oled1306.c **** 	Oled_TransmitByte(Oled_Obj, 0xD5, Oled_Write_CMD);
 617              		.loc 1 74 2 is_stmt 1 view .LVU153
 618 002e 0022     		movs	r2, #0
 619 0030 AE21     		movs	r1, #174
 620 0032 2046     		mov	r0, r4
 621 0034 FFF7FEFF 		bl	Oled_TransmitByte
 622              	.LVL62:
  75:Dsp/screen/device/oled1306.c **** 	Oled_TransmitByte(Oled_Obj, 80, Oled_Write_CMD);
 623              		.loc 1 75 2 view .LVU154
 624 0038 0022     		movs	r2, #0
 625 003a D521     		movs	r1, #213
 626 003c 2046     		mov	r0, r4
 627 003e FFF7FEFF 		bl	Oled_TransmitByte
 628              	.LVL63:
  76:Dsp/screen/device/oled1306.c **** 	Oled_TransmitByte(Oled_Obj, 0xA8, Oled_Write_CMD);
 629              		.loc 1 76 2 view .LVU155
 630 0042 0022     		movs	r2, #0
 631 0044 5021     		movs	r1, #80
 632 0046 2046     		mov	r0, r4
 633 0048 FFF7FEFF 		bl	Oled_TransmitByte
 634              	.LVL64:
  77:Dsp/screen/device/oled1306.c **** 	Oled_TransmitByte(Oled_Obj, 0X3F, Oled_Write_CMD);
 635              		.loc 1 77 2 view .LVU156
 636 004c 0022     		movs	r2, #0
 637 004e A821     		movs	r1, #168
 638 0050 2046     		mov	r0, r4
 639 0052 FFF7FEFF 		bl	Oled_TransmitByte
 640              	.LVL65:
  78:Dsp/screen/device/oled1306.c **** 	Oled_TransmitByte(Oled_Obj, 0xD3, Oled_Write_CMD);
 641              		.loc 1 78 2 view .LVU157
 642 0056 0022     		movs	r2, #0
 643 0058 3F21     		movs	r1, #63
 644 005a 2046     		mov	r0, r4
 645 005c FFF7FEFF 		bl	Oled_TransmitByte
 646              	.LVL66:
  79:Dsp/screen/device/oled1306.c **** 	Oled_TransmitByte(Oled_Obj, 0X00, Oled_Write_CMD);
 647              		.loc 1 79 2 view .LVU158
 648 0060 0022     		movs	r2, #0
 649 0062 D321     		movs	r1, #211
 650 0064 2046     		mov	r0, r4
 651 0066 FFF7FEFF 		bl	Oled_TransmitByte
 652              	.LVL67:
  80:Dsp/screen/device/oled1306.c **** 
 653              		.loc 1 80 2 view .LVU159
ARM GAS  /var/folders/lx/hc4sn_b53233_zkc9xbbl97r0000gp/T//ccX8wDmK.s 			page 17


 654 006a 0022     		movs	r2, #0
 655 006c 1146     		mov	r1, r2
 656 006e 2046     		mov	r0, r4
 657 0070 FFF7FEFF 		bl	Oled_TransmitByte
 658              	.LVL68:
  82:Dsp/screen/device/oled1306.c **** 
 659              		.loc 1 82 2 view .LVU160
 660 0074 0022     		movs	r2, #0
 661 0076 4021     		movs	r1, #64
 662 0078 2046     		mov	r0, r4
 663 007a FFF7FEFF 		bl	Oled_TransmitByte
 664              	.LVL69:
  84:Dsp/screen/device/oled1306.c **** 	Oled_TransmitByte(Oled_Obj, 0x14, Oled_Write_CMD);
 665              		.loc 1 84 2 view .LVU161
 666 007e 0022     		movs	r2, #0
 667 0080 8D21     		movs	r1, #141
 668 0082 2046     		mov	r0, r4
 669 0084 FFF7FEFF 		bl	Oled_TransmitByte
 670              	.LVL70:
  85:Dsp/screen/device/oled1306.c **** 	Oled_TransmitByte(Oled_Obj, 0x14, Oled_Write_CMD);
 671              		.loc 1 85 2 view .LVU162
 672 0088 0022     		movs	r2, #0
 673 008a 1421     		movs	r1, #20
 674 008c 2046     		mov	r0, r4
 675 008e FFF7FEFF 		bl	Oled_TransmitByte
 676              	.LVL71:
  86:Dsp/screen/device/oled1306.c **** 	Oled_TransmitByte(Oled_Obj, 0x20, Oled_Write_CMD);
 677              		.loc 1 86 2 view .LVU163
 678 0092 0022     		movs	r2, #0
 679 0094 1421     		movs	r1, #20
 680 0096 2046     		mov	r0, r4
 681 0098 FFF7FEFF 		bl	Oled_TransmitByte
 682              	.LVL72:
  87:Dsp/screen/device/oled1306.c **** 	Oled_TransmitByte(Oled_Obj, 0x02, Oled_Write_CMD);
 683              		.loc 1 87 2 view .LVU164
 684 009c 0022     		movs	r2, #0
 685 009e 2021     		movs	r1, #32
 686 00a0 2046     		mov	r0, r4
 687 00a2 FFF7FEFF 		bl	Oled_TransmitByte
 688              	.LVL73:
  88:Dsp/screen/device/oled1306.c **** 
 689              		.loc 1 88 2 view .LVU165
 690 00a6 0022     		movs	r2, #0
 691 00a8 0221     		movs	r1, #2
 692 00aa 2046     		mov	r0, r4
 693 00ac FFF7FEFF 		bl	Oled_TransmitByte
 694              	.LVL74:
  90:Dsp/screen/device/oled1306.c **** 	Oled_TransmitByte(Oled_Obj, 0xC8, Oled_Write_CMD);
 695              		.loc 1 90 2 view .LVU166
 696 00b0 0022     		movs	r2, #0
 697 00b2 A021     		movs	r1, #160
 698 00b4 2046     		mov	r0, r4
 699 00b6 FFF7FEFF 		bl	Oled_TransmitByte
 700              	.LVL75:
  91:Dsp/screen/device/oled1306.c **** 
 701              		.loc 1 91 2 view .LVU167
 702 00ba 0022     		movs	r2, #0
ARM GAS  /var/folders/lx/hc4sn_b53233_zkc9xbbl97r0000gp/T//ccX8wDmK.s 			page 18


 703 00bc C821     		movs	r1, #200
 704 00be 2046     		mov	r0, r4
 705 00c0 FFF7FEFF 		bl	Oled_TransmitByte
 706              	.LVL76:
  93:Dsp/screen/device/oled1306.c **** 	Oled_TransmitByte(Oled_Obj, 0x12, Oled_Write_CMD);
 707              		.loc 1 93 2 view .LVU168
 708 00c4 0022     		movs	r2, #0
 709 00c6 DA21     		movs	r1, #218
 710 00c8 2046     		mov	r0, r4
 711 00ca FFF7FEFF 		bl	Oled_TransmitByte
 712              	.LVL77:
  94:Dsp/screen/device/oled1306.c **** 
 713              		.loc 1 94 2 view .LVU169
 714 00ce 0022     		movs	r2, #0
 715 00d0 1221     		movs	r1, #18
 716 00d2 2046     		mov	r0, r4
 717 00d4 FFF7FEFF 		bl	Oled_TransmitByte
 718              	.LVL78:
  96:Dsp/screen/device/oled1306.c **** 	Oled_TransmitByte(Oled_Obj, 0xEF, Oled_Write_CMD);
 719              		.loc 1 96 2 view .LVU170
 720 00d8 0022     		movs	r2, #0
 721 00da 8121     		movs	r1, #129
 722 00dc 2046     		mov	r0, r4
 723 00de FFF7FEFF 		bl	Oled_TransmitByte
 724              	.LVL79:
  97:Dsp/screen/device/oled1306.c **** 	Oled_TransmitByte(Oled_Obj, 0xD9, Oled_Write_CMD);
 725              		.loc 1 97 2 view .LVU171
 726 00e2 0022     		movs	r2, #0
 727 00e4 EF21     		movs	r1, #239
 728 00e6 2046     		mov	r0, r4
 729 00e8 FFF7FEFF 		bl	Oled_TransmitByte
 730              	.LVL80:
  98:Dsp/screen/device/oled1306.c **** 	Oled_TransmitByte(Oled_Obj, 0xf1, Oled_Write_CMD);
 731              		.loc 1 98 2 view .LVU172
 732 00ec 0022     		movs	r2, #0
 733 00ee D921     		movs	r1, #217
 734 00f0 2046     		mov	r0, r4
 735 00f2 FFF7FEFF 		bl	Oled_TransmitByte
 736              	.LVL81:
  99:Dsp/screen/device/oled1306.c **** 	Oled_TransmitByte(Oled_Obj, 0xDB, Oled_Write_CMD);
 737              		.loc 1 99 2 view .LVU173
 738 00f6 0022     		movs	r2, #0
 739 00f8 F121     		movs	r1, #241
 740 00fa 2046     		mov	r0, r4
 741 00fc FFF7FEFF 		bl	Oled_TransmitByte
 742              	.LVL82:
 100:Dsp/screen/device/oled1306.c **** 	Oled_TransmitByte(Oled_Obj, 0x30, Oled_Write_CMD);
 743              		.loc 1 100 2 view .LVU174
 744 0100 0022     		movs	r2, #0
 745 0102 DB21     		movs	r1, #219
 746 0104 2046     		mov	r0, r4
 747 0106 FFF7FEFF 		bl	Oled_TransmitByte
 748              	.LVL83:
 101:Dsp/screen/device/oled1306.c **** 
 749              		.loc 1 101 2 view .LVU175
 750 010a 0022     		movs	r2, #0
 751 010c 3021     		movs	r1, #48
ARM GAS  /var/folders/lx/hc4sn_b53233_zkc9xbbl97r0000gp/T//ccX8wDmK.s 			page 19


 752 010e 2046     		mov	r0, r4
 753 0110 FFF7FEFF 		bl	Oled_TransmitByte
 754              	.LVL84:
 103:Dsp/screen/device/oled1306.c **** 	Oled_TransmitByte(Oled_Obj, 0xA6, Oled_Write_CMD);
 755              		.loc 1 103 2 view .LVU176
 756 0114 0022     		movs	r2, #0
 757 0116 A421     		movs	r1, #164
 758 0118 2046     		mov	r0, r4
 759 011a FFF7FEFF 		bl	Oled_TransmitByte
 760              	.LVL85:
 104:Dsp/screen/device/oled1306.c **** 	Oled_TransmitByte(Oled_Obj, 0xAF, Oled_Write_CMD);
 761              		.loc 1 104 2 view .LVU177
 762 011e 0022     		movs	r2, #0
 763 0120 A621     		movs	r1, #166
 764 0122 2046     		mov	r0, r4
 765 0124 FFF7FEFF 		bl	Oled_TransmitByte
 766              	.LVL86:
 105:Dsp/screen/device/oled1306.c **** 
 767              		.loc 1 105 2 view .LVU178
 768 0128 0022     		movs	r2, #0
 769 012a AF21     		movs	r1, #175
 770 012c 2046     		mov	r0, r4
 771 012e FFF7FEFF 		bl	Oled_TransmitByte
 772              	.LVL87:
 107:Dsp/screen/device/oled1306.c **** 
 773              		.loc 1 107 2 view .LVU179
 774 0132 2046     		mov	r0, r4
 775 0134 FFF7FEFF 		bl	Oled_Clear
 776              	.LVL88:
 109:Dsp/screen/device/oled1306.c **** }
 777              		.loc 1 109 2 view .LVU180
 110:Dsp/screen/device/oled1306.c **** 
 778              		.loc 1 110 1 is_stmt 0 view .LVU181
 779 0138 0120     		movs	r0, #1
 780 013a 10BD     		pop	{r4, pc}
 110:Dsp/screen/device/oled1306.c **** 
 781              		.loc 1 110 1 view .LVU182
 782              		.cfi_endproc
 783              	.LFE125:
 785              		.global	DrvOled
 786              		.global	OledDisable_CMD
 787              		.global	OledEnable_CMD
 788              		.section	.bss.blackboard,"aw",%nobits
 789              		.align	2
 790              		.set	.LANCHOR2,. + 0
 793              	blackboard:
 794 0000 00000000 		.space	1024
 794      00000000 
 794      00000000 
 794      00000000 
 794      00000000 
 795              		.section	.data.DrvOled,"aw"
 796              		.align	2
 799              	DrvOled:
 800 0000 00000000 		.word	Oled_Init
 801 0004 00000000 		.word	Oled_EnableControl
 802 0008 00000000 		.word	Oled_Refresh
ARM GAS  /var/folders/lx/hc4sn_b53233_zkc9xbbl97r0000gp/T//ccX8wDmK.s 			page 20


 803 000c 00000000 		.word	Oled_Clear
 804 0010 00000000 		.word	Oled_GetMax_Width
 805 0014 00000000 		.word	Oled_GetMax_Height
 806              		.section	.rodata.OledDisable_CMD,"a"
 807              		.align	2
 808              		.set	.LANCHOR0,. + 0
 811              	OledDisable_CMD:
 812 0000 10AE     		.ascii	"\020\256"
 813              		.section	.rodata.OledEnable_CMD,"a"
 814              		.align	2
 815              		.set	.LANCHOR1,. + 0
 818              	OledEnable_CMD:
 819 0000 14AF     		.ascii	"\024\257"
 820              		.text
 821              	.Letext0:
 822              		.file 2 "/usr/local/arm-none-eabi-gcc/gcc-arm-none-eabi-10-2020-q4-major/arm-none-eabi/include/mac
 823              		.file 3 "/usr/local/arm-none-eabi-gcc/gcc-arm-none-eabi-10-2020-q4-major/arm-none-eabi/include/sys
 824              		.file 4 "Dsp/screen/device/oled1306.h"
 825              		.file 5 "SYS/delay/delay.h"
ARM GAS  /var/folders/lx/hc4sn_b53233_zkc9xbbl97r0000gp/T//ccX8wDmK.s 			page 21

