ARM GAS  /tmp/cc6QKvOa.s 			page 1


   1              		.cpu cortex-m4
   2              		.eabi_attribute 27, 1
   3              		.eabi_attribute 28, 1
   4              		.eabi_attribute 20, 1
   5              		.eabi_attribute 21, 1
   6              		.eabi_attribute 23, 3
   7              		.eabi_attribute 24, 1
   8              		.eabi_attribute 25, 1
   9              		.eabi_attribute 26, 1
  10              		.eabi_attribute 30, 1
  11              		.eabi_attribute 34, 1
  12              		.eabi_attribute 18, 4
  13              		.file	"oled1306.c"
  14              		.text
  15              	.Ltext0:
  16              		.cfi_sections	.debug_frame
  17              		.section	.text.Oled_TransmitByte,"ax",%progbits
  18              		.align	1
  19              		.arch armv7e-m
  20              		.syntax unified
  21              		.thumb
  22              		.thumb_func
  23              		.fpu fpv4-sp-d16
  25              	Oled_TransmitByte:
  26              	.LVL0:
  27              	.LFB123:
  28              		.file 1 "Dsp/screen/device/oled1306.c"
   1:Dsp/screen/device/oled1306.c **** #include "oled1306.h"
   2:Dsp/screen/device/oled1306.c **** #include "delay.h"
   3:Dsp/screen/device/oled1306.c **** 
   4:Dsp/screen/device/oled1306.c **** /* const static variable */
   5:Dsp/screen/device/oled1306.c **** const uint8_t OledEnable_CMD[2] = {0X14, 0XAF};
   6:Dsp/screen/device/oled1306.c **** const uint8_t OledDisable_CMD[2] = {0X10, 0XAE};
   7:Dsp/screen/device/oled1306.c **** 
   8:Dsp/screen/device/oled1306.c **** /* external funtion for app or midware */
   9:Dsp/screen/device/oled1306.c **** static void Oled_EnableControl(Oled_Obj_TypeDef *Oled_Obj, Oled_Enable_State_List state);
  10:Dsp/screen/device/oled1306.c **** static bool Oled_Init(Oled_Obj_TypeDef *Oled_Obj);
  11:Dsp/screen/device/oled1306.c **** static void Oled_Clear(Oled_Obj_TypeDef *Oled_Obj);
  12:Dsp/screen/device/oled1306.c **** static bool Oled_MapUpdate(Oled_Obj_TypeDef *Oled_Obj, uint8_t **map);
  13:Dsp/screen/device/oled1306.c **** static uint8_t Oled_GetMax_Width(void);
  14:Dsp/screen/device/oled1306.c **** static uint8_t Oled_GetMax_Height(void);
  15:Dsp/screen/device/oled1306.c **** static bool Oled_SetBright(Oled_Bright_Level lvl);
  16:Dsp/screen/device/oled1306.c **** 
  17:Dsp/screen/device/oled1306.c **** /* internal function */
  18:Dsp/screen/device/oled1306.c **** static void Oled_TransmitByte(Oled_Obj_TypeDef *Oled_Obj, uint8_t data, Oled_Write_Type type);
  19:Dsp/screen/device/oled1306.c **** 
  20:Dsp/screen/device/oled1306.c **** Oled_GenProcFunc_TypeDef DrvOled = {
  21:Dsp/screen/device/oled1306.c **** 	.init = Oled_Init,
  22:Dsp/screen/device/oled1306.c **** 	.enable_set = Oled_EnableControl,
  23:Dsp/screen/device/oled1306.c **** 	.fresh = Oled_MapUpdate,
  24:Dsp/screen/device/oled1306.c **** 	.clear = Oled_Clear,
  25:Dsp/screen/device/oled1306.c **** 	.bright = Oled_SetBright,
  26:Dsp/screen/device/oled1306.c **** 	.get_max_height = Oled_GetMax_Height,
  27:Dsp/screen/device/oled1306.c **** 	.get_max_width = Oled_GetMax_Width,
  28:Dsp/screen/device/oled1306.c **** };
  29:Dsp/screen/device/oled1306.c **** 
  30:Dsp/screen/device/oled1306.c **** /* device Bsp IO SPI_Bus correspond control Function */
ARM GAS  /tmp/cc6QKvOa.s 			page 2


  31:Dsp/screen/device/oled1306.c **** static void Oled_TransmitByte(Oled_Obj_TypeDef *Oled_Obj, uint8_t data, Oled_Write_Type type)
  32:Dsp/screen/device/oled1306.c **** {
  29              		.loc 1 32 1 view -0
  30              		.cfi_startproc
  31              		@ args = 0, pretend = 0, frame = 0
  32              		@ frame_needed = 0, uses_anonymous_args = 0
  33              		.loc 1 32 1 is_stmt 0 view .LVU1
  34 0000 38B5     		push	{r3, r4, r5, lr}
  35              	.LCFI0:
  36              		.cfi_def_cfa_offset 16
  37              		.cfi_offset 3, -16
  38              		.cfi_offset 4, -12
  39              		.cfi_offset 5, -8
  40              		.cfi_offset 14, -4
  41 0002 0446     		mov	r4, r0
  42 0004 0D46     		mov	r5, r1
  33:Dsp/screen/device/oled1306.c **** 	if (type == Oled_Write_CMD)
  43              		.loc 1 33 2 is_stmt 1 view .LVU2
  44              		.loc 1 33 5 is_stmt 0 view .LVU3
  45 0006 62B9     		cbnz	r2, .L2
  34:Dsp/screen/device/oled1306.c **** 	{
  35:Dsp/screen/device/oled1306.c **** 		Oled_Obj->dc_ctl(Oled_RS_Disable);
  46              		.loc 1 35 3 is_stmt 1 view .LVU4
  47              		.loc 1 35 11 is_stmt 0 view .LVU5
  48 0008 D0F81230 		ldr	r3, [r0, #18]	@ unaligned
  49              		.loc 1 35 3 view .LVU6
  50 000c 0120     		movs	r0, #1
  51              	.LVL1:
  52              		.loc 1 35 3 view .LVU7
  53 000e 9847     		blx	r3
  54              	.LVL2:
  55              	.L3:
  36:Dsp/screen/device/oled1306.c **** 	}
  37:Dsp/screen/device/oled1306.c **** 	else
  38:Dsp/screen/device/oled1306.c **** 		Oled_Obj->dc_ctl(Oled_RS_Enable);
  39:Dsp/screen/device/oled1306.c **** 
  40:Dsp/screen/device/oled1306.c **** 	Oled_Obj->bus_transmit(data);
  56              		.loc 1 40 2 is_stmt 1 view .LVU8
  57              		.loc 1 40 10 is_stmt 0 view .LVU9
  58 0010 D4F81A30 		ldr	r3, [r4, #26]	@ unaligned
  59              		.loc 1 40 2 view .LVU10
  60 0014 2846     		mov	r0, r5
  61 0016 9847     		blx	r3
  62              	.LVL3:
  41:Dsp/screen/device/oled1306.c **** 
  42:Dsp/screen/device/oled1306.c **** 	Oled_Obj->dc_ctl(Oled_RS_Enable);
  63              		.loc 1 42 2 is_stmt 1 view .LVU11
  64              		.loc 1 42 10 is_stmt 0 view .LVU12
  65 0018 D4F81230 		ldr	r3, [r4, #18]	@ unaligned
  66              		.loc 1 42 2 view .LVU13
  67 001c 0020     		movs	r0, #0
  68 001e 9847     		blx	r3
  69              	.LVL4:
  43:Dsp/screen/device/oled1306.c **** }
  70              		.loc 1 43 1 view .LVU14
  71 0020 38BD     		pop	{r3, r4, r5, pc}
  72              	.LVL5:
ARM GAS  /tmp/cc6QKvOa.s 			page 3


  73              	.L2:
  38:Dsp/screen/device/oled1306.c **** 
  74              		.loc 1 38 3 is_stmt 1 view .LVU15
  38:Dsp/screen/device/oled1306.c **** 
  75              		.loc 1 38 11 is_stmt 0 view .LVU16
  76 0022 D0F81230 		ldr	r3, [r0, #18]	@ unaligned
  38:Dsp/screen/device/oled1306.c **** 
  77              		.loc 1 38 3 view .LVU17
  78 0026 0020     		movs	r0, #0
  79              	.LVL6:
  38:Dsp/screen/device/oled1306.c **** 
  80              		.loc 1 38 3 view .LVU18
  81 0028 9847     		blx	r3
  82              	.LVL7:
  38:Dsp/screen/device/oled1306.c **** 
  83              		.loc 1 38 3 view .LVU19
  84 002a F1E7     		b	.L3
  85              		.cfi_endproc
  86              	.LFE123:
  88              		.section	.text.Oled_EnableControl,"ax",%progbits
  89              		.align	1
  90              		.syntax unified
  91              		.thumb
  92              		.thumb_func
  93              		.fpu fpv4-sp-d16
  95              	Oled_EnableControl:
  96              	.LVL8:
  97              	.LFB124:
  44:Dsp/screen/device/oled1306.c **** 
  45:Dsp/screen/device/oled1306.c **** static void Oled_EnableControl(Oled_Obj_TypeDef *Oled_Obj, Oled_Enable_State_List state)
  46:Dsp/screen/device/oled1306.c **** {
  98              		.loc 1 46 1 is_stmt 1 view -0
  99              		.cfi_startproc
 100              		@ args = 0, pretend = 0, frame = 0
 101              		@ frame_needed = 0, uses_anonymous_args = 0
 102              		.loc 1 46 1 is_stmt 0 view .LVU21
 103 0000 70B5     		push	{r4, r5, r6, lr}
 104              	.LCFI1:
 105              		.cfi_def_cfa_offset 16
 106              		.cfi_offset 4, -16
 107              		.cfi_offset 5, -12
 108              		.cfi_offset 6, -8
 109              		.cfi_offset 14, -4
 110 0002 0546     		mov	r5, r0
 111 0004 0C46     		mov	r4, r1
  47:Dsp/screen/device/oled1306.c **** 	uint8_t *Enb_CMD_Buff;
 112              		.loc 1 47 2 is_stmt 1 view .LVU22
  48:Dsp/screen/device/oled1306.c **** 	Oled_TransmitByte(Oled_Obj, 0X8D, Oled_Write_CMD);
 113              		.loc 1 48 2 view .LVU23
 114 0006 0022     		movs	r2, #0
 115 0008 8D21     		movs	r1, #141
 116              	.LVL9:
 117              		.loc 1 48 2 is_stmt 0 view .LVU24
 118 000a FFF7FEFF 		bl	Oled_TransmitByte
 119              	.LVL10:
  49:Dsp/screen/device/oled1306.c **** 
  50:Dsp/screen/device/oled1306.c **** 	if (state == Oled_Display_Enable)
ARM GAS  /tmp/cc6QKvOa.s 			page 4


 120              		.loc 1 50 2 is_stmt 1 view .LVU25
 121              		.loc 1 50 5 is_stmt 0 view .LVU26
 122 000e 14B9     		cbnz	r4, .L9
  51:Dsp/screen/device/oled1306.c **** 	{
  52:Dsp/screen/device/oled1306.c **** 		Enb_CMD_Buff = (uint8_t *)OledEnable_CMD;
 123              		.loc 1 52 16 view .LVU27
 124 0010 074E     		ldr	r6, .L11
 125              	.L6:
 126              	.LVL11:
  53:Dsp/screen/device/oled1306.c **** 	}
  54:Dsp/screen/device/oled1306.c **** 	else
  55:Dsp/screen/device/oled1306.c **** 		Enb_CMD_Buff = (uint8_t *)OledDisable_CMD;
  56:Dsp/screen/device/oled1306.c **** 
  57:Dsp/screen/device/oled1306.c **** 	for (uint8_t i = 0; i < sizeof(OledEnable_CMD); i++)
 127              		.loc 1 57 2 is_stmt 1 view .LVU28
 128              	.LBB2:
 129              		.loc 1 57 7 view .LVU29
 130              		.loc 1 57 15 is_stmt 0 view .LVU30
 131 0012 0024     		movs	r4, #0
 132              		.loc 1 57 2 view .LVU31
 133 0014 08E0     		b	.L7
 134              	.LVL12:
 135              	.L9:
 136              		.loc 1 57 2 view .LVU32
 137              	.LBE2:
  55:Dsp/screen/device/oled1306.c **** 
 138              		.loc 1 55 16 view .LVU33
 139 0016 074E     		ldr	r6, .L11+4
 140 0018 FBE7     		b	.L6
 141              	.LVL13:
 142              	.L8:
 143              	.LBB3:
  58:Dsp/screen/device/oled1306.c **** 	{
  59:Dsp/screen/device/oled1306.c **** 		Oled_TransmitByte(Oled_Obj, Enb_CMD_Buff[i], Oled_Write_CMD);
 144              		.loc 1 59 3 is_stmt 1 discriminator 3 view .LVU34
 145 001a 0022     		movs	r2, #0
 146 001c 315D     		ldrb	r1, [r6, r4]	@ zero_extendqisi2
 147 001e 2846     		mov	r0, r5
 148 0020 FFF7FEFF 		bl	Oled_TransmitByte
 149              	.LVL14:
  57:Dsp/screen/device/oled1306.c **** 	{
 150              		.loc 1 57 51 is_stmt 0 discriminator 3 view .LVU35
 151 0024 0134     		adds	r4, r4, #1
 152              	.LVL15:
  57:Dsp/screen/device/oled1306.c **** 	{
 153              		.loc 1 57 51 discriminator 3 view .LVU36
 154 0026 E4B2     		uxtb	r4, r4
 155              	.LVL16:
 156              	.L7:
  57:Dsp/screen/device/oled1306.c **** 	{
 157              		.loc 1 57 2 discriminator 1 view .LVU37
 158 0028 012C     		cmp	r4, #1
 159 002a F6D9     		bls	.L8
 160              	.LBE3:
  60:Dsp/screen/device/oled1306.c **** 	}
  61:Dsp/screen/device/oled1306.c **** }
 161              		.loc 1 61 1 view .LVU38
ARM GAS  /tmp/cc6QKvOa.s 			page 5


 162 002c 70BD     		pop	{r4, r5, r6, pc}
 163              	.LVL17:
 164              	.L12:
 165              		.loc 1 61 1 view .LVU39
 166 002e 00BF     		.align	2
 167              	.L11:
 168 0030 00000000 		.word	.LANCHOR1
 169 0034 00000000 		.word	.LANCHOR0
 170              		.cfi_endproc
 171              	.LFE124:
 173              		.section	.text.Oled_Clear,"ax",%progbits
 174              		.align	1
 175              		.syntax unified
 176              		.thumb
 177              		.thumb_func
 178              		.fpu fpv4-sp-d16
 180              	Oled_Clear:
 181              	.LVL18:
 182              	.LFB126:
  62:Dsp/screen/device/oled1306.c **** 
  63:Dsp/screen/device/oled1306.c **** static bool Oled_Init(Oled_Obj_TypeDef *Oled_Obj)
  64:Dsp/screen/device/oled1306.c **** {
  65:Dsp/screen/device/oled1306.c **** 	Oled_Obj->bus_init(Oled_Obj->BusID);
  66:Dsp/screen/device/oled1306.c **** 	Oled_Obj->dc_init();
  67:Dsp/screen/device/oled1306.c **** 	Oled_Obj->rs_init();
  68:Dsp/screen/device/oled1306.c **** 
  69:Dsp/screen/device/oled1306.c **** 	Oled_Obj->rs_ctl(Oled_RS_Disable);
  70:Dsp/screen/device/oled1306.c **** 	delay_ms(100);
  71:Dsp/screen/device/oled1306.c **** 	Oled_Obj->rs_ctl(Oled_RS_Enable);
  72:Dsp/screen/device/oled1306.c **** 
  73:Dsp/screen/device/oled1306.c **** 	Oled_TransmitByte(Oled_Obj, 0xAE, Oled_Write_CMD);
  74:Dsp/screen/device/oled1306.c **** 	Oled_TransmitByte(Oled_Obj, 0xD5, Oled_Write_CMD);
  75:Dsp/screen/device/oled1306.c **** 	Oled_TransmitByte(Oled_Obj, 80, Oled_Write_CMD);
  76:Dsp/screen/device/oled1306.c **** 	Oled_TransmitByte(Oled_Obj, 0xA8, Oled_Write_CMD);
  77:Dsp/screen/device/oled1306.c **** 	Oled_TransmitByte(Oled_Obj, 0X3F, Oled_Write_CMD);
  78:Dsp/screen/device/oled1306.c **** 	Oled_TransmitByte(Oled_Obj, 0xD3, Oled_Write_CMD);
  79:Dsp/screen/device/oled1306.c **** 	Oled_TransmitByte(Oled_Obj, 0X00, Oled_Write_CMD);
  80:Dsp/screen/device/oled1306.c **** 
  81:Dsp/screen/device/oled1306.c **** 	Oled_TransmitByte(Oled_Obj, 0x40, Oled_Write_CMD);
  82:Dsp/screen/device/oled1306.c **** 
  83:Dsp/screen/device/oled1306.c **** 	Oled_TransmitByte(Oled_Obj, 0x8D, Oled_Write_CMD);
  84:Dsp/screen/device/oled1306.c **** 	Oled_TransmitByte(Oled_Obj, 0x14, Oled_Write_CMD);
  85:Dsp/screen/device/oled1306.c **** 	Oled_TransmitByte(Oled_Obj, 0x14, Oled_Write_CMD);
  86:Dsp/screen/device/oled1306.c **** 	Oled_TransmitByte(Oled_Obj, 0x20, Oled_Write_CMD);
  87:Dsp/screen/device/oled1306.c **** 	Oled_TransmitByte(Oled_Obj, 0x02, Oled_Write_CMD);
  88:Dsp/screen/device/oled1306.c **** 
  89:Dsp/screen/device/oled1306.c **** 	Oled_TransmitByte(Oled_Obj, 0xA0, Oled_Write_CMD);
  90:Dsp/screen/device/oled1306.c **** 	Oled_TransmitByte(Oled_Obj, 0xC8, Oled_Write_CMD);
  91:Dsp/screen/device/oled1306.c **** 
  92:Dsp/screen/device/oled1306.c **** 	Oled_TransmitByte(Oled_Obj, 0xDA, Oled_Write_CMD);
  93:Dsp/screen/device/oled1306.c **** 	Oled_TransmitByte(Oled_Obj, 0x12, Oled_Write_CMD);
  94:Dsp/screen/device/oled1306.c **** 
  95:Dsp/screen/device/oled1306.c **** 	Oled_TransmitByte(Oled_Obj, 0x81, Oled_Write_CMD);
  96:Dsp/screen/device/oled1306.c **** 	Oled_TransmitByte(Oled_Obj, 0xEF, Oled_Write_CMD);
  97:Dsp/screen/device/oled1306.c **** 	Oled_TransmitByte(Oled_Obj, 0xD9, Oled_Write_CMD);
  98:Dsp/screen/device/oled1306.c **** 	Oled_TransmitByte(Oled_Obj, 0xf1, Oled_Write_CMD);
  99:Dsp/screen/device/oled1306.c **** 	Oled_TransmitByte(Oled_Obj, 0xDB, Oled_Write_CMD);
ARM GAS  /tmp/cc6QKvOa.s 			page 6


 100:Dsp/screen/device/oled1306.c **** 	Oled_TransmitByte(Oled_Obj, 0x30, Oled_Write_CMD);
 101:Dsp/screen/device/oled1306.c **** 
 102:Dsp/screen/device/oled1306.c **** 	Oled_TransmitByte(Oled_Obj, 0xA4, Oled_Write_CMD);
 103:Dsp/screen/device/oled1306.c **** 	Oled_TransmitByte(Oled_Obj, 0xA6, Oled_Write_CMD);
 104:Dsp/screen/device/oled1306.c **** 	Oled_TransmitByte(Oled_Obj, 0xAF, Oled_Write_CMD);
 105:Dsp/screen/device/oled1306.c **** 
 106:Dsp/screen/device/oled1306.c **** 	Oled_Clear(Oled_Obj);
 107:Dsp/screen/device/oled1306.c **** 
 108:Dsp/screen/device/oled1306.c **** 	return true;
 109:Dsp/screen/device/oled1306.c **** }
 110:Dsp/screen/device/oled1306.c **** 
 111:Dsp/screen/device/oled1306.c **** static void Oled_Clear(Oled_Obj_TypeDef *Oled_Obj)
 112:Dsp/screen/device/oled1306.c **** {
 183              		.loc 1 112 1 is_stmt 1 view -0
 184              		.cfi_startproc
 185              		@ args = 0, pretend = 0, frame = 0
 186              		@ frame_needed = 0, uses_anonymous_args = 0
 187              		.loc 1 112 1 is_stmt 0 view .LVU41
 188 0000 70B5     		push	{r4, r5, r6, lr}
 189              	.LCFI2:
 190              		.cfi_def_cfa_offset 16
 191              		.cfi_offset 4, -16
 192              		.cfi_offset 5, -12
 193              		.cfi_offset 6, -8
 194              		.cfi_offset 14, -4
 195 0002 0546     		mov	r5, r0
 113:Dsp/screen/device/oled1306.c **** 	for (uint8_t c = 0; c < OLED_COLUMN_BLOCK_NUM; c++)
 196              		.loc 1 113 2 is_stmt 1 view .LVU42
 197              	.LBB4:
 198              		.loc 1 113 7 view .LVU43
 199              	.LVL19:
 200              		.loc 1 113 15 is_stmt 0 view .LVU44
 201 0004 0026     		movs	r6, #0
 202              		.loc 1 113 2 view .LVU45
 203 0006 01E0     		b	.L14
 204              	.LVL20:
 205              	.L20:
 206              		.loc 1 113 50 discriminator 2 view .LVU46
 207 0008 0136     		adds	r6, r6, #1
 208              	.LVL21:
 209              		.loc 1 113 50 discriminator 2 view .LVU47
 210 000a F6B2     		uxtb	r6, r6
 211              	.LVL22:
 212              	.L14:
 213              		.loc 1 113 2 discriminator 1 view .LVU48
 214 000c 072E     		cmp	r6, #7
 215 000e 1CD8     		bhi	.L19
 114:Dsp/screen/device/oled1306.c **** 	{
 115:Dsp/screen/device/oled1306.c **** 		Oled_TransmitByte(Oled_Obj, (0xb0 + c), Oled_Write_CMD);
 216              		.loc 1 115 3 is_stmt 1 view .LVU49
 217 0010 A6F15001 		sub	r1, r6, #80
 218 0014 0022     		movs	r2, #0
 219 0016 C9B2     		uxtb	r1, r1
 220 0018 2846     		mov	r0, r5
 221 001a FFF7FEFF 		bl	Oled_TransmitByte
 222              	.LVL23:
 116:Dsp/screen/device/oled1306.c **** 		Oled_TransmitByte(Oled_Obj, 0x00, Oled_Write_CMD);
ARM GAS  /tmp/cc6QKvOa.s 			page 7


 223              		.loc 1 116 3 view .LVU50
 224 001e 0022     		movs	r2, #0
 225 0020 1146     		mov	r1, r2
 226 0022 2846     		mov	r0, r5
 227 0024 FFF7FEFF 		bl	Oled_TransmitByte
 228              	.LVL24:
 117:Dsp/screen/device/oled1306.c **** 		Oled_TransmitByte(Oled_Obj, 0x10, Oled_Write_CMD);
 229              		.loc 1 117 3 view .LVU51
 230 0028 0022     		movs	r2, #0
 231 002a 1021     		movs	r1, #16
 232 002c 2846     		mov	r0, r5
 233 002e FFF7FEFF 		bl	Oled_TransmitByte
 234              	.LVL25:
 118:Dsp/screen/device/oled1306.c **** 
 119:Dsp/screen/device/oled1306.c **** 		for (uint8_t r = 0; r < OLED_MAX_WIDTH; r++)
 235              		.loc 1 119 3 view .LVU52
 236              	.LBB5:
 237              		.loc 1 119 8 view .LVU53
 238              		.loc 1 119 16 is_stmt 0 view .LVU54
 239 0032 0024     		movs	r4, #0
 240              	.LVL26:
 241              	.L15:
 242              		.loc 1 119 3 discriminator 1 view .LVU55
 243 0034 14F0800F 		tst	r4, #128
 244 0038 E6D1     		bne	.L20
 120:Dsp/screen/device/oled1306.c **** 		{
 121:Dsp/screen/device/oled1306.c **** 			Oled_TransmitByte(Oled_Obj, 0x00, Oled_Write_Data);
 245              		.loc 1 121 4 is_stmt 1 discriminator 3 view .LVU56
 246 003a 0122     		movs	r2, #1
 247 003c 0021     		movs	r1, #0
 248 003e 2846     		mov	r0, r5
 249 0040 FFF7FEFF 		bl	Oled_TransmitByte
 250              	.LVL27:
 119:Dsp/screen/device/oled1306.c **** 		{
 251              		.loc 1 119 44 is_stmt 0 discriminator 3 view .LVU57
 252 0044 0134     		adds	r4, r4, #1
 253              	.LVL28:
 119:Dsp/screen/device/oled1306.c **** 		{
 254              		.loc 1 119 44 discriminator 3 view .LVU58
 255 0046 E4B2     		uxtb	r4, r4
 256              	.LVL29:
 119:Dsp/screen/device/oled1306.c **** 		{
 257              		.loc 1 119 44 discriminator 3 view .LVU59
 258 0048 F4E7     		b	.L15
 259              	.LVL30:
 260              	.L19:
 119:Dsp/screen/device/oled1306.c **** 		{
 261              		.loc 1 119 44 discriminator 3 view .LVU60
 262              	.LBE5:
 263              	.LBE4:
 122:Dsp/screen/device/oled1306.c **** 		}
 123:Dsp/screen/device/oled1306.c **** 	}
 124:Dsp/screen/device/oled1306.c **** }
 264              		.loc 1 124 1 view .LVU61
 265 004a 70BD     		pop	{r4, r5, r6, pc}
 266              		.loc 1 124 1 view .LVU62
 267              		.cfi_endproc
ARM GAS  /tmp/cc6QKvOa.s 			page 8


 268              	.LFE126:
 270              		.section	.text.Oled_GetMax_Width,"ax",%progbits
 271              		.align	1
 272              		.syntax unified
 273              		.thumb
 274              		.thumb_func
 275              		.fpu fpv4-sp-d16
 277              	Oled_GetMax_Width:
 278              	.LFB127:
 125:Dsp/screen/device/oled1306.c **** 
 126:Dsp/screen/device/oled1306.c **** static uint8_t Oled_GetMax_Width(void)
 127:Dsp/screen/device/oled1306.c **** {
 279              		.loc 1 127 1 is_stmt 1 view -0
 280              		.cfi_startproc
 281              		@ args = 0, pretend = 0, frame = 0
 282              		@ frame_needed = 0, uses_anonymous_args = 0
 283              		@ link register save eliminated.
 128:Dsp/screen/device/oled1306.c **** 	return OLED_MAX_WIDTH;
 284              		.loc 1 128 2 view .LVU64
 129:Dsp/screen/device/oled1306.c **** }
 285              		.loc 1 129 1 is_stmt 0 view .LVU65
 286 0000 8020     		movs	r0, #128
 287 0002 7047     		bx	lr
 288              		.cfi_endproc
 289              	.LFE127:
 291              		.section	.text.Oled_GetMax_Height,"ax",%progbits
 292              		.align	1
 293              		.syntax unified
 294              		.thumb
 295              		.thumb_func
 296              		.fpu fpv4-sp-d16
 298              	Oled_GetMax_Height:
 299              	.LFB128:
 130:Dsp/screen/device/oled1306.c **** 
 131:Dsp/screen/device/oled1306.c **** static uint8_t Oled_GetMax_Height(void)
 132:Dsp/screen/device/oled1306.c **** {
 300              		.loc 1 132 1 is_stmt 1 view -0
 301              		.cfi_startproc
 302              		@ args = 0, pretend = 0, frame = 0
 303              		@ frame_needed = 0, uses_anonymous_args = 0
 304              		@ link register save eliminated.
 133:Dsp/screen/device/oled1306.c **** 	return OLED_MAX_HEIGHT;
 305              		.loc 1 133 2 view .LVU67
 134:Dsp/screen/device/oled1306.c **** }
 306              		.loc 1 134 1 is_stmt 0 view .LVU68
 307 0000 4020     		movs	r0, #64
 308 0002 7047     		bx	lr
 309              		.cfi_endproc
 310              	.LFE128:
 312              		.section	.text.Oled_MapUpdate,"ax",%progbits
 313              		.align	1
 314              		.syntax unified
 315              		.thumb
 316              		.thumb_func
 317              		.fpu fpv4-sp-d16
 319              	Oled_MapUpdate:
 320              	.LVL31:
ARM GAS  /tmp/cc6QKvOa.s 			page 9


 321              	.LFB129:
 135:Dsp/screen/device/oled1306.c **** 
 136:Dsp/screen/device/oled1306.c **** static bool Oled_MapUpdate(Oled_Obj_TypeDef *Oled_Obj, uint8_t **map)
 137:Dsp/screen/device/oled1306.c **** {
 322              		.loc 1 137 1 is_stmt 1 view -0
 323              		.cfi_startproc
 324              		@ args = 0, pretend = 0, frame = 0
 325              		@ frame_needed = 0, uses_anonymous_args = 0
 138:Dsp/screen/device/oled1306.c **** 	uint8_t i = 0;
 326              		.loc 1 138 2 view .LVU70
 139:Dsp/screen/device/oled1306.c **** 
 140:Dsp/screen/device/oled1306.c **** 	if ((Oled_Obj == NULL) || (map == NULL))
 327              		.loc 1 140 2 view .LVU71
 328              		.loc 1 140 5 is_stmt 0 view .LVU72
 329 0000 B0B3     		cbz	r0, .L30
 137:Dsp/screen/device/oled1306.c **** 	uint8_t i = 0;
 330              		.loc 1 137 1 discriminator 1 view .LVU73
 331 0002 F8B5     		push	{r3, r4, r5, r6, r7, lr}
 332              	.LCFI3:
 333              		.cfi_def_cfa_offset 24
 334              		.cfi_offset 3, -24
 335              		.cfi_offset 4, -20
 336              		.cfi_offset 5, -16
 337              		.cfi_offset 6, -12
 338              		.cfi_offset 7, -8
 339              		.cfi_offset 14, -4
 340 0004 0746     		mov	r7, r0
 341              		.loc 1 140 25 discriminator 1 view .LVU74
 342 0006 A9B3     		cbz	r1, .L31
 343 0008 0E46     		mov	r6, r1
 344              	.LBB6:
 141:Dsp/screen/device/oled1306.c **** 		return false;
 142:Dsp/screen/device/oled1306.c **** 
 143:Dsp/screen/device/oled1306.c **** 	for (uint8_t row_index = 0; row_index < ROW_SIZE; row_index++)
 345              		.loc 1 143 15 view .LVU75
 346 000a 0025     		movs	r5, #0
 347 000c 19E0     		b	.L25
 348              	.LVL32:
 349              	.L27:
 350              	.LBB7:
 351              	.LBB8:
 144:Dsp/screen/device/oled1306.c **** 	{
 145:Dsp/screen/device/oled1306.c **** 		Oled_TransmitByte(Oled_Obj, (0xb0 + row_index), Oled_Write_CMD);
 146:Dsp/screen/device/oled1306.c **** 		Oled_TransmitByte(Oled_Obj, 0x00, Oled_Write_CMD);
 147:Dsp/screen/device/oled1306.c **** 		Oled_TransmitByte(Oled_Obj, 0x10, Oled_Write_CMD);
 148:Dsp/screen/device/oled1306.c **** 
 149:Dsp/screen/device/oled1306.c **** 		for (uint8_t column_index = 0; column_index < OLED_MAX_WIDTH; column_index++)
 150:Dsp/screen/device/oled1306.c **** 		{
 151:Dsp/screen/device/oled1306.c **** 			uint8_t tmp = 0;
 152:Dsp/screen/device/oled1306.c **** 
 153:Dsp/screen/device/oled1306.c **** 			for (i = 0; i < ROW_SIZE; i++)
 154:Dsp/screen/device/oled1306.c **** 			{
 155:Dsp/screen/device/oled1306.c **** 				tmp |= map[row_index * ROW_SIZE + i][column_index] << i;
 352              		.loc 1 155 5 is_stmt 1 discriminator 3 view .LVU76
 353              		.loc 1 155 37 is_stmt 0 discriminator 3 view .LVU77
 354 000e 03EBC502 		add	r2, r3, r5, lsl #3
 355              		.loc 1 155 15 discriminator 3 view .LVU78
ARM GAS  /tmp/cc6QKvOa.s 			page 10


 356 0012 56F82220 		ldr	r2, [r6, r2, lsl #2]
 357              		.loc 1 155 41 discriminator 3 view .LVU79
 358 0016 125D     		ldrb	r2, [r2, r4]	@ zero_extendqisi2
 359              		.loc 1 155 56 discriminator 3 view .LVU80
 360 0018 9A40     		lsls	r2, r2, r3
 361              		.loc 1 155 9 discriminator 3 view .LVU81
 362 001a 1143     		orrs	r1, r1, r2
 363              	.LVL33:
 364              		.loc 1 155 9 discriminator 3 view .LVU82
 365 001c C9B2     		uxtb	r1, r1
 366              	.LVL34:
 153:Dsp/screen/device/oled1306.c **** 			{
 367              		.loc 1 153 31 discriminator 3 view .LVU83
 368 001e 0133     		adds	r3, r3, #1
 369              	.LVL35:
 153:Dsp/screen/device/oled1306.c **** 			{
 370              		.loc 1 153 31 discriminator 3 view .LVU84
 371 0020 DBB2     		uxtb	r3, r3
 372              	.LVL36:
 373              	.L28:
 153:Dsp/screen/device/oled1306.c **** 			{
 374              		.loc 1 153 4 discriminator 1 view .LVU85
 375 0022 072B     		cmp	r3, #7
 376 0024 F3D9     		bls	.L27
 156:Dsp/screen/device/oled1306.c **** 			}
 157:Dsp/screen/device/oled1306.c **** 
 158:Dsp/screen/device/oled1306.c **** 			Oled_TransmitByte(Oled_Obj, tmp, Oled_Write_Data);
 377              		.loc 1 158 4 is_stmt 1 discriminator 2 view .LVU86
 378 0026 0122     		movs	r2, #1
 379 0028 3846     		mov	r0, r7
 380 002a FFF7FEFF 		bl	Oled_TransmitByte
 381              	.LVL37:
 382              		.loc 1 158 4 is_stmt 0 discriminator 2 view .LVU87
 383              	.LBE8:
 149:Dsp/screen/device/oled1306.c **** 		{
 384              		.loc 1 149 77 discriminator 2 view .LVU88
 385 002e 0134     		adds	r4, r4, #1
 386              	.LVL38:
 149:Dsp/screen/device/oled1306.c **** 		{
 387              		.loc 1 149 77 discriminator 2 view .LVU89
 388 0030 E4B2     		uxtb	r4, r4
 389              	.LVL39:
 390              	.L26:
 149:Dsp/screen/device/oled1306.c **** 		{
 391              		.loc 1 149 3 discriminator 1 view .LVU90
 392 0032 14F0800F 		tst	r4, #128
 393 0036 02D1     		bne	.L37
 394              	.LBB9:
 151:Dsp/screen/device/oled1306.c **** 
 395              		.loc 1 151 12 view .LVU91
 396 0038 0021     		movs	r1, #0
 153:Dsp/screen/device/oled1306.c **** 			{
 397              		.loc 1 153 11 view .LVU92
 398 003a 0B46     		mov	r3, r1
 399 003c F1E7     		b	.L28
 400              	.L37:
 401              	.LBE9:
ARM GAS  /tmp/cc6QKvOa.s 			page 11


 402              	.LBE7:
 143:Dsp/screen/device/oled1306.c **** 	{
 403              		.loc 1 143 61 discriminator 2 view .LVU93
 404 003e 0135     		adds	r5, r5, #1
 405              	.LVL40:
 143:Dsp/screen/device/oled1306.c **** 	{
 406              		.loc 1 143 61 discriminator 2 view .LVU94
 407 0040 EDB2     		uxtb	r5, r5
 408              	.LVL41:
 409              	.L25:
 143:Dsp/screen/device/oled1306.c **** 	{
 410              		.loc 1 143 2 discriminator 1 view .LVU95
 411 0042 072D     		cmp	r5, #7
 412 0044 12D8     		bhi	.L38
 145:Dsp/screen/device/oled1306.c **** 		Oled_TransmitByte(Oled_Obj, 0x00, Oled_Write_CMD);
 413              		.loc 1 145 3 is_stmt 1 view .LVU96
 414 0046 A5F15001 		sub	r1, r5, #80
 415 004a 0022     		movs	r2, #0
 416 004c C9B2     		uxtb	r1, r1
 417 004e 3846     		mov	r0, r7
 418 0050 FFF7FEFF 		bl	Oled_TransmitByte
 419              	.LVL42:
 146:Dsp/screen/device/oled1306.c **** 		Oled_TransmitByte(Oled_Obj, 0x10, Oled_Write_CMD);
 420              		.loc 1 146 3 view .LVU97
 421 0054 0022     		movs	r2, #0
 422 0056 1146     		mov	r1, r2
 423 0058 3846     		mov	r0, r7
 424 005a FFF7FEFF 		bl	Oled_TransmitByte
 425              	.LVL43:
 147:Dsp/screen/device/oled1306.c **** 
 426              		.loc 1 147 3 view .LVU98
 427 005e 0022     		movs	r2, #0
 428 0060 1021     		movs	r1, #16
 429 0062 3846     		mov	r0, r7
 430 0064 FFF7FEFF 		bl	Oled_TransmitByte
 431              	.LVL44:
 149:Dsp/screen/device/oled1306.c **** 		{
 432              		.loc 1 149 3 view .LVU99
 433              	.LBB10:
 149:Dsp/screen/device/oled1306.c **** 		{
 434              		.loc 1 149 8 view .LVU100
 149:Dsp/screen/device/oled1306.c **** 		{
 435              		.loc 1 149 16 is_stmt 0 view .LVU101
 436 0068 0024     		movs	r4, #0
 149:Dsp/screen/device/oled1306.c **** 		{
 437              		.loc 1 149 3 view .LVU102
 438 006a E2E7     		b	.L26
 439              	.LVL45:
 440              	.L38:
 149:Dsp/screen/device/oled1306.c **** 		{
 441              		.loc 1 149 3 view .LVU103
 442              	.LBE10:
 443              	.LBE6:
 159:Dsp/screen/device/oled1306.c **** 		}
 160:Dsp/screen/device/oled1306.c **** 	}
 161:Dsp/screen/device/oled1306.c **** 	return true;
 444              		.loc 1 161 9 view .LVU104
ARM GAS  /tmp/cc6QKvOa.s 			page 12


 445 006c 0120     		movs	r0, #1
 446              	.LVL46:
 447              	.L24:
 162:Dsp/screen/device/oled1306.c **** }
 448              		.loc 1 162 1 view .LVU105
 449 006e F8BD     		pop	{r3, r4, r5, r6, r7, pc}
 450              	.LVL47:
 451              	.L30:
 452              	.LCFI4:
 453              		.cfi_def_cfa_offset 0
 454              		.cfi_restore 3
 455              		.cfi_restore 4
 456              		.cfi_restore 5
 457              		.cfi_restore 6
 458              		.cfi_restore 7
 459              		.cfi_restore 14
 141:Dsp/screen/device/oled1306.c **** 
 460              		.loc 1 141 10 view .LVU106
 461 0070 0020     		movs	r0, #0
 462              	.LVL48:
 463              		.loc 1 162 1 view .LVU107
 464 0072 7047     		bx	lr
 465              	.LVL49:
 466              	.L31:
 467              	.LCFI5:
 468              		.cfi_def_cfa_offset 24
 469              		.cfi_offset 3, -24
 470              		.cfi_offset 4, -20
 471              		.cfi_offset 5, -16
 472              		.cfi_offset 6, -12
 473              		.cfi_offset 7, -8
 474              		.cfi_offset 14, -4
 141:Dsp/screen/device/oled1306.c **** 
 475              		.loc 1 141 10 view .LVU108
 476 0074 0020     		movs	r0, #0
 477              	.LVL50:
 141:Dsp/screen/device/oled1306.c **** 
 478              		.loc 1 141 10 view .LVU109
 479 0076 FAE7     		b	.L24
 480              		.cfi_endproc
 481              	.LFE129:
 483              		.section	.text.Oled_SetBright,"ax",%progbits
 484              		.align	1
 485              		.syntax unified
 486              		.thumb
 487              		.thumb_func
 488              		.fpu fpv4-sp-d16
 490              	Oled_SetBright:
 491              	.LVL51:
 492              	.LFB130:
 163:Dsp/screen/device/oled1306.c **** 
 164:Dsp/screen/device/oled1306.c **** static bool Oled_SetBright(Oled_Bright_Level lvl)
 165:Dsp/screen/device/oled1306.c **** {
 493              		.loc 1 165 1 is_stmt 1 view -0
 494              		.cfi_startproc
 495              		@ args = 0, pretend = 0, frame = 0
 496              		@ frame_needed = 0, uses_anonymous_args = 0
ARM GAS  /tmp/cc6QKvOa.s 			page 13


 497              		@ link register save eliminated.
 166:Dsp/screen/device/oled1306.c **** 	return true;
 498              		.loc 1 166 2 view .LVU111
 167:Dsp/screen/device/oled1306.c **** }
 499              		.loc 1 167 1 is_stmt 0 view .LVU112
 500 0000 0120     		movs	r0, #1
 501              	.LVL52:
 502              		.loc 1 167 1 view .LVU113
 503 0002 7047     		bx	lr
 504              		.cfi_endproc
 505              	.LFE130:
 507              		.section	.text.Oled_Init,"ax",%progbits
 508              		.align	1
 509              		.syntax unified
 510              		.thumb
 511              		.thumb_func
 512              		.fpu fpv4-sp-d16
 514              	Oled_Init:
 515              	.LVL53:
 516              	.LFB125:
  64:Dsp/screen/device/oled1306.c **** 	Oled_Obj->bus_init(Oled_Obj->BusID);
 517              		.loc 1 64 1 is_stmt 1 view -0
 518              		.cfi_startproc
 519              		@ args = 0, pretend = 0, frame = 0
 520              		@ frame_needed = 0, uses_anonymous_args = 0
  64:Dsp/screen/device/oled1306.c **** 	Oled_Obj->bus_init(Oled_Obj->BusID);
 521              		.loc 1 64 1 is_stmt 0 view .LVU115
 522 0000 10B5     		push	{r4, lr}
 523              	.LCFI6:
 524              		.cfi_def_cfa_offset 8
 525              		.cfi_offset 4, -8
 526              		.cfi_offset 14, -4
 527 0002 0446     		mov	r4, r0
  65:Dsp/screen/device/oled1306.c **** 	Oled_Obj->dc_init();
 528              		.loc 1 65 2 is_stmt 1 view .LVU116
  65:Dsp/screen/device/oled1306.c **** 	Oled_Obj->dc_init();
 529              		.loc 1 65 10 is_stmt 0 view .LVU117
 530 0004 D0F81630 		ldr	r3, [r0, #22]	@ unaligned
  65:Dsp/screen/device/oled1306.c **** 	Oled_Obj->dc_init();
 531              		.loc 1 65 2 view .LVU118
 532 0008 4079     		ldrb	r0, [r0, #5]	@ zero_extendqisi2
 533              	.LVL54:
  65:Dsp/screen/device/oled1306.c **** 	Oled_Obj->dc_init();
 534              		.loc 1 65 2 view .LVU119
 535 000a 9847     		blx	r3
 536              	.LVL55:
  66:Dsp/screen/device/oled1306.c **** 	Oled_Obj->rs_init();
 537              		.loc 1 66 2 is_stmt 1 view .LVU120
  66:Dsp/screen/device/oled1306.c **** 	Oled_Obj->rs_init();
 538              		.loc 1 66 10 is_stmt 0 view .LVU121
 539 000c D4F80A30 		ldr	r3, [r4, #10]	@ unaligned
  66:Dsp/screen/device/oled1306.c **** 	Oled_Obj->rs_init();
 540              		.loc 1 66 2 view .LVU122
 541 0010 9847     		blx	r3
 542              	.LVL56:
  67:Dsp/screen/device/oled1306.c **** 
 543              		.loc 1 67 2 is_stmt 1 view .LVU123
ARM GAS  /tmp/cc6QKvOa.s 			page 14


  67:Dsp/screen/device/oled1306.c **** 
 544              		.loc 1 67 10 is_stmt 0 view .LVU124
 545 0012 D4F80630 		ldr	r3, [r4, #6]	@ unaligned
  67:Dsp/screen/device/oled1306.c **** 
 546              		.loc 1 67 2 view .LVU125
 547 0016 9847     		blx	r3
 548              	.LVL57:
  69:Dsp/screen/device/oled1306.c **** 	delay_ms(100);
 549              		.loc 1 69 2 is_stmt 1 view .LVU126
  69:Dsp/screen/device/oled1306.c **** 	delay_ms(100);
 550              		.loc 1 69 10 is_stmt 0 view .LVU127
 551 0018 D4F80E30 		ldr	r3, [r4, #14]	@ unaligned
  69:Dsp/screen/device/oled1306.c **** 	delay_ms(100);
 552              		.loc 1 69 2 view .LVU128
 553 001c 0120     		movs	r0, #1
 554 001e 9847     		blx	r3
 555              	.LVL58:
  70:Dsp/screen/device/oled1306.c **** 	Oled_Obj->rs_ctl(Oled_RS_Enable);
 556              		.loc 1 70 2 is_stmt 1 view .LVU129
 557 0020 6420     		movs	r0, #100
 558 0022 FFF7FEFF 		bl	delay_ms
 559              	.LVL59:
  71:Dsp/screen/device/oled1306.c **** 
 560              		.loc 1 71 2 view .LVU130
  71:Dsp/screen/device/oled1306.c **** 
 561              		.loc 1 71 10 is_stmt 0 view .LVU131
 562 0026 D4F80E30 		ldr	r3, [r4, #14]	@ unaligned
  71:Dsp/screen/device/oled1306.c **** 
 563              		.loc 1 71 2 view .LVU132
 564 002a 0020     		movs	r0, #0
 565 002c 9847     		blx	r3
 566              	.LVL60:
  73:Dsp/screen/device/oled1306.c **** 	Oled_TransmitByte(Oled_Obj, 0xD5, Oled_Write_CMD);
 567              		.loc 1 73 2 is_stmt 1 view .LVU133
 568 002e 0022     		movs	r2, #0
 569 0030 AE21     		movs	r1, #174
 570 0032 2046     		mov	r0, r4
 571 0034 FFF7FEFF 		bl	Oled_TransmitByte
 572              	.LVL61:
  74:Dsp/screen/device/oled1306.c **** 	Oled_TransmitByte(Oled_Obj, 80, Oled_Write_CMD);
 573              		.loc 1 74 2 view .LVU134
 574 0038 0022     		movs	r2, #0
 575 003a D521     		movs	r1, #213
 576 003c 2046     		mov	r0, r4
 577 003e FFF7FEFF 		bl	Oled_TransmitByte
 578              	.LVL62:
  75:Dsp/screen/device/oled1306.c **** 	Oled_TransmitByte(Oled_Obj, 0xA8, Oled_Write_CMD);
 579              		.loc 1 75 2 view .LVU135
 580 0042 0022     		movs	r2, #0
 581 0044 5021     		movs	r1, #80
 582 0046 2046     		mov	r0, r4
 583 0048 FFF7FEFF 		bl	Oled_TransmitByte
 584              	.LVL63:
  76:Dsp/screen/device/oled1306.c **** 	Oled_TransmitByte(Oled_Obj, 0X3F, Oled_Write_CMD);
 585              		.loc 1 76 2 view .LVU136
 586 004c 0022     		movs	r2, #0
 587 004e A821     		movs	r1, #168
ARM GAS  /tmp/cc6QKvOa.s 			page 15


 588 0050 2046     		mov	r0, r4
 589 0052 FFF7FEFF 		bl	Oled_TransmitByte
 590              	.LVL64:
  77:Dsp/screen/device/oled1306.c **** 	Oled_TransmitByte(Oled_Obj, 0xD3, Oled_Write_CMD);
 591              		.loc 1 77 2 view .LVU137
 592 0056 0022     		movs	r2, #0
 593 0058 3F21     		movs	r1, #63
 594 005a 2046     		mov	r0, r4
 595 005c FFF7FEFF 		bl	Oled_TransmitByte
 596              	.LVL65:
  78:Dsp/screen/device/oled1306.c **** 	Oled_TransmitByte(Oled_Obj, 0X00, Oled_Write_CMD);
 597              		.loc 1 78 2 view .LVU138
 598 0060 0022     		movs	r2, #0
 599 0062 D321     		movs	r1, #211
 600 0064 2046     		mov	r0, r4
 601 0066 FFF7FEFF 		bl	Oled_TransmitByte
 602              	.LVL66:
  79:Dsp/screen/device/oled1306.c **** 
 603              		.loc 1 79 2 view .LVU139
 604 006a 0022     		movs	r2, #0
 605 006c 1146     		mov	r1, r2
 606 006e 2046     		mov	r0, r4
 607 0070 FFF7FEFF 		bl	Oled_TransmitByte
 608              	.LVL67:
  81:Dsp/screen/device/oled1306.c **** 
 609              		.loc 1 81 2 view .LVU140
 610 0074 0022     		movs	r2, #0
 611 0076 4021     		movs	r1, #64
 612 0078 2046     		mov	r0, r4
 613 007a FFF7FEFF 		bl	Oled_TransmitByte
 614              	.LVL68:
  83:Dsp/screen/device/oled1306.c **** 	Oled_TransmitByte(Oled_Obj, 0x14, Oled_Write_CMD);
 615              		.loc 1 83 2 view .LVU141
 616 007e 0022     		movs	r2, #0
 617 0080 8D21     		movs	r1, #141
 618 0082 2046     		mov	r0, r4
 619 0084 FFF7FEFF 		bl	Oled_TransmitByte
 620              	.LVL69:
  84:Dsp/screen/device/oled1306.c **** 	Oled_TransmitByte(Oled_Obj, 0x14, Oled_Write_CMD);
 621              		.loc 1 84 2 view .LVU142
 622 0088 0022     		movs	r2, #0
 623 008a 1421     		movs	r1, #20
 624 008c 2046     		mov	r0, r4
 625 008e FFF7FEFF 		bl	Oled_TransmitByte
 626              	.LVL70:
  85:Dsp/screen/device/oled1306.c **** 	Oled_TransmitByte(Oled_Obj, 0x20, Oled_Write_CMD);
 627              		.loc 1 85 2 view .LVU143
 628 0092 0022     		movs	r2, #0
 629 0094 1421     		movs	r1, #20
 630 0096 2046     		mov	r0, r4
 631 0098 FFF7FEFF 		bl	Oled_TransmitByte
 632              	.LVL71:
  86:Dsp/screen/device/oled1306.c **** 	Oled_TransmitByte(Oled_Obj, 0x02, Oled_Write_CMD);
 633              		.loc 1 86 2 view .LVU144
 634 009c 0022     		movs	r2, #0
 635 009e 2021     		movs	r1, #32
 636 00a0 2046     		mov	r0, r4
ARM GAS  /tmp/cc6QKvOa.s 			page 16


 637 00a2 FFF7FEFF 		bl	Oled_TransmitByte
 638              	.LVL72:
  87:Dsp/screen/device/oled1306.c **** 
 639              		.loc 1 87 2 view .LVU145
 640 00a6 0022     		movs	r2, #0
 641 00a8 0221     		movs	r1, #2
 642 00aa 2046     		mov	r0, r4
 643 00ac FFF7FEFF 		bl	Oled_TransmitByte
 644              	.LVL73:
  89:Dsp/screen/device/oled1306.c **** 	Oled_TransmitByte(Oled_Obj, 0xC8, Oled_Write_CMD);
 645              		.loc 1 89 2 view .LVU146
 646 00b0 0022     		movs	r2, #0
 647 00b2 A021     		movs	r1, #160
 648 00b4 2046     		mov	r0, r4
 649 00b6 FFF7FEFF 		bl	Oled_TransmitByte
 650              	.LVL74:
  90:Dsp/screen/device/oled1306.c **** 
 651              		.loc 1 90 2 view .LVU147
 652 00ba 0022     		movs	r2, #0
 653 00bc C821     		movs	r1, #200
 654 00be 2046     		mov	r0, r4
 655 00c0 FFF7FEFF 		bl	Oled_TransmitByte
 656              	.LVL75:
  92:Dsp/screen/device/oled1306.c **** 	Oled_TransmitByte(Oled_Obj, 0x12, Oled_Write_CMD);
 657              		.loc 1 92 2 view .LVU148
 658 00c4 0022     		movs	r2, #0
 659 00c6 DA21     		movs	r1, #218
 660 00c8 2046     		mov	r0, r4
 661 00ca FFF7FEFF 		bl	Oled_TransmitByte
 662              	.LVL76:
  93:Dsp/screen/device/oled1306.c **** 
 663              		.loc 1 93 2 view .LVU149
 664 00ce 0022     		movs	r2, #0
 665 00d0 1221     		movs	r1, #18
 666 00d2 2046     		mov	r0, r4
 667 00d4 FFF7FEFF 		bl	Oled_TransmitByte
 668              	.LVL77:
  95:Dsp/screen/device/oled1306.c **** 	Oled_TransmitByte(Oled_Obj, 0xEF, Oled_Write_CMD);
 669              		.loc 1 95 2 view .LVU150
 670 00d8 0022     		movs	r2, #0
 671 00da 8121     		movs	r1, #129
 672 00dc 2046     		mov	r0, r4
 673 00de FFF7FEFF 		bl	Oled_TransmitByte
 674              	.LVL78:
  96:Dsp/screen/device/oled1306.c **** 	Oled_TransmitByte(Oled_Obj, 0xD9, Oled_Write_CMD);
 675              		.loc 1 96 2 view .LVU151
 676 00e2 0022     		movs	r2, #0
 677 00e4 EF21     		movs	r1, #239
 678 00e6 2046     		mov	r0, r4
 679 00e8 FFF7FEFF 		bl	Oled_TransmitByte
 680              	.LVL79:
  97:Dsp/screen/device/oled1306.c **** 	Oled_TransmitByte(Oled_Obj, 0xf1, Oled_Write_CMD);
 681              		.loc 1 97 2 view .LVU152
 682 00ec 0022     		movs	r2, #0
 683 00ee D921     		movs	r1, #217
 684 00f0 2046     		mov	r0, r4
 685 00f2 FFF7FEFF 		bl	Oled_TransmitByte
ARM GAS  /tmp/cc6QKvOa.s 			page 17


 686              	.LVL80:
  98:Dsp/screen/device/oled1306.c **** 	Oled_TransmitByte(Oled_Obj, 0xDB, Oled_Write_CMD);
 687              		.loc 1 98 2 view .LVU153
 688 00f6 0022     		movs	r2, #0
 689 00f8 F121     		movs	r1, #241
 690 00fa 2046     		mov	r0, r4
 691 00fc FFF7FEFF 		bl	Oled_TransmitByte
 692              	.LVL81:
  99:Dsp/screen/device/oled1306.c **** 	Oled_TransmitByte(Oled_Obj, 0x30, Oled_Write_CMD);
 693              		.loc 1 99 2 view .LVU154
 694 0100 0022     		movs	r2, #0
 695 0102 DB21     		movs	r1, #219
 696 0104 2046     		mov	r0, r4
 697 0106 FFF7FEFF 		bl	Oled_TransmitByte
 698              	.LVL82:
 100:Dsp/screen/device/oled1306.c **** 
 699              		.loc 1 100 2 view .LVU155
 700 010a 0022     		movs	r2, #0
 701 010c 3021     		movs	r1, #48
 702 010e 2046     		mov	r0, r4
 703 0110 FFF7FEFF 		bl	Oled_TransmitByte
 704              	.LVL83:
 102:Dsp/screen/device/oled1306.c **** 	Oled_TransmitByte(Oled_Obj, 0xA6, Oled_Write_CMD);
 705              		.loc 1 102 2 view .LVU156
 706 0114 0022     		movs	r2, #0
 707 0116 A421     		movs	r1, #164
 708 0118 2046     		mov	r0, r4
 709 011a FFF7FEFF 		bl	Oled_TransmitByte
 710              	.LVL84:
 103:Dsp/screen/device/oled1306.c **** 	Oled_TransmitByte(Oled_Obj, 0xAF, Oled_Write_CMD);
 711              		.loc 1 103 2 view .LVU157
 712 011e 0022     		movs	r2, #0
 713 0120 A621     		movs	r1, #166
 714 0122 2046     		mov	r0, r4
 715 0124 FFF7FEFF 		bl	Oled_TransmitByte
 716              	.LVL85:
 104:Dsp/screen/device/oled1306.c **** 
 717              		.loc 1 104 2 view .LVU158
 718 0128 0022     		movs	r2, #0
 719 012a AF21     		movs	r1, #175
 720 012c 2046     		mov	r0, r4
 721 012e FFF7FEFF 		bl	Oled_TransmitByte
 722              	.LVL86:
 106:Dsp/screen/device/oled1306.c **** 
 723              		.loc 1 106 2 view .LVU159
 724 0132 2046     		mov	r0, r4
 725 0134 FFF7FEFF 		bl	Oled_Clear
 726              	.LVL87:
 108:Dsp/screen/device/oled1306.c **** }
 727              		.loc 1 108 2 view .LVU160
 109:Dsp/screen/device/oled1306.c **** 
 728              		.loc 1 109 1 is_stmt 0 view .LVU161
 729 0138 0120     		movs	r0, #1
 730 013a 10BD     		pop	{r4, pc}
 109:Dsp/screen/device/oled1306.c **** 
 731              		.loc 1 109 1 view .LVU162
 732              		.cfi_endproc
ARM GAS  /tmp/cc6QKvOa.s 			page 18


 733              	.LFE125:
 735              		.global	DrvOled
 736              		.global	OledDisable_CMD
 737              		.global	OledEnable_CMD
 738              		.section	.data.DrvOled,"aw"
 739              		.align	2
 742              	DrvOled:
 743 0000 00000000 		.word	Oled_Init
 744 0004 00000000 		.word	Oled_EnableControl
 745 0008 00000000 		.word	Oled_MapUpdate
 746 000c 00000000 		.word	Oled_Clear
 747 0010 00000000 		.word	Oled_SetBright
 748 0014 00000000 		.word	Oled_GetMax_Width
 749 0018 00000000 		.word	Oled_GetMax_Height
 750              		.section	.rodata.OledDisable_CMD,"a"
 751              		.align	2
 752              		.set	.LANCHOR0,. + 0
 755              	OledDisable_CMD:
 756 0000 10       		.byte	16
 757 0001 AE       		.byte	-82
 758              		.section	.rodata.OledEnable_CMD,"a"
 759              		.align	2
 760              		.set	.LANCHOR1,. + 0
 763              	OledEnable_CMD:
 764 0000 14       		.byte	20
 765 0001 AF       		.byte	-81
 766              		.text
 767              	.Letext0:
 768              		.file 2 "/home/bt0/stm32/compile-tool/gcc-arm-none-eabi-8-2018-q4-major-linux/gcc-arm-none-eabi-8-
 769              		.file 3 "/home/bt0/stm32/compile-tool/gcc-arm-none-eabi-8-2018-q4-major-linux/gcc-arm-none-eabi-8-
 770              		.file 4 "/home/bt0/stm32/compile-tool/gcc-arm-none-eabi-8-2018-q4-major-linux/gcc-arm-none-eabi-8-
 771              		.file 5 "/home/bt0/stm32/compile-tool/gcc-arm-none-eabi-8-2018-q4-major-linux/gcc-arm-none-eabi-8-
 772              		.file 6 "/home/bt0/stm32/compile-tool/gcc-arm-none-eabi-8-2018-q4-major-linux/gcc-arm-none-eabi-8-
 773              		.file 7 "/home/bt0/stm32/compile-tool/gcc-arm-none-eabi-8-2018-q4-major-linux/gcc-arm-none-eabi-8-
 774              		.file 8 "Dsp/screen/OledIO_Definition/Oled_DspProp_Def.h"
 775              		.file 9 "Dsp/screen/device/oled1306.h"
 776              		.file 10 "F4_CORE/core_cm4.h"
 777              		.file 11 "USER/system_stm32f4xx.h"
 778              		.file 12 "SYS/delay/delay.h"
ARM GAS  /tmp/cc6QKvOa.s 			page 19


DEFINED SYMBOLS
                            *ABS*:0000000000000000 oled1306.c
     /tmp/cc6QKvOa.s:18     .text.Oled_TransmitByte:0000000000000000 $t
     /tmp/cc6QKvOa.s:25     .text.Oled_TransmitByte:0000000000000000 Oled_TransmitByte
     /tmp/cc6QKvOa.s:89     .text.Oled_EnableControl:0000000000000000 $t
     /tmp/cc6QKvOa.s:95     .text.Oled_EnableControl:0000000000000000 Oled_EnableControl
     /tmp/cc6QKvOa.s:168    .text.Oled_EnableControl:0000000000000030 $d
     /tmp/cc6QKvOa.s:174    .text.Oled_Clear:0000000000000000 $t
     /tmp/cc6QKvOa.s:180    .text.Oled_Clear:0000000000000000 Oled_Clear
     /tmp/cc6QKvOa.s:271    .text.Oled_GetMax_Width:0000000000000000 $t
     /tmp/cc6QKvOa.s:277    .text.Oled_GetMax_Width:0000000000000000 Oled_GetMax_Width
     /tmp/cc6QKvOa.s:292    .text.Oled_GetMax_Height:0000000000000000 $t
     /tmp/cc6QKvOa.s:298    .text.Oled_GetMax_Height:0000000000000000 Oled_GetMax_Height
     /tmp/cc6QKvOa.s:313    .text.Oled_MapUpdate:0000000000000000 $t
     /tmp/cc6QKvOa.s:319    .text.Oled_MapUpdate:0000000000000000 Oled_MapUpdate
     /tmp/cc6QKvOa.s:484    .text.Oled_SetBright:0000000000000000 $t
     /tmp/cc6QKvOa.s:490    .text.Oled_SetBright:0000000000000000 Oled_SetBright
     /tmp/cc6QKvOa.s:508    .text.Oled_Init:0000000000000000 $t
     /tmp/cc6QKvOa.s:514    .text.Oled_Init:0000000000000000 Oled_Init
     /tmp/cc6QKvOa.s:742    .data.DrvOled:0000000000000000 DrvOled
     /tmp/cc6QKvOa.s:755    .rodata.OledDisable_CMD:0000000000000000 OledDisable_CMD
     /tmp/cc6QKvOa.s:763    .rodata.OledEnable_CMD:0000000000000000 OledEnable_CMD
     /tmp/cc6QKvOa.s:739    .data.DrvOled:0000000000000000 $d
     /tmp/cc6QKvOa.s:751    .rodata.OledDisable_CMD:0000000000000000 $d
     /tmp/cc6QKvOa.s:759    .rodata.OledEnable_CMD:0000000000000000 $d

UNDEFINED SYMBOLS
delay_ms
