ARM GAS  /var/folders/lx/hc4sn_b53233_zkc9xbbl97r0000gp/T//ccMxuImd.s 			page 1


   1              		.cpu cortex-m4
   2              		.eabi_attribute 27, 1
   3              		.eabi_attribute 28, 1
   4              		.eabi_attribute 20, 1
   5              		.eabi_attribute 21, 1
   6              		.eabi_attribute 23, 3
   7              		.eabi_attribute 24, 1
   8              		.eabi_attribute 25, 1
   9              		.eabi_attribute 26, 1
  10              		.eabi_attribute 30, 1
  11              		.eabi_attribute 34, 1
  12              		.eabi_attribute 18, 4
  13              		.file	"periph_timer_irq.c"
  14              		.text
  15              	.Ltext0:
  16              		.cfi_sections	.debug_frame
  17              		.section	.text.TIM2_IRQHandler,"ax",%progbits
  18              		.align	1
  19              		.global	TIM2_IRQHandler
  20              		.arch armv7e-m
  21              		.syntax unified
  22              		.thumb
  23              		.thumb_func
  24              		.fpu fpv4-sp-d16
  26              	TIM2_IRQHandler:
  27              	.LFB123:
  28              		.file 1 "Bsp/periph_timer_irq.c"
   1:Bsp/periph_timer_irq.c **** #include "periph_timer_irq.h"
   2:Bsp/periph_timer_irq.c **** #include "periph_serial.h"
   3:Bsp/periph_timer_irq.c **** #include "stm32f4xx_tim.h"
   4:Bsp/periph_timer_irq.c **** #include "delay.h"
   5:Bsp/periph_timer_irq.c **** 
   6:Bsp/periph_timer_irq.c **** void TIM2_IRQHandler(void)
   7:Bsp/periph_timer_irq.c **** {
  29              		.loc 1 7 1 view -0
  30              		.cfi_startproc
  31              		@ args = 0, pretend = 0, frame = 0
  32              		@ frame_needed = 0, uses_anonymous_args = 0
  33 0000 08B5     		push	{r3, lr}
  34              	.LCFI0:
  35              		.cfi_def_cfa_offset 8
  36              		.cfi_offset 3, -8
  37              		.cfi_offset 14, -4
   8:Bsp/periph_timer_irq.c **** 	if (TIM_GetITStatus(TIM2, TIM_IT_Update) == SET)
  38              		.loc 1 8 2 view .LVU1
  39              		.loc 1 8 6 is_stmt 0 view .LVU2
  40 0002 0121     		movs	r1, #1
  41 0004 4FF08040 		mov	r0, #1073741824
  42 0008 FFF7FEFF 		bl	TIM_GetITStatus
  43              	.LVL0:
  44              		.loc 1 8 5 view .LVU3
  45 000c 0128     		cmp	r0, #1
  46 000e 00D0     		beq	.L4
  47              	.L1:
   9:Bsp/periph_timer_irq.c **** 	{
  10:Bsp/periph_timer_irq.c **** 		TIM_ClearITPendingBit(TIM2, TIM_IT_Update);
  11:Bsp/periph_timer_irq.c **** 	}
ARM GAS  /var/folders/lx/hc4sn_b53233_zkc9xbbl97r0000gp/T//ccMxuImd.s 			page 2


  12:Bsp/periph_timer_irq.c **** }
  48              		.loc 1 12 1 view .LVU4
  49 0010 08BD     		pop	{r3, pc}
  50              	.L4:
  10:Bsp/periph_timer_irq.c **** 	}
  51              		.loc 1 10 3 is_stmt 1 view .LVU5
  52 0012 0121     		movs	r1, #1
  53 0014 4FF08040 		mov	r0, #1073741824
  54 0018 FFF7FEFF 		bl	TIM_ClearITPendingBit
  55              	.LVL1:
  56              		.loc 1 12 1 is_stmt 0 view .LVU6
  57 001c F8E7     		b	.L1
  58              		.cfi_endproc
  59              	.LFE123:
  61              		.section	.text.TIM3_IRQHandler,"ax",%progbits
  62              		.align	1
  63              		.global	TIM3_IRQHandler
  64              		.syntax unified
  65              		.thumb
  66              		.thumb_func
  67              		.fpu fpv4-sp-d16
  69              	TIM3_IRQHandler:
  70              	.LFB124:
  13:Bsp/periph_timer_irq.c **** 
  14:Bsp/periph_timer_irq.c **** void TIM3_IRQHandler(void)
  15:Bsp/periph_timer_irq.c **** {
  71              		.loc 1 15 1 is_stmt 1 view -0
  72              		.cfi_startproc
  73              		@ args = 0, pretend = 0, frame = 0
  74              		@ frame_needed = 0, uses_anonymous_args = 0
  75 0000 08B5     		push	{r3, lr}
  76              	.LCFI1:
  77              		.cfi_def_cfa_offset 8
  78              		.cfi_offset 3, -8
  79              		.cfi_offset 14, -4
  16:Bsp/periph_timer_irq.c **** 	if (TIM_GetITStatus(TIM3, TIM_IT_Update) == SET)
  80              		.loc 1 16 2 view .LVU8
  81              		.loc 1 16 6 is_stmt 0 view .LVU9
  82 0002 0121     		movs	r1, #1
  83 0004 0548     		ldr	r0, .L9
  84 0006 FFF7FEFF 		bl	TIM_GetITStatus
  85              	.LVL2:
  86              		.loc 1 16 5 view .LVU10
  87 000a 0128     		cmp	r0, #1
  88 000c 00D0     		beq	.L8
  89              	.L5:
  17:Bsp/periph_timer_irq.c **** 	{
  18:Bsp/periph_timer_irq.c **** 		TIM_ClearITPendingBit(TIM3, TIM_IT_Update);
  19:Bsp/periph_timer_irq.c **** 	}
  20:Bsp/periph_timer_irq.c **** }
  90              		.loc 1 20 1 view .LVU11
  91 000e 08BD     		pop	{r3, pc}
  92              	.L8:
  18:Bsp/periph_timer_irq.c **** 	}
  93              		.loc 1 18 3 is_stmt 1 view .LVU12
  94 0010 0121     		movs	r1, #1
  95 0012 0248     		ldr	r0, .L9
ARM GAS  /var/folders/lx/hc4sn_b53233_zkc9xbbl97r0000gp/T//ccMxuImd.s 			page 3


  96 0014 FFF7FEFF 		bl	TIM_ClearITPendingBit
  97              	.LVL3:
  98              		.loc 1 20 1 is_stmt 0 view .LVU13
  99 0018 F9E7     		b	.L5
 100              	.L10:
 101 001a 00BF     		.align	2
 102              	.L9:
 103 001c 00040040 		.word	1073742848
 104              		.cfi_endproc
 105              	.LFE124:
 107              		.section	.text.TIM4_IRQHandler,"ax",%progbits
 108              		.align	1
 109              		.global	TIM4_IRQHandler
 110              		.syntax unified
 111              		.thumb
 112              		.thumb_func
 113              		.fpu fpv4-sp-d16
 115              	TIM4_IRQHandler:
 116              	.LFB125:
  21:Bsp/periph_timer_irq.c **** 
  22:Bsp/periph_timer_irq.c **** void TIM4_IRQHandler(void)
  23:Bsp/periph_timer_irq.c **** {
 117              		.loc 1 23 1 is_stmt 1 view -0
 118              		.cfi_startproc
 119              		@ args = 0, pretend = 0, frame = 0
 120              		@ frame_needed = 0, uses_anonymous_args = 0
 121 0000 08B5     		push	{r3, lr}
 122              	.LCFI2:
 123              		.cfi_def_cfa_offset 8
 124              		.cfi_offset 3, -8
 125              		.cfi_offset 14, -4
  24:Bsp/periph_timer_irq.c **** 	if (TIM_GetITStatus(TIM4, TIM_IT_Update) == SET)
 126              		.loc 1 24 2 view .LVU15
 127              		.loc 1 24 6 is_stmt 0 view .LVU16
 128 0002 0121     		movs	r1, #1
 129 0004 0548     		ldr	r0, .L15
 130 0006 FFF7FEFF 		bl	TIM_GetITStatus
 131              	.LVL4:
 132              		.loc 1 24 5 view .LVU17
 133 000a 0128     		cmp	r0, #1
 134 000c 00D0     		beq	.L14
 135              	.L11:
  25:Bsp/periph_timer_irq.c **** 	{
  26:Bsp/periph_timer_irq.c **** 		TIM_ClearITPendingBit(TIM4, TIM_IT_Update);
  27:Bsp/periph_timer_irq.c **** 	}
  28:Bsp/periph_timer_irq.c **** }
 136              		.loc 1 28 1 view .LVU18
 137 000e 08BD     		pop	{r3, pc}
 138              	.L14:
  26:Bsp/periph_timer_irq.c **** 	}
 139              		.loc 1 26 3 is_stmt 1 view .LVU19
 140 0010 0121     		movs	r1, #1
 141 0012 0248     		ldr	r0, .L15
 142 0014 FFF7FEFF 		bl	TIM_ClearITPendingBit
 143              	.LVL5:
 144              		.loc 1 28 1 is_stmt 0 view .LVU20
 145 0018 F9E7     		b	.L11
ARM GAS  /var/folders/lx/hc4sn_b53233_zkc9xbbl97r0000gp/T//ccMxuImd.s 			page 4


 146              	.L16:
 147 001a 00BF     		.align	2
 148              	.L15:
 149 001c 00080040 		.word	1073743872
 150              		.cfi_endproc
 151              	.LFE125:
 153              		.text
 154              	.Letext0:
 155              		.file 2 "/usr/local/arm-none-eabi-gcc/gcc-arm-none-eabi-10-2020-q4-major/arm-none-eabi/include/mac
 156              		.file 3 "/usr/local/arm-none-eabi-gcc/gcc-arm-none-eabi-10-2020-q4-major/arm-none-eabi/include/sys
 157              		.file 4 "USER/stm32f4xx.h"
 158              		.file 5 "FWLIB/inc/stm32f4xx_tim.h"
ARM GAS  /var/folders/lx/hc4sn_b53233_zkc9xbbl97r0000gp/T//ccMxuImd.s 			page 5


DEFINED SYMBOLS
                            *ABS*:0000000000000000 periph_timer_irq.c
/var/folders/lx/hc4sn_b53233_zkc9xbbl97r0000gp/T//ccMxuImd.s:18     .text.TIM2_IRQHandler:0000000000000000 $t
/var/folders/lx/hc4sn_b53233_zkc9xbbl97r0000gp/T//ccMxuImd.s:26     .text.TIM2_IRQHandler:0000000000000000 TIM2_IRQHandler
/var/folders/lx/hc4sn_b53233_zkc9xbbl97r0000gp/T//ccMxuImd.s:62     .text.TIM3_IRQHandler:0000000000000000 $t
/var/folders/lx/hc4sn_b53233_zkc9xbbl97r0000gp/T//ccMxuImd.s:69     .text.TIM3_IRQHandler:0000000000000000 TIM3_IRQHandler
/var/folders/lx/hc4sn_b53233_zkc9xbbl97r0000gp/T//ccMxuImd.s:103    .text.TIM3_IRQHandler:000000000000001c $d
/var/folders/lx/hc4sn_b53233_zkc9xbbl97r0000gp/T//ccMxuImd.s:108    .text.TIM4_IRQHandler:0000000000000000 $t
/var/folders/lx/hc4sn_b53233_zkc9xbbl97r0000gp/T//ccMxuImd.s:115    .text.TIM4_IRQHandler:0000000000000000 TIM4_IRQHandler
/var/folders/lx/hc4sn_b53233_zkc9xbbl97r0000gp/T//ccMxuImd.s:149    .text.TIM4_IRQHandler:000000000000001c $d

UNDEFINED SYMBOLS
TIM_GetITStatus
TIM_ClearITPendingBit
