ARM GAS  /tmp/ccJ1yMRD.s 			page 1


   1              		.cpu cortex-m4
   2              		.eabi_attribute 27, 1
   3              		.eabi_attribute 28, 1
   4              		.eabi_attribute 20, 1
   5              		.eabi_attribute 21, 1
   6              		.eabi_attribute 23, 3
   7              		.eabi_attribute 24, 1
   8              		.eabi_attribute 25, 1
   9              		.eabi_attribute 26, 1
  10              		.eabi_attribute 30, 1
  11              		.eabi_attribute 34, 1
  12              		.eabi_attribute 18, 4
  13              		.file	"periph_exti.c"
  14              		.text
  15              	.Ltext0:
  16              		.cfi_sections	.debug_frame
  17              		.section	.text.Get_EXTI_Index,"ax",%progbits
  18              		.align	1
  19              		.arch armv7e-m
  20              		.syntax unified
  21              		.thumb
  22              		.thumb_func
  23              		.fpu fpv4-sp-d16
  25              	Get_EXTI_Index:
  26              	.LVL0:
  27              	.LFB124:
  28              		.file 1 "Bsp/periph_exti.c"
   1:Bsp/periph_exti.c **** #include "periph_exti.h"
   2:Bsp/periph_exti.c **** #include "periph_nvic.h"
   3:Bsp/periph_exti.c **** #include "stm32f4xx_rcc.h"
   4:Bsp/periph_exti.c **** #include "stm32f4xx_exti.h"
   5:Bsp/periph_exti.c **** #include "stm32f4xx_syscfg.h"
   6:Bsp/periph_exti.c **** #include <string.h>
   7:Bsp/periph_exti.c **** 
   8:Bsp/periph_exti.c **** #if defined STM32F40_41xxx
   9:Bsp/periph_exti.c **** #define GEN_EXTI_LINE_SUM 16
  10:Bsp/periph_exti.c **** #endif
  11:Bsp/periph_exti.c **** 
  12:Bsp/periph_exti.c **** static exti_callback CallBack_List[GEN_EXTI_LINE_SUM] = {NULL};
  13:Bsp/periph_exti.c **** 
  14:Bsp/periph_exti.c **** void periph_exit_init(Periph_Exti_Config_TypeDef exti_cfg)
  15:Bsp/periph_exti.c **** {
  16:Bsp/periph_exti.c ****     EXTI_InitTypeDef EXTI_InitStruct;
  17:Bsp/periph_exti.c **** 
  18:Bsp/periph_exti.c ****     RCC_APB2PeriphClockCmd(RCC_APB2Periph_SYSCFG, ENABLE);
  19:Bsp/periph_exti.c ****     SYSCFG_EXTILineConfig(exti_cfg.exti_port, exti_cfg.exti_pinsource);
  20:Bsp/periph_exti.c **** 
  21:Bsp/periph_exti.c ****     EXTI_InitStruct.EXTI_Line = exti_cfg.exti_line;
  22:Bsp/periph_exti.c ****     EXTI_InitStruct.EXTI_Trigger = exti_cfg.trigger_type;
  23:Bsp/periph_exti.c ****     EXTI_InitStruct.EXTI_Mode = EXTI_Mode_Interrupt;
  24:Bsp/periph_exti.c ****     EXTI_InitStruct.EXTI_LineCmd = ENABLE;
  25:Bsp/periph_exti.c **** 
  26:Bsp/periph_exti.c ****     EXTI_Init(&EXTI_InitStruct);
  27:Bsp/periph_exti.c **** 
  28:Bsp/periph_exti.c ****     periph_nvic_Structure_Setting(exti_cfg.nvic_channel, exti_cfg.pre_priority, exti_cfg.sub_priori
  29:Bsp/periph_exti.c **** }
  30:Bsp/periph_exti.c **** 
ARM GAS  /tmp/ccJ1yMRD.s 			page 2


  31:Bsp/periph_exti.c **** static uint8_t Get_EXTI_Index(uint32_t EXIT_LineX)
  32:Bsp/periph_exti.c **** {
  29              		.loc 1 32 1 view -0
  30              		.cfi_startproc
  31              		@ args = 0, pretend = 0, frame = 0
  32              		@ frame_needed = 0, uses_anonymous_args = 0
  33              		@ link register save eliminated.
  33:Bsp/periph_exti.c ****     float f_exti_id = (float)EXIT_LineX;
  34              		.loc 1 33 5 view .LVU1
  34:Bsp/periph_exti.c ****     uint32_t u32_exti_id = 0;
  35              		.loc 1 34 5 view .LVU2
  35:Bsp/periph_exti.c ****     uint8_t exp = 0;
  36              		.loc 1 35 5 view .LVU3
  36:Bsp/periph_exti.c **** 
  37:Bsp/periph_exti.c ****     u32_exti_id = *((unsigned long *)(&f_exti_id));
  37              		.loc 1 37 5 view .LVU4
  38              		.loc 1 37 17 is_stmt 0 view .LVU5
  39 0000 07EE900A 		vmov	s15, r0	@ int
  40 0004 F8EE677A 		vcvt.f32.u32	s15, s15
  41              	.LVL1:
  42              		.loc 1 37 17 view .LVU6
  43 0008 17EE900A 		vmov	r0, s15
  44              	.LVL2:
  38:Bsp/periph_exti.c **** 
  39:Bsp/periph_exti.c ****     exp = (u32_exti_id >> 23) & 0xFF;
  45              		.loc 1 39 5 is_stmt 1 view .LVU7
  46              		.loc 1 39 9 is_stmt 0 view .LVU8
  47 000c C0F3C750 		ubfx	r0, r0, #23, #8
  48              	.LVL3:
  40:Bsp/periph_exti.c ****     exp -= 127;
  49              		.loc 1 40 5 is_stmt 1 view .LVU9
  50              		.loc 1 40 9 is_stmt 0 view .LVU10
  51 0010 7F38     		subs	r0, r0, #127
  52              	.LVL4:
  41:Bsp/periph_exti.c **** 
  42:Bsp/periph_exti.c ****     return exp;
  53              		.loc 1 42 5 is_stmt 1 view .LVU11
  43:Bsp/periph_exti.c **** }
  54              		.loc 1 43 1 is_stmt 0 view .LVU12
  55 0012 C0B2     		uxtb	r0, r0
  56              		.loc 1 43 1 view .LVU13
  57 0014 7047     		bx	lr
  58              		.cfi_endproc
  59              	.LFE124:
  61              		.section	.text.periph_exti_checkExti_Line,"ax",%progbits
  62              		.align	1
  63              		.syntax unified
  64              		.thumb
  65              		.thumb_func
  66              		.fpu fpv4-sp-d16
  68              	periph_exti_checkExti_Line:
  69              	.LVL5:
  70              	.LFB125:
  44:Bsp/periph_exti.c **** 
  45:Bsp/periph_exti.c **** static bool periph_exti_checkExti_Line(uint32_t EXTI_LineX)
  46:Bsp/periph_exti.c **** {
  71              		.loc 1 46 1 is_stmt 1 view -0
ARM GAS  /tmp/ccJ1yMRD.s 			page 3


  72              		.cfi_startproc
  73              		@ args = 0, pretend = 0, frame = 0
  74              		@ frame_needed = 0, uses_anonymous_args = 0
  75              		@ link register save eliminated.
  47:Bsp/periph_exti.c ****     switch (EXTI_LineX)
  76              		.loc 1 47 5 view .LVU15
  77 0000 B0F5006F 		cmp	r0, #2048
  78 0004 54D0     		beq	.L11
  79 0006 12D9     		bls	.L34
  80 0008 B0F5003F 		cmp	r0, #131072
  81 000c 64D0     		beq	.L22
  82 000e 33D9     		bls	.L35
  83 0010 B0F5801F 		cmp	r0, #1048576
  84 0014 6CD0     		beq	.L28
  85 0016 43D9     		bls	.L36
  86 0018 B0F5800F 		cmp	r0, #4194304
  87 001c 6ED0     		beq	.L31
  88 001e B0F5000F 		cmp	r0, #8388608
  89 0022 6DD0     		beq	.L32
  90 0024 B0F5001F 		cmp	r0, #2097152
  91 0028 6CD0     		beq	.L33
  48:Bsp/periph_exti.c ****     {
  49:Bsp/periph_exti.c ****     case EXTI_Line0:
  50:Bsp/periph_exti.c ****     case EXTI_Line1:
  51:Bsp/periph_exti.c ****     case EXTI_Line2:
  52:Bsp/periph_exti.c ****     case EXTI_Line3:
  53:Bsp/periph_exti.c ****     case EXTI_Line4:
  54:Bsp/periph_exti.c ****     case EXTI_Line5:
  55:Bsp/periph_exti.c ****     case EXTI_Line6:
  56:Bsp/periph_exti.c ****     case EXTI_Line7:
  57:Bsp/periph_exti.c ****     case EXTI_Line8:
  58:Bsp/periph_exti.c ****     case EXTI_Line9:
  59:Bsp/periph_exti.c ****     case EXTI_Line10:
  60:Bsp/periph_exti.c ****     case EXTI_Line11:
  61:Bsp/periph_exti.c ****     case EXTI_Line12:
  62:Bsp/periph_exti.c ****     case EXTI_Line13:
  63:Bsp/periph_exti.c ****     case EXTI_Line14:
  64:Bsp/periph_exti.c ****     case EXTI_Line15:
  65:Bsp/periph_exti.c ****     case EXTI_Line16:
  66:Bsp/periph_exti.c ****     case EXTI_Line17:
  67:Bsp/periph_exti.c ****     case EXTI_Line18:
  68:Bsp/periph_exti.c ****     case EXTI_Line19:
  69:Bsp/periph_exti.c ****     case EXTI_Line20:
  70:Bsp/periph_exti.c ****     case EXTI_Line21:
  71:Bsp/periph_exti.c ****     case EXTI_Line22:
  72:Bsp/periph_exti.c ****     case EXTI_Line23:
  73:Bsp/periph_exti.c ****         return true;
  74:Bsp/periph_exti.c **** 
  75:Bsp/periph_exti.c ****     default:
  76:Bsp/periph_exti.c ****         return false;
  92              		.loc 1 76 16 is_stmt 0 view .LVU16
  93 002a 0020     		movs	r0, #0
  94              	.LVL6:
  95              		.loc 1 76 16 view .LVU17
  96 002c 7047     		bx	lr
  97              	.LVL7:
  98              	.L34:
ARM GAS  /tmp/ccJ1yMRD.s 			page 4


  47:Bsp/periph_exti.c ****     switch (EXTI_LineX)
  99              		.loc 1 47 5 view .LVU18
 100 002e 2028     		cmp	r0, #32
 101 0030 40D0     		beq	.L12
 102 0032 09D9     		bls	.L37
 103 0034 B0F5807F 		cmp	r0, #256
 104 0038 44D0     		beq	.L17
 105 003a 15D8     		bhi	.L7
 106 003c 4028     		cmp	r0, #64
 107 003e 43D0     		beq	.L18
 108 0040 8028     		cmp	r0, #128
 109 0042 43D0     		beq	.L19
 110              		.loc 1 76 16 view .LVU19
 111 0044 0020     		movs	r0, #0
 112              	.LVL8:
 113              		.loc 1 76 16 view .LVU20
 114 0046 7047     		bx	lr
 115              	.LVL9:
 116              	.L37:
  47:Bsp/periph_exti.c ****     switch (EXTI_LineX)
 117              		.loc 1 47 5 view .LVU21
 118 0048 0428     		cmp	r0, #4
 119 004a 35D0     		beq	.L13
 120 004c 05D9     		bls	.L38
 121 004e 0828     		cmp	r0, #8
 122 0050 34D0     		beq	.L15
 123 0052 1028     		cmp	r0, #16
 124 0054 34D0     		beq	.L16
 125              		.loc 1 76 16 view .LVU22
 126 0056 0020     		movs	r0, #0
 127              	.LVL10:
 128              		.loc 1 76 16 view .LVU23
 129 0058 7047     		bx	lr
 130              	.LVL11:
 131              	.L38:
  47:Bsp/periph_exti.c ****     switch (EXTI_LineX)
 132              		.loc 1 47 5 view .LVU24
 133 005a 0138     		subs	r0, r0, #1
 134              	.LVL12:
  47:Bsp/periph_exti.c ****     switch (EXTI_LineX)
 135              		.loc 1 47 5 view .LVU25
 136 005c 0128     		cmp	r0, #1
 137 005e 01D9     		bls	.L39
 138              		.loc 1 76 16 view .LVU26
 139 0060 0020     		movs	r0, #0
 140              	.LVL13:
 141              		.loc 1 76 16 view .LVU27
 142 0062 7047     		bx	lr
 143              	.L39:
  73:Bsp/periph_exti.c **** 
 144              		.loc 1 73 16 view .LVU28
 145 0064 0120     		movs	r0, #1
 146 0066 7047     		bx	lr
 147              	.LVL14:
 148              	.L7:
  47:Bsp/periph_exti.c ****     switch (EXTI_LineX)
 149              		.loc 1 47 5 view .LVU29
ARM GAS  /tmp/ccJ1yMRD.s 			page 5


 150 0068 B0F5007F 		cmp	r0, #512
 151 006c 30D0     		beq	.L20
 152 006e B0F5806F 		cmp	r0, #1024
 153 0072 2FD0     		beq	.L21
 154              		.loc 1 76 16 view .LVU30
 155 0074 0020     		movs	r0, #0
 156              	.LVL15:
 157              		.loc 1 76 16 view .LVU31
 158 0076 7047     		bx	lr
 159              	.LVL16:
 160              	.L35:
  47:Bsp/periph_exti.c ****     switch (EXTI_LineX)
 161              		.loc 1 47 5 view .LVU32
 162 0078 B0F5804F 		cmp	r0, #16384
 163 007c 2ED0     		beq	.L23
 164 007e 07D8     		bhi	.L9
 165 0080 B0F5805F 		cmp	r0, #4096
 166 0084 2CD0     		beq	.L24
 167 0086 B0F5005F 		cmp	r0, #8192
 168 008a 2BD0     		beq	.L25
 169              		.loc 1 76 16 view .LVU33
 170 008c 0020     		movs	r0, #0
 171              	.LVL17:
 172              		.loc 1 76 16 view .LVU34
 173 008e 7047     		bx	lr
 174              	.LVL18:
 175              	.L9:
  47:Bsp/periph_exti.c ****     switch (EXTI_LineX)
 176              		.loc 1 47 5 view .LVU35
 177 0090 B0F5004F 		cmp	r0, #32768
 178 0094 28D0     		beq	.L26
 179 0096 B0F5803F 		cmp	r0, #65536
 180 009a 27D0     		beq	.L27
 181              		.loc 1 76 16 view .LVU36
 182 009c 0020     		movs	r0, #0
 183              	.LVL19:
 184              		.loc 1 76 16 view .LVU37
 185 009e 7047     		bx	lr
 186              	.LVL20:
 187              	.L36:
  47:Bsp/periph_exti.c ****     switch (EXTI_LineX)
 188              		.loc 1 47 5 view .LVU38
 189 00a0 B0F5802F 		cmp	r0, #262144
 190 00a4 26D0     		beq	.L29
 191 00a6 B0F5002F 		cmp	r0, #524288
 192 00aa 25D0     		beq	.L30
 193              		.loc 1 76 16 view .LVU39
 194 00ac 0020     		movs	r0, #0
 195              	.LVL21:
 196              		.loc 1 76 16 view .LVU40
 197 00ae 7047     		bx	lr
 198              	.LVL22:
 199              	.L11:
  73:Bsp/periph_exti.c **** 
 200              		.loc 1 73 16 view .LVU41
 201 00b0 0120     		movs	r0, #1
 202              	.LVL23:
ARM GAS  /tmp/ccJ1yMRD.s 			page 6


  73:Bsp/periph_exti.c **** 
 203              		.loc 1 73 16 view .LVU42
 204 00b2 7047     		bx	lr
 205              	.LVL24:
 206              	.L12:
  73:Bsp/periph_exti.c **** 
 207              		.loc 1 73 16 view .LVU43
 208 00b4 0120     		movs	r0, #1
 209              	.LVL25:
  73:Bsp/periph_exti.c **** 
 210              		.loc 1 73 16 view .LVU44
 211 00b6 7047     		bx	lr
 212              	.LVL26:
 213              	.L13:
  73:Bsp/periph_exti.c **** 
 214              		.loc 1 73 16 view .LVU45
 215 00b8 0120     		movs	r0, #1
 216              	.LVL27:
  73:Bsp/periph_exti.c **** 
 217              		.loc 1 73 16 view .LVU46
 218 00ba 7047     		bx	lr
 219              	.LVL28:
 220              	.L15:
  73:Bsp/periph_exti.c **** 
 221              		.loc 1 73 16 view .LVU47
 222 00bc 0120     		movs	r0, #1
 223              	.LVL29:
  73:Bsp/periph_exti.c **** 
 224              		.loc 1 73 16 view .LVU48
 225 00be 7047     		bx	lr
 226              	.LVL30:
 227              	.L16:
  73:Bsp/periph_exti.c **** 
 228              		.loc 1 73 16 view .LVU49
 229 00c0 0120     		movs	r0, #1
 230              	.LVL31:
  73:Bsp/periph_exti.c **** 
 231              		.loc 1 73 16 view .LVU50
 232 00c2 7047     		bx	lr
 233              	.LVL32:
 234              	.L17:
  73:Bsp/periph_exti.c **** 
 235              		.loc 1 73 16 view .LVU51
 236 00c4 0120     		movs	r0, #1
 237              	.LVL33:
  73:Bsp/periph_exti.c **** 
 238              		.loc 1 73 16 view .LVU52
 239 00c6 7047     		bx	lr
 240              	.LVL34:
 241              	.L18:
  73:Bsp/periph_exti.c **** 
 242              		.loc 1 73 16 view .LVU53
 243 00c8 0120     		movs	r0, #1
 244              	.LVL35:
  73:Bsp/periph_exti.c **** 
 245              		.loc 1 73 16 view .LVU54
 246 00ca 7047     		bx	lr
ARM GAS  /tmp/ccJ1yMRD.s 			page 7


 247              	.LVL36:
 248              	.L19:
  73:Bsp/periph_exti.c **** 
 249              		.loc 1 73 16 view .LVU55
 250 00cc 0120     		movs	r0, #1
 251              	.LVL37:
  73:Bsp/periph_exti.c **** 
 252              		.loc 1 73 16 view .LVU56
 253 00ce 7047     		bx	lr
 254              	.LVL38:
 255              	.L20:
  73:Bsp/periph_exti.c **** 
 256              		.loc 1 73 16 view .LVU57
 257 00d0 0120     		movs	r0, #1
 258              	.LVL39:
  73:Bsp/periph_exti.c **** 
 259              		.loc 1 73 16 view .LVU58
 260 00d2 7047     		bx	lr
 261              	.LVL40:
 262              	.L21:
  73:Bsp/periph_exti.c **** 
 263              		.loc 1 73 16 view .LVU59
 264 00d4 0120     		movs	r0, #1
 265              	.LVL41:
  73:Bsp/periph_exti.c **** 
 266              		.loc 1 73 16 view .LVU60
 267 00d6 7047     		bx	lr
 268              	.LVL42:
 269              	.L22:
  73:Bsp/periph_exti.c **** 
 270              		.loc 1 73 16 view .LVU61
 271 00d8 0120     		movs	r0, #1
 272              	.LVL43:
  73:Bsp/periph_exti.c **** 
 273              		.loc 1 73 16 view .LVU62
 274 00da 7047     		bx	lr
 275              	.LVL44:
 276              	.L23:
  73:Bsp/periph_exti.c **** 
 277              		.loc 1 73 16 view .LVU63
 278 00dc 0120     		movs	r0, #1
 279              	.LVL45:
  73:Bsp/periph_exti.c **** 
 280              		.loc 1 73 16 view .LVU64
 281 00de 7047     		bx	lr
 282              	.LVL46:
 283              	.L24:
  73:Bsp/periph_exti.c **** 
 284              		.loc 1 73 16 view .LVU65
 285 00e0 0120     		movs	r0, #1
 286              	.LVL47:
  73:Bsp/periph_exti.c **** 
 287              		.loc 1 73 16 view .LVU66
 288 00e2 7047     		bx	lr
 289              	.LVL48:
 290              	.L25:
  73:Bsp/periph_exti.c **** 
ARM GAS  /tmp/ccJ1yMRD.s 			page 8


 291              		.loc 1 73 16 view .LVU67
 292 00e4 0120     		movs	r0, #1
 293              	.LVL49:
  73:Bsp/periph_exti.c **** 
 294              		.loc 1 73 16 view .LVU68
 295 00e6 7047     		bx	lr
 296              	.LVL50:
 297              	.L26:
  73:Bsp/periph_exti.c **** 
 298              		.loc 1 73 16 view .LVU69
 299 00e8 0120     		movs	r0, #1
 300              	.LVL51:
  73:Bsp/periph_exti.c **** 
 301              		.loc 1 73 16 view .LVU70
 302 00ea 7047     		bx	lr
 303              	.LVL52:
 304              	.L27:
  73:Bsp/periph_exti.c **** 
 305              		.loc 1 73 16 view .LVU71
 306 00ec 0120     		movs	r0, #1
 307              	.LVL53:
  73:Bsp/periph_exti.c **** 
 308              		.loc 1 73 16 view .LVU72
 309 00ee 7047     		bx	lr
 310              	.LVL54:
 311              	.L28:
  73:Bsp/periph_exti.c **** 
 312              		.loc 1 73 16 view .LVU73
 313 00f0 0120     		movs	r0, #1
 314              	.LVL55:
  73:Bsp/periph_exti.c **** 
 315              		.loc 1 73 16 view .LVU74
 316 00f2 7047     		bx	lr
 317              	.LVL56:
 318              	.L29:
  73:Bsp/periph_exti.c **** 
 319              		.loc 1 73 16 view .LVU75
 320 00f4 0120     		movs	r0, #1
 321              	.LVL57:
  73:Bsp/periph_exti.c **** 
 322              		.loc 1 73 16 view .LVU76
 323 00f6 7047     		bx	lr
 324              	.LVL58:
 325              	.L30:
  73:Bsp/periph_exti.c **** 
 326              		.loc 1 73 16 view .LVU77
 327 00f8 0120     		movs	r0, #1
 328              	.LVL59:
  73:Bsp/periph_exti.c **** 
 329              		.loc 1 73 16 view .LVU78
 330 00fa 7047     		bx	lr
 331              	.LVL60:
 332              	.L31:
  73:Bsp/periph_exti.c **** 
 333              		.loc 1 73 16 view .LVU79
 334 00fc 0120     		movs	r0, #1
 335              	.LVL61:
ARM GAS  /tmp/ccJ1yMRD.s 			page 9


  73:Bsp/periph_exti.c **** 
 336              		.loc 1 73 16 view .LVU80
 337 00fe 7047     		bx	lr
 338              	.LVL62:
 339              	.L32:
  73:Bsp/periph_exti.c **** 
 340              		.loc 1 73 16 view .LVU81
 341 0100 0120     		movs	r0, #1
 342              	.LVL63:
  73:Bsp/periph_exti.c **** 
 343              		.loc 1 73 16 view .LVU82
 344 0102 7047     		bx	lr
 345              	.LVL64:
 346              	.L33:
  73:Bsp/periph_exti.c **** 
 347              		.loc 1 73 16 view .LVU83
 348 0104 0120     		movs	r0, #1
 349              	.LVL65:
  77:Bsp/periph_exti.c ****     }
  78:Bsp/periph_exti.c **** }
 350              		.loc 1 78 1 view .LVU84
 351 0106 7047     		bx	lr
 352              		.cfi_endproc
 353              	.LFE125:
 355              		.section	.text.periph_exit_init,"ax",%progbits
 356              		.align	1
 357              		.global	periph_exit_init
 358              		.syntax unified
 359              		.thumb
 360              		.thumb_func
 361              		.fpu fpv4-sp-d16
 363              	periph_exit_init:
 364              	.LFB123:
  15:Bsp/periph_exti.c ****     EXTI_InitTypeDef EXTI_InitStruct;
 365              		.loc 1 15 1 is_stmt 1 view -0
 366              		.cfi_startproc
 367              		@ args = 0, pretend = 0, frame = 24
 368              		@ frame_needed = 0, uses_anonymous_args = 0
 369 0000 10B5     		push	{r4, lr}
 370              	.LCFI0:
 371              		.cfi_def_cfa_offset 8
 372              		.cfi_offset 4, -8
 373              		.cfi_offset 14, -4
 374 0002 86B0     		sub	sp, sp, #24
 375              	.LCFI1:
 376              		.cfi_def_cfa_offset 32
 377 0004 01AB     		add	r3, sp, #4
 378 0006 83E80700 		stm	r3, {r0, r1, r2}
  16:Bsp/periph_exti.c **** 
 379              		.loc 1 16 5 view .LVU86
  18:Bsp/periph_exti.c ****     SYSCFG_EXTILineConfig(exti_cfg.exti_port, exti_cfg.exti_pinsource);
 380              		.loc 1 18 5 view .LVU87
 381 000a 0121     		movs	r1, #1
 382 000c 4FF48040 		mov	r0, #16384
 383 0010 FFF7FEFF 		bl	RCC_APB2PeriphClockCmd
 384              	.LVL66:
  19:Bsp/periph_exti.c **** 
ARM GAS  /tmp/ccJ1yMRD.s 			page 10


 385              		.loc 1 19 5 view .LVU88
 386 0014 9DF80510 		ldrb	r1, [sp, #5]	@ zero_extendqisi2
 387 0018 9DF80400 		ldrb	r0, [sp, #4]	@ zero_extendqisi2
 388 001c FFF7FEFF 		bl	SYSCFG_EXTILineConfig
 389              	.LVL67:
  21:Bsp/periph_exti.c ****     EXTI_InitStruct.EXTI_Trigger = exti_cfg.trigger_type;
 390              		.loc 1 21 5 view .LVU89
  21:Bsp/periph_exti.c ****     EXTI_InitStruct.EXTI_Trigger = exti_cfg.trigger_type;
 391              		.loc 1 21 41 is_stmt 0 view .LVU90
 392 0020 029B     		ldr	r3, [sp, #8]
  21:Bsp/periph_exti.c ****     EXTI_InitStruct.EXTI_Trigger = exti_cfg.trigger_type;
 393              		.loc 1 21 31 view .LVU91
 394 0022 0493     		str	r3, [sp, #16]
  22:Bsp/periph_exti.c ****     EXTI_InitStruct.EXTI_Mode = EXTI_Mode_Interrupt;
 395              		.loc 1 22 5 is_stmt 1 view .LVU92
  22:Bsp/periph_exti.c ****     EXTI_InitStruct.EXTI_Mode = EXTI_Mode_Interrupt;
 396              		.loc 1 22 44 is_stmt 0 view .LVU93
 397 0024 9DF80C30 		ldrb	r3, [sp, #12]	@ zero_extendqisi2
  22:Bsp/periph_exti.c ****     EXTI_InitStruct.EXTI_Mode = EXTI_Mode_Interrupt;
 398              		.loc 1 22 34 view .LVU94
 399 0028 8DF81530 		strb	r3, [sp, #21]
  23:Bsp/periph_exti.c ****     EXTI_InitStruct.EXTI_LineCmd = ENABLE;
 400              		.loc 1 23 5 is_stmt 1 view .LVU95
  23:Bsp/periph_exti.c ****     EXTI_InitStruct.EXTI_LineCmd = ENABLE;
 401              		.loc 1 23 31 is_stmt 0 view .LVU96
 402 002c 0023     		movs	r3, #0
 403 002e 8DF81430 		strb	r3, [sp, #20]
  24:Bsp/periph_exti.c **** 
 404              		.loc 1 24 5 is_stmt 1 view .LVU97
  24:Bsp/periph_exti.c **** 
 405              		.loc 1 24 34 is_stmt 0 view .LVU98
 406 0032 0124     		movs	r4, #1
 407 0034 8DF81640 		strb	r4, [sp, #22]
  26:Bsp/periph_exti.c **** 
 408              		.loc 1 26 5 is_stmt 1 view .LVU99
 409 0038 04A8     		add	r0, sp, #16
 410 003a FFF7FEFF 		bl	EXTI_Init
 411              	.LVL68:
  28:Bsp/periph_exti.c **** }
 412              		.loc 1 28 5 view .LVU100
 413 003e 2346     		mov	r3, r4
 414 0040 9DF80F20 		ldrb	r2, [sp, #15]	@ zero_extendqisi2
 415 0044 9DF80E10 		ldrb	r1, [sp, #14]	@ zero_extendqisi2
 416 0048 9DF80D00 		ldrb	r0, [sp, #13]	@ zero_extendqisi2
 417 004c FFF7FEFF 		bl	periph_nvic_Structure_Setting
 418              	.LVL69:
  29:Bsp/periph_exti.c **** 
 419              		.loc 1 29 1 is_stmt 0 view .LVU101
 420 0050 06B0     		add	sp, sp, #24
 421              	.LCFI2:
 422              		.cfi_def_cfa_offset 8
 423              		@ sp needed
 424 0052 10BD     		pop	{r4, pc}
 425              		.cfi_endproc
 426              	.LFE123:
 428              		.section	.text.periph_exti_SetCallback,"ax",%progbits
 429              		.align	1
ARM GAS  /tmp/ccJ1yMRD.s 			page 11


 430              		.global	periph_exti_SetCallback
 431              		.syntax unified
 432              		.thumb
 433              		.thumb_func
 434              		.fpu fpv4-sp-d16
 436              	periph_exti_SetCallback:
 437              	.LVL70:
 438              	.LFB126:
  79:Bsp/periph_exti.c **** 
  80:Bsp/periph_exti.c **** bool periph_exti_SetCallback(uint32_t EXTI_LineX, exti_callback callback)
  81:Bsp/periph_exti.c **** {
 439              		.loc 1 81 1 is_stmt 1 view -0
 440              		.cfi_startproc
 441              		@ args = 0, pretend = 0, frame = 0
 442              		@ frame_needed = 0, uses_anonymous_args = 0
 443              		.loc 1 81 1 is_stmt 0 view .LVU103
 444 0000 70B5     		push	{r4, r5, r6, lr}
 445              	.LCFI3:
 446              		.cfi_def_cfa_offset 16
 447              		.cfi_offset 4, -16
 448              		.cfi_offset 5, -12
 449              		.cfi_offset 6, -8
 450              		.cfi_offset 14, -4
 451 0002 0646     		mov	r6, r0
 452 0004 0D46     		mov	r5, r1
  82:Bsp/periph_exti.c ****     if (!periph_exti_checkExti_Line(EXTI_LineX))
 453              		.loc 1 82 5 is_stmt 1 view .LVU104
 454              		.loc 1 82 10 is_stmt 0 view .LVU105
 455 0006 FFF7FEFF 		bl	periph_exti_checkExti_Line
 456              	.LVL71:
 457              		.loc 1 82 8 view .LVU106
 458 000a 0446     		mov	r4, r0
 459 000c 28B1     		cbz	r0, .L43
  83:Bsp/periph_exti.c ****         return false;
  84:Bsp/periph_exti.c **** 
  85:Bsp/periph_exti.c ****     CallBack_List[Get_EXTI_Index(EXTI_LineX)] = callback;
 460              		.loc 1 85 5 is_stmt 1 view .LVU107
 461              		.loc 1 85 19 is_stmt 0 view .LVU108
 462 000e 3046     		mov	r0, r6
 463 0010 FFF7FEFF 		bl	Get_EXTI_Index
 464              	.LVL72:
 465              		.loc 1 85 47 view .LVU109
 466 0014 024B     		ldr	r3, .L45
 467 0016 43F82050 		str	r5, [r3, r0, lsl #2]
  86:Bsp/periph_exti.c ****     return true;
 468              		.loc 1 86 5 is_stmt 1 view .LVU110
 469              	.L43:
  87:Bsp/periph_exti.c **** }
 470              		.loc 1 87 1 is_stmt 0 view .LVU111
 471 001a 2046     		mov	r0, r4
 472 001c 70BD     		pop	{r4, r5, r6, pc}
 473              	.LVL73:
 474              	.L46:
 475              		.loc 1 87 1 view .LVU112
 476 001e 00BF     		.align	2
 477              	.L45:
 478 0020 00000000 		.word	.LANCHOR0
ARM GAS  /tmp/ccJ1yMRD.s 			page 12


 479              		.cfi_endproc
 480              	.LFE126:
 482              		.section	.text.periph_exti_GetCallback,"ax",%progbits
 483              		.align	1
 484              		.global	periph_exti_GetCallback
 485              		.syntax unified
 486              		.thumb
 487              		.thumb_func
 488              		.fpu fpv4-sp-d16
 490              	periph_exti_GetCallback:
 491              	.LVL74:
 492              	.LFB127:
  88:Bsp/periph_exti.c **** 
  89:Bsp/periph_exti.c **** exti_callback periph_exti_GetCallback(uint32_t EXTI_LineX)
  90:Bsp/periph_exti.c **** {
 493              		.loc 1 90 1 is_stmt 1 view -0
 494              		.cfi_startproc
 495              		@ args = 0, pretend = 0, frame = 0
 496              		@ frame_needed = 0, uses_anonymous_args = 0
 497              		.loc 1 90 1 is_stmt 0 view .LVU114
 498 0000 10B5     		push	{r4, lr}
 499              	.LCFI4:
 500              		.cfi_def_cfa_offset 8
 501              		.cfi_offset 4, -8
 502              		.cfi_offset 14, -4
 503 0002 0446     		mov	r4, r0
  91:Bsp/periph_exti.c ****     if (!periph_exti_checkExti_Line(EXTI_LineX))
 504              		.loc 1 91 5 is_stmt 1 view .LVU115
 505              		.loc 1 91 10 is_stmt 0 view .LVU116
 506 0004 FFF7FEFF 		bl	periph_exti_checkExti_Line
 507              	.LVL75:
 508              		.loc 1 91 8 view .LVU117
 509 0008 30B1     		cbz	r0, .L49
  92:Bsp/periph_exti.c ****         return NULL;
  93:Bsp/periph_exti.c **** 
  94:Bsp/periph_exti.c ****     return CallBack_List[Get_EXTI_Index(EXTI_LineX)];
 510              		.loc 1 94 5 is_stmt 1 view .LVU118
 511              		.loc 1 94 26 is_stmt 0 view .LVU119
 512 000a 2046     		mov	r0, r4
 513 000c FFF7FEFF 		bl	Get_EXTI_Index
 514              	.LVL76:
 515              		.loc 1 94 25 view .LVU120
 516 0010 024B     		ldr	r3, .L51
 517 0012 53F82000 		ldr	r0, [r3, r0, lsl #2]
 518              	.L47:
  95:Bsp/periph_exti.c **** }...
 519              		.loc 1 95 1 view .LVU121
 520 0016 10BD     		pop	{r4, pc}
 521              	.LVL77:
 522              	.L49:
  92:Bsp/periph_exti.c ****         return NULL;
 523              		.loc 1 92 16 view .LVU122
 524 0018 0020     		movs	r0, #0
 525 001a FCE7     		b	.L47
 526              	.L52:
 527              		.align	2
 528              	.L51:
ARM GAS  /tmp/ccJ1yMRD.s 			page 13


 529 001c 00000000 		.word	.LANCHOR0
 530              		.cfi_endproc
 531              	.LFE127:
 533              		.section	.bss.CallBack_List,"aw",%nobits
 534              		.align	2
 535              		.set	.LANCHOR0,. + 0
 538              	CallBack_List:
 539 0000 00000000 		.space	64
 539      00000000 
 539      00000000 
 539      00000000 
 539      00000000 
 540              		.text
 541              	.Letext0:
 542              		.file 2 "/home/bt0/stm32/compile-tool/gcc-arm-none-eabi-8-2018-q4-major-linux/gcc-arm-none-eabi-8-
 543              		.file 3 "/home/bt0/stm32/compile-tool/gcc-arm-none-eabi-8-2018-q4-major-linux/gcc-arm-none-eabi-8-
 544              		.file 4 "F4_CORE/core_cm4.h"
 545              		.file 5 "USER/system_stm32f4xx.h"
 546              		.file 6 "USER/stm32f4xx.h"
 547              		.file 7 "FWLIB/inc/stm32f4xx_exti.h"
 548              		.file 8 "Bsp/periph_exti.h"
 549              		.file 9 "/home/bt0/stm32/compile-tool/gcc-arm-none-eabi-8-2018-q4-major-linux/gcc-arm-none-eabi-8-
 550              		.file 10 "/home/bt0/stm32/compile-tool/gcc-arm-none-eabi-8-2018-q4-major-linux/gcc-arm-none-eabi-8
 551              		.file 11 "/home/bt0/stm32/compile-tool/gcc-arm-none-eabi-8-2018-q4-major-linux/gcc-arm-none-eabi-8
 552              		.file 12 "/home/bt0/stm32/compile-tool/gcc-arm-none-eabi-8-2018-q4-major-linux/gcc-arm-none-eabi-8
 553              		.file 13 "FWLIB/inc/stm32f4xx_rcc.h"
 554              		.file 14 "FWLIB/inc/stm32f4xx_syscfg.h"
 555              		.file 15 "Bsp/periph_nvic.h"
ARM GAS  /tmp/ccJ1yMRD.s 			page 14

