ARM GAS  /var/folders/lx/hc4sn_b53233_zkc9xbbl97r0000gp/T//ccnvIE0z.s 			page 1


   1              		.cpu cortex-m4
   2              		.eabi_attribute 27, 1
   3              		.eabi_attribute 28, 1
   4              		.eabi_attribute 20, 1
   5              		.eabi_attribute 21, 1
   6              		.eabi_attribute 23, 3
   7              		.eabi_attribute 24, 1
   8              		.eabi_attribute 25, 1
   9              		.eabi_attribute 26, 1
  10              		.eabi_attribute 30, 1
  11              		.eabi_attribute 34, 1
  12              		.eabi_attribute 18, 4
  13              		.file	"periph_serial.c"
  14              		.text
  15              	.Ltext0:
  16              		.cfi_sections	.debug_frame
  17              		.section	.text.USART_Structure_Normal_Setting,"ax",%progbits
  18              		.align	1
  19              		.arch armv7e-m
  20              		.syntax unified
  21              		.thumb
  22              		.thumb_func
  23              		.fpu fpv4-sp-d16
  25              	USART_Structure_Normal_Setting:
  26              	.LVL0:
  27              	.LFB123:
  28              		.file 1 "Bsp/periph_serial.c"
   1:Bsp/periph_serial.c **** #include "periph_serial.h"
   2:Bsp/periph_serial.c **** #include "periph_gpio.h"
   3:Bsp/periph_serial.c **** #include "periph_nvic.h"
   4:Bsp/periph_serial.c **** #include "periph_dma.h"
   5:Bsp/periph_serial.c **** #include "stm32f4xx_usart.h"
   6:Bsp/periph_serial.c **** #include "stm32f4xx_rcc.h"
   7:Bsp/periph_serial.c **** #include "stm32f4xx_dma.h"
   8:Bsp/periph_serial.c **** 
   9:Bsp/periph_serial.c **** uint8_t Serial_TX_Buff[Serial_Port_Sum][SERIAL_MAX_RECLEN];
  10:Bsp/periph_serial.c **** uint8_t Serial_RX_Buff[Serial_Port_Sum][SERIAL_MAX_RECLEN];
  11:Bsp/periph_serial.c **** 
  12:Bsp/periph_serial.c **** Serial_IRQ_Callback IRQ_Callback[Serial_Port_Sum] = {NULL};
  13:Bsp/periph_serial.c **** 
  14:Bsp/periph_serial.c **** #ifdef STM32F40XX
  15:Bsp/periph_serial.c **** static void (*Serial_IO_Init[Serial_Port_Sum])(void) = {GPIO_USART1_IO_Init,
  16:Bsp/periph_serial.c **** 														GPIO_USART2_IO_Init,
  17:Bsp/periph_serial.c **** 														GPIO_USART3_IO_Init,
  18:Bsp/periph_serial.c **** 														GPIO_USART6_IO_Init};
  19:Bsp/periph_serial.c **** 
  20:Bsp/periph_serial.c **** static void (*RCC_APBPeriphClockCmd[Serial_Port_Sum])(uint32_t RCC_APB2Periph, FunctionalState NewS
  21:Bsp/periph_serial.c **** 																											RCC_APB1PeriphClockCmd,
  22:Bsp/periph_serial.c **** 																											RCC_APB1PeriphClockCmd,
  23:Bsp/periph_serial.c **** 																											RCC_APB2PeriphClockCmd};
  24:Bsp/periph_serial.c **** 
  25:Bsp/periph_serial.c **** static uint32_t RCC_APBPeriph_SerialCLK[Serial_Port_Sum] = {RCC_APB2Periph_USART1,
  26:Bsp/periph_serial.c **** 															RCC_APB1Periph_USART2,
  27:Bsp/periph_serial.c **** 															RCC_APB1Periph_USART3,
  28:Bsp/periph_serial.c **** 															RCC_APB2Periph_USART6};
  29:Bsp/periph_serial.c **** 
  30:Bsp/periph_serial.c **** USART_TypeDef *Serial_Port[Serial_Port_Sum] = {USART1,
ARM GAS  /var/folders/lx/hc4sn_b53233_zkc9xbbl97r0000gp/T//ccnvIE0z.s 			page 2


  31:Bsp/periph_serial.c **** 											   USART2,
  32:Bsp/periph_serial.c **** 											   USART3,
  33:Bsp/periph_serial.c **** 											   USART6};
  34:Bsp/periph_serial.c **** 
  35:Bsp/periph_serial.c **** static uint8_t Serial_RX_IRQ_Channel[Serial_Port_Sum] = {USART1_IRQn,
  36:Bsp/periph_serial.c **** 														 USART2_IRQn,
  37:Bsp/periph_serial.c **** 														 USART3_IRQn,
  38:Bsp/periph_serial.c **** 														 USART6_IRQn};
  39:Bsp/periph_serial.c **** 
  40:Bsp/periph_serial.c **** static uint8_t Serial_DMA_TX_IRQ_Channel[Serial_Port_Sum] = {DMA2_Stream7_IRQn,
  41:Bsp/periph_serial.c **** 															 DMA1_Stream6_IRQn,
  42:Bsp/periph_serial.c **** 															 DMA1_Stream3_IRQn,
  43:Bsp/periph_serial.c **** 															 DMA2_Stream7_IRQn};
  44:Bsp/periph_serial.c **** 
  45:Bsp/periph_serial.c **** static uint32_t Serial_DMA_CLK[Serial_Port_Sum] = {Serial1_DMA_CLK,
  46:Bsp/periph_serial.c **** 												   Serial2_DMA_CLK,
  47:Bsp/periph_serial.c **** 												   Serial3_DMA_CLK,
  48:Bsp/periph_serial.c **** 												   Serial6_DMA_CLK};
  49:Bsp/periph_serial.c **** 
  50:Bsp/periph_serial.c **** static uint32_t Serial_DMA_RX_Channel[Serial_Port_Sum] = {Serial1_DMA_RX_Channel,
  51:Bsp/periph_serial.c **** 														  Serial2_DMA_RX_Channel,
  52:Bsp/periph_serial.c **** 														  Serial3_DMA_RX_Channel,
  53:Bsp/periph_serial.c **** 														  Serial6_DMA_RX_Channel};
  54:Bsp/periph_serial.c **** 
  55:Bsp/periph_serial.c **** static DMA_Stream_TypeDef *Serial_DMA_RX_Stream[Serial_Port_Sum] = {Serial1_DMA_RX_Stream,
  56:Bsp/periph_serial.c **** 																	Serial2_DMA_RX_Stream,
  57:Bsp/periph_serial.c **** 																	Serial3_DMA_RX_Stream,
  58:Bsp/periph_serial.c **** 																	Serial6_DMA_RX_Stream};
  59:Bsp/periph_serial.c **** 
  60:Bsp/periph_serial.c **** static uint32_t Serial_DMA_TX_Channel[Serial_Port_Sum] = {Serial1_DMA_TX_Channel,
  61:Bsp/periph_serial.c **** 														  Serial2_DMA_TX_Channel,
  62:Bsp/periph_serial.c **** 														  Serial3_DMA_TX_Channel,
  63:Bsp/periph_serial.c **** 														  Serial6_DMA_TX_Channel};
  64:Bsp/periph_serial.c **** 
  65:Bsp/periph_serial.c **** static DMA_Stream_TypeDef *Serial_DMA_TX_Stream[Serial_Port_Sum] = {Serial1_DMA_TX_Stream,
  66:Bsp/periph_serial.c **** 																	Serial2_DMA_TX_Stream,
  67:Bsp/periph_serial.c **** 																	Serial3_DMA_TX_Stream,
  68:Bsp/periph_serial.c **** 																	Serial6_DMA_TX_Stream};
  69:Bsp/periph_serial.c **** 
  70:Bsp/periph_serial.c **** static uint32_t DMA_TX_FinishFlag[Serial_Port_Sum] = {DMA_FLAG_TCIF7,
  71:Bsp/periph_serial.c **** 													  DMA_FLAG_TCIF6,
  72:Bsp/periph_serial.c **** 													  DMA_FLAG_TCIF3,
  73:Bsp/periph_serial.c **** 													  DMA_FLAG_TCIF7};
  74:Bsp/periph_serial.c **** #endif
  75:Bsp/periph_serial.c **** 
  76:Bsp/periph_serial.c **** static void USART_Structure_Normal_Setting(USART_InitTypeDef *USART_InitStructure, uint32_t bound)
  77:Bsp/periph_serial.c **** {
  29              		.loc 1 77 1 view -0
  30              		.cfi_startproc
  31              		@ args = 0, pretend = 0, frame = 0
  32              		@ frame_needed = 0, uses_anonymous_args = 0
  33              		@ link register save eliminated.
  78:Bsp/periph_serial.c **** 	USART_InitStructure->USART_BaudRate = bound;
  34              		.loc 1 78 2 view .LVU1
  35              		.loc 1 78 38 is_stmt 0 view .LVU2
  36 0000 0160     		str	r1, [r0]
  79:Bsp/periph_serial.c **** 	USART_InitStructure->USART_WordLength = USART_WordLength_8b;
ARM GAS  /var/folders/lx/hc4sn_b53233_zkc9xbbl97r0000gp/T//ccnvIE0z.s 			page 3


  37              		.loc 1 79 2 is_stmt 1 view .LVU3
  38              		.loc 1 79 40 is_stmt 0 view .LVU4
  39 0002 0023     		movs	r3, #0
  40 0004 8380     		strh	r3, [r0, #4]	@ movhi
  80:Bsp/periph_serial.c **** 	USART_InitStructure->USART_StopBits = USART_StopBits_1;
  41              		.loc 1 80 2 is_stmt 1 view .LVU5
  42              		.loc 1 80 38 is_stmt 0 view .LVU6
  43 0006 C380     		strh	r3, [r0, #6]	@ movhi
  81:Bsp/periph_serial.c **** 	USART_InitStructure->USART_Parity = USART_Parity_No;
  44              		.loc 1 81 2 is_stmt 1 view .LVU7
  45              		.loc 1 81 36 is_stmt 0 view .LVU8
  46 0008 0381     		strh	r3, [r0, #8]	@ movhi
  82:Bsp/periph_serial.c **** 	USART_InitStructure->USART_HardwareFlowControl = USART_HardwareFlowControl_None;
  47              		.loc 1 82 2 is_stmt 1 view .LVU9
  48              		.loc 1 82 49 is_stmt 0 view .LVU10
  49 000a 8381     		strh	r3, [r0, #12]	@ movhi
  83:Bsp/periph_serial.c **** 	USART_InitStructure->USART_Mode = USART_Mode_Rx | USART_Mode_Tx;
  50              		.loc 1 83 2 is_stmt 1 view .LVU11
  51              		.loc 1 83 34 is_stmt 0 view .LVU12
  52 000c 0C23     		movs	r3, #12
  53 000e 4381     		strh	r3, [r0, #10]	@ movhi
  84:Bsp/periph_serial.c **** }
  54              		.loc 1 84 1 view .LVU13
  55 0010 7047     		bx	lr
  56              		.cfi_endproc
  57              	.LFE123:
  59              		.section	.text.USART_Structure_SBus_Setting,"ax",%progbits
  60              		.align	1
  61              		.syntax unified
  62              		.thumb
  63              		.thumb_func
  64              		.fpu fpv4-sp-d16
  66              	USART_Structure_SBus_Setting:
  67              	.LVL1:
  68              	.LFB124:
  85:Bsp/periph_serial.c **** 
  86:Bsp/periph_serial.c **** static void USART_Structure_SBus_Setting(USART_InitTypeDef *USART_InitStructure, uint32_t bound)
  87:Bsp/periph_serial.c **** {
  69              		.loc 1 87 1 is_stmt 1 view -0
  70              		.cfi_startproc
  71              		@ args = 0, pretend = 0, frame = 0
  72              		@ frame_needed = 0, uses_anonymous_args = 0
  73              		@ link register save eliminated.
  88:Bsp/periph_serial.c **** 	USART_InitStructure->USART_BaudRate = bound;
  74              		.loc 1 88 2 view .LVU15
  75              		.loc 1 88 38 is_stmt 0 view .LVU16
  76 0000 0160     		str	r1, [r0]
  89:Bsp/periph_serial.c **** 	USART_InitStructure->USART_WordLength = USART_WordLength_9b;
  77              		.loc 1 89 2 is_stmt 1 view .LVU17
  78              		.loc 1 89 40 is_stmt 0 view .LVU18
  79 0002 4FF48053 		mov	r3, #4096
  80 0006 8380     		strh	r3, [r0, #4]	@ movhi
  90:Bsp/periph_serial.c **** 	USART_InitStructure->USART_StopBits = USART_StopBits_2;
  81              		.loc 1 90 2 is_stmt 1 view .LVU19
  82              		.loc 1 90 38 is_stmt 0 view .LVU20
  83 0008 4FF40053 		mov	r3, #8192
  84 000c C380     		strh	r3, [r0, #6]	@ movhi
ARM GAS  /var/folders/lx/hc4sn_b53233_zkc9xbbl97r0000gp/T//ccnvIE0z.s 			page 4


  91:Bsp/periph_serial.c **** 	USART_InitStructure->USART_Parity = USART_Parity_Even;
  85              		.loc 1 91 2 is_stmt 1 view .LVU21
  86              		.loc 1 91 36 is_stmt 0 view .LVU22
  87 000e 4FF48063 		mov	r3, #1024
  88 0012 0381     		strh	r3, [r0, #8]	@ movhi
  92:Bsp/periph_serial.c **** 	USART_InitStructure->USART_HardwareFlowControl = USART_HardwareFlowControl_None;
  89              		.loc 1 92 2 is_stmt 1 view .LVU23
  90              		.loc 1 92 49 is_stmt 0 view .LVU24
  91 0014 0023     		movs	r3, #0
  92 0016 8381     		strh	r3, [r0, #12]	@ movhi
  93:Bsp/periph_serial.c **** 	USART_InitStructure->USART_Mode = USART_Mode_Rx | USART_Mode_Tx;
  93              		.loc 1 93 2 is_stmt 1 view .LVU25
  94              		.loc 1 93 34 is_stmt 0 view .LVU26
  95 0018 0C23     		movs	r3, #12
  96 001a 4381     		strh	r3, [r0, #10]	@ movhi
  94:Bsp/periph_serial.c **** }
  97              		.loc 1 94 1 view .LVU27
  98 001c 7047     		bx	lr
  99              		.cfi_endproc
 100              	.LFE124:
 102              		.section	.text.Serial_Get_IRQ_RxCallback,"ax",%progbits
 103              		.align	1
 104              		.global	Serial_Get_IRQ_RxCallback
 105              		.syntax unified
 106              		.thumb
 107              		.thumb_func
 108              		.fpu fpv4-sp-d16
 110              	Serial_Get_IRQ_RxCallback:
 111              	.LVL2:
 112              	.LFB125:
  95:Bsp/periph_serial.c **** 
  96:Bsp/periph_serial.c **** static void (*Serial_Structure_Setting[Serial_Func_Sum])(USART_InitTypeDef *USART_InitStructure, ui
  97:Bsp/periph_serial.c **** 																													USART_Structure_SBus_Setting};
  98:Bsp/periph_serial.c **** 
  99:Bsp/periph_serial.c **** Serial_IRQ_Callback Serial_Get_IRQ_RxCallback(Serial_List serial_id)
 100:Bsp/periph_serial.c **** {
 113              		.loc 1 100 1 is_stmt 1 view -0
 114              		.cfi_startproc
 115              		@ args = 0, pretend = 0, frame = 0
 116              		@ frame_needed = 0, uses_anonymous_args = 0
 117              		@ link register save eliminated.
 101:Bsp/periph_serial.c **** 	if (serial_id >= Serial_Port_Sum)
 118              		.loc 1 101 2 view .LVU29
 119              		.loc 1 101 5 is_stmt 0 view .LVU30
 120 0000 0328     		cmp	r0, #3
 121 0002 03D8     		bhi	.L5
 102:Bsp/periph_serial.c **** 		return NULL;
 103:Bsp/periph_serial.c **** 
 104:Bsp/periph_serial.c **** 	return IRQ_Callback[serial_id];
 122              		.loc 1 104 2 is_stmt 1 view .LVU31
 123              		.loc 1 104 21 is_stmt 0 view .LVU32
 124 0004 024B     		ldr	r3, .L6
 125 0006 53F82000 		ldr	r0, [r3, r0, lsl #2]
 126              	.LVL3:
 127              		.loc 1 104 21 view .LVU33
 128 000a 7047     		bx	lr
 129              	.LVL4:
ARM GAS  /var/folders/lx/hc4sn_b53233_zkc9xbbl97r0000gp/T//ccnvIE0z.s 			page 5


 130              	.L5:
 102:Bsp/periph_serial.c **** 		return NULL;
 131              		.loc 1 102 10 view .LVU34
 132 000c 0020     		movs	r0, #0
 133              	.LVL5:
 105:Bsp/periph_serial.c **** }
 134              		.loc 1 105 1 view .LVU35
 135 000e 7047     		bx	lr
 136              	.L7:
 137              		.align	2
 138              	.L6:
 139 0010 00000000 		.word	.LANCHOR0
 140              		.cfi_endproc
 141              	.LFE125:
 143              		.section	.text.Serial_Set_IRQ_Callback,"ax",%progbits
 144              		.align	1
 145              		.global	Serial_Set_IRQ_Callback
 146              		.syntax unified
 147              		.thumb
 148              		.thumb_func
 149              		.fpu fpv4-sp-d16
 151              	Serial_Set_IRQ_Callback:
 152              	.LVL6:
 153              	.LFB126:
 106:Bsp/periph_serial.c **** 
 107:Bsp/periph_serial.c **** bool Serial_Set_IRQ_Callback(Serial_List serial_id, Serial_IRQ_Callback callback)
 108:Bsp/periph_serial.c **** {
 154              		.loc 1 108 1 is_stmt 1 view -0
 155              		.cfi_startproc
 156              		@ args = 0, pretend = 0, frame = 0
 157              		@ frame_needed = 0, uses_anonymous_args = 0
 158              		@ link register save eliminated.
 109:Bsp/periph_serial.c **** 	if (serial_id >= Serial_Port_Sum)
 159              		.loc 1 109 2 view .LVU37
 160              		.loc 1 109 5 is_stmt 0 view .LVU38
 161 0000 0328     		cmp	r0, #3
 162 0002 04D8     		bhi	.L10
 110:Bsp/periph_serial.c **** 		return false;
 111:Bsp/periph_serial.c **** 
 112:Bsp/periph_serial.c **** 	IRQ_Callback[serial_id] = callback;
 163              		.loc 1 112 2 is_stmt 1 view .LVU39
 164              		.loc 1 112 26 is_stmt 0 view .LVU40
 165 0004 034B     		ldr	r3, .L11
 166 0006 43F82010 		str	r1, [r3, r0, lsl #2]
 113:Bsp/periph_serial.c **** 
 114:Bsp/periph_serial.c **** 	return true;
 167              		.loc 1 114 2 is_stmt 1 view .LVU41
 168              		.loc 1 114 9 is_stmt 0 view .LVU42
 169 000a 0120     		movs	r0, #1
 170              	.LVL7:
 171              		.loc 1 114 9 view .LVU43
 172 000c 7047     		bx	lr
 173              	.LVL8:
 174              	.L10:
 110:Bsp/periph_serial.c **** 		return false;
 175              		.loc 1 110 10 view .LVU44
 176 000e 0020     		movs	r0, #0
ARM GAS  /var/folders/lx/hc4sn_b53233_zkc9xbbl97r0000gp/T//ccnvIE0z.s 			page 6


 177              	.LVL9:
 115:Bsp/periph_serial.c **** }
 178              		.loc 1 115 1 view .LVU45
 179 0010 7047     		bx	lr
 180              	.L12:
 181 0012 00BF     		.align	2
 182              	.L11:
 183 0014 00000000 		.word	.LANCHOR0
 184              		.cfi_endproc
 185              	.LFE126:
 187              		.section	.text.Serial_IRQ_RX_Init,"ax",%progbits
 188              		.align	1
 189              		.global	Serial_IRQ_RX_Init
 190              		.syntax unified
 191              		.thumb
 192              		.thumb_func
 193              		.fpu fpv4-sp-d16
 195              	Serial_IRQ_RX_Init:
 196              	.LVL10:
 197              	.LFB127:
 116:Bsp/periph_serial.c **** 
 117:Bsp/periph_serial.c **** void Serial_IRQ_RX_Init(Serial_List Serial, uint32_t bound, uint8_t PreemptionPriority, uint8_t Sub
 118:Bsp/periph_serial.c **** {
 198              		.loc 1 118 1 is_stmt 1 view -0
 199              		.cfi_startproc
 200              		@ args = 4, pretend = 0, frame = 16
 201              		@ frame_needed = 0, uses_anonymous_args = 0
 202              		.loc 1 118 1 is_stmt 0 view .LVU47
 203 0000 2DE9F041 		push	{r4, r5, r6, r7, r8, lr}
 204              	.LCFI0:
 205              		.cfi_def_cfa_offset 24
 206              		.cfi_offset 4, -24
 207              		.cfi_offset 5, -20
 208              		.cfi_offset 6, -16
 209              		.cfi_offset 7, -12
 210              		.cfi_offset 8, -8
 211              		.cfi_offset 14, -4
 212 0004 84B0     		sub	sp, sp, #16
 213              	.LCFI1:
 214              		.cfi_def_cfa_offset 40
 215 0006 0446     		mov	r4, r0
 216 0008 0F46     		mov	r7, r1
 217 000a 1546     		mov	r5, r2
 218 000c 1E46     		mov	r6, r3
 119:Bsp/periph_serial.c **** 	USART_InitTypeDef USART_InitStructure;
 219              		.loc 1 119 2 is_stmt 1 view .LVU48
 120:Bsp/periph_serial.c **** 	Serial_IO_Init[Serial]();
 220              		.loc 1 120 2 view .LVU49
 221              		.loc 1 120 16 is_stmt 0 view .LVU50
 222 000e 204B     		ldr	r3, .L15
 223              	.LVL11:
 224              		.loc 1 120 16 view .LVU51
 225 0010 53F82030 		ldr	r3, [r3, r0, lsl #2]
 226              		.loc 1 120 2 view .LVU52
 227 0014 9847     		blx	r3
 228              	.LVL12:
 121:Bsp/periph_serial.c **** 
ARM GAS  /var/folders/lx/hc4sn_b53233_zkc9xbbl97r0000gp/T//ccnvIE0z.s 			page 7


 122:Bsp/periph_serial.c **** 	RCC_APBPeriphClockCmd[Serial](RCC_APBPeriph_SerialCLK[Serial], ENABLE);
 229              		.loc 1 122 2 is_stmt 1 view .LVU53
 230              		.loc 1 122 23 is_stmt 0 view .LVU54
 231 0016 1F4B     		ldr	r3, .L15+4
 232 0018 53F82430 		ldr	r3, [r3, r4, lsl #2]
 233              		.loc 1 122 2 view .LVU55
 234 001c 0121     		movs	r1, #1
 235 001e 1E4A     		ldr	r2, .L15+8
 236 0020 52F82400 		ldr	r0, [r2, r4, lsl #2]
 237 0024 9847     		blx	r3
 238              	.LVL13:
 123:Bsp/periph_serial.c **** 
 124:Bsp/periph_serial.c **** 	Serial_Structure_Setting[type](&USART_InitStructure, bound);
 239              		.loc 1 124 2 is_stmt 1 view .LVU56
 240              		.loc 1 124 26 is_stmt 0 view .LVU57
 241 0026 9DF82820 		ldrb	r2, [sp, #40]	@ zero_extendqisi2
 242 002a 1C4B     		ldr	r3, .L15+12
 243 002c 53F82230 		ldr	r3, [r3, r2, lsl #2]
 244              		.loc 1 124 2 view .LVU58
 245 0030 3946     		mov	r1, r7
 246 0032 6846     		mov	r0, sp
 247 0034 9847     		blx	r3
 248              	.LVL14:
 125:Bsp/periph_serial.c **** 	USART_Init(Serial_Port[Serial], &USART_InitStructure);
 249              		.loc 1 125 2 is_stmt 1 view .LVU59
 250 0036 1A4F     		ldr	r7, .L15+16
 251              	.LVL15:
 252              		.loc 1 125 2 is_stmt 0 view .LVU60
 253 0038 6946     		mov	r1, sp
 254 003a 57F82400 		ldr	r0, [r7, r4, lsl #2]
 255 003e FFF7FEFF 		bl	USART_Init
 256              	.LVL16:
 126:Bsp/periph_serial.c **** 	USART_Cmd(Serial_Port[Serial], ENABLE);
 257              		.loc 1 126 2 is_stmt 1 view .LVU61
 258 0042 0121     		movs	r1, #1
 259 0044 57F82400 		ldr	r0, [r7, r4, lsl #2]
 260 0048 FFF7FEFF 		bl	USART_Cmd
 261              	.LVL17:
 127:Bsp/periph_serial.c **** 	USART_ITConfig(Serial_Port[Serial], USART_IT_RXNE, ENABLE);
 262              		.loc 1 127 2 view .LVU62
 263 004c 0122     		movs	r2, #1
 264 004e 40F22551 		movw	r1, #1317
 265 0052 57F82400 		ldr	r0, [r7, r4, lsl #2]
 266 0056 FFF7FEFF 		bl	USART_ITConfig
 267              	.LVL18:
 128:Bsp/periph_serial.c **** 
 129:Bsp/periph_serial.c **** 	memset(Serial_TX_Buff[Serial], NULL, SERIAL_MAX_RECLEN);
 268              		.loc 1 129 2 view .LVU63
 269              		.loc 1 129 23 is_stmt 0 view .LVU64
 270 005a 4FEA4428 		lsl	r8, r4, #9
 271              		.loc 1 129 2 view .LVU65
 272 005e 4FF40077 		mov	r7, #512
 273 0062 3A46     		mov	r2, r7
 274 0064 0021     		movs	r1, #0
 275 0066 0F48     		ldr	r0, .L15+20
 276 0068 00EB4420 		add	r0, r0, r4, lsl #9
 277 006c FFF7FEFF 		bl	memset
ARM GAS  /var/folders/lx/hc4sn_b53233_zkc9xbbl97r0000gp/T//ccnvIE0z.s 			page 8


 278              	.LVL19:
 130:Bsp/periph_serial.c **** 	memset(Serial_RX_Buff[Serial], NULL, SERIAL_MAX_RECLEN);
 279              		.loc 1 130 2 is_stmt 1 view .LVU66
 280 0070 3A46     		mov	r2, r7
 281 0072 0021     		movs	r1, #0
 282 0074 0C48     		ldr	r0, .L15+24
 283 0076 4044     		add	r0, r0, r8
 284 0078 FFF7FEFF 		bl	memset
 285              	.LVL20:
 131:Bsp/periph_serial.c **** 
 132:Bsp/periph_serial.c **** 	periph_nvic_Structure_Setting(Serial_RX_IRQ_Channel[Serial], PreemptionPriority, SubPriority, ENAB
 286              		.loc 1 132 2 view .LVU67
 287 007c 0123     		movs	r3, #1
 288 007e 3246     		mov	r2, r6
 289 0080 2946     		mov	r1, r5
 290 0082 0A48     		ldr	r0, .L15+28
 291 0084 005D     		ldrb	r0, [r0, r4]	@ zero_extendqisi2
 292 0086 FFF7FEFF 		bl	periph_nvic_Structure_Setting
 293              	.LVL21:
 133:Bsp/periph_serial.c **** }
 294              		.loc 1 133 1 is_stmt 0 view .LVU68
 295 008a 04B0     		add	sp, sp, #16
 296              	.LCFI2:
 297              		.cfi_def_cfa_offset 24
 298              		@ sp needed
 299 008c BDE8F081 		pop	{r4, r5, r6, r7, r8, pc}
 300              	.LVL22:
 301              	.L16:
 302              		.loc 1 133 1 view .LVU69
 303              		.align	2
 304              	.L15:
 305 0090 00000000 		.word	.LANCHOR1
 306 0094 00000000 		.word	.LANCHOR2
 307 0098 00000000 		.word	.LANCHOR3
 308 009c 00000000 		.word	.LANCHOR4
 309 00a0 00000000 		.word	.LANCHOR5
 310 00a4 00000000 		.word	.LANCHOR6
 311 00a8 00000000 		.word	.LANCHOR7
 312 00ac 00000000 		.word	.LANCHOR8
 313              		.cfi_endproc
 314              	.LFE127:
 316              		.section	.text.Serial_DMA_RX_Init,"ax",%progbits
 317              		.align	1
 318              		.global	Serial_DMA_RX_Init
 319              		.syntax unified
 320              		.thumb
 321              		.thumb_func
 322              		.fpu fpv4-sp-d16
 324              	Serial_DMA_RX_Init:
 325              	.LVL23:
 326              	.LFB128:
 134:Bsp/periph_serial.c **** 
 135:Bsp/periph_serial.c **** void Serial_DMA_RX_Init(Serial_List Serial, uint32_t bound, uint8_t PreemptionPriority, uint8_t Sub
 136:Bsp/periph_serial.c **** {
 327              		.loc 1 136 1 is_stmt 1 view -0
 328              		.cfi_startproc
 329              		@ args = 12, pretend = 0, frame = 80
ARM GAS  /var/folders/lx/hc4sn_b53233_zkc9xbbl97r0000gp/T//ccnvIE0z.s 			page 9


 330              		@ frame_needed = 0, uses_anonymous_args = 0
 331              		.loc 1 136 1 is_stmt 0 view .LVU71
 332 0000 F0B5     		push	{r4, r5, r6, r7, lr}
 333              	.LCFI3:
 334              		.cfi_def_cfa_offset 20
 335              		.cfi_offset 4, -20
 336              		.cfi_offset 5, -16
 337              		.cfi_offset 6, -12
 338              		.cfi_offset 7, -8
 339              		.cfi_offset 14, -4
 340 0002 97B0     		sub	sp, sp, #92
 341              	.LCFI4:
 342              		.cfi_def_cfa_offset 112
 343 0004 0446     		mov	r4, r0
 344 0006 0D46     		mov	r5, r1
 345 0008 1646     		mov	r6, r2
 346 000a 1F46     		mov	r7, r3
 137:Bsp/periph_serial.c **** 	USART_InitTypeDef USART_InitStructure;
 347              		.loc 1 137 2 is_stmt 1 view .LVU72
 138:Bsp/periph_serial.c **** 	DMA_InitTypeDef DMA_InitStructure;
 348              		.loc 1 138 2 view .LVU73
 139:Bsp/periph_serial.c **** 
 140:Bsp/periph_serial.c **** 	Serial_IO_Init[Serial]();
 349              		.loc 1 140 2 view .LVU74
 350              		.loc 1 140 16 is_stmt 0 view .LVU75
 351 000c 394B     		ldr	r3, .L19
 352              	.LVL24:
 353              		.loc 1 140 16 view .LVU76
 354 000e 53F82030 		ldr	r3, [r3, r0, lsl #2]
 355              		.loc 1 140 2 view .LVU77
 356 0012 9847     		blx	r3
 357              	.LVL25:
 141:Bsp/periph_serial.c **** 
 142:Bsp/periph_serial.c **** 	RCC_APBPeriphClockCmd[Serial](RCC_APBPeriph_SerialCLK[Serial], ENABLE);
 358              		.loc 1 142 2 is_stmt 1 view .LVU78
 359              		.loc 1 142 23 is_stmt 0 view .LVU79
 360 0014 384B     		ldr	r3, .L19+4
 361 0016 53F82430 		ldr	r3, [r3, r4, lsl #2]
 362              		.loc 1 142 2 view .LVU80
 363 001a 0121     		movs	r1, #1
 364 001c 374A     		ldr	r2, .L19+8
 365 001e 52F82400 		ldr	r0, [r2, r4, lsl #2]
 366 0022 9847     		blx	r3
 367              	.LVL26:
 143:Bsp/periph_serial.c **** 	Serial_Structure_Setting[type](&USART_InitStructure, bound);
 368              		.loc 1 143 2 is_stmt 1 view .LVU81
 369              		.loc 1 143 26 is_stmt 0 view .LVU82
 370 0024 9DF87820 		ldrb	r2, [sp, #120]	@ zero_extendqisi2
 371 0028 354B     		ldr	r3, .L19+12
 372 002a 53F82230 		ldr	r3, [r3, r2, lsl #2]
 373              		.loc 1 143 2 view .LVU83
 374 002e 2946     		mov	r1, r5
 375 0030 12A8     		add	r0, sp, #72
 376 0032 9847     		blx	r3
 377              	.LVL27:
 144:Bsp/periph_serial.c **** 	USART_Init(Serial_Port[Serial], &USART_InitStructure);
 378              		.loc 1 144 2 is_stmt 1 view .LVU84
ARM GAS  /var/folders/lx/hc4sn_b53233_zkc9xbbl97r0000gp/T//ccnvIE0z.s 			page 10


 379 0034 334D     		ldr	r5, .L19+16
 380              	.LVL28:
 381              		.loc 1 144 2 is_stmt 0 view .LVU85
 382 0036 12A9     		add	r1, sp, #72
 383 0038 55F82400 		ldr	r0, [r5, r4, lsl #2]
 384 003c FFF7FEFF 		bl	USART_Init
 385              	.LVL29:
 145:Bsp/periph_serial.c **** 
 146:Bsp/periph_serial.c **** 	USART_ITConfig(Serial_Port[Serial], USART_IT_RXNE, DISABLE);
 386              		.loc 1 146 2 is_stmt 1 view .LVU86
 387 0040 0022     		movs	r2, #0
 388 0042 40F22551 		movw	r1, #1317
 389 0046 55F82400 		ldr	r0, [r5, r4, lsl #2]
 390 004a FFF7FEFF 		bl	USART_ITConfig
 391              	.LVL30:
 147:Bsp/periph_serial.c **** 	USART_ITConfig(Serial_Port[Serial], USART_IT_TC, DISABLE);
 392              		.loc 1 147 2 view .LVU87
 393 004e 0022     		movs	r2, #0
 394 0050 40F22661 		movw	r1, #1574
 395 0054 55F82400 		ldr	r0, [r5, r4, lsl #2]
 396 0058 FFF7FEFF 		bl	USART_ITConfig
 397              	.LVL31:
 148:Bsp/periph_serial.c **** 	USART_ITConfig(Serial_Port[Serial], USART_IT_TXE, DISABLE);
 398              		.loc 1 148 2 view .LVU88
 399 005c 0022     		movs	r2, #0
 400 005e 40F22771 		movw	r1, #1831
 401 0062 55F82400 		ldr	r0, [r5, r4, lsl #2]
 402 0066 FFF7FEFF 		bl	USART_ITConfig
 403              	.LVL32:
 149:Bsp/periph_serial.c **** 	USART_ITConfig(Serial_Port[Serial], USART_IT_IDLE, ENABLE);
 404              		.loc 1 149 2 view .LVU89
 405 006a 0122     		movs	r2, #1
 406 006c 40F22441 		movw	r1, #1060
 407 0070 55F82400 		ldr	r0, [r5, r4, lsl #2]
 408 0074 FFF7FEFF 		bl	USART_ITConfig
 409              	.LVL33:
 150:Bsp/periph_serial.c **** 
 151:Bsp/periph_serial.c **** 	USART_DMACmd(Serial_Port[Serial], USART_DMAReq_Rx, ENABLE);
 410              		.loc 1 151 2 view .LVU90
 411 0078 0122     		movs	r2, #1
 412 007a 4021     		movs	r1, #64
 413 007c 55F82400 		ldr	r0, [r5, r4, lsl #2]
 414 0080 FFF7FEFF 		bl	USART_DMACmd
 415              	.LVL34:
 152:Bsp/periph_serial.c **** 	periph_DMA_Serial(&DMA_InitStructure, Serial_DMA_RX_Channel[Serial], (uint32_t)&Serial_Port[Serial
 416              		.loc 1 152 2 view .LVU91
 417              		.loc 1 152 93 is_stmt 0 view .LVU92
 418 0084 55F82420 		ldr	r2, [r5, r4, lsl #2]
 419              		.loc 1 152 2 view .LVU93
 420 0088 0223     		movs	r3, #2
 421 008a 0193     		str	r3, [sp, #4]
 422 008c BDF87430 		ldrh	r3, [sp, #116]
 423 0090 0093     		str	r3, [sp]
 424 0092 1C9B     		ldr	r3, [sp, #112]
 425 0094 0432     		adds	r2, r2, #4
 426 0096 1C49     		ldr	r1, .L19+20
 427 0098 51F82410 		ldr	r1, [r1, r4, lsl #2]
ARM GAS  /var/folders/lx/hc4sn_b53233_zkc9xbbl97r0000gp/T//ccnvIE0z.s 			page 11


 428 009c 03A8     		add	r0, sp, #12
 429 009e FFF7FEFF 		bl	periph_DMA_Serial
 430              	.LVL35:
 153:Bsp/periph_serial.c **** 	periph_DMA_WithoutIRQ_Init(Serial_DMA_CLK[Serial], Serial_DMA_RX_Stream[Serial], &DMA_InitStructur
 431              		.loc 1 153 2 is_stmt 1 view .LVU94
 432 00a2 0123     		movs	r3, #1
 433 00a4 03AA     		add	r2, sp, #12
 434 00a6 1949     		ldr	r1, .L19+24
 435 00a8 51F82410 		ldr	r1, [r1, r4, lsl #2]
 436 00ac 1848     		ldr	r0, .L19+28
 437 00ae 50F82400 		ldr	r0, [r0, r4, lsl #2]
 438 00b2 FFF7FEFF 		bl	periph_DMA_WithoutIRQ_Init
 439              	.LVL36:
 154:Bsp/periph_serial.c **** 
 155:Bsp/periph_serial.c **** 	periph_nvic_Structure_Setting(Serial_RX_IRQ_Channel[Serial], PreemptionPriority, SubPriority, ENAB
 440              		.loc 1 155 2 view .LVU95
 441 00b6 0123     		movs	r3, #1
 442 00b8 3A46     		mov	r2, r7
 443 00ba 3146     		mov	r1, r6
 444 00bc 1548     		ldr	r0, .L19+32
 445 00be 005D     		ldrb	r0, [r0, r4]	@ zero_extendqisi2
 446 00c0 FFF7FEFF 		bl	periph_nvic_Structure_Setting
 447              	.LVL37:
 156:Bsp/periph_serial.c **** 
 157:Bsp/periph_serial.c **** 	memset(Serial_TX_Buff[Serial], NULL, SERIAL_MAX_RECLEN);
 448              		.loc 1 157 2 view .LVU96
 449              		.loc 1 157 23 is_stmt 0 view .LVU97
 450 00c4 6702     		lsls	r7, r4, #9
 451              		.loc 1 157 2 view .LVU98
 452 00c6 4FF40076 		mov	r6, #512
 453 00ca 3246     		mov	r2, r6
 454 00cc 0021     		movs	r1, #0
 455 00ce 1248     		ldr	r0, .L19+36
 456 00d0 00EB4420 		add	r0, r0, r4, lsl #9
 457 00d4 FFF7FEFF 		bl	memset
 458              	.LVL38:
 158:Bsp/periph_serial.c **** 	memset(Serial_RX_Buff[Serial], NULL, SERIAL_MAX_RECLEN);
 459              		.loc 1 158 2 is_stmt 1 view .LVU99
 460 00d8 3246     		mov	r2, r6
 461 00da 0021     		movs	r1, #0
 462 00dc 0F48     		ldr	r0, .L19+40
 463 00de 3844     		add	r0, r0, r7
 464 00e0 FFF7FEFF 		bl	memset
 465              	.LVL39:
 159:Bsp/periph_serial.c **** 
 160:Bsp/periph_serial.c **** 	USART_Cmd(Serial_Port[Serial], ENABLE);
 466              		.loc 1 160 2 view .LVU100
 467 00e4 0121     		movs	r1, #1
 468 00e6 55F82400 		ldr	r0, [r5, r4, lsl #2]
 469 00ea FFF7FEFF 		bl	USART_Cmd
 470              	.LVL40:
 161:Bsp/periph_serial.c **** }
 471              		.loc 1 161 1 is_stmt 0 view .LVU101
 472 00ee 17B0     		add	sp, sp, #92
 473              	.LCFI5:
 474              		.cfi_def_cfa_offset 20
 475              		@ sp needed
ARM GAS  /var/folders/lx/hc4sn_b53233_zkc9xbbl97r0000gp/T//ccnvIE0z.s 			page 12


 476 00f0 F0BD     		pop	{r4, r5, r6, r7, pc}
 477              	.LVL41:
 478              	.L20:
 479              		.loc 1 161 1 view .LVU102
 480 00f2 00BF     		.align	2
 481              	.L19:
 482 00f4 00000000 		.word	.LANCHOR1
 483 00f8 00000000 		.word	.LANCHOR2
 484 00fc 00000000 		.word	.LANCHOR3
 485 0100 00000000 		.word	.LANCHOR4
 486 0104 00000000 		.word	.LANCHOR5
 487 0108 00000000 		.word	.LANCHOR9
 488 010c 00000000 		.word	.LANCHOR10
 489 0110 00000000 		.word	.LANCHOR11
 490 0114 00000000 		.word	.LANCHOR8
 491 0118 00000000 		.word	.LANCHOR6
 492 011c 00000000 		.word	.LANCHOR7
 493              		.cfi_endproc
 494              	.LFE128:
 496              		.section	.text.Serial_DMA_TX_Init,"ax",%progbits
 497              		.align	1
 498              		.global	Serial_DMA_TX_Init
 499              		.syntax unified
 500              		.thumb
 501              		.thumb_func
 502              		.fpu fpv4-sp-d16
 504              	Serial_DMA_TX_Init:
 505              	.LVL42:
 506              	.LFB129:
 162:Bsp/periph_serial.c **** 
 163:Bsp/periph_serial.c **** void Serial_DMA_TX_Init(Serial_List Serial, uint32_t bound, uint8_t PreemptionPriority, uint8_t Sub
 164:Bsp/periph_serial.c **** {
 507              		.loc 1 164 1 is_stmt 1 view -0
 508              		.cfi_startproc
 509              		@ args = 12, pretend = 0, frame = 80
 510              		@ frame_needed = 0, uses_anonymous_args = 0
 511              		.loc 1 164 1 is_stmt 0 view .LVU104
 512 0000 2DE9F043 		push	{r4, r5, r6, r7, r8, r9, lr}
 513              	.LCFI6:
 514              		.cfi_def_cfa_offset 28
 515              		.cfi_offset 4, -28
 516              		.cfi_offset 5, -24
 517              		.cfi_offset 6, -20
 518              		.cfi_offset 7, -16
 519              		.cfi_offset 8, -12
 520              		.cfi_offset 9, -8
 521              		.cfi_offset 14, -4
 522 0004 97B0     		sub	sp, sp, #92
 523              	.LCFI7:
 524              		.cfi_def_cfa_offset 120
 525 0006 0446     		mov	r4, r0
 526 0008 0E46     		mov	r6, r1
 527 000a 9146     		mov	r9, r2
 528 000c 1D46     		mov	r5, r3
 165:Bsp/periph_serial.c **** 	USART_InitTypeDef USART_InitStructure;
 529              		.loc 1 165 2 is_stmt 1 view .LVU105
 166:Bsp/periph_serial.c **** 	DMA_InitTypeDef DMA_TX_InitStructure;
ARM GAS  /var/folders/lx/hc4sn_b53233_zkc9xbbl97r0000gp/T//ccnvIE0z.s 			page 13


 530              		.loc 1 166 2 view .LVU106
 167:Bsp/periph_serial.c **** 
 168:Bsp/periph_serial.c **** 	Serial_IO_Init[Serial]();
 531              		.loc 1 168 2 view .LVU107
 532              		.loc 1 168 16 is_stmt 0 view .LVU108
 533 000e 2F4B     		ldr	r3, .L23
 534              	.LVL43:
 535              		.loc 1 168 16 view .LVU109
 536 0010 53F82030 		ldr	r3, [r3, r0, lsl #2]
 537              		.loc 1 168 2 view .LVU110
 538 0014 9847     		blx	r3
 539              	.LVL44:
 169:Bsp/periph_serial.c **** 
 170:Bsp/periph_serial.c **** 	RCC_APBPeriphClockCmd[Serial](RCC_APBPeriph_SerialCLK[Serial], ENABLE);
 540              		.loc 1 170 2 is_stmt 1 view .LVU111
 541              		.loc 1 170 23 is_stmt 0 view .LVU112
 542 0016 2E4B     		ldr	r3, .L23+4
 543 0018 53F82430 		ldr	r3, [r3, r4, lsl #2]
 544              		.loc 1 170 2 view .LVU113
 545 001c 0121     		movs	r1, #1
 546 001e 2D4A     		ldr	r2, .L23+8
 547 0020 52F82400 		ldr	r0, [r2, r4, lsl #2]
 548 0024 9847     		blx	r3
 549              	.LVL45:
 171:Bsp/periph_serial.c **** 	Serial_Structure_Setting[type](&USART_InitStructure, bound);
 550              		.loc 1 171 2 is_stmt 1 view .LVU114
 551              		.loc 1 171 26 is_stmt 0 view .LVU115
 552 0026 9DF88020 		ldrb	r2, [sp, #128]	@ zero_extendqisi2
 553 002a 2B4B     		ldr	r3, .L23+12
 554 002c 53F82230 		ldr	r3, [r3, r2, lsl #2]
 555              		.loc 1 171 2 view .LVU116
 556 0030 3146     		mov	r1, r6
 557 0032 12A8     		add	r0, sp, #72
 558 0034 9847     		blx	r3
 559              	.LVL46:
 172:Bsp/periph_serial.c **** 	USART_Init(Serial_Port[Serial], &USART_InitStructure);
 560              		.loc 1 172 2 is_stmt 1 view .LVU117
 561 0036 294E     		ldr	r6, .L23+16
 562              	.LVL47:
 563              		.loc 1 172 2 is_stmt 0 view .LVU118
 564 0038 12A9     		add	r1, sp, #72
 565 003a 56F82400 		ldr	r0, [r6, r4, lsl #2]
 566 003e FFF7FEFF 		bl	USART_Init
 567              	.LVL48:
 173:Bsp/periph_serial.c **** 
 174:Bsp/periph_serial.c **** 	USART_DMACmd(Serial_Port[Serial], USART_DMAReq_Tx, ENABLE);
 568              		.loc 1 174 2 is_stmt 1 view .LVU119
 569 0042 0122     		movs	r2, #1
 570 0044 8021     		movs	r1, #128
 571 0046 56F82400 		ldr	r0, [r6, r4, lsl #2]
 572 004a FFF7FEFF 		bl	USART_DMACmd
 573              	.LVL49:
 175:Bsp/periph_serial.c **** 
 176:Bsp/periph_serial.c **** 	periph_DMA_Serial(&DMA_TX_InitStructure, Serial_DMA_TX_Channel[Serial], (uint32_t)&Serial_Port[Ser
 574              		.loc 1 176 2 view .LVU120
 575              		.loc 1 176 96 is_stmt 0 view .LVU121
 576 004e 56F82420 		ldr	r2, [r6, r4, lsl #2]
ARM GAS  /var/folders/lx/hc4sn_b53233_zkc9xbbl97r0000gp/T//ccnvIE0z.s 			page 14


 577              		.loc 1 176 2 view .LVU122
 578 0052 0127     		movs	r7, #1
 579 0054 0197     		str	r7, [sp, #4]
 580 0056 BDF87C30 		ldrh	r3, [sp, #124]
 581 005a 0093     		str	r3, [sp]
 582 005c 1E9B     		ldr	r3, [sp, #120]
 583 005e 0432     		adds	r2, r2, #4
 584 0060 1F49     		ldr	r1, .L23+20
 585 0062 51F82410 		ldr	r1, [r1, r4, lsl #2]
 586 0066 03A8     		add	r0, sp, #12
 587 0068 FFF7FEFF 		bl	periph_DMA_Serial
 588              	.LVL50:
 177:Bsp/periph_serial.c **** 	periph_DMA_WithIRQ_Init(Serial_DMA_CLK[Serial], Serial_DMA_TX_Stream[Serial], &DMA_TX_InitStructur
 589              		.loc 1 177 2 is_stmt 1 view .LVU123
 590 006c 4FF00008 		mov	r8, #0
 591 0070 CDF80080 		str	r8, [sp]
 592 0074 1023     		movs	r3, #16
 593 0076 03AA     		add	r2, sp, #12
 594 0078 1A49     		ldr	r1, .L23+24
 595 007a 51F82410 		ldr	r1, [r1, r4, lsl #2]
 596 007e 1A48     		ldr	r0, .L23+28
 597 0080 50F82400 		ldr	r0, [r0, r4, lsl #2]
 598 0084 FFF7FEFF 		bl	periph_DMA_WithIRQ_Init
 599              	.LVL51:
 178:Bsp/periph_serial.c **** 	periph_nvic_Structure_Setting(Serial_DMA_TX_IRQ_Channel[Serial], PreemptionPriority, SubPriority +
 600              		.loc 1 178 2 view .LVU124
 601 0088 3D44     		add	r5, r5, r7
 602 008a 3B46     		mov	r3, r7
 603 008c EAB2     		uxtb	r2, r5
 604 008e 4946     		mov	r1, r9
 605 0090 1648     		ldr	r0, .L23+32
 606 0092 005D     		ldrb	r0, [r0, r4]	@ zero_extendqisi2
 607 0094 FFF7FEFF 		bl	periph_nvic_Structure_Setting
 608              	.LVL52:
 179:Bsp/periph_serial.c **** 
 180:Bsp/periph_serial.c **** 	memset(Serial_TX_Buff[Serial], NULL, SERIAL_MAX_RECLEN);
 609              		.loc 1 180 2 view .LVU125
 610              		.loc 1 180 23 is_stmt 0 view .LVU126
 611 0098 4FEA4429 		lsl	r9, r4, #9
 612              		.loc 1 180 2 view .LVU127
 613 009c 4FF40075 		mov	r5, #512
 614 00a0 2A46     		mov	r2, r5
 615 00a2 4146     		mov	r1, r8
 616 00a4 1248     		ldr	r0, .L23+36
 617 00a6 00EB4420 		add	r0, r0, r4, lsl #9
 618 00aa FFF7FEFF 		bl	memset
 619              	.LVL53:
 181:Bsp/periph_serial.c **** 	memset(Serial_RX_Buff[Serial], NULL, SERIAL_MAX_RECLEN);
 620              		.loc 1 181 2 is_stmt 1 view .LVU128
 621 00ae 2A46     		mov	r2, r5
 622 00b0 4146     		mov	r1, r8
 623 00b2 1048     		ldr	r0, .L23+40
 624 00b4 4844     		add	r0, r0, r9
 625 00b6 FFF7FEFF 		bl	memset
 626              	.LVL54:
 182:Bsp/periph_serial.c **** 
 183:Bsp/periph_serial.c **** 	USART_Cmd(Serial_Port[Serial], ENABLE);
ARM GAS  /var/folders/lx/hc4sn_b53233_zkc9xbbl97r0000gp/T//ccnvIE0z.s 			page 15


 627              		.loc 1 183 2 view .LVU129
 628 00ba 3946     		mov	r1, r7
 629 00bc 56F82400 		ldr	r0, [r6, r4, lsl #2]
 630 00c0 FFF7FEFF 		bl	USART_Cmd
 631              	.LVL55:
 184:Bsp/periph_serial.c **** }
 632              		.loc 1 184 1 is_stmt 0 view .LVU130
 633 00c4 17B0     		add	sp, sp, #92
 634              	.LCFI8:
 635              		.cfi_def_cfa_offset 28
 636              		@ sp needed
 637 00c6 BDE8F083 		pop	{r4, r5, r6, r7, r8, r9, pc}
 638              	.LVL56:
 639              	.L24:
 640              		.loc 1 184 1 view .LVU131
 641 00ca 00BF     		.align	2
 642              	.L23:
 643 00cc 00000000 		.word	.LANCHOR1
 644 00d0 00000000 		.word	.LANCHOR2
 645 00d4 00000000 		.word	.LANCHOR3
 646 00d8 00000000 		.word	.LANCHOR4
 647 00dc 00000000 		.word	.LANCHOR5
 648 00e0 00000000 		.word	.LANCHOR12
 649 00e4 00000000 		.word	.LANCHOR13
 650 00e8 00000000 		.word	.LANCHOR11
 651 00ec 00000000 		.word	.LANCHOR14
 652 00f0 00000000 		.word	.LANCHOR6
 653 00f4 00000000 		.word	.LANCHOR7
 654              		.cfi_endproc
 655              	.LFE129:
 657              		.section	.text.Serial_Deinit,"ax",%progbits
 658              		.align	1
 659              		.global	Serial_Deinit
 660              		.syntax unified
 661              		.thumb
 662              		.thumb_func
 663              		.fpu fpv4-sp-d16
 665              	Serial_Deinit:
 666              	.LVL57:
 667              	.LFB130:
 185:Bsp/periph_serial.c **** 
 186:Bsp/periph_serial.c **** bool Serial_Deinit(Serial_List Serial)
 187:Bsp/periph_serial.c **** {
 668              		.loc 1 187 1 is_stmt 1 view -0
 669              		.cfi_startproc
 670              		@ args = 0, pretend = 0, frame = 0
 671              		@ frame_needed = 0, uses_anonymous_args = 0
 188:Bsp/periph_serial.c **** 	if (Serial >= Serial_Port_Sum)
 672              		.loc 1 188 2 view .LVU133
 673              		.loc 1 188 5 is_stmt 0 view .LVU134
 674 0000 0328     		cmp	r0, #3
 675 0002 01D9     		bls	.L32
 189:Bsp/periph_serial.c **** 		return false;
 676              		.loc 1 189 10 view .LVU135
 677 0004 0020     		movs	r0, #0
 678              	.LVL58:
 190:Bsp/periph_serial.c **** 
ARM GAS  /var/folders/lx/hc4sn_b53233_zkc9xbbl97r0000gp/T//ccnvIE0z.s 			page 16


 191:Bsp/periph_serial.c **** 	IRQ_Callback[Serial] = NULL;
 192:Bsp/periph_serial.c **** 
 193:Bsp/periph_serial.c **** 	USART_DeInit(Serial_Port[Serial]);
 194:Bsp/periph_serial.c **** 
 195:Bsp/periph_serial.c **** 	USART_ITConfig(Serial_Port[Serial], USART_IT_RXNE, DISABLE);
 196:Bsp/periph_serial.c **** 	USART_ITConfig(Serial_Port[Serial], USART_IT_TC, DISABLE);
 197:Bsp/periph_serial.c **** 	USART_ITConfig(Serial_Port[Serial], USART_IT_TXE, DISABLE);
 198:Bsp/periph_serial.c **** 	USART_ITConfig(Serial_Port[Serial], USART_IT_IDLE, DISABLE);
 199:Bsp/periph_serial.c **** 
 200:Bsp/periph_serial.c **** 	USART_Cmd(Serial_Port[Serial], DISABLE);
 201:Bsp/periph_serial.c **** 
 202:Bsp/periph_serial.c **** 	return true;
 203:Bsp/periph_serial.c **** }
 679              		.loc 1 203 1 view .LVU136
 680 0006 7047     		bx	lr
 681              	.LVL59:
 682              	.L32:
 187:Bsp/periph_serial.c **** 	if (Serial >= Serial_Port_Sum)
 683              		.loc 1 187 1 view .LVU137
 684 0008 70B5     		push	{r4, r5, r6, lr}
 685              	.LCFI9:
 686              		.cfi_def_cfa_offset 16
 687              		.cfi_offset 4, -16
 688              		.cfi_offset 5, -12
 689              		.cfi_offset 6, -8
 690              		.cfi_offset 14, -4
 691 000a 0446     		mov	r4, r0
 191:Bsp/periph_serial.c **** 
 692              		.loc 1 191 2 is_stmt 1 view .LVU138
 191:Bsp/periph_serial.c **** 
 693              		.loc 1 191 23 is_stmt 0 view .LVU139
 694 000c 0026     		movs	r6, #0
 695 000e 154B     		ldr	r3, .L33
 696 0010 43F82060 		str	r6, [r3, r0, lsl #2]
 193:Bsp/periph_serial.c **** 
 697              		.loc 1 193 2 is_stmt 1 view .LVU140
 698 0014 144D     		ldr	r5, .L33+4
 699 0016 55F82000 		ldr	r0, [r5, r0, lsl #2]
 700              	.LVL60:
 193:Bsp/periph_serial.c **** 
 701              		.loc 1 193 2 is_stmt 0 view .LVU141
 702 001a FFF7FEFF 		bl	USART_DeInit
 703              	.LVL61:
 195:Bsp/periph_serial.c **** 	USART_ITConfig(Serial_Port[Serial], USART_IT_TC, DISABLE);
 704              		.loc 1 195 2 is_stmt 1 view .LVU142
 705 001e 3246     		mov	r2, r6
 706 0020 40F22551 		movw	r1, #1317
 707 0024 55F82400 		ldr	r0, [r5, r4, lsl #2]
 708 0028 FFF7FEFF 		bl	USART_ITConfig
 709              	.LVL62:
 196:Bsp/periph_serial.c **** 	USART_ITConfig(Serial_Port[Serial], USART_IT_TXE, DISABLE);
 710              		.loc 1 196 2 view .LVU143
 711 002c 3246     		mov	r2, r6
 712 002e 40F22661 		movw	r1, #1574
 713 0032 55F82400 		ldr	r0, [r5, r4, lsl #2]
 714 0036 FFF7FEFF 		bl	USART_ITConfig
 715              	.LVL63:
ARM GAS  /var/folders/lx/hc4sn_b53233_zkc9xbbl97r0000gp/T//ccnvIE0z.s 			page 17


 197:Bsp/periph_serial.c **** 	USART_ITConfig(Serial_Port[Serial], USART_IT_IDLE, DISABLE);
 716              		.loc 1 197 2 view .LVU144
 717 003a 3246     		mov	r2, r6
 718 003c 40F22771 		movw	r1, #1831
 719 0040 55F82400 		ldr	r0, [r5, r4, lsl #2]
 720 0044 FFF7FEFF 		bl	USART_ITConfig
 721              	.LVL64:
 198:Bsp/periph_serial.c **** 
 722              		.loc 1 198 2 view .LVU145
 723 0048 3246     		mov	r2, r6
 724 004a 40F22441 		movw	r1, #1060
 725 004e 55F82400 		ldr	r0, [r5, r4, lsl #2]
 726 0052 FFF7FEFF 		bl	USART_ITConfig
 727              	.LVL65:
 200:Bsp/periph_serial.c **** 
 728              		.loc 1 200 2 view .LVU146
 729 0056 3146     		mov	r1, r6
 730 0058 55F82400 		ldr	r0, [r5, r4, lsl #2]
 731 005c FFF7FEFF 		bl	USART_Cmd
 732              	.LVL66:
 202:Bsp/periph_serial.c **** }
 733              		.loc 1 202 2 view .LVU147
 202:Bsp/periph_serial.c **** }
 734              		.loc 1 202 9 is_stmt 0 view .LVU148
 735 0060 0120     		movs	r0, #1
 736              		.loc 1 203 1 view .LVU149
 737 0062 70BD     		pop	{r4, r5, r6, pc}
 738              	.L34:
 739              		.align	2
 740              	.L33:
 741 0064 00000000 		.word	.LANCHOR0
 742 0068 00000000 		.word	.LANCHOR5
 743              		.cfi_endproc
 744              	.LFE130:
 746              		.section	.text.Serial_DMA_RXTX_Init,"ax",%progbits
 747              		.align	1
 748              		.global	Serial_DMA_RXTX_Init
 749              		.syntax unified
 750              		.thumb
 751              		.thumb_func
 752              		.fpu fpv4-sp-d16
 754              	Serial_DMA_RXTX_Init:
 755              	.LVL67:
 756              	.LFB131:
 204:Bsp/periph_serial.c **** 
 205:Bsp/periph_serial.c **** void Serial_DMA_RXTX_Init(Serial_List Serial, uint32_t bound, uint8_t PreemptionPriority, uint8_t S
 206:Bsp/periph_serial.c **** {
 757              		.loc 1 206 1 is_stmt 1 view -0
 758              		.cfi_startproc
 759              		@ args = 16, pretend = 0, frame = 136
 760              		@ frame_needed = 0, uses_anonymous_args = 0
 761              		.loc 1 206 1 is_stmt 0 view .LVU151
 762 0000 2DE9F043 		push	{r4, r5, r6, r7, r8, r9, lr}
 763              	.LCFI10:
 764              		.cfi_def_cfa_offset 28
 765              		.cfi_offset 4, -28
 766              		.cfi_offset 5, -24
ARM GAS  /var/folders/lx/hc4sn_b53233_zkc9xbbl97r0000gp/T//ccnvIE0z.s 			page 18


 767              		.cfi_offset 6, -20
 768              		.cfi_offset 7, -16
 769              		.cfi_offset 8, -12
 770              		.cfi_offset 9, -8
 771              		.cfi_offset 14, -4
 772 0004 A5B0     		sub	sp, sp, #148
 773              	.LCFI11:
 774              		.cfi_def_cfa_offset 176
 775 0006 0446     		mov	r4, r0
 776 0008 0D46     		mov	r5, r1
 777 000a 1646     		mov	r6, r2
 778 000c 1F46     		mov	r7, r3
 779 000e BDF8B890 		ldrh	r9, [sp, #184]
 207:Bsp/periph_serial.c **** 	USART_InitTypeDef USART_InitStructure;
 780              		.loc 1 207 2 is_stmt 1 view .LVU152
 208:Bsp/periph_serial.c **** 	DMA_InitTypeDef DMA_RX_InitStructure;
 781              		.loc 1 208 2 view .LVU153
 209:Bsp/periph_serial.c **** 	DMA_InitTypeDef DMA_TX_InitStructure;
 782              		.loc 1 209 2 view .LVU154
 210:Bsp/periph_serial.c **** 
 211:Bsp/periph_serial.c **** 	Serial_IO_Init[Serial]();
 783              		.loc 1 211 2 view .LVU155
 784              		.loc 1 211 16 is_stmt 0 view .LVU156
 785 0012 484B     		ldr	r3, .L37
 786              	.LVL68:
 787              		.loc 1 211 16 view .LVU157
 788 0014 53F82030 		ldr	r3, [r3, r0, lsl #2]
 789              		.loc 1 211 2 view .LVU158
 790 0018 9847     		blx	r3
 791              	.LVL69:
 212:Bsp/periph_serial.c **** 
 213:Bsp/periph_serial.c **** 	RCC_APBPeriphClockCmd[Serial](RCC_APBPeriph_SerialCLK[Serial], ENABLE);
 792              		.loc 1 213 2 is_stmt 1 view .LVU159
 793              		.loc 1 213 23 is_stmt 0 view .LVU160
 794 001a 474B     		ldr	r3, .L37+4
 795 001c 53F82430 		ldr	r3, [r3, r4, lsl #2]
 796              		.loc 1 213 2 view .LVU161
 797 0020 0121     		movs	r1, #1
 798 0022 464A     		ldr	r2, .L37+8
 799 0024 52F82400 		ldr	r0, [r2, r4, lsl #2]
 800 0028 9847     		blx	r3
 801              	.LVL70:
 214:Bsp/periph_serial.c **** 	Serial_Structure_Setting[type](&USART_InitStructure, bound);
 802              		.loc 1 214 2 is_stmt 1 view .LVU162
 803              		.loc 1 214 26 is_stmt 0 view .LVU163
 804 002a 9DF8BC20 		ldrb	r2, [sp, #188]	@ zero_extendqisi2
 805 002e 444B     		ldr	r3, .L37+12
 806 0030 53F82230 		ldr	r3, [r3, r2, lsl #2]
 807              		.loc 1 214 2 view .LVU164
 808 0034 2946     		mov	r1, r5
 809 0036 20A8     		add	r0, sp, #128
 810 0038 9847     		blx	r3
 811              	.LVL71:
 215:Bsp/periph_serial.c **** 	USART_Init(Serial_Port[Serial], &USART_InitStructure);
 812              		.loc 1 215 2 is_stmt 1 view .LVU165
 813 003a 424D     		ldr	r5, .L37+16
 814              	.LVL72:
ARM GAS  /var/folders/lx/hc4sn_b53233_zkc9xbbl97r0000gp/T//ccnvIE0z.s 			page 19


 815              		.loc 1 215 2 is_stmt 0 view .LVU166
 816 003c 20A9     		add	r1, sp, #128
 817 003e 55F82400 		ldr	r0, [r5, r4, lsl #2]
 818 0042 FFF7FEFF 		bl	USART_Init
 819              	.LVL73:
 216:Bsp/periph_serial.c **** 
 217:Bsp/periph_serial.c **** 	USART_ITConfig(Serial_Port[Serial], USART_IT_RXNE, DISABLE);
 820              		.loc 1 217 2 is_stmt 1 view .LVU167
 821 0046 0022     		movs	r2, #0
 822 0048 40F22551 		movw	r1, #1317
 823 004c 55F82400 		ldr	r0, [r5, r4, lsl #2]
 824 0050 FFF7FEFF 		bl	USART_ITConfig
 825              	.LVL74:
 218:Bsp/periph_serial.c **** 	USART_ITConfig(Serial_Port[Serial], USART_IT_TC, DISABLE);
 826              		.loc 1 218 2 view .LVU168
 827 0054 0022     		movs	r2, #0
 828 0056 40F22661 		movw	r1, #1574
 829 005a 55F82400 		ldr	r0, [r5, r4, lsl #2]
 830 005e FFF7FEFF 		bl	USART_ITConfig
 831              	.LVL75:
 219:Bsp/periph_serial.c **** 	USART_ITConfig(Serial_Port[Serial], USART_IT_TXE, DISABLE);
 832              		.loc 1 219 2 view .LVU169
 833 0062 0022     		movs	r2, #0
 834 0064 40F22771 		movw	r1, #1831
 835 0068 55F82400 		ldr	r0, [r5, r4, lsl #2]
 836 006c FFF7FEFF 		bl	USART_ITConfig
 837              	.LVL76:
 220:Bsp/periph_serial.c **** 	USART_ITConfig(Serial_Port[Serial], USART_IT_IDLE, ENABLE);
 838              		.loc 1 220 2 view .LVU170
 839 0070 0122     		movs	r2, #1
 840 0072 40F22441 		movw	r1, #1060
 841 0076 55F82400 		ldr	r0, [r5, r4, lsl #2]
 842 007a FFF7FEFF 		bl	USART_ITConfig
 843              	.LVL77:
 221:Bsp/periph_serial.c **** 
 222:Bsp/periph_serial.c **** 	//Rx DMA Setting
 223:Bsp/periph_serial.c **** 	periph_DMA_Serial(&DMA_RX_InitStructure, Serial_DMA_RX_Channel[Serial], (uint32_t)&Serial_Port[Ser
 844              		.loc 1 223 2 view .LVU171
 845              		.loc 1 223 96 is_stmt 0 view .LVU172
 846 007e 55F82420 		ldr	r2, [r5, r4, lsl #2]
 847              		.loc 1 223 2 view .LVU173
 848 0082 0223     		movs	r3, #2
 849 0084 0193     		str	r3, [sp, #4]
 850 0086 CDF80090 		str	r9, [sp]
 851 008a 2C9B     		ldr	r3, [sp, #176]
 852 008c 0432     		adds	r2, r2, #4
 853 008e 2E49     		ldr	r1, .L37+20
 854 0090 51F82410 		ldr	r1, [r1, r4, lsl #2]
 855 0094 11A8     		add	r0, sp, #68
 856 0096 FFF7FEFF 		bl	periph_DMA_Serial
 857              	.LVL78:
 224:Bsp/periph_serial.c **** 	periph_DMA_WithoutIRQ_Init(Serial_DMA_CLK[Serial], Serial_DMA_RX_Stream[Serial], &DMA_RX_InitStruc
 858              		.loc 1 224 2 is_stmt 1 view .LVU174
 859 009a 2C4B     		ldr	r3, .L37+24
 860 009c 53F82480 		ldr	r8, [r3, r4, lsl #2]
 861 00a0 0123     		movs	r3, #1
 862 00a2 11AA     		add	r2, sp, #68
ARM GAS  /var/folders/lx/hc4sn_b53233_zkc9xbbl97r0000gp/T//ccnvIE0z.s 			page 20


 863 00a4 2A49     		ldr	r1, .L37+28
 864 00a6 51F82410 		ldr	r1, [r1, r4, lsl #2]
 865 00aa 4046     		mov	r0, r8
 866 00ac FFF7FEFF 		bl	periph_DMA_WithoutIRQ_Init
 867              	.LVL79:
 225:Bsp/periph_serial.c **** 	periph_nvic_Structure_Setting(Serial_RX_IRQ_Channel[Serial], PreemptionPriority, SubPriority, ENAB
 868              		.loc 1 225 2 view .LVU175
 869 00b0 0123     		movs	r3, #1
 870 00b2 3A46     		mov	r2, r7
 871 00b4 3146     		mov	r1, r6
 872 00b6 2748     		ldr	r0, .L37+32
 873 00b8 005D     		ldrb	r0, [r0, r4]	@ zero_extendqisi2
 874 00ba FFF7FEFF 		bl	periph_nvic_Structure_Setting
 875              	.LVL80:
 226:Bsp/periph_serial.c **** 
 227:Bsp/periph_serial.c **** 	//Tx DMA Setting
 228:Bsp/periph_serial.c **** 	periph_DMA_Serial(&DMA_TX_InitStructure, Serial_DMA_TX_Channel[Serial], (uint32_t)&Serial_Port[Ser
 876              		.loc 1 228 2 view .LVU176
 877              		.loc 1 228 96 is_stmt 0 view .LVU177
 878 00be 55F82420 		ldr	r2, [r5, r4, lsl #2]
 879              		.loc 1 228 2 view .LVU178
 880 00c2 0126     		movs	r6, #1
 881 00c4 0196     		str	r6, [sp, #4]
 882 00c6 CDF80090 		str	r9, [sp]
 883 00ca 2D9B     		ldr	r3, [sp, #180]
 884 00cc 0432     		adds	r2, r2, #4
 885 00ce 2249     		ldr	r1, .L37+36
 886 00d0 51F82410 		ldr	r1, [r1, r4, lsl #2]
 887 00d4 02A8     		add	r0, sp, #8
 888 00d6 FFF7FEFF 		bl	periph_DMA_Serial
 889              	.LVL81:
 229:Bsp/periph_serial.c **** 	periph_DMA_WithoutIRQ_Init(Serial_DMA_CLK[Serial], Serial_DMA_TX_Stream[Serial], &DMA_TX_InitStruc
 890              		.loc 1 229 2 is_stmt 1 view .LVU179
 891 00da 0023     		movs	r3, #0
 892 00dc 02AA     		add	r2, sp, #8
 893 00de 1F49     		ldr	r1, .L37+40
 894 00e0 51F82410 		ldr	r1, [r1, r4, lsl #2]
 895 00e4 4046     		mov	r0, r8
 896 00e6 FFF7FEFF 		bl	periph_DMA_WithoutIRQ_Init
 897              	.LVL82:
 230:Bsp/periph_serial.c **** 
 231:Bsp/periph_serial.c **** 	USART_DMACmd(Serial_Port[Serial], USART_DMAReq_Rx, ENABLE);
 898              		.loc 1 231 2 view .LVU180
 899 00ea 3246     		mov	r2, r6
 900 00ec 4021     		movs	r1, #64
 901 00ee 55F82400 		ldr	r0, [r5, r4, lsl #2]
 902 00f2 FFF7FEFF 		bl	USART_DMACmd
 903              	.LVL83:
 232:Bsp/periph_serial.c **** 	USART_DMACmd(Serial_Port[Serial], USART_DMAReq_Tx, ENABLE);
 904              		.loc 1 232 2 view .LVU181
 905 00f6 3246     		mov	r2, r6
 906 00f8 8021     		movs	r1, #128
 907 00fa 55F82400 		ldr	r0, [r5, r4, lsl #2]
 908 00fe FFF7FEFF 		bl	USART_DMACmd
 909              	.LVL84:
 233:Bsp/periph_serial.c **** 
 234:Bsp/periph_serial.c **** 	memset(Serial_TX_Buff[Serial], NULL, SERIAL_MAX_RECLEN);
ARM GAS  /var/folders/lx/hc4sn_b53233_zkc9xbbl97r0000gp/T//ccnvIE0z.s 			page 21


 910              		.loc 1 234 2 view .LVU182
 911              		.loc 1 234 23 is_stmt 0 view .LVU183
 912 0102 4FEA4428 		lsl	r8, r4, #9
 913              		.loc 1 234 2 view .LVU184
 914 0106 4FF40077 		mov	r7, #512
 915 010a 3A46     		mov	r2, r7
 916 010c 0021     		movs	r1, #0
 917 010e 1448     		ldr	r0, .L37+44
 918 0110 00EB4420 		add	r0, r0, r4, lsl #9
 919 0114 FFF7FEFF 		bl	memset
 920              	.LVL85:
 235:Bsp/periph_serial.c **** 	memset(Serial_RX_Buff[Serial], NULL, SERIAL_MAX_RECLEN);
 921              		.loc 1 235 2 is_stmt 1 view .LVU185
 922 0118 3A46     		mov	r2, r7
 923 011a 0021     		movs	r1, #0
 924 011c 1148     		ldr	r0, .L37+48
 925 011e 4044     		add	r0, r0, r8
 926 0120 FFF7FEFF 		bl	memset
 927              	.LVL86:
 236:Bsp/periph_serial.c **** 
 237:Bsp/periph_serial.c **** 	USART_Cmd(Serial_Port[Serial], ENABLE);
 928              		.loc 1 237 2 view .LVU186
 929 0124 3146     		mov	r1, r6
 930 0126 55F82400 		ldr	r0, [r5, r4, lsl #2]
 931 012a FFF7FEFF 		bl	USART_Cmd
 932              	.LVL87:
 238:Bsp/periph_serial.c **** }
 933              		.loc 1 238 1 is_stmt 0 view .LVU187
 934 012e 25B0     		add	sp, sp, #148
 935              	.LCFI12:
 936              		.cfi_def_cfa_offset 28
 937              		@ sp needed
 938 0130 BDE8F083 		pop	{r4, r5, r6, r7, r8, r9, pc}
 939              	.LVL88:
 940              	.L38:
 941              		.loc 1 238 1 view .LVU188
 942              		.align	2
 943              	.L37:
 944 0134 00000000 		.word	.LANCHOR1
 945 0138 00000000 		.word	.LANCHOR2
 946 013c 00000000 		.word	.LANCHOR3
 947 0140 00000000 		.word	.LANCHOR4
 948 0144 00000000 		.word	.LANCHOR5
 949 0148 00000000 		.word	.LANCHOR9
 950 014c 00000000 		.word	.LANCHOR11
 951 0150 00000000 		.word	.LANCHOR10
 952 0154 00000000 		.word	.LANCHOR8
 953 0158 00000000 		.word	.LANCHOR12
 954 015c 00000000 		.word	.LANCHOR13
 955 0160 00000000 		.word	.LANCHOR6
 956 0164 00000000 		.word	.LANCHOR7
 957              		.cfi_endproc
 958              	.LFE131:
 960              		.section	.text.Serial_SendBuff,"ax",%progbits
 961              		.align	1
 962              		.global	Serial_SendBuff
 963              		.syntax unified
ARM GAS  /var/folders/lx/hc4sn_b53233_zkc9xbbl97r0000gp/T//ccnvIE0z.s 			page 22


 964              		.thumb
 965              		.thumb_func
 966              		.fpu fpv4-sp-d16
 968              	Serial_SendBuff:
 969              	.LVL89:
 970              	.LFB132:
 239:Bsp/periph_serial.c **** 
 240:Bsp/periph_serial.c **** void Serial_SendBuff(Serial_List serial_id, uint8_t *Buff, uint16_t Len)
 241:Bsp/periph_serial.c **** {
 971              		.loc 1 241 1 is_stmt 1 view -0
 972              		.cfi_startproc
 973              		@ args = 0, pretend = 0, frame = 0
 974              		@ frame_needed = 0, uses_anonymous_args = 0
 975              		.loc 1 241 1 is_stmt 0 view .LVU190
 976 0000 F8B5     		push	{r3, r4, r5, r6, r7, lr}
 977              	.LCFI13:
 978              		.cfi_def_cfa_offset 24
 979              		.cfi_offset 3, -24
 980              		.cfi_offset 4, -20
 981              		.cfi_offset 5, -16
 982              		.cfi_offset 6, -12
 983              		.cfi_offset 7, -8
 984              		.cfi_offset 14, -4
 985 0002 0446     		mov	r4, r0
 986 0004 0F46     		mov	r7, r1
 987 0006 1646     		mov	r6, r2
 242:Bsp/periph_serial.c **** 	for (uint8_t Buff_index = 0; Buff_index < Len; Buff_index++)
 988              		.loc 1 242 2 is_stmt 1 view .LVU191
 989              	.LBB2:
 990              		.loc 1 242 7 view .LVU192
 991              	.LVL90:
 992              		.loc 1 242 15 is_stmt 0 view .LVU193
 993 0008 0025     		movs	r5, #0
 994              		.loc 1 242 2 view .LVU194
 995 000a 0FE0     		b	.L40
 996              	.LVL91:
 997              	.L41:
 243:Bsp/periph_serial.c **** 	{
 244:Bsp/periph_serial.c **** 		while (USART_GetFlagStatus(Serial_Port[serial_id], USART_FLAG_TC) == RESET)
 245:Bsp/periph_serial.c **** 			;
 998              		.loc 1 245 4 is_stmt 1 discriminator 1 view .LVU195
 244:Bsp/periph_serial.c **** 			;
 999              		.loc 1 244 9 discriminator 1 view .LVU196
 244:Bsp/periph_serial.c **** 			;
 1000              		.loc 1 244 10 is_stmt 0 discriminator 1 view .LVU197
 1001 000c 4021     		movs	r1, #64
 1002 000e 094B     		ldr	r3, .L43
 1003 0010 53F82400 		ldr	r0, [r3, r4, lsl #2]
 1004 0014 FFF7FEFF 		bl	USART_GetFlagStatus
 1005              	.LVL92:
 244:Bsp/periph_serial.c **** 			;
 1006              		.loc 1 244 9 discriminator 1 view .LVU198
 1007 0018 0028     		cmp	r0, #0
 1008 001a F7D0     		beq	.L41
 246:Bsp/periph_serial.c **** 		USART_SendData(Serial_Port[serial_id], Buff[Buff_index]);
 1009              		.loc 1 246 3 is_stmt 1 discriminator 2 view .LVU199
 1010 001c 795D     		ldrb	r1, [r7, r5]	@ zero_extendqisi2
ARM GAS  /var/folders/lx/hc4sn_b53233_zkc9xbbl97r0000gp/T//ccnvIE0z.s 			page 23


 1011 001e 054B     		ldr	r3, .L43
 1012 0020 53F82400 		ldr	r0, [r3, r4, lsl #2]
 1013 0024 FFF7FEFF 		bl	USART_SendData
 1014              	.LVL93:
 242:Bsp/periph_serial.c **** 	{
 1015              		.loc 1 242 49 discriminator 2 view .LVU200
 242:Bsp/periph_serial.c **** 	{
 1016              		.loc 1 242 59 is_stmt 0 discriminator 2 view .LVU201
 1017 0028 0135     		adds	r5, r5, #1
 1018              	.LVL94:
 242:Bsp/periph_serial.c **** 	{
 1019              		.loc 1 242 59 discriminator 2 view .LVU202
 1020 002a EDB2     		uxtb	r5, r5
 1021              	.LVL95:
 1022              	.L40:
 242:Bsp/periph_serial.c **** 	{
 1023              		.loc 1 242 31 is_stmt 1 discriminator 1 view .LVU203
 242:Bsp/periph_serial.c **** 	{
 1024              		.loc 1 242 42 is_stmt 0 discriminator 1 view .LVU204
 1025 002c ABB2     		uxth	r3, r5
 242:Bsp/periph_serial.c **** 	{
 1026              		.loc 1 242 2 discriminator 1 view .LVU205
 1027 002e B342     		cmp	r3, r6
 1028 0030 ECD3     		bcc	.L41
 1029              	.LBE2:
 247:Bsp/periph_serial.c **** 	}
 248:Bsp/periph_serial.c **** }
 1030              		.loc 1 248 1 view .LVU206
 1031 0032 F8BD     		pop	{r3, r4, r5, r6, r7, pc}
 1032              	.LVL96:
 1033              	.L44:
 1034              		.loc 1 248 1 view .LVU207
 1035              		.align	2
 1036              	.L43:
 1037 0034 00000000 		.word	.LANCHOR5
 1038              		.cfi_endproc
 1039              	.LFE132:
 1041              		.section	.text.Serial_DMA_TX_IRQSetting,"ax",%progbits
 1042              		.align	1
 1043              		.global	Serial_DMA_TX_IRQSetting
 1044              		.syntax unified
 1045              		.thumb
 1046              		.thumb_func
 1047              		.fpu fpv4-sp-d16
 1049              	Serial_DMA_TX_IRQSetting:
 1050              	.LVL97:
 1051              	.LFB133:
 249:Bsp/periph_serial.c **** 
 250:Bsp/periph_serial.c **** void Serial_DMA_TX_IRQSetting(Serial_List serial_id)
 251:Bsp/periph_serial.c **** {
 1052              		.loc 1 251 1 is_stmt 1 view -0
 1053              		.cfi_startproc
 1054              		@ args = 0, pretend = 0, frame = 0
 1055              		@ frame_needed = 0, uses_anonymous_args = 0
 1056              		.loc 1 251 1 is_stmt 0 view .LVU209
 1057 0000 38B5     		push	{r3, r4, r5, lr}
 1058              	.LCFI14:
ARM GAS  /var/folders/lx/hc4sn_b53233_zkc9xbbl97r0000gp/T//ccnvIE0z.s 			page 24


 1059              		.cfi_def_cfa_offset 16
 1060              		.cfi_offset 3, -16
 1061              		.cfi_offset 4, -12
 1062              		.cfi_offset 5, -8
 1063              		.cfi_offset 14, -4
 1064 0002 0446     		mov	r4, r0
 252:Bsp/periph_serial.c **** 	if (DMA_GetFlagStatus(Serial_DMA_TX_Stream[serial_id], DMA_TX_FinishFlag[serial_id]) == SET)
 1065              		.loc 1 252 2 is_stmt 1 view .LVU210
 1066              		.loc 1 252 6 is_stmt 0 view .LVU211
 1067 0004 104B     		ldr	r3, .L49
 1068 0006 53F82010 		ldr	r1, [r3, r0, lsl #2]
 1069 000a 104B     		ldr	r3, .L49+4
 1070 000c 53F82000 		ldr	r0, [r3, r0, lsl #2]
 1071              	.LVL98:
 1072              		.loc 1 252 6 view .LVU212
 1073 0010 FFF7FEFF 		bl	DMA_GetFlagStatus
 1074              	.LVL99:
 1075              		.loc 1 252 5 view .LVU213
 1076 0014 0128     		cmp	r0, #1
 1077 0016 00D0     		beq	.L48
 1078              	.L45:
 253:Bsp/periph_serial.c **** 	{
 254:Bsp/periph_serial.c **** 		DMA_ClearFlag(Serial_DMA_TX_Stream[serial_id], DMA_TX_FinishFlag[serial_id]);
 255:Bsp/periph_serial.c **** 		DMA_Cmd(Serial_DMA_TX_Stream[serial_id], DISABLE);
 256:Bsp/periph_serial.c **** 
 257:Bsp/periph_serial.c **** 		USART_ITConfig(Serial_Port[serial_id], USART_IT_TC, ENABLE);
 258:Bsp/periph_serial.c **** 	}
 259:Bsp/periph_serial.c **** }
 1079              		.loc 1 259 1 view .LVU214
 1080 0018 38BD     		pop	{r3, r4, r5, pc}
 1081              	.L48:
 254:Bsp/periph_serial.c **** 		DMA_Cmd(Serial_DMA_TX_Stream[serial_id], DISABLE);
 1082              		.loc 1 254 3 is_stmt 1 view .LVU215
 1083 001a 0C4B     		ldr	r3, .L49+4
 1084 001c 53F82450 		ldr	r5, [r3, r4, lsl #2]
 1085 0020 094B     		ldr	r3, .L49
 1086 0022 53F82410 		ldr	r1, [r3, r4, lsl #2]
 1087 0026 2846     		mov	r0, r5
 1088 0028 FFF7FEFF 		bl	DMA_ClearFlag
 1089              	.LVL100:
 255:Bsp/periph_serial.c **** 
 1090              		.loc 1 255 3 view .LVU216
 1091 002c 0021     		movs	r1, #0
 1092 002e 2846     		mov	r0, r5
 1093 0030 FFF7FEFF 		bl	DMA_Cmd
 1094              	.LVL101:
 257:Bsp/periph_serial.c **** 	}
 1095              		.loc 1 257 3 view .LVU217
 1096 0034 0122     		movs	r2, #1
 1097 0036 40F22661 		movw	r1, #1574
 1098 003a 054B     		ldr	r3, .L49+8
 1099 003c 53F82400 		ldr	r0, [r3, r4, lsl #2]
 1100 0040 FFF7FEFF 		bl	USART_ITConfig
 1101              	.LVL102:
 1102              		.loc 1 259 1 is_stmt 0 view .LVU218
 1103 0044 E8E7     		b	.L45
 1104              	.L50:
ARM GAS  /var/folders/lx/hc4sn_b53233_zkc9xbbl97r0000gp/T//ccnvIE0z.s 			page 25


 1105 0046 00BF     		.align	2
 1106              	.L49:
 1107 0048 00000000 		.word	.LANCHOR15
 1108 004c 00000000 		.word	.LANCHOR13
 1109 0050 00000000 		.word	.LANCHOR5
 1110              		.cfi_endproc
 1111              	.LFE133:
 1113              		.section	.text.Serial_DMA_SendBuff,"ax",%progbits
 1114              		.align	1
 1115              		.global	Serial_DMA_SendBuff
 1116              		.syntax unified
 1117              		.thumb
 1118              		.thumb_func
 1119              		.fpu fpv4-sp-d16
 1121              	Serial_DMA_SendBuff:
 1122              	.LVL103:
 1123              	.LFB134:
 260:Bsp/periph_serial.c **** 
 261:Bsp/periph_serial.c **** void Serial_DMA_SendBuff(Serial_List serial_id, uint16_t len)
 262:Bsp/periph_serial.c **** {
 1124              		.loc 1 262 1 is_stmt 1 view -0
 1125              		.cfi_startproc
 1126              		@ args = 0, pretend = 0, frame = 0
 1127              		@ frame_needed = 0, uses_anonymous_args = 0
 1128              		.loc 1 262 1 is_stmt 0 view .LVU220
 1129 0000 38B5     		push	{r3, r4, r5, lr}
 1130              	.LCFI15:
 1131              		.cfi_def_cfa_offset 16
 1132              		.cfi_offset 3, -16
 1133              		.cfi_offset 4, -12
 1134              		.cfi_offset 5, -8
 1135              		.cfi_offset 14, -4
 1136 0002 0D46     		mov	r5, r1
 263:Bsp/periph_serial.c **** 	DMA_ClearFlag(Serial_DMA_TX_Stream[serial_id], DMA_TX_FinishFlag[serial_id]);
 1137              		.loc 1 263 2 is_stmt 1 view .LVU221
 1138 0004 084B     		ldr	r3, .L53
 1139 0006 53F82040 		ldr	r4, [r3, r0, lsl #2]
 1140 000a 084B     		ldr	r3, .L53+4
 1141 000c 53F82010 		ldr	r1, [r3, r0, lsl #2]
 1142              	.LVL104:
 1143              		.loc 1 263 2 is_stmt 0 view .LVU222
 1144 0010 2046     		mov	r0, r4
 1145              	.LVL105:
 1146              		.loc 1 263 2 view .LVU223
 1147 0012 FFF7FEFF 		bl	DMA_ClearFlag
 1148              	.LVL106:
 264:Bsp/periph_serial.c **** 	DMA_SetCurrDataCounter(Serial_DMA_TX_Stream[serial_id], len);
 1149              		.loc 1 264 2 is_stmt 1 view .LVU224
 1150 0016 2946     		mov	r1, r5
 1151 0018 2046     		mov	r0, r4
 1152 001a FFF7FEFF 		bl	DMA_SetCurrDataCounter
 1153              	.LVL107:
 265:Bsp/periph_serial.c **** 	DMA_Cmd(Serial_DMA_TX_Stream[serial_id], ENABLE);
 1154              		.loc 1 265 2 view .LVU225
 1155 001e 0121     		movs	r1, #1
 1156 0020 2046     		mov	r0, r4
 1157 0022 FFF7FEFF 		bl	DMA_Cmd
ARM GAS  /var/folders/lx/hc4sn_b53233_zkc9xbbl97r0000gp/T//ccnvIE0z.s 			page 26


 1158              	.LVL108:
 266:Bsp/periph_serial.c **** }
 1159              		.loc 1 266 1 is_stmt 0 view .LVU226
 1160 0026 38BD     		pop	{r3, r4, r5, pc}
 1161              	.L54:
 1162              		.align	2
 1163              	.L53:
 1164 0028 00000000 		.word	.LANCHOR13
 1165 002c 00000000 		.word	.LANCHOR15
 1166              		.cfi_endproc
 1167              	.LFE134:
 1169              		.section	.text.Serial_DMA_WaitFinish,"ax",%progbits
 1170              		.align	1
 1171              		.global	Serial_DMA_WaitFinish
 1172              		.syntax unified
 1173              		.thumb
 1174              		.thumb_func
 1175              		.fpu fpv4-sp-d16
 1177              	Serial_DMA_WaitFinish:
 1178              	.LVL109:
 1179              	.LFB135:
 267:Bsp/periph_serial.c **** 
 268:Bsp/periph_serial.c **** void Serial_DMA_WaitFinish(Serial_List serial_id)
 269:Bsp/periph_serial.c **** {
 1180              		.loc 1 269 1 is_stmt 1 view -0
 1181              		.cfi_startproc
 1182              		@ args = 0, pretend = 0, frame = 0
 1183              		@ frame_needed = 0, uses_anonymous_args = 0
 1184              		.loc 1 269 1 is_stmt 0 view .LVU228
 1185 0000 10B5     		push	{r4, lr}
 1186              	.LCFI16:
 1187              		.cfi_def_cfa_offset 8
 1188              		.cfi_offset 4, -8
 1189              		.cfi_offset 14, -4
 1190 0002 0446     		mov	r4, r0
 270:Bsp/periph_serial.c **** 	if (serial_id >= Serial_Port_Sum)
 1191              		.loc 1 270 2 is_stmt 1 view .LVU229
 1192              		.loc 1 270 5 is_stmt 0 view .LVU230
 1193 0004 0328     		cmp	r0, #3
 1194 0006 0FD8     		bhi	.L55
 1195              	.LVL110:
 1196              	.L57:
 271:Bsp/periph_serial.c **** 		return;
 272:Bsp/periph_serial.c **** 
 273:Bsp/periph_serial.c **** 	while (DMA_GetFlagStatus(Serial_DMA_TX_Stream[serial_id], DMA_TX_FinishFlag[serial_id]) != SET)
 274:Bsp/periph_serial.c **** 		;
 1197              		.loc 1 274 3 is_stmt 1 discriminator 1 view .LVU231
 273:Bsp/periph_serial.c **** 		;
 1198              		.loc 1 273 8 discriminator 1 view .LVU232
 273:Bsp/periph_serial.c **** 		;
 1199              		.loc 1 273 9 is_stmt 0 discriminator 1 view .LVU233
 1200 0008 084B     		ldr	r3, .L59
 1201 000a 53F82410 		ldr	r1, [r3, r4, lsl #2]
 1202 000e 084B     		ldr	r3, .L59+4
 1203 0010 53F82400 		ldr	r0, [r3, r4, lsl #2]
 1204 0014 FFF7FEFF 		bl	DMA_GetFlagStatus
 1205              	.LVL111:
ARM GAS  /var/folders/lx/hc4sn_b53233_zkc9xbbl97r0000gp/T//ccnvIE0z.s 			page 27


 273:Bsp/periph_serial.c **** 		;
 1206              		.loc 1 273 8 discriminator 1 view .LVU234
 1207 0018 0128     		cmp	r0, #1
 1208 001a F5D1     		bne	.L57
 275:Bsp/periph_serial.c **** 	DMA_Cmd(Serial_DMA_TX_Stream[serial_id], DISABLE);
 1209              		.loc 1 275 2 is_stmt 1 view .LVU235
 1210 001c 0021     		movs	r1, #0
 1211 001e 044B     		ldr	r3, .L59+4
 1212 0020 53F82400 		ldr	r0, [r3, r4, lsl #2]
 1213 0024 FFF7FEFF 		bl	DMA_Cmd
 1214              	.LVL112:
 1215              	.L55:
 276:Bsp/periph_serial.c **** }
 1216              		.loc 1 276 1 is_stmt 0 view .LVU236
 1217 0028 10BD     		pop	{r4, pc}
 1218              	.L60:
 1219 002a 00BF     		.align	2
 1220              	.L59:
 1221 002c 00000000 		.word	.LANCHOR15
 1222 0030 00000000 		.word	.LANCHOR13
 1223              		.cfi_endproc
 1224              	.LFE135:
 1226              		.global	Serial_Port
 1227              		.global	IRQ_Callback
 1228              		.global	Serial_RX_Buff
 1229              		.global	Serial_TX_Buff
 1230              		.section	.bss.IRQ_Callback,"aw",%nobits
 1231              		.align	2
 1232              		.set	.LANCHOR0,. + 0
 1235              	IRQ_Callback:
 1236 0000 00000000 		.space	16
 1236      00000000 
 1236      00000000 
 1236      00000000 
 1237              		.section	.bss.Serial_RX_Buff,"aw",%nobits
 1238              		.align	2
 1239              		.set	.LANCHOR7,. + 0
 1242              	Serial_RX_Buff:
 1243 0000 00000000 		.space	2048
 1243      00000000 
 1243      00000000 
 1243      00000000 
 1243      00000000 
 1244              		.section	.bss.Serial_TX_Buff,"aw",%nobits
 1245              		.align	2
 1246              		.set	.LANCHOR6,. + 0
 1249              	Serial_TX_Buff:
 1250 0000 00000000 		.space	2048
 1250      00000000 
 1250      00000000 
 1250      00000000 
 1250      00000000 
 1251              		.section	.data.Serial_Port,"aw"
 1252              		.align	2
 1253              		.set	.LANCHOR5,. + 0
 1256              	Serial_Port:
 1257 0000 00100140 		.word	1073811456
ARM GAS  /var/folders/lx/hc4sn_b53233_zkc9xbbl97r0000gp/T//ccnvIE0z.s 			page 28


 1258 0004 00440040 		.word	1073759232
 1259 0008 00480040 		.word	1073760256
 1260 000c 00140140 		.word	1073812480
 1261              		.section	.rodata.DMA_TX_FinishFlag,"a"
 1262              		.align	2
 1263              		.set	.LANCHOR15,. + 0
 1266              	DMA_TX_FinishFlag:
 1267 0000 00000028 		.word	671088640
 1268 0004 00002020 		.word	538968064
 1269 0008 00000018 		.word	402653184
 1270 000c 00000028 		.word	671088640
 1271              		.section	.rodata.RCC_APBPeriphClockCmd,"a"
 1272              		.align	2
 1273              		.set	.LANCHOR2,. + 0
 1276              	RCC_APBPeriphClockCmd:
 1277 0000 00000000 		.word	RCC_APB2PeriphClockCmd
 1278 0004 00000000 		.word	RCC_APB1PeriphClockCmd
 1279 0008 00000000 		.word	RCC_APB1PeriphClockCmd
 1280 000c 00000000 		.word	RCC_APB2PeriphClockCmd
 1281              		.section	.rodata.RCC_APBPeriph_SerialCLK,"a"
 1282              		.align	2
 1283              		.set	.LANCHOR3,. + 0
 1286              	RCC_APBPeriph_SerialCLK:
 1287 0000 10000000 		.word	16
 1288 0004 00000200 		.word	131072
 1289 0008 00000400 		.word	262144
 1290 000c 20000000 		.word	32
 1291              		.section	.rodata.Serial_DMA_CLK,"a"
 1292              		.align	2
 1293              		.set	.LANCHOR11,. + 0
 1296              	Serial_DMA_CLK:
 1297 0000 00004000 		.word	4194304
 1298 0004 00002000 		.word	2097152
 1299 0008 00002000 		.word	2097152
 1300 000c 00004000 		.word	4194304
 1301              		.section	.rodata.Serial_DMA_RX_Channel,"a"
 1302              		.align	2
 1303              		.set	.LANCHOR9,. + 0
 1306              	Serial_DMA_RX_Channel:
 1307 0000 00000008 		.word	134217728
 1308 0004 00000008 		.word	134217728
 1309 0008 00000008 		.word	134217728
 1310 000c 0000000A 		.word	167772160
 1311              		.section	.rodata.Serial_DMA_RX_Stream,"a"
 1312              		.align	2
 1313              		.set	.LANCHOR10,. + 0
 1316              	Serial_DMA_RX_Stream:
 1317 0000 88640240 		.word	1073898632
 1318 0004 88600240 		.word	1073897608
 1319 0008 28600240 		.word	1073897512
 1320 000c 28640240 		.word	1073898536
 1321              		.section	.rodata.Serial_DMA_TX_Channel,"a"
 1322              		.align	2
 1323              		.set	.LANCHOR12,. + 0
 1326              	Serial_DMA_TX_Channel:
 1327 0000 00000008 		.word	134217728
 1328 0004 00000008 		.word	134217728
ARM GAS  /var/folders/lx/hc4sn_b53233_zkc9xbbl97r0000gp/T//ccnvIE0z.s 			page 29


 1329 0008 00000008 		.word	134217728
 1330 000c 0000000A 		.word	167772160
 1331              		.section	.rodata.Serial_DMA_TX_IRQ_Channel,"a"
 1332              		.align	2
 1333              		.set	.LANCHOR14,. + 0
 1336              	Serial_DMA_TX_IRQ_Channel:
 1337 0000 46110E46 		.ascii	"F\021\016F"
 1338              		.section	.rodata.Serial_DMA_TX_Stream,"a"
 1339              		.align	2
 1340              		.set	.LANCHOR13,. + 0
 1343              	Serial_DMA_TX_Stream:
 1344 0000 B8640240 		.word	1073898680
 1345 0004 A0600240 		.word	1073897632
 1346 0008 58600240 		.word	1073897560
 1347 000c B8640240 		.word	1073898680
 1348              		.section	.rodata.Serial_IO_Init,"a"
 1349              		.align	2
 1350              		.set	.LANCHOR1,. + 0
 1353              	Serial_IO_Init:
 1354 0000 00000000 		.word	GPIO_USART1_IO_Init
 1355 0004 00000000 		.word	GPIO_USART2_IO_Init
 1356 0008 00000000 		.word	GPIO_USART3_IO_Init
 1357 000c 00000000 		.word	GPIO_USART6_IO_Init
 1358              		.section	.rodata.Serial_RX_IRQ_Channel,"a"
 1359              		.align	2
 1360              		.set	.LANCHOR8,. + 0
 1363              	Serial_RX_IRQ_Channel:
 1364 0000 25262747 		.ascii	"%&'G"
 1365              		.section	.rodata.Serial_Structure_Setting,"a"
 1366              		.align	2
 1367              		.set	.LANCHOR4,. + 0
 1370              	Serial_Structure_Setting:
 1371 0000 00000000 		.word	USART_Structure_Normal_Setting
 1372 0004 00000000 		.word	USART_Structure_SBus_Setting
 1373              		.text
 1374              	.Letext0:
 1375              		.file 2 "/usr/local/arm-none-eabi-gcc/gcc-arm-none-eabi-10-2020-q4-major/arm-none-eabi/include/mac
 1376              		.file 3 "/usr/local/arm-none-eabi-gcc/gcc-arm-none-eabi-10-2020-q4-major/arm-none-eabi/include/sys
 1377              		.file 4 "USER/stm32f4xx.h"
 1378              		.file 5 "FWLIB/inc/stm32f4xx_dma.h"
 1379              		.file 6 "FWLIB/inc/stm32f4xx_usart.h"
 1380              		.file 7 "Bsp/periph_dma.h"
 1381              		.file 8 "Bsp/periph_serial.h"
 1382              		.file 9 "Bsp/periph_nvic.h"
 1383              		.file 10 "<built-in>"
ARM GAS  /var/folders/lx/hc4sn_b53233_zkc9xbbl97r0000gp/T//ccnvIE0z.s 			page 30

