ARM GAS  C:\Users\huav\AppData\Local\Temp\ccK6sXYL.s 			page 1


   1              		.cpu cortex-m4
   2              		.eabi_attribute 27, 1
   3              		.eabi_attribute 28, 1
   4              		.eabi_attribute 20, 1
   5              		.eabi_attribute 21, 1
   6              		.eabi_attribute 23, 3
   7              		.eabi_attribute 24, 1
   8              		.eabi_attribute 25, 1
   9              		.eabi_attribute 26, 1
  10              		.eabi_attribute 30, 1
  11              		.eabi_attribute 34, 1
  12              		.eabi_attribute 18, 4
  13              		.file	"periph_exti_irq.c"
  14              		.text
  15              	.Ltext0:
  16              		.cfi_sections	.debug_frame
  17              		.section	.text.EXTI0_IRQHandler,"ax",%progbits
  18              		.align	1
  19              		.global	EXTI0_IRQHandler
  20              		.arch armv7e-m
  21              		.syntax unified
  22              		.thumb
  23              		.thumb_func
  24              		.fpu fpv4-sp-d16
  26              	EXTI0_IRQHandler:
  27              	.LFB123:
  28              		.file 1 "Bsp/periph_exti_irq.c"
   1:Bsp/periph_exti_irq.c **** #include "periph_exti_irq.h"
   2:Bsp/periph_exti_irq.c **** #include "periph_exti.h"
   3:Bsp/periph_exti_irq.c **** #include "stm32f4xx_exti.h"
   4:Bsp/periph_exti_irq.c **** #include "periph_gpio.h"
   5:Bsp/periph_exti_irq.c **** 
   6:Bsp/periph_exti_irq.c **** void EXTI0_IRQHandler(void)
   7:Bsp/periph_exti_irq.c **** {
  29              		.loc 1 7 1 view -0
  30              		.cfi_startproc
  31              		@ args = 0, pretend = 0, frame = 0
  32              		@ frame_needed = 0, uses_anonymous_args = 0
  33 0000 08B5     		push	{r3, lr}
  34              	.LCFI0:
  35              		.cfi_def_cfa_offset 8
  36              		.cfi_offset 3, -8
  37              		.cfi_offset 14, -4
   8:Bsp/periph_exti_irq.c ****     if (SET == EXTI_GetITStatus(EXTI_Line0))
  38              		.loc 1 8 5 view .LVU1
  39              		.loc 1 8 16 is_stmt 0 view .LVU2
  40 0002 0120     		movs	r0, #1
  41 0004 FFF7FEFF 		bl	EXTI_GetITStatus
  42              	.LVL0:
  43              		.loc 1 8 8 view .LVU3
  44 0008 0128     		cmp	r0, #1
  45 000a 00D0     		beq	.L5
  46              	.L1:
   9:Bsp/periph_exti_irq.c ****     {
  10:Bsp/periph_exti_irq.c ****         EXTI_ClearFlag(EXTI_Line0);
  11:Bsp/periph_exti_irq.c **** 
  12:Bsp/periph_exti_irq.c ****         if (periph_exti_GetCallback(EXTI_Line0) != NULL)
ARM GAS  C:\Users\huav\AppData\Local\Temp\ccK6sXYL.s 			page 2


  13:Bsp/periph_exti_irq.c ****         {
  14:Bsp/periph_exti_irq.c ****             periph_exti_GetCallback(EXTI_Line0)();
  15:Bsp/periph_exti_irq.c ****         }
  16:Bsp/periph_exti_irq.c **** 
  17:Bsp/periph_exti_irq.c ****         EXTI_ClearITPendingBit(EXTI_Line0);
  18:Bsp/periph_exti_irq.c ****     }
  19:Bsp/periph_exti_irq.c **** }
  47              		.loc 1 19 1 view .LVU4
  48 000c 08BD     		pop	{r3, pc}
  49              	.L5:
  10:Bsp/periph_exti_irq.c **** 
  50              		.loc 1 10 9 is_stmt 1 view .LVU5
  51 000e FFF7FEFF 		bl	EXTI_ClearFlag
  52              	.LVL1:
  12:Bsp/periph_exti_irq.c ****         {
  53              		.loc 1 12 9 view .LVU6
  12:Bsp/periph_exti_irq.c ****         {
  54              		.loc 1 12 13 is_stmt 0 view .LVU7
  55 0012 0120     		movs	r0, #1
  56 0014 FFF7FEFF 		bl	periph_exti_GetCallback
  57              	.LVL2:
  12:Bsp/periph_exti_irq.c ****         {
  58              		.loc 1 12 12 view .LVU8
  59 0018 18B1     		cbz	r0, .L3
  14:Bsp/periph_exti_irq.c ****         }
  60              		.loc 1 14 13 is_stmt 1 view .LVU9
  61 001a 0120     		movs	r0, #1
  62 001c FFF7FEFF 		bl	periph_exti_GetCallback
  63              	.LVL3:
  64 0020 8047     		blx	r0
  65              	.LVL4:
  66              	.L3:
  17:Bsp/periph_exti_irq.c ****     }
  67              		.loc 1 17 9 view .LVU10
  68 0022 0120     		movs	r0, #1
  69 0024 FFF7FEFF 		bl	EXTI_ClearITPendingBit
  70              	.LVL5:
  71              		.loc 1 19 1 is_stmt 0 view .LVU11
  72 0028 F0E7     		b	.L1
  73              		.cfi_endproc
  74              	.LFE123:
  76              		.section	.text.EXTI1_IRQHandler,"ax",%progbits
  77              		.align	1
  78              		.global	EXTI1_IRQHandler
  79              		.syntax unified
  80              		.thumb
  81              		.thumb_func
  82              		.fpu fpv4-sp-d16
  84              	EXTI1_IRQHandler:
  85              	.LFB124:
  20:Bsp/periph_exti_irq.c **** 
  21:Bsp/periph_exti_irq.c **** void EXTI1_IRQHandler(void)
  22:Bsp/periph_exti_irq.c **** {
  86              		.loc 1 22 1 is_stmt 1 view -0
  87              		.cfi_startproc
  88              		@ args = 0, pretend = 0, frame = 0
  89              		@ frame_needed = 0, uses_anonymous_args = 0
ARM GAS  C:\Users\huav\AppData\Local\Temp\ccK6sXYL.s 			page 3


  90 0000 08B5     		push	{r3, lr}
  91              	.LCFI1:
  92              		.cfi_def_cfa_offset 8
  93              		.cfi_offset 3, -8
  94              		.cfi_offset 14, -4
  23:Bsp/periph_exti_irq.c ****     if (SET == EXTI_GetITStatus(EXTI_Line1))
  95              		.loc 1 23 5 view .LVU13
  96              		.loc 1 23 16 is_stmt 0 view .LVU14
  97 0002 0220     		movs	r0, #2
  98 0004 FFF7FEFF 		bl	EXTI_GetITStatus
  99              	.LVL6:
 100              		.loc 1 23 8 view .LVU15
 101 0008 0128     		cmp	r0, #1
 102 000a 00D0     		beq	.L10
 103              	.L6:
  24:Bsp/periph_exti_irq.c ****     {
  25:Bsp/periph_exti_irq.c ****         EXTI_ClearFlag(EXTI_Line1);
  26:Bsp/periph_exti_irq.c **** 
  27:Bsp/periph_exti_irq.c ****         if (periph_exti_GetCallback(EXTI_Line1) != NULL)
  28:Bsp/periph_exti_irq.c ****         {
  29:Bsp/periph_exti_irq.c ****             periph_exti_GetCallback(EXTI_Line1)();
  30:Bsp/periph_exti_irq.c ****         }
  31:Bsp/periph_exti_irq.c **** 
  32:Bsp/periph_exti_irq.c ****         EXTI_ClearITPendingBit(EXTI_Line1);
  33:Bsp/periph_exti_irq.c ****     }
  34:Bsp/periph_exti_irq.c **** }
 104              		.loc 1 34 1 view .LVU16
 105 000c 08BD     		pop	{r3, pc}
 106              	.L10:
  25:Bsp/periph_exti_irq.c **** 
 107              		.loc 1 25 9 is_stmt 1 view .LVU17
 108 000e 0220     		movs	r0, #2
 109 0010 FFF7FEFF 		bl	EXTI_ClearFlag
 110              	.LVL7:
  27:Bsp/periph_exti_irq.c ****         {
 111              		.loc 1 27 9 view .LVU18
  27:Bsp/periph_exti_irq.c ****         {
 112              		.loc 1 27 13 is_stmt 0 view .LVU19
 113 0014 0220     		movs	r0, #2
 114 0016 FFF7FEFF 		bl	periph_exti_GetCallback
 115              	.LVL8:
  27:Bsp/periph_exti_irq.c ****         {
 116              		.loc 1 27 12 view .LVU20
 117 001a 18B1     		cbz	r0, .L8
  29:Bsp/periph_exti_irq.c ****         }
 118              		.loc 1 29 13 is_stmt 1 view .LVU21
 119 001c 0220     		movs	r0, #2
 120 001e FFF7FEFF 		bl	periph_exti_GetCallback
 121              	.LVL9:
 122 0022 8047     		blx	r0
 123              	.LVL10:
 124              	.L8:
  32:Bsp/periph_exti_irq.c ****     }
 125              		.loc 1 32 9 view .LVU22
 126 0024 0220     		movs	r0, #2
 127 0026 FFF7FEFF 		bl	EXTI_ClearITPendingBit
 128              	.LVL11:
ARM GAS  C:\Users\huav\AppData\Local\Temp\ccK6sXYL.s 			page 4


 129              		.loc 1 34 1 is_stmt 0 view .LVU23
 130 002a EFE7     		b	.L6
 131              		.cfi_endproc
 132              	.LFE124:
 134              		.section	.text.EXTI2_IRQHandler,"ax",%progbits
 135              		.align	1
 136              		.global	EXTI2_IRQHandler
 137              		.syntax unified
 138              		.thumb
 139              		.thumb_func
 140              		.fpu fpv4-sp-d16
 142              	EXTI2_IRQHandler:
 143              	.LFB125:
  35:Bsp/periph_exti_irq.c **** 
  36:Bsp/periph_exti_irq.c **** void EXTI2_IRQHandler(void)
  37:Bsp/periph_exti_irq.c **** {
 144              		.loc 1 37 1 is_stmt 1 view -0
 145              		.cfi_startproc
 146              		@ args = 0, pretend = 0, frame = 0
 147              		@ frame_needed = 0, uses_anonymous_args = 0
 148 0000 08B5     		push	{r3, lr}
 149              	.LCFI2:
 150              		.cfi_def_cfa_offset 8
 151              		.cfi_offset 3, -8
 152              		.cfi_offset 14, -4
  38:Bsp/periph_exti_irq.c ****     if (SET == EXTI_GetITStatus(EXTI_Line2))
 153              		.loc 1 38 5 view .LVU25
 154              		.loc 1 38 16 is_stmt 0 view .LVU26
 155 0002 0420     		movs	r0, #4
 156 0004 FFF7FEFF 		bl	EXTI_GetITStatus
 157              	.LVL12:
 158              		.loc 1 38 8 view .LVU27
 159 0008 0128     		cmp	r0, #1
 160 000a 00D0     		beq	.L15
 161              	.L11:
  39:Bsp/periph_exti_irq.c ****     {
  40:Bsp/periph_exti_irq.c ****         EXTI_ClearFlag(EXTI_Line2);
  41:Bsp/periph_exti_irq.c **** 
  42:Bsp/periph_exti_irq.c ****         if (periph_exti_GetCallback(EXTI_Line2) != NULL)
  43:Bsp/periph_exti_irq.c ****         {
  44:Bsp/periph_exti_irq.c ****             periph_exti_GetCallback(EXTI_Line2)();
  45:Bsp/periph_exti_irq.c ****         }
  46:Bsp/periph_exti_irq.c **** 
  47:Bsp/periph_exti_irq.c ****         EXTI_ClearITPendingBit(EXTI_Line2);
  48:Bsp/periph_exti_irq.c ****     }
  49:Bsp/periph_exti_irq.c **** }
 162              		.loc 1 49 1 view .LVU28
 163 000c 08BD     		pop	{r3, pc}
 164              	.L15:
  40:Bsp/periph_exti_irq.c **** 
 165              		.loc 1 40 9 is_stmt 1 view .LVU29
 166 000e 0420     		movs	r0, #4
 167 0010 FFF7FEFF 		bl	EXTI_ClearFlag
 168              	.LVL13:
  42:Bsp/periph_exti_irq.c ****         {
 169              		.loc 1 42 9 view .LVU30
  42:Bsp/periph_exti_irq.c ****         {
ARM GAS  C:\Users\huav\AppData\Local\Temp\ccK6sXYL.s 			page 5


 170              		.loc 1 42 13 is_stmt 0 view .LVU31
 171 0014 0420     		movs	r0, #4
 172 0016 FFF7FEFF 		bl	periph_exti_GetCallback
 173              	.LVL14:
  42:Bsp/periph_exti_irq.c ****         {
 174              		.loc 1 42 12 view .LVU32
 175 001a 18B1     		cbz	r0, .L13
  44:Bsp/periph_exti_irq.c ****         }
 176              		.loc 1 44 13 is_stmt 1 view .LVU33
 177 001c 0420     		movs	r0, #4
 178 001e FFF7FEFF 		bl	periph_exti_GetCallback
 179              	.LVL15:
 180 0022 8047     		blx	r0
 181              	.LVL16:
 182              	.L13:
  47:Bsp/periph_exti_irq.c ****     }
 183              		.loc 1 47 9 view .LVU34
 184 0024 0420     		movs	r0, #4
 185 0026 FFF7FEFF 		bl	EXTI_ClearITPendingBit
 186              	.LVL17:
 187              		.loc 1 49 1 is_stmt 0 view .LVU35
 188 002a EFE7     		b	.L11
 189              		.cfi_endproc
 190              	.LFE125:
 192              		.section	.text.EXTI3_IRQHandler,"ax",%progbits
 193              		.align	1
 194              		.global	EXTI3_IRQHandler
 195              		.syntax unified
 196              		.thumb
 197              		.thumb_func
 198              		.fpu fpv4-sp-d16
 200              	EXTI3_IRQHandler:
 201              	.LFB126:
  50:Bsp/periph_exti_irq.c **** 
  51:Bsp/periph_exti_irq.c **** void EXTI3_IRQHandler(void)
  52:Bsp/periph_exti_irq.c **** {
 202              		.loc 1 52 1 is_stmt 1 view -0
 203              		.cfi_startproc
 204              		@ args = 0, pretend = 0, frame = 0
 205              		@ frame_needed = 0, uses_anonymous_args = 0
 206 0000 08B5     		push	{r3, lr}
 207              	.LCFI3:
 208              		.cfi_def_cfa_offset 8
 209              		.cfi_offset 3, -8
 210              		.cfi_offset 14, -4
  53:Bsp/periph_exti_irq.c ****     if (SET == EXTI_GetITStatus(EXTI_Line3))
 211              		.loc 1 53 5 view .LVU37
 212              		.loc 1 53 16 is_stmt 0 view .LVU38
 213 0002 0820     		movs	r0, #8
 214 0004 FFF7FEFF 		bl	EXTI_GetITStatus
 215              	.LVL18:
 216              		.loc 1 53 8 view .LVU39
 217 0008 0128     		cmp	r0, #1
 218 000a 00D0     		beq	.L20
 219              	.L16:
  54:Bsp/periph_exti_irq.c ****     {
  55:Bsp/periph_exti_irq.c ****         EXTI_ClearFlag(EXTI_Line3);
ARM GAS  C:\Users\huav\AppData\Local\Temp\ccK6sXYL.s 			page 6


  56:Bsp/periph_exti_irq.c **** 
  57:Bsp/periph_exti_irq.c ****         if (periph_exti_GetCallback(EXTI_Line3) != NULL)
  58:Bsp/periph_exti_irq.c ****         {
  59:Bsp/periph_exti_irq.c ****             periph_exti_GetCallback(EXTI_Line3)();
  60:Bsp/periph_exti_irq.c ****         }
  61:Bsp/periph_exti_irq.c **** 
  62:Bsp/periph_exti_irq.c ****         EXTI_ClearITPendingBit(EXTI_Line3);
  63:Bsp/periph_exti_irq.c ****     }
  64:Bsp/periph_exti_irq.c **** }
 220              		.loc 1 64 1 view .LVU40
 221 000c 08BD     		pop	{r3, pc}
 222              	.L20:
  55:Bsp/periph_exti_irq.c **** 
 223              		.loc 1 55 9 is_stmt 1 view .LVU41
 224 000e 0820     		movs	r0, #8
 225 0010 FFF7FEFF 		bl	EXTI_ClearFlag
 226              	.LVL19:
  57:Bsp/periph_exti_irq.c ****         {
 227              		.loc 1 57 9 view .LVU42
  57:Bsp/periph_exti_irq.c ****         {
 228              		.loc 1 57 13 is_stmt 0 view .LVU43
 229 0014 0820     		movs	r0, #8
 230 0016 FFF7FEFF 		bl	periph_exti_GetCallback
 231              	.LVL20:
  57:Bsp/periph_exti_irq.c ****         {
 232              		.loc 1 57 12 view .LVU44
 233 001a 18B1     		cbz	r0, .L18
  59:Bsp/periph_exti_irq.c ****         }
 234              		.loc 1 59 13 is_stmt 1 view .LVU45
 235 001c 0820     		movs	r0, #8
 236 001e FFF7FEFF 		bl	periph_exti_GetCallback
 237              	.LVL21:
 238 0022 8047     		blx	r0
 239              	.LVL22:
 240              	.L18:
  62:Bsp/periph_exti_irq.c ****     }
 241              		.loc 1 62 9 view .LVU46
 242 0024 0820     		movs	r0, #8
 243 0026 FFF7FEFF 		bl	EXTI_ClearITPendingBit
 244              	.LVL23:
 245              		.loc 1 64 1 is_stmt 0 view .LVU47
 246 002a EFE7     		b	.L16
 247              		.cfi_endproc
 248              	.LFE126:
 250              		.section	.text.EXTI4_IRQHandler,"ax",%progbits
 251              		.align	1
 252              		.global	EXTI4_IRQHandler
 253              		.syntax unified
 254              		.thumb
 255              		.thumb_func
 256              		.fpu fpv4-sp-d16
 258              	EXTI4_IRQHandler:
 259              	.LFB127:
  65:Bsp/periph_exti_irq.c **** 
  66:Bsp/periph_exti_irq.c **** void EXTI4_IRQHandler(void)
  67:Bsp/periph_exti_irq.c **** {
 260              		.loc 1 67 1 is_stmt 1 view -0
ARM GAS  C:\Users\huav\AppData\Local\Temp\ccK6sXYL.s 			page 7


 261              		.cfi_startproc
 262              		@ args = 0, pretend = 0, frame = 0
 263              		@ frame_needed = 0, uses_anonymous_args = 0
 264 0000 08B5     		push	{r3, lr}
 265              	.LCFI4:
 266              		.cfi_def_cfa_offset 8
 267              		.cfi_offset 3, -8
 268              		.cfi_offset 14, -4
  68:Bsp/periph_exti_irq.c ****     if (SET == EXTI_GetITStatus(EXTI_Line4))
 269              		.loc 1 68 5 view .LVU49
 270              		.loc 1 68 16 is_stmt 0 view .LVU50
 271 0002 1020     		movs	r0, #16
 272 0004 FFF7FEFF 		bl	EXTI_GetITStatus
 273              	.LVL24:
 274              		.loc 1 68 8 view .LVU51
 275 0008 0128     		cmp	r0, #1
 276 000a 00D0     		beq	.L25
 277              	.L21:
  69:Bsp/periph_exti_irq.c ****     {
  70:Bsp/periph_exti_irq.c ****         EXTI_ClearFlag(EXTI_Line4);
  71:Bsp/periph_exti_irq.c **** 
  72:Bsp/periph_exti_irq.c ****         if (periph_exti_GetCallback(EXTI_Line4) != NULL)
  73:Bsp/periph_exti_irq.c ****         {
  74:Bsp/periph_exti_irq.c ****             periph_exti_GetCallback(EXTI_Line4)();
  75:Bsp/periph_exti_irq.c ****         }
  76:Bsp/periph_exti_irq.c **** 
  77:Bsp/periph_exti_irq.c ****         EXTI_ClearITPendingBit(EXTI_Line4);
  78:Bsp/periph_exti_irq.c ****     }
  79:Bsp/periph_exti_irq.c **** }
 278              		.loc 1 79 1 view .LVU52
 279 000c 08BD     		pop	{r3, pc}
 280              	.L25:
  70:Bsp/periph_exti_irq.c **** 
 281              		.loc 1 70 9 is_stmt 1 view .LVU53
 282 000e 1020     		movs	r0, #16
 283 0010 FFF7FEFF 		bl	EXTI_ClearFlag
 284              	.LVL25:
  72:Bsp/periph_exti_irq.c ****         {
 285              		.loc 1 72 9 view .LVU54
  72:Bsp/periph_exti_irq.c ****         {
 286              		.loc 1 72 13 is_stmt 0 view .LVU55
 287 0014 1020     		movs	r0, #16
 288 0016 FFF7FEFF 		bl	periph_exti_GetCallback
 289              	.LVL26:
  72:Bsp/periph_exti_irq.c ****         {
 290              		.loc 1 72 12 view .LVU56
 291 001a 18B1     		cbz	r0, .L23
  74:Bsp/periph_exti_irq.c ****         }
 292              		.loc 1 74 13 is_stmt 1 view .LVU57
 293 001c 1020     		movs	r0, #16
 294 001e FFF7FEFF 		bl	periph_exti_GetCallback
 295              	.LVL27:
 296 0022 8047     		blx	r0
 297              	.LVL28:
 298              	.L23:
  77:Bsp/periph_exti_irq.c ****     }
 299              		.loc 1 77 9 view .LVU58
ARM GAS  C:\Users\huav\AppData\Local\Temp\ccK6sXYL.s 			page 8


 300 0024 1020     		movs	r0, #16
 301 0026 FFF7FEFF 		bl	EXTI_ClearITPendingBit
 302              	.LVL29:
 303              		.loc 1 79 1 is_stmt 0 view .LVU59
 304 002a EFE7     		b	.L21
 305              		.cfi_endproc
 306              	.LFE127:
 308              		.section	.text.EXTI9_5_IRQHandler,"ax",%progbits
 309              		.align	1
 310              		.global	EXTI9_5_IRQHandler
 311              		.syntax unified
 312              		.thumb
 313              		.thumb_func
 314              		.fpu fpv4-sp-d16
 316              	EXTI9_5_IRQHandler:
 317              	.LFB128:
  80:Bsp/periph_exti_irq.c **** 
  81:Bsp/periph_exti_irq.c **** void EXTI9_5_IRQHandler(void)
  82:Bsp/periph_exti_irq.c **** {
 318              		.loc 1 82 1 is_stmt 1 view -0
 319              		.cfi_startproc
 320              		@ args = 0, pretend = 0, frame = 0
 321              		@ frame_needed = 0, uses_anonymous_args = 0
 322 0000 08B5     		push	{r3, lr}
 323              	.LCFI5:
 324              		.cfi_def_cfa_offset 8
 325              		.cfi_offset 3, -8
 326              		.cfi_offset 14, -4
  83:Bsp/periph_exti_irq.c ****     if (SET == EXTI_GetITStatus(EXTI_Line5))
 327              		.loc 1 83 5 view .LVU61
 328              		.loc 1 83 16 is_stmt 0 view .LVU62
 329 0002 2020     		movs	r0, #32
 330 0004 FFF7FEFF 		bl	EXTI_GetITStatus
 331              	.LVL30:
 332              		.loc 1 83 8 view .LVU63
 333 0008 0128     		cmp	r0, #1
 334 000a 28D0     		beq	.L38
  84:Bsp/periph_exti_irq.c ****     {
  85:Bsp/periph_exti_irq.c ****         EXTI_ClearFlag(EXTI_Line5);
  86:Bsp/periph_exti_irq.c **** 
  87:Bsp/periph_exti_irq.c ****         if (periph_exti_GetCallback(EXTI_Line5) != NULL)
  88:Bsp/periph_exti_irq.c ****         {
  89:Bsp/periph_exti_irq.c ****             periph_exti_GetCallback(EXTI_Line5)();
  90:Bsp/periph_exti_irq.c ****         }
  91:Bsp/periph_exti_irq.c **** 
  92:Bsp/periph_exti_irq.c ****         EXTI_ClearITPendingBit(EXTI_Line5);
  93:Bsp/periph_exti_irq.c ****     }
  94:Bsp/periph_exti_irq.c ****     else if (SET == EXTI_GetITStatus(EXTI_Line6))
 335              		.loc 1 94 10 is_stmt 1 view .LVU64
 336              		.loc 1 94 21 is_stmt 0 view .LVU65
 337 000c 4020     		movs	r0, #64
 338 000e FFF7FEFF 		bl	EXTI_GetITStatus
 339              	.LVL31:
 340              		.loc 1 94 13 view .LVU66
 341 0012 0128     		cmp	r0, #1
 342 0014 32D0     		beq	.L39
  95:Bsp/periph_exti_irq.c ****     {
ARM GAS  C:\Users\huav\AppData\Local\Temp\ccK6sXYL.s 			page 9


  96:Bsp/periph_exti_irq.c ****         EXTI_ClearFlag(EXTI_Line6);
  97:Bsp/periph_exti_irq.c **** 
  98:Bsp/periph_exti_irq.c ****         if (periph_exti_GetCallback(EXTI_Line6) != NULL)
  99:Bsp/periph_exti_irq.c ****         {
 100:Bsp/periph_exti_irq.c ****             periph_exti_GetCallback(EXTI_Line6)();
 101:Bsp/periph_exti_irq.c ****         }
 102:Bsp/periph_exti_irq.c **** 
 103:Bsp/periph_exti_irq.c ****         EXTI_ClearITPendingBit(EXTI_Line6);
 104:Bsp/periph_exti_irq.c ****     }
 105:Bsp/periph_exti_irq.c ****     else if (SET == EXTI_GetITStatus(EXTI_Line7))
 343              		.loc 1 105 10 is_stmt 1 view .LVU67
 344              		.loc 1 105 21 is_stmt 0 view .LVU68
 345 0016 8020     		movs	r0, #128
 346 0018 FFF7FEFF 		bl	EXTI_GetITStatus
 347              	.LVL32:
 348              		.loc 1 105 13 view .LVU69
 349 001c 0128     		cmp	r0, #1
 350 001e 3CD0     		beq	.L40
 106:Bsp/periph_exti_irq.c ****     {
 107:Bsp/periph_exti_irq.c ****         EXTI_ClearFlag(EXTI_Line7);
 108:Bsp/periph_exti_irq.c **** 
 109:Bsp/periph_exti_irq.c ****         if (periph_exti_GetCallback(EXTI_Line7) != NULL)
 110:Bsp/periph_exti_irq.c ****         {
 111:Bsp/periph_exti_irq.c ****             periph_exti_GetCallback(EXTI_Line7)();
 112:Bsp/periph_exti_irq.c ****         }
 113:Bsp/periph_exti_irq.c **** 
 114:Bsp/periph_exti_irq.c ****         EXTI_ClearITPendingBit(EXTI_Line7);
 115:Bsp/periph_exti_irq.c ****     }
 116:Bsp/periph_exti_irq.c ****     else if (SET == EXTI_GetITStatus(EXTI_Line8))
 351              		.loc 1 116 10 is_stmt 1 view .LVU70
 352              		.loc 1 116 21 is_stmt 0 view .LVU71
 353 0020 4FF48070 		mov	r0, #256
 354 0024 FFF7FEFF 		bl	EXTI_GetITStatus
 355              	.LVL33:
 356              		.loc 1 116 13 view .LVU72
 357 0028 0128     		cmp	r0, #1
 358 002a 45D0     		beq	.L41
 117:Bsp/periph_exti_irq.c ****     {
 118:Bsp/periph_exti_irq.c ****         EXTI_ClearFlag(EXTI_Line8);
 119:Bsp/periph_exti_irq.c **** 
 120:Bsp/periph_exti_irq.c ****         if (periph_exti_GetCallback(EXTI_Line8) != NULL)
 121:Bsp/periph_exti_irq.c ****         {
 122:Bsp/periph_exti_irq.c ****             periph_exti_GetCallback(EXTI_Line8)();
 123:Bsp/periph_exti_irq.c ****         }
 124:Bsp/periph_exti_irq.c **** 
 125:Bsp/periph_exti_irq.c ****         EXTI_ClearITPendingBit(EXTI_Line8);
 126:Bsp/periph_exti_irq.c ****     }
 127:Bsp/periph_exti_irq.c ****     else if (SET == EXTI_GetITStatus(EXTI_Line9))
 359              		.loc 1 127 10 is_stmt 1 view .LVU73
 360              		.loc 1 127 21 is_stmt 0 view .LVU74
 361 002c 4FF40070 		mov	r0, #512
 362 0030 FFF7FEFF 		bl	EXTI_GetITStatus
 363              	.LVL34:
 364              		.loc 1 127 13 view .LVU75
 365 0034 0128     		cmp	r0, #1
 366 0036 20D1     		bne	.L26
 128:Bsp/periph_exti_irq.c ****     {
ARM GAS  C:\Users\huav\AppData\Local\Temp\ccK6sXYL.s 			page 10


 129:Bsp/periph_exti_irq.c ****         EXTI_ClearFlag(EXTI_Line9);
 367              		.loc 1 129 9 is_stmt 1 view .LVU76
 368 0038 4FF40070 		mov	r0, #512
 369 003c FFF7FEFF 		bl	EXTI_ClearFlag
 370              	.LVL35:
 130:Bsp/periph_exti_irq.c **** 
 131:Bsp/periph_exti_irq.c ****         if (periph_exti_GetCallback(EXTI_Line9) != NULL)
 371              		.loc 1 131 9 view .LVU77
 372              		.loc 1 131 13 is_stmt 0 view .LVU78
 373 0040 4FF40070 		mov	r0, #512
 374 0044 FFF7FEFF 		bl	periph_exti_GetCallback
 375              	.LVL36:
 376              		.loc 1 131 12 view .LVU79
 377 0048 20B1     		cbz	r0, .L36
 132:Bsp/periph_exti_irq.c ****         {
 133:Bsp/periph_exti_irq.c ****             periph_exti_GetCallback(EXTI_Line9)();
 378              		.loc 1 133 13 is_stmt 1 view .LVU80
 379 004a 4FF40070 		mov	r0, #512
 380 004e FFF7FEFF 		bl	periph_exti_GetCallback
 381              	.LVL37:
 382 0052 8047     		blx	r0
 383              	.LVL38:
 384              	.L36:
 134:Bsp/periph_exti_irq.c ****         }
 135:Bsp/periph_exti_irq.c **** 
 136:Bsp/periph_exti_irq.c ****         EXTI_ClearITPendingBit(EXTI_Line9);
 385              		.loc 1 136 9 view .LVU81
 386 0054 4FF40070 		mov	r0, #512
 387 0058 FFF7FEFF 		bl	EXTI_ClearITPendingBit
 388              	.LVL39:
 137:Bsp/periph_exti_irq.c ****     }
 138:Bsp/periph_exti_irq.c **** }
 389              		.loc 1 138 1 is_stmt 0 view .LVU82
 390 005c 0DE0     		b	.L26
 391              	.L38:
  85:Bsp/periph_exti_irq.c **** 
 392              		.loc 1 85 9 is_stmt 1 view .LVU83
 393 005e 2020     		movs	r0, #32
 394 0060 FFF7FEFF 		bl	EXTI_ClearFlag
 395              	.LVL40:
  87:Bsp/periph_exti_irq.c ****         {
 396              		.loc 1 87 9 view .LVU84
  87:Bsp/periph_exti_irq.c ****         {
 397              		.loc 1 87 13 is_stmt 0 view .LVU85
 398 0064 2020     		movs	r0, #32
 399 0066 FFF7FEFF 		bl	periph_exti_GetCallback
 400              	.LVL41:
  87:Bsp/periph_exti_irq.c ****         {
 401              		.loc 1 87 12 view .LVU86
 402 006a 18B1     		cbz	r0, .L28
  89:Bsp/periph_exti_irq.c ****         }
 403              		.loc 1 89 13 is_stmt 1 view .LVU87
 404 006c 2020     		movs	r0, #32
 405 006e FFF7FEFF 		bl	periph_exti_GetCallback
 406              	.LVL42:
 407 0072 8047     		blx	r0
 408              	.LVL43:
ARM GAS  C:\Users\huav\AppData\Local\Temp\ccK6sXYL.s 			page 11


 409              	.L28:
  92:Bsp/periph_exti_irq.c ****     }
 410              		.loc 1 92 9 view .LVU88
 411 0074 2020     		movs	r0, #32
 412 0076 FFF7FEFF 		bl	EXTI_ClearITPendingBit
 413              	.LVL44:
 414              	.L26:
 415              		.loc 1 138 1 is_stmt 0 view .LVU89
 416 007a 08BD     		pop	{r3, pc}
 417              	.L39:
  96:Bsp/periph_exti_irq.c **** 
 418              		.loc 1 96 9 is_stmt 1 view .LVU90
 419 007c 4020     		movs	r0, #64
 420 007e FFF7FEFF 		bl	EXTI_ClearFlag
 421              	.LVL45:
  98:Bsp/periph_exti_irq.c ****         {
 422              		.loc 1 98 9 view .LVU91
  98:Bsp/periph_exti_irq.c ****         {
 423              		.loc 1 98 13 is_stmt 0 view .LVU92
 424 0082 4020     		movs	r0, #64
 425 0084 FFF7FEFF 		bl	periph_exti_GetCallback
 426              	.LVL46:
  98:Bsp/periph_exti_irq.c ****         {
 427              		.loc 1 98 12 view .LVU93
 428 0088 18B1     		cbz	r0, .L31
 100:Bsp/periph_exti_irq.c ****         }
 429              		.loc 1 100 13 is_stmt 1 view .LVU94
 430 008a 4020     		movs	r0, #64
 431 008c FFF7FEFF 		bl	periph_exti_GetCallback
 432              	.LVL47:
 433 0090 8047     		blx	r0
 434              	.LVL48:
 435              	.L31:
 103:Bsp/periph_exti_irq.c ****     }
 436              		.loc 1 103 9 view .LVU95
 437 0092 4020     		movs	r0, #64
 438 0094 FFF7FEFF 		bl	EXTI_ClearITPendingBit
 439              	.LVL49:
 440 0098 EFE7     		b	.L26
 441              	.L40:
 107:Bsp/periph_exti_irq.c **** 
 442              		.loc 1 107 9 view .LVU96
 443 009a 8020     		movs	r0, #128
 444 009c FFF7FEFF 		bl	EXTI_ClearFlag
 445              	.LVL50:
 109:Bsp/periph_exti_irq.c ****         {
 446              		.loc 1 109 9 view .LVU97
 109:Bsp/periph_exti_irq.c ****         {
 447              		.loc 1 109 13 is_stmt 0 view .LVU98
 448 00a0 8020     		movs	r0, #128
 449 00a2 FFF7FEFF 		bl	periph_exti_GetCallback
 450              	.LVL51:
 109:Bsp/periph_exti_irq.c ****         {
 451              		.loc 1 109 12 view .LVU99
 452 00a6 18B1     		cbz	r0, .L33
 111:Bsp/periph_exti_irq.c ****         }
 453              		.loc 1 111 13 is_stmt 1 view .LVU100
ARM GAS  C:\Users\huav\AppData\Local\Temp\ccK6sXYL.s 			page 12


 454 00a8 8020     		movs	r0, #128
 455 00aa FFF7FEFF 		bl	periph_exti_GetCallback
 456              	.LVL52:
 457 00ae 8047     		blx	r0
 458              	.LVL53:
 459              	.L33:
 114:Bsp/periph_exti_irq.c ****     }
 460              		.loc 1 114 9 view .LVU101
 461 00b0 8020     		movs	r0, #128
 462 00b2 FFF7FEFF 		bl	EXTI_ClearITPendingBit
 463              	.LVL54:
 464 00b6 E0E7     		b	.L26
 465              	.L41:
 118:Bsp/periph_exti_irq.c **** 
 466              		.loc 1 118 9 view .LVU102
 467 00b8 4FF48070 		mov	r0, #256
 468 00bc FFF7FEFF 		bl	EXTI_ClearFlag
 469              	.LVL55:
 120:Bsp/periph_exti_irq.c ****         {
 470              		.loc 1 120 9 view .LVU103
 120:Bsp/periph_exti_irq.c ****         {
 471              		.loc 1 120 13 is_stmt 0 view .LVU104
 472 00c0 4FF48070 		mov	r0, #256
 473 00c4 FFF7FEFF 		bl	periph_exti_GetCallback
 474              	.LVL56:
 120:Bsp/periph_exti_irq.c ****         {
 475              		.loc 1 120 12 view .LVU105
 476 00c8 20B1     		cbz	r0, .L35
 122:Bsp/periph_exti_irq.c ****         }
 477              		.loc 1 122 13 is_stmt 1 view .LVU106
 478 00ca 4FF48070 		mov	r0, #256
 479 00ce FFF7FEFF 		bl	periph_exti_GetCallback
 480              	.LVL57:
 481 00d2 8047     		blx	r0
 482              	.LVL58:
 483              	.L35:
 125:Bsp/periph_exti_irq.c ****     }
 484              		.loc 1 125 9 view .LVU107
 485 00d4 4FF48070 		mov	r0, #256
 486 00d8 FFF7FEFF 		bl	EXTI_ClearITPendingBit
 487              	.LVL59:
 488 00dc CDE7     		b	.L26
 489              		.cfi_endproc
 490              	.LFE128:
 492              		.section	.text.EXTI15_10_IRQHandler,"ax",%progbits
 493              		.align	1
 494              		.global	EXTI15_10_IRQHandler
 495              		.syntax unified
 496              		.thumb
 497              		.thumb_func
 498              		.fpu fpv4-sp-d16
 500              	EXTI15_10_IRQHandler:
 501              	.LFB129:
 139:Bsp/periph_exti_irq.c **** 
 140:Bsp/periph_exti_irq.c **** void EXTI15_10_IRQHandler(void)
 141:Bsp/periph_exti_irq.c **** {
 502              		.loc 1 141 1 view -0
ARM GAS  C:\Users\huav\AppData\Local\Temp\ccK6sXYL.s 			page 13


 503              		.cfi_startproc
 504              		@ args = 0, pretend = 0, frame = 0
 505              		@ frame_needed = 0, uses_anonymous_args = 0
 506 0000 08B5     		push	{r3, lr}
 507              	.LCFI6:
 508              		.cfi_def_cfa_offset 8
 509              		.cfi_offset 3, -8
 510              		.cfi_offset 14, -4
 142:Bsp/periph_exti_irq.c ****     if (SET == EXTI_GetITStatus(EXTI_Line10))
 511              		.loc 1 142 5 view .LVU109
 512              		.loc 1 142 16 is_stmt 0 view .LVU110
 513 0002 4FF48060 		mov	r0, #1024
 514 0006 FFF7FEFF 		bl	EXTI_GetITStatus
 515              	.LVL60:
 516              		.loc 1 142 8 view .LVU111
 517 000a 0128     		cmp	r0, #1
 518 000c 30D0     		beq	.L56
 143:Bsp/periph_exti_irq.c ****     {
 144:Bsp/periph_exti_irq.c ****         EXTI_ClearFlag(EXTI_Line10);
 145:Bsp/periph_exti_irq.c **** 
 146:Bsp/periph_exti_irq.c ****         if (periph_exti_GetCallback(EXTI_Line10) != NULL)
 147:Bsp/periph_exti_irq.c ****         {
 148:Bsp/periph_exti_irq.c ****             periph_exti_GetCallback(EXTI_Line10)();
 149:Bsp/periph_exti_irq.c ****         }
 150:Bsp/periph_exti_irq.c **** 
 151:Bsp/periph_exti_irq.c ****         EXTI_ClearITPendingBit(EXTI_Line10);
 152:Bsp/periph_exti_irq.c ****     }
 153:Bsp/periph_exti_irq.c ****     else if (SET == EXTI_GetITStatus(EXTI_Line11))
 519              		.loc 1 153 10 is_stmt 1 view .LVU112
 520              		.loc 1 153 21 is_stmt 0 view .LVU113
 521 000e 4FF40060 		mov	r0, #2048
 522 0012 FFF7FEFF 		bl	EXTI_GetITStatus
 523              	.LVL61:
 524              		.loc 1 153 13 view .LVU114
 525 0016 0128     		cmp	r0, #1
 526 0018 3DD0     		beq	.L57
 154:Bsp/periph_exti_irq.c ****     {
 155:Bsp/periph_exti_irq.c ****         EXTI_ClearFlag(EXTI_Line11);
 156:Bsp/periph_exti_irq.c **** 
 157:Bsp/periph_exti_irq.c ****         if (periph_exti_GetCallback(EXTI_Line11) != NULL)
 158:Bsp/periph_exti_irq.c ****         {
 159:Bsp/periph_exti_irq.c ****             periph_exti_GetCallback(EXTI_Line11)();
 160:Bsp/periph_exti_irq.c ****         }
 161:Bsp/periph_exti_irq.c **** 
 162:Bsp/periph_exti_irq.c ****         EXTI_ClearITPendingBit(EXTI_Line11);
 163:Bsp/periph_exti_irq.c ****     }
 164:Bsp/periph_exti_irq.c ****     else if (SET == EXTI_GetITStatus(EXTI_Line12))
 527              		.loc 1 164 10 is_stmt 1 view .LVU115
 528              		.loc 1 164 21 is_stmt 0 view .LVU116
 529 001a 4FF48050 		mov	r0, #4096
 530 001e FFF7FEFF 		bl	EXTI_GetITStatus
 531              	.LVL62:
 532              		.loc 1 164 13 view .LVU117
 533 0022 0128     		cmp	r0, #1
 534 0024 4AD0     		beq	.L58
 165:Bsp/periph_exti_irq.c ****     {
 166:Bsp/periph_exti_irq.c ****         EXTI_ClearFlag(EXTI_Line12);
ARM GAS  C:\Users\huav\AppData\Local\Temp\ccK6sXYL.s 			page 14


 167:Bsp/periph_exti_irq.c **** 
 168:Bsp/periph_exti_irq.c ****         if (periph_exti_GetCallback(EXTI_Line12) != NULL)
 169:Bsp/periph_exti_irq.c ****         {
 170:Bsp/periph_exti_irq.c ****             periph_exti_GetCallback(EXTI_Line12)();
 171:Bsp/periph_exti_irq.c ****         }
 172:Bsp/periph_exti_irq.c **** 
 173:Bsp/periph_exti_irq.c ****         EXTI_ClearITPendingBit(EXTI_Line12);
 174:Bsp/periph_exti_irq.c ****     }
 175:Bsp/periph_exti_irq.c ****     else if (SET == EXTI_GetITStatus(EXTI_Line13))
 535              		.loc 1 175 10 is_stmt 1 view .LVU118
 536              		.loc 1 175 21 is_stmt 0 view .LVU119
 537 0026 4FF40050 		mov	r0, #8192
 538 002a FFF7FEFF 		bl	EXTI_GetITStatus
 539              	.LVL63:
 540              		.loc 1 175 13 view .LVU120
 541 002e 0128     		cmp	r0, #1
 542 0030 57D0     		beq	.L59
 176:Bsp/periph_exti_irq.c ****     {
 177:Bsp/periph_exti_irq.c ****         EXTI_ClearFlag(EXTI_Line13);
 178:Bsp/periph_exti_irq.c **** 
 179:Bsp/periph_exti_irq.c ****         if (periph_exti_GetCallback(EXTI_Line13) != NULL)
 180:Bsp/periph_exti_irq.c ****         {
 181:Bsp/periph_exti_irq.c ****             periph_exti_GetCallback(EXTI_Line13)();
 182:Bsp/periph_exti_irq.c ****         }
 183:Bsp/periph_exti_irq.c **** 
 184:Bsp/periph_exti_irq.c ****         EXTI_ClearITPendingBit(EXTI_Line13);
 185:Bsp/periph_exti_irq.c ****     }
 186:Bsp/periph_exti_irq.c ****     else if (SET == EXTI_GetITStatus(EXTI_Line14))
 543              		.loc 1 186 10 is_stmt 1 view .LVU121
 544              		.loc 1 186 21 is_stmt 0 view .LVU122
 545 0032 4FF48040 		mov	r0, #16384
 546 0036 FFF7FEFF 		bl	EXTI_GetITStatus
 547              	.LVL64:
 548              		.loc 1 186 13 view .LVU123
 549 003a 0128     		cmp	r0, #1
 550 003c 64D0     		beq	.L60
 187:Bsp/periph_exti_irq.c ****     {
 188:Bsp/periph_exti_irq.c ****         EXTI_ClearFlag(EXTI_Line14);
 189:Bsp/periph_exti_irq.c **** 
 190:Bsp/periph_exti_irq.c ****         if (periph_exti_GetCallback(EXTI_Line14) != NULL)
 191:Bsp/periph_exti_irq.c ****         {
 192:Bsp/periph_exti_irq.c ****             periph_exti_GetCallback(EXTI_Line14)();
 193:Bsp/periph_exti_irq.c ****         }
 194:Bsp/periph_exti_irq.c **** 
 195:Bsp/periph_exti_irq.c ****         EXTI_ClearITPendingBit(EXTI_Line14);
 196:Bsp/periph_exti_irq.c ****     }
 197:Bsp/periph_exti_irq.c ****     else if (SET == EXTI_GetITStatus(EXTI_Line15))
 551              		.loc 1 197 10 is_stmt 1 view .LVU124
 552              		.loc 1 197 21 is_stmt 0 view .LVU125
 553 003e 4FF40040 		mov	r0, #32768
 554 0042 FFF7FEFF 		bl	EXTI_GetITStatus
 555              	.LVL65:
 556              		.loc 1 197 13 view .LVU126
 557 0046 0128     		cmp	r0, #1
 558 0048 24D1     		bne	.L42
 198:Bsp/periph_exti_irq.c ****     {
 199:Bsp/periph_exti_irq.c ****         EXTI_ClearFlag(EXTI_Line15);
ARM GAS  C:\Users\huav\AppData\Local\Temp\ccK6sXYL.s 			page 15


 559              		.loc 1 199 9 is_stmt 1 view .LVU127
 560 004a 4FF40040 		mov	r0, #32768
 561 004e FFF7FEFF 		bl	EXTI_ClearFlag
 562              	.LVL66:
 200:Bsp/periph_exti_irq.c **** 
 201:Bsp/periph_exti_irq.c ****         if (periph_exti_GetCallback(EXTI_Line15) != NULL)
 563              		.loc 1 201 9 view .LVU128
 564              		.loc 1 201 13 is_stmt 0 view .LVU129
 565 0052 4FF40040 		mov	r0, #32768
 566 0056 FFF7FEFF 		bl	periph_exti_GetCallback
 567              	.LVL67:
 568              		.loc 1 201 12 view .LVU130
 569 005a 20B1     		cbz	r0, .L54
 202:Bsp/periph_exti_irq.c ****         {
 203:Bsp/periph_exti_irq.c ****             periph_exti_GetCallback(EXTI_Line15)();
 570              		.loc 1 203 13 is_stmt 1 view .LVU131
 571 005c 4FF40040 		mov	r0, #32768
 572 0060 FFF7FEFF 		bl	periph_exti_GetCallback
 573              	.LVL68:
 574 0064 8047     		blx	r0
 575              	.LVL69:
 576              	.L54:
 204:Bsp/periph_exti_irq.c ****         }
 205:Bsp/periph_exti_irq.c **** 
 206:Bsp/periph_exti_irq.c ****         EXTI_ClearITPendingBit(EXTI_Line15);
 577              		.loc 1 206 9 view .LVU132
 578 0066 4FF40040 		mov	r0, #32768
 579 006a FFF7FEFF 		bl	EXTI_ClearITPendingBit
 580              	.LVL70:
 207:Bsp/periph_exti_irq.c ****     }
 208:Bsp/periph_exti_irq.c **** }...
 581              		.loc 1 208 1 is_stmt 0 view .LVU133
 582 006e 11E0     		b	.L42
 583              	.L56:
 144:Bsp/periph_exti_irq.c ****         EXTI_ClearFlag(EXTI_Line10);
 584              		.loc 1 144 9 is_stmt 1 view .LVU134
 585 0070 4FF48060 		mov	r0, #1024
 586 0074 FFF7FEFF 		bl	EXTI_ClearFlag
 587              	.LVL71:
 146:Bsp/periph_exti_irq.c ****         if (periph_exti_GetCallback(EXTI_Line10) != NULL)
 588              		.loc 1 146 9 view .LVU135
 146:Bsp/periph_exti_irq.c ****         if (periph_exti_GetCallback(EXTI_Line10) != NULL)
 589              		.loc 1 146 13 is_stmt 0 view .LVU136
 590 0078 4FF48060 		mov	r0, #1024
 591 007c FFF7FEFF 		bl	periph_exti_GetCallback
 592              	.LVL72:
 146:Bsp/periph_exti_irq.c ****         if (periph_exti_GetCallback(EXTI_Line10) != NULL)
 593              		.loc 1 146 12 view .LVU137
 594 0080 20B1     		cbz	r0, .L44
 148:Bsp/periph_exti_irq.c ****             periph_exti_GetCallback(EXTI_Line10)();
 595              		.loc 1 148 13 is_stmt 1 view .LVU138
 596 0082 4FF48060 		mov	r0, #1024
 597 0086 FFF7FEFF 		bl	periph_exti_GetCallback
 598              	.LVL73:
 599 008a 8047     		blx	r0
 600              	.LVL74:
 601              	.L44:
ARM GAS  C:\Users\huav\AppData\Local\Temp\ccK6sXYL.s 			page 16


 151:Bsp/periph_exti_irq.c ****         EXTI_ClearITPendingBit(EXTI_Line10);
 602              		.loc 1 151 9 view .LVU139
 603 008c 4FF48060 		mov	r0, #1024
 604 0090 FFF7FEFF 		bl	EXTI_ClearITPendingBit
 605              	.LVL75:
 606              	.L42:
 607              		.loc 1 208 1 is_stmt 0 view .LVU140
 608 0094 08BD     		pop	{r3, pc}
 609              	.L57:
 155:Bsp/periph_exti_irq.c ****         EXTI_ClearFlag(EXTI_Line11);
 610              		.loc 1 155 9 is_stmt 1 view .LVU141
 611 0096 4FF40060 		mov	r0, #2048
 612 009a FFF7FEFF 		bl	EXTI_ClearFlag
 613              	.LVL76:
 157:Bsp/periph_exti_irq.c ****         if (periph_exti_GetCallback(EXTI_Line11) != NULL)
 614              		.loc 1 157 9 view .LVU142
 157:Bsp/periph_exti_irq.c ****         if (periph_exti_GetCallback(EXTI_Line11) != NULL)
 615              		.loc 1 157 13 is_stmt 0 view .LVU143
 616 009e 4FF40060 		mov	r0, #2048
 617 00a2 FFF7FEFF 		bl	periph_exti_GetCallback
 618              	.LVL77:
 157:Bsp/periph_exti_irq.c ****         if (periph_exti_GetCallback(EXTI_Line11) != NULL)
 619              		.loc 1 157 12 view .LVU144
 620 00a6 20B1     		cbz	r0, .L47
 159:Bsp/periph_exti_irq.c ****             periph_exti_GetCallback(EXTI_Line11)();
 621              		.loc 1 159 13 is_stmt 1 view .LVU145
 622 00a8 4FF40060 		mov	r0, #2048
 623 00ac FFF7FEFF 		bl	periph_exti_GetCallback
 624              	.LVL78:
 625 00b0 8047     		blx	r0
 626              	.LVL79:
 627              	.L47:
 162:Bsp/periph_exti_irq.c ****         EXTI_ClearITPendingBit(EXTI_Line11);
 628              		.loc 1 162 9 view .LVU146
 629 00b2 4FF40060 		mov	r0, #2048
 630 00b6 FFF7FEFF 		bl	EXTI_ClearITPendingBit
 631              	.LVL80:
 632 00ba EBE7     		b	.L42
 633              	.L58:
 166:Bsp/periph_exti_irq.c ****         EXTI_ClearFlag(EXTI_Line12);
 634              		.loc 1 166 9 view .LVU147
 635 00bc 4FF48050 		mov	r0, #4096
 636 00c0 FFF7FEFF 		bl	EXTI_ClearFlag
 637              	.LVL81:
 168:Bsp/periph_exti_irq.c ****         if (periph_exti_GetCallback(EXTI_Line12) != NULL)
 638              		.loc 1 168 9 view .LVU148
 168:Bsp/periph_exti_irq.c ****         if (periph_exti_GetCallback(EXTI_Line12) != NULL)
 639              		.loc 1 168 13 is_stmt 0 view .LVU149
 640 00c4 4FF48050 		mov	r0, #4096
 641 00c8 FFF7FEFF 		bl	periph_exti_GetCallback
 642              	.LVL82:
 168:Bsp/periph_exti_irq.c ****         if (periph_exti_GetCallback(EXTI_Line12) != NULL)
 643              		.loc 1 168 12 view .LVU150
 644 00cc 20B1     		cbz	r0, .L49
 170:Bsp/periph_exti_irq.c ****             periph_exti_GetCallback(EXTI_Line12)();
 645              		.loc 1 170 13 is_stmt 1 view .LVU151
 646 00ce 4FF48050 		mov	r0, #4096
ARM GAS  C:\Users\huav\AppData\Local\Temp\ccK6sXYL.s 			page 17


 647 00d2 FFF7FEFF 		bl	periph_exti_GetCallback
 648              	.LVL83:
 649 00d6 8047     		blx	r0
 650              	.LVL84:
 651              	.L49:
 173:Bsp/periph_exti_irq.c ****         EXTI_ClearITPendingBit(EXTI_Line12);
 652              		.loc 1 173 9 view .LVU152
 653 00d8 4FF48050 		mov	r0, #4096
 654 00dc FFF7FEFF 		bl	EXTI_ClearITPendingBit
 655              	.LVL85:
 656 00e0 D8E7     		b	.L42
 657              	.L59:
 177:Bsp/periph_exti_irq.c ****         EXTI_ClearFlag(EXTI_Line13);
 658              		.loc 1 177 9 view .LVU153
 659 00e2 4FF40050 		mov	r0, #8192
 660 00e6 FFF7FEFF 		bl	EXTI_ClearFlag
 661              	.LVL86:
 179:Bsp/periph_exti_irq.c ****         if (periph_exti_GetCallback(EXTI_Line13) != NULL)
 662              		.loc 1 179 9 view .LVU154
 179:Bsp/periph_exti_irq.c ****         if (periph_exti_GetCallback(EXTI_Line13) != NULL)
 663              		.loc 1 179 13 is_stmt 0 view .LVU155
 664 00ea 4FF40050 		mov	r0, #8192
 665 00ee FFF7FEFF 		bl	periph_exti_GetCallback
 666              	.LVL87:
 179:Bsp/periph_exti_irq.c ****         if (periph_exti_GetCallback(EXTI_Line13) != NULL)
 667              		.loc 1 179 12 view .LVU156
 668 00f2 20B1     		cbz	r0, .L51
 181:Bsp/periph_exti_irq.c ****             periph_exti_GetCallback(EXTI_Line13)();
 669              		.loc 1 181 13 is_stmt 1 view .LVU157
 670 00f4 4FF40050 		mov	r0, #8192
 671 00f8 FFF7FEFF 		bl	periph_exti_GetCallback
 672              	.LVL88:
 673 00fc 8047     		blx	r0
 674              	.LVL89:
 675              	.L51:
 184:Bsp/periph_exti_irq.c ****         EXTI_ClearITPendingBit(EXTI_Line13);
 676              		.loc 1 184 9 view .LVU158
 677 00fe 4FF40050 		mov	r0, #8192
 678 0102 FFF7FEFF 		bl	EXTI_ClearITPendingBit
 679              	.LVL90:
 680 0106 C5E7     		b	.L42
 681              	.L60:
 188:Bsp/periph_exti_irq.c ****         EXTI_ClearFlag(EXTI_Line14);
 682              		.loc 1 188 9 view .LVU159
 683 0108 4FF48040 		mov	r0, #16384
 684 010c FFF7FEFF 		bl	EXTI_ClearFlag
 685              	.LVL91:
 190:Bsp/periph_exti_irq.c ****         if (periph_exti_GetCallback(EXTI_Line14) != NULL)
 686              		.loc 1 190 9 view .LVU160
 190:Bsp/periph_exti_irq.c ****         if (periph_exti_GetCallback(EXTI_Line14) != NULL)
 687              		.loc 1 190 13 is_stmt 0 view .LVU161
 688 0110 4FF48040 		mov	r0, #16384
 689 0114 FFF7FEFF 		bl	periph_exti_GetCallback
 690              	.LVL92:
 190:Bsp/periph_exti_irq.c ****         if (periph_exti_GetCallback(EXTI_Line14) != NULL)
 691              		.loc 1 190 12 view .LVU162
 692 0118 20B1     		cbz	r0, .L53
ARM GAS  C:\Users\huav\AppData\Local\Temp\ccK6sXYL.s 			page 18


 192:Bsp/periph_exti_irq.c ****             periph_exti_GetCallback(EXTI_Line14)();
 693              		.loc 1 192 13 is_stmt 1 view .LVU163
 694 011a 4FF48040 		mov	r0, #16384
 695 011e FFF7FEFF 		bl	periph_exti_GetCallback
 696              	.LVL93:
 697 0122 8047     		blx	r0
 698              	.LVL94:
 699              	.L53:
 195:Bsp/periph_exti_irq.c ****         EXTI_ClearITPendingBit(EXTI_Line14);
 700              		.loc 1 195 9 view .LVU164
 701 0124 4FF48040 		mov	r0, #16384
 702 0128 FFF7FEFF 		bl	EXTI_ClearITPendingBit
 703              	.LVL95:
 704 012c B2E7     		b	.L42
 705              		.cfi_endproc
 706              	.LFE129:
 708              		.text
 709              	.Letext0:
 710              		.file 2 "c:\\program files (x86)\\gnu arm embedded toolchain\\10 2020-q4-major\\arm-none-eabi\\inc
 711              		.file 3 "c:\\program files (x86)\\gnu arm embedded toolchain\\10 2020-q4-major\\arm-none-eabi\\inc
 712              		.file 4 "FWLIB/inc/stm32f4xx_exti.h"
 713              		.file 5 "Bsp/periph_exti.h"
 714              		.file 6 "USER/stm32f4xx.h"
ARM GAS  C:\Users\huav\AppData\Local\Temp\ccK6sXYL.s 			page 19

