ARM GAS  /var/folders/lx/hc4sn_b53233_zkc9xbbl97r0000gp/T//cc1STna2.s 			page 1


   1              		.cpu cortex-m4
   2              		.eabi_attribute 27, 1
   3              		.eabi_attribute 28, 1
   4              		.eabi_attribute 20, 1
   5              		.eabi_attribute 21, 1
   6              		.eabi_attribute 23, 3
   7              		.eabi_attribute 24, 1
   8              		.eabi_attribute 25, 1
   9              		.eabi_attribute 26, 1
  10              		.eabi_attribute 30, 1
  11              		.eabi_attribute 34, 1
  12              		.eabi_attribute 18, 4
  13              		.file	"periph_serial_irq.c"
  14              		.text
  15              	.Ltext0:
  16              		.cfi_sections	.debug_frame
  17              		.section	.text.USART1_IRQHandler,"ax",%progbits
  18              		.align	1
  19              		.global	USART1_IRQHandler
  20              		.arch armv7e-m
  21              		.syntax unified
  22              		.thumb
  23              		.thumb_func
  24              		.fpu fpv4-sp-d16
  26              	USART1_IRQHandler:
  27              	.LFB123:
  28              		.file 1 "Bsp/periph_serial_irq.c"
   1:Bsp/periph_serial_irq.c **** #include "periph_serial_irq.h"
   2:Bsp/periph_serial_irq.c **** #include "periph_serial.h"
   3:Bsp/periph_serial_irq.c **** #include "periph_gpio.h"
   4:Bsp/periph_serial_irq.c **** #include "periph_dma.h"
   5:Bsp/periph_serial_irq.c **** #include "string.h"
   6:Bsp/periph_serial_irq.c **** #include "stm32f4xx_usart.h"
   7:Bsp/periph_serial_irq.c **** #include "stm32f4xx_dma.h"
   8:Bsp/periph_serial_irq.c **** 
   9:Bsp/periph_serial_irq.c **** #define PCK_MAX 256
  10:Bsp/periph_serial_irq.c **** 
  11:Bsp/periph_serial_irq.c **** void USART1_IRQHandler(void)
  12:Bsp/periph_serial_irq.c **** {
  29              		.loc 1 12 1 view -0
  30              		.cfi_startproc
  31              		@ args = 0, pretend = 0, frame = 0
  32              		@ frame_needed = 0, uses_anonymous_args = 0
  33 0000 10B5     		push	{r4, lr}
  34              	.LCFI0:
  35              		.cfi_def_cfa_offset 8
  36              		.cfi_offset 4, -8
  37              		.cfi_offset 14, -4
  13:Bsp/periph_serial_irq.c **** 	uint8_t rec;
  38              		.loc 1 13 2 view .LVU1
  14:Bsp/periph_serial_irq.c **** 	static u8 rec_len = 0;
  39              		.loc 1 14 2 view .LVU2
  15:Bsp/periph_serial_irq.c **** 	static u8 rec_enable = 0;
  40              		.loc 1 15 2 view .LVU3
  16:Bsp/periph_serial_irq.c **** 
  17:Bsp/periph_serial_irq.c **** 	if (USART_GetITStatus(USART1, USART_IT_RXNE) != RESET)
  41              		.loc 1 17 2 view .LVU4
ARM GAS  /var/folders/lx/hc4sn_b53233_zkc9xbbl97r0000gp/T//cc1STna2.s 			page 2


  42              		.loc 1 17 6 is_stmt 0 view .LVU5
  43 0002 40F22551 		movw	r1, #1317
  44 0006 1748     		ldr	r0, .L7
  45 0008 FFF7FEFF 		bl	USART_GetITStatus
  46              	.LVL0:
  47              		.loc 1 17 5 view .LVU6
  48 000c 30B9     		cbnz	r0, .L5
  49              	.L2:
  18:Bsp/periph_serial_irq.c **** 	{
  19:Bsp/periph_serial_irq.c **** 		rec = USART_ReceiveData(USART1);
  20:Bsp/periph_serial_irq.c **** 
  21:Bsp/periph_serial_irq.c **** 		USART_ClearITPendingBit(USART1, USART_IT_RXNE);
  22:Bsp/periph_serial_irq.c **** 	}
  23:Bsp/periph_serial_irq.c **** 
  24:Bsp/periph_serial_irq.c **** 	if (USART_GetITStatus(USART1, USART_IT_IDLE) != RESET)
  50              		.loc 1 24 2 is_stmt 1 view .LVU7
  51              		.loc 1 24 6 is_stmt 0 view .LVU8
  52 000e 40F22441 		movw	r1, #1060
  53 0012 1448     		ldr	r0, .L7
  54 0014 FFF7FEFF 		bl	USART_GetITStatus
  55              	.LVL1:
  56              		.loc 1 24 5 view .LVU9
  57 0018 50B9     		cbnz	r0, .L6
  58              	.L1:
  25:Bsp/periph_serial_irq.c **** 	{
  26:Bsp/periph_serial_irq.c **** 		DMA_Cmd(Serial1_DMA_RX_Stream, DISABLE);
  27:Bsp/periph_serial_irq.c **** 
  28:Bsp/periph_serial_irq.c **** 		rec = USART1->DR;
  29:Bsp/periph_serial_irq.c **** 		rec = USART1->SR;
  30:Bsp/periph_serial_irq.c **** 
  31:Bsp/periph_serial_irq.c **** 		rec = DMA_GetCurrDataCounter(Serial1_DMA_RX_Stream);
  32:Bsp/periph_serial_irq.c **** 		DMA_ClearFlag(Serial1_DMA_RX_Stream, DMA_FLAG_TCIF5);
  33:Bsp/periph_serial_irq.c **** 		DMA_SetCurrDataCounter(Serial1_DMA_RX_Stream, PCK_MAX);
  34:Bsp/periph_serial_irq.c **** 		DMA_Cmd(Serial1_DMA_RX_Stream, ENABLE);
  35:Bsp/periph_serial_irq.c **** 	}
  36:Bsp/periph_serial_irq.c **** }
  59              		.loc 1 36 1 view .LVU10
  60 001a 10BD     		pop	{r4, pc}
  61              	.L5:
  19:Bsp/periph_serial_irq.c **** 
  62              		.loc 1 19 3 is_stmt 1 view .LVU11
  19:Bsp/periph_serial_irq.c **** 
  63              		.loc 1 19 9 is_stmt 0 view .LVU12
  64 001c 114C     		ldr	r4, .L7
  65 001e 2046     		mov	r0, r4
  66 0020 FFF7FEFF 		bl	USART_ReceiveData
  67              	.LVL2:
  21:Bsp/periph_serial_irq.c **** 	}
  68              		.loc 1 21 3 is_stmt 1 view .LVU13
  69 0024 40F22551 		movw	r1, #1317
  70 0028 2046     		mov	r0, r4
  71 002a FFF7FEFF 		bl	USART_ClearITPendingBit
  72              	.LVL3:
  73 002e EEE7     		b	.L2
  74              	.L6:
  26:Bsp/periph_serial_irq.c **** 
  75              		.loc 1 26 3 view .LVU14
ARM GAS  /var/folders/lx/hc4sn_b53233_zkc9xbbl97r0000gp/T//cc1STna2.s 			page 3


  76 0030 0D4C     		ldr	r4, .L7+4
  77 0032 0021     		movs	r1, #0
  78 0034 2046     		mov	r0, r4
  79 0036 FFF7FEFF 		bl	DMA_Cmd
  80              	.LVL4:
  28:Bsp/periph_serial_irq.c **** 		rec = USART1->SR;
  81              		.loc 1 28 3 view .LVU15
  28:Bsp/periph_serial_irq.c **** 		rec = USART1->SR;
  82              		.loc 1 28 15 is_stmt 0 view .LVU16
  83 003a 0A4B     		ldr	r3, .L7
  84 003c 9A88     		ldrh	r2, [r3, #4]
  85              	.LVL5:
  29:Bsp/periph_serial_irq.c **** 
  86              		.loc 1 29 3 is_stmt 1 view .LVU17
  29:Bsp/periph_serial_irq.c **** 
  87              		.loc 1 29 15 is_stmt 0 view .LVU18
  88 003e 1B88     		ldrh	r3, [r3]
  31:Bsp/periph_serial_irq.c **** 		DMA_ClearFlag(Serial1_DMA_RX_Stream, DMA_FLAG_TCIF5);
  89              		.loc 1 31 3 is_stmt 1 view .LVU19
  31:Bsp/periph_serial_irq.c **** 		DMA_ClearFlag(Serial1_DMA_RX_Stream, DMA_FLAG_TCIF5);
  90              		.loc 1 31 9 is_stmt 0 view .LVU20
  91 0040 2046     		mov	r0, r4
  92 0042 FFF7FEFF 		bl	DMA_GetCurrDataCounter
  93              	.LVL6:
  32:Bsp/periph_serial_irq.c **** 		DMA_SetCurrDataCounter(Serial1_DMA_RX_Stream, PCK_MAX);
  94              		.loc 1 32 3 is_stmt 1 view .LVU21
  95 0046 0949     		ldr	r1, .L7+8
  96 0048 2046     		mov	r0, r4
  97 004a FFF7FEFF 		bl	DMA_ClearFlag
  98              	.LVL7:
  33:Bsp/periph_serial_irq.c **** 		DMA_Cmd(Serial1_DMA_RX_Stream, ENABLE);
  99              		.loc 1 33 3 view .LVU22
 100 004e 4FF48071 		mov	r1, #256
 101 0052 2046     		mov	r0, r4
 102 0054 FFF7FEFF 		bl	DMA_SetCurrDataCounter
 103              	.LVL8:
  34:Bsp/periph_serial_irq.c **** 	}
 104              		.loc 1 34 3 view .LVU23
 105 0058 0121     		movs	r1, #1
 106 005a 2046     		mov	r0, r4
 107 005c FFF7FEFF 		bl	DMA_Cmd
 108              	.LVL9:
 109              		.loc 1 36 1 is_stmt 0 view .LVU24
 110 0060 DBE7     		b	.L1
 111              	.L8:
 112 0062 00BF     		.align	2
 113              	.L7:
 114 0064 00100140 		.word	1073811456
 115 0068 88640240 		.word	1073898632
 116 006c 00080020 		.word	536872960
 117              		.cfi_endproc
 118              	.LFE123:
 120              		.section	.text.USART2_IRQHandler,"ax",%progbits
 121              		.align	1
 122              		.global	USART2_IRQHandler
 123              		.syntax unified
 124              		.thumb
ARM GAS  /var/folders/lx/hc4sn_b53233_zkc9xbbl97r0000gp/T//cc1STna2.s 			page 4


 125              		.thumb_func
 126              		.fpu fpv4-sp-d16
 128              	USART2_IRQHandler:
 129              	.LFB124:
  37:Bsp/periph_serial_irq.c **** 
  38:Bsp/periph_serial_irq.c **** void USART2_IRQHandler(void)
  39:Bsp/periph_serial_irq.c **** {
 130              		.loc 1 39 1 is_stmt 1 view -0
 131              		.cfi_startproc
 132              		@ args = 0, pretend = 0, frame = 0
 133              		@ frame_needed = 0, uses_anonymous_args = 0
 134 0000 10B5     		push	{r4, lr}
 135              	.LCFI1:
 136              		.cfi_def_cfa_offset 8
 137              		.cfi_offset 4, -8
 138              		.cfi_offset 14, -4
  40:Bsp/periph_serial_irq.c **** 	uint8_t rec;
 139              		.loc 1 40 2 view .LVU26
  41:Bsp/periph_serial_irq.c **** 
  42:Bsp/periph_serial_irq.c **** 	if (USART_GetITStatus(USART2, USART_IT_RXNE) != RESET)
 140              		.loc 1 42 2 view .LVU27
 141              		.loc 1 42 6 is_stmt 0 view .LVU28
 142 0002 40F22551 		movw	r1, #1317
 143 0006 1748     		ldr	r0, .L15
 144 0008 FFF7FEFF 		bl	USART_GetITStatus
 145              	.LVL10:
 146              		.loc 1 42 5 view .LVU29
 147 000c 30B9     		cbnz	r0, .L13
 148              	.L10:
  43:Bsp/periph_serial_irq.c **** 	{
  44:Bsp/periph_serial_irq.c **** 		rec = USART_ReceiveData(USART2);
  45:Bsp/periph_serial_irq.c **** 		USART_ClearITPendingBit(USART2, USART_IT_RXNE);
  46:Bsp/periph_serial_irq.c **** 	}
  47:Bsp/periph_serial_irq.c **** 
  48:Bsp/periph_serial_irq.c **** 	if (USART_GetITStatus(USART2, USART_IT_IDLE) != RESET)
 149              		.loc 1 48 2 is_stmt 1 view .LVU30
 150              		.loc 1 48 6 is_stmt 0 view .LVU31
 151 000e 40F22441 		movw	r1, #1060
 152 0012 1448     		ldr	r0, .L15
 153 0014 FFF7FEFF 		bl	USART_GetITStatus
 154              	.LVL11:
 155              		.loc 1 48 5 view .LVU32
 156 0018 50B9     		cbnz	r0, .L14
 157              	.L9:
  49:Bsp/periph_serial_irq.c **** 	{
  50:Bsp/periph_serial_irq.c **** 		DMA_Cmd(Serial2_DMA_RX_Stream, DISABLE);
  51:Bsp/periph_serial_irq.c **** 
  52:Bsp/periph_serial_irq.c **** 		rec = USART2->DR;
  53:Bsp/periph_serial_irq.c **** 		rec = USART2->SR;
  54:Bsp/periph_serial_irq.c **** 
  55:Bsp/periph_serial_irq.c **** 		rec = DMA_GetCurrDataCounter(Serial2_DMA_RX_Stream);
  56:Bsp/periph_serial_irq.c **** 		DMA_ClearFlag(Serial2_DMA_RX_Stream, DMA_FLAG_TCIF5);
  57:Bsp/periph_serial_irq.c **** 		DMA_SetCurrDataCounter(Serial2_DMA_RX_Stream, PCK_MAX);
  58:Bsp/periph_serial_irq.c **** 		DMA_Cmd(Serial2_DMA_RX_Stream, ENABLE);
  59:Bsp/periph_serial_irq.c **** 	}
  60:Bsp/periph_serial_irq.c **** }
 158              		.loc 1 60 1 view .LVU33
ARM GAS  /var/folders/lx/hc4sn_b53233_zkc9xbbl97r0000gp/T//cc1STna2.s 			page 5


 159 001a 10BD     		pop	{r4, pc}
 160              	.L13:
  44:Bsp/periph_serial_irq.c **** 		USART_ClearITPendingBit(USART2, USART_IT_RXNE);
 161              		.loc 1 44 3 is_stmt 1 view .LVU34
  44:Bsp/periph_serial_irq.c **** 		USART_ClearITPendingBit(USART2, USART_IT_RXNE);
 162              		.loc 1 44 9 is_stmt 0 view .LVU35
 163 001c 114C     		ldr	r4, .L15
 164 001e 2046     		mov	r0, r4
 165 0020 FFF7FEFF 		bl	USART_ReceiveData
 166              	.LVL12:
  45:Bsp/periph_serial_irq.c **** 	}
 167              		.loc 1 45 3 is_stmt 1 view .LVU36
 168 0024 40F22551 		movw	r1, #1317
 169 0028 2046     		mov	r0, r4
 170 002a FFF7FEFF 		bl	USART_ClearITPendingBit
 171              	.LVL13:
 172 002e EEE7     		b	.L10
 173              	.L14:
  50:Bsp/periph_serial_irq.c **** 
 174              		.loc 1 50 3 view .LVU37
 175 0030 0D4C     		ldr	r4, .L15+4
 176 0032 0021     		movs	r1, #0
 177 0034 2046     		mov	r0, r4
 178 0036 FFF7FEFF 		bl	DMA_Cmd
 179              	.LVL14:
  52:Bsp/periph_serial_irq.c **** 		rec = USART2->SR;
 180              		.loc 1 52 3 view .LVU38
  52:Bsp/periph_serial_irq.c **** 		rec = USART2->SR;
 181              		.loc 1 52 15 is_stmt 0 view .LVU39
 182 003a 0A4B     		ldr	r3, .L15
 183 003c 9A88     		ldrh	r2, [r3, #4]
 184              	.LVL15:
  53:Bsp/periph_serial_irq.c **** 
 185              		.loc 1 53 3 is_stmt 1 view .LVU40
  53:Bsp/periph_serial_irq.c **** 
 186              		.loc 1 53 15 is_stmt 0 view .LVU41
 187 003e 1B88     		ldrh	r3, [r3]
  55:Bsp/periph_serial_irq.c **** 		DMA_ClearFlag(Serial2_DMA_RX_Stream, DMA_FLAG_TCIF5);
 188              		.loc 1 55 3 is_stmt 1 view .LVU42
  55:Bsp/periph_serial_irq.c **** 		DMA_ClearFlag(Serial2_DMA_RX_Stream, DMA_FLAG_TCIF5);
 189              		.loc 1 55 9 is_stmt 0 view .LVU43
 190 0040 2046     		mov	r0, r4
 191 0042 FFF7FEFF 		bl	DMA_GetCurrDataCounter
 192              	.LVL16:
  56:Bsp/periph_serial_irq.c **** 		DMA_SetCurrDataCounter(Serial2_DMA_RX_Stream, PCK_MAX);
 193              		.loc 1 56 3 is_stmt 1 view .LVU44
 194 0046 0949     		ldr	r1, .L15+8
 195 0048 2046     		mov	r0, r4
 196 004a FFF7FEFF 		bl	DMA_ClearFlag
 197              	.LVL17:
  57:Bsp/periph_serial_irq.c **** 		DMA_Cmd(Serial2_DMA_RX_Stream, ENABLE);
 198              		.loc 1 57 3 view .LVU45
 199 004e 4FF48071 		mov	r1, #256
 200 0052 2046     		mov	r0, r4
 201 0054 FFF7FEFF 		bl	DMA_SetCurrDataCounter
 202              	.LVL18:
  58:Bsp/periph_serial_irq.c **** 	}
ARM GAS  /var/folders/lx/hc4sn_b53233_zkc9xbbl97r0000gp/T//cc1STna2.s 			page 6


 203              		.loc 1 58 3 view .LVU46
 204 0058 0121     		movs	r1, #1
 205 005a 2046     		mov	r0, r4
 206 005c FFF7FEFF 		bl	DMA_Cmd
 207              	.LVL19:
 208              		.loc 1 60 1 is_stmt 0 view .LVU47
 209 0060 DBE7     		b	.L9
 210              	.L16:
 211 0062 00BF     		.align	2
 212              	.L15:
 213 0064 00440040 		.word	1073759232
 214 0068 88600240 		.word	1073897608
 215 006c 00080020 		.word	536872960
 216              		.cfi_endproc
 217              	.LFE124:
 219              		.section	.text.USART3_IRQHandler,"ax",%progbits
 220              		.align	1
 221              		.global	USART3_IRQHandler
 222              		.syntax unified
 223              		.thumb
 224              		.thumb_func
 225              		.fpu fpv4-sp-d16
 227              	USART3_IRQHandler:
 228              	.LFB125:
  61:Bsp/periph_serial_irq.c **** 
  62:Bsp/periph_serial_irq.c **** void USART3_IRQHandler(void)
  63:Bsp/periph_serial_irq.c **** {
 229              		.loc 1 63 1 is_stmt 1 view -0
 230              		.cfi_startproc
 231              		@ args = 0, pretend = 0, frame = 0
 232              		@ frame_needed = 0, uses_anonymous_args = 0
 233 0000 10B5     		push	{r4, lr}
 234              	.LCFI2:
 235              		.cfi_def_cfa_offset 8
 236              		.cfi_offset 4, -8
 237              		.cfi_offset 14, -4
  64:Bsp/periph_serial_irq.c **** 	uint8_t rec;
 238              		.loc 1 64 2 view .LVU49
  65:Bsp/periph_serial_irq.c **** 
  66:Bsp/periph_serial_irq.c **** 	if (USART_GetITStatus(USART3, USART_IT_RXNE) != RESET)
 239              		.loc 1 66 2 view .LVU50
 240              		.loc 1 66 6 is_stmt 0 view .LVU51
 241 0002 40F22551 		movw	r1, #1317
 242 0006 1748     		ldr	r0, .L23
 243 0008 FFF7FEFF 		bl	USART_GetITStatus
 244              	.LVL20:
 245              		.loc 1 66 5 view .LVU52
 246 000c 30B9     		cbnz	r0, .L21
 247              	.L18:
  67:Bsp/periph_serial_irq.c **** 	{
  68:Bsp/periph_serial_irq.c **** 		rec = USART_ReceiveData(USART3);
  69:Bsp/periph_serial_irq.c **** 		USART_ClearITPendingBit(USART3, USART_IT_RXNE);
  70:Bsp/periph_serial_irq.c **** 	}
  71:Bsp/periph_serial_irq.c **** 
  72:Bsp/periph_serial_irq.c **** 	if (USART_GetITStatus(USART3, USART_IT_IDLE) != RESET)
 248              		.loc 1 72 2 is_stmt 1 view .LVU53
 249              		.loc 1 72 6 is_stmt 0 view .LVU54
ARM GAS  /var/folders/lx/hc4sn_b53233_zkc9xbbl97r0000gp/T//cc1STna2.s 			page 7


 250 000e 40F22441 		movw	r1, #1060
 251 0012 1448     		ldr	r0, .L23
 252 0014 FFF7FEFF 		bl	USART_GetITStatus
 253              	.LVL21:
 254              		.loc 1 72 5 view .LVU55
 255 0018 50B9     		cbnz	r0, .L22
 256              	.L17:
  73:Bsp/periph_serial_irq.c **** 	{
  74:Bsp/periph_serial_irq.c **** 		DMA_Cmd(Serial3_DMA_RX_Stream, DISABLE);
  75:Bsp/periph_serial_irq.c **** 
  76:Bsp/periph_serial_irq.c **** 		rec = USART3->DR;
  77:Bsp/periph_serial_irq.c **** 		rec = USART3->SR;
  78:Bsp/periph_serial_irq.c **** 
  79:Bsp/periph_serial_irq.c **** 		rec = DMA_GetCurrDataCounter(Serial3_DMA_RX_Stream);
  80:Bsp/periph_serial_irq.c **** 		DMA_ClearFlag(Serial3_DMA_RX_Stream, DMA_FLAG_TCIF1);
  81:Bsp/periph_serial_irq.c **** 		DMA_SetCurrDataCounter(Serial3_DMA_RX_Stream, PCK_MAX);
  82:Bsp/periph_serial_irq.c **** 		DMA_Cmd(Serial3_DMA_RX_Stream, ENABLE);
  83:Bsp/periph_serial_irq.c **** 	}
  84:Bsp/periph_serial_irq.c **** }
 257              		.loc 1 84 1 view .LVU56
 258 001a 10BD     		pop	{r4, pc}
 259              	.L21:
  68:Bsp/periph_serial_irq.c **** 		USART_ClearITPendingBit(USART3, USART_IT_RXNE);
 260              		.loc 1 68 3 is_stmt 1 view .LVU57
  68:Bsp/periph_serial_irq.c **** 		USART_ClearITPendingBit(USART3, USART_IT_RXNE);
 261              		.loc 1 68 9 is_stmt 0 view .LVU58
 262 001c 114C     		ldr	r4, .L23
 263 001e 2046     		mov	r0, r4
 264 0020 FFF7FEFF 		bl	USART_ReceiveData
 265              	.LVL22:
  69:Bsp/periph_serial_irq.c **** 	}
 266              		.loc 1 69 3 is_stmt 1 view .LVU59
 267 0024 40F22551 		movw	r1, #1317
 268 0028 2046     		mov	r0, r4
 269 002a FFF7FEFF 		bl	USART_ClearITPendingBit
 270              	.LVL23:
 271 002e EEE7     		b	.L18
 272              	.L22:
  74:Bsp/periph_serial_irq.c **** 
 273              		.loc 1 74 3 view .LVU60
 274 0030 0D4C     		ldr	r4, .L23+4
 275 0032 0021     		movs	r1, #0
 276 0034 2046     		mov	r0, r4
 277 0036 FFF7FEFF 		bl	DMA_Cmd
 278              	.LVL24:
  76:Bsp/periph_serial_irq.c **** 		rec = USART3->SR;
 279              		.loc 1 76 3 view .LVU61
  76:Bsp/periph_serial_irq.c **** 		rec = USART3->SR;
 280              		.loc 1 76 15 is_stmt 0 view .LVU62
 281 003a 0A4B     		ldr	r3, .L23
 282 003c 9A88     		ldrh	r2, [r3, #4]
 283              	.LVL25:
  77:Bsp/periph_serial_irq.c **** 
 284              		.loc 1 77 3 is_stmt 1 view .LVU63
  77:Bsp/periph_serial_irq.c **** 
 285              		.loc 1 77 15 is_stmt 0 view .LVU64
 286 003e 1B88     		ldrh	r3, [r3]
ARM GAS  /var/folders/lx/hc4sn_b53233_zkc9xbbl97r0000gp/T//cc1STna2.s 			page 8


  79:Bsp/periph_serial_irq.c **** 		DMA_ClearFlag(Serial3_DMA_RX_Stream, DMA_FLAG_TCIF1);
 287              		.loc 1 79 3 is_stmt 1 view .LVU65
  79:Bsp/periph_serial_irq.c **** 		DMA_ClearFlag(Serial3_DMA_RX_Stream, DMA_FLAG_TCIF1);
 288              		.loc 1 79 9 is_stmt 0 view .LVU66
 289 0040 2046     		mov	r0, r4
 290 0042 FFF7FEFF 		bl	DMA_GetCurrDataCounter
 291              	.LVL26:
  80:Bsp/periph_serial_irq.c **** 		DMA_SetCurrDataCounter(Serial3_DMA_RX_Stream, PCK_MAX);
 292              		.loc 1 80 3 is_stmt 1 view .LVU67
 293 0046 0949     		ldr	r1, .L23+8
 294 0048 2046     		mov	r0, r4
 295 004a FFF7FEFF 		bl	DMA_ClearFlag
 296              	.LVL27:
  81:Bsp/periph_serial_irq.c **** 		DMA_Cmd(Serial3_DMA_RX_Stream, ENABLE);
 297              		.loc 1 81 3 view .LVU68
 298 004e 4FF48071 		mov	r1, #256
 299 0052 2046     		mov	r0, r4
 300 0054 FFF7FEFF 		bl	DMA_SetCurrDataCounter
 301              	.LVL28:
  82:Bsp/periph_serial_irq.c **** 	}
 302              		.loc 1 82 3 view .LVU69
 303 0058 0121     		movs	r1, #1
 304 005a 2046     		mov	r0, r4
 305 005c FFF7FEFF 		bl	DMA_Cmd
 306              	.LVL29:
 307              		.loc 1 84 1 is_stmt 0 view .LVU70
 308 0060 DBE7     		b	.L17
 309              	.L24:
 310 0062 00BF     		.align	2
 311              	.L23:
 312 0064 00480040 		.word	1073760256
 313 0068 28600240 		.word	1073897512
 314 006c 00080010 		.word	268437504
 315              		.cfi_endproc
 316              	.LFE125:
 318              		.section	.text.USART6_IRQHandler,"ax",%progbits
 319              		.align	1
 320              		.global	USART6_IRQHandler
 321              		.syntax unified
 322              		.thumb
 323              		.thumb_func
 324              		.fpu fpv4-sp-d16
 326              	USART6_IRQHandler:
 327              	.LFB126:
  85:Bsp/periph_serial_irq.c **** 
  86:Bsp/periph_serial_irq.c **** void USART6_IRQHandler(void)
  87:Bsp/periph_serial_irq.c **** {
 328              		.loc 1 87 1 is_stmt 1 view -0
 329              		.cfi_startproc
 330              		@ args = 0, pretend = 0, frame = 0
 331              		@ frame_needed = 0, uses_anonymous_args = 0
 332 0000 10B5     		push	{r4, lr}
 333              	.LCFI3:
 334              		.cfi_def_cfa_offset 8
 335              		.cfi_offset 4, -8
 336              		.cfi_offset 14, -4
  88:Bsp/periph_serial_irq.c **** 	uint8_t rec;
ARM GAS  /var/folders/lx/hc4sn_b53233_zkc9xbbl97r0000gp/T//cc1STna2.s 			page 9


 337              		.loc 1 88 2 view .LVU72
  89:Bsp/periph_serial_irq.c **** 
  90:Bsp/periph_serial_irq.c **** 	if (USART_GetITStatus(USART6, USART_IT_TXE) == RESET)
 338              		.loc 1 90 2 view .LVU73
 339              		.loc 1 90 6 is_stmt 0 view .LVU74
 340 0002 40F22771 		movw	r1, #1831
 341 0006 1D48     		ldr	r0, .L33
 342 0008 FFF7FEFF 		bl	USART_GetITStatus
 343              	.LVL30:
 344              		.loc 1 90 5 view .LVU75
 345 000c 60B1     		cbz	r0, .L30
 346              	.L26:
  91:Bsp/periph_serial_irq.c **** 	{
  92:Bsp/periph_serial_irq.c **** 		USART_ITConfig(USART6, USART_IT_TC, DISABLE);
  93:Bsp/periph_serial_irq.c **** 	}
  94:Bsp/periph_serial_irq.c **** 
  95:Bsp/periph_serial_irq.c **** 	if (USART_GetITStatus(USART6, USART_IT_RXNE) != RESET)
 347              		.loc 1 95 2 is_stmt 1 view .LVU76
 348              		.loc 1 95 6 is_stmt 0 view .LVU77
 349 000e 40F22551 		movw	r1, #1317
 350 0012 1A48     		ldr	r0, .L33
 351 0014 FFF7FEFF 		bl	USART_GetITStatus
 352              	.LVL31:
 353              		.loc 1 95 5 view .LVU78
 354 0018 68B9     		cbnz	r0, .L31
 355              	.L27:
  96:Bsp/periph_serial_irq.c **** 	{
  97:Bsp/periph_serial_irq.c **** 		rec = USART_ReceiveData(USART6);
  98:Bsp/periph_serial_irq.c **** 		USART_ClearITPendingBit(USART6, USART_IT_RXNE);
  99:Bsp/periph_serial_irq.c **** 	}
 100:Bsp/periph_serial_irq.c **** 
 101:Bsp/periph_serial_irq.c **** 	if (USART_GetITStatus(USART6, USART_IT_IDLE) != RESET)
 356              		.loc 1 101 2 is_stmt 1 view .LVU79
 357              		.loc 1 101 6 is_stmt 0 view .LVU80
 358 001a 40F22441 		movw	r1, #1060
 359 001e 1748     		ldr	r0, .L33
 360 0020 FFF7FEFF 		bl	USART_GetITStatus
 361              	.LVL32:
 362              		.loc 1 101 5 view .LVU81
 363 0024 88B9     		cbnz	r0, .L32
 364              	.L25:
 102:Bsp/periph_serial_irq.c **** 	{
 103:Bsp/periph_serial_irq.c **** 		DMA_Cmd(Serial6_DMA_RX_Stream, DISABLE);
 104:Bsp/periph_serial_irq.c **** 
 105:Bsp/periph_serial_irq.c **** 		rec = USART6->DR;
 106:Bsp/periph_serial_irq.c **** 		rec = USART6->SR;
 107:Bsp/periph_serial_irq.c **** 
 108:Bsp/periph_serial_irq.c **** 		rec = DMA_GetCurrDataCounter(Serial6_DMA_RX_Stream);
 109:Bsp/periph_serial_irq.c **** 		DMA_ClearFlag(Serial6_DMA_RX_Stream, DMA_FLAG_TCIF1);
 110:Bsp/periph_serial_irq.c **** 		DMA_SetCurrDataCounter(Serial6_DMA_RX_Stream, PCK_MAX);
 111:Bsp/periph_serial_irq.c **** 		DMA_Cmd(Serial6_DMA_RX_Stream, ENABLE);
 112:Bsp/periph_serial_irq.c **** 	}
 113:Bsp/periph_serial_irq.c **** }
 365              		.loc 1 113 1 view .LVU82
 366 0026 10BD     		pop	{r4, pc}
 367              	.L30:
  92:Bsp/periph_serial_irq.c **** 	}
ARM GAS  /var/folders/lx/hc4sn_b53233_zkc9xbbl97r0000gp/T//cc1STna2.s 			page 10


 368              		.loc 1 92 3 is_stmt 1 view .LVU83
 369 0028 0022     		movs	r2, #0
 370 002a 40F22661 		movw	r1, #1574
 371 002e 1348     		ldr	r0, .L33
 372 0030 FFF7FEFF 		bl	USART_ITConfig
 373              	.LVL33:
 374 0034 EBE7     		b	.L26
 375              	.L31:
  97:Bsp/periph_serial_irq.c **** 		USART_ClearITPendingBit(USART6, USART_IT_RXNE);
 376              		.loc 1 97 3 view .LVU84
  97:Bsp/periph_serial_irq.c **** 		USART_ClearITPendingBit(USART6, USART_IT_RXNE);
 377              		.loc 1 97 9 is_stmt 0 view .LVU85
 378 0036 114C     		ldr	r4, .L33
 379 0038 2046     		mov	r0, r4
 380 003a FFF7FEFF 		bl	USART_ReceiveData
 381              	.LVL34:
  98:Bsp/periph_serial_irq.c **** 	}
 382              		.loc 1 98 3 is_stmt 1 view .LVU86
 383 003e 40F22551 		movw	r1, #1317
 384 0042 2046     		mov	r0, r4
 385 0044 FFF7FEFF 		bl	USART_ClearITPendingBit
 386              	.LVL35:
 387 0048 E7E7     		b	.L27
 388              	.L32:
 103:Bsp/periph_serial_irq.c **** 
 389              		.loc 1 103 3 view .LVU87
 390 004a 0D4C     		ldr	r4, .L33+4
 391 004c 0021     		movs	r1, #0
 392 004e 2046     		mov	r0, r4
 393 0050 FFF7FEFF 		bl	DMA_Cmd
 394              	.LVL36:
 105:Bsp/periph_serial_irq.c **** 		rec = USART6->SR;
 395              		.loc 1 105 3 view .LVU88
 105:Bsp/periph_serial_irq.c **** 		rec = USART6->SR;
 396              		.loc 1 105 15 is_stmt 0 view .LVU89
 397 0054 094B     		ldr	r3, .L33
 398 0056 9A88     		ldrh	r2, [r3, #4]
 399              	.LVL37:
 106:Bsp/periph_serial_irq.c **** 
 400              		.loc 1 106 3 is_stmt 1 view .LVU90
 106:Bsp/periph_serial_irq.c **** 
 401              		.loc 1 106 15 is_stmt 0 view .LVU91
 402 0058 1B88     		ldrh	r3, [r3]
 108:Bsp/periph_serial_irq.c **** 		DMA_ClearFlag(Serial6_DMA_RX_Stream, DMA_FLAG_TCIF1);
 403              		.loc 1 108 3 is_stmt 1 view .LVU92
 108:Bsp/periph_serial_irq.c **** 		DMA_ClearFlag(Serial6_DMA_RX_Stream, DMA_FLAG_TCIF1);
 404              		.loc 1 108 9 is_stmt 0 view .LVU93
 405 005a 2046     		mov	r0, r4
 406 005c FFF7FEFF 		bl	DMA_GetCurrDataCounter
 407              	.LVL38:
 109:Bsp/periph_serial_irq.c **** 		DMA_SetCurrDataCounter(Serial6_DMA_RX_Stream, PCK_MAX);
 408              		.loc 1 109 3 is_stmt 1 view .LVU94
 409 0060 0849     		ldr	r1, .L33+8
 410 0062 2046     		mov	r0, r4
 411 0064 FFF7FEFF 		bl	DMA_ClearFlag
 412              	.LVL39:
 110:Bsp/periph_serial_irq.c **** 		DMA_Cmd(Serial6_DMA_RX_Stream, ENABLE);
ARM GAS  /var/folders/lx/hc4sn_b53233_zkc9xbbl97r0000gp/T//cc1STna2.s 			page 11


 413              		.loc 1 110 3 view .LVU95
 414 0068 4FF48071 		mov	r1, #256
 415 006c 2046     		mov	r0, r4
 416 006e FFF7FEFF 		bl	DMA_SetCurrDataCounter
 417              	.LVL40:
 111:Bsp/periph_serial_irq.c **** 	}
 418              		.loc 1 111 3 view .LVU96
 419 0072 0121     		movs	r1, #1
 420 0074 2046     		mov	r0, r4
 421 0076 FFF7FEFF 		bl	DMA_Cmd
 422              	.LVL41:
 423              		.loc 1 113 1 is_stmt 0 view .LVU97
 424 007a D4E7     		b	.L25
 425              	.L34:
 426              		.align	2
 427              	.L33:
 428 007c 00140140 		.word	1073812480
 429 0080 28640240 		.word	1073898536
 430 0084 00080010 		.word	268437504
 431              		.cfi_endproc
 432              	.LFE126:
 434              		.text
 435              	.Letext0:
 436              		.file 2 "/usr/local/arm-none-eabi-gcc/gcc-arm-none-eabi-10-2020-q4-major/arm-none-eabi/include/mac
 437              		.file 3 "/usr/local/arm-none-eabi-gcc/gcc-arm-none-eabi-10-2020-q4-major/arm-none-eabi/include/sys
 438              		.file 4 "USER/stm32f4xx.h"
 439              		.file 5 "FWLIB/inc/stm32f4xx_usart.h"
 440              		.file 6 "FWLIB/inc/stm32f4xx_dma.h"
ARM GAS  /var/folders/lx/hc4sn_b53233_zkc9xbbl97r0000gp/T//cc1STna2.s 			page 12


DEFINED SYMBOLS
                            *ABS*:0000000000000000 periph_serial_irq.c
/var/folders/lx/hc4sn_b53233_zkc9xbbl97r0000gp/T//cc1STna2.s:18     .text.USART1_IRQHandler:0000000000000000 $t
/var/folders/lx/hc4sn_b53233_zkc9xbbl97r0000gp/T//cc1STna2.s:26     .text.USART1_IRQHandler:0000000000000000 USART1_IRQHandler
/var/folders/lx/hc4sn_b53233_zkc9xbbl97r0000gp/T//cc1STna2.s:114    .text.USART1_IRQHandler:0000000000000064 $d
/var/folders/lx/hc4sn_b53233_zkc9xbbl97r0000gp/T//cc1STna2.s:121    .text.USART2_IRQHandler:0000000000000000 $t
/var/folders/lx/hc4sn_b53233_zkc9xbbl97r0000gp/T//cc1STna2.s:128    .text.USART2_IRQHandler:0000000000000000 USART2_IRQHandler
/var/folders/lx/hc4sn_b53233_zkc9xbbl97r0000gp/T//cc1STna2.s:213    .text.USART2_IRQHandler:0000000000000064 $d
/var/folders/lx/hc4sn_b53233_zkc9xbbl97r0000gp/T//cc1STna2.s:220    .text.USART3_IRQHandler:0000000000000000 $t
/var/folders/lx/hc4sn_b53233_zkc9xbbl97r0000gp/T//cc1STna2.s:227    .text.USART3_IRQHandler:0000000000000000 USART3_IRQHandler
/var/folders/lx/hc4sn_b53233_zkc9xbbl97r0000gp/T//cc1STna2.s:312    .text.USART3_IRQHandler:0000000000000064 $d
/var/folders/lx/hc4sn_b53233_zkc9xbbl97r0000gp/T//cc1STna2.s:319    .text.USART6_IRQHandler:0000000000000000 $t
/var/folders/lx/hc4sn_b53233_zkc9xbbl97r0000gp/T//cc1STna2.s:326    .text.USART6_IRQHandler:0000000000000000 USART6_IRQHandler
/var/folders/lx/hc4sn_b53233_zkc9xbbl97r0000gp/T//cc1STna2.s:428    .text.USART6_IRQHandler:000000000000007c $d

UNDEFINED SYMBOLS
USART_GetITStatus
USART_ReceiveData
USART_ClearITPendingBit
DMA_Cmd
DMA_GetCurrDataCounter
DMA_ClearFlag
DMA_SetCurrDataCounter
USART_ITConfig
