ARM GAS  C:\Users\why\AppData\Local\Temp\ccfWDy1b.s 			page 1


   1              		.syntax unified
   2              		.cpu cortex-m4
   3              		.eabi_attribute 27, 1
   4              		.eabi_attribute 28, 1
   5              		.fpu fpv4-sp-d16
   6              		.eabi_attribute 20, 1
   7              		.eabi_attribute 21, 1
   8              		.eabi_attribute 23, 3
   9              		.eabi_attribute 24, 1
  10              		.eabi_attribute 25, 1
  11              		.eabi_attribute 26, 1
  12              		.eabi_attribute 30, 1
  13              		.eabi_attribute 34, 1
  14              		.eabi_attribute 18, 4
  15              		.thumb
  16              		.syntax unified
  17              		.file	"periph_timer_irq.c"
  18              		.text
  19              	.Ltext0:
  20              		.cfi_sections	.debug_frame
  21              		.section	.text.TIM2_IRQHandler,"ax",%progbits
  22              		.align	2
  23              		.global	TIM2_IRQHandler
  24              		.thumb
  25              		.thumb_func
  27              	TIM2_IRQHandler:
  28              	.LFB123:
  29              		.file 1 "Bsp/periph_timer_irq.c"
   1:Bsp/periph_timer_irq.c **** #include "periph_timer_irq.h"
   2:Bsp/periph_timer_irq.c **** #include "periph_serial.h"
   3:Bsp/periph_timer_irq.c **** #include "stm32f4xx_tim.h"
   4:Bsp/periph_timer_irq.c **** #include "delay.h"
   5:Bsp/periph_timer_irq.c **** 
   6:Bsp/periph_timer_irq.c **** void TIM2_IRQHandler(void)
   7:Bsp/periph_timer_irq.c **** {
  30              		.loc 1 7 0
  31              		.cfi_startproc
  32              		@ args = 0, pretend = 0, frame = 0
  33              		@ frame_needed = 0, uses_anonymous_args = 0
  34 0000 08B5     		push	{r3, lr}
  35              	.LCFI0:
  36              		.cfi_def_cfa_offset 8
  37              		.cfi_offset 3, -8
  38              		.cfi_offset 14, -4
   8:Bsp/periph_timer_irq.c **** 	if (TIM_GetITStatus(TIM2, TIM_IT_Update) == SET)
  39              		.loc 1 8 0
  40 0002 0121     		movs	r1, #1
  41 0004 4FF08040 		mov	r0, #1073741824
  42 0008 FFF7FEFF 		bl	TIM_GetITStatus
  43              	.LVL0:
  44 000c 0128     		cmp	r0, #1
  45 000e 04D1     		bne	.L1
   9:Bsp/periph_timer_irq.c **** 	{
  10:Bsp/periph_timer_irq.c **** 		TIM_ClearITPendingBit(TIM2, TIM_IT_Update);
  46              		.loc 1 10 0
  47 0010 0121     		movs	r1, #1
  48 0012 4FF08040 		mov	r0, #1073741824
ARM GAS  C:\Users\why\AppData\Local\Temp\ccfWDy1b.s 			page 2


  49 0016 FFF7FEFF 		bl	TIM_ClearITPendingBit
  50              	.LVL1:
  51              	.L1:
  52 001a 08BD     		pop	{r3, pc}
  53              		.cfi_endproc
  54              	.LFE123:
  56              		.section	.text.TIM3_IRQHandler,"ax",%progbits
  57              		.align	2
  58              		.global	TIM3_IRQHandler
  59              		.thumb
  60              		.thumb_func
  62              	TIM3_IRQHandler:
  63              	.LFB124:
  11:Bsp/periph_timer_irq.c **** 	}
  12:Bsp/periph_timer_irq.c **** }
  13:Bsp/periph_timer_irq.c **** 
  14:Bsp/periph_timer_irq.c **** void TIM3_IRQHandler(void)
  15:Bsp/periph_timer_irq.c **** {
  64              		.loc 1 15 0
  65              		.cfi_startproc
  66              		@ args = 0, pretend = 0, frame = 0
  67              		@ frame_needed = 0, uses_anonymous_args = 0
  68 0000 08B5     		push	{r3, lr}
  69              	.LCFI1:
  70              		.cfi_def_cfa_offset 8
  71              		.cfi_offset 3, -8
  72              		.cfi_offset 14, -4
  16:Bsp/periph_timer_irq.c **** 	if (TIM_GetITStatus(TIM3, TIM_IT_Update) == SET)
  73              		.loc 1 16 0
  74 0002 0121     		movs	r1, #1
  75 0004 0448     		ldr	r0, .L7
  76 0006 FFF7FEFF 		bl	TIM_GetITStatus
  77              	.LVL2:
  78 000a 0128     		cmp	r0, #1
  79 000c 03D1     		bne	.L4
  17:Bsp/periph_timer_irq.c **** 	{
  18:Bsp/periph_timer_irq.c **** 		TIM_ClearITPendingBit(TIM3, TIM_IT_Update);
  80              		.loc 1 18 0
  81 000e 0121     		movs	r1, #1
  82 0010 0148     		ldr	r0, .L7
  83 0012 FFF7FEFF 		bl	TIM_ClearITPendingBit
  84              	.LVL3:
  85              	.L4:
  86 0016 08BD     		pop	{r3, pc}
  87              	.L8:
  88              		.align	2
  89              	.L7:
  90 0018 00040040 		.word	1073742848
  91              		.cfi_endproc
  92              	.LFE124:
  94              		.section	.text.TIM4_IRQHandler,"ax",%progbits
  95              		.align	2
  96              		.global	TIM4_IRQHandler
  97              		.thumb
  98              		.thumb_func
 100              	TIM4_IRQHandler:
 101              	.LFB125:
ARM GAS  C:\Users\why\AppData\Local\Temp\ccfWDy1b.s 			page 3


  19:Bsp/periph_timer_irq.c **** 	}
  20:Bsp/periph_timer_irq.c **** }
  21:Bsp/periph_timer_irq.c **** 
  22:Bsp/periph_timer_irq.c **** void TIM4_IRQHandler(void)
  23:Bsp/periph_timer_irq.c **** {
 102              		.loc 1 23 0
 103              		.cfi_startproc
 104              		@ args = 0, pretend = 0, frame = 0
 105              		@ frame_needed = 0, uses_anonymous_args = 0
 106 0000 08B5     		push	{r3, lr}
 107              	.LCFI2:
 108              		.cfi_def_cfa_offset 8
 109              		.cfi_offset 3, -8
 110              		.cfi_offset 14, -4
  24:Bsp/periph_timer_irq.c **** 	if (TIM_GetITStatus(TIM4, TIM_IT_Update) == SET)
 111              		.loc 1 24 0
 112 0002 0121     		movs	r1, #1
 113 0004 0448     		ldr	r0, .L12
 114 0006 FFF7FEFF 		bl	TIM_GetITStatus
 115              	.LVL4:
 116 000a 0128     		cmp	r0, #1
 117 000c 03D1     		bne	.L9
  25:Bsp/periph_timer_irq.c **** 	{
  26:Bsp/periph_timer_irq.c **** 		TIM_ClearITPendingBit(TIM4, TIM_IT_Update);
 118              		.loc 1 26 0
 119 000e 0121     		movs	r1, #1
 120 0010 0148     		ldr	r0, .L12
 121 0012 FFF7FEFF 		bl	TIM_ClearITPendingBit
 122              	.LVL5:
 123              	.L9:
 124 0016 08BD     		pop	{r3, pc}
 125              	.L13:
 126              		.align	2
 127              	.L12:
 128 0018 00080040 		.word	1073743872
 129              		.cfi_endproc
 130              	.LFE125:
 132              		.text
 133              	.Letext0:
 134              		.file 2 "d:\\gcc_arm\\5.4 2016q3\\arm-none-eabi\\include\\machine\\_default_types.h"
 135              		.file 3 "d:\\gcc_arm\\5.4 2016q3\\arm-none-eabi\\include\\sys\\_stdint.h"
 136              		.file 4 "USER/stm32f4xx.h"
 137              		.file 5 "FWLIB/inc/stm32f4xx_tim.h"
 138              		.file 6 "F4_CORE/core_cm4.h"
ARM GAS  C:\Users\why\AppData\Local\Temp\ccfWDy1b.s 			page 4

