ARM GAS  /var/folders/lx/hc4sn_b53233_zkc9xbbl97r0000gp/T//ccCFUuv3.s 			page 1


   1              		.cpu cortex-m4
   2              		.eabi_attribute 27, 1
   3              		.eabi_attribute 28, 1
   4              		.eabi_attribute 20, 1
   5              		.eabi_attribute 21, 1
   6              		.eabi_attribute 23, 3
   7              		.eabi_attribute 24, 1
   8              		.eabi_attribute 25, 1
   9              		.eabi_attribute 26, 1
  10              		.eabi_attribute 30, 1
  11              		.eabi_attribute 34, 1
  12              		.eabi_attribute 18, 4
  13              		.file	"periph_serial_irq.c"
  14              		.text
  15              	.Ltext0:
  16              		.cfi_sections	.debug_frame
  17              		.section	.text.USART1_IRQHandler,"ax",%progbits
  18              		.align	1
  19              		.global	USART1_IRQHandler
  20              		.arch armv7e-m
  21              		.syntax unified
  22              		.thumb
  23              		.thumb_func
  24              		.fpu fpv4-sp-d16
  26              	USART1_IRQHandler:
  27              	.LFB123:
  28              		.file 1 "Bsp/periph_serial_irq.c"
   1:Bsp/periph_serial_irq.c **** #include "periph_serial_irq.h"
   2:Bsp/periph_serial_irq.c **** #include "periph_serial.h"
   3:Bsp/periph_serial_irq.c **** #include "periph_gpio.h"
   4:Bsp/periph_serial_irq.c **** #include "periph_dma.h"
   5:Bsp/periph_serial_irq.c **** #include "string.h"
   6:Bsp/periph_serial_irq.c **** #include "stm32f4xx_usart.h"
   7:Bsp/periph_serial_irq.c **** #include "stm32f4xx_dma.h"
   8:Bsp/periph_serial_irq.c **** 
   9:Bsp/periph_serial_irq.c **** #define PCK_MAX 256
  10:Bsp/periph_serial_irq.c **** 
  11:Bsp/periph_serial_irq.c **** void USART1_IRQHandler(void)
  12:Bsp/periph_serial_irq.c **** {
  29              		.loc 1 12 1 view -0
  30              		.cfi_startproc
  31              		@ args = 0, pretend = 0, frame = 0
  32              		@ frame_needed = 0, uses_anonymous_args = 0
  33 0000 10B5     		push	{r4, lr}
  34              	.LCFI0:
  35              		.cfi_def_cfa_offset 8
  36              		.cfi_offset 4, -8
  37              		.cfi_offset 14, -4
  13:Bsp/periph_serial_irq.c **** 	uint8_t rec;
  38              		.loc 1 13 2 view .LVU1
  14:Bsp/periph_serial_irq.c **** 	static u8 rec_len = 0;
  39              		.loc 1 14 2 view .LVU2
  15:Bsp/periph_serial_irq.c **** 	static u8 rec_enable = 0;
  40              		.loc 1 15 2 view .LVU3
  16:Bsp/periph_serial_irq.c **** 
  17:Bsp/periph_serial_irq.c **** 	if (USART_GetITStatus(USART1, USART_IT_RXNE) != RESET)
  41              		.loc 1 17 2 view .LVU4
ARM GAS  /var/folders/lx/hc4sn_b53233_zkc9xbbl97r0000gp/T//ccCFUuv3.s 			page 2


  42              		.loc 1 17 6 is_stmt 0 view .LVU5
  43 0002 40F22551 		movw	r1, #1317
  44 0006 1C48     		ldr	r0, .L8
  45 0008 FFF7FEFF 		bl	USART_GetITStatus
  46              	.LVL0:
  47              		.loc 1 17 5 view .LVU6
  48 000c 30B9     		cbnz	r0, .L6
  49              	.L2:
  18:Bsp/periph_serial_irq.c **** 	{
  19:Bsp/periph_serial_irq.c **** 		if (Serial_Get_IRQ_RxCallback(Serial_1) != NULL)
  20:Bsp/periph_serial_irq.c **** 		{
  21:Bsp/periph_serial_irq.c **** 			Serial_Get_IRQ_RxCallback(Serial_1)((uint8_t)USART_ReceiveData(USART1), 1);
  22:Bsp/periph_serial_irq.c **** 		}
  23:Bsp/periph_serial_irq.c **** 
  24:Bsp/periph_serial_irq.c **** 		USART_ClearITPendingBit(USART1, USART_IT_RXNE);
  25:Bsp/periph_serial_irq.c **** 	}
  26:Bsp/periph_serial_irq.c **** 
  27:Bsp/periph_serial_irq.c **** 	if (USART_GetITStatus(USART1, USART_IT_IDLE) != RESET)
  50              		.loc 1 27 2 is_stmt 1 view .LVU7
  51              		.loc 1 27 6 is_stmt 0 view .LVU8
  52 000e 40F22441 		movw	r1, #1060
  53 0012 1948     		ldr	r0, .L8
  54 0014 FFF7FEFF 		bl	USART_GetITStatus
  55              	.LVL1:
  56              		.loc 1 27 5 view .LVU9
  57 0018 A0B9     		cbnz	r0, .L7
  58              	.L1:
  28:Bsp/periph_serial_irq.c **** 	{
  29:Bsp/periph_serial_irq.c **** 		DMA_Cmd(Serial1_DMA_RX_Stream, DISABLE);
  30:Bsp/periph_serial_irq.c **** 
  31:Bsp/periph_serial_irq.c **** 		rec = USART1->DR;
  32:Bsp/periph_serial_irq.c **** 		rec = USART1->SR;
  33:Bsp/periph_serial_irq.c **** 
  34:Bsp/periph_serial_irq.c **** 		rec = DMA_GetCurrDataCounter(Serial1_DMA_RX_Stream);
  35:Bsp/periph_serial_irq.c **** 		DMA_ClearFlag(Serial1_DMA_RX_Stream, DMA_FLAG_TCIF5);
  36:Bsp/periph_serial_irq.c **** 		DMA_SetCurrDataCounter(Serial1_DMA_RX_Stream, PCK_MAX);
  37:Bsp/periph_serial_irq.c **** 		DMA_Cmd(Serial1_DMA_RX_Stream, ENABLE);
  38:Bsp/periph_serial_irq.c **** 	}
  39:Bsp/periph_serial_irq.c **** }
  59              		.loc 1 39 1 view .LVU10
  60 001a 10BD     		pop	{r4, pc}
  61              	.L6:
  19:Bsp/periph_serial_irq.c **** 		{
  62              		.loc 1 19 3 is_stmt 1 view .LVU11
  19:Bsp/periph_serial_irq.c **** 		{
  63              		.loc 1 19 7 is_stmt 0 view .LVU12
  64 001c 0020     		movs	r0, #0
  65 001e FFF7FEFF 		bl	Serial_Get_IRQ_RxCallback
  66              	.LVL2:
  19:Bsp/periph_serial_irq.c **** 		{
  67              		.loc 1 19 6 view .LVU13
  68 0022 48B1     		cbz	r0, .L3
  21:Bsp/periph_serial_irq.c **** 		}
  69              		.loc 1 21 4 is_stmt 1 view .LVU14
  70 0024 0020     		movs	r0, #0
  71 0026 FFF7FEFF 		bl	Serial_Get_IRQ_RxCallback
  72              	.LVL3:
ARM GAS  /var/folders/lx/hc4sn_b53233_zkc9xbbl97r0000gp/T//ccCFUuv3.s 			page 3


  73 002a 0446     		mov	r4, r0
  21:Bsp/periph_serial_irq.c **** 		}
  74              		.loc 1 21 49 is_stmt 0 view .LVU15
  75 002c 1248     		ldr	r0, .L8
  76 002e FFF7FEFF 		bl	USART_ReceiveData
  77              	.LVL4:
  21:Bsp/periph_serial_irq.c **** 		}
  78              		.loc 1 21 4 view .LVU16
  79 0032 0121     		movs	r1, #1
  80 0034 C0B2     		uxtb	r0, r0
  81 0036 A047     		blx	r4
  82              	.LVL5:
  83              	.L3:
  24:Bsp/periph_serial_irq.c **** 	}
  84              		.loc 1 24 3 is_stmt 1 view .LVU17
  85 0038 40F22551 		movw	r1, #1317
  86 003c 0E48     		ldr	r0, .L8
  87 003e FFF7FEFF 		bl	USART_ClearITPendingBit
  88              	.LVL6:
  89 0042 E4E7     		b	.L2
  90              	.L7:
  29:Bsp/periph_serial_irq.c **** 
  91              		.loc 1 29 3 view .LVU18
  92 0044 0D4C     		ldr	r4, .L8+4
  93 0046 0021     		movs	r1, #0
  94 0048 2046     		mov	r0, r4
  95 004a FFF7FEFF 		bl	DMA_Cmd
  96              	.LVL7:
  31:Bsp/periph_serial_irq.c **** 		rec = USART1->SR;
  97              		.loc 1 31 3 view .LVU19
  31:Bsp/periph_serial_irq.c **** 		rec = USART1->SR;
  98              		.loc 1 31 15 is_stmt 0 view .LVU20
  99 004e 0A4B     		ldr	r3, .L8
 100 0050 9A88     		ldrh	r2, [r3, #4]
 101              	.LVL8:
  32:Bsp/periph_serial_irq.c **** 
 102              		.loc 1 32 3 is_stmt 1 view .LVU21
  32:Bsp/periph_serial_irq.c **** 
 103              		.loc 1 32 15 is_stmt 0 view .LVU22
 104 0052 1B88     		ldrh	r3, [r3]
  34:Bsp/periph_serial_irq.c **** 		DMA_ClearFlag(Serial1_DMA_RX_Stream, DMA_FLAG_TCIF5);
 105              		.loc 1 34 3 is_stmt 1 view .LVU23
  34:Bsp/periph_serial_irq.c **** 		DMA_ClearFlag(Serial1_DMA_RX_Stream, DMA_FLAG_TCIF5);
 106              		.loc 1 34 9 is_stmt 0 view .LVU24
 107 0054 2046     		mov	r0, r4
 108 0056 FFF7FEFF 		bl	DMA_GetCurrDataCounter
 109              	.LVL9:
  35:Bsp/periph_serial_irq.c **** 		DMA_SetCurrDataCounter(Serial1_DMA_RX_Stream, PCK_MAX);
 110              		.loc 1 35 3 is_stmt 1 view .LVU25
 111 005a 0949     		ldr	r1, .L8+8
 112 005c 2046     		mov	r0, r4
 113 005e FFF7FEFF 		bl	DMA_ClearFlag
 114              	.LVL10:
  36:Bsp/periph_serial_irq.c **** 		DMA_Cmd(Serial1_DMA_RX_Stream, ENABLE);
 115              		.loc 1 36 3 view .LVU26
 116 0062 4FF48071 		mov	r1, #256
 117 0066 2046     		mov	r0, r4
ARM GAS  /var/folders/lx/hc4sn_b53233_zkc9xbbl97r0000gp/T//ccCFUuv3.s 			page 4


 118 0068 FFF7FEFF 		bl	DMA_SetCurrDataCounter
 119              	.LVL11:
  37:Bsp/periph_serial_irq.c **** 	}
 120              		.loc 1 37 3 view .LVU27
 121 006c 0121     		movs	r1, #1
 122 006e 2046     		mov	r0, r4
 123 0070 FFF7FEFF 		bl	DMA_Cmd
 124              	.LVL12:
 125              		.loc 1 39 1 is_stmt 0 view .LVU28
 126 0074 D1E7     		b	.L1
 127              	.L9:
 128 0076 00BF     		.align	2
 129              	.L8:
 130 0078 00100140 		.word	1073811456
 131 007c 88640240 		.word	1073898632
 132 0080 00080020 		.word	536872960
 133              		.cfi_endproc
 134              	.LFE123:
 136              		.section	.text.USART2_IRQHandler,"ax",%progbits
 137              		.align	1
 138              		.global	USART2_IRQHandler
 139              		.syntax unified
 140              		.thumb
 141              		.thumb_func
 142              		.fpu fpv4-sp-d16
 144              	USART2_IRQHandler:
 145              	.LFB124:
  40:Bsp/periph_serial_irq.c **** 
  41:Bsp/periph_serial_irq.c **** void USART2_IRQHandler(void)
  42:Bsp/periph_serial_irq.c **** {
 146              		.loc 1 42 1 is_stmt 1 view -0
 147              		.cfi_startproc
 148              		@ args = 0, pretend = 0, frame = 0
 149              		@ frame_needed = 0, uses_anonymous_args = 0
 150 0000 10B5     		push	{r4, lr}
 151              	.LCFI1:
 152              		.cfi_def_cfa_offset 8
 153              		.cfi_offset 4, -8
 154              		.cfi_offset 14, -4
  43:Bsp/periph_serial_irq.c **** 	uint8_t rec;
 155              		.loc 1 43 2 view .LVU30
  44:Bsp/periph_serial_irq.c **** 
  45:Bsp/periph_serial_irq.c **** 	if (USART_GetITStatus(USART2, USART_IT_RXNE) != RESET)
 156              		.loc 1 45 2 view .LVU31
 157              		.loc 1 45 6 is_stmt 0 view .LVU32
 158 0002 40F22551 		movw	r1, #1317
 159 0006 1C48     		ldr	r0, .L17
 160 0008 FFF7FEFF 		bl	USART_GetITStatus
 161              	.LVL13:
 162              		.loc 1 45 5 view .LVU33
 163 000c 30B9     		cbnz	r0, .L15
 164              	.L11:
  46:Bsp/periph_serial_irq.c **** 	{
  47:Bsp/periph_serial_irq.c **** 		if (Serial_Get_IRQ_RxCallback(Serial_2) != NULL)
  48:Bsp/periph_serial_irq.c **** 		{
  49:Bsp/periph_serial_irq.c **** 			Serial_Get_IRQ_RxCallback(Serial_2)((uint8_t)USART_ReceiveData(USART2), 1);
  50:Bsp/periph_serial_irq.c **** 		}
ARM GAS  /var/folders/lx/hc4sn_b53233_zkc9xbbl97r0000gp/T//ccCFUuv3.s 			page 5


  51:Bsp/periph_serial_irq.c **** 
  52:Bsp/periph_serial_irq.c **** 		USART_ClearITPendingBit(USART2, USART_IT_RXNE);
  53:Bsp/periph_serial_irq.c **** 	}
  54:Bsp/periph_serial_irq.c **** 
  55:Bsp/periph_serial_irq.c **** 	if (USART_GetITStatus(USART2, USART_IT_IDLE) != RESET)
 165              		.loc 1 55 2 is_stmt 1 view .LVU34
 166              		.loc 1 55 6 is_stmt 0 view .LVU35
 167 000e 40F22441 		movw	r1, #1060
 168 0012 1948     		ldr	r0, .L17
 169 0014 FFF7FEFF 		bl	USART_GetITStatus
 170              	.LVL14:
 171              		.loc 1 55 5 view .LVU36
 172 0018 A0B9     		cbnz	r0, .L16
 173              	.L10:
  56:Bsp/periph_serial_irq.c **** 	{
  57:Bsp/periph_serial_irq.c **** 		DMA_Cmd(Serial2_DMA_RX_Stream, DISABLE);
  58:Bsp/periph_serial_irq.c **** 
  59:Bsp/periph_serial_irq.c **** 		rec = USART2->DR;
  60:Bsp/periph_serial_irq.c **** 		rec = USART2->SR;
  61:Bsp/periph_serial_irq.c **** 
  62:Bsp/periph_serial_irq.c **** 		rec = DMA_GetCurrDataCounter(Serial2_DMA_RX_Stream);
  63:Bsp/periph_serial_irq.c **** 		DMA_ClearFlag(Serial2_DMA_RX_Stream, DMA_FLAG_TCIF5);
  64:Bsp/periph_serial_irq.c **** 		DMA_SetCurrDataCounter(Serial2_DMA_RX_Stream, PCK_MAX);
  65:Bsp/periph_serial_irq.c **** 		DMA_Cmd(Serial2_DMA_RX_Stream, ENABLE);
  66:Bsp/periph_serial_irq.c **** 	}
  67:Bsp/periph_serial_irq.c **** }
 174              		.loc 1 67 1 view .LVU37
 175 001a 10BD     		pop	{r4, pc}
 176              	.L15:
  47:Bsp/periph_serial_irq.c **** 		{
 177              		.loc 1 47 3 is_stmt 1 view .LVU38
  47:Bsp/periph_serial_irq.c **** 		{
 178              		.loc 1 47 7 is_stmt 0 view .LVU39
 179 001c 0120     		movs	r0, #1
 180 001e FFF7FEFF 		bl	Serial_Get_IRQ_RxCallback
 181              	.LVL15:
  47:Bsp/periph_serial_irq.c **** 		{
 182              		.loc 1 47 6 view .LVU40
 183 0022 48B1     		cbz	r0, .L12
  49:Bsp/periph_serial_irq.c **** 		}
 184              		.loc 1 49 4 is_stmt 1 view .LVU41
 185 0024 0120     		movs	r0, #1
 186 0026 FFF7FEFF 		bl	Serial_Get_IRQ_RxCallback
 187              	.LVL16:
 188 002a 0446     		mov	r4, r0
  49:Bsp/periph_serial_irq.c **** 		}
 189              		.loc 1 49 49 is_stmt 0 view .LVU42
 190 002c 1248     		ldr	r0, .L17
 191 002e FFF7FEFF 		bl	USART_ReceiveData
 192              	.LVL17:
  49:Bsp/periph_serial_irq.c **** 		}
 193              		.loc 1 49 4 view .LVU43
 194 0032 0121     		movs	r1, #1
 195 0034 C0B2     		uxtb	r0, r0
 196 0036 A047     		blx	r4
 197              	.LVL18:
 198              	.L12:
ARM GAS  /var/folders/lx/hc4sn_b53233_zkc9xbbl97r0000gp/T//ccCFUuv3.s 			page 6


  52:Bsp/periph_serial_irq.c **** 	}
 199              		.loc 1 52 3 is_stmt 1 view .LVU44
 200 0038 40F22551 		movw	r1, #1317
 201 003c 0E48     		ldr	r0, .L17
 202 003e FFF7FEFF 		bl	USART_ClearITPendingBit
 203              	.LVL19:
 204 0042 E4E7     		b	.L11
 205              	.L16:
  57:Bsp/periph_serial_irq.c **** 
 206              		.loc 1 57 3 view .LVU45
 207 0044 0D4C     		ldr	r4, .L17+4
 208 0046 0021     		movs	r1, #0
 209 0048 2046     		mov	r0, r4
 210 004a FFF7FEFF 		bl	DMA_Cmd
 211              	.LVL20:
  59:Bsp/periph_serial_irq.c **** 		rec = USART2->SR;
 212              		.loc 1 59 3 view .LVU46
  59:Bsp/periph_serial_irq.c **** 		rec = USART2->SR;
 213              		.loc 1 59 15 is_stmt 0 view .LVU47
 214 004e 0A4B     		ldr	r3, .L17
 215 0050 9A88     		ldrh	r2, [r3, #4]
 216              	.LVL21:
  60:Bsp/periph_serial_irq.c **** 
 217              		.loc 1 60 3 is_stmt 1 view .LVU48
  60:Bsp/periph_serial_irq.c **** 
 218              		.loc 1 60 15 is_stmt 0 view .LVU49
 219 0052 1B88     		ldrh	r3, [r3]
  62:Bsp/periph_serial_irq.c **** 		DMA_ClearFlag(Serial2_DMA_RX_Stream, DMA_FLAG_TCIF5);
 220              		.loc 1 62 3 is_stmt 1 view .LVU50
  62:Bsp/periph_serial_irq.c **** 		DMA_ClearFlag(Serial2_DMA_RX_Stream, DMA_FLAG_TCIF5);
 221              		.loc 1 62 9 is_stmt 0 view .LVU51
 222 0054 2046     		mov	r0, r4
 223 0056 FFF7FEFF 		bl	DMA_GetCurrDataCounter
 224              	.LVL22:
  63:Bsp/periph_serial_irq.c **** 		DMA_SetCurrDataCounter(Serial2_DMA_RX_Stream, PCK_MAX);
 225              		.loc 1 63 3 is_stmt 1 view .LVU52
 226 005a 0949     		ldr	r1, .L17+8
 227 005c 2046     		mov	r0, r4
 228 005e FFF7FEFF 		bl	DMA_ClearFlag
 229              	.LVL23:
  64:Bsp/periph_serial_irq.c **** 		DMA_Cmd(Serial2_DMA_RX_Stream, ENABLE);
 230              		.loc 1 64 3 view .LVU53
 231 0062 4FF48071 		mov	r1, #256
 232 0066 2046     		mov	r0, r4
 233 0068 FFF7FEFF 		bl	DMA_SetCurrDataCounter
 234              	.LVL24:
  65:Bsp/periph_serial_irq.c **** 	}
 235              		.loc 1 65 3 view .LVU54
 236 006c 0121     		movs	r1, #1
 237 006e 2046     		mov	r0, r4
 238 0070 FFF7FEFF 		bl	DMA_Cmd
 239              	.LVL25:
 240              		.loc 1 67 1 is_stmt 0 view .LVU55
 241 0074 D1E7     		b	.L10
 242              	.L18:
 243 0076 00BF     		.align	2
 244              	.L17:
ARM GAS  /var/folders/lx/hc4sn_b53233_zkc9xbbl97r0000gp/T//ccCFUuv3.s 			page 7


 245 0078 00440040 		.word	1073759232
 246 007c 88600240 		.word	1073897608
 247 0080 00080020 		.word	536872960
 248              		.cfi_endproc
 249              	.LFE124:
 251              		.section	.text.USART3_IRQHandler,"ax",%progbits
 252              		.align	1
 253              		.global	USART3_IRQHandler
 254              		.syntax unified
 255              		.thumb
 256              		.thumb_func
 257              		.fpu fpv4-sp-d16
 259              	USART3_IRQHandler:
 260              	.LFB125:
  68:Bsp/periph_serial_irq.c **** 
  69:Bsp/periph_serial_irq.c **** void USART3_IRQHandler(void)
  70:Bsp/periph_serial_irq.c **** {
 261              		.loc 1 70 1 is_stmt 1 view -0
 262              		.cfi_startproc
 263              		@ args = 0, pretend = 0, frame = 0
 264              		@ frame_needed = 0, uses_anonymous_args = 0
 265 0000 10B5     		push	{r4, lr}
 266              	.LCFI2:
 267              		.cfi_def_cfa_offset 8
 268              		.cfi_offset 4, -8
 269              		.cfi_offset 14, -4
  71:Bsp/periph_serial_irq.c **** 	uint8_t rec;
 270              		.loc 1 71 2 view .LVU57
  72:Bsp/periph_serial_irq.c **** 
  73:Bsp/periph_serial_irq.c **** 	if (USART_GetITStatus(USART3, USART_IT_RXNE) != RESET)
 271              		.loc 1 73 2 view .LVU58
 272              		.loc 1 73 6 is_stmt 0 view .LVU59
 273 0002 40F22551 		movw	r1, #1317
 274 0006 1C48     		ldr	r0, .L26
 275 0008 FFF7FEFF 		bl	USART_GetITStatus
 276              	.LVL26:
 277              		.loc 1 73 5 view .LVU60
 278 000c 30B9     		cbnz	r0, .L24
 279              	.L20:
  74:Bsp/periph_serial_irq.c **** 	{
  75:Bsp/periph_serial_irq.c **** 		if (Serial_Get_IRQ_RxCallback(Serial_3) != NULL)
  76:Bsp/periph_serial_irq.c **** 		{
  77:Bsp/periph_serial_irq.c **** 			Serial_Get_IRQ_RxCallback(Serial_3)((uint8_t)USART_ReceiveData(USART3), 1);
  78:Bsp/periph_serial_irq.c **** 		}
  79:Bsp/periph_serial_irq.c **** 
  80:Bsp/periph_serial_irq.c **** 		USART_ClearITPendingBit(USART3, USART_IT_RXNE);
  81:Bsp/periph_serial_irq.c **** 	}
  82:Bsp/periph_serial_irq.c **** 
  83:Bsp/periph_serial_irq.c **** 	if (USART_GetITStatus(USART3, USART_IT_IDLE) != RESET)
 280              		.loc 1 83 2 is_stmt 1 view .LVU61
 281              		.loc 1 83 6 is_stmt 0 view .LVU62
 282 000e 40F22441 		movw	r1, #1060
 283 0012 1948     		ldr	r0, .L26
 284 0014 FFF7FEFF 		bl	USART_GetITStatus
 285              	.LVL27:
 286              		.loc 1 83 5 view .LVU63
 287 0018 A0B9     		cbnz	r0, .L25
ARM GAS  /var/folders/lx/hc4sn_b53233_zkc9xbbl97r0000gp/T//ccCFUuv3.s 			page 8


 288              	.L19:
  84:Bsp/periph_serial_irq.c **** 	{
  85:Bsp/periph_serial_irq.c **** 		DMA_Cmd(Serial3_DMA_RX_Stream, DISABLE);
  86:Bsp/periph_serial_irq.c **** 
  87:Bsp/periph_serial_irq.c **** 		rec = USART3->DR;
  88:Bsp/periph_serial_irq.c **** 		rec = USART3->SR;
  89:Bsp/periph_serial_irq.c **** 
  90:Bsp/periph_serial_irq.c **** 		rec = DMA_GetCurrDataCounter(Serial3_DMA_RX_Stream);
  91:Bsp/periph_serial_irq.c **** 		DMA_ClearFlag(Serial3_DMA_RX_Stream, DMA_FLAG_TCIF1);
  92:Bsp/periph_serial_irq.c **** 		DMA_SetCurrDataCounter(Serial3_DMA_RX_Stream, PCK_MAX);
  93:Bsp/periph_serial_irq.c **** 		DMA_Cmd(Serial3_DMA_RX_Stream, ENABLE);
  94:Bsp/periph_serial_irq.c **** 	}
  95:Bsp/periph_serial_irq.c **** }
 289              		.loc 1 95 1 view .LVU64
 290 001a 10BD     		pop	{r4, pc}
 291              	.L24:
  75:Bsp/periph_serial_irq.c **** 		{
 292              		.loc 1 75 3 is_stmt 1 view .LVU65
  75:Bsp/periph_serial_irq.c **** 		{
 293              		.loc 1 75 7 is_stmt 0 view .LVU66
 294 001c 0220     		movs	r0, #2
 295 001e FFF7FEFF 		bl	Serial_Get_IRQ_RxCallback
 296              	.LVL28:
  75:Bsp/periph_serial_irq.c **** 		{
 297              		.loc 1 75 6 view .LVU67
 298 0022 48B1     		cbz	r0, .L21
  77:Bsp/periph_serial_irq.c **** 		}
 299              		.loc 1 77 4 is_stmt 1 view .LVU68
 300 0024 0220     		movs	r0, #2
 301 0026 FFF7FEFF 		bl	Serial_Get_IRQ_RxCallback
 302              	.LVL29:
 303 002a 0446     		mov	r4, r0
  77:Bsp/periph_serial_irq.c **** 		}
 304              		.loc 1 77 49 is_stmt 0 view .LVU69
 305 002c 1248     		ldr	r0, .L26
 306 002e FFF7FEFF 		bl	USART_ReceiveData
 307              	.LVL30:
  77:Bsp/periph_serial_irq.c **** 		}
 308              		.loc 1 77 4 view .LVU70
 309 0032 0121     		movs	r1, #1
 310 0034 C0B2     		uxtb	r0, r0
 311 0036 A047     		blx	r4
 312              	.LVL31:
 313              	.L21:
  80:Bsp/periph_serial_irq.c **** 	}
 314              		.loc 1 80 3 is_stmt 1 view .LVU71
 315 0038 40F22551 		movw	r1, #1317
 316 003c 0E48     		ldr	r0, .L26
 317 003e FFF7FEFF 		bl	USART_ClearITPendingBit
 318              	.LVL32:
 319 0042 E4E7     		b	.L20
 320              	.L25:
  85:Bsp/periph_serial_irq.c **** 
 321              		.loc 1 85 3 view .LVU72
 322 0044 0D4C     		ldr	r4, .L26+4
 323 0046 0021     		movs	r1, #0
 324 0048 2046     		mov	r0, r4
ARM GAS  /var/folders/lx/hc4sn_b53233_zkc9xbbl97r0000gp/T//ccCFUuv3.s 			page 9


 325 004a FFF7FEFF 		bl	DMA_Cmd
 326              	.LVL33:
  87:Bsp/periph_serial_irq.c **** 		rec = USART3->SR;
 327              		.loc 1 87 3 view .LVU73
  87:Bsp/periph_serial_irq.c **** 		rec = USART3->SR;
 328              		.loc 1 87 15 is_stmt 0 view .LVU74
 329 004e 0A4B     		ldr	r3, .L26
 330 0050 9A88     		ldrh	r2, [r3, #4]
 331              	.LVL34:
  88:Bsp/periph_serial_irq.c **** 
 332              		.loc 1 88 3 is_stmt 1 view .LVU75
  88:Bsp/periph_serial_irq.c **** 
 333              		.loc 1 88 15 is_stmt 0 view .LVU76
 334 0052 1B88     		ldrh	r3, [r3]
  90:Bsp/periph_serial_irq.c **** 		DMA_ClearFlag(Serial3_DMA_RX_Stream, DMA_FLAG_TCIF1);
 335              		.loc 1 90 3 is_stmt 1 view .LVU77
  90:Bsp/periph_serial_irq.c **** 		DMA_ClearFlag(Serial3_DMA_RX_Stream, DMA_FLAG_TCIF1);
 336              		.loc 1 90 9 is_stmt 0 view .LVU78
 337 0054 2046     		mov	r0, r4
 338 0056 FFF7FEFF 		bl	DMA_GetCurrDataCounter
 339              	.LVL35:
  91:Bsp/periph_serial_irq.c **** 		DMA_SetCurrDataCounter(Serial3_DMA_RX_Stream, PCK_MAX);
 340              		.loc 1 91 3 is_stmt 1 view .LVU79
 341 005a 0949     		ldr	r1, .L26+8
 342 005c 2046     		mov	r0, r4
 343 005e FFF7FEFF 		bl	DMA_ClearFlag
 344              	.LVL36:
  92:Bsp/periph_serial_irq.c **** 		DMA_Cmd(Serial3_DMA_RX_Stream, ENABLE);
 345              		.loc 1 92 3 view .LVU80
 346 0062 4FF48071 		mov	r1, #256
 347 0066 2046     		mov	r0, r4
 348 0068 FFF7FEFF 		bl	DMA_SetCurrDataCounter
 349              	.LVL37:
  93:Bsp/periph_serial_irq.c **** 	}
 350              		.loc 1 93 3 view .LVU81
 351 006c 0121     		movs	r1, #1
 352 006e 2046     		mov	r0, r4
 353 0070 FFF7FEFF 		bl	DMA_Cmd
 354              	.LVL38:
 355              		.loc 1 95 1 is_stmt 0 view .LVU82
 356 0074 D1E7     		b	.L19
 357              	.L27:
 358 0076 00BF     		.align	2
 359              	.L26:
 360 0078 00480040 		.word	1073760256
 361 007c 28600240 		.word	1073897512
 362 0080 00080010 		.word	268437504
 363              		.cfi_endproc
 364              	.LFE125:
 366              		.section	.text.USART6_IRQHandler,"ax",%progbits
 367              		.align	1
 368              		.global	USART6_IRQHandler
 369              		.syntax unified
 370              		.thumb
 371              		.thumb_func
 372              		.fpu fpv4-sp-d16
 374              	USART6_IRQHandler:
ARM GAS  /var/folders/lx/hc4sn_b53233_zkc9xbbl97r0000gp/T//ccCFUuv3.s 			page 10


 375              	.LFB126:
  96:Bsp/periph_serial_irq.c **** 
  97:Bsp/periph_serial_irq.c **** void USART6_IRQHandler(void)
  98:Bsp/periph_serial_irq.c **** {
 376              		.loc 1 98 1 is_stmt 1 view -0
 377              		.cfi_startproc
 378              		@ args = 0, pretend = 0, frame = 0
 379              		@ frame_needed = 0, uses_anonymous_args = 0
 380 0000 10B5     		push	{r4, lr}
 381              	.LCFI3:
 382              		.cfi_def_cfa_offset 8
 383              		.cfi_offset 4, -8
 384              		.cfi_offset 14, -4
  99:Bsp/periph_serial_irq.c **** 	uint8_t rec;
 385              		.loc 1 99 2 view .LVU84
 100:Bsp/periph_serial_irq.c **** 
 101:Bsp/periph_serial_irq.c **** 	if (USART_GetITStatus(USART6, USART_IT_RXNE) != RESET)
 386              		.loc 1 101 2 view .LVU85
 387              		.loc 1 101 6 is_stmt 0 view .LVU86
 388 0002 40F22551 		movw	r1, #1317
 389 0006 1C48     		ldr	r0, .L35
 390 0008 FFF7FEFF 		bl	USART_GetITStatus
 391              	.LVL39:
 392              		.loc 1 101 5 view .LVU87
 393 000c 30B9     		cbnz	r0, .L33
 394              	.L29:
 102:Bsp/periph_serial_irq.c **** 	{
 103:Bsp/periph_serial_irq.c **** 		if (Serial_Get_IRQ_RxCallback(Serial_6) != NULL)
 104:Bsp/periph_serial_irq.c **** 		{
 105:Bsp/periph_serial_irq.c **** 			Serial_Get_IRQ_RxCallback(Serial_6)((uint8_t)USART_ReceiveData(USART6), 1);
 106:Bsp/periph_serial_irq.c **** 		}
 107:Bsp/periph_serial_irq.c **** 
 108:Bsp/periph_serial_irq.c **** 		USART_ClearITPendingBit(USART6, USART_IT_RXNE);
 109:Bsp/periph_serial_irq.c **** 	}
 110:Bsp/periph_serial_irq.c **** 
 111:Bsp/periph_serial_irq.c **** 	if (USART_GetITStatus(USART6, USART_IT_IDLE) != RESET)
 395              		.loc 1 111 2 is_stmt 1 view .LVU88
 396              		.loc 1 111 6 is_stmt 0 view .LVU89
 397 000e 40F22441 		movw	r1, #1060
 398 0012 1948     		ldr	r0, .L35
 399 0014 FFF7FEFF 		bl	USART_GetITStatus
 400              	.LVL40:
 401              		.loc 1 111 5 view .LVU90
 402 0018 A0B9     		cbnz	r0, .L34
 403              	.L28:
 112:Bsp/periph_serial_irq.c **** 	{
 113:Bsp/periph_serial_irq.c **** 		DMA_Cmd(Serial6_DMA_RX_Stream, DISABLE);
 114:Bsp/periph_serial_irq.c **** 
 115:Bsp/periph_serial_irq.c **** 		rec = USART6->DR;
 116:Bsp/periph_serial_irq.c **** 		rec = USART6->SR;
 117:Bsp/periph_serial_irq.c **** 
 118:Bsp/periph_serial_irq.c **** 		rec = DMA_GetCurrDataCounter(Serial6_DMA_RX_Stream);
 119:Bsp/periph_serial_irq.c **** 		DMA_ClearFlag(Serial6_DMA_RX_Stream, DMA_FLAG_TCIF1);
 120:Bsp/periph_serial_irq.c **** 		DMA_SetCurrDataCounter(Serial6_DMA_RX_Stream, PCK_MAX);
 121:Bsp/periph_serial_irq.c **** 		DMA_Cmd(Serial6_DMA_RX_Stream, ENABLE);
 122:Bsp/periph_serial_irq.c **** 	}
 123:Bsp/periph_serial_irq.c **** }
ARM GAS  /var/folders/lx/hc4sn_b53233_zkc9xbbl97r0000gp/T//ccCFUuv3.s 			page 11


 404              		.loc 1 123 1 view .LVU91
 405 001a 10BD     		pop	{r4, pc}
 406              	.L33:
 103:Bsp/periph_serial_irq.c **** 		{
 407              		.loc 1 103 3 is_stmt 1 view .LVU92
 103:Bsp/periph_serial_irq.c **** 		{
 408              		.loc 1 103 7 is_stmt 0 view .LVU93
 409 001c 0320     		movs	r0, #3
 410 001e FFF7FEFF 		bl	Serial_Get_IRQ_RxCallback
 411              	.LVL41:
 103:Bsp/periph_serial_irq.c **** 		{
 412              		.loc 1 103 6 view .LVU94
 413 0022 48B1     		cbz	r0, .L30
 105:Bsp/periph_serial_irq.c **** 		}
 414              		.loc 1 105 4 is_stmt 1 view .LVU95
 415 0024 0320     		movs	r0, #3
 416 0026 FFF7FEFF 		bl	Serial_Get_IRQ_RxCallback
 417              	.LVL42:
 418 002a 0446     		mov	r4, r0
 105:Bsp/periph_serial_irq.c **** 		}
 419              		.loc 1 105 49 is_stmt 0 view .LVU96
 420 002c 1248     		ldr	r0, .L35
 421 002e FFF7FEFF 		bl	USART_ReceiveData
 422              	.LVL43:
 105:Bsp/periph_serial_irq.c **** 		}
 423              		.loc 1 105 4 view .LVU97
 424 0032 0121     		movs	r1, #1
 425 0034 C0B2     		uxtb	r0, r0
 426 0036 A047     		blx	r4
 427              	.LVL44:
 428              	.L30:
 108:Bsp/periph_serial_irq.c **** 	}
 429              		.loc 1 108 3 is_stmt 1 view .LVU98
 430 0038 40F22551 		movw	r1, #1317
 431 003c 0E48     		ldr	r0, .L35
 432 003e FFF7FEFF 		bl	USART_ClearITPendingBit
 433              	.LVL45:
 434 0042 E4E7     		b	.L29
 435              	.L34:
 113:Bsp/periph_serial_irq.c **** 
 436              		.loc 1 113 3 view .LVU99
 437 0044 0D4C     		ldr	r4, .L35+4
 438 0046 0021     		movs	r1, #0
 439 0048 2046     		mov	r0, r4
 440 004a FFF7FEFF 		bl	DMA_Cmd
 441              	.LVL46:
 115:Bsp/periph_serial_irq.c **** 		rec = USART6->SR;
 442              		.loc 1 115 3 view .LVU100
 115:Bsp/periph_serial_irq.c **** 		rec = USART6->SR;
 443              		.loc 1 115 15 is_stmt 0 view .LVU101
 444 004e 0A4B     		ldr	r3, .L35
 445 0050 9A88     		ldrh	r2, [r3, #4]
 446              	.LVL47:
 116:Bsp/periph_serial_irq.c **** 
 447              		.loc 1 116 3 is_stmt 1 view .LVU102
 116:Bsp/periph_serial_irq.c **** 
 448              		.loc 1 116 15 is_stmt 0 view .LVU103
ARM GAS  /var/folders/lx/hc4sn_b53233_zkc9xbbl97r0000gp/T//ccCFUuv3.s 			page 12


 449 0052 1B88     		ldrh	r3, [r3]
 118:Bsp/periph_serial_irq.c **** 		DMA_ClearFlag(Serial6_DMA_RX_Stream, DMA_FLAG_TCIF1);
 450              		.loc 1 118 3 is_stmt 1 view .LVU104
 118:Bsp/periph_serial_irq.c **** 		DMA_ClearFlag(Serial6_DMA_RX_Stream, DMA_FLAG_TCIF1);
 451              		.loc 1 118 9 is_stmt 0 view .LVU105
 452 0054 2046     		mov	r0, r4
 453 0056 FFF7FEFF 		bl	DMA_GetCurrDataCounter
 454              	.LVL48:
 119:Bsp/periph_serial_irq.c **** 		DMA_SetCurrDataCounter(Serial6_DMA_RX_Stream, PCK_MAX);
 455              		.loc 1 119 3 is_stmt 1 view .LVU106
 456 005a 0949     		ldr	r1, .L35+8
 457 005c 2046     		mov	r0, r4
 458 005e FFF7FEFF 		bl	DMA_ClearFlag
 459              	.LVL49:
 120:Bsp/periph_serial_irq.c **** 		DMA_Cmd(Serial6_DMA_RX_Stream, ENABLE);
 460              		.loc 1 120 3 view .LVU107
 461 0062 4FF48071 		mov	r1, #256
 462 0066 2046     		mov	r0, r4
 463 0068 FFF7FEFF 		bl	DMA_SetCurrDataCounter
 464              	.LVL50:
 121:Bsp/periph_serial_irq.c **** 	}
 465              		.loc 1 121 3 view .LVU108
 466 006c 0121     		movs	r1, #1
 467 006e 2046     		mov	r0, r4
 468 0070 FFF7FEFF 		bl	DMA_Cmd
 469              	.LVL51:
 470              		.loc 1 123 1 is_stmt 0 view .LVU109
 471 0074 D1E7     		b	.L28
 472              	.L36:
 473 0076 00BF     		.align	2
 474              	.L35:
 475 0078 00140140 		.word	1073812480
 476 007c 28640240 		.word	1073898536
 477 0080 00080010 		.word	268437504
 478              		.cfi_endproc
 479              	.LFE126:
 481              		.text
 482              	.Letext0:
 483              		.file 2 "/usr/local/arm-none-eabi-gcc/gcc-arm-none-eabi-10-2020-q4-major/arm-none-eabi/include/mac
 484              		.file 3 "/usr/local/arm-none-eabi-gcc/gcc-arm-none-eabi-10-2020-q4-major/arm-none-eabi/include/sys
 485              		.file 4 "USER/stm32f4xx.h"
 486              		.file 5 "Bsp/periph_serial.h"
 487              		.file 6 "FWLIB/inc/stm32f4xx_usart.h"
 488              		.file 7 "FWLIB/inc/stm32f4xx_dma.h"
ARM GAS  /var/folders/lx/hc4sn_b53233_zkc9xbbl97r0000gp/T//ccCFUuv3.s 			page 13


DEFINED SYMBOLS
                            *ABS*:0000000000000000 periph_serial_irq.c
/var/folders/lx/hc4sn_b53233_zkc9xbbl97r0000gp/T//ccCFUuv3.s:18     .text.USART1_IRQHandler:0000000000000000 $t
/var/folders/lx/hc4sn_b53233_zkc9xbbl97r0000gp/T//ccCFUuv3.s:26     .text.USART1_IRQHandler:0000000000000000 USART1_IRQHandler
/var/folders/lx/hc4sn_b53233_zkc9xbbl97r0000gp/T//ccCFUuv3.s:130    .text.USART1_IRQHandler:0000000000000078 $d
/var/folders/lx/hc4sn_b53233_zkc9xbbl97r0000gp/T//ccCFUuv3.s:137    .text.USART2_IRQHandler:0000000000000000 $t
/var/folders/lx/hc4sn_b53233_zkc9xbbl97r0000gp/T//ccCFUuv3.s:144    .text.USART2_IRQHandler:0000000000000000 USART2_IRQHandler
/var/folders/lx/hc4sn_b53233_zkc9xbbl97r0000gp/T//ccCFUuv3.s:245    .text.USART2_IRQHandler:0000000000000078 $d
/var/folders/lx/hc4sn_b53233_zkc9xbbl97r0000gp/T//ccCFUuv3.s:252    .text.USART3_IRQHandler:0000000000000000 $t
/var/folders/lx/hc4sn_b53233_zkc9xbbl97r0000gp/T//ccCFUuv3.s:259    .text.USART3_IRQHandler:0000000000000000 USART3_IRQHandler
/var/folders/lx/hc4sn_b53233_zkc9xbbl97r0000gp/T//ccCFUuv3.s:360    .text.USART3_IRQHandler:0000000000000078 $d
/var/folders/lx/hc4sn_b53233_zkc9xbbl97r0000gp/T//ccCFUuv3.s:367    .text.USART6_IRQHandler:0000000000000000 $t
/var/folders/lx/hc4sn_b53233_zkc9xbbl97r0000gp/T//ccCFUuv3.s:374    .text.USART6_IRQHandler:0000000000000000 USART6_IRQHandler
/var/folders/lx/hc4sn_b53233_zkc9xbbl97r0000gp/T//ccCFUuv3.s:475    .text.USART6_IRQHandler:0000000000000078 $d

UNDEFINED SYMBOLS
USART_GetITStatus
Serial_Get_IRQ_RxCallback
USART_ReceiveData
USART_ClearITPendingBit
DMA_Cmd
DMA_GetCurrDataCounter
DMA_ClearFlag
DMA_SetCurrDataCounter
