ARM GAS  /var/folders/lx/hc4sn_b53233_zkc9xbbl97r0000gp/T//ccD4g9oU.s 			page 1


   1              		.cpu cortex-m4
   2              		.eabi_attribute 27, 1
   3              		.eabi_attribute 28, 1
   4              		.eabi_attribute 20, 1
   5              		.eabi_attribute 21, 1
   6              		.eabi_attribute 23, 3
   7              		.eabi_attribute 24, 1
   8              		.eabi_attribute 25, 1
   9              		.eabi_attribute 26, 1
  10              		.eabi_attribute 30, 1
  11              		.eabi_attribute 34, 1
  12              		.eabi_attribute 18, 4
  13              		.file	"periph_serial_irq.c"
  14              		.text
  15              	.Ltext0:
  16              		.cfi_sections	.debug_frame
  17              		.section	.text.USART1_IRQHandler,"ax",%progbits
  18              		.align	1
  19              		.global	USART1_IRQHandler
  20              		.arch armv7e-m
  21              		.syntax unified
  22              		.thumb
  23              		.thumb_func
  24              		.fpu fpv4-sp-d16
  26              	USART1_IRQHandler:
  27              	.LFB123:
  28              		.file 1 "Bsp/periph_serial_irq.c"
   1:Bsp/periph_serial_irq.c **** #include "periph_serial_irq.h"
   2:Bsp/periph_serial_irq.c **** #include "periph_serial.h"
   3:Bsp/periph_serial_irq.c **** #include "periph_gpio.h"
   4:Bsp/periph_serial_irq.c **** #include "periph_dma.h"
   5:Bsp/periph_serial_irq.c **** #include "string.h"
   6:Bsp/periph_serial_irq.c **** #include "stm32f4xx_usart.h"
   7:Bsp/periph_serial_irq.c **** #include "stm32f4xx_dma.h"
   8:Bsp/periph_serial_irq.c **** 
   9:Bsp/periph_serial_irq.c **** extern uint8_t Serial_TX_Buff[Serial_Port_Sum][SERIAL_MAX_RECLEN];
  10:Bsp/periph_serial_irq.c **** extern uint8_t Serial_RX_Buff[Serial_Port_Sum][SERIAL_MAX_RECLEN];
  11:Bsp/periph_serial_irq.c **** 
  12:Bsp/periph_serial_irq.c **** void USART1_IRQHandler(void)
  13:Bsp/periph_serial_irq.c **** {
  29              		.loc 1 13 1 view -0
  30              		.cfi_startproc
  31              		@ args = 0, pretend = 0, frame = 0
  32              		@ frame_needed = 0, uses_anonymous_args = 0
  33 0000 38B5     		push	{r3, r4, r5, lr}
  34              	.LCFI0:
  35              		.cfi_def_cfa_offset 16
  36              		.cfi_offset 3, -16
  37              		.cfi_offset 4, -12
  38              		.cfi_offset 5, -8
  39              		.cfi_offset 14, -4
  14:Bsp/periph_serial_irq.c **** 	uint8_t rec;
  40              		.loc 1 14 2 view .LVU1
  15:Bsp/periph_serial_irq.c **** 	static u8 rec_len = 0;
  41              		.loc 1 15 2 view .LVU2
  16:Bsp/periph_serial_irq.c **** 	static u8 rec_enable = 0;
  42              		.loc 1 16 2 view .LVU3
ARM GAS  /var/folders/lx/hc4sn_b53233_zkc9xbbl97r0000gp/T//ccD4g9oU.s 			page 2


  17:Bsp/periph_serial_irq.c **** 
  18:Bsp/periph_serial_irq.c **** 	if (USART_GetITStatus(USART1, USART_IT_RXNE) != RESET)
  43              		.loc 1 18 2 view .LVU4
  44              		.loc 1 18 6 is_stmt 0 view .LVU5
  45 0002 40F22551 		movw	r1, #1317
  46 0006 2648     		ldr	r0, .L9
  47 0008 FFF7FEFF 		bl	USART_GetITStatus
  48              	.LVL0:
  49              		.loc 1 18 5 view .LVU6
  50 000c 30B9     		cbnz	r0, .L7
  51              	.L2:
  19:Bsp/periph_serial_irq.c **** 	{
  20:Bsp/periph_serial_irq.c **** 		if (Serial_Get_IRQ_RxCallback(Serial_1) != NULL)
  21:Bsp/periph_serial_irq.c **** 		{
  22:Bsp/periph_serial_irq.c **** 			Serial_Get_IRQ_RxCallback(Serial_1)((uint8_t)USART_ReceiveData(USART1), 1);
  23:Bsp/periph_serial_irq.c **** 		}
  24:Bsp/periph_serial_irq.c **** 
  25:Bsp/periph_serial_irq.c **** 		USART_ClearITPendingBit(USART1, USART_IT_RXNE);
  26:Bsp/periph_serial_irq.c **** 	}
  27:Bsp/periph_serial_irq.c **** 
  28:Bsp/periph_serial_irq.c **** 	if (USART_GetITStatus(USART1, USART_IT_IDLE) != RESET)
  52              		.loc 1 28 2 is_stmt 1 view .LVU7
  53              		.loc 1 28 6 is_stmt 0 view .LVU8
  54 000e 40F22441 		movw	r1, #1060
  55 0012 2348     		ldr	r0, .L9
  56 0014 FFF7FEFF 		bl	USART_GetITStatus
  57              	.LVL1:
  58              		.loc 1 28 5 view .LVU9
  59 0018 A0B9     		cbnz	r0, .L8
  60              	.L1:
  29:Bsp/periph_serial_irq.c **** 	{
  30:Bsp/periph_serial_irq.c **** 		DMA_Cmd(Serial1_DMA_RX_Stream, DISABLE);
  31:Bsp/periph_serial_irq.c **** 
  32:Bsp/periph_serial_irq.c **** 		rec = USART1->DR;
  33:Bsp/periph_serial_irq.c **** 		rec = USART1->SR;
  34:Bsp/periph_serial_irq.c **** 
  35:Bsp/periph_serial_irq.c **** 		rec = SERIAL_MAX_RECLEN - DMA_GetCurrDataCounter(Serial1_DMA_RX_Stream);
  36:Bsp/periph_serial_irq.c **** 
  37:Bsp/periph_serial_irq.c **** 		if (Serial_Get_IRQ_RxCallback(Serial_1) != NULL)
  38:Bsp/periph_serial_irq.c **** 		{
  39:Bsp/periph_serial_irq.c **** 			Serial_Get_IRQ_RxCallback(Serial_1)(Serial_RX_Buff[Serial_1], rec);
  40:Bsp/periph_serial_irq.c **** 		}
  41:Bsp/periph_serial_irq.c **** 
  42:Bsp/periph_serial_irq.c **** 		memset(Serial_RX_Buff[Serial_1], NULL, SERIAL_MAX_RECLEN);
  43:Bsp/periph_serial_irq.c **** 
  44:Bsp/periph_serial_irq.c **** 		DMA_ClearFlag(Serial1_DMA_RX_Stream, DMA_FLAG_TCIF5);
  45:Bsp/periph_serial_irq.c **** 		DMA_SetCurrDataCounter(Serial1_DMA_RX_Stream, SERIAL_MAX_RECLEN);
  46:Bsp/periph_serial_irq.c **** 		DMA_Cmd(Serial1_DMA_RX_Stream, ENABLE);
  47:Bsp/periph_serial_irq.c **** 	}
  48:Bsp/periph_serial_irq.c **** }
  61              		.loc 1 48 1 view .LVU10
  62 001a 38BD     		pop	{r3, r4, r5, pc}
  63              	.L7:
  20:Bsp/periph_serial_irq.c **** 		{
  64              		.loc 1 20 3 is_stmt 1 view .LVU11
  20:Bsp/periph_serial_irq.c **** 		{
  65              		.loc 1 20 7 is_stmt 0 view .LVU12
ARM GAS  /var/folders/lx/hc4sn_b53233_zkc9xbbl97r0000gp/T//ccD4g9oU.s 			page 3


  66 001c 0020     		movs	r0, #0
  67 001e FFF7FEFF 		bl	Serial_Get_IRQ_RxCallback
  68              	.LVL2:
  20:Bsp/periph_serial_irq.c **** 		{
  69              		.loc 1 20 6 view .LVU13
  70 0022 48B1     		cbz	r0, .L3
  22:Bsp/periph_serial_irq.c **** 		}
  71              		.loc 1 22 4 is_stmt 1 view .LVU14
  72 0024 0020     		movs	r0, #0
  73 0026 FFF7FEFF 		bl	Serial_Get_IRQ_RxCallback
  74              	.LVL3:
  75 002a 0446     		mov	r4, r0
  22:Bsp/periph_serial_irq.c **** 		}
  76              		.loc 1 22 49 is_stmt 0 view .LVU15
  77 002c 1C48     		ldr	r0, .L9
  78 002e FFF7FEFF 		bl	USART_ReceiveData
  79              	.LVL4:
  22:Bsp/periph_serial_irq.c **** 		}
  80              		.loc 1 22 4 view .LVU16
  81 0032 0121     		movs	r1, #1
  82 0034 C0B2     		uxtb	r0, r0
  83 0036 A047     		blx	r4
  84              	.LVL5:
  85              	.L3:
  25:Bsp/periph_serial_irq.c **** 	}
  86              		.loc 1 25 3 is_stmt 1 view .LVU17
  87 0038 40F22551 		movw	r1, #1317
  88 003c 1848     		ldr	r0, .L9
  89 003e FFF7FEFF 		bl	USART_ClearITPendingBit
  90              	.LVL6:
  91 0042 E4E7     		b	.L2
  92              	.L8:
  30:Bsp/periph_serial_irq.c **** 
  93              		.loc 1 30 3 view .LVU18
  94 0044 174C     		ldr	r4, .L9+4
  95 0046 0021     		movs	r1, #0
  96 0048 2046     		mov	r0, r4
  97 004a FFF7FEFF 		bl	DMA_Cmd
  98              	.LVL7:
  32:Bsp/periph_serial_irq.c **** 		rec = USART1->SR;
  99              		.loc 1 32 3 view .LVU19
  32:Bsp/periph_serial_irq.c **** 		rec = USART1->SR;
 100              		.loc 1 32 15 is_stmt 0 view .LVU20
 101 004e 144B     		ldr	r3, .L9
 102 0050 9A88     		ldrh	r2, [r3, #4]
 103              	.LVL8:
  33:Bsp/periph_serial_irq.c **** 
 104              		.loc 1 33 3 is_stmt 1 view .LVU21
  33:Bsp/periph_serial_irq.c **** 
 105              		.loc 1 33 15 is_stmt 0 view .LVU22
 106 0052 1B88     		ldrh	r3, [r3]
  35:Bsp/periph_serial_irq.c **** 
 107              		.loc 1 35 3 is_stmt 1 view .LVU23
  35:Bsp/periph_serial_irq.c **** 
 108              		.loc 1 35 29 is_stmt 0 view .LVU24
 109 0054 2046     		mov	r0, r4
 110 0056 FFF7FEFF 		bl	DMA_GetCurrDataCounter
ARM GAS  /var/folders/lx/hc4sn_b53233_zkc9xbbl97r0000gp/T//ccD4g9oU.s 			page 4


 111              	.LVL9:
  35:Bsp/periph_serial_irq.c **** 
 112              		.loc 1 35 27 view .LVU25
 113 005a C1B2     		uxtb	r1, r0
  35:Bsp/periph_serial_irq.c **** 
 114              		.loc 1 35 7 view .LVU26
 115 005c 4942     		rsbs	r1, r1, #0
 116 005e CCB2     		uxtb	r4, r1
 117              	.LVL10:
  37:Bsp/periph_serial_irq.c **** 		{
 118              		.loc 1 37 3 is_stmt 1 view .LVU27
  37:Bsp/periph_serial_irq.c **** 		{
 119              		.loc 1 37 7 is_stmt 0 view .LVU28
 120 0060 0020     		movs	r0, #0
 121 0062 FFF7FEFF 		bl	Serial_Get_IRQ_RxCallback
 122              	.LVL11:
  37:Bsp/periph_serial_irq.c **** 		{
 123              		.loc 1 37 6 view .LVU29
 124 0066 30B1     		cbz	r0, .L5
  39:Bsp/periph_serial_irq.c **** 		}
 125              		.loc 1 39 4 is_stmt 1 view .LVU30
 126 0068 0020     		movs	r0, #0
 127 006a FFF7FEFF 		bl	Serial_Get_IRQ_RxCallback
 128              	.LVL12:
 129 006e 0346     		mov	r3, r0
 130 0070 2146     		mov	r1, r4
 131 0072 0D48     		ldr	r0, .L9+8
 132 0074 9847     		blx	r3
 133              	.LVL13:
 134              	.L5:
  42:Bsp/periph_serial_irq.c **** 
 135              		.loc 1 42 3 view .LVU31
 136 0076 4FF40075 		mov	r5, #512
 137 007a 2A46     		mov	r2, r5
 138 007c 0021     		movs	r1, #0
 139 007e 0A48     		ldr	r0, .L9+8
 140 0080 FFF7FEFF 		bl	memset
 141              	.LVL14:
  44:Bsp/periph_serial_irq.c **** 		DMA_SetCurrDataCounter(Serial1_DMA_RX_Stream, SERIAL_MAX_RECLEN);
 142              		.loc 1 44 3 view .LVU32
 143 0084 074C     		ldr	r4, .L9+4
 144              	.LVL15:
  44:Bsp/periph_serial_irq.c **** 		DMA_SetCurrDataCounter(Serial1_DMA_RX_Stream, SERIAL_MAX_RECLEN);
 145              		.loc 1 44 3 is_stmt 0 view .LVU33
 146 0086 0949     		ldr	r1, .L9+12
 147 0088 2046     		mov	r0, r4
 148 008a FFF7FEFF 		bl	DMA_ClearFlag
 149              	.LVL16:
  45:Bsp/periph_serial_irq.c **** 		DMA_Cmd(Serial1_DMA_RX_Stream, ENABLE);
 150              		.loc 1 45 3 is_stmt 1 view .LVU34
 151 008e 2946     		mov	r1, r5
 152 0090 2046     		mov	r0, r4
 153 0092 FFF7FEFF 		bl	DMA_SetCurrDataCounter
 154              	.LVL17:
  46:Bsp/periph_serial_irq.c **** 	}
 155              		.loc 1 46 3 view .LVU35
 156 0096 0121     		movs	r1, #1
ARM GAS  /var/folders/lx/hc4sn_b53233_zkc9xbbl97r0000gp/T//ccD4g9oU.s 			page 5


 157 0098 2046     		mov	r0, r4
 158 009a FFF7FEFF 		bl	DMA_Cmd
 159              	.LVL18:
 160              		.loc 1 48 1 is_stmt 0 view .LVU36
 161 009e BCE7     		b	.L1
 162              	.L10:
 163              		.align	2
 164              	.L9:
 165 00a0 00100140 		.word	1073811456
 166 00a4 88640240 		.word	1073898632
 167 00a8 00000000 		.word	Serial_RX_Buff
 168 00ac 00080020 		.word	536872960
 169              		.cfi_endproc
 170              	.LFE123:
 172              		.section	.text.USART2_IRQHandler,"ax",%progbits
 173              		.align	1
 174              		.global	USART2_IRQHandler
 175              		.syntax unified
 176              		.thumb
 177              		.thumb_func
 178              		.fpu fpv4-sp-d16
 180              	USART2_IRQHandler:
 181              	.LFB124:
  49:Bsp/periph_serial_irq.c **** 
  50:Bsp/periph_serial_irq.c **** void USART2_IRQHandler(void)
  51:Bsp/periph_serial_irq.c **** {
 182              		.loc 1 51 1 is_stmt 1 view -0
 183              		.cfi_startproc
 184              		@ args = 0, pretend = 0, frame = 0
 185              		@ frame_needed = 0, uses_anonymous_args = 0
 186 0000 38B5     		push	{r3, r4, r5, lr}
 187              	.LCFI1:
 188              		.cfi_def_cfa_offset 16
 189              		.cfi_offset 3, -16
 190              		.cfi_offset 4, -12
 191              		.cfi_offset 5, -8
 192              		.cfi_offset 14, -4
  52:Bsp/periph_serial_irq.c **** 	uint8_t rec;
 193              		.loc 1 52 2 view .LVU38
  53:Bsp/periph_serial_irq.c **** 
  54:Bsp/periph_serial_irq.c **** 	if (USART_GetITStatus(USART2, USART_IT_RXNE) != RESET)
 194              		.loc 1 54 2 view .LVU39
 195              		.loc 1 54 6 is_stmt 0 view .LVU40
 196 0002 40F22551 		movw	r1, #1317
 197 0006 2648     		ldr	r0, .L19
 198 0008 FFF7FEFF 		bl	USART_GetITStatus
 199              	.LVL19:
 200              		.loc 1 54 5 view .LVU41
 201 000c 30B9     		cbnz	r0, .L17
 202              	.L12:
  55:Bsp/periph_serial_irq.c **** 	{
  56:Bsp/periph_serial_irq.c **** 		if (Serial_Get_IRQ_RxCallback(Serial_2) != NULL)
  57:Bsp/periph_serial_irq.c **** 		{
  58:Bsp/periph_serial_irq.c **** 			Serial_Get_IRQ_RxCallback(Serial_2)((uint8_t)USART_ReceiveData(USART2), 1);
  59:Bsp/periph_serial_irq.c **** 		}
  60:Bsp/periph_serial_irq.c **** 
  61:Bsp/periph_serial_irq.c **** 		USART_ClearITPendingBit(USART2, USART_IT_RXNE);
ARM GAS  /var/folders/lx/hc4sn_b53233_zkc9xbbl97r0000gp/T//ccD4g9oU.s 			page 6


  62:Bsp/periph_serial_irq.c **** 	}
  63:Bsp/periph_serial_irq.c **** 
  64:Bsp/periph_serial_irq.c **** 	if (USART_GetITStatus(USART2, USART_IT_IDLE) != RESET)
 203              		.loc 1 64 2 is_stmt 1 view .LVU42
 204              		.loc 1 64 6 is_stmt 0 view .LVU43
 205 000e 40F22441 		movw	r1, #1060
 206 0012 2348     		ldr	r0, .L19
 207 0014 FFF7FEFF 		bl	USART_GetITStatus
 208              	.LVL20:
 209              		.loc 1 64 5 view .LVU44
 210 0018 A0B9     		cbnz	r0, .L18
 211              	.L11:
  65:Bsp/periph_serial_irq.c **** 	{
  66:Bsp/periph_serial_irq.c **** 		DMA_Cmd(Serial2_DMA_RX_Stream, DISABLE);
  67:Bsp/periph_serial_irq.c **** 
  68:Bsp/periph_serial_irq.c **** 		rec = USART2->DR;
  69:Bsp/periph_serial_irq.c **** 		rec = USART2->SR;
  70:Bsp/periph_serial_irq.c **** 
  71:Bsp/periph_serial_irq.c **** 		rec = SERIAL_MAX_RECLEN - DMA_GetCurrDataCounter(Serial2_DMA_RX_Stream);
  72:Bsp/periph_serial_irq.c **** 
  73:Bsp/periph_serial_irq.c **** 		if (Serial_Get_IRQ_RxCallback(Serial_2) != NULL)
  74:Bsp/periph_serial_irq.c **** 		{
  75:Bsp/periph_serial_irq.c **** 			Serial_Get_IRQ_RxCallback(Serial_2)(Serial_RX_Buff[Serial_2], rec);
  76:Bsp/periph_serial_irq.c **** 		}
  77:Bsp/periph_serial_irq.c **** 
  78:Bsp/periph_serial_irq.c **** 		memset(Serial_RX_Buff[Serial_2], NULL, SERIAL_MAX_RECLEN);
  79:Bsp/periph_serial_irq.c **** 
  80:Bsp/periph_serial_irq.c **** 		DMA_ClearFlag(Serial2_DMA_RX_Stream, DMA_FLAG_TCIF5);
  81:Bsp/periph_serial_irq.c **** 		DMA_SetCurrDataCounter(Serial2_DMA_RX_Stream, SERIAL_MAX_RECLEN);
  82:Bsp/periph_serial_irq.c **** 		DMA_Cmd(Serial2_DMA_RX_Stream, ENABLE);
  83:Bsp/periph_serial_irq.c **** 	}
  84:Bsp/periph_serial_irq.c **** }
 212              		.loc 1 84 1 view .LVU45
 213 001a 38BD     		pop	{r3, r4, r5, pc}
 214              	.L17:
  56:Bsp/periph_serial_irq.c **** 		{
 215              		.loc 1 56 3 is_stmt 1 view .LVU46
  56:Bsp/periph_serial_irq.c **** 		{
 216              		.loc 1 56 7 is_stmt 0 view .LVU47
 217 001c 0120     		movs	r0, #1
 218 001e FFF7FEFF 		bl	Serial_Get_IRQ_RxCallback
 219              	.LVL21:
  56:Bsp/periph_serial_irq.c **** 		{
 220              		.loc 1 56 6 view .LVU48
 221 0022 48B1     		cbz	r0, .L13
  58:Bsp/periph_serial_irq.c **** 		}
 222              		.loc 1 58 4 is_stmt 1 view .LVU49
 223 0024 0120     		movs	r0, #1
 224 0026 FFF7FEFF 		bl	Serial_Get_IRQ_RxCallback
 225              	.LVL22:
 226 002a 0446     		mov	r4, r0
  58:Bsp/periph_serial_irq.c **** 		}
 227              		.loc 1 58 49 is_stmt 0 view .LVU50
 228 002c 1C48     		ldr	r0, .L19
 229 002e FFF7FEFF 		bl	USART_ReceiveData
 230              	.LVL23:
  58:Bsp/periph_serial_irq.c **** 		}
ARM GAS  /var/folders/lx/hc4sn_b53233_zkc9xbbl97r0000gp/T//ccD4g9oU.s 			page 7


 231              		.loc 1 58 4 view .LVU51
 232 0032 0121     		movs	r1, #1
 233 0034 C0B2     		uxtb	r0, r0
 234 0036 A047     		blx	r4
 235              	.LVL24:
 236              	.L13:
  61:Bsp/periph_serial_irq.c **** 	}
 237              		.loc 1 61 3 is_stmt 1 view .LVU52
 238 0038 40F22551 		movw	r1, #1317
 239 003c 1848     		ldr	r0, .L19
 240 003e FFF7FEFF 		bl	USART_ClearITPendingBit
 241              	.LVL25:
 242 0042 E4E7     		b	.L12
 243              	.L18:
  66:Bsp/periph_serial_irq.c **** 
 244              		.loc 1 66 3 view .LVU53
 245 0044 174C     		ldr	r4, .L19+4
 246 0046 0021     		movs	r1, #0
 247 0048 2046     		mov	r0, r4
 248 004a FFF7FEFF 		bl	DMA_Cmd
 249              	.LVL26:
  68:Bsp/periph_serial_irq.c **** 		rec = USART2->SR;
 250              		.loc 1 68 3 view .LVU54
  68:Bsp/periph_serial_irq.c **** 		rec = USART2->SR;
 251              		.loc 1 68 15 is_stmt 0 view .LVU55
 252 004e 144B     		ldr	r3, .L19
 253 0050 9A88     		ldrh	r2, [r3, #4]
 254              	.LVL27:
  69:Bsp/periph_serial_irq.c **** 
 255              		.loc 1 69 3 is_stmt 1 view .LVU56
  69:Bsp/periph_serial_irq.c **** 
 256              		.loc 1 69 15 is_stmt 0 view .LVU57
 257 0052 1B88     		ldrh	r3, [r3]
  71:Bsp/periph_serial_irq.c **** 
 258              		.loc 1 71 3 is_stmt 1 view .LVU58
  71:Bsp/periph_serial_irq.c **** 
 259              		.loc 1 71 29 is_stmt 0 view .LVU59
 260 0054 2046     		mov	r0, r4
 261 0056 FFF7FEFF 		bl	DMA_GetCurrDataCounter
 262              	.LVL28:
  71:Bsp/periph_serial_irq.c **** 
 263              		.loc 1 71 27 view .LVU60
 264 005a C1B2     		uxtb	r1, r0
  71:Bsp/periph_serial_irq.c **** 
 265              		.loc 1 71 7 view .LVU61
 266 005c 4942     		rsbs	r1, r1, #0
 267 005e CCB2     		uxtb	r4, r1
 268              	.LVL29:
  73:Bsp/periph_serial_irq.c **** 		{
 269              		.loc 1 73 3 is_stmt 1 view .LVU62
  73:Bsp/periph_serial_irq.c **** 		{
 270              		.loc 1 73 7 is_stmt 0 view .LVU63
 271 0060 0120     		movs	r0, #1
 272 0062 FFF7FEFF 		bl	Serial_Get_IRQ_RxCallback
 273              	.LVL30:
  73:Bsp/periph_serial_irq.c **** 		{
 274              		.loc 1 73 6 view .LVU64
ARM GAS  /var/folders/lx/hc4sn_b53233_zkc9xbbl97r0000gp/T//ccD4g9oU.s 			page 8


 275 0066 30B1     		cbz	r0, .L15
  75:Bsp/periph_serial_irq.c **** 		}
 276              		.loc 1 75 4 is_stmt 1 view .LVU65
 277 0068 0120     		movs	r0, #1
 278 006a FFF7FEFF 		bl	Serial_Get_IRQ_RxCallback
 279              	.LVL31:
 280 006e 0346     		mov	r3, r0
 281 0070 2146     		mov	r1, r4
 282 0072 0D48     		ldr	r0, .L19+8
 283 0074 9847     		blx	r3
 284              	.LVL32:
 285              	.L15:
  78:Bsp/periph_serial_irq.c **** 
 286              		.loc 1 78 3 view .LVU66
 287 0076 4FF40075 		mov	r5, #512
 288 007a 2A46     		mov	r2, r5
 289 007c 0021     		movs	r1, #0
 290 007e 0A48     		ldr	r0, .L19+8
 291 0080 FFF7FEFF 		bl	memset
 292              	.LVL33:
  80:Bsp/periph_serial_irq.c **** 		DMA_SetCurrDataCounter(Serial2_DMA_RX_Stream, SERIAL_MAX_RECLEN);
 293              		.loc 1 80 3 view .LVU67
 294 0084 074C     		ldr	r4, .L19+4
 295              	.LVL34:
  80:Bsp/periph_serial_irq.c **** 		DMA_SetCurrDataCounter(Serial2_DMA_RX_Stream, SERIAL_MAX_RECLEN);
 296              		.loc 1 80 3 is_stmt 0 view .LVU68
 297 0086 0949     		ldr	r1, .L19+12
 298 0088 2046     		mov	r0, r4
 299 008a FFF7FEFF 		bl	DMA_ClearFlag
 300              	.LVL35:
  81:Bsp/periph_serial_irq.c **** 		DMA_Cmd(Serial2_DMA_RX_Stream, ENABLE);
 301              		.loc 1 81 3 is_stmt 1 view .LVU69
 302 008e 2946     		mov	r1, r5
 303 0090 2046     		mov	r0, r4
 304 0092 FFF7FEFF 		bl	DMA_SetCurrDataCounter
 305              	.LVL36:
  82:Bsp/periph_serial_irq.c **** 	}
 306              		.loc 1 82 3 view .LVU70
 307 0096 0121     		movs	r1, #1
 308 0098 2046     		mov	r0, r4
 309 009a FFF7FEFF 		bl	DMA_Cmd
 310              	.LVL37:
 311              		.loc 1 84 1 is_stmt 0 view .LVU71
 312 009e BCE7     		b	.L11
 313              	.L20:
 314              		.align	2
 315              	.L19:
 316 00a0 00440040 		.word	1073759232
 317 00a4 88600240 		.word	1073897608
 318 00a8 00020000 		.word	Serial_RX_Buff+512
 319 00ac 00080020 		.word	536872960
 320              		.cfi_endproc
 321              	.LFE124:
 323              		.section	.text.USART3_IRQHandler,"ax",%progbits
 324              		.align	1
 325              		.global	USART3_IRQHandler
 326              		.syntax unified
ARM GAS  /var/folders/lx/hc4sn_b53233_zkc9xbbl97r0000gp/T//ccD4g9oU.s 			page 9


 327              		.thumb
 328              		.thumb_func
 329              		.fpu fpv4-sp-d16
 331              	USART3_IRQHandler:
 332              	.LFB125:
  85:Bsp/periph_serial_irq.c **** 
  86:Bsp/periph_serial_irq.c **** void USART3_IRQHandler(void)
  87:Bsp/periph_serial_irq.c **** {
 333              		.loc 1 87 1 is_stmt 1 view -0
 334              		.cfi_startproc
 335              		@ args = 0, pretend = 0, frame = 0
 336              		@ frame_needed = 0, uses_anonymous_args = 0
 337 0000 10B5     		push	{r4, lr}
 338              	.LCFI2:
 339              		.cfi_def_cfa_offset 8
 340              		.cfi_offset 4, -8
 341              		.cfi_offset 14, -4
  88:Bsp/periph_serial_irq.c **** 	uint8_t rec;
 342              		.loc 1 88 2 view .LVU73
  89:Bsp/periph_serial_irq.c **** 
  90:Bsp/periph_serial_irq.c **** 	if (USART_GetITStatus(USART3, USART_IT_RXNE) != RESET)
 343              		.loc 1 90 2 view .LVU74
 344              		.loc 1 90 6 is_stmt 0 view .LVU75
 345 0002 40F22551 		movw	r1, #1317
 346 0006 1C48     		ldr	r0, .L28
 347 0008 FFF7FEFF 		bl	USART_GetITStatus
 348              	.LVL38:
 349              		.loc 1 90 5 view .LVU76
 350 000c 30B9     		cbnz	r0, .L26
 351              	.L22:
  91:Bsp/periph_serial_irq.c **** 	{
  92:Bsp/periph_serial_irq.c **** 		if (Serial_Get_IRQ_RxCallback(Serial_3) != NULL)
  93:Bsp/periph_serial_irq.c **** 		{
  94:Bsp/periph_serial_irq.c **** 			Serial_Get_IRQ_RxCallback(Serial_3)((uint8_t)USART_ReceiveData(USART3), 1);
  95:Bsp/periph_serial_irq.c **** 		}
  96:Bsp/periph_serial_irq.c **** 
  97:Bsp/periph_serial_irq.c **** 		USART_ClearITPendingBit(USART3, USART_IT_RXNE);
  98:Bsp/periph_serial_irq.c **** 	}
  99:Bsp/periph_serial_irq.c **** 
 100:Bsp/periph_serial_irq.c **** 	if (USART_GetITStatus(USART3, USART_IT_IDLE) != RESET)
 352              		.loc 1 100 2 is_stmt 1 view .LVU77
 353              		.loc 1 100 6 is_stmt 0 view .LVU78
 354 000e 40F22441 		movw	r1, #1060
 355 0012 1948     		ldr	r0, .L28
 356 0014 FFF7FEFF 		bl	USART_GetITStatus
 357              	.LVL39:
 358              		.loc 1 100 5 view .LVU79
 359 0018 A0B9     		cbnz	r0, .L27
 360              	.L21:
 101:Bsp/periph_serial_irq.c **** 	{
 102:Bsp/periph_serial_irq.c **** 		DMA_Cmd(Serial3_DMA_RX_Stream, DISABLE);
 103:Bsp/periph_serial_irq.c **** 
 104:Bsp/periph_serial_irq.c **** 		rec = USART3->DR;
 105:Bsp/periph_serial_irq.c **** 		rec = USART3->SR;
 106:Bsp/periph_serial_irq.c **** 
 107:Bsp/periph_serial_irq.c **** 		rec = DMA_GetCurrDataCounter(Serial3_DMA_RX_Stream);
 108:Bsp/periph_serial_irq.c **** 		DMA_ClearFlag(Serial3_DMA_RX_Stream, DMA_FLAG_TCIF1);
ARM GAS  /var/folders/lx/hc4sn_b53233_zkc9xbbl97r0000gp/T//ccD4g9oU.s 			page 10


 109:Bsp/periph_serial_irq.c **** 		DMA_SetCurrDataCounter(Serial3_DMA_RX_Stream, SERIAL_MAX_RECLEN);
 110:Bsp/periph_serial_irq.c **** 		DMA_Cmd(Serial3_DMA_RX_Stream, ENABLE);
 111:Bsp/periph_serial_irq.c **** 	}
 112:Bsp/periph_serial_irq.c **** }
 361              		.loc 1 112 1 view .LVU80
 362 001a 10BD     		pop	{r4, pc}
 363              	.L26:
  92:Bsp/periph_serial_irq.c **** 		{
 364              		.loc 1 92 3 is_stmt 1 view .LVU81
  92:Bsp/periph_serial_irq.c **** 		{
 365              		.loc 1 92 7 is_stmt 0 view .LVU82
 366 001c 0220     		movs	r0, #2
 367 001e FFF7FEFF 		bl	Serial_Get_IRQ_RxCallback
 368              	.LVL40:
  92:Bsp/periph_serial_irq.c **** 		{
 369              		.loc 1 92 6 view .LVU83
 370 0022 48B1     		cbz	r0, .L23
  94:Bsp/periph_serial_irq.c **** 		}
 371              		.loc 1 94 4 is_stmt 1 view .LVU84
 372 0024 0220     		movs	r0, #2
 373 0026 FFF7FEFF 		bl	Serial_Get_IRQ_RxCallback
 374              	.LVL41:
 375 002a 0446     		mov	r4, r0
  94:Bsp/periph_serial_irq.c **** 		}
 376              		.loc 1 94 49 is_stmt 0 view .LVU85
 377 002c 1248     		ldr	r0, .L28
 378 002e FFF7FEFF 		bl	USART_ReceiveData
 379              	.LVL42:
  94:Bsp/periph_serial_irq.c **** 		}
 380              		.loc 1 94 4 view .LVU86
 381 0032 0121     		movs	r1, #1
 382 0034 C0B2     		uxtb	r0, r0
 383 0036 A047     		blx	r4
 384              	.LVL43:
 385              	.L23:
  97:Bsp/periph_serial_irq.c **** 	}
 386              		.loc 1 97 3 is_stmt 1 view .LVU87
 387 0038 40F22551 		movw	r1, #1317
 388 003c 0E48     		ldr	r0, .L28
 389 003e FFF7FEFF 		bl	USART_ClearITPendingBit
 390              	.LVL44:
 391 0042 E4E7     		b	.L22
 392              	.L27:
 102:Bsp/periph_serial_irq.c **** 
 393              		.loc 1 102 3 view .LVU88
 394 0044 0D4C     		ldr	r4, .L28+4
 395 0046 0021     		movs	r1, #0
 396 0048 2046     		mov	r0, r4
 397 004a FFF7FEFF 		bl	DMA_Cmd
 398              	.LVL45:
 104:Bsp/periph_serial_irq.c **** 		rec = USART3->SR;
 399              		.loc 1 104 3 view .LVU89
 104:Bsp/periph_serial_irq.c **** 		rec = USART3->SR;
 400              		.loc 1 104 15 is_stmt 0 view .LVU90
 401 004e 0A4B     		ldr	r3, .L28
 402 0050 9A88     		ldrh	r2, [r3, #4]
 403              	.LVL46:
ARM GAS  /var/folders/lx/hc4sn_b53233_zkc9xbbl97r0000gp/T//ccD4g9oU.s 			page 11


 105:Bsp/periph_serial_irq.c **** 
 404              		.loc 1 105 3 is_stmt 1 view .LVU91
 105:Bsp/periph_serial_irq.c **** 
 405              		.loc 1 105 15 is_stmt 0 view .LVU92
 406 0052 1B88     		ldrh	r3, [r3]
 107:Bsp/periph_serial_irq.c **** 		DMA_ClearFlag(Serial3_DMA_RX_Stream, DMA_FLAG_TCIF1);
 407              		.loc 1 107 3 is_stmt 1 view .LVU93
 107:Bsp/periph_serial_irq.c **** 		DMA_ClearFlag(Serial3_DMA_RX_Stream, DMA_FLAG_TCIF1);
 408              		.loc 1 107 9 is_stmt 0 view .LVU94
 409 0054 2046     		mov	r0, r4
 410 0056 FFF7FEFF 		bl	DMA_GetCurrDataCounter
 411              	.LVL47:
 108:Bsp/periph_serial_irq.c **** 		DMA_SetCurrDataCounter(Serial3_DMA_RX_Stream, SERIAL_MAX_RECLEN);
 412              		.loc 1 108 3 is_stmt 1 view .LVU95
 413 005a 0949     		ldr	r1, .L28+8
 414 005c 2046     		mov	r0, r4
 415 005e FFF7FEFF 		bl	DMA_ClearFlag
 416              	.LVL48:
 109:Bsp/periph_serial_irq.c **** 		DMA_Cmd(Serial3_DMA_RX_Stream, ENABLE);
 417              		.loc 1 109 3 view .LVU96
 418 0062 4FF40071 		mov	r1, #512
 419 0066 2046     		mov	r0, r4
 420 0068 FFF7FEFF 		bl	DMA_SetCurrDataCounter
 421              	.LVL49:
 110:Bsp/periph_serial_irq.c **** 	}
 422              		.loc 1 110 3 view .LVU97
 423 006c 0121     		movs	r1, #1
 424 006e 2046     		mov	r0, r4
 425 0070 FFF7FEFF 		bl	DMA_Cmd
 426              	.LVL50:
 427              		.loc 1 112 1 is_stmt 0 view .LVU98
 428 0074 D1E7     		b	.L21
 429              	.L29:
 430 0076 00BF     		.align	2
 431              	.L28:
 432 0078 00480040 		.word	1073760256
 433 007c 28600240 		.word	1073897512
 434 0080 00080010 		.word	268437504
 435              		.cfi_endproc
 436              	.LFE125:
 438              		.section	.text.USART6_IRQHandler,"ax",%progbits
 439              		.align	1
 440              		.global	USART6_IRQHandler
 441              		.syntax unified
 442              		.thumb
 443              		.thumb_func
 444              		.fpu fpv4-sp-d16
 446              	USART6_IRQHandler:
 447              	.LFB126:
 113:Bsp/periph_serial_irq.c **** 
 114:Bsp/periph_serial_irq.c **** void USART6_IRQHandler(void)
 115:Bsp/periph_serial_irq.c **** {
 448              		.loc 1 115 1 is_stmt 1 view -0
 449              		.cfi_startproc
 450              		@ args = 0, pretend = 0, frame = 0
 451              		@ frame_needed = 0, uses_anonymous_args = 0
 452 0000 10B5     		push	{r4, lr}
ARM GAS  /var/folders/lx/hc4sn_b53233_zkc9xbbl97r0000gp/T//ccD4g9oU.s 			page 12


 453              	.LCFI3:
 454              		.cfi_def_cfa_offset 8
 455              		.cfi_offset 4, -8
 456              		.cfi_offset 14, -4
 116:Bsp/periph_serial_irq.c **** 	uint8_t rec;
 457              		.loc 1 116 2 view .LVU100
 117:Bsp/periph_serial_irq.c **** 
 118:Bsp/periph_serial_irq.c **** 	if (USART_GetITStatus(USART6, USART_IT_RXNE) != RESET)
 458              		.loc 1 118 2 view .LVU101
 459              		.loc 1 118 6 is_stmt 0 view .LVU102
 460 0002 40F22551 		movw	r1, #1317
 461 0006 1C48     		ldr	r0, .L37
 462 0008 FFF7FEFF 		bl	USART_GetITStatus
 463              	.LVL51:
 464              		.loc 1 118 5 view .LVU103
 465 000c 30B9     		cbnz	r0, .L35
 466              	.L31:
 119:Bsp/periph_serial_irq.c **** 	{
 120:Bsp/periph_serial_irq.c **** 		if (Serial_Get_IRQ_RxCallback(Serial_6) != NULL)
 121:Bsp/periph_serial_irq.c **** 		{
 122:Bsp/periph_serial_irq.c **** 			Serial_Get_IRQ_RxCallback(Serial_6)((uint8_t)USART_ReceiveData(USART6), 1);
 123:Bsp/periph_serial_irq.c **** 		}
 124:Bsp/periph_serial_irq.c **** 
 125:Bsp/periph_serial_irq.c **** 		USART_ClearITPendingBit(USART6, USART_IT_RXNE);
 126:Bsp/periph_serial_irq.c **** 	}
 127:Bsp/periph_serial_irq.c **** 
 128:Bsp/periph_serial_irq.c **** 	if (USART_GetITStatus(USART6, USART_IT_IDLE) != RESET)
 467              		.loc 1 128 2 is_stmt 1 view .LVU104
 468              		.loc 1 128 6 is_stmt 0 view .LVU105
 469 000e 40F22441 		movw	r1, #1060
 470 0012 1948     		ldr	r0, .L37
 471 0014 FFF7FEFF 		bl	USART_GetITStatus
 472              	.LVL52:
 473              		.loc 1 128 5 view .LVU106
 474 0018 A0B9     		cbnz	r0, .L36
 475              	.L30:
 129:Bsp/periph_serial_irq.c **** 	{
 130:Bsp/periph_serial_irq.c **** 		DMA_Cmd(Serial6_DMA_RX_Stream, DISABLE);
 131:Bsp/periph_serial_irq.c **** 
 132:Bsp/periph_serial_irq.c **** 		rec = USART6->DR;
 133:Bsp/periph_serial_irq.c **** 		rec = USART6->SR;
 134:Bsp/periph_serial_irq.c **** 
 135:Bsp/periph_serial_irq.c **** 		rec = DMA_GetCurrDataCounter(Serial6_DMA_RX_Stream);
 136:Bsp/periph_serial_irq.c **** 		DMA_ClearFlag(Serial6_DMA_RX_Stream, DMA_FLAG_TCIF1);
 137:Bsp/periph_serial_irq.c **** 		DMA_SetCurrDataCounter(Serial6_DMA_RX_Stream, SERIAL_MAX_RECLEN);
 138:Bsp/periph_serial_irq.c **** 		DMA_Cmd(Serial6_DMA_RX_Stream, ENABLE);
 139:Bsp/periph_serial_irq.c **** 	}
 140:Bsp/periph_serial_irq.c **** }
 476              		.loc 1 140 1 view .LVU107
 477 001a 10BD     		pop	{r4, pc}
 478              	.L35:
 120:Bsp/periph_serial_irq.c **** 		{
 479              		.loc 1 120 3 is_stmt 1 view .LVU108
 120:Bsp/periph_serial_irq.c **** 		{
 480              		.loc 1 120 7 is_stmt 0 view .LVU109
 481 001c 0320     		movs	r0, #3
 482 001e FFF7FEFF 		bl	Serial_Get_IRQ_RxCallback
ARM GAS  /var/folders/lx/hc4sn_b53233_zkc9xbbl97r0000gp/T//ccD4g9oU.s 			page 13


 483              	.LVL53:
 120:Bsp/periph_serial_irq.c **** 		{
 484              		.loc 1 120 6 view .LVU110
 485 0022 48B1     		cbz	r0, .L32
 122:Bsp/periph_serial_irq.c **** 		}
 486              		.loc 1 122 4 is_stmt 1 view .LVU111
 487 0024 0320     		movs	r0, #3
 488 0026 FFF7FEFF 		bl	Serial_Get_IRQ_RxCallback
 489              	.LVL54:
 490 002a 0446     		mov	r4, r0
 122:Bsp/periph_serial_irq.c **** 		}
 491              		.loc 1 122 49 is_stmt 0 view .LVU112
 492 002c 1248     		ldr	r0, .L37
 493 002e FFF7FEFF 		bl	USART_ReceiveData
 494              	.LVL55:
 122:Bsp/periph_serial_irq.c **** 		}
 495              		.loc 1 122 4 view .LVU113
 496 0032 0121     		movs	r1, #1
 497 0034 C0B2     		uxtb	r0, r0
 498 0036 A047     		blx	r4
 499              	.LVL56:
 500              	.L32:
 125:Bsp/periph_serial_irq.c **** 	}
 501              		.loc 1 125 3 is_stmt 1 view .LVU114
 502 0038 40F22551 		movw	r1, #1317
 503 003c 0E48     		ldr	r0, .L37
 504 003e FFF7FEFF 		bl	USART_ClearITPendingBit
 505              	.LVL57:
 506 0042 E4E7     		b	.L31
 507              	.L36:
 130:Bsp/periph_serial_irq.c **** 
 508              		.loc 1 130 3 view .LVU115
 509 0044 0D4C     		ldr	r4, .L37+4
 510 0046 0021     		movs	r1, #0
 511 0048 2046     		mov	r0, r4
 512 004a FFF7FEFF 		bl	DMA_Cmd
 513              	.LVL58:
 132:Bsp/periph_serial_irq.c **** 		rec = USART6->SR;
 514              		.loc 1 132 3 view .LVU116
 132:Bsp/periph_serial_irq.c **** 		rec = USART6->SR;
 515              		.loc 1 132 15 is_stmt 0 view .LVU117
 516 004e 0A4B     		ldr	r3, .L37
 517 0050 9A88     		ldrh	r2, [r3, #4]
 518              	.LVL59:
 133:Bsp/periph_serial_irq.c **** 
 519              		.loc 1 133 3 is_stmt 1 view .LVU118
 133:Bsp/periph_serial_irq.c **** 
 520              		.loc 1 133 15 is_stmt 0 view .LVU119
 521 0052 1B88     		ldrh	r3, [r3]
 135:Bsp/periph_serial_irq.c **** 		DMA_ClearFlag(Serial6_DMA_RX_Stream, DMA_FLAG_TCIF1);
 522              		.loc 1 135 3 is_stmt 1 view .LVU120
 135:Bsp/periph_serial_irq.c **** 		DMA_ClearFlag(Serial6_DMA_RX_Stream, DMA_FLAG_TCIF1);
 523              		.loc 1 135 9 is_stmt 0 view .LVU121
 524 0054 2046     		mov	r0, r4
 525 0056 FFF7FEFF 		bl	DMA_GetCurrDataCounter
 526              	.LVL60:
 136:Bsp/periph_serial_irq.c **** 		DMA_SetCurrDataCounter(Serial6_DMA_RX_Stream, SERIAL_MAX_RECLEN);
ARM GAS  /var/folders/lx/hc4sn_b53233_zkc9xbbl97r0000gp/T//ccD4g9oU.s 			page 14


 527              		.loc 1 136 3 is_stmt 1 view .LVU122
 528 005a 0949     		ldr	r1, .L37+8
 529 005c 2046     		mov	r0, r4
 530 005e FFF7FEFF 		bl	DMA_ClearFlag
 531              	.LVL61:
 137:Bsp/periph_serial_irq.c **** 		DMA_Cmd(Serial6_DMA_RX_Stream, ENABLE);
 532              		.loc 1 137 3 view .LVU123
 533 0062 4FF40071 		mov	r1, #512
 534 0066 2046     		mov	r0, r4
 535 0068 FFF7FEFF 		bl	DMA_SetCurrDataCounter
 536              	.LVL62:
 138:Bsp/periph_serial_irq.c **** 	}
 537              		.loc 1 138 3 view .LVU124
 538 006c 0121     		movs	r1, #1
 539 006e 2046     		mov	r0, r4
 540 0070 FFF7FEFF 		bl	DMA_Cmd
 541              	.LVL63:
 542              		.loc 1 140 1 is_stmt 0 view .LVU125
 543 0074 D1E7     		b	.L30
 544              	.L38:
 545 0076 00BF     		.align	2
 546              	.L37:
 547 0078 00140140 		.word	1073812480
 548 007c 28640240 		.word	1073898536
 549 0080 00080010 		.word	268437504
 550              		.cfi_endproc
 551              	.LFE126:
 553              		.text
 554              	.Letext0:
 555              		.file 2 "/usr/local/arm-none-eabi-gcc/gcc-arm-none-eabi-10-2020-q4-major/arm-none-eabi/include/mac
 556              		.file 3 "/usr/local/arm-none-eabi-gcc/gcc-arm-none-eabi-10-2020-q4-major/arm-none-eabi/include/sys
 557              		.file 4 "USER/stm32f4xx.h"
 558              		.file 5 "Bsp/periph_serial.h"
 559              		.file 6 "FWLIB/inc/stm32f4xx_usart.h"
 560              		.file 7 "FWLIB/inc/stm32f4xx_dma.h"
 561              		.file 8 "<built-in>"
ARM GAS  /var/folders/lx/hc4sn_b53233_zkc9xbbl97r0000gp/T//ccD4g9oU.s 			page 15


DEFINED SYMBOLS
                            *ABS*:0000000000000000 periph_serial_irq.c
/var/folders/lx/hc4sn_b53233_zkc9xbbl97r0000gp/T//ccD4g9oU.s:18     .text.USART1_IRQHandler:0000000000000000 $t
/var/folders/lx/hc4sn_b53233_zkc9xbbl97r0000gp/T//ccD4g9oU.s:26     .text.USART1_IRQHandler:0000000000000000 USART1_IRQHandler
/var/folders/lx/hc4sn_b53233_zkc9xbbl97r0000gp/T//ccD4g9oU.s:165    .text.USART1_IRQHandler:00000000000000a0 $d
/var/folders/lx/hc4sn_b53233_zkc9xbbl97r0000gp/T//ccD4g9oU.s:173    .text.USART2_IRQHandler:0000000000000000 $t
/var/folders/lx/hc4sn_b53233_zkc9xbbl97r0000gp/T//ccD4g9oU.s:180    .text.USART2_IRQHandler:0000000000000000 USART2_IRQHandler
/var/folders/lx/hc4sn_b53233_zkc9xbbl97r0000gp/T//ccD4g9oU.s:316    .text.USART2_IRQHandler:00000000000000a0 $d
/var/folders/lx/hc4sn_b53233_zkc9xbbl97r0000gp/T//ccD4g9oU.s:324    .text.USART3_IRQHandler:0000000000000000 $t
/var/folders/lx/hc4sn_b53233_zkc9xbbl97r0000gp/T//ccD4g9oU.s:331    .text.USART3_IRQHandler:0000000000000000 USART3_IRQHandler
/var/folders/lx/hc4sn_b53233_zkc9xbbl97r0000gp/T//ccD4g9oU.s:432    .text.USART3_IRQHandler:0000000000000078 $d
/var/folders/lx/hc4sn_b53233_zkc9xbbl97r0000gp/T//ccD4g9oU.s:439    .text.USART6_IRQHandler:0000000000000000 $t
/var/folders/lx/hc4sn_b53233_zkc9xbbl97r0000gp/T//ccD4g9oU.s:446    .text.USART6_IRQHandler:0000000000000000 USART6_IRQHandler
/var/folders/lx/hc4sn_b53233_zkc9xbbl97r0000gp/T//ccD4g9oU.s:547    .text.USART6_IRQHandler:0000000000000078 $d

UNDEFINED SYMBOLS
USART_GetITStatus
Serial_Get_IRQ_RxCallback
USART_ReceiveData
USART_ClearITPendingBit
DMA_Cmd
DMA_GetCurrDataCounter
memset
DMA_ClearFlag
DMA_SetCurrDataCounter
Serial_RX_Buff
