ARM GAS  C:\Users\why\AppData\Local\Temp\cc5ug2wx.s 			page 1


   1              		.syntax unified
   2              		.cpu cortex-m4
   3              		.eabi_attribute 27, 1
   4              		.eabi_attribute 28, 1
   5              		.fpu fpv4-sp-d16
   6              		.eabi_attribute 20, 1
   7              		.eabi_attribute 21, 1
   8              		.eabi_attribute 23, 3
   9              		.eabi_attribute 24, 1
  10              		.eabi_attribute 25, 1
  11              		.eabi_attribute 26, 1
  12              		.eabi_attribute 30, 1
  13              		.eabi_attribute 34, 1
  14              		.eabi_attribute 18, 4
  15              		.thumb
  16              		.syntax unified
  17              		.file	"periph_dma_irq.c"
  18              		.text
  19              	.Ltext0:
  20              		.cfi_sections	.debug_frame
  21              		.section	.text.DMA1_Stream6_IRQHandler,"ax",%progbits
  22              		.align	2
  23              		.global	DMA1_Stream6_IRQHandler
  24              		.thumb
  25              		.thumb_func
  27              	DMA1_Stream6_IRQHandler:
  28              	.LFB123:
  29              		.file 1 "Bsp/periph_dma_irq.c"
   1:Bsp/periph_dma_irq.c **** #include "periph_dma_irq.h"
   2:Bsp/periph_dma_irq.c **** #include "periph_serial.h"
   3:Bsp/periph_dma_irq.c **** #include "stm32f4xx_dma.h"
   4:Bsp/periph_dma_irq.c **** #include "stm32f4xx_usart.h"
   5:Bsp/periph_dma_irq.c **** #include "periph_gpio.h"
   6:Bsp/periph_dma_irq.c **** 
   7:Bsp/periph_dma_irq.c **** void DMA1_Stream6_IRQHandler(void)
   8:Bsp/periph_dma_irq.c **** {
  30              		.loc 1 8 0
  31              		.cfi_startproc
  32              		@ args = 0, pretend = 0, frame = 0
  33              		@ frame_needed = 0, uses_anonymous_args = 0
  34              		@ link register save eliminated.
  35 0000 7047     		bx	lr
  36              		.cfi_endproc
  37              	.LFE123:
  39 0002 00BF     		.section	.text.DMA1_Stream3_IRQHandler,"ax",%progbits
  40              		.align	2
  41              		.global	DMA1_Stream3_IRQHandler
  42              		.thumb
  43              		.thumb_func
  45              	DMA1_Stream3_IRQHandler:
  46              	.LFB124:
   9:Bsp/periph_dma_irq.c **** #ifdef RADIO_PORT
  10:Bsp/periph_dma_irq.c **** #if (RADIO_PORT == Serial_2)
  11:Bsp/periph_dma_irq.c ****     Serial_DMA_TX_IRQSetting(RADIO_PORT);
  12:Bsp/periph_dma_irq.c **** 
  13:Bsp/periph_dma_irq.c **** #endif
  14:Bsp/periph_dma_irq.c **** #endif
ARM GAS  C:\Users\why\AppData\Local\Temp\cc5ug2wx.s 			page 2


  15:Bsp/periph_dma_irq.c **** }
  16:Bsp/periph_dma_irq.c **** 
  17:Bsp/periph_dma_irq.c **** void DMA1_Stream3_IRQHandler(void)
  18:Bsp/periph_dma_irq.c **** {
  47              		.loc 1 18 0
  48              		.cfi_startproc
  49              		@ args = 0, pretend = 0, frame = 0
  50              		@ frame_needed = 0, uses_anonymous_args = 0
  51              		@ link register save eliminated.
  52 0000 7047     		bx	lr
  53              		.cfi_endproc
  54              	.LFE124:
  56 0002 00BF     		.section	.text.DMA2_Stream7_IRQHandler,"ax",%progbits
  57              		.align	2
  58              		.global	DMA2_Stream7_IRQHandler
  59              		.thumb
  60              		.thumb_func
  62              	DMA2_Stream7_IRQHandler:
  63              	.LFB125:
  19:Bsp/periph_dma_irq.c **** #ifdef RADIO_PORT
  20:Bsp/periph_dma_irq.c **** #if (RADIO_PORT == Serial_3)
  21:Bsp/periph_dma_irq.c ****     Serial_DMA_TX_IRQSetting(RADIO_PORT);
  22:Bsp/periph_dma_irq.c **** 
  23:Bsp/periph_dma_irq.c **** #endif
  24:Bsp/periph_dma_irq.c **** #endif
  25:Bsp/periph_dma_irq.c **** }
  26:Bsp/periph_dma_irq.c **** 
  27:Bsp/periph_dma_irq.c **** void DMA2_Stream7_IRQHandler(void)
  28:Bsp/periph_dma_irq.c **** {
  64              		.loc 1 28 0
  65              		.cfi_startproc
  66              		@ args = 0, pretend = 0, frame = 0
  67              		@ frame_needed = 0, uses_anonymous_args = 0
  68              		@ link register save eliminated.
  69 0000 7047     		bx	lr
  70              		.cfi_endproc
  71              	.LFE125:
  73 0002 00BF     		.text
  74              	.Letext0:
  75              		.file 2 "d:\\gcc_arm\\5.4 2016q3\\arm-none-eabi\\include\\machine\\_default_types.h"
  76              		.file 3 "d:\\gcc_arm\\5.4 2016q3\\arm-none-eabi\\include\\sys\\_stdint.h"
  77              		.file 4 "F4_CORE/core_cm4.h"
ARM GAS  C:\Users\why\AppData\Local\Temp\cc5ug2wx.s 			page 3

