ARM GAS  C:\Users\huav\AppData\Local\Temp\ccFsTiZd.s 			page 1


   1              		.cpu cortex-m4
   2              		.eabi_attribute 27, 1
   3              		.eabi_attribute 28, 1
   4              		.eabi_attribute 20, 1
   5              		.eabi_attribute 21, 1
   6              		.eabi_attribute 23, 3
   7              		.eabi_attribute 24, 1
   8              		.eabi_attribute 25, 1
   9              		.eabi_attribute 26, 1
  10              		.eabi_attribute 30, 1
  11              		.eabi_attribute 34, 1
  12              		.eabi_attribute 18, 4
  13              		.file	"periph_serial_irq.c"
  14              		.text
  15              	.Ltext0:
  16              		.cfi_sections	.debug_frame
  17              		.section	.text.USART1_IRQHandler,"ax",%progbits
  18              		.align	1
  19              		.global	USART1_IRQHandler
  20              		.arch armv7e-m
  21              		.syntax unified
  22              		.thumb
  23              		.thumb_func
  24              		.fpu fpv4-sp-d16
  26              	USART1_IRQHandler:
  27              	.LFB123:
  28              		.file 1 "Bsp/periph_serial_irq.c"
   1:Bsp/periph_serial_irq.c **** #include "periph_serial_irq.h"
   2:Bsp/periph_serial_irq.c **** #include "periph_serial.h"
   3:Bsp/periph_serial_irq.c **** #include "periph_gpio.h"
   4:Bsp/periph_serial_irq.c **** #include "periph_dma.h"
   5:Bsp/periph_serial_irq.c **** #include "string.h"
   6:Bsp/periph_serial_irq.c **** #include "stm32f4xx_usart.h"
   7:Bsp/periph_serial_irq.c **** #include "stm32f4xx_dma.h"
   8:Bsp/periph_serial_irq.c **** 
   9:Bsp/periph_serial_irq.c **** #define PCK_MAX 256
  10:Bsp/periph_serial_irq.c **** 
  11:Bsp/periph_serial_irq.c **** void USART1_IRQHandler(void)
  12:Bsp/periph_serial_irq.c **** {
  29              		.loc 1 12 1 view -0
  30              		.cfi_startproc
  31              		@ args = 0, pretend = 0, frame = 0
  32              		@ frame_needed = 0, uses_anonymous_args = 0
  33 0000 10B5     		push	{r4, lr}
  34              	.LCFI0:
  35              		.cfi_def_cfa_offset 8
  36              		.cfi_offset 4, -8
  37              		.cfi_offset 14, -4
  13:Bsp/periph_serial_irq.c **** 	uint8_t rec;
  38              		.loc 1 13 2 view .LVU1
  14:Bsp/periph_serial_irq.c **** 	static u8 rec_len = 0;
  39              		.loc 1 14 2 view .LVU2
  15:Bsp/periph_serial_irq.c **** 	static u8 rec_enable = 0;
  40              		.loc 1 15 2 view .LVU3
  16:Bsp/periph_serial_irq.c **** 
  17:Bsp/periph_serial_irq.c **** 	if (USART_GetITStatus(USART1, USART_IT_TXE) == RESET)
  41              		.loc 1 17 2 view .LVU4
ARM GAS  C:\Users\huav\AppData\Local\Temp\ccFsTiZd.s 			page 2


  42              		.loc 1 17 6 is_stmt 0 view .LVU5
  43 0002 40F22771 		movw	r1, #1831
  44 0006 1F48     		ldr	r0, .L9
  45 0008 FFF7FEFF 		bl	USART_GetITStatus
  46              	.LVL0:
  47              		.loc 1 17 5 view .LVU6
  48 000c 60B1     		cbz	r0, .L6
  49              	.L2:
  18:Bsp/periph_serial_irq.c **** 	{
  19:Bsp/periph_serial_irq.c **** 		USART_ITConfig(USART1, USART_IT_TC, DISABLE);
  20:Bsp/periph_serial_irq.c **** 	}
  21:Bsp/periph_serial_irq.c **** 
  22:Bsp/periph_serial_irq.c **** 	if (USART_GetITStatus(USART1, USART_IT_RXNE) != RESET)
  50              		.loc 1 22 2 is_stmt 1 view .LVU7
  51              		.loc 1 22 6 is_stmt 0 view .LVU8
  52 000e 40F22551 		movw	r1, #1317
  53 0012 1C48     		ldr	r0, .L9
  54 0014 FFF7FEFF 		bl	USART_GetITStatus
  55              	.LVL1:
  56              		.loc 1 22 5 view .LVU9
  57 0018 80B9     		cbnz	r0, .L7
  58              	.L3:
  23:Bsp/periph_serial_irq.c **** 	{
  24:Bsp/periph_serial_irq.c **** 		rec = USART_ReceiveData(USART1);
  25:Bsp/periph_serial_irq.c **** 
  26:Bsp/periph_serial_irq.c **** 		USART_ClearITPendingBit(USART1, USART_IT_RXNE);
  27:Bsp/periph_serial_irq.c **** 	}
  28:Bsp/periph_serial_irq.c **** 
  29:Bsp/periph_serial_irq.c **** 	if (USART_GetITStatus(USART1, USART_IT_IDLE) != RESET)
  59              		.loc 1 29 2 is_stmt 1 view .LVU10
  60              		.loc 1 29 6 is_stmt 0 view .LVU11
  61 001a 40F22441 		movw	r1, #1060
  62 001e 1948     		ldr	r0, .L9
  63 0020 FFF7FEFF 		bl	USART_GetITStatus
  64              	.LVL2:
  65              		.loc 1 29 5 view .LVU12
  66 0024 A0B9     		cbnz	r0, .L8
  67              	.L1:
  30:Bsp/periph_serial_irq.c **** 	{
  31:Bsp/periph_serial_irq.c **** 		DMA_Cmd(Serial1_DMA_RX_Stream, DISABLE);
  32:Bsp/periph_serial_irq.c **** 
  33:Bsp/periph_serial_irq.c **** 		rec = USART1->DR;
  34:Bsp/periph_serial_irq.c **** 		rec = USART1->SR;
  35:Bsp/periph_serial_irq.c **** 
  36:Bsp/periph_serial_irq.c **** 		rec = DMA_GetCurrDataCounter(Serial1_DMA_RX_Stream);
  37:Bsp/periph_serial_irq.c **** 		DMA_ClearFlag(Serial1_DMA_RX_Stream, DMA_FLAG_TCIF5);
  38:Bsp/periph_serial_irq.c **** 		DMA_SetCurrDataCounter(Serial1_DMA_RX_Stream, PCK_MAX);
  39:Bsp/periph_serial_irq.c **** 		DMA_Cmd(Serial1_DMA_RX_Stream, ENABLE);
  40:Bsp/periph_serial_irq.c **** 	}
  41:Bsp/periph_serial_irq.c **** }
  68              		.loc 1 41 1 view .LVU13
  69 0026 10BD     		pop	{r4, pc}
  70              	.L6:
  19:Bsp/periph_serial_irq.c **** 	}
  71              		.loc 1 19 3 is_stmt 1 view .LVU14
  72 0028 0022     		movs	r2, #0
  73 002a 40F22661 		movw	r1, #1574
ARM GAS  C:\Users\huav\AppData\Local\Temp\ccFsTiZd.s 			page 3


  74 002e 00F18040 		add	r0, r0, #1073741824
  75 0032 00F58830 		add	r0, r0, #69632
  76 0036 FFF7FEFF 		bl	USART_ITConfig
  77              	.LVL3:
  78 003a E8E7     		b	.L2
  79              	.L7:
  24:Bsp/periph_serial_irq.c **** 
  80              		.loc 1 24 3 view .LVU15
  24:Bsp/periph_serial_irq.c **** 
  81              		.loc 1 24 9 is_stmt 0 view .LVU16
  82 003c 114C     		ldr	r4, .L9
  83 003e 2046     		mov	r0, r4
  84 0040 FFF7FEFF 		bl	USART_ReceiveData
  85              	.LVL4:
  26:Bsp/periph_serial_irq.c **** 	}
  86              		.loc 1 26 3 is_stmt 1 view .LVU17
  87 0044 40F22551 		movw	r1, #1317
  88 0048 2046     		mov	r0, r4
  89 004a FFF7FEFF 		bl	USART_ClearITPendingBit
  90              	.LVL5:
  91 004e E4E7     		b	.L3
  92              	.L8:
  31:Bsp/periph_serial_irq.c **** 
  93              		.loc 1 31 3 view .LVU18
  94 0050 0D4C     		ldr	r4, .L9+4
  95 0052 0021     		movs	r1, #0
  96 0054 2046     		mov	r0, r4
  97 0056 FFF7FEFF 		bl	DMA_Cmd
  98              	.LVL6:
  33:Bsp/periph_serial_irq.c **** 		rec = USART1->SR;
  99              		.loc 1 33 3 view .LVU19
  33:Bsp/periph_serial_irq.c **** 		rec = USART1->SR;
 100              		.loc 1 33 15 is_stmt 0 view .LVU20
 101 005a 0A4B     		ldr	r3, .L9
 102 005c 9A88     		ldrh	r2, [r3, #4]
 103              	.LVL7:
  34:Bsp/periph_serial_irq.c **** 
 104              		.loc 1 34 3 is_stmt 1 view .LVU21
  34:Bsp/periph_serial_irq.c **** 
 105              		.loc 1 34 15 is_stmt 0 view .LVU22
 106 005e 1B88     		ldrh	r3, [r3]
  36:Bsp/periph_serial_irq.c **** 		DMA_ClearFlag(Serial1_DMA_RX_Stream, DMA_FLAG_TCIF5);
 107              		.loc 1 36 3 is_stmt 1 view .LVU23
  36:Bsp/periph_serial_irq.c **** 		DMA_ClearFlag(Serial1_DMA_RX_Stream, DMA_FLAG_TCIF5);
 108              		.loc 1 36 9 is_stmt 0 view .LVU24
 109 0060 2046     		mov	r0, r4
 110 0062 FFF7FEFF 		bl	DMA_GetCurrDataCounter
 111              	.LVL8:
  37:Bsp/periph_serial_irq.c **** 		DMA_SetCurrDataCounter(Serial1_DMA_RX_Stream, PCK_MAX);
 112              		.loc 1 37 3 is_stmt 1 view .LVU25
 113 0066 0949     		ldr	r1, .L9+8
 114 0068 2046     		mov	r0, r4
 115 006a FFF7FEFF 		bl	DMA_ClearFlag
 116              	.LVL9:
  38:Bsp/periph_serial_irq.c **** 		DMA_Cmd(Serial1_DMA_RX_Stream, ENABLE);
 117              		.loc 1 38 3 view .LVU26
 118 006e 4FF48071 		mov	r1, #256
ARM GAS  C:\Users\huav\AppData\Local\Temp\ccFsTiZd.s 			page 4


 119 0072 2046     		mov	r0, r4
 120 0074 FFF7FEFF 		bl	DMA_SetCurrDataCounter
 121              	.LVL10:
  39:Bsp/periph_serial_irq.c **** 	}
 122              		.loc 1 39 3 view .LVU27
 123 0078 0121     		movs	r1, #1
 124 007a 2046     		mov	r0, r4
 125 007c FFF7FEFF 		bl	DMA_Cmd
 126              	.LVL11:
 127              		.loc 1 41 1 is_stmt 0 view .LVU28
 128 0080 D1E7     		b	.L1
 129              	.L10:
 130 0082 00BF     		.align	2
 131              	.L9:
 132 0084 00100140 		.word	1073811456
 133 0088 88640240 		.word	1073898632
 134 008c 00080020 		.word	536872960
 135              		.cfi_endproc
 136              	.LFE123:
 138              		.section	.text.USART2_IRQHandler,"ax",%progbits
 139              		.align	1
 140              		.global	USART2_IRQHandler
 141              		.syntax unified
 142              		.thumb
 143              		.thumb_func
 144              		.fpu fpv4-sp-d16
 146              	USART2_IRQHandler:
 147              	.LFB124:
  42:Bsp/periph_serial_irq.c **** 
  43:Bsp/periph_serial_irq.c **** void USART2_IRQHandler(void)
  44:Bsp/periph_serial_irq.c **** {
 148              		.loc 1 44 1 is_stmt 1 view -0
 149              		.cfi_startproc
 150              		@ args = 0, pretend = 0, frame = 0
 151              		@ frame_needed = 0, uses_anonymous_args = 0
 152 0000 10B5     		push	{r4, lr}
 153              	.LCFI1:
 154              		.cfi_def_cfa_offset 8
 155              		.cfi_offset 4, -8
 156              		.cfi_offset 14, -4
  45:Bsp/periph_serial_irq.c **** 	uint8_t rec;
 157              		.loc 1 45 2 view .LVU30
  46:Bsp/periph_serial_irq.c **** 
  47:Bsp/periph_serial_irq.c **** 	if (USART_GetITStatus(USART2, USART_IT_TXE) == RESET)
 158              		.loc 1 47 2 view .LVU31
 159              		.loc 1 47 6 is_stmt 0 view .LVU32
 160 0002 40F22771 		movw	r1, #1831
 161 0006 1F48     		ldr	r0, .L19
 162 0008 FFF7FEFF 		bl	USART_GetITStatus
 163              	.LVL12:
 164              		.loc 1 47 5 view .LVU33
 165 000c 60B1     		cbz	r0, .L16
 166              	.L12:
  48:Bsp/periph_serial_irq.c **** 	{
  49:Bsp/periph_serial_irq.c **** 		USART_ITConfig(USART2, USART_IT_TC, DISABLE);
  50:Bsp/periph_serial_irq.c **** 	}
  51:Bsp/periph_serial_irq.c **** 
ARM GAS  C:\Users\huav\AppData\Local\Temp\ccFsTiZd.s 			page 5


  52:Bsp/periph_serial_irq.c **** 	if (USART_GetITStatus(USART2, USART_IT_RXNE) != RESET)
 167              		.loc 1 52 2 is_stmt 1 view .LVU34
 168              		.loc 1 52 6 is_stmt 0 view .LVU35
 169 000e 40F22551 		movw	r1, #1317
 170 0012 1C48     		ldr	r0, .L19
 171 0014 FFF7FEFF 		bl	USART_GetITStatus
 172              	.LVL13:
 173              		.loc 1 52 5 view .LVU36
 174 0018 68B9     		cbnz	r0, .L17
 175              	.L13:
  53:Bsp/periph_serial_irq.c **** 	{
  54:Bsp/periph_serial_irq.c **** 		rec = USART_ReceiveData(USART2);
  55:Bsp/periph_serial_irq.c **** 		USART_SendData(USART2, rec);
  56:Bsp/periph_serial_irq.c **** 		USART_ClearITPendingBit(USART2, USART_IT_RXNE);
  57:Bsp/periph_serial_irq.c **** 	}
  58:Bsp/periph_serial_irq.c **** 
  59:Bsp/periph_serial_irq.c **** 	if (USART_GetITStatus(USART2, USART_IT_IDLE) != RESET)
 176              		.loc 1 59 2 is_stmt 1 view .LVU37
 177              		.loc 1 59 6 is_stmt 0 view .LVU38
 178 001a 40F22441 		movw	r1, #1060
 179 001e 1948     		ldr	r0, .L19
 180 0020 FFF7FEFF 		bl	USART_GetITStatus
 181              	.LVL14:
 182              		.loc 1 59 5 view .LVU39
 183 0024 A8B9     		cbnz	r0, .L18
 184              	.L11:
  60:Bsp/periph_serial_irq.c **** 	{
  61:Bsp/periph_serial_irq.c **** 		DMA_Cmd(Serial2_DMA_RX_Stream, DISABLE);
  62:Bsp/periph_serial_irq.c **** 
  63:Bsp/periph_serial_irq.c **** 		rec = USART2->DR;
  64:Bsp/periph_serial_irq.c **** 		rec = USART2->SR;
  65:Bsp/periph_serial_irq.c **** 
  66:Bsp/periph_serial_irq.c **** 		rec = DMA_GetCurrDataCounter(Serial2_DMA_RX_Stream);
  67:Bsp/periph_serial_irq.c **** 		DMA_ClearFlag(Serial2_DMA_RX_Stream, DMA_FLAG_TCIF5);
  68:Bsp/periph_serial_irq.c **** 		DMA_SetCurrDataCounter(Serial2_DMA_RX_Stream, PCK_MAX);
  69:Bsp/periph_serial_irq.c **** 		DMA_Cmd(Serial2_DMA_RX_Stream, ENABLE);
  70:Bsp/periph_serial_irq.c **** 	}
  71:Bsp/periph_serial_irq.c **** }
 185              		.loc 1 71 1 view .LVU40
 186 0026 10BD     		pop	{r4, pc}
 187              	.L16:
  49:Bsp/periph_serial_irq.c **** 	}
 188              		.loc 1 49 3 is_stmt 1 view .LVU41
 189 0028 0022     		movs	r2, #0
 190 002a 40F22661 		movw	r1, #1574
 191 002e 1548     		ldr	r0, .L19
 192 0030 FFF7FEFF 		bl	USART_ITConfig
 193              	.LVL15:
 194 0034 EBE7     		b	.L12
 195              	.L17:
  54:Bsp/periph_serial_irq.c **** 		USART_SendData(USART2, rec);
 196              		.loc 1 54 3 view .LVU42
  54:Bsp/periph_serial_irq.c **** 		USART_SendData(USART2, rec);
 197              		.loc 1 54 9 is_stmt 0 view .LVU43
 198 0036 134C     		ldr	r4, .L19
 199 0038 2046     		mov	r0, r4
 200 003a FFF7FEFF 		bl	USART_ReceiveData
ARM GAS  C:\Users\huav\AppData\Local\Temp\ccFsTiZd.s 			page 6


 201              	.LVL16:
  55:Bsp/periph_serial_irq.c **** 		USART_ClearITPendingBit(USART2, USART_IT_RXNE);
 202              		.loc 1 55 3 is_stmt 1 view .LVU44
 203 003e C1B2     		uxtb	r1, r0
 204 0040 2046     		mov	r0, r4
 205              	.LVL17:
  55:Bsp/periph_serial_irq.c **** 		USART_ClearITPendingBit(USART2, USART_IT_RXNE);
 206              		.loc 1 55 3 is_stmt 0 view .LVU45
 207 0042 FFF7FEFF 		bl	USART_SendData
 208              	.LVL18:
  56:Bsp/periph_serial_irq.c **** 	}
 209              		.loc 1 56 3 is_stmt 1 view .LVU46
 210 0046 40F22551 		movw	r1, #1317
 211 004a 2046     		mov	r0, r4
 212 004c FFF7FEFF 		bl	USART_ClearITPendingBit
 213              	.LVL19:
 214 0050 E3E7     		b	.L13
 215              	.L18:
  61:Bsp/periph_serial_irq.c **** 
 216              		.loc 1 61 3 view .LVU47
 217 0052 0D4C     		ldr	r4, .L19+4
 218 0054 0021     		movs	r1, #0
 219 0056 2046     		mov	r0, r4
 220 0058 FFF7FEFF 		bl	DMA_Cmd
 221              	.LVL20:
  63:Bsp/periph_serial_irq.c **** 		rec = USART2->SR;
 222              		.loc 1 63 3 view .LVU48
  63:Bsp/periph_serial_irq.c **** 		rec = USART2->SR;
 223              		.loc 1 63 15 is_stmt 0 view .LVU49
 224 005c 094B     		ldr	r3, .L19
 225 005e 9A88     		ldrh	r2, [r3, #4]
  64:Bsp/periph_serial_irq.c **** 
 226              		.loc 1 64 3 is_stmt 1 view .LVU50
  64:Bsp/periph_serial_irq.c **** 
 227              		.loc 1 64 15 is_stmt 0 view .LVU51
 228 0060 1B88     		ldrh	r3, [r3]
  66:Bsp/periph_serial_irq.c **** 		DMA_ClearFlag(Serial2_DMA_RX_Stream, DMA_FLAG_TCIF5);
 229              		.loc 1 66 3 is_stmt 1 view .LVU52
  66:Bsp/periph_serial_irq.c **** 		DMA_ClearFlag(Serial2_DMA_RX_Stream, DMA_FLAG_TCIF5);
 230              		.loc 1 66 9 is_stmt 0 view .LVU53
 231 0062 2046     		mov	r0, r4
 232 0064 FFF7FEFF 		bl	DMA_GetCurrDataCounter
 233              	.LVL21:
  67:Bsp/periph_serial_irq.c **** 		DMA_SetCurrDataCounter(Serial2_DMA_RX_Stream, PCK_MAX);
 234              		.loc 1 67 3 is_stmt 1 view .LVU54
 235 0068 0849     		ldr	r1, .L19+8
 236 006a 2046     		mov	r0, r4
 237 006c FFF7FEFF 		bl	DMA_ClearFlag
 238              	.LVL22:
  68:Bsp/periph_serial_irq.c **** 		DMA_Cmd(Serial2_DMA_RX_Stream, ENABLE);
 239              		.loc 1 68 3 view .LVU55
 240 0070 4FF48071 		mov	r1, #256
 241 0074 2046     		mov	r0, r4
 242 0076 FFF7FEFF 		bl	DMA_SetCurrDataCounter
 243              	.LVL23:
  69:Bsp/periph_serial_irq.c **** 	}
 244              		.loc 1 69 3 view .LVU56
ARM GAS  C:\Users\huav\AppData\Local\Temp\ccFsTiZd.s 			page 7


 245 007a 0121     		movs	r1, #1
 246 007c 2046     		mov	r0, r4
 247 007e FFF7FEFF 		bl	DMA_Cmd
 248              	.LVL24:
 249              		.loc 1 71 1 is_stmt 0 view .LVU57
 250 0082 D0E7     		b	.L11
 251              	.L20:
 252              		.align	2
 253              	.L19:
 254 0084 00440040 		.word	1073759232
 255 0088 88600240 		.word	1073897608
 256 008c 00080020 		.word	536872960
 257              		.cfi_endproc
 258              	.LFE124:
 260              		.section	.text.USART3_IRQHandler,"ax",%progbits
 261              		.align	1
 262              		.global	USART3_IRQHandler
 263              		.syntax unified
 264              		.thumb
 265              		.thumb_func
 266              		.fpu fpv4-sp-d16
 268              	USART3_IRQHandler:
 269              	.LFB125:
  72:Bsp/periph_serial_irq.c **** 
  73:Bsp/periph_serial_irq.c **** void USART3_IRQHandler(void)
  74:Bsp/periph_serial_irq.c **** {
 270              		.loc 1 74 1 is_stmt 1 view -0
 271              		.cfi_startproc
 272              		@ args = 0, pretend = 0, frame = 0
 273              		@ frame_needed = 0, uses_anonymous_args = 0
 274 0000 10B5     		push	{r4, lr}
 275              	.LCFI2:
 276              		.cfi_def_cfa_offset 8
 277              		.cfi_offset 4, -8
 278              		.cfi_offset 14, -4
  75:Bsp/periph_serial_irq.c **** 	uint8_t rec;
 279              		.loc 1 75 2 view .LVU59
  76:Bsp/periph_serial_irq.c **** 
  77:Bsp/periph_serial_irq.c **** 	if (USART_GetITStatus(USART3, USART_IT_TXE) == RESET)
 280              		.loc 1 77 2 view .LVU60
 281              		.loc 1 77 6 is_stmt 0 view .LVU61
 282 0002 40F22771 		movw	r1, #1831
 283 0006 1F48     		ldr	r0, .L29
 284 0008 FFF7FEFF 		bl	USART_GetITStatus
 285              	.LVL25:
 286              		.loc 1 77 5 view .LVU62
 287 000c 60B1     		cbz	r0, .L26
 288              	.L22:
  78:Bsp/periph_serial_irq.c **** 	{
  79:Bsp/periph_serial_irq.c **** 		USART_ITConfig(USART3, USART_IT_TC, DISABLE);
  80:Bsp/periph_serial_irq.c **** 	}
  81:Bsp/periph_serial_irq.c **** 
  82:Bsp/periph_serial_irq.c **** 	if (USART_GetITStatus(USART3, USART_IT_RXNE) != RESET)
 289              		.loc 1 82 2 is_stmt 1 view .LVU63
 290              		.loc 1 82 6 is_stmt 0 view .LVU64
 291 000e 40F22551 		movw	r1, #1317
 292 0012 1C48     		ldr	r0, .L29
ARM GAS  C:\Users\huav\AppData\Local\Temp\ccFsTiZd.s 			page 8


 293 0014 FFF7FEFF 		bl	USART_GetITStatus
 294              	.LVL26:
 295              		.loc 1 82 5 view .LVU65
 296 0018 68B9     		cbnz	r0, .L27
 297              	.L23:
  83:Bsp/periph_serial_irq.c **** 	{
  84:Bsp/periph_serial_irq.c **** 		rec = USART_ReceiveData(USART3);
  85:Bsp/periph_serial_irq.c **** 		USART_SendData(USART3, rec);
  86:Bsp/periph_serial_irq.c **** 		USART_ClearITPendingBit(USART3, USART_IT_RXNE);
  87:Bsp/periph_serial_irq.c **** 	}
  88:Bsp/periph_serial_irq.c **** 
  89:Bsp/periph_serial_irq.c **** 	if (USART_GetITStatus(USART3, USART_IT_IDLE) != RESET)
 298              		.loc 1 89 2 is_stmt 1 view .LVU66
 299              		.loc 1 89 6 is_stmt 0 view .LVU67
 300 001a 40F22441 		movw	r1, #1060
 301 001e 1948     		ldr	r0, .L29
 302 0020 FFF7FEFF 		bl	USART_GetITStatus
 303              	.LVL27:
 304              		.loc 1 89 5 view .LVU68
 305 0024 A8B9     		cbnz	r0, .L28
 306              	.L21:
  90:Bsp/periph_serial_irq.c **** 	{
  91:Bsp/periph_serial_irq.c **** 		DMA_Cmd(Serial3_DMA_RX_Stream, DISABLE);
  92:Bsp/periph_serial_irq.c **** 
  93:Bsp/periph_serial_irq.c **** 		rec = USART3->DR;
  94:Bsp/periph_serial_irq.c **** 		rec = USART3->SR;
  95:Bsp/periph_serial_irq.c **** 
  96:Bsp/periph_serial_irq.c **** 		rec = DMA_GetCurrDataCounter(Serial3_DMA_RX_Stream);
  97:Bsp/periph_serial_irq.c **** 		DMA_ClearFlag(Serial3_DMA_RX_Stream, DMA_FLAG_TCIF1);
  98:Bsp/periph_serial_irq.c **** 		DMA_SetCurrDataCounter(Serial3_DMA_RX_Stream, PCK_MAX);
  99:Bsp/periph_serial_irq.c **** 		DMA_Cmd(Serial3_DMA_RX_Stream, ENABLE);
 100:Bsp/periph_serial_irq.c **** 	}
 101:Bsp/periph_serial_irq.c **** }
 307              		.loc 1 101 1 view .LVU69
 308 0026 10BD     		pop	{r4, pc}
 309              	.L26:
  79:Bsp/periph_serial_irq.c **** 	}
 310              		.loc 1 79 3 is_stmt 1 view .LVU70
 311 0028 0022     		movs	r2, #0
 312 002a 40F22661 		movw	r1, #1574
 313 002e 1548     		ldr	r0, .L29
 314 0030 FFF7FEFF 		bl	USART_ITConfig
 315              	.LVL28:
 316 0034 EBE7     		b	.L22
 317              	.L27:
  84:Bsp/periph_serial_irq.c **** 		USART_SendData(USART3, rec);
 318              		.loc 1 84 3 view .LVU71
  84:Bsp/periph_serial_irq.c **** 		USART_SendData(USART3, rec);
 319              		.loc 1 84 9 is_stmt 0 view .LVU72
 320 0036 134C     		ldr	r4, .L29
 321 0038 2046     		mov	r0, r4
 322 003a FFF7FEFF 		bl	USART_ReceiveData
 323              	.LVL29:
  85:Bsp/periph_serial_irq.c **** 		USART_ClearITPendingBit(USART3, USART_IT_RXNE);
 324              		.loc 1 85 3 is_stmt 1 view .LVU73
 325 003e C1B2     		uxtb	r1, r0
 326 0040 2046     		mov	r0, r4
ARM GAS  C:\Users\huav\AppData\Local\Temp\ccFsTiZd.s 			page 9


 327              	.LVL30:
  85:Bsp/periph_serial_irq.c **** 		USART_ClearITPendingBit(USART3, USART_IT_RXNE);
 328              		.loc 1 85 3 is_stmt 0 view .LVU74
 329 0042 FFF7FEFF 		bl	USART_SendData
 330              	.LVL31:
  86:Bsp/periph_serial_irq.c **** 	}
 331              		.loc 1 86 3 is_stmt 1 view .LVU75
 332 0046 40F22551 		movw	r1, #1317
 333 004a 2046     		mov	r0, r4
 334 004c FFF7FEFF 		bl	USART_ClearITPendingBit
 335              	.LVL32:
 336 0050 E3E7     		b	.L23
 337              	.L28:
  91:Bsp/periph_serial_irq.c **** 
 338              		.loc 1 91 3 view .LVU76
 339 0052 0D4C     		ldr	r4, .L29+4
 340 0054 0021     		movs	r1, #0
 341 0056 2046     		mov	r0, r4
 342 0058 FFF7FEFF 		bl	DMA_Cmd
 343              	.LVL33:
  93:Bsp/periph_serial_irq.c **** 		rec = USART3->SR;
 344              		.loc 1 93 3 view .LVU77
  93:Bsp/periph_serial_irq.c **** 		rec = USART3->SR;
 345              		.loc 1 93 15 is_stmt 0 view .LVU78
 346 005c 094B     		ldr	r3, .L29
 347 005e 9A88     		ldrh	r2, [r3, #4]
  94:Bsp/periph_serial_irq.c **** 
 348              		.loc 1 94 3 is_stmt 1 view .LVU79
  94:Bsp/periph_serial_irq.c **** 
 349              		.loc 1 94 15 is_stmt 0 view .LVU80
 350 0060 1B88     		ldrh	r3, [r3]
  96:Bsp/periph_serial_irq.c **** 		DMA_ClearFlag(Serial3_DMA_RX_Stream, DMA_FLAG_TCIF1);
 351              		.loc 1 96 3 is_stmt 1 view .LVU81
  96:Bsp/periph_serial_irq.c **** 		DMA_ClearFlag(Serial3_DMA_RX_Stream, DMA_FLAG_TCIF1);
 352              		.loc 1 96 9 is_stmt 0 view .LVU82
 353 0062 2046     		mov	r0, r4
 354 0064 FFF7FEFF 		bl	DMA_GetCurrDataCounter
 355              	.LVL34:
  97:Bsp/periph_serial_irq.c **** 		DMA_SetCurrDataCounter(Serial3_DMA_RX_Stream, PCK_MAX);
 356              		.loc 1 97 3 is_stmt 1 view .LVU83
 357 0068 0849     		ldr	r1, .L29+8
 358 006a 2046     		mov	r0, r4
 359 006c FFF7FEFF 		bl	DMA_ClearFlag
 360              	.LVL35:
  98:Bsp/periph_serial_irq.c **** 		DMA_Cmd(Serial3_DMA_RX_Stream, ENABLE);
 361              		.loc 1 98 3 view .LVU84
 362 0070 4FF48071 		mov	r1, #256
 363 0074 2046     		mov	r0, r4
 364 0076 FFF7FEFF 		bl	DMA_SetCurrDataCounter
 365              	.LVL36:
  99:Bsp/periph_serial_irq.c **** 	}
 366              		.loc 1 99 3 view .LVU85
 367 007a 0121     		movs	r1, #1
 368 007c 2046     		mov	r0, r4
 369 007e FFF7FEFF 		bl	DMA_Cmd
 370              	.LVL37:
 371              		.loc 1 101 1 is_stmt 0 view .LVU86
ARM GAS  C:\Users\huav\AppData\Local\Temp\ccFsTiZd.s 			page 10


 372 0082 D0E7     		b	.L21
 373              	.L30:
 374              		.align	2
 375              	.L29:
 376 0084 00480040 		.word	1073760256
 377 0088 28600240 		.word	1073897512
 378 008c 00080010 		.word	268437504
 379              		.cfi_endproc
 380              	.LFE125:
 382              		.section	.text.USART6_IRQHandler,"ax",%progbits
 383              		.align	1
 384              		.global	USART6_IRQHandler
 385              		.syntax unified
 386              		.thumb
 387              		.thumb_func
 388              		.fpu fpv4-sp-d16
 390              	USART6_IRQHandler:
 391              	.LFB126:
 102:Bsp/periph_serial_irq.c **** 
 103:Bsp/periph_serial_irq.c **** void USART6_IRQHandler(void)
 104:Bsp/periph_serial_irq.c **** {
 392              		.loc 1 104 1 is_stmt 1 view -0
 393              		.cfi_startproc
 394              		@ args = 0, pretend = 0, frame = 0
 395              		@ frame_needed = 0, uses_anonymous_args = 0
 396 0000 10B5     		push	{r4, lr}
 397              	.LCFI3:
 398              		.cfi_def_cfa_offset 8
 399              		.cfi_offset 4, -8
 400              		.cfi_offset 14, -4
 105:Bsp/periph_serial_irq.c **** 	uint8_t rec;
 401              		.loc 1 105 2 view .LVU88
 106:Bsp/periph_serial_irq.c **** 
 107:Bsp/periph_serial_irq.c **** 	if (USART_GetITStatus(USART6, USART_IT_TXE) == RESET)
 402              		.loc 1 107 2 view .LVU89
 403              		.loc 1 107 6 is_stmt 0 view .LVU90
 404 0002 40F22771 		movw	r1, #1831
 405 0006 1F48     		ldr	r0, .L39
 406 0008 FFF7FEFF 		bl	USART_GetITStatus
 407              	.LVL38:
 408              		.loc 1 107 5 view .LVU91
 409 000c 60B1     		cbz	r0, .L36
 410              	.L32:
 108:Bsp/periph_serial_irq.c **** 	{
 109:Bsp/periph_serial_irq.c **** 		USART_ITConfig(USART6, USART_IT_TC, DISABLE);
 110:Bsp/periph_serial_irq.c **** 	}
 111:Bsp/periph_serial_irq.c **** 
 112:Bsp/periph_serial_irq.c **** 	if (USART_GetITStatus(USART6, USART_IT_RXNE) != RESET)
 411              		.loc 1 112 2 is_stmt 1 view .LVU92
 412              		.loc 1 112 6 is_stmt 0 view .LVU93
 413 000e 40F22551 		movw	r1, #1317
 414 0012 1C48     		ldr	r0, .L39
 415 0014 FFF7FEFF 		bl	USART_GetITStatus
 416              	.LVL39:
 417              		.loc 1 112 5 view .LVU94
 418 0018 68B9     		cbnz	r0, .L37
 419              	.L33:
ARM GAS  C:\Users\huav\AppData\Local\Temp\ccFsTiZd.s 			page 11


 113:Bsp/periph_serial_irq.c **** 	{
 114:Bsp/periph_serial_irq.c **** 		rec = USART_ReceiveData(USART6);
 115:Bsp/periph_serial_irq.c **** 		USART_SendData(USART6, rec);
 116:Bsp/periph_serial_irq.c **** 		USART_ClearITPendingBit(USART6, USART_IT_RXNE);
 117:Bsp/periph_serial_irq.c **** 	}
 118:Bsp/periph_serial_irq.c **** 
 119:Bsp/periph_serial_irq.c **** 	if (USART_GetITStatus(USART6, USART_IT_IDLE) != RESET)
 420              		.loc 1 119 2 is_stmt 1 view .LVU95
 421              		.loc 1 119 6 is_stmt 0 view .LVU96
 422 001a 40F22441 		movw	r1, #1060
 423 001e 1948     		ldr	r0, .L39
 424 0020 FFF7FEFF 		bl	USART_GetITStatus
 425              	.LVL40:
 426              		.loc 1 119 5 view .LVU97
 427 0024 A8B9     		cbnz	r0, .L38
 428              	.L31:
 120:Bsp/periph_serial_irq.c **** 	{
 121:Bsp/periph_serial_irq.c **** 		DMA_Cmd(Serial6_DMA_RX_Stream, DISABLE);
 122:Bsp/periph_serial_irq.c **** 
 123:Bsp/periph_serial_irq.c **** 		rec = USART6->DR;
 124:Bsp/periph_serial_irq.c **** 		rec = USART6->SR;
 125:Bsp/periph_serial_irq.c **** 
 126:Bsp/periph_serial_irq.c **** 		rec = DMA_GetCurrDataCounter(Serial6_DMA_RX_Stream);
 127:Bsp/periph_serial_irq.c **** 		DMA_ClearFlag(Serial6_DMA_RX_Stream, DMA_FLAG_TCIF1);
 128:Bsp/periph_serial_irq.c **** 		DMA_SetCurrDataCounter(Serial6_DMA_RX_Stream, PCK_MAX);
 129:Bsp/periph_serial_irq.c **** 		DMA_Cmd(Serial6_DMA_RX_Stream, ENABLE);
 130:Bsp/periph_serial_irq.c **** 	}
 131:Bsp/periph_serial_irq.c **** }
 429              		.loc 1 131 1 view .LVU98
 430 0026 10BD     		pop	{r4, pc}
 431              	.L36:
 109:Bsp/periph_serial_irq.c **** 	}
 432              		.loc 1 109 3 is_stmt 1 view .LVU99
 433 0028 0022     		movs	r2, #0
 434 002a 40F22661 		movw	r1, #1574
 435 002e 1548     		ldr	r0, .L39
 436 0030 FFF7FEFF 		bl	USART_ITConfig
 437              	.LVL41:
 438 0034 EBE7     		b	.L32
 439              	.L37:
 114:Bsp/periph_serial_irq.c **** 		USART_SendData(USART6, rec);
 440              		.loc 1 114 3 view .LVU100
 114:Bsp/periph_serial_irq.c **** 		USART_SendData(USART6, rec);
 441              		.loc 1 114 9 is_stmt 0 view .LVU101
 442 0036 134C     		ldr	r4, .L39
 443 0038 2046     		mov	r0, r4
 444 003a FFF7FEFF 		bl	USART_ReceiveData
 445              	.LVL42:
 115:Bsp/periph_serial_irq.c **** 		USART_ClearITPendingBit(USART6, USART_IT_RXNE);
 446              		.loc 1 115 3 is_stmt 1 view .LVU102
 447 003e C1B2     		uxtb	r1, r0
 448 0040 2046     		mov	r0, r4
 449              	.LVL43:
 115:Bsp/periph_serial_irq.c **** 		USART_ClearITPendingBit(USART6, USART_IT_RXNE);
 450              		.loc 1 115 3 is_stmt 0 view .LVU103
 451 0042 FFF7FEFF 		bl	USART_SendData
 452              	.LVL44:
ARM GAS  C:\Users\huav\AppData\Local\Temp\ccFsTiZd.s 			page 12


 116:Bsp/periph_serial_irq.c **** 	}
 453              		.loc 1 116 3 is_stmt 1 view .LVU104
 454 0046 40F22551 		movw	r1, #1317
 455 004a 2046     		mov	r0, r4
 456 004c FFF7FEFF 		bl	USART_ClearITPendingBit
 457              	.LVL45:
 458 0050 E3E7     		b	.L33
 459              	.L38:
 121:Bsp/periph_serial_irq.c **** 
 460              		.loc 1 121 3 view .LVU105
 461 0052 0D4C     		ldr	r4, .L39+4
 462 0054 0021     		movs	r1, #0
 463 0056 2046     		mov	r0, r4
 464 0058 FFF7FEFF 		bl	DMA_Cmd
 465              	.LVL46:
 123:Bsp/periph_serial_irq.c **** 		rec = USART6->SR;
 466              		.loc 1 123 3 view .LVU106
 123:Bsp/periph_serial_irq.c **** 		rec = USART6->SR;
 467              		.loc 1 123 15 is_stmt 0 view .LVU107
 468 005c 094B     		ldr	r3, .L39
 469 005e 9A88     		ldrh	r2, [r3, #4]
 124:Bsp/periph_serial_irq.c **** 
 470              		.loc 1 124 3 is_stmt 1 view .LVU108
 124:Bsp/periph_serial_irq.c **** 
 471              		.loc 1 124 15 is_stmt 0 view .LVU109
 472 0060 1B88     		ldrh	r3, [r3]
 126:Bsp/periph_serial_irq.c **** 		DMA_ClearFlag(Serial6_DMA_RX_Stream, DMA_FLAG_TCIF1);
 473              		.loc 1 126 3 is_stmt 1 view .LVU110
 126:Bsp/periph_serial_irq.c **** 		DMA_ClearFlag(Serial6_DMA_RX_Stream, DMA_FLAG_TCIF1);
 474              		.loc 1 126 9 is_stmt 0 view .LVU111
 475 0062 2046     		mov	r0, r4
 476 0064 FFF7FEFF 		bl	DMA_GetCurrDataCounter
 477              	.LVL47:
 127:Bsp/periph_serial_irq.c **** 		DMA_SetCurrDataCounter(Serial6_DMA_RX_Stream, PCK_MAX);
 478              		.loc 1 127 3 is_stmt 1 view .LVU112
 479 0068 0849     		ldr	r1, .L39+8
 480 006a 2046     		mov	r0, r4
 481 006c FFF7FEFF 		bl	DMA_ClearFlag
 482              	.LVL48:
 128:Bsp/periph_serial_irq.c **** 		DMA_Cmd(Serial6_DMA_RX_Stream, ENABLE);
 483              		.loc 1 128 3 view .LVU113
 484 0070 4FF48071 		mov	r1, #256
 485 0074 2046     		mov	r0, r4
 486 0076 FFF7FEFF 		bl	DMA_SetCurrDataCounter
 487              	.LVL49:
 129:Bsp/periph_serial_irq.c **** 	}
 488              		.loc 1 129 3 view .LVU114
 489 007a 0121     		movs	r1, #1
 490 007c 2046     		mov	r0, r4
 491 007e FFF7FEFF 		bl	DMA_Cmd
 492              	.LVL50:
 493              		.loc 1 131 1 is_stmt 0 view .LVU115
 494 0082 D0E7     		b	.L31
 495              	.L40:
 496              		.align	2
 497              	.L39:
 498 0084 00140140 		.word	1073812480
ARM GAS  C:\Users\huav\AppData\Local\Temp\ccFsTiZd.s 			page 13


 499 0088 28640240 		.word	1073898536
 500 008c 00080010 		.word	268437504
 501              		.cfi_endproc
 502              	.LFE126:
 504              		.text
 505              	.Letext0:
 506              		.file 2 "c:\\program files (x86)\\gnu arm embedded toolchain\\10 2020-q4-major\\arm-none-eabi\\inc
 507              		.file 3 "c:\\program files (x86)\\gnu arm embedded toolchain\\10 2020-q4-major\\arm-none-eabi\\inc
 508              		.file 4 "USER/stm32f4xx.h"
 509              		.file 5 "FWLIB/inc/stm32f4xx_usart.h"
 510              		.file 6 "FWLIB/inc/stm32f4xx_dma.h"
ARM GAS  C:\Users\huav\AppData\Local\Temp\ccFsTiZd.s 			page 14


DEFINED SYMBOLS
                            *ABS*:00000000 periph_serial_irq.c
C:\Users\huav\AppData\Local\Temp\ccFsTiZd.s:18     .text.USART1_IRQHandler:00000000 $t
C:\Users\huav\AppData\Local\Temp\ccFsTiZd.s:26     .text.USART1_IRQHandler:00000000 USART1_IRQHandler
C:\Users\huav\AppData\Local\Temp\ccFsTiZd.s:132    .text.USART1_IRQHandler:00000084 $d
C:\Users\huav\AppData\Local\Temp\ccFsTiZd.s:139    .text.USART2_IRQHandler:00000000 $t
C:\Users\huav\AppData\Local\Temp\ccFsTiZd.s:146    .text.USART2_IRQHandler:00000000 USART2_IRQHandler
C:\Users\huav\AppData\Local\Temp\ccFsTiZd.s:254    .text.USART2_IRQHandler:00000084 $d
C:\Users\huav\AppData\Local\Temp\ccFsTiZd.s:261    .text.USART3_IRQHandler:00000000 $t
C:\Users\huav\AppData\Local\Temp\ccFsTiZd.s:268    .text.USART3_IRQHandler:00000000 USART3_IRQHandler
C:\Users\huav\AppData\Local\Temp\ccFsTiZd.s:376    .text.USART3_IRQHandler:00000084 $d
C:\Users\huav\AppData\Local\Temp\ccFsTiZd.s:383    .text.USART6_IRQHandler:00000000 $t
C:\Users\huav\AppData\Local\Temp\ccFsTiZd.s:390    .text.USART6_IRQHandler:00000000 USART6_IRQHandler
C:\Users\huav\AppData\Local\Temp\ccFsTiZd.s:498    .text.USART6_IRQHandler:00000084 $d

UNDEFINED SYMBOLS
USART_GetITStatus
USART_ITConfig
USART_ReceiveData
USART_ClearITPendingBit
DMA_Cmd
DMA_GetCurrDataCounter
DMA_ClearFlag
DMA_SetCurrDataCounter
USART_SendData
