ARM GAS  C:\Users\ADMINI~1\AppData\Local\Temp\cc2CG9la.s 			page 1


   1              		.syntax unified
   2              		.cpu cortex-m4
   3              		.eabi_attribute 27, 1
   4              		.eabi_attribute 28, 1
   5              		.fpu fpv4-sp-d16
   6              		.eabi_attribute 20, 1
   7              		.eabi_attribute 21, 1
   8              		.eabi_attribute 23, 3
   9              		.eabi_attribute 24, 1
  10              		.eabi_attribute 25, 1
  11              		.eabi_attribute 26, 1
  12              		.eabi_attribute 30, 1
  13              		.eabi_attribute 34, 1
  14              		.eabi_attribute 18, 4
  15              		.thumb
  16              		.syntax unified
  17              		.file	"periph_gpio.c"
  18              		.text
  19              	.Ltext0:
  20              		.cfi_sections	.debug_frame
  21              		.section	.text.GPIO_USART1_IO_Init,"ax",%progbits
  22              		.align	2
  23              		.global	GPIO_USART1_IO_Init
  24              		.thumb
  25              		.thumb_func
  27              	GPIO_USART1_IO_Init:
  28              	.LFB123:
  29              		.file 1 "Bsp/periph_gpio.c"
   1:Bsp/periph_gpio.c **** #include "periph_gpio.h"
   2:Bsp/periph_gpio.c **** #include "stm32f4xx_gpio.h"
   3:Bsp/periph_gpio.c **** 
   4:Bsp/periph_gpio.c **** void GPIO_USART1_IO_Init(void)
   5:Bsp/periph_gpio.c **** {
  30              		.loc 1 5 0
  31              		.cfi_startproc
  32              		@ args = 0, pretend = 0, frame = 8
  33              		@ frame_needed = 0, uses_anonymous_args = 0
  34 0000 10B5     		push	{r4, lr}
  35              	.LCFI0:
  36              		.cfi_def_cfa_offset 8
  37              		.cfi_offset 4, -8
  38              		.cfi_offset 14, -4
  39 0002 82B0     		sub	sp, sp, #8
  40              	.LCFI1:
  41              		.cfi_def_cfa_offset 16
   6:Bsp/periph_gpio.c **** 	GPIO_InitTypeDef GPIO_InitStructure;
   7:Bsp/periph_gpio.c **** 
   8:Bsp/periph_gpio.c **** 	RCC_AHB1PeriphClockCmd(USART1_IO_CLK, ENABLE);
  42              		.loc 1 8 0
  43 0004 0121     		movs	r1, #1
  44 0006 0846     		mov	r0, r1
  45 0008 FFF7FEFF 		bl	RCC_AHB1PeriphClockCmd
  46              	.LVL0:
   9:Bsp/periph_gpio.c **** 
  10:Bsp/periph_gpio.c **** 	GPIO_PinAFConfig(USART1_IO_PORT, USART1_TX_PinSource, GPIO_AF_USART1);
  47              		.loc 1 10 0
  48 000c 0F4C     		ldr	r4, .L3
ARM GAS  C:\Users\ADMINI~1\AppData\Local\Temp\cc2CG9la.s 			page 2


  49 000e 0722     		movs	r2, #7
  50 0010 0921     		movs	r1, #9
  51 0012 2046     		mov	r0, r4
  52 0014 FFF7FEFF 		bl	GPIO_PinAFConfig
  53              	.LVL1:
  11:Bsp/periph_gpio.c **** 	GPIO_PinAFConfig(USART1_IO_PORT, USART1_RX_PinSource, GPIO_AF_USART1);
  54              		.loc 1 11 0
  55 0018 0722     		movs	r2, #7
  56 001a 0A21     		movs	r1, #10
  57 001c 2046     		mov	r0, r4
  58 001e FFF7FEFF 		bl	GPIO_PinAFConfig
  59              	.LVL2:
  12:Bsp/periph_gpio.c **** 
  13:Bsp/periph_gpio.c **** 	GPIO_InitStructure.GPIO_Pin = USART1_TX_PIN | USART1_RX_PIN;
  60              		.loc 1 13 0
  61 0022 4FF4C063 		mov	r3, #1536
  62 0026 0093     		str	r3, [sp]
  14:Bsp/periph_gpio.c **** 	GPIO_InitStructure.GPIO_Mode = GPIO_Mode_AF;
  63              		.loc 1 14 0
  64 0028 0223     		movs	r3, #2
  65 002a 8DF80430 		strb	r3, [sp, #4]
  15:Bsp/periph_gpio.c **** 	GPIO_InitStructure.GPIO_Speed = GPIO_Speed_100MHz;
  66              		.loc 1 15 0
  67 002e 0323     		movs	r3, #3
  68 0030 8DF80530 		strb	r3, [sp, #5]
  16:Bsp/periph_gpio.c **** 	GPIO_InitStructure.GPIO_OType = GPIO_OType_PP;
  69              		.loc 1 16 0
  70 0034 0023     		movs	r3, #0
  71 0036 8DF80630 		strb	r3, [sp, #6]
  17:Bsp/periph_gpio.c **** 	GPIO_InitStructure.GPIO_PuPd = GPIO_PuPd_UP;
  72              		.loc 1 17 0
  73 003a 0123     		movs	r3, #1
  74 003c 8DF80730 		strb	r3, [sp, #7]
  18:Bsp/periph_gpio.c **** 
  19:Bsp/periph_gpio.c **** 	GPIO_Init(USART1_IO_PORT, &GPIO_InitStructure);
  75              		.loc 1 19 0
  76 0040 6946     		mov	r1, sp
  77 0042 2046     		mov	r0, r4
  78 0044 FFF7FEFF 		bl	GPIO_Init
  79              	.LVL3:
  20:Bsp/periph_gpio.c **** }
  80              		.loc 1 20 0
  81 0048 02B0     		add	sp, sp, #8
  82              	.LCFI2:
  83              		.cfi_def_cfa_offset 8
  84              		@ sp needed
  85 004a 10BD     		pop	{r4, pc}
  86              	.L4:
  87              		.align	2
  88              	.L3:
  89 004c 00000240 		.word	1073872896
  90              		.cfi_endproc
  91              	.LFE123:
  93              		.section	.text.GPIO_USART2_IO_Init,"ax",%progbits
  94              		.align	2
  95              		.global	GPIO_USART2_IO_Init
  96              		.thumb
ARM GAS  C:\Users\ADMINI~1\AppData\Local\Temp\cc2CG9la.s 			page 3


  97              		.thumb_func
  99              	GPIO_USART2_IO_Init:
 100              	.LFB124:
  21:Bsp/periph_gpio.c **** 
  22:Bsp/periph_gpio.c **** void GPIO_USART2_IO_Init(void)
  23:Bsp/periph_gpio.c **** {
 101              		.loc 1 23 0
 102              		.cfi_startproc
 103              		@ args = 0, pretend = 0, frame = 8
 104              		@ frame_needed = 0, uses_anonymous_args = 0
 105 0000 10B5     		push	{r4, lr}
 106              	.LCFI3:
 107              		.cfi_def_cfa_offset 8
 108              		.cfi_offset 4, -8
 109              		.cfi_offset 14, -4
 110 0002 82B0     		sub	sp, sp, #8
 111              	.LCFI4:
 112              		.cfi_def_cfa_offset 16
  24:Bsp/periph_gpio.c **** 	GPIO_InitTypeDef GPIO_InitStructure;
  25:Bsp/periph_gpio.c **** 
  26:Bsp/periph_gpio.c **** 	RCC_AHB1PeriphClockCmd(USART2_IO_CLK, ENABLE);
 113              		.loc 1 26 0
 114 0004 0121     		movs	r1, #1
 115 0006 0846     		mov	r0, r1
 116 0008 FFF7FEFF 		bl	RCC_AHB1PeriphClockCmd
 117              	.LVL4:
  27:Bsp/periph_gpio.c **** 
  28:Bsp/periph_gpio.c **** 	GPIO_PinAFConfig(USART2_IO_PORT, USART2_TX_PinSource, GPIO_AF_USART2);
 118              		.loc 1 28 0
 119 000c 0F4C     		ldr	r4, .L7
 120 000e 0722     		movs	r2, #7
 121 0010 0221     		movs	r1, #2
 122 0012 2046     		mov	r0, r4
 123 0014 FFF7FEFF 		bl	GPIO_PinAFConfig
 124              	.LVL5:
  29:Bsp/periph_gpio.c **** 	GPIO_PinAFConfig(USART2_IO_PORT, USART2_RX_PinSource, GPIO_AF_USART2);
 125              		.loc 1 29 0
 126 0018 0722     		movs	r2, #7
 127 001a 0321     		movs	r1, #3
 128 001c 2046     		mov	r0, r4
 129 001e FFF7FEFF 		bl	GPIO_PinAFConfig
 130              	.LVL6:
  30:Bsp/periph_gpio.c **** 
  31:Bsp/periph_gpio.c **** 	GPIO_InitStructure.GPIO_Pin = USART2_TX_PIN | USART2_RX_PIN;
 131              		.loc 1 31 0
 132 0022 0C23     		movs	r3, #12
 133 0024 0093     		str	r3, [sp]
  32:Bsp/periph_gpio.c **** 	GPIO_InitStructure.GPIO_Mode = GPIO_Mode_AF;
 134              		.loc 1 32 0
 135 0026 0223     		movs	r3, #2
 136 0028 8DF80430 		strb	r3, [sp, #4]
  33:Bsp/periph_gpio.c **** 	GPIO_InitStructure.GPIO_Speed = GPIO_Speed_100MHz;
 137              		.loc 1 33 0
 138 002c 0323     		movs	r3, #3
 139 002e 8DF80530 		strb	r3, [sp, #5]
  34:Bsp/periph_gpio.c **** 	GPIO_InitStructure.GPIO_OType = GPIO_OType_PP;
 140              		.loc 1 34 0
ARM GAS  C:\Users\ADMINI~1\AppData\Local\Temp\cc2CG9la.s 			page 4


 141 0032 0023     		movs	r3, #0
 142 0034 8DF80630 		strb	r3, [sp, #6]
  35:Bsp/periph_gpio.c **** 	GPIO_InitStructure.GPIO_PuPd = GPIO_PuPd_UP;
 143              		.loc 1 35 0
 144 0038 0123     		movs	r3, #1
 145 003a 8DF80730 		strb	r3, [sp, #7]
  36:Bsp/periph_gpio.c **** 
  37:Bsp/periph_gpio.c **** 	GPIO_Init(USART2_IO_PORT, &GPIO_InitStructure);
 146              		.loc 1 37 0
 147 003e 6946     		mov	r1, sp
 148 0040 2046     		mov	r0, r4
 149 0042 FFF7FEFF 		bl	GPIO_Init
 150              	.LVL7:
  38:Bsp/periph_gpio.c **** }
 151              		.loc 1 38 0
 152 0046 02B0     		add	sp, sp, #8
 153              	.LCFI5:
 154              		.cfi_def_cfa_offset 8
 155              		@ sp needed
 156 0048 10BD     		pop	{r4, pc}
 157              	.L8:
 158 004a 00BF     		.align	2
 159              	.L7:
 160 004c 00000240 		.word	1073872896
 161              		.cfi_endproc
 162              	.LFE124:
 164              		.section	.text.GPIO_USART3_IO_Init,"ax",%progbits
 165              		.align	2
 166              		.global	GPIO_USART3_IO_Init
 167              		.thumb
 168              		.thumb_func
 170              	GPIO_USART3_IO_Init:
 171              	.LFB125:
  39:Bsp/periph_gpio.c **** 
  40:Bsp/periph_gpio.c **** void GPIO_USART3_IO_Init(void)
  41:Bsp/periph_gpio.c **** {
 172              		.loc 1 41 0
 173              		.cfi_startproc
 174              		@ args = 0, pretend = 0, frame = 8
 175              		@ frame_needed = 0, uses_anonymous_args = 0
 176 0000 10B5     		push	{r4, lr}
 177              	.LCFI6:
 178              		.cfi_def_cfa_offset 8
 179              		.cfi_offset 4, -8
 180              		.cfi_offset 14, -4
 181 0002 82B0     		sub	sp, sp, #8
 182              	.LCFI7:
 183              		.cfi_def_cfa_offset 16
  42:Bsp/periph_gpio.c **** 	GPIO_InitTypeDef GPIO_InitStructure;
  43:Bsp/periph_gpio.c **** 
  44:Bsp/periph_gpio.c **** 	RCC_AHB1PeriphClockCmd(USART3_IO_CLK, ENABLE);
 184              		.loc 1 44 0
 185 0004 0121     		movs	r1, #1
 186 0006 0220     		movs	r0, #2
 187 0008 FFF7FEFF 		bl	RCC_AHB1PeriphClockCmd
 188              	.LVL8:
  45:Bsp/periph_gpio.c **** 
ARM GAS  C:\Users\ADMINI~1\AppData\Local\Temp\cc2CG9la.s 			page 5


  46:Bsp/periph_gpio.c **** 	GPIO_PinAFConfig(USART3_IO_PORT, USART3_TX_PinSource, GPIO_AF_USART3);
 189              		.loc 1 46 0
 190 000c 0F4C     		ldr	r4, .L11
 191 000e 0722     		movs	r2, #7
 192 0010 0A21     		movs	r1, #10
 193 0012 2046     		mov	r0, r4
 194 0014 FFF7FEFF 		bl	GPIO_PinAFConfig
 195              	.LVL9:
  47:Bsp/periph_gpio.c **** 	GPIO_PinAFConfig(USART3_IO_PORT, USART3_RX_PinSource, GPIO_AF_USART3);
 196              		.loc 1 47 0
 197 0018 0722     		movs	r2, #7
 198 001a 0B21     		movs	r1, #11
 199 001c 2046     		mov	r0, r4
 200 001e FFF7FEFF 		bl	GPIO_PinAFConfig
 201              	.LVL10:
  48:Bsp/periph_gpio.c **** 
  49:Bsp/periph_gpio.c **** 	GPIO_InitStructure.GPIO_Pin = USART3_TX_PIN | USART3_RX_PIN;
 202              		.loc 1 49 0
 203 0022 4FF44063 		mov	r3, #3072
 204 0026 0093     		str	r3, [sp]
  50:Bsp/periph_gpio.c **** 	GPIO_InitStructure.GPIO_Mode = GPIO_Mode_AF;
 205              		.loc 1 50 0
 206 0028 0223     		movs	r3, #2
 207 002a 8DF80430 		strb	r3, [sp, #4]
  51:Bsp/periph_gpio.c **** 	GPIO_InitStructure.GPIO_Speed = GPIO_Speed_100MHz;
 208              		.loc 1 51 0
 209 002e 0323     		movs	r3, #3
 210 0030 8DF80530 		strb	r3, [sp, #5]
  52:Bsp/periph_gpio.c **** 	GPIO_InitStructure.GPIO_OType = GPIO_OType_PP;
 211              		.loc 1 52 0
 212 0034 0023     		movs	r3, #0
 213 0036 8DF80630 		strb	r3, [sp, #6]
  53:Bsp/periph_gpio.c **** 	GPIO_InitStructure.GPIO_PuPd = GPIO_PuPd_UP;
 214              		.loc 1 53 0
 215 003a 0123     		movs	r3, #1
 216 003c 8DF80730 		strb	r3, [sp, #7]
  54:Bsp/periph_gpio.c **** 
  55:Bsp/periph_gpio.c **** 	GPIO_Init(USART3_IO_PORT, &GPIO_InitStructure);
 217              		.loc 1 55 0
 218 0040 6946     		mov	r1, sp
 219 0042 2046     		mov	r0, r4
 220 0044 FFF7FEFF 		bl	GPIO_Init
 221              	.LVL11:
  56:Bsp/periph_gpio.c **** }
 222              		.loc 1 56 0
 223 0048 02B0     		add	sp, sp, #8
 224              	.LCFI8:
 225              		.cfi_def_cfa_offset 8
 226              		@ sp needed
 227 004a 10BD     		pop	{r4, pc}
 228              	.L12:
 229              		.align	2
 230              	.L11:
 231 004c 00040240 		.word	1073873920
 232              		.cfi_endproc
 233              	.LFE125:
 235              		.section	.text.GPIO_USART6_IO_Init,"ax",%progbits
ARM GAS  C:\Users\ADMINI~1\AppData\Local\Temp\cc2CG9la.s 			page 6


 236              		.align	2
 237              		.global	GPIO_USART6_IO_Init
 238              		.thumb
 239              		.thumb_func
 241              	GPIO_USART6_IO_Init:
 242              	.LFB126:
  57:Bsp/periph_gpio.c **** 
  58:Bsp/periph_gpio.c **** void GPIO_USART6_IO_Init(void)
  59:Bsp/periph_gpio.c **** {
 243              		.loc 1 59 0
 244              		.cfi_startproc
 245              		@ args = 0, pretend = 0, frame = 8
 246              		@ frame_needed = 0, uses_anonymous_args = 0
 247 0000 10B5     		push	{r4, lr}
 248              	.LCFI9:
 249              		.cfi_def_cfa_offset 8
 250              		.cfi_offset 4, -8
 251              		.cfi_offset 14, -4
 252 0002 82B0     		sub	sp, sp, #8
 253              	.LCFI10:
 254              		.cfi_def_cfa_offset 16
  60:Bsp/periph_gpio.c **** 	GPIO_InitTypeDef GPIO_InitStructure;
  61:Bsp/periph_gpio.c **** 
  62:Bsp/periph_gpio.c **** 	RCC_AHB1PeriphClockCmd(USART6_IO_CLK, ENABLE);
 255              		.loc 1 62 0
 256 0004 0121     		movs	r1, #1
 257 0006 0420     		movs	r0, #4
 258 0008 FFF7FEFF 		bl	RCC_AHB1PeriphClockCmd
 259              	.LVL12:
  63:Bsp/periph_gpio.c **** 
  64:Bsp/periph_gpio.c **** 	GPIO_PinAFConfig(USART6_IO_PORT, USART6_TX_PinSource, GPIO_AF_USART6);
 260              		.loc 1 64 0
 261 000c 0F4C     		ldr	r4, .L15
 262 000e 0822     		movs	r2, #8
 263 0010 0621     		movs	r1, #6
 264 0012 2046     		mov	r0, r4
 265 0014 FFF7FEFF 		bl	GPIO_PinAFConfig
 266              	.LVL13:
  65:Bsp/periph_gpio.c **** 	GPIO_PinAFConfig(USART6_IO_PORT, USART6_RX_PinSource, GPIO_AF_USART6);
 267              		.loc 1 65 0
 268 0018 0822     		movs	r2, #8
 269 001a 0721     		movs	r1, #7
 270 001c 2046     		mov	r0, r4
 271 001e FFF7FEFF 		bl	GPIO_PinAFConfig
 272              	.LVL14:
  66:Bsp/periph_gpio.c **** 
  67:Bsp/periph_gpio.c **** 	GPIO_InitStructure.GPIO_Pin = USART6_TX_PIN | USART6_RX_PIN;
 273              		.loc 1 67 0
 274 0022 C023     		movs	r3, #192
 275 0024 0093     		str	r3, [sp]
  68:Bsp/periph_gpio.c **** 	GPIO_InitStructure.GPIO_Mode = GPIO_Mode_AF;
 276              		.loc 1 68 0
 277 0026 0223     		movs	r3, #2
 278 0028 8DF80430 		strb	r3, [sp, #4]
  69:Bsp/periph_gpio.c **** 	GPIO_InitStructure.GPIO_Speed = GPIO_Speed_100MHz;
 279              		.loc 1 69 0
 280 002c 0323     		movs	r3, #3
ARM GAS  C:\Users\ADMINI~1\AppData\Local\Temp\cc2CG9la.s 			page 7


 281 002e 8DF80530 		strb	r3, [sp, #5]
  70:Bsp/periph_gpio.c **** 	GPIO_InitStructure.GPIO_OType = GPIO_OType_PP;
 282              		.loc 1 70 0
 283 0032 0023     		movs	r3, #0
 284 0034 8DF80630 		strb	r3, [sp, #6]
  71:Bsp/periph_gpio.c **** 	GPIO_InitStructure.GPIO_PuPd = GPIO_PuPd_UP;
 285              		.loc 1 71 0
 286 0038 0123     		movs	r3, #1
 287 003a 8DF80730 		strb	r3, [sp, #7]
  72:Bsp/periph_gpio.c **** 
  73:Bsp/periph_gpio.c **** 	GPIO_Init(USART6_IO_PORT, &GPIO_InitStructure);
 288              		.loc 1 73 0
 289 003e 6946     		mov	r1, sp
 290 0040 2046     		mov	r0, r4
 291 0042 FFF7FEFF 		bl	GPIO_Init
 292              	.LVL15:
  74:Bsp/periph_gpio.c **** }
 293              		.loc 1 74 0
 294 0046 02B0     		add	sp, sp, #8
 295              	.LCFI11:
 296              		.cfi_def_cfa_offset 8
 297              		@ sp needed
 298 0048 10BD     		pop	{r4, pc}
 299              	.L16:
 300 004a 00BF     		.align	2
 301              	.L15:
 302 004c 00080240 		.word	1073874944
 303              		.cfi_endproc
 304              	.LFE126:
 306              		.section	.text.GPIO_TIM2_PWMCH1_IO_Init,"ax",%progbits
 307              		.align	2
 308              		.global	GPIO_TIM2_PWMCH1_IO_Init
 309              		.thumb
 310              		.thumb_func
 312              	GPIO_TIM2_PWMCH1_IO_Init:
 313              	.LFB127:
  75:Bsp/periph_gpio.c **** 
  76:Bsp/periph_gpio.c **** void GPIO_TIM2_PWMCH1_IO_Init(void)
  77:Bsp/periph_gpio.c **** {
 314              		.loc 1 77 0
 315              		.cfi_startproc
 316              		@ args = 0, pretend = 0, frame = 8
 317              		@ frame_needed = 0, uses_anonymous_args = 0
 318 0000 10B5     		push	{r4, lr}
 319              	.LCFI12:
 320              		.cfi_def_cfa_offset 8
 321              		.cfi_offset 4, -8
 322              		.cfi_offset 14, -4
 323 0002 82B0     		sub	sp, sp, #8
 324              	.LCFI13:
 325              		.cfi_def_cfa_offset 16
  78:Bsp/periph_gpio.c **** 	GPIO_InitTypeDef GPIO_InitStructure;
  79:Bsp/periph_gpio.c **** 
  80:Bsp/periph_gpio.c **** 	RCC_AHB1PeriphClockCmd(TIM2_PWMCH1_IO_CLK, ENABLE);
 326              		.loc 1 80 0
 327 0004 0121     		movs	r1, #1
 328 0006 0846     		mov	r0, r1
ARM GAS  C:\Users\ADMINI~1\AppData\Local\Temp\cc2CG9la.s 			page 8


 329 0008 FFF7FEFF 		bl	RCC_AHB1PeriphClockCmd
 330              	.LVL16:
  81:Bsp/periph_gpio.c **** 
  82:Bsp/periph_gpio.c **** 	GPIO_PinAFConfig(TIM2_PWMCH1_IO_PORT, TIM2_PWMCH1_PinSource, GPIO_AF_TIM2);
 331              		.loc 1 82 0
 332 000c 0C4C     		ldr	r4, .L19
 333 000e 0122     		movs	r2, #1
 334 0010 0021     		movs	r1, #0
 335 0012 2046     		mov	r0, r4
 336 0014 FFF7FEFF 		bl	GPIO_PinAFConfig
 337              	.LVL17:
  83:Bsp/periph_gpio.c **** 
  84:Bsp/periph_gpio.c **** 	GPIO_InitStructure.GPIO_Pin = TIM2_PWMCH1_PIN;
 338              		.loc 1 84 0
 339 0018 0123     		movs	r3, #1
 340 001a 0093     		str	r3, [sp]
  85:Bsp/periph_gpio.c **** 	GPIO_InitStructure.GPIO_Mode = GPIO_Mode_AF;
 341              		.loc 1 85 0
 342 001c 0222     		movs	r2, #2
 343 001e 8DF80420 		strb	r2, [sp, #4]
  86:Bsp/periph_gpio.c **** 	GPIO_InitStructure.GPIO_Speed = GPIO_Speed_100MHz;
 344              		.loc 1 86 0
 345 0022 0322     		movs	r2, #3
 346 0024 8DF80520 		strb	r2, [sp, #5]
  87:Bsp/periph_gpio.c **** 	GPIO_InitStructure.GPIO_OType = GPIO_OType_PP;
 347              		.loc 1 87 0
 348 0028 0022     		movs	r2, #0
 349 002a 8DF80620 		strb	r2, [sp, #6]
  88:Bsp/periph_gpio.c **** 	GPIO_InitStructure.GPIO_PuPd = GPIO_PuPd_UP;
 350              		.loc 1 88 0
 351 002e 8DF80730 		strb	r3, [sp, #7]
  89:Bsp/periph_gpio.c **** 
  90:Bsp/periph_gpio.c **** 	GPIO_Init(TIM2_PWMCH1_IO_PORT, &GPIO_InitStructure);
 352              		.loc 1 90 0
 353 0032 6946     		mov	r1, sp
 354 0034 2046     		mov	r0, r4
 355 0036 FFF7FEFF 		bl	GPIO_Init
 356              	.LVL18:
  91:Bsp/periph_gpio.c **** }
 357              		.loc 1 91 0
 358 003a 02B0     		add	sp, sp, #8
 359              	.LCFI14:
 360              		.cfi_def_cfa_offset 8
 361              		@ sp needed
 362 003c 10BD     		pop	{r4, pc}
 363              	.L20:
 364 003e 00BF     		.align	2
 365              	.L19:
 366 0040 00000240 		.word	1073872896
 367              		.cfi_endproc
 368              	.LFE127:
 370              		.section	.text.GPIO_TIM2_PWMCH2_IO_Init,"ax",%progbits
 371              		.align	2
 372              		.global	GPIO_TIM2_PWMCH2_IO_Init
 373              		.thumb
 374              		.thumb_func
 376              	GPIO_TIM2_PWMCH2_IO_Init:
ARM GAS  C:\Users\ADMINI~1\AppData\Local\Temp\cc2CG9la.s 			page 9


 377              	.LFB128:
  92:Bsp/periph_gpio.c **** 
  93:Bsp/periph_gpio.c **** void GPIO_TIM2_PWMCH2_IO_Init(void)
  94:Bsp/periph_gpio.c **** {
 378              		.loc 1 94 0
 379              		.cfi_startproc
 380              		@ args = 0, pretend = 0, frame = 8
 381              		@ frame_needed = 0, uses_anonymous_args = 0
 382 0000 10B5     		push	{r4, lr}
 383              	.LCFI15:
 384              		.cfi_def_cfa_offset 8
 385              		.cfi_offset 4, -8
 386              		.cfi_offset 14, -4
 387 0002 82B0     		sub	sp, sp, #8
 388              	.LCFI16:
 389              		.cfi_def_cfa_offset 16
  95:Bsp/periph_gpio.c **** 	GPIO_InitTypeDef GPIO_InitStructure;
  96:Bsp/periph_gpio.c **** 
  97:Bsp/periph_gpio.c **** 	RCC_AHB1PeriphClockCmd(TIM2_PWMCH2_IO_CLK, ENABLE);
 390              		.loc 1 97 0
 391 0004 0121     		movs	r1, #1
 392 0006 0846     		mov	r0, r1
 393 0008 FFF7FEFF 		bl	RCC_AHB1PeriphClockCmd
 394              	.LVL19:
  98:Bsp/periph_gpio.c **** 
  99:Bsp/periph_gpio.c **** 	GPIO_PinAFConfig(TIM2_PWMCH2_IO_PORT, TIM2_PWMCH2_PinSource, GPIO_AF_TIM2);
 395              		.loc 1 99 0
 396 000c 0C4C     		ldr	r4, .L23
 397 000e 0122     		movs	r2, #1
 398 0010 1146     		mov	r1, r2
 399 0012 2046     		mov	r0, r4
 400 0014 FFF7FEFF 		bl	GPIO_PinAFConfig
 401              	.LVL20:
 100:Bsp/periph_gpio.c **** 
 101:Bsp/periph_gpio.c **** 	GPIO_InitStructure.GPIO_Pin = TIM2_PWMCH2_PIN;
 402              		.loc 1 101 0
 403 0018 0223     		movs	r3, #2
 404 001a 0093     		str	r3, [sp]
 102:Bsp/periph_gpio.c **** 	GPIO_InitStructure.GPIO_Mode = GPIO_Mode_AF;
 405              		.loc 1 102 0
 406 001c 8DF80430 		strb	r3, [sp, #4]
 103:Bsp/periph_gpio.c **** 	GPIO_InitStructure.GPIO_Speed = GPIO_Speed_100MHz;
 407              		.loc 1 103 0
 408 0020 0323     		movs	r3, #3
 409 0022 8DF80530 		strb	r3, [sp, #5]
 104:Bsp/periph_gpio.c **** 	GPIO_InitStructure.GPIO_OType = GPIO_OType_PP;
 410              		.loc 1 104 0
 411 0026 0023     		movs	r3, #0
 412 0028 8DF80630 		strb	r3, [sp, #6]
 105:Bsp/periph_gpio.c **** 	GPIO_InitStructure.GPIO_PuPd = GPIO_PuPd_UP;
 413              		.loc 1 105 0
 414 002c 0123     		movs	r3, #1
 415 002e 8DF80730 		strb	r3, [sp, #7]
 106:Bsp/periph_gpio.c **** 
 107:Bsp/periph_gpio.c **** 	GPIO_Init(TIM2_PWMCH2_IO_PORT, &GPIO_InitStructure);
 416              		.loc 1 107 0
 417 0032 6946     		mov	r1, sp
ARM GAS  C:\Users\ADMINI~1\AppData\Local\Temp\cc2CG9la.s 			page 10


 418 0034 2046     		mov	r0, r4
 419 0036 FFF7FEFF 		bl	GPIO_Init
 420              	.LVL21:
 108:Bsp/periph_gpio.c **** }
 421              		.loc 1 108 0
 422 003a 02B0     		add	sp, sp, #8
 423              	.LCFI17:
 424              		.cfi_def_cfa_offset 8
 425              		@ sp needed
 426 003c 10BD     		pop	{r4, pc}
 427              	.L24:
 428 003e 00BF     		.align	2
 429              	.L23:
 430 0040 00000240 		.word	1073872896
 431              		.cfi_endproc
 432              	.LFE128:
 434              		.section	.text.GPIO_TIM2_PWMCH3_IO_Init,"ax",%progbits
 435              		.align	2
 436              		.global	GPIO_TIM2_PWMCH3_IO_Init
 437              		.thumb
 438              		.thumb_func
 440              	GPIO_TIM2_PWMCH3_IO_Init:
 441              	.LFB129:
 109:Bsp/periph_gpio.c **** 
 110:Bsp/periph_gpio.c **** void GPIO_TIM2_PWMCH3_IO_Init(void)
 111:Bsp/periph_gpio.c **** {
 442              		.loc 1 111 0
 443              		.cfi_startproc
 444              		@ args = 0, pretend = 0, frame = 8
 445              		@ frame_needed = 0, uses_anonymous_args = 0
 446 0000 10B5     		push	{r4, lr}
 447              	.LCFI18:
 448              		.cfi_def_cfa_offset 8
 449              		.cfi_offset 4, -8
 450              		.cfi_offset 14, -4
 451 0002 82B0     		sub	sp, sp, #8
 452              	.LCFI19:
 453              		.cfi_def_cfa_offset 16
 112:Bsp/periph_gpio.c **** 	GPIO_InitTypeDef GPIO_InitStructure;
 113:Bsp/periph_gpio.c **** 
 114:Bsp/periph_gpio.c **** 	RCC_AHB1PeriphClockCmd(TIM2_PWMCH3_IO_CLK, ENABLE);
 454              		.loc 1 114 0
 455 0004 0121     		movs	r1, #1
 456 0006 0846     		mov	r0, r1
 457 0008 FFF7FEFF 		bl	RCC_AHB1PeriphClockCmd
 458              	.LVL22:
 115:Bsp/periph_gpio.c **** 
 116:Bsp/periph_gpio.c **** 	GPIO_PinAFConfig(TIM2_PWMCH3_IO_PORT, TIM2_PWMCH3_PinSource, GPIO_AF_TIM2);
 459              		.loc 1 116 0
 460 000c 0C4C     		ldr	r4, .L27
 461 000e 0122     		movs	r2, #1
 462 0010 0221     		movs	r1, #2
 463 0012 2046     		mov	r0, r4
 464 0014 FFF7FEFF 		bl	GPIO_PinAFConfig
 465              	.LVL23:
 117:Bsp/periph_gpio.c **** 
 118:Bsp/periph_gpio.c **** 	GPIO_InitStructure.GPIO_Pin = TIM2_PWMCH3_PIN;
ARM GAS  C:\Users\ADMINI~1\AppData\Local\Temp\cc2CG9la.s 			page 11


 466              		.loc 1 118 0
 467 0018 0423     		movs	r3, #4
 468 001a 0093     		str	r3, [sp]
 119:Bsp/periph_gpio.c **** 	GPIO_InitStructure.GPIO_Mode = GPIO_Mode_AF;
 469              		.loc 1 119 0
 470 001c 0223     		movs	r3, #2
 471 001e 8DF80430 		strb	r3, [sp, #4]
 120:Bsp/periph_gpio.c **** 	GPIO_InitStructure.GPIO_Speed = GPIO_Speed_100MHz;
 472              		.loc 1 120 0
 473 0022 0323     		movs	r3, #3
 474 0024 8DF80530 		strb	r3, [sp, #5]
 121:Bsp/periph_gpio.c **** 	GPIO_InitStructure.GPIO_OType = GPIO_OType_PP;
 475              		.loc 1 121 0
 476 0028 0023     		movs	r3, #0
 477 002a 8DF80630 		strb	r3, [sp, #6]
 122:Bsp/periph_gpio.c **** 	GPIO_InitStructure.GPIO_PuPd = GPIO_PuPd_UP;
 478              		.loc 1 122 0
 479 002e 0123     		movs	r3, #1
 480 0030 8DF80730 		strb	r3, [sp, #7]
 123:Bsp/periph_gpio.c **** 
 124:Bsp/periph_gpio.c **** 	GPIO_Init(TIM2_PWMCH3_IO_PORT, &GPIO_InitStructure);
 481              		.loc 1 124 0
 482 0034 6946     		mov	r1, sp
 483 0036 2046     		mov	r0, r4
 484 0038 FFF7FEFF 		bl	GPIO_Init
 485              	.LVL24:
 125:Bsp/periph_gpio.c **** }
 486              		.loc 1 125 0
 487 003c 02B0     		add	sp, sp, #8
 488              	.LCFI20:
 489              		.cfi_def_cfa_offset 8
 490              		@ sp needed
 491 003e 10BD     		pop	{r4, pc}
 492              	.L28:
 493              		.align	2
 494              	.L27:
 495 0040 00000240 		.word	1073872896
 496              		.cfi_endproc
 497              	.LFE129:
 499              		.section	.text.GPIO_TIM2_PWMCH4_IO_Init,"ax",%progbits
 500              		.align	2
 501              		.global	GPIO_TIM2_PWMCH4_IO_Init
 502              		.thumb
 503              		.thumb_func
 505              	GPIO_TIM2_PWMCH4_IO_Init:
 506              	.LFB130:
 126:Bsp/periph_gpio.c **** 
 127:Bsp/periph_gpio.c **** void GPIO_TIM2_PWMCH4_IO_Init(void)
 128:Bsp/periph_gpio.c **** {
 507              		.loc 1 128 0
 508              		.cfi_startproc
 509              		@ args = 0, pretend = 0, frame = 8
 510              		@ frame_needed = 0, uses_anonymous_args = 0
 511 0000 10B5     		push	{r4, lr}
 512              	.LCFI21:
 513              		.cfi_def_cfa_offset 8
 514              		.cfi_offset 4, -8
ARM GAS  C:\Users\ADMINI~1\AppData\Local\Temp\cc2CG9la.s 			page 12


 515              		.cfi_offset 14, -4
 516 0002 82B0     		sub	sp, sp, #8
 517              	.LCFI22:
 518              		.cfi_def_cfa_offset 16
 129:Bsp/periph_gpio.c **** 	GPIO_InitTypeDef GPIO_InitStructure;
 130:Bsp/periph_gpio.c **** 
 131:Bsp/periph_gpio.c **** 	RCC_AHB1PeriphClockCmd(TIM2_PWMCH4_IO_CLK, ENABLE);
 519              		.loc 1 131 0
 520 0004 0121     		movs	r1, #1
 521 0006 0846     		mov	r0, r1
 522 0008 FFF7FEFF 		bl	RCC_AHB1PeriphClockCmd
 523              	.LVL25:
 132:Bsp/periph_gpio.c **** 
 133:Bsp/periph_gpio.c **** 	GPIO_PinAFConfig(TIM2_PWMCH4_IO_PORT, TIM2_PWMCH4_PinSource, GPIO_AF_TIM2);
 524              		.loc 1 133 0
 525 000c 0C4C     		ldr	r4, .L31
 526 000e 0122     		movs	r2, #1
 527 0010 0321     		movs	r1, #3
 528 0012 2046     		mov	r0, r4
 529 0014 FFF7FEFF 		bl	GPIO_PinAFConfig
 530              	.LVL26:
 134:Bsp/periph_gpio.c **** 
 135:Bsp/periph_gpio.c **** 	GPIO_InitStructure.GPIO_Pin = TIM2_PWMCH4_PIN;
 531              		.loc 1 135 0
 532 0018 0823     		movs	r3, #8
 533 001a 0093     		str	r3, [sp]
 136:Bsp/periph_gpio.c **** 	GPIO_InitStructure.GPIO_Mode = GPIO_Mode_AF;
 534              		.loc 1 136 0
 535 001c 0223     		movs	r3, #2
 536 001e 8DF80430 		strb	r3, [sp, #4]
 137:Bsp/periph_gpio.c **** 	GPIO_InitStructure.GPIO_Speed = GPIO_Speed_100MHz;
 537              		.loc 1 137 0
 538 0022 0323     		movs	r3, #3
 539 0024 8DF80530 		strb	r3, [sp, #5]
 138:Bsp/periph_gpio.c **** 	GPIO_InitStructure.GPIO_OType = GPIO_OType_PP;
 540              		.loc 1 138 0
 541 0028 0023     		movs	r3, #0
 542 002a 8DF80630 		strb	r3, [sp, #6]
 139:Bsp/periph_gpio.c **** 	GPIO_InitStructure.GPIO_PuPd = GPIO_PuPd_UP;
 543              		.loc 1 139 0
 544 002e 0123     		movs	r3, #1
 545 0030 8DF80730 		strb	r3, [sp, #7]
 140:Bsp/periph_gpio.c **** 
 141:Bsp/periph_gpio.c **** 	GPIO_Init(TIM2_PWMCH4_IO_PORT, &GPIO_InitStructure);
 546              		.loc 1 141 0
 547 0034 6946     		mov	r1, sp
 548 0036 2046     		mov	r0, r4
 549 0038 FFF7FEFF 		bl	GPIO_Init
 550              	.LVL27:
 142:Bsp/periph_gpio.c **** }
 551              		.loc 1 142 0
 552 003c 02B0     		add	sp, sp, #8
 553              	.LCFI23:
 554              		.cfi_def_cfa_offset 8
 555              		@ sp needed
 556 003e 10BD     		pop	{r4, pc}
 557              	.L32:
ARM GAS  C:\Users\ADMINI~1\AppData\Local\Temp\cc2CG9la.s 			page 13


 558              		.align	2
 559              	.L31:
 560 0040 00000240 		.word	1073872896
 561              		.cfi_endproc
 562              	.LFE130:
 564              		.section	.text.GPIO_TIM3_PWMCH1_IO_Init,"ax",%progbits
 565              		.align	2
 566              		.global	GPIO_TIM3_PWMCH1_IO_Init
 567              		.thumb
 568              		.thumb_func
 570              	GPIO_TIM3_PWMCH1_IO_Init:
 571              	.LFB131:
 143:Bsp/periph_gpio.c **** 
 144:Bsp/periph_gpio.c **** void GPIO_TIM3_PWMCH1_IO_Init(void)
 145:Bsp/periph_gpio.c **** {
 572              		.loc 1 145 0
 573              		.cfi_startproc
 574              		@ args = 0, pretend = 0, frame = 8
 575              		@ frame_needed = 0, uses_anonymous_args = 0
 576 0000 10B5     		push	{r4, lr}
 577              	.LCFI24:
 578              		.cfi_def_cfa_offset 8
 579              		.cfi_offset 4, -8
 580              		.cfi_offset 14, -4
 581 0002 82B0     		sub	sp, sp, #8
 582              	.LCFI25:
 583              		.cfi_def_cfa_offset 16
 146:Bsp/periph_gpio.c **** 	GPIO_InitTypeDef GPIO_InitStructure;
 147:Bsp/periph_gpio.c **** 
 148:Bsp/periph_gpio.c **** 	RCC_AHB1PeriphClockCmd(TIM3_PWMCH1_IO_CLK, ENABLE);
 584              		.loc 1 148 0
 585 0004 0121     		movs	r1, #1
 586 0006 0846     		mov	r0, r1
 587 0008 FFF7FEFF 		bl	RCC_AHB1PeriphClockCmd
 588              	.LVL28:
 149:Bsp/periph_gpio.c **** 
 150:Bsp/periph_gpio.c **** 	GPIO_PinAFConfig(TIM3_PWMCH1_IO_PORT, TIM3_PWMCH1_PinSource, GPIO_AF_TIM3);
 589              		.loc 1 150 0
 590 000c 0C4C     		ldr	r4, .L35
 591 000e 0222     		movs	r2, #2
 592 0010 0621     		movs	r1, #6
 593 0012 2046     		mov	r0, r4
 594 0014 FFF7FEFF 		bl	GPIO_PinAFConfig
 595              	.LVL29:
 151:Bsp/periph_gpio.c **** 
 152:Bsp/periph_gpio.c **** 	GPIO_InitStructure.GPIO_Pin = TIM3_PWMCH1_PIN;
 596              		.loc 1 152 0
 597 0018 4023     		movs	r3, #64
 598 001a 0093     		str	r3, [sp]
 153:Bsp/periph_gpio.c **** 	GPIO_InitStructure.GPIO_Mode = GPIO_Mode_AF;
 599              		.loc 1 153 0
 600 001c 0223     		movs	r3, #2
 601 001e 8DF80430 		strb	r3, [sp, #4]
 154:Bsp/periph_gpio.c **** 	GPIO_InitStructure.GPIO_Speed = GPIO_Speed_100MHz;
 602              		.loc 1 154 0
 603 0022 0323     		movs	r3, #3
 604 0024 8DF80530 		strb	r3, [sp, #5]
ARM GAS  C:\Users\ADMINI~1\AppData\Local\Temp\cc2CG9la.s 			page 14


 155:Bsp/periph_gpio.c **** 	GPIO_InitStructure.GPIO_OType = GPIO_OType_PP;
 605              		.loc 1 155 0
 606 0028 0023     		movs	r3, #0
 607 002a 8DF80630 		strb	r3, [sp, #6]
 156:Bsp/periph_gpio.c **** 	GPIO_InitStructure.GPIO_PuPd = GPIO_PuPd_UP;
 608              		.loc 1 156 0
 609 002e 0123     		movs	r3, #1
 610 0030 8DF80730 		strb	r3, [sp, #7]
 157:Bsp/periph_gpio.c **** 
 158:Bsp/periph_gpio.c **** 	GPIO_Init(TIM3_PWMCH1_IO_PORT, &GPIO_InitStructure);
 611              		.loc 1 158 0
 612 0034 6946     		mov	r1, sp
 613 0036 2046     		mov	r0, r4
 614 0038 FFF7FEFF 		bl	GPIO_Init
 615              	.LVL30:
 159:Bsp/periph_gpio.c **** }
 616              		.loc 1 159 0
 617 003c 02B0     		add	sp, sp, #8
 618              	.LCFI26:
 619              		.cfi_def_cfa_offset 8
 620              		@ sp needed
 621 003e 10BD     		pop	{r4, pc}
 622              	.L36:
 623              		.align	2
 624              	.L35:
 625 0040 00000240 		.word	1073872896
 626              		.cfi_endproc
 627              	.LFE131:
 629              		.section	.text.GPIO_TIM3_PWMCH2_IO_Init,"ax",%progbits
 630              		.align	2
 631              		.global	GPIO_TIM3_PWMCH2_IO_Init
 632              		.thumb
 633              		.thumb_func
 635              	GPIO_TIM3_PWMCH2_IO_Init:
 636              	.LFB132:
 160:Bsp/periph_gpio.c **** 
 161:Bsp/periph_gpio.c **** void GPIO_TIM3_PWMCH2_IO_Init(void)
 162:Bsp/periph_gpio.c **** {
 637              		.loc 1 162 0
 638              		.cfi_startproc
 639              		@ args = 0, pretend = 0, frame = 8
 640              		@ frame_needed = 0, uses_anonymous_args = 0
 641 0000 10B5     		push	{r4, lr}
 642              	.LCFI27:
 643              		.cfi_def_cfa_offset 8
 644              		.cfi_offset 4, -8
 645              		.cfi_offset 14, -4
 646 0002 82B0     		sub	sp, sp, #8
 647              	.LCFI28:
 648              		.cfi_def_cfa_offset 16
 163:Bsp/periph_gpio.c **** 	GPIO_InitTypeDef GPIO_InitStructure;
 164:Bsp/periph_gpio.c **** 
 165:Bsp/periph_gpio.c **** 	RCC_AHB1PeriphClockCmd(TIM3_PWMCH2_IO_CLK, ENABLE);
 649              		.loc 1 165 0
 650 0004 0121     		movs	r1, #1
 651 0006 0846     		mov	r0, r1
 652 0008 FFF7FEFF 		bl	RCC_AHB1PeriphClockCmd
ARM GAS  C:\Users\ADMINI~1\AppData\Local\Temp\cc2CG9la.s 			page 15


 653              	.LVL31:
 166:Bsp/periph_gpio.c **** 
 167:Bsp/periph_gpio.c **** 	GPIO_PinAFConfig(TIM3_PWMCH2_IO_PORT, TIM3_PWMCH2_PinSource, GPIO_AF_TIM3);
 654              		.loc 1 167 0
 655 000c 0C4C     		ldr	r4, .L39
 656 000e 0222     		movs	r2, #2
 657 0010 0721     		movs	r1, #7
 658 0012 2046     		mov	r0, r4
 659 0014 FFF7FEFF 		bl	GPIO_PinAFConfig
 660              	.LVL32:
 168:Bsp/periph_gpio.c **** 
 169:Bsp/periph_gpio.c **** 	GPIO_InitStructure.GPIO_Pin = TIM3_PWMCH2_PIN;
 661              		.loc 1 169 0
 662 0018 8023     		movs	r3, #128
 663 001a 0093     		str	r3, [sp]
 170:Bsp/periph_gpio.c **** 	GPIO_InitStructure.GPIO_Mode = GPIO_Mode_AF;
 664              		.loc 1 170 0
 665 001c 0223     		movs	r3, #2
 666 001e 8DF80430 		strb	r3, [sp, #4]
 171:Bsp/periph_gpio.c **** 	GPIO_InitStructure.GPIO_Speed = GPIO_Speed_100MHz;
 667              		.loc 1 171 0
 668 0022 0323     		movs	r3, #3
 669 0024 8DF80530 		strb	r3, [sp, #5]
 172:Bsp/periph_gpio.c **** 	GPIO_InitStructure.GPIO_OType = GPIO_OType_PP;
 670              		.loc 1 172 0
 671 0028 0023     		movs	r3, #0
 672 002a 8DF80630 		strb	r3, [sp, #6]
 173:Bsp/periph_gpio.c **** 	GPIO_InitStructure.GPIO_PuPd = GPIO_PuPd_UP;
 673              		.loc 1 173 0
 674 002e 0123     		movs	r3, #1
 675 0030 8DF80730 		strb	r3, [sp, #7]
 174:Bsp/periph_gpio.c **** 
 175:Bsp/periph_gpio.c **** 	GPIO_Init(TIM3_PWMCH2_IO_PORT, &GPIO_InitStructure);
 676              		.loc 1 175 0
 677 0034 6946     		mov	r1, sp
 678 0036 2046     		mov	r0, r4
 679 0038 FFF7FEFF 		bl	GPIO_Init
 680              	.LVL33:
 176:Bsp/periph_gpio.c **** }
 681              		.loc 1 176 0
 682 003c 02B0     		add	sp, sp, #8
 683              	.LCFI29:
 684              		.cfi_def_cfa_offset 8
 685              		@ sp needed
 686 003e 10BD     		pop	{r4, pc}
 687              	.L40:
 688              		.align	2
 689              	.L39:
 690 0040 00000240 		.word	1073872896
 691              		.cfi_endproc
 692              	.LFE132:
 694              		.section	.text.GPIO_TIM3_PWMCH3_IO_Init,"ax",%progbits
 695              		.align	2
 696              		.global	GPIO_TIM3_PWMCH3_IO_Init
 697              		.thumb
 698              		.thumb_func
 700              	GPIO_TIM3_PWMCH3_IO_Init:
ARM GAS  C:\Users\ADMINI~1\AppData\Local\Temp\cc2CG9la.s 			page 16


 701              	.LFB133:
 177:Bsp/periph_gpio.c **** 
 178:Bsp/periph_gpio.c **** void GPIO_TIM3_PWMCH3_IO_Init(void)
 179:Bsp/periph_gpio.c **** {
 702              		.loc 1 179 0
 703              		.cfi_startproc
 704              		@ args = 0, pretend = 0, frame = 8
 705              		@ frame_needed = 0, uses_anonymous_args = 0
 706 0000 10B5     		push	{r4, lr}
 707              	.LCFI30:
 708              		.cfi_def_cfa_offset 8
 709              		.cfi_offset 4, -8
 710              		.cfi_offset 14, -4
 711 0002 82B0     		sub	sp, sp, #8
 712              	.LCFI31:
 713              		.cfi_def_cfa_offset 16
 180:Bsp/periph_gpio.c **** 	GPIO_InitTypeDef GPIO_InitStructure;
 181:Bsp/periph_gpio.c **** 
 182:Bsp/periph_gpio.c **** 	RCC_AHB1PeriphClockCmd(TIM3_PWMCH3_IO_CLK, ENABLE);
 714              		.loc 1 182 0
 715 0004 0121     		movs	r1, #1
 716 0006 0220     		movs	r0, #2
 717 0008 FFF7FEFF 		bl	RCC_AHB1PeriphClockCmd
 718              	.LVL34:
 183:Bsp/periph_gpio.c **** 
 184:Bsp/periph_gpio.c **** 	GPIO_PinAFConfig(TIM3_PWMCH3_IO_PORT, TIM3_PWMCH3_PinSource, GPIO_AF_TIM3);
 719              		.loc 1 184 0
 720 000c 0C4C     		ldr	r4, .L43
 721 000e 0222     		movs	r2, #2
 722 0010 0021     		movs	r1, #0
 723 0012 2046     		mov	r0, r4
 724 0014 FFF7FEFF 		bl	GPIO_PinAFConfig
 725              	.LVL35:
 185:Bsp/periph_gpio.c **** 
 186:Bsp/periph_gpio.c **** 	GPIO_InitStructure.GPIO_Pin = TIM3_PWMCH3_PIN;
 726              		.loc 1 186 0
 727 0018 0123     		movs	r3, #1
 728 001a 0093     		str	r3, [sp]
 187:Bsp/periph_gpio.c **** 	GPIO_InitStructure.GPIO_Mode = GPIO_Mode_AF;
 729              		.loc 1 187 0
 730 001c 0222     		movs	r2, #2
 731 001e 8DF80420 		strb	r2, [sp, #4]
 188:Bsp/periph_gpio.c **** 	GPIO_InitStructure.GPIO_Speed = GPIO_Speed_100MHz;
 732              		.loc 1 188 0
 733 0022 0322     		movs	r2, #3
 734 0024 8DF80520 		strb	r2, [sp, #5]
 189:Bsp/periph_gpio.c **** 	GPIO_InitStructure.GPIO_OType = GPIO_OType_PP;
 735              		.loc 1 189 0
 736 0028 0022     		movs	r2, #0
 737 002a 8DF80620 		strb	r2, [sp, #6]
 190:Bsp/periph_gpio.c **** 	GPIO_InitStructure.GPIO_PuPd = GPIO_PuPd_UP;
 738              		.loc 1 190 0
 739 002e 8DF80730 		strb	r3, [sp, #7]
 191:Bsp/periph_gpio.c **** 
 192:Bsp/periph_gpio.c **** 	GPIO_Init(TIM3_PWMCH3_IO_PORT, &GPIO_InitStructure);
 740              		.loc 1 192 0
 741 0032 6946     		mov	r1, sp
ARM GAS  C:\Users\ADMINI~1\AppData\Local\Temp\cc2CG9la.s 			page 17


 742 0034 2046     		mov	r0, r4
 743 0036 FFF7FEFF 		bl	GPIO_Init
 744              	.LVL36:
 193:Bsp/periph_gpio.c **** }
 745              		.loc 1 193 0
 746 003a 02B0     		add	sp, sp, #8
 747              	.LCFI32:
 748              		.cfi_def_cfa_offset 8
 749              		@ sp needed
 750 003c 10BD     		pop	{r4, pc}
 751              	.L44:
 752 003e 00BF     		.align	2
 753              	.L43:
 754 0040 00040240 		.word	1073873920
 755              		.cfi_endproc
 756              	.LFE133:
 758              		.section	.text.GPIO_TIM3_PWMCH4_IO_Init,"ax",%progbits
 759              		.align	2
 760              		.global	GPIO_TIM3_PWMCH4_IO_Init
 761              		.thumb
 762              		.thumb_func
 764              	GPIO_TIM3_PWMCH4_IO_Init:
 765              	.LFB134:
 194:Bsp/periph_gpio.c **** 
 195:Bsp/periph_gpio.c **** void GPIO_TIM3_PWMCH4_IO_Init(void)
 196:Bsp/periph_gpio.c **** {
 766              		.loc 1 196 0
 767              		.cfi_startproc
 768              		@ args = 0, pretend = 0, frame = 8
 769              		@ frame_needed = 0, uses_anonymous_args = 0
 770 0000 10B5     		push	{r4, lr}
 771              	.LCFI33:
 772              		.cfi_def_cfa_offset 8
 773              		.cfi_offset 4, -8
 774              		.cfi_offset 14, -4
 775 0002 82B0     		sub	sp, sp, #8
 776              	.LCFI34:
 777              		.cfi_def_cfa_offset 16
 197:Bsp/periph_gpio.c **** 	GPIO_InitTypeDef GPIO_InitStructure;
 198:Bsp/periph_gpio.c **** 
 199:Bsp/periph_gpio.c **** 	RCC_AHB1PeriphClockCmd(TIM3_PWMCH4_IO_CLK, ENABLE);
 778              		.loc 1 199 0
 779 0004 0121     		movs	r1, #1
 780 0006 0220     		movs	r0, #2
 781 0008 FFF7FEFF 		bl	RCC_AHB1PeriphClockCmd
 782              	.LVL37:
 200:Bsp/periph_gpio.c **** 
 201:Bsp/periph_gpio.c **** 	GPIO_PinAFConfig(TIM3_PWMCH4_IO_PORT, TIM3_PWMCH4_PinSource, GPIO_AF_TIM3);
 783              		.loc 1 201 0
 784 000c 0C4C     		ldr	r4, .L47
 785 000e 0222     		movs	r2, #2
 786 0010 0121     		movs	r1, #1
 787 0012 2046     		mov	r0, r4
 788 0014 FFF7FEFF 		bl	GPIO_PinAFConfig
 789              	.LVL38:
 202:Bsp/periph_gpio.c **** 
 203:Bsp/periph_gpio.c **** 	GPIO_InitStructure.GPIO_Pin = TIM3_PWMCH4_PIN;
ARM GAS  C:\Users\ADMINI~1\AppData\Local\Temp\cc2CG9la.s 			page 18


 790              		.loc 1 203 0
 791 0018 0223     		movs	r3, #2
 792 001a 0093     		str	r3, [sp]
 204:Bsp/periph_gpio.c **** 	GPIO_InitStructure.GPIO_Mode = GPIO_Mode_AF;
 793              		.loc 1 204 0
 794 001c 8DF80430 		strb	r3, [sp, #4]
 205:Bsp/periph_gpio.c **** 	GPIO_InitStructure.GPIO_Speed = GPIO_Speed_100MHz;
 795              		.loc 1 205 0
 796 0020 0323     		movs	r3, #3
 797 0022 8DF80530 		strb	r3, [sp, #5]
 206:Bsp/periph_gpio.c **** 	GPIO_InitStructure.GPIO_OType = GPIO_OType_PP;
 798              		.loc 1 206 0
 799 0026 0023     		movs	r3, #0
 800 0028 8DF80630 		strb	r3, [sp, #6]
 207:Bsp/periph_gpio.c **** 	GPIO_InitStructure.GPIO_PuPd = GPIO_PuPd_UP;
 801              		.loc 1 207 0
 802 002c 0123     		movs	r3, #1
 803 002e 8DF80730 		strb	r3, [sp, #7]
 208:Bsp/periph_gpio.c **** 
 209:Bsp/periph_gpio.c **** 	GPIO_Init(TIM3_PWMCH4_IO_PORT, &GPIO_InitStructure);
 804              		.loc 1 209 0
 805 0032 6946     		mov	r1, sp
 806 0034 2046     		mov	r0, r4
 807 0036 FFF7FEFF 		bl	GPIO_Init
 808              	.LVL39:
 210:Bsp/periph_gpio.c **** }
 809              		.loc 1 210 0
 810 003a 02B0     		add	sp, sp, #8
 811              	.LCFI35:
 812              		.cfi_def_cfa_offset 8
 813              		@ sp needed
 814 003c 10BD     		pop	{r4, pc}
 815              	.L48:
 816 003e 00BF     		.align	2
 817              	.L47:
 818 0040 00040240 		.word	1073873920
 819              		.cfi_endproc
 820              	.LFE134:
 822              		.section	.text.GPIO_TIM4_PWMCH1_IO_Init,"ax",%progbits
 823              		.align	2
 824              		.global	GPIO_TIM4_PWMCH1_IO_Init
 825              		.thumb
 826              		.thumb_func
 828              	GPIO_TIM4_PWMCH1_IO_Init:
 829              	.LFB135:
 211:Bsp/periph_gpio.c **** 
 212:Bsp/periph_gpio.c **** void GPIO_TIM4_PWMCH1_IO_Init(void)
 213:Bsp/periph_gpio.c **** {
 830              		.loc 1 213 0
 831              		.cfi_startproc
 832              		@ args = 0, pretend = 0, frame = 8
 833              		@ frame_needed = 0, uses_anonymous_args = 0
 834 0000 10B5     		push	{r4, lr}
 835              	.LCFI36:
 836              		.cfi_def_cfa_offset 8
 837              		.cfi_offset 4, -8
 838              		.cfi_offset 14, -4
ARM GAS  C:\Users\ADMINI~1\AppData\Local\Temp\cc2CG9la.s 			page 19


 839 0002 82B0     		sub	sp, sp, #8
 840              	.LCFI37:
 841              		.cfi_def_cfa_offset 16
 214:Bsp/periph_gpio.c **** 	GPIO_InitTypeDef GPIO_InitStructure;
 215:Bsp/periph_gpio.c **** 
 216:Bsp/periph_gpio.c **** 	RCC_AHB1PeriphClockCmd(TIM4_PWMCH1_IO_CLK, ENABLE);
 842              		.loc 1 216 0
 843 0004 0121     		movs	r1, #1
 844 0006 0220     		movs	r0, #2
 845 0008 FFF7FEFF 		bl	RCC_AHB1PeriphClockCmd
 846              	.LVL40:
 217:Bsp/periph_gpio.c **** 
 218:Bsp/periph_gpio.c **** 	GPIO_PinAFConfig(TIM4_PWMCH1_IO_PORT, TIM4_PWMCH1_PinSource, GPIO_AF_TIM4);
 847              		.loc 1 218 0
 848 000c 0C4C     		ldr	r4, .L51
 849 000e 0222     		movs	r2, #2
 850 0010 0621     		movs	r1, #6
 851 0012 2046     		mov	r0, r4
 852 0014 FFF7FEFF 		bl	GPIO_PinAFConfig
 853              	.LVL41:
 219:Bsp/periph_gpio.c **** 
 220:Bsp/periph_gpio.c **** 	GPIO_InitStructure.GPIO_Pin = TIM4_PWMCH1_PIN;
 854              		.loc 1 220 0
 855 0018 4023     		movs	r3, #64
 856 001a 0093     		str	r3, [sp]
 221:Bsp/periph_gpio.c **** 	GPIO_InitStructure.GPIO_Mode = GPIO_Mode_AF;
 857              		.loc 1 221 0
 858 001c 0223     		movs	r3, #2
 859 001e 8DF80430 		strb	r3, [sp, #4]
 222:Bsp/periph_gpio.c **** 	GPIO_InitStructure.GPIO_Speed = GPIO_Speed_100MHz;
 860              		.loc 1 222 0
 861 0022 0323     		movs	r3, #3
 862 0024 8DF80530 		strb	r3, [sp, #5]
 223:Bsp/periph_gpio.c **** 	GPIO_InitStructure.GPIO_OType = GPIO_OType_PP;
 863              		.loc 1 223 0
 864 0028 0023     		movs	r3, #0
 865 002a 8DF80630 		strb	r3, [sp, #6]
 224:Bsp/periph_gpio.c **** 	GPIO_InitStructure.GPIO_PuPd = GPIO_PuPd_UP;
 866              		.loc 1 224 0
 867 002e 0123     		movs	r3, #1
 868 0030 8DF80730 		strb	r3, [sp, #7]
 225:Bsp/periph_gpio.c **** 
 226:Bsp/periph_gpio.c **** 	GPIO_Init(TIM4_PWMCH1_IO_PORT, &GPIO_InitStructure);
 869              		.loc 1 226 0
 870 0034 6946     		mov	r1, sp
 871 0036 2046     		mov	r0, r4
 872 0038 FFF7FEFF 		bl	GPIO_Init
 873              	.LVL42:
 227:Bsp/periph_gpio.c **** }
 874              		.loc 1 227 0
 875 003c 02B0     		add	sp, sp, #8
 876              	.LCFI38:
 877              		.cfi_def_cfa_offset 8
 878              		@ sp needed
 879 003e 10BD     		pop	{r4, pc}
 880              	.L52:
 881              		.align	2
ARM GAS  C:\Users\ADMINI~1\AppData\Local\Temp\cc2CG9la.s 			page 20


 882              	.L51:
 883 0040 00040240 		.word	1073873920
 884              		.cfi_endproc
 885              	.LFE135:
 887              		.section	.text.GPIO_TIM4_PWMCH2_IO_Init,"ax",%progbits
 888              		.align	2
 889              		.global	GPIO_TIM4_PWMCH2_IO_Init
 890              		.thumb
 891              		.thumb_func
 893              	GPIO_TIM4_PWMCH2_IO_Init:
 894              	.LFB136:
 228:Bsp/periph_gpio.c **** 
 229:Bsp/periph_gpio.c **** void GPIO_TIM4_PWMCH2_IO_Init(void)
 230:Bsp/periph_gpio.c **** {
 895              		.loc 1 230 0
 896              		.cfi_startproc
 897              		@ args = 0, pretend = 0, frame = 8
 898              		@ frame_needed = 0, uses_anonymous_args = 0
 899 0000 10B5     		push	{r4, lr}
 900              	.LCFI39:
 901              		.cfi_def_cfa_offset 8
 902              		.cfi_offset 4, -8
 903              		.cfi_offset 14, -4
 904 0002 82B0     		sub	sp, sp, #8
 905              	.LCFI40:
 906              		.cfi_def_cfa_offset 16
 231:Bsp/periph_gpio.c **** 	GPIO_InitTypeDef GPIO_InitStructure;
 232:Bsp/periph_gpio.c **** 
 233:Bsp/periph_gpio.c **** 	RCC_AHB1PeriphClockCmd(TIM4_PWMCH2_IO_CLK, ENABLE);
 907              		.loc 1 233 0
 908 0004 0121     		movs	r1, #1
 909 0006 0220     		movs	r0, #2
 910 0008 FFF7FEFF 		bl	RCC_AHB1PeriphClockCmd
 911              	.LVL43:
 234:Bsp/periph_gpio.c **** 
 235:Bsp/periph_gpio.c **** 	GPIO_PinAFConfig(TIM4_PWMCH2_IO_PORT, TIM4_PWMCH2_PinSource, GPIO_AF_TIM4);
 912              		.loc 1 235 0
 913 000c 0C4C     		ldr	r4, .L55
 914 000e 0222     		movs	r2, #2
 915 0010 0721     		movs	r1, #7
 916 0012 2046     		mov	r0, r4
 917 0014 FFF7FEFF 		bl	GPIO_PinAFConfig
 918              	.LVL44:
 236:Bsp/periph_gpio.c **** 
 237:Bsp/periph_gpio.c **** 	GPIO_InitStructure.GPIO_Pin = TIM4_PWMCH2_PIN;
 919              		.loc 1 237 0
 920 0018 8023     		movs	r3, #128
 921 001a 0093     		str	r3, [sp]
 238:Bsp/periph_gpio.c **** 	GPIO_InitStructure.GPIO_Mode = GPIO_Mode_AF;
 922              		.loc 1 238 0
 923 001c 0223     		movs	r3, #2
 924 001e 8DF80430 		strb	r3, [sp, #4]
 239:Bsp/periph_gpio.c **** 	GPIO_InitStructure.GPIO_Speed = GPIO_Speed_100MHz;
 925              		.loc 1 239 0
 926 0022 0323     		movs	r3, #3
 927 0024 8DF80530 		strb	r3, [sp, #5]
 240:Bsp/periph_gpio.c **** 	GPIO_InitStructure.GPIO_OType = GPIO_OType_PP;
ARM GAS  C:\Users\ADMINI~1\AppData\Local\Temp\cc2CG9la.s 			page 21


 928              		.loc 1 240 0
 929 0028 0023     		movs	r3, #0
 930 002a 8DF80630 		strb	r3, [sp, #6]
 241:Bsp/periph_gpio.c **** 	GPIO_InitStructure.GPIO_PuPd = GPIO_PuPd_UP;
 931              		.loc 1 241 0
 932 002e 0123     		movs	r3, #1
 933 0030 8DF80730 		strb	r3, [sp, #7]
 242:Bsp/periph_gpio.c **** 
 243:Bsp/periph_gpio.c **** 	GPIO_Init(TIM4_PWMCH2_IO_PORT, &GPIO_InitStructure);
 934              		.loc 1 243 0
 935 0034 6946     		mov	r1, sp
 936 0036 2046     		mov	r0, r4
 937 0038 FFF7FEFF 		bl	GPIO_Init
 938              	.LVL45:
 244:Bsp/periph_gpio.c **** }
 939              		.loc 1 244 0
 940 003c 02B0     		add	sp, sp, #8
 941              	.LCFI41:
 942              		.cfi_def_cfa_offset 8
 943              		@ sp needed
 944 003e 10BD     		pop	{r4, pc}
 945              	.L56:
 946              		.align	2
 947              	.L55:
 948 0040 00040240 		.word	1073873920
 949              		.cfi_endproc
 950              	.LFE136:
 952              		.section	.text.GPIO_TIM4_PWMCH3_IO_Init,"ax",%progbits
 953              		.align	2
 954              		.global	GPIO_TIM4_PWMCH3_IO_Init
 955              		.thumb
 956              		.thumb_func
 958              	GPIO_TIM4_PWMCH3_IO_Init:
 959              	.LFB137:
 245:Bsp/periph_gpio.c **** 
 246:Bsp/periph_gpio.c **** void GPIO_TIM4_PWMCH3_IO_Init(void)
 247:Bsp/periph_gpio.c **** {
 960              		.loc 1 247 0
 961              		.cfi_startproc
 962              		@ args = 0, pretend = 0, frame = 8
 963              		@ frame_needed = 0, uses_anonymous_args = 0
 964 0000 10B5     		push	{r4, lr}
 965              	.LCFI42:
 966              		.cfi_def_cfa_offset 8
 967              		.cfi_offset 4, -8
 968              		.cfi_offset 14, -4
 969 0002 82B0     		sub	sp, sp, #8
 970              	.LCFI43:
 971              		.cfi_def_cfa_offset 16
 248:Bsp/periph_gpio.c **** 	GPIO_InitTypeDef GPIO_InitStructure;
 249:Bsp/periph_gpio.c **** 
 250:Bsp/periph_gpio.c **** 	RCC_AHB1PeriphClockCmd(TIM4_PWMCH3_IO_CLK, ENABLE);
 972              		.loc 1 250 0
 973 0004 0121     		movs	r1, #1
 974 0006 0220     		movs	r0, #2
 975 0008 FFF7FEFF 		bl	RCC_AHB1PeriphClockCmd
 976              	.LVL46:
ARM GAS  C:\Users\ADMINI~1\AppData\Local\Temp\cc2CG9la.s 			page 22


 251:Bsp/periph_gpio.c **** 
 252:Bsp/periph_gpio.c **** 	GPIO_PinAFConfig(TIM4_PWMCH3_IO_PORT, TIM4_PWMCH3_PinSource, GPIO_AF_TIM4);
 977              		.loc 1 252 0
 978 000c 0D4C     		ldr	r4, .L59
 979 000e 0222     		movs	r2, #2
 980 0010 0821     		movs	r1, #8
 981 0012 2046     		mov	r0, r4
 982 0014 FFF7FEFF 		bl	GPIO_PinAFConfig
 983              	.LVL47:
 253:Bsp/periph_gpio.c **** 
 254:Bsp/periph_gpio.c **** 	GPIO_InitStructure.GPIO_Pin = TIM4_PWMCH3_PIN;
 984              		.loc 1 254 0
 985 0018 4FF48073 		mov	r3, #256
 986 001c 0093     		str	r3, [sp]
 255:Bsp/periph_gpio.c **** 	GPIO_InitStructure.GPIO_Mode = GPIO_Mode_AF;
 987              		.loc 1 255 0
 988 001e 0223     		movs	r3, #2
 989 0020 8DF80430 		strb	r3, [sp, #4]
 256:Bsp/periph_gpio.c **** 	GPIO_InitStructure.GPIO_Speed = GPIO_Speed_100MHz;
 990              		.loc 1 256 0
 991 0024 0323     		movs	r3, #3
 992 0026 8DF80530 		strb	r3, [sp, #5]
 257:Bsp/periph_gpio.c **** 	GPIO_InitStructure.GPIO_OType = GPIO_OType_PP;
 993              		.loc 1 257 0
 994 002a 0023     		movs	r3, #0
 995 002c 8DF80630 		strb	r3, [sp, #6]
 258:Bsp/periph_gpio.c **** 	GPIO_InitStructure.GPIO_PuPd = GPIO_PuPd_UP;
 996              		.loc 1 258 0
 997 0030 0123     		movs	r3, #1
 998 0032 8DF80730 		strb	r3, [sp, #7]
 259:Bsp/periph_gpio.c **** 
 260:Bsp/periph_gpio.c **** 	GPIO_Init(TIM4_PWMCH3_IO_PORT, &GPIO_InitStructure);
 999              		.loc 1 260 0
 1000 0036 6946     		mov	r1, sp
 1001 0038 2046     		mov	r0, r4
 1002 003a FFF7FEFF 		bl	GPIO_Init
 1003              	.LVL48:
 261:Bsp/periph_gpio.c **** }
 1004              		.loc 1 261 0
 1005 003e 02B0     		add	sp, sp, #8
 1006              	.LCFI44:
 1007              		.cfi_def_cfa_offset 8
 1008              		@ sp needed
 1009 0040 10BD     		pop	{r4, pc}
 1010              	.L60:
 1011 0042 00BF     		.align	2
 1012              	.L59:
 1013 0044 00040240 		.word	1073873920
 1014              		.cfi_endproc
 1015              	.LFE137:
 1017              		.section	.text.GPIO_TIM4_PWMCH4_IO_Init,"ax",%progbits
 1018              		.align	2
 1019              		.global	GPIO_TIM4_PWMCH4_IO_Init
 1020              		.thumb
 1021              		.thumb_func
 1023              	GPIO_TIM4_PWMCH4_IO_Init:
 1024              	.LFB138:
ARM GAS  C:\Users\ADMINI~1\AppData\Local\Temp\cc2CG9la.s 			page 23


 262:Bsp/periph_gpio.c **** 
 263:Bsp/periph_gpio.c **** void GPIO_TIM4_PWMCH4_IO_Init(void)
 264:Bsp/periph_gpio.c **** {
 1025              		.loc 1 264 0
 1026              		.cfi_startproc
 1027              		@ args = 0, pretend = 0, frame = 8
 1028              		@ frame_needed = 0, uses_anonymous_args = 0
 1029 0000 10B5     		push	{r4, lr}
 1030              	.LCFI45:
 1031              		.cfi_def_cfa_offset 8
 1032              		.cfi_offset 4, -8
 1033              		.cfi_offset 14, -4
 1034 0002 82B0     		sub	sp, sp, #8
 1035              	.LCFI46:
 1036              		.cfi_def_cfa_offset 16
 265:Bsp/periph_gpio.c **** 	GPIO_InitTypeDef GPIO_InitStructure;
 266:Bsp/periph_gpio.c **** 
 267:Bsp/periph_gpio.c **** 	RCC_AHB1PeriphClockCmd(TIM4_PWMCH4_IO_CLK, ENABLE);
 1037              		.loc 1 267 0
 1038 0004 0121     		movs	r1, #1
 1039 0006 0220     		movs	r0, #2
 1040 0008 FFF7FEFF 		bl	RCC_AHB1PeriphClockCmd
 1041              	.LVL49:
 268:Bsp/periph_gpio.c **** 
 269:Bsp/periph_gpio.c **** 	GPIO_PinAFConfig(TIM4_PWMCH4_IO_PORT, TIM4_PWMCH4_PinSource, GPIO_AF_TIM4);
 1042              		.loc 1 269 0
 1043 000c 0D4C     		ldr	r4, .L63
 1044 000e 0222     		movs	r2, #2
 1045 0010 0921     		movs	r1, #9
 1046 0012 2046     		mov	r0, r4
 1047 0014 FFF7FEFF 		bl	GPIO_PinAFConfig
 1048              	.LVL50:
 270:Bsp/periph_gpio.c **** 
 271:Bsp/periph_gpio.c **** 	GPIO_InitStructure.GPIO_Pin = TIM4_PWMCH4_PIN;
 1049              		.loc 1 271 0
 1050 0018 4FF40073 		mov	r3, #512
 1051 001c 0093     		str	r3, [sp]
 272:Bsp/periph_gpio.c **** 	GPIO_InitStructure.GPIO_Mode = GPIO_Mode_AF;
 1052              		.loc 1 272 0
 1053 001e 0223     		movs	r3, #2
 1054 0020 8DF80430 		strb	r3, [sp, #4]
 273:Bsp/periph_gpio.c **** 	GPIO_InitStructure.GPIO_Speed = GPIO_Speed_100MHz;
 1055              		.loc 1 273 0
 1056 0024 0323     		movs	r3, #3
 1057 0026 8DF80530 		strb	r3, [sp, #5]
 274:Bsp/periph_gpio.c **** 	GPIO_InitStructure.GPIO_OType = GPIO_OType_PP;
 1058              		.loc 1 274 0
 1059 002a 0023     		movs	r3, #0
 1060 002c 8DF80630 		strb	r3, [sp, #6]
 275:Bsp/periph_gpio.c **** 	GPIO_InitStructure.GPIO_PuPd = GPIO_PuPd_UP;
 1061              		.loc 1 275 0
 1062 0030 0123     		movs	r3, #1
 1063 0032 8DF80730 		strb	r3, [sp, #7]
 276:Bsp/periph_gpio.c **** 
 277:Bsp/periph_gpio.c **** 	GPIO_Init(TIM4_PWMCH4_IO_PORT, &GPIO_InitStructure);
 1064              		.loc 1 277 0
 1065 0036 6946     		mov	r1, sp
ARM GAS  C:\Users\ADMINI~1\AppData\Local\Temp\cc2CG9la.s 			page 24


 1066 0038 2046     		mov	r0, r4
 1067 003a FFF7FEFF 		bl	GPIO_Init
 1068              	.LVL51:
 278:Bsp/periph_gpio.c **** }
 1069              		.loc 1 278 0
 1070 003e 02B0     		add	sp, sp, #8
 1071              	.LCFI47:
 1072              		.cfi_def_cfa_offset 8
 1073              		@ sp needed
 1074 0040 10BD     		pop	{r4, pc}
 1075              	.L64:
 1076 0042 00BF     		.align	2
 1077              	.L63:
 1078 0044 00040240 		.word	1073873920
 1079              		.cfi_endproc
 1080              	.LFE138:
 1082              		.section	.text.GPIO_SPI1_IO_Init,"ax",%progbits
 1083              		.align	2
 1084              		.global	GPIO_SPI1_IO_Init
 1085              		.thumb
 1086              		.thumb_func
 1088              	GPIO_SPI1_IO_Init:
 1089              	.LFB139:
 279:Bsp/periph_gpio.c **** 
 280:Bsp/periph_gpio.c **** void GPIO_SPI1_IO_Init(void)
 281:Bsp/periph_gpio.c **** {
 1090              		.loc 1 281 0
 1091              		.cfi_startproc
 1092              		@ args = 0, pretend = 0, frame = 8
 1093              		@ frame_needed = 0, uses_anonymous_args = 0
 1094 0000 10B5     		push	{r4, lr}
 1095              	.LCFI48:
 1096              		.cfi_def_cfa_offset 8
 1097              		.cfi_offset 4, -8
 1098              		.cfi_offset 14, -4
 1099 0002 82B0     		sub	sp, sp, #8
 1100              	.LCFI49:
 1101              		.cfi_def_cfa_offset 16
 282:Bsp/periph_gpio.c **** 	GPIO_InitTypeDef GPIO_InitStructure;
 283:Bsp/periph_gpio.c **** 	RCC_AHB1PeriphClockCmd(SPI1_MISO_IO_CLK | SPI1_MOSI_IO_CLK | SPI1_CLK_IO_CLK, ENABLE);
 1102              		.loc 1 283 0
 1103 0004 0121     		movs	r1, #1
 1104 0006 0846     		mov	r0, r1
 1105 0008 FFF7FEFF 		bl	RCC_AHB1PeriphClockCmd
 1106              	.LVL52:
 284:Bsp/periph_gpio.c **** 
 285:Bsp/periph_gpio.c **** 	GPIO_PinAFConfig(SPI1_MISO_IO_PORT, SPI1_MISO_PinSource, GPIO_AF_SPI1);
 1107              		.loc 1 285 0
 1108 000c 114C     		ldr	r4, .L67
 1109 000e 0522     		movs	r2, #5
 1110 0010 0621     		movs	r1, #6
 1111 0012 2046     		mov	r0, r4
 1112 0014 FFF7FEFF 		bl	GPIO_PinAFConfig
 1113              	.LVL53:
 286:Bsp/periph_gpio.c **** 	GPIO_PinAFConfig(SPI1_MOSI_IO_PORT, SPI1_MOSI_PinSource, GPIO_AF_SPI1);
 1114              		.loc 1 286 0
 1115 0018 0522     		movs	r2, #5
ARM GAS  C:\Users\ADMINI~1\AppData\Local\Temp\cc2CG9la.s 			page 25


 1116 001a 0721     		movs	r1, #7
 1117 001c 2046     		mov	r0, r4
 1118 001e FFF7FEFF 		bl	GPIO_PinAFConfig
 1119              	.LVL54:
 287:Bsp/periph_gpio.c **** 	GPIO_PinAFConfig(SPI1_CLK_IO_PORT, SPI1_CLK_PinSource, GPIO_AF_SPI1);
 1120              		.loc 1 287 0
 1121 0022 0522     		movs	r2, #5
 1122 0024 1146     		mov	r1, r2
 1123 0026 2046     		mov	r0, r4
 1124 0028 FFF7FEFF 		bl	GPIO_PinAFConfig
 1125              	.LVL55:
 288:Bsp/periph_gpio.c **** 
 289:Bsp/periph_gpio.c **** 	GPIO_InitStructure.GPIO_Pin = SPI1_MOSI_IO_Pin | SPI1_MISO_IO_Pin | SPI1_CLK_IO_Pin;
 1126              		.loc 1 289 0
 1127 002c E023     		movs	r3, #224
 1128 002e 0093     		str	r3, [sp]
 290:Bsp/periph_gpio.c **** 	GPIO_InitStructure.GPIO_Mode = GPIO_Mode_AF;
 1129              		.loc 1 290 0
 1130 0030 0223     		movs	r3, #2
 1131 0032 8DF80430 		strb	r3, [sp, #4]
 291:Bsp/periph_gpio.c **** 	GPIO_InitStructure.GPIO_OType = GPIO_OType_PP;
 1132              		.loc 1 291 0
 1133 0036 0023     		movs	r3, #0
 1134 0038 8DF80630 		strb	r3, [sp, #6]
 292:Bsp/periph_gpio.c **** 	GPIO_InitStructure.GPIO_Speed = GPIO_Speed_100MHz;
 1135              		.loc 1 292 0
 1136 003c 0322     		movs	r2, #3
 1137 003e 8DF80520 		strb	r2, [sp, #5]
 293:Bsp/periph_gpio.c **** 	GPIO_InitStructure.GPIO_PuPd = GPIO_PuPd_NOPULL;
 1138              		.loc 1 293 0
 1139 0042 8DF80730 		strb	r3, [sp, #7]
 294:Bsp/periph_gpio.c **** 
 295:Bsp/periph_gpio.c **** 	GPIO_Init(SPI1_CLK_IO_PORT, &GPIO_InitStructure);
 1140              		.loc 1 295 0
 1141 0046 6946     		mov	r1, sp
 1142 0048 2046     		mov	r0, r4
 1143 004a FFF7FEFF 		bl	GPIO_Init
 1144              	.LVL56:
 296:Bsp/periph_gpio.c **** }
 1145              		.loc 1 296 0
 1146 004e 02B0     		add	sp, sp, #8
 1147              	.LCFI50:
 1148              		.cfi_def_cfa_offset 8
 1149              		@ sp needed
 1150 0050 10BD     		pop	{r4, pc}
 1151              	.L68:
 1152 0052 00BF     		.align	2
 1153              	.L67:
 1154 0054 00000240 		.word	1073872896
 1155              		.cfi_endproc
 1156              	.LFE139:
 1158              		.section	.text.GPIO_SPI2_IO_Init,"ax",%progbits
 1159              		.align	2
 1160              		.global	GPIO_SPI2_IO_Init
 1161              		.thumb
 1162              		.thumb_func
 1164              	GPIO_SPI2_IO_Init:
ARM GAS  C:\Users\ADMINI~1\AppData\Local\Temp\cc2CG9la.s 			page 26


 1165              	.LFB140:
 297:Bsp/periph_gpio.c **** 
 298:Bsp/periph_gpio.c **** void GPIO_SPI2_IO_Init(void)
 299:Bsp/periph_gpio.c **** {
 1166              		.loc 1 299 0
 1167              		.cfi_startproc
 1168              		@ args = 0, pretend = 0, frame = 8
 1169              		@ frame_needed = 0, uses_anonymous_args = 0
 1170 0000 70B5     		push	{r4, r5, r6, lr}
 1171              	.LCFI51:
 1172              		.cfi_def_cfa_offset 16
 1173              		.cfi_offset 4, -16
 1174              		.cfi_offset 5, -12
 1175              		.cfi_offset 6, -8
 1176              		.cfi_offset 14, -4
 1177 0002 82B0     		sub	sp, sp, #8
 1178              	.LCFI52:
 1179              		.cfi_def_cfa_offset 24
 300:Bsp/periph_gpio.c **** 	GPIO_InitTypeDef GPIO_InitStructure;
 301:Bsp/periph_gpio.c **** 	RCC_AHB1PeriphClockCmd(SPI2_MISO_IO_CLK | SPI2_MOSI_IO_CLK | SPI2_CLK_IO_CLK, ENABLE);
 1180              		.loc 1 301 0
 1181 0004 0121     		movs	r1, #1
 1182 0006 0220     		movs	r0, #2
 1183 0008 FFF7FEFF 		bl	RCC_AHB1PeriphClockCmd
 1184              	.LVL57:
 302:Bsp/periph_gpio.c **** 
 303:Bsp/periph_gpio.c **** 	GPIO_PinAFConfig(SPI2_MISO_IO_PORT, SPI2_MISO_PinSource, GPIO_AF_SPI2);
 1185              		.loc 1 303 0
 1186 000c 194C     		ldr	r4, .L71
 1187 000e 0522     		movs	r2, #5
 1188 0010 0E21     		movs	r1, #14
 1189 0012 2046     		mov	r0, r4
 1190 0014 FFF7FEFF 		bl	GPIO_PinAFConfig
 1191              	.LVL58:
 304:Bsp/periph_gpio.c **** 	GPIO_PinAFConfig(SPI2_MOSI_IO_PORT, SPI2_MOSI_PinSource, GPIO_AF_SPI2);
 1192              		.loc 1 304 0
 1193 0018 0522     		movs	r2, #5
 1194 001a 0F21     		movs	r1, #15
 1195 001c 2046     		mov	r0, r4
 1196 001e FFF7FEFF 		bl	GPIO_PinAFConfig
 1197              	.LVL59:
 305:Bsp/periph_gpio.c **** 	GPIO_PinAFConfig(SPI2_CLK_IO_PORT, SPI2_CLK_PinSource, GPIO_AF_SPI2);
 1198              		.loc 1 305 0
 1199 0022 0522     		movs	r2, #5
 1200 0024 0D21     		movs	r1, #13
 1201 0026 2046     		mov	r0, r4
 1202 0028 FFF7FEFF 		bl	GPIO_PinAFConfig
 1203              	.LVL60:
 306:Bsp/periph_gpio.c **** 
 307:Bsp/periph_gpio.c **** 	GPIO_InitStructure.GPIO_Pin = SPI2_MOSI_IO_Pin | SPI2_MISO_IO_Pin;
 1204              		.loc 1 307 0
 1205 002c 4FF44043 		mov	r3, #49152
 1206 0030 0093     		str	r3, [sp]
 308:Bsp/periph_gpio.c **** 	GPIO_InitStructure.GPIO_Mode = GPIO_Mode_AF;
 1207              		.loc 1 308 0
 1208 0032 0226     		movs	r6, #2
 1209 0034 8DF80460 		strb	r6, [sp, #4]
ARM GAS  C:\Users\ADMINI~1\AppData\Local\Temp\cc2CG9la.s 			page 27


 309:Bsp/periph_gpio.c **** 	GPIO_InitStructure.GPIO_OType = GPIO_OType_PP;
 1210              		.loc 1 309 0
 1211 0038 0025     		movs	r5, #0
 1212 003a 8DF80650 		strb	r5, [sp, #6]
 310:Bsp/periph_gpio.c **** 	GPIO_InitStructure.GPIO_Speed = GPIO_Speed_100MHz;
 1213              		.loc 1 310 0
 1214 003e 0323     		movs	r3, #3
 1215 0040 8DF80530 		strb	r3, [sp, #5]
 311:Bsp/periph_gpio.c **** 	GPIO_InitStructure.GPIO_PuPd = GPIO_PuPd_NOPULL;
 1216              		.loc 1 311 0
 1217 0044 8DF80750 		strb	r5, [sp, #7]
 312:Bsp/periph_gpio.c **** 
 313:Bsp/periph_gpio.c **** 	GPIO_Init(SPI2_MOSI_IO_PORT, &GPIO_InitStructure);
 1218              		.loc 1 313 0
 1219 0048 6946     		mov	r1, sp
 1220 004a 2046     		mov	r0, r4
 1221 004c FFF7FEFF 		bl	GPIO_Init
 1222              	.LVL61:
 314:Bsp/periph_gpio.c **** 
 315:Bsp/periph_gpio.c **** 	GPIO_InitStructure.GPIO_Pin = SPI2_CLK_IO_Pin;
 1223              		.loc 1 315 0
 1224 0050 4FF40053 		mov	r3, #8192
 1225 0054 0093     		str	r3, [sp]
 316:Bsp/periph_gpio.c **** 	GPIO_InitStructure.GPIO_Mode = GPIO_Mode_AF;
 1226              		.loc 1 316 0
 1227 0056 8DF80460 		strb	r6, [sp, #4]
 317:Bsp/periph_gpio.c **** 	GPIO_InitStructure.GPIO_OType = GPIO_OType_PP;
 1228              		.loc 1 317 0
 1229 005a 8DF80650 		strb	r5, [sp, #6]
 318:Bsp/periph_gpio.c **** 	GPIO_InitStructure.GPIO_Speed = GPIO_Speed_50MHz;
 1230              		.loc 1 318 0
 1231 005e 8DF80560 		strb	r6, [sp, #5]
 319:Bsp/periph_gpio.c **** 	GPIO_InitStructure.GPIO_PuPd = GPIO_PuPd_NOPULL;
 1232              		.loc 1 319 0
 1233 0062 8DF80750 		strb	r5, [sp, #7]
 320:Bsp/periph_gpio.c **** 
 321:Bsp/periph_gpio.c **** 	GPIO_Init(SPI2_CLK_IO_PORT, &GPIO_InitStructure);
 1234              		.loc 1 321 0
 1235 0066 6946     		mov	r1, sp
 1236 0068 2046     		mov	r0, r4
 1237 006a FFF7FEFF 		bl	GPIO_Init
 1238              	.LVL62:
 322:Bsp/periph_gpio.c **** }
 1239              		.loc 1 322 0
 1240 006e 02B0     		add	sp, sp, #8
 1241              	.LCFI53:
 1242              		.cfi_def_cfa_offset 16
 1243              		@ sp needed
 1244 0070 70BD     		pop	{r4, r5, r6, pc}
 1245              	.L72:
 1246 0072 00BF     		.align	2
 1247              	.L71:
 1248 0074 00040240 		.word	1073873920
 1249              		.cfi_endproc
 1250              	.LFE140:
 1252              		.section	.text.GPIO_SPI3_IO_Init,"ax",%progbits
 1253              		.align	2
ARM GAS  C:\Users\ADMINI~1\AppData\Local\Temp\cc2CG9la.s 			page 28


 1254              		.global	GPIO_SPI3_IO_Init
 1255              		.thumb
 1256              		.thumb_func
 1258              	GPIO_SPI3_IO_Init:
 1259              	.LFB141:
 323:Bsp/periph_gpio.c **** 
 324:Bsp/periph_gpio.c **** void GPIO_SPI3_IO_Init(void)
 325:Bsp/periph_gpio.c **** {
 1260              		.loc 1 325 0
 1261              		.cfi_startproc
 1262              		@ args = 0, pretend = 0, frame = 8
 1263              		@ frame_needed = 0, uses_anonymous_args = 0
 1264 0000 10B5     		push	{r4, lr}
 1265              	.LCFI54:
 1266              		.cfi_def_cfa_offset 8
 1267              		.cfi_offset 4, -8
 1268              		.cfi_offset 14, -4
 1269 0002 82B0     		sub	sp, sp, #8
 1270              	.LCFI55:
 1271              		.cfi_def_cfa_offset 16
 326:Bsp/periph_gpio.c **** 	GPIO_InitTypeDef GPIO_InitStructure;
 327:Bsp/periph_gpio.c **** 	RCC_AHB1PeriphClockCmd(SPI3_MISO_IO_CLK | SPI3_MOSI_IO_CLK | SPI3_CLK_IO_CLK, ENABLE);
 1272              		.loc 1 327 0
 1273 0004 0121     		movs	r1, #1
 1274 0006 0420     		movs	r0, #4
 1275 0008 FFF7FEFF 		bl	RCC_AHB1PeriphClockCmd
 1276              	.LVL63:
 328:Bsp/periph_gpio.c **** 
 329:Bsp/periph_gpio.c **** 	GPIO_PinAFConfig(SPI3_MISO_IO_PORT, SPI3_MISO_PinSource, GPIO_AF_SPI3);
 1277              		.loc 1 329 0
 1278 000c 114C     		ldr	r4, .L75
 1279 000e 0622     		movs	r2, #6
 1280 0010 0B21     		movs	r1, #11
 1281 0012 2046     		mov	r0, r4
 1282 0014 FFF7FEFF 		bl	GPIO_PinAFConfig
 1283              	.LVL64:
 330:Bsp/periph_gpio.c **** 	GPIO_PinAFConfig(SPI3_MOSI_IO_PORT, SPI3_MOSI_PinSource, GPIO_AF_SPI3);
 1284              		.loc 1 330 0
 1285 0018 0622     		movs	r2, #6
 1286 001a 0C21     		movs	r1, #12
 1287 001c 2046     		mov	r0, r4
 1288 001e FFF7FEFF 		bl	GPIO_PinAFConfig
 1289              	.LVL65:
 331:Bsp/periph_gpio.c **** 	GPIO_PinAFConfig(SPI3_CLK_IO_PORT, SPI3_CLK_PinSource, GPIO_AF_SPI3);
 1290              		.loc 1 331 0
 1291 0022 0622     		movs	r2, #6
 1292 0024 0A21     		movs	r1, #10
 1293 0026 2046     		mov	r0, r4
 1294 0028 FFF7FEFF 		bl	GPIO_PinAFConfig
 1295              	.LVL66:
 332:Bsp/periph_gpio.c **** 
 333:Bsp/periph_gpio.c **** 	GPIO_InitStructure.GPIO_Pin = SPI3_MOSI_IO_Pin | SPI3_MISO_IO_Pin | SPI3_CLK_IO_Pin;
 1296              		.loc 1 333 0
 1297 002c 4FF4E053 		mov	r3, #7168
 1298 0030 0093     		str	r3, [sp]
 334:Bsp/periph_gpio.c **** 	GPIO_InitStructure.GPIO_Mode = GPIO_Mode_AF;
 1299              		.loc 1 334 0
ARM GAS  C:\Users\ADMINI~1\AppData\Local\Temp\cc2CG9la.s 			page 29


 1300 0032 0223     		movs	r3, #2
 1301 0034 8DF80430 		strb	r3, [sp, #4]
 335:Bsp/periph_gpio.c **** 	GPIO_InitStructure.GPIO_OType = GPIO_OType_PP;
 1302              		.loc 1 335 0
 1303 0038 0023     		movs	r3, #0
 1304 003a 8DF80630 		strb	r3, [sp, #6]
 336:Bsp/periph_gpio.c **** 	GPIO_InitStructure.GPIO_Speed = GPIO_Speed_100MHz;
 1305              		.loc 1 336 0
 1306 003e 0322     		movs	r2, #3
 1307 0040 8DF80520 		strb	r2, [sp, #5]
 337:Bsp/periph_gpio.c **** 	GPIO_InitStructure.GPIO_PuPd = GPIO_PuPd_NOPULL;
 1308              		.loc 1 337 0
 1309 0044 8DF80730 		strb	r3, [sp, #7]
 338:Bsp/periph_gpio.c **** 
 339:Bsp/periph_gpio.c **** 	GPIO_Init(SPI3_MOSI_IO_PORT, &GPIO_InitStructure);
 1310              		.loc 1 339 0
 1311 0048 6946     		mov	r1, sp
 1312 004a 2046     		mov	r0, r4
 1313 004c FFF7FEFF 		bl	GPIO_Init
 1314              	.LVL67:
 340:Bsp/periph_gpio.c **** }
 1315              		.loc 1 340 0
 1316 0050 02B0     		add	sp, sp, #8
 1317              	.LCFI56:
 1318              		.cfi_def_cfa_offset 8
 1319              		@ sp needed
 1320 0052 10BD     		pop	{r4, pc}
 1321              	.L76:
 1322              		.align	2
 1323              	.L75:
 1324 0054 00080240 		.word	1073874944
 1325              		.cfi_endproc
 1326              	.LFE141:
 1328              		.section	.text.GPIO_ADC_Channel0_IO_Init,"ax",%progbits
 1329              		.align	2
 1330              		.global	GPIO_ADC_Channel0_IO_Init
 1331              		.thumb
 1332              		.thumb_func
 1334              	GPIO_ADC_Channel0_IO_Init:
 1335              	.LFB142:
 341:Bsp/periph_gpio.c **** 
 342:Bsp/periph_gpio.c **** void GPIO_ADC_Channel0_IO_Init(void)
 343:Bsp/periph_gpio.c **** {
 1336              		.loc 1 343 0
 1337              		.cfi_startproc
 1338              		@ args = 0, pretend = 0, frame = 8
 1339              		@ frame_needed = 0, uses_anonymous_args = 0
 1340 0000 00B5     		push	{lr}
 1341              	.LCFI57:
 1342              		.cfi_def_cfa_offset 4
 1343              		.cfi_offset 14, -4
 1344 0002 83B0     		sub	sp, sp, #12
 1345              	.LCFI58:
 1346              		.cfi_def_cfa_offset 16
 344:Bsp/periph_gpio.c **** 	GPIO_InitTypeDef GPIO_InitStructure;
 345:Bsp/periph_gpio.c **** 
 346:Bsp/periph_gpio.c **** 	RCC_AHB1PeriphClockCmd(ADC1_Channel0_IO_CLK, ENABLE);
ARM GAS  C:\Users\ADMINI~1\AppData\Local\Temp\cc2CG9la.s 			page 30


 1347              		.loc 1 346 0
 1348 0004 0121     		movs	r1, #1
 1349 0006 0846     		mov	r0, r1
 1350 0008 FFF7FEFF 		bl	RCC_AHB1PeriphClockCmd
 1351              	.LVL68:
 347:Bsp/periph_gpio.c **** 	RCC_APB2PeriphClockCmd(RCC_APB2Periph_ADC1, ENABLE);
 1352              		.loc 1 347 0
 1353 000c 0121     		movs	r1, #1
 1354 000e 4FF48070 		mov	r0, #256
 1355 0012 FFF7FEFF 		bl	RCC_APB2PeriphClockCmd
 1356              	.LVL69:
 348:Bsp/periph_gpio.c **** 
 349:Bsp/periph_gpio.c **** 	GPIO_InitStructure.GPIO_Mode = GPIO_Mode_AN;
 1357              		.loc 1 349 0
 1358 0016 0323     		movs	r3, #3
 1359 0018 8DF80430 		strb	r3, [sp, #4]
 350:Bsp/periph_gpio.c **** 	GPIO_InitStructure.GPIO_Pin = ADC1_Channel0_IO_Pin;
 1360              		.loc 1 350 0
 1361 001c 0123     		movs	r3, #1
 1362 001e 0093     		str	r3, [sp]
 351:Bsp/periph_gpio.c **** 	GPIO_InitStructure.GPIO_PuPd = GPIO_PuPd_NOPULL;
 1363              		.loc 1 351 0
 1364 0020 0023     		movs	r3, #0
 1365 0022 8DF80730 		strb	r3, [sp, #7]
 352:Bsp/periph_gpio.c **** 
 353:Bsp/periph_gpio.c **** 	GPIO_Init(ADC1_Channel0_Port, &GPIO_InitStructure);
 1366              		.loc 1 353 0
 1367 0026 6946     		mov	r1, sp
 1368 0028 0248     		ldr	r0, .L79
 1369 002a FFF7FEFF 		bl	GPIO_Init
 1370              	.LVL70:
 354:Bsp/periph_gpio.c **** }
 1371              		.loc 1 354 0
 1372 002e 03B0     		add	sp, sp, #12
 1373              	.LCFI59:
 1374              		.cfi_def_cfa_offset 4
 1375              		@ sp needed
 1376 0030 5DF804FB 		ldr	pc, [sp], #4
 1377              	.L80:
 1378              		.align	2
 1379              	.L79:
 1380 0034 00000240 		.word	1073872896
 1381              		.cfi_endproc
 1382              	.LFE142:
 1384              		.section	.text.GPIO_ADC1_Channel1_IO_Init,"ax",%progbits
 1385              		.align	2
 1386              		.global	GPIO_ADC1_Channel1_IO_Init
 1387              		.thumb
 1388              		.thumb_func
 1390              	GPIO_ADC1_Channel1_IO_Init:
 1391              	.LFB143:
 355:Bsp/periph_gpio.c **** 
 356:Bsp/periph_gpio.c **** void GPIO_ADC1_Channel1_IO_Init(void)
 357:Bsp/periph_gpio.c **** {
 1392              		.loc 1 357 0
 1393              		.cfi_startproc
 1394              		@ args = 0, pretend = 0, frame = 8
ARM GAS  C:\Users\ADMINI~1\AppData\Local\Temp\cc2CG9la.s 			page 31


 1395              		@ frame_needed = 0, uses_anonymous_args = 0
 1396 0000 00B5     		push	{lr}
 1397              	.LCFI60:
 1398              		.cfi_def_cfa_offset 4
 1399              		.cfi_offset 14, -4
 1400 0002 83B0     		sub	sp, sp, #12
 1401              	.LCFI61:
 1402              		.cfi_def_cfa_offset 16
 358:Bsp/periph_gpio.c **** 	GPIO_InitTypeDef GPIO_InitStructure;
 359:Bsp/periph_gpio.c **** 
 360:Bsp/periph_gpio.c **** 	RCC_AHB1PeriphClockCmd(ADC1_Channel1_IO_CLK, ENABLE);
 1403              		.loc 1 360 0
 1404 0004 0121     		movs	r1, #1
 1405 0006 0846     		mov	r0, r1
 1406 0008 FFF7FEFF 		bl	RCC_AHB1PeriphClockCmd
 1407              	.LVL71:
 361:Bsp/periph_gpio.c **** 	RCC_APB2PeriphClockCmd(RCC_APB2Periph_ADC1, ENABLE);
 1408              		.loc 1 361 0
 1409 000c 0121     		movs	r1, #1
 1410 000e 4FF48070 		mov	r0, #256
 1411 0012 FFF7FEFF 		bl	RCC_APB2PeriphClockCmd
 1412              	.LVL72:
 362:Bsp/periph_gpio.c **** 
 363:Bsp/periph_gpio.c **** 	GPIO_InitStructure.GPIO_Mode = GPIO_Mode_AN;
 1413              		.loc 1 363 0
 1414 0016 0323     		movs	r3, #3
 1415 0018 8DF80430 		strb	r3, [sp, #4]
 364:Bsp/periph_gpio.c **** 	GPIO_InitStructure.GPIO_Pin = ADC1_Channel1_IO_Pin;
 1416              		.loc 1 364 0
 1417 001c 0223     		movs	r3, #2
 1418 001e 0093     		str	r3, [sp]
 365:Bsp/periph_gpio.c **** 	GPIO_InitStructure.GPIO_PuPd = GPIO_PuPd_NOPULL;
 1419              		.loc 1 365 0
 1420 0020 0023     		movs	r3, #0
 1421 0022 8DF80730 		strb	r3, [sp, #7]
 366:Bsp/periph_gpio.c **** 
 367:Bsp/periph_gpio.c **** 	GPIO_Init(ADC1_Channel1_Port, &GPIO_InitStructure);
 1422              		.loc 1 367 0
 1423 0026 6946     		mov	r1, sp
 1424 0028 0248     		ldr	r0, .L83
 1425 002a FFF7FEFF 		bl	GPIO_Init
 1426              	.LVL73:
 368:Bsp/periph_gpio.c **** }
 1427              		.loc 1 368 0
 1428 002e 03B0     		add	sp, sp, #12
 1429              	.LCFI62:
 1430              		.cfi_def_cfa_offset 4
 1431              		@ sp needed
 1432 0030 5DF804FB 		ldr	pc, [sp], #4
 1433              	.L84:
 1434              		.align	2
 1435              	.L83:
 1436 0034 00000240 		.word	1073872896
 1437              		.cfi_endproc
 1438              	.LFE143:
 1440              		.section	.text.GPIO_ADC1_Channel2_IO_Init,"ax",%progbits
 1441              		.align	2
ARM GAS  C:\Users\ADMINI~1\AppData\Local\Temp\cc2CG9la.s 			page 32


 1442              		.global	GPIO_ADC1_Channel2_IO_Init
 1443              		.thumb
 1444              		.thumb_func
 1446              	GPIO_ADC1_Channel2_IO_Init:
 1447              	.LFB144:
 369:Bsp/periph_gpio.c **** 
 370:Bsp/periph_gpio.c **** void GPIO_ADC1_Channel2_IO_Init(void)
 371:Bsp/periph_gpio.c **** {
 1448              		.loc 1 371 0
 1449              		.cfi_startproc
 1450              		@ args = 0, pretend = 0, frame = 8
 1451              		@ frame_needed = 0, uses_anonymous_args = 0
 1452 0000 00B5     		push	{lr}
 1453              	.LCFI63:
 1454              		.cfi_def_cfa_offset 4
 1455              		.cfi_offset 14, -4
 1456 0002 83B0     		sub	sp, sp, #12
 1457              	.LCFI64:
 1458              		.cfi_def_cfa_offset 16
 372:Bsp/periph_gpio.c **** 	GPIO_InitTypeDef GPIO_InitStructure;
 373:Bsp/periph_gpio.c **** 
 374:Bsp/periph_gpio.c **** 	RCC_AHB1PeriphClockCmd(ADC1_Channel2_IO_CLK, ENABLE);
 1459              		.loc 1 374 0
 1460 0004 0121     		movs	r1, #1
 1461 0006 0846     		mov	r0, r1
 1462 0008 FFF7FEFF 		bl	RCC_AHB1PeriphClockCmd
 1463              	.LVL74:
 375:Bsp/periph_gpio.c **** 	RCC_APB2PeriphClockCmd(RCC_APB2Periph_ADC1, ENABLE);
 1464              		.loc 1 375 0
 1465 000c 0121     		movs	r1, #1
 1466 000e 4FF48070 		mov	r0, #256
 1467 0012 FFF7FEFF 		bl	RCC_APB2PeriphClockCmd
 1468              	.LVL75:
 376:Bsp/periph_gpio.c **** 
 377:Bsp/periph_gpio.c **** 	GPIO_InitStructure.GPIO_Mode = GPIO_Mode_AN;
 1469              		.loc 1 377 0
 1470 0016 0323     		movs	r3, #3
 1471 0018 8DF80430 		strb	r3, [sp, #4]
 378:Bsp/periph_gpio.c **** 	GPIO_InitStructure.GPIO_Pin = ADC1_Channel2_IO_Pin;
 1472              		.loc 1 378 0
 1473 001c 0423     		movs	r3, #4
 1474 001e 0093     		str	r3, [sp]
 379:Bsp/periph_gpio.c **** 	GPIO_InitStructure.GPIO_PuPd = GPIO_PuPd_NOPULL;
 1475              		.loc 1 379 0
 1476 0020 0023     		movs	r3, #0
 1477 0022 8DF80730 		strb	r3, [sp, #7]
 380:Bsp/periph_gpio.c **** 
 381:Bsp/periph_gpio.c **** 	GPIO_Init(ADC1_Channel2_Port, &GPIO_InitStructure);
 1478              		.loc 1 381 0
 1479 0026 6946     		mov	r1, sp
 1480 0028 0248     		ldr	r0, .L87
 1481 002a FFF7FEFF 		bl	GPIO_Init
 1482              	.LVL76:
 382:Bsp/periph_gpio.c **** }
 1483              		.loc 1 382 0
 1484 002e 03B0     		add	sp, sp, #12
 1485              	.LCFI65:
ARM GAS  C:\Users\ADMINI~1\AppData\Local\Temp\cc2CG9la.s 			page 33


 1486              		.cfi_def_cfa_offset 4
 1487              		@ sp needed
 1488 0030 5DF804FB 		ldr	pc, [sp], #4
 1489              	.L88:
 1490              		.align	2
 1491              	.L87:
 1492 0034 00000240 		.word	1073872896
 1493              		.cfi_endproc
 1494              	.LFE144:
 1496              		.section	.text.GPIO_ADC1_Channel3_IO_Init,"ax",%progbits
 1497              		.align	2
 1498              		.global	GPIO_ADC1_Channel3_IO_Init
 1499              		.thumb
 1500              		.thumb_func
 1502              	GPIO_ADC1_Channel3_IO_Init:
 1503              	.LFB145:
 383:Bsp/periph_gpio.c **** 
 384:Bsp/periph_gpio.c **** void GPIO_ADC1_Channel3_IO_Init(void)
 385:Bsp/periph_gpio.c **** {
 1504              		.loc 1 385 0
 1505              		.cfi_startproc
 1506              		@ args = 0, pretend = 0, frame = 8
 1507              		@ frame_needed = 0, uses_anonymous_args = 0
 1508 0000 00B5     		push	{lr}
 1509              	.LCFI66:
 1510              		.cfi_def_cfa_offset 4
 1511              		.cfi_offset 14, -4
 1512 0002 83B0     		sub	sp, sp, #12
 1513              	.LCFI67:
 1514              		.cfi_def_cfa_offset 16
 386:Bsp/periph_gpio.c **** 	GPIO_InitTypeDef GPIO_InitStructure;
 387:Bsp/periph_gpio.c **** 
 388:Bsp/periph_gpio.c **** 	RCC_AHB1PeriphClockCmd(ADC1_Channel3_IO_CLK, ENABLE);
 1515              		.loc 1 388 0
 1516 0004 0121     		movs	r1, #1
 1517 0006 0846     		mov	r0, r1
 1518 0008 FFF7FEFF 		bl	RCC_AHB1PeriphClockCmd
 1519              	.LVL77:
 389:Bsp/periph_gpio.c **** 	RCC_APB2PeriphClockCmd(RCC_APB2Periph_ADC1, ENABLE);
 1520              		.loc 1 389 0
 1521 000c 0121     		movs	r1, #1
 1522 000e 4FF48070 		mov	r0, #256
 1523 0012 FFF7FEFF 		bl	RCC_APB2PeriphClockCmd
 1524              	.LVL78:
 390:Bsp/periph_gpio.c **** 
 391:Bsp/periph_gpio.c **** 	GPIO_InitStructure.GPIO_Mode = GPIO_Mode_AN;
 1525              		.loc 1 391 0
 1526 0016 0323     		movs	r3, #3
 1527 0018 8DF80430 		strb	r3, [sp, #4]
 392:Bsp/periph_gpio.c **** 	GPIO_InitStructure.GPIO_Pin = ADC1_Channel3_IO_Pin;
 1528              		.loc 1 392 0
 1529 001c 0823     		movs	r3, #8
 1530 001e 0093     		str	r3, [sp]
 393:Bsp/periph_gpio.c **** 	GPIO_InitStructure.GPIO_PuPd = GPIO_PuPd_NOPULL;
 1531              		.loc 1 393 0
 1532 0020 0023     		movs	r3, #0
 1533 0022 8DF80730 		strb	r3, [sp, #7]
ARM GAS  C:\Users\ADMINI~1\AppData\Local\Temp\cc2CG9la.s 			page 34


 394:Bsp/periph_gpio.c **** 
 395:Bsp/periph_gpio.c **** 	GPIO_Init(ADC1_Channel3_Port, &GPIO_InitStructure);
 1534              		.loc 1 395 0
 1535 0026 6946     		mov	r1, sp
 1536 0028 0248     		ldr	r0, .L91
 1537 002a FFF7FEFF 		bl	GPIO_Init
 1538              	.LVL79:
 396:Bsp/periph_gpio.c **** }
 1539              		.loc 1 396 0
 1540 002e 03B0     		add	sp, sp, #12
 1541              	.LCFI68:
 1542              		.cfi_def_cfa_offset 4
 1543              		@ sp needed
 1544 0030 5DF804FB 		ldr	pc, [sp], #4
 1545              	.L92:
 1546              		.align	2
 1547              	.L91:
 1548 0034 00000240 		.word	1073872896
 1549              		.cfi_endproc
 1550              	.LFE145:
 1552              		.section	.text.GPIO_ADC1_Channel4_IO_Init,"ax",%progbits
 1553              		.align	2
 1554              		.global	GPIO_ADC1_Channel4_IO_Init
 1555              		.thumb
 1556              		.thumb_func
 1558              	GPIO_ADC1_Channel4_IO_Init:
 1559              	.LFB146:
 397:Bsp/periph_gpio.c **** 
 398:Bsp/periph_gpio.c **** void GPIO_ADC1_Channel4_IO_Init(void)
 399:Bsp/periph_gpio.c **** {
 1560              		.loc 1 399 0
 1561              		.cfi_startproc
 1562              		@ args = 0, pretend = 0, frame = 8
 1563              		@ frame_needed = 0, uses_anonymous_args = 0
 1564 0000 00B5     		push	{lr}
 1565              	.LCFI69:
 1566              		.cfi_def_cfa_offset 4
 1567              		.cfi_offset 14, -4
 1568 0002 83B0     		sub	sp, sp, #12
 1569              	.LCFI70:
 1570              		.cfi_def_cfa_offset 16
 400:Bsp/periph_gpio.c **** 	GPIO_InitTypeDef GPIO_InitStructure;
 401:Bsp/periph_gpio.c **** 
 402:Bsp/periph_gpio.c **** 	RCC_AHB1PeriphClockCmd(ADC1_Channel4_IO_CLK, ENABLE);
 1571              		.loc 1 402 0
 1572 0004 0121     		movs	r1, #1
 1573 0006 0846     		mov	r0, r1
 1574 0008 FFF7FEFF 		bl	RCC_AHB1PeriphClockCmd
 1575              	.LVL80:
 403:Bsp/periph_gpio.c **** 	RCC_APB2PeriphClockCmd(RCC_APB2Periph_ADC1, ENABLE);
 1576              		.loc 1 403 0
 1577 000c 0121     		movs	r1, #1
 1578 000e 4FF48070 		mov	r0, #256
 1579 0012 FFF7FEFF 		bl	RCC_APB2PeriphClockCmd
 1580              	.LVL81:
 404:Bsp/periph_gpio.c **** 
 405:Bsp/periph_gpio.c **** 	GPIO_InitStructure.GPIO_Mode = GPIO_Mode_AN;
ARM GAS  C:\Users\ADMINI~1\AppData\Local\Temp\cc2CG9la.s 			page 35


 1581              		.loc 1 405 0
 1582 0016 0323     		movs	r3, #3
 1583 0018 8DF80430 		strb	r3, [sp, #4]
 406:Bsp/periph_gpio.c **** 	GPIO_InitStructure.GPIO_Pin = ADC1_Channel4_IO_Pin;
 1584              		.loc 1 406 0
 1585 001c 1023     		movs	r3, #16
 1586 001e 0093     		str	r3, [sp]
 407:Bsp/periph_gpio.c **** 	GPIO_InitStructure.GPIO_PuPd = GPIO_PuPd_NOPULL;
 1587              		.loc 1 407 0
 1588 0020 0023     		movs	r3, #0
 1589 0022 8DF80730 		strb	r3, [sp, #7]
 408:Bsp/periph_gpio.c **** 
 409:Bsp/periph_gpio.c **** 	GPIO_Init(ADC1_Channel4_Port, &GPIO_InitStructure);
 1590              		.loc 1 409 0
 1591 0026 6946     		mov	r1, sp
 1592 0028 0248     		ldr	r0, .L95
 1593 002a FFF7FEFF 		bl	GPIO_Init
 1594              	.LVL82:
 410:Bsp/periph_gpio.c **** }
 1595              		.loc 1 410 0
 1596 002e 03B0     		add	sp, sp, #12
 1597              	.LCFI71:
 1598              		.cfi_def_cfa_offset 4
 1599              		@ sp needed
 1600 0030 5DF804FB 		ldr	pc, [sp], #4
 1601              	.L96:
 1602              		.align	2
 1603              	.L95:
 1604 0034 00000240 		.word	1073872896
 1605              		.cfi_endproc
 1606              	.LFE146:
 1608              		.section	.text.GPIO_ADC1_Channel5_IO_Init,"ax",%progbits
 1609              		.align	2
 1610              		.global	GPIO_ADC1_Channel5_IO_Init
 1611              		.thumb
 1612              		.thumb_func
 1614              	GPIO_ADC1_Channel5_IO_Init:
 1615              	.LFB147:
 411:Bsp/periph_gpio.c **** 
 412:Bsp/periph_gpio.c **** void GPIO_ADC1_Channel5_IO_Init(void)
 413:Bsp/periph_gpio.c **** {
 1616              		.loc 1 413 0
 1617              		.cfi_startproc
 1618              		@ args = 0, pretend = 0, frame = 8
 1619              		@ frame_needed = 0, uses_anonymous_args = 0
 1620 0000 00B5     		push	{lr}
 1621              	.LCFI72:
 1622              		.cfi_def_cfa_offset 4
 1623              		.cfi_offset 14, -4
 1624 0002 83B0     		sub	sp, sp, #12
 1625              	.LCFI73:
 1626              		.cfi_def_cfa_offset 16
 414:Bsp/periph_gpio.c **** 	GPIO_InitTypeDef GPIO_InitStructure;
 415:Bsp/periph_gpio.c **** 
 416:Bsp/periph_gpio.c **** 	RCC_AHB1PeriphClockCmd(ADC1_Channel5_IO_CLK, ENABLE);
 1627              		.loc 1 416 0
 1628 0004 0121     		movs	r1, #1
ARM GAS  C:\Users\ADMINI~1\AppData\Local\Temp\cc2CG9la.s 			page 36


 1629 0006 0846     		mov	r0, r1
 1630 0008 FFF7FEFF 		bl	RCC_AHB1PeriphClockCmd
 1631              	.LVL83:
 417:Bsp/periph_gpio.c **** 	RCC_APB2PeriphClockCmd(RCC_APB2Periph_ADC1, ENABLE);
 1632              		.loc 1 417 0
 1633 000c 0121     		movs	r1, #1
 1634 000e 4FF48070 		mov	r0, #256
 1635 0012 FFF7FEFF 		bl	RCC_APB2PeriphClockCmd
 1636              	.LVL84:
 418:Bsp/periph_gpio.c **** 
 419:Bsp/periph_gpio.c **** 	GPIO_InitStructure.GPIO_Mode = GPIO_Mode_AN;
 1637              		.loc 1 419 0
 1638 0016 0323     		movs	r3, #3
 1639 0018 8DF80430 		strb	r3, [sp, #4]
 420:Bsp/periph_gpio.c **** 	GPIO_InitStructure.GPIO_Pin = ADC1_Channel5_IO_Pin;
 1640              		.loc 1 420 0
 1641 001c 2023     		movs	r3, #32
 1642 001e 0093     		str	r3, [sp]
 421:Bsp/periph_gpio.c **** 	GPIO_InitStructure.GPIO_PuPd = GPIO_PuPd_NOPULL;
 1643              		.loc 1 421 0
 1644 0020 0023     		movs	r3, #0
 1645 0022 8DF80730 		strb	r3, [sp, #7]
 422:Bsp/periph_gpio.c **** 
 423:Bsp/periph_gpio.c **** 	GPIO_Init(ADC1_Channel5_Port, &GPIO_InitStructure);
 1646              		.loc 1 423 0
 1647 0026 6946     		mov	r1, sp
 1648 0028 0248     		ldr	r0, .L99
 1649 002a FFF7FEFF 		bl	GPIO_Init
 1650              	.LVL85:
 424:Bsp/periph_gpio.c **** }
 1651              		.loc 1 424 0
 1652 002e 03B0     		add	sp, sp, #12
 1653              	.LCFI74:
 1654              		.cfi_def_cfa_offset 4
 1655              		@ sp needed
 1656 0030 5DF804FB 		ldr	pc, [sp], #4
 1657              	.L100:
 1658              		.align	2
 1659              	.L99:
 1660 0034 00000240 		.word	1073872896
 1661              		.cfi_endproc
 1662              	.LFE147:
 1664              		.section	.text.GPIO_ADC1_Channel6_IO_Init,"ax",%progbits
 1665              		.align	2
 1666              		.global	GPIO_ADC1_Channel6_IO_Init
 1667              		.thumb
 1668              		.thumb_func
 1670              	GPIO_ADC1_Channel6_IO_Init:
 1671              	.LFB148:
 425:Bsp/periph_gpio.c **** 
 426:Bsp/periph_gpio.c **** void GPIO_ADC1_Channel6_IO_Init(void)
 427:Bsp/periph_gpio.c **** {
 1672              		.loc 1 427 0
 1673              		.cfi_startproc
 1674              		@ args = 0, pretend = 0, frame = 8
 1675              		@ frame_needed = 0, uses_anonymous_args = 0
 1676 0000 00B5     		push	{lr}
ARM GAS  C:\Users\ADMINI~1\AppData\Local\Temp\cc2CG9la.s 			page 37


 1677              	.LCFI75:
 1678              		.cfi_def_cfa_offset 4
 1679              		.cfi_offset 14, -4
 1680 0002 83B0     		sub	sp, sp, #12
 1681              	.LCFI76:
 1682              		.cfi_def_cfa_offset 16
 428:Bsp/periph_gpio.c **** 	GPIO_InitTypeDef GPIO_InitStructure;
 429:Bsp/periph_gpio.c **** 
 430:Bsp/periph_gpio.c **** 	RCC_AHB1PeriphClockCmd(ADC1_Channel6_IO_CLK, ENABLE);
 1683              		.loc 1 430 0
 1684 0004 0121     		movs	r1, #1
 1685 0006 0846     		mov	r0, r1
 1686 0008 FFF7FEFF 		bl	RCC_AHB1PeriphClockCmd
 1687              	.LVL86:
 431:Bsp/periph_gpio.c **** 	RCC_APB2PeriphClockCmd(RCC_APB2Periph_ADC1, ENABLE);
 1688              		.loc 1 431 0
 1689 000c 0121     		movs	r1, #1
 1690 000e 4FF48070 		mov	r0, #256
 1691 0012 FFF7FEFF 		bl	RCC_APB2PeriphClockCmd
 1692              	.LVL87:
 432:Bsp/periph_gpio.c **** 
 433:Bsp/periph_gpio.c **** 	GPIO_InitStructure.GPIO_Mode = GPIO_Mode_AN;
 1693              		.loc 1 433 0
 1694 0016 0323     		movs	r3, #3
 1695 0018 8DF80430 		strb	r3, [sp, #4]
 434:Bsp/periph_gpio.c **** 	GPIO_InitStructure.GPIO_Pin = ADC1_Channel6_IO_Pin;
 1696              		.loc 1 434 0
 1697 001c 4023     		movs	r3, #64
 1698 001e 0093     		str	r3, [sp]
 435:Bsp/periph_gpio.c **** 	GPIO_InitStructure.GPIO_PuPd = GPIO_PuPd_NOPULL;
 1699              		.loc 1 435 0
 1700 0020 0023     		movs	r3, #0
 1701 0022 8DF80730 		strb	r3, [sp, #7]
 436:Bsp/periph_gpio.c **** 
 437:Bsp/periph_gpio.c **** 	GPIO_Init(ADC1_Channel6_Port, &GPIO_InitStructure);
 1702              		.loc 1 437 0
 1703 0026 6946     		mov	r1, sp
 1704 0028 0248     		ldr	r0, .L103
 1705 002a FFF7FEFF 		bl	GPIO_Init
 1706              	.LVL88:
 438:Bsp/periph_gpio.c **** }
 1707              		.loc 1 438 0
 1708 002e 03B0     		add	sp, sp, #12
 1709              	.LCFI77:
 1710              		.cfi_def_cfa_offset 4
 1711              		@ sp needed
 1712 0030 5DF804FB 		ldr	pc, [sp], #4
 1713              	.L104:
 1714              		.align	2
 1715              	.L103:
 1716 0034 00000240 		.word	1073872896
 1717              		.cfi_endproc
 1718              	.LFE148:
 1720              		.section	.text.GPIO_ADC1_Channel7_IO_Init,"ax",%progbits
 1721              		.align	2
 1722              		.global	GPIO_ADC1_Channel7_IO_Init
 1723              		.thumb
ARM GAS  C:\Users\ADMINI~1\AppData\Local\Temp\cc2CG9la.s 			page 38


 1724              		.thumb_func
 1726              	GPIO_ADC1_Channel7_IO_Init:
 1727              	.LFB149:
 439:Bsp/periph_gpio.c **** 
 440:Bsp/periph_gpio.c **** void GPIO_ADC1_Channel7_IO_Init(void)
 441:Bsp/periph_gpio.c **** {
 1728              		.loc 1 441 0
 1729              		.cfi_startproc
 1730              		@ args = 0, pretend = 0, frame = 8
 1731              		@ frame_needed = 0, uses_anonymous_args = 0
 1732 0000 00B5     		push	{lr}
 1733              	.LCFI78:
 1734              		.cfi_def_cfa_offset 4
 1735              		.cfi_offset 14, -4
 1736 0002 83B0     		sub	sp, sp, #12
 1737              	.LCFI79:
 1738              		.cfi_def_cfa_offset 16
 442:Bsp/periph_gpio.c **** 	GPIO_InitTypeDef GPIO_InitStructure;
 443:Bsp/periph_gpio.c **** 
 444:Bsp/periph_gpio.c **** 	RCC_AHB1PeriphClockCmd(ADC1_Channel7_IO_CLK, ENABLE);
 1739              		.loc 1 444 0
 1740 0004 0121     		movs	r1, #1
 1741 0006 0846     		mov	r0, r1
 1742 0008 FFF7FEFF 		bl	RCC_AHB1PeriphClockCmd
 1743              	.LVL89:
 445:Bsp/periph_gpio.c **** 	RCC_APB2PeriphClockCmd(RCC_APB2Periph_ADC1, ENABLE);
 1744              		.loc 1 445 0
 1745 000c 0121     		movs	r1, #1
 1746 000e 4FF48070 		mov	r0, #256
 1747 0012 FFF7FEFF 		bl	RCC_APB2PeriphClockCmd
 1748              	.LVL90:
 446:Bsp/periph_gpio.c **** 
 447:Bsp/periph_gpio.c **** 	GPIO_InitStructure.GPIO_Mode = GPIO_Mode_AN;
 1749              		.loc 1 447 0
 1750 0016 0323     		movs	r3, #3
 1751 0018 8DF80430 		strb	r3, [sp, #4]
 448:Bsp/periph_gpio.c **** 	GPIO_InitStructure.GPIO_Pin = ADC1_Channel7_IO_Pin;
 1752              		.loc 1 448 0
 1753 001c 8023     		movs	r3, #128
 1754 001e 0093     		str	r3, [sp]
 449:Bsp/periph_gpio.c **** 	GPIO_InitStructure.GPIO_PuPd = GPIO_PuPd_NOPULL;
 1755              		.loc 1 449 0
 1756 0020 0023     		movs	r3, #0
 1757 0022 8DF80730 		strb	r3, [sp, #7]
 450:Bsp/periph_gpio.c **** 
 451:Bsp/periph_gpio.c **** 	GPIO_Init(ADC1_Channel7_Port, &GPIO_InitStructure);
 1758              		.loc 1 451 0
 1759 0026 6946     		mov	r1, sp
 1760 0028 0248     		ldr	r0, .L107
 1761 002a FFF7FEFF 		bl	GPIO_Init
 1762              	.LVL91:
 452:Bsp/periph_gpio.c **** }
 1763              		.loc 1 452 0
 1764 002e 03B0     		add	sp, sp, #12
 1765              	.LCFI80:
 1766              		.cfi_def_cfa_offset 4
 1767              		@ sp needed
ARM GAS  C:\Users\ADMINI~1\AppData\Local\Temp\cc2CG9la.s 			page 39


 1768 0030 5DF804FB 		ldr	pc, [sp], #4
 1769              	.L108:
 1770              		.align	2
 1771              	.L107:
 1772 0034 00000240 		.word	1073872896
 1773              		.cfi_endproc
 1774              	.LFE149:
 1776              		.section	.text.GPIO_ADC1_Channel8_IO_Init,"ax",%progbits
 1777              		.align	2
 1778              		.global	GPIO_ADC1_Channel8_IO_Init
 1779              		.thumb
 1780              		.thumb_func
 1782              	GPIO_ADC1_Channel8_IO_Init:
 1783              	.LFB150:
 453:Bsp/periph_gpio.c **** 
 454:Bsp/periph_gpio.c **** void GPIO_ADC1_Channel8_IO_Init(void)
 455:Bsp/periph_gpio.c **** {
 1784              		.loc 1 455 0
 1785              		.cfi_startproc
 1786              		@ args = 0, pretend = 0, frame = 8
 1787              		@ frame_needed = 0, uses_anonymous_args = 0
 1788 0000 00B5     		push	{lr}
 1789              	.LCFI81:
 1790              		.cfi_def_cfa_offset 4
 1791              		.cfi_offset 14, -4
 1792 0002 83B0     		sub	sp, sp, #12
 1793              	.LCFI82:
 1794              		.cfi_def_cfa_offset 16
 456:Bsp/periph_gpio.c **** 	GPIO_InitTypeDef GPIO_InitStructure;
 457:Bsp/periph_gpio.c **** 
 458:Bsp/periph_gpio.c **** 	RCC_AHB1PeriphClockCmd(ADC1_Channel8_IO_CLK, ENABLE);
 1795              		.loc 1 458 0
 1796 0004 0121     		movs	r1, #1
 1797 0006 0220     		movs	r0, #2
 1798 0008 FFF7FEFF 		bl	RCC_AHB1PeriphClockCmd
 1799              	.LVL92:
 459:Bsp/periph_gpio.c **** 	RCC_APB2PeriphClockCmd(RCC_APB2Periph_ADC1, ENABLE);
 1800              		.loc 1 459 0
 1801 000c 0121     		movs	r1, #1
 1802 000e 4FF48070 		mov	r0, #256
 1803 0012 FFF7FEFF 		bl	RCC_APB2PeriphClockCmd
 1804              	.LVL93:
 460:Bsp/periph_gpio.c **** 
 461:Bsp/periph_gpio.c **** 	GPIO_InitStructure.GPIO_Mode = GPIO_Mode_AN;
 1805              		.loc 1 461 0
 1806 0016 0323     		movs	r3, #3
 1807 0018 8DF80430 		strb	r3, [sp, #4]
 462:Bsp/periph_gpio.c **** 	GPIO_InitStructure.GPIO_Pin = ADC1_Channel8_IO_Pin;
 1808              		.loc 1 462 0
 1809 001c 0123     		movs	r3, #1
 1810 001e 0093     		str	r3, [sp]
 463:Bsp/periph_gpio.c **** 	GPIO_InitStructure.GPIO_PuPd = GPIO_PuPd_NOPULL;
 1811              		.loc 1 463 0
 1812 0020 0023     		movs	r3, #0
 1813 0022 8DF80730 		strb	r3, [sp, #7]
 464:Bsp/periph_gpio.c **** 
 465:Bsp/periph_gpio.c **** 	GPIO_Init(ADC1_Channel8_Port, &GPIO_InitStructure);
ARM GAS  C:\Users\ADMINI~1\AppData\Local\Temp\cc2CG9la.s 			page 40


 1814              		.loc 1 465 0
 1815 0026 6946     		mov	r1, sp
 1816 0028 0248     		ldr	r0, .L111
 1817 002a FFF7FEFF 		bl	GPIO_Init
 1818              	.LVL94:
 466:Bsp/periph_gpio.c **** }
 1819              		.loc 1 466 0
 1820 002e 03B0     		add	sp, sp, #12
 1821              	.LCFI83:
 1822              		.cfi_def_cfa_offset 4
 1823              		@ sp needed
 1824 0030 5DF804FB 		ldr	pc, [sp], #4
 1825              	.L112:
 1826              		.align	2
 1827              	.L111:
 1828 0034 00040240 		.word	1073873920
 1829              		.cfi_endproc
 1830              	.LFE150:
 1832              		.section	.text.GPIO_ADC1_Channel9_IO_Init,"ax",%progbits
 1833              		.align	2
 1834              		.global	GPIO_ADC1_Channel9_IO_Init
 1835              		.thumb
 1836              		.thumb_func
 1838              	GPIO_ADC1_Channel9_IO_Init:
 1839              	.LFB151:
 467:Bsp/periph_gpio.c **** 
 468:Bsp/periph_gpio.c **** void GPIO_ADC1_Channel9_IO_Init(void)
 469:Bsp/periph_gpio.c **** {
 1840              		.loc 1 469 0
 1841              		.cfi_startproc
 1842              		@ args = 0, pretend = 0, frame = 8
 1843              		@ frame_needed = 0, uses_anonymous_args = 0
 1844 0000 00B5     		push	{lr}
 1845              	.LCFI84:
 1846              		.cfi_def_cfa_offset 4
 1847              		.cfi_offset 14, -4
 1848 0002 83B0     		sub	sp, sp, #12
 1849              	.LCFI85:
 1850              		.cfi_def_cfa_offset 16
 470:Bsp/periph_gpio.c **** 	GPIO_InitTypeDef GPIO_InitStructure;
 471:Bsp/periph_gpio.c **** 
 472:Bsp/periph_gpio.c **** 	RCC_AHB1PeriphClockCmd(ADC1_Channel9_IO_CLK, ENABLE);
 1851              		.loc 1 472 0
 1852 0004 0121     		movs	r1, #1
 1853 0006 0220     		movs	r0, #2
 1854 0008 FFF7FEFF 		bl	RCC_AHB1PeriphClockCmd
 1855              	.LVL95:
 473:Bsp/periph_gpio.c **** 	RCC_APB2PeriphClockCmd(RCC_APB2Periph_ADC1, ENABLE);
 1856              		.loc 1 473 0
 1857 000c 0121     		movs	r1, #1
 1858 000e 4FF48070 		mov	r0, #256
 1859 0012 FFF7FEFF 		bl	RCC_APB2PeriphClockCmd
 1860              	.LVL96:
 474:Bsp/periph_gpio.c **** 
 475:Bsp/periph_gpio.c **** 	GPIO_InitStructure.GPIO_Mode = GPIO_Mode_AN;
 1861              		.loc 1 475 0
 1862 0016 0323     		movs	r3, #3
ARM GAS  C:\Users\ADMINI~1\AppData\Local\Temp\cc2CG9la.s 			page 41


 1863 0018 8DF80430 		strb	r3, [sp, #4]
 476:Bsp/periph_gpio.c **** 	GPIO_InitStructure.GPIO_Pin = ADC1_Channel9_IO_Pin;
 1864              		.loc 1 476 0
 1865 001c 0223     		movs	r3, #2
 1866 001e 0093     		str	r3, [sp]
 477:Bsp/periph_gpio.c **** 	GPIO_InitStructure.GPIO_PuPd = GPIO_PuPd_NOPULL;
 1867              		.loc 1 477 0
 1868 0020 0023     		movs	r3, #0
 1869 0022 8DF80730 		strb	r3, [sp, #7]
 478:Bsp/periph_gpio.c **** 
 479:Bsp/periph_gpio.c **** 	GPIO_Init(ADC1_Channel9_Port, &GPIO_InitStructure);
 1870              		.loc 1 479 0
 1871 0026 6946     		mov	r1, sp
 1872 0028 0248     		ldr	r0, .L115
 1873 002a FFF7FEFF 		bl	GPIO_Init
 1874              	.LVL97:
 480:Bsp/periph_gpio.c **** }
 1875              		.loc 1 480 0
 1876 002e 03B0     		add	sp, sp, #12
 1877              	.LCFI86:
 1878              		.cfi_def_cfa_offset 4
 1879              		@ sp needed
 1880 0030 5DF804FB 		ldr	pc, [sp], #4
 1881              	.L116:
 1882              		.align	2
 1883              	.L115:
 1884 0034 00040240 		.word	1073873920
 1885              		.cfi_endproc
 1886              	.LFE151:
 1888              		.section	.text.GPIO_ADC1_Channel10_IO_Init,"ax",%progbits
 1889              		.align	2
 1890              		.global	GPIO_ADC1_Channel10_IO_Init
 1891              		.thumb
 1892              		.thumb_func
 1894              	GPIO_ADC1_Channel10_IO_Init:
 1895              	.LFB152:
 481:Bsp/periph_gpio.c **** 
 482:Bsp/periph_gpio.c **** void GPIO_ADC1_Channel10_IO_Init(void)
 483:Bsp/periph_gpio.c **** {
 1896              		.loc 1 483 0
 1897              		.cfi_startproc
 1898              		@ args = 0, pretend = 0, frame = 8
 1899              		@ frame_needed = 0, uses_anonymous_args = 0
 1900 0000 00B5     		push	{lr}
 1901              	.LCFI87:
 1902              		.cfi_def_cfa_offset 4
 1903              		.cfi_offset 14, -4
 1904 0002 83B0     		sub	sp, sp, #12
 1905              	.LCFI88:
 1906              		.cfi_def_cfa_offset 16
 484:Bsp/periph_gpio.c **** 	GPIO_InitTypeDef GPIO_InitStructure;
 485:Bsp/periph_gpio.c **** 
 486:Bsp/periph_gpio.c **** 	RCC_AHB1PeriphClockCmd(ADC1_Channel10_IO_CLK, ENABLE);
 1907              		.loc 1 486 0
 1908 0004 0121     		movs	r1, #1
 1909 0006 0420     		movs	r0, #4
 1910 0008 FFF7FEFF 		bl	RCC_AHB1PeriphClockCmd
ARM GAS  C:\Users\ADMINI~1\AppData\Local\Temp\cc2CG9la.s 			page 42


 1911              	.LVL98:
 487:Bsp/periph_gpio.c **** 	RCC_APB2PeriphClockCmd(RCC_APB2Periph_ADC1, ENABLE);
 1912              		.loc 1 487 0
 1913 000c 0121     		movs	r1, #1
 1914 000e 4FF48070 		mov	r0, #256
 1915 0012 FFF7FEFF 		bl	RCC_APB2PeriphClockCmd
 1916              	.LVL99:
 488:Bsp/periph_gpio.c **** 
 489:Bsp/periph_gpio.c **** 	GPIO_InitStructure.GPIO_Mode = GPIO_Mode_AN;
 1917              		.loc 1 489 0
 1918 0016 0323     		movs	r3, #3
 1919 0018 8DF80430 		strb	r3, [sp, #4]
 490:Bsp/periph_gpio.c **** 	GPIO_InitStructure.GPIO_Pin = ADC1_Channel10_IO_Pin;
 1920              		.loc 1 490 0
 1921 001c 0123     		movs	r3, #1
 1922 001e 0093     		str	r3, [sp]
 491:Bsp/periph_gpio.c **** 	GPIO_InitStructure.GPIO_PuPd = GPIO_PuPd_NOPULL;
 1923              		.loc 1 491 0
 1924 0020 0023     		movs	r3, #0
 1925 0022 8DF80730 		strb	r3, [sp, #7]
 492:Bsp/periph_gpio.c **** 
 493:Bsp/periph_gpio.c **** 	GPIO_Init(ADC1_Channel10_Port, &GPIO_InitStructure);
 1926              		.loc 1 493 0
 1927 0026 6946     		mov	r1, sp
 1928 0028 0248     		ldr	r0, .L119
 1929 002a FFF7FEFF 		bl	GPIO_Init
 1930              	.LVL100:
 494:Bsp/periph_gpio.c **** }
 1931              		.loc 1 494 0
 1932 002e 03B0     		add	sp, sp, #12
 1933              	.LCFI89:
 1934              		.cfi_def_cfa_offset 4
 1935              		@ sp needed
 1936 0030 5DF804FB 		ldr	pc, [sp], #4
 1937              	.L120:
 1938              		.align	2
 1939              	.L119:
 1940 0034 00080240 		.word	1073874944
 1941              		.cfi_endproc
 1942              	.LFE152:
 1944              		.section	.text.GPIO_ADC1_Channel11_IO_Init,"ax",%progbits
 1945              		.align	2
 1946              		.global	GPIO_ADC1_Channel11_IO_Init
 1947              		.thumb
 1948              		.thumb_func
 1950              	GPIO_ADC1_Channel11_IO_Init:
 1951              	.LFB153:
 495:Bsp/periph_gpio.c **** 
 496:Bsp/periph_gpio.c **** void GPIO_ADC1_Channel11_IO_Init(void)
 497:Bsp/periph_gpio.c **** {
 1952              		.loc 1 497 0
 1953              		.cfi_startproc
 1954              		@ args = 0, pretend = 0, frame = 8
 1955              		@ frame_needed = 0, uses_anonymous_args = 0
 1956 0000 00B5     		push	{lr}
 1957              	.LCFI90:
 1958              		.cfi_def_cfa_offset 4
ARM GAS  C:\Users\ADMINI~1\AppData\Local\Temp\cc2CG9la.s 			page 43


 1959              		.cfi_offset 14, -4
 1960 0002 83B0     		sub	sp, sp, #12
 1961              	.LCFI91:
 1962              		.cfi_def_cfa_offset 16
 498:Bsp/periph_gpio.c **** 	GPIO_InitTypeDef GPIO_InitStructure;
 499:Bsp/periph_gpio.c **** 
 500:Bsp/periph_gpio.c **** 	RCC_AHB1PeriphClockCmd(ADC1_Channel11_IO_CLK, ENABLE);
 1963              		.loc 1 500 0
 1964 0004 0121     		movs	r1, #1
 1965 0006 0420     		movs	r0, #4
 1966 0008 FFF7FEFF 		bl	RCC_AHB1PeriphClockCmd
 1967              	.LVL101:
 501:Bsp/periph_gpio.c **** 	RCC_APB2PeriphClockCmd(RCC_APB2Periph_ADC1, ENABLE);
 1968              		.loc 1 501 0
 1969 000c 0121     		movs	r1, #1
 1970 000e 4FF48070 		mov	r0, #256
 1971 0012 FFF7FEFF 		bl	RCC_APB2PeriphClockCmd
 1972              	.LVL102:
 502:Bsp/periph_gpio.c **** 
 503:Bsp/periph_gpio.c **** 	GPIO_InitStructure.GPIO_Mode = GPIO_Mode_AN;
 1973              		.loc 1 503 0
 1974 0016 0323     		movs	r3, #3
 1975 0018 8DF80430 		strb	r3, [sp, #4]
 504:Bsp/periph_gpio.c **** 	GPIO_InitStructure.GPIO_Pin = ADC1_Channel11_IO_Pin;
 1976              		.loc 1 504 0
 1977 001c 0223     		movs	r3, #2
 1978 001e 0093     		str	r3, [sp]
 505:Bsp/periph_gpio.c **** 	GPIO_InitStructure.GPIO_PuPd = GPIO_PuPd_NOPULL;
 1979              		.loc 1 505 0
 1980 0020 0023     		movs	r3, #0
 1981 0022 8DF80730 		strb	r3, [sp, #7]
 506:Bsp/periph_gpio.c **** 
 507:Bsp/periph_gpio.c **** 	GPIO_Init(ADC1_Channel11_Port, &GPIO_InitStructure);
 1982              		.loc 1 507 0
 1983 0026 6946     		mov	r1, sp
 1984 0028 0248     		ldr	r0, .L123
 1985 002a FFF7FEFF 		bl	GPIO_Init
 1986              	.LVL103:
 508:Bsp/periph_gpio.c **** }
 1987              		.loc 1 508 0
 1988 002e 03B0     		add	sp, sp, #12
 1989              	.LCFI92:
 1990              		.cfi_def_cfa_offset 4
 1991              		@ sp needed
 1992 0030 5DF804FB 		ldr	pc, [sp], #4
 1993              	.L124:
 1994              		.align	2
 1995              	.L123:
 1996 0034 00080240 		.word	1073874944
 1997              		.cfi_endproc
 1998              	.LFE153:
 2000              		.section	.text.GPIO_ADC1_Channel12_IO_Init,"ax",%progbits
 2001              		.align	2
 2002              		.global	GPIO_ADC1_Channel12_IO_Init
 2003              		.thumb
 2004              		.thumb_func
 2006              	GPIO_ADC1_Channel12_IO_Init:
ARM GAS  C:\Users\ADMINI~1\AppData\Local\Temp\cc2CG9la.s 			page 44


 2007              	.LFB154:
 509:Bsp/periph_gpio.c **** 
 510:Bsp/periph_gpio.c **** void GPIO_ADC1_Channel12_IO_Init(void)
 511:Bsp/periph_gpio.c **** {
 2008              		.loc 1 511 0
 2009              		.cfi_startproc
 2010              		@ args = 0, pretend = 0, frame = 8
 2011              		@ frame_needed = 0, uses_anonymous_args = 0
 2012 0000 00B5     		push	{lr}
 2013              	.LCFI93:
 2014              		.cfi_def_cfa_offset 4
 2015              		.cfi_offset 14, -4
 2016 0002 83B0     		sub	sp, sp, #12
 2017              	.LCFI94:
 2018              		.cfi_def_cfa_offset 16
 512:Bsp/periph_gpio.c **** 	GPIO_InitTypeDef GPIO_InitStructure;
 513:Bsp/periph_gpio.c **** 
 514:Bsp/periph_gpio.c **** 	RCC_AHB1PeriphClockCmd(ADC1_Channel12_IO_CLK, ENABLE);
 2019              		.loc 1 514 0
 2020 0004 0121     		movs	r1, #1
 2021 0006 0420     		movs	r0, #4
 2022 0008 FFF7FEFF 		bl	RCC_AHB1PeriphClockCmd
 2023              	.LVL104:
 515:Bsp/periph_gpio.c **** 	RCC_APB2PeriphClockCmd(RCC_APB2Periph_ADC1, ENABLE);
 2024              		.loc 1 515 0
 2025 000c 0121     		movs	r1, #1
 2026 000e 4FF48070 		mov	r0, #256
 2027 0012 FFF7FEFF 		bl	RCC_APB2PeriphClockCmd
 2028              	.LVL105:
 516:Bsp/periph_gpio.c **** 
 517:Bsp/periph_gpio.c **** 	GPIO_InitStructure.GPIO_Mode = GPIO_Mode_AN;
 2029              		.loc 1 517 0
 2030 0016 0323     		movs	r3, #3
 2031 0018 8DF80430 		strb	r3, [sp, #4]
 518:Bsp/periph_gpio.c **** 	GPIO_InitStructure.GPIO_Pin = ADC1_Channel12_IO_Pin;
 2032              		.loc 1 518 0
 2033 001c 0423     		movs	r3, #4
 2034 001e 0093     		str	r3, [sp]
 519:Bsp/periph_gpio.c **** 	GPIO_InitStructure.GPIO_PuPd = GPIO_PuPd_NOPULL;
 2035              		.loc 1 519 0
 2036 0020 0023     		movs	r3, #0
 2037 0022 8DF80730 		strb	r3, [sp, #7]
 520:Bsp/periph_gpio.c **** 
 521:Bsp/periph_gpio.c **** 	GPIO_Init(ADC1_Channel12_Port, &GPIO_InitStructure);
 2038              		.loc 1 521 0
 2039 0026 6946     		mov	r1, sp
 2040 0028 0248     		ldr	r0, .L127
 2041 002a FFF7FEFF 		bl	GPIO_Init
 2042              	.LVL106:
 522:Bsp/periph_gpio.c **** }
 2043              		.loc 1 522 0
 2044 002e 03B0     		add	sp, sp, #12
 2045              	.LCFI95:
 2046              		.cfi_def_cfa_offset 4
 2047              		@ sp needed
 2048 0030 5DF804FB 		ldr	pc, [sp], #4
 2049              	.L128:
ARM GAS  C:\Users\ADMINI~1\AppData\Local\Temp\cc2CG9la.s 			page 45


 2050              		.align	2
 2051              	.L127:
 2052 0034 00080240 		.word	1073874944
 2053              		.cfi_endproc
 2054              	.LFE154:
 2056              		.section	.text.GPIO_ADC1_Channel13_IO_Init,"ax",%progbits
 2057              		.align	2
 2058              		.global	GPIO_ADC1_Channel13_IO_Init
 2059              		.thumb
 2060              		.thumb_func
 2062              	GPIO_ADC1_Channel13_IO_Init:
 2063              	.LFB155:
 523:Bsp/periph_gpio.c **** 
 524:Bsp/periph_gpio.c **** void GPIO_ADC1_Channel13_IO_Init(void)
 525:Bsp/periph_gpio.c **** {
 2064              		.loc 1 525 0
 2065              		.cfi_startproc
 2066              		@ args = 0, pretend = 0, frame = 8
 2067              		@ frame_needed = 0, uses_anonymous_args = 0
 2068 0000 00B5     		push	{lr}
 2069              	.LCFI96:
 2070              		.cfi_def_cfa_offset 4
 2071              		.cfi_offset 14, -4
 2072 0002 83B0     		sub	sp, sp, #12
 2073              	.LCFI97:
 2074              		.cfi_def_cfa_offset 16
 526:Bsp/periph_gpio.c **** 	GPIO_InitTypeDef GPIO_InitStructure;
 527:Bsp/periph_gpio.c **** 
 528:Bsp/periph_gpio.c **** 	RCC_AHB1PeriphClockCmd(ADC1_Channel13_IO_CLK, ENABLE);
 2075              		.loc 1 528 0
 2076 0004 0121     		movs	r1, #1
 2077 0006 0420     		movs	r0, #4
 2078 0008 FFF7FEFF 		bl	RCC_AHB1PeriphClockCmd
 2079              	.LVL107:
 529:Bsp/periph_gpio.c **** 	RCC_APB2PeriphClockCmd(RCC_APB2Periph_ADC1, ENABLE);
 2080              		.loc 1 529 0
 2081 000c 0121     		movs	r1, #1
 2082 000e 4FF48070 		mov	r0, #256
 2083 0012 FFF7FEFF 		bl	RCC_APB2PeriphClockCmd
 2084              	.LVL108:
 530:Bsp/periph_gpio.c **** 
 531:Bsp/periph_gpio.c **** 	GPIO_InitStructure.GPIO_Mode = GPIO_Mode_AN;
 2085              		.loc 1 531 0
 2086 0016 0323     		movs	r3, #3
 2087 0018 8DF80430 		strb	r3, [sp, #4]
 532:Bsp/periph_gpio.c **** 	GPIO_InitStructure.GPIO_Pin = ADC1_Channel13_IO_Pin;
 2088              		.loc 1 532 0
 2089 001c 4FF40053 		mov	r3, #8192
 2090 0020 0093     		str	r3, [sp]
 533:Bsp/periph_gpio.c **** 	GPIO_InitStructure.GPIO_PuPd = GPIO_PuPd_NOPULL;
 2091              		.loc 1 533 0
 2092 0022 0023     		movs	r3, #0
 2093 0024 8DF80730 		strb	r3, [sp, #7]
 534:Bsp/periph_gpio.c **** 
 535:Bsp/periph_gpio.c **** 	GPIO_Init(ADC1_Channel13_Port, &GPIO_InitStructure);
 2094              		.loc 1 535 0
 2095 0028 6946     		mov	r1, sp
ARM GAS  C:\Users\ADMINI~1\AppData\Local\Temp\cc2CG9la.s 			page 46


 2096 002a 0348     		ldr	r0, .L131
 2097 002c FFF7FEFF 		bl	GPIO_Init
 2098              	.LVL109:
 536:Bsp/periph_gpio.c **** }
 2099              		.loc 1 536 0
 2100 0030 03B0     		add	sp, sp, #12
 2101              	.LCFI98:
 2102              		.cfi_def_cfa_offset 4
 2103              		@ sp needed
 2104 0032 5DF804FB 		ldr	pc, [sp], #4
 2105              	.L132:
 2106 0036 00BF     		.align	2
 2107              	.L131:
 2108 0038 00080240 		.word	1073874944
 2109              		.cfi_endproc
 2110              	.LFE155:
 2112              		.section	.text.GPIO_ADC1_Channel14_IO_Init,"ax",%progbits
 2113              		.align	2
 2114              		.global	GPIO_ADC1_Channel14_IO_Init
 2115              		.thumb
 2116              		.thumb_func
 2118              	GPIO_ADC1_Channel14_IO_Init:
 2119              	.LFB156:
 537:Bsp/periph_gpio.c **** 
 538:Bsp/periph_gpio.c **** void GPIO_ADC1_Channel14_IO_Init(void)
 539:Bsp/periph_gpio.c **** {
 2120              		.loc 1 539 0
 2121              		.cfi_startproc
 2122              		@ args = 0, pretend = 0, frame = 8
 2123              		@ frame_needed = 0, uses_anonymous_args = 0
 2124 0000 00B5     		push	{lr}
 2125              	.LCFI99:
 2126              		.cfi_def_cfa_offset 4
 2127              		.cfi_offset 14, -4
 2128 0002 83B0     		sub	sp, sp, #12
 2129              	.LCFI100:
 2130              		.cfi_def_cfa_offset 16
 540:Bsp/periph_gpio.c **** 	GPIO_InitTypeDef GPIO_InitStructure;
 541:Bsp/periph_gpio.c **** 
 542:Bsp/periph_gpio.c **** 	RCC_AHB1PeriphClockCmd(ADC1_Channel14_IO_CLK, ENABLE);
 2131              		.loc 1 542 0
 2132 0004 0121     		movs	r1, #1
 2133 0006 0420     		movs	r0, #4
 2134 0008 FFF7FEFF 		bl	RCC_AHB1PeriphClockCmd
 2135              	.LVL110:
 543:Bsp/periph_gpio.c **** 	RCC_APB2PeriphClockCmd(RCC_APB2Periph_ADC1, ENABLE);
 2136              		.loc 1 543 0
 2137 000c 0121     		movs	r1, #1
 2138 000e 4FF48070 		mov	r0, #256
 2139 0012 FFF7FEFF 		bl	RCC_APB2PeriphClockCmd
 2140              	.LVL111:
 544:Bsp/periph_gpio.c **** 
 545:Bsp/periph_gpio.c **** 	GPIO_InitStructure.GPIO_Mode = GPIO_Mode_AN;
 2141              		.loc 1 545 0
 2142 0016 0323     		movs	r3, #3
 2143 0018 8DF80430 		strb	r3, [sp, #4]
 546:Bsp/periph_gpio.c **** 	GPIO_InitStructure.GPIO_Pin = ADC1_Channel14_IO_Pin;
ARM GAS  C:\Users\ADMINI~1\AppData\Local\Temp\cc2CG9la.s 			page 47


 2144              		.loc 1 546 0
 2145 001c 1023     		movs	r3, #16
 2146 001e 0093     		str	r3, [sp]
 547:Bsp/periph_gpio.c **** 	GPIO_InitStructure.GPIO_PuPd = GPIO_PuPd_NOPULL;
 2147              		.loc 1 547 0
 2148 0020 0023     		movs	r3, #0
 2149 0022 8DF80730 		strb	r3, [sp, #7]
 548:Bsp/periph_gpio.c **** 
 549:Bsp/periph_gpio.c **** 	GPIO_Init(ADC1_Channel14_Port, &GPIO_InitStructure);
 2150              		.loc 1 549 0
 2151 0026 6946     		mov	r1, sp
 2152 0028 0248     		ldr	r0, .L135
 2153 002a FFF7FEFF 		bl	GPIO_Init
 2154              	.LVL112:
 550:Bsp/periph_gpio.c **** }
 2155              		.loc 1 550 0
 2156 002e 03B0     		add	sp, sp, #12
 2157              	.LCFI101:
 2158              		.cfi_def_cfa_offset 4
 2159              		@ sp needed
 2160 0030 5DF804FB 		ldr	pc, [sp], #4
 2161              	.L136:
 2162              		.align	2
 2163              	.L135:
 2164 0034 00080240 		.word	1073874944
 2165              		.cfi_endproc
 2166              	.LFE156:
 2168              		.section	.text.GPIO_IIC1_IO_Init,"ax",%progbits
 2169              		.align	2
 2170              		.global	GPIO_IIC1_IO_Init
 2171              		.thumb
 2172              		.thumb_func
 2174              	GPIO_IIC1_IO_Init:
 2175              	.LFB157:
 551:Bsp/periph_gpio.c **** 
 552:Bsp/periph_gpio.c **** void GPIO_IIC1_IO_Init(void)
 553:Bsp/periph_gpio.c **** {
 2176              		.loc 1 553 0
 2177              		.cfi_startproc
 2178              		@ args = 0, pretend = 0, frame = 0
 2179              		@ frame_needed = 0, uses_anonymous_args = 0
 2180              		@ link register save eliminated.
 2181 0000 7047     		bx	lr
 2182              		.cfi_endproc
 2183              	.LFE157:
 2185 0002 00BF     		.section	.text.GPIO_IIC2_IO_Init,"ax",%progbits
 2186              		.align	2
 2187              		.global	GPIO_IIC2_IO_Init
 2188              		.thumb
 2189              		.thumb_func
 2191              	GPIO_IIC2_IO_Init:
 2192              	.LFB158:
 554:Bsp/periph_gpio.c **** }
 555:Bsp/periph_gpio.c **** 
 556:Bsp/periph_gpio.c **** void GPIO_IIC2_IO_Init(void)
 557:Bsp/periph_gpio.c **** {
 2193              		.loc 1 557 0
ARM GAS  C:\Users\ADMINI~1\AppData\Local\Temp\cc2CG9la.s 			page 48


 2194              		.cfi_startproc
 2195              		@ args = 0, pretend = 0, frame = 0
 2196              		@ frame_needed = 0, uses_anonymous_args = 0
 2197              		@ link register save eliminated.
 2198 0000 7047     		bx	lr
 2199              		.cfi_endproc
 2200              	.LFE158:
 2202 0002 00BF     		.section	.text.GPIO_IO_Encoder_Init,"ax",%progbits
 2203              		.align	2
 2204              		.global	GPIO_IO_Encoder_Init
 2205              		.thumb
 2206              		.thumb_func
 2208              	GPIO_IO_Encoder_Init:
 2209              	.LFB159:
 558:Bsp/periph_gpio.c **** }
 559:Bsp/periph_gpio.c **** 
 560:Bsp/periph_gpio.c **** void GPIO_IO_Encoder_Init(GPIO_TypeDef *Portx, uint32_t GPIO_CLK, uint16_t pin, uint8_t pin_src, ui
 561:Bsp/periph_gpio.c **** {
 2210              		.loc 1 561 0
 2211              		.cfi_startproc
 2212              		@ args = 4, pretend = 0, frame = 8
 2213              		@ frame_needed = 0, uses_anonymous_args = 0
 2214              	.LVL113:
 2215              		.loc 1 561 0
 2216 0000 70B5     		push	{r4, r5, r6, lr}
 2217              	.LCFI102:
 2218              		.cfi_def_cfa_offset 16
 2219              		.cfi_offset 4, -16
 2220              		.cfi_offset 5, -12
 2221              		.cfi_offset 6, -8
 2222              		.cfi_offset 14, -4
 2223 0002 82B0     		sub	sp, sp, #8
 2224              	.LCFI103:
 2225              		.cfi_def_cfa_offset 24
 2226 0004 0446     		mov	r4, r0
 2227 0006 0846     		mov	r0, r1
 2228              	.LVL114:
 2229 0008 1546     		mov	r5, r2
 2230 000a 1E46     		mov	r6, r3
 562:Bsp/periph_gpio.c **** 	GPIO_InitTypeDef GPIO_InitStructure;
 563:Bsp/periph_gpio.c **** 
 564:Bsp/periph_gpio.c **** 	RCC_AHB1PeriphClockCmd(GPIO_CLK, ENABLE);
 2231              		.loc 1 564 0
 2232 000c 0121     		movs	r1, #1
 2233              	.LVL115:
 2234 000e FFF7FEFF 		bl	RCC_AHB1PeriphClockCmd
 2235              	.LVL116:
 565:Bsp/periph_gpio.c **** 
 566:Bsp/periph_gpio.c **** 	GPIO_PinAFConfig(Portx, pin_src, GPIO_AF_TIMx);
 2236              		.loc 1 566 0
 2237 0012 9DF81820 		ldrb	r2, [sp, #24]	@ zero_extendqisi2
 2238 0016 3146     		mov	r1, r6
 2239 0018 2046     		mov	r0, r4
 2240 001a FFF7FEFF 		bl	GPIO_PinAFConfig
 2241              	.LVL117:
 567:Bsp/periph_gpio.c **** 
 568:Bsp/periph_gpio.c **** 	GPIO_InitStructure.GPIO_Pin = pin;
ARM GAS  C:\Users\ADMINI~1\AppData\Local\Temp\cc2CG9la.s 			page 49


 2242              		.loc 1 568 0
 2243 001e 0095     		str	r5, [sp]
 569:Bsp/periph_gpio.c **** 	GPIO_InitStructure.GPIO_Mode = GPIO_Mode_AF;
 2244              		.loc 1 569 0
 2245 0020 0223     		movs	r3, #2
 2246 0022 8DF80430 		strb	r3, [sp, #4]
 570:Bsp/periph_gpio.c **** 	GPIO_InitStructure.GPIO_PuPd = GPIO_PuPd_NOPULL;
 2247              		.loc 1 570 0
 2248 0026 0022     		movs	r2, #0
 2249 0028 8DF80720 		strb	r2, [sp, #7]
 571:Bsp/periph_gpio.c **** 	GPIO_InitStructure.GPIO_Speed = GPIO_Speed_50MHz;
 2250              		.loc 1 571 0
 2251 002c 8DF80530 		strb	r3, [sp, #5]
 572:Bsp/periph_gpio.c **** 	GPIO_InitStructure.GPIO_OType = GPIO_OType_OD;
 2252              		.loc 1 572 0
 2253 0030 0123     		movs	r3, #1
 2254 0032 8DF80630 		strb	r3, [sp, #6]
 573:Bsp/periph_gpio.c **** 
 574:Bsp/periph_gpio.c **** 	GPIO_Init(Portx, &GPIO_InitStructure);
 2255              		.loc 1 574 0
 2256 0036 6946     		mov	r1, sp
 2257 0038 2046     		mov	r0, r4
 2258 003a FFF7FEFF 		bl	GPIO_Init
 2259              	.LVL118:
 575:Bsp/periph_gpio.c **** }
 2260              		.loc 1 575 0
 2261 003e 02B0     		add	sp, sp, #8
 2262              	.LCFI104:
 2263              		.cfi_def_cfa_offset 16
 2264              		@ sp needed
 2265 0040 70BD     		pop	{r4, r5, r6, pc}
 2266              		.cfi_endproc
 2267              	.LFE159:
 2269 0042 00BF     		.section	.text.GPIO_IO_Output_Init,"ax",%progbits
 2270              		.align	2
 2271              		.global	GPIO_IO_Output_Init
 2272              		.thumb
 2273              		.thumb_func
 2275              	GPIO_IO_Output_Init:
 2276              	.LFB160:
 576:Bsp/periph_gpio.c **** 
 577:Bsp/periph_gpio.c **** void GPIO_IO_Output_Init(uint32_t RCC_AHBCLK, uint16_t pin, GPIO_TypeDef *GPIO_Port)
 578:Bsp/periph_gpio.c **** {
 2277              		.loc 1 578 0
 2278              		.cfi_startproc
 2279              		@ args = 0, pretend = 0, frame = 8
 2280              		@ frame_needed = 0, uses_anonymous_args = 0
 2281              	.LVL119:
 2282 0000 30B5     		push	{r4, r5, lr}
 2283              	.LCFI105:
 2284              		.cfi_def_cfa_offset 12
 2285              		.cfi_offset 4, -12
 2286              		.cfi_offset 5, -8
 2287              		.cfi_offset 14, -4
 2288 0002 83B0     		sub	sp, sp, #12
 2289              	.LCFI106:
 2290              		.cfi_def_cfa_offset 24
ARM GAS  C:\Users\ADMINI~1\AppData\Local\Temp\cc2CG9la.s 			page 50


 2291 0004 0D46     		mov	r5, r1
 2292 0006 1446     		mov	r4, r2
 579:Bsp/periph_gpio.c **** 	GPIO_InitTypeDef GPIO_InitStructure;
 580:Bsp/periph_gpio.c **** 	RCC_AHB1PeriphClockCmd(RCC_AHBCLK, ENABLE);
 2293              		.loc 1 580 0
 2294 0008 0121     		movs	r1, #1
 2295              	.LVL120:
 2296 000a FFF7FEFF 		bl	RCC_AHB1PeriphClockCmd
 2297              	.LVL121:
 581:Bsp/periph_gpio.c **** 
 582:Bsp/periph_gpio.c **** 	GPIO_InitStructure.GPIO_Mode = GPIO_Mode_OUT;
 2298              		.loc 1 582 0
 2299 000e 0123     		movs	r3, #1
 2300 0010 8DF80430 		strb	r3, [sp, #4]
 583:Bsp/periph_gpio.c **** 	GPIO_InitStructure.GPIO_OType = GPIO_OType_PP;
 2301              		.loc 1 583 0
 2302 0014 0022     		movs	r2, #0
 2303 0016 8DF80620 		strb	r2, [sp, #6]
 584:Bsp/periph_gpio.c **** 	GPIO_InitStructure.GPIO_PuPd = GPIO_PuPd_UP;
 2304              		.loc 1 584 0
 2305 001a 8DF80730 		strb	r3, [sp, #7]
 585:Bsp/periph_gpio.c **** 	GPIO_InitStructure.GPIO_Speed = GPIO_Speed_50MHz;
 2306              		.loc 1 585 0
 2307 001e 0223     		movs	r3, #2
 2308 0020 8DF80530 		strb	r3, [sp, #5]
 586:Bsp/periph_gpio.c **** 	GPIO_InitStructure.GPIO_Pin = pin;
 2309              		.loc 1 586 0
 2310 0024 02A9     		add	r1, sp, #8
 2311 0026 41F8085D 		str	r5, [r1, #-8]!
 587:Bsp/periph_gpio.c **** 
 588:Bsp/periph_gpio.c **** 	GPIO_Init(GPIO_Port, &GPIO_InitStructure);
 2312              		.loc 1 588 0
 2313 002a 2046     		mov	r0, r4
 2314 002c FFF7FEFF 		bl	GPIO_Init
 2315              	.LVL122:
 589:Bsp/periph_gpio.c **** }
 2316              		.loc 1 589 0
 2317 0030 03B0     		add	sp, sp, #12
 2318              	.LCFI107:
 2319              		.cfi_def_cfa_offset 12
 2320              		@ sp needed
 2321 0032 30BD     		pop	{r4, r5, pc}
 2322              		.cfi_endproc
 2323              	.LFE160:
 2325              		.section	.text.GPIO_IO_Input_Init,"ax",%progbits
 2326              		.align	2
 2327              		.global	GPIO_IO_Input_Init
 2328              		.thumb
 2329              		.thumb_func
 2331              	GPIO_IO_Input_Init:
 2332              	.LFB161:
 590:Bsp/periph_gpio.c **** 
 591:Bsp/periph_gpio.c **** void GPIO_IO_Input_Init(uint32_t RCC_AHBCLK, uint16_t pin, GPIO_TypeDef *GPIO_Port)
 592:Bsp/periph_gpio.c **** {
 2333              		.loc 1 592 0
 2334              		.cfi_startproc
 2335              		@ args = 0, pretend = 0, frame = 8
ARM GAS  C:\Users\ADMINI~1\AppData\Local\Temp\cc2CG9la.s 			page 51


 2336              		@ frame_needed = 0, uses_anonymous_args = 0
 2337              	.LVL123:
 2338 0000 30B5     		push	{r4, r5, lr}
 2339              	.LCFI108:
 2340              		.cfi_def_cfa_offset 12
 2341              		.cfi_offset 4, -12
 2342              		.cfi_offset 5, -8
 2343              		.cfi_offset 14, -4
 2344 0002 83B0     		sub	sp, sp, #12
 2345              	.LCFI109:
 2346              		.cfi_def_cfa_offset 24
 2347 0004 0D46     		mov	r5, r1
 2348 0006 1446     		mov	r4, r2
 593:Bsp/periph_gpio.c **** 	GPIO_InitTypeDef GPIO_InitStructure;
 594:Bsp/periph_gpio.c **** 	RCC_AHB1PeriphClockCmd(RCC_AHBCLK, ENABLE);
 2349              		.loc 1 594 0
 2350 0008 0121     		movs	r1, #1
 2351              	.LVL124:
 2352 000a FFF7FEFF 		bl	RCC_AHB1PeriphClockCmd
 2353              	.LVL125:
 595:Bsp/periph_gpio.c **** 
 596:Bsp/periph_gpio.c **** 	GPIO_InitStructure.GPIO_Mode = GPIO_Mode_IN;
 2354              		.loc 1 596 0
 2355 000e 0023     		movs	r3, #0
 2356 0010 8DF80430 		strb	r3, [sp, #4]
 597:Bsp/periph_gpio.c **** 	GPIO_InitStructure.GPIO_OType = GPIO_OType_PP;
 2357              		.loc 1 597 0
 2358 0014 8DF80630 		strb	r3, [sp, #6]
 598:Bsp/periph_gpio.c **** 	GPIO_InitStructure.GPIO_PuPd = GPIO_PuPd_DOWN;
 2359              		.loc 1 598 0
 2360 0018 0223     		movs	r3, #2
 2361 001a 8DF80730 		strb	r3, [sp, #7]
 599:Bsp/periph_gpio.c **** 	GPIO_InitStructure.GPIO_Speed = GPIO_Speed_50MHz;
 2362              		.loc 1 599 0
 2363 001e 8DF80530 		strb	r3, [sp, #5]
 600:Bsp/periph_gpio.c **** 	GPIO_InitStructure.GPIO_Pin = pin;
 2364              		.loc 1 600 0
 2365 0022 02A9     		add	r1, sp, #8
 2366 0024 41F8085D 		str	r5, [r1, #-8]!
 601:Bsp/periph_gpio.c **** 
 602:Bsp/periph_gpio.c **** 	GPIO_Init(GPIO_Port, &GPIO_InitStructure);
 2367              		.loc 1 602 0
 2368 0028 2046     		mov	r0, r4
 2369 002a FFF7FEFF 		bl	GPIO_Init
 2370              	.LVL126:
 603:Bsp/periph_gpio.c **** }
 2371              		.loc 1 603 0
 2372 002e 03B0     		add	sp, sp, #12
 2373              	.LCFI110:
 2374              		.cfi_def_cfa_offset 12
 2375              		@ sp needed
 2376 0030 30BD     		pop	{r4, r5, pc}
 2377              		.cfi_endproc
 2378              	.LFE161:
 2380 0032 00BF     		.section	.text.GPIO_Get_IO_LEVEL,"ax",%progbits
 2381              		.align	2
 2382              		.global	GPIO_Get_IO_LEVEL
ARM GAS  C:\Users\ADMINI~1\AppData\Local\Temp\cc2CG9la.s 			page 52


 2383              		.thumb
 2384              		.thumb_func
 2386              	GPIO_Get_IO_LEVEL:
 2387              	.LFB162:
 604:Bsp/periph_gpio.c **** 
 605:Bsp/periph_gpio.c **** uint8_t GPIO_Get_IO_LEVEL(GPIO_TypeDef *GPIO_Port, uint16_t pin)
 606:Bsp/periph_gpio.c **** {
 2388              		.loc 1 606 0
 2389              		.cfi_startproc
 2390              		@ args = 0, pretend = 0, frame = 0
 2391              		@ frame_needed = 0, uses_anonymous_args = 0
 2392              	.LVL127:
 2393 0000 08B5     		push	{r3, lr}
 2394              	.LCFI111:
 2395              		.cfi_def_cfa_offset 8
 2396              		.cfi_offset 3, -8
 2397              		.cfi_offset 14, -4
 2398              	.LVL128:
 607:Bsp/periph_gpio.c **** 	uint8_t level = 0;
 608:Bsp/periph_gpio.c **** 
 609:Bsp/periph_gpio.c **** 	level = GPIO_ReadInputDataBit(GPIO_Port, pin);
 2399              		.loc 1 609 0
 2400 0002 FFF7FEFF 		bl	GPIO_ReadInputDataBit
 2401              	.LVL129:
 610:Bsp/periph_gpio.c **** 
 611:Bsp/periph_gpio.c **** 	return level;
 612:Bsp/periph_gpio.c **** }
 2402              		.loc 1 612 0
 2403 0006 08BD     		pop	{r3, pc}
 2404              		.cfi_endproc
 2405              	.LFE162:
 2407              		.section	.text.GPIO_Set_IO_LEVEL,"ax",%progbits
 2408              		.align	2
 2409              		.global	GPIO_Set_IO_LEVEL
 2410              		.thumb
 2411              		.thumb_func
 2413              	GPIO_Set_IO_LEVEL:
 2414              	.LFB163:
 613:Bsp/periph_gpio.c **** 
 614:Bsp/periph_gpio.c **** void GPIO_Set_IO_LEVEL(GPIO_TypeDef *GPIO_Port, uint16_t pin, IO_LEVEL level)
 615:Bsp/periph_gpio.c **** {
 2415              		.loc 1 615 0
 2416              		.cfi_startproc
 2417              		@ args = 0, pretend = 0, frame = 0
 2418              		@ frame_needed = 0, uses_anonymous_args = 0
 2419              	.LVL130:
 2420 0000 08B5     		push	{r3, lr}
 2421              	.LCFI112:
 2422              		.cfi_def_cfa_offset 8
 2423              		.cfi_offset 3, -8
 2424              		.cfi_offset 14, -4
 616:Bsp/periph_gpio.c **** 	switch ((uint8_t)level)
 2425              		.loc 1 616 0
 2426 0002 22B1     		cbz	r2, .L149
 2427 0004 012A     		cmp	r2, #1
 2428 0006 04D1     		bne	.L147
 617:Bsp/periph_gpio.c **** 	{
ARM GAS  C:\Users\ADMINI~1\AppData\Local\Temp\cc2CG9la.s 			page 53


 618:Bsp/periph_gpio.c **** 	case LO:
 619:Bsp/periph_gpio.c **** 		GPIO_ResetBits(GPIO_Port, pin);
 2429              		.loc 1 619 0
 2430 0008 FFF7FEFF 		bl	GPIO_ResetBits
 2431              	.LVL131:
 620:Bsp/periph_gpio.c **** 		break;
 2432              		.loc 1 620 0
 2433 000c 08BD     		pop	{r3, pc}
 2434              	.LVL132:
 2435              	.L149:
 621:Bsp/periph_gpio.c **** 	case HI:
 622:Bsp/periph_gpio.c **** 		GPIO_SetBits(GPIO_Port, pin);
 2436              		.loc 1 622 0
 2437 000e FFF7FEFF 		bl	GPIO_SetBits
 2438              	.LVL133:
 2439              	.L147:
 2440 0012 08BD     		pop	{r3, pc}
 2441              		.cfi_endproc
 2442              	.LFE163:
 2444              		.text
 2445              	.Letext0:
 2446              		.file 2 "d:\\gcc_arm\\5.4 2016q3\\arm-none-eabi\\include\\machine\\_default_types.h"
 2447              		.file 3 "d:\\gcc_arm\\5.4 2016q3\\arm-none-eabi\\include\\sys\\_stdint.h"
 2448              		.file 4 "USER/stm32f4xx.h"
 2449              		.file 5 "FWLIB/inc/stm32f4xx_gpio.h"
 2450              		.file 6 "Bsp/periph_gpio.h"
 2451              		.file 7 "FWLIB/inc/stm32f4xx_rcc.h"
 2452              		.file 8 "F4_CORE/core_cm4.h"
ARM GAS  C:\Users\ADMINI~1\AppData\Local\Temp\cc2CG9la.s 			page 54

