ARM GAS  C:\Users\huav\AppData\Local\Temp\ccJNdoJB.s 			page 1


   1              		.cpu cortex-m4
   2              		.eabi_attribute 27, 1
   3              		.eabi_attribute 28, 1
   4              		.eabi_attribute 20, 1
   5              		.eabi_attribute 21, 1
   6              		.eabi_attribute 23, 3
   7              		.eabi_attribute 24, 1
   8              		.eabi_attribute 25, 1
   9              		.eabi_attribute 26, 1
  10              		.eabi_attribute 30, 1
  11              		.eabi_attribute 34, 1
  12              		.eabi_attribute 18, 4
  13              		.file	"periph_serial_irq.c"
  14              		.text
  15              	.Ltext0:
  16              		.cfi_sections	.debug_frame
  17              		.section	.text.USART1_IRQHandler,"ax",%progbits
  18              		.align	1
  19              		.global	USART1_IRQHandler
  20              		.arch armv7e-m
  21              		.syntax unified
  22              		.thumb
  23              		.thumb_func
  24              		.fpu fpv4-sp-d16
  26              	USART1_IRQHandler:
  27              	.LFB123:
  28              		.file 1 "Bsp/periph_serial_irq.c"
   1:Bsp/periph_serial_irq.c **** #include "periph_serial_irq.h"
   2:Bsp/periph_serial_irq.c **** #include "periph_serial.h"
   3:Bsp/periph_serial_irq.c **** #include "periph_gpio.h"
   4:Bsp/periph_serial_irq.c **** #include "periph_dma.h"
   5:Bsp/periph_serial_irq.c **** #include "string.h"
   6:Bsp/periph_serial_irq.c **** #include "stm32f4xx_usart.h"
   7:Bsp/periph_serial_irq.c **** #include "stm32f4xx_dma.h"
   8:Bsp/periph_serial_irq.c **** 
   9:Bsp/periph_serial_irq.c **** #define PCK_MAX 256
  10:Bsp/periph_serial_irq.c **** 
  11:Bsp/periph_serial_irq.c **** void USART1_IRQHandler(void)
  12:Bsp/periph_serial_irq.c **** {
  29              		.loc 1 12 1 view -0
  30              		.cfi_startproc
  31              		@ args = 0, pretend = 0, frame = 0
  32              		@ frame_needed = 0, uses_anonymous_args = 0
  33 0000 10B5     		push	{r4, lr}
  34              	.LCFI0:
  35              		.cfi_def_cfa_offset 8
  36              		.cfi_offset 4, -8
  37              		.cfi_offset 14, -4
  13:Bsp/periph_serial_irq.c **** 	uint8_t rec;
  38              		.loc 1 13 2 view .LVU1
  14:Bsp/periph_serial_irq.c **** 	static u8 rec_len = 0;
  39              		.loc 1 14 2 view .LVU2
  15:Bsp/periph_serial_irq.c **** 	static u8 rec_enable = 0;
  40              		.loc 1 15 2 view .LVU3
  16:Bsp/periph_serial_irq.c **** 
  17:Bsp/periph_serial_irq.c **** 	if (USART_GetITStatus(USART1, USART_IT_TXE) == RESET)
  41              		.loc 1 17 2 view .LVU4
ARM GAS  C:\Users\huav\AppData\Local\Temp\ccJNdoJB.s 			page 2


  42              		.loc 1 17 6 is_stmt 0 view .LVU5
  43 0002 40F22771 		movw	r1, #1831
  44 0006 1F48     		ldr	r0, .L9
  45 0008 FFF7FEFF 		bl	USART_GetITStatus
  46              	.LVL0:
  47              		.loc 1 17 5 view .LVU6
  48 000c 60B1     		cbz	r0, .L6
  49              	.L2:
  18:Bsp/periph_serial_irq.c **** 	{
  19:Bsp/periph_serial_irq.c **** 		USART_ITConfig(USART1, USART_IT_TC, DISABLE);
  20:Bsp/periph_serial_irq.c **** 	}
  21:Bsp/periph_serial_irq.c **** 
  22:Bsp/periph_serial_irq.c **** 	if (USART_GetITStatus(USART1, USART_IT_RXNE) != RESET)
  50              		.loc 1 22 2 is_stmt 1 view .LVU7
  51              		.loc 1 22 6 is_stmt 0 view .LVU8
  52 000e 40F22551 		movw	r1, #1317
  53 0012 1C48     		ldr	r0, .L9
  54 0014 FFF7FEFF 		bl	USART_GetITStatus
  55              	.LVL1:
  56              		.loc 1 22 5 view .LVU9
  57 0018 80B9     		cbnz	r0, .L7
  58              	.L3:
  23:Bsp/periph_serial_irq.c **** 	{
  24:Bsp/periph_serial_irq.c **** 		rec = USART_ReceiveData(USART1);
  25:Bsp/periph_serial_irq.c **** 
  26:Bsp/periph_serial_irq.c **** 		USART_ClearITPendingBit(USART1, USART_IT_RXNE);
  27:Bsp/periph_serial_irq.c **** 	}
  28:Bsp/periph_serial_irq.c **** 
  29:Bsp/periph_serial_irq.c **** 	if (USART_GetITStatus(USART1, USART_IT_IDLE) != RESET)
  59              		.loc 1 29 2 is_stmt 1 view .LVU10
  60              		.loc 1 29 6 is_stmt 0 view .LVU11
  61 001a 40F22441 		movw	r1, #1060
  62 001e 1948     		ldr	r0, .L9
  63 0020 FFF7FEFF 		bl	USART_GetITStatus
  64              	.LVL2:
  65              		.loc 1 29 5 view .LVU12
  66 0024 A0B9     		cbnz	r0, .L8
  67              	.L1:
  30:Bsp/periph_serial_irq.c **** 	{
  31:Bsp/periph_serial_irq.c **** 		DMA_Cmd(Serial1_DMA_RX_Stream, DISABLE);
  32:Bsp/periph_serial_irq.c **** 
  33:Bsp/periph_serial_irq.c **** 		rec = USART1->DR;
  34:Bsp/periph_serial_irq.c **** 		rec = USART1->SR;
  35:Bsp/periph_serial_irq.c **** 
  36:Bsp/periph_serial_irq.c **** 		rec = DMA_GetCurrDataCounter(Serial1_DMA_RX_Stream);
  37:Bsp/periph_serial_irq.c **** 		DMA_ClearFlag(Serial1_DMA_RX_Stream, DMA_FLAG_TCIF5);
  38:Bsp/periph_serial_irq.c **** 		DMA_SetCurrDataCounter(Serial1_DMA_RX_Stream, PCK_MAX);
  39:Bsp/periph_serial_irq.c **** 		DMA_Cmd(Serial1_DMA_RX_Stream, ENABLE);
  40:Bsp/periph_serial_irq.c **** 	}
  41:Bsp/periph_serial_irq.c **** }
  68              		.loc 1 41 1 view .LVU13
  69 0026 10BD     		pop	{r4, pc}
  70              	.L6:
  19:Bsp/periph_serial_irq.c **** 	}
  71              		.loc 1 19 3 is_stmt 1 view .LVU14
  72 0028 0022     		movs	r2, #0
  73 002a 40F22661 		movw	r1, #1574
ARM GAS  C:\Users\huav\AppData\Local\Temp\ccJNdoJB.s 			page 3


  74 002e 00F18040 		add	r0, r0, #1073741824
  75 0032 00F58830 		add	r0, r0, #69632
  76 0036 FFF7FEFF 		bl	USART_ITConfig
  77              	.LVL3:
  78 003a E8E7     		b	.L2
  79              	.L7:
  24:Bsp/periph_serial_irq.c **** 
  80              		.loc 1 24 3 view .LVU15
  24:Bsp/periph_serial_irq.c **** 
  81              		.loc 1 24 9 is_stmt 0 view .LVU16
  82 003c 114C     		ldr	r4, .L9
  83 003e 2046     		mov	r0, r4
  84 0040 FFF7FEFF 		bl	USART_ReceiveData
  85              	.LVL4:
  26:Bsp/periph_serial_irq.c **** 	}
  86              		.loc 1 26 3 is_stmt 1 view .LVU17
  87 0044 40F22551 		movw	r1, #1317
  88 0048 2046     		mov	r0, r4
  89 004a FFF7FEFF 		bl	USART_ClearITPendingBit
  90              	.LVL5:
  91 004e E4E7     		b	.L3
  92              	.L8:
  31:Bsp/periph_serial_irq.c **** 
  93              		.loc 1 31 3 view .LVU18
  94 0050 0D4C     		ldr	r4, .L9+4
  95 0052 0021     		movs	r1, #0
  96 0054 2046     		mov	r0, r4
  97 0056 FFF7FEFF 		bl	DMA_Cmd
  98              	.LVL6:
  33:Bsp/periph_serial_irq.c **** 		rec = USART1->SR;
  99              		.loc 1 33 3 view .LVU19
  33:Bsp/periph_serial_irq.c **** 		rec = USART1->SR;
 100              		.loc 1 33 15 is_stmt 0 view .LVU20
 101 005a 0A4B     		ldr	r3, .L9
 102 005c 9A88     		ldrh	r2, [r3, #4]
 103              	.LVL7:
  34:Bsp/periph_serial_irq.c **** 
 104              		.loc 1 34 3 is_stmt 1 view .LVU21
  34:Bsp/periph_serial_irq.c **** 
 105              		.loc 1 34 15 is_stmt 0 view .LVU22
 106 005e 1B88     		ldrh	r3, [r3]
  36:Bsp/periph_serial_irq.c **** 		DMA_ClearFlag(Serial1_DMA_RX_Stream, DMA_FLAG_TCIF5);
 107              		.loc 1 36 3 is_stmt 1 view .LVU23
  36:Bsp/periph_serial_irq.c **** 		DMA_ClearFlag(Serial1_DMA_RX_Stream, DMA_FLAG_TCIF5);
 108              		.loc 1 36 9 is_stmt 0 view .LVU24
 109 0060 2046     		mov	r0, r4
 110 0062 FFF7FEFF 		bl	DMA_GetCurrDataCounter
 111              	.LVL8:
  37:Bsp/periph_serial_irq.c **** 		DMA_SetCurrDataCounter(Serial1_DMA_RX_Stream, PCK_MAX);
 112              		.loc 1 37 3 is_stmt 1 view .LVU25
 113 0066 0949     		ldr	r1, .L9+8
 114 0068 2046     		mov	r0, r4
 115 006a FFF7FEFF 		bl	DMA_ClearFlag
 116              	.LVL9:
  38:Bsp/periph_serial_irq.c **** 		DMA_Cmd(Serial1_DMA_RX_Stream, ENABLE);
 117              		.loc 1 38 3 view .LVU26
 118 006e 4FF48071 		mov	r1, #256
ARM GAS  C:\Users\huav\AppData\Local\Temp\ccJNdoJB.s 			page 4


 119 0072 2046     		mov	r0, r4
 120 0074 FFF7FEFF 		bl	DMA_SetCurrDataCounter
 121              	.LVL10:
  39:Bsp/periph_serial_irq.c **** 	}
 122              		.loc 1 39 3 view .LVU27
 123 0078 0121     		movs	r1, #1
 124 007a 2046     		mov	r0, r4
 125 007c FFF7FEFF 		bl	DMA_Cmd
 126              	.LVL11:
 127              		.loc 1 41 1 is_stmt 0 view .LVU28
 128 0080 D1E7     		b	.L1
 129              	.L10:
 130 0082 00BF     		.align	2
 131              	.L9:
 132 0084 00100140 		.word	1073811456
 133 0088 88640240 		.word	1073898632
 134 008c 00080020 		.word	536872960
 135              		.cfi_endproc
 136              	.LFE123:
 138              		.section	.text.USART2_IRQHandler,"ax",%progbits
 139              		.align	1
 140              		.global	USART2_IRQHandler
 141              		.syntax unified
 142              		.thumb
 143              		.thumb_func
 144              		.fpu fpv4-sp-d16
 146              	USART2_IRQHandler:
 147              	.LFB124:
  42:Bsp/periph_serial_irq.c **** 
  43:Bsp/periph_serial_irq.c **** void USART2_IRQHandler(void)
  44:Bsp/periph_serial_irq.c **** {
 148              		.loc 1 44 1 is_stmt 1 view -0
 149              		.cfi_startproc
 150              		@ args = 0, pretend = 0, frame = 0
 151              		@ frame_needed = 0, uses_anonymous_args = 0
 152 0000 10B5     		push	{r4, lr}
 153              	.LCFI1:
 154              		.cfi_def_cfa_offset 8
 155              		.cfi_offset 4, -8
 156              		.cfi_offset 14, -4
  45:Bsp/periph_serial_irq.c **** 	uint8_t rec;
 157              		.loc 1 45 2 view .LVU30
  46:Bsp/periph_serial_irq.c **** 
  47:Bsp/periph_serial_irq.c **** 	if (USART_GetITStatus(USART2, USART_IT_TXE) == RESET)
 158              		.loc 1 47 2 view .LVU31
 159              		.loc 1 47 6 is_stmt 0 view .LVU32
 160 0002 40F22771 		movw	r1, #1831
 161 0006 1D48     		ldr	r0, .L19
 162 0008 FFF7FEFF 		bl	USART_GetITStatus
 163              	.LVL12:
 164              		.loc 1 47 5 view .LVU33
 165 000c 60B1     		cbz	r0, .L16
 166              	.L12:
  48:Bsp/periph_serial_irq.c **** 	{
  49:Bsp/periph_serial_irq.c **** 		USART_ITConfig(USART2, USART_IT_TC, DISABLE);
  50:Bsp/periph_serial_irq.c **** 	}
  51:Bsp/periph_serial_irq.c **** 
ARM GAS  C:\Users\huav\AppData\Local\Temp\ccJNdoJB.s 			page 5


  52:Bsp/periph_serial_irq.c **** 	if (USART_GetITStatus(USART2, USART_IT_RXNE) != RESET)
 167              		.loc 1 52 2 is_stmt 1 view .LVU34
 168              		.loc 1 52 6 is_stmt 0 view .LVU35
 169 000e 40F22551 		movw	r1, #1317
 170 0012 1A48     		ldr	r0, .L19
 171 0014 FFF7FEFF 		bl	USART_GetITStatus
 172              	.LVL13:
 173              		.loc 1 52 5 view .LVU36
 174 0018 68B9     		cbnz	r0, .L17
 175              	.L13:
  53:Bsp/periph_serial_irq.c **** 	{
  54:Bsp/periph_serial_irq.c **** 		rec = USART_ReceiveData(USART2);
  55:Bsp/periph_serial_irq.c **** 		USART_ClearITPendingBit(USART2, USART_IT_RXNE);
  56:Bsp/periph_serial_irq.c **** 	}
  57:Bsp/periph_serial_irq.c **** 
  58:Bsp/periph_serial_irq.c **** 	if (USART_GetITStatus(USART2, USART_IT_IDLE) != RESET)
 176              		.loc 1 58 2 is_stmt 1 view .LVU37
 177              		.loc 1 58 6 is_stmt 0 view .LVU38
 178 001a 40F22441 		movw	r1, #1060
 179 001e 1748     		ldr	r0, .L19
 180 0020 FFF7FEFF 		bl	USART_GetITStatus
 181              	.LVL14:
 182              		.loc 1 58 5 view .LVU39
 183 0024 88B9     		cbnz	r0, .L18
 184              	.L11:
  59:Bsp/periph_serial_irq.c **** 	{
  60:Bsp/periph_serial_irq.c **** 		DMA_Cmd(Serial2_DMA_RX_Stream, DISABLE);
  61:Bsp/periph_serial_irq.c **** 
  62:Bsp/periph_serial_irq.c **** 		rec = USART2->DR;
  63:Bsp/periph_serial_irq.c **** 		rec = USART2->SR;
  64:Bsp/periph_serial_irq.c **** 
  65:Bsp/periph_serial_irq.c **** 		rec = DMA_GetCurrDataCounter(Serial2_DMA_RX_Stream);
  66:Bsp/periph_serial_irq.c **** 		DMA_ClearFlag(Serial2_DMA_RX_Stream, DMA_FLAG_TCIF5);
  67:Bsp/periph_serial_irq.c **** 		DMA_SetCurrDataCounter(Serial2_DMA_RX_Stream, PCK_MAX);
  68:Bsp/periph_serial_irq.c **** 		DMA_Cmd(Serial2_DMA_RX_Stream, ENABLE);
  69:Bsp/periph_serial_irq.c **** 	}
  70:Bsp/periph_serial_irq.c **** }
 185              		.loc 1 70 1 view .LVU40
 186 0026 10BD     		pop	{r4, pc}
 187              	.L16:
  49:Bsp/periph_serial_irq.c **** 	}
 188              		.loc 1 49 3 is_stmt 1 view .LVU41
 189 0028 0022     		movs	r2, #0
 190 002a 40F22661 		movw	r1, #1574
 191 002e 1348     		ldr	r0, .L19
 192 0030 FFF7FEFF 		bl	USART_ITConfig
 193              	.LVL15:
 194 0034 EBE7     		b	.L12
 195              	.L17:
  54:Bsp/periph_serial_irq.c **** 		USART_ClearITPendingBit(USART2, USART_IT_RXNE);
 196              		.loc 1 54 3 view .LVU42
  54:Bsp/periph_serial_irq.c **** 		USART_ClearITPendingBit(USART2, USART_IT_RXNE);
 197              		.loc 1 54 9 is_stmt 0 view .LVU43
 198 0036 114C     		ldr	r4, .L19
 199 0038 2046     		mov	r0, r4
 200 003a FFF7FEFF 		bl	USART_ReceiveData
 201              	.LVL16:
ARM GAS  C:\Users\huav\AppData\Local\Temp\ccJNdoJB.s 			page 6


  55:Bsp/periph_serial_irq.c **** 	}
 202              		.loc 1 55 3 is_stmt 1 view .LVU44
 203 003e 40F22551 		movw	r1, #1317
 204 0042 2046     		mov	r0, r4
 205 0044 FFF7FEFF 		bl	USART_ClearITPendingBit
 206              	.LVL17:
 207 0048 E7E7     		b	.L13
 208              	.L18:
  60:Bsp/periph_serial_irq.c **** 
 209              		.loc 1 60 3 view .LVU45
 210 004a 0D4C     		ldr	r4, .L19+4
 211 004c 0021     		movs	r1, #0
 212 004e 2046     		mov	r0, r4
 213 0050 FFF7FEFF 		bl	DMA_Cmd
 214              	.LVL18:
  62:Bsp/periph_serial_irq.c **** 		rec = USART2->SR;
 215              		.loc 1 62 3 view .LVU46
  62:Bsp/periph_serial_irq.c **** 		rec = USART2->SR;
 216              		.loc 1 62 15 is_stmt 0 view .LVU47
 217 0054 094B     		ldr	r3, .L19
 218 0056 9A88     		ldrh	r2, [r3, #4]
 219              	.LVL19:
  63:Bsp/periph_serial_irq.c **** 
 220              		.loc 1 63 3 is_stmt 1 view .LVU48
  63:Bsp/periph_serial_irq.c **** 
 221              		.loc 1 63 15 is_stmt 0 view .LVU49
 222 0058 1B88     		ldrh	r3, [r3]
  65:Bsp/periph_serial_irq.c **** 		DMA_ClearFlag(Serial2_DMA_RX_Stream, DMA_FLAG_TCIF5);
 223              		.loc 1 65 3 is_stmt 1 view .LVU50
  65:Bsp/periph_serial_irq.c **** 		DMA_ClearFlag(Serial2_DMA_RX_Stream, DMA_FLAG_TCIF5);
 224              		.loc 1 65 9 is_stmt 0 view .LVU51
 225 005a 2046     		mov	r0, r4
 226 005c FFF7FEFF 		bl	DMA_GetCurrDataCounter
 227              	.LVL20:
  66:Bsp/periph_serial_irq.c **** 		DMA_SetCurrDataCounter(Serial2_DMA_RX_Stream, PCK_MAX);
 228              		.loc 1 66 3 is_stmt 1 view .LVU52
 229 0060 0849     		ldr	r1, .L19+8
 230 0062 2046     		mov	r0, r4
 231 0064 FFF7FEFF 		bl	DMA_ClearFlag
 232              	.LVL21:
  67:Bsp/periph_serial_irq.c **** 		DMA_Cmd(Serial2_DMA_RX_Stream, ENABLE);
 233              		.loc 1 67 3 view .LVU53
 234 0068 4FF48071 		mov	r1, #256
 235 006c 2046     		mov	r0, r4
 236 006e FFF7FEFF 		bl	DMA_SetCurrDataCounter
 237              	.LVL22:
  68:Bsp/periph_serial_irq.c **** 	}
 238              		.loc 1 68 3 view .LVU54
 239 0072 0121     		movs	r1, #1
 240 0074 2046     		mov	r0, r4
 241 0076 FFF7FEFF 		bl	DMA_Cmd
 242              	.LVL23:
 243              		.loc 1 70 1 is_stmt 0 view .LVU55
 244 007a D4E7     		b	.L11
 245              	.L20:
 246              		.align	2
 247              	.L19:
ARM GAS  C:\Users\huav\AppData\Local\Temp\ccJNdoJB.s 			page 7


 248 007c 00440040 		.word	1073759232
 249 0080 88600240 		.word	1073897608
 250 0084 00080020 		.word	536872960
 251              		.cfi_endproc
 252              	.LFE124:
 254              		.section	.text.USART3_IRQHandler,"ax",%progbits
 255              		.align	1
 256              		.global	USART3_IRQHandler
 257              		.syntax unified
 258              		.thumb
 259              		.thumb_func
 260              		.fpu fpv4-sp-d16
 262              	USART3_IRQHandler:
 263              	.LFB125:
  71:Bsp/periph_serial_irq.c **** 
  72:Bsp/periph_serial_irq.c **** void USART3_IRQHandler(void)
  73:Bsp/periph_serial_irq.c **** {
 264              		.loc 1 73 1 is_stmt 1 view -0
 265              		.cfi_startproc
 266              		@ args = 0, pretend = 0, frame = 0
 267              		@ frame_needed = 0, uses_anonymous_args = 0
 268 0000 10B5     		push	{r4, lr}
 269              	.LCFI2:
 270              		.cfi_def_cfa_offset 8
 271              		.cfi_offset 4, -8
 272              		.cfi_offset 14, -4
  74:Bsp/periph_serial_irq.c **** 	uint8_t rec;
 273              		.loc 1 74 2 view .LVU57
  75:Bsp/periph_serial_irq.c **** 
  76:Bsp/periph_serial_irq.c **** 	if (USART_GetITStatus(USART3, USART_IT_TXE) == RESET)
 274              		.loc 1 76 2 view .LVU58
 275              		.loc 1 76 6 is_stmt 0 view .LVU59
 276 0002 40F22771 		movw	r1, #1831
 277 0006 1D48     		ldr	r0, .L29
 278 0008 FFF7FEFF 		bl	USART_GetITStatus
 279              	.LVL24:
 280              		.loc 1 76 5 view .LVU60
 281 000c 60B1     		cbz	r0, .L26
 282              	.L22:
  77:Bsp/periph_serial_irq.c **** 	{
  78:Bsp/periph_serial_irq.c **** 		USART_ITConfig(USART3, USART_IT_TC, DISABLE);
  79:Bsp/periph_serial_irq.c **** 	}
  80:Bsp/periph_serial_irq.c **** 
  81:Bsp/periph_serial_irq.c **** 	if (USART_GetITStatus(USART3, USART_IT_RXNE) != RESET)
 283              		.loc 1 81 2 is_stmt 1 view .LVU61
 284              		.loc 1 81 6 is_stmt 0 view .LVU62
 285 000e 40F22551 		movw	r1, #1317
 286 0012 1A48     		ldr	r0, .L29
 287 0014 FFF7FEFF 		bl	USART_GetITStatus
 288              	.LVL25:
 289              		.loc 1 81 5 view .LVU63
 290 0018 68B9     		cbnz	r0, .L27
 291              	.L23:
  82:Bsp/periph_serial_irq.c **** 	{
  83:Bsp/periph_serial_irq.c **** 		rec = USART_ReceiveData(USART3);
  84:Bsp/periph_serial_irq.c **** 		USART_ClearITPendingBit(USART3, USART_IT_RXNE);
  85:Bsp/periph_serial_irq.c **** 	}
ARM GAS  C:\Users\huav\AppData\Local\Temp\ccJNdoJB.s 			page 8


  86:Bsp/periph_serial_irq.c **** 
  87:Bsp/periph_serial_irq.c **** 	if (USART_GetITStatus(USART3, USART_IT_IDLE) != RESET)
 292              		.loc 1 87 2 is_stmt 1 view .LVU64
 293              		.loc 1 87 6 is_stmt 0 view .LVU65
 294 001a 40F22441 		movw	r1, #1060
 295 001e 1748     		ldr	r0, .L29
 296 0020 FFF7FEFF 		bl	USART_GetITStatus
 297              	.LVL26:
 298              		.loc 1 87 5 view .LVU66
 299 0024 88B9     		cbnz	r0, .L28
 300              	.L21:
  88:Bsp/periph_serial_irq.c **** 	{
  89:Bsp/periph_serial_irq.c **** 		DMA_Cmd(Serial3_DMA_RX_Stream, DISABLE);
  90:Bsp/periph_serial_irq.c **** 
  91:Bsp/periph_serial_irq.c **** 		rec = USART3->DR;
  92:Bsp/periph_serial_irq.c **** 		rec = USART3->SR;
  93:Bsp/periph_serial_irq.c **** 
  94:Bsp/periph_serial_irq.c **** 		rec = DMA_GetCurrDataCounter(Serial3_DMA_RX_Stream);
  95:Bsp/periph_serial_irq.c **** 		DMA_ClearFlag(Serial3_DMA_RX_Stream, DMA_FLAG_TCIF1);
  96:Bsp/periph_serial_irq.c **** 		DMA_SetCurrDataCounter(Serial3_DMA_RX_Stream, PCK_MAX);
  97:Bsp/periph_serial_irq.c **** 		DMA_Cmd(Serial3_DMA_RX_Stream, ENABLE);
  98:Bsp/periph_serial_irq.c **** 	}
  99:Bsp/periph_serial_irq.c **** }
 301              		.loc 1 99 1 view .LVU67
 302 0026 10BD     		pop	{r4, pc}
 303              	.L26:
  78:Bsp/periph_serial_irq.c **** 	}
 304              		.loc 1 78 3 is_stmt 1 view .LVU68
 305 0028 0022     		movs	r2, #0
 306 002a 40F22661 		movw	r1, #1574
 307 002e 1348     		ldr	r0, .L29
 308 0030 FFF7FEFF 		bl	USART_ITConfig
 309              	.LVL27:
 310 0034 EBE7     		b	.L22
 311              	.L27:
  83:Bsp/periph_serial_irq.c **** 		USART_ClearITPendingBit(USART3, USART_IT_RXNE);
 312              		.loc 1 83 3 view .LVU69
  83:Bsp/periph_serial_irq.c **** 		USART_ClearITPendingBit(USART3, USART_IT_RXNE);
 313              		.loc 1 83 9 is_stmt 0 view .LVU70
 314 0036 114C     		ldr	r4, .L29
 315 0038 2046     		mov	r0, r4
 316 003a FFF7FEFF 		bl	USART_ReceiveData
 317              	.LVL28:
  84:Bsp/periph_serial_irq.c **** 	}
 318              		.loc 1 84 3 is_stmt 1 view .LVU71
 319 003e 40F22551 		movw	r1, #1317
 320 0042 2046     		mov	r0, r4
 321 0044 FFF7FEFF 		bl	USART_ClearITPendingBit
 322              	.LVL29:
 323 0048 E7E7     		b	.L23
 324              	.L28:
  89:Bsp/periph_serial_irq.c **** 
 325              		.loc 1 89 3 view .LVU72
 326 004a 0D4C     		ldr	r4, .L29+4
 327 004c 0021     		movs	r1, #0
 328 004e 2046     		mov	r0, r4
 329 0050 FFF7FEFF 		bl	DMA_Cmd
ARM GAS  C:\Users\huav\AppData\Local\Temp\ccJNdoJB.s 			page 9


 330              	.LVL30:
  91:Bsp/periph_serial_irq.c **** 		rec = USART3->SR;
 331              		.loc 1 91 3 view .LVU73
  91:Bsp/periph_serial_irq.c **** 		rec = USART3->SR;
 332              		.loc 1 91 15 is_stmt 0 view .LVU74
 333 0054 094B     		ldr	r3, .L29
 334 0056 9A88     		ldrh	r2, [r3, #4]
 335              	.LVL31:
  92:Bsp/periph_serial_irq.c **** 
 336              		.loc 1 92 3 is_stmt 1 view .LVU75
  92:Bsp/periph_serial_irq.c **** 
 337              		.loc 1 92 15 is_stmt 0 view .LVU76
 338 0058 1B88     		ldrh	r3, [r3]
  94:Bsp/periph_serial_irq.c **** 		DMA_ClearFlag(Serial3_DMA_RX_Stream, DMA_FLAG_TCIF1);
 339              		.loc 1 94 3 is_stmt 1 view .LVU77
  94:Bsp/periph_serial_irq.c **** 		DMA_ClearFlag(Serial3_DMA_RX_Stream, DMA_FLAG_TCIF1);
 340              		.loc 1 94 9 is_stmt 0 view .LVU78
 341 005a 2046     		mov	r0, r4
 342 005c FFF7FEFF 		bl	DMA_GetCurrDataCounter
 343              	.LVL32:
  95:Bsp/periph_serial_irq.c **** 		DMA_SetCurrDataCounter(Serial3_DMA_RX_Stream, PCK_MAX);
 344              		.loc 1 95 3 is_stmt 1 view .LVU79
 345 0060 0849     		ldr	r1, .L29+8
 346 0062 2046     		mov	r0, r4
 347 0064 FFF7FEFF 		bl	DMA_ClearFlag
 348              	.LVL33:
  96:Bsp/periph_serial_irq.c **** 		DMA_Cmd(Serial3_DMA_RX_Stream, ENABLE);
 349              		.loc 1 96 3 view .LVU80
 350 0068 4FF48071 		mov	r1, #256
 351 006c 2046     		mov	r0, r4
 352 006e FFF7FEFF 		bl	DMA_SetCurrDataCounter
 353              	.LVL34:
  97:Bsp/periph_serial_irq.c **** 	}
 354              		.loc 1 97 3 view .LVU81
 355 0072 0121     		movs	r1, #1
 356 0074 2046     		mov	r0, r4
 357 0076 FFF7FEFF 		bl	DMA_Cmd
 358              	.LVL35:
 359              		.loc 1 99 1 is_stmt 0 view .LVU82
 360 007a D4E7     		b	.L21
 361              	.L30:
 362              		.align	2
 363              	.L29:
 364 007c 00480040 		.word	1073760256
 365 0080 28600240 		.word	1073897512
 366 0084 00080010 		.word	268437504
 367              		.cfi_endproc
 368              	.LFE125:
 370              		.section	.text.USART6_IRQHandler,"ax",%progbits
 371              		.align	1
 372              		.global	USART6_IRQHandler
 373              		.syntax unified
 374              		.thumb
 375              		.thumb_func
 376              		.fpu fpv4-sp-d16
 378              	USART6_IRQHandler:
 379              	.LFB126:
ARM GAS  C:\Users\huav\AppData\Local\Temp\ccJNdoJB.s 			page 10


 100:Bsp/periph_serial_irq.c **** 
 101:Bsp/periph_serial_irq.c **** void USART6_IRQHandler(void)
 102:Bsp/periph_serial_irq.c **** {
 380              		.loc 1 102 1 is_stmt 1 view -0
 381              		.cfi_startproc
 382              		@ args = 0, pretend = 0, frame = 0
 383              		@ frame_needed = 0, uses_anonymous_args = 0
 384 0000 10B5     		push	{r4, lr}
 385              	.LCFI3:
 386              		.cfi_def_cfa_offset 8
 387              		.cfi_offset 4, -8
 388              		.cfi_offset 14, -4
 103:Bsp/periph_serial_irq.c **** 	uint8_t rec;
 389              		.loc 1 103 2 view .LVU84
 104:Bsp/periph_serial_irq.c **** 
 105:Bsp/periph_serial_irq.c **** 	if (USART_GetITStatus(USART6, USART_IT_TXE) == RESET)
 390              		.loc 1 105 2 view .LVU85
 391              		.loc 1 105 6 is_stmt 0 view .LVU86
 392 0002 40F22771 		movw	r1, #1831
 393 0006 1D48     		ldr	r0, .L39
 394 0008 FFF7FEFF 		bl	USART_GetITStatus
 395              	.LVL36:
 396              		.loc 1 105 5 view .LVU87
 397 000c 60B1     		cbz	r0, .L36
 398              	.L32:
 106:Bsp/periph_serial_irq.c **** 	{
 107:Bsp/periph_serial_irq.c **** 		USART_ITConfig(USART6, USART_IT_TC, DISABLE);
 108:Bsp/periph_serial_irq.c **** 	}
 109:Bsp/periph_serial_irq.c **** 
 110:Bsp/periph_serial_irq.c **** 	if (USART_GetITStatus(USART6, USART_IT_RXNE) != RESET)
 399              		.loc 1 110 2 is_stmt 1 view .LVU88
 400              		.loc 1 110 6 is_stmt 0 view .LVU89
 401 000e 40F22551 		movw	r1, #1317
 402 0012 1A48     		ldr	r0, .L39
 403 0014 FFF7FEFF 		bl	USART_GetITStatus
 404              	.LVL37:
 405              		.loc 1 110 5 view .LVU90
 406 0018 68B9     		cbnz	r0, .L37
 407              	.L33:
 111:Bsp/periph_serial_irq.c **** 	{
 112:Bsp/periph_serial_irq.c **** 		rec = USART_ReceiveData(USART6);
 113:Bsp/periph_serial_irq.c **** 		USART_ClearITPendingBit(USART6, USART_IT_RXNE);
 114:Bsp/periph_serial_irq.c **** 	}
 115:Bsp/periph_serial_irq.c **** 
 116:Bsp/periph_serial_irq.c **** 	if (USART_GetITStatus(USART6, USART_IT_IDLE) != RESET)
 408              		.loc 1 116 2 is_stmt 1 view .LVU91
 409              		.loc 1 116 6 is_stmt 0 view .LVU92
 410 001a 40F22441 		movw	r1, #1060
 411 001e 1748     		ldr	r0, .L39
 412 0020 FFF7FEFF 		bl	USART_GetITStatus
 413              	.LVL38:
 414              		.loc 1 116 5 view .LVU93
 415 0024 88B9     		cbnz	r0, .L38
 416              	.L31:
 117:Bsp/periph_serial_irq.c **** 	{
 118:Bsp/periph_serial_irq.c **** 		DMA_Cmd(Serial6_DMA_RX_Stream, DISABLE);
 119:Bsp/periph_serial_irq.c **** 
ARM GAS  C:\Users\huav\AppData\Local\Temp\ccJNdoJB.s 			page 11


 120:Bsp/periph_serial_irq.c **** 		rec = USART6->DR;
 121:Bsp/periph_serial_irq.c **** 		rec = USART6->SR;
 122:Bsp/periph_serial_irq.c **** 
 123:Bsp/periph_serial_irq.c **** 		rec = DMA_GetCurrDataCounter(Serial6_DMA_RX_Stream);
 124:Bsp/periph_serial_irq.c **** 		DMA_ClearFlag(Serial6_DMA_RX_Stream, DMA_FLAG_TCIF1);
 125:Bsp/periph_serial_irq.c **** 		DMA_SetCurrDataCounter(Serial6_DMA_RX_Stream, PCK_MAX);
 126:Bsp/periph_serial_irq.c **** 		DMA_Cmd(Serial6_DMA_RX_Stream, ENABLE);
 127:Bsp/periph_serial_irq.c **** 	}
 128:Bsp/periph_serial_irq.c **** }
 417              		.loc 1 128 1 view .LVU94
 418 0026 10BD     		pop	{r4, pc}
 419              	.L36:
 107:Bsp/periph_serial_irq.c **** 	}
 420              		.loc 1 107 3 is_stmt 1 view .LVU95
 421 0028 0022     		movs	r2, #0
 422 002a 40F22661 		movw	r1, #1574
 423 002e 1348     		ldr	r0, .L39
 424 0030 FFF7FEFF 		bl	USART_ITConfig
 425              	.LVL39:
 426 0034 EBE7     		b	.L32
 427              	.L37:
 112:Bsp/periph_serial_irq.c **** 		USART_ClearITPendingBit(USART6, USART_IT_RXNE);
 428              		.loc 1 112 3 view .LVU96
 112:Bsp/periph_serial_irq.c **** 		USART_ClearITPendingBit(USART6, USART_IT_RXNE);
 429              		.loc 1 112 9 is_stmt 0 view .LVU97
 430 0036 114C     		ldr	r4, .L39
 431 0038 2046     		mov	r0, r4
 432 003a FFF7FEFF 		bl	USART_ReceiveData
 433              	.LVL40:
 113:Bsp/periph_serial_irq.c **** 	}
 434              		.loc 1 113 3 is_stmt 1 view .LVU98
 435 003e 40F22551 		movw	r1, #1317
 436 0042 2046     		mov	r0, r4
 437 0044 FFF7FEFF 		bl	USART_ClearITPendingBit
 438              	.LVL41:
 439 0048 E7E7     		b	.L33
 440              	.L38:
 118:Bsp/periph_serial_irq.c **** 
 441              		.loc 1 118 3 view .LVU99
 442 004a 0D4C     		ldr	r4, .L39+4
 443 004c 0021     		movs	r1, #0
 444 004e 2046     		mov	r0, r4
 445 0050 FFF7FEFF 		bl	DMA_Cmd
 446              	.LVL42:
 120:Bsp/periph_serial_irq.c **** 		rec = USART6->SR;
 447              		.loc 1 120 3 view .LVU100
 120:Bsp/periph_serial_irq.c **** 		rec = USART6->SR;
 448              		.loc 1 120 15 is_stmt 0 view .LVU101
 449 0054 094B     		ldr	r3, .L39
 450 0056 9A88     		ldrh	r2, [r3, #4]
 451              	.LVL43:
 121:Bsp/periph_serial_irq.c **** 
 452              		.loc 1 121 3 is_stmt 1 view .LVU102
 121:Bsp/periph_serial_irq.c **** 
 453              		.loc 1 121 15 is_stmt 0 view .LVU103
 454 0058 1B88     		ldrh	r3, [r3]
 123:Bsp/periph_serial_irq.c **** 		DMA_ClearFlag(Serial6_DMA_RX_Stream, DMA_FLAG_TCIF1);
ARM GAS  C:\Users\huav\AppData\Local\Temp\ccJNdoJB.s 			page 12


 455              		.loc 1 123 3 is_stmt 1 view .LVU104
 123:Bsp/periph_serial_irq.c **** 		DMA_ClearFlag(Serial6_DMA_RX_Stream, DMA_FLAG_TCIF1);
 456              		.loc 1 123 9 is_stmt 0 view .LVU105
 457 005a 2046     		mov	r0, r4
 458 005c FFF7FEFF 		bl	DMA_GetCurrDataCounter
 459              	.LVL44:
 124:Bsp/periph_serial_irq.c **** 		DMA_SetCurrDataCounter(Serial6_DMA_RX_Stream, PCK_MAX);
 460              		.loc 1 124 3 is_stmt 1 view .LVU106
 461 0060 0849     		ldr	r1, .L39+8
 462 0062 2046     		mov	r0, r4
 463 0064 FFF7FEFF 		bl	DMA_ClearFlag
 464              	.LVL45:
 125:Bsp/periph_serial_irq.c **** 		DMA_Cmd(Serial6_DMA_RX_Stream, ENABLE);
 465              		.loc 1 125 3 view .LVU107
 466 0068 4FF48071 		mov	r1, #256
 467 006c 2046     		mov	r0, r4
 468 006e FFF7FEFF 		bl	DMA_SetCurrDataCounter
 469              	.LVL46:
 126:Bsp/periph_serial_irq.c **** 	}
 470              		.loc 1 126 3 view .LVU108
 471 0072 0121     		movs	r1, #1
 472 0074 2046     		mov	r0, r4
 473 0076 FFF7FEFF 		bl	DMA_Cmd
 474              	.LVL47:
 475              		.loc 1 128 1 is_stmt 0 view .LVU109
 476 007a D4E7     		b	.L31
 477              	.L40:
 478              		.align	2
 479              	.L39:
 480 007c 00140140 		.word	1073812480
 481 0080 28640240 		.word	1073898536
 482 0084 00080010 		.word	268437504
 483              		.cfi_endproc
 484              	.LFE126:
 486              		.text
 487              	.Letext0:
 488              		.file 2 "c:\\program files (x86)\\gnu arm embedded toolchain\\10 2020-q4-major\\arm-none-eabi\\inc
 489              		.file 3 "c:\\program files (x86)\\gnu arm embedded toolchain\\10 2020-q4-major\\arm-none-eabi\\inc
 490              		.file 4 "USER/stm32f4xx.h"
 491              		.file 5 "FWLIB/inc/stm32f4xx_usart.h"
 492              		.file 6 "FWLIB/inc/stm32f4xx_dma.h"
ARM GAS  C:\Users\huav\AppData\Local\Temp\ccJNdoJB.s 			page 13

