ARM GAS  /tmp/ccCYoNBS.s 			page 1


   1              		.cpu cortex-m4
   2              		.eabi_attribute 27, 1
   3              		.eabi_attribute 28, 1
   4              		.eabi_attribute 20, 1
   5              		.eabi_attribute 21, 1
   6              		.eabi_attribute 23, 3
   7              		.eabi_attribute 24, 1
   8              		.eabi_attribute 25, 1
   9              		.eabi_attribute 26, 1
  10              		.eabi_attribute 30, 1
  11              		.eabi_attribute 34, 1
  12              		.eabi_attribute 18, 4
  13              		.file	"queue.c"
  14              		.text
  15              	.Ltext0:
  16              		.cfi_sections	.debug_frame
  17              		.section	.text.Queue_GetState,"ax",%progbits
  18              		.align	1
  19              		.arch armv7e-m
  20              		.syntax unified
  21              		.thumb
  22              		.thumb_func
  23              		.fpu fpv4-sp-d16
  25              	Queue_GetState:
  26              	.LVL0:
  27              	.LFB128:
  28              		.file 1 "SYS/data_structure/queue.c"
   1:SYS/data_structure/queue.c **** #include "queue.h"
   2:SYS/data_structure/queue.c **** #include <stdio.h>
   3:SYS/data_structure/queue.c **** #include <string.h>
   4:SYS/data_structure/queue.c **** 
   5:SYS/data_structure/queue.c **** static uint8_t Cur_Crtd_Queue = 0;
   6:SYS/data_structure/queue.c **** 
   7:SYS/data_structure/queue.c **** Queue_state Queue_Init(queue_s *queue, char *name, QueueData_OutType type)
   8:SYS/data_structure/queue.c **** {
   9:SYS/data_structure/queue.c ****     if (Cur_Crtd_Queue < MAX_QUEUE_NUM)
  10:SYS/data_structure/queue.c ****     {
  11:SYS/data_structure/queue.c ****         Cur_Crtd_Queue++;
  12:SYS/data_structure/queue.c ****         queue->state = Queue_ok;
  13:SYS/data_structure/queue.c ****     }
  14:SYS/data_structure/queue.c ****     else
  15:SYS/data_structure/queue.c ****         queue->state = Queue_CreateFailed;
  16:SYS/data_structure/queue.c **** 
  17:SYS/data_structure/queue.c ****     memset(queue->buff, NULL, QUEUE_MAX_SIZE);
  18:SYS/data_structure/queue.c ****     queue->name = name;
  19:SYS/data_structure/queue.c ****     queue->end_pos = 0;
  20:SYS/data_structure/queue.c ****     queue->head_pos = 0;
  21:SYS/data_structure/queue.c ****     queue->size = 0;
  22:SYS/data_structure/queue.c ****     queue->output_type = type;
  23:SYS/data_structure/queue.c **** 
  24:SYS/data_structure/queue.c ****     for (uint8_t i = 0; i < QUEUE_ERROR_TYPENUM; i++)
  25:SYS/data_structure/queue.c ****     {
  26:SYS/data_structure/queue.c ****         queue->error_times[i] = 0;
  27:SYS/data_structure/queue.c ****     }
  28:SYS/data_structure/queue.c ****     queue->total_error_times = 0;
  29:SYS/data_structure/queue.c **** 
  30:SYS/data_structure/queue.c ****     return queue->state;
ARM GAS  /tmp/ccCYoNBS.s 			page 2


  31:SYS/data_structure/queue.c **** }
  32:SYS/data_structure/queue.c **** 
  33:SYS/data_structure/queue.c **** Queue_state Queue_Reset(queue_s *queue)
  34:SYS/data_structure/queue.c **** {
  35:SYS/data_structure/queue.c ****     return Queue_init(queue, queue->name);
  36:SYS/data_structure/queue.c **** }
  37:SYS/data_structure/queue.c **** 
  38:SYS/data_structure/queue.c **** static Queue_state Queue_GetState(queue_s *queue)
  39:SYS/data_structure/queue.c **** {
  29              		.loc 1 39 1 view -0
  30              		.cfi_startproc
  31              		@ args = 0, pretend = 0, frame = 0
  32              		@ frame_needed = 0, uses_anonymous_args = 0
  33              		@ link register save eliminated.
  40:SYS/data_structure/queue.c ****     if ((queue->head_pos == queue->end_pos) || (queue->size == 0))
  34              		.loc 1 40 5 view .LVU1
  35              		.loc 1 40 15 is_stmt 0 view .LVU2
  36 0000 0189     		ldrh	r1, [r0, #8]
  37              		.loc 1 40 34 view .LVU3
  38 0002 4389     		ldrh	r3, [r0, #10]
  39              		.loc 1 40 8 view .LVU4
  40 0004 9942     		cmp	r1, r3
  41 0006 0FD0     		beq	.L2
  42              		.loc 1 40 54 discriminator 1 view .LVU5
  43 0008 8288     		ldrh	r2, [r0, #4]
  44              		.loc 1 40 45 discriminator 1 view .LVU6
  45 000a 6AB1     		cbz	r2, .L2
  41:SYS/data_structure/queue.c ****     {
  42:SYS/data_structure/queue.c ****         queue->error_times[GET_QUEUE_ERROR_INDEX(Queue_empty)]++;
  43:SYS/data_structure/queue.c ****         queue->total_error_times++;
  44:SYS/data_structure/queue.c ****         queue->state = Queue_empty;
  45:SYS/data_structure/queue.c ****         return Queue_empty;
  46:SYS/data_structure/queue.c ****     }
  47:SYS/data_structure/queue.c **** 
  48:SYS/data_structure/queue.c ****     if (((queue->end_pos + 1) % QUEUE_MAX_SIZE) == queue->head_pos)
  46              		.loc 1 48 5 is_stmt 1 view .LVU7
  47              		.loc 1 48 26 is_stmt 0 view .LVU8
  48 000c 0133     		adds	r3, r3, #1
  49              		.loc 1 48 31 view .LVU9
  50 000e 5A42     		rsbs	r2, r3, #0
  51 0010 C3F30803 		ubfx	r3, r3, #0, #9
  52 0014 C2F30802 		ubfx	r2, r2, #0, #9
  53 0018 58BF     		it	pl
  54 001a 5342     		rsbpl	r3, r2, #0
  55              		.loc 1 48 8 view .LVU10
  56 001c 8B42     		cmp	r3, r1
  57 001e 11D0     		beq	.L6
  49:SYS/data_structure/queue.c ****     {
  50:SYS/data_structure/queue.c ****         queue->error_times[GET_QUEUE_ERROR_INDEX(Queue_full)]++;
  51:SYS/data_structure/queue.c ****         queue->total_error_times++;
  52:SYS/data_structure/queue.c ****         queue->state = Queue_full;
  53:SYS/data_structure/queue.c ****         return Queue_full;
  54:SYS/data_structure/queue.c ****     }
  55:SYS/data_structure/queue.c **** 
  56:SYS/data_structure/queue.c ****     queue->state = Queue_ok;
  58              		.loc 1 56 5 is_stmt 1 view .LVU11
  59              		.loc 1 56 18 is_stmt 0 view .LVU12
ARM GAS  /tmp/ccCYoNBS.s 			page 3


  60 0020 0023     		movs	r3, #0
  61 0022 8371     		strb	r3, [r0, #6]
  57:SYS/data_structure/queue.c ****     return Queue_ok;
  62              		.loc 1 57 5 is_stmt 1 view .LVU13
  63              		.loc 1 57 12 is_stmt 0 view .LVU14
  64 0024 1846     		mov	r0, r3
  65              	.LVL1:
  58:SYS/data_structure/queue.c **** }
  66              		.loc 1 58 1 view .LVU15
  67 0026 7047     		bx	lr
  68              	.LVL2:
  69              	.L2:
  42:SYS/data_structure/queue.c ****         queue->total_error_times++;
  70              		.loc 1 42 9 is_stmt 1 view .LVU16
  42:SYS/data_structure/queue.c ****         queue->total_error_times++;
  71              		.loc 1 42 27 is_stmt 0 view .LVU17
  72 0028 D0F81832 		ldr	r3, [r0, #536]
  42:SYS/data_structure/queue.c ****         queue->total_error_times++;
  73              		.loc 1 42 63 view .LVU18
  74 002c 0133     		adds	r3, r3, #1
  75 002e C0F81832 		str	r3, [r0, #536]
  43:SYS/data_structure/queue.c ****         queue->state = Queue_empty;
  76              		.loc 1 43 9 is_stmt 1 view .LVU19
  43:SYS/data_structure/queue.c ****         queue->state = Queue_empty;
  77              		.loc 1 43 14 is_stmt 0 view .LVU20
  78 0032 D0F82032 		ldr	r3, [r0, #544]
  43:SYS/data_structure/queue.c ****         queue->state = Queue_empty;
  79              		.loc 1 43 33 view .LVU21
  80 0036 0133     		adds	r3, r3, #1
  81 0038 C0F82032 		str	r3, [r0, #544]
  44:SYS/data_structure/queue.c ****         return Queue_empty;
  82              		.loc 1 44 9 is_stmt 1 view .LVU22
  44:SYS/data_structure/queue.c ****         return Queue_empty;
  83              		.loc 1 44 22 is_stmt 0 view .LVU23
  84 003c 0423     		movs	r3, #4
  85 003e 8371     		strb	r3, [r0, #6]
  45:SYS/data_structure/queue.c ****     }
  86              		.loc 1 45 9 is_stmt 1 view .LVU24
  45:SYS/data_structure/queue.c ****     }
  87              		.loc 1 45 16 is_stmt 0 view .LVU25
  88 0040 1846     		mov	r0, r3
  89              	.LVL3:
  45:SYS/data_structure/queue.c ****     }
  90              		.loc 1 45 16 view .LVU26
  91 0042 7047     		bx	lr
  92              	.LVL4:
  93              	.L6:
  50:SYS/data_structure/queue.c ****         queue->total_error_times++;
  94              		.loc 1 50 9 is_stmt 1 view .LVU27
  50:SYS/data_structure/queue.c ****         queue->total_error_times++;
  95              		.loc 1 50 27 is_stmt 0 view .LVU28
  96 0044 D0F81C32 		ldr	r3, [r0, #540]
  50:SYS/data_structure/queue.c ****         queue->total_error_times++;
  97              		.loc 1 50 62 view .LVU29
  98 0048 0133     		adds	r3, r3, #1
  99 004a C0F81C32 		str	r3, [r0, #540]
  51:SYS/data_structure/queue.c ****         queue->state = Queue_full;
ARM GAS  /tmp/ccCYoNBS.s 			page 4


 100              		.loc 1 51 9 is_stmt 1 view .LVU30
  51:SYS/data_structure/queue.c ****         queue->state = Queue_full;
 101              		.loc 1 51 14 is_stmt 0 view .LVU31
 102 004e D0F82032 		ldr	r3, [r0, #544]
  51:SYS/data_structure/queue.c ****         queue->state = Queue_full;
 103              		.loc 1 51 33 view .LVU32
 104 0052 0133     		adds	r3, r3, #1
 105 0054 C0F82032 		str	r3, [r0, #544]
  52:SYS/data_structure/queue.c ****         return Queue_full;
 106              		.loc 1 52 9 is_stmt 1 view .LVU33
  52:SYS/data_structure/queue.c ****         return Queue_full;
 107              		.loc 1 52 22 is_stmt 0 view .LVU34
 108 0058 0523     		movs	r3, #5
 109 005a 8371     		strb	r3, [r0, #6]
  53:SYS/data_structure/queue.c ****     }
 110              		.loc 1 53 9 is_stmt 1 view .LVU35
  53:SYS/data_structure/queue.c ****     }
 111              		.loc 1 53 16 is_stmt 0 view .LVU36
 112 005c 1846     		mov	r0, r3
 113              	.LVL5:
  53:SYS/data_structure/queue.c ****     }
 114              		.loc 1 53 16 view .LVU37
 115 005e 7047     		bx	lr
 116              		.cfi_endproc
 117              	.LFE128:
 119              		.section	.text.Queue_Init,"ax",%progbits
 120              		.align	1
 121              		.global	Queue_Init
 122              		.syntax unified
 123              		.thumb
 124              		.thumb_func
 125              		.fpu fpv4-sp-d16
 127              	Queue_Init:
 128              	.LVL6:
 129              	.LFB126:
   8:SYS/data_structure/queue.c ****     if (Cur_Crtd_Queue < MAX_QUEUE_NUM)
 130              		.loc 1 8 1 is_stmt 1 view -0
 131              		.cfi_startproc
 132              		@ args = 0, pretend = 0, frame = 0
 133              		@ frame_needed = 0, uses_anonymous_args = 0
   8:SYS/data_structure/queue.c ****     if (Cur_Crtd_Queue < MAX_QUEUE_NUM)
 134              		.loc 1 8 1 is_stmt 0 view .LVU39
 135 0000 70B5     		push	{r4, r5, r6, lr}
 136              	.LCFI0:
 137              		.cfi_def_cfa_offset 16
 138              		.cfi_offset 4, -16
 139              		.cfi_offset 5, -12
 140              		.cfi_offset 6, -8
 141              		.cfi_offset 14, -4
 142 0002 0446     		mov	r4, r0
 143 0004 0E46     		mov	r6, r1
 144 0006 1546     		mov	r5, r2
   9:SYS/data_structure/queue.c ****     {
 145              		.loc 1 9 5 is_stmt 1 view .LVU40
   9:SYS/data_structure/queue.c ****     {
 146              		.loc 1 9 24 is_stmt 0 view .LVU41
 147 0008 144B     		ldr	r3, .L13
ARM GAS  /tmp/ccCYoNBS.s 			page 5


 148 000a 1B78     		ldrb	r3, [r3]	@ zero_extendqisi2
   9:SYS/data_structure/queue.c ****     {
 149              		.loc 1 9 8 view .LVU42
 150 000c 092B     		cmp	r3, #9
 151 000e 13D8     		bhi	.L8
  11:SYS/data_structure/queue.c ****         queue->state = Queue_ok;
 152              		.loc 1 11 9 is_stmt 1 view .LVU43
  11:SYS/data_structure/queue.c ****         queue->state = Queue_ok;
 153              		.loc 1 11 23 is_stmt 0 view .LVU44
 154 0010 0133     		adds	r3, r3, #1
 155 0012 124A     		ldr	r2, .L13
 156              	.LVL7:
  11:SYS/data_structure/queue.c ****         queue->state = Queue_ok;
 157              		.loc 1 11 23 view .LVU45
 158 0014 1370     		strb	r3, [r2]
  12:SYS/data_structure/queue.c ****     }
 159              		.loc 1 12 9 is_stmt 1 view .LVU46
  12:SYS/data_structure/queue.c ****     }
 160              		.loc 1 12 22 is_stmt 0 view .LVU47
 161 0016 0023     		movs	r3, #0
 162 0018 8371     		strb	r3, [r0, #6]
 163              	.L9:
  17:SYS/data_structure/queue.c ****     queue->name = name;
 164              		.loc 1 17 5 is_stmt 1 view .LVU48
 165 001a 4FF40072 		mov	r2, #512
 166 001e 0021     		movs	r1, #0
 167              	.LVL8:
  17:SYS/data_structure/queue.c ****     queue->name = name;
 168              		.loc 1 17 5 is_stmt 0 view .LVU49
 169 0020 04F10C00 		add	r0, r4, #12
 170              	.LVL9:
  17:SYS/data_structure/queue.c ****     queue->name = name;
 171              		.loc 1 17 5 view .LVU50
 172 0024 FFF7FEFF 		bl	memset
 173              	.LVL10:
  18:SYS/data_structure/queue.c ****     queue->end_pos = 0;
 174              		.loc 1 18 5 is_stmt 1 view .LVU51
  18:SYS/data_structure/queue.c ****     queue->end_pos = 0;
 175              		.loc 1 18 17 is_stmt 0 view .LVU52
 176 0028 2660     		str	r6, [r4]
  19:SYS/data_structure/queue.c ****     queue->head_pos = 0;
 177              		.loc 1 19 5 is_stmt 1 view .LVU53
  19:SYS/data_structure/queue.c ****     queue->head_pos = 0;
 178              		.loc 1 19 20 is_stmt 0 view .LVU54
 179 002a 0023     		movs	r3, #0
 180 002c 6381     		strh	r3, [r4, #10]	@ movhi
  20:SYS/data_structure/queue.c ****     queue->size = 0;
 181              		.loc 1 20 5 is_stmt 1 view .LVU55
  20:SYS/data_structure/queue.c ****     queue->size = 0;
 182              		.loc 1 20 21 is_stmt 0 view .LVU56
 183 002e 2381     		strh	r3, [r4, #8]	@ movhi
  21:SYS/data_structure/queue.c ****     queue->output_type = type;
 184              		.loc 1 21 5 is_stmt 1 view .LVU57
  21:SYS/data_structure/queue.c ****     queue->output_type = type;
 185              		.loc 1 21 17 is_stmt 0 view .LVU58
 186 0030 A380     		strh	r3, [r4, #4]	@ movhi
  22:SYS/data_structure/queue.c **** 
ARM GAS  /tmp/ccCYoNBS.s 			page 6


 187              		.loc 1 22 5 is_stmt 1 view .LVU59
  22:SYS/data_structure/queue.c **** 
 188              		.loc 1 22 24 is_stmt 0 view .LVU60
 189 0032 84F80C52 		strb	r5, [r4, #524]
  24:SYS/data_structure/queue.c ****     {
 190              		.loc 1 24 5 is_stmt 1 view .LVU61
 191              	.LBB2:
  24:SYS/data_structure/queue.c ****     {
 192              		.loc 1 24 10 view .LVU62
 193              	.LVL11:
  24:SYS/data_structure/queue.c ****     {
 194              		.loc 1 24 5 is_stmt 0 view .LVU63
 195 0036 09E0     		b	.L10
 196              	.LVL12:
 197              	.L8:
  24:SYS/data_structure/queue.c ****     {
 198              		.loc 1 24 5 view .LVU64
 199              	.LBE2:
  15:SYS/data_structure/queue.c **** 
 200              		.loc 1 15 9 is_stmt 1 view .LVU65
  15:SYS/data_structure/queue.c **** 
 201              		.loc 1 15 22 is_stmt 0 view .LVU66
 202 0038 0623     		movs	r3, #6
 203 003a 8371     		strb	r3, [r0, #6]
 204 003c EDE7     		b	.L9
 205              	.LVL13:
 206              	.L11:
 207              	.LBB3:
  26:SYS/data_structure/queue.c ****     }
 208              		.loc 1 26 9 is_stmt 1 discriminator 3 view .LVU67
  26:SYS/data_structure/queue.c ****     }
 209              		.loc 1 26 31 is_stmt 0 discriminator 3 view .LVU68
 210 003e 03F18402 		add	r2, r3, #132
 211 0042 0021     		movs	r1, #0
 212 0044 44F82210 		str	r1, [r4, r2, lsl #2]
  24:SYS/data_structure/queue.c ****     {
 213              		.loc 1 24 51 discriminator 3 view .LVU69
 214 0048 0133     		adds	r3, r3, #1
 215              	.LVL14:
  24:SYS/data_structure/queue.c ****     {
 216              		.loc 1 24 51 discriminator 3 view .LVU70
 217 004a DBB2     		uxtb	r3, r3
 218              	.LVL15:
 219              	.L10:
  24:SYS/data_structure/queue.c ****     {
 220              		.loc 1 24 5 discriminator 1 view .LVU71
 221 004c 032B     		cmp	r3, #3
 222 004e F6D9     		bls	.L11
 223              	.LBE3:
  28:SYS/data_structure/queue.c **** 
 224              		.loc 1 28 5 is_stmt 1 view .LVU72
  28:SYS/data_structure/queue.c **** 
 225              		.loc 1 28 30 is_stmt 0 view .LVU73
 226 0050 0023     		movs	r3, #0
 227              	.LVL16:
  28:SYS/data_structure/queue.c **** 
 228              		.loc 1 28 30 view .LVU74
ARM GAS  /tmp/ccCYoNBS.s 			page 7


 229 0052 C4F82032 		str	r3, [r4, #544]
  30:SYS/data_structure/queue.c **** }
 230              		.loc 1 30 5 is_stmt 1 view .LVU75
  31:SYS/data_structure/queue.c **** 
 231              		.loc 1 31 1 is_stmt 0 view .LVU76
 232 0056 A079     		ldrb	r0, [r4, #6]	@ zero_extendqisi2
 233 0058 70BD     		pop	{r4, r5, r6, pc}
 234              	.LVL17:
 235              	.L14:
  31:SYS/data_structure/queue.c **** 
 236              		.loc 1 31 1 view .LVU77
 237 005a 00BF     		.align	2
 238              	.L13:
 239 005c 00000000 		.word	.LANCHOR0
 240              		.cfi_endproc
 241              	.LFE126:
 243              		.section	.text.Queue_Reset,"ax",%progbits
 244              		.align	1
 245              		.global	Queue_Reset
 246              		.syntax unified
 247              		.thumb
 248              		.thumb_func
 249              		.fpu fpv4-sp-d16
 251              	Queue_Reset:
 252              	.LVL18:
 253              	.LFB127:
  34:SYS/data_structure/queue.c ****     return Queue_init(queue, queue->name);
 254              		.loc 1 34 1 is_stmt 1 view -0
 255              		.cfi_startproc
 256              		@ args = 0, pretend = 0, frame = 0
 257              		@ frame_needed = 0, uses_anonymous_args = 0
  34:SYS/data_structure/queue.c ****     return Queue_init(queue, queue->name);
 258              		.loc 1 34 1 is_stmt 0 view .LVU79
 259 0000 08B5     		push	{r3, lr}
 260              	.LCFI1:
 261              		.cfi_def_cfa_offset 8
 262              		.cfi_offset 3, -8
 263              		.cfi_offset 14, -4
  35:SYS/data_structure/queue.c **** }
 264              		.loc 1 35 5 is_stmt 1 view .LVU80
  35:SYS/data_structure/queue.c **** }
 265              		.loc 1 35 12 is_stmt 0 view .LVU81
 266 0002 0168     		ldr	r1, [r0]
 267 0004 FFF7FEFF 		bl	Queue_init
 268              	.LVL19:
  36:SYS/data_structure/queue.c **** 
 269              		.loc 1 36 1 view .LVU82
 270 0008 C0B2     		uxtb	r0, r0
 271 000a 08BD     		pop	{r3, pc}
 272              		.cfi_endproc
 273              	.LFE127:
 275              		.section	.text.Queue_PushChar,"ax",%progbits
 276              		.align	1
 277              		.global	Queue_PushChar
 278              		.syntax unified
 279              		.thumb
 280              		.thumb_func
ARM GAS  /tmp/ccCYoNBS.s 			page 8


 281              		.fpu fpv4-sp-d16
 283              	Queue_PushChar:
 284              	.LVL20:
 285              	.LFB129:
  59:SYS/data_structure/queue.c **** 
  60:SYS/data_structure/queue.c **** Queue_state Queue_PushChar(queue_s *queue, char data)
  61:SYS/data_structure/queue.c **** {
 286              		.loc 1 61 1 is_stmt 1 view -0
 287              		.cfi_startproc
 288              		@ args = 0, pretend = 0, frame = 0
 289              		@ frame_needed = 0, uses_anonymous_args = 0
 290              		.loc 1 61 1 is_stmt 0 view .LVU84
 291 0000 10B5     		push	{r4, lr}
 292              	.LCFI2:
 293              		.cfi_def_cfa_offset 8
 294              		.cfi_offset 4, -8
 295              		.cfi_offset 14, -4
 296 0002 0446     		mov	r4, r0
  62:SYS/data_structure/queue.c ****     if (queue->state == Queue_ok)
 297              		.loc 1 62 5 is_stmt 1 view .LVU85
 298              		.loc 1 62 14 is_stmt 0 view .LVU86
 299 0004 8379     		ldrb	r3, [r0, #6]	@ zero_extendqisi2
 300              		.loc 1 62 8 view .LVU87
 301 0006 0BB1     		cbz	r3, .L20
 302              	.LVL21:
 303              	.L18:
  63:SYS/data_structure/queue.c ****     {
  64:SYS/data_structure/queue.c ****         queue->buff[queue->end_pos] = data;
  65:SYS/data_structure/queue.c **** 
  66:SYS/data_structure/queue.c ****         queue->end_pos = (queue->end_pos + 1) % QUEUE_MAX_SIZE;
  67:SYS/data_structure/queue.c ****         queue->size++;
  68:SYS/data_structure/queue.c **** 
  69:SYS/data_structure/queue.c ****         Queue_GetState(queue);
  70:SYS/data_structure/queue.c ****     }
  71:SYS/data_structure/queue.c **** 
  72:SYS/data_structure/queue.c ****     return queue->state;
 304              		.loc 1 72 5 is_stmt 1 view .LVU88
  73:SYS/data_structure/queue.c **** }
 305              		.loc 1 73 1 is_stmt 0 view .LVU89
 306 0008 A079     		ldrb	r0, [r4, #6]	@ zero_extendqisi2
 307 000a 10BD     		pop	{r4, pc}
 308              	.LVL22:
 309              	.L20:
  64:SYS/data_structure/queue.c **** 
 310              		.loc 1 64 9 is_stmt 1 view .LVU90
  64:SYS/data_structure/queue.c **** 
 311              		.loc 1 64 26 is_stmt 0 view .LVU91
 312 000c 4389     		ldrh	r3, [r0, #10]
  64:SYS/data_structure/queue.c **** 
 313              		.loc 1 64 37 view .LVU92
 314 000e C218     		adds	r2, r0, r3
 315 0010 1173     		strb	r1, [r2, #12]
  66:SYS/data_structure/queue.c ****         queue->size++;
 316              		.loc 1 66 9 is_stmt 1 view .LVU93
  66:SYS/data_structure/queue.c ****         queue->size++;
 317              		.loc 1 66 42 is_stmt 0 view .LVU94
 318 0012 0133     		adds	r3, r3, #1
ARM GAS  /tmp/ccCYoNBS.s 			page 9


  66:SYS/data_structure/queue.c ****         queue->size++;
 319              		.loc 1 66 47 view .LVU95
 320 0014 5A42     		rsbs	r2, r3, #0
 321 0016 C3F30803 		ubfx	r3, r3, #0, #9
 322 001a C2F30802 		ubfx	r2, r2, #0, #9
 323 001e 58BF     		it	pl
 324 0020 5342     		rsbpl	r3, r2, #0
  66:SYS/data_structure/queue.c ****         queue->size++;
 325              		.loc 1 66 24 view .LVU96
 326 0022 4381     		strh	r3, [r0, #10]	@ movhi
  67:SYS/data_structure/queue.c **** 
 327              		.loc 1 67 9 is_stmt 1 view .LVU97
  67:SYS/data_structure/queue.c **** 
 328              		.loc 1 67 14 is_stmt 0 view .LVU98
 329 0024 8388     		ldrh	r3, [r0, #4]
  67:SYS/data_structure/queue.c **** 
 330              		.loc 1 67 20 view .LVU99
 331 0026 0133     		adds	r3, r3, #1
 332 0028 8380     		strh	r3, [r0, #4]	@ movhi
  69:SYS/data_structure/queue.c ****     }
 333              		.loc 1 69 9 is_stmt 1 view .LVU100
 334 002a FFF7FEFF 		bl	Queue_GetState
 335              	.LVL23:
  69:SYS/data_structure/queue.c ****     }
 336              		.loc 1 69 9 is_stmt 0 view .LVU101
 337 002e EBE7     		b	.L18
 338              		.cfi_endproc
 339              	.LFE129:
 341              		.section	.text.Queue_PushLenChar,"ax",%progbits
 342              		.align	1
 343              		.global	Queue_PushLenChar
 344              		.syntax unified
 345              		.thumb
 346              		.thumb_func
 347              		.fpu fpv4-sp-d16
 349              	Queue_PushLenChar:
 350              	.LVL24:
 351              	.LFB130:
  74:SYS/data_structure/queue.c **** 
  75:SYS/data_structure/queue.c **** Queue_state Queue_PushLenChar(queue_s *queue, uint16_t len, char *data)
  76:SYS/data_structure/queue.c **** {
 352              		.loc 1 76 1 is_stmt 1 view -0
 353              		.cfi_startproc
 354              		@ args = 0, pretend = 0, frame = 0
 355              		@ frame_needed = 0, uses_anonymous_args = 0
 356              		.loc 1 76 1 is_stmt 0 view .LVU103
 357 0000 70B5     		push	{r4, r5, r6, lr}
 358              	.LCFI3:
 359              		.cfi_def_cfa_offset 16
 360              		.cfi_offset 4, -16
 361              		.cfi_offset 5, -12
 362              		.cfi_offset 6, -8
 363              		.cfi_offset 14, -4
 364 0002 0446     		mov	r4, r0
  77:SYS/data_structure/queue.c ****     if ((queue->state == Queue_ok) || (queue->state == Queue_empty))
 365              		.loc 1 77 5 is_stmt 1 view .LVU104
 366              		.loc 1 77 15 is_stmt 0 view .LVU105
ARM GAS  /tmp/ccCYoNBS.s 			page 10


 367 0004 8379     		ldrb	r3, [r0, #6]	@ zero_extendqisi2
 368              		.loc 1 77 8 view .LVU106
 369 0006 0BB1     		cbz	r3, .L22
 370              		.loc 1 77 36 discriminator 1 view .LVU107
 371 0008 042B     		cmp	r3, #4
 372 000a 19D1     		bne	.L23
 373              	.L22:
  78:SYS/data_structure/queue.c ****     {
  79:SYS/data_structure/queue.c ****         if (len <= (QUEUE_MAX_SIZE - queue->size))
 374              		.loc 1 79 9 is_stmt 1 view .LVU108
 375              		.loc 1 79 43 is_stmt 0 view .LVU109
 376 000c A688     		ldrh	r6, [r4, #4]
 377              		.loc 1 79 36 view .LVU110
 378 000e C6F50073 		rsb	r3, r6, #512
 379              		.loc 1 79 12 view .LVU111
 380 0012 9942     		cmp	r1, r3
 381 0014 16DC     		bgt	.L31
 382              	.LBB4:
  80:SYS/data_structure/queue.c ****         {
  81:SYS/data_structure/queue.c ****             for (uint16_t index = 0; index < len; index++)
 383              		.loc 1 81 27 view .LVU112
 384 0016 0023     		movs	r3, #0
 385              	.LVL25:
 386              	.L24:
 387              		.loc 1 81 13 discriminator 1 view .LVU113
 388 0018 8B42     		cmp	r3, r1
 389 001a 07D2     		bcs	.L32
  82:SYS/data_structure/queue.c ****             {
  83:SYS/data_structure/queue.c ****                 queue->buff[queue->end_pos + index] = data[index];
 390              		.loc 1 83 17 is_stmt 1 discriminator 3 view .LVU114
 391              		.loc 1 83 34 is_stmt 0 discriminator 3 view .LVU115
 392 001c 6089     		ldrh	r0, [r4, #10]
 393              		.loc 1 83 44 discriminator 3 view .LVU116
 394 001e 1844     		add	r0, r0, r3
 395              		.loc 1 83 59 discriminator 3 view .LVU117
 396 0020 D55C     		ldrb	r5, [r2, r3]	@ zero_extendqisi2
 397              		.loc 1 83 53 discriminator 3 view .LVU118
 398 0022 2044     		add	r0, r0, r4
 399 0024 0573     		strb	r5, [r0, #12]
  81:SYS/data_structure/queue.c ****             {
 400              		.loc 1 81 56 discriminator 3 view .LVU119
 401 0026 0133     		adds	r3, r3, #1
 402              	.LVL26:
  81:SYS/data_structure/queue.c ****             {
 403              		.loc 1 81 56 discriminator 3 view .LVU120
 404 0028 9BB2     		uxth	r3, r3
 405              	.LVL27:
  81:SYS/data_structure/queue.c ****             {
 406              		.loc 1 81 56 discriminator 3 view .LVU121
 407 002a F5E7     		b	.L24
 408              	.L32:
  81:SYS/data_structure/queue.c ****             {
 409              		.loc 1 81 56 discriminator 3 view .LVU122
 410              	.LBE4:
  84:SYS/data_structure/queue.c ****             }
  85:SYS/data_structure/queue.c **** 
  86:SYS/data_structure/queue.c ****             queue->end_pos = (queue->end_pos + len) % QUEUE_MAX_SIZE;
ARM GAS  /tmp/ccCYoNBS.s 			page 11


 411              		.loc 1 86 13 is_stmt 1 view .LVU123
 412              		.loc 1 86 36 is_stmt 0 view .LVU124
 413 002c 6389     		ldrh	r3, [r4, #10]
 414              	.LVL28:
 415              		.loc 1 86 53 view .LVU125
 416 002e 0B44     		add	r3, r3, r1
 417 0030 C3F30803 		ubfx	r3, r3, #0, #9
 418              		.loc 1 86 28 view .LVU126
 419 0034 6381     		strh	r3, [r4, #10]	@ movhi
  87:SYS/data_structure/queue.c ****             queue->size += len;
 420              		.loc 1 87 13 is_stmt 1 view .LVU127
 421              		.loc 1 87 25 is_stmt 0 view .LVU128
 422 0036 3144     		add	r1, r1, r6
 423              	.LVL29:
 424              		.loc 1 87 25 view .LVU129
 425 0038 A180     		strh	r1, [r4, #4]	@ movhi
  88:SYS/data_structure/queue.c ****             Queue_GetState(queue);
 426              		.loc 1 88 13 is_stmt 1 view .LVU130
 427 003a 2046     		mov	r0, r4
 428 003c FFF7FEFF 		bl	Queue_GetState
 429              	.LVL30:
 430              	.L23:
  89:SYS/data_structure/queue.c ****         }
  90:SYS/data_structure/queue.c ****         else
  91:SYS/data_structure/queue.c ****         {
  92:SYS/data_structure/queue.c ****             queue->error_times[GET_QUEUE_ERROR_INDEX(Queue_overflow_w)]++;
  93:SYS/data_structure/queue.c ****             queue->total_error_times++;
  94:SYS/data_structure/queue.c ****             return Queue_overflow_w;
  95:SYS/data_structure/queue.c ****         }
  96:SYS/data_structure/queue.c ****     }
  97:SYS/data_structure/queue.c **** 
  98:SYS/data_structure/queue.c ****     return queue->state;
 431              		.loc 1 98 5 view .LVU131
 432              		.loc 1 98 17 is_stmt 0 view .LVU132
 433 0040 A079     		ldrb	r0, [r4, #6]	@ zero_extendqisi2
 434              	.L27:
  99:SYS/data_structure/queue.c **** }
 435              		.loc 1 99 1 view .LVU133
 436 0042 70BD     		pop	{r4, r5, r6, pc}
 437              	.LVL31:
 438              	.L31:
  92:SYS/data_structure/queue.c ****             queue->total_error_times++;
 439              		.loc 1 92 13 is_stmt 1 view .LVU134
  92:SYS/data_structure/queue.c ****             queue->total_error_times++;
 440              		.loc 1 92 31 is_stmt 0 view .LVU135
 441 0044 D4F81032 		ldr	r3, [r4, #528]
  92:SYS/data_structure/queue.c ****             queue->total_error_times++;
 442              		.loc 1 92 72 view .LVU136
 443 0048 0133     		adds	r3, r3, #1
 444 004a C4F81032 		str	r3, [r4, #528]
  93:SYS/data_structure/queue.c ****             return Queue_overflow_w;
 445              		.loc 1 93 13 is_stmt 1 view .LVU137
  93:SYS/data_structure/queue.c ****             return Queue_overflow_w;
 446              		.loc 1 93 18 is_stmt 0 view .LVU138
 447 004e D4F82032 		ldr	r3, [r4, #544]
  93:SYS/data_structure/queue.c ****             return Queue_overflow_w;
 448              		.loc 1 93 37 view .LVU139
ARM GAS  /tmp/ccCYoNBS.s 			page 12


 449 0052 0133     		adds	r3, r3, #1
 450 0054 C4F82032 		str	r3, [r4, #544]
  94:SYS/data_structure/queue.c ****         }
 451              		.loc 1 94 13 is_stmt 1 view .LVU140
  94:SYS/data_structure/queue.c ****         }
 452              		.loc 1 94 20 is_stmt 0 view .LVU141
 453 0058 0220     		movs	r0, #2
 454              	.LVL32:
  94:SYS/data_structure/queue.c ****         }
 455              		.loc 1 94 20 view .LVU142
 456 005a F2E7     		b	.L27
 457              		.cfi_endproc
 458              	.LFE130:
 460              		.section	.text.Queue_PopCharFromFront,"ax",%progbits
 461              		.align	1
 462              		.global	Queue_PopCharFromFront
 463              		.syntax unified
 464              		.thumb
 465              		.thumb_func
 466              		.fpu fpv4-sp-d16
 468              	Queue_PopCharFromFront:
 469              	.LVL33:
 470              	.LFB131:
 100:SYS/data_structure/queue.c **** 
 101:SYS/data_structure/queue.c **** Queue_state Queue_PopCharFromFront(queue_s *queue, char *out_data)
 102:SYS/data_structure/queue.c **** {
 471              		.loc 1 102 1 is_stmt 1 view -0
 472              		.cfi_startproc
 473              		@ args = 0, pretend = 0, frame = 0
 474              		@ frame_needed = 0, uses_anonymous_args = 0
 475              		.loc 1 102 1 is_stmt 0 view .LVU144
 476 0000 10B5     		push	{r4, lr}
 477              	.LCFI4:
 478              		.cfi_def_cfa_offset 8
 479              		.cfi_offset 4, -8
 480              		.cfi_offset 14, -4
 481 0002 0446     		mov	r4, r0
 103:SYS/data_structure/queue.c ****     if ((queue->state == Queue_ok) || (queue->state == Queue_full))
 482              		.loc 1 103 5 is_stmt 1 view .LVU145
 483              		.loc 1 103 15 is_stmt 0 view .LVU146
 484 0004 8379     		ldrb	r3, [r0, #6]	@ zero_extendqisi2
 485              		.loc 1 103 8 view .LVU147
 486 0006 0BB1     		cbz	r3, .L34
 487              		.loc 1 103 36 discriminator 1 view .LVU148
 488 0008 052B     		cmp	r3, #5
 489 000a 0DD1     		bne	.L35
 490              	.L34:
 104:SYS/data_structure/queue.c ****     {
 105:SYS/data_structure/queue.c ****         *out_data = queue->buff[queue->head_pos];
 491              		.loc 1 105 9 is_stmt 1 view .LVU149
 492              		.loc 1 105 38 is_stmt 0 view .LVU150
 493 000c 2389     		ldrh	r3, [r4, #8]
 494              		.loc 1 105 32 view .LVU151
 495 000e 2344     		add	r3, r3, r4
 496 0010 1B7B     		ldrb	r3, [r3, #12]	@ zero_extendqisi2
 497              		.loc 1 105 19 view .LVU152
 498 0012 0B70     		strb	r3, [r1]
ARM GAS  /tmp/ccCYoNBS.s 			page 13


 106:SYS/data_structure/queue.c ****         queue->buff[queue->head_pos] = NULL;
 499              		.loc 1 106 9 is_stmt 1 view .LVU153
 500              		.loc 1 106 26 is_stmt 0 view .LVU154
 501 0014 2389     		ldrh	r3, [r4, #8]
 502              		.loc 1 106 38 view .LVU155
 503 0016 2344     		add	r3, r3, r4
 504 0018 0022     		movs	r2, #0
 505 001a 1A73     		strb	r2, [r3, #12]
 107:SYS/data_structure/queue.c **** 
 108:SYS/data_structure/queue.c ****         queue->head_pos == (queue->head_pos + 1) % QUEUE_MAX_SIZE;
 506              		.loc 1 108 9 is_stmt 1 view .LVU156
 109:SYS/data_structure/queue.c ****         queue->size--;
 507              		.loc 1 109 9 view .LVU157
 508              		.loc 1 109 14 is_stmt 0 view .LVU158
 509 001c A388     		ldrh	r3, [r4, #4]
 510              		.loc 1 109 20 view .LVU159
 511 001e 013B     		subs	r3, r3, #1
 512 0020 A380     		strh	r3, [r4, #4]	@ movhi
 110:SYS/data_structure/queue.c **** 
 111:SYS/data_structure/queue.c ****         Queue_GetState(queue);
 513              		.loc 1 111 9 is_stmt 1 view .LVU160
 514 0022 2046     		mov	r0, r4
 515              	.LVL34:
 516              		.loc 1 111 9 is_stmt 0 view .LVU161
 517 0024 FFF7FEFF 		bl	Queue_GetState
 518              	.LVL35:
 519              	.L35:
 112:SYS/data_structure/queue.c ****     }
 113:SYS/data_structure/queue.c **** 
 114:SYS/data_structure/queue.c ****     return queue->state;
 520              		.loc 1 114 5 is_stmt 1 view .LVU162
 115:SYS/data_structure/queue.c **** }
 521              		.loc 1 115 1 is_stmt 0 view .LVU163
 522 0028 A079     		ldrb	r0, [r4, #6]	@ zero_extendqisi2
 523 002a 10BD     		pop	{r4, pc}
 524              		.loc 1 115 1 view .LVU164
 525              		.cfi_endproc
 526              	.LFE131:
 528              		.section	.text.Queue_PopCharFromBack,"ax",%progbits
 529              		.align	1
 530              		.global	Queue_PopCharFromBack
 531              		.syntax unified
 532              		.thumb
 533              		.thumb_func
 534              		.fpu fpv4-sp-d16
 536              	Queue_PopCharFromBack:
 537              	.LVL36:
 538              	.LFB132:
 116:SYS/data_structure/queue.c **** 
 117:SYS/data_structure/queue.c **** //still have bug in this func fix when i start to use it hahahahha boooyaaaaa
 118:SYS/data_structure/queue.c **** Queue_state Queue_PopCharFromBack(queue_s *queue, char *out_data)
 119:SYS/data_structure/queue.c **** {
 539              		.loc 1 119 1 is_stmt 1 view -0
 540              		.cfi_startproc
 541              		@ args = 0, pretend = 0, frame = 0
 542              		@ frame_needed = 0, uses_anonymous_args = 0
 543              		.loc 1 119 1 is_stmt 0 view .LVU166
ARM GAS  /tmp/ccCYoNBS.s 			page 14


 544 0000 10B5     		push	{r4, lr}
 545              	.LCFI5:
 546              		.cfi_def_cfa_offset 8
 547              		.cfi_offset 4, -8
 548              		.cfi_offset 14, -4
 549 0002 0446     		mov	r4, r0
 120:SYS/data_structure/queue.c ****     if ((queue->state == Queue_ok) || (queue->state == Queue_full))
 550              		.loc 1 120 5 is_stmt 1 view .LVU167
 551              		.loc 1 120 15 is_stmt 0 view .LVU168
 552 0004 8379     		ldrb	r3, [r0, #6]	@ zero_extendqisi2
 553              		.loc 1 120 8 view .LVU169
 554 0006 0BB1     		cbz	r3, .L38
 555              		.loc 1 120 36 discriminator 1 view .LVU170
 556 0008 052B     		cmp	r3, #5
 557 000a 17D1     		bne	.L39
 558              	.L38:
 121:SYS/data_structure/queue.c ****     {
 122:SYS/data_structure/queue.c ****         *out_data = queue->buff[queue->end_pos - 1];
 559              		.loc 1 122 9 is_stmt 1 view .LVU171
 560              		.loc 1 122 38 is_stmt 0 view .LVU172
 561 000c 6389     		ldrh	r3, [r4, #10]
 562              		.loc 1 122 48 view .LVU173
 563 000e 013B     		subs	r3, r3, #1
 564              		.loc 1 122 32 view .LVU174
 565 0010 2344     		add	r3, r3, r4
 566 0012 1B7B     		ldrb	r3, [r3, #12]	@ zero_extendqisi2
 567              		.loc 1 122 19 view .LVU175
 568 0014 0B70     		strb	r3, [r1]
 123:SYS/data_structure/queue.c ****         queue->buff[queue->end_pos - 1] = NULL;
 569              		.loc 1 123 9 is_stmt 1 view .LVU176
 570              		.loc 1 123 26 is_stmt 0 view .LVU177
 571 0016 6389     		ldrh	r3, [r4, #10]
 572              		.loc 1 123 36 view .LVU178
 573 0018 013B     		subs	r3, r3, #1
 574              		.loc 1 123 41 view .LVU179
 575 001a E218     		adds	r2, r4, r3
 576 001c 0021     		movs	r1, #0
 577              	.LVL37:
 578              		.loc 1 123 41 view .LVU180
 579 001e 1173     		strb	r1, [r2, #12]
 124:SYS/data_structure/queue.c **** 
 125:SYS/data_structure/queue.c ****         queue->end_pos = (queue->end_pos - 1) % QUEUE_MAX_SIZE;
 580              		.loc 1 125 9 is_stmt 1 view .LVU181
 581              		.loc 1 125 47 is_stmt 0 view .LVU182
 582 0020 CA1A     		subs	r2, r1, r3
 583 0022 C3F30803 		ubfx	r3, r3, #0, #9
 584 0026 C2F30802 		ubfx	r2, r2, #0, #9
 585 002a 58BF     		it	pl
 586 002c 5342     		rsbpl	r3, r2, #0
 587              		.loc 1 125 24 view .LVU183
 588 002e 6381     		strh	r3, [r4, #10]	@ movhi
 126:SYS/data_structure/queue.c ****         queue->size--;
 589              		.loc 1 126 9 is_stmt 1 view .LVU184
 590              		.loc 1 126 14 is_stmt 0 view .LVU185
 591 0030 A388     		ldrh	r3, [r4, #4]
 592              		.loc 1 126 20 view .LVU186
 593 0032 013B     		subs	r3, r3, #1
ARM GAS  /tmp/ccCYoNBS.s 			page 15


 594 0034 A380     		strh	r3, [r4, #4]	@ movhi
 127:SYS/data_structure/queue.c **** 
 128:SYS/data_structure/queue.c ****         Queue_GetState(queue);
 595              		.loc 1 128 9 is_stmt 1 view .LVU187
 596 0036 2046     		mov	r0, r4
 597              	.LVL38:
 598              		.loc 1 128 9 is_stmt 0 view .LVU188
 599 0038 FFF7FEFF 		bl	Queue_GetState
 600              	.LVL39:
 601              	.L39:
 129:SYS/data_structure/queue.c ****     }
 130:SYS/data_structure/queue.c **** 
 131:SYS/data_structure/queue.c ****     return queue->state;
 602              		.loc 1 131 5 is_stmt 1 view .LVU189
 132:SYS/data_structure/queue.c **** }
 603              		.loc 1 132 1 is_stmt 0 view .LVU190
 604 003c A079     		ldrb	r0, [r4, #6]	@ zero_extendqisi2
 605 003e 10BD     		pop	{r4, pc}
 606              		.loc 1 132 1 view .LVU191
 607              		.cfi_endproc
 608              	.LFE132:
 610              		.section	.text.Queue_Dump,"ax",%progbits
 611              		.align	1
 612              		.global	Queue_Dump
 613              		.syntax unified
 614              		.thumb
 615              		.thumb_func
 616              		.fpu fpv4-sp-d16
 618              	Queue_Dump:
 619              	.LVL40:
 620              	.LFB133:
 133:SYS/data_structure/queue.c **** 
 134:SYS/data_structure/queue.c **** Queue_state Queue_Dump(queue_s *queue, char *out_data)
 135:SYS/data_structure/queue.c **** {
 621              		.loc 1 135 1 is_stmt 1 view -0
 622              		.cfi_startproc
 623              		@ args = 0, pretend = 0, frame = 0
 624              		@ frame_needed = 0, uses_anonymous_args = 0
 625              		@ link register save eliminated.
 626              		.loc 1 135 1 is_stmt 0 view .LVU193
 627 0000 10B4     		push	{r4}
 628              	.LCFI6:
 629              		.cfi_def_cfa_offset 4
 630              		.cfi_offset 4, -4
 136:SYS/data_structure/queue.c **** 
 137:SYS/data_structure/queue.c ****     for (uint16_t index = 0; index < queue->size; index++)
 631              		.loc 1 137 5 is_stmt 1 view .LVU194
 632              	.LBB5:
 633              		.loc 1 137 10 view .LVU195
 634              	.LVL41:
 635              		.loc 1 137 19 is_stmt 0 view .LVU196
 636 0002 0023     		movs	r3, #0
 637              		.loc 1 137 5 view .LVU197
 638 0004 09E0     		b	.L42
 639              	.LVL42:
 640              	.L43:
 138:SYS/data_structure/queue.c ****     {
ARM GAS  /tmp/ccCYoNBS.s 			page 16


 139:SYS/data_structure/queue.c ****         if (queue->output_type == Queue_FIFO)
 140:SYS/data_structure/queue.c ****         {
 141:SYS/data_structure/queue.c ****             out_data[index] = queue->buff[index];
 142:SYS/data_structure/queue.c ****         }
 143:SYS/data_structure/queue.c ****         else
 144:SYS/data_structure/queue.c ****         {
 145:SYS/data_structure/queue.c ****             out_data[index] = queue->buff[queue->size - 1 - index];
 641              		.loc 1 145 13 is_stmt 1 view .LVU198
 642              		.loc 1 145 55 is_stmt 0 view .LVU199
 643 0006 013A     		subs	r2, r2, #1
 644              		.loc 1 145 59 view .LVU200
 645 0008 D21A     		subs	r2, r2, r3
 646              		.loc 1 145 42 view .LVU201
 647 000a 0244     		add	r2, r2, r0
 648 000c 127B     		ldrb	r2, [r2, #12]	@ zero_extendqisi2
 649              		.loc 1 145 29 view .LVU202
 650 000e CA54     		strb	r2, [r1, r3]
 651              	.L44:
 146:SYS/data_structure/queue.c ****         }
 147:SYS/data_structure/queue.c **** 
 148:SYS/data_structure/queue.c ****         queue->buff[index] = NULL;
 652              		.loc 1 148 9 is_stmt 1 discriminator 2 view .LVU203
 653              		.loc 1 148 28 is_stmt 0 discriminator 2 view .LVU204
 654 0010 C218     		adds	r2, r0, r3
 655 0012 0024     		movs	r4, #0
 656 0014 1473     		strb	r4, [r2, #12]
 137:SYS/data_structure/queue.c ****     {
 657              		.loc 1 137 56 discriminator 2 view .LVU205
 658 0016 0133     		adds	r3, r3, #1
 659              	.LVL43:
 137:SYS/data_structure/queue.c ****     {
 660              		.loc 1 137 56 discriminator 2 view .LVU206
 661 0018 9BB2     		uxth	r3, r3
 662              	.LVL44:
 663              	.L42:
 137:SYS/data_structure/queue.c ****     {
 664              		.loc 1 137 43 discriminator 1 view .LVU207
 665 001a 8288     		ldrh	r2, [r0, #4]
 137:SYS/data_structure/queue.c ****     {
 666              		.loc 1 137 5 discriminator 1 view .LVU208
 667 001c 9A42     		cmp	r2, r3
 668 001e 07D9     		bls	.L47
 139:SYS/data_structure/queue.c ****         {
 669              		.loc 1 139 9 is_stmt 1 view .LVU209
 139:SYS/data_structure/queue.c ****         {
 670              		.loc 1 139 18 is_stmt 0 view .LVU210
 671 0020 90F80C42 		ldrb	r4, [r0, #524]	@ zero_extendqisi2
 139:SYS/data_structure/queue.c ****         {
 672              		.loc 1 139 12 view .LVU211
 673 0024 002C     		cmp	r4, #0
 674 0026 EED1     		bne	.L43
 141:SYS/data_structure/queue.c ****         }
 675              		.loc 1 141 13 is_stmt 1 view .LVU212
 141:SYS/data_structure/queue.c ****         }
 676              		.loc 1 141 42 is_stmt 0 view .LVU213
 677 0028 C218     		adds	r2, r0, r3
 678 002a 127B     		ldrb	r2, [r2, #12]	@ zero_extendqisi2
ARM GAS  /tmp/ccCYoNBS.s 			page 17


 141:SYS/data_structure/queue.c ****         }
 679              		.loc 1 141 29 view .LVU214
 680 002c CA54     		strb	r2, [r1, r3]
 681 002e EFE7     		b	.L44
 682              	.L47:
 141:SYS/data_structure/queue.c ****         }
 683              		.loc 1 141 29 view .LVU215
 684              	.LBE5:
 149:SYS/data_structure/queue.c ****     }
 150:SYS/data_structure/queue.c **** 
 151:SYS/data_structure/queue.c ****     queue->size = 0;
 685              		.loc 1 151 5 is_stmt 1 view .LVU216
 686              		.loc 1 151 17 is_stmt 0 view .LVU217
 687 0030 0023     		movs	r3, #0
 688              	.LVL45:
 689              		.loc 1 151 17 view .LVU218
 690 0032 8380     		strh	r3, [r0, #4]	@ movhi
 152:SYS/data_structure/queue.c ****     queue->end_pos = 0;
 691              		.loc 1 152 5 is_stmt 1 view .LVU219
 692              		.loc 1 152 20 is_stmt 0 view .LVU220
 693 0034 4381     		strh	r3, [r0, #10]	@ movhi
 153:SYS/data_structure/queue.c ****     queue->head_pos = 0;
 694              		.loc 1 153 5 is_stmt 1 view .LVU221
 695              		.loc 1 153 21 is_stmt 0 view .LVU222
 696 0036 0381     		strh	r3, [r0, #8]	@ movhi
 154:SYS/data_structure/queue.c ****     queue->state = Queue_empty;
 697              		.loc 1 154 5 is_stmt 1 view .LVU223
 698              		.loc 1 154 18 is_stmt 0 view .LVU224
 699 0038 0423     		movs	r3, #4
 700 003a 8371     		strb	r3, [r0, #6]
 155:SYS/data_structure/queue.c **** 
 156:SYS/data_structure/queue.c ****     return queue->state;
 701              		.loc 1 156 5 is_stmt 1 view .LVU225
 157:SYS/data_structure/queue.c **** }
 702              		.loc 1 157 1 is_stmt 0 view .LVU226
 703 003c 1846     		mov	r0, r3
 704              	.LVL46:
 705              		.loc 1 157 1 view .LVU227
 706 003e 5DF8044B 		ldr	r4, [sp], #4
 707              	.LCFI7:
 708              		.cfi_restore 4
 709              		.cfi_def_cfa_offset 0
 710 0042 7047     		bx	lr
 711              		.cfi_endproc
 712              	.LFE133:
 714              		.section	.text.Queue_PopLenCharFromFront,"ax",%progbits
 715              		.align	1
 716              		.global	Queue_PopLenCharFromFront
 717              		.syntax unified
 718              		.thumb
 719              		.thumb_func
 720              		.fpu fpv4-sp-d16
 722              	Queue_PopLenCharFromFront:
 723              	.LVL47:
 724              	.LFB134:
 158:SYS/data_structure/queue.c **** 
 159:SYS/data_structure/queue.c **** Queue_state Queue_PopLenCharFromFront(queue_s *queue, uint16_t len, char *out_buff)
ARM GAS  /tmp/ccCYoNBS.s 			page 18


 160:SYS/data_structure/queue.c **** {
 725              		.loc 1 160 1 is_stmt 1 view -0
 726              		.cfi_startproc
 727              		@ args = 0, pretend = 0, frame = 0
 728              		@ frame_needed = 0, uses_anonymous_args = 0
 729              		.loc 1 160 1 is_stmt 0 view .LVU229
 730 0000 38B5     		push	{r3, r4, r5, lr}
 731              	.LCFI8:
 732              		.cfi_def_cfa_offset 16
 733              		.cfi_offset 3, -16
 734              		.cfi_offset 4, -12
 735              		.cfi_offset 5, -8
 736              		.cfi_offset 14, -4
 161:SYS/data_structure/queue.c ****     static uint32_t test = 0;
 737              		.loc 1 161 5 is_stmt 1 view .LVU230
 162:SYS/data_structure/queue.c ****     if ((queue->state == Queue_ok) || (queue->state == Queue_full))
 738              		.loc 1 162 5 view .LVU231
 739              		.loc 1 162 15 is_stmt 0 view .LVU232
 740 0002 8379     		ldrb	r3, [r0, #6]	@ zero_extendqisi2
 741              		.loc 1 162 8 view .LVU233
 742 0004 0BB1     		cbz	r3, .L49
 743              		.loc 1 162 36 discriminator 1 view .LVU234
 744 0006 052B     		cmp	r3, #5
 745 0008 41D1     		bne	.L56
 746              	.L49:
 163:SYS/data_structure/queue.c ****     {
 164:SYS/data_structure/queue.c ****         if (len <= queue->size)
 747              		.loc 1 164 9 is_stmt 1 view .LVU235
 748              		.loc 1 164 25 is_stmt 0 view .LVU236
 749 000a 8388     		ldrh	r3, [r0, #4]
 750              		.loc 1 164 12 view .LVU237
 751 000c 8B42     		cmp	r3, r1
 752 000e 2ED3     		bcc	.L60
 753              	.LBB6:
 165:SYS/data_structure/queue.c ****         {
 166:SYS/data_structure/queue.c ****             for (uint16_t index = 0; index < len; index++)
 754              		.loc 1 166 27 view .LVU238
 755 0010 0023     		movs	r3, #0
 756 0012 0FE0     		b	.L51
 757              	.LVL48:
 758              	.L53:
 167:SYS/data_structure/queue.c ****             {
 168:SYS/data_structure/queue.c ****                 if (queue->output_type == Queue_FIFO)
 169:SYS/data_structure/queue.c ****                 {
 170:SYS/data_structure/queue.c ****                     //FIFO
 171:SYS/data_structure/queue.c ****                     out_buff[index] = queue->buff[queue->head_pos + index];
 172:SYS/data_structure/queue.c ****                     queue->buff[queue->head_pos + index] = NULL;
 173:SYS/data_structure/queue.c ****                 }
 174:SYS/data_structure/queue.c ****                 else
 175:SYS/data_structure/queue.c ****                 {
 176:SYS/data_structure/queue.c ****                     //LIFO
 177:SYS/data_structure/queue.c ****                     out_buff[index] = queue->buff[queue->head_pos + len - 1 - index];
 759              		.loc 1 177 21 is_stmt 1 view .LVU239
 760              		.loc 1 177 56 is_stmt 0 view .LVU240
 761 0014 0489     		ldrh	r4, [r0, #8]
 762              		.loc 1 177 67 view .LVU241
 763 0016 0C44     		add	r4, r4, r1
ARM GAS  /tmp/ccCYoNBS.s 			page 19


 764              		.loc 1 177 73 view .LVU242
 765 0018 013C     		subs	r4, r4, #1
 766              		.loc 1 177 77 view .LVU243
 767 001a E41A     		subs	r4, r4, r3
 768              		.loc 1 177 50 view .LVU244
 769 001c 0444     		add	r4, r4, r0
 770 001e 247B     		ldrb	r4, [r4, #12]	@ zero_extendqisi2
 771              		.loc 1 177 37 view .LVU245
 772 0020 D454     		strb	r4, [r2, r3]
 178:SYS/data_structure/queue.c ****                     queue->buff[queue->head_pos + len - 1 - index] = NULL;
 773              		.loc 1 178 21 is_stmt 1 view .LVU246
 774              		.loc 1 178 38 is_stmt 0 view .LVU247
 775 0022 0489     		ldrh	r4, [r0, #8]
 776              		.loc 1 178 49 view .LVU248
 777 0024 0C44     		add	r4, r4, r1
 778              		.loc 1 178 55 view .LVU249
 779 0026 013C     		subs	r4, r4, #1
 780              		.loc 1 178 59 view .LVU250
 781 0028 E41A     		subs	r4, r4, r3
 782              		.loc 1 178 68 view .LVU251
 783 002a 0444     		add	r4, r4, r0
 784 002c 0025     		movs	r5, #0
 785 002e 2573     		strb	r5, [r4, #12]
 786              	.L54:
 166:SYS/data_structure/queue.c ****             {
 787              		.loc 1 166 56 discriminator 2 view .LVU252
 788 0030 0133     		adds	r3, r3, #1
 789              	.LVL49:
 166:SYS/data_structure/queue.c ****             {
 790              		.loc 1 166 56 discriminator 2 view .LVU253
 791 0032 9BB2     		uxth	r3, r3
 792              	.LVL50:
 793              	.L51:
 166:SYS/data_structure/queue.c ****             {
 794              		.loc 1 166 13 discriminator 1 view .LVU254
 795 0034 8B42     		cmp	r3, r1
 796 0036 0ED2     		bcs	.L61
 168:SYS/data_structure/queue.c ****                 {
 797              		.loc 1 168 17 is_stmt 1 view .LVU255
 168:SYS/data_structure/queue.c ****                 {
 798              		.loc 1 168 26 is_stmt 0 view .LVU256
 799 0038 90F80C42 		ldrb	r4, [r0, #524]	@ zero_extendqisi2
 168:SYS/data_structure/queue.c ****                 {
 800              		.loc 1 168 20 view .LVU257
 801 003c 002C     		cmp	r4, #0
 802 003e E9D1     		bne	.L53
 171:SYS/data_structure/queue.c ****                     queue->buff[queue->head_pos + index] = NULL;
 803              		.loc 1 171 21 is_stmt 1 view .LVU258
 171:SYS/data_structure/queue.c ****                     queue->buff[queue->head_pos + index] = NULL;
 804              		.loc 1 171 56 is_stmt 0 view .LVU259
 805 0040 0489     		ldrh	r4, [r0, #8]
 171:SYS/data_structure/queue.c ****                     queue->buff[queue->head_pos + index] = NULL;
 806              		.loc 1 171 67 view .LVU260
 807 0042 1C44     		add	r4, r4, r3
 171:SYS/data_structure/queue.c ****                     queue->buff[queue->head_pos + index] = NULL;
 808              		.loc 1 171 50 view .LVU261
 809 0044 0444     		add	r4, r4, r0
ARM GAS  /tmp/ccCYoNBS.s 			page 20


 810 0046 247B     		ldrb	r4, [r4, #12]	@ zero_extendqisi2
 171:SYS/data_structure/queue.c ****                     queue->buff[queue->head_pos + index] = NULL;
 811              		.loc 1 171 37 view .LVU262
 812 0048 D454     		strb	r4, [r2, r3]
 172:SYS/data_structure/queue.c ****                 }
 813              		.loc 1 172 21 is_stmt 1 view .LVU263
 172:SYS/data_structure/queue.c ****                 }
 814              		.loc 1 172 38 is_stmt 0 view .LVU264
 815 004a 0489     		ldrh	r4, [r0, #8]
 172:SYS/data_structure/queue.c ****                 }
 816              		.loc 1 172 49 view .LVU265
 817 004c 1C44     		add	r4, r4, r3
 172:SYS/data_structure/queue.c ****                 }
 818              		.loc 1 172 58 view .LVU266
 819 004e 0444     		add	r4, r4, r0
 820 0050 0025     		movs	r5, #0
 821 0052 2573     		strb	r5, [r4, #12]
 822 0054 ECE7     		b	.L54
 823              	.L61:
 172:SYS/data_structure/queue.c ****                 }
 824              		.loc 1 172 58 view .LVU267
 825              	.LBE6:
 179:SYS/data_structure/queue.c ****                 }
 180:SYS/data_structure/queue.c ****             }
 181:SYS/data_structure/queue.c **** 
 182:SYS/data_structure/queue.c ****             queue->size -= len;
 826              		.loc 1 182 13 is_stmt 1 view .LVU268
 827              		.loc 1 182 25 is_stmt 0 view .LVU269
 828 0056 8388     		ldrh	r3, [r0, #4]
 829              	.LVL51:
 830              		.loc 1 182 25 view .LVU270
 831 0058 5B1A     		subs	r3, r3, r1
 832 005a 8380     		strh	r3, [r0, #4]	@ movhi
 183:SYS/data_structure/queue.c ****             queue->head_pos = (queue->head_pos + len) % QUEUE_MAX_SIZE;
 833              		.loc 1 183 13 is_stmt 1 view .LVU271
 834              		.loc 1 183 37 is_stmt 0 view .LVU272
 835 005c 0389     		ldrh	r3, [r0, #8]
 836              		.loc 1 183 55 view .LVU273
 837 005e 1944     		add	r1, r1, r3
 838              	.LVL52:
 839              		.loc 1 183 55 view .LVU274
 840 0060 C1F30801 		ubfx	r1, r1, #0, #9
 841              		.loc 1 183 29 view .LVU275
 842 0064 0181     		strh	r1, [r0, #8]	@ movhi
 184:SYS/data_structure/queue.c **** 
 185:SYS/data_structure/queue.c ****             Queue_GetState(queue);
 843              		.loc 1 185 13 is_stmt 1 view .LVU276
 844 0066 FFF7FEFF 		bl	Queue_GetState
 845              	.LVL53:
 186:SYS/data_structure/queue.c ****             return Queue_ok;
 846              		.loc 1 186 13 view .LVU277
 847              		.loc 1 186 20 is_stmt 0 view .LVU278
 848 006a 0020     		movs	r0, #0
 849              	.L50:
 187:SYS/data_structure/queue.c ****         }
 188:SYS/data_structure/queue.c ****         else
 189:SYS/data_structure/queue.c ****         {
ARM GAS  /tmp/ccCYoNBS.s 			page 21


 190:SYS/data_structure/queue.c ****             test++;
 191:SYS/data_structure/queue.c ****             //count error num
 192:SYS/data_structure/queue.c ****             queue->error_times[GET_QUEUE_ERROR_INDEX(Queue_overlimit_r)]++;
 193:SYS/data_structure/queue.c ****             queue->total_error_times++;
 194:SYS/data_structure/queue.c ****             return Queue_overlimit_r;
 195:SYS/data_structure/queue.c ****         }
 196:SYS/data_structure/queue.c ****     }
 197:SYS/data_structure/queue.c ****     else
 198:SYS/data_structure/queue.c ****     {
 199:SYS/data_structure/queue.c ****         return Queue_empty;
 200:SYS/data_structure/queue.c ****     }
 201:SYS/data_structure/queue.c **** }
 850              		.loc 1 201 1 view .LVU279
 851 006c 38BD     		pop	{r3, r4, r5, pc}
 852              	.LVL54:
 853              	.L60:
 190:SYS/data_structure/queue.c ****             //count error num
 854              		.loc 1 190 13 is_stmt 1 view .LVU280
 190:SYS/data_structure/queue.c ****             //count error num
 855              		.loc 1 190 17 is_stmt 0 view .LVU281
 856 006e 094A     		ldr	r2, .L62
 857              	.LVL55:
 190:SYS/data_structure/queue.c ****             //count error num
 858              		.loc 1 190 17 view .LVU282
 859 0070 1368     		ldr	r3, [r2]
 860 0072 0133     		adds	r3, r3, #1
 861 0074 1360     		str	r3, [r2]
 192:SYS/data_structure/queue.c ****             queue->total_error_times++;
 862              		.loc 1 192 13 is_stmt 1 view .LVU283
 192:SYS/data_structure/queue.c ****             queue->total_error_times++;
 863              		.loc 1 192 31 is_stmt 0 view .LVU284
 864 0076 D0F81432 		ldr	r3, [r0, #532]
 192:SYS/data_structure/queue.c ****             queue->total_error_times++;
 865              		.loc 1 192 73 view .LVU285
 866 007a 0133     		adds	r3, r3, #1
 867 007c C0F81432 		str	r3, [r0, #532]
 193:SYS/data_structure/queue.c ****             return Queue_overlimit_r;
 868              		.loc 1 193 13 is_stmt 1 view .LVU286
 193:SYS/data_structure/queue.c ****             return Queue_overlimit_r;
 869              		.loc 1 193 18 is_stmt 0 view .LVU287
 870 0080 D0F82032 		ldr	r3, [r0, #544]
 193:SYS/data_structure/queue.c ****             return Queue_overlimit_r;
 871              		.loc 1 193 37 view .LVU288
 872 0084 0133     		adds	r3, r3, #1
 873 0086 C0F82032 		str	r3, [r0, #544]
 194:SYS/data_structure/queue.c ****         }
 874              		.loc 1 194 13 is_stmt 1 view .LVU289
 194:SYS/data_structure/queue.c ****         }
 875              		.loc 1 194 20 is_stmt 0 view .LVU290
 876 008a 0320     		movs	r0, #3
 877              	.LVL56:
 194:SYS/data_structure/queue.c ****         }
 878              		.loc 1 194 20 view .LVU291
 879 008c EEE7     		b	.L50
 880              	.LVL57:
 881              	.L56:
 199:SYS/data_structure/queue.c ****     }
ARM GAS  /tmp/ccCYoNBS.s 			page 22


 882              		.loc 1 199 16 view .LVU292
 883 008e 0420     		movs	r0, #4
 884              	.LVL58:
 199:SYS/data_structure/queue.c ****     }
 885              		.loc 1 199 16 view .LVU293
 886 0090 ECE7     		b	.L50
 887              	.L63:
 888 0092 00BF     		.align	2
 889              	.L62:
 890 0094 00000000 		.word	.LANCHOR1
 891              		.cfi_endproc
 892              	.LFE134:
 894              		.section	.text.Queue_PopLenCharFromBack,"ax",%progbits
 895              		.align	1
 896              		.global	Queue_PopLenCharFromBack
 897              		.syntax unified
 898              		.thumb
 899              		.thumb_func
 900              		.fpu fpv4-sp-d16
 902              	Queue_PopLenCharFromBack:
 903              	.LVL59:
 904              	.LFB135:
 202:SYS/data_structure/queue.c **** 
 203:SYS/data_structure/queue.c **** //func describe same as Queue_PopCharFromBack
 204:SYS/data_structure/queue.c **** Queue_state Queue_PopLenCharFromBack(queue_s *queue, uint16_t len, char *out_buff)
 205:SYS/data_structure/queue.c **** {
 905              		.loc 1 205 1 is_stmt 1 view -0
 906              		.cfi_startproc
 907              		@ args = 0, pretend = 0, frame = 0
 908              		@ frame_needed = 0, uses_anonymous_args = 0
 909              		.loc 1 205 1 is_stmt 0 view .LVU295
 910 0000 38B5     		push	{r3, r4, r5, lr}
 911              	.LCFI9:
 912              		.cfi_def_cfa_offset 16
 913              		.cfi_offset 3, -16
 914              		.cfi_offset 4, -12
 915              		.cfi_offset 5, -8
 916              		.cfi_offset 14, -4
 917 0002 0446     		mov	r4, r0
 206:SYS/data_structure/queue.c ****     if ((queue->state == Queue_ok) || (queue->state == Queue_full))
 918              		.loc 1 206 5 is_stmt 1 view .LVU296
 919              		.loc 1 206 15 is_stmt 0 view .LVU297
 920 0004 8379     		ldrb	r3, [r0, #6]	@ zero_extendqisi2
 921              		.loc 1 206 8 view .LVU298
 922 0006 0BB1     		cbz	r3, .L65
 923              		.loc 1 206 36 discriminator 1 view .LVU299
 924 0008 052B     		cmp	r3, #5
 925 000a 37D1     		bne	.L66
 926              	.L65:
 207:SYS/data_structure/queue.c ****     {
 208:SYS/data_structure/queue.c ****         if (len < queue->size)
 927              		.loc 1 208 9 is_stmt 1 view .LVU300
 928              		.loc 1 208 24 is_stmt 0 view .LVU301
 929 000c A388     		ldrh	r3, [r4, #4]
 930              		.loc 1 208 12 view .LVU302
 931 000e 8B42     		cmp	r3, r1
 932 0010 36D9     		bls	.L76
ARM GAS  /tmp/ccCYoNBS.s 			page 23


 933              	.LBB7:
 209:SYS/data_structure/queue.c ****         {
 210:SYS/data_structure/queue.c ****             for (uint16_t index = 0; index < len; index++)
 934              		.loc 1 210 27 view .LVU303
 935 0012 0023     		movs	r3, #0
 936 0014 0FE0     		b	.L67
 937              	.LVL60:
 938              	.L69:
 211:SYS/data_structure/queue.c ****             {
 212:SYS/data_structure/queue.c ****                 if (queue->output_type == Queue_LIFO)
 213:SYS/data_structure/queue.c ****                 {
 214:SYS/data_structure/queue.c ****                     out_buff[index] = queue->buff[(queue->end_pos - 1) - index];
 215:SYS/data_structure/queue.c ****                     queue->buff[(queue->end_pos - 1) - index] = NULL;
 216:SYS/data_structure/queue.c ****                 }
 217:SYS/data_structure/queue.c ****                 else
 218:SYS/data_structure/queue.c ****                 {
 219:SYS/data_structure/queue.c ****                     out_buff[index] = queue->buff[(queue->end_pos - 1 - len) + index];
 939              		.loc 1 219 21 is_stmt 1 view .LVU304
 940              		.loc 1 219 57 is_stmt 0 view .LVU305
 941 0016 6089     		ldrh	r0, [r4, #10]
 942              		.loc 1 219 67 view .LVU306
 943 0018 0138     		subs	r0, r0, #1
 944              		.loc 1 219 71 view .LVU307
 945 001a 401A     		subs	r0, r0, r1
 946              		.loc 1 219 78 view .LVU308
 947 001c 1844     		add	r0, r0, r3
 948              		.loc 1 219 50 view .LVU309
 949 001e 2044     		add	r0, r0, r4
 950 0020 007B     		ldrb	r0, [r0, #12]	@ zero_extendqisi2
 951              		.loc 1 219 37 view .LVU310
 952 0022 D054     		strb	r0, [r2, r3]
 220:SYS/data_structure/queue.c ****                     queue->buff[(queue->end_pos - 1 - len) + index] = NULL;
 953              		.loc 1 220 21 is_stmt 1 view .LVU311
 954              		.loc 1 220 39 is_stmt 0 view .LVU312
 955 0024 6089     		ldrh	r0, [r4, #10]
 956              		.loc 1 220 49 view .LVU313
 957 0026 0138     		subs	r0, r0, #1
 958              		.loc 1 220 53 view .LVU314
 959 0028 401A     		subs	r0, r0, r1
 960              		.loc 1 220 60 view .LVU315
 961 002a 1844     		add	r0, r0, r3
 962              		.loc 1 220 69 view .LVU316
 963 002c 2044     		add	r0, r0, r4
 964 002e 0025     		movs	r5, #0
 965 0030 0573     		strb	r5, [r0, #12]
 966              	.L70:
 210:SYS/data_structure/queue.c ****             {
 967              		.loc 1 210 56 discriminator 2 view .LVU317
 968 0032 0133     		adds	r3, r3, #1
 969              	.LVL61:
 210:SYS/data_structure/queue.c ****             {
 970              		.loc 1 210 56 discriminator 2 view .LVU318
 971 0034 9BB2     		uxth	r3, r3
 972              	.LVL62:
 973              	.L67:
 210:SYS/data_structure/queue.c ****             {
 974              		.loc 1 210 13 discriminator 1 view .LVU319
ARM GAS  /tmp/ccCYoNBS.s 			page 24


 975 0036 8B42     		cmp	r3, r1
 976 0038 10D2     		bcs	.L77
 212:SYS/data_structure/queue.c ****                 {
 977              		.loc 1 212 17 is_stmt 1 view .LVU320
 212:SYS/data_structure/queue.c ****                 {
 978              		.loc 1 212 26 is_stmt 0 view .LVU321
 979 003a 94F80C02 		ldrb	r0, [r4, #524]	@ zero_extendqisi2
 212:SYS/data_structure/queue.c ****                 {
 980              		.loc 1 212 20 view .LVU322
 981 003e 0128     		cmp	r0, #1
 982 0040 E9D1     		bne	.L69
 214:SYS/data_structure/queue.c ****                     queue->buff[(queue->end_pos - 1) - index] = NULL;
 983              		.loc 1 214 21 is_stmt 1 view .LVU323
 214:SYS/data_structure/queue.c ****                     queue->buff[(queue->end_pos - 1) - index] = NULL;
 984              		.loc 1 214 57 is_stmt 0 view .LVU324
 985 0042 6089     		ldrh	r0, [r4, #10]
 214:SYS/data_structure/queue.c ****                     queue->buff[(queue->end_pos - 1) - index] = NULL;
 986              		.loc 1 214 67 view .LVU325
 987 0044 0138     		subs	r0, r0, #1
 214:SYS/data_structure/queue.c ****                     queue->buff[(queue->end_pos - 1) - index] = NULL;
 988              		.loc 1 214 72 view .LVU326
 989 0046 C01A     		subs	r0, r0, r3
 214:SYS/data_structure/queue.c ****                     queue->buff[(queue->end_pos - 1) - index] = NULL;
 990              		.loc 1 214 50 view .LVU327
 991 0048 2044     		add	r0, r0, r4
 992 004a 007B     		ldrb	r0, [r0, #12]	@ zero_extendqisi2
 214:SYS/data_structure/queue.c ****                     queue->buff[(queue->end_pos - 1) - index] = NULL;
 993              		.loc 1 214 37 view .LVU328
 994 004c D054     		strb	r0, [r2, r3]
 215:SYS/data_structure/queue.c ****                 }
 995              		.loc 1 215 21 is_stmt 1 view .LVU329
 215:SYS/data_structure/queue.c ****                 }
 996              		.loc 1 215 39 is_stmt 0 view .LVU330
 997 004e 6089     		ldrh	r0, [r4, #10]
 215:SYS/data_structure/queue.c ****                 }
 998              		.loc 1 215 49 view .LVU331
 999 0050 0138     		subs	r0, r0, #1
 215:SYS/data_structure/queue.c ****                 }
 1000              		.loc 1 215 54 view .LVU332
 1001 0052 C01A     		subs	r0, r0, r3
 215:SYS/data_structure/queue.c ****                 }
 1002              		.loc 1 215 63 view .LVU333
 1003 0054 2044     		add	r0, r0, r4
 1004 0056 0025     		movs	r5, #0
 1005 0058 0573     		strb	r5, [r0, #12]
 1006 005a EAE7     		b	.L70
 1007              	.L77:
 215:SYS/data_structure/queue.c ****                 }
 1008              		.loc 1 215 63 view .LVU334
 1009              	.LBE7:
 221:SYS/data_structure/queue.c ****                 }
 222:SYS/data_structure/queue.c ****             }
 223:SYS/data_structure/queue.c **** 
 224:SYS/data_structure/queue.c ****             queue->size -= len;
 1010              		.loc 1 224 13 is_stmt 1 view .LVU335
 1011              		.loc 1 224 25 is_stmt 0 view .LVU336
 1012 005c A388     		ldrh	r3, [r4, #4]
ARM GAS  /tmp/ccCYoNBS.s 			page 25


 1013              	.LVL63:
 1014              		.loc 1 224 25 view .LVU337
 1015 005e 5B1A     		subs	r3, r3, r1
 1016 0060 A380     		strh	r3, [r4, #4]	@ movhi
 225:SYS/data_structure/queue.c ****             queue->end_pos = (queue->end_pos - len) % QUEUE_MAX_SIZE;
 1017              		.loc 1 225 13 is_stmt 1 view .LVU338
 1018              		.loc 1 225 36 is_stmt 0 view .LVU339
 1019 0062 6389     		ldrh	r3, [r4, #10]
 1020              		.loc 1 225 46 view .LVU340
 1021 0064 591A     		subs	r1, r3, r1
 1022              	.LVL64:
 1023              		.loc 1 225 53 view .LVU341
 1024 0066 4B42     		rsbs	r3, r1, #0
 1025 0068 C1F30801 		ubfx	r1, r1, #0, #9
 1026 006c C3F30803 		ubfx	r3, r3, #0, #9
 1027 0070 58BF     		it	pl
 1028 0072 5942     		rsbpl	r1, r3, #0
 1029              		.loc 1 225 28 view .LVU342
 1030 0074 6181     		strh	r1, [r4, #10]	@ movhi
 226:SYS/data_structure/queue.c **** 
 227:SYS/data_structure/queue.c ****             Queue_GetState(queue);
 1031              		.loc 1 227 13 is_stmt 1 view .LVU343
 1032 0076 2046     		mov	r0, r4
 1033 0078 FFF7FEFF 		bl	Queue_GetState
 1034              	.LVL65:
 1035              	.L66:
 228:SYS/data_structure/queue.c ****         }
 229:SYS/data_structure/queue.c ****         else
 230:SYS/data_structure/queue.c ****         {
 231:SYS/data_structure/queue.c ****             queue->error_times[GET_QUEUE_ERROR_INDEX(Queue_overlimit_r)]++;
 232:SYS/data_structure/queue.c ****             queue->total_error_times++;
 233:SYS/data_structure/queue.c ****             return Queue_overlimit_r;
 234:SYS/data_structure/queue.c ****         }
 235:SYS/data_structure/queue.c ****     }
 236:SYS/data_structure/queue.c **** 
 237:SYS/data_structure/queue.c ****     return queue->state;
 1036              		.loc 1 237 5 view .LVU344
 1037              		.loc 1 237 17 is_stmt 0 view .LVU345
 1038 007c A079     		ldrb	r0, [r4, #6]	@ zero_extendqisi2
 1039              	.L72:
 238:SYS/data_structure/queue.c **** }
 1040              		.loc 1 238 1 view .LVU346
 1041 007e 38BD     		pop	{r3, r4, r5, pc}
 1042              	.LVL66:
 1043              	.L76:
 231:SYS/data_structure/queue.c ****             queue->total_error_times++;
 1044              		.loc 1 231 13 is_stmt 1 view .LVU347
 231:SYS/data_structure/queue.c ****             queue->total_error_times++;
 1045              		.loc 1 231 31 is_stmt 0 view .LVU348
 1046 0080 D4F81432 		ldr	r3, [r4, #532]
 231:SYS/data_structure/queue.c ****             queue->total_error_times++;
 1047              		.loc 1 231 73 view .LVU349
 1048 0084 0133     		adds	r3, r3, #1
 1049 0086 C4F81432 		str	r3, [r4, #532]
 232:SYS/data_structure/queue.c ****             return Queue_overlimit_r;
 1050              		.loc 1 232 13 is_stmt 1 view .LVU350
 232:SYS/data_structure/queue.c ****             return Queue_overlimit_r;
ARM GAS  /tmp/ccCYoNBS.s 			page 26


 1051              		.loc 1 232 18 is_stmt 0 view .LVU351
 1052 008a D4F82032 		ldr	r3, [r4, #544]
 232:SYS/data_structure/queue.c ****             return Queue_overlimit_r;
 1053              		.loc 1 232 37 view .LVU352
 1054 008e 0133     		adds	r3, r3, #1
 1055 0090 C4F82032 		str	r3, [r4, #544]
 233:SYS/data_structure/queue.c ****         }
 1056              		.loc 1 233 13 is_stmt 1 view .LVU353
 233:SYS/data_structure/queue.c ****         }
 1057              		.loc 1 233 20 is_stmt 0 view .LVU354
 1058 0094 0320     		movs	r0, #3
 1059              	.LVL67:
 233:SYS/data_structure/queue.c ****         }
 1060              		.loc 1 233 20 view .LVU355
 1061 0096 F2E7     		b	.L72
 1062              		.cfi_endproc
 1063              	.LFE135:
 1065              		.section	.text.Queue_CheckData,"ax",%progbits
 1066              		.align	1
 1067              		.global	Queue_CheckData
 1068              		.syntax unified
 1069              		.thumb
 1070              		.thumb_func
 1071              		.fpu fpv4-sp-d16
 1073              	Queue_CheckData:
 1074              	.LVL68:
 1075              	.LFB136:
 239:SYS/data_structure/queue.c **** 
 240:SYS/data_structure/queue.c **** Queue_CheckOut_u Queue_CheckData(queue_s queue, uint16_t index)
 241:SYS/data_structure/queue.c **** {
 1076              		.loc 1 241 1 is_stmt 1 view -0
 1077              		.cfi_startproc
 1078              		@ args = 552, pretend = 16, frame = 0
 1079              		@ frame_needed = 0, uses_anonymous_args = 0
 1080              		@ link register save eliminated.
 1081              		.loc 1 241 1 is_stmt 0 view .LVU357
 1082 0000 84B0     		sub	sp, sp, #16
 1083              	.LCFI10:
 1084              		.cfi_def_cfa_offset 16
 1085 0002 8DE80F00 		stm	sp, {r0, r1, r2, r3}
 1086 0006 BDF82432 		ldrh	r3, [sp, #548]
 242:SYS/data_structure/queue.c ****     Queue_CheckOut_u Data_tmp;
 1087              		.loc 1 242 5 is_stmt 1 view .LVU358
 243:SYS/data_structure/queue.c ****     Data_tmp.reg.value = 0;
 1088              		.loc 1 243 5 view .LVU359
 1089              		.loc 1 243 24 is_stmt 0 view .LVU360
 1090 000a 4FF00000 		mov	r0, #0	@ movhi
 1091              	.LVL69:
 244:SYS/data_structure/queue.c **** 
 245:SYS/data_structure/queue.c ****     if (queue.state != Queue_empty)
 1092              		.loc 1 245 5 is_stmt 1 view .LVU361
 1093              		.loc 1 245 14 is_stmt 0 view .LVU362
 1094 000e 9DF80620 		ldrb	r2, [sp, #6]	@ zero_extendqisi2
 1095              		.loc 1 245 8 view .LVU363
 1096 0012 042A     		cmp	r2, #4
 1097 0014 17D0     		beq	.L79
 246:SYS/data_structure/queue.c ****     {
ARM GAS  /tmp/ccCYoNBS.s 			page 27


 247:SYS/data_structure/queue.c ****         if ((index < QUEUE_MAX_SIZE) && (index <= queue.size))
 1098              		.loc 1 247 9 is_stmt 1 view .LVU364
 1099              		.loc 1 247 12 is_stmt 0 view .LVU365
 1100 0016 B3F5007F 		cmp	r3, #512
 1101 001a 0FD2     		bcs	.L80
 1102              		.loc 1 247 56 discriminator 1 view .LVU366
 1103 001c BDF80420 		ldrh	r2, [sp, #4]
 1104              		.loc 1 247 38 discriminator 1 view .LVU367
 1105 0020 9A42     		cmp	r2, r3
 1106 0022 0BD3     		bcc	.L80
 248:SYS/data_structure/queue.c ****         {
 249:SYS/data_structure/queue.c ****             Data_tmp.reg.state = Queue_ok;
 1107              		.loc 1 249 13 is_stmt 1 view .LVU368
 1108              		.loc 1 249 32 is_stmt 0 view .LVU369
 1109 0024 6FF30700 		bfc	r0, #0, #8
 1110              	.LVL70:
 250:SYS/data_structure/queue.c ****             Data_tmp.reg.value = queue.buff[(index + queue.head_pos) % QUEUE_MAX_SIZE];
 1111              		.loc 1 250 13 is_stmt 1 view .LVU370
 1112              		.loc 1 250 59 is_stmt 0 view .LVU371
 1113 0028 BDF80820 		ldrh	r2, [sp, #8]
 1114              		.loc 1 250 70 view .LVU372
 1115 002c 1344     		add	r3, r3, r2
 1116 002e C3F30803 		ubfx	r3, r3, #0, #9
 1117              		.loc 1 250 44 view .LVU373
 1118 0032 6B44     		add	r3, r3, sp
 1119 0034 1B7B     		ldrb	r3, [r3, #12]	@ zero_extendqisi2
 1120              		.loc 1 250 32 view .LVU374
 1121 0036 63F30F20 		bfi	r0, r3, #8, #8
 1122              		.loc 1 250 32 view .LVU375
 1123 003a 02E0     		b	.L81
 1124              	.LVL71:
 1125              	.L80:
 251:SYS/data_structure/queue.c ****         }
 252:SYS/data_structure/queue.c ****         else
 253:SYS/data_structure/queue.c ****         {
 254:SYS/data_structure/queue.c ****             Data_tmp.reg.state = Queue_CheckErrorPos;
 1126              		.loc 1 254 13 is_stmt 1 view .LVU376
 1127              		.loc 1 254 32 is_stmt 0 view .LVU377
 1128 003c 0123     		movs	r3, #1
 1129 003e 63F30700 		bfi	r0, r3, #0, #8
 1130              	.LVL72:
 1131              	.L81:
 255:SYS/data_structure/queue.c ****         }
 256:SYS/data_structure/queue.c ****     }
 257:SYS/data_structure/queue.c ****     else
 258:SYS/data_structure/queue.c ****     {
 259:SYS/data_structure/queue.c ****         Data_tmp.reg.state = Queue_empty;
 260:SYS/data_structure/queue.c ****     }
 261:SYS/data_structure/queue.c **** 
 262:SYS/data_structure/queue.c ****     return Data_tmp;
 1132              		.loc 1 262 5 is_stmt 1 view .LVU378
 1133              	.LVL73:
 263:SYS/data_structure/queue.c **** }
 1134              		.loc 1 263 1 is_stmt 0 view .LVU379
 1135 0042 04B0     		add	sp, sp, #16
 1136              	.LCFI11:
 1137              		.cfi_remember_state
ARM GAS  /tmp/ccCYoNBS.s 			page 28


 1138              		.cfi_def_cfa_offset 0
 1139 0044 7047     		bx	lr
 1140              	.L79:
 1141              	.LCFI12:
 1142              		.cfi_restore_state
 259:SYS/data_structure/queue.c ****     }
 1143              		.loc 1 259 9 is_stmt 1 view .LVU380
 259:SYS/data_structure/queue.c ****     }
 1144              		.loc 1 259 28 is_stmt 0 view .LVU381
 1145 0046 0423     		movs	r3, #4
 1146 0048 63F30700 		bfi	r0, r3, #0, #8
 1147              	.LVL74:
 259:SYS/data_structure/queue.c ****     }
 1148              		.loc 1 259 28 view .LVU382
 1149 004c F9E7     		b	.L81
 1150              		.cfi_endproc
 1151              	.LFE136:
 1153              		.section	.text.Queue_Output_ErrorTimes,"ax",%progbits
 1154              		.align	1
 1155              		.global	Queue_Output_ErrorTimes
 1156              		.syntax unified
 1157              		.thumb
 1158              		.thumb_func
 1159              		.fpu fpv4-sp-d16
 1161              	Queue_Output_ErrorTimes:
 1162              	.LFB137:
 264:SYS/data_structure/queue.c **** 
 265:SYS/data_structure/queue.c **** void Queue_Output_ErrorTimes(queue_s queue)
 266:SYS/data_structure/queue.c **** {
 1163              		.loc 1 266 1 is_stmt 1 view -0
 1164              		.cfi_startproc
 1165              		@ args = 548, pretend = 16, frame = 0
 1166              		@ frame_needed = 0, uses_anonymous_args = 0
 1167              		@ link register save eliminated.
 1168 0000 84B0     		sub	sp, sp, #16
 1169              	.LCFI13:
 1170              		.cfi_def_cfa_offset 16
 1171 0002 8DE80F00 		stm	sp, {r0, r1, r2, r3}
 267:SYS/data_structure/queue.c ****     if (queue.total_error_times)
 1172              		.loc 1 267 5 view .LVU384
 1173              		.loc 1 267 14 is_stmt 0 view .LVU385
 1174 0006 889B     		ldr	r3, [sp, #544]
 1175              		.loc 1 267 8 view .LVU386
 1176 0008 2BB1     		cbz	r3, .L83
 1177              	.LBB8:
 268:SYS/data_structure/queue.c ****     {
 269:SYS/data_structure/queue.c ****         for (uint8_t i = 0; i < QUEUE_ERROR_TYPENUM; i++)
 1178              		.loc 1 269 22 view .LVU387
 1179 000a 0023     		movs	r3, #0
 1180 000c 01E0     		b	.L84
 1181              	.LVL75:
 1182              	.L86:
 270:SYS/data_structure/queue.c ****         {
 271:SYS/data_structure/queue.c ****             if (queue.error_times[i])
 1183              		.loc 1 271 13 is_stmt 1 view .LVU388
 269:SYS/data_structure/queue.c ****         {
 1184              		.loc 1 269 55 is_stmt 0 view .LVU389
ARM GAS  /tmp/ccCYoNBS.s 			page 29


 1185 000e 0133     		adds	r3, r3, #1
 1186              	.LVL76:
 269:SYS/data_structure/queue.c ****         {
 1187              		.loc 1 269 55 view .LVU390
 1188 0010 DBB2     		uxtb	r3, r3
 1189              	.LVL77:
 1190              	.L84:
 269:SYS/data_structure/queue.c ****         {
 1191              		.loc 1 269 9 discriminator 1 view .LVU391
 1192 0012 032B     		cmp	r3, #3
 1193 0014 FBD9     		bls	.L86
 1194              	.LVL78:
 1195              	.L83:
 269:SYS/data_structure/queue.c ****         {
 1196              		.loc 1 269 9 discriminator 1 view .LVU392
 1197              	.LBE8:
 272:SYS/data_structure/queue.c ****             {
 273:SYS/data_structure/queue.c ****                 switch (i + Queue_overflow_w)
 274:SYS/data_structure/queue.c ****                 {
 275:SYS/data_structure/queue.c ****                 case Queue_overflow_w:
 276:SYS/data_structure/queue.c ****                     break;
 277:SYS/data_structure/queue.c **** 
 278:SYS/data_structure/queue.c ****                 case Queue_overlimit_r:
 279:SYS/data_structure/queue.c ****                     break;
 280:SYS/data_structure/queue.c **** 
 281:SYS/data_structure/queue.c ****                 case Queue_empty:
 282:SYS/data_structure/queue.c ****                     break;
 283:SYS/data_structure/queue.c **** 
 284:SYS/data_structure/queue.c ****                 case Queue_full:
 285:SYS/data_structure/queue.c ****                     break;
 286:SYS/data_structure/queue.c **** 
 287:SYS/data_structure/queue.c ****                 case Queue_CreateFailed:
 288:SYS/data_structure/queue.c ****                     break;
 289:SYS/data_structure/queue.c ****                 }
 290:SYS/data_structure/queue.c ****             }
 291:SYS/data_structure/queue.c ****         }
 292:SYS/data_structure/queue.c ****     }
 293:SYS/data_structure/queue.c **** }
 1198              		.loc 1 293 1 view .LVU393
 1199 0016 04B0     		add	sp, sp, #16
 1200              	.LCFI14:
 1201              		.cfi_def_cfa_offset 0
 1202 0018 7047     		bx	lr
 1203              		.cfi_endproc
 1204              	.LFE137:
 1206              		.section	.bss.Cur_Crtd_Queue,"aw",%nobits
 1207              		.set	.LANCHOR0,. + 0
 1210              	Cur_Crtd_Queue:
 1211 0000 00       		.space	1
 1212              		.section	.bss.test.10435,"aw",%nobits
 1213              		.align	2
 1214              		.set	.LANCHOR1,. + 0
 1217              	test.10435:
 1218 0000 00000000 		.space	4
 1219              		.text
 1220              	.Letext0:
 1221              		.file 2 "/home/bt0/stm32/compile-tool/gcc-arm-none-eabi-8-2018-q4-major-linux/gcc-arm-none-eabi-8-
ARM GAS  /tmp/ccCYoNBS.s 			page 30


 1222              		.file 3 "/home/bt0/stm32/compile-tool/gcc-arm-none-eabi-8-2018-q4-major-linux/gcc-arm-none-eabi-8-
 1223              		.file 4 "F4_CORE/core_cm4.h"
 1224              		.file 5 "USER/system_stm32f4xx.h"
 1225              		.file 6 "SYS/data_structure/queue.h"
 1226              		.file 7 "/home/bt0/stm32/compile-tool/gcc-arm-none-eabi-8-2018-q4-major-linux/gcc-arm-none-eabi-8-
 1227              		.file 8 "/home/bt0/stm32/compile-tool/gcc-arm-none-eabi-8-2018-q4-major-linux/gcc-arm-none-eabi-8-
 1228              		.file 9 "/home/bt0/stm32/compile-tool/gcc-arm-none-eabi-8-2018-q4-major-linux/gcc-arm-none-eabi-8-
 1229              		.file 10 "/home/bt0/stm32/compile-tool/gcc-arm-none-eabi-8-2018-q4-major-linux/gcc-arm-none-eabi-8
 1230              		.file 11 "<built-in>"
ARM GAS  /tmp/ccCYoNBS.s 			page 31

