ARM GAS  /var/folders/lx/hc4sn_b53233_zkc9xbbl97r0000gp/T//ccoa1yNG.s 			page 1


   1              		.cpu cortex-m4
   2              		.eabi_attribute 27, 1
   3              		.eabi_attribute 28, 1
   4              		.eabi_attribute 20, 1
   5              		.eabi_attribute 21, 1
   6              		.eabi_attribute 23, 3
   7              		.eabi_attribute 24, 1
   8              		.eabi_attribute 25, 1
   9              		.eabi_attribute 26, 1
  10              		.eabi_attribute 30, 1
  11              		.eabi_attribute 34, 1
  12              		.eabi_attribute 18, 4
  13              		.file	"shell.c"
  14              		.text
  15              	.Ltext0:
  16              		.cfi_sections	.debug_frame
  17              		.section	.text.shellAdd,"ax",%progbits
  18              		.align	1
  19              		.arch armv7e-m
  20              		.syntax unified
  21              		.thumb
  22              		.thumb_func
  23              		.fpu fpv4-sp-d16
  25              	shellAdd:
  26              	.LVL0:
  27              	.LFB127:
  28              		.file 1 "Dsp/letter_shell/shell.c"
   1:Dsp/letter_shell/shell.c **** /**
   2:Dsp/letter_shell/shell.c ****  * @file shell.c
   3:Dsp/letter_shell/shell.c ****  * @author Letter (NevermindZZT@gmail.com)
   4:Dsp/letter_shell/shell.c ****  * @version 3.0.0
   5:Dsp/letter_shell/shell.c ****  * @date 2019-12-30
   6:Dsp/letter_shell/shell.c ****  * 
   7:Dsp/letter_shell/shell.c ****  * @copyright (c) 2020 Letter
   8:Dsp/letter_shell/shell.c ****  * 
   9:Dsp/letter_shell/shell.c ****  */
  10:Dsp/letter_shell/shell.c **** 
  11:Dsp/letter_shell/shell.c **** #include "shell.h"
  12:Dsp/letter_shell/shell.c **** #include "string.h"
  13:Dsp/letter_shell/shell.c **** #include "stdio.h"
  14:Dsp/letter_shell/shell.c **** #include "stdarg.h"
  15:Dsp/letter_shell/shell.c **** #include "shell_ext.h"
  16:Dsp/letter_shell/shell.c **** #include "delay.h"
  17:Dsp/letter_shell/shell.c **** #include "stm32f4xx_usart.h"
  18:Dsp/letter_shell/shell.c **** 
  19:Dsp/letter_shell/shell.c **** 
  20:Dsp/letter_shell/shell.c **** #if SHELL_USING_CMD_EXPORT == 1
  21:Dsp/letter_shell/shell.c **** /**
  22:Dsp/letter_shell/shell.c ****  * @brief 默认用户
  23:Dsp/letter_shell/shell.c ****  */
  24:Dsp/letter_shell/shell.c **** const char shellCmdDefaultUser[] = SHELL_DEFAULT_USER;
  25:Dsp/letter_shell/shell.c **** const char shellPasswordDefaultUser[] = SHELL_DEFAULT_USER_PASSWORD;
  26:Dsp/letter_shell/shell.c **** const char shellDesDefaultUser[] = "default user";
  27:Dsp/letter_shell/shell.c **** const ShellCommand shellUserDefault SECTION("shellCommand") =
  28:Dsp/letter_shell/shell.c **** {
  29:Dsp/letter_shell/shell.c ****     .attr.value = SHELL_CMD_PERMISSION(0)|SHELL_CMD_TYPE(SHELL_TYPE_USER),
  30:Dsp/letter_shell/shell.c ****     .data.user.name = shellCmdDefaultUser,
ARM GAS  /var/folders/lx/hc4sn_b53233_zkc9xbbl97r0000gp/T//ccoa1yNG.s 			page 2


  31:Dsp/letter_shell/shell.c ****     .data.user.password = shellPasswordDefaultUser,
  32:Dsp/letter_shell/shell.c ****     .data.user.desc = shellDesDefaultUser
  33:Dsp/letter_shell/shell.c **** };
  34:Dsp/letter_shell/shell.c **** #endif
  35:Dsp/letter_shell/shell.c **** 
  36:Dsp/letter_shell/shell.c **** #if SHELL_USING_CMD_EXPORT == 1
  37:Dsp/letter_shell/shell.c ****     #if defined(__CC_ARM) || (defined(__ARMCC_VERSION) && __ARMCC_VERSION >= 6000000)
  38:Dsp/letter_shell/shell.c ****         extern const unsigned int shellCommand$$Base;
  39:Dsp/letter_shell/shell.c ****         extern const unsigned int shellCommand$$Limit;
  40:Dsp/letter_shell/shell.c ****     #elif defined(__ICCARM__) || defined(__ICCRX__)
  41:Dsp/letter_shell/shell.c ****         #pragma section="shellCommand"
  42:Dsp/letter_shell/shell.c ****     #elif defined(__GNUC__)
  43:Dsp/letter_shell/shell.c ****         extern const unsigned int _shell_command_start;
  44:Dsp/letter_shell/shell.c ****         extern const unsigned int _shell_command_end;
  45:Dsp/letter_shell/shell.c ****     #endif
  46:Dsp/letter_shell/shell.c **** #else
  47:Dsp/letter_shell/shell.c ****     extern const ShellCommand shellCommandList[];
  48:Dsp/letter_shell/shell.c ****     extern const unsigned short shellCommandCount;
  49:Dsp/letter_shell/shell.c **** #endif
  50:Dsp/letter_shell/shell.c **** 
  51:Dsp/letter_shell/shell.c **** 
  52:Dsp/letter_shell/shell.c **** /**
  53:Dsp/letter_shell/shell.c ****  * @brief shell 常量文本索引
  54:Dsp/letter_shell/shell.c ****  */
  55:Dsp/letter_shell/shell.c **** enum
  56:Dsp/letter_shell/shell.c **** {
  57:Dsp/letter_shell/shell.c **** #if SHELL_SHOW_INFO == 1
  58:Dsp/letter_shell/shell.c ****     SHELL_TEXT_INFO,                                    /**< shell信息 */
  59:Dsp/letter_shell/shell.c **** #endif
  60:Dsp/letter_shell/shell.c ****     SHELL_TEXT_CMD_TOO_LONG,                            /**< 命令过长 */
  61:Dsp/letter_shell/shell.c ****     SHELL_TEXT_CMD_LIST,                                /**< 可执行命令列表标题 */
  62:Dsp/letter_shell/shell.c ****     SHELL_TEXT_VAR_LIST,                                /**< 变量列表标题 */
  63:Dsp/letter_shell/shell.c ****     SHELL_TEXT_USER_LIST,                               /**< 用户列表标题 */
  64:Dsp/letter_shell/shell.c ****     SHELL_TEXT_KEY_LIST,                                /**< 按键列表标题 */
  65:Dsp/letter_shell/shell.c ****     SHELL_TEXT_CMD_NOT_FOUND,                           /**< 命令未找到 */
  66:Dsp/letter_shell/shell.c ****     SHELL_TEXT_POINT_CANNOT_MODIFY,                     /**< 指针变量不允许修改 */
  67:Dsp/letter_shell/shell.c ****     SHELL_TEXT_VAR_READ_ONLY_CANNOT_MODIFY,             /**< 只读变量不允许修改 */
  68:Dsp/letter_shell/shell.c ****     SHELL_TEXT_NOT_VAR,                                 /**< 命令不是变量 */
  69:Dsp/letter_shell/shell.c ****     SHELL_TEXT_VAR_NOT_FOUND,                           /**< 变量未找到 */
  70:Dsp/letter_shell/shell.c ****     SHELL_TEXT_HELP_HEADER,                             /**< help头 */
  71:Dsp/letter_shell/shell.c ****     SHELL_TEXT_PASSWORD_HINT,                           /**< 密码输入提示 */
  72:Dsp/letter_shell/shell.c ****     SHELL_TEXT_PASSWORD_ERROR,                          /**< 密码错误 */
  73:Dsp/letter_shell/shell.c ****     SHELL_TEXT_CLEAR_CONSOLE,                           /**< 清空控制台 */
  74:Dsp/letter_shell/shell.c ****     SHELL_TEXT_CLEAR_LINE,                              /**< 清空当前行 */
  75:Dsp/letter_shell/shell.c ****     SHELL_TEXT_TYPE_CMD,                                /**< 命令类型 */
  76:Dsp/letter_shell/shell.c ****     SHELL_TEXT_TYPE_VAR,                                /**< 变量类型 */
  77:Dsp/letter_shell/shell.c ****     SHELL_TEXT_TYPE_USER,                               /**< 用户类型 */
  78:Dsp/letter_shell/shell.c ****     SHELL_TEXT_TYPE_KEY,                                /**< 按键类型 */
  79:Dsp/letter_shell/shell.c ****     SHELL_TEXT_TYPE_NONE,                               /**< 非法类型 */
  80:Dsp/letter_shell/shell.c **** #if SHELL_EXEC_UNDEF_FUNC == 1
  81:Dsp/letter_shell/shell.c ****     SHELL_TEXT_PARAM_ERROR,                             /**< 参数错误 */
  82:Dsp/letter_shell/shell.c **** #endif
  83:Dsp/letter_shell/shell.c **** };
  84:Dsp/letter_shell/shell.c **** 
  85:Dsp/letter_shell/shell.c **** 
  86:Dsp/letter_shell/shell.c **** 
  87:Dsp/letter_shell/shell.c **** 
ARM GAS  /var/folders/lx/hc4sn_b53233_zkc9xbbl97r0000gp/T//ccoa1yNG.s 			page 3


  88:Dsp/letter_shell/shell.c **** static const char *shellText[] =
  89:Dsp/letter_shell/shell.c **** {
  90:Dsp/letter_shell/shell.c **** #if SHELL_SHOW_INFO == 1
  91:Dsp/letter_shell/shell.c ****     [SHELL_TEXT_INFO] =
  92:Dsp/letter_shell/shell.c ****         "\r\n"
  93:Dsp/letter_shell/shell.c **** 		"  ____    _      _       ___      _                   \r\n"
  94:Dsp/letter_shell/shell.c **** 		" |    \\  /_\\    | |     | _ \\   | |              ___ \r\n"
  95:Dsp/letter_shell/shell.c **** 		" |    |   _   __| |__   ||_|/ __| |__   ___    //    \r\n"
  96:Dsp/letter_shell/shell.c **** 		" |----/  | | |__   __|  |  \\ |__   __|  //   \\  \\__    \r\n"
  97:Dsp/letter_shell/shell.c **** 		" |    |  | |    | |_    | |\\    | |_   ||   ||      \\  \r\n"
  98:Dsp/letter_shell/shell.c **** 		" \\____/  |_|    |___/   |_| \\   |___/   \\___//   ___//  \r\n"
  99:Dsp/letter_shell/shell.c ****         "\r\n"
 100:Dsp/letter_shell/shell.c ****         "Build:       "__DATE__" "__TIME__"\r\n"
 101:Dsp/letter_shell/shell.c ****         "Version:     "SHELL_VERSION"\r\n",
 102:Dsp/letter_shell/shell.c **** #endif
 103:Dsp/letter_shell/shell.c ****     [SHELL_TEXT_CMD_TOO_LONG] = 
 104:Dsp/letter_shell/shell.c ****         "\r\nWarning: Command is too long\r\n",
 105:Dsp/letter_shell/shell.c ****     [SHELL_TEXT_CMD_LIST] = 
 106:Dsp/letter_shell/shell.c ****         "\r\nCommand List:\r\n",
 107:Dsp/letter_shell/shell.c ****     [SHELL_TEXT_VAR_LIST] = 
 108:Dsp/letter_shell/shell.c ****         "\r\nVar List:\r\n",
 109:Dsp/letter_shell/shell.c ****     [SHELL_TEXT_USER_LIST] = 
 110:Dsp/letter_shell/shell.c ****         "\r\nUser List:\r\n",
 111:Dsp/letter_shell/shell.c ****     [SHELL_TEXT_KEY_LIST] =
 112:Dsp/letter_shell/shell.c ****         "\r\nKey List:\r\n",
 113:Dsp/letter_shell/shell.c ****     [SHELL_TEXT_CMD_NOT_FOUND] = 
 114:Dsp/letter_shell/shell.c ****         "Command not Found\r\n",
 115:Dsp/letter_shell/shell.c ****     [SHELL_TEXT_POINT_CANNOT_MODIFY] = 
 116:Dsp/letter_shell/shell.c ****         "can't set pointer\r\n",
 117:Dsp/letter_shell/shell.c ****     [SHELL_TEXT_VAR_READ_ONLY_CANNOT_MODIFY] = 
 118:Dsp/letter_shell/shell.c ****         "can't set read only var\r\n",
 119:Dsp/letter_shell/shell.c ****     [SHELL_TEXT_NOT_VAR] =
 120:Dsp/letter_shell/shell.c ****         " is not a var\r\n",
 121:Dsp/letter_shell/shell.c ****     [SHELL_TEXT_VAR_NOT_FOUND] = 
 122:Dsp/letter_shell/shell.c ****         "Var not Fount\r\n",
 123:Dsp/letter_shell/shell.c ****     [SHELL_TEXT_HELP_HEADER] =
 124:Dsp/letter_shell/shell.c ****         "command help of ",
 125:Dsp/letter_shell/shell.c ****     [SHELL_TEXT_PASSWORD_HINT] = 
 126:Dsp/letter_shell/shell.c ****         "\r\nPlease input password:",
 127:Dsp/letter_shell/shell.c ****     [SHELL_TEXT_PASSWORD_ERROR] = 
 128:Dsp/letter_shell/shell.c ****         "\r\npassword error\r\n",
 129:Dsp/letter_shell/shell.c ****     [SHELL_TEXT_CLEAR_CONSOLE] = 
 130:Dsp/letter_shell/shell.c ****         "\033[2J\033[1H",
 131:Dsp/letter_shell/shell.c ****     [SHELL_TEXT_CLEAR_LINE] = 
 132:Dsp/letter_shell/shell.c ****         "\033[2K\r",
 133:Dsp/letter_shell/shell.c ****     [SHELL_TEXT_TYPE_CMD] = 
 134:Dsp/letter_shell/shell.c ****         "CMD \r\n",
 135:Dsp/letter_shell/shell.c ****     [SHELL_TEXT_TYPE_VAR] = 
 136:Dsp/letter_shell/shell.c ****         "VAR",
 137:Dsp/letter_shell/shell.c ****     [SHELL_TEXT_TYPE_USER] = 
 138:Dsp/letter_shell/shell.c ****         "USER",
 139:Dsp/letter_shell/shell.c ****     [SHELL_TEXT_TYPE_KEY] = 
 140:Dsp/letter_shell/shell.c ****         "KEY",
 141:Dsp/letter_shell/shell.c ****     [SHELL_TEXT_TYPE_NONE] = 
 142:Dsp/letter_shell/shell.c ****         "NONE",
 143:Dsp/letter_shell/shell.c **** #if SHELL_EXEC_UNDEF_FUNC == 1
 144:Dsp/letter_shell/shell.c ****     [SHELL_TEXT_PARAM_ERROR] = 
ARM GAS  /var/folders/lx/hc4sn_b53233_zkc9xbbl97r0000gp/T//ccoa1yNG.s 			page 4


 145:Dsp/letter_shell/shell.c ****         "Parameter error\r\n",
 146:Dsp/letter_shell/shell.c **** #endif
 147:Dsp/letter_shell/shell.c **** };
 148:Dsp/letter_shell/shell.c **** 
 149:Dsp/letter_shell/shell.c **** 
 150:Dsp/letter_shell/shell.c **** /**
 151:Dsp/letter_shell/shell.c ****  * @brief shell对象表
 152:Dsp/letter_shell/shell.c ****  */
 153:Dsp/letter_shell/shell.c **** static Shell *shellList[SHELL_MAX_NUMBER] = {NULL};
 154:Dsp/letter_shell/shell.c **** 
 155:Dsp/letter_shell/shell.c **** 
 156:Dsp/letter_shell/shell.c **** static void shellAdd(Shell *shell);
 157:Dsp/letter_shell/shell.c **** static void shellWriteCommandLine(Shell *shell, unsigned char newline);
 158:Dsp/letter_shell/shell.c **** static void shellWriteReturnValue(Shell *shell, int value);
 159:Dsp/letter_shell/shell.c **** static int shellShowVar(Shell *shell, ShellCommand *command);
 160:Dsp/letter_shell/shell.c **** static void shellSetUser(Shell *shell, const ShellCommand *user);
 161:Dsp/letter_shell/shell.c **** ShellCommand* shellSeekCommand(Shell *shell,
 162:Dsp/letter_shell/shell.c ****                                const char *cmd,
 163:Dsp/letter_shell/shell.c ****                                ShellCommand *base,
 164:Dsp/letter_shell/shell.c ****                                unsigned short compareLength);
 165:Dsp/letter_shell/shell.c **** 
 166:Dsp/letter_shell/shell.c **** /**
 167:Dsp/letter_shell/shell.c ****  * @brief shell 初始化
 168:Dsp/letter_shell/shell.c ****  * 
 169:Dsp/letter_shell/shell.c ****  * @param shell shell对象
 170:Dsp/letter_shell/shell.c ****  */
 171:Dsp/letter_shell/shell.c **** void shellInit(Shell *shell, char *buffer, unsigned short size)
 172:Dsp/letter_shell/shell.c **** {
 173:Dsp/letter_shell/shell.c ****     shell->parser.length = 0;
 174:Dsp/letter_shell/shell.c ****     shell->parser.cursor = 0;
 175:Dsp/letter_shell/shell.c ****     shell->history.offset = 0;
 176:Dsp/letter_shell/shell.c ****     shell->history.number = 0;
 177:Dsp/letter_shell/shell.c ****     shell->history.record = 0;
 178:Dsp/letter_shell/shell.c ****     shell->info.user = NULL;
 179:Dsp/letter_shell/shell.c ****     shell->status.isChecked = 1;
 180:Dsp/letter_shell/shell.c **** 
 181:Dsp/letter_shell/shell.c ****     shell->parser.buffer = buffer;
 182:Dsp/letter_shell/shell.c ****     shell->parser.bufferSize = size / (SHELL_HISTORY_MAX_NUMBER + 1);
 183:Dsp/letter_shell/shell.c ****     for (short i = 0; i < SHELL_HISTORY_MAX_NUMBER; i++)
 184:Dsp/letter_shell/shell.c ****     {
 185:Dsp/letter_shell/shell.c ****         shell->history.item[i] = buffer + shell->parser.bufferSize * (i + 1);
 186:Dsp/letter_shell/shell.c ****     }
 187:Dsp/letter_shell/shell.c **** 
 188:Dsp/letter_shell/shell.c **** #if SHELL_USING_CMD_EXPORT == 1
 189:Dsp/letter_shell/shell.c ****     #if defined(__CC_ARM) || (defined(__ARMCC_VERSION) && __ARMCC_VERSION >= 6000000)
 190:Dsp/letter_shell/shell.c ****         shell->commandList.base = (ShellCommand *)(&shellCommand$$Base);
 191:Dsp/letter_shell/shell.c ****         shell->commandList.count = ((unsigned int)(&shellCommand$$Limit)
 192:Dsp/letter_shell/shell.c ****                                 - (unsigned int)(&shellCommand$$Base))
 193:Dsp/letter_shell/shell.c ****                                 / sizeof(ShellCommand);
 194:Dsp/letter_shell/shell.c **** 
 195:Dsp/letter_shell/shell.c ****     #elif defined(__ICCARM__) || defined(__ICCRX__)
 196:Dsp/letter_shell/shell.c ****         shell->commandList.base = (ShellCommand *)(__section_begin("shellCommand"));
 197:Dsp/letter_shell/shell.c ****         shell->commandList.count = ((unsigned int)(__section_end("shellCommand"))
 198:Dsp/letter_shell/shell.c ****                                 - (unsigned int)(__section_begin("shellCommand")))
 199:Dsp/letter_shell/shell.c ****                                 / sizeof(ShellCommand);
 200:Dsp/letter_shell/shell.c ****     #elif defined(__GNUC__)
 201:Dsp/letter_shell/shell.c ****         shell->commandList.base = (ShellCommand *)(&_shell_command_start);
ARM GAS  /var/folders/lx/hc4sn_b53233_zkc9xbbl97r0000gp/T//ccoa1yNG.s 			page 5


 202:Dsp/letter_shell/shell.c ****         shell->commandList.count = ((unsigned int)(&_shell_command_end)
 203:Dsp/letter_shell/shell.c ****                                 - (unsigned int)(&_shell_command_start))
 204:Dsp/letter_shell/shell.c ****                                 / sizeof(ShellCommand);
 205:Dsp/letter_shell/shell.c ****     #else
 206:Dsp/letter_shell/shell.c ****         #error not supported compiler, please use command table mode
 207:Dsp/letter_shell/shell.c ****     #endif
 208:Dsp/letter_shell/shell.c **** #else
 209:Dsp/letter_shell/shell.c ****     shell->commandList.base = (ShellCommand *)shellCommandList;
 210:Dsp/letter_shell/shell.c ****     shell->commandList.count = shellCommandCount;
 211:Dsp/letter_shell/shell.c **** #endif
 212:Dsp/letter_shell/shell.c **** 
 213:Dsp/letter_shell/shell.c ****     shellAdd(shell);
 214:Dsp/letter_shell/shell.c **** 
 215:Dsp/letter_shell/shell.c ****     shellSetUser(shell, shellSeekCommand(shell,
 216:Dsp/letter_shell/shell.c ****                                          SHELL_DEFAULT_USER,
 217:Dsp/letter_shell/shell.c ****                                          shell->commandList.base,
 218:Dsp/letter_shell/shell.c ****                                          0));
 219:Dsp/letter_shell/shell.c ****     shellWriteCommandLine(shell, 1);
 220:Dsp/letter_shell/shell.c **** }
 221:Dsp/letter_shell/shell.c **** 
 222:Dsp/letter_shell/shell.c **** 
 223:Dsp/letter_shell/shell.c **** /**
 224:Dsp/letter_shell/shell.c ****  * @brief 添加shell
 225:Dsp/letter_shell/shell.c ****  * 
 226:Dsp/letter_shell/shell.c ****  * @param shell shell对象
 227:Dsp/letter_shell/shell.c ****  */
 228:Dsp/letter_shell/shell.c **** static void shellAdd(Shell *shell)
 229:Dsp/letter_shell/shell.c **** {
  29              		.loc 1 229 1 view -0
  30              		.cfi_startproc
  31              		@ args = 0, pretend = 0, frame = 0
  32              		@ frame_needed = 0, uses_anonymous_args = 0
  33              		@ link register save eliminated.
 230:Dsp/letter_shell/shell.c ****     for (short i = 0; i < SHELL_MAX_NUMBER; i++)
  34              		.loc 1 230 5 view .LVU1
  35              	.LBB2:
  36              		.loc 1 230 10 view .LVU2
  37              		.loc 1 230 16 is_stmt 0 view .LVU3
  38 0000 0023     		movs	r3, #0
  39              	.LVL1:
  40              	.L2:
  41              		.loc 1 230 23 is_stmt 1 discriminator 1 view .LVU4
  42              		.loc 1 230 5 is_stmt 0 discriminator 1 view .LVU5
  43 0002 042B     		cmp	r3, #4
  44 0004 0BDC     		bgt	.L6
 231:Dsp/letter_shell/shell.c ****     {
 232:Dsp/letter_shell/shell.c ****         if (shellList[i] == NULL)
  45              		.loc 1 232 9 is_stmt 1 view .LVU6
  46              		.loc 1 232 22 is_stmt 0 view .LVU7
  47 0006 1946     		mov	r1, r3
  48 0008 054A     		ldr	r2, .L8
  49 000a 52F82320 		ldr	r2, [r2, r3, lsl #2]
  50              		.loc 1 232 12 view .LVU8
  51 000e 12B1     		cbz	r2, .L7
 230:Dsp/letter_shell/shell.c ****     for (short i = 0; i < SHELL_MAX_NUMBER; i++)
  52              		.loc 1 230 45 is_stmt 1 discriminator 2 view .LVU9
 230:Dsp/letter_shell/shell.c ****     for (short i = 0; i < SHELL_MAX_NUMBER; i++)
ARM GAS  /var/folders/lx/hc4sn_b53233_zkc9xbbl97r0000gp/T//ccoa1yNG.s 			page 6


  53              		.loc 1 230 46 is_stmt 0 discriminator 2 view .LVU10
  54 0010 0133     		adds	r3, r3, #1
  55              	.LVL2:
 230:Dsp/letter_shell/shell.c ****     for (short i = 0; i < SHELL_MAX_NUMBER; i++)
  56              		.loc 1 230 46 discriminator 2 view .LVU11
  57 0012 1BB2     		sxth	r3, r3
  58              	.LVL3:
 230:Dsp/letter_shell/shell.c ****     for (short i = 0; i < SHELL_MAX_NUMBER; i++)
  59              		.loc 1 230 46 discriminator 2 view .LVU12
  60 0014 F5E7     		b	.L2
  61              	.L7:
 233:Dsp/letter_shell/shell.c ****         {
 234:Dsp/letter_shell/shell.c ****             shellList[i] = shell;
  62              		.loc 1 234 13 is_stmt 1 view .LVU13
  63              		.loc 1 234 26 is_stmt 0 view .LVU14
  64 0016 024B     		ldr	r3, .L8
  65              	.LVL4:
  66              		.loc 1 234 26 view .LVU15
  67 0018 43F82100 		str	r0, [r3, r1, lsl #2]
 235:Dsp/letter_shell/shell.c ****             return;
  68              		.loc 1 235 13 is_stmt 1 view .LVU16
  69 001c 7047     		bx	lr
  70              	.LVL5:
  71              	.L6:
  72              		.loc 1 235 13 is_stmt 0 view .LVU17
  73              	.LBE2:
 236:Dsp/letter_shell/shell.c ****         }
 237:Dsp/letter_shell/shell.c ****     }
 238:Dsp/letter_shell/shell.c **** }
  74              		.loc 1 238 1 view .LVU18
  75 001e 7047     		bx	lr
  76              	.L9:
  77              		.align	2
  78              	.L8:
  79 0020 00000000 		.word	.LANCHOR0
  80              		.cfi_endproc
  81              	.LFE127:
  83              		.section	.text.shellStringCopy,"ax",%progbits
  84              		.align	1
  85              		.syntax unified
  86              		.thumb
  87              		.thumb_func
  88              		.fpu fpv4-sp-d16
  90              	shellStringCopy:
  91              	.LVL6:
  92              	.LFB138:
 239:Dsp/letter_shell/shell.c **** 
 240:Dsp/letter_shell/shell.c **** 
 241:Dsp/letter_shell/shell.c **** /**
 242:Dsp/letter_shell/shell.c ****  * @brief 获取当前活动shell
 243:Dsp/letter_shell/shell.c ****  * 
 244:Dsp/letter_shell/shell.c ****  * @return Shell* 当前活动shell对象
 245:Dsp/letter_shell/shell.c ****  */
 246:Dsp/letter_shell/shell.c **** Shell* shellGetCurrent(void)
 247:Dsp/letter_shell/shell.c **** {
 248:Dsp/letter_shell/shell.c ****     for (short i = 0; i < SHELL_MAX_NUMBER; i++)
 249:Dsp/letter_shell/shell.c ****     {
ARM GAS  /var/folders/lx/hc4sn_b53233_zkc9xbbl97r0000gp/T//ccoa1yNG.s 			page 7


 250:Dsp/letter_shell/shell.c ****         if (shellList[i] && shellList[i]->status.isActive)
 251:Dsp/letter_shell/shell.c ****         {
 252:Dsp/letter_shell/shell.c ****             return shellList[i];
 253:Dsp/letter_shell/shell.c ****         }
 254:Dsp/letter_shell/shell.c ****     }
 255:Dsp/letter_shell/shell.c ****     return NULL;
 256:Dsp/letter_shell/shell.c **** }
 257:Dsp/letter_shell/shell.c **** 
 258:Dsp/letter_shell/shell.c **** 
 259:Dsp/letter_shell/shell.c **** /**
 260:Dsp/letter_shell/shell.c ****  * @brief shell写字符
 261:Dsp/letter_shell/shell.c ****  * 
 262:Dsp/letter_shell/shell.c ****  * @param shell shell对象
 263:Dsp/letter_shell/shell.c ****  * @param data 字符数据
 264:Dsp/letter_shell/shell.c ****  */
 265:Dsp/letter_shell/shell.c **** static void shellWriteByte(Shell *shell, const char data)
 266:Dsp/letter_shell/shell.c **** {
 267:Dsp/letter_shell/shell.c ****     shell->write(data);
 268:Dsp/letter_shell/shell.c ****     delay_us(50);
 269:Dsp/letter_shell/shell.c **** }
 270:Dsp/letter_shell/shell.c **** 
 271:Dsp/letter_shell/shell.c **** 
 272:Dsp/letter_shell/shell.c **** /**
 273:Dsp/letter_shell/shell.c ****  * @brief shell 写字符串
 274:Dsp/letter_shell/shell.c ****  * 
 275:Dsp/letter_shell/shell.c ****  * @param shell shell对象
 276:Dsp/letter_shell/shell.c ****  * @param string 字符串数据
 277:Dsp/letter_shell/shell.c ****  * 
 278:Dsp/letter_shell/shell.c ****  * @return unsigned short 写入字符的数量
 279:Dsp/letter_shell/shell.c ****  */
 280:Dsp/letter_shell/shell.c **** unsigned short shellWriteString(Shell *shell, const char *string)
 281:Dsp/letter_shell/shell.c **** {
 282:Dsp/letter_shell/shell.c ****     unsigned short count = 0;
 283:Dsp/letter_shell/shell.c ****     SHELL_ASSERT(shell->write, return 0);
 284:Dsp/letter_shell/shell.c ****     while(*string)
 285:Dsp/letter_shell/shell.c ****     {
 286:Dsp/letter_shell/shell.c ****         shell->write(*string ++);
 287:Dsp/letter_shell/shell.c ****         count ++;
 288:Dsp/letter_shell/shell.c ****         delay_us(100);
 289:Dsp/letter_shell/shell.c ****     }
 290:Dsp/letter_shell/shell.c ****     return count;
 291:Dsp/letter_shell/shell.c **** }
 292:Dsp/letter_shell/shell.c **** 
 293:Dsp/letter_shell/shell.c **** 
 294:Dsp/letter_shell/shell.c **** /**
 295:Dsp/letter_shell/shell.c ****  * @brief shell 写命令描述字符串
 296:Dsp/letter_shell/shell.c ****  * 
 297:Dsp/letter_shell/shell.c ****  * @param shell shell对象
 298:Dsp/letter_shell/shell.c ****  * @param string 字符串数据
 299:Dsp/letter_shell/shell.c ****  * 
 300:Dsp/letter_shell/shell.c ****  * @return unsigned short 写入字符的数量
 301:Dsp/letter_shell/shell.c ****  */
 302:Dsp/letter_shell/shell.c **** static unsigned short shellWriteCommandDesc(Shell *shell, const char *string)
 303:Dsp/letter_shell/shell.c **** {
 304:Dsp/letter_shell/shell.c ****     unsigned short count = 0;
 305:Dsp/letter_shell/shell.c ****     SHELL_ASSERT(shell->write, return 0);
 306:Dsp/letter_shell/shell.c ****     while(*string
ARM GAS  /var/folders/lx/hc4sn_b53233_zkc9xbbl97r0000gp/T//ccoa1yNG.s 			page 8


 307:Dsp/letter_shell/shell.c ****         && *string != '\r'
 308:Dsp/letter_shell/shell.c ****         && *string != '\n'
 309:Dsp/letter_shell/shell.c ****         && count < 36)
 310:Dsp/letter_shell/shell.c ****     {
 311:Dsp/letter_shell/shell.c ****         shell->write(*string ++);
 312:Dsp/letter_shell/shell.c ****         delay_us(10);
 313:Dsp/letter_shell/shell.c ****         count ++;
 314:Dsp/letter_shell/shell.c ****         if (count >= 36 && *(string + 1))
 315:Dsp/letter_shell/shell.c ****         {
 316:Dsp/letter_shell/shell.c ****             shell->write('.');
 317:Dsp/letter_shell/shell.c ****             shell->write('.');
 318:Dsp/letter_shell/shell.c ****             shell->write('.');
 319:Dsp/letter_shell/shell.c ****         }
 320:Dsp/letter_shell/shell.c ****     }
 321:Dsp/letter_shell/shell.c ****     return count;
 322:Dsp/letter_shell/shell.c **** }
 323:Dsp/letter_shell/shell.c **** 
 324:Dsp/letter_shell/shell.c **** 
 325:Dsp/letter_shell/shell.c **** /**
 326:Dsp/letter_shell/shell.c ****  * @brief shell写命令提示符
 327:Dsp/letter_shell/shell.c ****  * 
 328:Dsp/letter_shell/shell.c ****  * @param shell shell对象
 329:Dsp/letter_shell/shell.c ****  * @param newline 新行
 330:Dsp/letter_shell/shell.c ****  * 
 331:Dsp/letter_shell/shell.c ****  */
 332:Dsp/letter_shell/shell.c **** static void shellWriteCommandLine(Shell *shell, unsigned char newline)
 333:Dsp/letter_shell/shell.c **** {
 334:Dsp/letter_shell/shell.c ****     if (shell->status.isChecked)
 335:Dsp/letter_shell/shell.c ****     {
 336:Dsp/letter_shell/shell.c ****         if (newline)
 337:Dsp/letter_shell/shell.c ****         {
 338:Dsp/letter_shell/shell.c ****             shellWriteString(shell, "\r\n");
 339:Dsp/letter_shell/shell.c ****         }
 340:Dsp/letter_shell/shell.c ****         shellWriteString(shell, shell->info.user->data.user.name);
 341:Dsp/letter_shell/shell.c ****         shellWriteString(shell, ":");
 342:Dsp/letter_shell/shell.c ****         shellWriteString(shell, shell->info.path ? shell->info.path : "/");
 343:Dsp/letter_shell/shell.c ****         shellWriteString(shell, "$ ");
 344:Dsp/letter_shell/shell.c ****     }
 345:Dsp/letter_shell/shell.c ****     else
 346:Dsp/letter_shell/shell.c ****     {
 347:Dsp/letter_shell/shell.c ****         shellWriteString(shell, shellText[SHELL_TEXT_PASSWORD_HINT]);
 348:Dsp/letter_shell/shell.c ****     }
 349:Dsp/letter_shell/shell.c **** }
 350:Dsp/letter_shell/shell.c **** 
 351:Dsp/letter_shell/shell.c **** 
 352:Dsp/letter_shell/shell.c **** #if SHELL_PRINT_BUFFER > 0
 353:Dsp/letter_shell/shell.c **** /**
 354:Dsp/letter_shell/shell.c ****  * @brief shell格式化输出
 355:Dsp/letter_shell/shell.c ****  * 
 356:Dsp/letter_shell/shell.c ****  * @param shell shell对象
 357:Dsp/letter_shell/shell.c ****  * @param fmt 格式化字符串
 358:Dsp/letter_shell/shell.c ****  * @param ... 参数
 359:Dsp/letter_shell/shell.c ****  */
 360:Dsp/letter_shell/shell.c **** void shellPrint(Shell *shell, char *fmt, ...)
 361:Dsp/letter_shell/shell.c **** {
 362:Dsp/letter_shell/shell.c ****     char buffer[SHELL_PRINT_BUFFER];
 363:Dsp/letter_shell/shell.c ****     va_list vargs;
ARM GAS  /var/folders/lx/hc4sn_b53233_zkc9xbbl97r0000gp/T//ccoa1yNG.s 			page 9


 364:Dsp/letter_shell/shell.c **** 
 365:Dsp/letter_shell/shell.c ****     SHELL_ASSERT(shell, return);
 366:Dsp/letter_shell/shell.c **** 
 367:Dsp/letter_shell/shell.c ****     va_start(vargs, fmt);
 368:Dsp/letter_shell/shell.c ****     vsnprintf(buffer, SHELL_PRINT_BUFFER - 1, fmt, vargs);
 369:Dsp/letter_shell/shell.c ****     va_end(vargs);
 370:Dsp/letter_shell/shell.c ****     
 371:Dsp/letter_shell/shell.c ****     shellWriteString(shell, buffer);
 372:Dsp/letter_shell/shell.c **** }
 373:Dsp/letter_shell/shell.c **** #endif
 374:Dsp/letter_shell/shell.c **** 
 375:Dsp/letter_shell/shell.c **** 
 376:Dsp/letter_shell/shell.c **** #if SHELL_SCAN_BUFFER > 0
 377:Dsp/letter_shell/shell.c **** /**
 378:Dsp/letter_shell/shell.c ****  * @brief shell格式化输入
 379:Dsp/letter_shell/shell.c ****  * 
 380:Dsp/letter_shell/shell.c ****  * @param shell shell对象
 381:Dsp/letter_shell/shell.c ****  * @param fmt 格式化字符串
 382:Dsp/letter_shell/shell.c ****  * @param ... 参数
 383:Dsp/letter_shell/shell.c ****  */
 384:Dsp/letter_shell/shell.c **** void shellScan(Shell *shell, char *fmt, ...)
 385:Dsp/letter_shell/shell.c **** {
 386:Dsp/letter_shell/shell.c ****     char buffer[SHELL_SCAN_BUFFER];
 387:Dsp/letter_shell/shell.c ****     va_list vargs;
 388:Dsp/letter_shell/shell.c ****     short index = 0;
 389:Dsp/letter_shell/shell.c **** 
 390:Dsp/letter_shell/shell.c ****     SHELL_ASSERT(shell, return);
 391:Dsp/letter_shell/shell.c **** 
 392:Dsp/letter_shell/shell.c ****     if (shell->read)
 393:Dsp/letter_shell/shell.c ****     {
 394:Dsp/letter_shell/shell.c ****         do {
 395:Dsp/letter_shell/shell.c ****             if (shell->read(&buffer[index]) == 0)
 396:Dsp/letter_shell/shell.c ****             {
 397:Dsp/letter_shell/shell.c ****                 shell->write(buffer[index]);
 398:Dsp/letter_shell/shell.c ****                 index++;
 399:Dsp/letter_shell/shell.c ****             }
 400:Dsp/letter_shell/shell.c ****         } while (buffer[index -1] != '\r' && buffer[index -1] != '\n' && index < SHELL_SCAN_BUFFER)
 401:Dsp/letter_shell/shell.c ****         shellWriteString(shell, "\r\n");
 402:Dsp/letter_shell/shell.c ****         buffer[index] = '\0';
 403:Dsp/letter_shell/shell.c ****     }
 404:Dsp/letter_shell/shell.c **** 
 405:Dsp/letter_shell/shell.c ****     va_start(vargs, fmt);
 406:Dsp/letter_shell/shell.c ****     vsscanf(buffer, fmt, vargs);
 407:Dsp/letter_shell/shell.c ****     va_end(vargs);
 408:Dsp/letter_shell/shell.c **** }
 409:Dsp/letter_shell/shell.c **** #endif
 410:Dsp/letter_shell/shell.c **** 
 411:Dsp/letter_shell/shell.c **** 
 412:Dsp/letter_shell/shell.c **** /**
 413:Dsp/letter_shell/shell.c ****  * @brief shell 检查命令权限
 414:Dsp/letter_shell/shell.c ****  * 
 415:Dsp/letter_shell/shell.c ****  * @param shell shell对象
 416:Dsp/letter_shell/shell.c ****  * @param command ShellCommand
 417:Dsp/letter_shell/shell.c ****  * 
 418:Dsp/letter_shell/shell.c ****  * @return signed char 0 当前用户具有该命令权限
 419:Dsp/letter_shell/shell.c ****  * @return signec char -1 当前用户不具有该命令权限
 420:Dsp/letter_shell/shell.c ****  */
ARM GAS  /var/folders/lx/hc4sn_b53233_zkc9xbbl97r0000gp/T//ccoa1yNG.s 			page 10


 421:Dsp/letter_shell/shell.c **** signed char shellCheckPermission(Shell *shell, ShellCommand *command)
 422:Dsp/letter_shell/shell.c **** {
 423:Dsp/letter_shell/shell.c ****     return ((!command->attr.attrs.permission
 424:Dsp/letter_shell/shell.c ****                 || command->attr.attrs.type == SHELL_TYPE_USER
 425:Dsp/letter_shell/shell.c ****                 || (command->attr.attrs.permission 
 426:Dsp/letter_shell/shell.c ****                     & shell->info.user->attr.attrs.permission))
 427:Dsp/letter_shell/shell.c ****             && (shell->status.isChecked
 428:Dsp/letter_shell/shell.c ****                 || command->attr.attrs.enableUnchecked))
 429:Dsp/letter_shell/shell.c ****             ? 0 : -1;
 430:Dsp/letter_shell/shell.c **** }
 431:Dsp/letter_shell/shell.c **** 
 432:Dsp/letter_shell/shell.c **** 
 433:Dsp/letter_shell/shell.c **** /**
 434:Dsp/letter_shell/shell.c ****  * @brief int转16进制字符串
 435:Dsp/letter_shell/shell.c ****  * 
 436:Dsp/letter_shell/shell.c ****  * @param value 数值
 437:Dsp/letter_shell/shell.c ****  * @param buffer 缓冲
 438:Dsp/letter_shell/shell.c ****  * 
 439:Dsp/letter_shell/shell.c ****  * @return signed char 转换后有效数据长度
 440:Dsp/letter_shell/shell.c ****  */
 441:Dsp/letter_shell/shell.c **** signed char shellToHex(unsigned int value, char *buffer)
 442:Dsp/letter_shell/shell.c **** {
 443:Dsp/letter_shell/shell.c ****     char byte;
 444:Dsp/letter_shell/shell.c ****     unsigned char i = 8;
 445:Dsp/letter_shell/shell.c ****     buffer[8] = 0;
 446:Dsp/letter_shell/shell.c ****     while (value)
 447:Dsp/letter_shell/shell.c ****     {
 448:Dsp/letter_shell/shell.c ****         byte = value & 0x0000000F;
 449:Dsp/letter_shell/shell.c ****         buffer[--i] = (byte > 9) ? (byte + 87) : (byte + 48);
 450:Dsp/letter_shell/shell.c ****         value >>= 4;
 451:Dsp/letter_shell/shell.c ****     }
 452:Dsp/letter_shell/shell.c ****     return 8 - i;
 453:Dsp/letter_shell/shell.c **** }
 454:Dsp/letter_shell/shell.c **** 
 455:Dsp/letter_shell/shell.c **** 
 456:Dsp/letter_shell/shell.c **** /**
 457:Dsp/letter_shell/shell.c **** * @brief int转10进制字符串
 458:Dsp/letter_shell/shell.c ****  * 
 459:Dsp/letter_shell/shell.c ****  * @param value 数值
 460:Dsp/letter_shell/shell.c ****  * @param buffer 缓冲
 461:Dsp/letter_shell/shell.c ****  * 
 462:Dsp/letter_shell/shell.c ****  * @return signed char 转换后有效数据长度
 463:Dsp/letter_shell/shell.c ****  */
 464:Dsp/letter_shell/shell.c **** signed char shellToDec(int value, char *buffer)
 465:Dsp/letter_shell/shell.c **** {
 466:Dsp/letter_shell/shell.c ****     unsigned char i = 11;
 467:Dsp/letter_shell/shell.c ****     int v = value;
 468:Dsp/letter_shell/shell.c ****     if (value < 0)
 469:Dsp/letter_shell/shell.c ****     {
 470:Dsp/letter_shell/shell.c ****         v = -value;
 471:Dsp/letter_shell/shell.c ****     }
 472:Dsp/letter_shell/shell.c ****     buffer[11] = 0;
 473:Dsp/letter_shell/shell.c ****     while (v)
 474:Dsp/letter_shell/shell.c ****     {
 475:Dsp/letter_shell/shell.c ****         buffer[--i] = v % 10 + 48;
 476:Dsp/letter_shell/shell.c ****         v /= 10;
 477:Dsp/letter_shell/shell.c ****     }
ARM GAS  /var/folders/lx/hc4sn_b53233_zkc9xbbl97r0000gp/T//ccoa1yNG.s 			page 11


 478:Dsp/letter_shell/shell.c ****     if (value < 0)
 479:Dsp/letter_shell/shell.c ****     {
 480:Dsp/letter_shell/shell.c ****         buffer[--i] = '-';
 481:Dsp/letter_shell/shell.c ****     }
 482:Dsp/letter_shell/shell.c ****     if (value == 0) {
 483:Dsp/letter_shell/shell.c ****         buffer[--i] = '0';
 484:Dsp/letter_shell/shell.c ****     }
 485:Dsp/letter_shell/shell.c ****     return 11 - i;
 486:Dsp/letter_shell/shell.c **** }
 487:Dsp/letter_shell/shell.c **** 
 488:Dsp/letter_shell/shell.c **** 
 489:Dsp/letter_shell/shell.c **** /**
 490:Dsp/letter_shell/shell.c ****  * @brief shell字符串复制
 491:Dsp/letter_shell/shell.c ****  * 
 492:Dsp/letter_shell/shell.c ****  * @param dest 目标字符串
 493:Dsp/letter_shell/shell.c ****  * @param src 源字符串
 494:Dsp/letter_shell/shell.c ****  * @return unsigned short 字符串长度
 495:Dsp/letter_shell/shell.c ****  */
 496:Dsp/letter_shell/shell.c **** static unsigned short shellStringCopy(char *dest, char* src)
 497:Dsp/letter_shell/shell.c **** {
  93              		.loc 1 497 1 is_stmt 1 view -0
  94              		.cfi_startproc
  95              		@ args = 0, pretend = 0, frame = 0
  96              		@ frame_needed = 0, uses_anonymous_args = 0
  97              		@ link register save eliminated.
  98              		.loc 1 497 1 is_stmt 0 view .LVU20
  99 0000 0246     		mov	r2, r0
 498:Dsp/letter_shell/shell.c ****     unsigned short count = 0;
 100              		.loc 1 498 5 is_stmt 1 view .LVU21
 101              	.LVL7:
 499:Dsp/letter_shell/shell.c ****     while (*(src + count))
 102              		.loc 1 499 5 view .LVU22
 498:Dsp/letter_shell/shell.c ****     unsigned short count = 0;
 103              		.loc 1 498 20 is_stmt 0 view .LVU23
 104 0002 0020     		movs	r0, #0
 105              	.LVL8:
 106              		.loc 1 499 11 view .LVU24
 107 0004 02E0     		b	.L11
 108              	.LVL9:
 109              	.L12:
 500:Dsp/letter_shell/shell.c ****     {
 501:Dsp/letter_shell/shell.c ****         *(dest + count) = *(src + count);
 110              		.loc 1 501 9 is_stmt 1 view .LVU25
 111              		.loc 1 501 25 is_stmt 0 view .LVU26
 112 0006 1354     		strb	r3, [r2, r0]
 502:Dsp/letter_shell/shell.c ****         count++;
 113              		.loc 1 502 9 is_stmt 1 view .LVU27
 114              		.loc 1 502 14 is_stmt 0 view .LVU28
 115 0008 0130     		adds	r0, r0, #1
 116              	.LVL10:
 117              		.loc 1 502 14 view .LVU29
 118 000a 80B2     		uxth	r0, r0
 119              	.LVL11:
 120              	.L11:
 499:Dsp/letter_shell/shell.c ****     while (*(src + count))
 121              		.loc 1 499 11 is_stmt 1 view .LVU30
 499:Dsp/letter_shell/shell.c ****     while (*(src + count))
ARM GAS  /var/folders/lx/hc4sn_b53233_zkc9xbbl97r0000gp/T//ccoa1yNG.s 			page 12


 122              		.loc 1 499 12 is_stmt 0 view .LVU31
 123 000c 0B5C     		ldrb	r3, [r1, r0]	@ zero_extendqisi2
 499:Dsp/letter_shell/shell.c ****     while (*(src + count))
 124              		.loc 1 499 11 view .LVU32
 125 000e 002B     		cmp	r3, #0
 126 0010 F9D1     		bne	.L12
 503:Dsp/letter_shell/shell.c ****     }
 504:Dsp/letter_shell/shell.c ****     *(dest + count) = 0;
 127              		.loc 1 504 5 is_stmt 1 view .LVU33
 128              		.loc 1 504 21 is_stmt 0 view .LVU34
 129 0012 1354     		strb	r3, [r2, r0]
 505:Dsp/letter_shell/shell.c ****     return count;
 130              		.loc 1 505 5 is_stmt 1 view .LVU35
 506:Dsp/letter_shell/shell.c **** }
 131              		.loc 1 506 1 is_stmt 0 view .LVU36
 132 0014 7047     		bx	lr
 133              		.cfi_endproc
 134              	.LFE138:
 136              		.section	.text.shellStringCompare,"ax",%progbits
 137              		.align	1
 138              		.syntax unified
 139              		.thumb
 140              		.thumb_func
 141              		.fpu fpv4-sp-d16
 143              	shellStringCompare:
 144              	.LVL12:
 145              	.LFB139:
 507:Dsp/letter_shell/shell.c **** 
 508:Dsp/letter_shell/shell.c **** 
 509:Dsp/letter_shell/shell.c **** /**
 510:Dsp/letter_shell/shell.c ****  * @brief shell字符串比较
 511:Dsp/letter_shell/shell.c ****  * 
 512:Dsp/letter_shell/shell.c ****  * @param dest 目标字符串
 513:Dsp/letter_shell/shell.c ****  * @param src 源字符串
 514:Dsp/letter_shell/shell.c ****  * @return unsigned short 匹配长度
 515:Dsp/letter_shell/shell.c ****  */
 516:Dsp/letter_shell/shell.c **** static unsigned short shellStringCompare(char* dest, char *src)
 517:Dsp/letter_shell/shell.c **** {
 146              		.loc 1 517 1 is_stmt 1 view -0
 147              		.cfi_startproc
 148              		@ args = 0, pretend = 0, frame = 0
 149              		@ frame_needed = 0, uses_anonymous_args = 0
 150              		@ link register save eliminated.
 151              		.loc 1 517 1 is_stmt 0 view .LVU38
 152 0000 8446     		mov	ip, r0
 518:Dsp/letter_shell/shell.c ****     unsigned short match = 0;
 153              		.loc 1 518 5 is_stmt 1 view .LVU39
 154              	.LVL13:
 519:Dsp/letter_shell/shell.c ****     unsigned short i = 0;
 155              		.loc 1 519 5 view .LVU40
 520:Dsp/letter_shell/shell.c **** 
 521:Dsp/letter_shell/shell.c ****     while (*(dest +i) && *(src + i))
 156              		.loc 1 521 5 view .LVU41
 519:Dsp/letter_shell/shell.c ****     unsigned short i = 0;
 157              		.loc 1 519 20 is_stmt 0 view .LVU42
 158 0002 0023     		movs	r3, #0
 518:Dsp/letter_shell/shell.c ****     unsigned short i = 0;
ARM GAS  /var/folders/lx/hc4sn_b53233_zkc9xbbl97r0000gp/T//ccoa1yNG.s 			page 13


 159              		.loc 1 518 20 view .LVU43
 160 0004 1846     		mov	r0, r3
 161              	.LVL14:
 162              		.loc 1 521 11 is_stmt 1 view .LVU44
 163              		.loc 1 521 12 is_stmt 0 view .LVU45
 164 0006 1CF80320 		ldrb	r2, [ip, r3]	@ zero_extendqisi2
 165              		.loc 1 521 11 view .LVU46
 166 000a 7AB1     		cbz	r2, .L22
 517:Dsp/letter_shell/shell.c ****     unsigned short match = 0;
 167              		.loc 1 517 1 view .LVU47
 168 000c 10B4     		push	{r4}
 169              	.LCFI0:
 170              		.cfi_def_cfa_offset 4
 171              		.cfi_offset 4, -4
 172              	.LVL15:
 173              	.L19:
 174              		.loc 1 521 26 discriminator 1 view .LVU48
 175 000e CC5C     		ldrb	r4, [r1, r3]	@ zero_extendqisi2
 176              		.loc 1 521 23 discriminator 1 view .LVU49
 177 0010 4CB1     		cbz	r4, .L15
 522:Dsp/letter_shell/shell.c ****     {
 523:Dsp/letter_shell/shell.c ****         if (*(dest + i) != *(src +i))
 178              		.loc 1 523 9 is_stmt 1 view .LVU50
 179              		.loc 1 523 12 is_stmt 0 view .LVU51
 180 0012 A242     		cmp	r2, r4
 181 0014 07D1     		bne	.L15
 524:Dsp/letter_shell/shell.c ****         {
 525:Dsp/letter_shell/shell.c ****             break;
 526:Dsp/letter_shell/shell.c ****         }
 527:Dsp/letter_shell/shell.c ****         match ++;
 182              		.loc 1 527 9 is_stmt 1 view .LVU52
 183              		.loc 1 527 15 is_stmt 0 view .LVU53
 184 0016 0130     		adds	r0, r0, #1
 185 0018 80B2     		uxth	r0, r0
 186              	.LVL16:
 528:Dsp/letter_shell/shell.c ****         i++;
 187              		.loc 1 528 9 is_stmt 1 view .LVU54
 188              		.loc 1 528 10 is_stmt 0 view .LVU55
 189 001a 0133     		adds	r3, r3, #1
 190              	.LVL17:
 191              		.loc 1 528 10 view .LVU56
 192 001c 9BB2     		uxth	r3, r3
 193              	.LVL18:
 521:Dsp/letter_shell/shell.c ****     {
 194              		.loc 1 521 11 is_stmt 1 view .LVU57
 521:Dsp/letter_shell/shell.c ****     {
 195              		.loc 1 521 12 is_stmt 0 view .LVU58
 196 001e 1CF80320 		ldrb	r2, [ip, r3]	@ zero_extendqisi2
 521:Dsp/letter_shell/shell.c ****     {
 197              		.loc 1 521 11 view .LVU59
 198 0022 002A     		cmp	r2, #0
 199 0024 F3D1     		bne	.L19
 200              	.LVL19:
 201              	.L15:
 529:Dsp/letter_shell/shell.c ****     }
 530:Dsp/letter_shell/shell.c ****     return match;
 202              		.loc 1 530 5 is_stmt 1 view .LVU60
ARM GAS  /var/folders/lx/hc4sn_b53233_zkc9xbbl97r0000gp/T//ccoa1yNG.s 			page 14


 531:Dsp/letter_shell/shell.c **** }
 203              		.loc 1 531 1 is_stmt 0 view .LVU61
 204 0026 5DF8044B 		ldr	r4, [sp], #4
 205              	.LCFI1:
 206              		.cfi_restore 4
 207              		.cfi_def_cfa_offset 0
 208 002a 7047     		bx	lr
 209              	.LVL20:
 210              	.L22:
 530:Dsp/letter_shell/shell.c **** }
 211              		.loc 1 530 5 is_stmt 1 view .LVU62
 212              		.loc 1 531 1 is_stmt 0 view .LVU63
 213 002c 7047     		bx	lr
 214              		.cfi_endproc
 215              	.LFE139:
 217              		.section	.text.shellGetCommandDesc,"ax",%progbits
 218              		.align	1
 219              		.syntax unified
 220              		.thumb
 221              		.thumb_func
 222              		.fpu fpv4-sp-d16
 224              	shellGetCommandDesc:
 225              	.LVL21:
 226              	.LFB141:
 532:Dsp/letter_shell/shell.c **** 
 533:Dsp/letter_shell/shell.c **** 
 534:Dsp/letter_shell/shell.c **** /**
 535:Dsp/letter_shell/shell.c ****  * @brief shell获取命令名
 536:Dsp/letter_shell/shell.c ****  * 
 537:Dsp/letter_shell/shell.c ****  * @param command 命令
 538:Dsp/letter_shell/shell.c ****  * @return const char* 命令名
 539:Dsp/letter_shell/shell.c ****  */
 540:Dsp/letter_shell/shell.c **** static const char* shellGetCommandName(ShellCommand *command)
 541:Dsp/letter_shell/shell.c **** {
 542:Dsp/letter_shell/shell.c ****     static char buffer[9];
 543:Dsp/letter_shell/shell.c ****     for (unsigned char i = 0; i < 9; i++)
 544:Dsp/letter_shell/shell.c ****     {
 545:Dsp/letter_shell/shell.c ****         buffer[i] = '0';
 546:Dsp/letter_shell/shell.c ****     }
 547:Dsp/letter_shell/shell.c ****     if (command->attr.attrs.type <= SHELL_TYPE_CMD_FUNC)
 548:Dsp/letter_shell/shell.c ****     {
 549:Dsp/letter_shell/shell.c ****         return command->data.cmd.name;
 550:Dsp/letter_shell/shell.c ****     }
 551:Dsp/letter_shell/shell.c ****     else if (command->attr.attrs.type <= SHELL_TYPE_VAR_NODE)
 552:Dsp/letter_shell/shell.c ****     {
 553:Dsp/letter_shell/shell.c ****         return command->data.var.name;
 554:Dsp/letter_shell/shell.c ****     }
 555:Dsp/letter_shell/shell.c ****     else if (command->attr.attrs.type <= SHELL_TYPE_USER)
 556:Dsp/letter_shell/shell.c ****     {
 557:Dsp/letter_shell/shell.c ****         return command->data.user.name;
 558:Dsp/letter_shell/shell.c ****     }
 559:Dsp/letter_shell/shell.c ****     else
 560:Dsp/letter_shell/shell.c ****     {
 561:Dsp/letter_shell/shell.c ****         shellToHex(command->data.key.value, buffer);
 562:Dsp/letter_shell/shell.c ****         return buffer;
 563:Dsp/letter_shell/shell.c ****     }
 564:Dsp/letter_shell/shell.c **** }
ARM GAS  /var/folders/lx/hc4sn_b53233_zkc9xbbl97r0000gp/T//ccoa1yNG.s 			page 15


 565:Dsp/letter_shell/shell.c **** 
 566:Dsp/letter_shell/shell.c **** 
 567:Dsp/letter_shell/shell.c **** /**
 568:Dsp/letter_shell/shell.c ****  * @brief shell获取命令描述
 569:Dsp/letter_shell/shell.c ****  * 
 570:Dsp/letter_shell/shell.c ****  * @param command 命令
 571:Dsp/letter_shell/shell.c ****  * @return const char* 命令描述
 572:Dsp/letter_shell/shell.c ****  */
 573:Dsp/letter_shell/shell.c **** static const char* shellGetCommandDesc(ShellCommand *command)
 574:Dsp/letter_shell/shell.c **** {
 227              		.loc 1 574 1 is_stmt 1 view -0
 228              		.cfi_startproc
 229              		@ args = 0, pretend = 0, frame = 0
 230              		@ frame_needed = 0, uses_anonymous_args = 0
 231              		@ link register save eliminated.
 575:Dsp/letter_shell/shell.c ****     if (command->attr.attrs.type <= SHELL_TYPE_CMD_FUNC)
 232              		.loc 1 575 5 view .LVU65
 233              		.loc 1 575 28 is_stmt 0 view .LVU66
 234 0000 4378     		ldrb	r3, [r0, #1]	@ zero_extendqisi2
 235 0002 03F00F03 		and	r3, r3, #15
 236              		.loc 1 575 8 view .LVU67
 237 0006 012B     		cmp	r3, #1
 238 0008 05D9     		bls	.L28
 576:Dsp/letter_shell/shell.c ****     {
 577:Dsp/letter_shell/shell.c ****         return command->data.cmd.desc;
 578:Dsp/letter_shell/shell.c ****     }
 579:Dsp/letter_shell/shell.c ****     else if (command->attr.attrs.type <= SHELL_TYPE_VAR_NODE)
 239              		.loc 1 579 10 is_stmt 1 view .LVU68
 240              		.loc 1 579 13 is_stmt 0 view .LVU69
 241 000a 072B     		cmp	r3, #7
 242 000c 05D9     		bls	.L29
 580:Dsp/letter_shell/shell.c ****     {
 581:Dsp/letter_shell/shell.c ****         return command->data.var.desc;
 582:Dsp/letter_shell/shell.c ****     }
 583:Dsp/letter_shell/shell.c ****     else if (command->attr.attrs.type <= SHELL_TYPE_USER)
 243              		.loc 1 583 10 is_stmt 1 view .LVU70
 244              		.loc 1 583 13 is_stmt 0 view .LVU71
 245 000e 082B     		cmp	r3, #8
 246 0010 05D8     		bhi	.L27
 584:Dsp/letter_shell/shell.c ****     {
 585:Dsp/letter_shell/shell.c ****         return command->data.user.desc;
 247              		.loc 1 585 9 is_stmt 1 view .LVU72
 248              		.loc 1 585 34 is_stmt 0 view .LVU73
 249 0012 C068     		ldr	r0, [r0, #12]
 250              	.LVL22:
 251              		.loc 1 585 34 view .LVU74
 252 0014 7047     		bx	lr
 253              	.LVL23:
 254              	.L28:
 577:Dsp/letter_shell/shell.c ****     }
 255              		.loc 1 577 9 is_stmt 1 view .LVU75
 577:Dsp/letter_shell/shell.c ****     }
 256              		.loc 1 577 33 is_stmt 0 view .LVU76
 257 0016 C068     		ldr	r0, [r0, #12]
 258              	.LVL24:
 577:Dsp/letter_shell/shell.c ****     }
 259              		.loc 1 577 33 view .LVU77
ARM GAS  /var/folders/lx/hc4sn_b53233_zkc9xbbl97r0000gp/T//ccoa1yNG.s 			page 16


 260 0018 7047     		bx	lr
 261              	.LVL25:
 262              	.L29:
 581:Dsp/letter_shell/shell.c ****     }
 263              		.loc 1 581 9 is_stmt 1 view .LVU78
 581:Dsp/letter_shell/shell.c ****     }
 264              		.loc 1 581 33 is_stmt 0 view .LVU79
 265 001a C068     		ldr	r0, [r0, #12]
 266              	.LVL26:
 581:Dsp/letter_shell/shell.c ****     }
 267              		.loc 1 581 33 view .LVU80
 268 001c 7047     		bx	lr
 269              	.LVL27:
 270              	.L27:
 586:Dsp/letter_shell/shell.c ****     }
 587:Dsp/letter_shell/shell.c ****     else
 588:Dsp/letter_shell/shell.c ****     {
 589:Dsp/letter_shell/shell.c ****         return command->data.key.desc;
 271              		.loc 1 589 9 is_stmt 1 view .LVU81
 272              		.loc 1 589 33 is_stmt 0 view .LVU82
 273 001e C068     		ldr	r0, [r0, #12]
 274              	.LVL28:
 590:Dsp/letter_shell/shell.c ****     }
 591:Dsp/letter_shell/shell.c **** }
 275              		.loc 1 591 1 view .LVU83
 276 0020 7047     		bx	lr
 277              		.cfi_endproc
 278              	.LFE141:
 280              		.section	.text.shellParserParam,"ax",%progbits
 281              		.align	1
 282              		.syntax unified
 283              		.thumb
 284              		.thumb_func
 285              		.fpu fpv4-sp-d16
 287              	shellParserParam:
 288              	.LVL29:
 289              	.LFB152:
 592:Dsp/letter_shell/shell.c **** 
 593:Dsp/letter_shell/shell.c **** /**
 594:Dsp/letter_shell/shell.c ****  * @brief shell 列出命令条目
 595:Dsp/letter_shell/shell.c ****  * 
 596:Dsp/letter_shell/shell.c ****  * @param shell shell对象
 597:Dsp/letter_shell/shell.c ****  * @param item 命令条目
 598:Dsp/letter_shell/shell.c ****  */
 599:Dsp/letter_shell/shell.c **** void shellListItem(Shell *shell, ShellCommand *item)
 600:Dsp/letter_shell/shell.c **** {
 601:Dsp/letter_shell/shell.c ****     short spaceLength;
 602:Dsp/letter_shell/shell.c **** 
 603:Dsp/letter_shell/shell.c ****     spaceLength = 22 - shellWriteString(shell, shellGetCommandName(item));
 604:Dsp/letter_shell/shell.c ****     spaceLength = (spaceLength > 0) ? spaceLength : 4;
 605:Dsp/letter_shell/shell.c ****     do {
 606:Dsp/letter_shell/shell.c ****         shellWriteByte(shell, '-');
 607:Dsp/letter_shell/shell.c ****     } while (--spaceLength);
 608:Dsp/letter_shell/shell.c ****     if (item->attr.attrs.type <= SHELL_TYPE_CMD_FUNC)
 609:Dsp/letter_shell/shell.c ****     {
 610:Dsp/letter_shell/shell.c ****         shellWriteString(shell, shellText[SHELL_TEXT_TYPE_CMD]);
 611:Dsp/letter_shell/shell.c ****     }
ARM GAS  /var/folders/lx/hc4sn_b53233_zkc9xbbl97r0000gp/T//ccoa1yNG.s 			page 17


 612:Dsp/letter_shell/shell.c ****     else if (item->attr.attrs.type <= SHELL_TYPE_VAR_NODE)
 613:Dsp/letter_shell/shell.c ****     {
 614:Dsp/letter_shell/shell.c ****         shellWriteString(shell, shellText[SHELL_TEXT_TYPE_VAR]);
 615:Dsp/letter_shell/shell.c ****     }
 616:Dsp/letter_shell/shell.c ****     else if (item->attr.attrs.type <= SHELL_TYPE_USER)
 617:Dsp/letter_shell/shell.c ****     {
 618:Dsp/letter_shell/shell.c ****         shellWriteString(shell, shellText[SHELL_TEXT_TYPE_USER]);
 619:Dsp/letter_shell/shell.c ****     }
 620:Dsp/letter_shell/shell.c ****     else if (item->attr.attrs.type <= SHELL_TYPE_KEY)
 621:Dsp/letter_shell/shell.c ****     {
 622:Dsp/letter_shell/shell.c ****         shellWriteString(shell, shellText[SHELL_TEXT_TYPE_KEY]);
 623:Dsp/letter_shell/shell.c ****     }
 624:Dsp/letter_shell/shell.c ****     else
 625:Dsp/letter_shell/shell.c ****     {
 626:Dsp/letter_shell/shell.c ****         shellWriteString(shell, shellText[SHELL_TEXT_TYPE_NONE]);
 627:Dsp/letter_shell/shell.c ****     }
 628:Dsp/letter_shell/shell.c **** #if SHELL_HELP_SHOW_PERMISSION == 1
 629:Dsp/letter_shell/shell.c ****     shellWriteString(shell, " ");
 630:Dsp/letter_shell/shell.c ****     for (signed char i = 7; i >= 0; i--)
 631:Dsp/letter_shell/shell.c ****     {
 632:Dsp/letter_shell/shell.c ****         shellWriteByte(shell, item->attr.attrs.permission & (1 << i) ? 'x' : '-');
 633:Dsp/letter_shell/shell.c ****     }
 634:Dsp/letter_shell/shell.c **** #endif
 635:Dsp/letter_shell/shell.c ****     // shellWriteString(shell, " ");
 636:Dsp/letter_shell/shell.c ****     // shellWriteCommandDesc(shell, shellGetCommandDesc(item));
 637:Dsp/letter_shell/shell.c ****     // shellWriteString(shell, "\r\n");
 638:Dsp/letter_shell/shell.c **** }
 639:Dsp/letter_shell/shell.c **** 
 640:Dsp/letter_shell/shell.c **** 
 641:Dsp/letter_shell/shell.c **** /**
 642:Dsp/letter_shell/shell.c ****  * @brief shell列出可执行命令
 643:Dsp/letter_shell/shell.c ****  * 
 644:Dsp/letter_shell/shell.c ****  * @param shell shell对象
 645:Dsp/letter_shell/shell.c ****  */
 646:Dsp/letter_shell/shell.c **** void shellListCommand(Shell *shell)
 647:Dsp/letter_shell/shell.c **** {
 648:Dsp/letter_shell/shell.c ****     ShellCommand *base = (ShellCommand *)shell->commandList.base;
 649:Dsp/letter_shell/shell.c ****     shellWriteString(shell, shellText[SHELL_TEXT_CMD_LIST]);
 650:Dsp/letter_shell/shell.c ****     for (short i = 0; i < shell->commandList.count; i++)
 651:Dsp/letter_shell/shell.c ****     {
 652:Dsp/letter_shell/shell.c ****         if (base[i].attr.attrs.type <= SHELL_TYPE_CMD_FUNC
 653:Dsp/letter_shell/shell.c ****             && shellCheckPermission(shell, &base[i]) == 0)
 654:Dsp/letter_shell/shell.c ****         {
 655:Dsp/letter_shell/shell.c ****             shellListItem(shell, &base[i]);
 656:Dsp/letter_shell/shell.c ****         }
 657:Dsp/letter_shell/shell.c ****     }
 658:Dsp/letter_shell/shell.c **** }
 659:Dsp/letter_shell/shell.c **** 
 660:Dsp/letter_shell/shell.c **** 
 661:Dsp/letter_shell/shell.c **** /**
 662:Dsp/letter_shell/shell.c ****  * @brief shell列出变量
 663:Dsp/letter_shell/shell.c ****  * 
 664:Dsp/letter_shell/shell.c ****  * @param shell shell对象
 665:Dsp/letter_shell/shell.c ****  */
 666:Dsp/letter_shell/shell.c **** void shellListVar(Shell *shell)
 667:Dsp/letter_shell/shell.c **** {
 668:Dsp/letter_shell/shell.c ****     ShellCommand *base = (ShellCommand *)shell->commandList.base;
ARM GAS  /var/folders/lx/hc4sn_b53233_zkc9xbbl97r0000gp/T//ccoa1yNG.s 			page 18


 669:Dsp/letter_shell/shell.c ****     shellWriteString(shell, shellText[SHELL_TEXT_VAR_LIST]);
 670:Dsp/letter_shell/shell.c ****     for (short i = 0; i < shell->commandList.count; i++)
 671:Dsp/letter_shell/shell.c ****     {
 672:Dsp/letter_shell/shell.c ****         if (base[i].attr.attrs.type > SHELL_TYPE_CMD_FUNC
 673:Dsp/letter_shell/shell.c ****             && base[i].attr.attrs.type <= SHELL_TYPE_VAR_NODE
 674:Dsp/letter_shell/shell.c ****             && shellCheckPermission(shell, &base[i]) == 0)
 675:Dsp/letter_shell/shell.c ****         {
 676:Dsp/letter_shell/shell.c ****             shellListItem(shell, &base[i]);
 677:Dsp/letter_shell/shell.c ****         }
 678:Dsp/letter_shell/shell.c ****     }
 679:Dsp/letter_shell/shell.c **** }
 680:Dsp/letter_shell/shell.c **** 
 681:Dsp/letter_shell/shell.c **** 
 682:Dsp/letter_shell/shell.c **** /**
 683:Dsp/letter_shell/shell.c ****  * @brief shell列出用户
 684:Dsp/letter_shell/shell.c ****  * 
 685:Dsp/letter_shell/shell.c ****  * @param shell shell对象
 686:Dsp/letter_shell/shell.c ****  */
 687:Dsp/letter_shell/shell.c **** void shellListUser(Shell *shell)
 688:Dsp/letter_shell/shell.c **** {
 689:Dsp/letter_shell/shell.c ****     ShellCommand *base = (ShellCommand *)shell->commandList.base;
 690:Dsp/letter_shell/shell.c ****     shellWriteString(shell, shellText[SHELL_TEXT_USER_LIST]);
 691:Dsp/letter_shell/shell.c ****     for (short i = 0; i < shell->commandList.count; i++)
 692:Dsp/letter_shell/shell.c ****     {
 693:Dsp/letter_shell/shell.c ****         if (base[i].attr.attrs.type > SHELL_TYPE_VAR_NODE
 694:Dsp/letter_shell/shell.c ****             && base[i].attr.attrs.type <= SHELL_TYPE_USER
 695:Dsp/letter_shell/shell.c ****             && shellCheckPermission(shell, &base[i]) == 0)
 696:Dsp/letter_shell/shell.c ****         {
 697:Dsp/letter_shell/shell.c ****             shellListItem(shell, &base[i]);
 698:Dsp/letter_shell/shell.c ****         }
 699:Dsp/letter_shell/shell.c ****     }
 700:Dsp/letter_shell/shell.c **** }
 701:Dsp/letter_shell/shell.c **** 
 702:Dsp/letter_shell/shell.c **** 
 703:Dsp/letter_shell/shell.c **** /**
 704:Dsp/letter_shell/shell.c ****  * @brief shell列出按键
 705:Dsp/letter_shell/shell.c ****  * 
 706:Dsp/letter_shell/shell.c ****  * @param shell shell对象
 707:Dsp/letter_shell/shell.c ****  */
 708:Dsp/letter_shell/shell.c **** void shellListKey(Shell *shell)
 709:Dsp/letter_shell/shell.c **** {
 710:Dsp/letter_shell/shell.c ****     ShellCommand *base = (ShellCommand *)shell->commandList.base;
 711:Dsp/letter_shell/shell.c ****     shellWriteString(shell, shellText[SHELL_TEXT_KEY_LIST]);
 712:Dsp/letter_shell/shell.c ****     for (short i = 0; i < shell->commandList.count; i++)
 713:Dsp/letter_shell/shell.c ****     {
 714:Dsp/letter_shell/shell.c ****         if (base[i].attr.attrs.type > SHELL_TYPE_USER
 715:Dsp/letter_shell/shell.c ****             && base[i].attr.attrs.type <= SHELL_TYPE_KEY
 716:Dsp/letter_shell/shell.c ****             && shellCheckPermission(shell, &base[i]) == 0)
 717:Dsp/letter_shell/shell.c ****         {
 718:Dsp/letter_shell/shell.c ****             shellListItem(shell, &base[i]);
 719:Dsp/letter_shell/shell.c ****         }
 720:Dsp/letter_shell/shell.c ****     }
 721:Dsp/letter_shell/shell.c **** }
 722:Dsp/letter_shell/shell.c **** 
 723:Dsp/letter_shell/shell.c **** 
 724:Dsp/letter_shell/shell.c **** /**
 725:Dsp/letter_shell/shell.c ****  * @brief shell列出所有命令
ARM GAS  /var/folders/lx/hc4sn_b53233_zkc9xbbl97r0000gp/T//ccoa1yNG.s 			page 19


 726:Dsp/letter_shell/shell.c ****  * 
 727:Dsp/letter_shell/shell.c ****  * @param shell shell对象
 728:Dsp/letter_shell/shell.c ****  */
 729:Dsp/letter_shell/shell.c **** void shellListAll(Shell *shell)
 730:Dsp/letter_shell/shell.c **** {
 731:Dsp/letter_shell/shell.c **** #if SHELL_HELP_LIST_USER == 1
 732:Dsp/letter_shell/shell.c ****     shellListUser(shell);
 733:Dsp/letter_shell/shell.c **** #endif
 734:Dsp/letter_shell/shell.c ****     shellListCommand(shell);
 735:Dsp/letter_shell/shell.c **** #if SHELL_HELP_LIST_VAR == 1
 736:Dsp/letter_shell/shell.c ****     shellListVar(shell);
 737:Dsp/letter_shell/shell.c **** #endif
 738:Dsp/letter_shell/shell.c **** #if SHELL_HELP_LIST_KEY == 1
 739:Dsp/letter_shell/shell.c ****     shellListKey(shell);
 740:Dsp/letter_shell/shell.c **** #endif
 741:Dsp/letter_shell/shell.c **** }
 742:Dsp/letter_shell/shell.c **** 
 743:Dsp/letter_shell/shell.c **** 
 744:Dsp/letter_shell/shell.c **** /**
 745:Dsp/letter_shell/shell.c ****  * @brief shell删除命令行数据
 746:Dsp/letter_shell/shell.c ****  * 
 747:Dsp/letter_shell/shell.c ****  * @param shell shell对象
 748:Dsp/letter_shell/shell.c ****  * @param length 删除长度
 749:Dsp/letter_shell/shell.c ****  */
 750:Dsp/letter_shell/shell.c **** void shellDeleteCommandLine(Shell *shell, unsigned char length)
 751:Dsp/letter_shell/shell.c **** {
 752:Dsp/letter_shell/shell.c ****     while (length--)
 753:Dsp/letter_shell/shell.c ****     {
 754:Dsp/letter_shell/shell.c ****         shellWriteString(shell, "\b \b");
 755:Dsp/letter_shell/shell.c ****     }
 756:Dsp/letter_shell/shell.c **** }
 757:Dsp/letter_shell/shell.c **** 
 758:Dsp/letter_shell/shell.c **** 
 759:Dsp/letter_shell/shell.c **** /**
 760:Dsp/letter_shell/shell.c ****  * @brief shell 清空命令行输入
 761:Dsp/letter_shell/shell.c ****  * 
 762:Dsp/letter_shell/shell.c ****  * @param shell shell对象
 763:Dsp/letter_shell/shell.c ****  */
 764:Dsp/letter_shell/shell.c **** void shellClearCommandLine(Shell *shell)
 765:Dsp/letter_shell/shell.c **** {
 766:Dsp/letter_shell/shell.c ****     for (short i = shell->parser.length - shell->parser.cursor; i > 0; i--)
 767:Dsp/letter_shell/shell.c ****     {
 768:Dsp/letter_shell/shell.c ****         shellWriteByte(shell, ' ');
 769:Dsp/letter_shell/shell.c ****     }
 770:Dsp/letter_shell/shell.c ****     shellDeleteCommandLine(shell, shell->parser.length);
 771:Dsp/letter_shell/shell.c **** }
 772:Dsp/letter_shell/shell.c **** 
 773:Dsp/letter_shell/shell.c **** 
 774:Dsp/letter_shell/shell.c **** /**
 775:Dsp/letter_shell/shell.c ****  * @brief shell插入一个字符到光标位置
 776:Dsp/letter_shell/shell.c ****  * 
 777:Dsp/letter_shell/shell.c ****  * @param shell shell对象
 778:Dsp/letter_shell/shell.c ****  * @param data 字符数据
 779:Dsp/letter_shell/shell.c ****  */
 780:Dsp/letter_shell/shell.c **** void shellInsertByte(Shell *shell, char data)
 781:Dsp/letter_shell/shell.c **** {
 782:Dsp/letter_shell/shell.c ****     /* 判断输入数据是否过长 */
ARM GAS  /var/folders/lx/hc4sn_b53233_zkc9xbbl97r0000gp/T//ccoa1yNG.s 			page 20


 783:Dsp/letter_shell/shell.c ****     if (shell->parser.length >= shell->parser.bufferSize - 1)
 784:Dsp/letter_shell/shell.c ****     {
 785:Dsp/letter_shell/shell.c ****         shellWriteString(shell, shellText[SHELL_TEXT_CMD_TOO_LONG]);
 786:Dsp/letter_shell/shell.c ****         shellWriteCommandLine(shell, 1);
 787:Dsp/letter_shell/shell.c ****         shellWriteString(shell, shell->parser.buffer);
 788:Dsp/letter_shell/shell.c ****         return;
 789:Dsp/letter_shell/shell.c ****     }
 790:Dsp/letter_shell/shell.c **** 
 791:Dsp/letter_shell/shell.c ****     /* 插入数据 */
 792:Dsp/letter_shell/shell.c ****     if (shell->parser.cursor == shell->parser.length)
 793:Dsp/letter_shell/shell.c ****     {
 794:Dsp/letter_shell/shell.c ****         shell->parser.buffer[shell->parser.length++] = data;
 795:Dsp/letter_shell/shell.c ****         shell->parser.buffer[shell->parser.length] = 0;
 796:Dsp/letter_shell/shell.c ****         shell->parser.cursor++;
 797:Dsp/letter_shell/shell.c ****         shellWriteByte(shell, data);
 798:Dsp/letter_shell/shell.c ****     }
 799:Dsp/letter_shell/shell.c ****     else if (shell->parser.cursor < shell->parser.length)
 800:Dsp/letter_shell/shell.c ****     {
 801:Dsp/letter_shell/shell.c ****         for (short i = shell->parser.length - shell->parser.cursor; i > 0; i--)
 802:Dsp/letter_shell/shell.c ****         {
 803:Dsp/letter_shell/shell.c ****             shell->parser.buffer[shell->parser.cursor + i] = 
 804:Dsp/letter_shell/shell.c ****                 shell->parser.buffer[shell->parser.cursor + i - 1];
 805:Dsp/letter_shell/shell.c ****         }
 806:Dsp/letter_shell/shell.c ****         shell->parser.buffer[shell->parser.cursor++] = data;
 807:Dsp/letter_shell/shell.c ****         shell->parser.buffer[++shell->parser.length] = 0;
 808:Dsp/letter_shell/shell.c ****         for (short i = shell->parser.cursor - 1; i < shell->parser.length; i++)
 809:Dsp/letter_shell/shell.c ****         {
 810:Dsp/letter_shell/shell.c ****             shellWriteByte(shell, shell->parser.buffer[i]);
 811:Dsp/letter_shell/shell.c ****         }
 812:Dsp/letter_shell/shell.c ****         for (short i = shell->parser.length - shell->parser.cursor; i > 0; i--)
 813:Dsp/letter_shell/shell.c ****         {
 814:Dsp/letter_shell/shell.c ****             shellWriteByte(shell, '\b');
 815:Dsp/letter_shell/shell.c ****         }
 816:Dsp/letter_shell/shell.c ****     }
 817:Dsp/letter_shell/shell.c **** }
 818:Dsp/letter_shell/shell.c **** 
 819:Dsp/letter_shell/shell.c **** 
 820:Dsp/letter_shell/shell.c **** /**
 821:Dsp/letter_shell/shell.c ****  * @brief shell 删除字节
 822:Dsp/letter_shell/shell.c ****  * 
 823:Dsp/letter_shell/shell.c ****  * @param shell shell对象
 824:Dsp/letter_shell/shell.c ****  * @param direction 删除方向 {@code 1}删除光标前字符 {@code -1}删除光标处字符
 825:Dsp/letter_shell/shell.c ****  */
 826:Dsp/letter_shell/shell.c **** void shellDeleteByte(Shell *shell, signed char direction)
 827:Dsp/letter_shell/shell.c **** {
 828:Dsp/letter_shell/shell.c ****     char offset = (direction == -1) ? 1 : 0;
 829:Dsp/letter_shell/shell.c **** 
 830:Dsp/letter_shell/shell.c ****     if ((shell->parser.cursor == 0 && direction == 1)
 831:Dsp/letter_shell/shell.c ****         || (shell->parser.cursor == shell->parser.length && direction == -1))
 832:Dsp/letter_shell/shell.c ****     {
 833:Dsp/letter_shell/shell.c ****         return;
 834:Dsp/letter_shell/shell.c ****     }
 835:Dsp/letter_shell/shell.c ****     if (shell->parser.cursor == shell->parser.length && direction == 1)
 836:Dsp/letter_shell/shell.c ****     {
 837:Dsp/letter_shell/shell.c ****         shell->parser.cursor--;
 838:Dsp/letter_shell/shell.c ****         shell->parser.length--;
 839:Dsp/letter_shell/shell.c ****         shell->parser.buffer[shell->parser.length] = 0;
ARM GAS  /var/folders/lx/hc4sn_b53233_zkc9xbbl97r0000gp/T//ccoa1yNG.s 			page 21


 840:Dsp/letter_shell/shell.c ****         shellDeleteCommandLine(shell, 1);
 841:Dsp/letter_shell/shell.c ****     }
 842:Dsp/letter_shell/shell.c ****     else
 843:Dsp/letter_shell/shell.c ****     {
 844:Dsp/letter_shell/shell.c ****         for (short i = offset; i < shell->parser.length - shell->parser.cursor; i++)
 845:Dsp/letter_shell/shell.c ****         {
 846:Dsp/letter_shell/shell.c ****             shell->parser.buffer[shell->parser.cursor + i - 1] = 
 847:Dsp/letter_shell/shell.c ****                 shell->parser.buffer[shell->parser.cursor + i];
 848:Dsp/letter_shell/shell.c ****         }
 849:Dsp/letter_shell/shell.c ****         shell->parser.length--;
 850:Dsp/letter_shell/shell.c ****         if (!offset)
 851:Dsp/letter_shell/shell.c ****         {
 852:Dsp/letter_shell/shell.c ****             shell->parser.cursor--;
 853:Dsp/letter_shell/shell.c ****             shellWriteByte(shell, '\b');
 854:Dsp/letter_shell/shell.c ****         }
 855:Dsp/letter_shell/shell.c ****         shell->parser.buffer[shell->parser.length] = 0;
 856:Dsp/letter_shell/shell.c ****         for (short i = shell->parser.cursor; i < shell->parser.length; i++)
 857:Dsp/letter_shell/shell.c ****         {
 858:Dsp/letter_shell/shell.c ****             shellWriteByte(shell, shell->parser.buffer[i]);
 859:Dsp/letter_shell/shell.c ****         }
 860:Dsp/letter_shell/shell.c ****         shellWriteByte(shell, ' ');
 861:Dsp/letter_shell/shell.c ****         for (short i = shell->parser.length - shell->parser.cursor + 1; i > 0; i--)
 862:Dsp/letter_shell/shell.c ****         {
 863:Dsp/letter_shell/shell.c ****             shellWriteByte(shell, '\b');
 864:Dsp/letter_shell/shell.c ****         }
 865:Dsp/letter_shell/shell.c ****     }
 866:Dsp/letter_shell/shell.c **** }
 867:Dsp/letter_shell/shell.c **** 
 868:Dsp/letter_shell/shell.c **** 
 869:Dsp/letter_shell/shell.c **** /**
 870:Dsp/letter_shell/shell.c ****  * @brief shell 解析参数
 871:Dsp/letter_shell/shell.c ****  * 
 872:Dsp/letter_shell/shell.c ****  * @param shell shell对象
 873:Dsp/letter_shell/shell.c ****  */
 874:Dsp/letter_shell/shell.c **** static void shellParserParam(Shell *shell)
 875:Dsp/letter_shell/shell.c **** {
 290              		.loc 1 875 1 is_stmt 1 view -0
 291              		.cfi_startproc
 292              		@ args = 0, pretend = 0, frame = 0
 293              		@ frame_needed = 0, uses_anonymous_args = 0
 294              		.loc 1 875 1 is_stmt 0 view .LVU85
 295 0000 30B5     		push	{r4, r5, lr}
 296              	.LCFI2:
 297              		.cfi_def_cfa_offset 12
 298              		.cfi_offset 4, -12
 299              		.cfi_offset 5, -8
 300              		.cfi_offset 14, -4
 876:Dsp/letter_shell/shell.c ****     unsigned char quotes = 0;
 301              		.loc 1 876 5 is_stmt 1 view .LVU86
 302              	.LVL30:
 877:Dsp/letter_shell/shell.c ****     unsigned char record = 1;
 303              		.loc 1 877 5 view .LVU87
 878:Dsp/letter_shell/shell.c **** 
 879:Dsp/letter_shell/shell.c ****     for (short i = 0; i < SHELL_PARAMETER_MAX_NUMBER; i++)
 304              		.loc 1 879 5 view .LVU88
 305              	.LBB3:
 306              		.loc 1 879 10 view .LVU89
ARM GAS  /var/folders/lx/hc4sn_b53233_zkc9xbbl97r0000gp/T//ccoa1yNG.s 			page 22


 307              		.loc 1 879 16 is_stmt 0 view .LVU90
 308 0002 0023     		movs	r3, #0
 309              		.loc 1 879 5 view .LVU91
 310 0004 06E0     		b	.L31
 311              	.LVL31:
 312              	.L32:
 880:Dsp/letter_shell/shell.c ****     {
 881:Dsp/letter_shell/shell.c ****         shell->parser.param[i] = NULL;
 313              		.loc 1 881 9 is_stmt 1 discriminator 3 view .LVU92
 314              		.loc 1 881 32 is_stmt 0 discriminator 3 view .LVU93
 315 0006 1A1D     		adds	r2, r3, #4
 316 0008 00EB8202 		add	r2, r0, r2, lsl #2
 317 000c 0021     		movs	r1, #0
 318 000e 5160     		str	r1, [r2, #4]
 879:Dsp/letter_shell/shell.c ****     {
 319              		.loc 1 879 55 is_stmt 1 discriminator 3 view .LVU94
 879:Dsp/letter_shell/shell.c ****     {
 320              		.loc 1 879 56 is_stmt 0 discriminator 3 view .LVU95
 321 0010 0133     		adds	r3, r3, #1
 322              	.LVL32:
 879:Dsp/letter_shell/shell.c ****     {
 323              		.loc 1 879 56 discriminator 3 view .LVU96
 324 0012 1BB2     		sxth	r3, r3
 325              	.LVL33:
 326              	.L31:
 879:Dsp/letter_shell/shell.c ****     {
 327              		.loc 1 879 23 is_stmt 1 discriminator 1 view .LVU97
 879:Dsp/letter_shell/shell.c ****     {
 328              		.loc 1 879 5 is_stmt 0 discriminator 1 view .LVU98
 329 0014 072B     		cmp	r3, #7
 330 0016 F6DD     		ble	.L32
 331              	.LBE3:
 882:Dsp/letter_shell/shell.c ****     }
 883:Dsp/letter_shell/shell.c **** 
 884:Dsp/letter_shell/shell.c ****     shell->parser.paramCount = 0;
 332              		.loc 1 884 5 is_stmt 1 view .LVU99
 333              		.loc 1 884 30 is_stmt 0 view .LVU100
 334 0018 0021     		movs	r1, #0
 335 001a C186     		strh	r1, [r0, #54]	@ movhi
 885:Dsp/letter_shell/shell.c ****     for (unsigned short i = 0; i < shell->parser.length; i++)
 336              		.loc 1 885 5 is_stmt 1 view .LVU101
 337              	.LBB4:
 338              		.loc 1 885 10 view .LVU102
 339              	.LVL34:
 340              		.loc 1 885 25 is_stmt 0 view .LVU103
 341 001c 0B46     		mov	r3, r1
 342              	.LVL35:
 343              		.loc 1 885 25 view .LVU104
 344              	.LBE4:
 877:Dsp/letter_shell/shell.c **** 
 345              		.loc 1 877 19 view .LVU105
 346 001e 0125     		movs	r5, #1
 347              	.LBB5:
 348              		.loc 1 885 5 view .LVU106
 349 0020 0DE0     		b	.L33
 350              	.LVL36:
 351              	.L34:
ARM GAS  /var/folders/lx/hc4sn_b53233_zkc9xbbl97r0000gp/T//ccoa1yNG.s 			page 23


 886:Dsp/letter_shell/shell.c ****     {
 887:Dsp/letter_shell/shell.c ****         if (quotes != 0
 888:Dsp/letter_shell/shell.c ****             || (shell->parser.buffer[i] != ' '
 889:Dsp/letter_shell/shell.c ****                 && shell->parser.buffer[i] != 0))
 890:Dsp/letter_shell/shell.c ****         {
 891:Dsp/letter_shell/shell.c ****             if (shell->parser.buffer[i] == '\"')
 352              		.loc 1 891 13 is_stmt 1 view .LVU107
 353              		.loc 1 891 30 is_stmt 0 view .LVU108
 354 0022 0269     		ldr	r2, [r0, #16]
 355              		.loc 1 891 37 view .LVU109
 356 0024 9E46     		mov	lr, r3
 357 0026 D418     		adds	r4, r2, r3
 358 0028 12F803C0 		ldrb	ip, [r2, r3]	@ zero_extendqisi2
 359              		.loc 1 891 16 view .LVU110
 360 002c BCF1220F 		cmp	ip, #34
 361 0030 15D0     		beq	.L42
 362              	.L36:
 892:Dsp/letter_shell/shell.c ****             {
 893:Dsp/letter_shell/shell.c ****                 quotes = quotes ? 0 : 1;
 894:Dsp/letter_shell/shell.c ****             }
 895:Dsp/letter_shell/shell.c ****             if (record == 1)
 363              		.loc 1 895 13 is_stmt 1 view .LVU111
 364              		.loc 1 895 16 is_stmt 0 view .LVU112
 365 0032 BDB9     		cbnz	r5, .L43
 366              	.LVL37:
 367              	.L37:
 896:Dsp/letter_shell/shell.c ****             {
 897:Dsp/letter_shell/shell.c ****                 if (shell->parser.paramCount < SHELL_PARAMETER_MAX_NUMBER)
 898:Dsp/letter_shell/shell.c ****                 {
 899:Dsp/letter_shell/shell.c ****                     shell->parser.param[shell->parser.paramCount++] =
 900:Dsp/letter_shell/shell.c ****                         &(shell->parser.buffer[i]);
 901:Dsp/letter_shell/shell.c ****                 }
 902:Dsp/letter_shell/shell.c ****                 record = 0;
 903:Dsp/letter_shell/shell.c ****             }
 904:Dsp/letter_shell/shell.c ****             if (shell->parser.buffer[i] == '\\'
 368              		.loc 1 904 13 is_stmt 1 view .LVU113
 369              		.loc 1 904 37 is_stmt 0 view .LVU114
 370 0034 2478     		ldrb	r4, [r4]	@ zero_extendqisi2
 371              		.loc 1 904 16 view .LVU115
 372 0036 5C2C     		cmp	r4, #92
 373 0038 23D0     		beq	.L44
 374              	.LVL38:
 375              	.L38:
 885:Dsp/letter_shell/shell.c ****     {
 376              		.loc 1 885 58 is_stmt 1 discriminator 2 view .LVU116
 885:Dsp/letter_shell/shell.c ****     {
 377              		.loc 1 885 59 is_stmt 0 discriminator 2 view .LVU117
 378 003a 0133     		adds	r3, r3, #1
 379              	.LVL39:
 885:Dsp/letter_shell/shell.c ****     {
 380              		.loc 1 885 59 discriminator 2 view .LVU118
 381 003c 9BB2     		uxth	r3, r3
 382              	.LVL40:
 383              	.L33:
 885:Dsp/letter_shell/shell.c ****     {
 384              		.loc 1 885 32 is_stmt 1 discriminator 1 view .LVU119
 885:Dsp/letter_shell/shell.c ****     {
ARM GAS  /var/folders/lx/hc4sn_b53233_zkc9xbbl97r0000gp/T//ccoa1yNG.s 			page 24


 385              		.loc 1 885 49 is_stmt 0 discriminator 1 view .LVU120
 386 003e 8289     		ldrh	r2, [r0, #12]
 885:Dsp/letter_shell/shell.c ****     {
 387              		.loc 1 885 5 discriminator 1 view .LVU121
 388 0040 9A42     		cmp	r2, r3
 389 0042 25D9     		bls	.L45
 887:Dsp/letter_shell/shell.c ****             || (shell->parser.buffer[i] != ' '
 390              		.loc 1 887 9 is_stmt 1 view .LVU122
 887:Dsp/letter_shell/shell.c ****             || (shell->parser.buffer[i] != ' '
 391              		.loc 1 887 12 is_stmt 0 view .LVU123
 392 0044 0029     		cmp	r1, #0
 393 0046 ECD1     		bne	.L34
 888:Dsp/letter_shell/shell.c ****                 && shell->parser.buffer[i] != 0))
 394              		.loc 1 888 30 view .LVU124
 395 0048 0269     		ldr	r2, [r0, #16]
 888:Dsp/letter_shell/shell.c ****                 && shell->parser.buffer[i] != 0))
 396              		.loc 1 888 37 view .LVU125
 397 004a D418     		adds	r4, r2, r3
 398 004c D25C     		ldrb	r2, [r2, r3]	@ zero_extendqisi2
 888:Dsp/letter_shell/shell.c ****                 && shell->parser.buffer[i] != 0))
 399              		.loc 1 888 13 view .LVU126
 400 004e 202A     		cmp	r2, #32
 401 0050 01D0     		beq	.L35
 889:Dsp/letter_shell/shell.c ****         {
 402              		.loc 1 889 17 view .LVU127
 403 0052 002A     		cmp	r2, #0
 404 0054 E5D1     		bne	.L34
 405              	.L35:
 905:Dsp/letter_shell/shell.c ****                 && shell->parser.buffer[i + 1] != 0)
 906:Dsp/letter_shell/shell.c ****             {
 907:Dsp/letter_shell/shell.c ****                 i++;
 908:Dsp/letter_shell/shell.c ****             }
 909:Dsp/letter_shell/shell.c ****         }
 910:Dsp/letter_shell/shell.c ****         else
 911:Dsp/letter_shell/shell.c ****         {
 912:Dsp/letter_shell/shell.c ****             shell->parser.buffer[i] = 0;
 406              		.loc 1 912 13 is_stmt 1 view .LVU128
 407              		.loc 1 912 37 is_stmt 0 view .LVU129
 408 0056 0022     		movs	r2, #0
 409 0058 2270     		strb	r2, [r4]
 913:Dsp/letter_shell/shell.c ****             record = 1;
 410              		.loc 1 913 13 is_stmt 1 view .LVU130
 411              	.LVL41:
 412              		.loc 1 913 20 is_stmt 0 view .LVU131
 413 005a 0125     		movs	r5, #1
 414 005c EDE7     		b	.L38
 415              	.LVL42:
 416              	.L42:
 893:Dsp/letter_shell/shell.c ****             }
 417              		.loc 1 893 17 is_stmt 1 view .LVU132
 893:Dsp/letter_shell/shell.c ****             }
 418              		.loc 1 893 37 is_stmt 0 view .LVU133
 419 005e 81F00101 		eor	r1, r1, #1
 420              	.LVL43:
 893:Dsp/letter_shell/shell.c ****             }
 421              		.loc 1 893 37 view .LVU134
 422 0062 E6E7     		b	.L36
ARM GAS  /var/folders/lx/hc4sn_b53233_zkc9xbbl97r0000gp/T//ccoa1yNG.s 			page 25


 423              	.L43:
 897:Dsp/letter_shell/shell.c ****                 {
 424              		.loc 1 897 17 is_stmt 1 view .LVU135
 897:Dsp/letter_shell/shell.c ****                 {
 425              		.loc 1 897 34 is_stmt 0 view .LVU136
 426 0064 C58E     		ldrh	r5, [r0, #54]
 427              	.LVL44:
 897:Dsp/letter_shell/shell.c ****                 {
 428              		.loc 1 897 20 view .LVU137
 429 0066 072D     		cmp	r5, #7
 430 0068 09D8     		bhi	.L40
 899:Dsp/letter_shell/shell.c ****                         &(shell->parser.buffer[i]);
 431              		.loc 1 899 21 is_stmt 1 view .LVU138
 899:Dsp/letter_shell/shell.c ****                         &(shell->parser.buffer[i]);
 432              		.loc 1 899 65 is_stmt 0 view .LVU139
 433 006a 05F1010C 		add	ip, r5, #1
 434 006e A0F836C0 		strh	ip, [r0, #54]	@ movhi
 899:Dsp/letter_shell/shell.c ****                         &(shell->parser.buffer[i]);
 435              		.loc 1 899 69 view .LVU140
 436 0072 0435     		adds	r5, r5, #4
 437 0074 00EB8505 		add	r5, r0, r5, lsl #2
 438 0078 6C60     		str	r4, [r5, #4]
 902:Dsp/letter_shell/shell.c ****             }
 439              		.loc 1 902 24 view .LVU141
 440 007a 0025     		movs	r5, #0
 441 007c DAE7     		b	.L37
 442              	.L40:
 443 007e 0025     		movs	r5, #0
 444 0080 D8E7     		b	.L37
 445              	.LVL45:
 446              	.L44:
 905:Dsp/letter_shell/shell.c ****             {
 447              		.loc 1 905 40 view .LVU142
 448 0082 7244     		add	r2, r2, lr
 449 0084 5278     		ldrb	r2, [r2, #1]	@ zero_extendqisi2
 905:Dsp/letter_shell/shell.c ****             {
 450              		.loc 1 905 17 view .LVU143
 451 0086 002A     		cmp	r2, #0
 452 0088 D7D0     		beq	.L38
 907:Dsp/letter_shell/shell.c ****             }
 453              		.loc 1 907 17 is_stmt 1 view .LVU144
 907:Dsp/letter_shell/shell.c ****             }
 454              		.loc 1 907 18 is_stmt 0 view .LVU145
 455 008a 0133     		adds	r3, r3, #1
 456              	.LVL46:
 907:Dsp/letter_shell/shell.c ****             }
 457              		.loc 1 907 18 view .LVU146
 458 008c 9BB2     		uxth	r3, r3
 459              	.LVL47:
 907:Dsp/letter_shell/shell.c ****             }
 460              		.loc 1 907 18 view .LVU147
 461 008e D4E7     		b	.L38
 462              	.L45:
 907:Dsp/letter_shell/shell.c ****             }
 463              		.loc 1 907 18 view .LVU148
 464              	.LBE5:
 914:Dsp/letter_shell/shell.c ****         }
ARM GAS  /var/folders/lx/hc4sn_b53233_zkc9xbbl97r0000gp/T//ccoa1yNG.s 			page 26


 915:Dsp/letter_shell/shell.c ****     }
 916:Dsp/letter_shell/shell.c **** }
 465              		.loc 1 916 1 view .LVU149
 466 0090 30BD     		pop	{r4, r5, pc}
 467              		.loc 1 916 1 view .LVU150
 468              		.cfi_endproc
 469              	.LFE152:
 471              		.section	.text.shellHistoryAdd,"ax",%progbits
 472              		.align	1
 473              		.syntax unified
 474              		.thumb
 475              		.thumb_func
 476              		.fpu fpv4-sp-d16
 478              	shellHistoryAdd:
 479              	.LVL48:
 480              	.LFB163:
 917:Dsp/letter_shell/shell.c **** 
 918:Dsp/letter_shell/shell.c **** 
 919:Dsp/letter_shell/shell.c **** /**
 920:Dsp/letter_shell/shell.c ****  * @brief shell去除字符串参数头尾的双引号
 921:Dsp/letter_shell/shell.c ****  * 
 922:Dsp/letter_shell/shell.c ****  * @param shell shell对象
 923:Dsp/letter_shell/shell.c ****  */
 924:Dsp/letter_shell/shell.c **** static void shellRemoveParamQuotes(Shell *shell)
 925:Dsp/letter_shell/shell.c **** {
 926:Dsp/letter_shell/shell.c ****     unsigned short paramLength;
 927:Dsp/letter_shell/shell.c ****     for (unsigned short i = 0; i < shell->parser.paramCount; i++)
 928:Dsp/letter_shell/shell.c ****     {
 929:Dsp/letter_shell/shell.c ****         if (shell->parser.param[i][0] == '\"')
 930:Dsp/letter_shell/shell.c ****         {
 931:Dsp/letter_shell/shell.c ****             shell->parser.param[i][0] = 0;
 932:Dsp/letter_shell/shell.c ****             shell->parser.param[i] = &shell->parser.param[i][1];
 933:Dsp/letter_shell/shell.c ****         }
 934:Dsp/letter_shell/shell.c ****         paramLength = strlen(shell->parser.param[i]);
 935:Dsp/letter_shell/shell.c ****         if (shell->parser.param[i][paramLength - 1] == '\"')
 936:Dsp/letter_shell/shell.c ****         {
 937:Dsp/letter_shell/shell.c ****             shell->parser.param[i][paramLength - 1] = 0;
 938:Dsp/letter_shell/shell.c ****         }
 939:Dsp/letter_shell/shell.c ****     }
 940:Dsp/letter_shell/shell.c **** }
 941:Dsp/letter_shell/shell.c **** 
 942:Dsp/letter_shell/shell.c **** 
 943:Dsp/letter_shell/shell.c **** /**
 944:Dsp/letter_shell/shell.c ****  * @brief shell匹配命令
 945:Dsp/letter_shell/shell.c ****  * 
 946:Dsp/letter_shell/shell.c ****  * @param shell shell对象
 947:Dsp/letter_shell/shell.c ****  * @param cmd 命令
 948:Dsp/letter_shell/shell.c ****  * @param base 匹配命令表基址
 949:Dsp/letter_shell/shell.c ****  * @param compareLength 匹配字符串长度
 950:Dsp/letter_shell/shell.c ****  * @return ShellCommand* 匹配到的命令
 951:Dsp/letter_shell/shell.c ****  */
 952:Dsp/letter_shell/shell.c **** ShellCommand* shellSeekCommand(Shell *shell,
 953:Dsp/letter_shell/shell.c ****                                const char *cmd,
 954:Dsp/letter_shell/shell.c ****                                ShellCommand *base,
 955:Dsp/letter_shell/shell.c ****                                unsigned short compareLength)
 956:Dsp/letter_shell/shell.c **** {
 957:Dsp/letter_shell/shell.c ****     const char *name;
ARM GAS  /var/folders/lx/hc4sn_b53233_zkc9xbbl97r0000gp/T//ccoa1yNG.s 			page 27


 958:Dsp/letter_shell/shell.c ****     int ret;
 959:Dsp/letter_shell/shell.c ****     unsigned short count = shell->commandList.count -
 960:Dsp/letter_shell/shell.c ****         ((int)base - (int)shell->commandList.base) / sizeof(ShellCommand);
 961:Dsp/letter_shell/shell.c ****     for (unsigned short i = 0; i < count; i++)
 962:Dsp/letter_shell/shell.c ****     {
 963:Dsp/letter_shell/shell.c ****         if (base[i].attr.attrs.type == SHELL_TYPE_KEY
 964:Dsp/letter_shell/shell.c ****             || shellCheckPermission(shell, &base[i]) != 0)
 965:Dsp/letter_shell/shell.c ****         {
 966:Dsp/letter_shell/shell.c ****             continue;
 967:Dsp/letter_shell/shell.c ****         }
 968:Dsp/letter_shell/shell.c ****         name = shellGetCommandName(&base[i]);
 969:Dsp/letter_shell/shell.c ****         if (!compareLength)
 970:Dsp/letter_shell/shell.c ****         {
 971:Dsp/letter_shell/shell.c ****             ret = strcmp(cmd, name);
 972:Dsp/letter_shell/shell.c ****             if (strcmp(cmd, name) == 0)
 973:Dsp/letter_shell/shell.c ****             {
 974:Dsp/letter_shell/shell.c ****                 return &base[i];
 975:Dsp/letter_shell/shell.c ****             }
 976:Dsp/letter_shell/shell.c ****         }
 977:Dsp/letter_shell/shell.c ****         else
 978:Dsp/letter_shell/shell.c ****         {
 979:Dsp/letter_shell/shell.c ****             if (strncmp(cmd, name, compareLength) == 0)
 980:Dsp/letter_shell/shell.c ****             {
 981:Dsp/letter_shell/shell.c ****                 return &base[i];
 982:Dsp/letter_shell/shell.c ****             }
 983:Dsp/letter_shell/shell.c ****         }
 984:Dsp/letter_shell/shell.c ****     }
 985:Dsp/letter_shell/shell.c ****     return NULL;
 986:Dsp/letter_shell/shell.c **** }
 987:Dsp/letter_shell/shell.c **** 
 988:Dsp/letter_shell/shell.c **** 
 989:Dsp/letter_shell/shell.c **** /**
 990:Dsp/letter_shell/shell.c ****  * @brief shell 获取变量值
 991:Dsp/letter_shell/shell.c ****  * 
 992:Dsp/letter_shell/shell.c ****  * @param shell shell对象
 993:Dsp/letter_shell/shell.c ****  * @param command 命令
 994:Dsp/letter_shell/shell.c ****  * @return int 变量值
 995:Dsp/letter_shell/shell.c ****  */
 996:Dsp/letter_shell/shell.c **** int shellGetVarValue(Shell *shell, ShellCommand *command)
 997:Dsp/letter_shell/shell.c **** {
 998:Dsp/letter_shell/shell.c ****     int value = 0;
 999:Dsp/letter_shell/shell.c ****     switch (command->attr.attrs.type)
1000:Dsp/letter_shell/shell.c ****     {
1001:Dsp/letter_shell/shell.c ****     case SHELL_TYPE_VAR_INT:
1002:Dsp/letter_shell/shell.c ****         value = *((int *)(command->data.var.value));
1003:Dsp/letter_shell/shell.c ****         break;
1004:Dsp/letter_shell/shell.c ****     case SHELL_TYPE_VAR_SHORT:
1005:Dsp/letter_shell/shell.c ****         value = *((short *)(command->data.var.value));
1006:Dsp/letter_shell/shell.c ****         break;
1007:Dsp/letter_shell/shell.c ****     case SHELL_TYPE_VAR_CHAR:
1008:Dsp/letter_shell/shell.c ****         value = *((char *)(command->data.var.value));
1009:Dsp/letter_shell/shell.c ****         break;
1010:Dsp/letter_shell/shell.c ****     case SHELL_TYPE_VAR_STRING:
1011:Dsp/letter_shell/shell.c ****     case SHELL_TYPE_VAR_POINT:
1012:Dsp/letter_shell/shell.c ****         value = (int)(command->data.var.value);
1013:Dsp/letter_shell/shell.c ****         break;
1014:Dsp/letter_shell/shell.c ****     case SHELL_TYPE_VAR_NODE:
ARM GAS  /var/folders/lx/hc4sn_b53233_zkc9xbbl97r0000gp/T//ccoa1yNG.s 			page 28


1015:Dsp/letter_shell/shell.c ****         value = ((ShellNodeVarAttr *)command->data.var.value)->get ?
1016:Dsp/letter_shell/shell.c ****                     ((ShellNodeVarAttr *)command->data.var.value)
1017:Dsp/letter_shell/shell.c ****                         ->get(((ShellNodeVarAttr *)command->data.var.value)->var) : 0;
1018:Dsp/letter_shell/shell.c ****         break;
1019:Dsp/letter_shell/shell.c ****     default:
1020:Dsp/letter_shell/shell.c ****         break;
1021:Dsp/letter_shell/shell.c ****     }
1022:Dsp/letter_shell/shell.c ****     return value;
1023:Dsp/letter_shell/shell.c **** }
1024:Dsp/letter_shell/shell.c **** 
1025:Dsp/letter_shell/shell.c **** 
1026:Dsp/letter_shell/shell.c **** /**
1027:Dsp/letter_shell/shell.c ****  * @brief shell设置变量值
1028:Dsp/letter_shell/shell.c ****  * 
1029:Dsp/letter_shell/shell.c ****  * @param shell shell对象
1030:Dsp/letter_shell/shell.c ****  * @param command 命令
1031:Dsp/letter_shell/shell.c ****  * @param value 值
1032:Dsp/letter_shell/shell.c ****  * @return int 返回变量值
1033:Dsp/letter_shell/shell.c ****  */
1034:Dsp/letter_shell/shell.c **** int shellSetVarValue(Shell *shell, ShellCommand *command, int value)
1035:Dsp/letter_shell/shell.c **** {
1036:Dsp/letter_shell/shell.c ****     if (command->attr.attrs.readOnly)
1037:Dsp/letter_shell/shell.c ****     {
1038:Dsp/letter_shell/shell.c ****         shellWriteString(shell, shellText[SHELL_TEXT_VAR_READ_ONLY_CANNOT_MODIFY]);
1039:Dsp/letter_shell/shell.c ****     }
1040:Dsp/letter_shell/shell.c ****     else
1041:Dsp/letter_shell/shell.c ****     {
1042:Dsp/letter_shell/shell.c ****         switch (command->attr.attrs.type)
1043:Dsp/letter_shell/shell.c ****         {
1044:Dsp/letter_shell/shell.c ****         case SHELL_TYPE_VAR_INT:
1045:Dsp/letter_shell/shell.c ****             *((int *)(command->data.var.value)) = value;
1046:Dsp/letter_shell/shell.c ****             break;
1047:Dsp/letter_shell/shell.c ****         case SHELL_TYPE_VAR_SHORT:
1048:Dsp/letter_shell/shell.c ****             *((short *)(command->data.var.value)) = value;
1049:Dsp/letter_shell/shell.c ****             break;
1050:Dsp/letter_shell/shell.c ****         case SHELL_TYPE_VAR_CHAR:
1051:Dsp/letter_shell/shell.c ****             *((char *)(command->data.var.value)) = value;
1052:Dsp/letter_shell/shell.c ****             break;
1053:Dsp/letter_shell/shell.c ****         case SHELL_TYPE_VAR_STRING:
1054:Dsp/letter_shell/shell.c ****             shellStringCopy(((char *)(command->data.var.value)), (char *)value);
1055:Dsp/letter_shell/shell.c ****             break;
1056:Dsp/letter_shell/shell.c ****         case SHELL_TYPE_VAR_POINT:
1057:Dsp/letter_shell/shell.c ****             shellWriteString(shell, shellText[SHELL_TEXT_POINT_CANNOT_MODIFY]);
1058:Dsp/letter_shell/shell.c ****             break;
1059:Dsp/letter_shell/shell.c ****         case SHELL_TYPE_VAR_NODE:
1060:Dsp/letter_shell/shell.c ****             if (((ShellNodeVarAttr *)command->data.var.value)->set)
1061:Dsp/letter_shell/shell.c ****             {
1062:Dsp/letter_shell/shell.c ****                 if (((ShellNodeVarAttr *)command->data.var.value)->var)
1063:Dsp/letter_shell/shell.c ****                 {
1064:Dsp/letter_shell/shell.c ****                     ((ShellNodeVarAttr *)command->data.var.value)
1065:Dsp/letter_shell/shell.c ****                         ->set(((ShellNodeVarAttr *)command->data.var.value)->var, value);
1066:Dsp/letter_shell/shell.c ****                 }
1067:Dsp/letter_shell/shell.c ****                 else
1068:Dsp/letter_shell/shell.c ****                 {
1069:Dsp/letter_shell/shell.c ****                     ((ShellNodeVarAttr *)command->data.var.value)->set(value);
1070:Dsp/letter_shell/shell.c ****                 }
1071:Dsp/letter_shell/shell.c ****             }
ARM GAS  /var/folders/lx/hc4sn_b53233_zkc9xbbl97r0000gp/T//ccoa1yNG.s 			page 29


1072:Dsp/letter_shell/shell.c ****             break;
1073:Dsp/letter_shell/shell.c ****         default:
1074:Dsp/letter_shell/shell.c ****             break;
1075:Dsp/letter_shell/shell.c ****         }
1076:Dsp/letter_shell/shell.c ****     }
1077:Dsp/letter_shell/shell.c ****     return shellShowVar(shell, command);
1078:Dsp/letter_shell/shell.c **** }
1079:Dsp/letter_shell/shell.c **** 
1080:Dsp/letter_shell/shell.c **** 
1081:Dsp/letter_shell/shell.c **** /**
1082:Dsp/letter_shell/shell.c ****  * @brief shell变量输出
1083:Dsp/letter_shell/shell.c ****  * 
1084:Dsp/letter_shell/shell.c ****  * @param shell shell对象
1085:Dsp/letter_shell/shell.c ****  * @param command 命令
1086:Dsp/letter_shell/shell.c ****  * @return int 返回变量值
1087:Dsp/letter_shell/shell.c ****  */
1088:Dsp/letter_shell/shell.c **** static int shellShowVar(Shell *shell, ShellCommand *command)
1089:Dsp/letter_shell/shell.c **** {
1090:Dsp/letter_shell/shell.c ****     char buffer[12] = "00000000000";
1091:Dsp/letter_shell/shell.c ****     int value = shellGetVarValue(shell, command);
1092:Dsp/letter_shell/shell.c ****     
1093:Dsp/letter_shell/shell.c ****     shellWriteString(shell, command->data.var.name);
1094:Dsp/letter_shell/shell.c ****     shellWriteString(shell, " = ");
1095:Dsp/letter_shell/shell.c **** 
1096:Dsp/letter_shell/shell.c ****     switch (command->attr.attrs.type)
1097:Dsp/letter_shell/shell.c ****     {
1098:Dsp/letter_shell/shell.c ****     case SHELL_TYPE_VAR_STRING:
1099:Dsp/letter_shell/shell.c ****         shellWriteString(shell, "\"");
1100:Dsp/letter_shell/shell.c ****         shellWriteString(shell, (char *)value);
1101:Dsp/letter_shell/shell.c ****         shellWriteString(shell, "\"");
1102:Dsp/letter_shell/shell.c ****         break;
1103:Dsp/letter_shell/shell.c ****     // case SHELL_TYPE_VAR_INT:
1104:Dsp/letter_shell/shell.c ****     // case SHELL_TYPE_VAR_SHORT:
1105:Dsp/letter_shell/shell.c ****     // case SHELL_TYPE_VAR_CHAR:
1106:Dsp/letter_shell/shell.c ****     // case SHELL_TYPE_VAR_POINT:
1107:Dsp/letter_shell/shell.c ****     default:
1108:Dsp/letter_shell/shell.c ****         shellWriteString(shell, &buffer[11 - shellToDec(value, buffer)]);
1109:Dsp/letter_shell/shell.c ****         shellWriteString(shell, ", 0x");
1110:Dsp/letter_shell/shell.c ****         for (short i = 0; i < 11; i++)
1111:Dsp/letter_shell/shell.c ****         {
1112:Dsp/letter_shell/shell.c ****             buffer[i] = '0';
1113:Dsp/letter_shell/shell.c ****         }
1114:Dsp/letter_shell/shell.c ****         shellToHex(value, buffer);
1115:Dsp/letter_shell/shell.c ****         shellWriteString(shell, buffer);
1116:Dsp/letter_shell/shell.c ****         break;
1117:Dsp/letter_shell/shell.c ****     }
1118:Dsp/letter_shell/shell.c **** 
1119:Dsp/letter_shell/shell.c ****     shellWriteString(shell, "\r\n");
1120:Dsp/letter_shell/shell.c ****     return value;
1121:Dsp/letter_shell/shell.c **** }
1122:Dsp/letter_shell/shell.c **** 
1123:Dsp/letter_shell/shell.c **** 
1124:Dsp/letter_shell/shell.c **** /**
1125:Dsp/letter_shell/shell.c ****  * @brief shell设置变量
1126:Dsp/letter_shell/shell.c ****  * 
1127:Dsp/letter_shell/shell.c ****  * @param name 变量名
1128:Dsp/letter_shell/shell.c ****  * @param value 变量值
ARM GAS  /var/folders/lx/hc4sn_b53233_zkc9xbbl97r0000gp/T//ccoa1yNG.s 			page 30


1129:Dsp/letter_shell/shell.c ****  * @return int 返回变量值
1130:Dsp/letter_shell/shell.c ****  */
1131:Dsp/letter_shell/shell.c **** int shellSetVar(char *name, int value)
1132:Dsp/letter_shell/shell.c **** {
1133:Dsp/letter_shell/shell.c ****     Shell *shell = shellGetCurrent();
1134:Dsp/letter_shell/shell.c ****     if (shell == NULL)
1135:Dsp/letter_shell/shell.c ****     {
1136:Dsp/letter_shell/shell.c ****         return 0;
1137:Dsp/letter_shell/shell.c ****     }
1138:Dsp/letter_shell/shell.c ****     ShellCommand *command = shellSeekCommand(shell,
1139:Dsp/letter_shell/shell.c ****                                              name,
1140:Dsp/letter_shell/shell.c ****                                              shell->commandList.base,
1141:Dsp/letter_shell/shell.c ****                                              0);
1142:Dsp/letter_shell/shell.c ****     if (!command)
1143:Dsp/letter_shell/shell.c ****     {
1144:Dsp/letter_shell/shell.c ****         shellWriteString(shell, shellText[SHELL_TEXT_VAR_NOT_FOUND]);
1145:Dsp/letter_shell/shell.c ****         return 0;
1146:Dsp/letter_shell/shell.c ****     }
1147:Dsp/letter_shell/shell.c ****     if (command->attr.attrs.type < SHELL_TYPE_VAR_INT
1148:Dsp/letter_shell/shell.c ****         || command->attr.attrs.type > SHELL_TYPE_VAR_NODE)
1149:Dsp/letter_shell/shell.c ****     {
1150:Dsp/letter_shell/shell.c ****         shellWriteString(shell, name);
1151:Dsp/letter_shell/shell.c ****         shellWriteString(shell, shellText[SHELL_TEXT_NOT_VAR]);
1152:Dsp/letter_shell/shell.c ****         return 0;
1153:Dsp/letter_shell/shell.c ****     }
1154:Dsp/letter_shell/shell.c ****     return shellSetVarValue(shell, command, value);
1155:Dsp/letter_shell/shell.c **** }
1156:Dsp/letter_shell/shell.c **** SHELL_EXPORT_CMD(
1157:Dsp/letter_shell/shell.c **** SHELL_CMD_PERMISSION(0)|SHELL_CMD_TYPE(SHELL_TYPE_CMD_FUNC)|SHELL_CMD_DISABLE_RETURN,
1158:Dsp/letter_shell/shell.c **** setVar, shellSetVar, set var);
1159:Dsp/letter_shell/shell.c **** 
1160:Dsp/letter_shell/shell.c **** 
1161:Dsp/letter_shell/shell.c **** /**
1162:Dsp/letter_shell/shell.c ****  * @brief shell运行命令
1163:Dsp/letter_shell/shell.c ****  * 
1164:Dsp/letter_shell/shell.c ****  * @param shell shell对象
1165:Dsp/letter_shell/shell.c ****  * @param command 命令
1166:Dsp/letter_shell/shell.c ****  * 
1167:Dsp/letter_shell/shell.c ****  * @return unsigned int 命令返回值
1168:Dsp/letter_shell/shell.c ****  */
1169:Dsp/letter_shell/shell.c **** unsigned int shellRunCommand(Shell *shell, ShellCommand *command)
1170:Dsp/letter_shell/shell.c **** {
1171:Dsp/letter_shell/shell.c ****     int returnValue = 0;
1172:Dsp/letter_shell/shell.c ****     shell->status.isActive = 1;
1173:Dsp/letter_shell/shell.c ****     if (command->attr.attrs.type == SHELL_TYPE_CMD_MAIN)
1174:Dsp/letter_shell/shell.c ****     {
1175:Dsp/letter_shell/shell.c ****         shellRemoveParamQuotes(shell);
1176:Dsp/letter_shell/shell.c ****         returnValue = command->data.cmd.function(shell->parser.paramCount,
1177:Dsp/letter_shell/shell.c ****                                                  shell->parser.param);
1178:Dsp/letter_shell/shell.c ****         if (!command->attr.attrs.disableReturn)
1179:Dsp/letter_shell/shell.c ****         {
1180:Dsp/letter_shell/shell.c ****             shellWriteReturnValue(shell, returnValue);
1181:Dsp/letter_shell/shell.c ****         }
1182:Dsp/letter_shell/shell.c ****     }
1183:Dsp/letter_shell/shell.c ****     else if (command->attr.attrs.type == SHELL_TYPE_CMD_FUNC)
1184:Dsp/letter_shell/shell.c ****     {
1185:Dsp/letter_shell/shell.c ****         returnValue = shellExtRun(shell,
ARM GAS  /var/folders/lx/hc4sn_b53233_zkc9xbbl97r0000gp/T//ccoa1yNG.s 			page 31


1186:Dsp/letter_shell/shell.c ****                                   command,
1187:Dsp/letter_shell/shell.c ****                                   shell->parser.paramCount,
1188:Dsp/letter_shell/shell.c ****                                   shell->parser.param);
1189:Dsp/letter_shell/shell.c ****         if (!command->attr.attrs.disableReturn)
1190:Dsp/letter_shell/shell.c ****         {
1191:Dsp/letter_shell/shell.c ****             shellWriteReturnValue(shell, returnValue);
1192:Dsp/letter_shell/shell.c ****         }
1193:Dsp/letter_shell/shell.c ****     }
1194:Dsp/letter_shell/shell.c ****     else if (command->attr.attrs.type >= SHELL_TYPE_VAR_INT
1195:Dsp/letter_shell/shell.c ****         && command->attr.attrs.type <= SHELL_TYPE_VAR_NODE)
1196:Dsp/letter_shell/shell.c ****     {
1197:Dsp/letter_shell/shell.c ****         shellShowVar(shell, command);
1198:Dsp/letter_shell/shell.c ****     }
1199:Dsp/letter_shell/shell.c ****     else if (command->attr.attrs.type == SHELL_TYPE_USER)
1200:Dsp/letter_shell/shell.c ****     {
1201:Dsp/letter_shell/shell.c ****         shellSetUser(shell, command);
1202:Dsp/letter_shell/shell.c ****     }
1203:Dsp/letter_shell/shell.c ****     shell->status.isActive = 0;
1204:Dsp/letter_shell/shell.c **** 
1205:Dsp/letter_shell/shell.c ****     return returnValue;
1206:Dsp/letter_shell/shell.c **** }
1207:Dsp/letter_shell/shell.c **** 
1208:Dsp/letter_shell/shell.c **** 
1209:Dsp/letter_shell/shell.c **** /**
1210:Dsp/letter_shell/shell.c ****  * @brief shell校验密码
1211:Dsp/letter_shell/shell.c ****  * 
1212:Dsp/letter_shell/shell.c ****  * @param shell shell对象
1213:Dsp/letter_shell/shell.c ****  */
1214:Dsp/letter_shell/shell.c **** static void shellCheckPassword(Shell *shell)
1215:Dsp/letter_shell/shell.c **** {
1216:Dsp/letter_shell/shell.c ****     if (strcmp(shell->parser.buffer, shell->info.user->data.user.password) == 0)
1217:Dsp/letter_shell/shell.c ****     {
1218:Dsp/letter_shell/shell.c ****         shell->status.isChecked = 1;
1219:Dsp/letter_shell/shell.c ****     #if SHELL_SHOW_INFO == 1
1220:Dsp/letter_shell/shell.c ****         shellWriteString(shell, shellText[SHELL_TEXT_INFO]);
1221:Dsp/letter_shell/shell.c ****     #endif
1222:Dsp/letter_shell/shell.c ****     }
1223:Dsp/letter_shell/shell.c ****     else
1224:Dsp/letter_shell/shell.c ****     {
1225:Dsp/letter_shell/shell.c ****         shellWriteString(shell, shellText[SHELL_TEXT_PASSWORD_ERROR]);
1226:Dsp/letter_shell/shell.c ****     }
1227:Dsp/letter_shell/shell.c ****     shell->parser.length = 0;
1228:Dsp/letter_shell/shell.c ****     shell->parser.cursor = 0;
1229:Dsp/letter_shell/shell.c **** }
1230:Dsp/letter_shell/shell.c **** 
1231:Dsp/letter_shell/shell.c **** 
1232:Dsp/letter_shell/shell.c **** /**
1233:Dsp/letter_shell/shell.c ****  * @brief shell设置用户
1234:Dsp/letter_shell/shell.c ****  * 
1235:Dsp/letter_shell/shell.c ****  * @param shell shell对象
1236:Dsp/letter_shell/shell.c ****  * @param user 用户
1237:Dsp/letter_shell/shell.c ****  */
1238:Dsp/letter_shell/shell.c **** static void shellSetUser(Shell *shell, const ShellCommand *user)
1239:Dsp/letter_shell/shell.c **** {
1240:Dsp/letter_shell/shell.c ****     shell->info.user = user;
1241:Dsp/letter_shell/shell.c ****     shell->status.isChecked = 
1242:Dsp/letter_shell/shell.c ****         ((user->data.user.password && strlen(user->data.user.password) != 0)
ARM GAS  /var/folders/lx/hc4sn_b53233_zkc9xbbl97r0000gp/T//ccoa1yNG.s 			page 32


1243:Dsp/letter_shell/shell.c ****             && (shell->parser.paramCount < 2
1244:Dsp/letter_shell/shell.c ****                 || strcmp(user->data.user.password, shell->parser.param[1]) != 0))
1245:Dsp/letter_shell/shell.c ****          ? 0 : 1;
1246:Dsp/letter_shell/shell.c ****         
1247:Dsp/letter_shell/shell.c **** #if SHELL_CLS_WHEN_LOGIN == 1
1248:Dsp/letter_shell/shell.c ****     shellWriteString(shell, shellText[SHELL_TEXT_CLEAR_CONSOLE]);
1249:Dsp/letter_shell/shell.c **** #endif
1250:Dsp/letter_shell/shell.c **** #if SHELL_SHOW_INFO == 1
1251:Dsp/letter_shell/shell.c ****     if (shell->status.isChecked)
1252:Dsp/letter_shell/shell.c ****     {
1253:Dsp/letter_shell/shell.c ****         shellWriteString(shell, shellText[SHELL_TEXT_INFO]);
1254:Dsp/letter_shell/shell.c ****     }
1255:Dsp/letter_shell/shell.c **** #endif
1256:Dsp/letter_shell/shell.c **** }
1257:Dsp/letter_shell/shell.c **** 
1258:Dsp/letter_shell/shell.c **** 
1259:Dsp/letter_shell/shell.c **** /**
1260:Dsp/letter_shell/shell.c ****  * @brief shell写返回值
1261:Dsp/letter_shell/shell.c ****  * 
1262:Dsp/letter_shell/shell.c ****  * @param shell shell对象
1263:Dsp/letter_shell/shell.c ****  * @param value 返回值
1264:Dsp/letter_shell/shell.c ****  */
1265:Dsp/letter_shell/shell.c **** static void shellWriteReturnValue(Shell *shell, int value)
1266:Dsp/letter_shell/shell.c **** {
1267:Dsp/letter_shell/shell.c ****     char buffer[12] = "00000000000";
1268:Dsp/letter_shell/shell.c ****     shellWriteString(shell, "Return: ");
1269:Dsp/letter_shell/shell.c ****     shellWriteString(shell, &buffer[11 - shellToDec(value, buffer)]);
1270:Dsp/letter_shell/shell.c ****     shellWriteString(shell, ", 0x");
1271:Dsp/letter_shell/shell.c ****     for (short i = 0; i < 11; i++)
1272:Dsp/letter_shell/shell.c ****     {
1273:Dsp/letter_shell/shell.c ****         buffer[i] = '0';
1274:Dsp/letter_shell/shell.c ****     }
1275:Dsp/letter_shell/shell.c ****     shellToHex(value, buffer);
1276:Dsp/letter_shell/shell.c ****     shellWriteString(shell, buffer);
1277:Dsp/letter_shell/shell.c ****     shellWriteString(shell, "\r\n");
1278:Dsp/letter_shell/shell.c **** }
1279:Dsp/letter_shell/shell.c **** 
1280:Dsp/letter_shell/shell.c **** 
1281:Dsp/letter_shell/shell.c **** /**
1282:Dsp/letter_shell/shell.c ****  * @brief shell历史记录添加
1283:Dsp/letter_shell/shell.c ****  * 
1284:Dsp/letter_shell/shell.c ****  * @param shell shell对象
1285:Dsp/letter_shell/shell.c ****  */
1286:Dsp/letter_shell/shell.c **** static void shellHistoryAdd(Shell *shell)
1287:Dsp/letter_shell/shell.c **** {
 481              		.loc 1 1287 1 is_stmt 1 view -0
 482              		.cfi_startproc
 483              		@ args = 0, pretend = 0, frame = 0
 484              		@ frame_needed = 0, uses_anonymous_args = 0
 485              		.loc 1 1287 1 is_stmt 0 view .LVU152
 486 0000 10B5     		push	{r4, lr}
 487              	.LCFI3:
 488              		.cfi_def_cfa_offset 8
 489              		.cfi_offset 4, -8
 490              		.cfi_offset 14, -4
 491 0002 0446     		mov	r4, r0
1288:Dsp/letter_shell/shell.c ****     shell->history.offset = 0;
ARM GAS  /var/folders/lx/hc4sn_b53233_zkc9xbbl97r0000gp/T//ccoa1yNG.s 			page 33


 492              		.loc 1 1288 5 is_stmt 1 view .LVU153
 493              		.loc 1 1288 27 is_stmt 0 view .LVU154
 494 0004 0023     		movs	r3, #0
 495 0006 A0F85430 		strh	r3, [r0, #84]	@ movhi
1289:Dsp/letter_shell/shell.c ****     if (shell->history.number > 0
 496              		.loc 1 1289 5 is_stmt 1 view .LVU155
 497              		.loc 1 1289 23 is_stmt 0 view .LVU156
 498 000a B0F85030 		ldrh	r3, [r0, #80]
 499              		.loc 1 1289 8 view .LVU157
 500 000e 5BB1     		cbz	r3, .L47
1290:Dsp/letter_shell/shell.c ****         && strcmp(shell->history.item[(shell->history.record == 0 ? 
 501              		.loc 1 1290 54 view .LVU158
 502 0010 B0F85230 		ldrh	r3, [r0, #82]
1291:Dsp/letter_shell/shell.c ****                 SHELL_HISTORY_MAX_NUMBER : shell->history.record) - 1],
 503              		.loc 1 1291 67 view .LVU159
 504 0014 53B3     		cbz	r3, .L52
 505              		.loc 1 1291 67 discriminator 1 view .LVU160
 506 0016 013B     		subs	r3, r3, #1
 507              	.L48:
1290:Dsp/letter_shell/shell.c ****         && strcmp(shell->history.item[(shell->history.record == 0 ? 
 508              		.loc 1 1290 38 view .LVU161
 509 0018 0E33     		adds	r3, r3, #14
 510 001a 04EB8303 		add	r3, r4, r3, lsl #2
1290:Dsp/letter_shell/shell.c ****         && strcmp(shell->history.item[(shell->history.record == 0 ? 
 511              		.loc 1 1290 12 view .LVU162
 512 001e 2169     		ldr	r1, [r4, #16]
 513 0020 5868     		ldr	r0, [r3, #4]
 514              	.LVL49:
1290:Dsp/letter_shell/shell.c ****         && strcmp(shell->history.item[(shell->history.record == 0 ? 
 515              		.loc 1 1290 12 view .LVU163
 516 0022 FFF7FEFF 		bl	strcmp
 517              	.LVL50:
1290:Dsp/letter_shell/shell.c ****         && strcmp(shell->history.item[(shell->history.record == 0 ? 
 518              		.loc 1 1290 9 view .LVU164
 519 0026 00B3     		cbz	r0, .L46
 520              	.L47:
1292:Dsp/letter_shell/shell.c ****                 shell->parser.buffer) == 0)
1293:Dsp/letter_shell/shell.c ****     {
1294:Dsp/letter_shell/shell.c ****         return;
1295:Dsp/letter_shell/shell.c ****     }
1296:Dsp/letter_shell/shell.c ****     if (shellStringCopy(shell->history.item[shell->history.record],
 521              		.loc 1 1296 5 is_stmt 1 view .LVU165
 522              		.loc 1 1296 59 is_stmt 0 view .LVU166
 523 0028 B4F85230 		ldrh	r3, [r4, #82]
 524              		.loc 1 1296 9 view .LVU167
 525 002c 0E33     		adds	r3, r3, #14
 526 002e 04EB8303 		add	r3, r4, r3, lsl #2
 527 0032 2169     		ldr	r1, [r4, #16]
 528 0034 5868     		ldr	r0, [r3, #4]
 529 0036 FFF7FEFF 		bl	shellStringCopy
 530              	.LVL51:
 531              		.loc 1 1296 8 view .LVU168
 532 003a 20B1     		cbz	r0, .L50
1297:Dsp/letter_shell/shell.c ****                         shell->parser.buffer) != 0)
1298:Dsp/letter_shell/shell.c ****     {
1299:Dsp/letter_shell/shell.c ****         shell->history.record++;
 533              		.loc 1 1299 9 is_stmt 1 view .LVU169
ARM GAS  /var/folders/lx/hc4sn_b53233_zkc9xbbl97r0000gp/T//ccoa1yNG.s 			page 34


 534              		.loc 1 1299 23 is_stmt 0 view .LVU170
 535 003c B4F85230 		ldrh	r3, [r4, #82]
 536              		.loc 1 1299 30 view .LVU171
 537 0040 0133     		adds	r3, r3, #1
 538 0042 A4F85230 		strh	r3, [r4, #82]	@ movhi
 539              	.L50:
1300:Dsp/letter_shell/shell.c ****     }
1301:Dsp/letter_shell/shell.c ****     if (++shell->history.number > SHELL_HISTORY_MAX_NUMBER)
 540              		.loc 1 1301 5 is_stmt 1 view .LVU172
 541              		.loc 1 1301 25 is_stmt 0 view .LVU173
 542 0046 B4F85030 		ldrh	r3, [r4, #80]
 543              		.loc 1 1301 9 view .LVU174
 544 004a 0133     		adds	r3, r3, #1
 545 004c 9BB2     		uxth	r3, r3
 546              		.loc 1 1301 8 view .LVU175
 547 004e A4F85030 		strh	r3, [r4, #80]	@ movhi
 548 0052 052B     		cmp	r3, #5
 549 0054 02D9     		bls	.L51
1302:Dsp/letter_shell/shell.c ****     {
1303:Dsp/letter_shell/shell.c ****         shell->history.number = SHELL_HISTORY_MAX_NUMBER;
 550              		.loc 1 1303 9 is_stmt 1 view .LVU176
 551              		.loc 1 1303 31 is_stmt 0 view .LVU177
 552 0056 0523     		movs	r3, #5
 553 0058 A4F85030 		strh	r3, [r4, #80]	@ movhi
 554              	.L51:
1304:Dsp/letter_shell/shell.c ****     }
1305:Dsp/letter_shell/shell.c ****     if (shell->history.record >= SHELL_HISTORY_MAX_NUMBER)
 555              		.loc 1 1305 5 is_stmt 1 view .LVU178
 556              		.loc 1 1305 23 is_stmt 0 view .LVU179
 557 005c B4F85230 		ldrh	r3, [r4, #82]
 558              		.loc 1 1305 8 view .LVU180
 559 0060 042B     		cmp	r3, #4
 560 0062 02D9     		bls	.L46
1306:Dsp/letter_shell/shell.c ****     {
1307:Dsp/letter_shell/shell.c ****         shell->history.record = 0;
 561              		.loc 1 1307 9 is_stmt 1 view .LVU181
 562              		.loc 1 1307 31 is_stmt 0 view .LVU182
 563 0064 0023     		movs	r3, #0
 564 0066 A4F85230 		strh	r3, [r4, #82]	@ movhi
 565              	.L46:
1308:Dsp/letter_shell/shell.c ****     }
1309:Dsp/letter_shell/shell.c **** }
 566              		.loc 1 1309 1 view .LVU183
 567 006a 10BD     		pop	{r4, pc}
 568              	.LVL52:
 569              	.L52:
1291:Dsp/letter_shell/shell.c ****                 shell->parser.buffer) == 0)
 570              		.loc 1 1291 67 view .LVU184
 571 006c 0423     		movs	r3, #4
 572 006e D3E7     		b	.L48
 573              		.cfi_endproc
 574              	.LFE163:
 576              		.section	.text.shellWriteByte,"ax",%progbits
 577              		.align	1
 578              		.syntax unified
 579              		.thumb
 580              		.thumb_func
ARM GAS  /var/folders/lx/hc4sn_b53233_zkc9xbbl97r0000gp/T//ccoa1yNG.s 			page 35


 581              		.fpu fpv4-sp-d16
 583              	shellWriteByte:
 584              	.LVL53:
 585              	.LFB129:
 266:Dsp/letter_shell/shell.c ****     shell->write(data);
 586              		.loc 1 266 1 is_stmt 1 view -0
 587              		.cfi_startproc
 588              		@ args = 0, pretend = 0, frame = 0
 589              		@ frame_needed = 0, uses_anonymous_args = 0
 266:Dsp/letter_shell/shell.c ****     shell->write(data);
 590              		.loc 1 266 1 is_stmt 0 view .LVU186
 591 0000 08B5     		push	{r3, lr}
 592              	.LCFI4:
 593              		.cfi_def_cfa_offset 8
 594              		.cfi_offset 3, -8
 595              		.cfi_offset 14, -4
 267:Dsp/letter_shell/shell.c ****     delay_us(50);
 596              		.loc 1 267 5 is_stmt 1 view .LVU187
 267:Dsp/letter_shell/shell.c ****     delay_us(50);
 597              		.loc 1 267 10 is_stmt 0 view .LVU188
 598 0002 836E     		ldr	r3, [r0, #104]
 267:Dsp/letter_shell/shell.c ****     delay_us(50);
 599              		.loc 1 267 5 view .LVU189
 600 0004 0846     		mov	r0, r1
 601              	.LVL54:
 267:Dsp/letter_shell/shell.c ****     delay_us(50);
 602              		.loc 1 267 5 view .LVU190
 603 0006 9847     		blx	r3
 604              	.LVL55:
 268:Dsp/letter_shell/shell.c **** }
 605              		.loc 1 268 5 is_stmt 1 view .LVU191
 606 0008 3220     		movs	r0, #50
 607 000a FFF7FEFF 		bl	delay_us
 608              	.LVL56:
 269:Dsp/letter_shell/shell.c **** 
 609              		.loc 1 269 1 is_stmt 0 view .LVU192
 610 000e 08BD     		pop	{r3, pc}
 611              		.cfi_endproc
 612              	.LFE129:
 614              		.section	.text.shellRight,"ax",%progbits
 615              		.align	1
 616              		.global	shellRight
 617              		.syntax unified
 618              		.thumb
 619              		.thumb_func
 620              		.fpu fpv4-sp-d16
 622              	shellRight:
 623              	.LVL57:
 624              	.LFB169:
1310:Dsp/letter_shell/shell.c **** 
1311:Dsp/letter_shell/shell.c **** 
1312:Dsp/letter_shell/shell.c **** /**
1313:Dsp/letter_shell/shell.c ****  * @brief shell历史记录查找
1314:Dsp/letter_shell/shell.c ****  * 
1315:Dsp/letter_shell/shell.c ****  * @param shell shell对象
1316:Dsp/letter_shell/shell.c ****  * @param dir 方向 {@code <0}往上查找 {@code >0}往下查找
1317:Dsp/letter_shell/shell.c ****  */
ARM GAS  /var/folders/lx/hc4sn_b53233_zkc9xbbl97r0000gp/T//ccoa1yNG.s 			page 36


1318:Dsp/letter_shell/shell.c **** static void shellHistory(Shell *shell, signed char dir)
1319:Dsp/letter_shell/shell.c **** {
1320:Dsp/letter_shell/shell.c ****     if (dir > 0)
1321:Dsp/letter_shell/shell.c ****     {
1322:Dsp/letter_shell/shell.c ****         if (shell->history.offset-- <= 
1323:Dsp/letter_shell/shell.c ****             -((shell->history.number > shell->history.record) ?
1324:Dsp/letter_shell/shell.c ****                 shell->history.number : shell->history.record))
1325:Dsp/letter_shell/shell.c ****         {
1326:Dsp/letter_shell/shell.c ****             shell->history.offset = -((shell->history.number > shell->history.record)
1327:Dsp/letter_shell/shell.c ****                                     ? shell->history.number : shell->history.record);
1328:Dsp/letter_shell/shell.c ****         }
1329:Dsp/letter_shell/shell.c ****     }
1330:Dsp/letter_shell/shell.c ****     else if (dir < 0)
1331:Dsp/letter_shell/shell.c ****     {
1332:Dsp/letter_shell/shell.c ****         if (++shell->history.offset > 0)
1333:Dsp/letter_shell/shell.c ****         {
1334:Dsp/letter_shell/shell.c ****             shell->history.offset = 0;
1335:Dsp/letter_shell/shell.c ****             return;
1336:Dsp/letter_shell/shell.c ****         }
1337:Dsp/letter_shell/shell.c ****     }
1338:Dsp/letter_shell/shell.c ****     else
1339:Dsp/letter_shell/shell.c ****     {
1340:Dsp/letter_shell/shell.c ****         return;
1341:Dsp/letter_shell/shell.c ****     }
1342:Dsp/letter_shell/shell.c ****     shellClearCommandLine(shell);
1343:Dsp/letter_shell/shell.c ****     if (shell->history.offset == 0)
1344:Dsp/letter_shell/shell.c ****     {
1345:Dsp/letter_shell/shell.c ****         shell->parser.cursor = shell->parser.length = 0;
1346:Dsp/letter_shell/shell.c ****     }
1347:Dsp/letter_shell/shell.c ****     else
1348:Dsp/letter_shell/shell.c ****     {
1349:Dsp/letter_shell/shell.c ****         if ((shell->parser.length = shellStringCopy(shell->parser.buffer,
1350:Dsp/letter_shell/shell.c ****                 shell->history.item[(shell->history.record + SHELL_HISTORY_MAX_NUMBER
1351:Dsp/letter_shell/shell.c ****                     + shell->history.offset) % SHELL_HISTORY_MAX_NUMBER])) == 0)
1352:Dsp/letter_shell/shell.c ****         {
1353:Dsp/letter_shell/shell.c ****             return;
1354:Dsp/letter_shell/shell.c ****         }
1355:Dsp/letter_shell/shell.c ****         shell->parser.cursor = shell->parser.length;
1356:Dsp/letter_shell/shell.c ****         shellWriteString(shell, shell->parser.buffer);
1357:Dsp/letter_shell/shell.c ****     }
1358:Dsp/letter_shell/shell.c ****     
1359:Dsp/letter_shell/shell.c **** }
1360:Dsp/letter_shell/shell.c **** 
1361:Dsp/letter_shell/shell.c **** 
1362:Dsp/letter_shell/shell.c **** /**
1363:Dsp/letter_shell/shell.c ****  * @brief shell 常规输入
1364:Dsp/letter_shell/shell.c ****  * 
1365:Dsp/letter_shell/shell.c ****  * @param shell shell 对象
1366:Dsp/letter_shell/shell.c ****  * @param data 输入字符
1367:Dsp/letter_shell/shell.c ****  */
1368:Dsp/letter_shell/shell.c **** void shellNormalInput(Shell *shell, char data)
1369:Dsp/letter_shell/shell.c **** {
1370:Dsp/letter_shell/shell.c ****     shell->status.tabFlag = 0;
1371:Dsp/letter_shell/shell.c ****     shellInsertByte(shell, data);
1372:Dsp/letter_shell/shell.c **** }
1373:Dsp/letter_shell/shell.c **** 
1374:Dsp/letter_shell/shell.c **** 
ARM GAS  /var/folders/lx/hc4sn_b53233_zkc9xbbl97r0000gp/T//ccoa1yNG.s 			page 37


1375:Dsp/letter_shell/shell.c **** /**
1376:Dsp/letter_shell/shell.c ****  * @brief shell运行命令
1377:Dsp/letter_shell/shell.c ****  * 
1378:Dsp/letter_shell/shell.c ****  * @param shell shell对象
1379:Dsp/letter_shell/shell.c ****  */
1380:Dsp/letter_shell/shell.c **** void shellExec(Shell *shell)
1381:Dsp/letter_shell/shell.c **** {
1382:Dsp/letter_shell/shell.c ****     
1383:Dsp/letter_shell/shell.c ****     if (shell->parser.length == 0)
1384:Dsp/letter_shell/shell.c ****     {
1385:Dsp/letter_shell/shell.c ****         return;
1386:Dsp/letter_shell/shell.c ****     }
1387:Dsp/letter_shell/shell.c **** 
1388:Dsp/letter_shell/shell.c ****     shell->parser.buffer[shell->parser.length] = 0;
1389:Dsp/letter_shell/shell.c **** 
1390:Dsp/letter_shell/shell.c ****     if (shell->status.isChecked)
1391:Dsp/letter_shell/shell.c ****     {
1392:Dsp/letter_shell/shell.c ****         shellHistoryAdd(shell);
1393:Dsp/letter_shell/shell.c ****         shellParserParam(shell);
1394:Dsp/letter_shell/shell.c ****         shell->parser.length = shell->parser.cursor = 0;
1395:Dsp/letter_shell/shell.c ****         if (shell->parser.paramCount == 0)
1396:Dsp/letter_shell/shell.c ****         {
1397:Dsp/letter_shell/shell.c ****             return;
1398:Dsp/letter_shell/shell.c ****         }
1399:Dsp/letter_shell/shell.c ****         shellWriteString(shell, "\r\n");
1400:Dsp/letter_shell/shell.c **** 
1401:Dsp/letter_shell/shell.c ****         ShellCommand *command = shellSeekCommand(shell,
1402:Dsp/letter_shell/shell.c ****                                                  shell->parser.param[0],
1403:Dsp/letter_shell/shell.c ****                                                  shell->commandList.base,
1404:Dsp/letter_shell/shell.c ****                                                  0);
1405:Dsp/letter_shell/shell.c ****         if (command != NULL)
1406:Dsp/letter_shell/shell.c ****         {
1407:Dsp/letter_shell/shell.c ****             shellRunCommand(shell, command);
1408:Dsp/letter_shell/shell.c ****         }
1409:Dsp/letter_shell/shell.c ****         else
1410:Dsp/letter_shell/shell.c ****         {
1411:Dsp/letter_shell/shell.c ****             shellWriteString(shell, shellText[SHELL_TEXT_CMD_NOT_FOUND]);
1412:Dsp/letter_shell/shell.c ****         }
1413:Dsp/letter_shell/shell.c ****     }
1414:Dsp/letter_shell/shell.c ****     else
1415:Dsp/letter_shell/shell.c ****     {
1416:Dsp/letter_shell/shell.c ****         shellCheckPassword(shell);
1417:Dsp/letter_shell/shell.c ****     }
1418:Dsp/letter_shell/shell.c **** }
1419:Dsp/letter_shell/shell.c **** 
1420:Dsp/letter_shell/shell.c **** 
1421:Dsp/letter_shell/shell.c **** /**
1422:Dsp/letter_shell/shell.c ****  * @brief shell上方向键输入
1423:Dsp/letter_shell/shell.c ****  * 
1424:Dsp/letter_shell/shell.c ****  * @param shell shell对象
1425:Dsp/letter_shell/shell.c ****  */
1426:Dsp/letter_shell/shell.c **** void shellUp(Shell *shell)
1427:Dsp/letter_shell/shell.c **** {
1428:Dsp/letter_shell/shell.c ****     shellHistory(shell, 1);
1429:Dsp/letter_shell/shell.c **** }
1430:Dsp/letter_shell/shell.c **** SHELL_EXPORT_KEY(SHELL_CMD_PERMISSION(0), 0x1B5B4100, shellUp, up);
1431:Dsp/letter_shell/shell.c **** 
ARM GAS  /var/folders/lx/hc4sn_b53233_zkc9xbbl97r0000gp/T//ccoa1yNG.s 			page 38


1432:Dsp/letter_shell/shell.c **** 
1433:Dsp/letter_shell/shell.c **** /**
1434:Dsp/letter_shell/shell.c ****  * @brief shell下方向键输入
1435:Dsp/letter_shell/shell.c ****  * 
1436:Dsp/letter_shell/shell.c ****  * @param shell shell对象
1437:Dsp/letter_shell/shell.c ****  */
1438:Dsp/letter_shell/shell.c **** void shellDown(Shell *shell)
1439:Dsp/letter_shell/shell.c **** {
1440:Dsp/letter_shell/shell.c ****     shellHistory(shell, -1);
1441:Dsp/letter_shell/shell.c **** }
1442:Dsp/letter_shell/shell.c **** SHELL_EXPORT_KEY(SHELL_CMD_PERMISSION(0), 0x1B5B4200, shellDown, down);
1443:Dsp/letter_shell/shell.c **** 
1444:Dsp/letter_shell/shell.c **** 
1445:Dsp/letter_shell/shell.c **** /**
1446:Dsp/letter_shell/shell.c ****  * @brief shell右方向键输入
1447:Dsp/letter_shell/shell.c ****  * 
1448:Dsp/letter_shell/shell.c ****  * @param shell shell对象
1449:Dsp/letter_shell/shell.c ****  */
1450:Dsp/letter_shell/shell.c **** void shellRight(Shell *shell)
1451:Dsp/letter_shell/shell.c **** {
 625              		.loc 1 1451 1 is_stmt 1 view -0
 626              		.cfi_startproc
 627              		@ args = 0, pretend = 0, frame = 0
 628              		@ frame_needed = 0, uses_anonymous_args = 0
 629              		.loc 1 1451 1 is_stmt 0 view .LVU194
 630 0000 08B5     		push	{r3, lr}
 631              	.LCFI5:
 632              		.cfi_def_cfa_offset 8
 633              		.cfi_offset 3, -8
 634              		.cfi_offset 14, -4
1452:Dsp/letter_shell/shell.c ****     if (shell->parser.cursor < shell->parser.length)
 635              		.loc 1 1452 5 is_stmt 1 view .LVU195
 636              		.loc 1 1452 22 is_stmt 0 view .LVU196
 637 0002 C389     		ldrh	r3, [r0, #14]
 638              		.loc 1 1452 45 view .LVU197
 639 0004 8289     		ldrh	r2, [r0, #12]
 640              		.loc 1 1452 8 view .LVU198
 641 0006 9342     		cmp	r3, r2
 642 0008 00D3     		bcc	.L59
 643              	.LVL58:
 644              	.L56:
1453:Dsp/letter_shell/shell.c ****     {
1454:Dsp/letter_shell/shell.c ****         shellWriteByte(shell, shell->parser.buffer[shell->parser.cursor++]);
1455:Dsp/letter_shell/shell.c ****     }
1456:Dsp/letter_shell/shell.c **** }
 645              		.loc 1 1456 1 view .LVU199
 646 000a 08BD     		pop	{r3, pc}
 647              	.LVL59:
 648              	.L59:
1454:Dsp/letter_shell/shell.c ****     }
 649              		.loc 1 1454 9 is_stmt 1 view .LVU200
1454:Dsp/letter_shell/shell.c ****     }
 650              		.loc 1 1454 44 is_stmt 0 view .LVU201
 651 000c 0269     		ldr	r2, [r0, #16]
1454:Dsp/letter_shell/shell.c ****     }
 652              		.loc 1 1454 72 view .LVU202
 653 000e 591C     		adds	r1, r3, #1
ARM GAS  /var/folders/lx/hc4sn_b53233_zkc9xbbl97r0000gp/T//ccoa1yNG.s 			page 39


 654 0010 C181     		strh	r1, [r0, #14]	@ movhi
1454:Dsp/letter_shell/shell.c ****     }
 655              		.loc 1 1454 9 view .LVU203
 656 0012 D15C     		ldrb	r1, [r2, r3]	@ zero_extendqisi2
 657 0014 FFF7FEFF 		bl	shellWriteByte
 658              	.LVL60:
 659              		.loc 1 1456 1 view .LVU204
 660 0018 F7E7     		b	.L56
 661              		.cfi_endproc
 662              	.LFE169:
 664              		.section	.text.shellLeft,"ax",%progbits
 665              		.align	1
 666              		.global	shellLeft
 667              		.syntax unified
 668              		.thumb
 669              		.thumb_func
 670              		.fpu fpv4-sp-d16
 672              	shellLeft:
 673              	.LVL61:
 674              	.LFB170:
1457:Dsp/letter_shell/shell.c **** SHELL_EXPORT_KEY(SHELL_CMD_PERMISSION(0)|SHELL_CMD_ENABLE_UNCHECKED,
1458:Dsp/letter_shell/shell.c **** 0x1B5B4300, shellRight, right);
1459:Dsp/letter_shell/shell.c **** 
1460:Dsp/letter_shell/shell.c **** 
1461:Dsp/letter_shell/shell.c **** /**
1462:Dsp/letter_shell/shell.c ****  * @brief shell左方向键输入
1463:Dsp/letter_shell/shell.c ****  * 
1464:Dsp/letter_shell/shell.c ****  * @param shell shell对象
1465:Dsp/letter_shell/shell.c ****  */
1466:Dsp/letter_shell/shell.c **** void shellLeft(Shell *shell)
1467:Dsp/letter_shell/shell.c **** {
 675              		.loc 1 1467 1 is_stmt 1 view -0
 676              		.cfi_startproc
 677              		@ args = 0, pretend = 0, frame = 0
 678              		@ frame_needed = 0, uses_anonymous_args = 0
1468:Dsp/letter_shell/shell.c ****     if (shell->parser.cursor > 0)
 679              		.loc 1 1468 5 view .LVU206
 680              		.loc 1 1468 22 is_stmt 0 view .LVU207
 681 0000 C389     		ldrh	r3, [r0, #14]
 682              		.loc 1 1468 8 view .LVU208
 683 0002 03B9     		cbnz	r3, .L66
 684 0004 7047     		bx	lr
 685              	.L66:
1467:Dsp/letter_shell/shell.c ****     if (shell->parser.cursor > 0)
 686              		.loc 1 1467 1 view .LVU209
 687 0006 10B5     		push	{r4, lr}
 688              	.LCFI6:
 689              		.cfi_def_cfa_offset 8
 690              		.cfi_offset 4, -8
 691              		.cfi_offset 14, -4
 692 0008 0446     		mov	r4, r0
1469:Dsp/letter_shell/shell.c ****     {
1470:Dsp/letter_shell/shell.c ****         shellWriteByte(shell, '\b');
 693              		.loc 1 1470 9 is_stmt 1 view .LVU210
 694 000a 0821     		movs	r1, #8
 695 000c FFF7FEFF 		bl	shellWriteByte
 696              	.LVL62:
ARM GAS  /var/folders/lx/hc4sn_b53233_zkc9xbbl97r0000gp/T//ccoa1yNG.s 			page 40


1471:Dsp/letter_shell/shell.c ****         shell->parser.cursor--;
 697              		.loc 1 1471 9 view .LVU211
 698              		.loc 1 1471 22 is_stmt 0 view .LVU212
 699 0010 E389     		ldrh	r3, [r4, #14]
 700              		.loc 1 1471 29 view .LVU213
 701 0012 013B     		subs	r3, r3, #1
 702 0014 E381     		strh	r3, [r4, #14]	@ movhi
1472:Dsp/letter_shell/shell.c ****     }
1473:Dsp/letter_shell/shell.c **** }
 703              		.loc 1 1473 1 view .LVU214
 704 0016 10BD     		pop	{r4, pc}
 705              		.loc 1 1473 1 view .LVU215
 706              		.cfi_endproc
 707              	.LFE170:
 709              		.section	.text.shellRemoveParamQuotes,"ax",%progbits
 710              		.align	1
 711              		.syntax unified
 712              		.thumb
 713              		.thumb_func
 714              		.fpu fpv4-sp-d16
 716              	shellRemoveParamQuotes:
 717              	.LVL63:
 718              	.LFB153:
 925:Dsp/letter_shell/shell.c ****     unsigned short paramLength;
 719              		.loc 1 925 1 is_stmt 1 view -0
 720              		.cfi_startproc
 721              		@ args = 0, pretend = 0, frame = 0
 722              		@ frame_needed = 0, uses_anonymous_args = 0
 925:Dsp/letter_shell/shell.c ****     unsigned short paramLength;
 723              		.loc 1 925 1 is_stmt 0 view .LVU217
 724 0000 70B5     		push	{r4, r5, r6, lr}
 725              	.LCFI7:
 726              		.cfi_def_cfa_offset 16
 727              		.cfi_offset 4, -16
 728              		.cfi_offset 5, -12
 729              		.cfi_offset 6, -8
 730              		.cfi_offset 14, -4
 731 0002 0546     		mov	r5, r0
 926:Dsp/letter_shell/shell.c ****     for (unsigned short i = 0; i < shell->parser.paramCount; i++)
 732              		.loc 1 926 5 is_stmt 1 view .LVU218
 927:Dsp/letter_shell/shell.c ****     {
 733              		.loc 1 927 5 view .LVU219
 734              	.LBB6:
 927:Dsp/letter_shell/shell.c ****     {
 735              		.loc 1 927 10 view .LVU220
 736              	.LVL64:
 927:Dsp/letter_shell/shell.c ****     {
 737              		.loc 1 927 25 is_stmt 0 view .LVU221
 738 0004 0024     		movs	r4, #0
 927:Dsp/letter_shell/shell.c ****     {
 739              		.loc 1 927 5 view .LVU222
 740 0006 0AE0     		b	.L68
 741              	.LVL65:
 742              	.L74:
 931:Dsp/letter_shell/shell.c ****             shell->parser.param[i] = &shell->parser.param[i][1];
 743              		.loc 1 931 13 is_stmt 1 view .LVU223
 931:Dsp/letter_shell/shell.c ****             shell->parser.param[i] = &shell->parser.param[i][1];
ARM GAS  /var/folders/lx/hc4sn_b53233_zkc9xbbl97r0000gp/T//ccoa1yNG.s 			page 41


 744              		.loc 1 931 39 is_stmt 0 view .LVU224
 745 0008 0021     		movs	r1, #0
 746 000a 1170     		strb	r1, [r2]
 932:Dsp/letter_shell/shell.c ****         }
 747              		.loc 1 932 13 is_stmt 1 view .LVU225
 932:Dsp/letter_shell/shell.c ****         }
 748              		.loc 1 932 58 is_stmt 0 view .LVU226
 749 000c 221D     		adds	r2, r4, #4
 750 000e 05EB8202 		add	r2, r5, r2, lsl #2
 751 0012 5168     		ldr	r1, [r2, #4]
 932:Dsp/letter_shell/shell.c ****         }
 752              		.loc 1 932 38 view .LVU227
 753 0014 0131     		adds	r1, r1, #1
 932:Dsp/letter_shell/shell.c ****         }
 754              		.loc 1 932 36 view .LVU228
 755 0016 5160     		str	r1, [r2, #4]
 756 0018 0CE0     		b	.L69
 757              	.LVL66:
 758              	.L70:
 927:Dsp/letter_shell/shell.c ****     {
 759              		.loc 1 927 62 is_stmt 1 discriminator 2 view .LVU229
 927:Dsp/letter_shell/shell.c ****     {
 760              		.loc 1 927 63 is_stmt 0 discriminator 2 view .LVU230
 761 001a 0134     		adds	r4, r4, #1
 762              	.LVL67:
 927:Dsp/letter_shell/shell.c ****     {
 763              		.loc 1 927 63 discriminator 2 view .LVU231
 764 001c A4B2     		uxth	r4, r4
 765              	.LVL68:
 766              	.L68:
 927:Dsp/letter_shell/shell.c ****     {
 767              		.loc 1 927 32 is_stmt 1 discriminator 1 view .LVU232
 927:Dsp/letter_shell/shell.c ****     {
 768              		.loc 1 927 49 is_stmt 0 discriminator 1 view .LVU233
 769 001e EB8E     		ldrh	r3, [r5, #54]
 927:Dsp/letter_shell/shell.c ****     {
 770              		.loc 1 927 5 discriminator 1 view .LVU234
 771 0020 A342     		cmp	r3, r4
 772 0022 16D9     		bls	.L73
 929:Dsp/letter_shell/shell.c ****         {
 773              		.loc 1 929 9 is_stmt 1 view .LVU235
 929:Dsp/letter_shell/shell.c ****         {
 774              		.loc 1 929 32 is_stmt 0 view .LVU236
 775 0024 2346     		mov	r3, r4
 776 0026 221D     		adds	r2, r4, #4
 777 0028 05EB8202 		add	r2, r5, r2, lsl #2
 778 002c 5268     		ldr	r2, [r2, #4]
 929:Dsp/letter_shell/shell.c ****         {
 779              		.loc 1 929 35 view .LVU237
 780 002e 1178     		ldrb	r1, [r2]	@ zero_extendqisi2
 929:Dsp/letter_shell/shell.c ****         {
 781              		.loc 1 929 12 view .LVU238
 782 0030 2229     		cmp	r1, #34
 783 0032 E9D0     		beq	.L74
 784              	.L69:
 934:Dsp/letter_shell/shell.c ****         if (shell->parser.param[i][paramLength - 1] == '\"')
 785              		.loc 1 934 9 is_stmt 1 view .LVU239
ARM GAS  /var/folders/lx/hc4sn_b53233_zkc9xbbl97r0000gp/T//ccoa1yNG.s 			page 42


 934:Dsp/letter_shell/shell.c ****         if (shell->parser.param[i][paramLength - 1] == '\"')
 786              		.loc 1 934 49 is_stmt 0 view .LVU240
 787 0034 0433     		adds	r3, r3, #4
 788 0036 05EB8303 		add	r3, r5, r3, lsl #2
 789 003a 5E68     		ldr	r6, [r3, #4]
 934:Dsp/letter_shell/shell.c ****         if (shell->parser.param[i][paramLength - 1] == '\"')
 790              		.loc 1 934 23 view .LVU241
 791 003c 3046     		mov	r0, r6
 792 003e FFF7FEFF 		bl	strlen
 793              	.LVL69:
 935:Dsp/letter_shell/shell.c ****         {
 794              		.loc 1 935 9 is_stmt 1 view .LVU242
 935:Dsp/letter_shell/shell.c ****         {
 795              		.loc 1 935 35 is_stmt 0 view .LVU243
 796 0042 83B2     		uxth	r3, r0
 797 0044 013B     		subs	r3, r3, #1
 798 0046 F25C     		ldrb	r2, [r6, r3]	@ zero_extendqisi2
 935:Dsp/letter_shell/shell.c ****         {
 799              		.loc 1 935 12 view .LVU244
 800 0048 222A     		cmp	r2, #34
 801 004a E6D1     		bne	.L70
 937:Dsp/letter_shell/shell.c ****         }
 802              		.loc 1 937 13 is_stmt 1 view .LVU245
 937:Dsp/letter_shell/shell.c ****         }
 803              		.loc 1 937 53 is_stmt 0 view .LVU246
 804 004c 0022     		movs	r2, #0
 805 004e F254     		strb	r2, [r6, r3]
 806 0050 E3E7     		b	.L70
 807              	.LVL70:
 808              	.L73:
 937:Dsp/letter_shell/shell.c ****         }
 809              		.loc 1 937 53 view .LVU247
 810              	.LBE6:
 940:Dsp/letter_shell/shell.c **** 
 811              		.loc 1 940 1 view .LVU248
 812 0052 70BD     		pop	{r4, r5, r6, pc}
 940:Dsp/letter_shell/shell.c **** 
 813              		.loc 1 940 1 view .LVU249
 814              		.cfi_endproc
 815              	.LFE153:
 817              		.section	.text.shellGetCurrent,"ax",%progbits
 818              		.align	1
 819              		.global	shellGetCurrent
 820              		.syntax unified
 821              		.thumb
 822              		.thumb_func
 823              		.fpu fpv4-sp-d16
 825              	shellGetCurrent:
 826              	.LFB128:
 247:Dsp/letter_shell/shell.c ****     for (short i = 0; i < SHELL_MAX_NUMBER; i++)
 827              		.loc 1 247 1 is_stmt 1 view -0
 828              		.cfi_startproc
 829              		@ args = 0, pretend = 0, frame = 0
 830              		@ frame_needed = 0, uses_anonymous_args = 0
 831              		@ link register save eliminated.
 248:Dsp/letter_shell/shell.c ****     {
 832              		.loc 1 248 5 view .LVU251
ARM GAS  /var/folders/lx/hc4sn_b53233_zkc9xbbl97r0000gp/T//ccoa1yNG.s 			page 43


 833              	.LBB7:
 248:Dsp/letter_shell/shell.c ****     {
 834              		.loc 1 248 10 view .LVU252
 835              	.LVL71:
 248:Dsp/letter_shell/shell.c ****     {
 836              		.loc 1 248 16 is_stmt 0 view .LVU253
 837 0000 0023     		movs	r3, #0
 248:Dsp/letter_shell/shell.c ****     {
 838              		.loc 1 248 5 view .LVU254
 839 0002 01E0     		b	.L76
 840              	.LVL72:
 841              	.L77:
 248:Dsp/letter_shell/shell.c ****     {
 842              		.loc 1 248 45 is_stmt 1 discriminator 2 view .LVU255
 248:Dsp/letter_shell/shell.c ****     {
 843              		.loc 1 248 46 is_stmt 0 discriminator 2 view .LVU256
 844 0004 0133     		adds	r3, r3, #1
 845              	.LVL73:
 248:Dsp/letter_shell/shell.c ****     {
 846              		.loc 1 248 46 discriminator 2 view .LVU257
 847 0006 1BB2     		sxth	r3, r3
 848              	.LVL74:
 849              	.L76:
 248:Dsp/letter_shell/shell.c ****     {
 850              		.loc 1 248 23 is_stmt 1 discriminator 1 view .LVU258
 248:Dsp/letter_shell/shell.c ****     {
 851              		.loc 1 248 5 is_stmt 0 discriminator 1 view .LVU259
 852 0008 042B     		cmp	r3, #4
 853 000a 0ADC     		bgt	.L80
 250:Dsp/letter_shell/shell.c ****         {
 854              		.loc 1 250 9 is_stmt 1 view .LVU260
 250:Dsp/letter_shell/shell.c ****         {
 855              		.loc 1 250 22 is_stmt 0 view .LVU261
 856 000c 064A     		ldr	r2, .L81
 857 000e 52F82300 		ldr	r0, [r2, r3, lsl #2]
 250:Dsp/letter_shell/shell.c ****         {
 858              		.loc 1 250 12 view .LVU262
 859 0012 0028     		cmp	r0, #0
 860 0014 F6D0     		beq	.L77
 250:Dsp/letter_shell/shell.c ****         {
 861              		.loc 1 250 26 discriminator 1 view .LVU263
 862 0016 90F86020 		ldrb	r2, [r0, #96]	@ zero_extendqisi2
 863 001a 12F0020F 		tst	r2, #2
 864 001e F1D0     		beq	.L77
 865 0020 00E0     		b	.L75
 866              	.L80:
 867              	.LBE7:
 255:Dsp/letter_shell/shell.c **** }
 868              		.loc 1 255 12 view .LVU264
 869 0022 0020     		movs	r0, #0
 870              	.L75:
 256:Dsp/letter_shell/shell.c **** 
 871              		.loc 1 256 1 view .LVU265
 872 0024 7047     		bx	lr
 873              	.L82:
 874 0026 00BF     		.align	2
 875              	.L81:
ARM GAS  /var/folders/lx/hc4sn_b53233_zkc9xbbl97r0000gp/T//ccoa1yNG.s 			page 44


 876 0028 00000000 		.word	.LANCHOR0
 877              		.cfi_endproc
 878              	.LFE128:
 880              		.section	.text.shellWriteString,"ax",%progbits
 881              		.align	1
 882              		.global	shellWriteString
 883              		.syntax unified
 884              		.thumb
 885              		.thumb_func
 886              		.fpu fpv4-sp-d16
 888              	shellWriteString:
 889              	.LVL75:
 890              	.LFB130:
 281:Dsp/letter_shell/shell.c ****     unsigned short count = 0;
 891              		.loc 1 281 1 is_stmt 1 view -0
 892              		.cfi_startproc
 893              		@ args = 0, pretend = 0, frame = 0
 894              		@ frame_needed = 0, uses_anonymous_args = 0
 281:Dsp/letter_shell/shell.c ****     unsigned short count = 0;
 895              		.loc 1 281 1 is_stmt 0 view .LVU267
 896 0000 70B5     		push	{r4, r5, r6, lr}
 897              	.LCFI8:
 898              		.cfi_def_cfa_offset 16
 899              		.cfi_offset 4, -16
 900              		.cfi_offset 5, -12
 901              		.cfi_offset 6, -8
 902              		.cfi_offset 14, -4
 282:Dsp/letter_shell/shell.c ****     SHELL_ASSERT(shell->write, return 0);
 903              		.loc 1 282 5 is_stmt 1 view .LVU268
 904              	.LVL76:
 283:Dsp/letter_shell/shell.c ****     while(*string)
 905              		.loc 1 283 5 view .LVU269
 906 0002 836E     		ldr	r3, [r0, #104]
 907 0004 83B1     		cbz	r3, .L87
 908 0006 0646     		mov	r6, r0
 909 0008 0D46     		mov	r5, r1
 282:Dsp/letter_shell/shell.c ****     SHELL_ASSERT(shell->write, return 0);
 910              		.loc 1 282 20 is_stmt 0 view .LVU270
 911 000a 0024     		movs	r4, #0
 912 000c 07E0     		b	.L85
 913              	.LVL77:
 914              	.L86:
 286:Dsp/letter_shell/shell.c ****         count ++;
 915              		.loc 1 286 9 is_stmt 1 view .LVU271
 286:Dsp/letter_shell/shell.c ****         count ++;
 916              		.loc 1 286 14 is_stmt 0 view .LVU272
 917 000e B36E     		ldr	r3, [r6, #104]
 286:Dsp/letter_shell/shell.c ****         count ++;
 918              		.loc 1 286 30 view .LVU273
 919 0010 0135     		adds	r5, r5, #1
 920              	.LVL78:
 286:Dsp/letter_shell/shell.c ****         count ++;
 921              		.loc 1 286 9 view .LVU274
 922 0012 9847     		blx	r3
 923              	.LVL79:
 287:Dsp/letter_shell/shell.c ****         delay_us(100);
 924              		.loc 1 287 9 is_stmt 1 view .LVU275
ARM GAS  /var/folders/lx/hc4sn_b53233_zkc9xbbl97r0000gp/T//ccoa1yNG.s 			page 45


 287:Dsp/letter_shell/shell.c ****         delay_us(100);
 925              		.loc 1 287 15 is_stmt 0 view .LVU276
 926 0014 0134     		adds	r4, r4, #1
 927              	.LVL80:
 287:Dsp/letter_shell/shell.c ****         delay_us(100);
 928              		.loc 1 287 15 view .LVU277
 929 0016 A4B2     		uxth	r4, r4
 930              	.LVL81:
 288:Dsp/letter_shell/shell.c ****     }
 931              		.loc 1 288 9 is_stmt 1 view .LVU278
 932 0018 6420     		movs	r0, #100
 933 001a FFF7FEFF 		bl	delay_us
 934              	.LVL82:
 935              	.L85:
 284:Dsp/letter_shell/shell.c ****     {
 936              		.loc 1 284 10 view .LVU279
 284:Dsp/letter_shell/shell.c ****     {
 937              		.loc 1 284 11 is_stmt 0 view .LVU280
 938 001e 2878     		ldrb	r0, [r5]	@ zero_extendqisi2
 284:Dsp/letter_shell/shell.c ****     {
 939              		.loc 1 284 10 view .LVU281
 940 0020 0028     		cmp	r0, #0
 941 0022 F4D1     		bne	.L86
 942              	.LVL83:
 943              	.L84:
 291:Dsp/letter_shell/shell.c **** 
 944              		.loc 1 291 1 view .LVU282
 945 0024 2046     		mov	r0, r4
 946 0026 70BD     		pop	{r4, r5, r6, pc}
 947              	.LVL84:
 948              	.L87:
 283:Dsp/letter_shell/shell.c ****     while(*string)
 949              		.loc 1 283 5 view .LVU283
 950 0028 0024     		movs	r4, #0
 951 002a FBE7     		b	.L84
 952              		.cfi_endproc
 953              	.LFE130:
 955              		.section	.rodata.shellSetUser.str1.4,"aMS",%progbits,1
 956              		.align	2
 957              	.LC0:
 958 0000 1B5B324A 		.ascii	"\033[2J\033[1H\000"
 958      1B5B3148 
 958      00
 959 0009 000000   		.align	2
 960              	.LC1:
 961 000c 0D0A2020 		.ascii	"\015\012  ____    _      _       ___      _        "
 961      5F5F5F5F 
 961      20202020 
 961      5F202020 
 961      2020205F 
 962 0039 20202020 		.ascii	"           \015\012 |    \\  /_\\    | |     | _ \\"
 962      20202020 
 962      2020200D 
 962      0A207C20 
 962      2020205C 
 963 0063 2020207C 		.ascii	"   | |              ___ \015\012 |    |   _   __| |"
 963      207C2020 
ARM GAS  /var/folders/lx/hc4sn_b53233_zkc9xbbl97r0000gp/T//ccoa1yNG.s 			page 46


 963      20202020 
 963      20202020 
 963      20202020 
 964 0090 5F5F2020 		.ascii	"__   ||_|/ __| |__   ___    //    \015\012 |----/  "
 964      207C7C5F 
 964      7C2F205F 
 964      5F7C207C 
 964      5F5F2020 
 965 00bd 7C207C20 		.ascii	"| | |__   __|  |  \\ |__   __|  //   \\  \\__    \015"
 965      7C5F5F20 
 965      20205F5F 
 965      7C20207C 
 965      20205C20 
 966 00ec 0A207C20 		.ascii	"\012 |    |  | |    | |_    | |\\    | |_   ||   ||"
 966      2020207C 
 966      20207C20 
 966      7C202020 
 966      207C207C 
 967 011b 20202020 		.ascii	"      \\  \015\012 \\____/  |_|    |___/   |_| \\  "
 967      20205C20 
 967      200D0A20 
 967      5C5F5F5F 
 967      5F2F2020 
 968 0145 207C5F5F 		.ascii	" |___/   \\___//   ___//  \015\012\015\012Build:   "
 968      5F2F2020 
 968      205C5F5F 
 968      5F2F2F20 
 968      20205F5F 
 969 016b 20202020 		.ascii	"    Oct 11 2021 21:42:16\015\012Version:     3.0.6\015"
 969      4F637420 
 969      31312032 
 969      30323120 
 969      32313A34 
 970 0198 0A00     		.ascii	"\012\000"
 971              		.section	.text.shellSetUser,"ax",%progbits
 972              		.align	1
 973              		.syntax unified
 974              		.thumb
 975              		.thumb_func
 976              		.fpu fpv4-sp-d16
 978              	shellSetUser:
 979              	.LVL85:
 980              	.LFB161:
1239:Dsp/letter_shell/shell.c ****     shell->info.user = user;
 981              		.loc 1 1239 1 is_stmt 1 view -0
 982              		.cfi_startproc
 983              		@ args = 0, pretend = 0, frame = 0
 984              		@ frame_needed = 0, uses_anonymous_args = 0
1239:Dsp/letter_shell/shell.c ****     shell->info.user = user;
 985              		.loc 1 1239 1 is_stmt 0 view .LVU285
 986 0000 10B5     		push	{r4, lr}
 987              	.LCFI9:
 988              		.cfi_def_cfa_offset 8
 989              		.cfi_offset 4, -8
 990              		.cfi_offset 14, -4
 991 0002 0446     		mov	r4, r0
1240:Dsp/letter_shell/shell.c ****     shell->status.isChecked = 
ARM GAS  /var/folders/lx/hc4sn_b53233_zkc9xbbl97r0000gp/T//ccoa1yNG.s 			page 47


 992              		.loc 1 1240 5 is_stmt 1 view .LVU286
1240:Dsp/letter_shell/shell.c ****     shell->status.isChecked = 
 993              		.loc 1 1240 22 is_stmt 0 view .LVU287
 994 0004 0160     		str	r1, [r0]
1241:Dsp/letter_shell/shell.c ****         ((user->data.user.password && strlen(user->data.user.password) != 0)
 995              		.loc 1 1241 5 is_stmt 1 view .LVU288
1242:Dsp/letter_shell/shell.c ****             && (shell->parser.paramCount < 2
 996              		.loc 1 1242 26 is_stmt 0 view .LVU289
 997 0006 8868     		ldr	r0, [r1, #8]
 998              	.LVL86:
1245:Dsp/letter_shell/shell.c ****         
 999              		.loc 1 1245 14 view .LVU290
 1000 0008 50B1     		cbz	r0, .L92
1242:Dsp/letter_shell/shell.c ****             && (shell->parser.paramCount < 2
 1001              		.loc 1 1242 72 view .LVU291
 1002 000a 0378     		ldrb	r3, [r0]	@ zero_extendqisi2
1242:Dsp/letter_shell/shell.c ****             && (shell->parser.paramCount < 2
 1003              		.loc 1 1242 36 view .LVU292
 1004 000c 53B1     		cbz	r3, .L93
1243:Dsp/letter_shell/shell.c ****                 || strcmp(user->data.user.password, shell->parser.param[1]) != 0))
 1005              		.loc 1 1243 30 view .LVU293
 1006 000e E38E     		ldrh	r3, [r4, #54]
1245:Dsp/letter_shell/shell.c ****         
 1007              		.loc 1 1245 14 view .LVU294
 1008 0010 012B     		cmp	r3, #1
 1009 0012 18D9     		bls	.L94
1244:Dsp/letter_shell/shell.c ****          ? 0 : 1;
 1010              		.loc 1 1244 20 view .LVU295
 1011 0014 A169     		ldr	r1, [r4, #24]
 1012              	.LVL87:
1244:Dsp/letter_shell/shell.c ****          ? 0 : 1;
 1013              		.loc 1 1244 20 view .LVU296
 1014 0016 FFF7FEFF 		bl	strcmp
 1015              	.LVL88:
1244:Dsp/letter_shell/shell.c ****          ? 0 : 1;
 1016              		.loc 1 1244 17 view .LVU297
 1017 001a B0B1     		cbz	r0, .L95
1245:Dsp/letter_shell/shell.c ****         
 1018              		.loc 1 1245 14 view .LVU298
 1019 001c 0022     		movs	r2, #0
 1020 001e 02E0     		b	.L90
 1021              	.LVL89:
 1022              	.L92:
1245:Dsp/letter_shell/shell.c ****         
 1023              		.loc 1 1245 14 view .LVU299
 1024 0020 0122     		movs	r2, #1
 1025 0022 00E0     		b	.L90
 1026              	.L93:
 1027 0024 0122     		movs	r2, #1
 1028              	.LVL90:
 1029              	.L90:
1241:Dsp/letter_shell/shell.c ****         ((user->data.user.password && strlen(user->data.user.password) != 0)
 1030              		.loc 1 1241 29 discriminator 4 view .LVU300
 1031 0026 94F86030 		ldrb	r3, [r4, #96]	@ zero_extendqisi2
 1032 002a 62F30003 		bfi	r3, r2, #0, #1
 1033 002e 84F86030 		strb	r3, [r4, #96]
1248:Dsp/letter_shell/shell.c **** #endif
ARM GAS  /var/folders/lx/hc4sn_b53233_zkc9xbbl97r0000gp/T//ccoa1yNG.s 			page 48


 1034              		.loc 1 1248 5 is_stmt 1 discriminator 4 view .LVU301
 1035 0032 0949     		ldr	r1, .L98
 1036 0034 2046     		mov	r0, r4
 1037 0036 FFF7FEFF 		bl	shellWriteString
 1038              	.LVL91:
1251:Dsp/letter_shell/shell.c ****     {
 1039              		.loc 1 1251 5 discriminator 4 view .LVU302
1251:Dsp/letter_shell/shell.c ****     {
 1040              		.loc 1 1251 9 is_stmt 0 discriminator 4 view .LVU303
 1041 003a 94F86030 		ldrb	r3, [r4, #96]	@ zero_extendqisi2
1251:Dsp/letter_shell/shell.c ****     {
 1042              		.loc 1 1251 8 discriminator 4 view .LVU304
 1043 003e 13F0010F 		tst	r3, #1
 1044 0042 04D1     		bne	.L97
 1045              	.L89:
1256:Dsp/letter_shell/shell.c **** 
 1046              		.loc 1 1256 1 view .LVU305
 1047 0044 10BD     		pop	{r4, pc}
 1048              	.LVL92:
 1049              	.L94:
1245:Dsp/letter_shell/shell.c ****         
 1050              		.loc 1 1245 14 view .LVU306
 1051 0046 0022     		movs	r2, #0
 1052 0048 EDE7     		b	.L90
 1053              	.LVL93:
 1054              	.L95:
1245:Dsp/letter_shell/shell.c ****         
 1055              		.loc 1 1245 14 view .LVU307
 1056 004a 0122     		movs	r2, #1
 1057 004c EBE7     		b	.L90
 1058              	.L97:
1253:Dsp/letter_shell/shell.c ****     }
 1059              		.loc 1 1253 9 is_stmt 1 view .LVU308
 1060 004e 0349     		ldr	r1, .L98+4
 1061 0050 2046     		mov	r0, r4
 1062 0052 FFF7FEFF 		bl	shellWriteString
 1063              	.LVL94:
1256:Dsp/letter_shell/shell.c **** 
 1064              		.loc 1 1256 1 is_stmt 0 view .LVU309
 1065 0056 F5E7     		b	.L89
 1066              	.L99:
 1067              		.align	2
 1068              	.L98:
 1069 0058 00000000 		.word	.LC0
 1070 005c 0C000000 		.word	.LC1
 1071              		.cfi_endproc
 1072              	.LFE161:
 1074              		.section	.rodata.shellWriteCommandLine.str1.4,"aMS",%progbits,1
 1075              		.align	2
 1076              	.LC2:
 1077 0000 2F00     		.ascii	"/\000"
 1078 0002 0000     		.align	2
 1079              	.LC3:
 1080 0004 0D0A00   		.ascii	"\015\012\000"
 1081 0007 00       		.align	2
 1082              	.LC4:
 1083 0008 3A00     		.ascii	":\000"
ARM GAS  /var/folders/lx/hc4sn_b53233_zkc9xbbl97r0000gp/T//ccoa1yNG.s 			page 49


 1084 000a 0000     		.align	2
 1085              	.LC5:
 1086 000c 242000   		.ascii	"$ \000"
 1087 000f 00       		.align	2
 1088              	.LC6:
 1089 0010 0D0A506C 		.ascii	"\015\012Please input password:\000"
 1089      65617365 
 1089      20696E70 
 1089      75742070 
 1089      61737377 
 1090              		.section	.text.shellWriteCommandLine,"ax",%progbits
 1091              		.align	1
 1092              		.syntax unified
 1093              		.thumb
 1094              		.thumb_func
 1095              		.fpu fpv4-sp-d16
 1097              	shellWriteCommandLine:
 1098              	.LVL95:
 1099              	.LFB132:
 333:Dsp/letter_shell/shell.c ****     if (shell->status.isChecked)
 1100              		.loc 1 333 1 is_stmt 1 view -0
 1101              		.cfi_startproc
 1102              		@ args = 0, pretend = 0, frame = 0
 1103              		@ frame_needed = 0, uses_anonymous_args = 0
 333:Dsp/letter_shell/shell.c ****     if (shell->status.isChecked)
 1104              		.loc 1 333 1 is_stmt 0 view .LVU311
 1105 0000 10B5     		push	{r4, lr}
 1106              	.LCFI10:
 1107              		.cfi_def_cfa_offset 8
 1108              		.cfi_offset 4, -8
 1109              		.cfi_offset 14, -4
 1110 0002 0446     		mov	r4, r0
 334:Dsp/letter_shell/shell.c ****     {
 1111              		.loc 1 334 5 is_stmt 1 view .LVU312
 334:Dsp/letter_shell/shell.c ****     {
 1112              		.loc 1 334 9 is_stmt 0 view .LVU313
 1113 0004 90F86030 		ldrb	r3, [r0, #96]	@ zero_extendqisi2
 334:Dsp/letter_shell/shell.c ****     {
 1114              		.loc 1 334 8 view .LVU314
 1115 0008 13F0010F 		tst	r3, #1
 1116 000c 19D0     		beq	.L101
 336:Dsp/letter_shell/shell.c ****         {
 1117              		.loc 1 336 9 is_stmt 1 view .LVU315
 336:Dsp/letter_shell/shell.c ****         {
 1118              		.loc 1 336 12 is_stmt 0 view .LVU316
 1119 000e 91B9     		cbnz	r1, .L106
 1120              	.LVL96:
 1121              	.L102:
 340:Dsp/letter_shell/shell.c ****         shellWriteString(shell, ":");
 1122              		.loc 1 340 9 is_stmt 1 view .LVU317
 340:Dsp/letter_shell/shell.c ****         shellWriteString(shell, ":");
 1123              		.loc 1 340 44 is_stmt 0 view .LVU318
 1124 0010 2368     		ldr	r3, [r4]
 340:Dsp/letter_shell/shell.c ****         shellWriteString(shell, ":");
 1125              		.loc 1 340 9 view .LVU319
 1126 0012 5968     		ldr	r1, [r3, #4]
 1127 0014 2046     		mov	r0, r4
ARM GAS  /var/folders/lx/hc4sn_b53233_zkc9xbbl97r0000gp/T//ccoa1yNG.s 			page 50


 1128 0016 FFF7FEFF 		bl	shellWriteString
 1129              	.LVL97:
 341:Dsp/letter_shell/shell.c ****         shellWriteString(shell, shell->info.path ? shell->info.path : "/");
 1130              		.loc 1 341 9 is_stmt 1 view .LVU320
 1131 001a 0C49     		ldr	r1, .L108
 1132 001c 2046     		mov	r0, r4
 1133 001e FFF7FEFF 		bl	shellWriteString
 1134              	.LVL98:
 342:Dsp/letter_shell/shell.c ****         shellWriteString(shell, "$ ");
 1135              		.loc 1 342 9 view .LVU321
 342:Dsp/letter_shell/shell.c ****         shellWriteString(shell, "$ ");
 1136              		.loc 1 342 44 is_stmt 0 view .LVU322
 1137 0022 A168     		ldr	r1, [r4, #8]
 342:Dsp/letter_shell/shell.c ****         shellWriteString(shell, "$ ");
 1138              		.loc 1 342 9 view .LVU323
 1139 0024 59B1     		cbz	r1, .L107
 1140              	.L103:
 342:Dsp/letter_shell/shell.c ****         shellWriteString(shell, "$ ");
 1141              		.loc 1 342 9 discriminator 4 view .LVU324
 1142 0026 2046     		mov	r0, r4
 1143 0028 FFF7FEFF 		bl	shellWriteString
 1144              	.LVL99:
 343:Dsp/letter_shell/shell.c ****     }
 1145              		.loc 1 343 9 is_stmt 1 discriminator 4 view .LVU325
 1146 002c 0849     		ldr	r1, .L108+4
 1147 002e 2046     		mov	r0, r4
 1148 0030 FFF7FEFF 		bl	shellWriteString
 1149              	.LVL100:
 1150              	.L100:
 349:Dsp/letter_shell/shell.c **** 
 1151              		.loc 1 349 1 is_stmt 0 view .LVU326
 1152 0034 10BD     		pop	{r4, pc}
 1153              	.LVL101:
 1154              	.L106:
 338:Dsp/letter_shell/shell.c ****         }
 1155              		.loc 1 338 13 is_stmt 1 view .LVU327
 1156 0036 0749     		ldr	r1, .L108+8
 1157              	.LVL102:
 338:Dsp/letter_shell/shell.c ****         }
 1158              		.loc 1 338 13 is_stmt 0 view .LVU328
 1159 0038 FFF7FEFF 		bl	shellWriteString
 1160              	.LVL103:
 338:Dsp/letter_shell/shell.c ****         }
 1161              		.loc 1 338 13 view .LVU329
 1162 003c E8E7     		b	.L102
 1163              	.L107:
 342:Dsp/letter_shell/shell.c ****         shellWriteString(shell, "$ ");
 1164              		.loc 1 342 9 view .LVU330
 1165 003e 0649     		ldr	r1, .L108+12
 1166 0040 F1E7     		b	.L103
 1167              	.LVL104:
 1168              	.L101:
 347:Dsp/letter_shell/shell.c ****     }
 1169              		.loc 1 347 9 is_stmt 1 view .LVU331
 1170 0042 0649     		ldr	r1, .L108+16
 1171              	.LVL105:
 347:Dsp/letter_shell/shell.c ****     }
ARM GAS  /var/folders/lx/hc4sn_b53233_zkc9xbbl97r0000gp/T//ccoa1yNG.s 			page 51


 1172              		.loc 1 347 9 is_stmt 0 view .LVU332
 1173 0044 FFF7FEFF 		bl	shellWriteString
 1174              	.LVL106:
 349:Dsp/letter_shell/shell.c **** 
 1175              		.loc 1 349 1 view .LVU333
 1176 0048 F4E7     		b	.L100
 1177              	.L109:
 1178 004a 00BF     		.align	2
 1179              	.L108:
 1180 004c 08000000 		.word	.LC4
 1181 0050 0C000000 		.word	.LC5
 1182 0054 04000000 		.word	.LC3
 1183 0058 00000000 		.word	.LC2
 1184 005c 10000000 		.word	.LC6
 1185              		.cfi_endproc
 1186              	.LFE132:
 1188              		.section	.rodata.shellCheckPassword.str1.4,"aMS",%progbits,1
 1189              		.align	2
 1190              	.LC7:
 1191 0000 0D0A7061 		.ascii	"\015\012password error\015\012\000"
 1191      7373776F 
 1191      72642065 
 1191      72726F72 
 1191      0D0A00
 1192              		.section	.text.shellCheckPassword,"ax",%progbits
 1193              		.align	1
 1194              		.syntax unified
 1195              		.thumb
 1196              		.thumb_func
 1197              		.fpu fpv4-sp-d16
 1199              	shellCheckPassword:
 1200              	.LVL107:
 1201              	.LFB160:
1215:Dsp/letter_shell/shell.c ****     if (strcmp(shell->parser.buffer, shell->info.user->data.user.password) == 0)
 1202              		.loc 1 1215 1 is_stmt 1 view -0
 1203              		.cfi_startproc
 1204              		@ args = 0, pretend = 0, frame = 0
 1205              		@ frame_needed = 0, uses_anonymous_args = 0
1215:Dsp/letter_shell/shell.c ****     if (strcmp(shell->parser.buffer, shell->info.user->data.user.password) == 0)
 1206              		.loc 1 1215 1 is_stmt 0 view .LVU335
 1207 0000 10B5     		push	{r4, lr}
 1208              	.LCFI11:
 1209              		.cfi_def_cfa_offset 8
 1210              		.cfi_offset 4, -8
 1211              		.cfi_offset 14, -4
 1212 0002 0446     		mov	r4, r0
1216:Dsp/letter_shell/shell.c ****     {
 1213              		.loc 1 1216 5 is_stmt 1 view .LVU336
1216:Dsp/letter_shell/shell.c ****     {
 1214              		.loc 1 1216 49 is_stmt 0 view .LVU337
 1215 0004 0368     		ldr	r3, [r0]
1216:Dsp/letter_shell/shell.c ****     {
 1216              		.loc 1 1216 9 view .LVU338
 1217 0006 9968     		ldr	r1, [r3, #8]
 1218 0008 0069     		ldr	r0, [r0, #16]
 1219              	.LVL108:
1216:Dsp/letter_shell/shell.c ****     {
ARM GAS  /var/folders/lx/hc4sn_b53233_zkc9xbbl97r0000gp/T//ccoa1yNG.s 			page 52


 1220              		.loc 1 1216 9 view .LVU339
 1221 000a FFF7FEFF 		bl	strcmp
 1222              	.LVL109:
1216:Dsp/letter_shell/shell.c ****     {
 1223              		.loc 1 1216 8 view .LVU340
 1224 000e 68B9     		cbnz	r0, .L111
1218:Dsp/letter_shell/shell.c ****     #if SHELL_SHOW_INFO == 1
 1225              		.loc 1 1218 9 is_stmt 1 view .LVU341
1218:Dsp/letter_shell/shell.c ****     #if SHELL_SHOW_INFO == 1
 1226              		.loc 1 1218 33 is_stmt 0 view .LVU342
 1227 0010 94F86030 		ldrb	r3, [r4, #96]	@ zero_extendqisi2
 1228 0014 43F00103 		orr	r3, r3, #1
 1229 0018 84F86030 		strb	r3, [r4, #96]
1220:Dsp/letter_shell/shell.c ****     #endif
 1230              		.loc 1 1220 9 is_stmt 1 view .LVU343
 1231 001c 0649     		ldr	r1, .L114
 1232 001e 2046     		mov	r0, r4
 1233 0020 FFF7FEFF 		bl	shellWriteString
 1234              	.LVL110:
 1235              	.L112:
1227:Dsp/letter_shell/shell.c ****     shell->parser.cursor = 0;
 1236              		.loc 1 1227 5 view .LVU344
1227:Dsp/letter_shell/shell.c ****     shell->parser.cursor = 0;
 1237              		.loc 1 1227 26 is_stmt 0 view .LVU345
 1238 0024 0023     		movs	r3, #0
 1239 0026 A381     		strh	r3, [r4, #12]	@ movhi
1228:Dsp/letter_shell/shell.c **** }
 1240              		.loc 1 1228 5 is_stmt 1 view .LVU346
1228:Dsp/letter_shell/shell.c **** }
 1241              		.loc 1 1228 26 is_stmt 0 view .LVU347
 1242 0028 E381     		strh	r3, [r4, #14]	@ movhi
1229:Dsp/letter_shell/shell.c **** 
 1243              		.loc 1 1229 1 view .LVU348
 1244 002a 10BD     		pop	{r4, pc}
 1245              	.LVL111:
 1246              	.L111:
1225:Dsp/letter_shell/shell.c ****     }
 1247              		.loc 1 1225 9 is_stmt 1 view .LVU349
 1248 002c 0349     		ldr	r1, .L114+4
 1249 002e 2046     		mov	r0, r4
 1250 0030 FFF7FEFF 		bl	shellWriteString
 1251              	.LVL112:
 1252 0034 F6E7     		b	.L112
 1253              	.L115:
 1254 0036 00BF     		.align	2
 1255              	.L114:
 1256 0038 0C000000 		.word	.LC1
 1257 003c 00000000 		.word	.LC7
 1258              		.cfi_endproc
 1259              	.LFE160:
 1261              		.section	.text.shellClear,"ax",%progbits
 1262              		.align	1
 1263              		.global	shellClear
 1264              		.syntax unified
 1265              		.thumb
 1266              		.thumb_func
 1267              		.fpu fpv4-sp-d16
ARM GAS  /var/folders/lx/hc4sn_b53233_zkc9xbbl97r0000gp/T//ccoa1yNG.s 			page 53


 1269              	shellClear:
 1270              	.LFB182:
1474:Dsp/letter_shell/shell.c **** SHELL_EXPORT_KEY(SHELL_CMD_PERMISSION(0)|SHELL_CMD_ENABLE_UNCHECKED,
1475:Dsp/letter_shell/shell.c **** 0x1B5B4400, shellLeft, left);
1476:Dsp/letter_shell/shell.c **** 
1477:Dsp/letter_shell/shell.c **** 
1478:Dsp/letter_shell/shell.c **** /**
1479:Dsp/letter_shell/shell.c ****  * @brief shell Tab按键处理
1480:Dsp/letter_shell/shell.c ****  * 
1481:Dsp/letter_shell/shell.c ****  * @param shell shell对象
1482:Dsp/letter_shell/shell.c ****  */
1483:Dsp/letter_shell/shell.c **** void shellTab(Shell *shell)
1484:Dsp/letter_shell/shell.c **** {
1485:Dsp/letter_shell/shell.c ****     unsigned short maxMatch = shell->parser.bufferSize;
1486:Dsp/letter_shell/shell.c ****     unsigned short lastMatchIndex = 0;
1487:Dsp/letter_shell/shell.c ****     unsigned short matchNum = 0;
1488:Dsp/letter_shell/shell.c ****     unsigned short length;
1489:Dsp/letter_shell/shell.c **** 
1490:Dsp/letter_shell/shell.c ****     if (shell->parser.length == 0)
1491:Dsp/letter_shell/shell.c ****     {
1492:Dsp/letter_shell/shell.c ****         shellListAll(shell);
1493:Dsp/letter_shell/shell.c ****         shellWriteCommandLine(shell, 1);
1494:Dsp/letter_shell/shell.c ****     }
1495:Dsp/letter_shell/shell.c ****     else if (shell->parser.length > 0)
1496:Dsp/letter_shell/shell.c ****     {
1497:Dsp/letter_shell/shell.c ****         shell->parser.buffer[shell->parser.length] = 0;
1498:Dsp/letter_shell/shell.c ****         ShellCommand *base = (ShellCommand *)shell->commandList.base;
1499:Dsp/letter_shell/shell.c ****         for (short i = 0; i < shell->commandList.count; i++)
1500:Dsp/letter_shell/shell.c ****         {
1501:Dsp/letter_shell/shell.c ****             if (shellCheckPermission(shell, &base[i]) == 0
1502:Dsp/letter_shell/shell.c ****                 && shellStringCompare(shell->parser.buffer,
1503:Dsp/letter_shell/shell.c ****                                    (char *)shellGetCommandName(&base[i]))
1504:Dsp/letter_shell/shell.c ****                         == shell->parser.length)
1505:Dsp/letter_shell/shell.c ****             {
1506:Dsp/letter_shell/shell.c ****                 if (matchNum != 0)
1507:Dsp/letter_shell/shell.c ****                 {
1508:Dsp/letter_shell/shell.c ****                     if (matchNum == 1)
1509:Dsp/letter_shell/shell.c ****                     {
1510:Dsp/letter_shell/shell.c ****                         shellWriteString(shell, "\r\n");
1511:Dsp/letter_shell/shell.c ****                     }
1512:Dsp/letter_shell/shell.c ****                     shellListItem(shell, &base[lastMatchIndex]);
1513:Dsp/letter_shell/shell.c ****                     length = 
1514:Dsp/letter_shell/shell.c ****                         shellStringCompare((char *)shellGetCommandName(&base[lastMatchIndex]),
1515:Dsp/letter_shell/shell.c ****                                            (char *)shellGetCommandName(&base[i]));
1516:Dsp/letter_shell/shell.c ****                     maxMatch = (maxMatch > length) ? length : maxMatch;
1517:Dsp/letter_shell/shell.c ****                 }
1518:Dsp/letter_shell/shell.c ****                 lastMatchIndex = i;
1519:Dsp/letter_shell/shell.c ****                 matchNum++;
1520:Dsp/letter_shell/shell.c ****             }
1521:Dsp/letter_shell/shell.c ****         }
1522:Dsp/letter_shell/shell.c ****         if (matchNum == 0)
1523:Dsp/letter_shell/shell.c ****         {
1524:Dsp/letter_shell/shell.c ****             return;
1525:Dsp/letter_shell/shell.c ****         }
1526:Dsp/letter_shell/shell.c ****         if (matchNum == 1)
1527:Dsp/letter_shell/shell.c ****         {
1528:Dsp/letter_shell/shell.c ****             shellClearCommandLine(shell);
ARM GAS  /var/folders/lx/hc4sn_b53233_zkc9xbbl97r0000gp/T//ccoa1yNG.s 			page 54


1529:Dsp/letter_shell/shell.c ****         }
1530:Dsp/letter_shell/shell.c ****         if (matchNum != 0)
1531:Dsp/letter_shell/shell.c ****         {
1532:Dsp/letter_shell/shell.c ****             shell->parser.length = 
1533:Dsp/letter_shell/shell.c ****                 shellStringCopy(shell->parser.buffer,
1534:Dsp/letter_shell/shell.c ****                                 (char *)shellGetCommandName(&base[lastMatchIndex]));
1535:Dsp/letter_shell/shell.c ****         }
1536:Dsp/letter_shell/shell.c ****         if (matchNum > 1)
1537:Dsp/letter_shell/shell.c ****         {
1538:Dsp/letter_shell/shell.c ****             shellListItem(shell, &base[lastMatchIndex]);
1539:Dsp/letter_shell/shell.c ****             shellWriteCommandLine(shell, 1);
1540:Dsp/letter_shell/shell.c ****             shell->parser.length = maxMatch;
1541:Dsp/letter_shell/shell.c ****         }
1542:Dsp/letter_shell/shell.c ****         shell->parser.buffer[shell->parser.length] = 0;
1543:Dsp/letter_shell/shell.c ****         shell->parser.cursor = shell->parser.length;
1544:Dsp/letter_shell/shell.c ****         shellWriteString(shell, shell->parser.buffer);
1545:Dsp/letter_shell/shell.c ****     }
1546:Dsp/letter_shell/shell.c **** 
1547:Dsp/letter_shell/shell.c ****     if (SHELL_GET_TICK())
1548:Dsp/letter_shell/shell.c ****     {
1549:Dsp/letter_shell/shell.c ****         if (matchNum == 1
1550:Dsp/letter_shell/shell.c ****             && shell->status.tabFlag
1551:Dsp/letter_shell/shell.c ****             && SHELL_GET_TICK() - shell->info.activeTime < SHELL_DOUBLE_CLICK_TIME)
1552:Dsp/letter_shell/shell.c ****         {
1553:Dsp/letter_shell/shell.c ****             shellClearCommandLine(shell);
1554:Dsp/letter_shell/shell.c ****             for (short i = shell->parser.length; i >= 0; i--)
1555:Dsp/letter_shell/shell.c ****             {
1556:Dsp/letter_shell/shell.c ****                 shell->parser.buffer[i + 5] = shell->parser.buffer[i];
1557:Dsp/letter_shell/shell.c ****             }
1558:Dsp/letter_shell/shell.c ****             shellStringCopy(shell->parser.buffer, "help");
1559:Dsp/letter_shell/shell.c ****             shell->parser.buffer[4] = ' ';
1560:Dsp/letter_shell/shell.c ****             shell->parser.length += 5;
1561:Dsp/letter_shell/shell.c ****             shell->parser.cursor = shell->parser.length;
1562:Dsp/letter_shell/shell.c ****             shellWriteString(shell, shell->parser.buffer);
1563:Dsp/letter_shell/shell.c ****         }
1564:Dsp/letter_shell/shell.c ****         else
1565:Dsp/letter_shell/shell.c ****         {
1566:Dsp/letter_shell/shell.c ****             shell->status.tabFlag = 1;
1567:Dsp/letter_shell/shell.c ****         }
1568:Dsp/letter_shell/shell.c ****     }
1569:Dsp/letter_shell/shell.c **** }
1570:Dsp/letter_shell/shell.c **** SHELL_EXPORT_KEY(SHELL_CMD_PERMISSION(0), 0x09000000, shellTab, tab);
1571:Dsp/letter_shell/shell.c **** 
1572:Dsp/letter_shell/shell.c **** 
1573:Dsp/letter_shell/shell.c **** /**
1574:Dsp/letter_shell/shell.c ****  * @brief shell 退格
1575:Dsp/letter_shell/shell.c ****  * 
1576:Dsp/letter_shell/shell.c ****  * @param shell shell对象
1577:Dsp/letter_shell/shell.c ****  */
1578:Dsp/letter_shell/shell.c **** void shellBackspace(Shell *shell)
1579:Dsp/letter_shell/shell.c **** {
1580:Dsp/letter_shell/shell.c ****     shellDeleteByte(shell, 1);
1581:Dsp/letter_shell/shell.c **** }
1582:Dsp/letter_shell/shell.c **** SHELL_EXPORT_KEY(SHELL_CMD_PERMISSION(0)|SHELL_CMD_ENABLE_UNCHECKED,
1583:Dsp/letter_shell/shell.c **** 0x08000000, shellBackspace, backspace);
1584:Dsp/letter_shell/shell.c **** SHELL_EXPORT_KEY(SHELL_CMD_PERMISSION(0)|SHELL_CMD_ENABLE_UNCHECKED,
1585:Dsp/letter_shell/shell.c **** 0x7F000000, shellBackspace, backspace);
ARM GAS  /var/folders/lx/hc4sn_b53233_zkc9xbbl97r0000gp/T//ccoa1yNG.s 			page 55


1586:Dsp/letter_shell/shell.c **** 
1587:Dsp/letter_shell/shell.c **** 
1588:Dsp/letter_shell/shell.c **** /**
1589:Dsp/letter_shell/shell.c ****  * @brief shell 删除
1590:Dsp/letter_shell/shell.c ****  * 
1591:Dsp/letter_shell/shell.c ****  * @param shell shell对象
1592:Dsp/letter_shell/shell.c ****  */
1593:Dsp/letter_shell/shell.c **** void shellDelete(Shell *shell)
1594:Dsp/letter_shell/shell.c **** {
1595:Dsp/letter_shell/shell.c ****     shellDeleteByte(shell, -1);
1596:Dsp/letter_shell/shell.c **** }
1597:Dsp/letter_shell/shell.c **** SHELL_EXPORT_KEY(SHELL_CMD_PERMISSION(0)|SHELL_CMD_ENABLE_UNCHECKED,
1598:Dsp/letter_shell/shell.c **** 0x1B5B337E, shellDelete, delete);
1599:Dsp/letter_shell/shell.c **** 
1600:Dsp/letter_shell/shell.c **** 
1601:Dsp/letter_shell/shell.c **** /**
1602:Dsp/letter_shell/shell.c ****  * @brief shell 回车处理
1603:Dsp/letter_shell/shell.c ****  * 
1604:Dsp/letter_shell/shell.c ****  * @param shell shell对象
1605:Dsp/letter_shell/shell.c ****  */
1606:Dsp/letter_shell/shell.c **** void shellEnter(Shell *shell)
1607:Dsp/letter_shell/shell.c **** {
1608:Dsp/letter_shell/shell.c ****     shellExec(shell);
1609:Dsp/letter_shell/shell.c ****     shellWriteCommandLine(shell, 1);
1610:Dsp/letter_shell/shell.c **** }
1611:Dsp/letter_shell/shell.c **** #if SHELL_ENTER_LF == 1
1612:Dsp/letter_shell/shell.c **** SHELL_EXPORT_KEY(SHELL_CMD_PERMISSION(0)|SHELL_CMD_ENABLE_UNCHECKED,
1613:Dsp/letter_shell/shell.c **** 0x0A000000, shellEnter, enter);
1614:Dsp/letter_shell/shell.c **** #endif
1615:Dsp/letter_shell/shell.c **** #if SHELL_ENTER_CR == 1
1616:Dsp/letter_shell/shell.c **** SHELL_EXPORT_KEY(SHELL_CMD_PERMISSION(0)|SHELL_CMD_ENABLE_UNCHECKED,
1617:Dsp/letter_shell/shell.c **** 0x0D000000, shellEnter, enter);
1618:Dsp/letter_shell/shell.c **** #endif
1619:Dsp/letter_shell/shell.c **** #if SHELL_ENTER_CRLF == 1
1620:Dsp/letter_shell/shell.c **** SHELL_EXPORT_KEY(SHELL_CMD_PERMISSION(0)|SHELL_CMD_ENABLE_UNCHECKED,
1621:Dsp/letter_shell/shell.c **** 0x0D0A0000, shellEnter, enter);
1622:Dsp/letter_shell/shell.c **** #endif
1623:Dsp/letter_shell/shell.c **** 
1624:Dsp/letter_shell/shell.c **** 
1625:Dsp/letter_shell/shell.c **** /**
1626:Dsp/letter_shell/shell.c ****  * @brief shell help
1627:Dsp/letter_shell/shell.c ****  * 
1628:Dsp/letter_shell/shell.c ****  * @param argc 参数个数
1629:Dsp/letter_shell/shell.c ****  * @param argv 参数
1630:Dsp/letter_shell/shell.c ****  */
1631:Dsp/letter_shell/shell.c **** void shellHelp(int argc, char *argv[])
1632:Dsp/letter_shell/shell.c **** {
1633:Dsp/letter_shell/shell.c ****     Shell *shell = shellGetCurrent();
1634:Dsp/letter_shell/shell.c ****     SHELL_ASSERT(shell, return);
1635:Dsp/letter_shell/shell.c ****     if (argc == 1)
1636:Dsp/letter_shell/shell.c ****     {
1637:Dsp/letter_shell/shell.c ****         shellListAll(shell);
1638:Dsp/letter_shell/shell.c ****     }
1639:Dsp/letter_shell/shell.c ****     else if (argc > 1)
1640:Dsp/letter_shell/shell.c ****     {
1641:Dsp/letter_shell/shell.c ****         ShellCommand *command = shellSeekCommand(shell,
1642:Dsp/letter_shell/shell.c ****                                                  argv[1],
ARM GAS  /var/folders/lx/hc4sn_b53233_zkc9xbbl97r0000gp/T//ccoa1yNG.s 			page 56


1643:Dsp/letter_shell/shell.c ****                                                  shell->commandList.base,
1644:Dsp/letter_shell/shell.c ****                                                  0);
1645:Dsp/letter_shell/shell.c ****         if (command)
1646:Dsp/letter_shell/shell.c ****         {
1647:Dsp/letter_shell/shell.c ****             shellWriteString(shell, shellText[SHELL_TEXT_HELP_HEADER]);
1648:Dsp/letter_shell/shell.c ****             shellWriteString(shell, shellGetCommandName(command));
1649:Dsp/letter_shell/shell.c ****             shellWriteString(shell, "\r\n");
1650:Dsp/letter_shell/shell.c ****             shellWriteString(shell, shellGetCommandDesc(command));
1651:Dsp/letter_shell/shell.c ****             shellWriteString(shell, "\r\n");
1652:Dsp/letter_shell/shell.c ****         }
1653:Dsp/letter_shell/shell.c ****         else
1654:Dsp/letter_shell/shell.c ****         {
1655:Dsp/letter_shell/shell.c ****             shellWriteString(shell, shellText[SHELL_TEXT_CMD_NOT_FOUND]);
1656:Dsp/letter_shell/shell.c ****         }
1657:Dsp/letter_shell/shell.c ****     }
1658:Dsp/letter_shell/shell.c **** }
1659:Dsp/letter_shell/shell.c **** SHELL_EXPORT_CMD(
1660:Dsp/letter_shell/shell.c **** SHELL_CMD_PERMISSION(0)|SHELL_CMD_TYPE(SHELL_TYPE_CMD_MAIN)|SHELL_CMD_DISABLE_RETURN,
1661:Dsp/letter_shell/shell.c **** help, shellHelp, show command info\r\nhelp [cmd]);
1662:Dsp/letter_shell/shell.c **** 
1663:Dsp/letter_shell/shell.c **** /**
1664:Dsp/letter_shell/shell.c ****  * @brief shell 输入处理
1665:Dsp/letter_shell/shell.c ****  * 
1666:Dsp/letter_shell/shell.c ****  * @param shell shell对象
1667:Dsp/letter_shell/shell.c ****  * @param data 输入数据
1668:Dsp/letter_shell/shell.c ****  */
1669:Dsp/letter_shell/shell.c **** void shellHandler(Shell *shell, char data)
1670:Dsp/letter_shell/shell.c **** {
1671:Dsp/letter_shell/shell.c ****     SHELL_ASSERT(data, return);
1672:Dsp/letter_shell/shell.c **** 
1673:Dsp/letter_shell/shell.c **** #if SHELL_LOCK_TIMEOUT > 0
1674:Dsp/letter_shell/shell.c ****     if (shell->info.user->data.user.password
1675:Dsp/letter_shell/shell.c ****         && strlen(shell->info.user->data.user.password) != 0
1676:Dsp/letter_shell/shell.c ****         && SHELL_GET_TICK())
1677:Dsp/letter_shell/shell.c ****     {
1678:Dsp/letter_shell/shell.c ****         if (SHELL_GET_TICK() - shell->info.activeTime > SHELL_LOCK_TIMEOUT)
1679:Dsp/letter_shell/shell.c ****         {
1680:Dsp/letter_shell/shell.c ****             shell->status.isChecked = 0;
1681:Dsp/letter_shell/shell.c ****         }
1682:Dsp/letter_shell/shell.c ****     }
1683:Dsp/letter_shell/shell.c **** #endif
1684:Dsp/letter_shell/shell.c **** 
1685:Dsp/letter_shell/shell.c ****     /* 根据记录的按键键值计算当前字节在按键键值中的偏移 */
1686:Dsp/letter_shell/shell.c ****     char keyByteOffset = 24;
1687:Dsp/letter_shell/shell.c ****     int keyFilter = 0x00000000;
1688:Dsp/letter_shell/shell.c ****     if ((shell->parser.keyValue & 0x0000FF00) != 0x00000000)
1689:Dsp/letter_shell/shell.c ****     {
1690:Dsp/letter_shell/shell.c ****         keyByteOffset = 0;
1691:Dsp/letter_shell/shell.c ****         keyFilter = 0xFFFFFF00;
1692:Dsp/letter_shell/shell.c ****     }
1693:Dsp/letter_shell/shell.c ****     else if ((shell->parser.keyValue & 0x00FF0000) != 0x00000000)
1694:Dsp/letter_shell/shell.c ****     {
1695:Dsp/letter_shell/shell.c ****         keyByteOffset = 8;
1696:Dsp/letter_shell/shell.c ****         keyFilter = 0xFFFF0000;
1697:Dsp/letter_shell/shell.c ****     }
1698:Dsp/letter_shell/shell.c ****     else if ((shell->parser.keyValue & 0xFF000000) != 0x00000000)
1699:Dsp/letter_shell/shell.c ****     {
ARM GAS  /var/folders/lx/hc4sn_b53233_zkc9xbbl97r0000gp/T//ccoa1yNG.s 			page 57


1700:Dsp/letter_shell/shell.c ****         keyByteOffset = 16;
1701:Dsp/letter_shell/shell.c ****         keyFilter = 0xFF000000;
1702:Dsp/letter_shell/shell.c ****     }
1703:Dsp/letter_shell/shell.c **** 
1704:Dsp/letter_shell/shell.c ****     /* 遍历ShellCommand列表，尝试进行按键键值匹配 */
1705:Dsp/letter_shell/shell.c ****     ShellCommand *base = (ShellCommand *)shell->commandList.base;
1706:Dsp/letter_shell/shell.c ****     for (short i = 0; i < shell->commandList.count; i++)
1707:Dsp/letter_shell/shell.c ****     {
1708:Dsp/letter_shell/shell.c ****         /* 判断是否是按键定义并验证权限 */
1709:Dsp/letter_shell/shell.c ****         if (base[i].attr.attrs.type == SHELL_TYPE_KEY
1710:Dsp/letter_shell/shell.c ****             && shellCheckPermission(shell, &(base[i])) == 0)
1711:Dsp/letter_shell/shell.c ****         {
1712:Dsp/letter_shell/shell.c ****             /* 对输入的字节同按键键值进行匹配 */
1713:Dsp/letter_shell/shell.c ****             if ((base[i].data.key.value & keyFilter) == shell->parser.keyValue
1714:Dsp/letter_shell/shell.c ****                 && (base[i].data.key.value & (0xFF << keyByteOffset))
1715:Dsp/letter_shell/shell.c ****                     == (data << keyByteOffset))
1716:Dsp/letter_shell/shell.c ****             {
1717:Dsp/letter_shell/shell.c ****                 shell->parser.keyValue |= data << keyByteOffset;
1718:Dsp/letter_shell/shell.c ****                 data = 0x00;
1719:Dsp/letter_shell/shell.c ****                 if (keyByteOffset == 0 
1720:Dsp/letter_shell/shell.c ****                     || (base[i].data.key.value & (0xFF << (keyByteOffset - 8)))
1721:Dsp/letter_shell/shell.c ****                         == 0x00000000)
1722:Dsp/letter_shell/shell.c ****                 {
1723:Dsp/letter_shell/shell.c ****                     if (base[i].data.key.function)
1724:Dsp/letter_shell/shell.c ****                     {
1725:Dsp/letter_shell/shell.c ****                         base[i].data.key.function(shell);
1726:Dsp/letter_shell/shell.c ****                     }
1727:Dsp/letter_shell/shell.c ****                     shell->parser.keyValue = 0x00000000;
1728:Dsp/letter_shell/shell.c ****                     break;
1729:Dsp/letter_shell/shell.c ****                 }
1730:Dsp/letter_shell/shell.c ****             }
1731:Dsp/letter_shell/shell.c ****         }
1732:Dsp/letter_shell/shell.c ****     }
1733:Dsp/letter_shell/shell.c **** 
1734:Dsp/letter_shell/shell.c ****     if (data != 0x00)
1735:Dsp/letter_shell/shell.c ****     {
1736:Dsp/letter_shell/shell.c ****         shell->parser.keyValue = 0x00000000;
1737:Dsp/letter_shell/shell.c ****         shellNormalInput(shell, data);
1738:Dsp/letter_shell/shell.c ****     }
1739:Dsp/letter_shell/shell.c **** 
1740:Dsp/letter_shell/shell.c ****     if (SHELL_GET_TICK())
1741:Dsp/letter_shell/shell.c ****     {
1742:Dsp/letter_shell/shell.c ****         shell->info.activeTime = SHELL_GET_TICK();
1743:Dsp/letter_shell/shell.c ****     }
1744:Dsp/letter_shell/shell.c **** }
1745:Dsp/letter_shell/shell.c **** 
1746:Dsp/letter_shell/shell.c **** 
1747:Dsp/letter_shell/shell.c **** #if SHELL_SUPPORT_END_LINE == 1
1748:Dsp/letter_shell/shell.c **** void shellWriteEndLine(Shell *shell, char *buffer, int len)
1749:Dsp/letter_shell/shell.c **** {
1750:Dsp/letter_shell/shell.c ****     if (!shell->status.isActive)
1751:Dsp/letter_shell/shell.c ****     {
1752:Dsp/letter_shell/shell.c ****         shellWriteString(shell, shellText[SHELL_TEXT_CLEAR_LINE]);
1753:Dsp/letter_shell/shell.c ****     }
1754:Dsp/letter_shell/shell.c ****     while (len --)
1755:Dsp/letter_shell/shell.c ****     {
1756:Dsp/letter_shell/shell.c ****         shell->write(*buffer++);
ARM GAS  /var/folders/lx/hc4sn_b53233_zkc9xbbl97r0000gp/T//ccoa1yNG.s 			page 58


1757:Dsp/letter_shell/shell.c ****     }
1758:Dsp/letter_shell/shell.c ****     if (!shell->status.isActive)
1759:Dsp/letter_shell/shell.c ****     {
1760:Dsp/letter_shell/shell.c ****         shellWriteCommandLine(shell, 0);
1761:Dsp/letter_shell/shell.c ****         if (shell->parser.length > 0)
1762:Dsp/letter_shell/shell.c ****         {
1763:Dsp/letter_shell/shell.c ****             shellWriteString(shell, shell->parser.buffer);
1764:Dsp/letter_shell/shell.c ****             for (short i = 0; i < shell->parser.length - shell->parser.cursor; i++)
1765:Dsp/letter_shell/shell.c ****             {
1766:Dsp/letter_shell/shell.c ****                 shell->write('\b');
1767:Dsp/letter_shell/shell.c ****             }
1768:Dsp/letter_shell/shell.c ****         }
1769:Dsp/letter_shell/shell.c ****     }
1770:Dsp/letter_shell/shell.c **** }
1771:Dsp/letter_shell/shell.c **** #endif /** SHELL_SUPPORT_END_LINE == 1 */
1772:Dsp/letter_shell/shell.c **** 
1773:Dsp/letter_shell/shell.c **** 
1774:Dsp/letter_shell/shell.c **** /**
1775:Dsp/letter_shell/shell.c ****  * @brief shell 任务
1776:Dsp/letter_shell/shell.c ****  * 
1777:Dsp/letter_shell/shell.c ****  * @param param 参数(shell对象)
1778:Dsp/letter_shell/shell.c ****  * 
1779:Dsp/letter_shell/shell.c ****  */
1780:Dsp/letter_shell/shell.c **** void shellTask(void *param)
1781:Dsp/letter_shell/shell.c **** {
1782:Dsp/letter_shell/shell.c ****     Shell *shell = (Shell *)param;
1783:Dsp/letter_shell/shell.c ****     char data;
1784:Dsp/letter_shell/shell.c **** #if SHELL_TASK_WHILE == 1
1785:Dsp/letter_shell/shell.c ****     while(1)
1786:Dsp/letter_shell/shell.c ****     {
1787:Dsp/letter_shell/shell.c **** #endif
1788:Dsp/letter_shell/shell.c ****         if (shell->read && shell->read(&data) == 0)
1789:Dsp/letter_shell/shell.c ****         {
1790:Dsp/letter_shell/shell.c ****             shellHandler(shell, data);
1791:Dsp/letter_shell/shell.c ****         }
1792:Dsp/letter_shell/shell.c **** #if SHELL_TASK_WHILE == 1
1793:Dsp/letter_shell/shell.c ****     }
1794:Dsp/letter_shell/shell.c **** #endif
1795:Dsp/letter_shell/shell.c **** }
1796:Dsp/letter_shell/shell.c **** 
1797:Dsp/letter_shell/shell.c **** 
1798:Dsp/letter_shell/shell.c **** /**
1799:Dsp/letter_shell/shell.c ****  * @brief shell 输出用户列表(shell调用)
1800:Dsp/letter_shell/shell.c ****  */
1801:Dsp/letter_shell/shell.c **** void shellUsers(void)
1802:Dsp/letter_shell/shell.c **** {
1803:Dsp/letter_shell/shell.c ****     Shell *shell = shellGetCurrent();
1804:Dsp/letter_shell/shell.c ****     if (shell)
1805:Dsp/letter_shell/shell.c ****     {
1806:Dsp/letter_shell/shell.c ****         shellListUser(shell);
1807:Dsp/letter_shell/shell.c ****     }
1808:Dsp/letter_shell/shell.c **** }
1809:Dsp/letter_shell/shell.c **** SHELL_EXPORT_CMD(
1810:Dsp/letter_shell/shell.c **** SHELL_CMD_PERMISSION(0)|SHELL_CMD_TYPE(SHELL_TYPE_CMD_FUNC)|SHELL_CMD_DISABLE_RETURN,
1811:Dsp/letter_shell/shell.c **** users, shellUsers, list all user);
1812:Dsp/letter_shell/shell.c **** 
1813:Dsp/letter_shell/shell.c **** 
ARM GAS  /var/folders/lx/hc4sn_b53233_zkc9xbbl97r0000gp/T//ccoa1yNG.s 			page 59


1814:Dsp/letter_shell/shell.c **** /**
1815:Dsp/letter_shell/shell.c ****  * @brief shell 输出命令列表(shell调用)
1816:Dsp/letter_shell/shell.c ****  */
1817:Dsp/letter_shell/shell.c **** void shellCmds(void)
1818:Dsp/letter_shell/shell.c **** {
1819:Dsp/letter_shell/shell.c ****     Shell *shell = shellGetCurrent();
1820:Dsp/letter_shell/shell.c ****     if (shell)
1821:Dsp/letter_shell/shell.c ****     {
1822:Dsp/letter_shell/shell.c ****         shellListCommand(shell);
1823:Dsp/letter_shell/shell.c ****     }
1824:Dsp/letter_shell/shell.c **** }
1825:Dsp/letter_shell/shell.c **** SHELL_EXPORT_CMD(
1826:Dsp/letter_shell/shell.c **** SHELL_CMD_PERMISSION(0)|SHELL_CMD_TYPE(SHELL_TYPE_CMD_FUNC)|SHELL_CMD_DISABLE_RETURN,
1827:Dsp/letter_shell/shell.c **** cmds, shellCmds, list all cmd);
1828:Dsp/letter_shell/shell.c **** 
1829:Dsp/letter_shell/shell.c **** 
1830:Dsp/letter_shell/shell.c **** /**
1831:Dsp/letter_shell/shell.c ****  * @brief shell 输出变量列表(shell调用)
1832:Dsp/letter_shell/shell.c ****  */
1833:Dsp/letter_shell/shell.c **** void shellVars(void)
1834:Dsp/letter_shell/shell.c **** {
1835:Dsp/letter_shell/shell.c ****     Shell *shell = shellGetCurrent();
1836:Dsp/letter_shell/shell.c ****     if (shell)
1837:Dsp/letter_shell/shell.c ****     {
1838:Dsp/letter_shell/shell.c ****         shellListVar(shell);
1839:Dsp/letter_shell/shell.c ****     }
1840:Dsp/letter_shell/shell.c **** }
1841:Dsp/letter_shell/shell.c **** SHELL_EXPORT_CMD(
1842:Dsp/letter_shell/shell.c **** SHELL_CMD_PERMISSION(0)|SHELL_CMD_TYPE(SHELL_TYPE_CMD_FUNC)|SHELL_CMD_DISABLE_RETURN,
1843:Dsp/letter_shell/shell.c **** vars, shellVars, list all var);
1844:Dsp/letter_shell/shell.c **** 
1845:Dsp/letter_shell/shell.c **** 
1846:Dsp/letter_shell/shell.c **** /**
1847:Dsp/letter_shell/shell.c ****  * @brief shell 输出按键列表(shell调用)
1848:Dsp/letter_shell/shell.c ****  */
1849:Dsp/letter_shell/shell.c **** void shellKeys(void)
1850:Dsp/letter_shell/shell.c **** {
1851:Dsp/letter_shell/shell.c ****     Shell *shell = shellGetCurrent();
1852:Dsp/letter_shell/shell.c ****     if (shell)
1853:Dsp/letter_shell/shell.c ****     {
1854:Dsp/letter_shell/shell.c ****         shellListKey(shell);
1855:Dsp/letter_shell/shell.c ****     }
1856:Dsp/letter_shell/shell.c **** }
1857:Dsp/letter_shell/shell.c **** SHELL_EXPORT_CMD(
1858:Dsp/letter_shell/shell.c **** SHELL_CMD_PERMISSION(0)|SHELL_CMD_TYPE(SHELL_TYPE_CMD_FUNC)|SHELL_CMD_DISABLE_RETURN,
1859:Dsp/letter_shell/shell.c **** keys, shellKeys, list all key);
1860:Dsp/letter_shell/shell.c **** 
1861:Dsp/letter_shell/shell.c **** 
1862:Dsp/letter_shell/shell.c **** /**
1863:Dsp/letter_shell/shell.c ****  * @brief shell 清空控制台(shell调用)
1864:Dsp/letter_shell/shell.c ****  */
1865:Dsp/letter_shell/shell.c **** void shellClear(void)
1866:Dsp/letter_shell/shell.c **** {
 1271              		.loc 1 1866 1 view -0
 1272              		.cfi_startproc
 1273              		@ args = 0, pretend = 0, frame = 0
 1274              		@ frame_needed = 0, uses_anonymous_args = 0
ARM GAS  /var/folders/lx/hc4sn_b53233_zkc9xbbl97r0000gp/T//ccoa1yNG.s 			page 60


 1275 0000 08B5     		push	{r3, lr}
 1276              	.LCFI12:
 1277              		.cfi_def_cfa_offset 8
 1278              		.cfi_offset 3, -8
 1279              		.cfi_offset 14, -4
1867:Dsp/letter_shell/shell.c ****     Shell *shell = shellGetCurrent();
 1280              		.loc 1 1867 5 view .LVU351
 1281              		.loc 1 1867 20 is_stmt 0 view .LVU352
 1282 0002 FFF7FEFF 		bl	shellGetCurrent
 1283              	.LVL113:
1868:Dsp/letter_shell/shell.c ****     if (shell)
 1284              		.loc 1 1868 5 is_stmt 1 view .LVU353
 1285              		.loc 1 1868 8 is_stmt 0 view .LVU354
 1286 0006 10B1     		cbz	r0, .L116
1869:Dsp/letter_shell/shell.c ****     {
1870:Dsp/letter_shell/shell.c ****         shellWriteString(shell, shellText[SHELL_TEXT_CLEAR_CONSOLE]);
 1287              		.loc 1 1870 9 is_stmt 1 view .LVU355
 1288 0008 0149     		ldr	r1, .L119
 1289 000a FFF7FEFF 		bl	shellWriteString
 1290              	.LVL114:
 1291              	.L116:
1871:Dsp/letter_shell/shell.c ****     }
1872:Dsp/letter_shell/shell.c **** }
 1292              		.loc 1 1872 1 is_stmt 0 view .LVU356
 1293 000e 08BD     		pop	{r3, pc}
 1294              	.L120:
 1295              		.align	2
 1296              	.L119:
 1297 0010 00000000 		.word	.LC0
 1298              		.cfi_endproc
 1299              	.LFE182:
 1301              		.section	.text.shellPrint,"ax",%progbits
 1302              		.align	1
 1303              		.global	shellPrint
 1304              		.syntax unified
 1305              		.thumb
 1306              		.thumb_func
 1307              		.fpu fpv4-sp-d16
 1309              	shellPrint:
 1310              	.LVL115:
 1311              	.LFB133:
 361:Dsp/letter_shell/shell.c ****     char buffer[SHELL_PRINT_BUFFER];
 1312              		.loc 1 361 1 is_stmt 1 view -0
 1313              		.cfi_startproc
 1314              		@ args = 4, pretend = 12, frame = 136
 1315              		@ frame_needed = 0, uses_anonymous_args = 1
 362:Dsp/letter_shell/shell.c ****     va_list vargs;
 1316              		.loc 1 362 5 view .LVU358
 363:Dsp/letter_shell/shell.c **** 
 1317              		.loc 1 363 5 view .LVU359
 365:Dsp/letter_shell/shell.c **** 
 1318              		.loc 1 365 5 view .LVU360
 1319 0000 98B1     		cbz	r0, .L125
 361:Dsp/letter_shell/shell.c ****     char buffer[SHELL_PRINT_BUFFER];
 1320              		.loc 1 361 1 is_stmt 0 discriminator 2 view .LVU361
 1321 0002 0EB4     		push	{r1, r2, r3}
 1322              	.LCFI13:
ARM GAS  /var/folders/lx/hc4sn_b53233_zkc9xbbl97r0000gp/T//ccoa1yNG.s 			page 61


 1323              		.cfi_def_cfa_offset 12
 1324              		.cfi_offset 1, -12
 1325              		.cfi_offset 2, -8
 1326              		.cfi_offset 3, -4
 1327 0004 10B5     		push	{r4, lr}
 1328              	.LCFI14:
 1329              		.cfi_def_cfa_offset 20
 1330              		.cfi_offset 4, -20
 1331              		.cfi_offset 14, -16
 1332 0006 A3B0     		sub	sp, sp, #140
 1333              	.LCFI15:
 1334              		.cfi_def_cfa_offset 160
 1335 0008 0446     		mov	r4, r0
 365:Dsp/letter_shell/shell.c **** 
 1336              		.loc 1 365 32 is_stmt 1 discriminator 2 view .LVU362
 367:Dsp/letter_shell/shell.c ****     vsnprintf(buffer, SHELL_PRINT_BUFFER - 1, fmt, vargs);
 1337              		.loc 1 367 5 discriminator 2 view .LVU363
 1338 000a 26AB     		add	r3, sp, #152
 1339 000c 0193     		str	r3, [sp, #4]
 368:Dsp/letter_shell/shell.c ****     va_end(vargs);
 1340              		.loc 1 368 5 discriminator 2 view .LVU364
 1341 000e 259A     		ldr	r2, [sp, #148]
 1342 0010 7F21     		movs	r1, #127
 1343 0012 02A8     		add	r0, sp, #8
 1344 0014 FFF7FEFF 		bl	vsnprintf
 1345              	.LVL116:
 369:Dsp/letter_shell/shell.c ****     
 1346              		.loc 1 369 5 discriminator 2 view .LVU365
 371:Dsp/letter_shell/shell.c **** }
 1347              		.loc 1 371 5 discriminator 2 view .LVU366
 1348 0018 02A9     		add	r1, sp, #8
 1349 001a 2046     		mov	r0, r4
 1350 001c FFF7FEFF 		bl	shellWriteString
 1351              	.LVL117:
 372:Dsp/letter_shell/shell.c **** #endif
 1352              		.loc 1 372 1 is_stmt 0 discriminator 2 view .LVU367
 1353 0020 23B0     		add	sp, sp, #140
 1354              	.LCFI16:
 1355              		.cfi_def_cfa_offset 20
 1356              		@ sp needed
 1357 0022 BDE81040 		pop	{r4, lr}
 1358              	.LCFI17:
 1359              		.cfi_restore 14
 1360              		.cfi_restore 4
 1361              		.cfi_def_cfa_offset 12
 1362              	.LVL118:
 372:Dsp/letter_shell/shell.c **** #endif
 1363              		.loc 1 372 1 discriminator 2 view .LVU368
 1364 0026 03B0     		add	sp, sp, #12
 1365              	.LCFI18:
 1366              		.cfi_restore 3
 1367              		.cfi_restore 2
 1368              		.cfi_restore 1
 1369              		.cfi_def_cfa_offset 0
 1370 0028 7047     		bx	lr
 1371              	.LVL119:
 1372              	.L125:
ARM GAS  /var/folders/lx/hc4sn_b53233_zkc9xbbl97r0000gp/T//ccoa1yNG.s 			page 62


 372:Dsp/letter_shell/shell.c **** #endif
 1373              		.loc 1 372 1 discriminator 2 view .LVU369
 1374 002a 7047     		bx	lr
 1375              		.cfi_endproc
 1376              	.LFE133:
 1378              		.section	.text.shellScan,"ax",%progbits
 1379              		.align	1
 1380              		.global	shellScan
 1381              		.syntax unified
 1382              		.thumb
 1383              		.thumb_func
 1384              		.fpu fpv4-sp-d16
 1386              	shellScan:
 1387              	.LVL120:
 1388              	.LFB134:
 385:Dsp/letter_shell/shell.c ****     char buffer[SHELL_SCAN_BUFFER];
 1389              		.loc 1 385 1 is_stmt 1 view -0
 1390              		.cfi_startproc
 1391              		@ args = 4, pretend = 12, frame = 8
 1392              		@ frame_needed = 0, uses_anonymous_args = 1
 386:Dsp/letter_shell/shell.c ****     va_list vargs;
 1393              		.loc 1 386 5 view .LVU371
 387:Dsp/letter_shell/shell.c ****     short index = 0;
 1394              		.loc 1 387 5 view .LVU372
 388:Dsp/letter_shell/shell.c **** 
 1395              		.loc 1 388 5 view .LVU373
 390:Dsp/letter_shell/shell.c **** 
 1396              		.loc 1 390 5 view .LVU374
 1397 0000 0028     		cmp	r0, #0
 1398 0002 36D0     		beq	.L136
 385:Dsp/letter_shell/shell.c ****     char buffer[SHELL_SCAN_BUFFER];
 1399              		.loc 1 385 1 is_stmt 0 discriminator 2 view .LVU375
 1400 0004 0EB4     		push	{r1, r2, r3}
 1401              	.LCFI19:
 1402              		.cfi_def_cfa_offset 12
 1403              		.cfi_offset 1, -12
 1404              		.cfi_offset 2, -8
 1405              		.cfi_offset 3, -4
 1406 0006 70B5     		push	{r4, r5, r6, lr}
 1407              	.LCFI20:
 1408              		.cfi_def_cfa_offset 28
 1409              		.cfi_offset 4, -28
 1410              		.cfi_offset 5, -24
 1411              		.cfi_offset 6, -20
 1412              		.cfi_offset 14, -16
 1413 0008 83B0     		sub	sp, sp, #12
 1414              	.LCFI21:
 1415              		.cfi_def_cfa_offset 40
 1416 000a 0546     		mov	r5, r0
 390:Dsp/letter_shell/shell.c **** 
 1417              		.loc 1 390 32 is_stmt 1 discriminator 2 view .LVU376
 392:Dsp/letter_shell/shell.c ****     {
 1418              		.loc 1 392 5 discriminator 2 view .LVU377
 392:Dsp/letter_shell/shell.c ****     {
 1419              		.loc 1 392 14 is_stmt 0 discriminator 2 view .LVU378
 1420 000c 436E     		ldr	r3, [r0, #100]
 392:Dsp/letter_shell/shell.c ****     {
ARM GAS  /var/folders/lx/hc4sn_b53233_zkc9xbbl97r0000gp/T//ccoa1yNG.s 			page 63


 1421              		.loc 1 392 8 discriminator 2 view .LVU379
 1422 000e 2BB3     		cbz	r3, .L131
 388:Dsp/letter_shell/shell.c **** 
 1423              		.loc 1 388 11 view .LVU380
 1424 0010 0024     		movs	r4, #0
 1425 0012 13E0     		b	.L134
 1426              	.LVL121:
 1427              	.L139:
 397:Dsp/letter_shell/shell.c ****                 index++;
 1428              		.loc 1 397 17 is_stmt 1 view .LVU381
 397:Dsp/letter_shell/shell.c ****                 index++;
 1429              		.loc 1 397 22 is_stmt 0 view .LVU382
 1430 0014 AB6E     		ldr	r3, [r5, #104]
 397:Dsp/letter_shell/shell.c ****                 index++;
 1431              		.loc 1 397 17 view .LVU383
 1432 0016 02AA     		add	r2, sp, #8
 1433 0018 2244     		add	r2, r2, r4
 1434 001a 12F8040C 		ldrb	r0, [r2, #-4]	@ zero_extendqisi2
 1435 001e 9847     		blx	r3
 1436              	.LVL122:
 398:Dsp/letter_shell/shell.c ****             }
 1437              		.loc 1 398 17 is_stmt 1 view .LVU384
 398:Dsp/letter_shell/shell.c ****             }
 1438              		.loc 1 398 22 is_stmt 0 view .LVU385
 1439 0020 0134     		adds	r4, r4, #1
 1440              	.LVL123:
 398:Dsp/letter_shell/shell.c ****             }
 1441              		.loc 1 398 22 view .LVU386
 1442 0022 24B2     		sxth	r4, r4
 1443              	.LVL124:
 1444              	.L132:
 400:Dsp/letter_shell/shell.c ****         shellWriteString(shell, "\r\n");
 1445              		.loc 1 400 17 is_stmt 1 view .LVU387
 400:Dsp/letter_shell/shell.c ****         shellWriteString(shell, "\r\n");
 1446              		.loc 1 400 31 is_stmt 0 view .LVU388
 1447 0024 2646     		mov	r6, r4
 1448 0026 631E     		subs	r3, r4, #1
 400:Dsp/letter_shell/shell.c ****         shellWriteString(shell, "\r\n");
 1449              		.loc 1 400 24 view .LVU389
 1450 0028 02AA     		add	r2, sp, #8
 1451 002a 1344     		add	r3, r3, r2
 1452 002c 13F8043C 		ldrb	r3, [r3, #-4]	@ zero_extendqisi2
 400:Dsp/letter_shell/shell.c ****         shellWriteString(shell, "\r\n");
 1453              		.loc 1 400 9 view .LVU390
 1454 0030 0D2B     		cmp	r3, #13
 1455 0032 0AD0     		beq	.L133
 400:Dsp/letter_shell/shell.c ****         shellWriteString(shell, "\r\n");
 1456              		.loc 1 400 43 discriminator 1 view .LVU391
 1457 0034 0A2B     		cmp	r3, #10
 1458 0036 08D0     		beq	.L133
 400:Dsp/letter_shell/shell.c ****         shellWriteString(shell, "\r\n");
 1459              		.loc 1 400 71 discriminator 2 view .LVU392
 1460 0038 002C     		cmp	r4, #0
 1461 003a 06DC     		bgt	.L133
 1462              	.LVL125:
 1463              	.L134:
 394:Dsp/letter_shell/shell.c ****             if (shell->read(&buffer[index]) == 0)
ARM GAS  /var/folders/lx/hc4sn_b53233_zkc9xbbl97r0000gp/T//ccoa1yNG.s 			page 64


 1464              		.loc 1 394 9 is_stmt 1 view .LVU393
 395:Dsp/letter_shell/shell.c ****             {
 1465              		.loc 1 395 13 view .LVU394
 395:Dsp/letter_shell/shell.c ****             {
 1466              		.loc 1 395 22 is_stmt 0 view .LVU395
 1467 003c 6B6E     		ldr	r3, [r5, #100]
 395:Dsp/letter_shell/shell.c ****             {
 1468              		.loc 1 395 17 view .LVU396
 1469 003e 01AA     		add	r2, sp, #4
 1470 0040 1019     		adds	r0, r2, r4
 1471 0042 9847     		blx	r3
 1472              	.LVL126:
 395:Dsp/letter_shell/shell.c ****             {
 1473              		.loc 1 395 16 view .LVU397
 1474 0044 0028     		cmp	r0, #0
 1475 0046 EDD1     		bne	.L132
 1476 0048 E4E7     		b	.L139
 1477              	.L133:
 401:Dsp/letter_shell/shell.c ****         buffer[index] = '\0';
 1478              		.loc 1 401 9 is_stmt 1 view .LVU398
 1479 004a 0A49     		ldr	r1, .L140
 1480 004c 2846     		mov	r0, r5
 1481 004e FFF7FEFF 		bl	shellWriteString
 1482              	.LVL127:
 402:Dsp/letter_shell/shell.c ****     }
 1483              		.loc 1 402 9 view .LVU399
 402:Dsp/letter_shell/shell.c ****     }
 1484              		.loc 1 402 23 is_stmt 0 view .LVU400
 1485 0052 02AB     		add	r3, sp, #8
 1486 0054 1E44     		add	r6, r6, r3
 1487 0056 0023     		movs	r3, #0
 1488 0058 06F8043C 		strb	r3, [r6, #-4]
 1489              	.LVL128:
 1490              	.L131:
 405:Dsp/letter_shell/shell.c ****     vsscanf(buffer, fmt, vargs);
 1491              		.loc 1 405 5 is_stmt 1 view .LVU401
 1492 005c 08AA     		add	r2, sp, #32
 1493 005e 0092     		str	r2, [sp]
 406:Dsp/letter_shell/shell.c ****     va_end(vargs);
 1494              		.loc 1 406 5 view .LVU402
 1495 0060 0799     		ldr	r1, [sp, #28]
 1496 0062 01A8     		add	r0, sp, #4
 1497 0064 FFF7FEFF 		bl	vsscanf
 1498              	.LVL129:
 407:Dsp/letter_shell/shell.c **** }
 1499              		.loc 1 407 5 view .LVU403
 408:Dsp/letter_shell/shell.c **** #endif
 1500              		.loc 1 408 1 is_stmt 0 view .LVU404
 1501 0068 03B0     		add	sp, sp, #12
 1502              	.LCFI22:
 1503              		.cfi_def_cfa_offset 28
 1504              		@ sp needed
 1505 006a BDE87040 		pop	{r4, r5, r6, lr}
 1506              	.LCFI23:
 1507              		.cfi_restore 14
 1508              		.cfi_restore 6
 1509              		.cfi_restore 5
ARM GAS  /var/folders/lx/hc4sn_b53233_zkc9xbbl97r0000gp/T//ccoa1yNG.s 			page 65


 1510              		.cfi_restore 4
 1511              		.cfi_def_cfa_offset 12
 1512              	.LVL130:
 408:Dsp/letter_shell/shell.c **** #endif
 1513              		.loc 1 408 1 view .LVU405
 1514 006e 03B0     		add	sp, sp, #12
 1515              	.LCFI24:
 1516              		.cfi_restore 3
 1517              		.cfi_restore 2
 1518              		.cfi_restore 1
 1519              		.cfi_def_cfa_offset 0
 1520 0070 7047     		bx	lr
 1521              	.LVL131:
 1522              	.L136:
 408:Dsp/letter_shell/shell.c **** #endif
 1523              		.loc 1 408 1 view .LVU406
 1524 0072 7047     		bx	lr
 1525              	.L141:
 1526              		.align	2
 1527              	.L140:
 1528 0074 04000000 		.word	.LC3
 1529              		.cfi_endproc
 1530              	.LFE134:
 1532              		.section	.text.shellCheckPermission,"ax",%progbits
 1533              		.align	1
 1534              		.global	shellCheckPermission
 1535              		.syntax unified
 1536              		.thumb
 1537              		.thumb_func
 1538              		.fpu fpv4-sp-d16
 1540              	shellCheckPermission:
 1541              	.LVL132:
 1542              	.LFB135:
 422:Dsp/letter_shell/shell.c ****     return ((!command->attr.attrs.permission
 1543              		.loc 1 422 1 is_stmt 1 view -0
 1544              		.cfi_startproc
 1545              		@ args = 0, pretend = 0, frame = 0
 1546              		@ frame_needed = 0, uses_anonymous_args = 0
 1547              		@ link register save eliminated.
 423:Dsp/letter_shell/shell.c ****                 || command->attr.attrs.type == SHELL_TYPE_USER
 1548              		.loc 1 423 5 view .LVU408
 423:Dsp/letter_shell/shell.c ****                 || command->attr.attrs.type == SHELL_TYPE_USER
 1549              		.loc 1 423 34 is_stmt 0 view .LVU409
 1550 0000 0B78     		ldrb	r3, [r1]	@ zero_extendqisi2
 429:Dsp/letter_shell/shell.c **** }
 1551              		.loc 1 429 17 view .LVU410
 1552 0002 43B1     		cbz	r3, .L143
 424:Dsp/letter_shell/shell.c ****                 || (command->attr.attrs.permission 
 1553              		.loc 1 424 45 view .LVU411
 1554 0004 4A78     		ldrb	r2, [r1, #1]	@ zero_extendqisi2
 1555 0006 02F00F02 		and	r2, r2, #15
 424:Dsp/letter_shell/shell.c ****                 || (command->attr.attrs.permission 
 1556              		.loc 1 424 17 view .LVU412
 1557 000a 082A     		cmp	r2, #8
 1558 000c 03D0     		beq	.L143
 426:Dsp/letter_shell/shell.c ****             && (shell->status.isChecked
 1559              		.loc 1 426 34 view .LVU413
ARM GAS  /var/folders/lx/hc4sn_b53233_zkc9xbbl97r0000gp/T//ccoa1yNG.s 			page 66


 1560 000e 0268     		ldr	r2, [r0]
 426:Dsp/letter_shell/shell.c ****             && (shell->status.isChecked
 1561              		.loc 1 426 51 view .LVU414
 1562 0010 1278     		ldrb	r2, [r2]	@ zero_extendqisi2
 425:Dsp/letter_shell/shell.c ****                     & shell->info.user->attr.attrs.permission))
 1563              		.loc 1 425 17 view .LVU415
 1564 0012 1342     		tst	r3, r2
 1565 0014 0DD0     		beq	.L145
 1566              	.L143:
 427:Dsp/letter_shell/shell.c ****                 || command->attr.attrs.enableUnchecked))
 1567              		.loc 1 427 17 view .LVU416
 1568 0016 90F86030 		ldrb	r3, [r0, #96]	@ zero_extendqisi2
 427:Dsp/letter_shell/shell.c ****                 || command->attr.attrs.enableUnchecked))
 1569              		.loc 1 427 13 view .LVU417
 1570 001a 13F0010F 		tst	r3, #1
 1571 001e 0BD1     		bne	.L146
 428:Dsp/letter_shell/shell.c ****             ? 0 : -1;
 1572              		.loc 1 428 17 view .LVU418
 1573 0020 4B78     		ldrb	r3, [r1, #1]	@ zero_extendqisi2
 1574 0022 13F0100F 		tst	r3, #16
 1575 0026 01D0     		beq	.L148
 429:Dsp/letter_shell/shell.c **** }
 1576              		.loc 1 429 17 view .LVU419
 1577 0028 0020     		movs	r0, #0
 1578              	.LVL133:
 430:Dsp/letter_shell/shell.c **** 
 1579              		.loc 1 430 1 view .LVU420
 1580 002a 7047     		bx	lr
 1581              	.LVL134:
 1582              	.L148:
 429:Dsp/letter_shell/shell.c **** }
 1583              		.loc 1 429 17 view .LVU421
 1584 002c 4FF0FF30 		mov	r0, #-1
 1585              	.LVL135:
 429:Dsp/letter_shell/shell.c **** }
 1586              		.loc 1 429 17 view .LVU422
 1587 0030 7047     		bx	lr
 1588              	.LVL136:
 1589              	.L145:
 429:Dsp/letter_shell/shell.c **** }
 1590              		.loc 1 429 17 view .LVU423
 1591 0032 4FF0FF30 		mov	r0, #-1
 1592              	.LVL137:
 429:Dsp/letter_shell/shell.c **** }
 1593              		.loc 1 429 17 view .LVU424
 1594 0036 7047     		bx	lr
 1595              	.LVL138:
 1596              	.L146:
 429:Dsp/letter_shell/shell.c **** }
 1597              		.loc 1 429 17 view .LVU425
 1598 0038 0020     		movs	r0, #0
 1599              	.LVL139:
 429:Dsp/letter_shell/shell.c **** }
 1600              		.loc 1 429 17 view .LVU426
 1601 003a 7047     		bx	lr
 1602              		.cfi_endproc
 1603              	.LFE135:
ARM GAS  /var/folders/lx/hc4sn_b53233_zkc9xbbl97r0000gp/T//ccoa1yNG.s 			page 67


 1605              		.section	.text.shellToHex,"ax",%progbits
 1606              		.align	1
 1607              		.global	shellToHex
 1608              		.syntax unified
 1609              		.thumb
 1610              		.thumb_func
 1611              		.fpu fpv4-sp-d16
 1613              	shellToHex:
 1614              	.LVL140:
 1615              	.LFB136:
 442:Dsp/letter_shell/shell.c ****     char byte;
 1616              		.loc 1 442 1 is_stmt 1 view -0
 1617              		.cfi_startproc
 1618              		@ args = 0, pretend = 0, frame = 0
 1619              		@ frame_needed = 0, uses_anonymous_args = 0
 1620              		@ link register save eliminated.
 443:Dsp/letter_shell/shell.c ****     unsigned char i = 8;
 1621              		.loc 1 443 5 view .LVU428
 444:Dsp/letter_shell/shell.c ****     buffer[8] = 0;
 1622              		.loc 1 444 5 view .LVU429
 445:Dsp/letter_shell/shell.c ****     while (value)
 1623              		.loc 1 445 5 view .LVU430
 445:Dsp/letter_shell/shell.c ****     while (value)
 1624              		.loc 1 445 15 is_stmt 0 view .LVU431
 1625 0000 0023     		movs	r3, #0
 1626 0002 0B72     		strb	r3, [r1, #8]
 446:Dsp/letter_shell/shell.c ****     {
 1627              		.loc 1 446 5 is_stmt 1 view .LVU432
 444:Dsp/letter_shell/shell.c ****     buffer[8] = 0;
 1628              		.loc 1 444 19 is_stmt 0 view .LVU433
 1629 0004 0823     		movs	r3, #8
 446:Dsp/letter_shell/shell.c ****     {
 1630              		.loc 1 446 11 view .LVU434
 1631 0006 04E0     		b	.L150
 1632              	.LVL141:
 1633              	.L151:
 449:Dsp/letter_shell/shell.c ****         value >>= 4;
 1634              		.loc 1 449 21 discriminator 2 view .LVU435
 1635 0008 3032     		adds	r2, r2, #48
 1636              	.LVL142:
 1637              	.L152:
 449:Dsp/letter_shell/shell.c ****         value >>= 4;
 1638              		.loc 1 449 21 discriminator 4 view .LVU436
 1639 000a 013B     		subs	r3, r3, #1
 1640              	.LVL143:
 449:Dsp/letter_shell/shell.c ****         value >>= 4;
 1641              		.loc 1 449 21 discriminator 4 view .LVU437
 1642 000c DBB2     		uxtb	r3, r3
 1643              	.LVL144:
 449:Dsp/letter_shell/shell.c ****         value >>= 4;
 1644              		.loc 1 449 21 discriminator 4 view .LVU438
 1645 000e CA54     		strb	r2, [r1, r3]
 450:Dsp/letter_shell/shell.c ****     }
 1646              		.loc 1 450 9 is_stmt 1 discriminator 4 view .LVU439
 450:Dsp/letter_shell/shell.c ****     }
 1647              		.loc 1 450 15 is_stmt 0 discriminator 4 view .LVU440
 1648 0010 0009     		lsrs	r0, r0, #4
ARM GAS  /var/folders/lx/hc4sn_b53233_zkc9xbbl97r0000gp/T//ccoa1yNG.s 			page 68


 1649              	.LVL145:
 1650              	.L150:
 446:Dsp/letter_shell/shell.c ****     {
 1651              		.loc 1 446 11 is_stmt 1 view .LVU441
 1652 0012 28B1     		cbz	r0, .L154
 448:Dsp/letter_shell/shell.c ****         buffer[--i] = (byte > 9) ? (byte + 87) : (byte + 48);
 1653              		.loc 1 448 9 view .LVU442
 448:Dsp/letter_shell/shell.c ****         buffer[--i] = (byte > 9) ? (byte + 87) : (byte + 48);
 1654              		.loc 1 448 14 is_stmt 0 view .LVU443
 1655 0014 00F00F02 		and	r2, r0, #15
 1656              	.LVL146:
 449:Dsp/letter_shell/shell.c ****         value >>= 4;
 1657              		.loc 1 449 9 is_stmt 1 view .LVU444
 449:Dsp/letter_shell/shell.c ****         value >>= 4;
 1658              		.loc 1 449 21 is_stmt 0 view .LVU445
 1659 0018 092A     		cmp	r2, #9
 1660 001a F5D9     		bls	.L151
 449:Dsp/letter_shell/shell.c ****         value >>= 4;
 1661              		.loc 1 449 21 discriminator 1 view .LVU446
 1662 001c 5732     		adds	r2, r2, #87
 1663              	.LVL147:
 449:Dsp/letter_shell/shell.c ****         value >>= 4;
 1664              		.loc 1 449 21 discriminator 1 view .LVU447
 1665 001e F4E7     		b	.L152
 1666              	.LVL148:
 1667              	.L154:
 452:Dsp/letter_shell/shell.c **** }
 1668              		.loc 1 452 5 is_stmt 1 view .LVU448
 452:Dsp/letter_shell/shell.c **** }
 1669              		.loc 1 452 14 is_stmt 0 view .LVU449
 1670 0020 C3F10800 		rsb	r0, r3, #8
 1671              	.LVL149:
 453:Dsp/letter_shell/shell.c **** 
 1672              		.loc 1 453 1 view .LVU450
 1673 0024 40B2     		sxtb	r0, r0
 1674 0026 7047     		bx	lr
 1675              		.cfi_endproc
 1676              	.LFE136:
 1678              		.section	.text.shellGetCommandName,"ax",%progbits
 1679              		.align	1
 1680              		.syntax unified
 1681              		.thumb
 1682              		.thumb_func
 1683              		.fpu fpv4-sp-d16
 1685              	shellGetCommandName:
 1686              	.LVL150:
 1687              	.LFB140:
 541:Dsp/letter_shell/shell.c ****     static char buffer[9];
 1688              		.loc 1 541 1 is_stmt 1 view -0
 1689              		.cfi_startproc
 1690              		@ args = 0, pretend = 0, frame = 0
 1691              		@ frame_needed = 0, uses_anonymous_args = 0
 542:Dsp/letter_shell/shell.c ****     for (unsigned char i = 0; i < 9; i++)
 1692              		.loc 1 542 5 view .LVU452
 543:Dsp/letter_shell/shell.c ****     {
 1693              		.loc 1 543 5 view .LVU453
 1694              	.LBB8:
ARM GAS  /var/folders/lx/hc4sn_b53233_zkc9xbbl97r0000gp/T//ccoa1yNG.s 			page 69


 543:Dsp/letter_shell/shell.c ****     {
 1695              		.loc 1 543 10 view .LVU454
 543:Dsp/letter_shell/shell.c ****     {
 1696              		.loc 1 543 24 is_stmt 0 view .LVU455
 1697 0000 0023     		movs	r3, #0
 543:Dsp/letter_shell/shell.c ****     {
 1698              		.loc 1 543 5 view .LVU456
 1699 0002 04E0     		b	.L156
 1700              	.LVL151:
 1701              	.L157:
 545:Dsp/letter_shell/shell.c ****     }
 1702              		.loc 1 545 9 is_stmt 1 discriminator 3 view .LVU457
 545:Dsp/letter_shell/shell.c ****     }
 1703              		.loc 1 545 19 is_stmt 0 discriminator 3 view .LVU458
 1704 0004 0E4A     		ldr	r2, .L167
 1705 0006 3021     		movs	r1, #48
 1706 0008 D154     		strb	r1, [r2, r3]
 543:Dsp/letter_shell/shell.c ****     {
 1707              		.loc 1 543 38 is_stmt 1 discriminator 3 view .LVU459
 543:Dsp/letter_shell/shell.c ****     {
 1708              		.loc 1 543 39 is_stmt 0 discriminator 3 view .LVU460
 1709 000a 0133     		adds	r3, r3, #1
 1710              	.LVL152:
 543:Dsp/letter_shell/shell.c ****     {
 1711              		.loc 1 543 39 discriminator 3 view .LVU461
 1712 000c DBB2     		uxtb	r3, r3
 1713              	.LVL153:
 1714              	.L156:
 543:Dsp/letter_shell/shell.c ****     {
 1715              		.loc 1 543 31 is_stmt 1 discriminator 1 view .LVU462
 543:Dsp/letter_shell/shell.c ****     {
 1716              		.loc 1 543 5 is_stmt 0 discriminator 1 view .LVU463
 1717 000e 082B     		cmp	r3, #8
 1718 0010 F8D9     		bls	.L157
 1719              	.LBE8:
 547:Dsp/letter_shell/shell.c ****     {
 1720              		.loc 1 547 5 is_stmt 1 view .LVU464
 547:Dsp/letter_shell/shell.c ****     {
 1721              		.loc 1 547 28 is_stmt 0 view .LVU465
 1722 0012 4378     		ldrb	r3, [r0, #1]	@ zero_extendqisi2
 1723              	.LVL154:
 547:Dsp/letter_shell/shell.c ****     {
 1724              		.loc 1 547 28 view .LVU466
 1725 0014 03F00F03 		and	r3, r3, #15
 547:Dsp/letter_shell/shell.c ****     {
 1726              		.loc 1 547 8 view .LVU467
 1727 0018 012B     		cmp	r3, #1
 1728 001a 05D9     		bls	.L165
 551:Dsp/letter_shell/shell.c ****     {
 1729              		.loc 1 551 10 is_stmt 1 view .LVU468
 551:Dsp/letter_shell/shell.c ****     {
 1730              		.loc 1 551 13 is_stmt 0 view .LVU469
 1731 001c 072B     		cmp	r3, #7
 1732 001e 05D9     		bls	.L166
 555:Dsp/letter_shell/shell.c ****     {
 1733              		.loc 1 555 10 is_stmt 1 view .LVU470
 555:Dsp/letter_shell/shell.c ****     {
ARM GAS  /var/folders/lx/hc4sn_b53233_zkc9xbbl97r0000gp/T//ccoa1yNG.s 			page 70


 1734              		.loc 1 555 13 is_stmt 0 view .LVU471
 1735 0020 082B     		cmp	r3, #8
 1736 0022 05D8     		bhi	.L161
 557:Dsp/letter_shell/shell.c ****     }
 1737              		.loc 1 557 9 is_stmt 1 view .LVU472
 557:Dsp/letter_shell/shell.c ****     }
 1738              		.loc 1 557 34 is_stmt 0 view .LVU473
 1739 0024 4068     		ldr	r0, [r0, #4]
 1740              	.LVL155:
 564:Dsp/letter_shell/shell.c **** 
 1741              		.loc 1 564 1 view .LVU474
 1742 0026 7047     		bx	lr
 1743              	.LVL156:
 1744              	.L165:
 549:Dsp/letter_shell/shell.c ****     }
 1745              		.loc 1 549 9 is_stmt 1 view .LVU475
 549:Dsp/letter_shell/shell.c ****     }
 1746              		.loc 1 549 33 is_stmt 0 view .LVU476
 1747 0028 4068     		ldr	r0, [r0, #4]
 1748              	.LVL157:
 549:Dsp/letter_shell/shell.c ****     }
 1749              		.loc 1 549 33 view .LVU477
 1750 002a 7047     		bx	lr
 1751              	.LVL158:
 1752              	.L166:
 553:Dsp/letter_shell/shell.c ****     }
 1753              		.loc 1 553 9 is_stmt 1 view .LVU478
 553:Dsp/letter_shell/shell.c ****     }
 1754              		.loc 1 553 33 is_stmt 0 view .LVU479
 1755 002c 4068     		ldr	r0, [r0, #4]
 1756              	.LVL159:
 553:Dsp/letter_shell/shell.c ****     }
 1757              		.loc 1 553 33 view .LVU480
 1758 002e 7047     		bx	lr
 1759              	.LVL160:
 1760              	.L161:
 541:Dsp/letter_shell/shell.c ****     static char buffer[9];
 1761              		.loc 1 541 1 view .LVU481
 1762 0030 10B5     		push	{r4, lr}
 1763              	.LCFI25:
 1764              		.cfi_def_cfa_offset 8
 1765              		.cfi_offset 4, -8
 1766              		.cfi_offset 14, -4
 561:Dsp/letter_shell/shell.c ****         return buffer;
 1767              		.loc 1 561 9 is_stmt 1 view .LVU482
 1768 0032 034C     		ldr	r4, .L167
 1769 0034 2146     		mov	r1, r4
 1770 0036 4068     		ldr	r0, [r0, #4]
 1771              	.LVL161:
 561:Dsp/letter_shell/shell.c ****         return buffer;
 1772              		.loc 1 561 9 is_stmt 0 view .LVU483
 1773 0038 FFF7FEFF 		bl	shellToHex
 1774              	.LVL162:
 562:Dsp/letter_shell/shell.c ****     }
 1775              		.loc 1 562 9 is_stmt 1 view .LVU484
 562:Dsp/letter_shell/shell.c ****     }
 1776              		.loc 1 562 16 is_stmt 0 view .LVU485
ARM GAS  /var/folders/lx/hc4sn_b53233_zkc9xbbl97r0000gp/T//ccoa1yNG.s 			page 71


 1777 003c 2046     		mov	r0, r4
 564:Dsp/letter_shell/shell.c **** 
 1778              		.loc 1 564 1 view .LVU486
 1779 003e 10BD     		pop	{r4, pc}
 1780              	.L168:
 1781              		.align	2
 1782              	.L167:
 1783 0040 00000000 		.word	.LANCHOR1
 1784              		.cfi_endproc
 1785              	.LFE140:
 1787              		.section	.text.shellToDec,"ax",%progbits
 1788              		.align	1
 1789              		.global	shellToDec
 1790              		.syntax unified
 1791              		.thumb
 1792              		.thumb_func
 1793              		.fpu fpv4-sp-d16
 1795              	shellToDec:
 1796              	.LVL163:
 1797              	.LFB137:
 465:Dsp/letter_shell/shell.c ****     unsigned char i = 11;
 1798              		.loc 1 465 1 is_stmt 1 view -0
 1799              		.cfi_startproc
 1800              		@ args = 0, pretend = 0, frame = 0
 1801              		@ frame_needed = 0, uses_anonymous_args = 0
 1802              		@ link register save eliminated.
 465:Dsp/letter_shell/shell.c ****     unsigned char i = 11;
 1803              		.loc 1 465 1 is_stmt 0 view .LVU488
 1804 0000 10B4     		push	{r4}
 1805              	.LCFI26:
 1806              		.cfi_def_cfa_offset 4
 1807              		.cfi_offset 4, -4
 466:Dsp/letter_shell/shell.c ****     int v = value;
 1808              		.loc 1 466 5 is_stmt 1 view .LVU489
 1809              	.LVL164:
 467:Dsp/letter_shell/shell.c ****     if (value < 0)
 1810              		.loc 1 467 5 view .LVU490
 468:Dsp/letter_shell/shell.c ****     {
 1811              		.loc 1 468 5 view .LVU491
 468:Dsp/letter_shell/shell.c ****     {
 1812              		.loc 1 468 8 is_stmt 0 view .LVU492
 1813 0002 041E     		subs	r4, r0, #0
 1814 0004 04DB     		blt	.L177
 467:Dsp/letter_shell/shell.c ****     if (value < 0)
 1815              		.loc 1 467 9 view .LVU493
 1816 0006 2246     		mov	r2, r4
 1817              	.LVL165:
 1818              	.L170:
 472:Dsp/letter_shell/shell.c ****     while (v)
 1819              		.loc 1 472 5 is_stmt 1 view .LVU494
 472:Dsp/letter_shell/shell.c ****     while (v)
 1820              		.loc 1 472 16 is_stmt 0 view .LVU495
 1821 0008 0023     		movs	r3, #0
 1822 000a CB72     		strb	r3, [r1, #11]
 473:Dsp/letter_shell/shell.c ****     {
 1823              		.loc 1 473 5 is_stmt 1 view .LVU496
 466:Dsp/letter_shell/shell.c ****     int v = value;
ARM GAS  /var/folders/lx/hc4sn_b53233_zkc9xbbl97r0000gp/T//ccoa1yNG.s 			page 72


 1824              		.loc 1 466 19 is_stmt 0 view .LVU497
 1825 000c 0B20     		movs	r0, #11
 1826              	.LVL166:
 473:Dsp/letter_shell/shell.c ****     {
 1827              		.loc 1 473 11 view .LVU498
 1828 000e 11E0     		b	.L171
 1829              	.LVL167:
 1830              	.L177:
 470:Dsp/letter_shell/shell.c ****     }
 1831              		.loc 1 470 9 is_stmt 1 view .LVU499
 470:Dsp/letter_shell/shell.c ****     }
 1832              		.loc 1 470 11 is_stmt 0 view .LVU500
 1833 0010 6242     		rsbs	r2, r4, #0
 1834              	.LVL168:
 470:Dsp/letter_shell/shell.c ****     }
 1835              		.loc 1 470 11 view .LVU501
 1836 0012 F9E7     		b	.L170
 1837              	.LVL169:
 1838              	.L172:
 475:Dsp/letter_shell/shell.c ****         v /= 10;
 1839              		.loc 1 475 9 is_stmt 1 view .LVU502
 475:Dsp/letter_shell/shell.c ****         v /= 10;
 1840              		.loc 1 475 25 is_stmt 0 view .LVU503
 1841 0014 114B     		ldr	r3, .L179
 1842 0016 83FB023C 		smull	r3, ip, r3, r2
 1843 001a D317     		asrs	r3, r2, #31
 1844 001c C3EBAC03 		rsb	r3, r3, ip, asr #2
 1845 0020 9C46     		mov	ip, r3
 1846 0022 03EB8303 		add	r3, r3, r3, lsl #2
 1847 0026 A2EB4303 		sub	r3, r2, r3, lsl #1
 475:Dsp/letter_shell/shell.c ****         v /= 10;
 1848              		.loc 1 475 21 view .LVU504
 1849 002a 0138     		subs	r0, r0, #1
 1850              	.LVL170:
 475:Dsp/letter_shell/shell.c ****         v /= 10;
 1851              		.loc 1 475 21 view .LVU505
 1852 002c C0B2     		uxtb	r0, r0
 1853              	.LVL171:
 475:Dsp/letter_shell/shell.c ****         v /= 10;
 1854              		.loc 1 475 30 view .LVU506
 1855 002e 3033     		adds	r3, r3, #48
 475:Dsp/letter_shell/shell.c ****         v /= 10;
 1856              		.loc 1 475 21 view .LVU507
 1857 0030 0B54     		strb	r3, [r1, r0]
 476:Dsp/letter_shell/shell.c ****     }
 1858              		.loc 1 476 9 is_stmt 1 view .LVU508
 476:Dsp/letter_shell/shell.c ****     }
 1859              		.loc 1 476 11 is_stmt 0 view .LVU509
 1860 0032 6246     		mov	r2, ip
 1861              	.LVL172:
 1862              	.L171:
 473:Dsp/letter_shell/shell.c ****     {
 1863              		.loc 1 473 11 is_stmt 1 view .LVU510
 1864 0034 002A     		cmp	r2, #0
 1865 0036 EDD1     		bne	.L172
 478:Dsp/letter_shell/shell.c ****     {
 1866              		.loc 1 478 5 view .LVU511
ARM GAS  /var/folders/lx/hc4sn_b53233_zkc9xbbl97r0000gp/T//ccoa1yNG.s 			page 73


 478:Dsp/letter_shell/shell.c ****     {
 1867              		.loc 1 478 8 is_stmt 0 view .LVU512
 1868 0038 002C     		cmp	r4, #0
 1869 003a 0ADB     		blt	.L178
 1870              	.L173:
 482:Dsp/letter_shell/shell.c ****         buffer[--i] = '0';
 1871              		.loc 1 482 5 is_stmt 1 view .LVU513
 482:Dsp/letter_shell/shell.c ****         buffer[--i] = '0';
 1872              		.loc 1 482 8 is_stmt 0 view .LVU514
 1873 003c 1CB9     		cbnz	r4, .L174
 483:Dsp/letter_shell/shell.c ****     }
 1874              		.loc 1 483 9 is_stmt 1 view .LVU515
 483:Dsp/letter_shell/shell.c ****     }
 1875              		.loc 1 483 21 is_stmt 0 view .LVU516
 1876 003e 0138     		subs	r0, r0, #1
 1877              	.LVL173:
 483:Dsp/letter_shell/shell.c ****     }
 1878              		.loc 1 483 21 view .LVU517
 1879 0040 C0B2     		uxtb	r0, r0
 1880              	.LVL174:
 483:Dsp/letter_shell/shell.c ****     }
 1881              		.loc 1 483 21 view .LVU518
 1882 0042 3023     		movs	r3, #48
 1883 0044 0B54     		strb	r3, [r1, r0]
 1884              	.L174:
 485:Dsp/letter_shell/shell.c **** }
 1885              		.loc 1 485 5 is_stmt 1 view .LVU519
 485:Dsp/letter_shell/shell.c **** }
 1886              		.loc 1 485 15 is_stmt 0 view .LVU520
 1887 0046 C0F10B00 		rsb	r0, r0, #11
 1888              	.LVL175:
 486:Dsp/letter_shell/shell.c **** 
 1889              		.loc 1 486 1 view .LVU521
 1890 004a 40B2     		sxtb	r0, r0
 1891 004c 5DF8044B 		ldr	r4, [sp], #4
 1892              	.LCFI27:
 1893              		.cfi_remember_state
 1894              		.cfi_restore 4
 1895              		.cfi_def_cfa_offset 0
 1896              	.LVL176:
 486:Dsp/letter_shell/shell.c **** 
 1897              		.loc 1 486 1 view .LVU522
 1898 0050 7047     		bx	lr
 1899              	.LVL177:
 1900              	.L178:
 1901              	.LCFI28:
 1902              		.cfi_restore_state
 480:Dsp/letter_shell/shell.c ****     }
 1903              		.loc 1 480 9 is_stmt 1 view .LVU523
 480:Dsp/letter_shell/shell.c ****     }
 1904              		.loc 1 480 21 is_stmt 0 view .LVU524
 1905 0052 0138     		subs	r0, r0, #1
 1906              	.LVL178:
 480:Dsp/letter_shell/shell.c ****     }
 1907              		.loc 1 480 21 view .LVU525
 1908 0054 C0B2     		uxtb	r0, r0
 1909              	.LVL179:
ARM GAS  /var/folders/lx/hc4sn_b53233_zkc9xbbl97r0000gp/T//ccoa1yNG.s 			page 74


 480:Dsp/letter_shell/shell.c ****     }
 1910              		.loc 1 480 21 view .LVU526
 1911 0056 2D23     		movs	r3, #45
 1912 0058 0B54     		strb	r3, [r1, r0]
 1913 005a EFE7     		b	.L173
 1914              	.L180:
 1915              		.align	2
 1916              	.L179:
 1917 005c 67666666 		.word	1717986919
 1918              		.cfi_endproc
 1919              	.LFE137:
 1921              		.section	.rodata.shellWriteReturnValue.str1.4,"aMS",%progbits,1
 1922              		.align	2
 1923              	.LC9:
 1924 0000 52657475 		.ascii	"Return: \000"
 1924      726E3A20 
 1924      00
 1925 0009 000000   		.align	2
 1926              	.LC10:
 1927 000c 2C203078 		.ascii	", 0x\000"
 1927      00
 1928 0011 000000   		.align	2
 1929              	.LC8:
 1930 0014 30303030 		.ascii	"00000000000\000"
 1930      30303030 
 1930      30303000 
 1931              		.section	.text.shellWriteReturnValue,"ax",%progbits
 1932              		.align	1
 1933              		.syntax unified
 1934              		.thumb
 1935              		.thumb_func
 1936              		.fpu fpv4-sp-d16
 1938              	shellWriteReturnValue:
 1939              	.LVL180:
 1940              	.LFB162:
1266:Dsp/letter_shell/shell.c ****     char buffer[12] = "00000000000";
 1941              		.loc 1 1266 1 is_stmt 1 view -0
 1942              		.cfi_startproc
 1943              		@ args = 0, pretend = 0, frame = 16
 1944              		@ frame_needed = 0, uses_anonymous_args = 0
1266:Dsp/letter_shell/shell.c ****     char buffer[12] = "00000000000";
 1945              		.loc 1 1266 1 is_stmt 0 view .LVU528
 1946 0000 70B5     		push	{r4, r5, r6, lr}
 1947              	.LCFI29:
 1948              		.cfi_def_cfa_offset 16
 1949              		.cfi_offset 4, -16
 1950              		.cfi_offset 5, -12
 1951              		.cfi_offset 6, -8
 1952              		.cfi_offset 14, -4
 1953 0002 84B0     		sub	sp, sp, #16
 1954              	.LCFI30:
 1955              		.cfi_def_cfa_offset 32
 1956 0004 0446     		mov	r4, r0
 1957 0006 0E46     		mov	r6, r1
1267:Dsp/letter_shell/shell.c ****     shellWriteString(shell, "Return: ");
 1958              		.loc 1 1267 5 is_stmt 1 view .LVU529
1267:Dsp/letter_shell/shell.c ****     shellWriteString(shell, "Return: ");
ARM GAS  /var/folders/lx/hc4sn_b53233_zkc9xbbl97r0000gp/T//ccoa1yNG.s 			page 75


 1959              		.loc 1 1267 10 is_stmt 0 view .LVU530
 1960 0008 184B     		ldr	r3, .L185
 1961 000a 01AD     		add	r5, sp, #4
 1962 000c 93E80700 		ldm	r3, {r0, r1, r2}
 1963              	.LVL181:
1267:Dsp/letter_shell/shell.c ****     shellWriteString(shell, "Return: ");
 1964              		.loc 1 1267 10 view .LVU531
 1965 0010 85E80700 		stm	r5, {r0, r1, r2}
1268:Dsp/letter_shell/shell.c ****     shellWriteString(shell, &buffer[11 - shellToDec(value, buffer)]);
 1966              		.loc 1 1268 5 is_stmt 1 view .LVU532
 1967 0014 1649     		ldr	r1, .L185+4
 1968 0016 2046     		mov	r0, r4
 1969 0018 FFF7FEFF 		bl	shellWriteString
 1970              	.LVL182:
1269:Dsp/letter_shell/shell.c ****     shellWriteString(shell, ", 0x");
 1971              		.loc 1 1269 5 view .LVU533
1269:Dsp/letter_shell/shell.c ****     shellWriteString(shell, ", 0x");
 1972              		.loc 1 1269 42 is_stmt 0 view .LVU534
 1973 001c 2946     		mov	r1, r5
 1974 001e 3046     		mov	r0, r6
 1975 0020 FFF7FEFF 		bl	shellToDec
 1976              	.LVL183:
1269:Dsp/letter_shell/shell.c ****     shellWriteString(shell, ", 0x");
 1977              		.loc 1 1269 40 view .LVU535
 1978 0024 C0F10B01 		rsb	r1, r0, #11
1269:Dsp/letter_shell/shell.c ****     shellWriteString(shell, ", 0x");
 1979              		.loc 1 1269 5 view .LVU536
 1980 0028 2944     		add	r1, r1, r5
 1981 002a 2046     		mov	r0, r4
 1982 002c FFF7FEFF 		bl	shellWriteString
 1983              	.LVL184:
1270:Dsp/letter_shell/shell.c ****     for (short i = 0; i < 11; i++)
 1984              		.loc 1 1270 5 is_stmt 1 view .LVU537
 1985 0030 1049     		ldr	r1, .L185+8
 1986 0032 2046     		mov	r0, r4
 1987 0034 FFF7FEFF 		bl	shellWriteString
 1988              	.LVL185:
1271:Dsp/letter_shell/shell.c ****     {
 1989              		.loc 1 1271 5 view .LVU538
 1990              	.LBB9:
1271:Dsp/letter_shell/shell.c ****     {
 1991              		.loc 1 1271 10 view .LVU539
1271:Dsp/letter_shell/shell.c ****     {
 1992              		.loc 1 1271 16 is_stmt 0 view .LVU540
 1993 0038 0023     		movs	r3, #0
1271:Dsp/letter_shell/shell.c ****     {
 1994              		.loc 1 1271 5 view .LVU541
 1995 003a 07E0     		b	.L182
 1996              	.LVL186:
 1997              	.L183:
1273:Dsp/letter_shell/shell.c ****     }
 1998              		.loc 1 1273 9 is_stmt 1 discriminator 3 view .LVU542
1273:Dsp/letter_shell/shell.c ****     }
 1999              		.loc 1 1273 19 is_stmt 0 discriminator 3 view .LVU543
 2000 003c 04AA     		add	r2, sp, #16
 2001 003e 1A44     		add	r2, r2, r3
 2002 0040 4FF0300C 		mov	ip, #48
ARM GAS  /var/folders/lx/hc4sn_b53233_zkc9xbbl97r0000gp/T//ccoa1yNG.s 			page 76


 2003 0044 02F80CCC 		strb	ip, [r2, #-12]
1271:Dsp/letter_shell/shell.c ****     {
 2004              		.loc 1 1271 31 is_stmt 1 discriminator 3 view .LVU544
1271:Dsp/letter_shell/shell.c ****     {
 2005              		.loc 1 1271 32 is_stmt 0 discriminator 3 view .LVU545
 2006 0048 0133     		adds	r3, r3, #1
 2007              	.LVL187:
1271:Dsp/letter_shell/shell.c ****     {
 2008              		.loc 1 1271 32 discriminator 3 view .LVU546
 2009 004a 1BB2     		sxth	r3, r3
 2010              	.LVL188:
 2011              	.L182:
1271:Dsp/letter_shell/shell.c ****     {
 2012              		.loc 1 1271 23 is_stmt 1 discriminator 1 view .LVU547
1271:Dsp/letter_shell/shell.c ****     {
 2013              		.loc 1 1271 5 is_stmt 0 discriminator 1 view .LVU548
 2014 004c 0A2B     		cmp	r3, #10
 2015 004e F5DD     		ble	.L183
 2016              	.LBE9:
1275:Dsp/letter_shell/shell.c ****     shellWriteString(shell, buffer);
 2017              		.loc 1 1275 5 is_stmt 1 view .LVU549
 2018 0050 01A9     		add	r1, sp, #4
 2019 0052 3046     		mov	r0, r6
 2020 0054 FFF7FEFF 		bl	shellToHex
 2021              	.LVL189:
1276:Dsp/letter_shell/shell.c ****     shellWriteString(shell, "\r\n");
 2022              		.loc 1 1276 5 view .LVU550
 2023 0058 01A9     		add	r1, sp, #4
 2024 005a 2046     		mov	r0, r4
 2025 005c FFF7FEFF 		bl	shellWriteString
 2026              	.LVL190:
1277:Dsp/letter_shell/shell.c **** }
 2027              		.loc 1 1277 5 view .LVU551
 2028 0060 0549     		ldr	r1, .L185+12
 2029 0062 2046     		mov	r0, r4
 2030 0064 FFF7FEFF 		bl	shellWriteString
 2031              	.LVL191:
1278:Dsp/letter_shell/shell.c **** 
 2032              		.loc 1 1278 1 is_stmt 0 view .LVU552
 2033 0068 04B0     		add	sp, sp, #16
 2034              	.LCFI31:
 2035              		.cfi_def_cfa_offset 16
 2036              		@ sp needed
 2037 006a 70BD     		pop	{r4, r5, r6, pc}
 2038              	.LVL192:
 2039              	.L186:
1278:Dsp/letter_shell/shell.c **** 
 2040              		.loc 1 1278 1 view .LVU553
 2041              		.align	2
 2042              	.L185:
 2043 006c 14000000 		.word	.LC8
 2044 0070 00000000 		.word	.LC9
 2045 0074 0C000000 		.word	.LC10
 2046 0078 04000000 		.word	.LC3
 2047              		.cfi_endproc
 2048              	.LFE162:
 2050              		.section	.rodata.shellListItem.str1.4,"aMS",%progbits,1
ARM GAS  /var/folders/lx/hc4sn_b53233_zkc9xbbl97r0000gp/T//ccoa1yNG.s 			page 77


 2051              		.align	2
 2052              	.LC11:
 2053 0000 434D4420 		.ascii	"CMD \015\012\000"
 2053      0D0A00
 2054 0007 00       		.align	2
 2055              	.LC12:
 2056 0008 56415200 		.ascii	"VAR\000"
 2057              		.align	2
 2058              	.LC13:
 2059 000c 55534552 		.ascii	"USER\000"
 2059      00
 2060 0011 000000   		.align	2
 2061              	.LC14:
 2062 0014 4B455900 		.ascii	"KEY\000"
 2063              		.align	2
 2064              	.LC15:
 2065 0018 4E4F4E45 		.ascii	"NONE\000"
 2065      00
 2066              		.section	.text.shellListItem,"ax",%progbits
 2067              		.align	1
 2068              		.global	shellListItem
 2069              		.syntax unified
 2070              		.thumb
 2071              		.thumb_func
 2072              		.fpu fpv4-sp-d16
 2074              	shellListItem:
 2075              	.LVL193:
 2076              	.LFB142:
 600:Dsp/letter_shell/shell.c ****     short spaceLength;
 2077              		.loc 1 600 1 is_stmt 1 view -0
 2078              		.cfi_startproc
 2079              		@ args = 0, pretend = 0, frame = 0
 2080              		@ frame_needed = 0, uses_anonymous_args = 0
 600:Dsp/letter_shell/shell.c ****     short spaceLength;
 2081              		.loc 1 600 1 is_stmt 0 view .LVU555
 2082 0000 70B5     		push	{r4, r5, r6, lr}
 2083              	.LCFI32:
 2084              		.cfi_def_cfa_offset 16
 2085              		.cfi_offset 4, -16
 2086              		.cfi_offset 5, -12
 2087              		.cfi_offset 6, -8
 2088              		.cfi_offset 14, -4
 2089 0002 0546     		mov	r5, r0
 2090 0004 0E46     		mov	r6, r1
 601:Dsp/letter_shell/shell.c **** 
 2091              		.loc 1 601 5 is_stmt 1 view .LVU556
 603:Dsp/letter_shell/shell.c ****     spaceLength = (spaceLength > 0) ? spaceLength : 4;
 2092              		.loc 1 603 5 view .LVU557
 603:Dsp/letter_shell/shell.c ****     spaceLength = (spaceLength > 0) ? spaceLength : 4;
 2093              		.loc 1 603 24 is_stmt 0 view .LVU558
 2094 0006 0846     		mov	r0, r1
 2095              	.LVL194:
 603:Dsp/letter_shell/shell.c ****     spaceLength = (spaceLength > 0) ? spaceLength : 4;
 2096              		.loc 1 603 24 view .LVU559
 2097 0008 FFF7FEFF 		bl	shellGetCommandName
 2098              	.LVL195:
 603:Dsp/letter_shell/shell.c ****     spaceLength = (spaceLength > 0) ? spaceLength : 4;
ARM GAS  /var/folders/lx/hc4sn_b53233_zkc9xbbl97r0000gp/T//ccoa1yNG.s 			page 78


 2099              		.loc 1 603 24 view .LVU560
 2100 000c 0146     		mov	r1, r0
 2101 000e 2846     		mov	r0, r5
 2102 0010 FFF7FEFF 		bl	shellWriteString
 2103              	.LVL196:
 603:Dsp/letter_shell/shell.c ****     spaceLength = (spaceLength > 0) ? spaceLength : 4;
 2104              		.loc 1 603 22 view .LVU561
 2105 0014 C0F11604 		rsb	r4, r0, #22
 603:Dsp/letter_shell/shell.c ****     spaceLength = (spaceLength > 0) ? spaceLength : 4;
 2106              		.loc 1 603 17 view .LVU562
 2107 0018 24B2     		sxth	r4, r4
 2108              	.LVL197:
 604:Dsp/letter_shell/shell.c ****     do {
 2109              		.loc 1 604 5 is_stmt 1 view .LVU563
 604:Dsp/letter_shell/shell.c ****     do {
 2110              		.loc 1 604 17 is_stmt 0 view .LVU564
 2111 001a 002C     		cmp	r4, #0
 2112 001c 17DD     		ble	.L197
 2113              	.LVL198:
 2114              	.L189:
 605:Dsp/letter_shell/shell.c ****         shellWriteByte(shell, '-');
 2115              		.loc 1 605 5 is_stmt 1 discriminator 1 view .LVU565
 606:Dsp/letter_shell/shell.c ****     } while (--spaceLength);
 2116              		.loc 1 606 9 discriminator 1 view .LVU566
 2117 001e 2D21     		movs	r1, #45
 2118 0020 2846     		mov	r0, r5
 2119 0022 FFF7FEFF 		bl	shellWriteByte
 2120              	.LVL199:
 607:Dsp/letter_shell/shell.c ****     if (item->attr.attrs.type <= SHELL_TYPE_CMD_FUNC)
 2121              		.loc 1 607 13 discriminator 1 view .LVU567
 607:Dsp/letter_shell/shell.c ****     if (item->attr.attrs.type <= SHELL_TYPE_CMD_FUNC)
 2122              		.loc 1 607 14 is_stmt 0 discriminator 1 view .LVU568
 2123 0026 013C     		subs	r4, r4, #1
 2124              	.LVL200:
 607:Dsp/letter_shell/shell.c ****     if (item->attr.attrs.type <= SHELL_TYPE_CMD_FUNC)
 2125              		.loc 1 607 5 discriminator 1 view .LVU569
 2126 0028 24B2     		sxth	r4, r4
 2127              	.LVL201:
 607:Dsp/letter_shell/shell.c ****     if (item->attr.attrs.type <= SHELL_TYPE_CMD_FUNC)
 2128              		.loc 1 607 5 discriminator 1 view .LVU570
 2129 002a 002C     		cmp	r4, #0
 2130 002c F7D1     		bne	.L189
 608:Dsp/letter_shell/shell.c ****     {
 2131              		.loc 1 608 5 is_stmt 1 view .LVU571
 608:Dsp/letter_shell/shell.c ****     {
 2132              		.loc 1 608 25 is_stmt 0 view .LVU572
 2133 002e 7378     		ldrb	r3, [r6, #1]	@ zero_extendqisi2
 2134 0030 03F00F03 		and	r3, r3, #15
 608:Dsp/letter_shell/shell.c ****     {
 2135              		.loc 1 608 8 view .LVU573
 2136 0034 012B     		cmp	r3, #1
 2137 0036 0CD9     		bls	.L198
 612:Dsp/letter_shell/shell.c ****     {
 2138              		.loc 1 612 10 is_stmt 1 view .LVU574
 612:Dsp/letter_shell/shell.c ****     {
 2139              		.loc 1 612 13 is_stmt 0 view .LVU575
 2140 0038 072B     		cmp	r3, #7
ARM GAS  /var/folders/lx/hc4sn_b53233_zkc9xbbl97r0000gp/T//ccoa1yNG.s 			page 79


 2141 003a 0FD9     		bls	.L199
 616:Dsp/letter_shell/shell.c ****     {
 2142              		.loc 1 616 10 is_stmt 1 view .LVU576
 616:Dsp/letter_shell/shell.c ****     {
 2143              		.loc 1 616 13 is_stmt 0 view .LVU577
 2144 003c 082B     		cmp	r3, #8
 2145 003e 12D9     		bls	.L200
 620:Dsp/letter_shell/shell.c ****     {
 2146              		.loc 1 620 10 is_stmt 1 view .LVU578
 620:Dsp/letter_shell/shell.c ****     {
 2147              		.loc 1 620 13 is_stmt 0 view .LVU579
 2148 0040 092B     		cmp	r3, #9
 2149 0042 15D8     		bhi	.L194
 622:Dsp/letter_shell/shell.c ****     }
 2150              		.loc 1 622 9 is_stmt 1 view .LVU580
 2151 0044 0D49     		ldr	r1, .L201
 2152 0046 2846     		mov	r0, r5
 2153 0048 FFF7FEFF 		bl	shellWriteString
 2154              	.LVL202:
 2155 004c 05E0     		b	.L187
 2156              	.L197:
 604:Dsp/letter_shell/shell.c ****     do {
 2157              		.loc 1 604 17 is_stmt 0 view .LVU581
 2158 004e 0424     		movs	r4, #4
 2159              	.LVL203:
 604:Dsp/letter_shell/shell.c ****     do {
 2160              		.loc 1 604 17 view .LVU582
 2161 0050 E5E7     		b	.L189
 2162              	.LVL204:
 2163              	.L198:
 610:Dsp/letter_shell/shell.c ****     }
 2164              		.loc 1 610 9 is_stmt 1 view .LVU583
 2165 0052 0B49     		ldr	r1, .L201+4
 2166 0054 2846     		mov	r0, r5
 2167 0056 FFF7FEFF 		bl	shellWriteString
 2168              	.LVL205:
 2169              	.L187:
 638:Dsp/letter_shell/shell.c **** 
 2170              		.loc 1 638 1 is_stmt 0 view .LVU584
 2171 005a 70BD     		pop	{r4, r5, r6, pc}
 2172              	.LVL206:
 2173              	.L199:
 614:Dsp/letter_shell/shell.c ****     }
 2174              		.loc 1 614 9 is_stmt 1 view .LVU585
 2175 005c 0949     		ldr	r1, .L201+8
 2176 005e 2846     		mov	r0, r5
 2177 0060 FFF7FEFF 		bl	shellWriteString
 2178              	.LVL207:
 2179 0064 F9E7     		b	.L187
 2180              	.L200:
 618:Dsp/letter_shell/shell.c ****     }
 2181              		.loc 1 618 9 view .LVU586
 2182 0066 0849     		ldr	r1, .L201+12
 2183 0068 2846     		mov	r0, r5
 2184 006a FFF7FEFF 		bl	shellWriteString
 2185              	.LVL208:
 2186 006e F4E7     		b	.L187
ARM GAS  /var/folders/lx/hc4sn_b53233_zkc9xbbl97r0000gp/T//ccoa1yNG.s 			page 80


 2187              	.L194:
 626:Dsp/letter_shell/shell.c ****     }
 2188              		.loc 1 626 9 view .LVU587
 2189 0070 0649     		ldr	r1, .L201+16
 2190 0072 2846     		mov	r0, r5
 2191 0074 FFF7FEFF 		bl	shellWriteString
 2192              	.LVL209:
 638:Dsp/letter_shell/shell.c **** 
 2193              		.loc 1 638 1 is_stmt 0 view .LVU588
 2194 0078 EFE7     		b	.L187
 2195              	.L202:
 2196 007a 00BF     		.align	2
 2197              	.L201:
 2198 007c 14000000 		.word	.LC14
 2199 0080 00000000 		.word	.LC11
 2200 0084 08000000 		.word	.LC12
 2201 0088 0C000000 		.word	.LC13
 2202 008c 18000000 		.word	.LC15
 2203              		.cfi_endproc
 2204              	.LFE142:
 2206              		.section	.rodata.shellListCommand.str1.4,"aMS",%progbits,1
 2207              		.align	2
 2208              	.LC16:
 2209 0000 0D0A436F 		.ascii	"\015\012Command List:\015\012\000"
 2209      6D6D616E 
 2209      64204C69 
 2209      73743A0D 
 2209      0A00
 2210              		.section	.text.shellListCommand,"ax",%progbits
 2211              		.align	1
 2212              		.global	shellListCommand
 2213              		.syntax unified
 2214              		.thumb
 2215              		.thumb_func
 2216              		.fpu fpv4-sp-d16
 2218              	shellListCommand:
 2219              	.LVL210:
 2220              	.LFB143:
 647:Dsp/letter_shell/shell.c ****     ShellCommand *base = (ShellCommand *)shell->commandList.base;
 2221              		.loc 1 647 1 is_stmt 1 view -0
 2222              		.cfi_startproc
 2223              		@ args = 0, pretend = 0, frame = 0
 2224              		@ frame_needed = 0, uses_anonymous_args = 0
 647:Dsp/letter_shell/shell.c ****     ShellCommand *base = (ShellCommand *)shell->commandList.base;
 2225              		.loc 1 647 1 is_stmt 0 view .LVU590
 2226 0000 F8B5     		push	{r3, r4, r5, r6, r7, lr}
 2227              	.LCFI33:
 2228              		.cfi_def_cfa_offset 24
 2229              		.cfi_offset 3, -24
 2230              		.cfi_offset 4, -20
 2231              		.cfi_offset 5, -16
 2232              		.cfi_offset 6, -12
 2233              		.cfi_offset 7, -8
 2234              		.cfi_offset 14, -4
 2235 0002 0646     		mov	r6, r0
 648:Dsp/letter_shell/shell.c ****     shellWriteString(shell, shellText[SHELL_TEXT_CMD_LIST]);
 2236              		.loc 1 648 5 is_stmt 1 view .LVU591
ARM GAS  /var/folders/lx/hc4sn_b53233_zkc9xbbl97r0000gp/T//ccoa1yNG.s 			page 81


 648:Dsp/letter_shell/shell.c ****     shellWriteString(shell, shellText[SHELL_TEXT_CMD_LIST]);
 2237              		.loc 1 648 19 is_stmt 0 view .LVU592
 2238 0004 876D     		ldr	r7, [r0, #88]
 2239              	.LVL211:
 649:Dsp/letter_shell/shell.c ****     for (short i = 0; i < shell->commandList.count; i++)
 2240              		.loc 1 649 5 is_stmt 1 view .LVU593
 2241 0006 0F49     		ldr	r1, .L209
 2242 0008 FFF7FEFF 		bl	shellWriteString
 2243              	.LVL212:
 650:Dsp/letter_shell/shell.c ****     {
 2244              		.loc 1 650 5 view .LVU594
 2245              	.LBB10:
 650:Dsp/letter_shell/shell.c ****     {
 2246              		.loc 1 650 10 view .LVU595
 650:Dsp/letter_shell/shell.c ****     {
 2247              		.loc 1 650 16 is_stmt 0 view .LVU596
 2248 000c 0024     		movs	r4, #0
 650:Dsp/letter_shell/shell.c ****     {
 2249              		.loc 1 650 5 view .LVU597
 2250 000e 01E0     		b	.L204
 2251              	.LVL213:
 2252              	.L205:
 650:Dsp/letter_shell/shell.c ****     {
 2253              		.loc 1 650 53 is_stmt 1 discriminator 2 view .LVU598
 650:Dsp/letter_shell/shell.c ****     {
 2254              		.loc 1 650 54 is_stmt 0 discriminator 2 view .LVU599
 2255 0010 0134     		adds	r4, r4, #1
 2256              	.LVL214:
 650:Dsp/letter_shell/shell.c ****     {
 2257              		.loc 1 650 54 discriminator 2 view .LVU600
 2258 0012 24B2     		sxth	r4, r4
 2259              	.LVL215:
 2260              	.L204:
 650:Dsp/letter_shell/shell.c ****     {
 2261              		.loc 1 650 23 is_stmt 1 discriminator 1 view .LVU601
 650:Dsp/letter_shell/shell.c ****     {
 2262              		.loc 1 650 45 is_stmt 0 discriminator 1 view .LVU602
 2263 0014 B6F85C30 		ldrh	r3, [r6, #92]
 650:Dsp/letter_shell/shell.c ****     {
 2264              		.loc 1 650 5 discriminator 1 view .LVU603
 2265 0018 9C42     		cmp	r4, r3
 2266 001a 11DA     		bge	.L208
 652:Dsp/letter_shell/shell.c ****             && shellCheckPermission(shell, &base[i]) == 0)
 2267              		.loc 1 652 9 is_stmt 1 view .LVU604
 652:Dsp/letter_shell/shell.c ****             && shellCheckPermission(shell, &base[i]) == 0)
 2268              		.loc 1 652 17 is_stmt 0 view .LVU605
 2269 001c 07EB0415 		add	r5, r7, r4, lsl #4
 652:Dsp/letter_shell/shell.c ****             && shellCheckPermission(shell, &base[i]) == 0)
 2270              		.loc 1 652 31 view .LVU606
 2271 0020 6B78     		ldrb	r3, [r5, #1]	@ zero_extendqisi2
 2272 0022 03F00F03 		and	r3, r3, #15
 652:Dsp/letter_shell/shell.c ****             && shellCheckPermission(shell, &base[i]) == 0)
 2273              		.loc 1 652 12 view .LVU607
 2274 0026 012B     		cmp	r3, #1
 2275 0028 F2D8     		bhi	.L205
 653:Dsp/letter_shell/shell.c ****         {
 2276              		.loc 1 653 16 view .LVU608
ARM GAS  /var/folders/lx/hc4sn_b53233_zkc9xbbl97r0000gp/T//ccoa1yNG.s 			page 82


 2277 002a 2946     		mov	r1, r5
 2278 002c 3046     		mov	r0, r6
 2279 002e FFF7FEFF 		bl	shellCheckPermission
 2280              	.LVL216:
 653:Dsp/letter_shell/shell.c ****         {
 2281              		.loc 1 653 13 view .LVU609
 2282 0032 0028     		cmp	r0, #0
 2283 0034 ECD1     		bne	.L205
 655:Dsp/letter_shell/shell.c ****         }
 2284              		.loc 1 655 13 is_stmt 1 view .LVU610
 2285 0036 2946     		mov	r1, r5
 2286 0038 3046     		mov	r0, r6
 2287 003a FFF7FEFF 		bl	shellListItem
 2288              	.LVL217:
 2289 003e E7E7     		b	.L205
 2290              	.L208:
 655:Dsp/letter_shell/shell.c ****         }
 2291              		.loc 1 655 13 is_stmt 0 view .LVU611
 2292              	.LBE10:
 658:Dsp/letter_shell/shell.c **** 
 2293              		.loc 1 658 1 view .LVU612
 2294 0040 F8BD     		pop	{r3, r4, r5, r6, r7, pc}
 2295              	.LVL218:
 2296              	.L210:
 658:Dsp/letter_shell/shell.c **** 
 2297              		.loc 1 658 1 view .LVU613
 2298 0042 00BF     		.align	2
 2299              	.L209:
 2300 0044 00000000 		.word	.LC16
 2301              		.cfi_endproc
 2302              	.LFE143:
 2304              		.section	.text.shellCmds,"ax",%progbits
 2305              		.align	1
 2306              		.global	shellCmds
 2307              		.syntax unified
 2308              		.thumb
 2309              		.thumb_func
 2310              		.fpu fpv4-sp-d16
 2312              	shellCmds:
 2313              	.LFB179:
1818:Dsp/letter_shell/shell.c ****     Shell *shell = shellGetCurrent();
 2314              		.loc 1 1818 1 is_stmt 1 view -0
 2315              		.cfi_startproc
 2316              		@ args = 0, pretend = 0, frame = 0
 2317              		@ frame_needed = 0, uses_anonymous_args = 0
 2318 0000 08B5     		push	{r3, lr}
 2319              	.LCFI34:
 2320              		.cfi_def_cfa_offset 8
 2321              		.cfi_offset 3, -8
 2322              		.cfi_offset 14, -4
1819:Dsp/letter_shell/shell.c ****     if (shell)
 2323              		.loc 1 1819 5 view .LVU615
1819:Dsp/letter_shell/shell.c ****     if (shell)
 2324              		.loc 1 1819 20 is_stmt 0 view .LVU616
 2325 0002 FFF7FEFF 		bl	shellGetCurrent
 2326              	.LVL219:
1820:Dsp/letter_shell/shell.c ****     {
ARM GAS  /var/folders/lx/hc4sn_b53233_zkc9xbbl97r0000gp/T//ccoa1yNG.s 			page 83


 2327              		.loc 1 1820 5 is_stmt 1 view .LVU617
1820:Dsp/letter_shell/shell.c ****     {
 2328              		.loc 1 1820 8 is_stmt 0 view .LVU618
 2329 0006 08B1     		cbz	r0, .L211
1822:Dsp/letter_shell/shell.c ****     }
 2330              		.loc 1 1822 9 is_stmt 1 view .LVU619
 2331 0008 FFF7FEFF 		bl	shellListCommand
 2332              	.LVL220:
 2333              	.L211:
1824:Dsp/letter_shell/shell.c **** SHELL_EXPORT_CMD(
 2334              		.loc 1 1824 1 is_stmt 0 view .LVU620
 2335 000c 08BD     		pop	{r3, pc}
 2336              		.cfi_endproc
 2337              	.LFE179:
 2339              		.section	.rodata.shellListVar.str1.4,"aMS",%progbits,1
 2340              		.align	2
 2341              	.LC17:
 2342 0000 0D0A5661 		.ascii	"\015\012Var List:\015\012\000"
 2342      72204C69 
 2342      73743A0D 
 2342      0A00
 2343              		.section	.text.shellListVar,"ax",%progbits
 2344              		.align	1
 2345              		.global	shellListVar
 2346              		.syntax unified
 2347              		.thumb
 2348              		.thumb_func
 2349              		.fpu fpv4-sp-d16
 2351              	shellListVar:
 2352              	.LVL221:
 2353              	.LFB144:
 667:Dsp/letter_shell/shell.c ****     ShellCommand *base = (ShellCommand *)shell->commandList.base;
 2354              		.loc 1 667 1 is_stmt 1 view -0
 2355              		.cfi_startproc
 2356              		@ args = 0, pretend = 0, frame = 0
 2357              		@ frame_needed = 0, uses_anonymous_args = 0
 667:Dsp/letter_shell/shell.c ****     ShellCommand *base = (ShellCommand *)shell->commandList.base;
 2358              		.loc 1 667 1 is_stmt 0 view .LVU622
 2359 0000 F8B5     		push	{r3, r4, r5, r6, r7, lr}
 2360              	.LCFI35:
 2361              		.cfi_def_cfa_offset 24
 2362              		.cfi_offset 3, -24
 2363              		.cfi_offset 4, -20
 2364              		.cfi_offset 5, -16
 2365              		.cfi_offset 6, -12
 2366              		.cfi_offset 7, -8
 2367              		.cfi_offset 14, -4
 2368 0002 0646     		mov	r6, r0
 668:Dsp/letter_shell/shell.c ****     shellWriteString(shell, shellText[SHELL_TEXT_VAR_LIST]);
 2369              		.loc 1 668 5 is_stmt 1 view .LVU623
 668:Dsp/letter_shell/shell.c ****     shellWriteString(shell, shellText[SHELL_TEXT_VAR_LIST]);
 2370              		.loc 1 668 19 is_stmt 0 view .LVU624
 2371 0004 876D     		ldr	r7, [r0, #88]
 2372              	.LVL222:
 669:Dsp/letter_shell/shell.c ****     for (short i = 0; i < shell->commandList.count; i++)
 2373              		.loc 1 669 5 is_stmt 1 view .LVU625
 2374 0006 1049     		ldr	r1, .L220
ARM GAS  /var/folders/lx/hc4sn_b53233_zkc9xbbl97r0000gp/T//ccoa1yNG.s 			page 84


 2375 0008 FFF7FEFF 		bl	shellWriteString
 2376              	.LVL223:
 670:Dsp/letter_shell/shell.c ****     {
 2377              		.loc 1 670 5 view .LVU626
 2378              	.LBB11:
 670:Dsp/letter_shell/shell.c ****     {
 2379              		.loc 1 670 10 view .LVU627
 670:Dsp/letter_shell/shell.c ****     {
 2380              		.loc 1 670 16 is_stmt 0 view .LVU628
 2381 000c 0024     		movs	r4, #0
 670:Dsp/letter_shell/shell.c ****     {
 2382              		.loc 1 670 5 view .LVU629
 2383 000e 01E0     		b	.L215
 2384              	.LVL224:
 2385              	.L216:
 670:Dsp/letter_shell/shell.c ****     {
 2386              		.loc 1 670 53 is_stmt 1 discriminator 2 view .LVU630
 670:Dsp/letter_shell/shell.c ****     {
 2387              		.loc 1 670 54 is_stmt 0 discriminator 2 view .LVU631
 2388 0010 0134     		adds	r4, r4, #1
 2389              	.LVL225:
 670:Dsp/letter_shell/shell.c ****     {
 2390              		.loc 1 670 54 discriminator 2 view .LVU632
 2391 0012 24B2     		sxth	r4, r4
 2392              	.LVL226:
 2393              	.L215:
 670:Dsp/letter_shell/shell.c ****     {
 2394              		.loc 1 670 23 is_stmt 1 discriminator 1 view .LVU633
 670:Dsp/letter_shell/shell.c ****     {
 2395              		.loc 1 670 45 is_stmt 0 discriminator 1 view .LVU634
 2396 0014 B6F85C30 		ldrh	r3, [r6, #92]
 670:Dsp/letter_shell/shell.c ****     {
 2397              		.loc 1 670 5 discriminator 1 view .LVU635
 2398 0018 9C42     		cmp	r4, r3
 2399 001a 14DA     		bge	.L219
 672:Dsp/letter_shell/shell.c ****             && base[i].attr.attrs.type <= SHELL_TYPE_VAR_NODE
 2400              		.loc 1 672 9 is_stmt 1 view .LVU636
 672:Dsp/letter_shell/shell.c ****             && base[i].attr.attrs.type <= SHELL_TYPE_VAR_NODE
 2401              		.loc 1 672 17 is_stmt 0 view .LVU637
 2402 001c 07EB0415 		add	r5, r7, r4, lsl #4
 672:Dsp/letter_shell/shell.c ****             && base[i].attr.attrs.type <= SHELL_TYPE_VAR_NODE
 2403              		.loc 1 672 31 view .LVU638
 2404 0020 6B78     		ldrb	r3, [r5, #1]	@ zero_extendqisi2
 2405 0022 03F00F03 		and	r3, r3, #15
 673:Dsp/letter_shell/shell.c ****             && shellCheckPermission(shell, &base[i]) == 0)
 2406              		.loc 1 673 13 view .LVU639
 2407 0026 0E33     		adds	r3, r3, #14
 2408 0028 03F00F03 		and	r3, r3, #15
 672:Dsp/letter_shell/shell.c ****             && base[i].attr.attrs.type <= SHELL_TYPE_VAR_NODE
 2409              		.loc 1 672 12 view .LVU640
 2410 002c 052B     		cmp	r3, #5
 2411 002e EFD8     		bhi	.L216
 674:Dsp/letter_shell/shell.c ****         {
 2412              		.loc 1 674 16 view .LVU641
 2413 0030 2946     		mov	r1, r5
 2414 0032 3046     		mov	r0, r6
 2415 0034 FFF7FEFF 		bl	shellCheckPermission
ARM GAS  /var/folders/lx/hc4sn_b53233_zkc9xbbl97r0000gp/T//ccoa1yNG.s 			page 85


 2416              	.LVL227:
 674:Dsp/letter_shell/shell.c ****         {
 2417              		.loc 1 674 13 view .LVU642
 2418 0038 0028     		cmp	r0, #0
 2419 003a E9D1     		bne	.L216
 676:Dsp/letter_shell/shell.c ****         }
 2420              		.loc 1 676 13 is_stmt 1 view .LVU643
 2421 003c 2946     		mov	r1, r5
 2422 003e 3046     		mov	r0, r6
 2423 0040 FFF7FEFF 		bl	shellListItem
 2424              	.LVL228:
 2425 0044 E4E7     		b	.L216
 2426              	.L219:
 676:Dsp/letter_shell/shell.c ****         }
 2427              		.loc 1 676 13 is_stmt 0 view .LVU644
 2428              	.LBE11:
 679:Dsp/letter_shell/shell.c **** 
 2429              		.loc 1 679 1 view .LVU645
 2430 0046 F8BD     		pop	{r3, r4, r5, r6, r7, pc}
 2431              	.LVL229:
 2432              	.L221:
 679:Dsp/letter_shell/shell.c **** 
 2433              		.loc 1 679 1 view .LVU646
 2434              		.align	2
 2435              	.L220:
 2436 0048 00000000 		.word	.LC17
 2437              		.cfi_endproc
 2438              	.LFE144:
 2440              		.section	.text.shellVars,"ax",%progbits
 2441              		.align	1
 2442              		.global	shellVars
 2443              		.syntax unified
 2444              		.thumb
 2445              		.thumb_func
 2446              		.fpu fpv4-sp-d16
 2448              	shellVars:
 2449              	.LFB180:
1834:Dsp/letter_shell/shell.c ****     Shell *shell = shellGetCurrent();
 2450              		.loc 1 1834 1 is_stmt 1 view -0
 2451              		.cfi_startproc
 2452              		@ args = 0, pretend = 0, frame = 0
 2453              		@ frame_needed = 0, uses_anonymous_args = 0
 2454 0000 08B5     		push	{r3, lr}
 2455              	.LCFI36:
 2456              		.cfi_def_cfa_offset 8
 2457              		.cfi_offset 3, -8
 2458              		.cfi_offset 14, -4
1835:Dsp/letter_shell/shell.c ****     if (shell)
 2459              		.loc 1 1835 5 view .LVU648
1835:Dsp/letter_shell/shell.c ****     if (shell)
 2460              		.loc 1 1835 20 is_stmt 0 view .LVU649
 2461 0002 FFF7FEFF 		bl	shellGetCurrent
 2462              	.LVL230:
1836:Dsp/letter_shell/shell.c ****     {
 2463              		.loc 1 1836 5 is_stmt 1 view .LVU650
1836:Dsp/letter_shell/shell.c ****     {
 2464              		.loc 1 1836 8 is_stmt 0 view .LVU651
ARM GAS  /var/folders/lx/hc4sn_b53233_zkc9xbbl97r0000gp/T//ccoa1yNG.s 			page 86


 2465 0006 08B1     		cbz	r0, .L222
1838:Dsp/letter_shell/shell.c ****     }
 2466              		.loc 1 1838 9 is_stmt 1 view .LVU652
 2467 0008 FFF7FEFF 		bl	shellListVar
 2468              	.LVL231:
 2469              	.L222:
1840:Dsp/letter_shell/shell.c **** SHELL_EXPORT_CMD(
 2470              		.loc 1 1840 1 is_stmt 0 view .LVU653
 2471 000c 08BD     		pop	{r3, pc}
 2472              		.cfi_endproc
 2473              	.LFE180:
 2475              		.section	.rodata.shellListUser.str1.4,"aMS",%progbits,1
 2476              		.align	2
 2477              	.LC18:
 2478 0000 0D0A5573 		.ascii	"\015\012User List:\015\012\000"
 2478      6572204C 
 2478      6973743A 
 2478      0D0A00
 2479              		.section	.text.shellListUser,"ax",%progbits
 2480              		.align	1
 2481              		.global	shellListUser
 2482              		.syntax unified
 2483              		.thumb
 2484              		.thumb_func
 2485              		.fpu fpv4-sp-d16
 2487              	shellListUser:
 2488              	.LVL232:
 2489              	.LFB145:
 688:Dsp/letter_shell/shell.c ****     ShellCommand *base = (ShellCommand *)shell->commandList.base;
 2490              		.loc 1 688 1 is_stmt 1 view -0
 2491              		.cfi_startproc
 2492              		@ args = 0, pretend = 0, frame = 0
 2493              		@ frame_needed = 0, uses_anonymous_args = 0
 688:Dsp/letter_shell/shell.c ****     ShellCommand *base = (ShellCommand *)shell->commandList.base;
 2494              		.loc 1 688 1 is_stmt 0 view .LVU655
 2495 0000 F8B5     		push	{r3, r4, r5, r6, r7, lr}
 2496              	.LCFI37:
 2497              		.cfi_def_cfa_offset 24
 2498              		.cfi_offset 3, -24
 2499              		.cfi_offset 4, -20
 2500              		.cfi_offset 5, -16
 2501              		.cfi_offset 6, -12
 2502              		.cfi_offset 7, -8
 2503              		.cfi_offset 14, -4
 2504 0002 0646     		mov	r6, r0
 689:Dsp/letter_shell/shell.c ****     shellWriteString(shell, shellText[SHELL_TEXT_USER_LIST]);
 2505              		.loc 1 689 5 is_stmt 1 view .LVU656
 689:Dsp/letter_shell/shell.c ****     shellWriteString(shell, shellText[SHELL_TEXT_USER_LIST]);
 2506              		.loc 1 689 19 is_stmt 0 view .LVU657
 2507 0004 876D     		ldr	r7, [r0, #88]
 2508              	.LVL233:
 690:Dsp/letter_shell/shell.c ****     for (short i = 0; i < shell->commandList.count; i++)
 2509              		.loc 1 690 5 is_stmt 1 view .LVU658
 2510 0006 0F49     		ldr	r1, .L231
 2511 0008 FFF7FEFF 		bl	shellWriteString
 2512              	.LVL234:
 691:Dsp/letter_shell/shell.c ****     {
ARM GAS  /var/folders/lx/hc4sn_b53233_zkc9xbbl97r0000gp/T//ccoa1yNG.s 			page 87


 2513              		.loc 1 691 5 view .LVU659
 2514              	.LBB12:
 691:Dsp/letter_shell/shell.c ****     {
 2515              		.loc 1 691 10 view .LVU660
 691:Dsp/letter_shell/shell.c ****     {
 2516              		.loc 1 691 16 is_stmt 0 view .LVU661
 2517 000c 0024     		movs	r4, #0
 691:Dsp/letter_shell/shell.c ****     {
 2518              		.loc 1 691 5 view .LVU662
 2519 000e 01E0     		b	.L226
 2520              	.LVL235:
 2521              	.L227:
 691:Dsp/letter_shell/shell.c ****     {
 2522              		.loc 1 691 53 is_stmt 1 discriminator 2 view .LVU663
 691:Dsp/letter_shell/shell.c ****     {
 2523              		.loc 1 691 54 is_stmt 0 discriminator 2 view .LVU664
 2524 0010 0134     		adds	r4, r4, #1
 2525              	.LVL236:
 691:Dsp/letter_shell/shell.c ****     {
 2526              		.loc 1 691 54 discriminator 2 view .LVU665
 2527 0012 24B2     		sxth	r4, r4
 2528              	.LVL237:
 2529              	.L226:
 691:Dsp/letter_shell/shell.c ****     {
 2530              		.loc 1 691 23 is_stmt 1 discriminator 1 view .LVU666
 691:Dsp/letter_shell/shell.c ****     {
 2531              		.loc 1 691 45 is_stmt 0 discriminator 1 view .LVU667
 2532 0014 B6F85C30 		ldrh	r3, [r6, #92]
 691:Dsp/letter_shell/shell.c ****     {
 2533              		.loc 1 691 5 discriminator 1 view .LVU668
 2534 0018 9C42     		cmp	r4, r3
 2535 001a 11DA     		bge	.L230
 693:Dsp/letter_shell/shell.c ****             && base[i].attr.attrs.type <= SHELL_TYPE_USER
 2536              		.loc 1 693 9 is_stmt 1 view .LVU669
 693:Dsp/letter_shell/shell.c ****             && base[i].attr.attrs.type <= SHELL_TYPE_USER
 2537              		.loc 1 693 17 is_stmt 0 view .LVU670
 2538 001c 07EB0415 		add	r5, r7, r4, lsl #4
 694:Dsp/letter_shell/shell.c ****             && shellCheckPermission(shell, &base[i]) == 0)
 2539              		.loc 1 694 13 view .LVU671
 2540 0020 6B78     		ldrb	r3, [r5, #1]	@ zero_extendqisi2
 2541 0022 03F00F03 		and	r3, r3, #15
 693:Dsp/letter_shell/shell.c ****             && base[i].attr.attrs.type <= SHELL_TYPE_USER
 2542              		.loc 1 693 12 view .LVU672
 2543 0026 082B     		cmp	r3, #8
 2544 0028 F2D1     		bne	.L227
 695:Dsp/letter_shell/shell.c ****         {
 2545              		.loc 1 695 16 view .LVU673
 2546 002a 2946     		mov	r1, r5
 2547 002c 3046     		mov	r0, r6
 2548 002e FFF7FEFF 		bl	shellCheckPermission
 2549              	.LVL238:
 695:Dsp/letter_shell/shell.c ****         {
 2550              		.loc 1 695 13 view .LVU674
 2551 0032 0028     		cmp	r0, #0
 2552 0034 ECD1     		bne	.L227
 697:Dsp/letter_shell/shell.c ****         }
 2553              		.loc 1 697 13 is_stmt 1 view .LVU675
ARM GAS  /var/folders/lx/hc4sn_b53233_zkc9xbbl97r0000gp/T//ccoa1yNG.s 			page 88


 2554 0036 2946     		mov	r1, r5
 2555 0038 3046     		mov	r0, r6
 2556 003a FFF7FEFF 		bl	shellListItem
 2557              	.LVL239:
 2558 003e E7E7     		b	.L227
 2559              	.L230:
 697:Dsp/letter_shell/shell.c ****         }
 2560              		.loc 1 697 13 is_stmt 0 view .LVU676
 2561              	.LBE12:
 700:Dsp/letter_shell/shell.c **** 
 2562              		.loc 1 700 1 view .LVU677
 2563 0040 F8BD     		pop	{r3, r4, r5, r6, r7, pc}
 2564              	.LVL240:
 2565              	.L232:
 700:Dsp/letter_shell/shell.c **** 
 2566              		.loc 1 700 1 view .LVU678
 2567 0042 00BF     		.align	2
 2568              	.L231:
 2569 0044 00000000 		.word	.LC18
 2570              		.cfi_endproc
 2571              	.LFE145:
 2573              		.section	.text.shellUsers,"ax",%progbits
 2574              		.align	1
 2575              		.global	shellUsers
 2576              		.syntax unified
 2577              		.thumb
 2578              		.thumb_func
 2579              		.fpu fpv4-sp-d16
 2581              	shellUsers:
 2582              	.LFB178:
1802:Dsp/letter_shell/shell.c ****     Shell *shell = shellGetCurrent();
 2583              		.loc 1 1802 1 is_stmt 1 view -0
 2584              		.cfi_startproc
 2585              		@ args = 0, pretend = 0, frame = 0
 2586              		@ frame_needed = 0, uses_anonymous_args = 0
 2587 0000 08B5     		push	{r3, lr}
 2588              	.LCFI38:
 2589              		.cfi_def_cfa_offset 8
 2590              		.cfi_offset 3, -8
 2591              		.cfi_offset 14, -4
1803:Dsp/letter_shell/shell.c ****     if (shell)
 2592              		.loc 1 1803 5 view .LVU680
1803:Dsp/letter_shell/shell.c ****     if (shell)
 2593              		.loc 1 1803 20 is_stmt 0 view .LVU681
 2594 0002 FFF7FEFF 		bl	shellGetCurrent
 2595              	.LVL241:
1804:Dsp/letter_shell/shell.c ****     {
 2596              		.loc 1 1804 5 is_stmt 1 view .LVU682
1804:Dsp/letter_shell/shell.c ****     {
 2597              		.loc 1 1804 8 is_stmt 0 view .LVU683
 2598 0006 08B1     		cbz	r0, .L233
1806:Dsp/letter_shell/shell.c ****     }
 2599              		.loc 1 1806 9 is_stmt 1 view .LVU684
 2600 0008 FFF7FEFF 		bl	shellListUser
 2601              	.LVL242:
 2602              	.L233:
1808:Dsp/letter_shell/shell.c **** SHELL_EXPORT_CMD(
ARM GAS  /var/folders/lx/hc4sn_b53233_zkc9xbbl97r0000gp/T//ccoa1yNG.s 			page 89


 2603              		.loc 1 1808 1 is_stmt 0 view .LVU685
 2604 000c 08BD     		pop	{r3, pc}
 2605              		.cfi_endproc
 2606              	.LFE178:
 2608              		.section	.rodata.shellListKey.str1.4,"aMS",%progbits,1
 2609              		.align	2
 2610              	.LC19:
 2611 0000 0D0A4B65 		.ascii	"\015\012Key List:\015\012\000"
 2611      79204C69 
 2611      73743A0D 
 2611      0A00
 2612              		.section	.text.shellListKey,"ax",%progbits
 2613              		.align	1
 2614              		.global	shellListKey
 2615              		.syntax unified
 2616              		.thumb
 2617              		.thumb_func
 2618              		.fpu fpv4-sp-d16
 2620              	shellListKey:
 2621              	.LVL243:
 2622              	.LFB146:
 709:Dsp/letter_shell/shell.c ****     ShellCommand *base = (ShellCommand *)shell->commandList.base;
 2623              		.loc 1 709 1 is_stmt 1 view -0
 2624              		.cfi_startproc
 2625              		@ args = 0, pretend = 0, frame = 0
 2626              		@ frame_needed = 0, uses_anonymous_args = 0
 709:Dsp/letter_shell/shell.c ****     ShellCommand *base = (ShellCommand *)shell->commandList.base;
 2627              		.loc 1 709 1 is_stmt 0 view .LVU687
 2628 0000 F8B5     		push	{r3, r4, r5, r6, r7, lr}
 2629              	.LCFI39:
 2630              		.cfi_def_cfa_offset 24
 2631              		.cfi_offset 3, -24
 2632              		.cfi_offset 4, -20
 2633              		.cfi_offset 5, -16
 2634              		.cfi_offset 6, -12
 2635              		.cfi_offset 7, -8
 2636              		.cfi_offset 14, -4
 2637 0002 0646     		mov	r6, r0
 710:Dsp/letter_shell/shell.c ****     shellWriteString(shell, shellText[SHELL_TEXT_KEY_LIST]);
 2638              		.loc 1 710 5 is_stmt 1 view .LVU688
 710:Dsp/letter_shell/shell.c ****     shellWriteString(shell, shellText[SHELL_TEXT_KEY_LIST]);
 2639              		.loc 1 710 19 is_stmt 0 view .LVU689
 2640 0004 876D     		ldr	r7, [r0, #88]
 2641              	.LVL244:
 711:Dsp/letter_shell/shell.c ****     for (short i = 0; i < shell->commandList.count; i++)
 2642              		.loc 1 711 5 is_stmt 1 view .LVU690
 2643 0006 0F49     		ldr	r1, .L242
 2644 0008 FFF7FEFF 		bl	shellWriteString
 2645              	.LVL245:
 712:Dsp/letter_shell/shell.c ****     {
 2646              		.loc 1 712 5 view .LVU691
 2647              	.LBB13:
 712:Dsp/letter_shell/shell.c ****     {
 2648              		.loc 1 712 10 view .LVU692
 712:Dsp/letter_shell/shell.c ****     {
 2649              		.loc 1 712 16 is_stmt 0 view .LVU693
 2650 000c 0024     		movs	r4, #0
ARM GAS  /var/folders/lx/hc4sn_b53233_zkc9xbbl97r0000gp/T//ccoa1yNG.s 			page 90


 712:Dsp/letter_shell/shell.c ****     {
 2651              		.loc 1 712 5 view .LVU694
 2652 000e 01E0     		b	.L237
 2653              	.LVL246:
 2654              	.L238:
 712:Dsp/letter_shell/shell.c ****     {
 2655              		.loc 1 712 53 is_stmt 1 discriminator 2 view .LVU695
 712:Dsp/letter_shell/shell.c ****     {
 2656              		.loc 1 712 54 is_stmt 0 discriminator 2 view .LVU696
 2657 0010 0134     		adds	r4, r4, #1
 2658              	.LVL247:
 712:Dsp/letter_shell/shell.c ****     {
 2659              		.loc 1 712 54 discriminator 2 view .LVU697
 2660 0012 24B2     		sxth	r4, r4
 2661              	.LVL248:
 2662              	.L237:
 712:Dsp/letter_shell/shell.c ****     {
 2663              		.loc 1 712 23 is_stmt 1 discriminator 1 view .LVU698
 712:Dsp/letter_shell/shell.c ****     {
 2664              		.loc 1 712 45 is_stmt 0 discriminator 1 view .LVU699
 2665 0014 B6F85C30 		ldrh	r3, [r6, #92]
 712:Dsp/letter_shell/shell.c ****     {
 2666              		.loc 1 712 5 discriminator 1 view .LVU700
 2667 0018 9C42     		cmp	r4, r3
 2668 001a 11DA     		bge	.L241
 714:Dsp/letter_shell/shell.c ****             && base[i].attr.attrs.type <= SHELL_TYPE_KEY
 2669              		.loc 1 714 9 is_stmt 1 view .LVU701
 714:Dsp/letter_shell/shell.c ****             && base[i].attr.attrs.type <= SHELL_TYPE_KEY
 2670              		.loc 1 714 17 is_stmt 0 view .LVU702
 2671 001c 07EB0415 		add	r5, r7, r4, lsl #4
 715:Dsp/letter_shell/shell.c ****             && shellCheckPermission(shell, &base[i]) == 0)
 2672              		.loc 1 715 13 view .LVU703
 2673 0020 6B78     		ldrb	r3, [r5, #1]	@ zero_extendqisi2
 2674 0022 03F00F03 		and	r3, r3, #15
 714:Dsp/letter_shell/shell.c ****             && base[i].attr.attrs.type <= SHELL_TYPE_KEY
 2675              		.loc 1 714 12 view .LVU704
 2676 0026 092B     		cmp	r3, #9
 2677 0028 F2D1     		bne	.L238
 716:Dsp/letter_shell/shell.c ****         {
 2678              		.loc 1 716 16 view .LVU705
 2679 002a 2946     		mov	r1, r5
 2680 002c 3046     		mov	r0, r6
 2681 002e FFF7FEFF 		bl	shellCheckPermission
 2682              	.LVL249:
 716:Dsp/letter_shell/shell.c ****         {
 2683              		.loc 1 716 13 view .LVU706
 2684 0032 0028     		cmp	r0, #0
 2685 0034 ECD1     		bne	.L238
 718:Dsp/letter_shell/shell.c ****         }
 2686              		.loc 1 718 13 is_stmt 1 view .LVU707
 2687 0036 2946     		mov	r1, r5
 2688 0038 3046     		mov	r0, r6
 2689 003a FFF7FEFF 		bl	shellListItem
 2690              	.LVL250:
 2691 003e E7E7     		b	.L238
 2692              	.L241:
 718:Dsp/letter_shell/shell.c ****         }
ARM GAS  /var/folders/lx/hc4sn_b53233_zkc9xbbl97r0000gp/T//ccoa1yNG.s 			page 91


 2693              		.loc 1 718 13 is_stmt 0 view .LVU708
 2694              	.LBE13:
 721:Dsp/letter_shell/shell.c **** 
 2695              		.loc 1 721 1 view .LVU709
 2696 0040 F8BD     		pop	{r3, r4, r5, r6, r7, pc}
 2697              	.LVL251:
 2698              	.L243:
 721:Dsp/letter_shell/shell.c **** 
 2699              		.loc 1 721 1 view .LVU710
 2700 0042 00BF     		.align	2
 2701              	.L242:
 2702 0044 00000000 		.word	.LC19
 2703              		.cfi_endproc
 2704              	.LFE146:
 2706              		.section	.text.shellKeys,"ax",%progbits
 2707              		.align	1
 2708              		.global	shellKeys
 2709              		.syntax unified
 2710              		.thumb
 2711              		.thumb_func
 2712              		.fpu fpv4-sp-d16
 2714              	shellKeys:
 2715              	.LFB181:
1850:Dsp/letter_shell/shell.c ****     Shell *shell = shellGetCurrent();
 2716              		.loc 1 1850 1 is_stmt 1 view -0
 2717              		.cfi_startproc
 2718              		@ args = 0, pretend = 0, frame = 0
 2719              		@ frame_needed = 0, uses_anonymous_args = 0
 2720 0000 08B5     		push	{r3, lr}
 2721              	.LCFI40:
 2722              		.cfi_def_cfa_offset 8
 2723              		.cfi_offset 3, -8
 2724              		.cfi_offset 14, -4
1851:Dsp/letter_shell/shell.c ****     if (shell)
 2725              		.loc 1 1851 5 view .LVU712
1851:Dsp/letter_shell/shell.c ****     if (shell)
 2726              		.loc 1 1851 20 is_stmt 0 view .LVU713
 2727 0002 FFF7FEFF 		bl	shellGetCurrent
 2728              	.LVL252:
1852:Dsp/letter_shell/shell.c ****     {
 2729              		.loc 1 1852 5 is_stmt 1 view .LVU714
1852:Dsp/letter_shell/shell.c ****     {
 2730              		.loc 1 1852 8 is_stmt 0 view .LVU715
 2731 0006 08B1     		cbz	r0, .L244
1854:Dsp/letter_shell/shell.c ****     }
 2732              		.loc 1 1854 9 is_stmt 1 view .LVU716
 2733 0008 FFF7FEFF 		bl	shellListKey
 2734              	.LVL253:
 2735              	.L244:
1856:Dsp/letter_shell/shell.c **** SHELL_EXPORT_CMD(
 2736              		.loc 1 1856 1 is_stmt 0 view .LVU717
 2737 000c 08BD     		pop	{r3, pc}
 2738              		.cfi_endproc
 2739              	.LFE181:
 2741              		.section	.text.shellListAll,"ax",%progbits
 2742              		.align	1
 2743              		.global	shellListAll
ARM GAS  /var/folders/lx/hc4sn_b53233_zkc9xbbl97r0000gp/T//ccoa1yNG.s 			page 92


 2744              		.syntax unified
 2745              		.thumb
 2746              		.thumb_func
 2747              		.fpu fpv4-sp-d16
 2749              	shellListAll:
 2750              	.LVL254:
 2751              	.LFB147:
 730:Dsp/letter_shell/shell.c **** #if SHELL_HELP_LIST_USER == 1
 2752              		.loc 1 730 1 is_stmt 1 view -0
 2753              		.cfi_startproc
 2754              		@ args = 0, pretend = 0, frame = 0
 2755              		@ frame_needed = 0, uses_anonymous_args = 0
 730:Dsp/letter_shell/shell.c **** #if SHELL_HELP_LIST_USER == 1
 2756              		.loc 1 730 1 is_stmt 0 view .LVU719
 2757 0000 08B5     		push	{r3, lr}
 2758              	.LCFI41:
 2759              		.cfi_def_cfa_offset 8
 2760              		.cfi_offset 3, -8
 2761              		.cfi_offset 14, -4
 734:Dsp/letter_shell/shell.c **** #if SHELL_HELP_LIST_VAR == 1
 2762              		.loc 1 734 5 is_stmt 1 view .LVU720
 2763 0002 FFF7FEFF 		bl	shellListCommand
 2764              	.LVL255:
 741:Dsp/letter_shell/shell.c **** 
 2765              		.loc 1 741 1 is_stmt 0 view .LVU721
 2766 0006 08BD     		pop	{r3, pc}
 2767              		.cfi_endproc
 2768              	.LFE147:
 2770              		.section	.rodata.shellDeleteCommandLine.str1.4,"aMS",%progbits,1
 2771              		.align	2
 2772              	.LC20:
 2773 0000 08200800 		.ascii	"\010 \010\000"
 2774              		.section	.text.shellDeleteCommandLine,"ax",%progbits
 2775              		.align	1
 2776              		.global	shellDeleteCommandLine
 2777              		.syntax unified
 2778              		.thumb
 2779              		.thumb_func
 2780              		.fpu fpv4-sp-d16
 2782              	shellDeleteCommandLine:
 2783              	.LVL256:
 2784              	.LFB148:
 751:Dsp/letter_shell/shell.c ****     while (length--)
 2785              		.loc 1 751 1 is_stmt 1 view -0
 2786              		.cfi_startproc
 2787              		@ args = 0, pretend = 0, frame = 0
 2788              		@ frame_needed = 0, uses_anonymous_args = 0
 751:Dsp/letter_shell/shell.c ****     while (length--)
 2789              		.loc 1 751 1 is_stmt 0 view .LVU723
 2790 0000 38B5     		push	{r3, r4, r5, lr}
 2791              	.LCFI42:
 2792              		.cfi_def_cfa_offset 16
 2793              		.cfi_offset 3, -16
 2794              		.cfi_offset 4, -12
 2795              		.cfi_offset 5, -8
 2796              		.cfi_offset 14, -4
 2797 0002 0546     		mov	r5, r0
ARM GAS  /var/folders/lx/hc4sn_b53233_zkc9xbbl97r0000gp/T//ccoa1yNG.s 			page 93


 752:Dsp/letter_shell/shell.c ****     {
 2798              		.loc 1 752 5 is_stmt 1 view .LVU724
 752:Dsp/letter_shell/shell.c ****     {
 2799              		.loc 1 752 11 is_stmt 0 view .LVU725
 2800 0004 04E0     		b	.L250
 2801              	.LVL257:
 2802              	.L251:
 754:Dsp/letter_shell/shell.c ****     }
 2803              		.loc 1 754 9 is_stmt 1 view .LVU726
 2804 0006 0549     		ldr	r1, .L253
 2805 0008 2846     		mov	r0, r5
 2806 000a FFF7FEFF 		bl	shellWriteString
 2807              	.LVL258:
 752:Dsp/letter_shell/shell.c ****     {
 2808              		.loc 1 752 18 is_stmt 0 view .LVU727
 2809 000e 2146     		mov	r1, r4
 2810              	.LVL259:
 2811              	.L250:
 752:Dsp/letter_shell/shell.c ****     {
 2812              		.loc 1 752 11 is_stmt 1 view .LVU728
 752:Dsp/letter_shell/shell.c ****     {
 2813              		.loc 1 752 18 is_stmt 0 view .LVU729
 2814 0010 4B1E     		subs	r3, r1, #1
 2815 0012 DCB2     		uxtb	r4, r3
 2816              	.LVL260:
 752:Dsp/letter_shell/shell.c ****     {
 2817              		.loc 1 752 11 view .LVU730
 2818 0014 0029     		cmp	r1, #0
 2819 0016 F6D1     		bne	.L251
 756:Dsp/letter_shell/shell.c **** 
 2820              		.loc 1 756 1 view .LVU731
 2821 0018 38BD     		pop	{r3, r4, r5, pc}
 2822              	.LVL261:
 2823              	.L254:
 756:Dsp/letter_shell/shell.c **** 
 2824              		.loc 1 756 1 view .LVU732
 2825 001a 00BF     		.align	2
 2826              	.L253:
 2827 001c 00000000 		.word	.LC20
 2828              		.cfi_endproc
 2829              	.LFE148:
 2831              		.section	.text.shellClearCommandLine,"ax",%progbits
 2832              		.align	1
 2833              		.global	shellClearCommandLine
 2834              		.syntax unified
 2835              		.thumb
 2836              		.thumb_func
 2837              		.fpu fpv4-sp-d16
 2839              	shellClearCommandLine:
 2840              	.LVL262:
 2841              	.LFB149:
 765:Dsp/letter_shell/shell.c ****     for (short i = shell->parser.length - shell->parser.cursor; i > 0; i--)
 2842              		.loc 1 765 1 is_stmt 1 view -0
 2843              		.cfi_startproc
 2844              		@ args = 0, pretend = 0, frame = 0
 2845              		@ frame_needed = 0, uses_anonymous_args = 0
 765:Dsp/letter_shell/shell.c ****     for (short i = shell->parser.length - shell->parser.cursor; i > 0; i--)
ARM GAS  /var/folders/lx/hc4sn_b53233_zkc9xbbl97r0000gp/T//ccoa1yNG.s 			page 94


 2846              		.loc 1 765 1 is_stmt 0 view .LVU734
 2847 0000 38B5     		push	{r3, r4, r5, lr}
 2848              	.LCFI43:
 2849              		.cfi_def_cfa_offset 16
 2850              		.cfi_offset 3, -16
 2851              		.cfi_offset 4, -12
 2852              		.cfi_offset 5, -8
 2853              		.cfi_offset 14, -4
 2854 0002 0546     		mov	r5, r0
 766:Dsp/letter_shell/shell.c ****     {
 2855              		.loc 1 766 5 is_stmt 1 view .LVU735
 2856              	.LBB14:
 766:Dsp/letter_shell/shell.c ****     {
 2857              		.loc 1 766 10 view .LVU736
 766:Dsp/letter_shell/shell.c ****     {
 2858              		.loc 1 766 33 is_stmt 0 view .LVU737
 2859 0004 8489     		ldrh	r4, [r0, #12]
 766:Dsp/letter_shell/shell.c ****     {
 2860              		.loc 1 766 56 view .LVU738
 2861 0006 C389     		ldrh	r3, [r0, #14]
 766:Dsp/letter_shell/shell.c ****     {
 2862              		.loc 1 766 41 view .LVU739
 2863 0008 E41A     		subs	r4, r4, r3
 766:Dsp/letter_shell/shell.c ****     {
 2864              		.loc 1 766 16 view .LVU740
 2865 000a 24B2     		sxth	r4, r4
 2866              	.LVL263:
 766:Dsp/letter_shell/shell.c ****     {
 2867              		.loc 1 766 5 view .LVU741
 2868 000c 05E0     		b	.L256
 2869              	.LVL264:
 2870              	.L257:
 768:Dsp/letter_shell/shell.c ****     }
 2871              		.loc 1 768 9 is_stmt 1 discriminator 3 view .LVU742
 2872 000e 2021     		movs	r1, #32
 2873 0010 2846     		mov	r0, r5
 2874 0012 FFF7FEFF 		bl	shellWriteByte
 2875              	.LVL265:
 766:Dsp/letter_shell/shell.c ****     {
 2876              		.loc 1 766 72 discriminator 3 view .LVU743
 766:Dsp/letter_shell/shell.c ****     {
 2877              		.loc 1 766 73 is_stmt 0 discriminator 3 view .LVU744
 2878 0016 013C     		subs	r4, r4, #1
 2879              	.LVL266:
 766:Dsp/letter_shell/shell.c ****     {
 2880              		.loc 1 766 73 discriminator 3 view .LVU745
 2881 0018 24B2     		sxth	r4, r4
 2882              	.LVL267:
 2883              	.L256:
 766:Dsp/letter_shell/shell.c ****     {
 2884              		.loc 1 766 65 is_stmt 1 discriminator 1 view .LVU746
 766:Dsp/letter_shell/shell.c ****     {
 2885              		.loc 1 766 5 is_stmt 0 discriminator 1 view .LVU747
 2886 001a 002C     		cmp	r4, #0
 2887 001c F7DC     		bgt	.L257
 766:Dsp/letter_shell/shell.c ****     {
 2888              		.loc 1 766 5 discriminator 1 view .LVU748
ARM GAS  /var/folders/lx/hc4sn_b53233_zkc9xbbl97r0000gp/T//ccoa1yNG.s 			page 95


 2889              	.LBE14:
 770:Dsp/letter_shell/shell.c **** }
 2890              		.loc 1 770 5 is_stmt 1 view .LVU749
 2891 001e 297B     		ldrb	r1, [r5, #12]	@ zero_extendqisi2
 2892 0020 2846     		mov	r0, r5
 2893 0022 FFF7FEFF 		bl	shellDeleteCommandLine
 2894              	.LVL268:
 771:Dsp/letter_shell/shell.c **** 
 2895              		.loc 1 771 1 is_stmt 0 view .LVU750
 2896 0026 38BD     		pop	{r3, r4, r5, pc}
 771:Dsp/letter_shell/shell.c **** 
 2897              		.loc 1 771 1 view .LVU751
 2898              		.cfi_endproc
 2899              	.LFE149:
 2901              		.section	.text.shellHistory,"ax",%progbits
 2902              		.align	1
 2903              		.syntax unified
 2904              		.thumb
 2905              		.thumb_func
 2906              		.fpu fpv4-sp-d16
 2908              	shellHistory:
 2909              	.LVL269:
 2910              	.LFB164:
1319:Dsp/letter_shell/shell.c ****     if (dir > 0)
 2911              		.loc 1 1319 1 is_stmt 1 view -0
 2912              		.cfi_startproc
 2913              		@ args = 0, pretend = 0, frame = 0
 2914              		@ frame_needed = 0, uses_anonymous_args = 0
1319:Dsp/letter_shell/shell.c ****     if (dir > 0)
 2915              		.loc 1 1319 1 is_stmt 0 view .LVU753
 2916 0000 10B5     		push	{r4, lr}
 2917              	.LCFI44:
 2918              		.cfi_def_cfa_offset 8
 2919              		.cfi_offset 4, -8
 2920              		.cfi_offset 14, -4
 2921 0002 0446     		mov	r4, r0
1320:Dsp/letter_shell/shell.c ****     {
 2922              		.loc 1 1320 5 is_stmt 1 view .LVU754
1320:Dsp/letter_shell/shell.c ****     {
 2923              		.loc 1 1320 8 is_stmt 0 view .LVU755
 2924 0004 0029     		cmp	r1, #0
 2925              	.LVL270:
1320:Dsp/letter_shell/shell.c ****     {
 2926              		.loc 1 1320 8 view .LVU756
 2927 0006 19DD     		ble	.L260
1322:Dsp/letter_shell/shell.c ****             -((shell->history.number > shell->history.record) ?
 2928              		.loc 1 1322 9 is_stmt 1 view .LVU757
1322:Dsp/letter_shell/shell.c ****             -((shell->history.number > shell->history.record) ?
 2929              		.loc 1 1322 27 is_stmt 0 view .LVU758
 2930 0008 B0F95420 		ldrsh	r2, [r0, #84]
1322:Dsp/letter_shell/shell.c ****             -((shell->history.number > shell->history.record) ?
 2931              		.loc 1 1322 34 view .LVU759
 2932 000c 531E     		subs	r3, r2, #1
 2933 000e A0F85430 		strh	r3, [r0, #84]	@ movhi
1323:Dsp/letter_shell/shell.c ****                 shell->history.number : shell->history.record))
 2934              		.loc 1 1323 54 view .LVU760
 2935 0012 B0F85230 		ldrh	r3, [r0, #82]
ARM GAS  /var/folders/lx/hc4sn_b53233_zkc9xbbl97r0000gp/T//ccoa1yNG.s 			page 96


1323:Dsp/letter_shell/shell.c ****                 shell->history.number : shell->history.record))
 2936              		.loc 1 1323 30 view .LVU761
 2937 0016 B0F85010 		ldrh	r1, [r0, #80]
1324:Dsp/letter_shell/shell.c ****         {
 2938              		.loc 1 1324 39 view .LVU762
 2939 001a 8B42     		cmp	r3, r1
 2940 001c 38BF     		it	cc
 2941 001e 0B46     		movcc	r3, r1
1323:Dsp/letter_shell/shell.c ****                 shell->history.number : shell->history.record))
 2942              		.loc 1 1323 13 view .LVU763
 2943 0020 5942     		rsbs	r1, r3, #0
1322:Dsp/letter_shell/shell.c ****             -((shell->history.number > shell->history.record) ?
 2944              		.loc 1 1322 12 view .LVU764
 2945 0022 8A42     		cmp	r2, r1
 2946 0024 01DC     		bgt	.L261
1326:Dsp/letter_shell/shell.c ****                                     ? shell->history.number : shell->history.record);
 2947              		.loc 1 1326 13 is_stmt 1 view .LVU765
1326:Dsp/letter_shell/shell.c ****                                     ? shell->history.number : shell->history.record);
 2948              		.loc 1 1326 35 is_stmt 0 view .LVU766
 2949 0026 A4F85410 		strh	r1, [r4, #84]	@ movhi
 2950              	.L261:
1342:Dsp/letter_shell/shell.c ****     if (shell->history.offset == 0)
 2951              		.loc 1 1342 5 is_stmt 1 view .LVU767
 2952 002a 2046     		mov	r0, r4
 2953              	.LVL271:
1342:Dsp/letter_shell/shell.c ****     if (shell->history.offset == 0)
 2954              		.loc 1 1342 5 is_stmt 0 view .LVU768
 2955 002c FFF7FEFF 		bl	shellClearCommandLine
 2956              	.LVL272:
1343:Dsp/letter_shell/shell.c ****     {
 2957              		.loc 1 1343 5 is_stmt 1 view .LVU769
1343:Dsp/letter_shell/shell.c ****     {
 2958              		.loc 1 1343 23 is_stmt 0 view .LVU770
 2959 0030 B4F95430 		ldrsh	r3, [r4, #84]
1343:Dsp/letter_shell/shell.c ****     {
 2960              		.loc 1 1343 8 view .LVU771
 2961 0034 83B9     		cbnz	r3, .L263
1345:Dsp/letter_shell/shell.c ****     }
 2962              		.loc 1 1345 9 is_stmt 1 view .LVU772
1345:Dsp/letter_shell/shell.c ****     }
 2963              		.loc 1 1345 53 is_stmt 0 view .LVU773
 2964 0036 A381     		strh	r3, [r4, #12]	@ movhi
1345:Dsp/letter_shell/shell.c ****     }
 2965              		.loc 1 1345 30 view .LVU774
 2966 0038 E381     		strh	r3, [r4, #14]	@ movhi
 2967              	.L259:
1359:Dsp/letter_shell/shell.c **** 
 2968              		.loc 1 1359 1 view .LVU775
 2969 003a 10BD     		pop	{r4, pc}
 2970              	.LVL273:
 2971              	.L260:
1330:Dsp/letter_shell/shell.c ****     {
 2972              		.loc 1 1330 10 is_stmt 1 view .LVU776
1330:Dsp/letter_shell/shell.c ****     {
 2973              		.loc 1 1330 13 is_stmt 0 view .LVU777
 2974 003c 0029     		cmp	r1, #0
 2975 003e FCDA     		bge	.L259
ARM GAS  /var/folders/lx/hc4sn_b53233_zkc9xbbl97r0000gp/T//ccoa1yNG.s 			page 97


1332:Dsp/letter_shell/shell.c ****         {
 2976              		.loc 1 1332 9 is_stmt 1 view .LVU778
1332:Dsp/letter_shell/shell.c ****         {
 2977              		.loc 1 1332 29 is_stmt 0 view .LVU779
 2978 0040 B0F95430 		ldrsh	r3, [r0, #84]
1332:Dsp/letter_shell/shell.c ****         {
 2979              		.loc 1 1332 13 view .LVU780
 2980 0044 0133     		adds	r3, r3, #1
 2981 0046 1BB2     		sxth	r3, r3
1332:Dsp/letter_shell/shell.c ****         {
 2982              		.loc 1 1332 12 view .LVU781
 2983 0048 A0F85430 		strh	r3, [r0, #84]	@ movhi
 2984 004c 002B     		cmp	r3, #0
 2985 004e ECDD     		ble	.L261
1334:Dsp/letter_shell/shell.c ****             return;
 2986              		.loc 1 1334 13 is_stmt 1 view .LVU782
1334:Dsp/letter_shell/shell.c ****             return;
 2987              		.loc 1 1334 35 is_stmt 0 view .LVU783
 2988 0050 0023     		movs	r3, #0
 2989 0052 A0F85430 		strh	r3, [r0, #84]	@ movhi
1335:Dsp/letter_shell/shell.c ****         }
 2990              		.loc 1 1335 13 is_stmt 1 view .LVU784
 2991 0056 F0E7     		b	.L259
 2992              	.LVL274:
 2993              	.L263:
1349:Dsp/letter_shell/shell.c ****                 shell->history.item[(shell->history.record + SHELL_HISTORY_MAX_NUMBER
 2994              		.loc 1 1349 9 view .LVU785
1350:Dsp/letter_shell/shell.c ****                     + shell->history.offset) % SHELL_HISTORY_MAX_NUMBER])) == 0)
 2995              		.loc 1 1350 52 is_stmt 0 view .LVU786
 2996 0058 B4F85220 		ldrh	r2, [r4, #82]
1350:Dsp/letter_shell/shell.c ****                     + shell->history.offset) % SHELL_HISTORY_MAX_NUMBER])) == 0)
 2997              		.loc 1 1350 60 view .LVU787
 2998 005c 0532     		adds	r2, r2, #5
1351:Dsp/letter_shell/shell.c ****         {
 2999              		.loc 1 1351 21 view .LVU788
 3000 005e 1A44     		add	r2, r2, r3
1351:Dsp/letter_shell/shell.c ****         {
 3001              		.loc 1 1351 46 view .LVU789
 3002 0060 0C49     		ldr	r1, .L265
 3003 0062 81FB0231 		smull	r3, r1, r1, r2
 3004 0066 D317     		asrs	r3, r2, #31
 3005 0068 C3EB6103 		rsb	r3, r3, r1, asr #1
 3006 006c 03EB8303 		add	r3, r3, r3, lsl #2
 3007 0070 D31A     		subs	r3, r2, r3
1349:Dsp/letter_shell/shell.c ****                 shell->history.item[(shell->history.record + SHELL_HISTORY_MAX_NUMBER
 3008              		.loc 1 1349 37 view .LVU790
 3009 0072 0E33     		adds	r3, r3, #14
 3010 0074 04EB8303 		add	r3, r4, r3, lsl #2
 3011 0078 5968     		ldr	r1, [r3, #4]
 3012 007a 2069     		ldr	r0, [r4, #16]
 3013 007c FFF7FEFF 		bl	shellStringCopy
 3014              	.LVL275:
1349:Dsp/letter_shell/shell.c ****                 shell->history.item[(shell->history.record + SHELL_HISTORY_MAX_NUMBER
 3015              		.loc 1 1349 35 view .LVU791
 3016 0080 A081     		strh	r0, [r4, #12]	@ movhi
1349:Dsp/letter_shell/shell.c ****                 shell->history.item[(shell->history.record + SHELL_HISTORY_MAX_NUMBER
 3017              		.loc 1 1349 12 view .LVU792
ARM GAS  /var/folders/lx/hc4sn_b53233_zkc9xbbl97r0000gp/T//ccoa1yNG.s 			page 98


 3018 0082 0028     		cmp	r0, #0
 3019 0084 D9D0     		beq	.L259
1355:Dsp/letter_shell/shell.c ****         shellWriteString(shell, shell->parser.buffer);
 3020              		.loc 1 1355 9 is_stmt 1 view .LVU793
1355:Dsp/letter_shell/shell.c ****         shellWriteString(shell, shell->parser.buffer);
 3021              		.loc 1 1355 30 is_stmt 0 view .LVU794
 3022 0086 E081     		strh	r0, [r4, #14]	@ movhi
1356:Dsp/letter_shell/shell.c ****     }
 3023              		.loc 1 1356 9 is_stmt 1 view .LVU795
 3024 0088 2169     		ldr	r1, [r4, #16]
 3025 008a 2046     		mov	r0, r4
 3026 008c FFF7FEFF 		bl	shellWriteString
 3027              	.LVL276:
 3028 0090 D3E7     		b	.L259
 3029              	.L266:
 3030 0092 00BF     		.align	2
 3031              	.L265:
 3032 0094 67666666 		.word	1717986919
 3033              		.cfi_endproc
 3034              	.LFE164:
 3036              		.section	.text.shellUp,"ax",%progbits
 3037              		.align	1
 3038              		.global	shellUp
 3039              		.syntax unified
 3040              		.thumb
 3041              		.thumb_func
 3042              		.fpu fpv4-sp-d16
 3044              	shellUp:
 3045              	.LVL277:
 3046              	.LFB167:
1427:Dsp/letter_shell/shell.c ****     shellHistory(shell, 1);
 3047              		.loc 1 1427 1 view -0
 3048              		.cfi_startproc
 3049              		@ args = 0, pretend = 0, frame = 0
 3050              		@ frame_needed = 0, uses_anonymous_args = 0
1427:Dsp/letter_shell/shell.c ****     shellHistory(shell, 1);
 3051              		.loc 1 1427 1 is_stmt 0 view .LVU797
 3052 0000 08B5     		push	{r3, lr}
 3053              	.LCFI45:
 3054              		.cfi_def_cfa_offset 8
 3055              		.cfi_offset 3, -8
 3056              		.cfi_offset 14, -4
1428:Dsp/letter_shell/shell.c **** }
 3057              		.loc 1 1428 5 is_stmt 1 view .LVU798
 3058 0002 0121     		movs	r1, #1
 3059 0004 FFF7FEFF 		bl	shellHistory
 3060              	.LVL278:
1429:Dsp/letter_shell/shell.c **** SHELL_EXPORT_KEY(SHELL_CMD_PERMISSION(0), 0x1B5B4100, shellUp, up);
 3061              		.loc 1 1429 1 is_stmt 0 view .LVU799
 3062 0008 08BD     		pop	{r3, pc}
 3063              		.cfi_endproc
 3064              	.LFE167:
 3066              		.section	.text.shellDown,"ax",%progbits
 3067              		.align	1
 3068              		.global	shellDown
 3069              		.syntax unified
 3070              		.thumb
ARM GAS  /var/folders/lx/hc4sn_b53233_zkc9xbbl97r0000gp/T//ccoa1yNG.s 			page 99


 3071              		.thumb_func
 3072              		.fpu fpv4-sp-d16
 3074              	shellDown:
 3075              	.LVL279:
 3076              	.LFB168:
1439:Dsp/letter_shell/shell.c ****     shellHistory(shell, -1);
 3077              		.loc 1 1439 1 is_stmt 1 view -0
 3078              		.cfi_startproc
 3079              		@ args = 0, pretend = 0, frame = 0
 3080              		@ frame_needed = 0, uses_anonymous_args = 0
1439:Dsp/letter_shell/shell.c ****     shellHistory(shell, -1);
 3081              		.loc 1 1439 1 is_stmt 0 view .LVU801
 3082 0000 08B5     		push	{r3, lr}
 3083              	.LCFI46:
 3084              		.cfi_def_cfa_offset 8
 3085              		.cfi_offset 3, -8
 3086              		.cfi_offset 14, -4
1440:Dsp/letter_shell/shell.c **** }
 3087              		.loc 1 1440 5 is_stmt 1 view .LVU802
 3088 0002 4FF0FF31 		mov	r1, #-1
 3089 0006 FFF7FEFF 		bl	shellHistory
 3090              	.LVL280:
1441:Dsp/letter_shell/shell.c **** SHELL_EXPORT_KEY(SHELL_CMD_PERMISSION(0), 0x1B5B4200, shellDown, down);
 3091              		.loc 1 1441 1 is_stmt 0 view .LVU803
 3092 000a 08BD     		pop	{r3, pc}
 3093              		.cfi_endproc
 3094              	.LFE168:
 3096              		.section	.text.shellTab,"ax",%progbits
 3097              		.align	1
 3098              		.global	shellTab
 3099              		.syntax unified
 3100              		.thumb
 3101              		.thumb_func
 3102              		.fpu fpv4-sp-d16
 3104              	shellTab:
 3105              	.LVL281:
 3106              	.LFB171:
1484:Dsp/letter_shell/shell.c ****     unsigned short maxMatch = shell->parser.bufferSize;
 3107              		.loc 1 1484 1 is_stmt 1 view -0
 3108              		.cfi_startproc
 3109              		@ args = 0, pretend = 0, frame = 0
 3110              		@ frame_needed = 0, uses_anonymous_args = 0
1484:Dsp/letter_shell/shell.c ****     unsigned short maxMatch = shell->parser.bufferSize;
 3111              		.loc 1 1484 1 is_stmt 0 view .LVU805
 3112 0000 2DE9F84F 		push	{r3, r4, r5, r6, r7, r8, r9, r10, fp, lr}
 3113              	.LCFI47:
 3114              		.cfi_def_cfa_offset 40
 3115              		.cfi_offset 3, -40
 3116              		.cfi_offset 4, -36
 3117              		.cfi_offset 5, -32
 3118              		.cfi_offset 6, -28
 3119              		.cfi_offset 7, -24
 3120              		.cfi_offset 8, -20
 3121              		.cfi_offset 9, -16
 3122              		.cfi_offset 10, -12
 3123              		.cfi_offset 11, -8
 3124              		.cfi_offset 14, -4
ARM GAS  /var/folders/lx/hc4sn_b53233_zkc9xbbl97r0000gp/T//ccoa1yNG.s 			page 100


 3125 0004 0546     		mov	r5, r0
1485:Dsp/letter_shell/shell.c ****     unsigned short lastMatchIndex = 0;
 3126              		.loc 1 1485 5 is_stmt 1 view .LVU806
1485:Dsp/letter_shell/shell.c ****     unsigned short lastMatchIndex = 0;
 3127              		.loc 1 1485 20 is_stmt 0 view .LVU807
 3128 0006 B0F834A0 		ldrh	r10, [r0, #52]
 3129              	.LVL282:
1486:Dsp/letter_shell/shell.c ****     unsigned short matchNum = 0;
 3130              		.loc 1 1486 5 is_stmt 1 view .LVU808
1487:Dsp/letter_shell/shell.c ****     unsigned short length;
 3131              		.loc 1 1487 5 view .LVU809
1488:Dsp/letter_shell/shell.c **** 
 3132              		.loc 1 1488 5 view .LVU810
1490:Dsp/letter_shell/shell.c ****     {
 3133              		.loc 1 1490 5 view .LVU811
1490:Dsp/letter_shell/shell.c ****     {
 3134              		.loc 1 1490 22 is_stmt 0 view .LVU812
 3135 000a 8389     		ldrh	r3, [r0, #12]
1490:Dsp/letter_shell/shell.c ****     {
 3136              		.loc 1 1490 8 view .LVU813
 3137 000c 43B1     		cbz	r3, .L282
1495:Dsp/letter_shell/shell.c ****     {
 3138              		.loc 1 1495 10 is_stmt 1 view .LVU814
 3139              	.LBB15:
1497:Dsp/letter_shell/shell.c ****         ShellCommand *base = (ShellCommand *)shell->commandList.base;
 3140              		.loc 1 1497 9 view .LVU815
1497:Dsp/letter_shell/shell.c ****         ShellCommand *base = (ShellCommand *)shell->commandList.base;
 3141              		.loc 1 1497 22 is_stmt 0 view .LVU816
 3142 000e 0269     		ldr	r2, [r0, #16]
1497:Dsp/letter_shell/shell.c ****         ShellCommand *base = (ShellCommand *)shell->commandList.base;
 3143              		.loc 1 1497 52 view .LVU817
 3144 0010 4FF00008 		mov	r8, #0
 3145 0014 02F80380 		strb	r8, [r2, r3]
1498:Dsp/letter_shell/shell.c ****         for (short i = 0; i < shell->commandList.count; i++)
 3146              		.loc 1 1498 9 is_stmt 1 view .LVU818
1498:Dsp/letter_shell/shell.c ****         for (short i = 0; i < shell->commandList.count; i++)
 3147              		.loc 1 1498 23 is_stmt 0 view .LVU819
 3148 0018 876D     		ldr	r7, [r0, #88]
 3149              	.LVL283:
1499:Dsp/letter_shell/shell.c ****         {
 3150              		.loc 1 1499 9 is_stmt 1 view .LVU820
 3151              	.LBB16:
1499:Dsp/letter_shell/shell.c ****         {
 3152              		.loc 1 1499 14 view .LVU821
1499:Dsp/letter_shell/shell.c ****         {
 3153              		.loc 1 1499 20 is_stmt 0 view .LVU822
 3154 001a 4446     		mov	r4, r8
 3155              	.LBE16:
 3156              	.LBE15:
1487:Dsp/letter_shell/shell.c ****     unsigned short length;
 3157              		.loc 1 1487 20 view .LVU823
 3158 001c C146     		mov	r9, r8
 3159              	.LBB19:
 3160              	.LBB17:
1499:Dsp/letter_shell/shell.c ****         {
 3161              		.loc 1 1499 9 view .LVU824
 3162 001e 24E0     		b	.L274
ARM GAS  /var/folders/lx/hc4sn_b53233_zkc9xbbl97r0000gp/T//ccoa1yNG.s 			page 101


 3163              	.LVL284:
 3164              	.L282:
1499:Dsp/letter_shell/shell.c ****         {
 3165              		.loc 1 1499 9 view .LVU825
 3166              	.LBE17:
 3167              	.LBE19:
1492:Dsp/letter_shell/shell.c ****         shellWriteCommandLine(shell, 1);
 3168              		.loc 1 1492 9 is_stmt 1 view .LVU826
 3169 0020 FFF7FEFF 		bl	shellListAll
 3170              	.LVL285:
1493:Dsp/letter_shell/shell.c ****     }
 3171              		.loc 1 1493 9 view .LVU827
 3172 0024 0121     		movs	r1, #1
 3173 0026 2846     		mov	r0, r5
 3174 0028 FFF7FEFF 		bl	shellWriteCommandLine
 3175              	.LVL286:
 3176 002c 5EE0     		b	.L271
 3177              	.LVL287:
 3178              	.L277:
 3179              	.LBB20:
 3180              	.LBB18:
1512:Dsp/letter_shell/shell.c ****                     length = 
 3181              		.loc 1 1512 21 view .LVU828
 3182 002e 07EB0818 		add	r8, r7, r8, lsl #4
 3183              	.LVL288:
1512:Dsp/letter_shell/shell.c ****                     length = 
 3184              		.loc 1 1512 21 is_stmt 0 view .LVU829
 3185 0032 4146     		mov	r1, r8
 3186 0034 2846     		mov	r0, r5
 3187 0036 FFF7FEFF 		bl	shellListItem
 3188              	.LVL289:
1513:Dsp/letter_shell/shell.c ****                         shellStringCompare((char *)shellGetCommandName(&base[lastMatchIndex]),
 3189              		.loc 1 1513 21 is_stmt 1 view .LVU830
1514:Dsp/letter_shell/shell.c ****                                            (char *)shellGetCommandName(&base[i]));
 3190              		.loc 1 1514 52 is_stmt 0 view .LVU831
 3191 003a 4046     		mov	r0, r8
 3192 003c FFF7FEFF 		bl	shellGetCommandName
 3193              	.LVL290:
 3194 0040 8046     		mov	r8, r0
1515:Dsp/letter_shell/shell.c ****                     maxMatch = (maxMatch > length) ? length : maxMatch;
 3195              		.loc 1 1515 52 view .LVU832
 3196 0042 3046     		mov	r0, r6
 3197 0044 FFF7FEFF 		bl	shellGetCommandName
 3198              	.LVL291:
 3199 0048 0146     		mov	r1, r0
1514:Dsp/letter_shell/shell.c ****                                            (char *)shellGetCommandName(&base[i]));
 3200              		.loc 1 1514 25 view .LVU833
 3201 004a 4046     		mov	r0, r8
 3202 004c FFF7FEFF 		bl	shellStringCompare
 3203              	.LVL292:
1516:Dsp/letter_shell/shell.c ****                 }
 3204              		.loc 1 1516 21 is_stmt 1 view .LVU834
1516:Dsp/letter_shell/shell.c ****                 }
 3205              		.loc 1 1516 30 is_stmt 0 view .LVU835
 3206 0050 8245     		cmp	r10, r0
 3207 0052 28BF     		it	cs
 3208 0054 8246     		movcs	r10, r0
ARM GAS  /var/folders/lx/hc4sn_b53233_zkc9xbbl97r0000gp/T//ccoa1yNG.s 			page 102


 3209              	.LVL293:
1516:Dsp/letter_shell/shell.c ****                 }
 3210              		.loc 1 1516 30 view .LVU836
 3211 0056 1FFA8AFA 		uxth	r10, r10
 3212              	.LVL294:
 3213              	.L276:
1518:Dsp/letter_shell/shell.c ****                 matchNum++;
 3214              		.loc 1 1518 17 is_stmt 1 view .LVU837
1518:Dsp/letter_shell/shell.c ****                 matchNum++;
 3215              		.loc 1 1518 32 is_stmt 0 view .LVU838
 3216 005a 1FFA84F8 		uxth	r8, r4
 3217              	.LVL295:
1519:Dsp/letter_shell/shell.c ****             }
 3218              		.loc 1 1519 17 is_stmt 1 view .LVU839
1519:Dsp/letter_shell/shell.c ****             }
 3219              		.loc 1 1519 25 is_stmt 0 view .LVU840
 3220 005e 09F10109 		add	r9, r9, #1
 3221              	.LVL296:
1519:Dsp/letter_shell/shell.c ****             }
 3222              		.loc 1 1519 25 view .LVU841
 3223 0062 1FFA89F9 		uxth	r9, r9
 3224              	.LVL297:
 3225              	.L275:
1499:Dsp/letter_shell/shell.c ****         {
 3226              		.loc 1 1499 57 is_stmt 1 discriminator 2 view .LVU842
1499:Dsp/letter_shell/shell.c ****         {
 3227              		.loc 1 1499 58 is_stmt 0 discriminator 2 view .LVU843
 3228 0066 0134     		adds	r4, r4, #1
 3229              	.LVL298:
1499:Dsp/letter_shell/shell.c ****         {
 3230              		.loc 1 1499 58 discriminator 2 view .LVU844
 3231 0068 24B2     		sxth	r4, r4
 3232              	.LVL299:
 3233              	.L274:
1499:Dsp/letter_shell/shell.c ****         {
 3234              		.loc 1 1499 27 is_stmt 1 discriminator 1 view .LVU845
1499:Dsp/letter_shell/shell.c ****         {
 3235              		.loc 1 1499 49 is_stmt 0 discriminator 1 view .LVU846
 3236 006a B5F85C30 		ldrh	r3, [r5, #92]
1499:Dsp/letter_shell/shell.c ****         {
 3237              		.loc 1 1499 9 discriminator 1 view .LVU847
 3238 006e 9C42     		cmp	r4, r3
 3239 0070 1EDA     		bge	.L283
1501:Dsp/letter_shell/shell.c ****                 && shellStringCompare(shell->parser.buffer,
 3240              		.loc 1 1501 13 is_stmt 1 view .LVU848
1501:Dsp/letter_shell/shell.c ****                 && shellStringCompare(shell->parser.buffer,
 3241              		.loc 1 1501 17 is_stmt 0 view .LVU849
 3242 0072 07EB0416 		add	r6, r7, r4, lsl #4
 3243 0076 3146     		mov	r1, r6
 3244 0078 2846     		mov	r0, r5
 3245 007a FFF7FEFF 		bl	shellCheckPermission
 3246              	.LVL300:
1501:Dsp/letter_shell/shell.c ****                 && shellStringCompare(shell->parser.buffer,
 3247              		.loc 1 1501 16 view .LVU850
 3248 007e 0028     		cmp	r0, #0
 3249 0080 F1D1     		bne	.L275
1502:Dsp/letter_shell/shell.c ****                                    (char *)shellGetCommandName(&base[i]))
ARM GAS  /var/folders/lx/hc4sn_b53233_zkc9xbbl97r0000gp/T//ccoa1yNG.s 			page 103


 3250              		.loc 1 1502 20 view .LVU851
 3251 0082 D5F810B0 		ldr	fp, [r5, #16]
1503:Dsp/letter_shell/shell.c ****                         == shell->parser.length)
 3252              		.loc 1 1503 44 view .LVU852
 3253 0086 3046     		mov	r0, r6
 3254 0088 FFF7FEFF 		bl	shellGetCommandName
 3255              	.LVL301:
 3256 008c 0146     		mov	r1, r0
1502:Dsp/letter_shell/shell.c ****                                    (char *)shellGetCommandName(&base[i]))
 3257              		.loc 1 1502 20 view .LVU853
 3258 008e 5846     		mov	r0, fp
 3259 0090 FFF7FEFF 		bl	shellStringCompare
 3260              	.LVL302:
1504:Dsp/letter_shell/shell.c ****             {
 3261              		.loc 1 1504 41 view .LVU854
 3262 0094 AB89     		ldrh	r3, [r5, #12]
1502:Dsp/letter_shell/shell.c ****                                    (char *)shellGetCommandName(&base[i]))
 3263              		.loc 1 1502 17 view .LVU855
 3264 0096 9842     		cmp	r0, r3
 3265 0098 E5D1     		bne	.L275
1506:Dsp/letter_shell/shell.c ****                 {
 3266              		.loc 1 1506 17 is_stmt 1 view .LVU856
1506:Dsp/letter_shell/shell.c ****                 {
 3267              		.loc 1 1506 20 is_stmt 0 view .LVU857
 3268 009a B9F1000F 		cmp	r9, #0
 3269 009e DCD0     		beq	.L276
1508:Dsp/letter_shell/shell.c ****                     {
 3270              		.loc 1 1508 21 is_stmt 1 view .LVU858
1508:Dsp/letter_shell/shell.c ****                     {
 3271              		.loc 1 1508 24 is_stmt 0 view .LVU859
 3272 00a0 B9F1010F 		cmp	r9, #1
 3273 00a4 C3D1     		bne	.L277
1510:Dsp/letter_shell/shell.c ****                     }
 3274              		.loc 1 1510 25 is_stmt 1 view .LVU860
 3275 00a6 1A49     		ldr	r1, .L286
 3276 00a8 2846     		mov	r0, r5
 3277 00aa FFF7FEFF 		bl	shellWriteString
 3278              	.LVL303:
 3279 00ae BEE7     		b	.L277
 3280              	.L283:
1510:Dsp/letter_shell/shell.c ****                     }
 3281              		.loc 1 1510 25 is_stmt 0 view .LVU861
 3282              	.LBE18:
1522:Dsp/letter_shell/shell.c ****         {
 3283              		.loc 1 1522 9 is_stmt 1 view .LVU862
1522:Dsp/letter_shell/shell.c ****         {
 3284              		.loc 1 1522 12 is_stmt 0 view .LVU863
 3285 00b0 B9F1000F 		cmp	r9, #0
 3286 00b4 1AD0     		beq	.L271
1526:Dsp/letter_shell/shell.c ****         {
 3287              		.loc 1 1526 9 is_stmt 1 view .LVU864
1526:Dsp/letter_shell/shell.c ****         {
 3288              		.loc 1 1526 12 is_stmt 0 view .LVU865
 3289 00b6 B9F1010F 		cmp	r9, #1
 3290 00ba 19D0     		beq	.L284
 3291              	.L279:
1530:Dsp/letter_shell/shell.c ****         {
ARM GAS  /var/folders/lx/hc4sn_b53233_zkc9xbbl97r0000gp/T//ccoa1yNG.s 			page 104


 3292              		.loc 1 1530 9 is_stmt 1 view .LVU866
1532:Dsp/letter_shell/shell.c ****                 shellStringCopy(shell->parser.buffer,
 3293              		.loc 1 1532 13 view .LVU867
1533:Dsp/letter_shell/shell.c ****                                 (char *)shellGetCommandName(&base[lastMatchIndex]));
 3294              		.loc 1 1533 17 is_stmt 0 view .LVU868
 3295 00bc 2C69     		ldr	r4, [r5, #16]
 3296              	.LVL304:
1534:Dsp/letter_shell/shell.c ****         }
 3297              		.loc 1 1534 41 view .LVU869
 3298 00be 07EB0817 		add	r7, r7, r8, lsl #4
 3299              	.LVL305:
1534:Dsp/letter_shell/shell.c ****         }
 3300              		.loc 1 1534 41 view .LVU870
 3301 00c2 3846     		mov	r0, r7
 3302 00c4 FFF7FEFF 		bl	shellGetCommandName
 3303              	.LVL306:
 3304 00c8 0146     		mov	r1, r0
1533:Dsp/letter_shell/shell.c ****                                 (char *)shellGetCommandName(&base[lastMatchIndex]));
 3305              		.loc 1 1533 17 view .LVU871
 3306 00ca 2046     		mov	r0, r4
 3307 00cc FFF7FEFF 		bl	shellStringCopy
 3308              	.LVL307:
1532:Dsp/letter_shell/shell.c ****                 shellStringCopy(shell->parser.buffer,
 3309              		.loc 1 1532 34 view .LVU872
 3310 00d0 A881     		strh	r0, [r5, #12]	@ movhi
1536:Dsp/letter_shell/shell.c ****         {
 3311              		.loc 1 1536 9 is_stmt 1 view .LVU873
1536:Dsp/letter_shell/shell.c ****         {
 3312              		.loc 1 1536 12 is_stmt 0 view .LVU874
 3313 00d2 B9F1010F 		cmp	r9, #1
 3314 00d6 0FD8     		bhi	.L285
 3315              	.L280:
1542:Dsp/letter_shell/shell.c ****         shell->parser.cursor = shell->parser.length;
 3316              		.loc 1 1542 9 is_stmt 1 view .LVU875
1542:Dsp/letter_shell/shell.c ****         shell->parser.cursor = shell->parser.length;
 3317              		.loc 1 1542 22 is_stmt 0 view .LVU876
 3318 00d8 2A69     		ldr	r2, [r5, #16]
1542:Dsp/letter_shell/shell.c ****         shell->parser.cursor = shell->parser.length;
 3319              		.loc 1 1542 43 view .LVU877
 3320 00da AB89     		ldrh	r3, [r5, #12]
1542:Dsp/letter_shell/shell.c ****         shell->parser.cursor = shell->parser.length;
 3321              		.loc 1 1542 52 view .LVU878
 3322 00dc 0021     		movs	r1, #0
 3323 00de D154     		strb	r1, [r2, r3]
1543:Dsp/letter_shell/shell.c ****         shellWriteString(shell, shell->parser.buffer);
 3324              		.loc 1 1543 9 is_stmt 1 view .LVU879
1543:Dsp/letter_shell/shell.c ****         shellWriteString(shell, shell->parser.buffer);
 3325              		.loc 1 1543 45 is_stmt 0 view .LVU880
 3326 00e0 AB89     		ldrh	r3, [r5, #12]
1543:Dsp/letter_shell/shell.c ****         shellWriteString(shell, shell->parser.buffer);
 3327              		.loc 1 1543 30 view .LVU881
 3328 00e2 EB81     		strh	r3, [r5, #14]	@ movhi
1544:Dsp/letter_shell/shell.c ****     }
 3329              		.loc 1 1544 9 is_stmt 1 view .LVU882
 3330 00e4 2969     		ldr	r1, [r5, #16]
 3331 00e6 2846     		mov	r0, r5
 3332 00e8 FFF7FEFF 		bl	shellWriteString
ARM GAS  /var/folders/lx/hc4sn_b53233_zkc9xbbl97r0000gp/T//ccoa1yNG.s 			page 105


 3333              	.LVL308:
 3334              	.L271:
1544:Dsp/letter_shell/shell.c ****     }
 3335              		.loc 1 1544 9 is_stmt 0 view .LVU883
 3336              	.LBE20:
1569:Dsp/letter_shell/shell.c **** SHELL_EXPORT_KEY(SHELL_CMD_PERMISSION(0), 0x09000000, shellTab, tab);
 3337              		.loc 1 1569 1 view .LVU884
 3338 00ec BDE8F88F 		pop	{r3, r4, r5, r6, r7, r8, r9, r10, fp, pc}
 3339              	.LVL309:
 3340              	.L284:
 3341              	.LBB21:
1528:Dsp/letter_shell/shell.c ****         }
 3342              		.loc 1 1528 13 is_stmt 1 view .LVU885
 3343 00f0 2846     		mov	r0, r5
 3344 00f2 FFF7FEFF 		bl	shellClearCommandLine
 3345              	.LVL310:
 3346 00f6 E1E7     		b	.L279
 3347              	.LVL311:
 3348              	.L285:
1538:Dsp/letter_shell/shell.c ****             shellWriteCommandLine(shell, 1);
 3349              		.loc 1 1538 13 view .LVU886
 3350 00f8 3946     		mov	r1, r7
 3351 00fa 2846     		mov	r0, r5
 3352 00fc FFF7FEFF 		bl	shellListItem
 3353              	.LVL312:
1539:Dsp/letter_shell/shell.c ****             shell->parser.length = maxMatch;
 3354              		.loc 1 1539 13 view .LVU887
 3355 0100 0121     		movs	r1, #1
 3356 0102 2846     		mov	r0, r5
 3357 0104 FFF7FEFF 		bl	shellWriteCommandLine
 3358              	.LVL313:
1540:Dsp/letter_shell/shell.c ****         }
 3359              		.loc 1 1540 13 view .LVU888
1540:Dsp/letter_shell/shell.c ****         }
 3360              		.loc 1 1540 34 is_stmt 0 view .LVU889
 3361 0108 A5F80CA0 		strh	r10, [r5, #12]	@ movhi
 3362 010c E4E7     		b	.L280
 3363              	.L287:
 3364 010e 00BF     		.align	2
 3365              	.L286:
 3366 0110 04000000 		.word	.LC3
 3367              	.LBE21:
 3368              		.cfi_endproc
 3369              	.LFE171:
 3371              		.section	.rodata.shellInsertByte.str1.4,"aMS",%progbits,1
 3372              		.align	2
 3373              	.LC21:
 3374 0000 0D0A5761 		.ascii	"\015\012Warning: Command is too long\015\012\000"
 3374      726E696E 
 3374      673A2043 
 3374      6F6D6D61 
 3374      6E642069 
 3375              		.section	.text.shellInsertByte,"ax",%progbits
 3376              		.align	1
 3377              		.global	shellInsertByte
 3378              		.syntax unified
 3379              		.thumb
ARM GAS  /var/folders/lx/hc4sn_b53233_zkc9xbbl97r0000gp/T//ccoa1yNG.s 			page 106


 3380              		.thumb_func
 3381              		.fpu fpv4-sp-d16
 3383              	shellInsertByte:
 3384              	.LVL314:
 3385              	.LFB150:
 781:Dsp/letter_shell/shell.c ****     /* 判断输入数据是否过长 */
 3386              		.loc 1 781 1 is_stmt 1 view -0
 3387              		.cfi_startproc
 3388              		@ args = 0, pretend = 0, frame = 0
 3389              		@ frame_needed = 0, uses_anonymous_args = 0
 781:Dsp/letter_shell/shell.c ****     /* 判断输入数据是否过长 */
 3390              		.loc 1 781 1 is_stmt 0 view .LVU891
 3391 0000 70B5     		push	{r4, r5, r6, lr}
 3392              	.LCFI48:
 3393              		.cfi_def_cfa_offset 16
 3394              		.cfi_offset 4, -16
 3395              		.cfi_offset 5, -12
 3396              		.cfi_offset 6, -8
 3397              		.cfi_offset 14, -4
 3398 0002 0446     		mov	r4, r0
 783:Dsp/letter_shell/shell.c ****     {
 3399              		.loc 1 783 5 is_stmt 1 view .LVU892
 783:Dsp/letter_shell/shell.c ****     {
 3400              		.loc 1 783 22 is_stmt 0 view .LVU893
 3401 0004 8389     		ldrh	r3, [r0, #12]
 783:Dsp/letter_shell/shell.c ****     {
 3402              		.loc 1 783 46 view .LVU894
 3403 0006 828E     		ldrh	r2, [r0, #52]
 783:Dsp/letter_shell/shell.c ****     {
 3404              		.loc 1 783 58 view .LVU895
 3405 0008 013A     		subs	r2, r2, #1
 783:Dsp/letter_shell/shell.c ****     {
 3406              		.loc 1 783 8 view .LVU896
 3407 000a 9342     		cmp	r3, r2
 3408 000c 07DA     		bge	.L299
 792:Dsp/letter_shell/shell.c ****     {
 3409              		.loc 1 792 5 is_stmt 1 view .LVU897
 792:Dsp/letter_shell/shell.c ****     {
 3410              		.loc 1 792 22 is_stmt 0 view .LVU898
 3411 000e C289     		ldrh	r2, [r0, #14]
 792:Dsp/letter_shell/shell.c ****     {
 3412              		.loc 1 792 8 view .LVU899
 3413 0010 9342     		cmp	r3, r2
 3414 0012 10D0     		beq	.L300
 799:Dsp/letter_shell/shell.c ****     {
 3415              		.loc 1 799 10 is_stmt 1 view .LVU900
 799:Dsp/letter_shell/shell.c ****     {
 3416              		.loc 1 799 13 is_stmt 0 view .LVU901
 3417 0014 9342     		cmp	r3, r2
 3418 0016 4ED9     		bls	.L288
 801:Dsp/letter_shell/shell.c ****         {
 3419              		.loc 1 801 9 is_stmt 1 view .LVU902
 3420              	.LBB22:
 801:Dsp/letter_shell/shell.c ****         {
 3421              		.loc 1 801 14 view .LVU903
 801:Dsp/letter_shell/shell.c ****         {
 3422              		.loc 1 801 45 is_stmt 0 view .LVU904
ARM GAS  /var/folders/lx/hc4sn_b53233_zkc9xbbl97r0000gp/T//ccoa1yNG.s 			page 107


 3423 0018 9B1A     		subs	r3, r3, r2
 801:Dsp/letter_shell/shell.c ****         {
 3424              		.loc 1 801 20 view .LVU905
 3425 001a 1BB2     		sxth	r3, r3
 3426              	.LVL315:
 801:Dsp/letter_shell/shell.c ****         {
 3427              		.loc 1 801 9 view .LVU906
 3428 001c 23E0     		b	.L292
 3429              	.LVL316:
 3430              	.L299:
 801:Dsp/letter_shell/shell.c ****         {
 3431              		.loc 1 801 9 view .LVU907
 3432              	.LBE22:
 785:Dsp/letter_shell/shell.c ****         shellWriteCommandLine(shell, 1);
 3433              		.loc 1 785 9 is_stmt 1 view .LVU908
 3434 001e 2649     		ldr	r1, .L301
 3435              	.LVL317:
 785:Dsp/letter_shell/shell.c ****         shellWriteCommandLine(shell, 1);
 3436              		.loc 1 785 9 is_stmt 0 view .LVU909
 3437 0020 FFF7FEFF 		bl	shellWriteString
 3438              	.LVL318:
 786:Dsp/letter_shell/shell.c ****         shellWriteString(shell, shell->parser.buffer);
 3439              		.loc 1 786 9 is_stmt 1 view .LVU910
 3440 0024 0121     		movs	r1, #1
 3441 0026 2046     		mov	r0, r4
 3442 0028 FFF7FEFF 		bl	shellWriteCommandLine
 3443              	.LVL319:
 787:Dsp/letter_shell/shell.c ****         return;
 3444              		.loc 1 787 9 view .LVU911
 3445 002c 2169     		ldr	r1, [r4, #16]
 3446 002e 2046     		mov	r0, r4
 3447 0030 FFF7FEFF 		bl	shellWriteString
 3448              	.LVL320:
 788:Dsp/letter_shell/shell.c ****     }
 3449              		.loc 1 788 9 view .LVU912
 3450 0034 3FE0     		b	.L288
 3451              	.LVL321:
 3452              	.L300:
 794:Dsp/letter_shell/shell.c ****         shell->parser.buffer[shell->parser.length] = 0;
 3453              		.loc 1 794 9 view .LVU913
 794:Dsp/letter_shell/shell.c ****         shell->parser.buffer[shell->parser.length] = 0;
 3454              		.loc 1 794 22 is_stmt 0 view .LVU914
 3455 0036 0269     		ldr	r2, [r0, #16]
 794:Dsp/letter_shell/shell.c ****         shell->parser.buffer[shell->parser.length] = 0;
 3456              		.loc 1 794 50 view .LVU915
 3457 0038 581C     		adds	r0, r3, #1
 3458              	.LVL322:
 794:Dsp/letter_shell/shell.c ****         shell->parser.buffer[shell->parser.length] = 0;
 3459              		.loc 1 794 50 view .LVU916
 3460 003a A081     		strh	r0, [r4, #12]	@ movhi
 794:Dsp/letter_shell/shell.c ****         shell->parser.buffer[shell->parser.length] = 0;
 3461              		.loc 1 794 54 view .LVU917
 3462 003c D154     		strb	r1, [r2, r3]
 795:Dsp/letter_shell/shell.c ****         shell->parser.cursor++;
 3463              		.loc 1 795 9 is_stmt 1 view .LVU918
 795:Dsp/letter_shell/shell.c ****         shell->parser.cursor++;
 3464              		.loc 1 795 22 is_stmt 0 view .LVU919
ARM GAS  /var/folders/lx/hc4sn_b53233_zkc9xbbl97r0000gp/T//ccoa1yNG.s 			page 108


 3465 003e 2269     		ldr	r2, [r4, #16]
 795:Dsp/letter_shell/shell.c ****         shell->parser.cursor++;
 3466              		.loc 1 795 43 view .LVU920
 3467 0040 A389     		ldrh	r3, [r4, #12]
 795:Dsp/letter_shell/shell.c ****         shell->parser.cursor++;
 3468              		.loc 1 795 52 view .LVU921
 3469 0042 0020     		movs	r0, #0
 3470 0044 D054     		strb	r0, [r2, r3]
 796:Dsp/letter_shell/shell.c ****         shellWriteByte(shell, data);
 3471              		.loc 1 796 9 is_stmt 1 view .LVU922
 796:Dsp/letter_shell/shell.c ****         shellWriteByte(shell, data);
 3472              		.loc 1 796 22 is_stmt 0 view .LVU923
 3473 0046 E389     		ldrh	r3, [r4, #14]
 796:Dsp/letter_shell/shell.c ****         shellWriteByte(shell, data);
 3474              		.loc 1 796 29 view .LVU924
 3475 0048 0133     		adds	r3, r3, #1
 3476 004a E381     		strh	r3, [r4, #14]	@ movhi
 797:Dsp/letter_shell/shell.c ****     }
 3477              		.loc 1 797 9 is_stmt 1 view .LVU925
 3478 004c 2046     		mov	r0, r4
 3479 004e FFF7FEFF 		bl	shellWriteByte
 3480              	.LVL323:
 797:Dsp/letter_shell/shell.c ****     }
 3481              		.loc 1 797 9 is_stmt 0 view .LVU926
 3482 0052 30E0     		b	.L288
 3483              	.LVL324:
 3484              	.L293:
 3485              	.LBB23:
 803:Dsp/letter_shell/shell.c ****                 shell->parser.buffer[shell->parser.cursor + i - 1];
 3486              		.loc 1 803 13 is_stmt 1 discriminator 3 view .LVU927
 804:Dsp/letter_shell/shell.c ****         }
 3487              		.loc 1 804 30 is_stmt 0 discriminator 3 view .LVU928
 3488 0054 2069     		ldr	r0, [r4, #16]
 804:Dsp/letter_shell/shell.c ****         }
 3489              		.loc 1 804 51 discriminator 3 view .LVU929
 3490 0056 E289     		ldrh	r2, [r4, #14]
 804:Dsp/letter_shell/shell.c ****         }
 3491              		.loc 1 804 59 discriminator 3 view .LVU930
 3492 0058 1A44     		add	r2, r2, r3
 803:Dsp/letter_shell/shell.c ****                 shell->parser.buffer[shell->parser.cursor + i - 1];
 3493              		.loc 1 803 33 discriminator 3 view .LVU931
 3494 005a 8518     		adds	r5, r0, r2
 804:Dsp/letter_shell/shell.c ****         }
 3495              		.loc 1 804 37 discriminator 3 view .LVU932
 3496 005c 15F8015C 		ldrb	r5, [r5, #-1]	@ zero_extendqisi2
 803:Dsp/letter_shell/shell.c ****                 shell->parser.buffer[shell->parser.cursor + i - 1];
 3497              		.loc 1 803 60 discriminator 3 view .LVU933
 3498 0060 8554     		strb	r5, [r0, r2]
 801:Dsp/letter_shell/shell.c ****         {
 3499              		.loc 1 801 76 is_stmt 1 discriminator 3 view .LVU934
 801:Dsp/letter_shell/shell.c ****         {
 3500              		.loc 1 801 77 is_stmt 0 discriminator 3 view .LVU935
 3501 0062 013B     		subs	r3, r3, #1
 3502              	.LVL325:
 801:Dsp/letter_shell/shell.c ****         {
 3503              		.loc 1 801 77 discriminator 3 view .LVU936
 3504 0064 1BB2     		sxth	r3, r3
ARM GAS  /var/folders/lx/hc4sn_b53233_zkc9xbbl97r0000gp/T//ccoa1yNG.s 			page 109


 3505              	.LVL326:
 3506              	.L292:
 801:Dsp/letter_shell/shell.c ****         {
 3507              		.loc 1 801 69 is_stmt 1 discriminator 1 view .LVU937
 801:Dsp/letter_shell/shell.c ****         {
 3508              		.loc 1 801 9 is_stmt 0 discriminator 1 view .LVU938
 3509 0066 002B     		cmp	r3, #0
 3510 0068 F4DC     		bgt	.L293
 801:Dsp/letter_shell/shell.c ****         {
 3511              		.loc 1 801 9 discriminator 1 view .LVU939
 3512              	.LBE23:
 806:Dsp/letter_shell/shell.c ****         shell->parser.buffer[++shell->parser.length] = 0;
 3513              		.loc 1 806 9 is_stmt 1 view .LVU940
 806:Dsp/letter_shell/shell.c ****         shell->parser.buffer[++shell->parser.length] = 0;
 3514              		.loc 1 806 22 is_stmt 0 view .LVU941
 3515 006a 2269     		ldr	r2, [r4, #16]
 806:Dsp/letter_shell/shell.c ****         shell->parser.buffer[++shell->parser.length] = 0;
 3516              		.loc 1 806 43 view .LVU942
 3517 006c E389     		ldrh	r3, [r4, #14]
 3518              	.LVL327:
 806:Dsp/letter_shell/shell.c ****         shell->parser.buffer[++shell->parser.length] = 0;
 3519              		.loc 1 806 50 view .LVU943
 3520 006e 581C     		adds	r0, r3, #1
 3521 0070 E081     		strh	r0, [r4, #14]	@ movhi
 806:Dsp/letter_shell/shell.c ****         shell->parser.buffer[++shell->parser.length] = 0;
 3522              		.loc 1 806 54 view .LVU944
 3523 0072 D154     		strb	r1, [r2, r3]
 807:Dsp/letter_shell/shell.c ****         for (short i = shell->parser.cursor - 1; i < shell->parser.length; i++)
 3524              		.loc 1 807 9 is_stmt 1 view .LVU945
 807:Dsp/letter_shell/shell.c ****         for (short i = shell->parser.cursor - 1; i < shell->parser.length; i++)
 3525              		.loc 1 807 22 is_stmt 0 view .LVU946
 3526 0074 2269     		ldr	r2, [r4, #16]
 807:Dsp/letter_shell/shell.c ****         for (short i = shell->parser.cursor - 1; i < shell->parser.length; i++)
 3527              		.loc 1 807 45 view .LVU947
 3528 0076 A389     		ldrh	r3, [r4, #12]
 807:Dsp/letter_shell/shell.c ****         for (short i = shell->parser.cursor - 1; i < shell->parser.length; i++)
 3529              		.loc 1 807 30 view .LVU948
 3530 0078 0133     		adds	r3, r3, #1
 3531 007a 9BB2     		uxth	r3, r3
 807:Dsp/letter_shell/shell.c ****         for (short i = shell->parser.cursor - 1; i < shell->parser.length; i++)
 3532              		.loc 1 807 54 view .LVU949
 3533 007c A381     		strh	r3, [r4, #12]	@ movhi
 3534 007e 0021     		movs	r1, #0
 3535              	.LVL328:
 807:Dsp/letter_shell/shell.c ****         for (short i = shell->parser.cursor - 1; i < shell->parser.length; i++)
 3536              		.loc 1 807 54 view .LVU950
 3537 0080 D154     		strb	r1, [r2, r3]
 808:Dsp/letter_shell/shell.c ****         {
 3538              		.loc 1 808 9 is_stmt 1 view .LVU951
 3539              	.LBB24:
 808:Dsp/letter_shell/shell.c ****         {
 3540              		.loc 1 808 14 view .LVU952
 808:Dsp/letter_shell/shell.c ****         {
 3541              		.loc 1 808 37 is_stmt 0 view .LVU953
 3542 0082 E689     		ldrh	r6, [r4, #14]
 808:Dsp/letter_shell/shell.c ****         {
 3543              		.loc 1 808 45 view .LVU954
ARM GAS  /var/folders/lx/hc4sn_b53233_zkc9xbbl97r0000gp/T//ccoa1yNG.s 			page 110


 3544 0084 013E     		subs	r6, r6, #1
 808:Dsp/letter_shell/shell.c ****         {
 3545              		.loc 1 808 20 view .LVU955
 3546 0086 36B2     		sxth	r6, r6
 3547              	.LVL329:
 808:Dsp/letter_shell/shell.c ****         {
 3548              		.loc 1 808 9 view .LVU956
 3549 0088 06E0     		b	.L294
 3550              	.L295:
 810:Dsp/letter_shell/shell.c ****         }
 3551              		.loc 1 810 13 is_stmt 1 discriminator 3 view .LVU957
 810:Dsp/letter_shell/shell.c ****         }
 3552              		.loc 1 810 48 is_stmt 0 discriminator 3 view .LVU958
 3553 008a 2369     		ldr	r3, [r4, #16]
 810:Dsp/letter_shell/shell.c ****         }
 3554              		.loc 1 810 13 discriminator 3 view .LVU959
 3555 008c 995D     		ldrb	r1, [r3, r6]	@ zero_extendqisi2
 3556 008e 2046     		mov	r0, r4
 3557 0090 FFF7FEFF 		bl	shellWriteByte
 3558              	.LVL330:
 808:Dsp/letter_shell/shell.c ****         {
 3559              		.loc 1 808 76 is_stmt 1 discriminator 3 view .LVU960
 808:Dsp/letter_shell/shell.c ****         {
 3560              		.loc 1 808 77 is_stmt 0 discriminator 3 view .LVU961
 3561 0094 0136     		adds	r6, r6, #1
 3562              	.LVL331:
 808:Dsp/letter_shell/shell.c ****         {
 3563              		.loc 1 808 77 discriminator 3 view .LVU962
 3564 0096 36B2     		sxth	r6, r6
 3565              	.LVL332:
 3566              	.L294:
 808:Dsp/letter_shell/shell.c ****         {
 3567              		.loc 1 808 50 is_stmt 1 discriminator 1 view .LVU963
 808:Dsp/letter_shell/shell.c ****         {
 3568              		.loc 1 808 67 is_stmt 0 discriminator 1 view .LVU964
 3569 0098 A589     		ldrh	r5, [r4, #12]
 808:Dsp/letter_shell/shell.c ****         {
 3570              		.loc 1 808 9 discriminator 1 view .LVU965
 3571 009a AE42     		cmp	r6, r5
 3572 009c F5DB     		blt	.L295
 808:Dsp/letter_shell/shell.c ****         {
 3573              		.loc 1 808 9 discriminator 1 view .LVU966
 3574              	.LBE24:
 812:Dsp/letter_shell/shell.c ****         {
 3575              		.loc 1 812 9 is_stmt 1 view .LVU967
 3576              	.LBB25:
 812:Dsp/letter_shell/shell.c ****         {
 3577              		.loc 1 812 14 view .LVU968
 812:Dsp/letter_shell/shell.c ****         {
 3578              		.loc 1 812 60 is_stmt 0 view .LVU969
 3579 009e E389     		ldrh	r3, [r4, #14]
 812:Dsp/letter_shell/shell.c ****         {
 3580              		.loc 1 812 45 view .LVU970
 3581 00a0 ED1A     		subs	r5, r5, r3
 812:Dsp/letter_shell/shell.c ****         {
 3582              		.loc 1 812 20 view .LVU971
 3583 00a2 2DB2     		sxth	r5, r5
ARM GAS  /var/folders/lx/hc4sn_b53233_zkc9xbbl97r0000gp/T//ccoa1yNG.s 			page 111


 3584              	.LVL333:
 812:Dsp/letter_shell/shell.c ****         {
 3585              		.loc 1 812 9 view .LVU972
 3586 00a4 05E0     		b	.L296
 3587              	.L297:
 814:Dsp/letter_shell/shell.c ****         }
 3588              		.loc 1 814 13 is_stmt 1 discriminator 3 view .LVU973
 3589 00a6 0821     		movs	r1, #8
 3590 00a8 2046     		mov	r0, r4
 3591 00aa FFF7FEFF 		bl	shellWriteByte
 3592              	.LVL334:
 812:Dsp/letter_shell/shell.c ****         {
 3593              		.loc 1 812 76 discriminator 3 view .LVU974
 812:Dsp/letter_shell/shell.c ****         {
 3594              		.loc 1 812 77 is_stmt 0 discriminator 3 view .LVU975
 3595 00ae 013D     		subs	r5, r5, #1
 3596              	.LVL335:
 812:Dsp/letter_shell/shell.c ****         {
 3597              		.loc 1 812 77 discriminator 3 view .LVU976
 3598 00b0 2DB2     		sxth	r5, r5
 3599              	.LVL336:
 3600              	.L296:
 812:Dsp/letter_shell/shell.c ****         {
 3601              		.loc 1 812 69 is_stmt 1 discriminator 1 view .LVU977
 812:Dsp/letter_shell/shell.c ****         {
 3602              		.loc 1 812 9 is_stmt 0 discriminator 1 view .LVU978
 3603 00b2 002D     		cmp	r5, #0
 3604 00b4 F7DC     		bgt	.L297
 3605              	.LVL337:
 3606              	.L288:
 812:Dsp/letter_shell/shell.c ****         {
 3607              		.loc 1 812 9 discriminator 1 view .LVU979
 3608              	.LBE25:
 817:Dsp/letter_shell/shell.c **** 
 3609              		.loc 1 817 1 view .LVU980
 3610 00b6 70BD     		pop	{r4, r5, r6, pc}
 3611              	.LVL338:
 3612              	.L302:
 817:Dsp/letter_shell/shell.c **** 
 3613              		.loc 1 817 1 view .LVU981
 3614              		.align	2
 3615              	.L301:
 3616 00b8 00000000 		.word	.LC21
 3617              		.cfi_endproc
 3618              	.LFE150:
 3620              		.section	.text.shellDeleteByte,"ax",%progbits
 3621              		.align	1
 3622              		.global	shellDeleteByte
 3623              		.syntax unified
 3624              		.thumb
 3625              		.thumb_func
 3626              		.fpu fpv4-sp-d16
 3628              	shellDeleteByte:
 3629              	.LVL339:
 3630              	.LFB151:
 827:Dsp/letter_shell/shell.c ****     char offset = (direction == -1) ? 1 : 0;
 3631              		.loc 1 827 1 is_stmt 1 view -0
ARM GAS  /var/folders/lx/hc4sn_b53233_zkc9xbbl97r0000gp/T//ccoa1yNG.s 			page 112


 3632              		.cfi_startproc
 3633              		@ args = 0, pretend = 0, frame = 0
 3634              		@ frame_needed = 0, uses_anonymous_args = 0
 827:Dsp/letter_shell/shell.c ****     char offset = (direction == -1) ? 1 : 0;
 3635              		.loc 1 827 1 is_stmt 0 view .LVU983
 3636 0000 38B5     		push	{r3, r4, r5, lr}
 3637              	.LCFI49:
 3638              		.cfi_def_cfa_offset 16
 3639              		.cfi_offset 3, -16
 3640              		.cfi_offset 4, -12
 3641              		.cfi_offset 5, -8
 3642              		.cfi_offset 14, -4
 3643 0002 0446     		mov	r4, r0
 828:Dsp/letter_shell/shell.c **** 
 3644              		.loc 1 828 5 is_stmt 1 view .LVU984
 828:Dsp/letter_shell/shell.c **** 
 3645              		.loc 1 828 41 is_stmt 0 view .LVU985
 3646 0004 B1F1FF3F 		cmp	r1, #-1
 3647 0008 14BF     		ite	ne
 3648 000a 0023     		movne	r3, #0
 3649 000c 0123     		moveq	r3, #1
 3650              	.LVL340:
 830:Dsp/letter_shell/shell.c ****         || (shell->parser.cursor == shell->parser.length && direction == -1))
 3651              		.loc 1 830 5 is_stmt 1 view .LVU986
 830:Dsp/letter_shell/shell.c ****         || (shell->parser.cursor == shell->parser.length && direction == -1))
 3652              		.loc 1 830 23 is_stmt 0 view .LVU987
 3653 000e C289     		ldrh	r2, [r0, #14]
 830:Dsp/letter_shell/shell.c ****         || (shell->parser.cursor == shell->parser.length && direction == -1))
 3654              		.loc 1 830 8 view .LVU988
 3655 0010 0AB9     		cbnz	r2, .L304
 830:Dsp/letter_shell/shell.c ****         || (shell->parser.cursor == shell->parser.length && direction == -1))
 3656              		.loc 1 830 36 discriminator 1 view .LVU989
 3657 0012 0129     		cmp	r1, #1
 3658 0014 55D0     		beq	.L303
 3659              	.L304:
 831:Dsp/letter_shell/shell.c ****     {
 3660              		.loc 1 831 50 view .LVU990
 3661 0016 A089     		ldrh	r0, [r4, #12]
 3662              	.LVL341:
 831:Dsp/letter_shell/shell.c ****     {
 3663              		.loc 1 831 9 view .LVU991
 3664 0018 8242     		cmp	r2, r0
 3665 001a 03D0     		beq	.L316
 3666              	.L306:
 835:Dsp/letter_shell/shell.c ****     {
 3667              		.loc 1 835 5 is_stmt 1 view .LVU992
 835:Dsp/letter_shell/shell.c ****     {
 3668              		.loc 1 835 8 is_stmt 0 view .LVU993
 3669 001c 8242     		cmp	r2, r0
 3670 001e 05D0     		beq	.L317
 3671              	.L307:
 844:Dsp/letter_shell/shell.c ****         {
 3672              		.loc 1 844 9 is_stmt 1 view .LVU994
 3673              	.LBB26:
 844:Dsp/letter_shell/shell.c ****         {
 3674              		.loc 1 844 14 view .LVU995
 844:Dsp/letter_shell/shell.c ****         {
ARM GAS  /var/folders/lx/hc4sn_b53233_zkc9xbbl97r0000gp/T//ccoa1yNG.s 			page 113


 3675              		.loc 1 844 20 is_stmt 0 view .LVU996
 3676 0020 1BB2     		sxth	r3, r3
 3677              	.LVL342:
 844:Dsp/letter_shell/shell.c ****         {
 3678              		.loc 1 844 9 view .LVU997
 3679 0022 19E0     		b	.L308
 3680              	.LVL343:
 3681              	.L316:
 844:Dsp/letter_shell/shell.c ****         {
 3682              		.loc 1 844 9 view .LVU998
 3683              	.LBE26:
 831:Dsp/letter_shell/shell.c ****     {
 3684              		.loc 1 831 58 discriminator 1 view .LVU999
 3685 0024 B1F1FF3F 		cmp	r1, #-1
 3686 0028 F8D1     		bne	.L306
 3687 002a 4AE0     		b	.L303
 3688              	.L317:
 835:Dsp/letter_shell/shell.c ****     {
 3689              		.loc 1 835 54 discriminator 1 view .LVU1000
 3690 002c 0129     		cmp	r1, #1
 3691 002e F7D1     		bne	.L307
 837:Dsp/letter_shell/shell.c ****         shell->parser.length--;
 3692              		.loc 1 837 9 is_stmt 1 view .LVU1001
 837:Dsp/letter_shell/shell.c ****         shell->parser.length--;
 3693              		.loc 1 837 29 is_stmt 0 view .LVU1002
 3694 0030 013A     		subs	r2, r2, #1
 3695 0032 E281     		strh	r2, [r4, #14]	@ movhi
 838:Dsp/letter_shell/shell.c ****         shell->parser.buffer[shell->parser.length] = 0;
 3696              		.loc 1 838 9 is_stmt 1 view .LVU1003
 838:Dsp/letter_shell/shell.c ****         shell->parser.buffer[shell->parser.length] = 0;
 3697              		.loc 1 838 29 is_stmt 0 view .LVU1004
 3698 0034 431E     		subs	r3, r0, #1
 3699              	.LVL344:
 838:Dsp/letter_shell/shell.c ****         shell->parser.buffer[shell->parser.length] = 0;
 3700              		.loc 1 838 29 view .LVU1005
 3701 0036 9BB2     		uxth	r3, r3
 3702 0038 A381     		strh	r3, [r4, #12]	@ movhi
 839:Dsp/letter_shell/shell.c ****         shellDeleteCommandLine(shell, 1);
 3703              		.loc 1 839 9 is_stmt 1 view .LVU1006
 839:Dsp/letter_shell/shell.c ****         shellDeleteCommandLine(shell, 1);
 3704              		.loc 1 839 22 is_stmt 0 view .LVU1007
 3705 003a 2269     		ldr	r2, [r4, #16]
 839:Dsp/letter_shell/shell.c ****         shellDeleteCommandLine(shell, 1);
 3706              		.loc 1 839 52 view .LVU1008
 3707 003c 0021     		movs	r1, #0
 3708              	.LVL345:
 839:Dsp/letter_shell/shell.c ****         shellDeleteCommandLine(shell, 1);
 3709              		.loc 1 839 52 view .LVU1009
 3710 003e D154     		strb	r1, [r2, r3]
 840:Dsp/letter_shell/shell.c ****     }
 3711              		.loc 1 840 9 is_stmt 1 view .LVU1010
 3712 0040 0121     		movs	r1, #1
 3713 0042 2046     		mov	r0, r4
 3714 0044 FFF7FEFF 		bl	shellDeleteCommandLine
 3715              	.LVL346:
 3716 0048 3BE0     		b	.L303
 3717              	.LVL347:
ARM GAS  /var/folders/lx/hc4sn_b53233_zkc9xbbl97r0000gp/T//ccoa1yNG.s 			page 114


 3718              	.L309:
 3719              	.LBB27:
 846:Dsp/letter_shell/shell.c ****                 shell->parser.buffer[shell->parser.cursor + i];
 3720              		.loc 1 846 13 discriminator 3 view .LVU1011
 847:Dsp/letter_shell/shell.c ****         }
 3721              		.loc 1 847 30 is_stmt 0 discriminator 3 view .LVU1012
 3722 004a 2069     		ldr	r0, [r4, #16]
 847:Dsp/letter_shell/shell.c ****         }
 3723              		.loc 1 847 59 discriminator 3 view .LVU1013
 3724 004c 1A44     		add	r2, r2, r3
 846:Dsp/letter_shell/shell.c ****                 shell->parser.buffer[shell->parser.cursor + i];
 3725              		.loc 1 846 33 discriminator 3 view .LVU1014
 3726 004e 551E     		subs	r5, r2, #1
 847:Dsp/letter_shell/shell.c ****         }
 3727              		.loc 1 847 37 discriminator 3 view .LVU1015
 3728 0050 825C     		ldrb	r2, [r0, r2]	@ zero_extendqisi2
 846:Dsp/letter_shell/shell.c ****                 shell->parser.buffer[shell->parser.cursor + i];
 3729              		.loc 1 846 64 discriminator 3 view .LVU1016
 3730 0052 4255     		strb	r2, [r0, r5]
 844:Dsp/letter_shell/shell.c ****         {
 3731              		.loc 1 844 81 is_stmt 1 discriminator 3 view .LVU1017
 844:Dsp/letter_shell/shell.c ****         {
 3732              		.loc 1 844 82 is_stmt 0 discriminator 3 view .LVU1018
 3733 0054 0133     		adds	r3, r3, #1
 3734              	.LVL348:
 844:Dsp/letter_shell/shell.c ****         {
 3735              		.loc 1 844 82 discriminator 3 view .LVU1019
 3736 0056 1BB2     		sxth	r3, r3
 3737              	.LVL349:
 3738              	.L308:
 844:Dsp/letter_shell/shell.c ****         {
 3739              		.loc 1 844 32 is_stmt 1 discriminator 1 view .LVU1020
 844:Dsp/letter_shell/shell.c ****         {
 3740              		.loc 1 844 49 is_stmt 0 discriminator 1 view .LVU1021
 3741 0058 A089     		ldrh	r0, [r4, #12]
 844:Dsp/letter_shell/shell.c ****         {
 3742              		.loc 1 844 72 discriminator 1 view .LVU1022
 3743 005a E289     		ldrh	r2, [r4, #14]
 844:Dsp/letter_shell/shell.c ****         {
 3744              		.loc 1 844 57 discriminator 1 view .LVU1023
 3745 005c 851A     		subs	r5, r0, r2
 844:Dsp/letter_shell/shell.c ****         {
 3746              		.loc 1 844 9 discriminator 1 view .LVU1024
 3747 005e AB42     		cmp	r3, r5
 3748 0060 F3DB     		blt	.L309
 844:Dsp/letter_shell/shell.c ****         {
 3749              		.loc 1 844 9 discriminator 1 view .LVU1025
 3750              	.LBE27:
 849:Dsp/letter_shell/shell.c ****         if (!offset)
 3751              		.loc 1 849 9 is_stmt 1 view .LVU1026
 849:Dsp/letter_shell/shell.c ****         if (!offset)
 3752              		.loc 1 849 29 is_stmt 0 view .LVU1027
 3753 0062 0138     		subs	r0, r0, #1
 3754 0064 A081     		strh	r0, [r4, #12]	@ movhi
 850:Dsp/letter_shell/shell.c ****         {
 3755              		.loc 1 850 9 is_stmt 1 view .LVU1028
 850:Dsp/letter_shell/shell.c ****         {
ARM GAS  /var/folders/lx/hc4sn_b53233_zkc9xbbl97r0000gp/T//ccoa1yNG.s 			page 115


 3756              		.loc 1 850 12 is_stmt 0 view .LVU1029
 3757 0066 B1F1FF3F 		cmp	r1, #-1
 3758 006a 06D1     		bne	.L318
 3759              	.LVL350:
 3760              	.L310:
 855:Dsp/letter_shell/shell.c ****         for (short i = shell->parser.cursor; i < shell->parser.length; i++)
 3761              		.loc 1 855 9 is_stmt 1 view .LVU1030
 855:Dsp/letter_shell/shell.c ****         for (short i = shell->parser.cursor; i < shell->parser.length; i++)
 3762              		.loc 1 855 22 is_stmt 0 view .LVU1031
 3763 006c 2269     		ldr	r2, [r4, #16]
 855:Dsp/letter_shell/shell.c ****         for (short i = shell->parser.cursor; i < shell->parser.length; i++)
 3764              		.loc 1 855 43 view .LVU1032
 3765 006e A389     		ldrh	r3, [r4, #12]
 855:Dsp/letter_shell/shell.c ****         for (short i = shell->parser.cursor; i < shell->parser.length; i++)
 3766              		.loc 1 855 52 view .LVU1033
 3767 0070 0021     		movs	r1, #0
 3768 0072 D154     		strb	r1, [r2, r3]
 856:Dsp/letter_shell/shell.c ****         {
 3769              		.loc 1 856 9 is_stmt 1 view .LVU1034
 3770              	.LBB28:
 856:Dsp/letter_shell/shell.c ****         {
 3771              		.loc 1 856 14 view .LVU1035
 856:Dsp/letter_shell/shell.c ****         {
 3772              		.loc 1 856 20 is_stmt 0 view .LVU1036
 3773 0074 B4F90E50 		ldrsh	r5, [r4, #14]
 3774              	.LVL351:
 856:Dsp/letter_shell/shell.c ****         {
 3775              		.loc 1 856 9 view .LVU1037
 3776 0078 0DE0     		b	.L311
 3777              	.LVL352:
 3778              	.L318:
 856:Dsp/letter_shell/shell.c ****         {
 3779              		.loc 1 856 9 view .LVU1038
 3780              	.LBE28:
 852:Dsp/letter_shell/shell.c ****             shellWriteByte(shell, '\b');
 3781              		.loc 1 852 13 is_stmt 1 view .LVU1039
 852:Dsp/letter_shell/shell.c ****             shellWriteByte(shell, '\b');
 3782              		.loc 1 852 33 is_stmt 0 view .LVU1040
 3783 007a 013A     		subs	r2, r2, #1
 3784 007c E281     		strh	r2, [r4, #14]	@ movhi
 853:Dsp/letter_shell/shell.c ****         }
 3785              		.loc 1 853 13 is_stmt 1 view .LVU1041
 3786 007e 0821     		movs	r1, #8
 3787              	.LVL353:
 853:Dsp/letter_shell/shell.c ****         }
 3788              		.loc 1 853 13 is_stmt 0 view .LVU1042
 3789 0080 2046     		mov	r0, r4
 3790 0082 FFF7FEFF 		bl	shellWriteByte
 3791              	.LVL354:
 853:Dsp/letter_shell/shell.c ****         }
 3792              		.loc 1 853 13 view .LVU1043
 3793 0086 F1E7     		b	.L310
 3794              	.LVL355:
 3795              	.L312:
 3796              	.LBB29:
 858:Dsp/letter_shell/shell.c ****         }
 3797              		.loc 1 858 13 is_stmt 1 discriminator 3 view .LVU1044
ARM GAS  /var/folders/lx/hc4sn_b53233_zkc9xbbl97r0000gp/T//ccoa1yNG.s 			page 116


 858:Dsp/letter_shell/shell.c ****         }
 3798              		.loc 1 858 48 is_stmt 0 discriminator 3 view .LVU1045
 3799 0088 2369     		ldr	r3, [r4, #16]
 858:Dsp/letter_shell/shell.c ****         }
 3800              		.loc 1 858 13 discriminator 3 view .LVU1046
 3801 008a 595D     		ldrb	r1, [r3, r5]	@ zero_extendqisi2
 3802 008c 2046     		mov	r0, r4
 3803 008e FFF7FEFF 		bl	shellWriteByte
 3804              	.LVL356:
 856:Dsp/letter_shell/shell.c ****         {
 3805              		.loc 1 856 72 is_stmt 1 discriminator 3 view .LVU1047
 856:Dsp/letter_shell/shell.c ****         {
 3806              		.loc 1 856 73 is_stmt 0 discriminator 3 view .LVU1048
 3807 0092 0135     		adds	r5, r5, #1
 3808              	.LVL357:
 856:Dsp/letter_shell/shell.c ****         {
 3809              		.loc 1 856 73 discriminator 3 view .LVU1049
 3810 0094 2DB2     		sxth	r5, r5
 3811              	.LVL358:
 3812              	.L311:
 856:Dsp/letter_shell/shell.c ****         {
 3813              		.loc 1 856 46 is_stmt 1 discriminator 1 view .LVU1050
 856:Dsp/letter_shell/shell.c ****         {
 3814              		.loc 1 856 63 is_stmt 0 discriminator 1 view .LVU1051
 3815 0096 A389     		ldrh	r3, [r4, #12]
 856:Dsp/letter_shell/shell.c ****         {
 3816              		.loc 1 856 9 discriminator 1 view .LVU1052
 3817 0098 9D42     		cmp	r5, r3
 3818 009a F5DB     		blt	.L312
 856:Dsp/letter_shell/shell.c ****         {
 3819              		.loc 1 856 9 discriminator 1 view .LVU1053
 3820              	.LBE29:
 860:Dsp/letter_shell/shell.c ****         for (short i = shell->parser.length - shell->parser.cursor + 1; i > 0; i--)
 3821              		.loc 1 860 9 is_stmt 1 view .LVU1054
 3822 009c 2021     		movs	r1, #32
 3823 009e 2046     		mov	r0, r4
 3824 00a0 FFF7FEFF 		bl	shellWriteByte
 3825              	.LVL359:
 861:Dsp/letter_shell/shell.c ****         {
 3826              		.loc 1 861 9 view .LVU1055
 3827              	.LBB30:
 861:Dsp/letter_shell/shell.c ****         {
 3828              		.loc 1 861 14 view .LVU1056
 861:Dsp/letter_shell/shell.c ****         {
 3829              		.loc 1 861 37 is_stmt 0 view .LVU1057
 3830 00a4 A589     		ldrh	r5, [r4, #12]
 3831              	.LVL360:
 861:Dsp/letter_shell/shell.c ****         {
 3832              		.loc 1 861 60 view .LVU1058
 3833 00a6 E389     		ldrh	r3, [r4, #14]
 861:Dsp/letter_shell/shell.c ****         {
 3834              		.loc 1 861 45 view .LVU1059
 3835 00a8 ED1A     		subs	r5, r5, r3
 3836 00aa ADB2     		uxth	r5, r5
 861:Dsp/letter_shell/shell.c ****         {
 3837              		.loc 1 861 68 view .LVU1060
 3838 00ac 0135     		adds	r5, r5, #1
ARM GAS  /var/folders/lx/hc4sn_b53233_zkc9xbbl97r0000gp/T//ccoa1yNG.s 			page 117


 861:Dsp/letter_shell/shell.c ****         {
 3839              		.loc 1 861 20 view .LVU1061
 3840 00ae 2DB2     		sxth	r5, r5
 3841              	.LVL361:
 861:Dsp/letter_shell/shell.c ****         {
 3842              		.loc 1 861 9 view .LVU1062
 3843 00b0 05E0     		b	.L313
 3844              	.L314:
 863:Dsp/letter_shell/shell.c ****         }
 3845              		.loc 1 863 13 is_stmt 1 discriminator 3 view .LVU1063
 3846 00b2 0821     		movs	r1, #8
 3847 00b4 2046     		mov	r0, r4
 3848 00b6 FFF7FEFF 		bl	shellWriteByte
 3849              	.LVL362:
 861:Dsp/letter_shell/shell.c ****         {
 3850              		.loc 1 861 80 discriminator 3 view .LVU1064
 861:Dsp/letter_shell/shell.c ****         {
 3851              		.loc 1 861 81 is_stmt 0 discriminator 3 view .LVU1065
 3852 00ba 013D     		subs	r5, r5, #1
 3853              	.LVL363:
 861:Dsp/letter_shell/shell.c ****         {
 3854              		.loc 1 861 81 discriminator 3 view .LVU1066
 3855 00bc 2DB2     		sxth	r5, r5
 3856              	.LVL364:
 3857              	.L313:
 861:Dsp/letter_shell/shell.c ****         {
 3858              		.loc 1 861 73 is_stmt 1 discriminator 1 view .LVU1067
 861:Dsp/letter_shell/shell.c ****         {
 3859              		.loc 1 861 9 is_stmt 0 discriminator 1 view .LVU1068
 3860 00be 002D     		cmp	r5, #0
 3861 00c0 F7DC     		bgt	.L314
 3862              	.LVL365:
 3863              	.L303:
 861:Dsp/letter_shell/shell.c ****         {
 3864              		.loc 1 861 9 discriminator 1 view .LVU1069
 3865              	.LBE30:
 866:Dsp/letter_shell/shell.c **** 
 3866              		.loc 1 866 1 view .LVU1070
 3867 00c2 38BD     		pop	{r3, r4, r5, pc}
 866:Dsp/letter_shell/shell.c **** 
 3868              		.loc 1 866 1 view .LVU1071
 3869              		.cfi_endproc
 3870              	.LFE151:
 3872              		.section	.text.shellBackspace,"ax",%progbits
 3873              		.align	1
 3874              		.global	shellBackspace
 3875              		.syntax unified
 3876              		.thumb
 3877              		.thumb_func
 3878              		.fpu fpv4-sp-d16
 3880              	shellBackspace:
 3881              	.LVL366:
 3882              	.LFB172:
1579:Dsp/letter_shell/shell.c ****     shellDeleteByte(shell, 1);
 3883              		.loc 1 1579 1 is_stmt 1 view -0
 3884              		.cfi_startproc
 3885              		@ args = 0, pretend = 0, frame = 0
ARM GAS  /var/folders/lx/hc4sn_b53233_zkc9xbbl97r0000gp/T//ccoa1yNG.s 			page 118


 3886              		@ frame_needed = 0, uses_anonymous_args = 0
1579:Dsp/letter_shell/shell.c ****     shellDeleteByte(shell, 1);
 3887              		.loc 1 1579 1 is_stmt 0 view .LVU1073
 3888 0000 08B5     		push	{r3, lr}
 3889              	.LCFI50:
 3890              		.cfi_def_cfa_offset 8
 3891              		.cfi_offset 3, -8
 3892              		.cfi_offset 14, -4
1580:Dsp/letter_shell/shell.c **** }
 3893              		.loc 1 1580 5 is_stmt 1 view .LVU1074
 3894 0002 0121     		movs	r1, #1
 3895 0004 FFF7FEFF 		bl	shellDeleteByte
 3896              	.LVL367:
1581:Dsp/letter_shell/shell.c **** SHELL_EXPORT_KEY(SHELL_CMD_PERMISSION(0)|SHELL_CMD_ENABLE_UNCHECKED,
 3897              		.loc 1 1581 1 is_stmt 0 view .LVU1075
 3898 0008 08BD     		pop	{r3, pc}
 3899              		.cfi_endproc
 3900              	.LFE172:
 3902              		.section	.text.shellDelete,"ax",%progbits
 3903              		.align	1
 3904              		.global	shellDelete
 3905              		.syntax unified
 3906              		.thumb
 3907              		.thumb_func
 3908              		.fpu fpv4-sp-d16
 3910              	shellDelete:
 3911              	.LVL368:
 3912              	.LFB173:
1594:Dsp/letter_shell/shell.c ****     shellDeleteByte(shell, -1);
 3913              		.loc 1 1594 1 is_stmt 1 view -0
 3914              		.cfi_startproc
 3915              		@ args = 0, pretend = 0, frame = 0
 3916              		@ frame_needed = 0, uses_anonymous_args = 0
1594:Dsp/letter_shell/shell.c ****     shellDeleteByte(shell, -1);
 3917              		.loc 1 1594 1 is_stmt 0 view .LVU1077
 3918 0000 08B5     		push	{r3, lr}
 3919              	.LCFI51:
 3920              		.cfi_def_cfa_offset 8
 3921              		.cfi_offset 3, -8
 3922              		.cfi_offset 14, -4
1595:Dsp/letter_shell/shell.c **** }
 3923              		.loc 1 1595 5 is_stmt 1 view .LVU1078
 3924 0002 4FF0FF31 		mov	r1, #-1
 3925 0006 FFF7FEFF 		bl	shellDeleteByte
 3926              	.LVL369:
1596:Dsp/letter_shell/shell.c **** SHELL_EXPORT_KEY(SHELL_CMD_PERMISSION(0)|SHELL_CMD_ENABLE_UNCHECKED,
 3927              		.loc 1 1596 1 is_stmt 0 view .LVU1079
 3928 000a 08BD     		pop	{r3, pc}
 3929              		.cfi_endproc
 3930              	.LFE173:
 3932              		.section	.text.shellSeekCommand,"ax",%progbits
 3933              		.align	1
 3934              		.global	shellSeekCommand
 3935              		.syntax unified
 3936              		.thumb
 3937              		.thumb_func
 3938              		.fpu fpv4-sp-d16
ARM GAS  /var/folders/lx/hc4sn_b53233_zkc9xbbl97r0000gp/T//ccoa1yNG.s 			page 119


 3940              	shellSeekCommand:
 3941              	.LVL370:
 3942              	.LFB154:
 956:Dsp/letter_shell/shell.c ****     const char *name;
 3943              		.loc 1 956 1 is_stmt 1 view -0
 3944              		.cfi_startproc
 3945              		@ args = 0, pretend = 0, frame = 0
 3946              		@ frame_needed = 0, uses_anonymous_args = 0
 956:Dsp/letter_shell/shell.c ****     const char *name;
 3947              		.loc 1 956 1 is_stmt 0 view .LVU1081
 3948 0000 2DE9F047 		push	{r4, r5, r6, r7, r8, r9, r10, lr}
 3949              	.LCFI52:
 3950              		.cfi_def_cfa_offset 32
 3951              		.cfi_offset 4, -32
 3952              		.cfi_offset 5, -28
 3953              		.cfi_offset 6, -24
 3954              		.cfi_offset 7, -20
 3955              		.cfi_offset 8, -16
 3956              		.cfi_offset 9, -12
 3957              		.cfi_offset 10, -8
 3958              		.cfi_offset 14, -4
 3959 0004 8046     		mov	r8, r0
 3960 0006 8A46     		mov	r10, r1
 3961 0008 1746     		mov	r7, r2
 3962 000a 9946     		mov	r9, r3
 957:Dsp/letter_shell/shell.c ****     int ret;
 3963              		.loc 1 957 5 is_stmt 1 view .LVU1082
 958:Dsp/letter_shell/shell.c ****     unsigned short count = shell->commandList.count -
 3964              		.loc 1 958 5 view .LVU1083
 959:Dsp/letter_shell/shell.c ****         ((int)base - (int)shell->commandList.base) / sizeof(ShellCommand);
 3965              		.loc 1 959 5 view .LVU1084
 959:Dsp/letter_shell/shell.c ****         ((int)base - (int)shell->commandList.base) / sizeof(ShellCommand);
 3966              		.loc 1 959 46 is_stmt 0 view .LVU1085
 3967 000c B0F85C60 		ldrh	r6, [r0, #92]
 960:Dsp/letter_shell/shell.c ****     for (unsigned short i = 0; i < count; i++)
 3968              		.loc 1 960 45 view .LVU1086
 3969 0010 836D     		ldr	r3, [r0, #88]
 3970              	.LVL371:
 960:Dsp/letter_shell/shell.c ****     for (unsigned short i = 0; i < count; i++)
 3971              		.loc 1 960 20 view .LVU1087
 3972 0012 D31A     		subs	r3, r2, r3
 959:Dsp/letter_shell/shell.c ****         ((int)base - (int)shell->commandList.base) / sizeof(ShellCommand);
 3973              		.loc 1 959 53 view .LVU1088
 3974 0014 C3F30F13 		ubfx	r3, r3, #4, #16
 959:Dsp/letter_shell/shell.c ****         ((int)base - (int)shell->commandList.base) / sizeof(ShellCommand);
 3975              		.loc 1 959 20 view .LVU1089
 3976 0018 F31A     		subs	r3, r6, r3
 3977 001a 9EB2     		uxth	r6, r3
 3978              	.LVL372:
 961:Dsp/letter_shell/shell.c ****     {
 3979              		.loc 1 961 5 is_stmt 1 view .LVU1090
 3980              	.LBB31:
 961:Dsp/letter_shell/shell.c ****     {
 3981              		.loc 1 961 10 view .LVU1091
 961:Dsp/letter_shell/shell.c ****     {
 3982              		.loc 1 961 25 is_stmt 0 view .LVU1092
 3983 001c 0024     		movs	r4, #0
ARM GAS  /var/folders/lx/hc4sn_b53233_zkc9xbbl97r0000gp/T//ccoa1yNG.s 			page 120


 961:Dsp/letter_shell/shell.c ****     {
 3984              		.loc 1 961 5 view .LVU1093
 3985 001e 06E0     		b	.L324
 3986              	.LVL373:
 3987              	.L326:
 979:Dsp/letter_shell/shell.c ****             {
 3988              		.loc 1 979 13 is_stmt 1 view .LVU1094
 979:Dsp/letter_shell/shell.c ****             {
 3989              		.loc 1 979 17 is_stmt 0 view .LVU1095
 3990 0020 4A46     		mov	r2, r9
 3991 0022 5046     		mov	r0, r10
 3992              	.LVL374:
 979:Dsp/letter_shell/shell.c ****             {
 3993              		.loc 1 979 17 view .LVU1096
 3994 0024 FFF7FEFF 		bl	strncmp
 3995              	.LVL375:
 979:Dsp/letter_shell/shell.c ****             {
 3996              		.loc 1 979 16 view .LVU1097
 3997 0028 00B3     		cbz	r0, .L323
 3998              	.L325:
 961:Dsp/letter_shell/shell.c ****     {
 3999              		.loc 1 961 43 is_stmt 1 discriminator 2 view .LVU1098
 961:Dsp/letter_shell/shell.c ****     {
 4000              		.loc 1 961 44 is_stmt 0 discriminator 2 view .LVU1099
 4001 002a 0134     		adds	r4, r4, #1
 4002              	.LVL376:
 961:Dsp/letter_shell/shell.c ****     {
 4003              		.loc 1 961 44 discriminator 2 view .LVU1100
 4004 002c A4B2     		uxth	r4, r4
 4005              	.LVL377:
 4006              	.L324:
 961:Dsp/letter_shell/shell.c ****     {
 4007              		.loc 1 961 32 is_stmt 1 discriminator 1 view .LVU1101
 961:Dsp/letter_shell/shell.c ****     {
 4008              		.loc 1 961 5 is_stmt 0 discriminator 1 view .LVU1102
 4009 002e B442     		cmp	r4, r6
 4010 0030 1BD2     		bcs	.L330
 963:Dsp/letter_shell/shell.c ****             || shellCheckPermission(shell, &base[i]) != 0)
 4011              		.loc 1 963 9 is_stmt 1 view .LVU1103
 963:Dsp/letter_shell/shell.c ****             || shellCheckPermission(shell, &base[i]) != 0)
 4012              		.loc 1 963 17 is_stmt 0 view .LVU1104
 4013 0032 07EB0415 		add	r5, r7, r4, lsl #4
 963:Dsp/letter_shell/shell.c ****             || shellCheckPermission(shell, &base[i]) != 0)
 4014              		.loc 1 963 37 view .LVU1105
 4015 0036 95F801C0 		ldrb	ip, [r5, #1]	@ zero_extendqisi2
 4016 003a 0CF00F0C 		and	ip, ip, #15
 963:Dsp/letter_shell/shell.c ****             || shellCheckPermission(shell, &base[i]) != 0)
 4017              		.loc 1 963 12 view .LVU1106
 4018 003e BCF1090F 		cmp	ip, #9
 4019 0042 F2D0     		beq	.L325
 964:Dsp/letter_shell/shell.c ****         {
 4020              		.loc 1 964 16 view .LVU1107
 4021 0044 2946     		mov	r1, r5
 4022 0046 4046     		mov	r0, r8
 4023 0048 FFF7FEFF 		bl	shellCheckPermission
 4024              	.LVL378:
 964:Dsp/letter_shell/shell.c ****         {
ARM GAS  /var/folders/lx/hc4sn_b53233_zkc9xbbl97r0000gp/T//ccoa1yNG.s 			page 121


 4025              		.loc 1 964 13 view .LVU1108
 4026 004c 0028     		cmp	r0, #0
 4027 004e ECD1     		bne	.L325
 968:Dsp/letter_shell/shell.c ****         if (!compareLength)
 4028              		.loc 1 968 9 is_stmt 1 view .LVU1109
 968:Dsp/letter_shell/shell.c ****         if (!compareLength)
 4029              		.loc 1 968 16 is_stmt 0 view .LVU1110
 4030 0050 2846     		mov	r0, r5
 4031 0052 FFF7FEFF 		bl	shellGetCommandName
 4032              	.LVL379:
 4033 0056 0146     		mov	r1, r0
 4034              	.LVL380:
 969:Dsp/letter_shell/shell.c ****         {
 4035              		.loc 1 969 9 is_stmt 1 view .LVU1111
 969:Dsp/letter_shell/shell.c ****         {
 4036              		.loc 1 969 12 is_stmt 0 view .LVU1112
 4037 0058 B9F1000F 		cmp	r9, #0
 4038 005c E0D1     		bne	.L326
 971:Dsp/letter_shell/shell.c ****             if (strcmp(cmd, name) == 0)
 4039              		.loc 1 971 13 is_stmt 1 view .LVU1113
 971:Dsp/letter_shell/shell.c ****             if (strcmp(cmd, name) == 0)
 4040              		.loc 1 971 19 is_stmt 0 view .LVU1114
 4041 005e 5046     		mov	r0, r10
 4042              	.LVL381:
 971:Dsp/letter_shell/shell.c ****             if (strcmp(cmd, name) == 0)
 4043              		.loc 1 971 19 view .LVU1115
 4044 0060 FFF7FEFF 		bl	strcmp
 4045              	.LVL382:
 972:Dsp/letter_shell/shell.c ****             {
 4046              		.loc 1 972 13 is_stmt 1 view .LVU1116
 972:Dsp/letter_shell/shell.c ****             {
 4047              		.loc 1 972 16 is_stmt 0 view .LVU1117
 4048 0064 0028     		cmp	r0, #0
 4049 0066 E0D1     		bne	.L325
 4050 0068 00E0     		b	.L323
 4051              	.LVL383:
 4052              	.L330:
 972:Dsp/letter_shell/shell.c ****             {
 4053              		.loc 1 972 16 view .LVU1118
 4054              	.LBE31:
 985:Dsp/letter_shell/shell.c **** }
 4055              		.loc 1 985 12 view .LVU1119
 4056 006a 0025     		movs	r5, #0
 4057              	.L323:
 986:Dsp/letter_shell/shell.c **** 
 4058              		.loc 1 986 1 view .LVU1120
 4059 006c 2846     		mov	r0, r5
 4060 006e BDE8F087 		pop	{r4, r5, r6, r7, r8, r9, r10, pc}
 986:Dsp/letter_shell/shell.c **** 
 4061              		.loc 1 986 1 view .LVU1121
 4062              		.cfi_endproc
 4063              	.LFE154:
 4065              		.section	.rodata.shellInit.str1.4,"aMS",%progbits,1
 4066              		.align	2
 4067              	.LC22:
 4068 0000 77687900 		.ascii	"why\000"
 4069              		.section	.text.shellInit,"ax",%progbits
ARM GAS  /var/folders/lx/hc4sn_b53233_zkc9xbbl97r0000gp/T//ccoa1yNG.s 			page 122


 4070              		.align	1
 4071              		.global	shellInit
 4072              		.syntax unified
 4073              		.thumb
 4074              		.thumb_func
 4075              		.fpu fpv4-sp-d16
 4077              	shellInit:
 4078              	.LVL384:
 4079              	.LFB126:
 172:Dsp/letter_shell/shell.c ****     shell->parser.length = 0;
 4080              		.loc 1 172 1 is_stmt 1 view -0
 4081              		.cfi_startproc
 4082              		@ args = 0, pretend = 0, frame = 0
 4083              		@ frame_needed = 0, uses_anonymous_args = 0
 172:Dsp/letter_shell/shell.c ****     shell->parser.length = 0;
 4084              		.loc 1 172 1 is_stmt 0 view .LVU1123
 4085 0000 10B5     		push	{r4, lr}
 4086              	.LCFI53:
 4087              		.cfi_def_cfa_offset 8
 4088              		.cfi_offset 4, -8
 4089              		.cfi_offset 14, -4
 4090 0002 0446     		mov	r4, r0
 173:Dsp/letter_shell/shell.c ****     shell->parser.cursor = 0;
 4091              		.loc 1 173 5 is_stmt 1 view .LVU1124
 173:Dsp/letter_shell/shell.c ****     shell->parser.cursor = 0;
 4092              		.loc 1 173 26 is_stmt 0 view .LVU1125
 4093 0004 0023     		movs	r3, #0
 4094 0006 8381     		strh	r3, [r0, #12]	@ movhi
 174:Dsp/letter_shell/shell.c ****     shell->history.offset = 0;
 4095              		.loc 1 174 5 is_stmt 1 view .LVU1126
 174:Dsp/letter_shell/shell.c ****     shell->history.offset = 0;
 4096              		.loc 1 174 26 is_stmt 0 view .LVU1127
 4097 0008 C381     		strh	r3, [r0, #14]	@ movhi
 175:Dsp/letter_shell/shell.c ****     shell->history.number = 0;
 4098              		.loc 1 175 5 is_stmt 1 view .LVU1128
 175:Dsp/letter_shell/shell.c ****     shell->history.number = 0;
 4099              		.loc 1 175 27 is_stmt 0 view .LVU1129
 4100 000a A0F85430 		strh	r3, [r0, #84]	@ movhi
 176:Dsp/letter_shell/shell.c ****     shell->history.record = 0;
 4101              		.loc 1 176 5 is_stmt 1 view .LVU1130
 176:Dsp/letter_shell/shell.c ****     shell->history.record = 0;
 4102              		.loc 1 176 27 is_stmt 0 view .LVU1131
 4103 000e A0F85030 		strh	r3, [r0, #80]	@ movhi
 177:Dsp/letter_shell/shell.c ****     shell->info.user = NULL;
 4104              		.loc 1 177 5 is_stmt 1 view .LVU1132
 177:Dsp/letter_shell/shell.c ****     shell->info.user = NULL;
 4105              		.loc 1 177 27 is_stmt 0 view .LVU1133
 4106 0012 A0F85230 		strh	r3, [r0, #82]	@ movhi
 178:Dsp/letter_shell/shell.c ****     shell->status.isChecked = 1;
 4107              		.loc 1 178 5 is_stmt 1 view .LVU1134
 178:Dsp/letter_shell/shell.c ****     shell->status.isChecked = 1;
 4108              		.loc 1 178 22 is_stmt 0 view .LVU1135
 4109 0016 0360     		str	r3, [r0]
 179:Dsp/letter_shell/shell.c **** 
 4110              		.loc 1 179 5 is_stmt 1 view .LVU1136
 179:Dsp/letter_shell/shell.c **** 
 4111              		.loc 1 179 29 is_stmt 0 view .LVU1137
ARM GAS  /var/folders/lx/hc4sn_b53233_zkc9xbbl97r0000gp/T//ccoa1yNG.s 			page 123


 4112 0018 90F86000 		ldrb	r0, [r0, #96]	@ zero_extendqisi2
 4113              	.LVL385:
 179:Dsp/letter_shell/shell.c **** 
 4114              		.loc 1 179 29 view .LVU1138
 4115 001c 40F00100 		orr	r0, r0, #1
 4116 0020 84F86000 		strb	r0, [r4, #96]
 181:Dsp/letter_shell/shell.c ****     shell->parser.bufferSize = size / (SHELL_HISTORY_MAX_NUMBER + 1);
 4117              		.loc 1 181 5 is_stmt 1 view .LVU1139
 181:Dsp/letter_shell/shell.c ****     shell->parser.bufferSize = size / (SHELL_HISTORY_MAX_NUMBER + 1);
 4118              		.loc 1 181 26 is_stmt 0 view .LVU1140
 4119 0024 2161     		str	r1, [r4, #16]
 182:Dsp/letter_shell/shell.c ****     for (short i = 0; i < SHELL_HISTORY_MAX_NUMBER; i++)
 4120              		.loc 1 182 5 is_stmt 1 view .LVU1141
 182:Dsp/letter_shell/shell.c ****     for (short i = 0; i < SHELL_HISTORY_MAX_NUMBER; i++)
 4121              		.loc 1 182 30 is_stmt 0 view .LVU1142
 4122 0026 1648     		ldr	r0, .L335
 4123 0028 A0FB022C 		umull	r2, ip, r0, r2
 4124              	.LVL386:
 182:Dsp/letter_shell/shell.c ****     for (short i = 0; i < SHELL_HISTORY_MAX_NUMBER; i++)
 4125              		.loc 1 182 30 view .LVU1143
 4126 002c 4FEA9C0C 		lsr	ip, ip, #2
 4127 0030 A4F834C0 		strh	ip, [r4, #52]	@ movhi
 183:Dsp/letter_shell/shell.c ****     {
 4128              		.loc 1 183 5 is_stmt 1 view .LVU1144
 4129              	.LBB32:
 183:Dsp/letter_shell/shell.c ****     {
 4130              		.loc 1 183 10 view .LVU1145
 4131              	.LVL387:
 183:Dsp/letter_shell/shell.c ****     {
 4132              		.loc 1 183 5 is_stmt 0 view .LVU1146
 4133 0034 09E0     		b	.L332
 4134              	.LVL388:
 4135              	.L333:
 185:Dsp/letter_shell/shell.c ****     }
 4136              		.loc 1 185 9 is_stmt 1 discriminator 3 view .LVU1147
 185:Dsp/letter_shell/shell.c ****     }
 4137              		.loc 1 185 68 is_stmt 0 discriminator 3 view .LVU1148
 4138 0036 03FB0CC0 		mla	r0, r3, ip, ip
 185:Dsp/letter_shell/shell.c ****     }
 4139              		.loc 1 185 41 discriminator 3 view .LVU1149
 4140 003a 0844     		add	r0, r0, r1
 185:Dsp/letter_shell/shell.c ****     }
 4141              		.loc 1 185 32 discriminator 3 view .LVU1150
 4142 003c 03F10E02 		add	r2, r3, #14
 4143 0040 04EB8202 		add	r2, r4, r2, lsl #2
 4144 0044 5060     		str	r0, [r2, #4]
 183:Dsp/letter_shell/shell.c ****     {
 4145              		.loc 1 183 53 is_stmt 1 discriminator 3 view .LVU1151
 183:Dsp/letter_shell/shell.c ****     {
 4146              		.loc 1 183 54 is_stmt 0 discriminator 3 view .LVU1152
 4147 0046 0133     		adds	r3, r3, #1
 4148              	.LVL389:
 183:Dsp/letter_shell/shell.c ****     {
 4149              		.loc 1 183 54 discriminator 3 view .LVU1153
 4150 0048 1BB2     		sxth	r3, r3
 4151              	.LVL390:
 4152              	.L332:
ARM GAS  /var/folders/lx/hc4sn_b53233_zkc9xbbl97r0000gp/T//ccoa1yNG.s 			page 124


 183:Dsp/letter_shell/shell.c ****     {
 4153              		.loc 1 183 23 is_stmt 1 discriminator 1 view .LVU1154
 183:Dsp/letter_shell/shell.c ****     {
 4154              		.loc 1 183 5 is_stmt 0 discriminator 1 view .LVU1155
 4155 004a 042B     		cmp	r3, #4
 4156 004c F3DD     		ble	.L333
 4157              	.LBE32:
 201:Dsp/letter_shell/shell.c ****         shell->commandList.count = ((unsigned int)(&_shell_command_end)
 4158              		.loc 1 201 9 is_stmt 1 view .LVU1156
 201:Dsp/letter_shell/shell.c ****         shell->commandList.count = ((unsigned int)(&_shell_command_end)
 4159              		.loc 1 201 33 is_stmt 0 view .LVU1157
 4160 004e 0D4A     		ldr	r2, .L335+4
 4161 0050 A265     		str	r2, [r4, #88]
 202:Dsp/letter_shell/shell.c ****                                 - (unsigned int)(&_shell_command_start))
 4162              		.loc 1 202 9 is_stmt 1 view .LVU1158
 202:Dsp/letter_shell/shell.c ****                                 - (unsigned int)(&_shell_command_start))
 4163              		.loc 1 202 37 is_stmt 0 view .LVU1159
 4164 0052 0D4B     		ldr	r3, .L335+8
 4165              	.LVL391:
 203:Dsp/letter_shell/shell.c ****                                 / sizeof(ShellCommand);
 4166              		.loc 1 203 33 view .LVU1160
 4167 0054 9B1A     		subs	r3, r3, r2
 204:Dsp/letter_shell/shell.c ****     #else
 4168              		.loc 1 204 33 view .LVU1161
 4169 0056 1B09     		lsrs	r3, r3, #4
 202:Dsp/letter_shell/shell.c ****                                 - (unsigned int)(&_shell_command_start))
 4170              		.loc 1 202 34 view .LVU1162
 4171 0058 A4F85C30 		strh	r3, [r4, #92]	@ movhi
 213:Dsp/letter_shell/shell.c **** 
 4172              		.loc 1 213 5 is_stmt 1 view .LVU1163
 4173 005c 2046     		mov	r0, r4
 4174 005e FFF7FEFF 		bl	shellAdd
 4175              	.LVL392:
 215:Dsp/letter_shell/shell.c ****                                          SHELL_DEFAULT_USER,
 4176              		.loc 1 215 5 view .LVU1164
 215:Dsp/letter_shell/shell.c ****                                          SHELL_DEFAULT_USER,
 4177              		.loc 1 215 25 is_stmt 0 view .LVU1165
 4178 0062 0023     		movs	r3, #0
 4179 0064 A26D     		ldr	r2, [r4, #88]
 4180 0066 0949     		ldr	r1, .L335+12
 4181 0068 2046     		mov	r0, r4
 4182 006a FFF7FEFF 		bl	shellSeekCommand
 4183              	.LVL393:
 4184 006e 0146     		mov	r1, r0
 215:Dsp/letter_shell/shell.c ****                                          SHELL_DEFAULT_USER,
 4185              		.loc 1 215 5 view .LVU1166
 4186 0070 2046     		mov	r0, r4
 4187 0072 FFF7FEFF 		bl	shellSetUser
 4188              	.LVL394:
 219:Dsp/letter_shell/shell.c **** }
 4189              		.loc 1 219 5 is_stmt 1 view .LVU1167
 4190 0076 0121     		movs	r1, #1
 4191 0078 2046     		mov	r0, r4
 4192 007a FFF7FEFF 		bl	shellWriteCommandLine
 4193              	.LVL395:
 220:Dsp/letter_shell/shell.c **** 
 4194              		.loc 1 220 1 is_stmt 0 view .LVU1168
ARM GAS  /var/folders/lx/hc4sn_b53233_zkc9xbbl97r0000gp/T//ccoa1yNG.s 			page 125


 4195 007e 10BD     		pop	{r4, pc}
 4196              	.LVL396:
 4197              	.L336:
 220:Dsp/letter_shell/shell.c **** 
 4198              		.loc 1 220 1 view .LVU1169
 4199              		.align	2
 4200              	.L335:
 4201 0080 ABAAAAAA 		.word	-1431655765
 4202 0084 00000000 		.word	_shell_command_start
 4203 0088 00000000 		.word	_shell_command_end
 4204 008c 00000000 		.word	.LC22
 4205              		.cfi_endproc
 4206              	.LFE126:
 4208              		.section	.rodata.shellHelp.str1.4,"aMS",%progbits,1
 4209              		.align	2
 4210              	.LC23:
 4211 0000 636F6D6D 		.ascii	"command help of \000"
 4211      616E6420 
 4211      68656C70 
 4211      206F6620 
 4211      00
 4212 0011 000000   		.align	2
 4213              	.LC24:
 4214 0014 436F6D6D 		.ascii	"Command not Found\015\012\000"
 4214      616E6420 
 4214      6E6F7420 
 4214      466F756E 
 4214      640D0A00 
 4215              		.section	.text.shellHelp,"ax",%progbits
 4216              		.align	1
 4217              		.global	shellHelp
 4218              		.syntax unified
 4219              		.thumb
 4220              		.thumb_func
 4221              		.fpu fpv4-sp-d16
 4223              	shellHelp:
 4224              	.LVL397:
 4225              	.LFB175:
1632:Dsp/letter_shell/shell.c ****     Shell *shell = shellGetCurrent();
 4226              		.loc 1 1632 1 is_stmt 1 view -0
 4227              		.cfi_startproc
 4228              		@ args = 0, pretend = 0, frame = 0
 4229              		@ frame_needed = 0, uses_anonymous_args = 0
1632:Dsp/letter_shell/shell.c ****     Shell *shell = shellGetCurrent();
 4230              		.loc 1 1632 1 is_stmt 0 view .LVU1171
 4231 0000 70B5     		push	{r4, r5, r6, lr}
 4232              	.LCFI54:
 4233              		.cfi_def_cfa_offset 16
 4234              		.cfi_offset 4, -16
 4235              		.cfi_offset 5, -12
 4236              		.cfi_offset 6, -8
 4237              		.cfi_offset 14, -4
 4238 0002 0446     		mov	r4, r0
 4239 0004 0D46     		mov	r5, r1
1633:Dsp/letter_shell/shell.c ****     SHELL_ASSERT(shell, return);
 4240              		.loc 1 1633 5 is_stmt 1 view .LVU1172
1633:Dsp/letter_shell/shell.c ****     SHELL_ASSERT(shell, return);
ARM GAS  /var/folders/lx/hc4sn_b53233_zkc9xbbl97r0000gp/T//ccoa1yNG.s 			page 126


 4241              		.loc 1 1633 20 is_stmt 0 view .LVU1173
 4242 0006 FFF7FEFF 		bl	shellGetCurrent
 4243              	.LVL398:
1634:Dsp/letter_shell/shell.c ****     if (argc == 1)
 4244              		.loc 1 1634 5 is_stmt 1 view .LVU1174
 4245 000a 20B1     		cbz	r0, .L337
 4246 000c 0646     		mov	r6, r0
1634:Dsp/letter_shell/shell.c ****     if (argc == 1)
 4247              		.loc 1 1634 32 discriminator 2 view .LVU1175
1635:Dsp/letter_shell/shell.c ****     {
 4248              		.loc 1 1635 5 discriminator 2 view .LVU1176
1635:Dsp/letter_shell/shell.c ****     {
 4249              		.loc 1 1635 8 is_stmt 0 discriminator 2 view .LVU1177
 4250 000e 012C     		cmp	r4, #1
 4251 0010 02D0     		beq	.L342
1639:Dsp/letter_shell/shell.c ****     {
 4252              		.loc 1 1639 10 is_stmt 1 view .LVU1178
1639:Dsp/letter_shell/shell.c ****     {
 4253              		.loc 1 1639 13 is_stmt 0 view .LVU1179
 4254 0012 012C     		cmp	r4, #1
 4255 0014 03DC     		bgt	.L343
 4256              	.LVL399:
 4257              	.L337:
1658:Dsp/letter_shell/shell.c **** SHELL_EXPORT_CMD(
 4258              		.loc 1 1658 1 view .LVU1180
 4259 0016 70BD     		pop	{r4, r5, r6, pc}
 4260              	.LVL400:
 4261              	.L342:
1637:Dsp/letter_shell/shell.c ****     }
 4262              		.loc 1 1637 9 is_stmt 1 view .LVU1181
 4263 0018 FFF7FEFF 		bl	shellListAll
 4264              	.LVL401:
1637:Dsp/letter_shell/shell.c ****     }
 4265              		.loc 1 1637 9 is_stmt 0 view .LVU1182
 4266 001c FBE7     		b	.L337
 4267              	.LVL402:
 4268              	.L343:
 4269              	.LBB33:
1641:Dsp/letter_shell/shell.c ****                                                  argv[1],
 4270              		.loc 1 1641 9 is_stmt 1 view .LVU1183
1641:Dsp/letter_shell/shell.c ****                                                  argv[1],
 4271              		.loc 1 1641 33 is_stmt 0 view .LVU1184
 4272 001e 0023     		movs	r3, #0
 4273 0020 826D     		ldr	r2, [r0, #88]
 4274 0022 6968     		ldr	r1, [r5, #4]
 4275 0024 FFF7FEFF 		bl	shellSeekCommand
 4276              	.LVL403:
1645:Dsp/letter_shell/shell.c ****         {
 4277              		.loc 1 1645 9 is_stmt 1 view .LVU1185
1645:Dsp/letter_shell/shell.c ****         {
 4278              		.loc 1 1645 12 is_stmt 0 view .LVU1186
 4279 0028 0446     		mov	r4, r0
 4280              	.LVL404:
1645:Dsp/letter_shell/shell.c ****         {
 4281              		.loc 1 1645 12 view .LVU1187
 4282 002a D8B1     		cbz	r0, .L340
1647:Dsp/letter_shell/shell.c ****             shellWriteString(shell, shellGetCommandName(command));
ARM GAS  /var/folders/lx/hc4sn_b53233_zkc9xbbl97r0000gp/T//ccoa1yNG.s 			page 127


 4283              		.loc 1 1647 13 is_stmt 1 view .LVU1188
 4284 002c 1049     		ldr	r1, .L344
 4285 002e 3046     		mov	r0, r6
 4286              	.LVL405:
1647:Dsp/letter_shell/shell.c ****             shellWriteString(shell, shellGetCommandName(command));
 4287              		.loc 1 1647 13 is_stmt 0 view .LVU1189
 4288 0030 FFF7FEFF 		bl	shellWriteString
 4289              	.LVL406:
1648:Dsp/letter_shell/shell.c ****             shellWriteString(shell, "\r\n");
 4290              		.loc 1 1648 13 is_stmt 1 view .LVU1190
 4291 0034 2046     		mov	r0, r4
 4292 0036 FFF7FEFF 		bl	shellGetCommandName
 4293              	.LVL407:
 4294 003a 0146     		mov	r1, r0
 4295 003c 3046     		mov	r0, r6
 4296 003e FFF7FEFF 		bl	shellWriteString
 4297              	.LVL408:
1649:Dsp/letter_shell/shell.c ****             shellWriteString(shell, shellGetCommandDesc(command));
 4298              		.loc 1 1649 13 view .LVU1191
 4299 0042 0C4D     		ldr	r5, .L344+4
 4300              	.LVL409:
1649:Dsp/letter_shell/shell.c ****             shellWriteString(shell, shellGetCommandDesc(command));
 4301              		.loc 1 1649 13 is_stmt 0 view .LVU1192
 4302 0044 2946     		mov	r1, r5
 4303 0046 3046     		mov	r0, r6
 4304 0048 FFF7FEFF 		bl	shellWriteString
 4305              	.LVL410:
1650:Dsp/letter_shell/shell.c ****             shellWriteString(shell, "\r\n");
 4306              		.loc 1 1650 13 is_stmt 1 view .LVU1193
 4307 004c 2046     		mov	r0, r4
 4308 004e FFF7FEFF 		bl	shellGetCommandDesc
 4309              	.LVL411:
 4310 0052 0146     		mov	r1, r0
 4311 0054 3046     		mov	r0, r6
 4312 0056 FFF7FEFF 		bl	shellWriteString
 4313              	.LVL412:
1651:Dsp/letter_shell/shell.c ****         }
 4314              		.loc 1 1651 13 view .LVU1194
 4315 005a 2946     		mov	r1, r5
 4316 005c 3046     		mov	r0, r6
 4317 005e FFF7FEFF 		bl	shellWriteString
 4318              	.LVL413:
 4319 0062 D8E7     		b	.L337
 4320              	.LVL414:
 4321              	.L340:
1655:Dsp/letter_shell/shell.c ****         }
 4322              		.loc 1 1655 13 view .LVU1195
 4323 0064 0449     		ldr	r1, .L344+8
 4324 0066 3046     		mov	r0, r6
 4325              	.LVL415:
1655:Dsp/letter_shell/shell.c ****         }
 4326              		.loc 1 1655 13 is_stmt 0 view .LVU1196
 4327 0068 FFF7FEFF 		bl	shellWriteString
 4328              	.LVL416:
 4329 006c D3E7     		b	.L337
 4330              	.L345:
 4331 006e 00BF     		.align	2
ARM GAS  /var/folders/lx/hc4sn_b53233_zkc9xbbl97r0000gp/T//ccoa1yNG.s 			page 128


 4332              	.L344:
 4333 0070 00000000 		.word	.LC23
 4334 0074 04000000 		.word	.LC3
 4335 0078 14000000 		.word	.LC24
 4336              	.LBE33:
 4337              		.cfi_endproc
 4338              	.LFE175:
 4340              		.section	.text.shellGetVarValue,"ax",%progbits
 4341              		.align	1
 4342              		.global	shellGetVarValue
 4343              		.syntax unified
 4344              		.thumb
 4345              		.thumb_func
 4346              		.fpu fpv4-sp-d16
 4348              	shellGetVarValue:
 4349              	.LVL417:
 4350              	.LFB155:
 997:Dsp/letter_shell/shell.c ****     int value = 0;
 4351              		.loc 1 997 1 is_stmt 1 view -0
 4352              		.cfi_startproc
 4353              		@ args = 0, pretend = 0, frame = 0
 4354              		@ frame_needed = 0, uses_anonymous_args = 0
 997:Dsp/letter_shell/shell.c ****     int value = 0;
 4355              		.loc 1 997 1 is_stmt 0 view .LVU1198
 4356 0000 08B5     		push	{r3, lr}
 4357              	.LCFI55:
 4358              		.cfi_def_cfa_offset 8
 4359              		.cfi_offset 3, -8
 4360              		.cfi_offset 14, -4
 998:Dsp/letter_shell/shell.c ****     switch (command->attr.attrs.type)
 4361              		.loc 1 998 5 is_stmt 1 view .LVU1199
 4362              	.LVL418:
 999:Dsp/letter_shell/shell.c ****     {
 4363              		.loc 1 999 5 view .LVU1200
 999:Dsp/letter_shell/shell.c ****     {
 4364              		.loc 1 999 32 is_stmt 0 view .LVU1201
 4365 0002 4B78     		ldrb	r3, [r1, #1]	@ zero_extendqisi2
 4366 0004 03F00F03 		and	r3, r3, #15
 4367 0008 023B     		subs	r3, r3, #2
 4368 000a 052B     		cmp	r3, #5
 4369 000c 16D8     		bhi	.L354
 4370 000e DFE803F0 		tbb	[pc, r3]
 4371              	.L349:
 4372 0012 03       		.byte	(.L353-.L349)/2
 4373 0013 06       		.byte	(.L352-.L349)/2
 4374 0014 0A       		.byte	(.L351-.L349)/2
 4375 0015 0D       		.byte	(.L350-.L349)/2
 4376 0016 0D       		.byte	(.L350-.L349)/2
 4377 0017 0F       		.byte	(.L348-.L349)/2
 4378              		.p2align 1
 4379              	.L353:
1002:Dsp/letter_shell/shell.c ****         break;
 4380              		.loc 1 1002 9 is_stmt 1 view .LVU1202
1002:Dsp/letter_shell/shell.c ****         break;
 4381              		.loc 1 1002 44 is_stmt 0 view .LVU1203
 4382 0018 8B68     		ldr	r3, [r1, #8]
1002:Dsp/letter_shell/shell.c ****         break;
ARM GAS  /var/folders/lx/hc4sn_b53233_zkc9xbbl97r0000gp/T//ccoa1yNG.s 			page 129


 4383              		.loc 1 1002 15 view .LVU1204
 4384 001a 1868     		ldr	r0, [r3]
 4385              	.LVL419:
1003:Dsp/letter_shell/shell.c ****     case SHELL_TYPE_VAR_SHORT:
 4386              		.loc 1 1003 9 is_stmt 1 view .LVU1205
 4387              	.L346:
1023:Dsp/letter_shell/shell.c **** 
 4388              		.loc 1 1023 1 is_stmt 0 view .LVU1206
 4389 001c 08BD     		pop	{r3, pc}
 4390              	.LVL420:
 4391              	.L352:
1005:Dsp/letter_shell/shell.c ****         break;
 4392              		.loc 1 1005 9 is_stmt 1 view .LVU1207
1005:Dsp/letter_shell/shell.c ****         break;
 4393              		.loc 1 1005 46 is_stmt 0 view .LVU1208
 4394 001e 8B68     		ldr	r3, [r1, #8]
1005:Dsp/letter_shell/shell.c ****         break;
 4395              		.loc 1 1005 17 view .LVU1209
 4396 0020 B3F90000 		ldrsh	r0, [r3]
 4397              	.LVL421:
1006:Dsp/letter_shell/shell.c ****     case SHELL_TYPE_VAR_CHAR:
 4398              		.loc 1 1006 9 is_stmt 1 view .LVU1210
 4399 0024 FAE7     		b	.L346
 4400              	.LVL422:
 4401              	.L351:
1008:Dsp/letter_shell/shell.c ****         break;
 4402              		.loc 1 1008 9 view .LVU1211
1008:Dsp/letter_shell/shell.c ****         break;
 4403              		.loc 1 1008 45 is_stmt 0 view .LVU1212
 4404 0026 8B68     		ldr	r3, [r1, #8]
1008:Dsp/letter_shell/shell.c ****         break;
 4405              		.loc 1 1008 17 view .LVU1213
 4406 0028 1878     		ldrb	r0, [r3]	@ zero_extendqisi2
 4407              	.LVL423:
1009:Dsp/letter_shell/shell.c ****     case SHELL_TYPE_VAR_STRING:
 4408              		.loc 1 1009 9 is_stmt 1 view .LVU1214
 4409 002a F7E7     		b	.L346
 4410              	.LVL424:
 4411              	.L350:
1012:Dsp/letter_shell/shell.c ****         break;
 4412              		.loc 1 1012 9 view .LVU1215
1012:Dsp/letter_shell/shell.c ****         break;
 4413              		.loc 1 1012 40 is_stmt 0 view .LVU1216
 4414 002c 8868     		ldr	r0, [r1, #8]
 4415              	.LVL425:
1013:Dsp/letter_shell/shell.c ****     case SHELL_TYPE_VAR_NODE:
 4416              		.loc 1 1013 9 is_stmt 1 view .LVU1217
 4417 002e F5E7     		b	.L346
 4418              	.LVL426:
 4419              	.L348:
1015:Dsp/letter_shell/shell.c ****                     ((ShellNodeVarAttr *)command->data.var.value)
 4420              		.loc 1 1015 9 view .LVU1218
1015:Dsp/letter_shell/shell.c ****                     ((ShellNodeVarAttr *)command->data.var.value)
 4421              		.loc 1 1015 55 is_stmt 0 view .LVU1219
 4422 0030 8A68     		ldr	r2, [r1, #8]
1015:Dsp/letter_shell/shell.c ****                     ((ShellNodeVarAttr *)command->data.var.value)
 4423              		.loc 1 1015 62 view .LVU1220
ARM GAS  /var/folders/lx/hc4sn_b53233_zkc9xbbl97r0000gp/T//ccoa1yNG.s 			page 130


 4424 0032 5368     		ldr	r3, [r2, #4]
1017:Dsp/letter_shell/shell.c ****         break;
 4425              		.loc 1 1017 83 view .LVU1221
 4426 0034 23B1     		cbz	r3, .L355
1016:Dsp/letter_shell/shell.c ****                         ->get(((ShellNodeVarAttr *)command->data.var.value)->var) : 0;
 4427              		.loc 1 1016 22 view .LVU1222
 4428 0036 1068     		ldr	r0, [r2]
 4429              	.LVL427:
1016:Dsp/letter_shell/shell.c ****                         ->get(((ShellNodeVarAttr *)command->data.var.value)->var) : 0;
 4430              		.loc 1 1016 22 view .LVU1223
 4431 0038 9847     		blx	r3
 4432              	.LVL428:
1016:Dsp/letter_shell/shell.c ****                         ->get(((ShellNodeVarAttr *)command->data.var.value)->var) : 0;
 4433              		.loc 1 1016 22 view .LVU1224
 4434 003a EFE7     		b	.L346
 4435              	.LVL429:
 4436              	.L354:
 999:Dsp/letter_shell/shell.c ****     {
 4437              		.loc 1 999 32 view .LVU1225
 4438 003c 0020     		movs	r0, #0
 4439              	.LVL430:
 999:Dsp/letter_shell/shell.c ****     {
 4440              		.loc 1 999 32 view .LVU1226
 4441 003e EDE7     		b	.L346
 4442              	.LVL431:
 4443              	.L355:
1017:Dsp/letter_shell/shell.c ****         break;
 4444              		.loc 1 1017 83 view .LVU1227
 4445 0040 0020     		movs	r0, #0
 4446              	.LVL432:
1022:Dsp/letter_shell/shell.c **** }
 4447              		.loc 1 1022 5 is_stmt 1 view .LVU1228
1022:Dsp/letter_shell/shell.c **** }
 4448              		.loc 1 1022 12 is_stmt 0 view .LVU1229
 4449 0042 EBE7     		b	.L346
 4450              		.cfi_endproc
 4451              	.LFE155:
 4453              		.section	.rodata.shellShowVar.str1.4,"aMS",%progbits,1
 4454              		.align	2
 4455              	.LC25:
 4456 0000 203D2000 		.ascii	" = \000"
 4457              		.align	2
 4458              	.LC26:
 4459 0004 2200     		.ascii	"\"\000"
 4460              		.section	.text.shellShowVar,"ax",%progbits
 4461              		.align	1
 4462              		.syntax unified
 4463              		.thumb
 4464              		.thumb_func
 4465              		.fpu fpv4-sp-d16
 4467              	shellShowVar:
 4468              	.LVL433:
 4469              	.LFB157:
1089:Dsp/letter_shell/shell.c ****     char buffer[12] = "00000000000";
 4470              		.loc 1 1089 1 is_stmt 1 view -0
 4471              		.cfi_startproc
 4472              		@ args = 0, pretend = 0, frame = 16
ARM GAS  /var/folders/lx/hc4sn_b53233_zkc9xbbl97r0000gp/T//ccoa1yNG.s 			page 131


 4473              		@ frame_needed = 0, uses_anonymous_args = 0
1089:Dsp/letter_shell/shell.c ****     char buffer[12] = "00000000000";
 4474              		.loc 1 1089 1 is_stmt 0 view .LVU1231
 4475 0000 70B5     		push	{r4, r5, r6, lr}
 4476              	.LCFI56:
 4477              		.cfi_def_cfa_offset 16
 4478              		.cfi_offset 4, -16
 4479              		.cfi_offset 5, -12
 4480              		.cfi_offset 6, -8
 4481              		.cfi_offset 14, -4
 4482 0002 84B0     		sub	sp, sp, #16
 4483              	.LCFI57:
 4484              		.cfi_def_cfa_offset 32
 4485 0004 0446     		mov	r4, r0
 4486 0006 0D46     		mov	r5, r1
1090:Dsp/letter_shell/shell.c ****     int value = shellGetVarValue(shell, command);
 4487              		.loc 1 1090 5 is_stmt 1 view .LVU1232
1090:Dsp/letter_shell/shell.c ****     int value = shellGetVarValue(shell, command);
 4488              		.loc 1 1090 10 is_stmt 0 view .LVU1233
 4489 0008 274B     		ldr	r3, .L364
 4490 000a 93E80700 		ldm	r3, {r0, r1, r2}
 4491              	.LVL434:
1090:Dsp/letter_shell/shell.c ****     int value = shellGetVarValue(shell, command);
 4492              		.loc 1 1090 10 view .LVU1234
 4493 000e 04AB     		add	r3, sp, #16
 4494 0010 03E90700 		stmdb	r3, {r0, r1, r2}
1091:Dsp/letter_shell/shell.c ****     
 4495              		.loc 1 1091 5 is_stmt 1 view .LVU1235
1091:Dsp/letter_shell/shell.c ****     
 4496              		.loc 1 1091 17 is_stmt 0 view .LVU1236
 4497 0014 2946     		mov	r1, r5
 4498 0016 2046     		mov	r0, r4
 4499 0018 FFF7FEFF 		bl	shellGetVarValue
 4500              	.LVL435:
 4501 001c 0646     		mov	r6, r0
 4502              	.LVL436:
1093:Dsp/letter_shell/shell.c ****     shellWriteString(shell, " = ");
 4503              		.loc 1 1093 5 is_stmt 1 view .LVU1237
 4504 001e 6968     		ldr	r1, [r5, #4]
 4505 0020 2046     		mov	r0, r4
 4506              	.LVL437:
1093:Dsp/letter_shell/shell.c ****     shellWriteString(shell, " = ");
 4507              		.loc 1 1093 5 is_stmt 0 view .LVU1238
 4508 0022 FFF7FEFF 		bl	shellWriteString
 4509              	.LVL438:
1094:Dsp/letter_shell/shell.c **** 
 4510              		.loc 1 1094 5 is_stmt 1 view .LVU1239
 4511 0026 2149     		ldr	r1, .L364+4
 4512 0028 2046     		mov	r0, r4
 4513 002a FFF7FEFF 		bl	shellWriteString
 4514              	.LVL439:
1096:Dsp/letter_shell/shell.c ****     {
 4515              		.loc 1 1096 5 view .LVU1240
1096:Dsp/letter_shell/shell.c ****     {
 4516              		.loc 1 1096 32 is_stmt 0 view .LVU1241
 4517 002e 6B78     		ldrb	r3, [r5, #1]	@ zero_extendqisi2
 4518 0030 03F00F03 		and	r3, r3, #15
ARM GAS  /var/folders/lx/hc4sn_b53233_zkc9xbbl97r0000gp/T//ccoa1yNG.s 			page 132


1096:Dsp/letter_shell/shell.c ****     {
 4519              		.loc 1 1096 5 view .LVU1242
 4520 0034 052B     		cmp	r3, #5
 4521 0036 10D0     		beq	.L363
1108:Dsp/letter_shell/shell.c ****         shellWriteString(shell, ", 0x");
 4522              		.loc 1 1108 9 is_stmt 1 view .LVU1243
1108:Dsp/letter_shell/shell.c ****         shellWriteString(shell, ", 0x");
 4523              		.loc 1 1108 46 is_stmt 0 view .LVU1244
 4524 0038 01A9     		add	r1, sp, #4
 4525 003a 3046     		mov	r0, r6
 4526 003c FFF7FEFF 		bl	shellToDec
 4527              	.LVL440:
1108:Dsp/letter_shell/shell.c ****         shellWriteString(shell, ", 0x");
 4528              		.loc 1 1108 44 view .LVU1245
 4529 0040 C0F10B01 		rsb	r1, r0, #11
1108:Dsp/letter_shell/shell.c ****         shellWriteString(shell, ", 0x");
 4530              		.loc 1 1108 9 view .LVU1246
 4531 0044 01AB     		add	r3, sp, #4
 4532 0046 1944     		add	r1, r1, r3
 4533 0048 2046     		mov	r0, r4
 4534 004a FFF7FEFF 		bl	shellWriteString
 4535              	.LVL441:
1109:Dsp/letter_shell/shell.c ****         for (short i = 0; i < 11; i++)
 4536              		.loc 1 1109 9 is_stmt 1 view .LVU1247
 4537 004e 1849     		ldr	r1, .L364+8
 4538 0050 2046     		mov	r0, r4
 4539 0052 FFF7FEFF 		bl	shellWriteString
 4540              	.LVL442:
1110:Dsp/letter_shell/shell.c ****         {
 4541              		.loc 1 1110 9 view .LVU1248
 4542              	.LBB34:
1110:Dsp/letter_shell/shell.c ****         {
 4543              		.loc 1 1110 14 view .LVU1249
1110:Dsp/letter_shell/shell.c ****         {
 4544              		.loc 1 1110 20 is_stmt 0 view .LVU1250
 4545 0056 0023     		movs	r3, #0
1110:Dsp/letter_shell/shell.c ****         {
 4546              		.loc 1 1110 9 view .LVU1251
 4547 0058 15E0     		b	.L360
 4548              	.LVL443:
 4549              	.L363:
1110:Dsp/letter_shell/shell.c ****         {
 4550              		.loc 1 1110 9 view .LVU1252
 4551              	.LBE34:
1099:Dsp/letter_shell/shell.c ****         shellWriteString(shell, (char *)value);
 4552              		.loc 1 1099 9 is_stmt 1 view .LVU1253
 4553 005a 164D     		ldr	r5, .L364+12
 4554              	.LVL444:
1099:Dsp/letter_shell/shell.c ****         shellWriteString(shell, (char *)value);
 4555              		.loc 1 1099 9 is_stmt 0 view .LVU1254
 4556 005c 2946     		mov	r1, r5
 4557 005e 2046     		mov	r0, r4
 4558 0060 FFF7FEFF 		bl	shellWriteString
 4559              	.LVL445:
1100:Dsp/letter_shell/shell.c ****         shellWriteString(shell, "\"");
 4560              		.loc 1 1100 9 is_stmt 1 view .LVU1255
 4561 0064 3146     		mov	r1, r6
ARM GAS  /var/folders/lx/hc4sn_b53233_zkc9xbbl97r0000gp/T//ccoa1yNG.s 			page 133


 4562 0066 2046     		mov	r0, r4
 4563 0068 FFF7FEFF 		bl	shellWriteString
 4564              	.LVL446:
1101:Dsp/letter_shell/shell.c ****         break;
 4565              		.loc 1 1101 9 view .LVU1256
 4566 006c 2946     		mov	r1, r5
 4567 006e 2046     		mov	r0, r4
 4568 0070 FFF7FEFF 		bl	shellWriteString
 4569              	.LVL447:
1102:Dsp/letter_shell/shell.c ****     // case SHELL_TYPE_VAR_INT:
 4570              		.loc 1 1102 9 view .LVU1257
 4571 0074 11E0     		b	.L359
 4572              	.LVL448:
 4573              	.L361:
 4574              	.LBB35:
1112:Dsp/letter_shell/shell.c ****         }
 4575              		.loc 1 1112 13 discriminator 3 view .LVU1258
1112:Dsp/letter_shell/shell.c ****         }
 4576              		.loc 1 1112 23 is_stmt 0 discriminator 3 view .LVU1259
 4577 0076 04AA     		add	r2, sp, #16
 4578 0078 1A44     		add	r2, r2, r3
 4579 007a 4FF0300C 		mov	ip, #48
 4580 007e 02F80CCC 		strb	ip, [r2, #-12]
1110:Dsp/letter_shell/shell.c ****         {
 4581              		.loc 1 1110 35 is_stmt 1 discriminator 3 view .LVU1260
1110:Dsp/letter_shell/shell.c ****         {
 4582              		.loc 1 1110 36 is_stmt 0 discriminator 3 view .LVU1261
 4583 0082 0133     		adds	r3, r3, #1
 4584              	.LVL449:
1110:Dsp/letter_shell/shell.c ****         {
 4585              		.loc 1 1110 36 discriminator 3 view .LVU1262
 4586 0084 1BB2     		sxth	r3, r3
 4587              	.LVL450:
 4588              	.L360:
1110:Dsp/letter_shell/shell.c ****         {
 4589              		.loc 1 1110 27 is_stmt 1 discriminator 1 view .LVU1263
1110:Dsp/letter_shell/shell.c ****         {
 4590              		.loc 1 1110 9 is_stmt 0 discriminator 1 view .LVU1264
 4591 0086 0A2B     		cmp	r3, #10
 4592 0088 F5DD     		ble	.L361
 4593              	.LBE35:
1114:Dsp/letter_shell/shell.c ****         shellWriteString(shell, buffer);
 4594              		.loc 1 1114 9 is_stmt 1 view .LVU1265
 4595 008a 01A9     		add	r1, sp, #4
 4596 008c 3046     		mov	r0, r6
 4597 008e FFF7FEFF 		bl	shellToHex
 4598              	.LVL451:
1115:Dsp/letter_shell/shell.c ****         break;
 4599              		.loc 1 1115 9 view .LVU1266
 4600 0092 01A9     		add	r1, sp, #4
 4601 0094 2046     		mov	r0, r4
 4602 0096 FFF7FEFF 		bl	shellWriteString
 4603              	.LVL452:
1116:Dsp/letter_shell/shell.c ****     }
 4604              		.loc 1 1116 9 view .LVU1267
 4605              	.L359:
1119:Dsp/letter_shell/shell.c ****     return value;
ARM GAS  /var/folders/lx/hc4sn_b53233_zkc9xbbl97r0000gp/T//ccoa1yNG.s 			page 134


 4606              		.loc 1 1119 5 view .LVU1268
 4607 009a 0749     		ldr	r1, .L364+16
 4608 009c 2046     		mov	r0, r4
 4609 009e FFF7FEFF 		bl	shellWriteString
 4610              	.LVL453:
1120:Dsp/letter_shell/shell.c **** }
 4611              		.loc 1 1120 5 view .LVU1269
1121:Dsp/letter_shell/shell.c **** 
 4612              		.loc 1 1121 1 is_stmt 0 view .LVU1270
 4613 00a2 3046     		mov	r0, r6
 4614 00a4 04B0     		add	sp, sp, #16
 4615              	.LCFI58:
 4616              		.cfi_def_cfa_offset 16
 4617              		@ sp needed
 4618 00a6 70BD     		pop	{r4, r5, r6, pc}
 4619              	.LVL454:
 4620              	.L365:
1121:Dsp/letter_shell/shell.c **** 
 4621              		.loc 1 1121 1 view .LVU1271
 4622              		.align	2
 4623              	.L364:
 4624 00a8 14000000 		.word	.LC8
 4625 00ac 00000000 		.word	.LC25
 4626 00b0 0C000000 		.word	.LC10
 4627 00b4 04000000 		.word	.LC26
 4628 00b8 04000000 		.word	.LC3
 4629              		.cfi_endproc
 4630              	.LFE157:
 4632              		.section	.rodata.shellSetVarValue.str1.4,"aMS",%progbits,1
 4633              		.align	2
 4634              	.LC27:
 4635 0000 63616E27 		.ascii	"can't set read only var\015\012\000"
 4635      74207365 
 4635      74207265 
 4635      6164206F 
 4635      6E6C7920 
 4636 001a 0000     		.align	2
 4637              	.LC28:
 4638 001c 63616E27 		.ascii	"can't set pointer\015\012\000"
 4638      74207365 
 4638      7420706F 
 4638      696E7465 
 4638      720D0A00 
 4639              		.section	.text.shellSetVarValue,"ax",%progbits
 4640              		.align	1
 4641              		.global	shellSetVarValue
 4642              		.syntax unified
 4643              		.thumb
 4644              		.thumb_func
 4645              		.fpu fpv4-sp-d16
 4647              	shellSetVarValue:
 4648              	.LVL455:
 4649              	.LFB156:
1035:Dsp/letter_shell/shell.c ****     if (command->attr.attrs.readOnly)
 4650              		.loc 1 1035 1 is_stmt 1 view -0
 4651              		.cfi_startproc
 4652              		@ args = 0, pretend = 0, frame = 0
ARM GAS  /var/folders/lx/hc4sn_b53233_zkc9xbbl97r0000gp/T//ccoa1yNG.s 			page 135


 4653              		@ frame_needed = 0, uses_anonymous_args = 0
1035:Dsp/letter_shell/shell.c ****     if (command->attr.attrs.readOnly)
 4654              		.loc 1 1035 1 is_stmt 0 view .LVU1273
 4655 0000 70B5     		push	{r4, r5, r6, lr}
 4656              	.LCFI59:
 4657              		.cfi_def_cfa_offset 16
 4658              		.cfi_offset 4, -16
 4659              		.cfi_offset 5, -12
 4660              		.cfi_offset 6, -8
 4661              		.cfi_offset 14, -4
 4662 0002 0546     		mov	r5, r0
 4663 0004 0C46     		mov	r4, r1
1036:Dsp/letter_shell/shell.c ****     {
 4664              		.loc 1 1036 5 is_stmt 1 view .LVU1274
1036:Dsp/letter_shell/shell.c ****     {
 4665              		.loc 1 1036 9 is_stmt 0 view .LVU1275
 4666 0006 4B78     		ldrb	r3, [r1, #1]	@ zero_extendqisi2
1036:Dsp/letter_shell/shell.c ****     {
 4667              		.loc 1 1036 8 view .LVU1276
 4668 0008 13F0400F 		tst	r3, #64
 4669 000c 0AD1     		bne	.L378
1042:Dsp/letter_shell/shell.c ****         {
 4670              		.loc 1 1042 9 is_stmt 1 view .LVU1277
1042:Dsp/letter_shell/shell.c ****         {
 4671              		.loc 1 1042 36 is_stmt 0 view .LVU1278
 4672 000e 4B78     		ldrb	r3, [r1, #1]	@ zero_extendqisi2
 4673 0010 03F00F03 		and	r3, r3, #15
 4674 0014 023B     		subs	r3, r3, #2
 4675 0016 052B     		cmp	r3, #5
 4676 0018 07D8     		bhi	.L368
 4677 001a DFE803F0 		tbb	[pc, r3]
 4678              	.LVL456:
 4679              	.L370:
 4680 001e 0B       		.byte	(.L375-.L370)/2
 4681 001f 0E       		.byte	(.L374-.L370)/2
 4682 0020 11       		.byte	(.L373-.L370)/2
 4683 0021 14       		.byte	(.L372-.L370)/2
 4684 0022 19       		.byte	(.L371-.L370)/2
 4685 0023 1D       		.byte	(.L369-.L370)/2
 4686              		.p2align 1
 4687              	.L378:
1038:Dsp/letter_shell/shell.c ****     }
 4688              		.loc 1 1038 9 is_stmt 1 view .LVU1279
 4689 0024 1249     		ldr	r1, .L379
 4690              	.LVL457:
1038:Dsp/letter_shell/shell.c ****     }
 4691              		.loc 1 1038 9 is_stmt 0 view .LVU1280
 4692 0026 FFF7FEFF 		bl	shellWriteString
 4693              	.LVL458:
 4694              	.L368:
1077:Dsp/letter_shell/shell.c **** }
 4695              		.loc 1 1077 5 is_stmt 1 view .LVU1281
1077:Dsp/letter_shell/shell.c **** }
 4696              		.loc 1 1077 12 is_stmt 0 view .LVU1282
 4697 002a 2146     		mov	r1, r4
 4698 002c 2846     		mov	r0, r5
 4699 002e FFF7FEFF 		bl	shellShowVar
ARM GAS  /var/folders/lx/hc4sn_b53233_zkc9xbbl97r0000gp/T//ccoa1yNG.s 			page 136


 4700              	.LVL459:
1078:Dsp/letter_shell/shell.c **** 
 4701              		.loc 1 1078 1 view .LVU1283
 4702 0032 70BD     		pop	{r4, r5, r6, pc}
 4703              	.LVL460:
 4704              	.L375:
1045:Dsp/letter_shell/shell.c ****             break;
 4705              		.loc 1 1045 13 is_stmt 1 view .LVU1284
1045:Dsp/letter_shell/shell.c ****             break;
 4706              		.loc 1 1045 40 is_stmt 0 view .LVU1285
 4707 0034 A368     		ldr	r3, [r4, #8]
1045:Dsp/letter_shell/shell.c ****             break;
 4708              		.loc 1 1045 49 view .LVU1286
 4709 0036 1A60     		str	r2, [r3]
1046:Dsp/letter_shell/shell.c ****         case SHELL_TYPE_VAR_SHORT:
 4710              		.loc 1 1046 13 is_stmt 1 view .LVU1287
 4711 0038 F7E7     		b	.L368
 4712              	.L374:
1048:Dsp/letter_shell/shell.c ****             break;
 4713              		.loc 1 1048 13 view .LVU1288
1048:Dsp/letter_shell/shell.c ****             break;
 4714              		.loc 1 1048 42 is_stmt 0 view .LVU1289
 4715 003a A368     		ldr	r3, [r4, #8]
1048:Dsp/letter_shell/shell.c ****             break;
 4716              		.loc 1 1048 51 view .LVU1290
 4717 003c 1A80     		strh	r2, [r3]	@ movhi
1049:Dsp/letter_shell/shell.c ****         case SHELL_TYPE_VAR_CHAR:
 4718              		.loc 1 1049 13 is_stmt 1 view .LVU1291
 4719 003e F4E7     		b	.L368
 4720              	.L373:
1051:Dsp/letter_shell/shell.c ****             break;
 4721              		.loc 1 1051 13 view .LVU1292
1051:Dsp/letter_shell/shell.c ****             break;
 4722              		.loc 1 1051 41 is_stmt 0 view .LVU1293
 4723 0040 A368     		ldr	r3, [r4, #8]
1051:Dsp/letter_shell/shell.c ****             break;
 4724              		.loc 1 1051 50 view .LVU1294
 4725 0042 1A70     		strb	r2, [r3]
1052:Dsp/letter_shell/shell.c ****         case SHELL_TYPE_VAR_STRING:
 4726              		.loc 1 1052 13 is_stmt 1 view .LVU1295
 4727 0044 F1E7     		b	.L368
 4728              	.L372:
1054:Dsp/letter_shell/shell.c ****             break;
 4729              		.loc 1 1054 13 view .LVU1296
 4730 0046 1146     		mov	r1, r2
 4731 0048 A068     		ldr	r0, [r4, #8]
 4732              	.LVL461:
1054:Dsp/letter_shell/shell.c ****             break;
 4733              		.loc 1 1054 13 is_stmt 0 view .LVU1297
 4734 004a FFF7FEFF 		bl	shellStringCopy
 4735              	.LVL462:
1055:Dsp/letter_shell/shell.c ****         case SHELL_TYPE_VAR_POINT:
 4736              		.loc 1 1055 13 is_stmt 1 view .LVU1298
 4737 004e ECE7     		b	.L368
 4738              	.LVL463:
 4739              	.L371:
1057:Dsp/letter_shell/shell.c ****             break;
ARM GAS  /var/folders/lx/hc4sn_b53233_zkc9xbbl97r0000gp/T//ccoa1yNG.s 			page 137


 4740              		.loc 1 1057 13 view .LVU1299
 4741 0050 0849     		ldr	r1, .L379+4
 4742 0052 FFF7FEFF 		bl	shellWriteString
 4743              	.LVL464:
1058:Dsp/letter_shell/shell.c ****         case SHELL_TYPE_VAR_NODE:
 4744              		.loc 1 1058 13 view .LVU1300
 4745 0056 E8E7     		b	.L368
 4746              	.LVL465:
 4747              	.L369:
1060:Dsp/letter_shell/shell.c ****             {
 4748              		.loc 1 1060 13 view .LVU1301
1060:Dsp/letter_shell/shell.c ****             {
 4749              		.loc 1 1060 55 is_stmt 0 view .LVU1302
 4750 0058 A368     		ldr	r3, [r4, #8]
1060:Dsp/letter_shell/shell.c ****             {
 4751              		.loc 1 1060 62 view .LVU1303
 4752 005a 9E68     		ldr	r6, [r3, #8]
1060:Dsp/letter_shell/shell.c ****             {
 4753              		.loc 1 1060 16 view .LVU1304
 4754 005c 002E     		cmp	r6, #0
 4755 005e E4D0     		beq	.L368
1062:Dsp/letter_shell/shell.c ****                 {
 4756              		.loc 1 1062 17 is_stmt 1 view .LVU1305
1062:Dsp/letter_shell/shell.c ****                 {
 4757              		.loc 1 1062 66 is_stmt 0 view .LVU1306
 4758 0060 1868     		ldr	r0, [r3]
 4759              	.LVL466:
1062:Dsp/letter_shell/shell.c ****                 {
 4760              		.loc 1 1062 20 view .LVU1307
 4761 0062 10B1     		cbz	r0, .L376
1064:Dsp/letter_shell/shell.c ****                         ->set(((ShellNodeVarAttr *)command->data.var.value)->var, value);
 4762              		.loc 1 1064 21 is_stmt 1 view .LVU1308
1064:Dsp/letter_shell/shell.c ****                         ->set(((ShellNodeVarAttr *)command->data.var.value)->var, value);
 4763              		.loc 1 1064 22 is_stmt 0 view .LVU1309
 4764 0064 1146     		mov	r1, r2
 4765 0066 B047     		blx	r6
 4766              	.LVL467:
1064:Dsp/letter_shell/shell.c ****                         ->set(((ShellNodeVarAttr *)command->data.var.value)->var, value);
 4767              		.loc 1 1064 22 view .LVU1310
 4768 0068 DFE7     		b	.L368
 4769              	.LVL468:
 4770              	.L376:
1069:Dsp/letter_shell/shell.c ****                 }
 4771              		.loc 1 1069 21 is_stmt 1 view .LVU1311
1069:Dsp/letter_shell/shell.c ****                 }
 4772              		.loc 1 1069 22 is_stmt 0 view .LVU1312
 4773 006a 1046     		mov	r0, r2
 4774 006c B047     		blx	r6
 4775              	.LVL469:
1069:Dsp/letter_shell/shell.c ****                 }
 4776              		.loc 1 1069 22 view .LVU1313
 4777 006e DCE7     		b	.L368
 4778              	.L380:
 4779              		.align	2
 4780              	.L379:
 4781 0070 00000000 		.word	.LC27
 4782 0074 1C000000 		.word	.LC28
ARM GAS  /var/folders/lx/hc4sn_b53233_zkc9xbbl97r0000gp/T//ccoa1yNG.s 			page 138


 4783              		.cfi_endproc
 4784              	.LFE156:
 4786              		.section	.rodata.shellSetVar.str1.4,"aMS",%progbits,1
 4787              		.align	2
 4788              	.LC29:
 4789 0000 56617220 		.ascii	"Var not Fount\015\012\000"
 4789      6E6F7420 
 4789      466F756E 
 4789      740D0A00 
 4790              		.align	2
 4791              	.LC30:
 4792 0010 20697320 		.ascii	" is not a var\015\012\000"
 4792      6E6F7420 
 4792      61207661 
 4792      720D0A00 
 4793              		.section	.text.shellSetVar,"ax",%progbits
 4794              		.align	1
 4795              		.global	shellSetVar
 4796              		.syntax unified
 4797              		.thumb
 4798              		.thumb_func
 4799              		.fpu fpv4-sp-d16
 4801              	shellSetVar:
 4802              	.LVL470:
 4803              	.LFB158:
1132:Dsp/letter_shell/shell.c ****     Shell *shell = shellGetCurrent();
 4804              		.loc 1 1132 1 is_stmt 1 view -0
 4805              		.cfi_startproc
 4806              		@ args = 0, pretend = 0, frame = 0
 4807              		@ frame_needed = 0, uses_anonymous_args = 0
1132:Dsp/letter_shell/shell.c ****     Shell *shell = shellGetCurrent();
 4808              		.loc 1 1132 1 is_stmt 0 view .LVU1315
 4809 0000 70B5     		push	{r4, r5, r6, lr}
 4810              	.LCFI60:
 4811              		.cfi_def_cfa_offset 16
 4812              		.cfi_offset 4, -16
 4813              		.cfi_offset 5, -12
 4814              		.cfi_offset 6, -8
 4815              		.cfi_offset 14, -4
 4816 0002 0446     		mov	r4, r0
 4817 0004 0D46     		mov	r5, r1
1133:Dsp/letter_shell/shell.c ****     if (shell == NULL)
 4818              		.loc 1 1133 5 is_stmt 1 view .LVU1316
1133:Dsp/letter_shell/shell.c ****     if (shell == NULL)
 4819              		.loc 1 1133 20 is_stmt 0 view .LVU1317
 4820 0006 FFF7FEFF 		bl	shellGetCurrent
 4821              	.LVL471:
1134:Dsp/letter_shell/shell.c ****     {
 4822              		.loc 1 1134 5 is_stmt 1 view .LVU1318
1134:Dsp/letter_shell/shell.c ****     {
 4823              		.loc 1 1134 8 is_stmt 0 view .LVU1319
 4824 000a 20B3     		cbz	r0, .L385
 4825 000c 0646     		mov	r6, r0
1138:Dsp/letter_shell/shell.c ****                                              name,
 4826              		.loc 1 1138 5 is_stmt 1 view .LVU1320
1138:Dsp/letter_shell/shell.c ****                                              name,
 4827              		.loc 1 1138 29 is_stmt 0 view .LVU1321
ARM GAS  /var/folders/lx/hc4sn_b53233_zkc9xbbl97r0000gp/T//ccoa1yNG.s 			page 139


 4828 000e 0023     		movs	r3, #0
 4829 0010 826D     		ldr	r2, [r0, #88]
 4830 0012 2146     		mov	r1, r4
 4831 0014 FFF7FEFF 		bl	shellSeekCommand
 4832              	.LVL472:
1142:Dsp/letter_shell/shell.c ****     {
 4833              		.loc 1 1142 5 is_stmt 1 view .LVU1322
1142:Dsp/letter_shell/shell.c ****     {
 4834              		.loc 1 1142 8 is_stmt 0 view .LVU1323
 4835 0018 0146     		mov	r1, r0
 4836 001a 60B1     		cbz	r0, .L387
1147:Dsp/letter_shell/shell.c ****         || command->attr.attrs.type > SHELL_TYPE_VAR_NODE)
 4837              		.loc 1 1147 5 is_stmt 1 view .LVU1324
1147:Dsp/letter_shell/shell.c ****         || command->attr.attrs.type > SHELL_TYPE_VAR_NODE)
 4838              		.loc 1 1147 28 is_stmt 0 view .LVU1325
 4839 001c 4378     		ldrb	r3, [r0, #1]	@ zero_extendqisi2
 4840 001e 03F00F03 		and	r3, r3, #15
1148:Dsp/letter_shell/shell.c ****     {
 4841              		.loc 1 1148 9 view .LVU1326
 4842 0022 0E33     		adds	r3, r3, #14
 4843 0024 03F00F03 		and	r3, r3, #15
1147:Dsp/letter_shell/shell.c ****         || command->attr.attrs.type > SHELL_TYPE_VAR_NODE)
 4844              		.loc 1 1147 8 view .LVU1327
 4845 0028 052B     		cmp	r3, #5
 4846 002a 0AD8     		bhi	.L388
1154:Dsp/letter_shell/shell.c **** }
 4847              		.loc 1 1154 5 is_stmt 1 view .LVU1328
1154:Dsp/letter_shell/shell.c **** }
 4848              		.loc 1 1154 12 is_stmt 0 view .LVU1329
 4849 002c 2A46     		mov	r2, r5
 4850 002e 3046     		mov	r0, r6
 4851              	.LVL473:
1154:Dsp/letter_shell/shell.c **** }
 4852              		.loc 1 1154 12 view .LVU1330
 4853 0030 FFF7FEFF 		bl	shellSetVarValue
 4854              	.LVL474:
 4855              	.L381:
1155:Dsp/letter_shell/shell.c **** SHELL_EXPORT_CMD(
 4856              		.loc 1 1155 1 view .LVU1331
 4857 0034 70BD     		pop	{r4, r5, r6, pc}
 4858              	.LVL475:
 4859              	.L387:
1144:Dsp/letter_shell/shell.c ****         return 0;
 4860              		.loc 1 1144 9 is_stmt 1 view .LVU1332
 4861 0036 0949     		ldr	r1, .L389
 4862 0038 3046     		mov	r0, r6
 4863              	.LVL476:
1144:Dsp/letter_shell/shell.c ****         return 0;
 4864              		.loc 1 1144 9 is_stmt 0 view .LVU1333
 4865 003a FFF7FEFF 		bl	shellWriteString
 4866              	.LVL477:
1145:Dsp/letter_shell/shell.c ****     }
 4867              		.loc 1 1145 9 is_stmt 1 view .LVU1334
1145:Dsp/letter_shell/shell.c ****     }
 4868              		.loc 1 1145 16 is_stmt 0 view .LVU1335
 4869 003e 0020     		movs	r0, #0
 4870 0040 F8E7     		b	.L381
ARM GAS  /var/folders/lx/hc4sn_b53233_zkc9xbbl97r0000gp/T//ccoa1yNG.s 			page 140


 4871              	.LVL478:
 4872              	.L388:
1150:Dsp/letter_shell/shell.c ****         shellWriteString(shell, shellText[SHELL_TEXT_NOT_VAR]);
 4873              		.loc 1 1150 9 is_stmt 1 view .LVU1336
 4874 0042 2146     		mov	r1, r4
 4875 0044 3046     		mov	r0, r6
 4876              	.LVL479:
1150:Dsp/letter_shell/shell.c ****         shellWriteString(shell, shellText[SHELL_TEXT_NOT_VAR]);
 4877              		.loc 1 1150 9 is_stmt 0 view .LVU1337
 4878 0046 FFF7FEFF 		bl	shellWriteString
 4879              	.LVL480:
1151:Dsp/letter_shell/shell.c ****         return 0;
 4880              		.loc 1 1151 9 is_stmt 1 view .LVU1338
 4881 004a 0549     		ldr	r1, .L389+4
 4882 004c 3046     		mov	r0, r6
 4883 004e FFF7FEFF 		bl	shellWriteString
 4884              	.LVL481:
1152:Dsp/letter_shell/shell.c ****     }
 4885              		.loc 1 1152 9 view .LVU1339
1152:Dsp/letter_shell/shell.c ****     }
 4886              		.loc 1 1152 16 is_stmt 0 view .LVU1340
 4887 0052 0020     		movs	r0, #0
 4888 0054 EEE7     		b	.L381
 4889              	.LVL482:
 4890              	.L385:
1136:Dsp/letter_shell/shell.c ****     }
 4891              		.loc 1 1136 16 view .LVU1341
 4892 0056 0020     		movs	r0, #0
 4893              	.LVL483:
1136:Dsp/letter_shell/shell.c ****     }
 4894              		.loc 1 1136 16 view .LVU1342
 4895 0058 ECE7     		b	.L381
 4896              	.L390:
 4897 005a 00BF     		.align	2
 4898              	.L389:
 4899 005c 00000000 		.word	.LC29
 4900 0060 10000000 		.word	.LC30
 4901              		.cfi_endproc
 4902              	.LFE158:
 4904              		.section	.text.shellRunCommand,"ax",%progbits
 4905              		.align	1
 4906              		.global	shellRunCommand
 4907              		.syntax unified
 4908              		.thumb
 4909              		.thumb_func
 4910              		.fpu fpv4-sp-d16
 4912              	shellRunCommand:
 4913              	.LVL484:
 4914              	.LFB159:
1170:Dsp/letter_shell/shell.c ****     int returnValue = 0;
 4915              		.loc 1 1170 1 is_stmt 1 view -0
 4916              		.cfi_startproc
 4917              		@ args = 0, pretend = 0, frame = 0
 4918              		@ frame_needed = 0, uses_anonymous_args = 0
1170:Dsp/letter_shell/shell.c ****     int returnValue = 0;
 4919              		.loc 1 1170 1 is_stmt 0 view .LVU1344
 4920 0000 70B5     		push	{r4, r5, r6, lr}
ARM GAS  /var/folders/lx/hc4sn_b53233_zkc9xbbl97r0000gp/T//ccoa1yNG.s 			page 141


 4921              	.LCFI61:
 4922              		.cfi_def_cfa_offset 16
 4923              		.cfi_offset 4, -16
 4924              		.cfi_offset 5, -12
 4925              		.cfi_offset 6, -8
 4926              		.cfi_offset 14, -4
 4927 0002 0446     		mov	r4, r0
 4928 0004 0D46     		mov	r5, r1
1171:Dsp/letter_shell/shell.c ****     shell->status.isActive = 1;
 4929              		.loc 1 1171 5 is_stmt 1 view .LVU1345
 4930              	.LVL485:
1172:Dsp/letter_shell/shell.c ****     if (command->attr.attrs.type == SHELL_TYPE_CMD_MAIN)
 4931              		.loc 1 1172 5 view .LVU1346
1172:Dsp/letter_shell/shell.c ****     if (command->attr.attrs.type == SHELL_TYPE_CMD_MAIN)
 4932              		.loc 1 1172 28 is_stmt 0 view .LVU1347
 4933 0006 90F86030 		ldrb	r3, [r0, #96]	@ zero_extendqisi2
 4934 000a 43F00203 		orr	r3, r3, #2
 4935 000e 80F86030 		strb	r3, [r0, #96]
1173:Dsp/letter_shell/shell.c ****     {
 4936              		.loc 1 1173 5 is_stmt 1 view .LVU1348
1173:Dsp/letter_shell/shell.c ****     {
 4937              		.loc 1 1173 34 is_stmt 0 view .LVU1349
 4938 0012 4B78     		ldrb	r3, [r1, #1]	@ zero_extendqisi2
1173:Dsp/letter_shell/shell.c ****     {
 4939              		.loc 1 1173 8 view .LVU1350
 4940 0014 13F00F03 		ands	r3, r3, #15
 4941 0018 14D0     		beq	.L398
1183:Dsp/letter_shell/shell.c ****     {
 4942              		.loc 1 1183 10 is_stmt 1 view .LVU1351
1183:Dsp/letter_shell/shell.c ****     {
 4943              		.loc 1 1183 13 is_stmt 0 view .LVU1352
 4944 001a 012B     		cmp	r3, #1
 4945 001c 23D0     		beq	.L399
1194:Dsp/letter_shell/shell.c ****         && command->attr.attrs.type <= SHELL_TYPE_VAR_NODE)
 4946              		.loc 1 1194 10 is_stmt 1 view .LVU1353
1194:Dsp/letter_shell/shell.c ****         && command->attr.attrs.type <= SHELL_TYPE_VAR_NODE)
 4947              		.loc 1 1194 33 is_stmt 0 view .LVU1354
 4948 001e 4A78     		ldrb	r2, [r1, #1]	@ zero_extendqisi2
 4949 0020 02F00F02 		and	r2, r2, #15
1195:Dsp/letter_shell/shell.c ****     {
 4950              		.loc 1 1195 9 view .LVU1355
 4951 0024 0E32     		adds	r2, r2, #14
 4952 0026 02F00F02 		and	r2, r2, #15
1194:Dsp/letter_shell/shell.c ****         && command->attr.attrs.type <= SHELL_TYPE_VAR_NODE)
 4953              		.loc 1 1194 13 view .LVU1356
 4954 002a 052A     		cmp	r2, #5
 4955 002c 2AD9     		bls	.L400
1199:Dsp/letter_shell/shell.c ****     {
 4956              		.loc 1 1199 10 is_stmt 1 view .LVU1357
1199:Dsp/letter_shell/shell.c ****     {
 4957              		.loc 1 1199 13 is_stmt 0 view .LVU1358
 4958 002e 082B     		cmp	r3, #8
 4959 0030 2CD0     		beq	.L401
1171:Dsp/letter_shell/shell.c ****     shell->status.isActive = 1;
 4960              		.loc 1 1171 9 view .LVU1359
 4961 0032 0026     		movs	r6, #0
 4962              	.LVL486:
ARM GAS  /var/folders/lx/hc4sn_b53233_zkc9xbbl97r0000gp/T//ccoa1yNG.s 			page 142


 4963              	.L393:
1203:Dsp/letter_shell/shell.c **** 
 4964              		.loc 1 1203 5 is_stmt 1 view .LVU1360
1203:Dsp/letter_shell/shell.c **** 
 4965              		.loc 1 1203 28 is_stmt 0 view .LVU1361
 4966 0034 94F86030 		ldrb	r3, [r4, #96]	@ zero_extendqisi2
 4967 0038 6FF34103 		bfc	r3, #1, #1
 4968 003c 84F86030 		strb	r3, [r4, #96]
1205:Dsp/letter_shell/shell.c **** }
 4969              		.loc 1 1205 5 is_stmt 1 view .LVU1362
1206:Dsp/letter_shell/shell.c **** 
 4970              		.loc 1 1206 1 is_stmt 0 view .LVU1363
 4971 0040 3046     		mov	r0, r6
 4972 0042 70BD     		pop	{r4, r5, r6, pc}
 4973              	.LVL487:
 4974              	.L398:
1175:Dsp/letter_shell/shell.c ****         returnValue = command->data.cmd.function(shell->parser.paramCount,
 4975              		.loc 1 1175 9 is_stmt 1 view .LVU1364
 4976 0044 FFF7FEFF 		bl	shellRemoveParamQuotes
 4977              	.LVL488:
1176:Dsp/letter_shell/shell.c ****                                                  shell->parser.param);
 4978              		.loc 1 1176 9 view .LVU1365
1176:Dsp/letter_shell/shell.c ****                                                  shell->parser.param);
 4979              		.loc 1 1176 40 is_stmt 0 view .LVU1366
 4980 0048 AB68     		ldr	r3, [r5, #8]
1176:Dsp/letter_shell/shell.c ****                                                  shell->parser.param);
 4981              		.loc 1 1176 23 view .LVU1367
 4982 004a 04F11401 		add	r1, r4, #20
 4983 004e E08E     		ldrh	r0, [r4, #54]
 4984 0050 9847     		blx	r3
 4985              	.LVL489:
 4986 0052 0646     		mov	r6, r0
 4987              	.LVL490:
1178:Dsp/letter_shell/shell.c ****         {
 4988              		.loc 1 1178 9 is_stmt 1 view .LVU1368
1178:Dsp/letter_shell/shell.c ****         {
 4989              		.loc 1 1178 13 is_stmt 0 view .LVU1369
 4990 0054 6B78     		ldrb	r3, [r5, #1]	@ zero_extendqisi2
1178:Dsp/letter_shell/shell.c ****         {
 4991              		.loc 1 1178 12 view .LVU1370
 4992 0056 13F0200F 		tst	r3, #32
 4993 005a EBD1     		bne	.L393
1180:Dsp/letter_shell/shell.c ****         }
 4994              		.loc 1 1180 13 is_stmt 1 view .LVU1371
 4995 005c 0146     		mov	r1, r0
 4996 005e 2046     		mov	r0, r4
 4997              	.LVL491:
1180:Dsp/letter_shell/shell.c ****         }
 4998              		.loc 1 1180 13 is_stmt 0 view .LVU1372
 4999 0060 FFF7FEFF 		bl	shellWriteReturnValue
 5000              	.LVL492:
1180:Dsp/letter_shell/shell.c ****         }
 5001              		.loc 1 1180 13 view .LVU1373
 5002 0064 E6E7     		b	.L393
 5003              	.LVL493:
 5004              	.L399:
1185:Dsp/letter_shell/shell.c ****                                   command,
ARM GAS  /var/folders/lx/hc4sn_b53233_zkc9xbbl97r0000gp/T//ccoa1yNG.s 			page 143


 5005              		.loc 1 1185 9 is_stmt 1 view .LVU1374
1185:Dsp/letter_shell/shell.c ****                                   command,
 5006              		.loc 1 1185 23 is_stmt 0 view .LVU1375
 5007 0066 00F11403 		add	r3, r0, #20
 5008 006a C28E     		ldrh	r2, [r0, #54]
 5009 006c FFF7FEFF 		bl	shellExtRun
 5010              	.LVL494:
1185:Dsp/letter_shell/shell.c ****                                   command,
 5011              		.loc 1 1185 23 view .LVU1376
 5012 0070 0646     		mov	r6, r0
 5013              	.LVL495:
1189:Dsp/letter_shell/shell.c ****         {
 5014              		.loc 1 1189 9 is_stmt 1 view .LVU1377
1189:Dsp/letter_shell/shell.c ****         {
 5015              		.loc 1 1189 13 is_stmt 0 view .LVU1378
 5016 0072 6B78     		ldrb	r3, [r5, #1]	@ zero_extendqisi2
1189:Dsp/letter_shell/shell.c ****         {
 5017              		.loc 1 1189 12 view .LVU1379
 5018 0074 13F0200F 		tst	r3, #32
 5019 0078 DCD1     		bne	.L393
1191:Dsp/letter_shell/shell.c ****         }
 5020              		.loc 1 1191 13 is_stmt 1 view .LVU1380
 5021 007a 0146     		mov	r1, r0
 5022 007c 2046     		mov	r0, r4
 5023              	.LVL496:
1191:Dsp/letter_shell/shell.c ****         }
 5024              		.loc 1 1191 13 is_stmt 0 view .LVU1381
 5025 007e FFF7FEFF 		bl	shellWriteReturnValue
 5026              	.LVL497:
1191:Dsp/letter_shell/shell.c ****         }
 5027              		.loc 1 1191 13 view .LVU1382
 5028 0082 D7E7     		b	.L393
 5029              	.LVL498:
 5030              	.L400:
1197:Dsp/letter_shell/shell.c ****     }
 5031              		.loc 1 1197 9 is_stmt 1 view .LVU1383
 5032 0084 FFF7FEFF 		bl	shellShowVar
 5033              	.LVL499:
1171:Dsp/letter_shell/shell.c ****     shell->status.isActive = 1;
 5034              		.loc 1 1171 9 is_stmt 0 view .LVU1384
 5035 0088 0026     		movs	r6, #0
 5036 008a D3E7     		b	.L393
 5037              	.LVL500:
 5038              	.L401:
1201:Dsp/letter_shell/shell.c ****     }
 5039              		.loc 1 1201 9 is_stmt 1 view .LVU1385
 5040 008c FFF7FEFF 		bl	shellSetUser
 5041              	.LVL501:
1171:Dsp/letter_shell/shell.c ****     shell->status.isActive = 1;
 5042              		.loc 1 1171 9 is_stmt 0 view .LVU1386
 5043 0090 0026     		movs	r6, #0
 5044 0092 CFE7     		b	.L393
 5045              		.cfi_endproc
 5046              	.LFE159:
 5048              		.section	.text.shellNormalInput,"ax",%progbits
 5049              		.align	1
 5050              		.global	shellNormalInput
ARM GAS  /var/folders/lx/hc4sn_b53233_zkc9xbbl97r0000gp/T//ccoa1yNG.s 			page 144


 5051              		.syntax unified
 5052              		.thumb
 5053              		.thumb_func
 5054              		.fpu fpv4-sp-d16
 5056              	shellNormalInput:
 5057              	.LVL502:
 5058              	.LFB165:
1369:Dsp/letter_shell/shell.c ****     shell->status.tabFlag = 0;
 5059              		.loc 1 1369 1 is_stmt 1 view -0
 5060              		.cfi_startproc
 5061              		@ args = 0, pretend = 0, frame = 0
 5062              		@ frame_needed = 0, uses_anonymous_args = 0
1369:Dsp/letter_shell/shell.c ****     shell->status.tabFlag = 0;
 5063              		.loc 1 1369 1 is_stmt 0 view .LVU1388
 5064 0000 08B5     		push	{r3, lr}
 5065              	.LCFI62:
 5066              		.cfi_def_cfa_offset 8
 5067              		.cfi_offset 3, -8
 5068              		.cfi_offset 14, -4
1370:Dsp/letter_shell/shell.c ****     shellInsertByte(shell, data);
 5069              		.loc 1 1370 5 is_stmt 1 view .LVU1389
1370:Dsp/letter_shell/shell.c ****     shellInsertByte(shell, data);
 5070              		.loc 1 1370 27 is_stmt 0 view .LVU1390
 5071 0002 90F86020 		ldrb	r2, [r0, #96]	@ zero_extendqisi2
 5072 0006 6FF38202 		bfc	r2, #2, #1
 5073 000a 80F86020 		strb	r2, [r0, #96]
1371:Dsp/letter_shell/shell.c **** }
 5074              		.loc 1 1371 5 is_stmt 1 view .LVU1391
 5075 000e FFF7FEFF 		bl	shellInsertByte
 5076              	.LVL503:
1372:Dsp/letter_shell/shell.c **** 
 5077              		.loc 1 1372 1 is_stmt 0 view .LVU1392
 5078 0012 08BD     		pop	{r3, pc}
 5079              		.cfi_endproc
 5080              	.LFE165:
 5082              		.section	.text.shellExec,"ax",%progbits
 5083              		.align	1
 5084              		.global	shellExec
 5085              		.syntax unified
 5086              		.thumb
 5087              		.thumb_func
 5088              		.fpu fpv4-sp-d16
 5090              	shellExec:
 5091              	.LVL504:
 5092              	.LFB166:
1381:Dsp/letter_shell/shell.c ****     
 5093              		.loc 1 1381 1 is_stmt 1 view -0
 5094              		.cfi_startproc
 5095              		@ args = 0, pretend = 0, frame = 0
 5096              		@ frame_needed = 0, uses_anonymous_args = 0
1383:Dsp/letter_shell/shell.c ****     {
 5097              		.loc 1 1383 5 view .LVU1394
1383:Dsp/letter_shell/shell.c ****     {
 5098              		.loc 1 1383 22 is_stmt 0 view .LVU1395
 5099 0000 8389     		ldrh	r3, [r0, #12]
1383:Dsp/letter_shell/shell.c ****     {
 5100              		.loc 1 1383 8 view .LVU1396
ARM GAS  /var/folders/lx/hc4sn_b53233_zkc9xbbl97r0000gp/T//ccoa1yNG.s 			page 145


 5101 0002 5BB3     		cbz	r3, .L409
1381:Dsp/letter_shell/shell.c ****     
 5102              		.loc 1 1381 1 view .LVU1397
 5103 0004 10B5     		push	{r4, lr}
 5104              	.LCFI63:
 5105              		.cfi_def_cfa_offset 8
 5106              		.cfi_offset 4, -8
 5107              		.cfi_offset 14, -4
 5108 0006 0446     		mov	r4, r0
1388:Dsp/letter_shell/shell.c **** 
 5109              		.loc 1 1388 5 is_stmt 1 view .LVU1398
1388:Dsp/letter_shell/shell.c **** 
 5110              		.loc 1 1388 18 is_stmt 0 view .LVU1399
 5111 0008 0269     		ldr	r2, [r0, #16]
1388:Dsp/letter_shell/shell.c **** 
 5112              		.loc 1 1388 48 view .LVU1400
 5113 000a 0021     		movs	r1, #0
 5114 000c D154     		strb	r1, [r2, r3]
1390:Dsp/letter_shell/shell.c ****     {
 5115              		.loc 1 1390 5 is_stmt 1 view .LVU1401
1390:Dsp/letter_shell/shell.c ****     {
 5116              		.loc 1 1390 9 is_stmt 0 view .LVU1402
 5117 000e 90F86030 		ldrb	r3, [r0, #96]	@ zero_extendqisi2
1390:Dsp/letter_shell/shell.c ****     {
 5118              		.loc 1 1390 8 view .LVU1403
 5119 0012 13F0010F 		tst	r3, #1
 5120 0016 1ED0     		beq	.L406
 5121              	.LBB36:
1392:Dsp/letter_shell/shell.c ****         shellParserParam(shell);
 5122              		.loc 1 1392 9 is_stmt 1 view .LVU1404
 5123 0018 FFF7FEFF 		bl	shellHistoryAdd
 5124              	.LVL505:
1393:Dsp/letter_shell/shell.c ****         shell->parser.length = shell->parser.cursor = 0;
 5125              		.loc 1 1393 9 view .LVU1405
 5126 001c 2046     		mov	r0, r4
 5127 001e FFF7FEFF 		bl	shellParserParam
 5128              	.LVL506:
1394:Dsp/letter_shell/shell.c ****         if (shell->parser.paramCount == 0)
 5129              		.loc 1 1394 9 view .LVU1406
1394:Dsp/letter_shell/shell.c ****         if (shell->parser.paramCount == 0)
 5130              		.loc 1 1394 53 is_stmt 0 view .LVU1407
 5131 0022 0023     		movs	r3, #0
 5132 0024 E381     		strh	r3, [r4, #14]	@ movhi
1394:Dsp/letter_shell/shell.c ****         if (shell->parser.paramCount == 0)
 5133              		.loc 1 1394 30 view .LVU1408
 5134 0026 A381     		strh	r3, [r4, #12]	@ movhi
1395:Dsp/letter_shell/shell.c ****         {
 5135              		.loc 1 1395 9 is_stmt 1 view .LVU1409
1395:Dsp/letter_shell/shell.c ****         {
 5136              		.loc 1 1395 26 is_stmt 0 view .LVU1410
 5137 0028 E38E     		ldrh	r3, [r4, #54]
1395:Dsp/letter_shell/shell.c ****         {
 5138              		.loc 1 1395 12 view .LVU1411
 5139 002a B3B1     		cbz	r3, .L404
1399:Dsp/letter_shell/shell.c **** 
 5140              		.loc 1 1399 9 is_stmt 1 view .LVU1412
 5141 002c 0C49     		ldr	r1, .L412
ARM GAS  /var/folders/lx/hc4sn_b53233_zkc9xbbl97r0000gp/T//ccoa1yNG.s 			page 146


 5142 002e 2046     		mov	r0, r4
 5143 0030 FFF7FEFF 		bl	shellWriteString
 5144              	.LVL507:
1401:Dsp/letter_shell/shell.c ****                                                  shell->parser.param[0],
 5145              		.loc 1 1401 9 view .LVU1413
1401:Dsp/letter_shell/shell.c ****                                                  shell->parser.param[0],
 5146              		.loc 1 1401 33 is_stmt 0 view .LVU1414
 5147 0034 0023     		movs	r3, #0
 5148 0036 A26D     		ldr	r2, [r4, #88]
 5149 0038 6169     		ldr	r1, [r4, #20]
 5150 003a 2046     		mov	r0, r4
 5151 003c FFF7FEFF 		bl	shellSeekCommand
 5152              	.LVL508:
1405:Dsp/letter_shell/shell.c ****         {
 5153              		.loc 1 1405 9 is_stmt 1 view .LVU1415
1405:Dsp/letter_shell/shell.c ****         {
 5154              		.loc 1 1405 12 is_stmt 0 view .LVU1416
 5155 0040 0146     		mov	r1, r0
 5156 0042 18B1     		cbz	r0, .L407
1407:Dsp/letter_shell/shell.c ****         }
 5157              		.loc 1 1407 13 is_stmt 1 view .LVU1417
 5158 0044 2046     		mov	r0, r4
 5159              	.LVL509:
1407:Dsp/letter_shell/shell.c ****         }
 5160              		.loc 1 1407 13 is_stmt 0 view .LVU1418
 5161 0046 FFF7FEFF 		bl	shellRunCommand
 5162              	.LVL510:
1407:Dsp/letter_shell/shell.c ****         }
 5163              		.loc 1 1407 13 view .LVU1419
 5164 004a 06E0     		b	.L404
 5165              	.LVL511:
 5166              	.L407:
1411:Dsp/letter_shell/shell.c ****         }
 5167              		.loc 1 1411 13 is_stmt 1 view .LVU1420
 5168 004c 0549     		ldr	r1, .L412+4
 5169 004e 2046     		mov	r0, r4
 5170              	.LVL512:
1411:Dsp/letter_shell/shell.c ****         }
 5171              		.loc 1 1411 13 is_stmt 0 view .LVU1421
 5172 0050 FFF7FEFF 		bl	shellWriteString
 5173              	.LVL513:
 5174 0054 01E0     		b	.L404
 5175              	.LVL514:
 5176              	.L406:
1411:Dsp/letter_shell/shell.c ****         }
 5177              		.loc 1 1411 13 view .LVU1422
 5178              	.LBE36:
1416:Dsp/letter_shell/shell.c ****     }
 5179              		.loc 1 1416 9 is_stmt 1 view .LVU1423
 5180 0056 FFF7FEFF 		bl	shellCheckPassword
 5181              	.LVL515:
 5182              	.L404:
1418:Dsp/letter_shell/shell.c **** 
 5183              		.loc 1 1418 1 is_stmt 0 view .LVU1424
 5184 005a 10BD     		pop	{r4, pc}
 5185              	.LVL516:
 5186              	.L409:
ARM GAS  /var/folders/lx/hc4sn_b53233_zkc9xbbl97r0000gp/T//ccoa1yNG.s 			page 147


 5187              	.LCFI64:
 5188              		.cfi_def_cfa_offset 0
 5189              		.cfi_restore 4
 5190              		.cfi_restore 14
1418:Dsp/letter_shell/shell.c **** 
 5191              		.loc 1 1418 1 view .LVU1425
 5192 005c 7047     		bx	lr
 5193              	.L413:
 5194 005e 00BF     		.align	2
 5195              	.L412:
 5196 0060 04000000 		.word	.LC3
 5197 0064 14000000 		.word	.LC24
 5198              		.cfi_endproc
 5199              	.LFE166:
 5201              		.section	.text.shellEnter,"ax",%progbits
 5202              		.align	1
 5203              		.global	shellEnter
 5204              		.syntax unified
 5205              		.thumb
 5206              		.thumb_func
 5207              		.fpu fpv4-sp-d16
 5209              	shellEnter:
 5210              	.LVL517:
 5211              	.LFB174:
1607:Dsp/letter_shell/shell.c ****     shellExec(shell);
 5212              		.loc 1 1607 1 is_stmt 1 view -0
 5213              		.cfi_startproc
 5214              		@ args = 0, pretend = 0, frame = 0
 5215              		@ frame_needed = 0, uses_anonymous_args = 0
1607:Dsp/letter_shell/shell.c ****     shellExec(shell);
 5216              		.loc 1 1607 1 is_stmt 0 view .LVU1427
 5217 0000 10B5     		push	{r4, lr}
 5218              	.LCFI65:
 5219              		.cfi_def_cfa_offset 8
 5220              		.cfi_offset 4, -8
 5221              		.cfi_offset 14, -4
 5222 0002 0446     		mov	r4, r0
1608:Dsp/letter_shell/shell.c ****     shellWriteCommandLine(shell, 1);
 5223              		.loc 1 1608 5 is_stmt 1 view .LVU1428
 5224 0004 FFF7FEFF 		bl	shellExec
 5225              	.LVL518:
1609:Dsp/letter_shell/shell.c **** }
 5226              		.loc 1 1609 5 view .LVU1429
 5227 0008 0121     		movs	r1, #1
 5228 000a 2046     		mov	r0, r4
 5229 000c FFF7FEFF 		bl	shellWriteCommandLine
 5230              	.LVL519:
1610:Dsp/letter_shell/shell.c **** #if SHELL_ENTER_LF == 1
 5231              		.loc 1 1610 1 is_stmt 0 view .LVU1430
 5232 0010 10BD     		pop	{r4, pc}
1610:Dsp/letter_shell/shell.c **** #if SHELL_ENTER_LF == 1
 5233              		.loc 1 1610 1 view .LVU1431
 5234              		.cfi_endproc
 5235              	.LFE174:
 5237              		.section	.text.shellHandler,"ax",%progbits
 5238              		.align	1
 5239              		.global	shellHandler
ARM GAS  /var/folders/lx/hc4sn_b53233_zkc9xbbl97r0000gp/T//ccoa1yNG.s 			page 148


 5240              		.syntax unified
 5241              		.thumb
 5242              		.thumb_func
 5243              		.fpu fpv4-sp-d16
 5245              	shellHandler:
 5246              	.LVL520:
 5247              	.LFB176:
1670:Dsp/letter_shell/shell.c ****     SHELL_ASSERT(data, return);
 5248              		.loc 1 1670 1 is_stmt 1 view -0
 5249              		.cfi_startproc
 5250              		@ args = 0, pretend = 0, frame = 0
 5251              		@ frame_needed = 0, uses_anonymous_args = 0
1671:Dsp/letter_shell/shell.c **** 
 5252              		.loc 1 1671 5 view .LVU1433
 5253 0000 0029     		cmp	r1, #0
 5254 0002 65D0     		beq	.L429
1670:Dsp/letter_shell/shell.c ****     SHELL_ASSERT(data, return);
 5255              		.loc 1 1670 1 is_stmt 0 discriminator 2 view .LVU1434
 5256 0004 2DE9F047 		push	{r4, r5, r6, r7, r8, r9, r10, lr}
 5257              	.LCFI66:
 5258              		.cfi_def_cfa_offset 32
 5259              		.cfi_offset 4, -32
 5260              		.cfi_offset 5, -28
 5261              		.cfi_offset 6, -24
 5262              		.cfi_offset 7, -20
 5263              		.cfi_offset 8, -16
 5264              		.cfi_offset 9, -12
 5265              		.cfi_offset 10, -8
 5266              		.cfi_offset 14, -4
 5267 0008 0646     		mov	r6, r0
 5268 000a 8A46     		mov	r10, r1
1671:Dsp/letter_shell/shell.c **** 
 5269              		.loc 1 1671 31 is_stmt 1 discriminator 2 view .LVU1435
1686:Dsp/letter_shell/shell.c ****     int keyFilter = 0x00000000;
 5270              		.loc 1 1686 5 discriminator 2 view .LVU1436
 5271              	.LVL521:
1687:Dsp/letter_shell/shell.c ****     if ((shell->parser.keyValue & 0x0000FF00) != 0x00000000)
 5272              		.loc 1 1687 5 discriminator 2 view .LVU1437
1688:Dsp/letter_shell/shell.c ****     {
 5273              		.loc 1 1688 5 discriminator 2 view .LVU1438
1688:Dsp/letter_shell/shell.c ****     {
 5274              		.loc 1 1688 23 is_stmt 0 discriminator 2 view .LVU1439
 5275 000c 836B     		ldr	r3, [r0, #56]
1688:Dsp/letter_shell/shell.c ****     {
 5276              		.loc 1 1688 8 discriminator 2 view .LVU1440
 5277 000e 13F47F4F 		tst	r3, #65280
 5278 0012 08D1     		bne	.L424
1693:Dsp/letter_shell/shell.c ****     {
 5279              		.loc 1 1693 10 is_stmt 1 view .LVU1441
1693:Dsp/letter_shell/shell.c ****     {
 5280              		.loc 1 1693 13 is_stmt 0 view .LVU1442
 5281 0014 13F47F09 		ands	r9, r3, #16711680
 5282 0018 0AD1     		bne	.L425
1698:Dsp/letter_shell/shell.c ****     {
 5283              		.loc 1 1698 10 is_stmt 1 view .LVU1443
1698:Dsp/letter_shell/shell.c ****     {
 5284              		.loc 1 1698 13 is_stmt 0 view .LVU1444
ARM GAS  /var/folders/lx/hc4sn_b53233_zkc9xbbl97r0000gp/T//ccoa1yNG.s 			page 149


 5285 001a 13F07F4F 		tst	r3, #-16777216
 5286 001e 0ED1     		bne	.L426
1686:Dsp/letter_shell/shell.c ****     int keyFilter = 0x00000000;
 5287              		.loc 1 1686 10 view .LVU1445
 5288 0020 4FF01808 		mov	r8, #24
 5289 0024 08E0     		b	.L418
 5290              	.L424:
1691:Dsp/letter_shell/shell.c ****     }
 5291              		.loc 1 1691 19 view .LVU1446
 5292 0026 6FF0FF09 		mvn	r9, #255
1690:Dsp/letter_shell/shell.c ****         keyFilter = 0xFFFFFF00;
 5293              		.loc 1 1690 23 view .LVU1447
 5294 002a 4FF00008 		mov	r8, #0
 5295 002e 03E0     		b	.L418
 5296              	.L425:
1696:Dsp/letter_shell/shell.c ****     }
 5297              		.loc 1 1696 19 view .LVU1448
 5298 0030 DFF8A090 		ldr	r9, .L434
1695:Dsp/letter_shell/shell.c ****         keyFilter = 0xFFFF0000;
 5299              		.loc 1 1695 23 view .LVU1449
 5300 0034 4FF00808 		mov	r8, #8
 5301              	.L418:
 5302              	.LVL522:
1705:Dsp/letter_shell/shell.c ****     for (short i = 0; i < shell->commandList.count; i++)
 5303              		.loc 1 1705 5 is_stmt 1 view .LVU1450
1705:Dsp/letter_shell/shell.c ****     for (short i = 0; i < shell->commandList.count; i++)
 5304              		.loc 1 1705 19 is_stmt 0 view .LVU1451
 5305 0038 B76D     		ldr	r7, [r6, #88]
 5306              	.LVL523:
1706:Dsp/letter_shell/shell.c ****     {
 5307              		.loc 1 1706 5 is_stmt 1 view .LVU1452
 5308              	.LBB37:
1706:Dsp/letter_shell/shell.c ****     {
 5309              		.loc 1 1706 10 view .LVU1453
1706:Dsp/letter_shell/shell.c ****     {
 5310              		.loc 1 1706 16 is_stmt 0 view .LVU1454
 5311 003a 0024     		movs	r4, #0
1706:Dsp/letter_shell/shell.c ****     {
 5312              		.loc 1 1706 5 view .LVU1455
 5313 003c 0DE0     		b	.L419
 5314              	.LVL524:
 5315              	.L426:
1706:Dsp/letter_shell/shell.c ****     {
 5316              		.loc 1 1706 5 view .LVU1456
 5317              	.LBE37:
1701:Dsp/letter_shell/shell.c ****     }
 5318              		.loc 1 1701 19 view .LVU1457
 5319 003e 4FF07F49 		mov	r9, #-16777216
1700:Dsp/letter_shell/shell.c ****         keyFilter = 0xFF000000;
 5320              		.loc 1 1700 23 view .LVU1458
 5321 0042 4FF01008 		mov	r8, #16
 5322 0046 F7E7     		b	.L418
 5323              	.LVL525:
 5324              	.L421:
 5325              	.LBB38:
1723:Dsp/letter_shell/shell.c ****                     {
 5326              		.loc 1 1723 21 is_stmt 1 view .LVU1459
ARM GAS  /var/folders/lx/hc4sn_b53233_zkc9xbbl97r0000gp/T//ccoa1yNG.s 			page 150


1723:Dsp/letter_shell/shell.c ****                     {
 5327              		.loc 1 1723 41 is_stmt 0 view .LVU1460
 5328 0048 AB68     		ldr	r3, [r5, #8]
1723:Dsp/letter_shell/shell.c ****                     {
 5329              		.loc 1 1723 24 view .LVU1461
 5330 004a 0BB1     		cbz	r3, .L422
1725:Dsp/letter_shell/shell.c ****                     }
 5331              		.loc 1 1725 25 is_stmt 1 view .LVU1462
 5332 004c 3046     		mov	r0, r6
 5333 004e 9847     		blx	r3
 5334              	.LVL526:
 5335              	.L422:
1727:Dsp/letter_shell/shell.c ****                     break;
 5336              		.loc 1 1727 21 view .LVU1463
1727:Dsp/letter_shell/shell.c ****                     break;
 5337              		.loc 1 1727 44 is_stmt 0 view .LVU1464
 5338 0050 0023     		movs	r3, #0
 5339 0052 B363     		str	r3, [r6, #56]
1728:Dsp/letter_shell/shell.c ****                 }
 5340              		.loc 1 1728 21 is_stmt 1 view .LVU1465
1728:Dsp/letter_shell/shell.c ****                 }
 5341              		.loc 1 1728 21 is_stmt 0 view .LVU1466
 5342              	.LBE38:
1734:Dsp/letter_shell/shell.c ****     {
 5343              		.loc 1 1734 5 is_stmt 1 view .LVU1467
 5344 0054 33E0     		b	.L416
 5345              	.LVL527:
 5346              	.L420:
 5347              	.LBB39:
1706:Dsp/letter_shell/shell.c ****     {
 5348              		.loc 1 1706 53 discriminator 2 view .LVU1468
1706:Dsp/letter_shell/shell.c ****     {
 5349              		.loc 1 1706 54 is_stmt 0 discriminator 2 view .LVU1469
 5350 0056 0134     		adds	r4, r4, #1
 5351              	.LVL528:
1706:Dsp/letter_shell/shell.c ****     {
 5352              		.loc 1 1706 54 discriminator 2 view .LVU1470
 5353 0058 24B2     		sxth	r4, r4
 5354              	.LVL529:
 5355              	.L419:
1706:Dsp/letter_shell/shell.c ****     {
 5356              		.loc 1 1706 23 is_stmt 1 discriminator 1 view .LVU1471
1706:Dsp/letter_shell/shell.c ****     {
 5357              		.loc 1 1706 45 is_stmt 0 discriminator 1 view .LVU1472
 5358 005a B6F85C30 		ldrh	r3, [r6, #92]
1706:Dsp/letter_shell/shell.c ****     {
 5359              		.loc 1 1706 5 discriminator 1 view .LVU1473
 5360 005e 9C42     		cmp	r4, r3
 5361 0060 2ADA     		bge	.L432
1709:Dsp/letter_shell/shell.c ****             && shellCheckPermission(shell, &(base[i])) == 0)
 5362              		.loc 1 1709 9 is_stmt 1 view .LVU1474
1709:Dsp/letter_shell/shell.c ****             && shellCheckPermission(shell, &(base[i])) == 0)
 5363              		.loc 1 1709 17 is_stmt 0 view .LVU1475
 5364 0062 07EB0415 		add	r5, r7, r4, lsl #4
1709:Dsp/letter_shell/shell.c ****             && shellCheckPermission(shell, &(base[i])) == 0)
 5365              		.loc 1 1709 37 view .LVU1476
 5366 0066 6B78     		ldrb	r3, [r5, #1]	@ zero_extendqisi2
ARM GAS  /var/folders/lx/hc4sn_b53233_zkc9xbbl97r0000gp/T//ccoa1yNG.s 			page 151


 5367 0068 03F00F03 		and	r3, r3, #15
1709:Dsp/letter_shell/shell.c ****             && shellCheckPermission(shell, &(base[i])) == 0)
 5368              		.loc 1 1709 12 view .LVU1477
 5369 006c 092B     		cmp	r3, #9
 5370 006e F2D1     		bne	.L420
1710:Dsp/letter_shell/shell.c ****         {
 5371              		.loc 1 1710 16 view .LVU1478
 5372 0070 2946     		mov	r1, r5
 5373 0072 3046     		mov	r0, r6
 5374 0074 FFF7FEFF 		bl	shellCheckPermission
 5375              	.LVL530:
1710:Dsp/letter_shell/shell.c ****         {
 5376              		.loc 1 1710 13 view .LVU1479
 5377 0078 0028     		cmp	r0, #0
 5378 007a ECD1     		bne	.L420
1713:Dsp/letter_shell/shell.c ****                 && (base[i].data.key.value & (0xFF << keyByteOffset))
 5379              		.loc 1 1713 13 is_stmt 1 view .LVU1480
1713:Dsp/letter_shell/shell.c ****                 && (base[i].data.key.value & (0xFF << keyByteOffset))
 5380              		.loc 1 1713 34 is_stmt 0 view .LVU1481
 5381 007c 6B68     		ldr	r3, [r5, #4]
1713:Dsp/letter_shell/shell.c ****                 && (base[i].data.key.value & (0xFF << keyByteOffset))
 5382              		.loc 1 1713 41 view .LVU1482
 5383 007e 03EA0901 		and	r1, r3, r9
1713:Dsp/letter_shell/shell.c ****                 && (base[i].data.key.value & (0xFF << keyByteOffset))
 5384              		.loc 1 1713 70 view .LVU1483
 5385 0082 B26B     		ldr	r2, [r6, #56]
1713:Dsp/letter_shell/shell.c ****                 && (base[i].data.key.value & (0xFF << keyByteOffset))
 5386              		.loc 1 1713 16 view .LVU1484
 5387 0084 9142     		cmp	r1, r2
 5388 0086 E6D1     		bne	.L420
1714:Dsp/letter_shell/shell.c ****                     == (data << keyByteOffset))
 5389              		.loc 1 1714 52 view .LVU1485
 5390 0088 FF21     		movs	r1, #255
 5391 008a 01FA08F1 		lsl	r1, r1, r8
1714:Dsp/letter_shell/shell.c ****                     == (data << keyByteOffset))
 5392              		.loc 1 1714 44 view .LVU1486
 5393 008e 0B40     		ands	r3, r3, r1
1715:Dsp/letter_shell/shell.c ****             {
 5394              		.loc 1 1715 30 view .LVU1487
 5395 0090 0AFA08F1 		lsl	r1, r10, r8
1714:Dsp/letter_shell/shell.c ****                     == (data << keyByteOffset))
 5396              		.loc 1 1714 17 view .LVU1488
 5397 0094 8B42     		cmp	r3, r1
 5398 0096 DED1     		bne	.L420
1717:Dsp/letter_shell/shell.c ****                 data = 0x00;
 5399              		.loc 1 1717 17 is_stmt 1 view .LVU1489
1717:Dsp/letter_shell/shell.c ****                 data = 0x00;
 5400              		.loc 1 1717 40 is_stmt 0 view .LVU1490
 5401 0098 0A43     		orrs	r2, r2, r1
 5402 009a B263     		str	r2, [r6, #56]
1718:Dsp/letter_shell/shell.c ****                 if (keyByteOffset == 0 
 5403              		.loc 1 1718 17 is_stmt 1 view .LVU1491
 5404              	.LVL531:
1719:Dsp/letter_shell/shell.c ****                     || (base[i].data.key.value & (0xFF << (keyByteOffset - 8)))
 5405              		.loc 1 1719 17 view .LVU1492
1719:Dsp/letter_shell/shell.c ****                     || (base[i].data.key.value & (0xFF << (keyByteOffset - 8)))
 5406              		.loc 1 1719 20 is_stmt 0 view .LVU1493
ARM GAS  /var/folders/lx/hc4sn_b53233_zkc9xbbl97r0000gp/T//ccoa1yNG.s 			page 152


 5407 009c B8F1000F 		cmp	r8, #0
 5408 00a0 D2D0     		beq	.L421
1720:Dsp/letter_shell/shell.c ****                         == 0x00000000)
 5409              		.loc 1 1720 41 view .LVU1494
 5410 00a2 6B68     		ldr	r3, [r5, #4]
1720:Dsp/letter_shell/shell.c ****                         == 0x00000000)
 5411              		.loc 1 1720 74 view .LVU1495
 5412 00a4 A8F10800 		sub	r0, r8, #8
1720:Dsp/letter_shell/shell.c ****                         == 0x00000000)
 5413              		.loc 1 1720 56 view .LVU1496
 5414 00a8 FF22     		movs	r2, #255
 5415 00aa 02FA00F0 		lsl	r0, r2, r0
1720:Dsp/letter_shell/shell.c ****                         == 0x00000000)
 5416              		.loc 1 1720 21 view .LVU1497
 5417 00ae 0342     		tst	r3, r0
 5418 00b0 CAD0     		beq	.L421
1718:Dsp/letter_shell/shell.c ****                 if (keyByteOffset == 0 
 5419              		.loc 1 1718 22 view .LVU1498
 5420 00b2 4FF0000A 		mov	r10, #0
 5421 00b6 CEE7     		b	.L420
 5422              	.LVL532:
 5423              	.L432:
1718:Dsp/letter_shell/shell.c ****                 if (keyByteOffset == 0 
 5424              		.loc 1 1718 22 view .LVU1499
 5425              	.LBE39:
1734:Dsp/letter_shell/shell.c ****     {
 5426              		.loc 1 1734 5 is_stmt 1 view .LVU1500
1734:Dsp/letter_shell/shell.c ****     {
 5427              		.loc 1 1734 8 is_stmt 0 view .LVU1501
 5428 00b8 BAF1000F 		cmp	r10, #0
 5429 00bc 01D1     		bne	.L433
 5430              	.LVL533:
 5431              	.L416:
1744:Dsp/letter_shell/shell.c **** 
 5432              		.loc 1 1744 1 view .LVU1502
 5433 00be BDE8F087 		pop	{r4, r5, r6, r7, r8, r9, r10, pc}
 5434              	.LVL534:
 5435              	.L433:
1736:Dsp/letter_shell/shell.c ****         shellNormalInput(shell, data);
 5436              		.loc 1 1736 9 is_stmt 1 view .LVU1503
1736:Dsp/letter_shell/shell.c ****         shellNormalInput(shell, data);
 5437              		.loc 1 1736 32 is_stmt 0 view .LVU1504
 5438 00c2 0023     		movs	r3, #0
 5439 00c4 B363     		str	r3, [r6, #56]
1737:Dsp/letter_shell/shell.c ****     }
 5440              		.loc 1 1737 9 is_stmt 1 view .LVU1505
 5441 00c6 5146     		mov	r1, r10
 5442 00c8 3046     		mov	r0, r6
 5443 00ca FFF7FEFF 		bl	shellNormalInput
 5444              	.LVL535:
 5445 00ce F6E7     		b	.L416
 5446              	.LVL536:
 5447              	.L429:
 5448              	.LCFI67:
 5449              		.cfi_def_cfa_offset 0
 5450              		.cfi_restore 4
 5451              		.cfi_restore 5
ARM GAS  /var/folders/lx/hc4sn_b53233_zkc9xbbl97r0000gp/T//ccoa1yNG.s 			page 153


 5452              		.cfi_restore 6
 5453              		.cfi_restore 7
 5454              		.cfi_restore 8
 5455              		.cfi_restore 9
 5456              		.cfi_restore 10
 5457              		.cfi_restore 14
1737:Dsp/letter_shell/shell.c ****     }
 5458              		.loc 1 1737 9 is_stmt 0 view .LVU1506
 5459 00d0 7047     		bx	lr
 5460              	.L435:
 5461 00d2 00BF     		.align	2
 5462              	.L434:
 5463 00d4 0000FFFF 		.word	-65536
 5464              		.cfi_endproc
 5465              	.LFE176:
 5467              		.section	.text.shellTask,"ax",%progbits
 5468              		.align	1
 5469              		.global	shellTask
 5470              		.syntax unified
 5471              		.thumb
 5472              		.thumb_func
 5473              		.fpu fpv4-sp-d16
 5475              	shellTask:
 5476              	.LVL537:
 5477              	.LFB177:
1781:Dsp/letter_shell/shell.c ****     Shell *shell = (Shell *)param;
 5478              		.loc 1 1781 1 is_stmt 1 view -0
 5479              		.cfi_startproc
 5480              		@ args = 0, pretend = 0, frame = 8
 5481              		@ frame_needed = 0, uses_anonymous_args = 0
1781:Dsp/letter_shell/shell.c ****     Shell *shell = (Shell *)param;
 5482              		.loc 1 1781 1 is_stmt 0 view .LVU1508
 5483 0000 10B5     		push	{r4, lr}
 5484              	.LCFI68:
 5485              		.cfi_def_cfa_offset 8
 5486              		.cfi_offset 4, -8
 5487              		.cfi_offset 14, -4
 5488 0002 82B0     		sub	sp, sp, #8
 5489              	.LCFI69:
 5490              		.cfi_def_cfa_offset 16
 5491 0004 0446     		mov	r4, r0
1782:Dsp/letter_shell/shell.c ****     char data;
 5492              		.loc 1 1782 5 is_stmt 1 view .LVU1509
 5493              	.LVL538:
 5494              	.L437:
1783:Dsp/letter_shell/shell.c **** #if SHELL_TASK_WHILE == 1
 5495              		.loc 1 1783 5 view .LVU1510
1785:Dsp/letter_shell/shell.c ****     {
 5496              		.loc 1 1785 5 view .LVU1511
1788:Dsp/letter_shell/shell.c ****         {
 5497              		.loc 1 1788 9 view .LVU1512
1788:Dsp/letter_shell/shell.c ****         {
 5498              		.loc 1 1788 18 is_stmt 0 view .LVU1513
 5499 0006 636E     		ldr	r3, [r4, #100]
1788:Dsp/letter_shell/shell.c ****         {
 5500              		.loc 1 1788 12 view .LVU1514
 5501 0008 002B     		cmp	r3, #0
ARM GAS  /var/folders/lx/hc4sn_b53233_zkc9xbbl97r0000gp/T//ccoa1yNG.s 			page 154


 5502 000a FCD0     		beq	.L437
1788:Dsp/letter_shell/shell.c ****         {
 5503              		.loc 1 1788 28 discriminator 1 view .LVU1515
 5504 000c 0DF10700 		add	r0, sp, #7
 5505 0010 9847     		blx	r3
 5506              	.LVL539:
1788:Dsp/letter_shell/shell.c ****         {
 5507              		.loc 1 1788 25 discriminator 1 view .LVU1516
 5508 0012 0028     		cmp	r0, #0
 5509 0014 F7D1     		bne	.L437
1790:Dsp/letter_shell/shell.c ****         }
 5510              		.loc 1 1790 13 is_stmt 1 view .LVU1517
 5511 0016 9DF80710 		ldrb	r1, [sp, #7]	@ zero_extendqisi2
 5512 001a 2046     		mov	r0, r4
 5513 001c FFF7FEFF 		bl	shellHandler
 5514              	.LVL540:
 5515 0020 F1E7     		b	.L437
 5516              		.cfi_endproc
 5517              	.LFE177:
 5519              		.section	.text.shellRun,"ax",%progbits
 5520              		.align	1
 5521              		.global	shellRun
 5522              		.syntax unified
 5523              		.thumb
 5524              		.thumb_func
 5525              		.fpu fpv4-sp-d16
 5527              	shellRun:
 5528              	.LVL541:
 5529              	.LFB183:
1873:Dsp/letter_shell/shell.c **** SHELL_EXPORT_CMD(
1874:Dsp/letter_shell/shell.c **** SHELL_CMD_PERMISSION(0)|SHELL_CMD_TYPE(SHELL_TYPE_CMD_FUNC)|SHELL_CMD_DISABLE_RETURN,
1875:Dsp/letter_shell/shell.c **** clear, shellClear, clear console);
1876:Dsp/letter_shell/shell.c **** 
1877:Dsp/letter_shell/shell.c **** 
1878:Dsp/letter_shell/shell.c **** /**
1879:Dsp/letter_shell/shell.c ****  * @brief shell执行命令
1880:Dsp/letter_shell/shell.c ****  * 
1881:Dsp/letter_shell/shell.c ****  * @param shell shell对象
1882:Dsp/letter_shell/shell.c ****  * @param cmd 命令字符串
1883:Dsp/letter_shell/shell.c ****  * @return int 返回值
1884:Dsp/letter_shell/shell.c ****  */
1885:Dsp/letter_shell/shell.c **** int shellRun(Shell *shell, const char *cmd)
1886:Dsp/letter_shell/shell.c **** {
 5530              		.loc 1 1886 1 view -0
 5531              		.cfi_startproc
 5532              		@ args = 0, pretend = 0, frame = 0
 5533              		@ frame_needed = 0, uses_anonymous_args = 0
1887:Dsp/letter_shell/shell.c ****     SHELL_ASSERT(shell && cmd, return -1);
 5534              		.loc 1 1887 5 view .LVU1519
 5535 0000 28B3     		cbz	r0, .L444
1886:Dsp/letter_shell/shell.c ****     SHELL_ASSERT(shell && cmd, return -1);
 5536              		.loc 1 1886 1 is_stmt 0 discriminator 2 view .LVU1520
 5537 0002 70B5     		push	{r4, r5, r6, lr}
 5538              	.LCFI70:
 5539              		.cfi_def_cfa_offset 16
 5540              		.cfi_offset 4, -16
 5541              		.cfi_offset 5, -12
ARM GAS  /var/folders/lx/hc4sn_b53233_zkc9xbbl97r0000gp/T//ccoa1yNG.s 			page 155


 5542              		.cfi_offset 6, -8
 5543              		.cfi_offset 14, -4
 5544 0004 0D46     		mov	r5, r1
 5545 0006 0446     		mov	r4, r0
 5546              		.loc 1 1887 5 discriminator 2 view .LVU1521
 5547 0008 21B3     		cbz	r1, .L445
 5548              		.loc 1 1887 42 is_stmt 1 discriminator 4 view .LVU1522
1888:Dsp/letter_shell/shell.c ****     char active = shell->status.isActive;
 5549              		.loc 1 1888 5 discriminator 4 view .LVU1523
 5550              		.loc 1 1888 32 is_stmt 0 discriminator 4 view .LVU1524
 5551 000a 90F86030 		ldrb	r3, [r0, #96]	@ zero_extendqisi2
 5552 000e C3F34006 		ubfx	r6, r3, #1, #1
 5553              	.LVL542:
1889:Dsp/letter_shell/shell.c ****     if (strlen(cmd) > shell->parser.bufferSize - 1)
 5554              		.loc 1 1889 5 is_stmt 1 discriminator 4 view .LVU1525
 5555              		.loc 1 1889 9 is_stmt 0 discriminator 4 view .LVU1526
 5556 0012 0846     		mov	r0, r1
 5557              	.LVL543:
 5558              		.loc 1 1889 9 discriminator 4 view .LVU1527
 5559 0014 FFF7FEFF 		bl	strlen
 5560              	.LVL544:
 5561              		.loc 1 1889 36 discriminator 4 view .LVU1528
 5562 0018 A38E     		ldrh	r3, [r4, #52]
 5563              		.loc 1 1889 48 discriminator 4 view .LVU1529
 5564 001a 013B     		subs	r3, r3, #1
 5565              		.loc 1 1889 8 discriminator 4 view .LVU1530
 5566 001c 9842     		cmp	r0, r3
 5567 001e 0FD8     		bhi	.L450
1890:Dsp/letter_shell/shell.c ****     {
1891:Dsp/letter_shell/shell.c ****         shellWriteString(shell, shellText[SHELL_TEXT_CMD_TOO_LONG]);
1892:Dsp/letter_shell/shell.c ****         return -1;
1893:Dsp/letter_shell/shell.c ****     }
1894:Dsp/letter_shell/shell.c ****     else
1895:Dsp/letter_shell/shell.c ****     {
1896:Dsp/letter_shell/shell.c ****         shell->parser.length = shellStringCopy(shell->parser.buffer, (char *)cmd);
 5568              		.loc 1 1896 9 is_stmt 1 view .LVU1531
 5569              		.loc 1 1896 32 is_stmt 0 view .LVU1532
 5570 0020 2946     		mov	r1, r5
 5571 0022 2069     		ldr	r0, [r4, #16]
 5572 0024 FFF7FEFF 		bl	shellStringCopy
 5573              	.LVL545:
 5574              		.loc 1 1896 30 view .LVU1533
 5575 0028 A081     		strh	r0, [r4, #12]	@ movhi
1897:Dsp/letter_shell/shell.c ****         shellExec(shell);
 5576              		.loc 1 1897 9 is_stmt 1 view .LVU1534
 5577 002a 2046     		mov	r0, r4
 5578 002c FFF7FEFF 		bl	shellExec
 5579              	.LVL546:
1898:Dsp/letter_shell/shell.c ****         shell->status.isActive = active;
 5580              		.loc 1 1898 9 view .LVU1535
 5581              		.loc 1 1898 32 is_stmt 0 view .LVU1536
 5582 0030 94F86030 		ldrb	r3, [r4, #96]	@ zero_extendqisi2
 5583 0034 66F34103 		bfi	r3, r6, #1, #1
 5584 0038 84F86030 		strb	r3, [r4, #96]
1899:Dsp/letter_shell/shell.c ****         return 0;
 5585              		.loc 1 1899 9 is_stmt 1 view .LVU1537
 5586              		.loc 1 1899 16 is_stmt 0 view .LVU1538
ARM GAS  /var/folders/lx/hc4sn_b53233_zkc9xbbl97r0000gp/T//ccoa1yNG.s 			page 156


 5587 003c 0020     		movs	r0, #0
 5588              	.L441:
1900:Dsp/letter_shell/shell.c ****     }
1901:Dsp/letter_shell/shell.c **** }
 5589              		.loc 1 1901 1 view .LVU1539
 5590 003e 70BD     		pop	{r4, r5, r6, pc}
 5591              	.LVL547:
 5592              	.L450:
1891:Dsp/letter_shell/shell.c ****         return -1;
 5593              		.loc 1 1891 9 is_stmt 1 view .LVU1540
 5594 0040 0649     		ldr	r1, .L451
 5595 0042 2046     		mov	r0, r4
 5596 0044 FFF7FEFF 		bl	shellWriteString
 5597              	.LVL548:
1892:Dsp/letter_shell/shell.c ****     }
 5598              		.loc 1 1892 9 view .LVU1541
1892:Dsp/letter_shell/shell.c ****     }
 5599              		.loc 1 1892 16 is_stmt 0 view .LVU1542
 5600 0048 4FF0FF30 		mov	r0, #-1
 5601 004c F7E7     		b	.L441
 5602              	.LVL549:
 5603              	.L444:
 5604              	.LCFI71:
 5605              		.cfi_def_cfa_offset 0
 5606              		.cfi_restore 4
 5607              		.cfi_restore 5
 5608              		.cfi_restore 6
 5609              		.cfi_restore 14
1887:Dsp/letter_shell/shell.c ****     char active = shell->status.isActive;
 5610              		.loc 1 1887 5 view .LVU1543
 5611 004e 4FF0FF30 		mov	r0, #-1
 5612              	.LVL550:
 5613              		.loc 1 1901 1 view .LVU1544
 5614 0052 7047     		bx	lr
 5615              	.LVL551:
 5616              	.L445:
 5617              	.LCFI72:
 5618              		.cfi_def_cfa_offset 16
 5619              		.cfi_offset 4, -16
 5620              		.cfi_offset 5, -12
 5621              		.cfi_offset 6, -8
 5622              		.cfi_offset 14, -4
1887:Dsp/letter_shell/shell.c ****     char active = shell->status.isActive;
 5623              		.loc 1 1887 5 view .LVU1545
 5624 0054 4FF0FF30 		mov	r0, #-1
 5625              	.LVL552:
1887:Dsp/letter_shell/shell.c ****     char active = shell->status.isActive;
 5626              		.loc 1 1887 5 view .LVU1546
 5627 0058 F1E7     		b	.L441
 5628              	.L452:
 5629 005a 00BF     		.align	2
 5630              	.L451:
 5631 005c 00000000 		.word	.LC21
 5632              		.cfi_endproc
 5633              	.LFE183:
 5635              		.global	shellCommandclear
 5636              		.global	shellDescclear
ARM GAS  /var/folders/lx/hc4sn_b53233_zkc9xbbl97r0000gp/T//ccoa1yNG.s 			page 157


 5637              		.global	shellCmdclear
 5638              		.global	shellCommandkeys
 5639              		.global	shellDesckeys
 5640              		.global	shellCmdkeys
 5641              		.global	shellCommandvars
 5642              		.global	shellDescvars
 5643              		.global	shellCmdvars
 5644              		.global	shellCommandcmds
 5645              		.global	shellDesccmds
 5646              		.global	shellCmdcmds
 5647              		.global	shellCommandusers
 5648              		.global	shellDescusers
 5649              		.global	shellCmdusers
 5650              		.global	shellCommandhelp
 5651              		.global	shellDeschelp
 5652              		.global	shellCmdhelp
 5653              		.global	shellKey0x0D000000
 5654              		.global	shellDesc0x0D000000
 5655              		.global	shellKey0x0A000000
 5656              		.global	shellDesc0x0A000000
 5657              		.global	shellKey0x1B5B337E
 5658              		.global	shellDesc0x1B5B337E
 5659              		.global	shellKey0x7F000000
 5660              		.global	shellDesc0x7F000000
 5661              		.global	shellKey0x08000000
 5662              		.global	shellDesc0x08000000
 5663              		.global	shellKey0x09000000
 5664              		.global	shellDesc0x09000000
 5665              		.global	shellKey0x1B5B4400
 5666              		.global	shellDesc0x1B5B4400
 5667              		.global	shellKey0x1B5B4300
 5668              		.global	shellDesc0x1B5B4300
 5669              		.global	shellKey0x1B5B4200
 5670              		.global	shellDesc0x1B5B4200
 5671              		.global	shellKey0x1B5B4100
 5672              		.global	shellDesc0x1B5B4100
 5673              		.global	shellCommandsetVar
 5674              		.global	shellDescsetVar
 5675              		.global	shellCmdsetVar
 5676              		.global	shellUserDefault
 5677              		.global	shellDesDefaultUser
 5678              		.global	shellPasswordDefaultUser
 5679              		.global	shellCmdDefaultUser
 5680              		.section	.bss.buffer.0,"aw",%nobits
 5681              		.align	2
 5682              		.set	.LANCHOR1,. + 0
 5685              	buffer.0:
 5686 0000 00000000 		.space	9
 5686      00000000 
 5686      00
 5687              		.section	.bss.shellList,"aw",%nobits
 5688              		.align	2
 5689              		.set	.LANCHOR0,. + 0
 5692              	shellList:
 5693 0000 00000000 		.space	20
 5693      00000000 
 5693      00000000 
ARM GAS  /var/folders/lx/hc4sn_b53233_zkc9xbbl97r0000gp/T//ccoa1yNG.s 			page 158


 5693      00000000 
 5693      00000000 
 5694              		.section	.rodata.shellCmdDefaultUser,"a"
 5695              		.align	2
 5698              	shellCmdDefaultUser:
 5699 0000 77687900 		.ascii	"why\000"
 5700              		.section	.rodata.shellCmdclear,"a"
 5701              		.align	2
 5704              	shellCmdclear:
 5705 0000 636C6561 		.ascii	"clear\000"
 5705      7200
 5706              		.section	.rodata.shellCmdcmds,"a"
 5707              		.align	2
 5710              	shellCmdcmds:
 5711 0000 636D6473 		.ascii	"cmds\000"
 5711      00
 5712              		.section	.rodata.shellCmdhelp,"a"
 5713              		.align	2
 5716              	shellCmdhelp:
 5717 0000 68656C70 		.ascii	"help\000"
 5717      00
 5718              		.section	.rodata.shellCmdkeys,"a"
 5719              		.align	2
 5722              	shellCmdkeys:
 5723 0000 6B657973 		.ascii	"keys\000"
 5723      00
 5724              		.section	.rodata.shellCmdsetVar,"a"
 5725              		.align	2
 5728              	shellCmdsetVar:
 5729 0000 73657456 		.ascii	"setVar\000"
 5729      617200
 5730              		.section	.rodata.shellCmdusers,"a"
 5731              		.align	2
 5734              	shellCmdusers:
 5735 0000 75736572 		.ascii	"users\000"
 5735      7300
 5736              		.section	.rodata.shellCmdvars,"a"
 5737              		.align	2
 5740              	shellCmdvars:
 5741 0000 76617273 		.ascii	"vars\000"
 5741      00
 5742              		.section	.rodata.shellDesDefaultUser,"a"
 5743              		.align	2
 5746              	shellDesDefaultUser:
 5747 0000 64656661 		.ascii	"default user\000"
 5747      756C7420 
 5747      75736572 
 5747      00
 5748              		.section	.rodata.shellDesc0x08000000,"a"
 5749              		.align	2
 5752              	shellDesc0x08000000:
 5753 0000 6261636B 		.ascii	"backspace\000"
 5753      73706163 
 5753      6500
 5754              		.section	.rodata.shellDesc0x09000000,"a"
 5755              		.align	2
 5758              	shellDesc0x09000000:
ARM GAS  /var/folders/lx/hc4sn_b53233_zkc9xbbl97r0000gp/T//ccoa1yNG.s 			page 159


 5759 0000 74616200 		.ascii	"tab\000"
 5760              		.section	.rodata.shellDesc0x0A000000,"a"
 5761              		.align	2
 5764              	shellDesc0x0A000000:
 5765 0000 656E7465 		.ascii	"enter\000"
 5765      7200
 5766              		.section	.rodata.shellDesc0x0D000000,"a"
 5767              		.align	2
 5770              	shellDesc0x0D000000:
 5771 0000 656E7465 		.ascii	"enter\000"
 5771      7200
 5772              		.section	.rodata.shellDesc0x1B5B337E,"a"
 5773              		.align	2
 5776              	shellDesc0x1B5B337E:
 5777 0000 64656C65 		.ascii	"delete\000"
 5777      746500
 5778              		.section	.rodata.shellDesc0x1B5B4100,"a"
 5779              		.align	2
 5782              	shellDesc0x1B5B4100:
 5783 0000 757000   		.ascii	"up\000"
 5784              		.section	.rodata.shellDesc0x1B5B4200,"a"
 5785              		.align	2
 5788              	shellDesc0x1B5B4200:
 5789 0000 646F776E 		.ascii	"down\000"
 5789      00
 5790              		.section	.rodata.shellDesc0x1B5B4300,"a"
 5791              		.align	2
 5794              	shellDesc0x1B5B4300:
 5795 0000 72696768 		.ascii	"right\000"
 5795      7400
 5796              		.section	.rodata.shellDesc0x1B5B4400,"a"
 5797              		.align	2
 5800              	shellDesc0x1B5B4400:
 5801 0000 6C656674 		.ascii	"left\000"
 5801      00
 5802              		.section	.rodata.shellDesc0x7F000000,"a"
 5803              		.align	2
 5806              	shellDesc0x7F000000:
 5807 0000 6261636B 		.ascii	"backspace\000"
 5807      73706163 
 5807      6500
 5808              		.section	.rodata.shellDescclear,"a"
 5809              		.align	2
 5812              	shellDescclear:
 5813 0000 636C6561 		.ascii	"clear console\000"
 5813      7220636F 
 5813      6E736F6C 
 5813      6500
 5814              		.section	.rodata.shellDesccmds,"a"
 5815              		.align	2
 5818              	shellDesccmds:
 5819 0000 6C697374 		.ascii	"list all cmd\000"
 5819      20616C6C 
 5819      20636D64 
 5819      00
 5820              		.section	.rodata.shellDeschelp,"a"
 5821              		.align	2
ARM GAS  /var/folders/lx/hc4sn_b53233_zkc9xbbl97r0000gp/T//ccoa1yNG.s 			page 160


 5824              	shellDeschelp:
 5825 0000 73686F77 		.ascii	"show command info\015\012help [cmd]\000"
 5825      20636F6D 
 5825      6D616E64 
 5825      20696E66 
 5825      6F0D0A68 
 5826              		.section	.rodata.shellDesckeys,"a"
 5827              		.align	2
 5830              	shellDesckeys:
 5831 0000 6C697374 		.ascii	"list all key\000"
 5831      20616C6C 
 5831      206B6579 
 5831      00
 5832              		.section	.rodata.shellDescsetVar,"a"
 5833              		.align	2
 5836              	shellDescsetVar:
 5837 0000 73657420 		.ascii	"set var\000"
 5837      76617200 
 5838              		.section	.rodata.shellDescusers,"a"
 5839              		.align	2
 5842              	shellDescusers:
 5843 0000 6C697374 		.ascii	"list all user\000"
 5843      20616C6C 
 5843      20757365 
 5843      7200
 5844              		.section	.rodata.shellDescvars,"a"
 5845              		.align	2
 5848              	shellDescvars:
 5849 0000 6C697374 		.ascii	"list all var\000"
 5849      20616C6C 
 5849      20766172 
 5849      00
 5850              		.section	.rodata.shellPasswordDefaultUser,"a"
 5851              		.align	2
 5854              	shellPasswordDefaultUser:
 5855 0000 726F626F 		.ascii	"robot123\000"
 5855      74313233 
 5855      00
 5856              		.section	shellCommand,"a"
 5857              		.align	2
 5860              	shellCommandclear:
 5861 0000 00210000 		.word	8448
 5862 0004 00000000 		.word	shellCmdclear
 5863 0008 00000000 		.word	shellClear
 5864 000c 00000000 		.word	shellDescclear
 5867              	shellCommandkeys:
 5868 0010 00210000 		.word	8448
 5869 0014 00000000 		.word	shellCmdkeys
 5870 0018 00000000 		.word	shellKeys
 5871 001c 00000000 		.word	shellDesckeys
 5874              	shellCommandvars:
 5875 0020 00210000 		.word	8448
 5876 0024 00000000 		.word	shellCmdvars
 5877 0028 00000000 		.word	shellVars
 5878 002c 00000000 		.word	shellDescvars
 5881              	shellCommandcmds:
 5882 0030 00210000 		.word	8448
ARM GAS  /var/folders/lx/hc4sn_b53233_zkc9xbbl97r0000gp/T//ccoa1yNG.s 			page 161


 5883 0034 00000000 		.word	shellCmdcmds
 5884 0038 00000000 		.word	shellCmds
 5885 003c 00000000 		.word	shellDesccmds
 5888              	shellCommandusers:
 5889 0040 00210000 		.word	8448
 5890 0044 00000000 		.word	shellCmdusers
 5891 0048 00000000 		.word	shellUsers
 5892 004c 00000000 		.word	shellDescusers
 5895              	shellCommandhelp:
 5896 0050 00200000 		.word	8192
 5897 0054 00000000 		.word	shellCmdhelp
 5898 0058 00000000 		.word	shellHelp
 5899 005c 00000000 		.word	shellDeschelp
 5902              	shellKey0x0D000000:
 5903 0060 00190000 		.word	6400
 5904 0064 0000000D 		.word	218103808
 5905 0068 00000000 		.word	shellEnter
 5906 006c 00000000 		.word	shellDesc0x0D000000
 5909              	shellKey0x0A000000:
 5910 0070 00190000 		.word	6400
 5911 0074 0000000A 		.word	167772160
 5912 0078 00000000 		.word	shellEnter
 5913 007c 00000000 		.word	shellDesc0x0A000000
 5916              	shellKey0x1B5B337E:
 5917 0080 00190000 		.word	6400
 5918 0084 7E335B1B 		.word	458961790
 5919 0088 00000000 		.word	shellDelete
 5920 008c 00000000 		.word	shellDesc0x1B5B337E
 5923              	shellKey0x7F000000:
 5924 0090 00190000 		.word	6400
 5925 0094 0000007F 		.word	2130706432
 5926 0098 00000000 		.word	shellBackspace
 5927 009c 00000000 		.word	shellDesc0x7F000000
 5930              	shellKey0x08000000:
 5931 00a0 00190000 		.word	6400
 5932 00a4 00000008 		.word	134217728
 5933 00a8 00000000 		.word	shellBackspace
 5934 00ac 00000000 		.word	shellDesc0x08000000
 5937              	shellKey0x09000000:
 5938 00b0 00090000 		.word	2304
 5939 00b4 00000009 		.word	150994944
 5940 00b8 00000000 		.word	shellTab
 5941 00bc 00000000 		.word	shellDesc0x09000000
 5944              	shellKey0x1B5B4400:
 5945 00c0 00190000 		.word	6400
 5946 00c4 00445B1B 		.word	458966016
 5947 00c8 00000000 		.word	shellLeft
 5948 00cc 00000000 		.word	shellDesc0x1B5B4400
 5951              	shellKey0x1B5B4300:
 5952 00d0 00190000 		.word	6400
 5953 00d4 00435B1B 		.word	458965760
 5954 00d8 00000000 		.word	shellRight
 5955 00dc 00000000 		.word	shellDesc0x1B5B4300
 5958              	shellKey0x1B5B4200:
 5959 00e0 00090000 		.word	2304
 5960 00e4 00425B1B 		.word	458965504
 5961 00e8 00000000 		.word	shellDown
ARM GAS  /var/folders/lx/hc4sn_b53233_zkc9xbbl97r0000gp/T//ccoa1yNG.s 			page 162


 5962 00ec 00000000 		.word	shellDesc0x1B5B4200
 5965              	shellKey0x1B5B4100:
 5966 00f0 00090000 		.word	2304
 5967 00f4 00415B1B 		.word	458965248
 5968 00f8 00000000 		.word	shellUp
 5969 00fc 00000000 		.word	shellDesc0x1B5B4100
 5972              	shellCommandsetVar:
 5973 0100 00210000 		.word	8448
 5974 0104 00000000 		.word	shellCmdsetVar
 5975 0108 00000000 		.word	shellSetVar
 5976 010c 00000000 		.word	shellDescsetVar
 5979              	shellUserDefault:
 5980 0110 00080000 		.word	2048
 5981 0114 00000000 		.word	shellCmdDefaultUser
 5982 0118 00000000 		.word	shellPasswordDefaultUser
 5983 011c 00000000 		.word	shellDesDefaultUser
 5984              		.text
 5985              	.Letext0:
 5986              		.file 2 "Dsp/letter_shell/shell.h"
 5987              		.file 3 "/usr/local/arm-none-eabi-gcc/gcc-arm-none-eabi-10-2020-q4-major/lib/gcc/arm-none-eabi/10.
 5988              		.file 4 "/usr/local/arm-none-eabi-gcc/gcc-arm-none-eabi-10-2020-q4-major/arm-none-eabi/include/std
 5989              		.file 5 "/usr/local/arm-none-eabi-gcc/gcc-arm-none-eabi-10-2020-q4-major/arm-none-eabi/include/str
 5990              		.file 6 "Dsp/letter_shell/shell_ext.h"
 5991              		.file 7 "SYS/delay/delay.h"
 5992              		.file 8 "<built-in>"
ARM GAS  /var/folders/lx/hc4sn_b53233_zkc9xbbl97r0000gp/T//ccoa1yNG.s 			page 163


DEFINED SYMBOLS
                            *ABS*:0000000000000000 shell.c
/var/folders/lx/hc4sn_b53233_zkc9xbbl97r0000gp/T//ccoa1yNG.s:18     .text.shellAdd:0000000000000000 $t
/var/folders/lx/hc4sn_b53233_zkc9xbbl97r0000gp/T//ccoa1yNG.s:25     .text.shellAdd:0000000000000000 shellAdd
/var/folders/lx/hc4sn_b53233_zkc9xbbl97r0000gp/T//ccoa1yNG.s:79     .text.shellAdd:0000000000000020 $d
/var/folders/lx/hc4sn_b53233_zkc9xbbl97r0000gp/T//ccoa1yNG.s:84     .text.shellStringCopy:0000000000000000 $t
/var/folders/lx/hc4sn_b53233_zkc9xbbl97r0000gp/T//ccoa1yNG.s:90     .text.shellStringCopy:0000000000000000 shellStringCopy
/var/folders/lx/hc4sn_b53233_zkc9xbbl97r0000gp/T//ccoa1yNG.s:137    .text.shellStringCompare:0000000000000000 $t
/var/folders/lx/hc4sn_b53233_zkc9xbbl97r0000gp/T//ccoa1yNG.s:143    .text.shellStringCompare:0000000000000000 shellStringCompare
/var/folders/lx/hc4sn_b53233_zkc9xbbl97r0000gp/T//ccoa1yNG.s:218    .text.shellGetCommandDesc:0000000000000000 $t
/var/folders/lx/hc4sn_b53233_zkc9xbbl97r0000gp/T//ccoa1yNG.s:224    .text.shellGetCommandDesc:0000000000000000 shellGetCommandDesc
/var/folders/lx/hc4sn_b53233_zkc9xbbl97r0000gp/T//ccoa1yNG.s:281    .text.shellParserParam:0000000000000000 $t
/var/folders/lx/hc4sn_b53233_zkc9xbbl97r0000gp/T//ccoa1yNG.s:287    .text.shellParserParam:0000000000000000 shellParserParam
/var/folders/lx/hc4sn_b53233_zkc9xbbl97r0000gp/T//ccoa1yNG.s:472    .text.shellHistoryAdd:0000000000000000 $t
/var/folders/lx/hc4sn_b53233_zkc9xbbl97r0000gp/T//ccoa1yNG.s:478    .text.shellHistoryAdd:0000000000000000 shellHistoryAdd
/var/folders/lx/hc4sn_b53233_zkc9xbbl97r0000gp/T//ccoa1yNG.s:577    .text.shellWriteByte:0000000000000000 $t
/var/folders/lx/hc4sn_b53233_zkc9xbbl97r0000gp/T//ccoa1yNG.s:583    .text.shellWriteByte:0000000000000000 shellWriteByte
/var/folders/lx/hc4sn_b53233_zkc9xbbl97r0000gp/T//ccoa1yNG.s:615    .text.shellRight:0000000000000000 $t
/var/folders/lx/hc4sn_b53233_zkc9xbbl97r0000gp/T//ccoa1yNG.s:622    .text.shellRight:0000000000000000 shellRight
/var/folders/lx/hc4sn_b53233_zkc9xbbl97r0000gp/T//ccoa1yNG.s:665    .text.shellLeft:0000000000000000 $t
/var/folders/lx/hc4sn_b53233_zkc9xbbl97r0000gp/T//ccoa1yNG.s:672    .text.shellLeft:0000000000000000 shellLeft
/var/folders/lx/hc4sn_b53233_zkc9xbbl97r0000gp/T//ccoa1yNG.s:710    .text.shellRemoveParamQuotes:0000000000000000 $t
/var/folders/lx/hc4sn_b53233_zkc9xbbl97r0000gp/T//ccoa1yNG.s:716    .text.shellRemoveParamQuotes:0000000000000000 shellRemoveParamQuotes
/var/folders/lx/hc4sn_b53233_zkc9xbbl97r0000gp/T//ccoa1yNG.s:818    .text.shellGetCurrent:0000000000000000 $t
/var/folders/lx/hc4sn_b53233_zkc9xbbl97r0000gp/T//ccoa1yNG.s:825    .text.shellGetCurrent:0000000000000000 shellGetCurrent
/var/folders/lx/hc4sn_b53233_zkc9xbbl97r0000gp/T//ccoa1yNG.s:876    .text.shellGetCurrent:0000000000000028 $d
/var/folders/lx/hc4sn_b53233_zkc9xbbl97r0000gp/T//ccoa1yNG.s:881    .text.shellWriteString:0000000000000000 $t
/var/folders/lx/hc4sn_b53233_zkc9xbbl97r0000gp/T//ccoa1yNG.s:888    .text.shellWriteString:0000000000000000 shellWriteString
/var/folders/lx/hc4sn_b53233_zkc9xbbl97r0000gp/T//ccoa1yNG.s:956    .rodata.shellSetUser.str1.4:0000000000000000 $d
/var/folders/lx/hc4sn_b53233_zkc9xbbl97r0000gp/T//ccoa1yNG.s:972    .text.shellSetUser:0000000000000000 $t
/var/folders/lx/hc4sn_b53233_zkc9xbbl97r0000gp/T//ccoa1yNG.s:978    .text.shellSetUser:0000000000000000 shellSetUser
/var/folders/lx/hc4sn_b53233_zkc9xbbl97r0000gp/T//ccoa1yNG.s:1069   .text.shellSetUser:0000000000000058 $d
/var/folders/lx/hc4sn_b53233_zkc9xbbl97r0000gp/T//ccoa1yNG.s:1075   .rodata.shellWriteCommandLine.str1.4:0000000000000000 $d
/var/folders/lx/hc4sn_b53233_zkc9xbbl97r0000gp/T//ccoa1yNG.s:1091   .text.shellWriteCommandLine:0000000000000000 $t
/var/folders/lx/hc4sn_b53233_zkc9xbbl97r0000gp/T//ccoa1yNG.s:1097   .text.shellWriteCommandLine:0000000000000000 shellWriteCommandLine
/var/folders/lx/hc4sn_b53233_zkc9xbbl97r0000gp/T//ccoa1yNG.s:1180   .text.shellWriteCommandLine:000000000000004c $d
/var/folders/lx/hc4sn_b53233_zkc9xbbl97r0000gp/T//ccoa1yNG.s:1189   .rodata.shellCheckPassword.str1.4:0000000000000000 $d
/var/folders/lx/hc4sn_b53233_zkc9xbbl97r0000gp/T//ccoa1yNG.s:1193   .text.shellCheckPassword:0000000000000000 $t
/var/folders/lx/hc4sn_b53233_zkc9xbbl97r0000gp/T//ccoa1yNG.s:1199   .text.shellCheckPassword:0000000000000000 shellCheckPassword
/var/folders/lx/hc4sn_b53233_zkc9xbbl97r0000gp/T//ccoa1yNG.s:1256   .text.shellCheckPassword:0000000000000038 $d
/var/folders/lx/hc4sn_b53233_zkc9xbbl97r0000gp/T//ccoa1yNG.s:1262   .text.shellClear:0000000000000000 $t
/var/folders/lx/hc4sn_b53233_zkc9xbbl97r0000gp/T//ccoa1yNG.s:1269   .text.shellClear:0000000000000000 shellClear
/var/folders/lx/hc4sn_b53233_zkc9xbbl97r0000gp/T//ccoa1yNG.s:1297   .text.shellClear:0000000000000010 $d
/var/folders/lx/hc4sn_b53233_zkc9xbbl97r0000gp/T//ccoa1yNG.s:1302   .text.shellPrint:0000000000000000 $t
/var/folders/lx/hc4sn_b53233_zkc9xbbl97r0000gp/T//ccoa1yNG.s:1309   .text.shellPrint:0000000000000000 shellPrint
/var/folders/lx/hc4sn_b53233_zkc9xbbl97r0000gp/T//ccoa1yNG.s:1379   .text.shellScan:0000000000000000 $t
/var/folders/lx/hc4sn_b53233_zkc9xbbl97r0000gp/T//ccoa1yNG.s:1386   .text.shellScan:0000000000000000 shellScan
/var/folders/lx/hc4sn_b53233_zkc9xbbl97r0000gp/T//ccoa1yNG.s:1528   .text.shellScan:0000000000000074 $d
/var/folders/lx/hc4sn_b53233_zkc9xbbl97r0000gp/T//ccoa1yNG.s:1533   .text.shellCheckPermission:0000000000000000 $t
/var/folders/lx/hc4sn_b53233_zkc9xbbl97r0000gp/T//ccoa1yNG.s:1540   .text.shellCheckPermission:0000000000000000 shellCheckPermission
/var/folders/lx/hc4sn_b53233_zkc9xbbl97r0000gp/T//ccoa1yNG.s:1606   .text.shellToHex:0000000000000000 $t
/var/folders/lx/hc4sn_b53233_zkc9xbbl97r0000gp/T//ccoa1yNG.s:1613   .text.shellToHex:0000000000000000 shellToHex
/var/folders/lx/hc4sn_b53233_zkc9xbbl97r0000gp/T//ccoa1yNG.s:1679   .text.shellGetCommandName:0000000000000000 $t
/var/folders/lx/hc4sn_b53233_zkc9xbbl97r0000gp/T//ccoa1yNG.s:1685   .text.shellGetCommandName:0000000000000000 shellGetCommandName
/var/folders/lx/hc4sn_b53233_zkc9xbbl97r0000gp/T//ccoa1yNG.s:1783   .text.shellGetCommandName:0000000000000040 $d
/var/folders/lx/hc4sn_b53233_zkc9xbbl97r0000gp/T//ccoa1yNG.s:1788   .text.shellToDec:0000000000000000 $t
/var/folders/lx/hc4sn_b53233_zkc9xbbl97r0000gp/T//ccoa1yNG.s:1795   .text.shellToDec:0000000000000000 shellToDec
ARM GAS  /var/folders/lx/hc4sn_b53233_zkc9xbbl97r0000gp/T//ccoa1yNG.s 			page 164


/var/folders/lx/hc4sn_b53233_zkc9xbbl97r0000gp/T//ccoa1yNG.s:1917   .text.shellToDec:000000000000005c $d
/var/folders/lx/hc4sn_b53233_zkc9xbbl97r0000gp/T//ccoa1yNG.s:1922   .rodata.shellWriteReturnValue.str1.4:0000000000000000 $d
/var/folders/lx/hc4sn_b53233_zkc9xbbl97r0000gp/T//ccoa1yNG.s:1932   .text.shellWriteReturnValue:0000000000000000 $t
/var/folders/lx/hc4sn_b53233_zkc9xbbl97r0000gp/T//ccoa1yNG.s:1938   .text.shellWriteReturnValue:0000000000000000 shellWriteReturnValue
/var/folders/lx/hc4sn_b53233_zkc9xbbl97r0000gp/T//ccoa1yNG.s:2043   .text.shellWriteReturnValue:000000000000006c $d
/var/folders/lx/hc4sn_b53233_zkc9xbbl97r0000gp/T//ccoa1yNG.s:2051   .rodata.shellListItem.str1.4:0000000000000000 $d
/var/folders/lx/hc4sn_b53233_zkc9xbbl97r0000gp/T//ccoa1yNG.s:2067   .text.shellListItem:0000000000000000 $t
/var/folders/lx/hc4sn_b53233_zkc9xbbl97r0000gp/T//ccoa1yNG.s:2074   .text.shellListItem:0000000000000000 shellListItem
/var/folders/lx/hc4sn_b53233_zkc9xbbl97r0000gp/T//ccoa1yNG.s:2198   .text.shellListItem:000000000000007c $d
/var/folders/lx/hc4sn_b53233_zkc9xbbl97r0000gp/T//ccoa1yNG.s:2207   .rodata.shellListCommand.str1.4:0000000000000000 $d
/var/folders/lx/hc4sn_b53233_zkc9xbbl97r0000gp/T//ccoa1yNG.s:2211   .text.shellListCommand:0000000000000000 $t
/var/folders/lx/hc4sn_b53233_zkc9xbbl97r0000gp/T//ccoa1yNG.s:2218   .text.shellListCommand:0000000000000000 shellListCommand
/var/folders/lx/hc4sn_b53233_zkc9xbbl97r0000gp/T//ccoa1yNG.s:2300   .text.shellListCommand:0000000000000044 $d
/var/folders/lx/hc4sn_b53233_zkc9xbbl97r0000gp/T//ccoa1yNG.s:2305   .text.shellCmds:0000000000000000 $t
/var/folders/lx/hc4sn_b53233_zkc9xbbl97r0000gp/T//ccoa1yNG.s:2312   .text.shellCmds:0000000000000000 shellCmds
/var/folders/lx/hc4sn_b53233_zkc9xbbl97r0000gp/T//ccoa1yNG.s:2340   .rodata.shellListVar.str1.4:0000000000000000 $d
/var/folders/lx/hc4sn_b53233_zkc9xbbl97r0000gp/T//ccoa1yNG.s:2344   .text.shellListVar:0000000000000000 $t
/var/folders/lx/hc4sn_b53233_zkc9xbbl97r0000gp/T//ccoa1yNG.s:2351   .text.shellListVar:0000000000000000 shellListVar
/var/folders/lx/hc4sn_b53233_zkc9xbbl97r0000gp/T//ccoa1yNG.s:2436   .text.shellListVar:0000000000000048 $d
/var/folders/lx/hc4sn_b53233_zkc9xbbl97r0000gp/T//ccoa1yNG.s:2441   .text.shellVars:0000000000000000 $t
/var/folders/lx/hc4sn_b53233_zkc9xbbl97r0000gp/T//ccoa1yNG.s:2448   .text.shellVars:0000000000000000 shellVars
/var/folders/lx/hc4sn_b53233_zkc9xbbl97r0000gp/T//ccoa1yNG.s:2476   .rodata.shellListUser.str1.4:0000000000000000 $d
/var/folders/lx/hc4sn_b53233_zkc9xbbl97r0000gp/T//ccoa1yNG.s:2480   .text.shellListUser:0000000000000000 $t
/var/folders/lx/hc4sn_b53233_zkc9xbbl97r0000gp/T//ccoa1yNG.s:2487   .text.shellListUser:0000000000000000 shellListUser
/var/folders/lx/hc4sn_b53233_zkc9xbbl97r0000gp/T//ccoa1yNG.s:2569   .text.shellListUser:0000000000000044 $d
/var/folders/lx/hc4sn_b53233_zkc9xbbl97r0000gp/T//ccoa1yNG.s:2574   .text.shellUsers:0000000000000000 $t
/var/folders/lx/hc4sn_b53233_zkc9xbbl97r0000gp/T//ccoa1yNG.s:2581   .text.shellUsers:0000000000000000 shellUsers
/var/folders/lx/hc4sn_b53233_zkc9xbbl97r0000gp/T//ccoa1yNG.s:2609   .rodata.shellListKey.str1.4:0000000000000000 $d
/var/folders/lx/hc4sn_b53233_zkc9xbbl97r0000gp/T//ccoa1yNG.s:2613   .text.shellListKey:0000000000000000 $t
/var/folders/lx/hc4sn_b53233_zkc9xbbl97r0000gp/T//ccoa1yNG.s:2620   .text.shellListKey:0000000000000000 shellListKey
/var/folders/lx/hc4sn_b53233_zkc9xbbl97r0000gp/T//ccoa1yNG.s:2702   .text.shellListKey:0000000000000044 $d
/var/folders/lx/hc4sn_b53233_zkc9xbbl97r0000gp/T//ccoa1yNG.s:2707   .text.shellKeys:0000000000000000 $t
/var/folders/lx/hc4sn_b53233_zkc9xbbl97r0000gp/T//ccoa1yNG.s:2714   .text.shellKeys:0000000000000000 shellKeys
/var/folders/lx/hc4sn_b53233_zkc9xbbl97r0000gp/T//ccoa1yNG.s:2742   .text.shellListAll:0000000000000000 $t
/var/folders/lx/hc4sn_b53233_zkc9xbbl97r0000gp/T//ccoa1yNG.s:2749   .text.shellListAll:0000000000000000 shellListAll
/var/folders/lx/hc4sn_b53233_zkc9xbbl97r0000gp/T//ccoa1yNG.s:2771   .rodata.shellDeleteCommandLine.str1.4:0000000000000000 $d
/var/folders/lx/hc4sn_b53233_zkc9xbbl97r0000gp/T//ccoa1yNG.s:2775   .text.shellDeleteCommandLine:0000000000000000 $t
/var/folders/lx/hc4sn_b53233_zkc9xbbl97r0000gp/T//ccoa1yNG.s:2782   .text.shellDeleteCommandLine:0000000000000000 shellDeleteCommandLine
/var/folders/lx/hc4sn_b53233_zkc9xbbl97r0000gp/T//ccoa1yNG.s:2827   .text.shellDeleteCommandLine:000000000000001c $d
/var/folders/lx/hc4sn_b53233_zkc9xbbl97r0000gp/T//ccoa1yNG.s:2832   .text.shellClearCommandLine:0000000000000000 $t
/var/folders/lx/hc4sn_b53233_zkc9xbbl97r0000gp/T//ccoa1yNG.s:2839   .text.shellClearCommandLine:0000000000000000 shellClearCommandLine
/var/folders/lx/hc4sn_b53233_zkc9xbbl97r0000gp/T//ccoa1yNG.s:2902   .text.shellHistory:0000000000000000 $t
/var/folders/lx/hc4sn_b53233_zkc9xbbl97r0000gp/T//ccoa1yNG.s:2908   .text.shellHistory:0000000000000000 shellHistory
/var/folders/lx/hc4sn_b53233_zkc9xbbl97r0000gp/T//ccoa1yNG.s:3032   .text.shellHistory:0000000000000094 $d
/var/folders/lx/hc4sn_b53233_zkc9xbbl97r0000gp/T//ccoa1yNG.s:3037   .text.shellUp:0000000000000000 $t
/var/folders/lx/hc4sn_b53233_zkc9xbbl97r0000gp/T//ccoa1yNG.s:3044   .text.shellUp:0000000000000000 shellUp
/var/folders/lx/hc4sn_b53233_zkc9xbbl97r0000gp/T//ccoa1yNG.s:3067   .text.shellDown:0000000000000000 $t
/var/folders/lx/hc4sn_b53233_zkc9xbbl97r0000gp/T//ccoa1yNG.s:3074   .text.shellDown:0000000000000000 shellDown
/var/folders/lx/hc4sn_b53233_zkc9xbbl97r0000gp/T//ccoa1yNG.s:3097   .text.shellTab:0000000000000000 $t
/var/folders/lx/hc4sn_b53233_zkc9xbbl97r0000gp/T//ccoa1yNG.s:3104   .text.shellTab:0000000000000000 shellTab
/var/folders/lx/hc4sn_b53233_zkc9xbbl97r0000gp/T//ccoa1yNG.s:3366   .text.shellTab:0000000000000110 $d
/var/folders/lx/hc4sn_b53233_zkc9xbbl97r0000gp/T//ccoa1yNG.s:3372   .rodata.shellInsertByte.str1.4:0000000000000000 $d
/var/folders/lx/hc4sn_b53233_zkc9xbbl97r0000gp/T//ccoa1yNG.s:3376   .text.shellInsertByte:0000000000000000 $t
/var/folders/lx/hc4sn_b53233_zkc9xbbl97r0000gp/T//ccoa1yNG.s:3383   .text.shellInsertByte:0000000000000000 shellInsertByte
/var/folders/lx/hc4sn_b53233_zkc9xbbl97r0000gp/T//ccoa1yNG.s:3616   .text.shellInsertByte:00000000000000b8 $d
/var/folders/lx/hc4sn_b53233_zkc9xbbl97r0000gp/T//ccoa1yNG.s:3621   .text.shellDeleteByte:0000000000000000 $t
/var/folders/lx/hc4sn_b53233_zkc9xbbl97r0000gp/T//ccoa1yNG.s:3628   .text.shellDeleteByte:0000000000000000 shellDeleteByte
ARM GAS  /var/folders/lx/hc4sn_b53233_zkc9xbbl97r0000gp/T//ccoa1yNG.s 			page 165


/var/folders/lx/hc4sn_b53233_zkc9xbbl97r0000gp/T//ccoa1yNG.s:3873   .text.shellBackspace:0000000000000000 $t
/var/folders/lx/hc4sn_b53233_zkc9xbbl97r0000gp/T//ccoa1yNG.s:3880   .text.shellBackspace:0000000000000000 shellBackspace
/var/folders/lx/hc4sn_b53233_zkc9xbbl97r0000gp/T//ccoa1yNG.s:3903   .text.shellDelete:0000000000000000 $t
/var/folders/lx/hc4sn_b53233_zkc9xbbl97r0000gp/T//ccoa1yNG.s:3910   .text.shellDelete:0000000000000000 shellDelete
/var/folders/lx/hc4sn_b53233_zkc9xbbl97r0000gp/T//ccoa1yNG.s:3933   .text.shellSeekCommand:0000000000000000 $t
/var/folders/lx/hc4sn_b53233_zkc9xbbl97r0000gp/T//ccoa1yNG.s:3940   .text.shellSeekCommand:0000000000000000 shellSeekCommand
/var/folders/lx/hc4sn_b53233_zkc9xbbl97r0000gp/T//ccoa1yNG.s:4066   .rodata.shellInit.str1.4:0000000000000000 $d
/var/folders/lx/hc4sn_b53233_zkc9xbbl97r0000gp/T//ccoa1yNG.s:4070   .text.shellInit:0000000000000000 $t
/var/folders/lx/hc4sn_b53233_zkc9xbbl97r0000gp/T//ccoa1yNG.s:4077   .text.shellInit:0000000000000000 shellInit
/var/folders/lx/hc4sn_b53233_zkc9xbbl97r0000gp/T//ccoa1yNG.s:4201   .text.shellInit:0000000000000080 $d
/var/folders/lx/hc4sn_b53233_zkc9xbbl97r0000gp/T//ccoa1yNG.s:4209   .rodata.shellHelp.str1.4:0000000000000000 $d
/var/folders/lx/hc4sn_b53233_zkc9xbbl97r0000gp/T//ccoa1yNG.s:4216   .text.shellHelp:0000000000000000 $t
/var/folders/lx/hc4sn_b53233_zkc9xbbl97r0000gp/T//ccoa1yNG.s:4223   .text.shellHelp:0000000000000000 shellHelp
/var/folders/lx/hc4sn_b53233_zkc9xbbl97r0000gp/T//ccoa1yNG.s:4333   .text.shellHelp:0000000000000070 $d
/var/folders/lx/hc4sn_b53233_zkc9xbbl97r0000gp/T//ccoa1yNG.s:4341   .text.shellGetVarValue:0000000000000000 $t
/var/folders/lx/hc4sn_b53233_zkc9xbbl97r0000gp/T//ccoa1yNG.s:4348   .text.shellGetVarValue:0000000000000000 shellGetVarValue
/var/folders/lx/hc4sn_b53233_zkc9xbbl97r0000gp/T//ccoa1yNG.s:4372   .text.shellGetVarValue:0000000000000012 $d
/var/folders/lx/hc4sn_b53233_zkc9xbbl97r0000gp/T//ccoa1yNG.s:4378   .text.shellGetVarValue:0000000000000018 $t
/var/folders/lx/hc4sn_b53233_zkc9xbbl97r0000gp/T//ccoa1yNG.s:4454   .rodata.shellShowVar.str1.4:0000000000000000 $d
/var/folders/lx/hc4sn_b53233_zkc9xbbl97r0000gp/T//ccoa1yNG.s:4461   .text.shellShowVar:0000000000000000 $t
/var/folders/lx/hc4sn_b53233_zkc9xbbl97r0000gp/T//ccoa1yNG.s:4467   .text.shellShowVar:0000000000000000 shellShowVar
/var/folders/lx/hc4sn_b53233_zkc9xbbl97r0000gp/T//ccoa1yNG.s:4624   .text.shellShowVar:00000000000000a8 $d
/var/folders/lx/hc4sn_b53233_zkc9xbbl97r0000gp/T//ccoa1yNG.s:4633   .rodata.shellSetVarValue.str1.4:0000000000000000 $d
/var/folders/lx/hc4sn_b53233_zkc9xbbl97r0000gp/T//ccoa1yNG.s:4640   .text.shellSetVarValue:0000000000000000 $t
/var/folders/lx/hc4sn_b53233_zkc9xbbl97r0000gp/T//ccoa1yNG.s:4647   .text.shellSetVarValue:0000000000000000 shellSetVarValue
/var/folders/lx/hc4sn_b53233_zkc9xbbl97r0000gp/T//ccoa1yNG.s:4680   .text.shellSetVarValue:000000000000001e $d
/var/folders/lx/hc4sn_b53233_zkc9xbbl97r0000gp/T//ccoa1yNG.s:4686   .text.shellSetVarValue:0000000000000024 $t
/var/folders/lx/hc4sn_b53233_zkc9xbbl97r0000gp/T//ccoa1yNG.s:4781   .text.shellSetVarValue:0000000000000070 $d
/var/folders/lx/hc4sn_b53233_zkc9xbbl97r0000gp/T//ccoa1yNG.s:4787   .rodata.shellSetVar.str1.4:0000000000000000 $d
/var/folders/lx/hc4sn_b53233_zkc9xbbl97r0000gp/T//ccoa1yNG.s:4794   .text.shellSetVar:0000000000000000 $t
/var/folders/lx/hc4sn_b53233_zkc9xbbl97r0000gp/T//ccoa1yNG.s:4801   .text.shellSetVar:0000000000000000 shellSetVar
/var/folders/lx/hc4sn_b53233_zkc9xbbl97r0000gp/T//ccoa1yNG.s:4899   .text.shellSetVar:000000000000005c $d
/var/folders/lx/hc4sn_b53233_zkc9xbbl97r0000gp/T//ccoa1yNG.s:4905   .text.shellRunCommand:0000000000000000 $t
/var/folders/lx/hc4sn_b53233_zkc9xbbl97r0000gp/T//ccoa1yNG.s:4912   .text.shellRunCommand:0000000000000000 shellRunCommand
/var/folders/lx/hc4sn_b53233_zkc9xbbl97r0000gp/T//ccoa1yNG.s:5049   .text.shellNormalInput:0000000000000000 $t
/var/folders/lx/hc4sn_b53233_zkc9xbbl97r0000gp/T//ccoa1yNG.s:5056   .text.shellNormalInput:0000000000000000 shellNormalInput
/var/folders/lx/hc4sn_b53233_zkc9xbbl97r0000gp/T//ccoa1yNG.s:5083   .text.shellExec:0000000000000000 $t
/var/folders/lx/hc4sn_b53233_zkc9xbbl97r0000gp/T//ccoa1yNG.s:5090   .text.shellExec:0000000000000000 shellExec
/var/folders/lx/hc4sn_b53233_zkc9xbbl97r0000gp/T//ccoa1yNG.s:5196   .text.shellExec:0000000000000060 $d
/var/folders/lx/hc4sn_b53233_zkc9xbbl97r0000gp/T//ccoa1yNG.s:5202   .text.shellEnter:0000000000000000 $t
/var/folders/lx/hc4sn_b53233_zkc9xbbl97r0000gp/T//ccoa1yNG.s:5209   .text.shellEnter:0000000000000000 shellEnter
/var/folders/lx/hc4sn_b53233_zkc9xbbl97r0000gp/T//ccoa1yNG.s:5238   .text.shellHandler:0000000000000000 $t
/var/folders/lx/hc4sn_b53233_zkc9xbbl97r0000gp/T//ccoa1yNG.s:5245   .text.shellHandler:0000000000000000 shellHandler
/var/folders/lx/hc4sn_b53233_zkc9xbbl97r0000gp/T//ccoa1yNG.s:5463   .text.shellHandler:00000000000000d4 $d
/var/folders/lx/hc4sn_b53233_zkc9xbbl97r0000gp/T//ccoa1yNG.s:5468   .text.shellTask:0000000000000000 $t
/var/folders/lx/hc4sn_b53233_zkc9xbbl97r0000gp/T//ccoa1yNG.s:5475   .text.shellTask:0000000000000000 shellTask
/var/folders/lx/hc4sn_b53233_zkc9xbbl97r0000gp/T//ccoa1yNG.s:5520   .text.shellRun:0000000000000000 $t
/var/folders/lx/hc4sn_b53233_zkc9xbbl97r0000gp/T//ccoa1yNG.s:5527   .text.shellRun:0000000000000000 shellRun
/var/folders/lx/hc4sn_b53233_zkc9xbbl97r0000gp/T//ccoa1yNG.s:5631   .text.shellRun:000000000000005c $d
/var/folders/lx/hc4sn_b53233_zkc9xbbl97r0000gp/T//ccoa1yNG.s:5860   shellCommand:0000000000000000 shellCommandclear
/var/folders/lx/hc4sn_b53233_zkc9xbbl97r0000gp/T//ccoa1yNG.s:5812   .rodata.shellDescclear:0000000000000000 shellDescclear
/var/folders/lx/hc4sn_b53233_zkc9xbbl97r0000gp/T//ccoa1yNG.s:5704   .rodata.shellCmdclear:0000000000000000 shellCmdclear
/var/folders/lx/hc4sn_b53233_zkc9xbbl97r0000gp/T//ccoa1yNG.s:5867   shellCommand:0000000000000010 shellCommandkeys
/var/folders/lx/hc4sn_b53233_zkc9xbbl97r0000gp/T//ccoa1yNG.s:5830   .rodata.shellDesckeys:0000000000000000 shellDesckeys
/var/folders/lx/hc4sn_b53233_zkc9xbbl97r0000gp/T//ccoa1yNG.s:5722   .rodata.shellCmdkeys:0000000000000000 shellCmdkeys
/var/folders/lx/hc4sn_b53233_zkc9xbbl97r0000gp/T//ccoa1yNG.s:5874   shellCommand:0000000000000020 shellCommandvars
/var/folders/lx/hc4sn_b53233_zkc9xbbl97r0000gp/T//ccoa1yNG.s:5848   .rodata.shellDescvars:0000000000000000 shellDescvars
ARM GAS  /var/folders/lx/hc4sn_b53233_zkc9xbbl97r0000gp/T//ccoa1yNG.s 			page 166


/var/folders/lx/hc4sn_b53233_zkc9xbbl97r0000gp/T//ccoa1yNG.s:5740   .rodata.shellCmdvars:0000000000000000 shellCmdvars
/var/folders/lx/hc4sn_b53233_zkc9xbbl97r0000gp/T//ccoa1yNG.s:5881   shellCommand:0000000000000030 shellCommandcmds
/var/folders/lx/hc4sn_b53233_zkc9xbbl97r0000gp/T//ccoa1yNG.s:5818   .rodata.shellDesccmds:0000000000000000 shellDesccmds
/var/folders/lx/hc4sn_b53233_zkc9xbbl97r0000gp/T//ccoa1yNG.s:5710   .rodata.shellCmdcmds:0000000000000000 shellCmdcmds
/var/folders/lx/hc4sn_b53233_zkc9xbbl97r0000gp/T//ccoa1yNG.s:5888   shellCommand:0000000000000040 shellCommandusers
/var/folders/lx/hc4sn_b53233_zkc9xbbl97r0000gp/T//ccoa1yNG.s:5842   .rodata.shellDescusers:0000000000000000 shellDescusers
/var/folders/lx/hc4sn_b53233_zkc9xbbl97r0000gp/T//ccoa1yNG.s:5734   .rodata.shellCmdusers:0000000000000000 shellCmdusers
/var/folders/lx/hc4sn_b53233_zkc9xbbl97r0000gp/T//ccoa1yNG.s:5895   shellCommand:0000000000000050 shellCommandhelp
/var/folders/lx/hc4sn_b53233_zkc9xbbl97r0000gp/T//ccoa1yNG.s:5824   .rodata.shellDeschelp:0000000000000000 shellDeschelp
/var/folders/lx/hc4sn_b53233_zkc9xbbl97r0000gp/T//ccoa1yNG.s:5716   .rodata.shellCmdhelp:0000000000000000 shellCmdhelp
/var/folders/lx/hc4sn_b53233_zkc9xbbl97r0000gp/T//ccoa1yNG.s:5902   shellCommand:0000000000000060 shellKey0x0D000000
/var/folders/lx/hc4sn_b53233_zkc9xbbl97r0000gp/T//ccoa1yNG.s:5770   .rodata.shellDesc0x0D000000:0000000000000000 shellDesc0x0D000000
/var/folders/lx/hc4sn_b53233_zkc9xbbl97r0000gp/T//ccoa1yNG.s:5909   shellCommand:0000000000000070 shellKey0x0A000000
/var/folders/lx/hc4sn_b53233_zkc9xbbl97r0000gp/T//ccoa1yNG.s:5764   .rodata.shellDesc0x0A000000:0000000000000000 shellDesc0x0A000000
/var/folders/lx/hc4sn_b53233_zkc9xbbl97r0000gp/T//ccoa1yNG.s:5916   shellCommand:0000000000000080 shellKey0x1B5B337E
/var/folders/lx/hc4sn_b53233_zkc9xbbl97r0000gp/T//ccoa1yNG.s:5776   .rodata.shellDesc0x1B5B337E:0000000000000000 shellDesc0x1B5B337E
/var/folders/lx/hc4sn_b53233_zkc9xbbl97r0000gp/T//ccoa1yNG.s:5923   shellCommand:0000000000000090 shellKey0x7F000000
/var/folders/lx/hc4sn_b53233_zkc9xbbl97r0000gp/T//ccoa1yNG.s:5806   .rodata.shellDesc0x7F000000:0000000000000000 shellDesc0x7F000000
/var/folders/lx/hc4sn_b53233_zkc9xbbl97r0000gp/T//ccoa1yNG.s:5930   shellCommand:00000000000000a0 shellKey0x08000000
/var/folders/lx/hc4sn_b53233_zkc9xbbl97r0000gp/T//ccoa1yNG.s:5752   .rodata.shellDesc0x08000000:0000000000000000 shellDesc0x08000000
/var/folders/lx/hc4sn_b53233_zkc9xbbl97r0000gp/T//ccoa1yNG.s:5937   shellCommand:00000000000000b0 shellKey0x09000000
/var/folders/lx/hc4sn_b53233_zkc9xbbl97r0000gp/T//ccoa1yNG.s:5758   .rodata.shellDesc0x09000000:0000000000000000 shellDesc0x09000000
/var/folders/lx/hc4sn_b53233_zkc9xbbl97r0000gp/T//ccoa1yNG.s:5944   shellCommand:00000000000000c0 shellKey0x1B5B4400
/var/folders/lx/hc4sn_b53233_zkc9xbbl97r0000gp/T//ccoa1yNG.s:5800   .rodata.shellDesc0x1B5B4400:0000000000000000 shellDesc0x1B5B4400
/var/folders/lx/hc4sn_b53233_zkc9xbbl97r0000gp/T//ccoa1yNG.s:5951   shellCommand:00000000000000d0 shellKey0x1B5B4300
/var/folders/lx/hc4sn_b53233_zkc9xbbl97r0000gp/T//ccoa1yNG.s:5794   .rodata.shellDesc0x1B5B4300:0000000000000000 shellDesc0x1B5B4300
/var/folders/lx/hc4sn_b53233_zkc9xbbl97r0000gp/T//ccoa1yNG.s:5958   shellCommand:00000000000000e0 shellKey0x1B5B4200
/var/folders/lx/hc4sn_b53233_zkc9xbbl97r0000gp/T//ccoa1yNG.s:5788   .rodata.shellDesc0x1B5B4200:0000000000000000 shellDesc0x1B5B4200
/var/folders/lx/hc4sn_b53233_zkc9xbbl97r0000gp/T//ccoa1yNG.s:5965   shellCommand:00000000000000f0 shellKey0x1B5B4100
/var/folders/lx/hc4sn_b53233_zkc9xbbl97r0000gp/T//ccoa1yNG.s:5782   .rodata.shellDesc0x1B5B4100:0000000000000000 shellDesc0x1B5B4100
/var/folders/lx/hc4sn_b53233_zkc9xbbl97r0000gp/T//ccoa1yNG.s:5972   shellCommand:0000000000000100 shellCommandsetVar
/var/folders/lx/hc4sn_b53233_zkc9xbbl97r0000gp/T//ccoa1yNG.s:5836   .rodata.shellDescsetVar:0000000000000000 shellDescsetVar
/var/folders/lx/hc4sn_b53233_zkc9xbbl97r0000gp/T//ccoa1yNG.s:5728   .rodata.shellCmdsetVar:0000000000000000 shellCmdsetVar
/var/folders/lx/hc4sn_b53233_zkc9xbbl97r0000gp/T//ccoa1yNG.s:5979   shellCommand:0000000000000110 shellUserDefault
/var/folders/lx/hc4sn_b53233_zkc9xbbl97r0000gp/T//ccoa1yNG.s:5746   .rodata.shellDesDefaultUser:0000000000000000 shellDesDefaultUser
/var/folders/lx/hc4sn_b53233_zkc9xbbl97r0000gp/T//ccoa1yNG.s:5854   .rodata.shellPasswordDefaultUser:0000000000000000 shellPasswordDefaultUser
/var/folders/lx/hc4sn_b53233_zkc9xbbl97r0000gp/T//ccoa1yNG.s:5698   .rodata.shellCmdDefaultUser:0000000000000000 shellCmdDefaultUser
/var/folders/lx/hc4sn_b53233_zkc9xbbl97r0000gp/T//ccoa1yNG.s:5681   .bss.buffer.0:0000000000000000 $d
/var/folders/lx/hc4sn_b53233_zkc9xbbl97r0000gp/T//ccoa1yNG.s:5685   .bss.buffer.0:0000000000000000 buffer.0
/var/folders/lx/hc4sn_b53233_zkc9xbbl97r0000gp/T//ccoa1yNG.s:5688   .bss.shellList:0000000000000000 $d
/var/folders/lx/hc4sn_b53233_zkc9xbbl97r0000gp/T//ccoa1yNG.s:5692   .bss.shellList:0000000000000000 shellList
/var/folders/lx/hc4sn_b53233_zkc9xbbl97r0000gp/T//ccoa1yNG.s:5695   .rodata.shellCmdDefaultUser:0000000000000000 $d
/var/folders/lx/hc4sn_b53233_zkc9xbbl97r0000gp/T//ccoa1yNG.s:5701   .rodata.shellCmdclear:0000000000000000 $d
/var/folders/lx/hc4sn_b53233_zkc9xbbl97r0000gp/T//ccoa1yNG.s:5707   .rodata.shellCmdcmds:0000000000000000 $d
/var/folders/lx/hc4sn_b53233_zkc9xbbl97r0000gp/T//ccoa1yNG.s:5713   .rodata.shellCmdhelp:0000000000000000 $d
/var/folders/lx/hc4sn_b53233_zkc9xbbl97r0000gp/T//ccoa1yNG.s:5719   .rodata.shellCmdkeys:0000000000000000 $d
/var/folders/lx/hc4sn_b53233_zkc9xbbl97r0000gp/T//ccoa1yNG.s:5725   .rodata.shellCmdsetVar:0000000000000000 $d
/var/folders/lx/hc4sn_b53233_zkc9xbbl97r0000gp/T//ccoa1yNG.s:5731   .rodata.shellCmdusers:0000000000000000 $d
/var/folders/lx/hc4sn_b53233_zkc9xbbl97r0000gp/T//ccoa1yNG.s:5737   .rodata.shellCmdvars:0000000000000000 $d
/var/folders/lx/hc4sn_b53233_zkc9xbbl97r0000gp/T//ccoa1yNG.s:5743   .rodata.shellDesDefaultUser:0000000000000000 $d
/var/folders/lx/hc4sn_b53233_zkc9xbbl97r0000gp/T//ccoa1yNG.s:5749   .rodata.shellDesc0x08000000:0000000000000000 $d
/var/folders/lx/hc4sn_b53233_zkc9xbbl97r0000gp/T//ccoa1yNG.s:5755   .rodata.shellDesc0x09000000:0000000000000000 $d
/var/folders/lx/hc4sn_b53233_zkc9xbbl97r0000gp/T//ccoa1yNG.s:5761   .rodata.shellDesc0x0A000000:0000000000000000 $d
/var/folders/lx/hc4sn_b53233_zkc9xbbl97r0000gp/T//ccoa1yNG.s:5767   .rodata.shellDesc0x0D000000:0000000000000000 $d
/var/folders/lx/hc4sn_b53233_zkc9xbbl97r0000gp/T//ccoa1yNG.s:5773   .rodata.shellDesc0x1B5B337E:0000000000000000 $d
/var/folders/lx/hc4sn_b53233_zkc9xbbl97r0000gp/T//ccoa1yNG.s:5779   .rodata.shellDesc0x1B5B4100:0000000000000000 $d
/var/folders/lx/hc4sn_b53233_zkc9xbbl97r0000gp/T//ccoa1yNG.s:5785   .rodata.shellDesc0x1B5B4200:0000000000000000 $d
ARM GAS  /var/folders/lx/hc4sn_b53233_zkc9xbbl97r0000gp/T//ccoa1yNG.s 			page 167


/var/folders/lx/hc4sn_b53233_zkc9xbbl97r0000gp/T//ccoa1yNG.s:5791   .rodata.shellDesc0x1B5B4300:0000000000000000 $d
/var/folders/lx/hc4sn_b53233_zkc9xbbl97r0000gp/T//ccoa1yNG.s:5797   .rodata.shellDesc0x1B5B4400:0000000000000000 $d
/var/folders/lx/hc4sn_b53233_zkc9xbbl97r0000gp/T//ccoa1yNG.s:5803   .rodata.shellDesc0x7F000000:0000000000000000 $d
/var/folders/lx/hc4sn_b53233_zkc9xbbl97r0000gp/T//ccoa1yNG.s:5809   .rodata.shellDescclear:0000000000000000 $d
/var/folders/lx/hc4sn_b53233_zkc9xbbl97r0000gp/T//ccoa1yNG.s:5815   .rodata.shellDesccmds:0000000000000000 $d
/var/folders/lx/hc4sn_b53233_zkc9xbbl97r0000gp/T//ccoa1yNG.s:5821   .rodata.shellDeschelp:0000000000000000 $d
/var/folders/lx/hc4sn_b53233_zkc9xbbl97r0000gp/T//ccoa1yNG.s:5827   .rodata.shellDesckeys:0000000000000000 $d
/var/folders/lx/hc4sn_b53233_zkc9xbbl97r0000gp/T//ccoa1yNG.s:5833   .rodata.shellDescsetVar:0000000000000000 $d
/var/folders/lx/hc4sn_b53233_zkc9xbbl97r0000gp/T//ccoa1yNG.s:5839   .rodata.shellDescusers:0000000000000000 $d
/var/folders/lx/hc4sn_b53233_zkc9xbbl97r0000gp/T//ccoa1yNG.s:5845   .rodata.shellDescvars:0000000000000000 $d
/var/folders/lx/hc4sn_b53233_zkc9xbbl97r0000gp/T//ccoa1yNG.s:5851   .rodata.shellPasswordDefaultUser:0000000000000000 $d
/var/folders/lx/hc4sn_b53233_zkc9xbbl97r0000gp/T//ccoa1yNG.s:5857   shellCommand:0000000000000000 $d

UNDEFINED SYMBOLS
strcmp
delay_us
strlen
vsnprintf
vsscanf
strncmp
_shell_command_start
_shell_command_end
shellExtRun
