ARM GAS  /var/folders/lx/hc4sn_b53233_zkc9xbbl97r0000gp/T//ccK5P7Jb.s 			page 1


   1              		.cpu cortex-m4
   2              		.eabi_attribute 27, 1
   3              		.eabi_attribute 28, 1
   4              		.eabi_attribute 20, 1
   5              		.eabi_attribute 21, 1
   6              		.eabi_attribute 23, 3
   7              		.eabi_attribute 24, 1
   8              		.eabi_attribute 25, 1
   9              		.eabi_attribute 26, 1
  10              		.eabi_attribute 30, 1
  11              		.eabi_attribute 34, 1
  12              		.eabi_attribute 18, 4
  13              		.file	"shell.c"
  14              		.text
  15              	.Ltext0:
  16              		.cfi_sections	.debug_frame
  17              		.section	.text.shellAdd,"ax",%progbits
  18              		.align	1
  19              		.arch armv7e-m
  20              		.syntax unified
  21              		.thumb
  22              		.thumb_func
  23              		.fpu fpv4-sp-d16
  25              	shellAdd:
  26              	.LVL0:
  27              	.LFB127:
  28              		.file 1 "SYS/shell/shell.c"
   1:SYS/shell/shell.c **** /**
   2:SYS/shell/shell.c ****  * @file shell.c
   3:SYS/shell/shell.c ****  * @author Letter (NevermindZZT@gmail.com)
   4:SYS/shell/shell.c ****  * @version 3.0.0
   5:SYS/shell/shell.c ****  * @date 2019-12-30
   6:SYS/shell/shell.c ****  * 
   7:SYS/shell/shell.c ****  * @copyright (c) 2020 Letter
   8:SYS/shell/shell.c ****  * 
   9:SYS/shell/shell.c ****  */
  10:SYS/shell/shell.c **** 
  11:SYS/shell/shell.c **** #include "shell.h"
  12:SYS/shell/shell.c **** #include "string.h"
  13:SYS/shell/shell.c **** #include "stdio.h"
  14:SYS/shell/shell.c **** #include "stdarg.h"
  15:SYS/shell/shell.c **** #include "shell_ext.h"
  16:SYS/shell/shell.c **** #include "stm32f4xx_usart.h"
  17:SYS/shell/shell.c **** #include "task_manager_cfg.h"
  18:SYS/shell/shell.c **** 
  19:SYS/shell/shell.c **** #if SHELL_USING_CMD_EXPORT == 1
  20:SYS/shell/shell.c **** /**
  21:SYS/shell/shell.c ****  * @brief 默认用户
  22:SYS/shell/shell.c ****  */
  23:SYS/shell/shell.c **** const char shellCmdDefaultUser[] = SHELL_DEFAULT_USER;
  24:SYS/shell/shell.c **** const char shellPasswordDefaultUser[] = SHELL_DEFAULT_USER_PASSWORD;
  25:SYS/shell/shell.c **** const char shellDesDefaultUser[] = "default user";
  26:SYS/shell/shell.c **** const ShellCommand shellUserDefault SECTION("shellCommand") =
  27:SYS/shell/shell.c ****     {
  28:SYS/shell/shell.c ****         .attr.value = SHELL_CMD_PERMISSION(0) | SHELL_CMD_TYPE(SHELL_TYPE_USER),
  29:SYS/shell/shell.c ****         .data.user.name = shellCmdDefaultUser,
  30:SYS/shell/shell.c ****         .data.user.password = shellPasswordDefaultUser,
ARM GAS  /var/folders/lx/hc4sn_b53233_zkc9xbbl97r0000gp/T//ccK5P7Jb.s 			page 2


  31:SYS/shell/shell.c ****         .data.user.desc = shellDesDefaultUser};
  32:SYS/shell/shell.c **** #endif
  33:SYS/shell/shell.c **** 
  34:SYS/shell/shell.c **** #if SHELL_USING_CMD_EXPORT == 1
  35:SYS/shell/shell.c **** #if defined(__CC_ARM) || (defined(__ARMCC_VERSION) && __ARMCC_VERSION >= 6000000)
  36:SYS/shell/shell.c **** extern const unsigned int shellCommand$$Base;
  37:SYS/shell/shell.c **** extern const unsigned int shellCommand$$Limit;
  38:SYS/shell/shell.c **** #elif defined(__ICCARM__) || defined(__ICCRX__)
  39:SYS/shell/shell.c **** #pragma section = "shellCommand"
  40:SYS/shell/shell.c **** #elif defined(__GNUC__)
  41:SYS/shell/shell.c **** extern const unsigned int _shell_command_start;
  42:SYS/shell/shell.c **** extern const unsigned int _shell_command_end;
  43:SYS/shell/shell.c **** #endif
  44:SYS/shell/shell.c **** #else
  45:SYS/shell/shell.c **** extern const ShellCommand shellCommandList[];
  46:SYS/shell/shell.c **** extern const unsigned short shellCommandCount;
  47:SYS/shell/shell.c **** #endif
  48:SYS/shell/shell.c **** 
  49:SYS/shell/shell.c **** /**
  50:SYS/shell/shell.c ****  * @brief shell 常量文本索引
  51:SYS/shell/shell.c ****  */
  52:SYS/shell/shell.c **** enum
  53:SYS/shell/shell.c **** {
  54:SYS/shell/shell.c **** #if SHELL_SHOW_INFO == 1
  55:SYS/shell/shell.c ****     SHELL_TEXT_INFO, /**< shell信息 */
  56:SYS/shell/shell.c **** #endif
  57:SYS/shell/shell.c ****     SHELL_TEXT_CMD_TOO_LONG,                /**< 命令过长 */
  58:SYS/shell/shell.c ****     SHELL_TEXT_CMD_LIST,                    /**< 可执行命令列表标题 */
  59:SYS/shell/shell.c ****     SHELL_TEXT_VAR_LIST,                    /**< 变量列表标题 */
  60:SYS/shell/shell.c ****     SHELL_TEXT_USER_LIST,                   /**< 用户列表标题 */
  61:SYS/shell/shell.c ****     SHELL_TEXT_KEY_LIST,                    /**< 按键列表标题 */
  62:SYS/shell/shell.c ****     SHELL_TEXT_CMD_NOT_FOUND,               /**< 命令未找到 */
  63:SYS/shell/shell.c ****     SHELL_TEXT_POINT_CANNOT_MODIFY,         /**< 指针变量不允许修改 */
  64:SYS/shell/shell.c ****     SHELL_TEXT_VAR_READ_ONLY_CANNOT_MODIFY, /**< 只读变量不允许修改 */
  65:SYS/shell/shell.c ****     SHELL_TEXT_NOT_VAR,                     /**< 命令不是变量 */
  66:SYS/shell/shell.c ****     SHELL_TEXT_VAR_NOT_FOUND,               /**< 变量未找到 */
  67:SYS/shell/shell.c ****     SHELL_TEXT_HELP_HEADER,                 /**< help头 */
  68:SYS/shell/shell.c ****     SHELL_TEXT_PASSWORD_HINT,               /**< 密码输入提示 */
  69:SYS/shell/shell.c ****     SHELL_TEXT_PASSWORD_ERROR,              /**< 密码错误 */
  70:SYS/shell/shell.c ****     SHELL_TEXT_CLEAR_CONSOLE,               /**< 清空控制台 */
  71:SYS/shell/shell.c ****     SHELL_TEXT_CLEAR_LINE,                  /**< 清空当前行 */
  72:SYS/shell/shell.c ****     SHELL_TEXT_TYPE_CMD,                    /**< 命令类型 */
  73:SYS/shell/shell.c ****     SHELL_TEXT_TYPE_VAR,                    /**< 变量类型 */
  74:SYS/shell/shell.c ****     SHELL_TEXT_TYPE_USER,                   /**< 用户类型 */
  75:SYS/shell/shell.c ****     SHELL_TEXT_TYPE_KEY,                    /**< 按键类型 */
  76:SYS/shell/shell.c ****     SHELL_TEXT_TYPE_NONE,                   /**< 非法类型 */
  77:SYS/shell/shell.c **** #if SHELL_EXEC_UNDEF_FUNC == 1
  78:SYS/shell/shell.c ****     SHELL_TEXT_PARAM_ERROR, /**< 参数错误 */
  79:SYS/shell/shell.c **** #endif
  80:SYS/shell/shell.c **** };
  81:SYS/shell/shell.c **** 
  82:SYS/shell/shell.c **** static const char *shellText[] =
  83:SYS/shell/shell.c ****     {
  84:SYS/shell/shell.c **** #if SHELL_SHOW_INFO == 1
  85:SYS/shell/shell.c ****         [SHELL_TEXT_INFO] =
  86:SYS/shell/shell.c ****             "\r\n\r\n"
  87:SYS/shell/shell.c ****             "/************  BitRtos  ************\\r\n\r\n"
ARM GAS  /var/folders/lx/hc4sn_b53233_zkc9xbbl97r0000gp/T//ccK5P7Jb.s 			page 3


  88:SYS/shell/shell.c ****             "Team Mate:        8_B!T0\r\n"
  89:SYS/shell/shell.c ****             "                  WHY\r\n"
  90:SYS/shell/shell.c ****             "\r\n"
  91:SYS/shell/shell.c ****             "Build:            "__DATE__
  92:SYS/shell/shell.c ****             " "__TIME__
  93:SYS/shell/shell.c ****             "\r\n"
  94:SYS/shell/shell.c ****             "Shell   Version:  " SHELL_VERSION "\r\n"
  95:SYS/shell/shell.c ****             "BitRtos Version:  " RTOS_VERSION "\r\n",
  96:SYS/shell/shell.c **** #endif
  97:SYS/shell/shell.c ****         [SHELL_TEXT_CMD_TOO_LONG] =
  98:SYS/shell/shell.c ****             "\r\nWarning: Command is too long\r\n",
  99:SYS/shell/shell.c ****         [SHELL_TEXT_CMD_LIST] =
 100:SYS/shell/shell.c ****             "\r\nCommand List:\r\n",
 101:SYS/shell/shell.c ****         [SHELL_TEXT_VAR_LIST] =
 102:SYS/shell/shell.c ****             "\r\nVar List:\r\n",
 103:SYS/shell/shell.c ****         [SHELL_TEXT_USER_LIST] =
 104:SYS/shell/shell.c ****             "\r\nUser List:\r\n",
 105:SYS/shell/shell.c ****         [SHELL_TEXT_KEY_LIST] =
 106:SYS/shell/shell.c ****             "\r\nKey List:\r\n",
 107:SYS/shell/shell.c ****         [SHELL_TEXT_CMD_NOT_FOUND] =
 108:SYS/shell/shell.c ****             "Command not Found\r\n",
 109:SYS/shell/shell.c ****         [SHELL_TEXT_POINT_CANNOT_MODIFY] =
 110:SYS/shell/shell.c ****             "can't set pointer\r\n",
 111:SYS/shell/shell.c ****         [SHELL_TEXT_VAR_READ_ONLY_CANNOT_MODIFY] =
 112:SYS/shell/shell.c ****             "can't set read only var\r\n",
 113:SYS/shell/shell.c ****         [SHELL_TEXT_NOT_VAR] =
 114:SYS/shell/shell.c ****             " is not a var\r\n",
 115:SYS/shell/shell.c ****         [SHELL_TEXT_VAR_NOT_FOUND] =
 116:SYS/shell/shell.c ****             "Var not Fount\r\n",
 117:SYS/shell/shell.c ****         [SHELL_TEXT_HELP_HEADER] =
 118:SYS/shell/shell.c ****             "command help of ",
 119:SYS/shell/shell.c ****         [SHELL_TEXT_PASSWORD_HINT] =
 120:SYS/shell/shell.c ****             "\r\nPlease input password:",
 121:SYS/shell/shell.c ****         [SHELL_TEXT_PASSWORD_ERROR] =
 122:SYS/shell/shell.c ****             "\r\npassword error\r\n",
 123:SYS/shell/shell.c ****         [SHELL_TEXT_CLEAR_CONSOLE] =
 124:SYS/shell/shell.c ****             "\033[2J\033[1H",
 125:SYS/shell/shell.c ****         [SHELL_TEXT_CLEAR_LINE] =
 126:SYS/shell/shell.c ****             "\033[2K\r",
 127:SYS/shell/shell.c ****         [SHELL_TEXT_TYPE_CMD] =
 128:SYS/shell/shell.c ****             "CMD \r\n",
 129:SYS/shell/shell.c ****         [SHELL_TEXT_TYPE_VAR] =
 130:SYS/shell/shell.c ****             "VAR",
 131:SYS/shell/shell.c ****         [SHELL_TEXT_TYPE_USER] =
 132:SYS/shell/shell.c ****             "USER",
 133:SYS/shell/shell.c ****         [SHELL_TEXT_TYPE_KEY] =
 134:SYS/shell/shell.c ****             "KEY",
 135:SYS/shell/shell.c ****         [SHELL_TEXT_TYPE_NONE] =
 136:SYS/shell/shell.c ****             "NONE",
 137:SYS/shell/shell.c **** #if SHELL_EXEC_UNDEF_FUNC == 1
 138:SYS/shell/shell.c ****         [SHELL_TEXT_PARAM_ERROR] =
 139:SYS/shell/shell.c ****             "Parameter error\r\n",
 140:SYS/shell/shell.c **** #endif
 141:SYS/shell/shell.c **** };
 142:SYS/shell/shell.c **** 
 143:SYS/shell/shell.c **** /**
 144:SYS/shell/shell.c ****  * @brief shell对象表
ARM GAS  /var/folders/lx/hc4sn_b53233_zkc9xbbl97r0000gp/T//ccK5P7Jb.s 			page 4


 145:SYS/shell/shell.c ****  */
 146:SYS/shell/shell.c **** static Shell *shellList[SHELL_MAX_NUMBER] = {NULL};
 147:SYS/shell/shell.c **** 
 148:SYS/shell/shell.c **** static void shellAdd(Shell *shell);
 149:SYS/shell/shell.c **** static void shellWriteCommandLine(Shell *shell, unsigned char newline);
 150:SYS/shell/shell.c **** static void shellWriteReturnValue(Shell *shell, int value);
 151:SYS/shell/shell.c **** static int shellShowVar(Shell *shell, ShellCommand *command);
 152:SYS/shell/shell.c **** static void shellSetUser(Shell *shell, const ShellCommand *user);
 153:SYS/shell/shell.c **** ShellCommand *shellSeekCommand(Shell *shell,
 154:SYS/shell/shell.c ****                                const char *cmd,
 155:SYS/shell/shell.c ****                                ShellCommand *base,
 156:SYS/shell/shell.c ****                                unsigned short compareLength);
 157:SYS/shell/shell.c **** 
 158:SYS/shell/shell.c **** /**
 159:SYS/shell/shell.c ****  * @brief shell 初始化
 160:SYS/shell/shell.c ****  * 
 161:SYS/shell/shell.c ****  * @param shell shell对象
 162:SYS/shell/shell.c ****  */
 163:SYS/shell/shell.c **** void shellInit(Shell *shell, char *buffer, unsigned short size)
 164:SYS/shell/shell.c **** {
 165:SYS/shell/shell.c ****     __asm("cpsid i");
 166:SYS/shell/shell.c ****     shell->parser.length = 0;
 167:SYS/shell/shell.c ****     shell->parser.cursor = 0;
 168:SYS/shell/shell.c ****     shell->history.offset = 0;
 169:SYS/shell/shell.c ****     shell->history.number = 0;
 170:SYS/shell/shell.c ****     shell->history.record = 0;
 171:SYS/shell/shell.c ****     shell->info.user = NULL;
 172:SYS/shell/shell.c ****     shell->status.isChecked = 1;
 173:SYS/shell/shell.c **** 
 174:SYS/shell/shell.c ****     shell->parser.buffer = buffer;
 175:SYS/shell/shell.c ****     shell->parser.bufferSize = size / (SHELL_HISTORY_MAX_NUMBER + 1);
 176:SYS/shell/shell.c ****     for (short i = 0; i < SHELL_HISTORY_MAX_NUMBER; i++)
 177:SYS/shell/shell.c ****     {
 178:SYS/shell/shell.c ****         shell->history.item[i] = buffer + shell->parser.bufferSize * (i + 1);
 179:SYS/shell/shell.c ****     }
 180:SYS/shell/shell.c **** 
 181:SYS/shell/shell.c **** #if SHELL_USING_CMD_EXPORT == 1
 182:SYS/shell/shell.c **** #if defined(__CC_ARM) || (defined(__ARMCC_VERSION) && __ARMCC_VERSION >= 6000000)
 183:SYS/shell/shell.c ****     shell->commandList.base = (ShellCommand *)(&shellCommand$$Base);
 184:SYS/shell/shell.c ****     shell->commandList.count = ((unsigned int)(&shellCommand$$Limit) - (unsigned int)(&shellCommand
 185:SYS/shell/shell.c **** 
 186:SYS/shell/shell.c **** #elif defined(__ICCARM__) || defined(__ICCRX__)
 187:SYS/shell/shell.c ****     shell->commandList.base = (ShellCommand *)(__section_begin("shellCommand"));
 188:SYS/shell/shell.c ****     shell->commandList.count = ((unsigned int)(__section_end("shellCommand")) - (unsigned int)(__se
 189:SYS/shell/shell.c **** #elif defined(__GNUC__)
 190:SYS/shell/shell.c ****     shell->commandList.base = (ShellCommand *)(&_shell_command_start);
 191:SYS/shell/shell.c ****     shell->commandList.count = ((unsigned int)(&_shell_command_end) - (unsigned int)(&_shell_comman
 192:SYS/shell/shell.c **** #else
 193:SYS/shell/shell.c **** #error not supported compiler, please use command table mode
 194:SYS/shell/shell.c **** #endif
 195:SYS/shell/shell.c **** #else
 196:SYS/shell/shell.c ****     shell->commandList.base = (ShellCommand *)shellCommandList;
 197:SYS/shell/shell.c ****     shell->commandList.count = shellCommandCount;
 198:SYS/shell/shell.c **** #endif
 199:SYS/shell/shell.c **** 
 200:SYS/shell/shell.c ****     shellAdd(shell);
 201:SYS/shell/shell.c **** 
ARM GAS  /var/folders/lx/hc4sn_b53233_zkc9xbbl97r0000gp/T//ccK5P7Jb.s 			page 5


 202:SYS/shell/shell.c ****     shellSetUser(shell, shellSeekCommand(shell,
 203:SYS/shell/shell.c ****                                          SHELL_DEFAULT_USER,
 204:SYS/shell/shell.c ****                                          shell->commandList.base,
 205:SYS/shell/shell.c ****                                          0));
 206:SYS/shell/shell.c ****     shellWriteCommandLine(shell, 1);
 207:SYS/shell/shell.c ****     __asm("cpsie i");
 208:SYS/shell/shell.c **** }
 209:SYS/shell/shell.c **** 
 210:SYS/shell/shell.c **** /**
 211:SYS/shell/shell.c ****  * @brief 添加shell
 212:SYS/shell/shell.c ****  * 
 213:SYS/shell/shell.c ****  * @param shell shell对象
 214:SYS/shell/shell.c ****  */
 215:SYS/shell/shell.c **** static void shellAdd(Shell *shell)
 216:SYS/shell/shell.c **** {
  29              		.loc 1 216 1 view -0
  30              		.cfi_startproc
  31              		@ args = 0, pretend = 0, frame = 0
  32              		@ frame_needed = 0, uses_anonymous_args = 0
  33              		@ link register save eliminated.
 217:SYS/shell/shell.c ****     for (short i = 0; i < SHELL_MAX_NUMBER; i++)
  34              		.loc 1 217 5 view .LVU1
  35              	.LBB2:
  36              		.loc 1 217 10 view .LVU2
  37              		.loc 1 217 16 is_stmt 0 view .LVU3
  38 0000 0023     		movs	r3, #0
  39              	.LVL1:
  40              	.L2:
  41              		.loc 1 217 23 is_stmt 1 discriminator 1 view .LVU4
  42              		.loc 1 217 5 is_stmt 0 discriminator 1 view .LVU5
  43 0002 042B     		cmp	r3, #4
  44 0004 0BDC     		bgt	.L6
 218:SYS/shell/shell.c ****     {
 219:SYS/shell/shell.c ****         if (shellList[i] == NULL)
  45              		.loc 1 219 9 is_stmt 1 view .LVU6
  46              		.loc 1 219 22 is_stmt 0 view .LVU7
  47 0006 1946     		mov	r1, r3
  48 0008 054A     		ldr	r2, .L8
  49 000a 52F82320 		ldr	r2, [r2, r3, lsl #2]
  50              		.loc 1 219 12 view .LVU8
  51 000e 12B1     		cbz	r2, .L7
 217:SYS/shell/shell.c ****     for (short i = 0; i < SHELL_MAX_NUMBER; i++)
  52              		.loc 1 217 45 is_stmt 1 discriminator 2 view .LVU9
 217:SYS/shell/shell.c ****     for (short i = 0; i < SHELL_MAX_NUMBER; i++)
  53              		.loc 1 217 46 is_stmt 0 discriminator 2 view .LVU10
  54 0010 0133     		adds	r3, r3, #1
  55              	.LVL2:
 217:SYS/shell/shell.c ****     for (short i = 0; i < SHELL_MAX_NUMBER; i++)
  56              		.loc 1 217 46 discriminator 2 view .LVU11
  57 0012 1BB2     		sxth	r3, r3
  58              	.LVL3:
 217:SYS/shell/shell.c ****     for (short i = 0; i < SHELL_MAX_NUMBER; i++)
  59              		.loc 1 217 46 discriminator 2 view .LVU12
  60 0014 F5E7     		b	.L2
  61              	.L7:
 220:SYS/shell/shell.c ****         {
 221:SYS/shell/shell.c ****             shellList[i] = shell;
ARM GAS  /var/folders/lx/hc4sn_b53233_zkc9xbbl97r0000gp/T//ccK5P7Jb.s 			page 6


  62              		.loc 1 221 13 is_stmt 1 view .LVU13
  63              		.loc 1 221 26 is_stmt 0 view .LVU14
  64 0016 024B     		ldr	r3, .L8
  65              	.LVL4:
  66              		.loc 1 221 26 view .LVU15
  67 0018 43F82100 		str	r0, [r3, r1, lsl #2]
 222:SYS/shell/shell.c ****             return;
  68              		.loc 1 222 13 is_stmt 1 view .LVU16
  69 001c 7047     		bx	lr
  70              	.LVL5:
  71              	.L6:
  72              		.loc 1 222 13 is_stmt 0 view .LVU17
  73              	.LBE2:
 223:SYS/shell/shell.c ****         }
 224:SYS/shell/shell.c ****     }
 225:SYS/shell/shell.c **** }
  74              		.loc 1 225 1 view .LVU18
  75 001e 7047     		bx	lr
  76              	.L9:
  77              		.align	2
  78              	.L8:
  79 0020 00000000 		.word	.LANCHOR0
  80              		.cfi_endproc
  81              	.LFE127:
  83              		.section	.text.shellStringCopy,"ax",%progbits
  84              		.align	1
  85              		.syntax unified
  86              		.thumb
  87              		.thumb_func
  88              		.fpu fpv4-sp-d16
  90              	shellStringCopy:
  91              	.LVL6:
  92              	.LFB138:
 226:SYS/shell/shell.c **** 
 227:SYS/shell/shell.c **** /**
 228:SYS/shell/shell.c ****  * @brief 获取当前活动shell
 229:SYS/shell/shell.c ****  * 
 230:SYS/shell/shell.c ****  * @return Shell* 当前活动shell对象
 231:SYS/shell/shell.c ****  */
 232:SYS/shell/shell.c **** Shell *shellGetCurrent(void)
 233:SYS/shell/shell.c **** {
 234:SYS/shell/shell.c ****     for (short i = 0; i < SHELL_MAX_NUMBER; i++)
 235:SYS/shell/shell.c ****     {
 236:SYS/shell/shell.c ****         if (shellList[i] && shellList[i]->status.isActive)
 237:SYS/shell/shell.c ****         {
 238:SYS/shell/shell.c ****             return shellList[i];
 239:SYS/shell/shell.c ****         }
 240:SYS/shell/shell.c ****     }
 241:SYS/shell/shell.c ****     return NULL;
 242:SYS/shell/shell.c **** }
 243:SYS/shell/shell.c **** 
 244:SYS/shell/shell.c **** /**
 245:SYS/shell/shell.c ****  * @brief shell写字符
 246:SYS/shell/shell.c ****  * 
 247:SYS/shell/shell.c ****  * @param shell shell对象
 248:SYS/shell/shell.c ****  * @param data 字符数据
 249:SYS/shell/shell.c ****  */
ARM GAS  /var/folders/lx/hc4sn_b53233_zkc9xbbl97r0000gp/T//ccK5P7Jb.s 			page 7


 250:SYS/shell/shell.c **** void shellWriteByte(Shell *shell, const char data)
 251:SYS/shell/shell.c **** {
 252:SYS/shell/shell.c ****     shell->write(&data, sizeof(data));
 253:SYS/shell/shell.c **** }
 254:SYS/shell/shell.c **** 
 255:SYS/shell/shell.c **** /**
 256:SYS/shell/shell.c ****  * @brief shell 写字符串
 257:SYS/shell/shell.c ****  * 
 258:SYS/shell/shell.c ****  * @param shell shell对象
 259:SYS/shell/shell.c ****  * @param string 字符串数据
 260:SYS/shell/shell.c ****  * 
 261:SYS/shell/shell.c ****  * @return unsigned short 写入字符的数量
 262:SYS/shell/shell.c ****  */
 263:SYS/shell/shell.c **** unsigned short shellWriteString(Shell *shell, const char *string)
 264:SYS/shell/shell.c **** {
 265:SYS/shell/shell.c ****     unsigned short count = 0;
 266:SYS/shell/shell.c ****     SHELL_ASSERT(shell->write, return 0);
 267:SYS/shell/shell.c **** 
 268:SYS/shell/shell.c ****     shell->write(string, strlen(string));
 269:SYS/shell/shell.c ****     return count;
 270:SYS/shell/shell.c **** }
 271:SYS/shell/shell.c **** 
 272:SYS/shell/shell.c **** /**
 273:SYS/shell/shell.c ****  * @brief shell 写命令描述字符串
 274:SYS/shell/shell.c ****  * 
 275:SYS/shell/shell.c ****  * @param shell shell对象
 276:SYS/shell/shell.c ****  * @param string 字符串数据
 277:SYS/shell/shell.c ****  * 
 278:SYS/shell/shell.c ****  * @return unsigned short 写入字符的数量
 279:SYS/shell/shell.c ****  */
 280:SYS/shell/shell.c **** static unsigned short shellWriteCommandDesc(Shell *shell, const char *string)
 281:SYS/shell/shell.c **** {
 282:SYS/shell/shell.c ****     const char dot = '.';
 283:SYS/shell/shell.c ****     unsigned short count = 0;
 284:SYS/shell/shell.c ****     SHELL_ASSERT(shell->write, return 0);
 285:SYS/shell/shell.c ****     while (*string && *string != '\r' && *string != '\n' && count < 36)
 286:SYS/shell/shell.c ****     {
 287:SYS/shell/shell.c ****         shell->write(*string++, 1);
 288:SYS/shell/shell.c ****         count++;
 289:SYS/shell/shell.c ****         if (count >= 36 && *(string + 1))
 290:SYS/shell/shell.c ****         {
 291:SYS/shell/shell.c ****             shell->write(&dot, sizeof(dot));
 292:SYS/shell/shell.c ****             shell->write(&dot, sizeof(dot));
 293:SYS/shell/shell.c ****             shell->write(&dot, sizeof(dot));
 294:SYS/shell/shell.c ****         }
 295:SYS/shell/shell.c ****     }
 296:SYS/shell/shell.c ****     return count;
 297:SYS/shell/shell.c **** }
 298:SYS/shell/shell.c **** 
 299:SYS/shell/shell.c **** /**
 300:SYS/shell/shell.c ****  * @brief shell写命令提示符
 301:SYS/shell/shell.c ****  * 
 302:SYS/shell/shell.c ****  * @param shell shell对象
 303:SYS/shell/shell.c ****  * @param newline 新行
 304:SYS/shell/shell.c ****  * 
 305:SYS/shell/shell.c ****  */
 306:SYS/shell/shell.c **** static void shellWriteCommandLine(Shell *shell, unsigned char newline)
ARM GAS  /var/folders/lx/hc4sn_b53233_zkc9xbbl97r0000gp/T//ccK5P7Jb.s 			page 8


 307:SYS/shell/shell.c **** {
 308:SYS/shell/shell.c ****     if (shell->status.isChecked)
 309:SYS/shell/shell.c ****     {
 310:SYS/shell/shell.c ****         if (newline)
 311:SYS/shell/shell.c ****         {
 312:SYS/shell/shell.c ****             shellWriteString(shell, "\r\n");
 313:SYS/shell/shell.c ****         }
 314:SYS/shell/shell.c ****         shellWriteString(shell, shell->info.user->data.user.name);
 315:SYS/shell/shell.c ****         shellWriteString(shell, ":");
 316:SYS/shell/shell.c ****         shellWriteString(shell, shell->info.path ? shell->info.path : "/");
 317:SYS/shell/shell.c ****         shellWriteString(shell, "$ ");
 318:SYS/shell/shell.c ****     }
 319:SYS/shell/shell.c ****     else
 320:SYS/shell/shell.c ****     {
 321:SYS/shell/shell.c ****         shellWriteString(shell, shellText[SHELL_TEXT_PASSWORD_HINT]);
 322:SYS/shell/shell.c ****     }
 323:SYS/shell/shell.c **** }
 324:SYS/shell/shell.c **** 
 325:SYS/shell/shell.c **** #if SHELL_PRINT_BUFFER > 0
 326:SYS/shell/shell.c **** /**
 327:SYS/shell/shell.c ****  * @brief shell格式化输出
 328:SYS/shell/shell.c ****  * 
 329:SYS/shell/shell.c ****  * @param shell shell对象
 330:SYS/shell/shell.c ****  * @param fmt 格式化字符串
 331:SYS/shell/shell.c ****  * @param ... 参数
 332:SYS/shell/shell.c ****  */
 333:SYS/shell/shell.c **** void shellPrint(Shell *shell, char *fmt, ...)
 334:SYS/shell/shell.c **** {
 335:SYS/shell/shell.c ****     char buffer[SHELL_PRINT_BUFFER];
 336:SYS/shell/shell.c ****     va_list vargs;
 337:SYS/shell/shell.c **** 
 338:SYS/shell/shell.c ****     SHELL_ASSERT(shell, return );
 339:SYS/shell/shell.c **** 
 340:SYS/shell/shell.c ****     va_start(vargs, fmt);
 341:SYS/shell/shell.c ****     vsnprintf(buffer, SHELL_PRINT_BUFFER - 1, fmt, vargs);
 342:SYS/shell/shell.c ****     va_end(vargs);
 343:SYS/shell/shell.c **** 
 344:SYS/shell/shell.c ****     shellWriteString(shell, buffer);
 345:SYS/shell/shell.c **** }
 346:SYS/shell/shell.c **** #endif
 347:SYS/shell/shell.c **** 
 348:SYS/shell/shell.c **** #if SHELL_SCAN_BUFFER > 0
 349:SYS/shell/shell.c **** /**
 350:SYS/shell/shell.c ****  * @brief shell格式化输入
 351:SYS/shell/shell.c ****  * 
 352:SYS/shell/shell.c ****  * @param shell shell对象
 353:SYS/shell/shell.c ****  * @param fmt 格式化字符串
 354:SYS/shell/shell.c ****  * @param ... 参数
 355:SYS/shell/shell.c ****  */
 356:SYS/shell/shell.c **** void shellScan(Shell *shell, char *fmt, ...)
 357:SYS/shell/shell.c **** {
 358:SYS/shell/shell.c ****     char buffer[SHELL_SCAN_BUFFER];
 359:SYS/shell/shell.c ****     va_list vargs;
 360:SYS/shell/shell.c ****     short index = 0;
 361:SYS/shell/shell.c **** 
 362:SYS/shell/shell.c ****     SHELL_ASSERT(shell, return );
 363:SYS/shell/shell.c **** 
ARM GAS  /var/folders/lx/hc4sn_b53233_zkc9xbbl97r0000gp/T//ccK5P7Jb.s 			page 9


 364:SYS/shell/shell.c ****     if (shell->read)
 365:SYS/shell/shell.c ****     {
 366:SYS/shell/shell.c ****         do
 367:SYS/shell/shell.c ****         {
 368:SYS/shell/shell.c ****             if (shell->read(&buffer[index]) == 0)
 369:SYS/shell/shell.c ****             {
 370:SYS/shell/shell.c ****                 shell->write(&buffer[index], sizeof(buffer[index]));
 371:SYS/shell/shell.c ****                 index++;
 372:SYS/shell/shell.c ****             }
 373:SYS/shell/shell.c ****         } while (buffer[index - 1] != '\r' && buffer[index - 1] != '\n' && index < SHELL_SCAN_BUFFE
 374:SYS/shell/shell.c ****         shellWriteString(shell, "\r\n");
 375:SYS/shell/shell.c ****         buffer[index] = '\0';
 376:SYS/shell/shell.c ****     }
 377:SYS/shell/shell.c **** 
 378:SYS/shell/shell.c ****     va_start(vargs, fmt);
 379:SYS/shell/shell.c ****     vsscanf(buffer, fmt, vargs);
 380:SYS/shell/shell.c ****     va_end(vargs);
 381:SYS/shell/shell.c **** }
 382:SYS/shell/shell.c **** #endif
 383:SYS/shell/shell.c **** 
 384:SYS/shell/shell.c **** /**
 385:SYS/shell/shell.c ****  * @brief shell 检查命令权限
 386:SYS/shell/shell.c ****  * 
 387:SYS/shell/shell.c ****  * @param shell shell对象
 388:SYS/shell/shell.c ****  * @param command ShellCommand
 389:SYS/shell/shell.c ****  * 
 390:SYS/shell/shell.c ****  * @return signed char 0 当前用户具有该命令权限
 391:SYS/shell/shell.c ****  * @return signec char -1 当前用户不具有该命令权限
 392:SYS/shell/shell.c ****  */
 393:SYS/shell/shell.c **** signed char shellCheckPermission(Shell *shell, ShellCommand *command)
 394:SYS/shell/shell.c **** {
 395:SYS/shell/shell.c ****     return ((!command->attr.attrs.permission || command->attr.attrs.type == SHELL_TYPE_USER || (com
 396:SYS/shell/shell.c ****                ? 0
 397:SYS/shell/shell.c ****                : -1;
 398:SYS/shell/shell.c **** }
 399:SYS/shell/shell.c **** 
 400:SYS/shell/shell.c **** /**
 401:SYS/shell/shell.c ****  * @brief int转16进制字符串
 402:SYS/shell/shell.c ****  * 
 403:SYS/shell/shell.c ****  * @param value 数值
 404:SYS/shell/shell.c ****  * @param buffer 缓冲
 405:SYS/shell/shell.c ****  * 
 406:SYS/shell/shell.c ****  * @return signed char 转换后有效数据长度
 407:SYS/shell/shell.c ****  */
 408:SYS/shell/shell.c **** signed char shellToHex(unsigned int value, char *buffer)
 409:SYS/shell/shell.c **** {
 410:SYS/shell/shell.c ****     char byte;
 411:SYS/shell/shell.c ****     unsigned char i = 8;
 412:SYS/shell/shell.c ****     buffer[8] = 0;
 413:SYS/shell/shell.c ****     while (value)
 414:SYS/shell/shell.c ****     {
 415:SYS/shell/shell.c ****         byte = value & 0x0000000F;
 416:SYS/shell/shell.c ****         buffer[--i] = (byte > 9) ? (byte + 87) : (byte + 48);
 417:SYS/shell/shell.c ****         value >>= 4;
 418:SYS/shell/shell.c ****     }
 419:SYS/shell/shell.c ****     return 8 - i;
 420:SYS/shell/shell.c **** }
ARM GAS  /var/folders/lx/hc4sn_b53233_zkc9xbbl97r0000gp/T//ccK5P7Jb.s 			page 10


 421:SYS/shell/shell.c **** 
 422:SYS/shell/shell.c **** /**
 423:SYS/shell/shell.c **** * @brief int转10进制字符串
 424:SYS/shell/shell.c ****  * 
 425:SYS/shell/shell.c ****  * @param value 数值
 426:SYS/shell/shell.c ****  * @param buffer 缓冲
 427:SYS/shell/shell.c ****  * 
 428:SYS/shell/shell.c ****  * @return signed char 转换后有效数据长度
 429:SYS/shell/shell.c ****  */
 430:SYS/shell/shell.c **** signed char shellToDec(int value, char *buffer)
 431:SYS/shell/shell.c **** {
 432:SYS/shell/shell.c ****     unsigned char i = 11;
 433:SYS/shell/shell.c ****     int v = value;
 434:SYS/shell/shell.c ****     if (value < 0)
 435:SYS/shell/shell.c ****     {
 436:SYS/shell/shell.c ****         v = -value;
 437:SYS/shell/shell.c ****     }
 438:SYS/shell/shell.c ****     buffer[11] = 0;
 439:SYS/shell/shell.c ****     while (v)
 440:SYS/shell/shell.c ****     {
 441:SYS/shell/shell.c ****         buffer[--i] = v % 10 + 48;
 442:SYS/shell/shell.c ****         v /= 10;
 443:SYS/shell/shell.c ****     }
 444:SYS/shell/shell.c ****     if (value < 0)
 445:SYS/shell/shell.c ****     {
 446:SYS/shell/shell.c ****         buffer[--i] = '-';
 447:SYS/shell/shell.c ****     }
 448:SYS/shell/shell.c ****     if (value == 0)
 449:SYS/shell/shell.c ****     {
 450:SYS/shell/shell.c ****         buffer[--i] = '0';
 451:SYS/shell/shell.c ****     }
 452:SYS/shell/shell.c ****     return 11 - i;
 453:SYS/shell/shell.c **** }
 454:SYS/shell/shell.c **** 
 455:SYS/shell/shell.c **** /**
 456:SYS/shell/shell.c ****  * @brief shell字符串复制
 457:SYS/shell/shell.c ****  * 
 458:SYS/shell/shell.c ****  * @param dest 目标字符串
 459:SYS/shell/shell.c ****  * @param src 源字符串
 460:SYS/shell/shell.c ****  * @return unsigned short 字符串长度
 461:SYS/shell/shell.c ****  */
 462:SYS/shell/shell.c **** static unsigned short shellStringCopy(char *dest, char *src)
 463:SYS/shell/shell.c **** {
  93              		.loc 1 463 1 is_stmt 1 view -0
  94              		.cfi_startproc
  95              		@ args = 0, pretend = 0, frame = 0
  96              		@ frame_needed = 0, uses_anonymous_args = 0
  97              		@ link register save eliminated.
  98              		.loc 1 463 1 is_stmt 0 view .LVU20
  99 0000 0246     		mov	r2, r0
 464:SYS/shell/shell.c ****     unsigned short count = 0;
 100              		.loc 1 464 5 is_stmt 1 view .LVU21
 101              	.LVL7:
 465:SYS/shell/shell.c ****     while (*(src + count))
 102              		.loc 1 465 5 view .LVU22
 464:SYS/shell/shell.c ****     unsigned short count = 0;
 103              		.loc 1 464 20 is_stmt 0 view .LVU23
ARM GAS  /var/folders/lx/hc4sn_b53233_zkc9xbbl97r0000gp/T//ccK5P7Jb.s 			page 11


 104 0002 0020     		movs	r0, #0
 105              	.LVL8:
 106              		.loc 1 465 11 view .LVU24
 107 0004 02E0     		b	.L11
 108              	.LVL9:
 109              	.L12:
 466:SYS/shell/shell.c ****     {
 467:SYS/shell/shell.c ****         *(dest + count) = *(src + count);
 110              		.loc 1 467 9 is_stmt 1 view .LVU25
 111              		.loc 1 467 25 is_stmt 0 view .LVU26
 112 0006 1354     		strb	r3, [r2, r0]
 468:SYS/shell/shell.c ****         count++;
 113              		.loc 1 468 9 is_stmt 1 view .LVU27
 114              		.loc 1 468 14 is_stmt 0 view .LVU28
 115 0008 0130     		adds	r0, r0, #1
 116              	.LVL10:
 117              		.loc 1 468 14 view .LVU29
 118 000a 80B2     		uxth	r0, r0
 119              	.LVL11:
 120              	.L11:
 465:SYS/shell/shell.c ****     while (*(src + count))
 121              		.loc 1 465 11 is_stmt 1 view .LVU30
 465:SYS/shell/shell.c ****     while (*(src + count))
 122              		.loc 1 465 12 is_stmt 0 view .LVU31
 123 000c 0B5C     		ldrb	r3, [r1, r0]	@ zero_extendqisi2
 465:SYS/shell/shell.c ****     while (*(src + count))
 124              		.loc 1 465 11 view .LVU32
 125 000e 002B     		cmp	r3, #0
 126 0010 F9D1     		bne	.L12
 469:SYS/shell/shell.c ****     }
 470:SYS/shell/shell.c ****     *(dest + count) = 0;
 127              		.loc 1 470 5 is_stmt 1 view .LVU33
 128              		.loc 1 470 21 is_stmt 0 view .LVU34
 129 0012 1354     		strb	r3, [r2, r0]
 471:SYS/shell/shell.c ****     return count;
 130              		.loc 1 471 5 is_stmt 1 view .LVU35
 472:SYS/shell/shell.c **** }
 131              		.loc 1 472 1 is_stmt 0 view .LVU36
 132 0014 7047     		bx	lr
 133              		.cfi_endproc
 134              	.LFE138:
 136              		.section	.text.shellStringCompare,"ax",%progbits
 137              		.align	1
 138              		.syntax unified
 139              		.thumb
 140              		.thumb_func
 141              		.fpu fpv4-sp-d16
 143              	shellStringCompare:
 144              	.LVL12:
 145              	.LFB139:
 473:SYS/shell/shell.c **** 
 474:SYS/shell/shell.c **** /**
 475:SYS/shell/shell.c ****  * @brief shell字符串比较
 476:SYS/shell/shell.c ****  * 
 477:SYS/shell/shell.c ****  * @param dest 目标字符串
 478:SYS/shell/shell.c ****  * @param src 源字符串
 479:SYS/shell/shell.c ****  * @return unsigned short 匹配长度
ARM GAS  /var/folders/lx/hc4sn_b53233_zkc9xbbl97r0000gp/T//ccK5P7Jb.s 			page 12


 480:SYS/shell/shell.c ****  */
 481:SYS/shell/shell.c **** static unsigned short shellStringCompare(char *dest, char *src)
 482:SYS/shell/shell.c **** {
 146              		.loc 1 482 1 is_stmt 1 view -0
 147              		.cfi_startproc
 148              		@ args = 0, pretend = 0, frame = 0
 149              		@ frame_needed = 0, uses_anonymous_args = 0
 150              		@ link register save eliminated.
 151              		.loc 1 482 1 is_stmt 0 view .LVU38
 152 0000 8446     		mov	ip, r0
 483:SYS/shell/shell.c ****     unsigned short match = 0;
 153              		.loc 1 483 5 is_stmt 1 view .LVU39
 154              	.LVL13:
 484:SYS/shell/shell.c ****     unsigned short i = 0;
 155              		.loc 1 484 5 view .LVU40
 485:SYS/shell/shell.c **** 
 486:SYS/shell/shell.c ****     while (*(dest + i) && *(src + i))
 156              		.loc 1 486 5 view .LVU41
 484:SYS/shell/shell.c ****     unsigned short i = 0;
 157              		.loc 1 484 20 is_stmt 0 view .LVU42
 158 0002 0023     		movs	r3, #0
 483:SYS/shell/shell.c ****     unsigned short i = 0;
 159              		.loc 1 483 20 view .LVU43
 160 0004 1846     		mov	r0, r3
 161              	.LVL14:
 162              		.loc 1 486 11 is_stmt 1 view .LVU44
 163              		.loc 1 486 12 is_stmt 0 view .LVU45
 164 0006 1CF80320 		ldrb	r2, [ip, r3]	@ zero_extendqisi2
 165              		.loc 1 486 11 view .LVU46
 166 000a 7AB1     		cbz	r2, .L22
 482:SYS/shell/shell.c ****     unsigned short match = 0;
 167              		.loc 1 482 1 view .LVU47
 168 000c 10B4     		push	{r4}
 169              	.LCFI0:
 170              		.cfi_def_cfa_offset 4
 171              		.cfi_offset 4, -4
 172              	.LVL15:
 173              	.L19:
 174              		.loc 1 486 27 discriminator 1 view .LVU48
 175 000e CC5C     		ldrb	r4, [r1, r3]	@ zero_extendqisi2
 176              		.loc 1 486 24 discriminator 1 view .LVU49
 177 0010 4CB1     		cbz	r4, .L15
 487:SYS/shell/shell.c ****     {
 488:SYS/shell/shell.c ****         if (*(dest + i) != *(src + i))
 178              		.loc 1 488 9 is_stmt 1 view .LVU50
 179              		.loc 1 488 12 is_stmt 0 view .LVU51
 180 0012 A242     		cmp	r2, r4
 181 0014 07D1     		bne	.L15
 489:SYS/shell/shell.c ****         {
 490:SYS/shell/shell.c ****             break;
 491:SYS/shell/shell.c ****         }
 492:SYS/shell/shell.c ****         match++;
 182              		.loc 1 492 9 is_stmt 1 view .LVU52
 183              		.loc 1 492 14 is_stmt 0 view .LVU53
 184 0016 0130     		adds	r0, r0, #1
 185 0018 80B2     		uxth	r0, r0
 186              	.LVL16:
ARM GAS  /var/folders/lx/hc4sn_b53233_zkc9xbbl97r0000gp/T//ccK5P7Jb.s 			page 13


 493:SYS/shell/shell.c ****         i++;
 187              		.loc 1 493 9 is_stmt 1 view .LVU54
 188              		.loc 1 493 10 is_stmt 0 view .LVU55
 189 001a 0133     		adds	r3, r3, #1
 190              	.LVL17:
 191              		.loc 1 493 10 view .LVU56
 192 001c 9BB2     		uxth	r3, r3
 193              	.LVL18:
 486:SYS/shell/shell.c ****     {
 194              		.loc 1 486 11 is_stmt 1 view .LVU57
 486:SYS/shell/shell.c ****     {
 195              		.loc 1 486 12 is_stmt 0 view .LVU58
 196 001e 1CF80320 		ldrb	r2, [ip, r3]	@ zero_extendqisi2
 486:SYS/shell/shell.c ****     {
 197              		.loc 1 486 11 view .LVU59
 198 0022 002A     		cmp	r2, #0
 199 0024 F3D1     		bne	.L19
 200              	.LVL19:
 201              	.L15:
 494:SYS/shell/shell.c ****     }
 495:SYS/shell/shell.c ****     return match;
 202              		.loc 1 495 5 is_stmt 1 view .LVU60
 496:SYS/shell/shell.c **** }
 203              		.loc 1 496 1 is_stmt 0 view .LVU61
 204 0026 5DF8044B 		ldr	r4, [sp], #4
 205              	.LCFI1:
 206              		.cfi_restore 4
 207              		.cfi_def_cfa_offset 0
 208 002a 7047     		bx	lr
 209              	.LVL20:
 210              	.L22:
 495:SYS/shell/shell.c **** }
 211              		.loc 1 495 5 is_stmt 1 view .LVU62
 212              		.loc 1 496 1 is_stmt 0 view .LVU63
 213 002c 7047     		bx	lr
 214              		.cfi_endproc
 215              	.LFE139:
 217              		.section	.text.shellGetCommandDesc,"ax",%progbits
 218              		.align	1
 219              		.syntax unified
 220              		.thumb
 221              		.thumb_func
 222              		.fpu fpv4-sp-d16
 224              	shellGetCommandDesc:
 225              	.LVL21:
 226              	.LFB141:
 497:SYS/shell/shell.c **** 
 498:SYS/shell/shell.c **** /**
 499:SYS/shell/shell.c ****  * @brief shell获取命令名
 500:SYS/shell/shell.c ****  * 
 501:SYS/shell/shell.c ****  * @param command 命令
 502:SYS/shell/shell.c ****  * @return const char* 命令名
 503:SYS/shell/shell.c ****  */
 504:SYS/shell/shell.c **** static const char *shellGetCommandName(ShellCommand *command)
 505:SYS/shell/shell.c **** {
 506:SYS/shell/shell.c ****     static char buffer[9];
 507:SYS/shell/shell.c ****     for (unsigned char i = 0; i < 9; i++)
ARM GAS  /var/folders/lx/hc4sn_b53233_zkc9xbbl97r0000gp/T//ccK5P7Jb.s 			page 14


 508:SYS/shell/shell.c ****     {
 509:SYS/shell/shell.c ****         buffer[i] = '0';
 510:SYS/shell/shell.c ****     }
 511:SYS/shell/shell.c ****     if (command->attr.attrs.type <= SHELL_TYPE_CMD_FUNC)
 512:SYS/shell/shell.c ****     {
 513:SYS/shell/shell.c ****         return command->data.cmd.name;
 514:SYS/shell/shell.c ****     }
 515:SYS/shell/shell.c ****     else if (command->attr.attrs.type <= SHELL_TYPE_VAR_NODE)
 516:SYS/shell/shell.c ****     {
 517:SYS/shell/shell.c ****         return command->data.var.name;
 518:SYS/shell/shell.c ****     }
 519:SYS/shell/shell.c ****     else if (command->attr.attrs.type <= SHELL_TYPE_USER)
 520:SYS/shell/shell.c ****     {
 521:SYS/shell/shell.c ****         return command->data.user.name;
 522:SYS/shell/shell.c ****     }
 523:SYS/shell/shell.c ****     else
 524:SYS/shell/shell.c ****     {
 525:SYS/shell/shell.c ****         shellToHex(command->data.key.value, buffer);
 526:SYS/shell/shell.c ****         return buffer;
 527:SYS/shell/shell.c ****     }
 528:SYS/shell/shell.c **** }
 529:SYS/shell/shell.c **** 
 530:SYS/shell/shell.c **** /**
 531:SYS/shell/shell.c ****  * @brief shell获取命令描述
 532:SYS/shell/shell.c ****  * 
 533:SYS/shell/shell.c ****  * @param command 命令
 534:SYS/shell/shell.c ****  * @return const char* 命令描述
 535:SYS/shell/shell.c ****  */
 536:SYS/shell/shell.c **** static const char *shellGetCommandDesc(ShellCommand *command)
 537:SYS/shell/shell.c **** {
 227              		.loc 1 537 1 is_stmt 1 view -0
 228              		.cfi_startproc
 229              		@ args = 0, pretend = 0, frame = 0
 230              		@ frame_needed = 0, uses_anonymous_args = 0
 231              		@ link register save eliminated.
 538:SYS/shell/shell.c ****     if (command->attr.attrs.type <= SHELL_TYPE_CMD_FUNC)
 232              		.loc 1 538 5 view .LVU65
 233              		.loc 1 538 28 is_stmt 0 view .LVU66
 234 0000 4378     		ldrb	r3, [r0, #1]	@ zero_extendqisi2
 235 0002 03F00F03 		and	r3, r3, #15
 236              		.loc 1 538 8 view .LVU67
 237 0006 012B     		cmp	r3, #1
 238 0008 05D9     		bls	.L28
 539:SYS/shell/shell.c ****     {
 540:SYS/shell/shell.c ****         return command->data.cmd.desc;
 541:SYS/shell/shell.c ****     }
 542:SYS/shell/shell.c ****     else if (command->attr.attrs.type <= SHELL_TYPE_VAR_NODE)
 239              		.loc 1 542 10 is_stmt 1 view .LVU68
 240              		.loc 1 542 13 is_stmt 0 view .LVU69
 241 000a 072B     		cmp	r3, #7
 242 000c 05D9     		bls	.L29
 543:SYS/shell/shell.c ****     {
 544:SYS/shell/shell.c ****         return command->data.var.desc;
 545:SYS/shell/shell.c ****     }
 546:SYS/shell/shell.c ****     else if (command->attr.attrs.type <= SHELL_TYPE_USER)
 243              		.loc 1 546 10 is_stmt 1 view .LVU70
 244              		.loc 1 546 13 is_stmt 0 view .LVU71
ARM GAS  /var/folders/lx/hc4sn_b53233_zkc9xbbl97r0000gp/T//ccK5P7Jb.s 			page 15


 245 000e 082B     		cmp	r3, #8
 246 0010 05D8     		bhi	.L27
 547:SYS/shell/shell.c ****     {
 548:SYS/shell/shell.c ****         return command->data.user.desc;
 247              		.loc 1 548 9 is_stmt 1 view .LVU72
 248              		.loc 1 548 34 is_stmt 0 view .LVU73
 249 0012 C068     		ldr	r0, [r0, #12]
 250              	.LVL22:
 251              		.loc 1 548 34 view .LVU74
 252 0014 7047     		bx	lr
 253              	.LVL23:
 254              	.L28:
 540:SYS/shell/shell.c ****     }
 255              		.loc 1 540 9 is_stmt 1 view .LVU75
 540:SYS/shell/shell.c ****     }
 256              		.loc 1 540 33 is_stmt 0 view .LVU76
 257 0016 C068     		ldr	r0, [r0, #12]
 258              	.LVL24:
 540:SYS/shell/shell.c ****     }
 259              		.loc 1 540 33 view .LVU77
 260 0018 7047     		bx	lr
 261              	.LVL25:
 262              	.L29:
 544:SYS/shell/shell.c ****     }
 263              		.loc 1 544 9 is_stmt 1 view .LVU78
 544:SYS/shell/shell.c ****     }
 264              		.loc 1 544 33 is_stmt 0 view .LVU79
 265 001a C068     		ldr	r0, [r0, #12]
 266              	.LVL26:
 544:SYS/shell/shell.c ****     }
 267              		.loc 1 544 33 view .LVU80
 268 001c 7047     		bx	lr
 269              	.LVL27:
 270              	.L27:
 549:SYS/shell/shell.c ****     }
 550:SYS/shell/shell.c ****     else
 551:SYS/shell/shell.c ****     {
 552:SYS/shell/shell.c ****         return command->data.key.desc;
 271              		.loc 1 552 9 is_stmt 1 view .LVU81
 272              		.loc 1 552 33 is_stmt 0 view .LVU82
 273 001e C068     		ldr	r0, [r0, #12]
 274              	.LVL28:
 553:SYS/shell/shell.c ****     }
 554:SYS/shell/shell.c **** }
 275              		.loc 1 554 1 view .LVU83
 276 0020 7047     		bx	lr
 277              		.cfi_endproc
 278              	.LFE141:
 280              		.section	.text.shellParserParam,"ax",%progbits
 281              		.align	1
 282              		.syntax unified
 283              		.thumb
 284              		.thumb_func
 285              		.fpu fpv4-sp-d16
 287              	shellParserParam:
 288              	.LVL29:
 289              	.LFB152:
ARM GAS  /var/folders/lx/hc4sn_b53233_zkc9xbbl97r0000gp/T//ccK5P7Jb.s 			page 16


 555:SYS/shell/shell.c **** 
 556:SYS/shell/shell.c **** /**
 557:SYS/shell/shell.c ****  * @brief shell 列出命令条目
 558:SYS/shell/shell.c ****  * 
 559:SYS/shell/shell.c ****  * @param shell shell对象
 560:SYS/shell/shell.c ****  * @param item 命令条目
 561:SYS/shell/shell.c ****  */
 562:SYS/shell/shell.c **** void shellListItem(Shell *shell, ShellCommand *item)
 563:SYS/shell/shell.c **** {
 564:SYS/shell/shell.c ****     short spaceLength;
 565:SYS/shell/shell.c **** 
 566:SYS/shell/shell.c ****     spaceLength = 22 - shellWriteString(shell, shellGetCommandName(item));
 567:SYS/shell/shell.c ****     spaceLength = (spaceLength > 0) ? spaceLength : 4;
 568:SYS/shell/shell.c ****     do
 569:SYS/shell/shell.c ****     {
 570:SYS/shell/shell.c ****         shellWriteByte(shell, '-');
 571:SYS/shell/shell.c ****     } while (--spaceLength);
 572:SYS/shell/shell.c ****     if (item->attr.attrs.type <= SHELL_TYPE_CMD_FUNC)
 573:SYS/shell/shell.c ****     {
 574:SYS/shell/shell.c ****         shellWriteString(shell, shellText[SHELL_TEXT_TYPE_CMD]);
 575:SYS/shell/shell.c ****     }
 576:SYS/shell/shell.c ****     else if (item->attr.attrs.type <= SHELL_TYPE_VAR_NODE)
 577:SYS/shell/shell.c ****     {
 578:SYS/shell/shell.c ****         shellWriteString(shell, shellText[SHELL_TEXT_TYPE_VAR]);
 579:SYS/shell/shell.c ****     }
 580:SYS/shell/shell.c ****     else if (item->attr.attrs.type <= SHELL_TYPE_USER)
 581:SYS/shell/shell.c ****     {
 582:SYS/shell/shell.c ****         shellWriteString(shell, shellText[SHELL_TEXT_TYPE_USER]);
 583:SYS/shell/shell.c ****     }
 584:SYS/shell/shell.c ****     else if (item->attr.attrs.type <= SHELL_TYPE_KEY)
 585:SYS/shell/shell.c ****     {
 586:SYS/shell/shell.c ****         shellWriteString(shell, shellText[SHELL_TEXT_TYPE_KEY]);
 587:SYS/shell/shell.c ****     }
 588:SYS/shell/shell.c ****     else
 589:SYS/shell/shell.c ****     {
 590:SYS/shell/shell.c ****         shellWriteString(shell, shellText[SHELL_TEXT_TYPE_NONE]);
 591:SYS/shell/shell.c ****     }
 592:SYS/shell/shell.c **** #if SHELL_HELP_SHOW_PERMISSION == 1
 593:SYS/shell/shell.c ****     shellWriteString(shell, " ");
 594:SYS/shell/shell.c ****     for (signed char i = 7; i >= 0; i--)
 595:SYS/shell/shell.c ****     {
 596:SYS/shell/shell.c ****         shellWriteByte(shell, item->attr.attrs.permission & (1 << i) ? 'x' : '-');
 597:SYS/shell/shell.c ****     }
 598:SYS/shell/shell.c **** #endif
 599:SYS/shell/shell.c ****     // shellWriteString(shell, " ");
 600:SYS/shell/shell.c ****     // shellWriteCommandDesc(shell, shellGetCommandDesc(item));
 601:SYS/shell/shell.c ****     // shellWriteString(shell, "\r\n");
 602:SYS/shell/shell.c **** }
 603:SYS/shell/shell.c **** 
 604:SYS/shell/shell.c **** /**
 605:SYS/shell/shell.c ****  * @brief shell列出可执行命令
 606:SYS/shell/shell.c ****  * 
 607:SYS/shell/shell.c ****  * @param shell shell对象
 608:SYS/shell/shell.c ****  */
 609:SYS/shell/shell.c **** void shellListCommand(Shell *shell)
 610:SYS/shell/shell.c **** {
 611:SYS/shell/shell.c ****     ShellCommand *base = (ShellCommand *)shell->commandList.base;
ARM GAS  /var/folders/lx/hc4sn_b53233_zkc9xbbl97r0000gp/T//ccK5P7Jb.s 			page 17


 612:SYS/shell/shell.c ****     shellWriteString(shell, shellText[SHELL_TEXT_CMD_LIST]);
 613:SYS/shell/shell.c ****     for (short i = 0; i < shell->commandList.count; i++)
 614:SYS/shell/shell.c ****     {
 615:SYS/shell/shell.c ****         if (base[i].attr.attrs.type <= SHELL_TYPE_CMD_FUNC && shellCheckPermission(shell, &base[i])
 616:SYS/shell/shell.c ****         {
 617:SYS/shell/shell.c ****             shellListItem(shell, &base[i]);
 618:SYS/shell/shell.c ****         }
 619:SYS/shell/shell.c ****     }
 620:SYS/shell/shell.c **** }
 621:SYS/shell/shell.c **** 
 622:SYS/shell/shell.c **** /**
 623:SYS/shell/shell.c ****  * @brief shell列出变量
 624:SYS/shell/shell.c ****  * 
 625:SYS/shell/shell.c ****  * @param shell shell对象
 626:SYS/shell/shell.c ****  */
 627:SYS/shell/shell.c **** void shellListVar(Shell *shell)
 628:SYS/shell/shell.c **** {
 629:SYS/shell/shell.c ****     ShellCommand *base = (ShellCommand *)shell->commandList.base;
 630:SYS/shell/shell.c ****     shellWriteString(shell, shellText[SHELL_TEXT_VAR_LIST]);
 631:SYS/shell/shell.c ****     for (short i = 0; i < shell->commandList.count; i++)
 632:SYS/shell/shell.c ****     {
 633:SYS/shell/shell.c ****         if (base[i].attr.attrs.type > SHELL_TYPE_CMD_FUNC && base[i].attr.attrs.type <= SHELL_TYPE_
 634:SYS/shell/shell.c ****         {
 635:SYS/shell/shell.c ****             shellListItem(shell, &base[i]);
 636:SYS/shell/shell.c ****         }
 637:SYS/shell/shell.c ****     }
 638:SYS/shell/shell.c **** }
 639:SYS/shell/shell.c **** 
 640:SYS/shell/shell.c **** /**
 641:SYS/shell/shell.c ****  * @brief shell列出用户
 642:SYS/shell/shell.c ****  * 
 643:SYS/shell/shell.c ****  * @param shell shell对象
 644:SYS/shell/shell.c ****  */
 645:SYS/shell/shell.c **** void shellListUser(Shell *shell)
 646:SYS/shell/shell.c **** {
 647:SYS/shell/shell.c ****     ShellCommand *base = (ShellCommand *)shell->commandList.base;
 648:SYS/shell/shell.c ****     shellWriteString(shell, shellText[SHELL_TEXT_USER_LIST]);
 649:SYS/shell/shell.c ****     for (short i = 0; i < shell->commandList.count; i++)
 650:SYS/shell/shell.c ****     {
 651:SYS/shell/shell.c ****         if (base[i].attr.attrs.type > SHELL_TYPE_VAR_NODE && base[i].attr.attrs.type <= SHELL_TYPE_
 652:SYS/shell/shell.c ****         {
 653:SYS/shell/shell.c ****             shellListItem(shell, &base[i]);
 654:SYS/shell/shell.c ****         }
 655:SYS/shell/shell.c ****     }
 656:SYS/shell/shell.c **** }
 657:SYS/shell/shell.c **** 
 658:SYS/shell/shell.c **** /**
 659:SYS/shell/shell.c ****  * @brief shell列出按键
 660:SYS/shell/shell.c ****  * 
 661:SYS/shell/shell.c ****  * @param shell shell对象
 662:SYS/shell/shell.c ****  */
 663:SYS/shell/shell.c **** void shellListKey(Shell *shell)
 664:SYS/shell/shell.c **** {
 665:SYS/shell/shell.c ****     ShellCommand *base = (ShellCommand *)shell->commandList.base;
 666:SYS/shell/shell.c ****     shellWriteString(shell, shellText[SHELL_TEXT_KEY_LIST]);
 667:SYS/shell/shell.c ****     for (short i = 0; i < shell->commandList.count; i++)
 668:SYS/shell/shell.c ****     {
ARM GAS  /var/folders/lx/hc4sn_b53233_zkc9xbbl97r0000gp/T//ccK5P7Jb.s 			page 18


 669:SYS/shell/shell.c ****         if (base[i].attr.attrs.type > SHELL_TYPE_USER && base[i].attr.attrs.type <= SHELL_TYPE_KEY 
 670:SYS/shell/shell.c ****         {
 671:SYS/shell/shell.c ****             shellListItem(shell, &base[i]);
 672:SYS/shell/shell.c ****         }
 673:SYS/shell/shell.c ****     }
 674:SYS/shell/shell.c **** }
 675:SYS/shell/shell.c **** 
 676:SYS/shell/shell.c **** /**
 677:SYS/shell/shell.c ****  * @brief shell列出所有命令
 678:SYS/shell/shell.c ****  * 
 679:SYS/shell/shell.c ****  * @param shell shell对象
 680:SYS/shell/shell.c ****  */
 681:SYS/shell/shell.c **** void shellListAll(Shell *shell)
 682:SYS/shell/shell.c **** {
 683:SYS/shell/shell.c **** #if SHELL_HELP_LIST_USER == 1
 684:SYS/shell/shell.c ****     shellListUser(shell);
 685:SYS/shell/shell.c **** #endif
 686:SYS/shell/shell.c ****     shellListCommand(shell);
 687:SYS/shell/shell.c **** #if SHELL_HELP_LIST_VAR == 1
 688:SYS/shell/shell.c ****     shellListVar(shell);
 689:SYS/shell/shell.c **** #endif
 690:SYS/shell/shell.c **** #if SHELL_HELP_LIST_KEY == 1
 691:SYS/shell/shell.c ****     shellListKey(shell);
 692:SYS/shell/shell.c **** #endif
 693:SYS/shell/shell.c **** }
 694:SYS/shell/shell.c **** 
 695:SYS/shell/shell.c **** /**
 696:SYS/shell/shell.c ****  * @brief shell删除命令行数据
 697:SYS/shell/shell.c ****  * 
 698:SYS/shell/shell.c ****  * @param shell shell对象
 699:SYS/shell/shell.c ****  * @param length 删除长度
 700:SYS/shell/shell.c ****  */
 701:SYS/shell/shell.c **** void shellDeleteCommandLine(Shell *shell, unsigned char length)
 702:SYS/shell/shell.c **** {
 703:SYS/shell/shell.c ****     while (length--)
 704:SYS/shell/shell.c ****     {
 705:SYS/shell/shell.c ****         shellWriteString(shell, "\b \b");
 706:SYS/shell/shell.c ****     }
 707:SYS/shell/shell.c **** }
 708:SYS/shell/shell.c **** 
 709:SYS/shell/shell.c **** /**
 710:SYS/shell/shell.c ****  * @brief shell 清空命令行输入
 711:SYS/shell/shell.c ****  * 
 712:SYS/shell/shell.c ****  * @param shell shell对象
 713:SYS/shell/shell.c ****  */
 714:SYS/shell/shell.c **** void shellClearCommandLine(Shell *shell)
 715:SYS/shell/shell.c **** {
 716:SYS/shell/shell.c ****     for (short i = shell->parser.length - shell->parser.cursor; i > 0; i--)
 717:SYS/shell/shell.c ****     {
 718:SYS/shell/shell.c ****         shellWriteByte(shell, ' ');
 719:SYS/shell/shell.c ****     }
 720:SYS/shell/shell.c ****     shellDeleteCommandLine(shell, shell->parser.length);
 721:SYS/shell/shell.c **** }
 722:SYS/shell/shell.c **** 
 723:SYS/shell/shell.c **** /**
 724:SYS/shell/shell.c ****  * @brief shell插入一个字符到光标位置
 725:SYS/shell/shell.c ****  * 
ARM GAS  /var/folders/lx/hc4sn_b53233_zkc9xbbl97r0000gp/T//ccK5P7Jb.s 			page 19


 726:SYS/shell/shell.c ****  * @param shell shell对象
 727:SYS/shell/shell.c ****  * @param data 字符数据
 728:SYS/shell/shell.c ****  */
 729:SYS/shell/shell.c **** void shellInsertByte(Shell *shell, char data)
 730:SYS/shell/shell.c **** {
 731:SYS/shell/shell.c ****     /* 判断输入数据是否过长 */
 732:SYS/shell/shell.c ****     if (shell->parser.length >= shell->parser.bufferSize - 1)
 733:SYS/shell/shell.c ****     {
 734:SYS/shell/shell.c ****         shellWriteString(shell, shellText[SHELL_TEXT_CMD_TOO_LONG]);
 735:SYS/shell/shell.c ****         shellWriteCommandLine(shell, 1);
 736:SYS/shell/shell.c ****         shellWriteString(shell, shell->parser.buffer);
 737:SYS/shell/shell.c ****         return;
 738:SYS/shell/shell.c ****     }
 739:SYS/shell/shell.c **** 
 740:SYS/shell/shell.c ****     /* 插入数据 */
 741:SYS/shell/shell.c ****     if (shell->parser.cursor == shell->parser.length)
 742:SYS/shell/shell.c ****     {
 743:SYS/shell/shell.c ****         shell->parser.buffer[shell->parser.length++] = data;
 744:SYS/shell/shell.c ****         shell->parser.buffer[shell->parser.length] = 0;
 745:SYS/shell/shell.c ****         shell->parser.cursor++;
 746:SYS/shell/shell.c ****         shellWriteByte(shell, data);
 747:SYS/shell/shell.c ****     }
 748:SYS/shell/shell.c ****     else if (shell->parser.cursor < shell->parser.length)
 749:SYS/shell/shell.c ****     {
 750:SYS/shell/shell.c ****         for (short i = shell->parser.length - shell->parser.cursor; i > 0; i--)
 751:SYS/shell/shell.c ****         {
 752:SYS/shell/shell.c ****             shell->parser.buffer[shell->parser.cursor + i] =
 753:SYS/shell/shell.c ****                 shell->parser.buffer[shell->parser.cursor + i - 1];
 754:SYS/shell/shell.c ****         }
 755:SYS/shell/shell.c ****         shell->parser.buffer[shell->parser.cursor++] = data;
 756:SYS/shell/shell.c ****         shell->parser.buffer[++shell->parser.length] = 0;
 757:SYS/shell/shell.c ****         for (short i = shell->parser.cursor - 1; i < shell->parser.length; i++)
 758:SYS/shell/shell.c ****         {
 759:SYS/shell/shell.c ****             shellWriteByte(shell, shell->parser.buffer[i]);
 760:SYS/shell/shell.c ****         }
 761:SYS/shell/shell.c ****         for (short i = shell->parser.length - shell->parser.cursor; i > 0; i--)
 762:SYS/shell/shell.c ****         {
 763:SYS/shell/shell.c ****             shellWriteByte(shell, '\b');
 764:SYS/shell/shell.c ****         }
 765:SYS/shell/shell.c ****     }
 766:SYS/shell/shell.c **** }
 767:SYS/shell/shell.c **** 
 768:SYS/shell/shell.c **** /**
 769:SYS/shell/shell.c ****  * @brief shell 删除字节
 770:SYS/shell/shell.c ****  * 
 771:SYS/shell/shell.c ****  * @param shell shell对象
 772:SYS/shell/shell.c ****  * @param direction 删除方向 {@code 1}删除光标前字符 {@code -1}删除光标处字符
 773:SYS/shell/shell.c ****  */
 774:SYS/shell/shell.c **** void shellDeleteByte(Shell *shell, signed char direction)
 775:SYS/shell/shell.c **** {
 776:SYS/shell/shell.c ****     char offset = (direction == -1) ? 1 : 0;
 777:SYS/shell/shell.c **** 
 778:SYS/shell/shell.c ****     if ((shell->parser.cursor == 0 && direction == 1) || (shell->parser.cursor == shell->parser.len
 779:SYS/shell/shell.c ****     {
 780:SYS/shell/shell.c ****         return;
 781:SYS/shell/shell.c ****     }
 782:SYS/shell/shell.c ****     if (shell->parser.cursor == shell->parser.length && direction == 1)
ARM GAS  /var/folders/lx/hc4sn_b53233_zkc9xbbl97r0000gp/T//ccK5P7Jb.s 			page 20


 783:SYS/shell/shell.c ****     {
 784:SYS/shell/shell.c ****         shell->parser.cursor--;
 785:SYS/shell/shell.c ****         shell->parser.length--;
 786:SYS/shell/shell.c ****         shell->parser.buffer[shell->parser.length] = 0;
 787:SYS/shell/shell.c ****         shellDeleteCommandLine(shell, 1);
 788:SYS/shell/shell.c ****     }
 789:SYS/shell/shell.c ****     else
 790:SYS/shell/shell.c ****     {
 791:SYS/shell/shell.c ****         for (short i = offset; i < shell->parser.length - shell->parser.cursor; i++)
 792:SYS/shell/shell.c ****         {
 793:SYS/shell/shell.c ****             shell->parser.buffer[shell->parser.cursor + i - 1] =
 794:SYS/shell/shell.c ****                 shell->parser.buffer[shell->parser.cursor + i];
 795:SYS/shell/shell.c ****         }
 796:SYS/shell/shell.c ****         shell->parser.length--;
 797:SYS/shell/shell.c ****         if (!offset)
 798:SYS/shell/shell.c ****         {
 799:SYS/shell/shell.c ****             shell->parser.cursor--;
 800:SYS/shell/shell.c ****             shellWriteByte(shell, '\b');
 801:SYS/shell/shell.c ****         }
 802:SYS/shell/shell.c ****         shell->parser.buffer[shell->parser.length] = 0;
 803:SYS/shell/shell.c ****         for (short i = shell->parser.cursor; i < shell->parser.length; i++)
 804:SYS/shell/shell.c ****         {
 805:SYS/shell/shell.c ****             shellWriteByte(shell, shell->parser.buffer[i]);
 806:SYS/shell/shell.c ****         }
 807:SYS/shell/shell.c ****         shellWriteByte(shell, ' ');
 808:SYS/shell/shell.c ****         for (short i = shell->parser.length - shell->parser.cursor + 1; i > 0; i--)
 809:SYS/shell/shell.c ****         {
 810:SYS/shell/shell.c ****             shellWriteByte(shell, '\b');
 811:SYS/shell/shell.c ****         }
 812:SYS/shell/shell.c ****     }
 813:SYS/shell/shell.c **** }
 814:SYS/shell/shell.c **** 
 815:SYS/shell/shell.c **** /**
 816:SYS/shell/shell.c ****  * @brief shell 解析参数
 817:SYS/shell/shell.c ****  * 
 818:SYS/shell/shell.c ****  * @param shell shell对象
 819:SYS/shell/shell.c ****  */
 820:SYS/shell/shell.c **** static void shellParserParam(Shell *shell)
 821:SYS/shell/shell.c **** {
 290              		.loc 1 821 1 is_stmt 1 view -0
 291              		.cfi_startproc
 292              		@ args = 0, pretend = 0, frame = 0
 293              		@ frame_needed = 0, uses_anonymous_args = 0
 294              		.loc 1 821 1 is_stmt 0 view .LVU85
 295 0000 30B5     		push	{r4, r5, lr}
 296              	.LCFI2:
 297              		.cfi_def_cfa_offset 12
 298              		.cfi_offset 4, -12
 299              		.cfi_offset 5, -8
 300              		.cfi_offset 14, -4
 822:SYS/shell/shell.c ****     unsigned char quotes = 0;
 301              		.loc 1 822 5 is_stmt 1 view .LVU86
 302              	.LVL30:
 823:SYS/shell/shell.c ****     unsigned char record = 1;
 303              		.loc 1 823 5 view .LVU87
 824:SYS/shell/shell.c **** 
 825:SYS/shell/shell.c ****     for (short i = 0; i < SHELL_PARAMETER_MAX_NUMBER; i++)
ARM GAS  /var/folders/lx/hc4sn_b53233_zkc9xbbl97r0000gp/T//ccK5P7Jb.s 			page 21


 304              		.loc 1 825 5 view .LVU88
 305              	.LBB3:
 306              		.loc 1 825 10 view .LVU89
 307              		.loc 1 825 16 is_stmt 0 view .LVU90
 308 0002 0023     		movs	r3, #0
 309              		.loc 1 825 5 view .LVU91
 310 0004 06E0     		b	.L31
 311              	.LVL31:
 312              	.L32:
 826:SYS/shell/shell.c ****     {
 827:SYS/shell/shell.c ****         shell->parser.param[i] = NULL;
 313              		.loc 1 827 9 is_stmt 1 discriminator 3 view .LVU92
 314              		.loc 1 827 32 is_stmt 0 discriminator 3 view .LVU93
 315 0006 1A1D     		adds	r2, r3, #4
 316 0008 00EB8202 		add	r2, r0, r2, lsl #2
 317 000c 0021     		movs	r1, #0
 318 000e 5160     		str	r1, [r2, #4]
 825:SYS/shell/shell.c ****     {
 319              		.loc 1 825 55 is_stmt 1 discriminator 3 view .LVU94
 825:SYS/shell/shell.c ****     {
 320              		.loc 1 825 56 is_stmt 0 discriminator 3 view .LVU95
 321 0010 0133     		adds	r3, r3, #1
 322              	.LVL32:
 825:SYS/shell/shell.c ****     {
 323              		.loc 1 825 56 discriminator 3 view .LVU96
 324 0012 1BB2     		sxth	r3, r3
 325              	.LVL33:
 326              	.L31:
 825:SYS/shell/shell.c ****     {
 327              		.loc 1 825 23 is_stmt 1 discriminator 1 view .LVU97
 825:SYS/shell/shell.c ****     {
 328              		.loc 1 825 5 is_stmt 0 discriminator 1 view .LVU98
 329 0014 072B     		cmp	r3, #7
 330 0016 F6DD     		ble	.L32
 331              	.LBE3:
 828:SYS/shell/shell.c ****     }
 829:SYS/shell/shell.c **** 
 830:SYS/shell/shell.c ****     shell->parser.paramCount = 0;
 332              		.loc 1 830 5 is_stmt 1 view .LVU99
 333              		.loc 1 830 30 is_stmt 0 view .LVU100
 334 0018 0021     		movs	r1, #0
 335 001a C186     		strh	r1, [r0, #54]	@ movhi
 831:SYS/shell/shell.c ****     for (unsigned short i = 0; i < shell->parser.length; i++)
 336              		.loc 1 831 5 is_stmt 1 view .LVU101
 337              	.LBB4:
 338              		.loc 1 831 10 view .LVU102
 339              	.LVL34:
 340              		.loc 1 831 25 is_stmt 0 view .LVU103
 341 001c 0B46     		mov	r3, r1
 342              	.LVL35:
 343              		.loc 1 831 25 view .LVU104
 344              	.LBE4:
 823:SYS/shell/shell.c **** 
 345              		.loc 1 823 19 view .LVU105
 346 001e 0125     		movs	r5, #1
 347              	.LBB5:
 348              		.loc 1 831 5 view .LVU106
ARM GAS  /var/folders/lx/hc4sn_b53233_zkc9xbbl97r0000gp/T//ccK5P7Jb.s 			page 22


 349 0020 0DE0     		b	.L33
 350              	.LVL36:
 351              	.L34:
 832:SYS/shell/shell.c ****     {
 833:SYS/shell/shell.c ****         if (quotes != 0 || (shell->parser.buffer[i] != ' ' && shell->parser.buffer[i] != 0))
 834:SYS/shell/shell.c ****         {
 835:SYS/shell/shell.c ****             if (shell->parser.buffer[i] == '\"')
 352              		.loc 1 835 13 is_stmt 1 view .LVU107
 353              		.loc 1 835 30 is_stmt 0 view .LVU108
 354 0022 0269     		ldr	r2, [r0, #16]
 355              		.loc 1 835 37 view .LVU109
 356 0024 9E46     		mov	lr, r3
 357 0026 D418     		adds	r4, r2, r3
 358 0028 12F803C0 		ldrb	ip, [r2, r3]	@ zero_extendqisi2
 359              		.loc 1 835 16 view .LVU110
 360 002c BCF1220F 		cmp	ip, #34
 361 0030 15D0     		beq	.L42
 362              	.L36:
 836:SYS/shell/shell.c ****             {
 837:SYS/shell/shell.c ****                 quotes = quotes ? 0 : 1;
 838:SYS/shell/shell.c ****             }
 839:SYS/shell/shell.c ****             if (record == 1)
 363              		.loc 1 839 13 is_stmt 1 view .LVU111
 364              		.loc 1 839 16 is_stmt 0 view .LVU112
 365 0032 BDB9     		cbnz	r5, .L43
 366              	.LVL37:
 367              	.L37:
 840:SYS/shell/shell.c ****             {
 841:SYS/shell/shell.c ****                 if (shell->parser.paramCount < SHELL_PARAMETER_MAX_NUMBER)
 842:SYS/shell/shell.c ****                 {
 843:SYS/shell/shell.c ****                     shell->parser.param[shell->parser.paramCount++] =
 844:SYS/shell/shell.c ****                         &(shell->parser.buffer[i]);
 845:SYS/shell/shell.c ****                 }
 846:SYS/shell/shell.c ****                 record = 0;
 847:SYS/shell/shell.c ****             }
 848:SYS/shell/shell.c ****             if (shell->parser.buffer[i] == '\\' && shell->parser.buffer[i + 1] != 0)
 368              		.loc 1 848 13 is_stmt 1 view .LVU113
 369              		.loc 1 848 37 is_stmt 0 view .LVU114
 370 0034 2478     		ldrb	r4, [r4]	@ zero_extendqisi2
 371              		.loc 1 848 16 view .LVU115
 372 0036 5C2C     		cmp	r4, #92
 373 0038 23D0     		beq	.L44
 374              	.LVL38:
 375              	.L38:
 831:SYS/shell/shell.c ****     {
 376              		.loc 1 831 58 is_stmt 1 discriminator 2 view .LVU116
 831:SYS/shell/shell.c ****     {
 377              		.loc 1 831 59 is_stmt 0 discriminator 2 view .LVU117
 378 003a 0133     		adds	r3, r3, #1
 379              	.LVL39:
 831:SYS/shell/shell.c ****     {
 380              		.loc 1 831 59 discriminator 2 view .LVU118
 381 003c 9BB2     		uxth	r3, r3
 382              	.LVL40:
 383              	.L33:
 831:SYS/shell/shell.c ****     {
 384              		.loc 1 831 32 is_stmt 1 discriminator 1 view .LVU119
ARM GAS  /var/folders/lx/hc4sn_b53233_zkc9xbbl97r0000gp/T//ccK5P7Jb.s 			page 23


 831:SYS/shell/shell.c ****     {
 385              		.loc 1 831 49 is_stmt 0 discriminator 1 view .LVU120
 386 003e 8289     		ldrh	r2, [r0, #12]
 831:SYS/shell/shell.c ****     {
 387              		.loc 1 831 5 discriminator 1 view .LVU121
 388 0040 9A42     		cmp	r2, r3
 389 0042 25D9     		bls	.L45
 833:SYS/shell/shell.c ****         {
 390              		.loc 1 833 9 is_stmt 1 view .LVU122
 833:SYS/shell/shell.c ****         {
 391              		.loc 1 833 12 is_stmt 0 view .LVU123
 392 0044 0029     		cmp	r1, #0
 393 0046 ECD1     		bne	.L34
 833:SYS/shell/shell.c ****         {
 394              		.loc 1 833 42 discriminator 1 view .LVU124
 395 0048 0269     		ldr	r2, [r0, #16]
 833:SYS/shell/shell.c ****         {
 396              		.loc 1 833 49 discriminator 1 view .LVU125
 397 004a D418     		adds	r4, r2, r3
 398 004c D25C     		ldrb	r2, [r2, r3]	@ zero_extendqisi2
 833:SYS/shell/shell.c ****         {
 399              		.loc 1 833 25 discriminator 1 view .LVU126
 400 004e 202A     		cmp	r2, #32
 401 0050 01D0     		beq	.L35
 833:SYS/shell/shell.c ****         {
 402              		.loc 1 833 60 discriminator 2 view .LVU127
 403 0052 002A     		cmp	r2, #0
 404 0054 E5D1     		bne	.L34
 405              	.L35:
 849:SYS/shell/shell.c ****             {
 850:SYS/shell/shell.c ****                 i++;
 851:SYS/shell/shell.c ****             }
 852:SYS/shell/shell.c ****         }
 853:SYS/shell/shell.c ****         else
 854:SYS/shell/shell.c ****         {
 855:SYS/shell/shell.c ****             shell->parser.buffer[i] = 0;
 406              		.loc 1 855 13 is_stmt 1 view .LVU128
 407              		.loc 1 855 37 is_stmt 0 view .LVU129
 408 0056 0022     		movs	r2, #0
 409 0058 2270     		strb	r2, [r4]
 856:SYS/shell/shell.c ****             record = 1;
 410              		.loc 1 856 13 is_stmt 1 view .LVU130
 411              	.LVL41:
 412              		.loc 1 856 20 is_stmt 0 view .LVU131
 413 005a 0125     		movs	r5, #1
 414 005c EDE7     		b	.L38
 415              	.LVL42:
 416              	.L42:
 837:SYS/shell/shell.c ****             }
 417              		.loc 1 837 17 is_stmt 1 view .LVU132
 837:SYS/shell/shell.c ****             }
 418              		.loc 1 837 37 is_stmt 0 view .LVU133
 419 005e 81F00101 		eor	r1, r1, #1
 420              	.LVL43:
 837:SYS/shell/shell.c ****             }
 421              		.loc 1 837 37 view .LVU134
 422 0062 E6E7     		b	.L36
ARM GAS  /var/folders/lx/hc4sn_b53233_zkc9xbbl97r0000gp/T//ccK5P7Jb.s 			page 24


 423              	.L43:
 841:SYS/shell/shell.c ****                 {
 424              		.loc 1 841 17 is_stmt 1 view .LVU135
 841:SYS/shell/shell.c ****                 {
 425              		.loc 1 841 34 is_stmt 0 view .LVU136
 426 0064 C58E     		ldrh	r5, [r0, #54]
 427              	.LVL44:
 841:SYS/shell/shell.c ****                 {
 428              		.loc 1 841 20 view .LVU137
 429 0066 072D     		cmp	r5, #7
 430 0068 09D8     		bhi	.L40
 843:SYS/shell/shell.c ****                         &(shell->parser.buffer[i]);
 431              		.loc 1 843 21 is_stmt 1 view .LVU138
 843:SYS/shell/shell.c ****                         &(shell->parser.buffer[i]);
 432              		.loc 1 843 65 is_stmt 0 view .LVU139
 433 006a 05F1010C 		add	ip, r5, #1
 434 006e A0F836C0 		strh	ip, [r0, #54]	@ movhi
 843:SYS/shell/shell.c ****                         &(shell->parser.buffer[i]);
 435              		.loc 1 843 69 view .LVU140
 436 0072 0435     		adds	r5, r5, #4
 437 0074 00EB8505 		add	r5, r0, r5, lsl #2
 438 0078 6C60     		str	r4, [r5, #4]
 846:SYS/shell/shell.c ****             }
 439              		.loc 1 846 24 view .LVU141
 440 007a 0025     		movs	r5, #0
 441 007c DAE7     		b	.L37
 442              	.L40:
 443 007e 0025     		movs	r5, #0
 444 0080 D8E7     		b	.L37
 445              	.LVL45:
 446              	.L44:
 848:SYS/shell/shell.c ****             {
 447              		.loc 1 848 72 discriminator 1 view .LVU142
 448 0082 7244     		add	r2, r2, lr
 449 0084 5278     		ldrb	r2, [r2, #1]	@ zero_extendqisi2
 848:SYS/shell/shell.c ****             {
 450              		.loc 1 848 49 discriminator 1 view .LVU143
 451 0086 002A     		cmp	r2, #0
 452 0088 D7D0     		beq	.L38
 850:SYS/shell/shell.c ****             }
 453              		.loc 1 850 17 is_stmt 1 view .LVU144
 850:SYS/shell/shell.c ****             }
 454              		.loc 1 850 18 is_stmt 0 view .LVU145
 455 008a 0133     		adds	r3, r3, #1
 456              	.LVL46:
 850:SYS/shell/shell.c ****             }
 457              		.loc 1 850 18 view .LVU146
 458 008c 9BB2     		uxth	r3, r3
 459              	.LVL47:
 850:SYS/shell/shell.c ****             }
 460              		.loc 1 850 18 view .LVU147
 461 008e D4E7     		b	.L38
 462              	.L45:
 850:SYS/shell/shell.c ****             }
 463              		.loc 1 850 18 view .LVU148
 464              	.LBE5:
 857:SYS/shell/shell.c ****         }
ARM GAS  /var/folders/lx/hc4sn_b53233_zkc9xbbl97r0000gp/T//ccK5P7Jb.s 			page 25


 858:SYS/shell/shell.c ****     }
 859:SYS/shell/shell.c **** }
 465              		.loc 1 859 1 view .LVU149
 466 0090 30BD     		pop	{r4, r5, pc}
 467              		.loc 1 859 1 view .LVU150
 468              		.cfi_endproc
 469              	.LFE152:
 471              		.section	.text.shellHistoryAdd,"ax",%progbits
 472              		.align	1
 473              		.syntax unified
 474              		.thumb
 475              		.thumb_func
 476              		.fpu fpv4-sp-d16
 478              	shellHistoryAdd:
 479              	.LVL48:
 480              	.LFB163:
 860:SYS/shell/shell.c **** 
 861:SYS/shell/shell.c **** /**
 862:SYS/shell/shell.c ****  * @brief shell去除字符串参数头尾的双引号
 863:SYS/shell/shell.c ****  * 
 864:SYS/shell/shell.c ****  * @param shell shell对象
 865:SYS/shell/shell.c ****  */
 866:SYS/shell/shell.c **** static void shellRemoveParamQuotes(Shell *shell)
 867:SYS/shell/shell.c **** {
 868:SYS/shell/shell.c ****     unsigned short paramLength;
 869:SYS/shell/shell.c ****     for (unsigned short i = 0; i < shell->parser.paramCount; i++)
 870:SYS/shell/shell.c ****     {
 871:SYS/shell/shell.c ****         if (shell->parser.param[i][0] == '\"')
 872:SYS/shell/shell.c ****         {
 873:SYS/shell/shell.c ****             shell->parser.param[i][0] = 0;
 874:SYS/shell/shell.c ****             shell->parser.param[i] = &shell->parser.param[i][1];
 875:SYS/shell/shell.c ****         }
 876:SYS/shell/shell.c ****         paramLength = strlen(shell->parser.param[i]);
 877:SYS/shell/shell.c ****         if (shell->parser.param[i][paramLength - 1] == '\"')
 878:SYS/shell/shell.c ****         {
 879:SYS/shell/shell.c ****             shell->parser.param[i][paramLength - 1] = 0;
 880:SYS/shell/shell.c ****         }
 881:SYS/shell/shell.c ****     }
 882:SYS/shell/shell.c **** }
 883:SYS/shell/shell.c **** 
 884:SYS/shell/shell.c **** /**
 885:SYS/shell/shell.c ****  * @brief shell匹配命令
 886:SYS/shell/shell.c ****  * 
 887:SYS/shell/shell.c ****  * @param shell shell对象
 888:SYS/shell/shell.c ****  * @param cmd 命令
 889:SYS/shell/shell.c ****  * @param base 匹配命令表基址
 890:SYS/shell/shell.c ****  * @param compareLength 匹配字符串长度
 891:SYS/shell/shell.c ****  * @return ShellCommand* 匹配到的命令
 892:SYS/shell/shell.c ****  */
 893:SYS/shell/shell.c **** ShellCommand *shellSeekCommand(Shell *shell,
 894:SYS/shell/shell.c ****                                const char *cmd,
 895:SYS/shell/shell.c ****                                ShellCommand *base,
 896:SYS/shell/shell.c ****                                unsigned short compareLength)
 897:SYS/shell/shell.c **** {
 898:SYS/shell/shell.c ****     const char *name;
 899:SYS/shell/shell.c ****     int ret;
 900:SYS/shell/shell.c ****     unsigned short count = shell->commandList.count -
ARM GAS  /var/folders/lx/hc4sn_b53233_zkc9xbbl97r0000gp/T//ccK5P7Jb.s 			page 26


 901:SYS/shell/shell.c ****                            ((int)base - (int)shell->commandList.base) / sizeof(ShellCommand);
 902:SYS/shell/shell.c ****     for (unsigned short i = 0; i < count; i++)
 903:SYS/shell/shell.c ****     {
 904:SYS/shell/shell.c ****         if (base[i].attr.attrs.type == SHELL_TYPE_KEY || shellCheckPermission(shell, &base[i]) != 0
 905:SYS/shell/shell.c ****         {
 906:SYS/shell/shell.c ****             continue;
 907:SYS/shell/shell.c ****         }
 908:SYS/shell/shell.c ****         name = shellGetCommandName(&base[i]);
 909:SYS/shell/shell.c ****         if (!compareLength)
 910:SYS/shell/shell.c ****         {
 911:SYS/shell/shell.c ****             ret = strcmp(cmd, name);
 912:SYS/shell/shell.c ****             if (strcmp(cmd, name) == 0)
 913:SYS/shell/shell.c ****             {
 914:SYS/shell/shell.c ****                 return &base[i];
 915:SYS/shell/shell.c ****             }
 916:SYS/shell/shell.c ****         }
 917:SYS/shell/shell.c ****         else
 918:SYS/shell/shell.c ****         {
 919:SYS/shell/shell.c ****             if (strncmp(cmd, name, compareLength) == 0)
 920:SYS/shell/shell.c ****             {
 921:SYS/shell/shell.c ****                 return &base[i];
 922:SYS/shell/shell.c ****             }
 923:SYS/shell/shell.c ****         }
 924:SYS/shell/shell.c ****     }
 925:SYS/shell/shell.c ****     return NULL;
 926:SYS/shell/shell.c **** }
 927:SYS/shell/shell.c **** 
 928:SYS/shell/shell.c **** /**
 929:SYS/shell/shell.c ****  * @brief shell 获取变量值
 930:SYS/shell/shell.c ****  * 
 931:SYS/shell/shell.c ****  * @param shell shell对象
 932:SYS/shell/shell.c ****  * @param command 命令
 933:SYS/shell/shell.c ****  * @return int 变量值
 934:SYS/shell/shell.c ****  */
 935:SYS/shell/shell.c **** int shellGetVarValue(Shell *shell, ShellCommand *command)
 936:SYS/shell/shell.c **** {
 937:SYS/shell/shell.c ****     int value = 0;
 938:SYS/shell/shell.c ****     switch (command->attr.attrs.type)
 939:SYS/shell/shell.c ****     {
 940:SYS/shell/shell.c ****     case SHELL_TYPE_VAR_INT:
 941:SYS/shell/shell.c ****         value = *((int *)(command->data.var.value));
 942:SYS/shell/shell.c ****         break;
 943:SYS/shell/shell.c ****     case SHELL_TYPE_VAR_SHORT:
 944:SYS/shell/shell.c ****         value = *((short *)(command->data.var.value));
 945:SYS/shell/shell.c ****         break;
 946:SYS/shell/shell.c ****     case SHELL_TYPE_VAR_CHAR:
 947:SYS/shell/shell.c ****         value = *((char *)(command->data.var.value));
 948:SYS/shell/shell.c ****         break;
 949:SYS/shell/shell.c ****     case SHELL_TYPE_VAR_STRING:
 950:SYS/shell/shell.c ****     case SHELL_TYPE_VAR_POINT:
 951:SYS/shell/shell.c ****         value = (int)(command->data.var.value);
 952:SYS/shell/shell.c ****         break;
 953:SYS/shell/shell.c ****     case SHELL_TYPE_VAR_NODE:
 954:SYS/shell/shell.c ****         value = ((ShellNodeVarAttr *)command->data.var.value)->get ? ((ShellNodeVarAttr *)command->
 955:SYS/shell/shell.c ****                                                                          ->get(((ShellNodeVarAttr *
 956:SYS/shell/shell.c ****                                                                    : 0;
 957:SYS/shell/shell.c ****         break;
ARM GAS  /var/folders/lx/hc4sn_b53233_zkc9xbbl97r0000gp/T//ccK5P7Jb.s 			page 27


 958:SYS/shell/shell.c ****     default:
 959:SYS/shell/shell.c ****         break;
 960:SYS/shell/shell.c ****     }
 961:SYS/shell/shell.c ****     return value;
 962:SYS/shell/shell.c **** }
 963:SYS/shell/shell.c **** 
 964:SYS/shell/shell.c **** /**
 965:SYS/shell/shell.c ****  * @brief shell设置变量值
 966:SYS/shell/shell.c ****  * 
 967:SYS/shell/shell.c ****  * @param shell shell对象
 968:SYS/shell/shell.c ****  * @param command 命令
 969:SYS/shell/shell.c ****  * @param value 值
 970:SYS/shell/shell.c ****  * @return int 返回变量值
 971:SYS/shell/shell.c ****  */
 972:SYS/shell/shell.c **** int shellSetVarValue(Shell *shell, ShellCommand *command, int value)
 973:SYS/shell/shell.c **** {
 974:SYS/shell/shell.c ****     if (command->attr.attrs.readOnly)
 975:SYS/shell/shell.c ****     {
 976:SYS/shell/shell.c ****         shellWriteString(shell, shellText[SHELL_TEXT_VAR_READ_ONLY_CANNOT_MODIFY]);
 977:SYS/shell/shell.c ****     }
 978:SYS/shell/shell.c ****     else
 979:SYS/shell/shell.c ****     {
 980:SYS/shell/shell.c ****         switch (command->attr.attrs.type)
 981:SYS/shell/shell.c ****         {
 982:SYS/shell/shell.c ****         case SHELL_TYPE_VAR_INT:
 983:SYS/shell/shell.c ****             *((int *)(command->data.var.value)) = value;
 984:SYS/shell/shell.c ****             break;
 985:SYS/shell/shell.c ****         case SHELL_TYPE_VAR_SHORT:
 986:SYS/shell/shell.c ****             *((short *)(command->data.var.value)) = value;
 987:SYS/shell/shell.c ****             break;
 988:SYS/shell/shell.c ****         case SHELL_TYPE_VAR_CHAR:
 989:SYS/shell/shell.c ****             *((char *)(command->data.var.value)) = value;
 990:SYS/shell/shell.c ****             break;
 991:SYS/shell/shell.c ****         case SHELL_TYPE_VAR_STRING:
 992:SYS/shell/shell.c ****             shellStringCopy(((char *)(command->data.var.value)), (char *)value);
 993:SYS/shell/shell.c ****             break;
 994:SYS/shell/shell.c ****         case SHELL_TYPE_VAR_POINT:
 995:SYS/shell/shell.c ****             shellWriteString(shell, shellText[SHELL_TEXT_POINT_CANNOT_MODIFY]);
 996:SYS/shell/shell.c ****             break;
 997:SYS/shell/shell.c ****         case SHELL_TYPE_VAR_NODE:
 998:SYS/shell/shell.c ****             if (((ShellNodeVarAttr *)command->data.var.value)->set)
 999:SYS/shell/shell.c ****             {
1000:SYS/shell/shell.c ****                 if (((ShellNodeVarAttr *)command->data.var.value)->var)
1001:SYS/shell/shell.c ****                 {
1002:SYS/shell/shell.c ****                     ((ShellNodeVarAttr *)command->data.var.value)
1003:SYS/shell/shell.c ****                         ->set(((ShellNodeVarAttr *)command->data.var.value)->var, value);
1004:SYS/shell/shell.c ****                 }
1005:SYS/shell/shell.c ****                 else
1006:SYS/shell/shell.c ****                 {
1007:SYS/shell/shell.c ****                     ((ShellNodeVarAttr *)command->data.var.value)->set(value);
1008:SYS/shell/shell.c ****                 }
1009:SYS/shell/shell.c ****             }
1010:SYS/shell/shell.c ****             break;
1011:SYS/shell/shell.c ****         default:
1012:SYS/shell/shell.c ****             break;
1013:SYS/shell/shell.c ****         }
1014:SYS/shell/shell.c ****     }
ARM GAS  /var/folders/lx/hc4sn_b53233_zkc9xbbl97r0000gp/T//ccK5P7Jb.s 			page 28


1015:SYS/shell/shell.c ****     return shellShowVar(shell, command);
1016:SYS/shell/shell.c **** }
1017:SYS/shell/shell.c **** 
1018:SYS/shell/shell.c **** /**
1019:SYS/shell/shell.c ****  * @brief shell变量输出
1020:SYS/shell/shell.c ****  * 
1021:SYS/shell/shell.c ****  * @param shell shell对象
1022:SYS/shell/shell.c ****  * @param command 命令
1023:SYS/shell/shell.c ****  * @return int 返回变量值
1024:SYS/shell/shell.c ****  */
1025:SYS/shell/shell.c **** static int shellShowVar(Shell *shell, ShellCommand *command)
1026:SYS/shell/shell.c **** {
1027:SYS/shell/shell.c ****     char buffer[12] = "00000000000";
1028:SYS/shell/shell.c ****     int value = shellGetVarValue(shell, command);
1029:SYS/shell/shell.c **** 
1030:SYS/shell/shell.c ****     shellWriteString(shell, command->data.var.name);
1031:SYS/shell/shell.c ****     shellWriteString(shell, " = ");
1032:SYS/shell/shell.c **** 
1033:SYS/shell/shell.c ****     switch (command->attr.attrs.type)
1034:SYS/shell/shell.c ****     {
1035:SYS/shell/shell.c ****     case SHELL_TYPE_VAR_STRING:
1036:SYS/shell/shell.c ****         shellWriteString(shell, "\"");
1037:SYS/shell/shell.c ****         shellWriteString(shell, (char *)value);
1038:SYS/shell/shell.c ****         shellWriteString(shell, "\"");
1039:SYS/shell/shell.c ****         break;
1040:SYS/shell/shell.c ****     // case SHELL_TYPE_VAR_INT:
1041:SYS/shell/shell.c ****     // case SHELL_TYPE_VAR_SHORT:
1042:SYS/shell/shell.c ****     // case SHELL_TYPE_VAR_CHAR:
1043:SYS/shell/shell.c ****     // case SHELL_TYPE_VAR_POINT:
1044:SYS/shell/shell.c ****     default:
1045:SYS/shell/shell.c ****         shellWriteString(shell, &buffer[11 - shellToDec(value, buffer)]);
1046:SYS/shell/shell.c ****         shellWriteString(shell, ", 0x");
1047:SYS/shell/shell.c ****         for (short i = 0; i < 11; i++)
1048:SYS/shell/shell.c ****         {
1049:SYS/shell/shell.c ****             buffer[i] = '0';
1050:SYS/shell/shell.c ****         }
1051:SYS/shell/shell.c ****         shellToHex(value, buffer);
1052:SYS/shell/shell.c ****         shellWriteString(shell, buffer);
1053:SYS/shell/shell.c ****         break;
1054:SYS/shell/shell.c ****     }
1055:SYS/shell/shell.c **** 
1056:SYS/shell/shell.c ****     shellWriteString(shell, "\r\n");
1057:SYS/shell/shell.c ****     return value;
1058:SYS/shell/shell.c **** }
1059:SYS/shell/shell.c **** 
1060:SYS/shell/shell.c **** /**
1061:SYS/shell/shell.c ****  * @brief shell设置变量
1062:SYS/shell/shell.c ****  * 
1063:SYS/shell/shell.c ****  * @param name 变量名
1064:SYS/shell/shell.c ****  * @param value 变量值
1065:SYS/shell/shell.c ****  * @return int 返回变量值
1066:SYS/shell/shell.c ****  */
1067:SYS/shell/shell.c **** int shellSetVar(char *name, int value)
1068:SYS/shell/shell.c **** {
1069:SYS/shell/shell.c ****     Shell *shell = shellGetCurrent();
1070:SYS/shell/shell.c ****     if (shell == NULL)
1071:SYS/shell/shell.c ****     {
ARM GAS  /var/folders/lx/hc4sn_b53233_zkc9xbbl97r0000gp/T//ccK5P7Jb.s 			page 29


1072:SYS/shell/shell.c ****         return 0;
1073:SYS/shell/shell.c ****     }
1074:SYS/shell/shell.c ****     ShellCommand *command = shellSeekCommand(shell,
1075:SYS/shell/shell.c ****                                              name,
1076:SYS/shell/shell.c ****                                              shell->commandList.base,
1077:SYS/shell/shell.c ****                                              0);
1078:SYS/shell/shell.c ****     if (!command)
1079:SYS/shell/shell.c ****     {
1080:SYS/shell/shell.c ****         shellWriteString(shell, shellText[SHELL_TEXT_VAR_NOT_FOUND]);
1081:SYS/shell/shell.c ****         return 0;
1082:SYS/shell/shell.c ****     }
1083:SYS/shell/shell.c ****     if (command->attr.attrs.type < SHELL_TYPE_VAR_INT || command->attr.attrs.type > SHELL_TYPE_VAR_
1084:SYS/shell/shell.c ****     {
1085:SYS/shell/shell.c ****         shellWriteString(shell, name);
1086:SYS/shell/shell.c ****         shellWriteString(shell, shellText[SHELL_TEXT_NOT_VAR]);
1087:SYS/shell/shell.c ****         return 0;
1088:SYS/shell/shell.c ****     }
1089:SYS/shell/shell.c ****     return shellSetVarValue(shell, command, value);
1090:SYS/shell/shell.c **** }
1091:SYS/shell/shell.c **** SHELL_EXPORT_CMD(
1092:SYS/shell/shell.c ****     SHELL_CMD_PERMISSION(0) | SHELL_CMD_TYPE(SHELL_TYPE_CMD_FUNC) | SHELL_CMD_DISABLE_RETURN,
1093:SYS/shell/shell.c ****     setVar, shellSetVar, set var);
1094:SYS/shell/shell.c **** 
1095:SYS/shell/shell.c **** /**
1096:SYS/shell/shell.c ****  * @brief shell运行命令
1097:SYS/shell/shell.c ****  * 
1098:SYS/shell/shell.c ****  * @param shell shell对象
1099:SYS/shell/shell.c ****  * @param command 命令
1100:SYS/shell/shell.c ****  * 
1101:SYS/shell/shell.c ****  * @return unsigned int 命令返回值
1102:SYS/shell/shell.c ****  */
1103:SYS/shell/shell.c **** unsigned int shellRunCommand(Shell *shell, ShellCommand *command)
1104:SYS/shell/shell.c **** {
1105:SYS/shell/shell.c ****     int returnValue = 0;
1106:SYS/shell/shell.c ****     shell->status.isActive = 1;
1107:SYS/shell/shell.c ****     if (command->attr.attrs.type == SHELL_TYPE_CMD_MAIN)
1108:SYS/shell/shell.c ****     {
1109:SYS/shell/shell.c ****         shellRemoveParamQuotes(shell);
1110:SYS/shell/shell.c ****         returnValue = command->data.cmd.function(shell->parser.paramCount,
1111:SYS/shell/shell.c ****                                                  shell->parser.param);
1112:SYS/shell/shell.c ****         if (!command->attr.attrs.disableReturn)
1113:SYS/shell/shell.c ****         {
1114:SYS/shell/shell.c ****             shellWriteReturnValue(shell, returnValue);
1115:SYS/shell/shell.c ****         }
1116:SYS/shell/shell.c ****     }
1117:SYS/shell/shell.c ****     else if (command->attr.attrs.type == SHELL_TYPE_CMD_FUNC)
1118:SYS/shell/shell.c ****     {
1119:SYS/shell/shell.c ****         returnValue = shellExtRun(shell,
1120:SYS/shell/shell.c ****                                   command,
1121:SYS/shell/shell.c ****                                   shell->parser.paramCount,
1122:SYS/shell/shell.c ****                                   shell->parser.param);
1123:SYS/shell/shell.c ****         if (!command->attr.attrs.disableReturn)
1124:SYS/shell/shell.c ****         {
1125:SYS/shell/shell.c ****             shellWriteReturnValue(shell, returnValue);
1126:SYS/shell/shell.c ****         }
1127:SYS/shell/shell.c ****     }
1128:SYS/shell/shell.c ****     else if (command->attr.attrs.type >= SHELL_TYPE_VAR_INT && command->attr.attrs.type <= SHELL_TY
ARM GAS  /var/folders/lx/hc4sn_b53233_zkc9xbbl97r0000gp/T//ccK5P7Jb.s 			page 30


1129:SYS/shell/shell.c ****     {
1130:SYS/shell/shell.c ****         shellShowVar(shell, command);
1131:SYS/shell/shell.c ****     }
1132:SYS/shell/shell.c ****     else if (command->attr.attrs.type == SHELL_TYPE_USER)
1133:SYS/shell/shell.c ****     {
1134:SYS/shell/shell.c ****         shellSetUser(shell, command);
1135:SYS/shell/shell.c ****     }
1136:SYS/shell/shell.c ****     shell->status.isActive = 0;
1137:SYS/shell/shell.c **** 
1138:SYS/shell/shell.c ****     return returnValue;
1139:SYS/shell/shell.c **** }
1140:SYS/shell/shell.c **** 
1141:SYS/shell/shell.c **** /**
1142:SYS/shell/shell.c ****  * @brief shell校验密码
1143:SYS/shell/shell.c ****  * 
1144:SYS/shell/shell.c ****  * @param shell shell对象
1145:SYS/shell/shell.c ****  */
1146:SYS/shell/shell.c **** static void shellCheckPassword(Shell *shell)
1147:SYS/shell/shell.c **** {
1148:SYS/shell/shell.c ****     if (strcmp(shell->parser.buffer, shell->info.user->data.user.password) == 0)
1149:SYS/shell/shell.c ****     {
1150:SYS/shell/shell.c ****         shell->status.isChecked = 1;
1151:SYS/shell/shell.c **** #if SHELL_SHOW_INFO == 1
1152:SYS/shell/shell.c ****         shellWriteString(shell, shellText[SHELL_TEXT_INFO]);
1153:SYS/shell/shell.c **** #endif
1154:SYS/shell/shell.c ****     }
1155:SYS/shell/shell.c ****     else
1156:SYS/shell/shell.c ****     {
1157:SYS/shell/shell.c ****         shellWriteString(shell, shellText[SHELL_TEXT_PASSWORD_ERROR]);
1158:SYS/shell/shell.c ****     }
1159:SYS/shell/shell.c ****     shell->parser.length = 0;
1160:SYS/shell/shell.c ****     shell->parser.cursor = 0;
1161:SYS/shell/shell.c **** }
1162:SYS/shell/shell.c **** 
1163:SYS/shell/shell.c **** /**
1164:SYS/shell/shell.c ****  * @brief shell设置用户
1165:SYS/shell/shell.c ****  * 
1166:SYS/shell/shell.c ****  * @param shell shell对象
1167:SYS/shell/shell.c ****  * @param user 用户
1168:SYS/shell/shell.c ****  */
1169:SYS/shell/shell.c **** static void shellSetUser(Shell *shell, const ShellCommand *user)
1170:SYS/shell/shell.c **** {
1171:SYS/shell/shell.c ****     shell->info.user = user;
1172:SYS/shell/shell.c ****     shell->status.isChecked =
1173:SYS/shell/shell.c ****         ((user->data.user.password && strlen(user->data.user.password) != 0) && (shell->parser.para
1174:SYS/shell/shell.c ****             ? 0
1175:SYS/shell/shell.c ****             : 1;
1176:SYS/shell/shell.c **** 
1177:SYS/shell/shell.c **** #if SHELL_CLS_WHEN_LOGIN == 1
1178:SYS/shell/shell.c ****     shellWriteString(shell, shellText[SHELL_TEXT_CLEAR_CONSOLE]);
1179:SYS/shell/shell.c **** #endif
1180:SYS/shell/shell.c **** #if SHELL_SHOW_INFO == 1
1181:SYS/shell/shell.c ****     if (shell->status.isChecked)
1182:SYS/shell/shell.c ****     {
1183:SYS/shell/shell.c ****         shellWriteString(shell, shellText[SHELL_TEXT_INFO]);
1184:SYS/shell/shell.c ****     }
1185:SYS/shell/shell.c **** #endif
ARM GAS  /var/folders/lx/hc4sn_b53233_zkc9xbbl97r0000gp/T//ccK5P7Jb.s 			page 31


1186:SYS/shell/shell.c **** }
1187:SYS/shell/shell.c **** 
1188:SYS/shell/shell.c **** /**
1189:SYS/shell/shell.c ****  * @brief shell写返回值
1190:SYS/shell/shell.c ****  * 
1191:SYS/shell/shell.c ****  * @param shell shell对象
1192:SYS/shell/shell.c ****  * @param value 返回值
1193:SYS/shell/shell.c ****  */
1194:SYS/shell/shell.c **** static void shellWriteReturnValue(Shell *shell, int value)
1195:SYS/shell/shell.c **** {
1196:SYS/shell/shell.c ****     char buffer[12] = "00000000000";
1197:SYS/shell/shell.c ****     shellWriteString(shell, "Return: ");
1198:SYS/shell/shell.c ****     shellWriteString(shell, &buffer[11 - shellToDec(value, buffer)]);
1199:SYS/shell/shell.c ****     shellWriteString(shell, ", 0x");
1200:SYS/shell/shell.c ****     for (short i = 0; i < 11; i++)
1201:SYS/shell/shell.c ****     {
1202:SYS/shell/shell.c ****         buffer[i] = '0';
1203:SYS/shell/shell.c ****     }
1204:SYS/shell/shell.c ****     shellToHex(value, buffer);
1205:SYS/shell/shell.c ****     shellWriteString(shell, buffer);
1206:SYS/shell/shell.c ****     shellWriteString(shell, "\r\n");
1207:SYS/shell/shell.c **** }
1208:SYS/shell/shell.c **** 
1209:SYS/shell/shell.c **** /**
1210:SYS/shell/shell.c ****  * @brief shell历史记录添加
1211:SYS/shell/shell.c ****  * 
1212:SYS/shell/shell.c ****  * @param shell shell对象
1213:SYS/shell/shell.c ****  */
1214:SYS/shell/shell.c **** static void shellHistoryAdd(Shell *shell)
1215:SYS/shell/shell.c **** {
 481              		.loc 1 1215 1 is_stmt 1 view -0
 482              		.cfi_startproc
 483              		@ args = 0, pretend = 0, frame = 0
 484              		@ frame_needed = 0, uses_anonymous_args = 0
 485              		.loc 1 1215 1 is_stmt 0 view .LVU152
 486 0000 10B5     		push	{r4, lr}
 487              	.LCFI3:
 488              		.cfi_def_cfa_offset 8
 489              		.cfi_offset 4, -8
 490              		.cfi_offset 14, -4
 491 0002 0446     		mov	r4, r0
1216:SYS/shell/shell.c ****     shell->history.offset = 0;
 492              		.loc 1 1216 5 is_stmt 1 view .LVU153
 493              		.loc 1 1216 27 is_stmt 0 view .LVU154
 494 0004 0023     		movs	r3, #0
 495 0006 A0F85430 		strh	r3, [r0, #84]	@ movhi
1217:SYS/shell/shell.c ****     if (shell->history.number > 0 && strcmp(shell->history.item[(shell->history.record == 0 ? SHELL
 496              		.loc 1 1217 5 is_stmt 1 view .LVU155
 497              		.loc 1 1217 23 is_stmt 0 view .LVU156
 498 000a B0F85030 		ldrh	r3, [r0, #80]
 499              		.loc 1 1217 8 view .LVU157
 500 000e 5BB1     		cbz	r3, .L47
 501              		.loc 1 1217 80 discriminator 1 view .LVU158
 502 0010 B0F85230 		ldrh	r3, [r0, #82]
 503              		.loc 1 1217 145 discriminator 1 view .LVU159
 504 0014 53B3     		cbz	r3, .L52
 505              		.loc 1 1217 145 discriminator 2 view .LVU160
ARM GAS  /var/folders/lx/hc4sn_b53233_zkc9xbbl97r0000gp/T//ccK5P7Jb.s 			page 32


 506 0016 013B     		subs	r3, r3, #1
 507              	.L48:
 508              		.loc 1 1217 64 discriminator 5 view .LVU161
 509 0018 0E33     		adds	r3, r3, #14
 510 001a 04EB8303 		add	r3, r4, r3, lsl #2
 511              		.loc 1 1217 38 discriminator 5 view .LVU162
 512 001e 2169     		ldr	r1, [r4, #16]
 513 0020 5868     		ldr	r0, [r3, #4]
 514              	.LVL49:
 515              		.loc 1 1217 38 discriminator 5 view .LVU163
 516 0022 FFF7FEFF 		bl	strcmp
 517              	.LVL50:
 518              		.loc 1 1217 35 discriminator 5 view .LVU164
 519 0026 00B3     		cbz	r0, .L46
 520              	.L47:
1218:SYS/shell/shell.c ****                                             shell->parser.buffer) == 0)
1219:SYS/shell/shell.c ****     {
1220:SYS/shell/shell.c ****         return;
1221:SYS/shell/shell.c ****     }
1222:SYS/shell/shell.c ****     if (shellStringCopy(shell->history.item[shell->history.record],
 521              		.loc 1 1222 5 is_stmt 1 view .LVU165
 522              		.loc 1 1222 59 is_stmt 0 view .LVU166
 523 0028 B4F85230 		ldrh	r3, [r4, #82]
 524              		.loc 1 1222 9 view .LVU167
 525 002c 0E33     		adds	r3, r3, #14
 526 002e 04EB8303 		add	r3, r4, r3, lsl #2
 527 0032 2169     		ldr	r1, [r4, #16]
 528 0034 5868     		ldr	r0, [r3, #4]
 529 0036 FFF7FEFF 		bl	shellStringCopy
 530              	.LVL51:
 531              		.loc 1 1222 8 view .LVU168
 532 003a 20B1     		cbz	r0, .L50
1223:SYS/shell/shell.c ****                         shell->parser.buffer) != 0)
1224:SYS/shell/shell.c ****     {
1225:SYS/shell/shell.c ****         shell->history.record++;
 533              		.loc 1 1225 9 is_stmt 1 view .LVU169
 534              		.loc 1 1225 23 is_stmt 0 view .LVU170
 535 003c B4F85230 		ldrh	r3, [r4, #82]
 536              		.loc 1 1225 30 view .LVU171
 537 0040 0133     		adds	r3, r3, #1
 538 0042 A4F85230 		strh	r3, [r4, #82]	@ movhi
 539              	.L50:
1226:SYS/shell/shell.c ****     }
1227:SYS/shell/shell.c ****     if (++shell->history.number > SHELL_HISTORY_MAX_NUMBER)
 540              		.loc 1 1227 5 is_stmt 1 view .LVU172
 541              		.loc 1 1227 25 is_stmt 0 view .LVU173
 542 0046 B4F85030 		ldrh	r3, [r4, #80]
 543              		.loc 1 1227 9 view .LVU174
 544 004a 0133     		adds	r3, r3, #1
 545 004c 9BB2     		uxth	r3, r3
 546              		.loc 1 1227 8 view .LVU175
 547 004e A4F85030 		strh	r3, [r4, #80]	@ movhi
 548 0052 052B     		cmp	r3, #5
 549 0054 02D9     		bls	.L51
1228:SYS/shell/shell.c ****     {
1229:SYS/shell/shell.c ****         shell->history.number = SHELL_HISTORY_MAX_NUMBER;
 550              		.loc 1 1229 9 is_stmt 1 view .LVU176
ARM GAS  /var/folders/lx/hc4sn_b53233_zkc9xbbl97r0000gp/T//ccK5P7Jb.s 			page 33


 551              		.loc 1 1229 31 is_stmt 0 view .LVU177
 552 0056 0523     		movs	r3, #5
 553 0058 A4F85030 		strh	r3, [r4, #80]	@ movhi
 554              	.L51:
1230:SYS/shell/shell.c ****     }
1231:SYS/shell/shell.c ****     if (shell->history.record >= SHELL_HISTORY_MAX_NUMBER)
 555              		.loc 1 1231 5 is_stmt 1 view .LVU178
 556              		.loc 1 1231 23 is_stmt 0 view .LVU179
 557 005c B4F85230 		ldrh	r3, [r4, #82]
 558              		.loc 1 1231 8 view .LVU180
 559 0060 042B     		cmp	r3, #4
 560 0062 02D9     		bls	.L46
1232:SYS/shell/shell.c ****     {
1233:SYS/shell/shell.c ****         shell->history.record = 0;
 561              		.loc 1 1233 9 is_stmt 1 view .LVU181
 562              		.loc 1 1233 31 is_stmt 0 view .LVU182
 563 0064 0023     		movs	r3, #0
 564 0066 A4F85230 		strh	r3, [r4, #82]	@ movhi
 565              	.L46:
1234:SYS/shell/shell.c ****     }
1235:SYS/shell/shell.c **** }
 566              		.loc 1 1235 1 view .LVU183
 567 006a 10BD     		pop	{r4, pc}
 568              	.LVL52:
 569              	.L52:
1217:SYS/shell/shell.c ****                                             shell->parser.buffer) == 0)
 570              		.loc 1 1217 145 view .LVU184
 571 006c 0423     		movs	r3, #4
 572 006e D3E7     		b	.L48
 573              		.cfi_endproc
 574              	.LFE163:
 576              		.section	.text.shellRemoveParamQuotes,"ax",%progbits
 577              		.align	1
 578              		.syntax unified
 579              		.thumb
 580              		.thumb_func
 581              		.fpu fpv4-sp-d16
 583              	shellRemoveParamQuotes:
 584              	.LVL53:
 585              	.LFB153:
 867:SYS/shell/shell.c ****     unsigned short paramLength;
 586              		.loc 1 867 1 is_stmt 1 view -0
 587              		.cfi_startproc
 588              		@ args = 0, pretend = 0, frame = 0
 589              		@ frame_needed = 0, uses_anonymous_args = 0
 867:SYS/shell/shell.c ****     unsigned short paramLength;
 590              		.loc 1 867 1 is_stmt 0 view .LVU186
 591 0000 70B5     		push	{r4, r5, r6, lr}
 592              	.LCFI4:
 593              		.cfi_def_cfa_offset 16
 594              		.cfi_offset 4, -16
 595              		.cfi_offset 5, -12
 596              		.cfi_offset 6, -8
 597              		.cfi_offset 14, -4
 598 0002 0546     		mov	r5, r0
 868:SYS/shell/shell.c ****     for (unsigned short i = 0; i < shell->parser.paramCount; i++)
 599              		.loc 1 868 5 is_stmt 1 view .LVU187
ARM GAS  /var/folders/lx/hc4sn_b53233_zkc9xbbl97r0000gp/T//ccK5P7Jb.s 			page 34


 869:SYS/shell/shell.c ****     {
 600              		.loc 1 869 5 view .LVU188
 601              	.LBB6:
 869:SYS/shell/shell.c ****     {
 602              		.loc 1 869 10 view .LVU189
 603              	.LVL54:
 869:SYS/shell/shell.c ****     {
 604              		.loc 1 869 25 is_stmt 0 view .LVU190
 605 0004 0024     		movs	r4, #0
 869:SYS/shell/shell.c ****     {
 606              		.loc 1 869 5 view .LVU191
 607 0006 0AE0     		b	.L55
 608              	.LVL55:
 609              	.L61:
 873:SYS/shell/shell.c ****             shell->parser.param[i] = &shell->parser.param[i][1];
 610              		.loc 1 873 13 is_stmt 1 view .LVU192
 873:SYS/shell/shell.c ****             shell->parser.param[i] = &shell->parser.param[i][1];
 611              		.loc 1 873 39 is_stmt 0 view .LVU193
 612 0008 0021     		movs	r1, #0
 613 000a 1170     		strb	r1, [r2]
 874:SYS/shell/shell.c ****         }
 614              		.loc 1 874 13 is_stmt 1 view .LVU194
 874:SYS/shell/shell.c ****         }
 615              		.loc 1 874 58 is_stmt 0 view .LVU195
 616 000c 221D     		adds	r2, r4, #4
 617 000e 05EB8202 		add	r2, r5, r2, lsl #2
 618 0012 5168     		ldr	r1, [r2, #4]
 874:SYS/shell/shell.c ****         }
 619              		.loc 1 874 38 view .LVU196
 620 0014 0131     		adds	r1, r1, #1
 874:SYS/shell/shell.c ****         }
 621              		.loc 1 874 36 view .LVU197
 622 0016 5160     		str	r1, [r2, #4]
 623 0018 0CE0     		b	.L56
 624              	.LVL56:
 625              	.L57:
 869:SYS/shell/shell.c ****     {
 626              		.loc 1 869 62 is_stmt 1 discriminator 2 view .LVU198
 869:SYS/shell/shell.c ****     {
 627              		.loc 1 869 63 is_stmt 0 discriminator 2 view .LVU199
 628 001a 0134     		adds	r4, r4, #1
 629              	.LVL57:
 869:SYS/shell/shell.c ****     {
 630              		.loc 1 869 63 discriminator 2 view .LVU200
 631 001c A4B2     		uxth	r4, r4
 632              	.LVL58:
 633              	.L55:
 869:SYS/shell/shell.c ****     {
 634              		.loc 1 869 32 is_stmt 1 discriminator 1 view .LVU201
 869:SYS/shell/shell.c ****     {
 635              		.loc 1 869 49 is_stmt 0 discriminator 1 view .LVU202
 636 001e EB8E     		ldrh	r3, [r5, #54]
 869:SYS/shell/shell.c ****     {
 637              		.loc 1 869 5 discriminator 1 view .LVU203
 638 0020 A342     		cmp	r3, r4
 639 0022 16D9     		bls	.L60
 871:SYS/shell/shell.c ****         {
ARM GAS  /var/folders/lx/hc4sn_b53233_zkc9xbbl97r0000gp/T//ccK5P7Jb.s 			page 35


 640              		.loc 1 871 9 is_stmt 1 view .LVU204
 871:SYS/shell/shell.c ****         {
 641              		.loc 1 871 32 is_stmt 0 view .LVU205
 642 0024 2346     		mov	r3, r4
 643 0026 221D     		adds	r2, r4, #4
 644 0028 05EB8202 		add	r2, r5, r2, lsl #2
 645 002c 5268     		ldr	r2, [r2, #4]
 871:SYS/shell/shell.c ****         {
 646              		.loc 1 871 35 view .LVU206
 647 002e 1178     		ldrb	r1, [r2]	@ zero_extendqisi2
 871:SYS/shell/shell.c ****         {
 648              		.loc 1 871 12 view .LVU207
 649 0030 2229     		cmp	r1, #34
 650 0032 E9D0     		beq	.L61
 651              	.L56:
 876:SYS/shell/shell.c ****         if (shell->parser.param[i][paramLength - 1] == '\"')
 652              		.loc 1 876 9 is_stmt 1 view .LVU208
 876:SYS/shell/shell.c ****         if (shell->parser.param[i][paramLength - 1] == '\"')
 653              		.loc 1 876 49 is_stmt 0 view .LVU209
 654 0034 0433     		adds	r3, r3, #4
 655 0036 05EB8303 		add	r3, r5, r3, lsl #2
 656 003a 5E68     		ldr	r6, [r3, #4]
 876:SYS/shell/shell.c ****         if (shell->parser.param[i][paramLength - 1] == '\"')
 657              		.loc 1 876 23 view .LVU210
 658 003c 3046     		mov	r0, r6
 659 003e FFF7FEFF 		bl	strlen
 660              	.LVL59:
 877:SYS/shell/shell.c ****         {
 661              		.loc 1 877 9 is_stmt 1 view .LVU211
 877:SYS/shell/shell.c ****         {
 662              		.loc 1 877 35 is_stmt 0 view .LVU212
 663 0042 83B2     		uxth	r3, r0
 664 0044 013B     		subs	r3, r3, #1
 665 0046 F25C     		ldrb	r2, [r6, r3]	@ zero_extendqisi2
 877:SYS/shell/shell.c ****         {
 666              		.loc 1 877 12 view .LVU213
 667 0048 222A     		cmp	r2, #34
 668 004a E6D1     		bne	.L57
 879:SYS/shell/shell.c ****         }
 669              		.loc 1 879 13 is_stmt 1 view .LVU214
 879:SYS/shell/shell.c ****         }
 670              		.loc 1 879 53 is_stmt 0 view .LVU215
 671 004c 0022     		movs	r2, #0
 672 004e F254     		strb	r2, [r6, r3]
 673 0050 E3E7     		b	.L57
 674              	.LVL60:
 675              	.L60:
 879:SYS/shell/shell.c ****         }
 676              		.loc 1 879 53 view .LVU216
 677              	.LBE6:
 882:SYS/shell/shell.c **** 
 678              		.loc 1 882 1 view .LVU217
 679 0052 70BD     		pop	{r4, r5, r6, pc}
 882:SYS/shell/shell.c **** 
 680              		.loc 1 882 1 view .LVU218
 681              		.cfi_endproc
 682              	.LFE153:
ARM GAS  /var/folders/lx/hc4sn_b53233_zkc9xbbl97r0000gp/T//ccK5P7Jb.s 			page 36


 684              		.section	.text.shellGetCurrent,"ax",%progbits
 685              		.align	1
 686              		.global	shellGetCurrent
 687              		.syntax unified
 688              		.thumb
 689              		.thumb_func
 690              		.fpu fpv4-sp-d16
 692              	shellGetCurrent:
 693              	.LFB128:
 233:SYS/shell/shell.c ****     for (short i = 0; i < SHELL_MAX_NUMBER; i++)
 694              		.loc 1 233 1 is_stmt 1 view -0
 695              		.cfi_startproc
 696              		@ args = 0, pretend = 0, frame = 0
 697              		@ frame_needed = 0, uses_anonymous_args = 0
 698              		@ link register save eliminated.
 234:SYS/shell/shell.c ****     {
 699              		.loc 1 234 5 view .LVU220
 700              	.LBB7:
 234:SYS/shell/shell.c ****     {
 701              		.loc 1 234 10 view .LVU221
 702              	.LVL61:
 234:SYS/shell/shell.c ****     {
 703              		.loc 1 234 16 is_stmt 0 view .LVU222
 704 0000 0023     		movs	r3, #0
 234:SYS/shell/shell.c ****     {
 705              		.loc 1 234 5 view .LVU223
 706 0002 01E0     		b	.L63
 707              	.LVL62:
 708              	.L64:
 234:SYS/shell/shell.c ****     {
 709              		.loc 1 234 45 is_stmt 1 discriminator 2 view .LVU224
 234:SYS/shell/shell.c ****     {
 710              		.loc 1 234 46 is_stmt 0 discriminator 2 view .LVU225
 711 0004 0133     		adds	r3, r3, #1
 712              	.LVL63:
 234:SYS/shell/shell.c ****     {
 713              		.loc 1 234 46 discriminator 2 view .LVU226
 714 0006 1BB2     		sxth	r3, r3
 715              	.LVL64:
 716              	.L63:
 234:SYS/shell/shell.c ****     {
 717              		.loc 1 234 23 is_stmt 1 discriminator 1 view .LVU227
 234:SYS/shell/shell.c ****     {
 718              		.loc 1 234 5 is_stmt 0 discriminator 1 view .LVU228
 719 0008 042B     		cmp	r3, #4
 720 000a 0ADC     		bgt	.L67
 236:SYS/shell/shell.c ****         {
 721              		.loc 1 236 9 is_stmt 1 view .LVU229
 236:SYS/shell/shell.c ****         {
 722              		.loc 1 236 22 is_stmt 0 view .LVU230
 723 000c 064A     		ldr	r2, .L68
 724 000e 52F82300 		ldr	r0, [r2, r3, lsl #2]
 236:SYS/shell/shell.c ****         {
 725              		.loc 1 236 12 view .LVU231
 726 0012 0028     		cmp	r0, #0
 727 0014 F6D0     		beq	.L64
 236:SYS/shell/shell.c ****         {
ARM GAS  /var/folders/lx/hc4sn_b53233_zkc9xbbl97r0000gp/T//ccK5P7Jb.s 			page 37


 728              		.loc 1 236 26 discriminator 1 view .LVU232
 729 0016 90F86020 		ldrb	r2, [r0, #96]	@ zero_extendqisi2
 730 001a 12F0020F 		tst	r2, #2
 731 001e F1D0     		beq	.L64
 732 0020 00E0     		b	.L62
 733              	.L67:
 734              	.LBE7:
 241:SYS/shell/shell.c **** }
 735              		.loc 1 241 12 view .LVU233
 736 0022 0020     		movs	r0, #0
 737              	.L62:
 242:SYS/shell/shell.c **** 
 738              		.loc 1 242 1 view .LVU234
 739 0024 7047     		bx	lr
 740              	.L69:
 741 0026 00BF     		.align	2
 742              	.L68:
 743 0028 00000000 		.word	.LANCHOR0
 744              		.cfi_endproc
 745              	.LFE128:
 747              		.section	.text.shellWriteByte,"ax",%progbits
 748              		.align	1
 749              		.global	shellWriteByte
 750              		.syntax unified
 751              		.thumb
 752              		.thumb_func
 753              		.fpu fpv4-sp-d16
 755              	shellWriteByte:
 756              	.LVL65:
 757              	.LFB129:
 251:SYS/shell/shell.c ****     shell->write(&data, sizeof(data));
 758              		.loc 1 251 1 is_stmt 1 view -0
 759              		.cfi_startproc
 760              		@ args = 0, pretend = 0, frame = 8
 761              		@ frame_needed = 0, uses_anonymous_args = 0
 251:SYS/shell/shell.c ****     shell->write(&data, sizeof(data));
 762              		.loc 1 251 1 is_stmt 0 view .LVU236
 763 0000 00B5     		push	{lr}
 764              	.LCFI5:
 765              		.cfi_def_cfa_offset 4
 766              		.cfi_offset 14, -4
 767 0002 83B0     		sub	sp, sp, #12
 768              	.LCFI6:
 769              		.cfi_def_cfa_offset 16
 770 0004 8DF80710 		strb	r1, [sp, #7]
 252:SYS/shell/shell.c **** }
 771              		.loc 1 252 5 is_stmt 1 view .LVU237
 252:SYS/shell/shell.c **** }
 772              		.loc 1 252 10 is_stmt 0 view .LVU238
 773 0008 836E     		ldr	r3, [r0, #104]
 252:SYS/shell/shell.c **** }
 774              		.loc 1 252 5 view .LVU239
 775 000a 0121     		movs	r1, #1
 776              	.LVL66:
 252:SYS/shell/shell.c **** }
 777              		.loc 1 252 5 view .LVU240
 778 000c 0DF10700 		add	r0, sp, #7
ARM GAS  /var/folders/lx/hc4sn_b53233_zkc9xbbl97r0000gp/T//ccK5P7Jb.s 			page 38


 779              	.LVL67:
 252:SYS/shell/shell.c **** }
 780              		.loc 1 252 5 view .LVU241
 781 0010 9847     		blx	r3
 782              	.LVL68:
 253:SYS/shell/shell.c **** 
 783              		.loc 1 253 1 view .LVU242
 784 0012 03B0     		add	sp, sp, #12
 785              	.LCFI7:
 786              		.cfi_def_cfa_offset 4
 787              		@ sp needed
 788 0014 5DF804FB 		ldr	pc, [sp], #4
 789              		.cfi_endproc
 790              	.LFE129:
 792              		.section	.text.shellRight,"ax",%progbits
 793              		.align	1
 794              		.global	shellRight
 795              		.syntax unified
 796              		.thumb
 797              		.thumb_func
 798              		.fpu fpv4-sp-d16
 800              	shellRight:
 801              	.LVL69:
 802              	.LFB169:
1236:SYS/shell/shell.c **** 
1237:SYS/shell/shell.c **** /**
1238:SYS/shell/shell.c ****  * @brief shell历史记录查找
1239:SYS/shell/shell.c ****  * 
1240:SYS/shell/shell.c ****  * @param shell shell对象
1241:SYS/shell/shell.c ****  * @param dir 方向 {@code <0}往上查找 {@code >0}往下查找
1242:SYS/shell/shell.c ****  */
1243:SYS/shell/shell.c **** static void shellHistory(Shell *shell, signed char dir)
1244:SYS/shell/shell.c **** {
1245:SYS/shell/shell.c ****     if (dir > 0)
1246:SYS/shell/shell.c ****     {
1247:SYS/shell/shell.c ****         if (shell->history.offset-- <=
1248:SYS/shell/shell.c ****             -((shell->history.number > shell->history.record) ? shell->history.number : shell->hist
1249:SYS/shell/shell.c ****         {
1250:SYS/shell/shell.c ****             shell->history.offset = -((shell->history.number > shell->history.record)
1251:SYS/shell/shell.c ****                                           ? shell->history.number
1252:SYS/shell/shell.c ****                                           : shell->history.record);
1253:SYS/shell/shell.c ****         }
1254:SYS/shell/shell.c ****     }
1255:SYS/shell/shell.c ****     else if (dir < 0)
1256:SYS/shell/shell.c ****     {
1257:SYS/shell/shell.c ****         if (++shell->history.offset > 0)
1258:SYS/shell/shell.c ****         {
1259:SYS/shell/shell.c ****             shell->history.offset = 0;
1260:SYS/shell/shell.c ****             return;
1261:SYS/shell/shell.c ****         }
1262:SYS/shell/shell.c ****     }
1263:SYS/shell/shell.c ****     else
1264:SYS/shell/shell.c ****     {
1265:SYS/shell/shell.c ****         return;
1266:SYS/shell/shell.c ****     }
1267:SYS/shell/shell.c ****     shellClearCommandLine(shell);
1268:SYS/shell/shell.c ****     if (shell->history.offset == 0)
ARM GAS  /var/folders/lx/hc4sn_b53233_zkc9xbbl97r0000gp/T//ccK5P7Jb.s 			page 39


1269:SYS/shell/shell.c ****     {
1270:SYS/shell/shell.c ****         shell->parser.cursor = shell->parser.length = 0;
1271:SYS/shell/shell.c ****     }
1272:SYS/shell/shell.c ****     else
1273:SYS/shell/shell.c ****     {
1274:SYS/shell/shell.c ****         if ((shell->parser.length = shellStringCopy(shell->parser.buffer,
1275:SYS/shell/shell.c ****                                                     shell->history.item[(shell->history.record + SH
1276:SYS/shell/shell.c ****         {
1277:SYS/shell/shell.c ****             return;
1278:SYS/shell/shell.c ****         }
1279:SYS/shell/shell.c ****         shell->parser.cursor = shell->parser.length;
1280:SYS/shell/shell.c ****         shellWriteString(shell, shell->parser.buffer);
1281:SYS/shell/shell.c ****     }
1282:SYS/shell/shell.c **** }
1283:SYS/shell/shell.c **** 
1284:SYS/shell/shell.c **** /**
1285:SYS/shell/shell.c ****  * @brief shell 常规输入
1286:SYS/shell/shell.c ****  * 
1287:SYS/shell/shell.c ****  * @param shell shell 对象
1288:SYS/shell/shell.c ****  * @param data 输入字符
1289:SYS/shell/shell.c ****  */
1290:SYS/shell/shell.c **** void shellNormalInput(Shell *shell, char data)
1291:SYS/shell/shell.c **** {
1292:SYS/shell/shell.c ****     shell->status.tabFlag = 0;
1293:SYS/shell/shell.c ****     shellInsertByte(shell, data);
1294:SYS/shell/shell.c **** }
1295:SYS/shell/shell.c **** 
1296:SYS/shell/shell.c **** /**
1297:SYS/shell/shell.c ****  * @brief shell运行命令
1298:SYS/shell/shell.c ****  * 
1299:SYS/shell/shell.c ****  * @param shell shell对象
1300:SYS/shell/shell.c ****  */
1301:SYS/shell/shell.c **** void shellExec(Shell *shell)
1302:SYS/shell/shell.c **** {
1303:SYS/shell/shell.c **** 
1304:SYS/shell/shell.c ****     if (shell->parser.length == 0)
1305:SYS/shell/shell.c ****     {
1306:SYS/shell/shell.c ****         return;
1307:SYS/shell/shell.c ****     }
1308:SYS/shell/shell.c **** 
1309:SYS/shell/shell.c ****     shell->parser.buffer[shell->parser.length] = 0;
1310:SYS/shell/shell.c **** 
1311:SYS/shell/shell.c ****     if (shell->status.isChecked)
1312:SYS/shell/shell.c ****     {
1313:SYS/shell/shell.c ****         shellHistoryAdd(shell);
1314:SYS/shell/shell.c ****         shellParserParam(shell);
1315:SYS/shell/shell.c ****         shell->parser.length = shell->parser.cursor = 0;
1316:SYS/shell/shell.c ****         if (shell->parser.paramCount == 0)
1317:SYS/shell/shell.c ****         {
1318:SYS/shell/shell.c ****             return;
1319:SYS/shell/shell.c ****         }
1320:SYS/shell/shell.c ****         shellWriteString(shell, "\r\n");
1321:SYS/shell/shell.c **** 
1322:SYS/shell/shell.c ****         ShellCommand *command = shellSeekCommand(shell,
1323:SYS/shell/shell.c ****                                                  shell->parser.param[0],
1324:SYS/shell/shell.c ****                                                  shell->commandList.base,
1325:SYS/shell/shell.c ****                                                  0);
ARM GAS  /var/folders/lx/hc4sn_b53233_zkc9xbbl97r0000gp/T//ccK5P7Jb.s 			page 40


1326:SYS/shell/shell.c ****         if (command != NULL)
1327:SYS/shell/shell.c ****         {
1328:SYS/shell/shell.c ****             shellRunCommand(shell, command);
1329:SYS/shell/shell.c ****         }
1330:SYS/shell/shell.c ****         else
1331:SYS/shell/shell.c ****         {
1332:SYS/shell/shell.c ****             shellWriteString(shell, shellText[SHELL_TEXT_CMD_NOT_FOUND]);
1333:SYS/shell/shell.c ****         }
1334:SYS/shell/shell.c ****     }
1335:SYS/shell/shell.c ****     else
1336:SYS/shell/shell.c ****     {
1337:SYS/shell/shell.c ****         shellCheckPassword(shell);
1338:SYS/shell/shell.c ****     }
1339:SYS/shell/shell.c **** }
1340:SYS/shell/shell.c **** 
1341:SYS/shell/shell.c **** /**
1342:SYS/shell/shell.c ****  * @brief shell上方向键输入
1343:SYS/shell/shell.c ****  * 
1344:SYS/shell/shell.c ****  * @param shell shell对象
1345:SYS/shell/shell.c ****  */
1346:SYS/shell/shell.c **** void shellUp(Shell *shell)
1347:SYS/shell/shell.c **** {
1348:SYS/shell/shell.c ****     shellHistory(shell, 1);
1349:SYS/shell/shell.c **** }
1350:SYS/shell/shell.c **** SHELL_EXPORT_KEY(SHELL_CMD_PERMISSION(0), 0x1B5B4100, shellUp, up);
1351:SYS/shell/shell.c **** 
1352:SYS/shell/shell.c **** /**
1353:SYS/shell/shell.c ****  * @brief shell下方向键输入
1354:SYS/shell/shell.c ****  * 
1355:SYS/shell/shell.c ****  * @param shell shell对象
1356:SYS/shell/shell.c ****  */
1357:SYS/shell/shell.c **** void shellDown(Shell *shell)
1358:SYS/shell/shell.c **** {
1359:SYS/shell/shell.c ****     shellHistory(shell, -1);
1360:SYS/shell/shell.c **** }
1361:SYS/shell/shell.c **** SHELL_EXPORT_KEY(SHELL_CMD_PERMISSION(0), 0x1B5B4200, shellDown, down);
1362:SYS/shell/shell.c **** 
1363:SYS/shell/shell.c **** /**
1364:SYS/shell/shell.c ****  * @brief shell右方向键输入
1365:SYS/shell/shell.c ****  * 
1366:SYS/shell/shell.c ****  * @param shell shell对象
1367:SYS/shell/shell.c ****  */
1368:SYS/shell/shell.c **** void shellRight(Shell *shell)
1369:SYS/shell/shell.c **** {
 803              		.loc 1 1369 1 is_stmt 1 view -0
 804              		.cfi_startproc
 805              		@ args = 0, pretend = 0, frame = 0
 806              		@ frame_needed = 0, uses_anonymous_args = 0
 807              		.loc 1 1369 1 is_stmt 0 view .LVU244
 808 0000 08B5     		push	{r3, lr}
 809              	.LCFI8:
 810              		.cfi_def_cfa_offset 8
 811              		.cfi_offset 3, -8
 812              		.cfi_offset 14, -4
1370:SYS/shell/shell.c ****     if (shell->parser.cursor < shell->parser.length)
 813              		.loc 1 1370 5 is_stmt 1 view .LVU245
 814              		.loc 1 1370 22 is_stmt 0 view .LVU246
ARM GAS  /var/folders/lx/hc4sn_b53233_zkc9xbbl97r0000gp/T//ccK5P7Jb.s 			page 41


 815 0002 C389     		ldrh	r3, [r0, #14]
 816              		.loc 1 1370 45 view .LVU247
 817 0004 8289     		ldrh	r2, [r0, #12]
 818              		.loc 1 1370 8 view .LVU248
 819 0006 9342     		cmp	r3, r2
 820 0008 00D3     		bcc	.L75
 821              	.LVL70:
 822              	.L72:
1371:SYS/shell/shell.c ****     {
1372:SYS/shell/shell.c ****         shellWriteByte(shell, shell->parser.buffer[shell->parser.cursor++]);
1373:SYS/shell/shell.c ****     }
1374:SYS/shell/shell.c **** }
 823              		.loc 1 1374 1 view .LVU249
 824 000a 08BD     		pop	{r3, pc}
 825              	.LVL71:
 826              	.L75:
1372:SYS/shell/shell.c ****     }
 827              		.loc 1 1372 9 is_stmt 1 view .LVU250
1372:SYS/shell/shell.c ****     }
 828              		.loc 1 1372 44 is_stmt 0 view .LVU251
 829 000c 0269     		ldr	r2, [r0, #16]
1372:SYS/shell/shell.c ****     }
 830              		.loc 1 1372 72 view .LVU252
 831 000e 591C     		adds	r1, r3, #1
 832 0010 C181     		strh	r1, [r0, #14]	@ movhi
1372:SYS/shell/shell.c ****     }
 833              		.loc 1 1372 9 view .LVU253
 834 0012 D15C     		ldrb	r1, [r2, r3]	@ zero_extendqisi2
 835 0014 FFF7FEFF 		bl	shellWriteByte
 836              	.LVL72:
 837              		.loc 1 1374 1 view .LVU254
 838 0018 F7E7     		b	.L72
 839              		.cfi_endproc
 840              	.LFE169:
 842              		.section	.text.shellLeft,"ax",%progbits
 843              		.align	1
 844              		.global	shellLeft
 845              		.syntax unified
 846              		.thumb
 847              		.thumb_func
 848              		.fpu fpv4-sp-d16
 850              	shellLeft:
 851              	.LVL73:
 852              	.LFB170:
1375:SYS/shell/shell.c **** SHELL_EXPORT_KEY(SHELL_CMD_PERMISSION(0) | SHELL_CMD_ENABLE_UNCHECKED,
1376:SYS/shell/shell.c ****                  0x1B5B4300, shellRight, right);
1377:SYS/shell/shell.c **** 
1378:SYS/shell/shell.c **** /**
1379:SYS/shell/shell.c ****  * @brief shell左方向键输入
1380:SYS/shell/shell.c ****  * 
1381:SYS/shell/shell.c ****  * @param shell shell对象
1382:SYS/shell/shell.c ****  */
1383:SYS/shell/shell.c **** void shellLeft(Shell *shell)
1384:SYS/shell/shell.c **** {
 853              		.loc 1 1384 1 is_stmt 1 view -0
 854              		.cfi_startproc
 855              		@ args = 0, pretend = 0, frame = 0
ARM GAS  /var/folders/lx/hc4sn_b53233_zkc9xbbl97r0000gp/T//ccK5P7Jb.s 			page 42


 856              		@ frame_needed = 0, uses_anonymous_args = 0
1385:SYS/shell/shell.c ****     if (shell->parser.cursor > 0)
 857              		.loc 1 1385 5 view .LVU256
 858              		.loc 1 1385 22 is_stmt 0 view .LVU257
 859 0000 C389     		ldrh	r3, [r0, #14]
 860              		.loc 1 1385 8 view .LVU258
 861 0002 03B9     		cbnz	r3, .L82
 862 0004 7047     		bx	lr
 863              	.L82:
1384:SYS/shell/shell.c ****     if (shell->parser.cursor > 0)
 864              		.loc 1 1384 1 view .LVU259
 865 0006 10B5     		push	{r4, lr}
 866              	.LCFI9:
 867              		.cfi_def_cfa_offset 8
 868              		.cfi_offset 4, -8
 869              		.cfi_offset 14, -4
 870 0008 0446     		mov	r4, r0
1386:SYS/shell/shell.c ****     {
1387:SYS/shell/shell.c ****         shellWriteByte(shell, '\b');
 871              		.loc 1 1387 9 is_stmt 1 view .LVU260
 872 000a 0821     		movs	r1, #8
 873 000c FFF7FEFF 		bl	shellWriteByte
 874              	.LVL74:
1388:SYS/shell/shell.c ****         shell->parser.cursor--;
 875              		.loc 1 1388 9 view .LVU261
 876              		.loc 1 1388 22 is_stmt 0 view .LVU262
 877 0010 E389     		ldrh	r3, [r4, #14]
 878              		.loc 1 1388 29 view .LVU263
 879 0012 013B     		subs	r3, r3, #1
 880 0014 E381     		strh	r3, [r4, #14]	@ movhi
1389:SYS/shell/shell.c ****     }
1390:SYS/shell/shell.c **** }
 881              		.loc 1 1390 1 view .LVU264
 882 0016 10BD     		pop	{r4, pc}
 883              		.loc 1 1390 1 view .LVU265
 884              		.cfi_endproc
 885              	.LFE170:
 887              		.section	.text.shellWriteString,"ax",%progbits
 888              		.align	1
 889              		.global	shellWriteString
 890              		.syntax unified
 891              		.thumb
 892              		.thumb_func
 893              		.fpu fpv4-sp-d16
 895              	shellWriteString:
 896              	.LVL75:
 897              	.LFB130:
 264:SYS/shell/shell.c ****     unsigned short count = 0;
 898              		.loc 1 264 1 is_stmt 1 view -0
 899              		.cfi_startproc
 900              		@ args = 0, pretend = 0, frame = 0
 901              		@ frame_needed = 0, uses_anonymous_args = 0
 264:SYS/shell/shell.c ****     unsigned short count = 0;
 902              		.loc 1 264 1 is_stmt 0 view .LVU267
 903 0000 38B5     		push	{r3, r4, r5, lr}
 904              	.LCFI10:
 905              		.cfi_def_cfa_offset 16
ARM GAS  /var/folders/lx/hc4sn_b53233_zkc9xbbl97r0000gp/T//ccK5P7Jb.s 			page 43


 906              		.cfi_offset 3, -16
 907              		.cfi_offset 4, -12
 908              		.cfi_offset 5, -8
 909              		.cfi_offset 14, -4
 265:SYS/shell/shell.c ****     SHELL_ASSERT(shell->write, return 0);
 910              		.loc 1 265 5 is_stmt 1 view .LVU268
 911              	.LVL76:
 266:SYS/shell/shell.c **** 
 912              		.loc 1 266 5 view .LVU269
 913 0002 856E     		ldr	r5, [r0, #104]
 914 0004 35B1     		cbz	r5, .L84
 915 0006 0C46     		mov	r4, r1
 266:SYS/shell/shell.c **** 
 916              		.loc 1 266 41 discriminator 2 view .LVU270
 268:SYS/shell/shell.c ****     return count;
 917              		.loc 1 268 5 discriminator 2 view .LVU271
 268:SYS/shell/shell.c ****     return count;
 918              		.loc 1 268 26 is_stmt 0 discriminator 2 view .LVU272
 919 0008 0846     		mov	r0, r1
 920              	.LVL77:
 268:SYS/shell/shell.c ****     return count;
 921              		.loc 1 268 26 discriminator 2 view .LVU273
 922 000a FFF7FEFF 		bl	strlen
 923              	.LVL78:
 268:SYS/shell/shell.c ****     return count;
 924              		.loc 1 268 5 discriminator 2 view .LVU274
 925 000e 81B2     		uxth	r1, r0
 926 0010 2046     		mov	r0, r4
 927 0012 A847     		blx	r5
 928              	.LVL79:
 269:SYS/shell/shell.c **** }
 929              		.loc 1 269 5 is_stmt 1 discriminator 2 view .LVU275
 930              	.L84:
 270:SYS/shell/shell.c **** 
 931              		.loc 1 270 1 is_stmt 0 view .LVU276
 932 0014 0020     		movs	r0, #0
 933 0016 38BD     		pop	{r3, r4, r5, pc}
 934              		.cfi_endproc
 935              	.LFE130:
 937              		.section	.rodata.shellSetUser.str1.4,"aMS",%progbits,1
 938              		.align	2
 939              	.LC0:
 940 0000 1B5B324A 		.ascii	"\033[2J\033[1H\000"
 940      1B5B3148 
 940      00
 941 0009 000000   		.align	2
 942              	.LC1:
 943 000c 0D0A0D0A 		.ascii	"\015\012\015\012/************  BitRtos  ***********"
 943      2F2A2A2A 
 943      2A2A2A2A 
 943      2A2A2A2A 
 943      2A202042 
 944 0033 2A5C720A 		.ascii	"*\\r\012\015\012Team Mate:        8_B!T0\015\012   "
 944      0D0A5465 
 944      616D204D 
 944      6174653A 
 944      20202020 
ARM GAS  /var/folders/lx/hc4sn_b53233_zkc9xbbl97r0000gp/T//ccK5P7Jb.s 			page 44


 945 0056 20202020 		.ascii	"               WHY\015\012\015\012Build:           "
 945      20202020 
 945      20202020 
 945      20202057 
 945      48590D0A 
 946 007d 204E6F76 		.ascii	" Nov 30 2021 16:35:49\015\012Shell   Version:  3.0."
 946      20333020 
 946      32303231 
 946      2031363A 
 946      33353A34 
 947 00aa 360D0A42 		.ascii	"6\015\012BitRtos Version:  1.0.0\015\012\000"
 947      69745274 
 947      6F732056 
 947      65727369 
 947      6F6E3A20 
 948              		.section	.text.shellSetUser,"ax",%progbits
 949              		.align	1
 950              		.syntax unified
 951              		.thumb
 952              		.thumb_func
 953              		.fpu fpv4-sp-d16
 955              	shellSetUser:
 956              	.LVL80:
 957              	.LFB161:
1170:SYS/shell/shell.c ****     shell->info.user = user;
 958              		.loc 1 1170 1 is_stmt 1 view -0
 959              		.cfi_startproc
 960              		@ args = 0, pretend = 0, frame = 0
 961              		@ frame_needed = 0, uses_anonymous_args = 0
1170:SYS/shell/shell.c ****     shell->info.user = user;
 962              		.loc 1 1170 1 is_stmt 0 view .LVU278
 963 0000 10B5     		push	{r4, lr}
 964              	.LCFI11:
 965              		.cfi_def_cfa_offset 8
 966              		.cfi_offset 4, -8
 967              		.cfi_offset 14, -4
 968 0002 0446     		mov	r4, r0
1171:SYS/shell/shell.c ****     shell->status.isChecked =
 969              		.loc 1 1171 5 is_stmt 1 view .LVU279
1171:SYS/shell/shell.c ****     shell->status.isChecked =
 970              		.loc 1 1171 22 is_stmt 0 view .LVU280
 971 0004 0160     		str	r1, [r0]
1172:SYS/shell/shell.c ****         ((user->data.user.password && strlen(user->data.user.password) != 0) && (shell->parser.para
 972              		.loc 1 1172 5 is_stmt 1 view .LVU281
1173:SYS/shell/shell.c ****             ? 0
 973              		.loc 1 1173 26 is_stmt 0 view .LVU282
 974 0006 8868     		ldr	r0, [r1, #8]
 975              	.LVL81:
1175:SYS/shell/shell.c **** 
 976              		.loc 1 1175 13 view .LVU283
 977 0008 50B1     		cbz	r0, .L89
1173:SYS/shell/shell.c ****             ? 0
 978              		.loc 1 1173 72 view .LVU284
 979 000a 0378     		ldrb	r3, [r0]	@ zero_extendqisi2
1173:SYS/shell/shell.c ****             ? 0
 980              		.loc 1 1173 36 view .LVU285
 981 000c 53B1     		cbz	r3, .L90
ARM GAS  /var/folders/lx/hc4sn_b53233_zkc9xbbl97r0000gp/T//ccK5P7Jb.s 			page 45


1173:SYS/shell/shell.c ****             ? 0
 982              		.loc 1 1173 95 discriminator 1 view .LVU286
 983 000e E38E     		ldrh	r3, [r4, #54]
1175:SYS/shell/shell.c **** 
 984              		.loc 1 1175 13 discriminator 1 view .LVU287
 985 0010 012B     		cmp	r3, #1
 986 0012 18D9     		bls	.L91
1173:SYS/shell/shell.c ****             ? 0
 987              		.loc 1 1173 114 view .LVU288
 988 0014 A169     		ldr	r1, [r4, #24]
 989              	.LVL82:
1173:SYS/shell/shell.c ****             ? 0
 990              		.loc 1 1173 114 view .LVU289
 991 0016 FFF7FEFF 		bl	strcmp
 992              	.LVL83:
1173:SYS/shell/shell.c ****             ? 0
 993              		.loc 1 1173 111 view .LVU290
 994 001a B0B1     		cbz	r0, .L92
1175:SYS/shell/shell.c **** 
 995              		.loc 1 1175 13 view .LVU291
 996 001c 0022     		movs	r2, #0
 997 001e 02E0     		b	.L87
 998              	.LVL84:
 999              	.L89:
1175:SYS/shell/shell.c **** 
 1000              		.loc 1 1175 13 view .LVU292
 1001 0020 0122     		movs	r2, #1
 1002 0022 00E0     		b	.L87
 1003              	.L90:
 1004 0024 0122     		movs	r2, #1
 1005              	.LVL85:
 1006              	.L87:
1172:SYS/shell/shell.c ****         ((user->data.user.password && strlen(user->data.user.password) != 0) && (shell->parser.para
 1007              		.loc 1 1172 29 discriminator 4 view .LVU293
 1008 0026 94F86030 		ldrb	r3, [r4, #96]	@ zero_extendqisi2
 1009 002a 62F30003 		bfi	r3, r2, #0, #1
 1010 002e 84F86030 		strb	r3, [r4, #96]
1178:SYS/shell/shell.c **** #endif
 1011              		.loc 1 1178 5 is_stmt 1 discriminator 4 view .LVU294
 1012 0032 0949     		ldr	r1, .L95
 1013 0034 2046     		mov	r0, r4
 1014 0036 FFF7FEFF 		bl	shellWriteString
 1015              	.LVL86:
1181:SYS/shell/shell.c ****     {
 1016              		.loc 1 1181 5 discriminator 4 view .LVU295
1181:SYS/shell/shell.c ****     {
 1017              		.loc 1 1181 9 is_stmt 0 discriminator 4 view .LVU296
 1018 003a 94F86030 		ldrb	r3, [r4, #96]	@ zero_extendqisi2
1181:SYS/shell/shell.c ****     {
 1019              		.loc 1 1181 8 discriminator 4 view .LVU297
 1020 003e 13F0010F 		tst	r3, #1
 1021 0042 04D1     		bne	.L94
 1022              	.L86:
1186:SYS/shell/shell.c **** 
 1023              		.loc 1 1186 1 view .LVU298
 1024 0044 10BD     		pop	{r4, pc}
 1025              	.LVL87:
ARM GAS  /var/folders/lx/hc4sn_b53233_zkc9xbbl97r0000gp/T//ccK5P7Jb.s 			page 46


 1026              	.L91:
1175:SYS/shell/shell.c **** 
 1027              		.loc 1 1175 13 view .LVU299
 1028 0046 0022     		movs	r2, #0
 1029 0048 EDE7     		b	.L87
 1030              	.LVL88:
 1031              	.L92:
1175:SYS/shell/shell.c **** 
 1032              		.loc 1 1175 13 view .LVU300
 1033 004a 0122     		movs	r2, #1
 1034 004c EBE7     		b	.L87
 1035              	.L94:
1183:SYS/shell/shell.c ****     }
 1036              		.loc 1 1183 9 is_stmt 1 view .LVU301
 1037 004e 0349     		ldr	r1, .L95+4
 1038 0050 2046     		mov	r0, r4
 1039 0052 FFF7FEFF 		bl	shellWriteString
 1040              	.LVL89:
1186:SYS/shell/shell.c **** 
 1041              		.loc 1 1186 1 is_stmt 0 view .LVU302
 1042 0056 F5E7     		b	.L86
 1043              	.L96:
 1044              		.align	2
 1045              	.L95:
 1046 0058 00000000 		.word	.LC0
 1047 005c 0C000000 		.word	.LC1
 1048              		.cfi_endproc
 1049              	.LFE161:
 1051              		.section	.rodata.shellWriteCommandLine.str1.4,"aMS",%progbits,1
 1052              		.align	2
 1053              	.LC2:
 1054 0000 2F00     		.ascii	"/\000"
 1055 0002 0000     		.align	2
 1056              	.LC3:
 1057 0004 0D0A00   		.ascii	"\015\012\000"
 1058 0007 00       		.align	2
 1059              	.LC4:
 1060 0008 3A00     		.ascii	":\000"
 1061 000a 0000     		.align	2
 1062              	.LC5:
 1063 000c 242000   		.ascii	"$ \000"
 1064 000f 00       		.align	2
 1065              	.LC6:
 1066 0010 0D0A506C 		.ascii	"\015\012Please input password:\000"
 1066      65617365 
 1066      20696E70 
 1066      75742070 
 1066      61737377 
 1067              		.section	.text.shellWriteCommandLine,"ax",%progbits
 1068              		.align	1
 1069              		.syntax unified
 1070              		.thumb
 1071              		.thumb_func
 1072              		.fpu fpv4-sp-d16
 1074              	shellWriteCommandLine:
 1075              	.LVL90:
 1076              	.LFB132:
ARM GAS  /var/folders/lx/hc4sn_b53233_zkc9xbbl97r0000gp/T//ccK5P7Jb.s 			page 47


 307:SYS/shell/shell.c ****     if (shell->status.isChecked)
 1077              		.loc 1 307 1 is_stmt 1 view -0
 1078              		.cfi_startproc
 1079              		@ args = 0, pretend = 0, frame = 0
 1080              		@ frame_needed = 0, uses_anonymous_args = 0
 307:SYS/shell/shell.c ****     if (shell->status.isChecked)
 1081              		.loc 1 307 1 is_stmt 0 view .LVU304
 1082 0000 10B5     		push	{r4, lr}
 1083              	.LCFI12:
 1084              		.cfi_def_cfa_offset 8
 1085              		.cfi_offset 4, -8
 1086              		.cfi_offset 14, -4
 1087 0002 0446     		mov	r4, r0
 308:SYS/shell/shell.c ****     {
 1088              		.loc 1 308 5 is_stmt 1 view .LVU305
 308:SYS/shell/shell.c ****     {
 1089              		.loc 1 308 9 is_stmt 0 view .LVU306
 1090 0004 90F86030 		ldrb	r3, [r0, #96]	@ zero_extendqisi2
 308:SYS/shell/shell.c ****     {
 1091              		.loc 1 308 8 view .LVU307
 1092 0008 13F0010F 		tst	r3, #1
 1093 000c 19D0     		beq	.L98
 310:SYS/shell/shell.c ****         {
 1094              		.loc 1 310 9 is_stmt 1 view .LVU308
 310:SYS/shell/shell.c ****         {
 1095              		.loc 1 310 12 is_stmt 0 view .LVU309
 1096 000e 91B9     		cbnz	r1, .L103
 1097              	.LVL91:
 1098              	.L99:
 314:SYS/shell/shell.c ****         shellWriteString(shell, ":");
 1099              		.loc 1 314 9 is_stmt 1 view .LVU310
 314:SYS/shell/shell.c ****         shellWriteString(shell, ":");
 1100              		.loc 1 314 44 is_stmt 0 view .LVU311
 1101 0010 2368     		ldr	r3, [r4]
 314:SYS/shell/shell.c ****         shellWriteString(shell, ":");
 1102              		.loc 1 314 9 view .LVU312
 1103 0012 5968     		ldr	r1, [r3, #4]
 1104 0014 2046     		mov	r0, r4
 1105 0016 FFF7FEFF 		bl	shellWriteString
 1106              	.LVL92:
 315:SYS/shell/shell.c ****         shellWriteString(shell, shell->info.path ? shell->info.path : "/");
 1107              		.loc 1 315 9 is_stmt 1 view .LVU313
 1108 001a 0C49     		ldr	r1, .L105
 1109 001c 2046     		mov	r0, r4
 1110 001e FFF7FEFF 		bl	shellWriteString
 1111              	.LVL93:
 316:SYS/shell/shell.c ****         shellWriteString(shell, "$ ");
 1112              		.loc 1 316 9 view .LVU314
 316:SYS/shell/shell.c ****         shellWriteString(shell, "$ ");
 1113              		.loc 1 316 44 is_stmt 0 view .LVU315
 1114 0022 A168     		ldr	r1, [r4, #8]
 316:SYS/shell/shell.c ****         shellWriteString(shell, "$ ");
 1115              		.loc 1 316 9 view .LVU316
 1116 0024 59B1     		cbz	r1, .L104
 1117              	.L100:
 316:SYS/shell/shell.c ****         shellWriteString(shell, "$ ");
 1118              		.loc 1 316 9 discriminator 4 view .LVU317
ARM GAS  /var/folders/lx/hc4sn_b53233_zkc9xbbl97r0000gp/T//ccK5P7Jb.s 			page 48


 1119 0026 2046     		mov	r0, r4
 1120 0028 FFF7FEFF 		bl	shellWriteString
 1121              	.LVL94:
 317:SYS/shell/shell.c ****     }
 1122              		.loc 1 317 9 is_stmt 1 discriminator 4 view .LVU318
 1123 002c 0849     		ldr	r1, .L105+4
 1124 002e 2046     		mov	r0, r4
 1125 0030 FFF7FEFF 		bl	shellWriteString
 1126              	.LVL95:
 1127              	.L97:
 323:SYS/shell/shell.c **** 
 1128              		.loc 1 323 1 is_stmt 0 view .LVU319
 1129 0034 10BD     		pop	{r4, pc}
 1130              	.LVL96:
 1131              	.L103:
 312:SYS/shell/shell.c ****         }
 1132              		.loc 1 312 13 is_stmt 1 view .LVU320
 1133 0036 0749     		ldr	r1, .L105+8
 1134              	.LVL97:
 312:SYS/shell/shell.c ****         }
 1135              		.loc 1 312 13 is_stmt 0 view .LVU321
 1136 0038 FFF7FEFF 		bl	shellWriteString
 1137              	.LVL98:
 312:SYS/shell/shell.c ****         }
 1138              		.loc 1 312 13 view .LVU322
 1139 003c E8E7     		b	.L99
 1140              	.L104:
 316:SYS/shell/shell.c ****         shellWriteString(shell, "$ ");
 1141              		.loc 1 316 9 view .LVU323
 1142 003e 0649     		ldr	r1, .L105+12
 1143 0040 F1E7     		b	.L100
 1144              	.LVL99:
 1145              	.L98:
 321:SYS/shell/shell.c ****     }
 1146              		.loc 1 321 9 is_stmt 1 view .LVU324
 1147 0042 0649     		ldr	r1, .L105+16
 1148              	.LVL100:
 321:SYS/shell/shell.c ****     }
 1149              		.loc 1 321 9 is_stmt 0 view .LVU325
 1150 0044 FFF7FEFF 		bl	shellWriteString
 1151              	.LVL101:
 323:SYS/shell/shell.c **** 
 1152              		.loc 1 323 1 view .LVU326
 1153 0048 F4E7     		b	.L97
 1154              	.L106:
 1155 004a 00BF     		.align	2
 1156              	.L105:
 1157 004c 08000000 		.word	.LC4
 1158 0050 0C000000 		.word	.LC5
 1159 0054 04000000 		.word	.LC3
 1160 0058 00000000 		.word	.LC2
 1161 005c 10000000 		.word	.LC6
 1162              		.cfi_endproc
 1163              	.LFE132:
 1165              		.section	.rodata.shellCheckPassword.str1.4,"aMS",%progbits,1
 1166              		.align	2
 1167              	.LC7:
ARM GAS  /var/folders/lx/hc4sn_b53233_zkc9xbbl97r0000gp/T//ccK5P7Jb.s 			page 49


 1168 0000 0D0A7061 		.ascii	"\015\012password error\015\012\000"
 1168      7373776F 
 1168      72642065 
 1168      72726F72 
 1168      0D0A00
 1169              		.section	.text.shellCheckPassword,"ax",%progbits
 1170              		.align	1
 1171              		.syntax unified
 1172              		.thumb
 1173              		.thumb_func
 1174              		.fpu fpv4-sp-d16
 1176              	shellCheckPassword:
 1177              	.LVL102:
 1178              	.LFB160:
1147:SYS/shell/shell.c ****     if (strcmp(shell->parser.buffer, shell->info.user->data.user.password) == 0)
 1179              		.loc 1 1147 1 is_stmt 1 view -0
 1180              		.cfi_startproc
 1181              		@ args = 0, pretend = 0, frame = 0
 1182              		@ frame_needed = 0, uses_anonymous_args = 0
1147:SYS/shell/shell.c ****     if (strcmp(shell->parser.buffer, shell->info.user->data.user.password) == 0)
 1183              		.loc 1 1147 1 is_stmt 0 view .LVU328
 1184 0000 10B5     		push	{r4, lr}
 1185              	.LCFI13:
 1186              		.cfi_def_cfa_offset 8
 1187              		.cfi_offset 4, -8
 1188              		.cfi_offset 14, -4
 1189 0002 0446     		mov	r4, r0
1148:SYS/shell/shell.c ****     {
 1190              		.loc 1 1148 5 is_stmt 1 view .LVU329
1148:SYS/shell/shell.c ****     {
 1191              		.loc 1 1148 49 is_stmt 0 view .LVU330
 1192 0004 0368     		ldr	r3, [r0]
1148:SYS/shell/shell.c ****     {
 1193              		.loc 1 1148 9 view .LVU331
 1194 0006 9968     		ldr	r1, [r3, #8]
 1195 0008 0069     		ldr	r0, [r0, #16]
 1196              	.LVL103:
1148:SYS/shell/shell.c ****     {
 1197              		.loc 1 1148 9 view .LVU332
 1198 000a FFF7FEFF 		bl	strcmp
 1199              	.LVL104:
1148:SYS/shell/shell.c ****     {
 1200              		.loc 1 1148 8 view .LVU333
 1201 000e 68B9     		cbnz	r0, .L108
1150:SYS/shell/shell.c **** #if SHELL_SHOW_INFO == 1
 1202              		.loc 1 1150 9 is_stmt 1 view .LVU334
1150:SYS/shell/shell.c **** #if SHELL_SHOW_INFO == 1
 1203              		.loc 1 1150 33 is_stmt 0 view .LVU335
 1204 0010 94F86030 		ldrb	r3, [r4, #96]	@ zero_extendqisi2
 1205 0014 43F00103 		orr	r3, r3, #1
 1206 0018 84F86030 		strb	r3, [r4, #96]
1152:SYS/shell/shell.c **** #endif
 1207              		.loc 1 1152 9 is_stmt 1 view .LVU336
 1208 001c 0649     		ldr	r1, .L111
 1209 001e 2046     		mov	r0, r4
 1210 0020 FFF7FEFF 		bl	shellWriteString
 1211              	.LVL105:
ARM GAS  /var/folders/lx/hc4sn_b53233_zkc9xbbl97r0000gp/T//ccK5P7Jb.s 			page 50


 1212              	.L109:
1159:SYS/shell/shell.c ****     shell->parser.cursor = 0;
 1213              		.loc 1 1159 5 view .LVU337
1159:SYS/shell/shell.c ****     shell->parser.cursor = 0;
 1214              		.loc 1 1159 26 is_stmt 0 view .LVU338
 1215 0024 0023     		movs	r3, #0
 1216 0026 A381     		strh	r3, [r4, #12]	@ movhi
1160:SYS/shell/shell.c **** }
 1217              		.loc 1 1160 5 is_stmt 1 view .LVU339
1160:SYS/shell/shell.c **** }
 1218              		.loc 1 1160 26 is_stmt 0 view .LVU340
 1219 0028 E381     		strh	r3, [r4, #14]	@ movhi
1161:SYS/shell/shell.c **** 
 1220              		.loc 1 1161 1 view .LVU341
 1221 002a 10BD     		pop	{r4, pc}
 1222              	.LVL106:
 1223              	.L108:
1157:SYS/shell/shell.c ****     }
 1224              		.loc 1 1157 9 is_stmt 1 view .LVU342
 1225 002c 0349     		ldr	r1, .L111+4
 1226 002e 2046     		mov	r0, r4
 1227 0030 FFF7FEFF 		bl	shellWriteString
 1228              	.LVL107:
 1229 0034 F6E7     		b	.L109
 1230              	.L112:
 1231 0036 00BF     		.align	2
 1232              	.L111:
 1233 0038 0C000000 		.word	.LC1
 1234 003c 00000000 		.word	.LC7
 1235              		.cfi_endproc
 1236              	.LFE160:
 1238              		.section	.text.shellClear,"ax",%progbits
 1239              		.align	1
 1240              		.global	shellClear
 1241              		.syntax unified
 1242              		.thumb
 1243              		.thumb_func
 1244              		.fpu fpv4-sp-d16
 1246              	shellClear:
 1247              	.LFB182:
1391:SYS/shell/shell.c **** SHELL_EXPORT_KEY(SHELL_CMD_PERMISSION(0) | SHELL_CMD_ENABLE_UNCHECKED,
1392:SYS/shell/shell.c ****                  0x1B5B4400, shellLeft, left);
1393:SYS/shell/shell.c **** 
1394:SYS/shell/shell.c **** /**
1395:SYS/shell/shell.c ****  * @brief shell Tab按键处理
1396:SYS/shell/shell.c ****  * 
1397:SYS/shell/shell.c ****  * @param shell shell对象
1398:SYS/shell/shell.c ****  */
1399:SYS/shell/shell.c **** void shellTab(Shell *shell)
1400:SYS/shell/shell.c **** {
1401:SYS/shell/shell.c ****     unsigned short maxMatch = shell->parser.bufferSize;
1402:SYS/shell/shell.c ****     unsigned short lastMatchIndex = 0;
1403:SYS/shell/shell.c ****     unsigned short matchNum = 0;
1404:SYS/shell/shell.c ****     unsigned short length;
1405:SYS/shell/shell.c **** 
1406:SYS/shell/shell.c ****     if (shell->parser.length == 0)
1407:SYS/shell/shell.c ****     {
ARM GAS  /var/folders/lx/hc4sn_b53233_zkc9xbbl97r0000gp/T//ccK5P7Jb.s 			page 51


1408:SYS/shell/shell.c ****         shellListAll(shell);
1409:SYS/shell/shell.c ****         shellWriteCommandLine(shell, 1);
1410:SYS/shell/shell.c ****     }
1411:SYS/shell/shell.c ****     else if (shell->parser.length > 0)
1412:SYS/shell/shell.c ****     {
1413:SYS/shell/shell.c ****         shell->parser.buffer[shell->parser.length] = 0;
1414:SYS/shell/shell.c ****         ShellCommand *base = (ShellCommand *)shell->commandList.base;
1415:SYS/shell/shell.c ****         for (short i = 0; i < shell->commandList.count; i++)
1416:SYS/shell/shell.c ****         {
1417:SYS/shell/shell.c ****             if (shellCheckPermission(shell, &base[i]) == 0 && shellStringCompare(shell->parser.buff
1418:SYS/shell/shell.c ****                                                                                  (char *)shellGetCo
1419:SYS/shell/shell.c ****             {
1420:SYS/shell/shell.c ****                 if (matchNum != 0)
1421:SYS/shell/shell.c ****                 {
1422:SYS/shell/shell.c ****                     if (matchNum == 1)
1423:SYS/shell/shell.c ****                     {
1424:SYS/shell/shell.c ****                         shellWriteString(shell, "\r\n");
1425:SYS/shell/shell.c ****                     }
1426:SYS/shell/shell.c ****                     shellListItem(shell, &base[lastMatchIndex]);
1427:SYS/shell/shell.c ****                     length =
1428:SYS/shell/shell.c ****                         shellStringCompare((char *)shellGetCommandName(&base[lastMatchIndex]),
1429:SYS/shell/shell.c ****                                            (char *)shellGetCommandName(&base[i]));
1430:SYS/shell/shell.c ****                     maxMatch = (maxMatch > length) ? length : maxMatch;
1431:SYS/shell/shell.c ****                 }
1432:SYS/shell/shell.c ****                 lastMatchIndex = i;
1433:SYS/shell/shell.c ****                 matchNum++;
1434:SYS/shell/shell.c ****             }
1435:SYS/shell/shell.c ****         }
1436:SYS/shell/shell.c ****         if (matchNum == 0)
1437:SYS/shell/shell.c ****         {
1438:SYS/shell/shell.c ****             return;
1439:SYS/shell/shell.c ****         }
1440:SYS/shell/shell.c ****         if (matchNum == 1)
1441:SYS/shell/shell.c ****         {
1442:SYS/shell/shell.c ****             shellClearCommandLine(shell);
1443:SYS/shell/shell.c ****         }
1444:SYS/shell/shell.c ****         if (matchNum != 0)
1445:SYS/shell/shell.c ****         {
1446:SYS/shell/shell.c ****             shell->parser.length =
1447:SYS/shell/shell.c ****                 shellStringCopy(shell->parser.buffer,
1448:SYS/shell/shell.c ****                                 (char *)shellGetCommandName(&base[lastMatchIndex]));
1449:SYS/shell/shell.c ****         }
1450:SYS/shell/shell.c ****         if (matchNum > 1)
1451:SYS/shell/shell.c ****         {
1452:SYS/shell/shell.c ****             shellListItem(shell, &base[lastMatchIndex]);
1453:SYS/shell/shell.c ****             shellWriteCommandLine(shell, 1);
1454:SYS/shell/shell.c ****             shell->parser.length = maxMatch;
1455:SYS/shell/shell.c ****         }
1456:SYS/shell/shell.c ****         shell->parser.buffer[shell->parser.length] = 0;
1457:SYS/shell/shell.c ****         shell->parser.cursor = shell->parser.length;
1458:SYS/shell/shell.c ****         shellWriteString(shell, shell->parser.buffer);
1459:SYS/shell/shell.c ****     }
1460:SYS/shell/shell.c **** 
1461:SYS/shell/shell.c ****     if (SHELL_GET_TICK())
1462:SYS/shell/shell.c ****     {
1463:SYS/shell/shell.c ****         if (matchNum == 1 && shell->status.tabFlag && SHELL_GET_TICK() - shell->info.activeTime < S
1464:SYS/shell/shell.c ****         {
ARM GAS  /var/folders/lx/hc4sn_b53233_zkc9xbbl97r0000gp/T//ccK5P7Jb.s 			page 52


1465:SYS/shell/shell.c ****             shellClearCommandLine(shell);
1466:SYS/shell/shell.c ****             for (short i = shell->parser.length; i >= 0; i--)
1467:SYS/shell/shell.c ****             {
1468:SYS/shell/shell.c ****                 shell->parser.buffer[i + 5] = shell->parser.buffer[i];
1469:SYS/shell/shell.c ****             }
1470:SYS/shell/shell.c ****             shellStringCopy(shell->parser.buffer, "help");
1471:SYS/shell/shell.c ****             shell->parser.buffer[4] = ' ';
1472:SYS/shell/shell.c ****             shell->parser.length += 5;
1473:SYS/shell/shell.c ****             shell->parser.cursor = shell->parser.length;
1474:SYS/shell/shell.c ****             shellWriteString(shell, shell->parser.buffer);
1475:SYS/shell/shell.c ****         }
1476:SYS/shell/shell.c ****         else
1477:SYS/shell/shell.c ****         {
1478:SYS/shell/shell.c ****             shell->status.tabFlag = 1;
1479:SYS/shell/shell.c ****         }
1480:SYS/shell/shell.c ****     }
1481:SYS/shell/shell.c **** }
1482:SYS/shell/shell.c **** SHELL_EXPORT_KEY(SHELL_CMD_PERMISSION(0), 0x09000000, shellTab, tab);
1483:SYS/shell/shell.c **** 
1484:SYS/shell/shell.c **** /**
1485:SYS/shell/shell.c ****  * @brief shell 退格
1486:SYS/shell/shell.c ****  * 
1487:SYS/shell/shell.c ****  * @param shell shell对象
1488:SYS/shell/shell.c ****  */
1489:SYS/shell/shell.c **** void shellBackspace(Shell *shell)
1490:SYS/shell/shell.c **** {
1491:SYS/shell/shell.c ****     shellDeleteByte(shell, 1);
1492:SYS/shell/shell.c **** }
1493:SYS/shell/shell.c **** SHELL_EXPORT_KEY(SHELL_CMD_PERMISSION(0) | SHELL_CMD_ENABLE_UNCHECKED,
1494:SYS/shell/shell.c ****                  0x08000000, shellBackspace, backspace);
1495:SYS/shell/shell.c **** SHELL_EXPORT_KEY(SHELL_CMD_PERMISSION(0) | SHELL_CMD_ENABLE_UNCHECKED,
1496:SYS/shell/shell.c ****                  0x7F000000, shellBackspace, backspace);
1497:SYS/shell/shell.c **** 
1498:SYS/shell/shell.c **** /**
1499:SYS/shell/shell.c ****  * @brief shell 删除
1500:SYS/shell/shell.c ****  * 
1501:SYS/shell/shell.c ****  * @param shell shell对象
1502:SYS/shell/shell.c ****  */
1503:SYS/shell/shell.c **** void shellDelete(Shell *shell)
1504:SYS/shell/shell.c **** {
1505:SYS/shell/shell.c ****     shellDeleteByte(shell, -1);
1506:SYS/shell/shell.c **** }
1507:SYS/shell/shell.c **** SHELL_EXPORT_KEY(SHELL_CMD_PERMISSION(0) | SHELL_CMD_ENABLE_UNCHECKED,
1508:SYS/shell/shell.c ****                  0x1B5B337E, shellDelete, delete);
1509:SYS/shell/shell.c **** 
1510:SYS/shell/shell.c **** /**
1511:SYS/shell/shell.c ****  * @brief shell 回车处理
1512:SYS/shell/shell.c ****  * 
1513:SYS/shell/shell.c ****  * @param shell shell对象
1514:SYS/shell/shell.c ****  */
1515:SYS/shell/shell.c **** void shellEnter(Shell *shell)
1516:SYS/shell/shell.c **** {
1517:SYS/shell/shell.c ****     shellExec(shell);
1518:SYS/shell/shell.c ****     shellWriteCommandLine(shell, 1);
1519:SYS/shell/shell.c **** }
1520:SYS/shell/shell.c **** #if SHELL_ENTER_LF == 1
1521:SYS/shell/shell.c **** SHELL_EXPORT_KEY(SHELL_CMD_PERMISSION(0) | SHELL_CMD_ENABLE_UNCHECKED,
ARM GAS  /var/folders/lx/hc4sn_b53233_zkc9xbbl97r0000gp/T//ccK5P7Jb.s 			page 53


1522:SYS/shell/shell.c ****                  0x0A000000, shellEnter, enter);
1523:SYS/shell/shell.c **** #endif
1524:SYS/shell/shell.c **** #if SHELL_ENTER_CR == 1
1525:SYS/shell/shell.c **** SHELL_EXPORT_KEY(SHELL_CMD_PERMISSION(0) | SHELL_CMD_ENABLE_UNCHECKED,
1526:SYS/shell/shell.c ****                  0x0D000000, shellEnter, enter);
1527:SYS/shell/shell.c **** #endif
1528:SYS/shell/shell.c **** #if SHELL_ENTER_CRLF == 1
1529:SYS/shell/shell.c **** SHELL_EXPORT_KEY(SHELL_CMD_PERMISSION(0) | SHELL_CMD_ENABLE_UNCHECKED,
1530:SYS/shell/shell.c ****                  0x0D0A0000, shellEnter, enter);
1531:SYS/shell/shell.c **** #endif
1532:SYS/shell/shell.c **** 
1533:SYS/shell/shell.c **** /**
1534:SYS/shell/shell.c ****  * @brief shell help
1535:SYS/shell/shell.c ****  * 
1536:SYS/shell/shell.c ****  * @param argc 参数个数
1537:SYS/shell/shell.c ****  * @param argv 参数
1538:SYS/shell/shell.c ****  */
1539:SYS/shell/shell.c **** void shellHelp(int argc, char *argv[])
1540:SYS/shell/shell.c **** {
1541:SYS/shell/shell.c ****     Shell *shell = shellGetCurrent();
1542:SYS/shell/shell.c ****     SHELL_ASSERT(shell, return );
1543:SYS/shell/shell.c ****     if (argc == 1)
1544:SYS/shell/shell.c ****     {
1545:SYS/shell/shell.c ****         shellListAll(shell);
1546:SYS/shell/shell.c ****     }
1547:SYS/shell/shell.c ****     else if (argc > 1)
1548:SYS/shell/shell.c ****     {
1549:SYS/shell/shell.c ****         ShellCommand *command = shellSeekCommand(shell,
1550:SYS/shell/shell.c ****                                                  argv[1],
1551:SYS/shell/shell.c ****                                                  shell->commandList.base,
1552:SYS/shell/shell.c ****                                                  0);
1553:SYS/shell/shell.c ****         if (command)
1554:SYS/shell/shell.c ****         {
1555:SYS/shell/shell.c ****             shellWriteString(shell, shellText[SHELL_TEXT_HELP_HEADER]);
1556:SYS/shell/shell.c ****             shellWriteString(shell, shellGetCommandName(command));
1557:SYS/shell/shell.c ****             shellWriteString(shell, "\r\n");
1558:SYS/shell/shell.c ****             shellWriteString(shell, shellGetCommandDesc(command));
1559:SYS/shell/shell.c ****             shellWriteString(shell, "\r\n");
1560:SYS/shell/shell.c ****         }
1561:SYS/shell/shell.c ****         else
1562:SYS/shell/shell.c ****         {
1563:SYS/shell/shell.c ****             shellWriteString(shell, shellText[SHELL_TEXT_CMD_NOT_FOUND]);
1564:SYS/shell/shell.c ****         }
1565:SYS/shell/shell.c ****     }
1566:SYS/shell/shell.c **** }
1567:SYS/shell/shell.c **** SHELL_EXPORT_CMD(
1568:SYS/shell/shell.c ****     SHELL_CMD_PERMISSION(0) | SHELL_CMD_TYPE(SHELL_TYPE_CMD_MAIN) | SHELL_CMD_DISABLE_RETURN,
1569:SYS/shell/shell.c ****     help, shellHelp, show command info\r\nhelp[cmd]);
1570:SYS/shell/shell.c **** 
1571:SYS/shell/shell.c **** /**
1572:SYS/shell/shell.c ****  * @brief shell 输入处理
1573:SYS/shell/shell.c ****  * 
1574:SYS/shell/shell.c ****  * @param shell shell对象
1575:SYS/shell/shell.c ****  * @param data 输入数据
1576:SYS/shell/shell.c ****  */
1577:SYS/shell/shell.c **** void shellHandler(Shell *shell, char data)
1578:SYS/shell/shell.c **** {
ARM GAS  /var/folders/lx/hc4sn_b53233_zkc9xbbl97r0000gp/T//ccK5P7Jb.s 			page 54


1579:SYS/shell/shell.c ****     SHELL_ASSERT(data, return );
1580:SYS/shell/shell.c **** 
1581:SYS/shell/shell.c **** #if SHELL_LOCK_TIMEOUT > 0
1582:SYS/shell/shell.c ****     if (shell->info.user->data.user.password && strlen(shell->info.user->data.user.password) != 0 &
1583:SYS/shell/shell.c ****     {
1584:SYS/shell/shell.c ****         if (SHELL_GET_TICK() - shell->info.activeTime > SHELL_LOCK_TIMEOUT)
1585:SYS/shell/shell.c ****         {
1586:SYS/shell/shell.c ****             shell->status.isChecked = 0;
1587:SYS/shell/shell.c ****         }
1588:SYS/shell/shell.c ****     }
1589:SYS/shell/shell.c **** #endif
1590:SYS/shell/shell.c **** 
1591:SYS/shell/shell.c ****     /* 根据记录的按键键值计算当前字节在按键键值中的偏移 */
1592:SYS/shell/shell.c ****     char keyByteOffset = 24;
1593:SYS/shell/shell.c ****     int keyFilter = 0x00000000;
1594:SYS/shell/shell.c ****     if ((shell->parser.keyValue & 0x0000FF00) != 0x00000000)
1595:SYS/shell/shell.c ****     {
1596:SYS/shell/shell.c ****         keyByteOffset = 0;
1597:SYS/shell/shell.c ****         keyFilter = 0xFFFFFF00;
1598:SYS/shell/shell.c ****     }
1599:SYS/shell/shell.c ****     else if ((shell->parser.keyValue & 0x00FF0000) != 0x00000000)
1600:SYS/shell/shell.c ****     {
1601:SYS/shell/shell.c ****         keyByteOffset = 8;
1602:SYS/shell/shell.c ****         keyFilter = 0xFFFF0000;
1603:SYS/shell/shell.c ****     }
1604:SYS/shell/shell.c ****     else if ((shell->parser.keyValue & 0xFF000000) != 0x00000000)
1605:SYS/shell/shell.c ****     {
1606:SYS/shell/shell.c ****         keyByteOffset = 16;
1607:SYS/shell/shell.c ****         keyFilter = 0xFF000000;
1608:SYS/shell/shell.c ****     }
1609:SYS/shell/shell.c **** 
1610:SYS/shell/shell.c ****     /* 遍历ShellCommand列表，尝试进行按键键值匹配 */
1611:SYS/shell/shell.c ****     ShellCommand *base = (ShellCommand *)shell->commandList.base;
1612:SYS/shell/shell.c ****     for (short i = 0; i < shell->commandList.count; i++)
1613:SYS/shell/shell.c ****     {
1614:SYS/shell/shell.c ****         /* 判断是否是按键定义并验证权限 */
1615:SYS/shell/shell.c ****         if (base[i].attr.attrs.type == SHELL_TYPE_KEY && shellCheckPermission(shell, &(base[i])) ==
1616:SYS/shell/shell.c ****         {
1617:SYS/shell/shell.c ****             /* 对输入的字节同按键键值进行匹配 */
1618:SYS/shell/shell.c ****             if ((base[i].data.key.value & keyFilter) == shell->parser.keyValue && (base[i].data.key
1619:SYS/shell/shell.c ****             {
1620:SYS/shell/shell.c ****                 shell->parser.keyValue |= data << keyByteOffset;
1621:SYS/shell/shell.c ****                 data = 0x00;
1622:SYS/shell/shell.c ****                 if (keyByteOffset == 0 || (base[i].data.key.value & (0xFF << (keyByteOffset - 8))) 
1623:SYS/shell/shell.c ****                 {
1624:SYS/shell/shell.c ****                     if (base[i].data.key.function)
1625:SYS/shell/shell.c ****                     {
1626:SYS/shell/shell.c ****                         base[i].data.key.function(shell);
1627:SYS/shell/shell.c ****                     }
1628:SYS/shell/shell.c ****                     shell->parser.keyValue = 0x00000000;
1629:SYS/shell/shell.c ****                     break;
1630:SYS/shell/shell.c ****                 }
1631:SYS/shell/shell.c ****             }
1632:SYS/shell/shell.c ****         }
1633:SYS/shell/shell.c ****     }
1634:SYS/shell/shell.c **** 
1635:SYS/shell/shell.c ****     if (data != 0x00)
ARM GAS  /var/folders/lx/hc4sn_b53233_zkc9xbbl97r0000gp/T//ccK5P7Jb.s 			page 55


1636:SYS/shell/shell.c ****     {
1637:SYS/shell/shell.c ****         shell->parser.keyValue = 0x00000000;
1638:SYS/shell/shell.c ****         shellNormalInput(shell, data);
1639:SYS/shell/shell.c ****     }
1640:SYS/shell/shell.c **** 
1641:SYS/shell/shell.c ****     if (SHELL_GET_TICK())
1642:SYS/shell/shell.c ****     {
1643:SYS/shell/shell.c ****         shell->info.activeTime = SHELL_GET_TICK();
1644:SYS/shell/shell.c ****     }
1645:SYS/shell/shell.c **** }
1646:SYS/shell/shell.c **** 
1647:SYS/shell/shell.c **** #if SHELL_SUPPORT_END_LINE == 1
1648:SYS/shell/shell.c **** void shellWriteEndLine(Shell *shell, char *buffer, int len)
1649:SYS/shell/shell.c **** {
1650:SYS/shell/shell.c ****     if (!shell->status.isActive)
1651:SYS/shell/shell.c ****     {
1652:SYS/shell/shell.c ****         shellWriteString(shell, shellText[SHELL_TEXT_CLEAR_LINE]);
1653:SYS/shell/shell.c ****     }
1654:SYS/shell/shell.c ****     while (len--)
1655:SYS/shell/shell.c ****     {
1656:SYS/shell/shell.c ****         shell->write(*buffer++);
1657:SYS/shell/shell.c ****     }
1658:SYS/shell/shell.c ****     if (!shell->status.isActive)
1659:SYS/shell/shell.c ****     {
1660:SYS/shell/shell.c ****         shellWriteCommandLine(shell, 0);
1661:SYS/shell/shell.c ****         if (shell->parser.length > 0)
1662:SYS/shell/shell.c ****         {
1663:SYS/shell/shell.c ****             shellWriteString(shell, shell->parser.buffer);
1664:SYS/shell/shell.c ****             for (short i = 0; i < shell->parser.length - shell->parser.cursor; i++)
1665:SYS/shell/shell.c ****             {
1666:SYS/shell/shell.c ****                 shell->write('\b');
1667:SYS/shell/shell.c ****             }
1668:SYS/shell/shell.c ****         }
1669:SYS/shell/shell.c ****     }
1670:SYS/shell/shell.c **** }
1671:SYS/shell/shell.c **** #endif /** SHELL_SUPPORT_END_LINE == 1 */
1672:SYS/shell/shell.c **** 
1673:SYS/shell/shell.c **** /**
1674:SYS/shell/shell.c ****  * @brief shell 任务
1675:SYS/shell/shell.c ****  * 
1676:SYS/shell/shell.c ****  * @param param 参数(shell对象)
1677:SYS/shell/shell.c ****  * 
1678:SYS/shell/shell.c ****  */
1679:SYS/shell/shell.c **** void shellTask(void *param)
1680:SYS/shell/shell.c **** {
1681:SYS/shell/shell.c ****     Shell *shell = (Shell *)param;
1682:SYS/shell/shell.c ****     char data;
1683:SYS/shell/shell.c **** #if SHELL_TASK_WHILE == 1
1684:SYS/shell/shell.c ****     while (1)
1685:SYS/shell/shell.c ****     {
1686:SYS/shell/shell.c **** #endif
1687:SYS/shell/shell.c ****         if (shell->read && shell->read(&data) == 0)
1688:SYS/shell/shell.c ****         {
1689:SYS/shell/shell.c ****             shellHandler(shell, data);
1690:SYS/shell/shell.c ****         }
1691:SYS/shell/shell.c **** #if SHELL_TASK_WHILE == 1
1692:SYS/shell/shell.c ****     }
ARM GAS  /var/folders/lx/hc4sn_b53233_zkc9xbbl97r0000gp/T//ccK5P7Jb.s 			page 56


1693:SYS/shell/shell.c **** #endif
1694:SYS/shell/shell.c **** }
1695:SYS/shell/shell.c **** 
1696:SYS/shell/shell.c **** /**
1697:SYS/shell/shell.c ****  * @brief shell 输出用户列表(shell调用)
1698:SYS/shell/shell.c ****  */
1699:SYS/shell/shell.c **** void shellUsers(void)
1700:SYS/shell/shell.c **** {
1701:SYS/shell/shell.c ****     Shell *shell = shellGetCurrent();
1702:SYS/shell/shell.c ****     if (shell)
1703:SYS/shell/shell.c ****     {
1704:SYS/shell/shell.c ****         shellListUser(shell);
1705:SYS/shell/shell.c ****     }
1706:SYS/shell/shell.c **** }
1707:SYS/shell/shell.c **** SHELL_EXPORT_CMD(
1708:SYS/shell/shell.c ****     SHELL_CMD_PERMISSION(0) | SHELL_CMD_TYPE(SHELL_TYPE_CMD_FUNC) | SHELL_CMD_DISABLE_RETURN,
1709:SYS/shell/shell.c ****     users, shellUsers, list all user);
1710:SYS/shell/shell.c **** 
1711:SYS/shell/shell.c **** /**
1712:SYS/shell/shell.c ****  * @brief shell 输出命令列表(shell调用)
1713:SYS/shell/shell.c ****  */
1714:SYS/shell/shell.c **** void shellCmds(void)
1715:SYS/shell/shell.c **** {
1716:SYS/shell/shell.c ****     Shell *shell = shellGetCurrent();
1717:SYS/shell/shell.c ****     if (shell)
1718:SYS/shell/shell.c ****     {
1719:SYS/shell/shell.c ****         shellListCommand(shell);
1720:SYS/shell/shell.c ****     }
1721:SYS/shell/shell.c **** }
1722:SYS/shell/shell.c **** SHELL_EXPORT_CMD(
1723:SYS/shell/shell.c ****     SHELL_CMD_PERMISSION(0) | SHELL_CMD_TYPE(SHELL_TYPE_CMD_FUNC) | SHELL_CMD_DISABLE_RETURN,
1724:SYS/shell/shell.c ****     cmds, shellCmds, list all cmd);
1725:SYS/shell/shell.c **** 
1726:SYS/shell/shell.c **** /**
1727:SYS/shell/shell.c ****  * @brief shell 输出变量列表(shell调用)
1728:SYS/shell/shell.c ****  */
1729:SYS/shell/shell.c **** void shellVars(void)
1730:SYS/shell/shell.c **** {
1731:SYS/shell/shell.c ****     Shell *shell = shellGetCurrent();
1732:SYS/shell/shell.c ****     if (shell)
1733:SYS/shell/shell.c ****     {
1734:SYS/shell/shell.c ****         shellListVar(shell);
1735:SYS/shell/shell.c ****     }
1736:SYS/shell/shell.c **** }
1737:SYS/shell/shell.c **** SHELL_EXPORT_CMD(
1738:SYS/shell/shell.c ****     SHELL_CMD_PERMISSION(0) | SHELL_CMD_TYPE(SHELL_TYPE_CMD_FUNC) | SHELL_CMD_DISABLE_RETURN,
1739:SYS/shell/shell.c ****     vars, shellVars, list all var);
1740:SYS/shell/shell.c **** 
1741:SYS/shell/shell.c **** /**
1742:SYS/shell/shell.c ****  * @brief shell 输出按键列表(shell调用)
1743:SYS/shell/shell.c ****  */
1744:SYS/shell/shell.c **** void shellKeys(void)
1745:SYS/shell/shell.c **** {
1746:SYS/shell/shell.c ****     Shell *shell = shellGetCurrent();
1747:SYS/shell/shell.c ****     if (shell)
1748:SYS/shell/shell.c ****     {
1749:SYS/shell/shell.c ****         shellListKey(shell);
ARM GAS  /var/folders/lx/hc4sn_b53233_zkc9xbbl97r0000gp/T//ccK5P7Jb.s 			page 57


1750:SYS/shell/shell.c ****     }
1751:SYS/shell/shell.c **** }
1752:SYS/shell/shell.c **** SHELL_EXPORT_CMD(
1753:SYS/shell/shell.c ****     SHELL_CMD_PERMISSION(0) | SHELL_CMD_TYPE(SHELL_TYPE_CMD_FUNC) | SHELL_CMD_DISABLE_RETURN,
1754:SYS/shell/shell.c ****     keys, shellKeys, list all key);
1755:SYS/shell/shell.c **** 
1756:SYS/shell/shell.c **** /**
1757:SYS/shell/shell.c ****  * @brief shell 清空控制台(shell调用)
1758:SYS/shell/shell.c ****  */
1759:SYS/shell/shell.c **** void shellClear(void)
1760:SYS/shell/shell.c **** {
 1248              		.loc 1 1760 1 view -0
 1249              		.cfi_startproc
 1250              		@ args = 0, pretend = 0, frame = 0
 1251              		@ frame_needed = 0, uses_anonymous_args = 0
 1252 0000 08B5     		push	{r3, lr}
 1253              	.LCFI14:
 1254              		.cfi_def_cfa_offset 8
 1255              		.cfi_offset 3, -8
 1256              		.cfi_offset 14, -4
1761:SYS/shell/shell.c ****     Shell *shell = shellGetCurrent();
 1257              		.loc 1 1761 5 view .LVU344
 1258              		.loc 1 1761 20 is_stmt 0 view .LVU345
 1259 0002 FFF7FEFF 		bl	shellGetCurrent
 1260              	.LVL108:
1762:SYS/shell/shell.c ****     if (shell)
 1261              		.loc 1 1762 5 is_stmt 1 view .LVU346
 1262              		.loc 1 1762 8 is_stmt 0 view .LVU347
 1263 0006 10B1     		cbz	r0, .L113
1763:SYS/shell/shell.c ****     {
1764:SYS/shell/shell.c ****         shellWriteString(shell, shellText[SHELL_TEXT_CLEAR_CONSOLE]);
 1264              		.loc 1 1764 9 is_stmt 1 view .LVU348
 1265 0008 0149     		ldr	r1, .L116
 1266 000a FFF7FEFF 		bl	shellWriteString
 1267              	.LVL109:
 1268              	.L113:
1765:SYS/shell/shell.c ****     }
1766:SYS/shell/shell.c **** }
 1269              		.loc 1 1766 1 is_stmt 0 view .LVU349
 1270 000e 08BD     		pop	{r3, pc}
 1271              	.L117:
 1272              		.align	2
 1273              	.L116:
 1274 0010 00000000 		.word	.LC0
 1275              		.cfi_endproc
 1276              	.LFE182:
 1278              		.section	.text.shellPrint,"ax",%progbits
 1279              		.align	1
 1280              		.global	shellPrint
 1281              		.syntax unified
 1282              		.thumb
 1283              		.thumb_func
 1284              		.fpu fpv4-sp-d16
 1286              	shellPrint:
 1287              	.LVL110:
 1288              	.LFB133:
 334:SYS/shell/shell.c ****     char buffer[SHELL_PRINT_BUFFER];
ARM GAS  /var/folders/lx/hc4sn_b53233_zkc9xbbl97r0000gp/T//ccK5P7Jb.s 			page 58


 1289              		.loc 1 334 1 is_stmt 1 view -0
 1290              		.cfi_startproc
 1291              		@ args = 4, pretend = 12, frame = 136
 1292              		@ frame_needed = 0, uses_anonymous_args = 1
 335:SYS/shell/shell.c ****     va_list vargs;
 1293              		.loc 1 335 5 view .LVU351
 336:SYS/shell/shell.c **** 
 1294              		.loc 1 336 5 view .LVU352
 338:SYS/shell/shell.c **** 
 1295              		.loc 1 338 5 view .LVU353
 1296 0000 98B1     		cbz	r0, .L122
 334:SYS/shell/shell.c ****     char buffer[SHELL_PRINT_BUFFER];
 1297              		.loc 1 334 1 is_stmt 0 discriminator 2 view .LVU354
 1298 0002 0EB4     		push	{r1, r2, r3}
 1299              	.LCFI15:
 1300              		.cfi_def_cfa_offset 12
 1301              		.cfi_offset 1, -12
 1302              		.cfi_offset 2, -8
 1303              		.cfi_offset 3, -4
 1304 0004 10B5     		push	{r4, lr}
 1305              	.LCFI16:
 1306              		.cfi_def_cfa_offset 20
 1307              		.cfi_offset 4, -20
 1308              		.cfi_offset 14, -16
 1309 0006 A3B0     		sub	sp, sp, #140
 1310              	.LCFI17:
 1311              		.cfi_def_cfa_offset 160
 1312 0008 0446     		mov	r4, r0
 338:SYS/shell/shell.c **** 
 1313              		.loc 1 338 33 is_stmt 1 discriminator 2 view .LVU355
 340:SYS/shell/shell.c ****     vsnprintf(buffer, SHELL_PRINT_BUFFER - 1, fmt, vargs);
 1314              		.loc 1 340 5 discriminator 2 view .LVU356
 1315 000a 26AB     		add	r3, sp, #152
 1316 000c 0193     		str	r3, [sp, #4]
 341:SYS/shell/shell.c ****     va_end(vargs);
 1317              		.loc 1 341 5 discriminator 2 view .LVU357
 1318 000e 259A     		ldr	r2, [sp, #148]
 1319 0010 7F21     		movs	r1, #127
 1320 0012 02A8     		add	r0, sp, #8
 1321 0014 FFF7FEFF 		bl	vsnprintf
 1322              	.LVL111:
 342:SYS/shell/shell.c **** 
 1323              		.loc 1 342 5 discriminator 2 view .LVU358
 344:SYS/shell/shell.c **** }
 1324              		.loc 1 344 5 discriminator 2 view .LVU359
 1325 0018 02A9     		add	r1, sp, #8
 1326 001a 2046     		mov	r0, r4
 1327 001c FFF7FEFF 		bl	shellWriteString
 1328              	.LVL112:
 345:SYS/shell/shell.c **** #endif
 1329              		.loc 1 345 1 is_stmt 0 discriminator 2 view .LVU360
 1330 0020 23B0     		add	sp, sp, #140
 1331              	.LCFI18:
 1332              		.cfi_def_cfa_offset 20
 1333              		@ sp needed
 1334 0022 BDE81040 		pop	{r4, lr}
 1335              	.LCFI19:
ARM GAS  /var/folders/lx/hc4sn_b53233_zkc9xbbl97r0000gp/T//ccK5P7Jb.s 			page 59


 1336              		.cfi_restore 14
 1337              		.cfi_restore 4
 1338              		.cfi_def_cfa_offset 12
 1339              	.LVL113:
 345:SYS/shell/shell.c **** #endif
 1340              		.loc 1 345 1 discriminator 2 view .LVU361
 1341 0026 03B0     		add	sp, sp, #12
 1342              	.LCFI20:
 1343              		.cfi_restore 3
 1344              		.cfi_restore 2
 1345              		.cfi_restore 1
 1346              		.cfi_def_cfa_offset 0
 1347 0028 7047     		bx	lr
 1348              	.LVL114:
 1349              	.L122:
 345:SYS/shell/shell.c **** #endif
 1350              		.loc 1 345 1 discriminator 2 view .LVU362
 1351 002a 7047     		bx	lr
 1352              		.cfi_endproc
 1353              	.LFE133:
 1355              		.section	.text.shellScan,"ax",%progbits
 1356              		.align	1
 1357              		.global	shellScan
 1358              		.syntax unified
 1359              		.thumb
 1360              		.thumb_func
 1361              		.fpu fpv4-sp-d16
 1363              	shellScan:
 1364              	.LVL115:
 1365              	.LFB134:
 357:SYS/shell/shell.c ****     char buffer[SHELL_SCAN_BUFFER];
 1366              		.loc 1 357 1 is_stmt 1 view -0
 1367              		.cfi_startproc
 1368              		@ args = 4, pretend = 12, frame = 8
 1369              		@ frame_needed = 0, uses_anonymous_args = 1
 358:SYS/shell/shell.c ****     va_list vargs;
 1370              		.loc 1 358 5 view .LVU364
 359:SYS/shell/shell.c ****     short index = 0;
 1371              		.loc 1 359 5 view .LVU365
 360:SYS/shell/shell.c **** 
 1372              		.loc 1 360 5 view .LVU366
 362:SYS/shell/shell.c **** 
 1373              		.loc 1 362 5 view .LVU367
 1374 0000 0028     		cmp	r0, #0
 1375 0002 35D0     		beq	.L133
 357:SYS/shell/shell.c ****     char buffer[SHELL_SCAN_BUFFER];
 1376              		.loc 1 357 1 is_stmt 0 discriminator 2 view .LVU368
 1377 0004 0EB4     		push	{r1, r2, r3}
 1378              	.LCFI21:
 1379              		.cfi_def_cfa_offset 12
 1380              		.cfi_offset 1, -12
 1381              		.cfi_offset 2, -8
 1382              		.cfi_offset 3, -4
 1383 0006 70B5     		push	{r4, r5, r6, lr}
 1384              	.LCFI22:
 1385              		.cfi_def_cfa_offset 28
 1386              		.cfi_offset 4, -28
ARM GAS  /var/folders/lx/hc4sn_b53233_zkc9xbbl97r0000gp/T//ccK5P7Jb.s 			page 60


 1387              		.cfi_offset 5, -24
 1388              		.cfi_offset 6, -20
 1389              		.cfi_offset 14, -16
 1390 0008 83B0     		sub	sp, sp, #12
 1391              	.LCFI23:
 1392              		.cfi_def_cfa_offset 40
 1393 000a 0646     		mov	r6, r0
 362:SYS/shell/shell.c **** 
 1394              		.loc 1 362 33 is_stmt 1 discriminator 2 view .LVU369
 364:SYS/shell/shell.c ****     {
 1395              		.loc 1 364 5 discriminator 2 view .LVU370
 364:SYS/shell/shell.c ****     {
 1396              		.loc 1 364 14 is_stmt 0 discriminator 2 view .LVU371
 1397 000c 436E     		ldr	r3, [r0, #100]
 364:SYS/shell/shell.c ****     {
 1398              		.loc 1 364 8 discriminator 2 view .LVU372
 1399 000e 23B3     		cbz	r3, .L128
 360:SYS/shell/shell.c **** 
 1400              		.loc 1 360 11 view .LVU373
 1401 0010 0024     		movs	r4, #0
 1402 0012 11E0     		b	.L131
 1403              	.LVL116:
 1404              	.L136:
 370:SYS/shell/shell.c ****                 index++;
 1405              		.loc 1 370 17 is_stmt 1 view .LVU374
 370:SYS/shell/shell.c ****                 index++;
 1406              		.loc 1 370 22 is_stmt 0 view .LVU375
 1407 0014 B36E     		ldr	r3, [r6, #104]
 370:SYS/shell/shell.c ****                 index++;
 1408              		.loc 1 370 17 view .LVU376
 1409 0016 0121     		movs	r1, #1
 1410 0018 2846     		mov	r0, r5
 1411 001a 9847     		blx	r3
 1412              	.LVL117:
 371:SYS/shell/shell.c ****             }
 1413              		.loc 1 371 17 is_stmt 1 view .LVU377
 371:SYS/shell/shell.c ****             }
 1414              		.loc 1 371 22 is_stmt 0 view .LVU378
 1415 001c 0134     		adds	r4, r4, #1
 1416              	.LVL118:
 371:SYS/shell/shell.c ****             }
 1417              		.loc 1 371 22 view .LVU379
 1418 001e 24B2     		sxth	r4, r4
 1419              	.LVL119:
 1420              	.L129:
 373:SYS/shell/shell.c ****         shellWriteString(shell, "\r\n");
 1421              		.loc 1 373 17 is_stmt 1 view .LVU380
 373:SYS/shell/shell.c ****         shellWriteString(shell, "\r\n");
 1422              		.loc 1 373 31 is_stmt 0 view .LVU381
 1423 0020 2546     		mov	r5, r4
 1424 0022 631E     		subs	r3, r4, #1
 373:SYS/shell/shell.c ****         shellWriteString(shell, "\r\n");
 1425              		.loc 1 373 24 view .LVU382
 1426 0024 02AA     		add	r2, sp, #8
 1427 0026 1344     		add	r3, r3, r2
 1428 0028 13F8043C 		ldrb	r3, [r3, #-4]	@ zero_extendqisi2
 373:SYS/shell/shell.c ****         shellWriteString(shell, "\r\n");
ARM GAS  /var/folders/lx/hc4sn_b53233_zkc9xbbl97r0000gp/T//ccK5P7Jb.s 			page 61


 1429              		.loc 1 373 9 view .LVU383
 1430 002c 0D2B     		cmp	r3, #13
 1431 002e 0BD0     		beq	.L130
 373:SYS/shell/shell.c ****         shellWriteString(shell, "\r\n");
 1432              		.loc 1 373 44 discriminator 1 view .LVU384
 1433 0030 0A2B     		cmp	r3, #10
 1434 0032 09D0     		beq	.L130
 373:SYS/shell/shell.c ****         shellWriteString(shell, "\r\n");
 1435              		.loc 1 373 73 discriminator 2 view .LVU385
 1436 0034 002C     		cmp	r4, #0
 1437 0036 07DC     		bgt	.L130
 1438              	.LVL120:
 1439              	.L131:
 366:SYS/shell/shell.c ****         {
 1440              		.loc 1 366 9 is_stmt 1 view .LVU386
 368:SYS/shell/shell.c ****             {
 1441              		.loc 1 368 13 view .LVU387
 368:SYS/shell/shell.c ****             {
 1442              		.loc 1 368 22 is_stmt 0 view .LVU388
 1443 0038 736E     		ldr	r3, [r6, #100]
 368:SYS/shell/shell.c ****             {
 1444              		.loc 1 368 17 view .LVU389
 1445 003a 01AA     		add	r2, sp, #4
 1446 003c 1519     		adds	r5, r2, r4
 1447 003e 2846     		mov	r0, r5
 1448 0040 9847     		blx	r3
 1449              	.LVL121:
 368:SYS/shell/shell.c ****             {
 1450              		.loc 1 368 16 view .LVU390
 1451 0042 0028     		cmp	r0, #0
 1452 0044 ECD1     		bne	.L129
 1453 0046 E5E7     		b	.L136
 1454              	.L130:
 374:SYS/shell/shell.c ****         buffer[index] = '\0';
 1455              		.loc 1 374 9 is_stmt 1 view .LVU391
 1456 0048 0A49     		ldr	r1, .L137
 1457 004a 3046     		mov	r0, r6
 1458 004c FFF7FEFF 		bl	shellWriteString
 1459              	.LVL122:
 375:SYS/shell/shell.c ****     }
 1460              		.loc 1 375 9 view .LVU392
 375:SYS/shell/shell.c ****     }
 1461              		.loc 1 375 23 is_stmt 0 view .LVU393
 1462 0050 02AB     		add	r3, sp, #8
 1463 0052 1D44     		add	r5, r5, r3
 1464 0054 0023     		movs	r3, #0
 1465 0056 05F8043C 		strb	r3, [r5, #-4]
 1466              	.LVL123:
 1467              	.L128:
 378:SYS/shell/shell.c ****     vsscanf(buffer, fmt, vargs);
 1468              		.loc 1 378 5 is_stmt 1 view .LVU394
 1469 005a 08AA     		add	r2, sp, #32
 1470 005c 0092     		str	r2, [sp]
 379:SYS/shell/shell.c ****     va_end(vargs);
 1471              		.loc 1 379 5 view .LVU395
 1472 005e 0799     		ldr	r1, [sp, #28]
 1473 0060 01A8     		add	r0, sp, #4
ARM GAS  /var/folders/lx/hc4sn_b53233_zkc9xbbl97r0000gp/T//ccK5P7Jb.s 			page 62


 1474 0062 FFF7FEFF 		bl	vsscanf
 1475              	.LVL124:
 380:SYS/shell/shell.c **** }
 1476              		.loc 1 380 5 view .LVU396
 381:SYS/shell/shell.c **** #endif
 1477              		.loc 1 381 1 is_stmt 0 view .LVU397
 1478 0066 03B0     		add	sp, sp, #12
 1479              	.LCFI24:
 1480              		.cfi_def_cfa_offset 28
 1481              		@ sp needed
 1482 0068 BDE87040 		pop	{r4, r5, r6, lr}
 1483              	.LCFI25:
 1484              		.cfi_restore 14
 1485              		.cfi_restore 6
 1486              		.cfi_restore 5
 1487              		.cfi_restore 4
 1488              		.cfi_def_cfa_offset 12
 1489              	.LVL125:
 381:SYS/shell/shell.c **** #endif
 1490              		.loc 1 381 1 view .LVU398
 1491 006c 03B0     		add	sp, sp, #12
 1492              	.LCFI26:
 1493              		.cfi_restore 3
 1494              		.cfi_restore 2
 1495              		.cfi_restore 1
 1496              		.cfi_def_cfa_offset 0
 1497 006e 7047     		bx	lr
 1498              	.LVL126:
 1499              	.L133:
 381:SYS/shell/shell.c **** #endif
 1500              		.loc 1 381 1 view .LVU399
 1501 0070 7047     		bx	lr
 1502              	.L138:
 1503 0072 00BF     		.align	2
 1504              	.L137:
 1505 0074 04000000 		.word	.LC3
 1506              		.cfi_endproc
 1507              	.LFE134:
 1509              		.section	.text.shellCheckPermission,"ax",%progbits
 1510              		.align	1
 1511              		.global	shellCheckPermission
 1512              		.syntax unified
 1513              		.thumb
 1514              		.thumb_func
 1515              		.fpu fpv4-sp-d16
 1517              	shellCheckPermission:
 1518              	.LVL127:
 1519              	.LFB135:
 394:SYS/shell/shell.c ****     return ((!command->attr.attrs.permission || command->attr.attrs.type == SHELL_TYPE_USER || (com
 1520              		.loc 1 394 1 is_stmt 1 view -0
 1521              		.cfi_startproc
 1522              		@ args = 0, pretend = 0, frame = 0
 1523              		@ frame_needed = 0, uses_anonymous_args = 0
 1524              		@ link register save eliminated.
 395:SYS/shell/shell.c ****                ? 0
 1525              		.loc 1 395 5 view .LVU401
 395:SYS/shell/shell.c ****                ? 0
ARM GAS  /var/folders/lx/hc4sn_b53233_zkc9xbbl97r0000gp/T//ccK5P7Jb.s 			page 63


 1526              		.loc 1 395 34 is_stmt 0 view .LVU402
 1527 0000 0B78     		ldrb	r3, [r1]	@ zero_extendqisi2
 397:SYS/shell/shell.c **** }
 1528              		.loc 1 397 16 view .LVU403
 1529 0002 43B1     		cbz	r3, .L140
 395:SYS/shell/shell.c ****                ? 0
 1530              		.loc 1 395 74 view .LVU404
 1531 0004 4A78     		ldrb	r2, [r1, #1]	@ zero_extendqisi2
 1532 0006 02F00F02 		and	r2, r2, #15
 395:SYS/shell/shell.c ****                ? 0
 1533              		.loc 1 395 46 view .LVU405
 1534 000a 082A     		cmp	r2, #8
 1535 000c 03D0     		beq	.L140
 395:SYS/shell/shell.c ****                ? 0
 1536              		.loc 1 395 141 discriminator 2 view .LVU406
 1537 000e 0268     		ldr	r2, [r0]
 395:SYS/shell/shell.c ****                ? 0
 1538              		.loc 1 395 158 discriminator 2 view .LVU407
 1539 0010 1278     		ldrb	r2, [r2]	@ zero_extendqisi2
 395:SYS/shell/shell.c ****                ? 0
 1540              		.loc 1 395 93 discriminator 2 view .LVU408
 1541 0012 1342     		tst	r3, r2
 1542 0014 0DD0     		beq	.L142
 1543              	.L140:
 395:SYS/shell/shell.c ****                ? 0
 1544              		.loc 1 395 176 discriminator 3 view .LVU409
 1545 0016 90F86030 		ldrb	r3, [r0, #96]	@ zero_extendqisi2
 395:SYS/shell/shell.c ****                ? 0
 1546              		.loc 1 395 172 discriminator 3 view .LVU410
 1547 001a 13F0010F 		tst	r3, #1
 1548 001e 0BD1     		bne	.L143
 395:SYS/shell/shell.c ****                ? 0
 1549              		.loc 1 395 200 discriminator 4 view .LVU411
 1550 0020 4B78     		ldrb	r3, [r1, #1]	@ zero_extendqisi2
 1551 0022 13F0100F 		tst	r3, #16
 1552 0026 01D0     		beq	.L145
 397:SYS/shell/shell.c **** }
 1553              		.loc 1 397 16 view .LVU412
 1554 0028 0020     		movs	r0, #0
 1555              	.LVL128:
 398:SYS/shell/shell.c **** 
 1556              		.loc 1 398 1 view .LVU413
 1557 002a 7047     		bx	lr
 1558              	.LVL129:
 1559              	.L145:
 397:SYS/shell/shell.c **** }
 1560              		.loc 1 397 16 view .LVU414
 1561 002c 4FF0FF30 		mov	r0, #-1
 1562              	.LVL130:
 397:SYS/shell/shell.c **** }
 1563              		.loc 1 397 16 view .LVU415
 1564 0030 7047     		bx	lr
 1565              	.LVL131:
 1566              	.L142:
 397:SYS/shell/shell.c **** }
 1567              		.loc 1 397 16 view .LVU416
 1568 0032 4FF0FF30 		mov	r0, #-1
ARM GAS  /var/folders/lx/hc4sn_b53233_zkc9xbbl97r0000gp/T//ccK5P7Jb.s 			page 64


 1569              	.LVL132:
 397:SYS/shell/shell.c **** }
 1570              		.loc 1 397 16 view .LVU417
 1571 0036 7047     		bx	lr
 1572              	.LVL133:
 1573              	.L143:
 397:SYS/shell/shell.c **** }
 1574              		.loc 1 397 16 view .LVU418
 1575 0038 0020     		movs	r0, #0
 1576              	.LVL134:
 397:SYS/shell/shell.c **** }
 1577              		.loc 1 397 16 view .LVU419
 1578 003a 7047     		bx	lr
 1579              		.cfi_endproc
 1580              	.LFE135:
 1582              		.section	.text.shellToHex,"ax",%progbits
 1583              		.align	1
 1584              		.global	shellToHex
 1585              		.syntax unified
 1586              		.thumb
 1587              		.thumb_func
 1588              		.fpu fpv4-sp-d16
 1590              	shellToHex:
 1591              	.LVL135:
 1592              	.LFB136:
 409:SYS/shell/shell.c ****     char byte;
 1593              		.loc 1 409 1 is_stmt 1 view -0
 1594              		.cfi_startproc
 1595              		@ args = 0, pretend = 0, frame = 0
 1596              		@ frame_needed = 0, uses_anonymous_args = 0
 1597              		@ link register save eliminated.
 410:SYS/shell/shell.c ****     unsigned char i = 8;
 1598              		.loc 1 410 5 view .LVU421
 411:SYS/shell/shell.c ****     buffer[8] = 0;
 1599              		.loc 1 411 5 view .LVU422
 412:SYS/shell/shell.c ****     while (value)
 1600              		.loc 1 412 5 view .LVU423
 412:SYS/shell/shell.c ****     while (value)
 1601              		.loc 1 412 15 is_stmt 0 view .LVU424
 1602 0000 0023     		movs	r3, #0
 1603 0002 0B72     		strb	r3, [r1, #8]
 413:SYS/shell/shell.c ****     {
 1604              		.loc 1 413 5 is_stmt 1 view .LVU425
 411:SYS/shell/shell.c ****     buffer[8] = 0;
 1605              		.loc 1 411 19 is_stmt 0 view .LVU426
 1606 0004 0823     		movs	r3, #8
 413:SYS/shell/shell.c ****     {
 1607              		.loc 1 413 11 view .LVU427
 1608 0006 04E0     		b	.L147
 1609              	.LVL136:
 1610              	.L148:
 416:SYS/shell/shell.c ****         value >>= 4;
 1611              		.loc 1 416 21 discriminator 2 view .LVU428
 1612 0008 3032     		adds	r2, r2, #48
 1613              	.LVL137:
 1614              	.L149:
 416:SYS/shell/shell.c ****         value >>= 4;
ARM GAS  /var/folders/lx/hc4sn_b53233_zkc9xbbl97r0000gp/T//ccK5P7Jb.s 			page 65


 1615              		.loc 1 416 21 discriminator 4 view .LVU429
 1616 000a 013B     		subs	r3, r3, #1
 1617              	.LVL138:
 416:SYS/shell/shell.c ****         value >>= 4;
 1618              		.loc 1 416 21 discriminator 4 view .LVU430
 1619 000c DBB2     		uxtb	r3, r3
 1620              	.LVL139:
 416:SYS/shell/shell.c ****         value >>= 4;
 1621              		.loc 1 416 21 discriminator 4 view .LVU431
 1622 000e CA54     		strb	r2, [r1, r3]
 417:SYS/shell/shell.c ****     }
 1623              		.loc 1 417 9 is_stmt 1 discriminator 4 view .LVU432
 417:SYS/shell/shell.c ****     }
 1624              		.loc 1 417 15 is_stmt 0 discriminator 4 view .LVU433
 1625 0010 0009     		lsrs	r0, r0, #4
 1626              	.LVL140:
 1627              	.L147:
 413:SYS/shell/shell.c ****     {
 1628              		.loc 1 413 11 is_stmt 1 view .LVU434
 1629 0012 28B1     		cbz	r0, .L151
 415:SYS/shell/shell.c ****         buffer[--i] = (byte > 9) ? (byte + 87) : (byte + 48);
 1630              		.loc 1 415 9 view .LVU435
 415:SYS/shell/shell.c ****         buffer[--i] = (byte > 9) ? (byte + 87) : (byte + 48);
 1631              		.loc 1 415 14 is_stmt 0 view .LVU436
 1632 0014 00F00F02 		and	r2, r0, #15
 1633              	.LVL141:
 416:SYS/shell/shell.c ****         value >>= 4;
 1634              		.loc 1 416 9 is_stmt 1 view .LVU437
 416:SYS/shell/shell.c ****         value >>= 4;
 1635              		.loc 1 416 21 is_stmt 0 view .LVU438
 1636 0018 092A     		cmp	r2, #9
 1637 001a F5D9     		bls	.L148
 416:SYS/shell/shell.c ****         value >>= 4;
 1638              		.loc 1 416 21 discriminator 1 view .LVU439
 1639 001c 5732     		adds	r2, r2, #87
 1640              	.LVL142:
 416:SYS/shell/shell.c ****         value >>= 4;
 1641              		.loc 1 416 21 discriminator 1 view .LVU440
 1642 001e F4E7     		b	.L149
 1643              	.LVL143:
 1644              	.L151:
 419:SYS/shell/shell.c **** }
 1645              		.loc 1 419 5 is_stmt 1 view .LVU441
 419:SYS/shell/shell.c **** }
 1646              		.loc 1 419 14 is_stmt 0 view .LVU442
 1647 0020 C3F10800 		rsb	r0, r3, #8
 1648              	.LVL144:
 420:SYS/shell/shell.c **** 
 1649              		.loc 1 420 1 view .LVU443
 1650 0024 40B2     		sxtb	r0, r0
 1651 0026 7047     		bx	lr
 1652              		.cfi_endproc
 1653              	.LFE136:
 1655              		.section	.text.shellGetCommandName,"ax",%progbits
 1656              		.align	1
 1657              		.syntax unified
 1658              		.thumb
ARM GAS  /var/folders/lx/hc4sn_b53233_zkc9xbbl97r0000gp/T//ccK5P7Jb.s 			page 66


 1659              		.thumb_func
 1660              		.fpu fpv4-sp-d16
 1662              	shellGetCommandName:
 1663              	.LVL145:
 1664              	.LFB140:
 505:SYS/shell/shell.c ****     static char buffer[9];
 1665              		.loc 1 505 1 is_stmt 1 view -0
 1666              		.cfi_startproc
 1667              		@ args = 0, pretend = 0, frame = 0
 1668              		@ frame_needed = 0, uses_anonymous_args = 0
 506:SYS/shell/shell.c ****     for (unsigned char i = 0; i < 9; i++)
 1669              		.loc 1 506 5 view .LVU445
 507:SYS/shell/shell.c ****     {
 1670              		.loc 1 507 5 view .LVU446
 1671              	.LBB8:
 507:SYS/shell/shell.c ****     {
 1672              		.loc 1 507 10 view .LVU447
 507:SYS/shell/shell.c ****     {
 1673              		.loc 1 507 24 is_stmt 0 view .LVU448
 1674 0000 0023     		movs	r3, #0
 507:SYS/shell/shell.c ****     {
 1675              		.loc 1 507 5 view .LVU449
 1676 0002 04E0     		b	.L153
 1677              	.LVL146:
 1678              	.L154:
 509:SYS/shell/shell.c ****     }
 1679              		.loc 1 509 9 is_stmt 1 discriminator 3 view .LVU450
 509:SYS/shell/shell.c ****     }
 1680              		.loc 1 509 19 is_stmt 0 discriminator 3 view .LVU451
 1681 0004 0E4A     		ldr	r2, .L164
 1682 0006 3021     		movs	r1, #48
 1683 0008 D154     		strb	r1, [r2, r3]
 507:SYS/shell/shell.c ****     {
 1684              		.loc 1 507 38 is_stmt 1 discriminator 3 view .LVU452
 507:SYS/shell/shell.c ****     {
 1685              		.loc 1 507 39 is_stmt 0 discriminator 3 view .LVU453
 1686 000a 0133     		adds	r3, r3, #1
 1687              	.LVL147:
 507:SYS/shell/shell.c ****     {
 1688              		.loc 1 507 39 discriminator 3 view .LVU454
 1689 000c DBB2     		uxtb	r3, r3
 1690              	.LVL148:
 1691              	.L153:
 507:SYS/shell/shell.c ****     {
 1692              		.loc 1 507 31 is_stmt 1 discriminator 1 view .LVU455
 507:SYS/shell/shell.c ****     {
 1693              		.loc 1 507 5 is_stmt 0 discriminator 1 view .LVU456
 1694 000e 082B     		cmp	r3, #8
 1695 0010 F8D9     		bls	.L154
 1696              	.LBE8:
 511:SYS/shell/shell.c ****     {
 1697              		.loc 1 511 5 is_stmt 1 view .LVU457
 511:SYS/shell/shell.c ****     {
 1698              		.loc 1 511 28 is_stmt 0 view .LVU458
 1699 0012 4378     		ldrb	r3, [r0, #1]	@ zero_extendqisi2
 1700              	.LVL149:
 511:SYS/shell/shell.c ****     {
ARM GAS  /var/folders/lx/hc4sn_b53233_zkc9xbbl97r0000gp/T//ccK5P7Jb.s 			page 67


 1701              		.loc 1 511 28 view .LVU459
 1702 0014 03F00F03 		and	r3, r3, #15
 511:SYS/shell/shell.c ****     {
 1703              		.loc 1 511 8 view .LVU460
 1704 0018 012B     		cmp	r3, #1
 1705 001a 05D9     		bls	.L162
 515:SYS/shell/shell.c ****     {
 1706              		.loc 1 515 10 is_stmt 1 view .LVU461
 515:SYS/shell/shell.c ****     {
 1707              		.loc 1 515 13 is_stmt 0 view .LVU462
 1708 001c 072B     		cmp	r3, #7
 1709 001e 05D9     		bls	.L163
 519:SYS/shell/shell.c ****     {
 1710              		.loc 1 519 10 is_stmt 1 view .LVU463
 519:SYS/shell/shell.c ****     {
 1711              		.loc 1 519 13 is_stmt 0 view .LVU464
 1712 0020 082B     		cmp	r3, #8
 1713 0022 05D8     		bhi	.L158
 521:SYS/shell/shell.c ****     }
 1714              		.loc 1 521 9 is_stmt 1 view .LVU465
 521:SYS/shell/shell.c ****     }
 1715              		.loc 1 521 34 is_stmt 0 view .LVU466
 1716 0024 4068     		ldr	r0, [r0, #4]
 1717              	.LVL150:
 528:SYS/shell/shell.c **** 
 1718              		.loc 1 528 1 view .LVU467
 1719 0026 7047     		bx	lr
 1720              	.LVL151:
 1721              	.L162:
 513:SYS/shell/shell.c ****     }
 1722              		.loc 1 513 9 is_stmt 1 view .LVU468
 513:SYS/shell/shell.c ****     }
 1723              		.loc 1 513 33 is_stmt 0 view .LVU469
 1724 0028 4068     		ldr	r0, [r0, #4]
 1725              	.LVL152:
 513:SYS/shell/shell.c ****     }
 1726              		.loc 1 513 33 view .LVU470
 1727 002a 7047     		bx	lr
 1728              	.LVL153:
 1729              	.L163:
 517:SYS/shell/shell.c ****     }
 1730              		.loc 1 517 9 is_stmt 1 view .LVU471
 517:SYS/shell/shell.c ****     }
 1731              		.loc 1 517 33 is_stmt 0 view .LVU472
 1732 002c 4068     		ldr	r0, [r0, #4]
 1733              	.LVL154:
 517:SYS/shell/shell.c ****     }
 1734              		.loc 1 517 33 view .LVU473
 1735 002e 7047     		bx	lr
 1736              	.LVL155:
 1737              	.L158:
 505:SYS/shell/shell.c ****     static char buffer[9];
 1738              		.loc 1 505 1 view .LVU474
 1739 0030 10B5     		push	{r4, lr}
 1740              	.LCFI27:
 1741              		.cfi_def_cfa_offset 8
 1742              		.cfi_offset 4, -8
ARM GAS  /var/folders/lx/hc4sn_b53233_zkc9xbbl97r0000gp/T//ccK5P7Jb.s 			page 68


 1743              		.cfi_offset 14, -4
 525:SYS/shell/shell.c ****         return buffer;
 1744              		.loc 1 525 9 is_stmt 1 view .LVU475
 1745 0032 034C     		ldr	r4, .L164
 1746 0034 2146     		mov	r1, r4
 1747 0036 4068     		ldr	r0, [r0, #4]
 1748              	.LVL156:
 525:SYS/shell/shell.c ****         return buffer;
 1749              		.loc 1 525 9 is_stmt 0 view .LVU476
 1750 0038 FFF7FEFF 		bl	shellToHex
 1751              	.LVL157:
 526:SYS/shell/shell.c ****     }
 1752              		.loc 1 526 9 is_stmt 1 view .LVU477
 526:SYS/shell/shell.c ****     }
 1753              		.loc 1 526 16 is_stmt 0 view .LVU478
 1754 003c 2046     		mov	r0, r4
 528:SYS/shell/shell.c **** 
 1755              		.loc 1 528 1 view .LVU479
 1756 003e 10BD     		pop	{r4, pc}
 1757              	.L165:
 1758              		.align	2
 1759              	.L164:
 1760 0040 00000000 		.word	.LANCHOR1
 1761              		.cfi_endproc
 1762              	.LFE140:
 1764              		.section	.text.shellToDec,"ax",%progbits
 1765              		.align	1
 1766              		.global	shellToDec
 1767              		.syntax unified
 1768              		.thumb
 1769              		.thumb_func
 1770              		.fpu fpv4-sp-d16
 1772              	shellToDec:
 1773              	.LVL158:
 1774              	.LFB137:
 431:SYS/shell/shell.c ****     unsigned char i = 11;
 1775              		.loc 1 431 1 is_stmt 1 view -0
 1776              		.cfi_startproc
 1777              		@ args = 0, pretend = 0, frame = 0
 1778              		@ frame_needed = 0, uses_anonymous_args = 0
 1779              		@ link register save eliminated.
 431:SYS/shell/shell.c ****     unsigned char i = 11;
 1780              		.loc 1 431 1 is_stmt 0 view .LVU481
 1781 0000 10B4     		push	{r4}
 1782              	.LCFI28:
 1783              		.cfi_def_cfa_offset 4
 1784              		.cfi_offset 4, -4
 432:SYS/shell/shell.c ****     int v = value;
 1785              		.loc 1 432 5 is_stmt 1 view .LVU482
 1786              	.LVL159:
 433:SYS/shell/shell.c ****     if (value < 0)
 1787              		.loc 1 433 5 view .LVU483
 434:SYS/shell/shell.c ****     {
 1788              		.loc 1 434 5 view .LVU484
 434:SYS/shell/shell.c ****     {
 1789              		.loc 1 434 8 is_stmt 0 view .LVU485
 1790 0002 041E     		subs	r4, r0, #0
ARM GAS  /var/folders/lx/hc4sn_b53233_zkc9xbbl97r0000gp/T//ccK5P7Jb.s 			page 69


 1791 0004 04DB     		blt	.L174
 433:SYS/shell/shell.c ****     if (value < 0)
 1792              		.loc 1 433 9 view .LVU486
 1793 0006 2246     		mov	r2, r4
 1794              	.LVL160:
 1795              	.L167:
 438:SYS/shell/shell.c ****     while (v)
 1796              		.loc 1 438 5 is_stmt 1 view .LVU487
 438:SYS/shell/shell.c ****     while (v)
 1797              		.loc 1 438 16 is_stmt 0 view .LVU488
 1798 0008 0023     		movs	r3, #0
 1799 000a CB72     		strb	r3, [r1, #11]
 439:SYS/shell/shell.c ****     {
 1800              		.loc 1 439 5 is_stmt 1 view .LVU489
 432:SYS/shell/shell.c ****     int v = value;
 1801              		.loc 1 432 19 is_stmt 0 view .LVU490
 1802 000c 0B20     		movs	r0, #11
 1803              	.LVL161:
 439:SYS/shell/shell.c ****     {
 1804              		.loc 1 439 11 view .LVU491
 1805 000e 11E0     		b	.L168
 1806              	.LVL162:
 1807              	.L174:
 436:SYS/shell/shell.c ****     }
 1808              		.loc 1 436 9 is_stmt 1 view .LVU492
 436:SYS/shell/shell.c ****     }
 1809              		.loc 1 436 11 is_stmt 0 view .LVU493
 1810 0010 6242     		rsbs	r2, r4, #0
 1811              	.LVL163:
 436:SYS/shell/shell.c ****     }
 1812              		.loc 1 436 11 view .LVU494
 1813 0012 F9E7     		b	.L167
 1814              	.LVL164:
 1815              	.L169:
 441:SYS/shell/shell.c ****         v /= 10;
 1816              		.loc 1 441 9 is_stmt 1 view .LVU495
 441:SYS/shell/shell.c ****         v /= 10;
 1817              		.loc 1 441 25 is_stmt 0 view .LVU496
 1818 0014 114B     		ldr	r3, .L176
 1819 0016 83FB023C 		smull	r3, ip, r3, r2
 1820 001a D317     		asrs	r3, r2, #31
 1821 001c C3EBAC03 		rsb	r3, r3, ip, asr #2
 1822 0020 9C46     		mov	ip, r3
 1823 0022 03EB8303 		add	r3, r3, r3, lsl #2
 1824 0026 A2EB4303 		sub	r3, r2, r3, lsl #1
 441:SYS/shell/shell.c ****         v /= 10;
 1825              		.loc 1 441 21 view .LVU497
 1826 002a 0138     		subs	r0, r0, #1
 1827              	.LVL165:
 441:SYS/shell/shell.c ****         v /= 10;
 1828              		.loc 1 441 21 view .LVU498
 1829 002c C0B2     		uxtb	r0, r0
 1830              	.LVL166:
 441:SYS/shell/shell.c ****         v /= 10;
 1831              		.loc 1 441 30 view .LVU499
 1832 002e 3033     		adds	r3, r3, #48
 441:SYS/shell/shell.c ****         v /= 10;
ARM GAS  /var/folders/lx/hc4sn_b53233_zkc9xbbl97r0000gp/T//ccK5P7Jb.s 			page 70


 1833              		.loc 1 441 21 view .LVU500
 1834 0030 0B54     		strb	r3, [r1, r0]
 442:SYS/shell/shell.c ****     }
 1835              		.loc 1 442 9 is_stmt 1 view .LVU501
 442:SYS/shell/shell.c ****     }
 1836              		.loc 1 442 11 is_stmt 0 view .LVU502
 1837 0032 6246     		mov	r2, ip
 1838              	.LVL167:
 1839              	.L168:
 439:SYS/shell/shell.c ****     {
 1840              		.loc 1 439 11 is_stmt 1 view .LVU503
 1841 0034 002A     		cmp	r2, #0
 1842 0036 EDD1     		bne	.L169
 444:SYS/shell/shell.c ****     {
 1843              		.loc 1 444 5 view .LVU504
 444:SYS/shell/shell.c ****     {
 1844              		.loc 1 444 8 is_stmt 0 view .LVU505
 1845 0038 002C     		cmp	r4, #0
 1846 003a 0ADB     		blt	.L175
 1847              	.L170:
 448:SYS/shell/shell.c ****     {
 1848              		.loc 1 448 5 is_stmt 1 view .LVU506
 448:SYS/shell/shell.c ****     {
 1849              		.loc 1 448 8 is_stmt 0 view .LVU507
 1850 003c 1CB9     		cbnz	r4, .L171
 450:SYS/shell/shell.c ****     }
 1851              		.loc 1 450 9 is_stmt 1 view .LVU508
 450:SYS/shell/shell.c ****     }
 1852              		.loc 1 450 21 is_stmt 0 view .LVU509
 1853 003e 0138     		subs	r0, r0, #1
 1854              	.LVL168:
 450:SYS/shell/shell.c ****     }
 1855              		.loc 1 450 21 view .LVU510
 1856 0040 C0B2     		uxtb	r0, r0
 1857              	.LVL169:
 450:SYS/shell/shell.c ****     }
 1858              		.loc 1 450 21 view .LVU511
 1859 0042 3023     		movs	r3, #48
 1860 0044 0B54     		strb	r3, [r1, r0]
 1861              	.L171:
 452:SYS/shell/shell.c **** }
 1862              		.loc 1 452 5 is_stmt 1 view .LVU512
 452:SYS/shell/shell.c **** }
 1863              		.loc 1 452 15 is_stmt 0 view .LVU513
 1864 0046 C0F10B00 		rsb	r0, r0, #11
 1865              	.LVL170:
 453:SYS/shell/shell.c **** 
 1866              		.loc 1 453 1 view .LVU514
 1867 004a 40B2     		sxtb	r0, r0
 1868 004c 5DF8044B 		ldr	r4, [sp], #4
 1869              	.LCFI29:
 1870              		.cfi_remember_state
 1871              		.cfi_restore 4
 1872              		.cfi_def_cfa_offset 0
 1873              	.LVL171:
 453:SYS/shell/shell.c **** 
 1874              		.loc 1 453 1 view .LVU515
ARM GAS  /var/folders/lx/hc4sn_b53233_zkc9xbbl97r0000gp/T//ccK5P7Jb.s 			page 71


 1875 0050 7047     		bx	lr
 1876              	.LVL172:
 1877              	.L175:
 1878              	.LCFI30:
 1879              		.cfi_restore_state
 446:SYS/shell/shell.c ****     }
 1880              		.loc 1 446 9 is_stmt 1 view .LVU516
 446:SYS/shell/shell.c ****     }
 1881              		.loc 1 446 21 is_stmt 0 view .LVU517
 1882 0052 0138     		subs	r0, r0, #1
 1883              	.LVL173:
 446:SYS/shell/shell.c ****     }
 1884              		.loc 1 446 21 view .LVU518
 1885 0054 C0B2     		uxtb	r0, r0
 1886              	.LVL174:
 446:SYS/shell/shell.c ****     }
 1887              		.loc 1 446 21 view .LVU519
 1888 0056 2D23     		movs	r3, #45
 1889 0058 0B54     		strb	r3, [r1, r0]
 1890 005a EFE7     		b	.L170
 1891              	.L177:
 1892              		.align	2
 1893              	.L176:
 1894 005c 67666666 		.word	1717986919
 1895              		.cfi_endproc
 1896              	.LFE137:
 1898              		.section	.rodata.shellWriteReturnValue.str1.4,"aMS",%progbits,1
 1899              		.align	2
 1900              	.LC9:
 1901 0000 52657475 		.ascii	"Return: \000"
 1901      726E3A20 
 1901      00
 1902 0009 000000   		.align	2
 1903              	.LC10:
 1904 000c 2C203078 		.ascii	", 0x\000"
 1904      00
 1905 0011 000000   		.align	2
 1906              	.LC8:
 1907 0014 30303030 		.ascii	"00000000000\000"
 1907      30303030 
 1907      30303000 
 1908              		.section	.text.shellWriteReturnValue,"ax",%progbits
 1909              		.align	1
 1910              		.syntax unified
 1911              		.thumb
 1912              		.thumb_func
 1913              		.fpu fpv4-sp-d16
 1915              	shellWriteReturnValue:
 1916              	.LVL175:
 1917              	.LFB162:
1195:SYS/shell/shell.c ****     char buffer[12] = "00000000000";
 1918              		.loc 1 1195 1 is_stmt 1 view -0
 1919              		.cfi_startproc
 1920              		@ args = 0, pretend = 0, frame = 16
 1921              		@ frame_needed = 0, uses_anonymous_args = 0
1195:SYS/shell/shell.c ****     char buffer[12] = "00000000000";
 1922              		.loc 1 1195 1 is_stmt 0 view .LVU521
ARM GAS  /var/folders/lx/hc4sn_b53233_zkc9xbbl97r0000gp/T//ccK5P7Jb.s 			page 72


 1923 0000 70B5     		push	{r4, r5, r6, lr}
 1924              	.LCFI31:
 1925              		.cfi_def_cfa_offset 16
 1926              		.cfi_offset 4, -16
 1927              		.cfi_offset 5, -12
 1928              		.cfi_offset 6, -8
 1929              		.cfi_offset 14, -4
 1930 0002 84B0     		sub	sp, sp, #16
 1931              	.LCFI32:
 1932              		.cfi_def_cfa_offset 32
 1933 0004 0446     		mov	r4, r0
 1934 0006 0E46     		mov	r6, r1
1196:SYS/shell/shell.c ****     shellWriteString(shell, "Return: ");
 1935              		.loc 1 1196 5 is_stmt 1 view .LVU522
1196:SYS/shell/shell.c ****     shellWriteString(shell, "Return: ");
 1936              		.loc 1 1196 10 is_stmt 0 view .LVU523
 1937 0008 184B     		ldr	r3, .L182
 1938 000a 01AD     		add	r5, sp, #4
 1939 000c 93E80700 		ldm	r3, {r0, r1, r2}
 1940              	.LVL176:
1196:SYS/shell/shell.c ****     shellWriteString(shell, "Return: ");
 1941              		.loc 1 1196 10 view .LVU524
 1942 0010 85E80700 		stm	r5, {r0, r1, r2}
1197:SYS/shell/shell.c ****     shellWriteString(shell, &buffer[11 - shellToDec(value, buffer)]);
 1943              		.loc 1 1197 5 is_stmt 1 view .LVU525
 1944 0014 1649     		ldr	r1, .L182+4
 1945 0016 2046     		mov	r0, r4
 1946 0018 FFF7FEFF 		bl	shellWriteString
 1947              	.LVL177:
1198:SYS/shell/shell.c ****     shellWriteString(shell, ", 0x");
 1948              		.loc 1 1198 5 view .LVU526
1198:SYS/shell/shell.c ****     shellWriteString(shell, ", 0x");
 1949              		.loc 1 1198 42 is_stmt 0 view .LVU527
 1950 001c 2946     		mov	r1, r5
 1951 001e 3046     		mov	r0, r6
 1952 0020 FFF7FEFF 		bl	shellToDec
 1953              	.LVL178:
1198:SYS/shell/shell.c ****     shellWriteString(shell, ", 0x");
 1954              		.loc 1 1198 40 view .LVU528
 1955 0024 C0F10B01 		rsb	r1, r0, #11
1198:SYS/shell/shell.c ****     shellWriteString(shell, ", 0x");
 1956              		.loc 1 1198 5 view .LVU529
 1957 0028 2944     		add	r1, r1, r5
 1958 002a 2046     		mov	r0, r4
 1959 002c FFF7FEFF 		bl	shellWriteString
 1960              	.LVL179:
1199:SYS/shell/shell.c ****     for (short i = 0; i < 11; i++)
 1961              		.loc 1 1199 5 is_stmt 1 view .LVU530
 1962 0030 1049     		ldr	r1, .L182+8
 1963 0032 2046     		mov	r0, r4
 1964 0034 FFF7FEFF 		bl	shellWriteString
 1965              	.LVL180:
1200:SYS/shell/shell.c ****     {
 1966              		.loc 1 1200 5 view .LVU531
 1967              	.LBB9:
1200:SYS/shell/shell.c ****     {
 1968              		.loc 1 1200 10 view .LVU532
ARM GAS  /var/folders/lx/hc4sn_b53233_zkc9xbbl97r0000gp/T//ccK5P7Jb.s 			page 73


1200:SYS/shell/shell.c ****     {
 1969              		.loc 1 1200 16 is_stmt 0 view .LVU533
 1970 0038 0023     		movs	r3, #0
1200:SYS/shell/shell.c ****     {
 1971              		.loc 1 1200 5 view .LVU534
 1972 003a 07E0     		b	.L179
 1973              	.LVL181:
 1974              	.L180:
1202:SYS/shell/shell.c ****     }
 1975              		.loc 1 1202 9 is_stmt 1 discriminator 3 view .LVU535
1202:SYS/shell/shell.c ****     }
 1976              		.loc 1 1202 19 is_stmt 0 discriminator 3 view .LVU536
 1977 003c 04AA     		add	r2, sp, #16
 1978 003e 1A44     		add	r2, r2, r3
 1979 0040 4FF0300C 		mov	ip, #48
 1980 0044 02F80CCC 		strb	ip, [r2, #-12]
1200:SYS/shell/shell.c ****     {
 1981              		.loc 1 1200 31 is_stmt 1 discriminator 3 view .LVU537
1200:SYS/shell/shell.c ****     {
 1982              		.loc 1 1200 32 is_stmt 0 discriminator 3 view .LVU538
 1983 0048 0133     		adds	r3, r3, #1
 1984              	.LVL182:
1200:SYS/shell/shell.c ****     {
 1985              		.loc 1 1200 32 discriminator 3 view .LVU539
 1986 004a 1BB2     		sxth	r3, r3
 1987              	.LVL183:
 1988              	.L179:
1200:SYS/shell/shell.c ****     {
 1989              		.loc 1 1200 23 is_stmt 1 discriminator 1 view .LVU540
1200:SYS/shell/shell.c ****     {
 1990              		.loc 1 1200 5 is_stmt 0 discriminator 1 view .LVU541
 1991 004c 0A2B     		cmp	r3, #10
 1992 004e F5DD     		ble	.L180
 1993              	.LBE9:
1204:SYS/shell/shell.c ****     shellWriteString(shell, buffer);
 1994              		.loc 1 1204 5 is_stmt 1 view .LVU542
 1995 0050 01A9     		add	r1, sp, #4
 1996 0052 3046     		mov	r0, r6
 1997 0054 FFF7FEFF 		bl	shellToHex
 1998              	.LVL184:
1205:SYS/shell/shell.c ****     shellWriteString(shell, "\r\n");
 1999              		.loc 1 1205 5 view .LVU543
 2000 0058 01A9     		add	r1, sp, #4
 2001 005a 2046     		mov	r0, r4
 2002 005c FFF7FEFF 		bl	shellWriteString
 2003              	.LVL185:
1206:SYS/shell/shell.c **** }
 2004              		.loc 1 1206 5 view .LVU544
 2005 0060 0549     		ldr	r1, .L182+12
 2006 0062 2046     		mov	r0, r4
 2007 0064 FFF7FEFF 		bl	shellWriteString
 2008              	.LVL186:
1207:SYS/shell/shell.c **** 
 2009              		.loc 1 1207 1 is_stmt 0 view .LVU545
 2010 0068 04B0     		add	sp, sp, #16
 2011              	.LCFI33:
 2012              		.cfi_def_cfa_offset 16
ARM GAS  /var/folders/lx/hc4sn_b53233_zkc9xbbl97r0000gp/T//ccK5P7Jb.s 			page 74


 2013              		@ sp needed
 2014 006a 70BD     		pop	{r4, r5, r6, pc}
 2015              	.LVL187:
 2016              	.L183:
1207:SYS/shell/shell.c **** 
 2017              		.loc 1 1207 1 view .LVU546
 2018              		.align	2
 2019              	.L182:
 2020 006c 14000000 		.word	.LC8
 2021 0070 00000000 		.word	.LC9
 2022 0074 0C000000 		.word	.LC10
 2023 0078 04000000 		.word	.LC3
 2024              		.cfi_endproc
 2025              	.LFE162:
 2027              		.section	.rodata.shellListItem.str1.4,"aMS",%progbits,1
 2028              		.align	2
 2029              	.LC11:
 2030 0000 434D4420 		.ascii	"CMD \015\012\000"
 2030      0D0A00
 2031 0007 00       		.align	2
 2032              	.LC12:
 2033 0008 56415200 		.ascii	"VAR\000"
 2034              		.align	2
 2035              	.LC13:
 2036 000c 55534552 		.ascii	"USER\000"
 2036      00
 2037 0011 000000   		.align	2
 2038              	.LC14:
 2039 0014 4B455900 		.ascii	"KEY\000"
 2040              		.align	2
 2041              	.LC15:
 2042 0018 4E4F4E45 		.ascii	"NONE\000"
 2042      00
 2043              		.section	.text.shellListItem,"ax",%progbits
 2044              		.align	1
 2045              		.global	shellListItem
 2046              		.syntax unified
 2047              		.thumb
 2048              		.thumb_func
 2049              		.fpu fpv4-sp-d16
 2051              	shellListItem:
 2052              	.LVL188:
 2053              	.LFB142:
 563:SYS/shell/shell.c ****     short spaceLength;
 2054              		.loc 1 563 1 is_stmt 1 view -0
 2055              		.cfi_startproc
 2056              		@ args = 0, pretend = 0, frame = 0
 2057              		@ frame_needed = 0, uses_anonymous_args = 0
 563:SYS/shell/shell.c ****     short spaceLength;
 2058              		.loc 1 563 1 is_stmt 0 view .LVU548
 2059 0000 70B5     		push	{r4, r5, r6, lr}
 2060              	.LCFI34:
 2061              		.cfi_def_cfa_offset 16
 2062              		.cfi_offset 4, -16
 2063              		.cfi_offset 5, -12
 2064              		.cfi_offset 6, -8
 2065              		.cfi_offset 14, -4
ARM GAS  /var/folders/lx/hc4sn_b53233_zkc9xbbl97r0000gp/T//ccK5P7Jb.s 			page 75


 2066 0002 0546     		mov	r5, r0
 2067 0004 0E46     		mov	r6, r1
 564:SYS/shell/shell.c **** 
 2068              		.loc 1 564 5 is_stmt 1 view .LVU549
 566:SYS/shell/shell.c ****     spaceLength = (spaceLength > 0) ? spaceLength : 4;
 2069              		.loc 1 566 5 view .LVU550
 566:SYS/shell/shell.c ****     spaceLength = (spaceLength > 0) ? spaceLength : 4;
 2070              		.loc 1 566 24 is_stmt 0 view .LVU551
 2071 0006 0846     		mov	r0, r1
 2072              	.LVL189:
 566:SYS/shell/shell.c ****     spaceLength = (spaceLength > 0) ? spaceLength : 4;
 2073              		.loc 1 566 24 view .LVU552
 2074 0008 FFF7FEFF 		bl	shellGetCommandName
 2075              	.LVL190:
 566:SYS/shell/shell.c ****     spaceLength = (spaceLength > 0) ? spaceLength : 4;
 2076              		.loc 1 566 24 view .LVU553
 2077 000c 0146     		mov	r1, r0
 2078 000e 2846     		mov	r0, r5
 2079 0010 FFF7FEFF 		bl	shellWriteString
 2080              	.LVL191:
 566:SYS/shell/shell.c ****     spaceLength = (spaceLength > 0) ? spaceLength : 4;
 2081              		.loc 1 566 22 view .LVU554
 2082 0014 C0F11604 		rsb	r4, r0, #22
 566:SYS/shell/shell.c ****     spaceLength = (spaceLength > 0) ? spaceLength : 4;
 2083              		.loc 1 566 17 view .LVU555
 2084 0018 24B2     		sxth	r4, r4
 2085              	.LVL192:
 567:SYS/shell/shell.c ****     do
 2086              		.loc 1 567 5 is_stmt 1 view .LVU556
 567:SYS/shell/shell.c ****     do
 2087              		.loc 1 567 17 is_stmt 0 view .LVU557
 2088 001a 002C     		cmp	r4, #0
 2089 001c 17DD     		ble	.L194
 2090              	.LVL193:
 2091              	.L186:
 568:SYS/shell/shell.c ****     {
 2092              		.loc 1 568 5 is_stmt 1 discriminator 1 view .LVU558
 570:SYS/shell/shell.c ****     } while (--spaceLength);
 2093              		.loc 1 570 9 discriminator 1 view .LVU559
 2094 001e 2D21     		movs	r1, #45
 2095 0020 2846     		mov	r0, r5
 2096 0022 FFF7FEFF 		bl	shellWriteByte
 2097              	.LVL194:
 571:SYS/shell/shell.c ****     if (item->attr.attrs.type <= SHELL_TYPE_CMD_FUNC)
 2098              		.loc 1 571 13 discriminator 1 view .LVU560
 571:SYS/shell/shell.c ****     if (item->attr.attrs.type <= SHELL_TYPE_CMD_FUNC)
 2099              		.loc 1 571 14 is_stmt 0 discriminator 1 view .LVU561
 2100 0026 013C     		subs	r4, r4, #1
 2101              	.LVL195:
 571:SYS/shell/shell.c ****     if (item->attr.attrs.type <= SHELL_TYPE_CMD_FUNC)
 2102              		.loc 1 571 5 discriminator 1 view .LVU562
 2103 0028 24B2     		sxth	r4, r4
 2104              	.LVL196:
 571:SYS/shell/shell.c ****     if (item->attr.attrs.type <= SHELL_TYPE_CMD_FUNC)
 2105              		.loc 1 571 5 discriminator 1 view .LVU563
 2106 002a 002C     		cmp	r4, #0
 2107 002c F7D1     		bne	.L186
ARM GAS  /var/folders/lx/hc4sn_b53233_zkc9xbbl97r0000gp/T//ccK5P7Jb.s 			page 76


 572:SYS/shell/shell.c ****     {
 2108              		.loc 1 572 5 is_stmt 1 view .LVU564
 572:SYS/shell/shell.c ****     {
 2109              		.loc 1 572 25 is_stmt 0 view .LVU565
 2110 002e 7378     		ldrb	r3, [r6, #1]	@ zero_extendqisi2
 2111 0030 03F00F03 		and	r3, r3, #15
 572:SYS/shell/shell.c ****     {
 2112              		.loc 1 572 8 view .LVU566
 2113 0034 012B     		cmp	r3, #1
 2114 0036 0CD9     		bls	.L195
 576:SYS/shell/shell.c ****     {
 2115              		.loc 1 576 10 is_stmt 1 view .LVU567
 576:SYS/shell/shell.c ****     {
 2116              		.loc 1 576 13 is_stmt 0 view .LVU568
 2117 0038 072B     		cmp	r3, #7
 2118 003a 0FD9     		bls	.L196
 580:SYS/shell/shell.c ****     {
 2119              		.loc 1 580 10 is_stmt 1 view .LVU569
 580:SYS/shell/shell.c ****     {
 2120              		.loc 1 580 13 is_stmt 0 view .LVU570
 2121 003c 082B     		cmp	r3, #8
 2122 003e 12D9     		bls	.L197
 584:SYS/shell/shell.c ****     {
 2123              		.loc 1 584 10 is_stmt 1 view .LVU571
 584:SYS/shell/shell.c ****     {
 2124              		.loc 1 584 13 is_stmt 0 view .LVU572
 2125 0040 092B     		cmp	r3, #9
 2126 0042 15D8     		bhi	.L191
 586:SYS/shell/shell.c ****     }
 2127              		.loc 1 586 9 is_stmt 1 view .LVU573
 2128 0044 0D49     		ldr	r1, .L198
 2129 0046 2846     		mov	r0, r5
 2130 0048 FFF7FEFF 		bl	shellWriteString
 2131              	.LVL197:
 2132 004c 05E0     		b	.L184
 2133              	.L194:
 567:SYS/shell/shell.c ****     do
 2134              		.loc 1 567 17 is_stmt 0 view .LVU574
 2135 004e 0424     		movs	r4, #4
 2136              	.LVL198:
 567:SYS/shell/shell.c ****     do
 2137              		.loc 1 567 17 view .LVU575
 2138 0050 E5E7     		b	.L186
 2139              	.LVL199:
 2140              	.L195:
 574:SYS/shell/shell.c ****     }
 2141              		.loc 1 574 9 is_stmt 1 view .LVU576
 2142 0052 0B49     		ldr	r1, .L198+4
 2143 0054 2846     		mov	r0, r5
 2144 0056 FFF7FEFF 		bl	shellWriteString
 2145              	.LVL200:
 2146              	.L184:
 602:SYS/shell/shell.c **** 
 2147              		.loc 1 602 1 is_stmt 0 view .LVU577
 2148 005a 70BD     		pop	{r4, r5, r6, pc}
 2149              	.LVL201:
 2150              	.L196:
ARM GAS  /var/folders/lx/hc4sn_b53233_zkc9xbbl97r0000gp/T//ccK5P7Jb.s 			page 77


 578:SYS/shell/shell.c ****     }
 2151              		.loc 1 578 9 is_stmt 1 view .LVU578
 2152 005c 0949     		ldr	r1, .L198+8
 2153 005e 2846     		mov	r0, r5
 2154 0060 FFF7FEFF 		bl	shellWriteString
 2155              	.LVL202:
 2156 0064 F9E7     		b	.L184
 2157              	.L197:
 582:SYS/shell/shell.c ****     }
 2158              		.loc 1 582 9 view .LVU579
 2159 0066 0849     		ldr	r1, .L198+12
 2160 0068 2846     		mov	r0, r5
 2161 006a FFF7FEFF 		bl	shellWriteString
 2162              	.LVL203:
 2163 006e F4E7     		b	.L184
 2164              	.L191:
 590:SYS/shell/shell.c ****     }
 2165              		.loc 1 590 9 view .LVU580
 2166 0070 0649     		ldr	r1, .L198+16
 2167 0072 2846     		mov	r0, r5
 2168 0074 FFF7FEFF 		bl	shellWriteString
 2169              	.LVL204:
 602:SYS/shell/shell.c **** 
 2170              		.loc 1 602 1 is_stmt 0 view .LVU581
 2171 0078 EFE7     		b	.L184
 2172              	.L199:
 2173 007a 00BF     		.align	2
 2174              	.L198:
 2175 007c 14000000 		.word	.LC14
 2176 0080 00000000 		.word	.LC11
 2177 0084 08000000 		.word	.LC12
 2178 0088 0C000000 		.word	.LC13
 2179 008c 18000000 		.word	.LC15
 2180              		.cfi_endproc
 2181              	.LFE142:
 2183              		.section	.rodata.shellListCommand.str1.4,"aMS",%progbits,1
 2184              		.align	2
 2185              	.LC16:
 2186 0000 0D0A436F 		.ascii	"\015\012Command List:\015\012\000"
 2186      6D6D616E 
 2186      64204C69 
 2186      73743A0D 
 2186      0A00
 2187              		.section	.text.shellListCommand,"ax",%progbits
 2188              		.align	1
 2189              		.global	shellListCommand
 2190              		.syntax unified
 2191              		.thumb
 2192              		.thumb_func
 2193              		.fpu fpv4-sp-d16
 2195              	shellListCommand:
 2196              	.LVL205:
 2197              	.LFB143:
 610:SYS/shell/shell.c ****     ShellCommand *base = (ShellCommand *)shell->commandList.base;
 2198              		.loc 1 610 1 is_stmt 1 view -0
 2199              		.cfi_startproc
 2200              		@ args = 0, pretend = 0, frame = 0
ARM GAS  /var/folders/lx/hc4sn_b53233_zkc9xbbl97r0000gp/T//ccK5P7Jb.s 			page 78


 2201              		@ frame_needed = 0, uses_anonymous_args = 0
 610:SYS/shell/shell.c ****     ShellCommand *base = (ShellCommand *)shell->commandList.base;
 2202              		.loc 1 610 1 is_stmt 0 view .LVU583
 2203 0000 F8B5     		push	{r3, r4, r5, r6, r7, lr}
 2204              	.LCFI35:
 2205              		.cfi_def_cfa_offset 24
 2206              		.cfi_offset 3, -24
 2207              		.cfi_offset 4, -20
 2208              		.cfi_offset 5, -16
 2209              		.cfi_offset 6, -12
 2210              		.cfi_offset 7, -8
 2211              		.cfi_offset 14, -4
 2212 0002 0646     		mov	r6, r0
 611:SYS/shell/shell.c ****     shellWriteString(shell, shellText[SHELL_TEXT_CMD_LIST]);
 2213              		.loc 1 611 5 is_stmt 1 view .LVU584
 611:SYS/shell/shell.c ****     shellWriteString(shell, shellText[SHELL_TEXT_CMD_LIST]);
 2214              		.loc 1 611 19 is_stmt 0 view .LVU585
 2215 0004 876D     		ldr	r7, [r0, #88]
 2216              	.LVL206:
 612:SYS/shell/shell.c ****     for (short i = 0; i < shell->commandList.count; i++)
 2217              		.loc 1 612 5 is_stmt 1 view .LVU586
 2218 0006 0F49     		ldr	r1, .L206
 2219 0008 FFF7FEFF 		bl	shellWriteString
 2220              	.LVL207:
 613:SYS/shell/shell.c ****     {
 2221              		.loc 1 613 5 view .LVU587
 2222              	.LBB10:
 613:SYS/shell/shell.c ****     {
 2223              		.loc 1 613 10 view .LVU588
 613:SYS/shell/shell.c ****     {
 2224              		.loc 1 613 16 is_stmt 0 view .LVU589
 2225 000c 0024     		movs	r4, #0
 613:SYS/shell/shell.c ****     {
 2226              		.loc 1 613 5 view .LVU590
 2227 000e 01E0     		b	.L201
 2228              	.LVL208:
 2229              	.L202:
 613:SYS/shell/shell.c ****     {
 2230              		.loc 1 613 53 is_stmt 1 discriminator 2 view .LVU591
 613:SYS/shell/shell.c ****     {
 2231              		.loc 1 613 54 is_stmt 0 discriminator 2 view .LVU592
 2232 0010 0134     		adds	r4, r4, #1
 2233              	.LVL209:
 613:SYS/shell/shell.c ****     {
 2234              		.loc 1 613 54 discriminator 2 view .LVU593
 2235 0012 24B2     		sxth	r4, r4
 2236              	.LVL210:
 2237              	.L201:
 613:SYS/shell/shell.c ****     {
 2238              		.loc 1 613 23 is_stmt 1 discriminator 1 view .LVU594
 613:SYS/shell/shell.c ****     {
 2239              		.loc 1 613 45 is_stmt 0 discriminator 1 view .LVU595
 2240 0014 B6F85C30 		ldrh	r3, [r6, #92]
 613:SYS/shell/shell.c ****     {
 2241              		.loc 1 613 5 discriminator 1 view .LVU596
 2242 0018 9C42     		cmp	r4, r3
 2243 001a 11DA     		bge	.L205
ARM GAS  /var/folders/lx/hc4sn_b53233_zkc9xbbl97r0000gp/T//ccK5P7Jb.s 			page 79


 615:SYS/shell/shell.c ****         {
 2244              		.loc 1 615 9 is_stmt 1 view .LVU597
 615:SYS/shell/shell.c ****         {
 2245              		.loc 1 615 17 is_stmt 0 view .LVU598
 2246 001c 07EB0415 		add	r5, r7, r4, lsl #4
 615:SYS/shell/shell.c ****         {
 2247              		.loc 1 615 31 view .LVU599
 2248 0020 6B78     		ldrb	r3, [r5, #1]	@ zero_extendqisi2
 2249 0022 03F00F03 		and	r3, r3, #15
 615:SYS/shell/shell.c ****         {
 2250              		.loc 1 615 12 view .LVU600
 2251 0026 012B     		cmp	r3, #1
 2252 0028 F2D8     		bhi	.L202
 615:SYS/shell/shell.c ****         {
 2253              		.loc 1 615 63 discriminator 1 view .LVU601
 2254 002a 2946     		mov	r1, r5
 2255 002c 3046     		mov	r0, r6
 2256 002e FFF7FEFF 		bl	shellCheckPermission
 2257              	.LVL211:
 615:SYS/shell/shell.c ****         {
 2258              		.loc 1 615 60 discriminator 1 view .LVU602
 2259 0032 0028     		cmp	r0, #0
 2260 0034 ECD1     		bne	.L202
 617:SYS/shell/shell.c ****         }
 2261              		.loc 1 617 13 is_stmt 1 view .LVU603
 2262 0036 2946     		mov	r1, r5
 2263 0038 3046     		mov	r0, r6
 2264 003a FFF7FEFF 		bl	shellListItem
 2265              	.LVL212:
 2266 003e E7E7     		b	.L202
 2267              	.L205:
 617:SYS/shell/shell.c ****         }
 2268              		.loc 1 617 13 is_stmt 0 view .LVU604
 2269              	.LBE10:
 620:SYS/shell/shell.c **** 
 2270              		.loc 1 620 1 view .LVU605
 2271 0040 F8BD     		pop	{r3, r4, r5, r6, r7, pc}
 2272              	.LVL213:
 2273              	.L207:
 620:SYS/shell/shell.c **** 
 2274              		.loc 1 620 1 view .LVU606
 2275 0042 00BF     		.align	2
 2276              	.L206:
 2277 0044 00000000 		.word	.LC16
 2278              		.cfi_endproc
 2279              	.LFE143:
 2281              		.section	.text.shellCmds,"ax",%progbits
 2282              		.align	1
 2283              		.global	shellCmds
 2284              		.syntax unified
 2285              		.thumb
 2286              		.thumb_func
 2287              		.fpu fpv4-sp-d16
 2289              	shellCmds:
 2290              	.LFB179:
1715:SYS/shell/shell.c ****     Shell *shell = shellGetCurrent();
 2291              		.loc 1 1715 1 is_stmt 1 view -0
ARM GAS  /var/folders/lx/hc4sn_b53233_zkc9xbbl97r0000gp/T//ccK5P7Jb.s 			page 80


 2292              		.cfi_startproc
 2293              		@ args = 0, pretend = 0, frame = 0
 2294              		@ frame_needed = 0, uses_anonymous_args = 0
 2295 0000 08B5     		push	{r3, lr}
 2296              	.LCFI36:
 2297              		.cfi_def_cfa_offset 8
 2298              		.cfi_offset 3, -8
 2299              		.cfi_offset 14, -4
1716:SYS/shell/shell.c ****     if (shell)
 2300              		.loc 1 1716 5 view .LVU608
1716:SYS/shell/shell.c ****     if (shell)
 2301              		.loc 1 1716 20 is_stmt 0 view .LVU609
 2302 0002 FFF7FEFF 		bl	shellGetCurrent
 2303              	.LVL214:
1717:SYS/shell/shell.c ****     {
 2304              		.loc 1 1717 5 is_stmt 1 view .LVU610
1717:SYS/shell/shell.c ****     {
 2305              		.loc 1 1717 8 is_stmt 0 view .LVU611
 2306 0006 08B1     		cbz	r0, .L208
1719:SYS/shell/shell.c ****     }
 2307              		.loc 1 1719 9 is_stmt 1 view .LVU612
 2308 0008 FFF7FEFF 		bl	shellListCommand
 2309              	.LVL215:
 2310              	.L208:
1721:SYS/shell/shell.c **** SHELL_EXPORT_CMD(
 2311              		.loc 1 1721 1 is_stmt 0 view .LVU613
 2312 000c 08BD     		pop	{r3, pc}
 2313              		.cfi_endproc
 2314              	.LFE179:
 2316              		.section	.rodata.shellListVar.str1.4,"aMS",%progbits,1
 2317              		.align	2
 2318              	.LC17:
 2319 0000 0D0A5661 		.ascii	"\015\012Var List:\015\012\000"
 2319      72204C69 
 2319      73743A0D 
 2319      0A00
 2320              		.section	.text.shellListVar,"ax",%progbits
 2321              		.align	1
 2322              		.global	shellListVar
 2323              		.syntax unified
 2324              		.thumb
 2325              		.thumb_func
 2326              		.fpu fpv4-sp-d16
 2328              	shellListVar:
 2329              	.LVL216:
 2330              	.LFB144:
 628:SYS/shell/shell.c ****     ShellCommand *base = (ShellCommand *)shell->commandList.base;
 2331              		.loc 1 628 1 is_stmt 1 view -0
 2332              		.cfi_startproc
 2333              		@ args = 0, pretend = 0, frame = 0
 2334              		@ frame_needed = 0, uses_anonymous_args = 0
 628:SYS/shell/shell.c ****     ShellCommand *base = (ShellCommand *)shell->commandList.base;
 2335              		.loc 1 628 1 is_stmt 0 view .LVU615
 2336 0000 F8B5     		push	{r3, r4, r5, r6, r7, lr}
 2337              	.LCFI37:
 2338              		.cfi_def_cfa_offset 24
 2339              		.cfi_offset 3, -24
ARM GAS  /var/folders/lx/hc4sn_b53233_zkc9xbbl97r0000gp/T//ccK5P7Jb.s 			page 81


 2340              		.cfi_offset 4, -20
 2341              		.cfi_offset 5, -16
 2342              		.cfi_offset 6, -12
 2343              		.cfi_offset 7, -8
 2344              		.cfi_offset 14, -4
 2345 0002 0646     		mov	r6, r0
 629:SYS/shell/shell.c ****     shellWriteString(shell, shellText[SHELL_TEXT_VAR_LIST]);
 2346              		.loc 1 629 5 is_stmt 1 view .LVU616
 629:SYS/shell/shell.c ****     shellWriteString(shell, shellText[SHELL_TEXT_VAR_LIST]);
 2347              		.loc 1 629 19 is_stmt 0 view .LVU617
 2348 0004 876D     		ldr	r7, [r0, #88]
 2349              	.LVL217:
 630:SYS/shell/shell.c ****     for (short i = 0; i < shell->commandList.count; i++)
 2350              		.loc 1 630 5 is_stmt 1 view .LVU618
 2351 0006 1049     		ldr	r1, .L217
 2352 0008 FFF7FEFF 		bl	shellWriteString
 2353              	.LVL218:
 631:SYS/shell/shell.c ****     {
 2354              		.loc 1 631 5 view .LVU619
 2355              	.LBB11:
 631:SYS/shell/shell.c ****     {
 2356              		.loc 1 631 10 view .LVU620
 631:SYS/shell/shell.c ****     {
 2357              		.loc 1 631 16 is_stmt 0 view .LVU621
 2358 000c 0024     		movs	r4, #0
 631:SYS/shell/shell.c ****     {
 2359              		.loc 1 631 5 view .LVU622
 2360 000e 01E0     		b	.L212
 2361              	.LVL219:
 2362              	.L213:
 631:SYS/shell/shell.c ****     {
 2363              		.loc 1 631 53 is_stmt 1 discriminator 2 view .LVU623
 631:SYS/shell/shell.c ****     {
 2364              		.loc 1 631 54 is_stmt 0 discriminator 2 view .LVU624
 2365 0010 0134     		adds	r4, r4, #1
 2366              	.LVL220:
 631:SYS/shell/shell.c ****     {
 2367              		.loc 1 631 54 discriminator 2 view .LVU625
 2368 0012 24B2     		sxth	r4, r4
 2369              	.LVL221:
 2370              	.L212:
 631:SYS/shell/shell.c ****     {
 2371              		.loc 1 631 23 is_stmt 1 discriminator 1 view .LVU626
 631:SYS/shell/shell.c ****     {
 2372              		.loc 1 631 45 is_stmt 0 discriminator 1 view .LVU627
 2373 0014 B6F85C30 		ldrh	r3, [r6, #92]
 631:SYS/shell/shell.c ****     {
 2374              		.loc 1 631 5 discriminator 1 view .LVU628
 2375 0018 9C42     		cmp	r4, r3
 2376 001a 14DA     		bge	.L216
 633:SYS/shell/shell.c ****         {
 2377              		.loc 1 633 9 is_stmt 1 view .LVU629
 633:SYS/shell/shell.c ****         {
 2378              		.loc 1 633 17 is_stmt 0 view .LVU630
 2379 001c 07EB0415 		add	r5, r7, r4, lsl #4
 633:SYS/shell/shell.c ****         {
 2380              		.loc 1 633 31 view .LVU631
ARM GAS  /var/folders/lx/hc4sn_b53233_zkc9xbbl97r0000gp/T//ccK5P7Jb.s 			page 82


 2381 0020 6B78     		ldrb	r3, [r5, #1]	@ zero_extendqisi2
 2382 0022 03F00F03 		and	r3, r3, #15
 633:SYS/shell/shell.c ****         {
 2383              		.loc 1 633 59 view .LVU632
 2384 0026 0E33     		adds	r3, r3, #14
 2385 0028 03F00F03 		and	r3, r3, #15
 633:SYS/shell/shell.c ****         {
 2386              		.loc 1 633 12 view .LVU633
 2387 002c 052B     		cmp	r3, #5
 2388 002e EFD8     		bhi	.L213
 633:SYS/shell/shell.c ****         {
 2389              		.loc 1 633 112 discriminator 1 view .LVU634
 2390 0030 2946     		mov	r1, r5
 2391 0032 3046     		mov	r0, r6
 2392 0034 FFF7FEFF 		bl	shellCheckPermission
 2393              	.LVL222:
 633:SYS/shell/shell.c ****         {
 2394              		.loc 1 633 109 discriminator 1 view .LVU635
 2395 0038 0028     		cmp	r0, #0
 2396 003a E9D1     		bne	.L213
 635:SYS/shell/shell.c ****         }
 2397              		.loc 1 635 13 is_stmt 1 view .LVU636
 2398 003c 2946     		mov	r1, r5
 2399 003e 3046     		mov	r0, r6
 2400 0040 FFF7FEFF 		bl	shellListItem
 2401              	.LVL223:
 2402 0044 E4E7     		b	.L213
 2403              	.L216:
 635:SYS/shell/shell.c ****         }
 2404              		.loc 1 635 13 is_stmt 0 view .LVU637
 2405              	.LBE11:
 638:SYS/shell/shell.c **** 
 2406              		.loc 1 638 1 view .LVU638
 2407 0046 F8BD     		pop	{r3, r4, r5, r6, r7, pc}
 2408              	.LVL224:
 2409              	.L218:
 638:SYS/shell/shell.c **** 
 2410              		.loc 1 638 1 view .LVU639
 2411              		.align	2
 2412              	.L217:
 2413 0048 00000000 		.word	.LC17
 2414              		.cfi_endproc
 2415              	.LFE144:
 2417              		.section	.text.shellVars,"ax",%progbits
 2418              		.align	1
 2419              		.global	shellVars
 2420              		.syntax unified
 2421              		.thumb
 2422              		.thumb_func
 2423              		.fpu fpv4-sp-d16
 2425              	shellVars:
 2426              	.LFB180:
1730:SYS/shell/shell.c ****     Shell *shell = shellGetCurrent();
 2427              		.loc 1 1730 1 is_stmt 1 view -0
 2428              		.cfi_startproc
 2429              		@ args = 0, pretend = 0, frame = 0
 2430              		@ frame_needed = 0, uses_anonymous_args = 0
ARM GAS  /var/folders/lx/hc4sn_b53233_zkc9xbbl97r0000gp/T//ccK5P7Jb.s 			page 83


 2431 0000 08B5     		push	{r3, lr}
 2432              	.LCFI38:
 2433              		.cfi_def_cfa_offset 8
 2434              		.cfi_offset 3, -8
 2435              		.cfi_offset 14, -4
1731:SYS/shell/shell.c ****     if (shell)
 2436              		.loc 1 1731 5 view .LVU641
1731:SYS/shell/shell.c ****     if (shell)
 2437              		.loc 1 1731 20 is_stmt 0 view .LVU642
 2438 0002 FFF7FEFF 		bl	shellGetCurrent
 2439              	.LVL225:
1732:SYS/shell/shell.c ****     {
 2440              		.loc 1 1732 5 is_stmt 1 view .LVU643
1732:SYS/shell/shell.c ****     {
 2441              		.loc 1 1732 8 is_stmt 0 view .LVU644
 2442 0006 08B1     		cbz	r0, .L219
1734:SYS/shell/shell.c ****     }
 2443              		.loc 1 1734 9 is_stmt 1 view .LVU645
 2444 0008 FFF7FEFF 		bl	shellListVar
 2445              	.LVL226:
 2446              	.L219:
1736:SYS/shell/shell.c **** SHELL_EXPORT_CMD(
 2447              		.loc 1 1736 1 is_stmt 0 view .LVU646
 2448 000c 08BD     		pop	{r3, pc}
 2449              		.cfi_endproc
 2450              	.LFE180:
 2452              		.section	.rodata.shellListUser.str1.4,"aMS",%progbits,1
 2453              		.align	2
 2454              	.LC18:
 2455 0000 0D0A5573 		.ascii	"\015\012User List:\015\012\000"
 2455      6572204C 
 2455      6973743A 
 2455      0D0A00
 2456              		.section	.text.shellListUser,"ax",%progbits
 2457              		.align	1
 2458              		.global	shellListUser
 2459              		.syntax unified
 2460              		.thumb
 2461              		.thumb_func
 2462              		.fpu fpv4-sp-d16
 2464              	shellListUser:
 2465              	.LVL227:
 2466              	.LFB145:
 646:SYS/shell/shell.c ****     ShellCommand *base = (ShellCommand *)shell->commandList.base;
 2467              		.loc 1 646 1 is_stmt 1 view -0
 2468              		.cfi_startproc
 2469              		@ args = 0, pretend = 0, frame = 0
 2470              		@ frame_needed = 0, uses_anonymous_args = 0
 646:SYS/shell/shell.c ****     ShellCommand *base = (ShellCommand *)shell->commandList.base;
 2471              		.loc 1 646 1 is_stmt 0 view .LVU648
 2472 0000 F8B5     		push	{r3, r4, r5, r6, r7, lr}
 2473              	.LCFI39:
 2474              		.cfi_def_cfa_offset 24
 2475              		.cfi_offset 3, -24
 2476              		.cfi_offset 4, -20
 2477              		.cfi_offset 5, -16
 2478              		.cfi_offset 6, -12
ARM GAS  /var/folders/lx/hc4sn_b53233_zkc9xbbl97r0000gp/T//ccK5P7Jb.s 			page 84


 2479              		.cfi_offset 7, -8
 2480              		.cfi_offset 14, -4
 2481 0002 0646     		mov	r6, r0
 647:SYS/shell/shell.c ****     shellWriteString(shell, shellText[SHELL_TEXT_USER_LIST]);
 2482              		.loc 1 647 5 is_stmt 1 view .LVU649
 647:SYS/shell/shell.c ****     shellWriteString(shell, shellText[SHELL_TEXT_USER_LIST]);
 2483              		.loc 1 647 19 is_stmt 0 view .LVU650
 2484 0004 876D     		ldr	r7, [r0, #88]
 2485              	.LVL228:
 648:SYS/shell/shell.c ****     for (short i = 0; i < shell->commandList.count; i++)
 2486              		.loc 1 648 5 is_stmt 1 view .LVU651
 2487 0006 0F49     		ldr	r1, .L228
 2488 0008 FFF7FEFF 		bl	shellWriteString
 2489              	.LVL229:
 649:SYS/shell/shell.c ****     {
 2490              		.loc 1 649 5 view .LVU652
 2491              	.LBB12:
 649:SYS/shell/shell.c ****     {
 2492              		.loc 1 649 10 view .LVU653
 649:SYS/shell/shell.c ****     {
 2493              		.loc 1 649 16 is_stmt 0 view .LVU654
 2494 000c 0024     		movs	r4, #0
 649:SYS/shell/shell.c ****     {
 2495              		.loc 1 649 5 view .LVU655
 2496 000e 01E0     		b	.L223
 2497              	.LVL230:
 2498              	.L224:
 649:SYS/shell/shell.c ****     {
 2499              		.loc 1 649 53 is_stmt 1 discriminator 2 view .LVU656
 649:SYS/shell/shell.c ****     {
 2500              		.loc 1 649 54 is_stmt 0 discriminator 2 view .LVU657
 2501 0010 0134     		adds	r4, r4, #1
 2502              	.LVL231:
 649:SYS/shell/shell.c ****     {
 2503              		.loc 1 649 54 discriminator 2 view .LVU658
 2504 0012 24B2     		sxth	r4, r4
 2505              	.LVL232:
 2506              	.L223:
 649:SYS/shell/shell.c ****     {
 2507              		.loc 1 649 23 is_stmt 1 discriminator 1 view .LVU659
 649:SYS/shell/shell.c ****     {
 2508              		.loc 1 649 45 is_stmt 0 discriminator 1 view .LVU660
 2509 0014 B6F85C30 		ldrh	r3, [r6, #92]
 649:SYS/shell/shell.c ****     {
 2510              		.loc 1 649 5 discriminator 1 view .LVU661
 2511 0018 9C42     		cmp	r4, r3
 2512 001a 11DA     		bge	.L227
 651:SYS/shell/shell.c ****         {
 2513              		.loc 1 651 9 is_stmt 1 view .LVU662
 651:SYS/shell/shell.c ****         {
 2514              		.loc 1 651 17 is_stmt 0 view .LVU663
 2515 001c 07EB0415 		add	r5, r7, r4, lsl #4
 651:SYS/shell/shell.c ****         {
 2516              		.loc 1 651 59 view .LVU664
 2517 0020 6B78     		ldrb	r3, [r5, #1]	@ zero_extendqisi2
 2518 0022 03F00F03 		and	r3, r3, #15
 651:SYS/shell/shell.c ****         {
ARM GAS  /var/folders/lx/hc4sn_b53233_zkc9xbbl97r0000gp/T//ccK5P7Jb.s 			page 85


 2519              		.loc 1 651 12 view .LVU665
 2520 0026 082B     		cmp	r3, #8
 2521 0028 F2D1     		bne	.L224
 651:SYS/shell/shell.c ****         {
 2522              		.loc 1 651 108 discriminator 1 view .LVU666
 2523 002a 2946     		mov	r1, r5
 2524 002c 3046     		mov	r0, r6
 2525 002e FFF7FEFF 		bl	shellCheckPermission
 2526              	.LVL233:
 651:SYS/shell/shell.c ****         {
 2527              		.loc 1 651 105 discriminator 1 view .LVU667
 2528 0032 0028     		cmp	r0, #0
 2529 0034 ECD1     		bne	.L224
 653:SYS/shell/shell.c ****         }
 2530              		.loc 1 653 13 is_stmt 1 view .LVU668
 2531 0036 2946     		mov	r1, r5
 2532 0038 3046     		mov	r0, r6
 2533 003a FFF7FEFF 		bl	shellListItem
 2534              	.LVL234:
 2535 003e E7E7     		b	.L224
 2536              	.L227:
 653:SYS/shell/shell.c ****         }
 2537              		.loc 1 653 13 is_stmt 0 view .LVU669
 2538              	.LBE12:
 656:SYS/shell/shell.c **** 
 2539              		.loc 1 656 1 view .LVU670
 2540 0040 F8BD     		pop	{r3, r4, r5, r6, r7, pc}
 2541              	.LVL235:
 2542              	.L229:
 656:SYS/shell/shell.c **** 
 2543              		.loc 1 656 1 view .LVU671
 2544 0042 00BF     		.align	2
 2545              	.L228:
 2546 0044 00000000 		.word	.LC18
 2547              		.cfi_endproc
 2548              	.LFE145:
 2550              		.section	.text.shellUsers,"ax",%progbits
 2551              		.align	1
 2552              		.global	shellUsers
 2553              		.syntax unified
 2554              		.thumb
 2555              		.thumb_func
 2556              		.fpu fpv4-sp-d16
 2558              	shellUsers:
 2559              	.LFB178:
1700:SYS/shell/shell.c ****     Shell *shell = shellGetCurrent();
 2560              		.loc 1 1700 1 is_stmt 1 view -0
 2561              		.cfi_startproc
 2562              		@ args = 0, pretend = 0, frame = 0
 2563              		@ frame_needed = 0, uses_anonymous_args = 0
 2564 0000 08B5     		push	{r3, lr}
 2565              	.LCFI40:
 2566              		.cfi_def_cfa_offset 8
 2567              		.cfi_offset 3, -8
 2568              		.cfi_offset 14, -4
1701:SYS/shell/shell.c ****     if (shell)
 2569              		.loc 1 1701 5 view .LVU673
ARM GAS  /var/folders/lx/hc4sn_b53233_zkc9xbbl97r0000gp/T//ccK5P7Jb.s 			page 86


1701:SYS/shell/shell.c ****     if (shell)
 2570              		.loc 1 1701 20 is_stmt 0 view .LVU674
 2571 0002 FFF7FEFF 		bl	shellGetCurrent
 2572              	.LVL236:
1702:SYS/shell/shell.c ****     {
 2573              		.loc 1 1702 5 is_stmt 1 view .LVU675
1702:SYS/shell/shell.c ****     {
 2574              		.loc 1 1702 8 is_stmt 0 view .LVU676
 2575 0006 08B1     		cbz	r0, .L230
1704:SYS/shell/shell.c ****     }
 2576              		.loc 1 1704 9 is_stmt 1 view .LVU677
 2577 0008 FFF7FEFF 		bl	shellListUser
 2578              	.LVL237:
 2579              	.L230:
1706:SYS/shell/shell.c **** SHELL_EXPORT_CMD(
 2580              		.loc 1 1706 1 is_stmt 0 view .LVU678
 2581 000c 08BD     		pop	{r3, pc}
 2582              		.cfi_endproc
 2583              	.LFE178:
 2585              		.section	.rodata.shellListKey.str1.4,"aMS",%progbits,1
 2586              		.align	2
 2587              	.LC19:
 2588 0000 0D0A4B65 		.ascii	"\015\012Key List:\015\012\000"
 2588      79204C69 
 2588      73743A0D 
 2588      0A00
 2589              		.section	.text.shellListKey,"ax",%progbits
 2590              		.align	1
 2591              		.global	shellListKey
 2592              		.syntax unified
 2593              		.thumb
 2594              		.thumb_func
 2595              		.fpu fpv4-sp-d16
 2597              	shellListKey:
 2598              	.LVL238:
 2599              	.LFB146:
 664:SYS/shell/shell.c ****     ShellCommand *base = (ShellCommand *)shell->commandList.base;
 2600              		.loc 1 664 1 is_stmt 1 view -0
 2601              		.cfi_startproc
 2602              		@ args = 0, pretend = 0, frame = 0
 2603              		@ frame_needed = 0, uses_anonymous_args = 0
 664:SYS/shell/shell.c ****     ShellCommand *base = (ShellCommand *)shell->commandList.base;
 2604              		.loc 1 664 1 is_stmt 0 view .LVU680
 2605 0000 F8B5     		push	{r3, r4, r5, r6, r7, lr}
 2606              	.LCFI41:
 2607              		.cfi_def_cfa_offset 24
 2608              		.cfi_offset 3, -24
 2609              		.cfi_offset 4, -20
 2610              		.cfi_offset 5, -16
 2611              		.cfi_offset 6, -12
 2612              		.cfi_offset 7, -8
 2613              		.cfi_offset 14, -4
 2614 0002 0646     		mov	r6, r0
 665:SYS/shell/shell.c ****     shellWriteString(shell, shellText[SHELL_TEXT_KEY_LIST]);
 2615              		.loc 1 665 5 is_stmt 1 view .LVU681
 665:SYS/shell/shell.c ****     shellWriteString(shell, shellText[SHELL_TEXT_KEY_LIST]);
 2616              		.loc 1 665 19 is_stmt 0 view .LVU682
ARM GAS  /var/folders/lx/hc4sn_b53233_zkc9xbbl97r0000gp/T//ccK5P7Jb.s 			page 87


 2617 0004 876D     		ldr	r7, [r0, #88]
 2618              	.LVL239:
 666:SYS/shell/shell.c ****     for (short i = 0; i < shell->commandList.count; i++)
 2619              		.loc 1 666 5 is_stmt 1 view .LVU683
 2620 0006 0F49     		ldr	r1, .L239
 2621 0008 FFF7FEFF 		bl	shellWriteString
 2622              	.LVL240:
 667:SYS/shell/shell.c ****     {
 2623              		.loc 1 667 5 view .LVU684
 2624              	.LBB13:
 667:SYS/shell/shell.c ****     {
 2625              		.loc 1 667 10 view .LVU685
 667:SYS/shell/shell.c ****     {
 2626              		.loc 1 667 16 is_stmt 0 view .LVU686
 2627 000c 0024     		movs	r4, #0
 667:SYS/shell/shell.c ****     {
 2628              		.loc 1 667 5 view .LVU687
 2629 000e 01E0     		b	.L234
 2630              	.LVL241:
 2631              	.L235:
 667:SYS/shell/shell.c ****     {
 2632              		.loc 1 667 53 is_stmt 1 discriminator 2 view .LVU688
 667:SYS/shell/shell.c ****     {
 2633              		.loc 1 667 54 is_stmt 0 discriminator 2 view .LVU689
 2634 0010 0134     		adds	r4, r4, #1
 2635              	.LVL242:
 667:SYS/shell/shell.c ****     {
 2636              		.loc 1 667 54 discriminator 2 view .LVU690
 2637 0012 24B2     		sxth	r4, r4
 2638              	.LVL243:
 2639              	.L234:
 667:SYS/shell/shell.c ****     {
 2640              		.loc 1 667 23 is_stmt 1 discriminator 1 view .LVU691
 667:SYS/shell/shell.c ****     {
 2641              		.loc 1 667 45 is_stmt 0 discriminator 1 view .LVU692
 2642 0014 B6F85C30 		ldrh	r3, [r6, #92]
 667:SYS/shell/shell.c ****     {
 2643              		.loc 1 667 5 discriminator 1 view .LVU693
 2644 0018 9C42     		cmp	r4, r3
 2645 001a 11DA     		bge	.L238
 669:SYS/shell/shell.c ****         {
 2646              		.loc 1 669 9 is_stmt 1 view .LVU694
 669:SYS/shell/shell.c ****         {
 2647              		.loc 1 669 17 is_stmt 0 view .LVU695
 2648 001c 07EB0415 		add	r5, r7, r4, lsl #4
 669:SYS/shell/shell.c ****         {
 2649              		.loc 1 669 55 view .LVU696
 2650 0020 6B78     		ldrb	r3, [r5, #1]	@ zero_extendqisi2
 2651 0022 03F00F03 		and	r3, r3, #15
 669:SYS/shell/shell.c ****         {
 2652              		.loc 1 669 12 view .LVU697
 2653 0026 092B     		cmp	r3, #9
 2654 0028 F2D1     		bne	.L235
 669:SYS/shell/shell.c ****         {
 2655              		.loc 1 669 103 discriminator 1 view .LVU698
 2656 002a 2946     		mov	r1, r5
 2657 002c 3046     		mov	r0, r6
ARM GAS  /var/folders/lx/hc4sn_b53233_zkc9xbbl97r0000gp/T//ccK5P7Jb.s 			page 88


 2658 002e FFF7FEFF 		bl	shellCheckPermission
 2659              	.LVL244:
 669:SYS/shell/shell.c ****         {
 2660              		.loc 1 669 100 discriminator 1 view .LVU699
 2661 0032 0028     		cmp	r0, #0
 2662 0034 ECD1     		bne	.L235
 671:SYS/shell/shell.c ****         }
 2663              		.loc 1 671 13 is_stmt 1 view .LVU700
 2664 0036 2946     		mov	r1, r5
 2665 0038 3046     		mov	r0, r6
 2666 003a FFF7FEFF 		bl	shellListItem
 2667              	.LVL245:
 2668 003e E7E7     		b	.L235
 2669              	.L238:
 671:SYS/shell/shell.c ****         }
 2670              		.loc 1 671 13 is_stmt 0 view .LVU701
 2671              	.LBE13:
 674:SYS/shell/shell.c **** 
 2672              		.loc 1 674 1 view .LVU702
 2673 0040 F8BD     		pop	{r3, r4, r5, r6, r7, pc}
 2674              	.LVL246:
 2675              	.L240:
 674:SYS/shell/shell.c **** 
 2676              		.loc 1 674 1 view .LVU703
 2677 0042 00BF     		.align	2
 2678              	.L239:
 2679 0044 00000000 		.word	.LC19
 2680              		.cfi_endproc
 2681              	.LFE146:
 2683              		.section	.text.shellKeys,"ax",%progbits
 2684              		.align	1
 2685              		.global	shellKeys
 2686              		.syntax unified
 2687              		.thumb
 2688              		.thumb_func
 2689              		.fpu fpv4-sp-d16
 2691              	shellKeys:
 2692              	.LFB181:
1745:SYS/shell/shell.c ****     Shell *shell = shellGetCurrent();
 2693              		.loc 1 1745 1 is_stmt 1 view -0
 2694              		.cfi_startproc
 2695              		@ args = 0, pretend = 0, frame = 0
 2696              		@ frame_needed = 0, uses_anonymous_args = 0
 2697 0000 08B5     		push	{r3, lr}
 2698              	.LCFI42:
 2699              		.cfi_def_cfa_offset 8
 2700              		.cfi_offset 3, -8
 2701              		.cfi_offset 14, -4
1746:SYS/shell/shell.c ****     if (shell)
 2702              		.loc 1 1746 5 view .LVU705
1746:SYS/shell/shell.c ****     if (shell)
 2703              		.loc 1 1746 20 is_stmt 0 view .LVU706
 2704 0002 FFF7FEFF 		bl	shellGetCurrent
 2705              	.LVL247:
1747:SYS/shell/shell.c ****     {
 2706              		.loc 1 1747 5 is_stmt 1 view .LVU707
1747:SYS/shell/shell.c ****     {
ARM GAS  /var/folders/lx/hc4sn_b53233_zkc9xbbl97r0000gp/T//ccK5P7Jb.s 			page 89


 2707              		.loc 1 1747 8 is_stmt 0 view .LVU708
 2708 0006 08B1     		cbz	r0, .L241
1749:SYS/shell/shell.c ****     }
 2709              		.loc 1 1749 9 is_stmt 1 view .LVU709
 2710 0008 FFF7FEFF 		bl	shellListKey
 2711              	.LVL248:
 2712              	.L241:
1751:SYS/shell/shell.c **** SHELL_EXPORT_CMD(
 2713              		.loc 1 1751 1 is_stmt 0 view .LVU710
 2714 000c 08BD     		pop	{r3, pc}
 2715              		.cfi_endproc
 2716              	.LFE181:
 2718              		.section	.text.shellListAll,"ax",%progbits
 2719              		.align	1
 2720              		.global	shellListAll
 2721              		.syntax unified
 2722              		.thumb
 2723              		.thumb_func
 2724              		.fpu fpv4-sp-d16
 2726              	shellListAll:
 2727              	.LVL249:
 2728              	.LFB147:
 682:SYS/shell/shell.c **** #if SHELL_HELP_LIST_USER == 1
 2729              		.loc 1 682 1 is_stmt 1 view -0
 2730              		.cfi_startproc
 2731              		@ args = 0, pretend = 0, frame = 0
 2732              		@ frame_needed = 0, uses_anonymous_args = 0
 682:SYS/shell/shell.c **** #if SHELL_HELP_LIST_USER == 1
 2733              		.loc 1 682 1 is_stmt 0 view .LVU712
 2734 0000 08B5     		push	{r3, lr}
 2735              	.LCFI43:
 2736              		.cfi_def_cfa_offset 8
 2737              		.cfi_offset 3, -8
 2738              		.cfi_offset 14, -4
 686:SYS/shell/shell.c **** #if SHELL_HELP_LIST_VAR == 1
 2739              		.loc 1 686 5 is_stmt 1 view .LVU713
 2740 0002 FFF7FEFF 		bl	shellListCommand
 2741              	.LVL250:
 693:SYS/shell/shell.c **** 
 2742              		.loc 1 693 1 is_stmt 0 view .LVU714
 2743 0006 08BD     		pop	{r3, pc}
 2744              		.cfi_endproc
 2745              	.LFE147:
 2747              		.section	.rodata.shellDeleteCommandLine.str1.4,"aMS",%progbits,1
 2748              		.align	2
 2749              	.LC20:
 2750 0000 08200800 		.ascii	"\010 \010\000"
 2751              		.section	.text.shellDeleteCommandLine,"ax",%progbits
 2752              		.align	1
 2753              		.global	shellDeleteCommandLine
 2754              		.syntax unified
 2755              		.thumb
 2756              		.thumb_func
 2757              		.fpu fpv4-sp-d16
 2759              	shellDeleteCommandLine:
 2760              	.LVL251:
 2761              	.LFB148:
ARM GAS  /var/folders/lx/hc4sn_b53233_zkc9xbbl97r0000gp/T//ccK5P7Jb.s 			page 90


 702:SYS/shell/shell.c ****     while (length--)
 2762              		.loc 1 702 1 is_stmt 1 view -0
 2763              		.cfi_startproc
 2764              		@ args = 0, pretend = 0, frame = 0
 2765              		@ frame_needed = 0, uses_anonymous_args = 0
 702:SYS/shell/shell.c ****     while (length--)
 2766              		.loc 1 702 1 is_stmt 0 view .LVU716
 2767 0000 38B5     		push	{r3, r4, r5, lr}
 2768              	.LCFI44:
 2769              		.cfi_def_cfa_offset 16
 2770              		.cfi_offset 3, -16
 2771              		.cfi_offset 4, -12
 2772              		.cfi_offset 5, -8
 2773              		.cfi_offset 14, -4
 2774 0002 0546     		mov	r5, r0
 703:SYS/shell/shell.c ****     {
 2775              		.loc 1 703 5 is_stmt 1 view .LVU717
 703:SYS/shell/shell.c ****     {
 2776              		.loc 1 703 11 is_stmt 0 view .LVU718
 2777 0004 04E0     		b	.L247
 2778              	.LVL252:
 2779              	.L248:
 705:SYS/shell/shell.c ****     }
 2780              		.loc 1 705 9 is_stmt 1 view .LVU719
 2781 0006 0549     		ldr	r1, .L250
 2782 0008 2846     		mov	r0, r5
 2783 000a FFF7FEFF 		bl	shellWriteString
 2784              	.LVL253:
 703:SYS/shell/shell.c ****     {
 2785              		.loc 1 703 18 is_stmt 0 view .LVU720
 2786 000e 2146     		mov	r1, r4
 2787              	.LVL254:
 2788              	.L247:
 703:SYS/shell/shell.c ****     {
 2789              		.loc 1 703 11 is_stmt 1 view .LVU721
 703:SYS/shell/shell.c ****     {
 2790              		.loc 1 703 18 is_stmt 0 view .LVU722
 2791 0010 4B1E     		subs	r3, r1, #1
 2792 0012 DCB2     		uxtb	r4, r3
 2793              	.LVL255:
 703:SYS/shell/shell.c ****     {
 2794              		.loc 1 703 11 view .LVU723
 2795 0014 0029     		cmp	r1, #0
 2796 0016 F6D1     		bne	.L248
 707:SYS/shell/shell.c **** 
 2797              		.loc 1 707 1 view .LVU724
 2798 0018 38BD     		pop	{r3, r4, r5, pc}
 2799              	.LVL256:
 2800              	.L251:
 707:SYS/shell/shell.c **** 
 2801              		.loc 1 707 1 view .LVU725
 2802 001a 00BF     		.align	2
 2803              	.L250:
 2804 001c 00000000 		.word	.LC20
 2805              		.cfi_endproc
 2806              	.LFE148:
 2808              		.section	.text.shellClearCommandLine,"ax",%progbits
ARM GAS  /var/folders/lx/hc4sn_b53233_zkc9xbbl97r0000gp/T//ccK5P7Jb.s 			page 91


 2809              		.align	1
 2810              		.global	shellClearCommandLine
 2811              		.syntax unified
 2812              		.thumb
 2813              		.thumb_func
 2814              		.fpu fpv4-sp-d16
 2816              	shellClearCommandLine:
 2817              	.LVL257:
 2818              	.LFB149:
 715:SYS/shell/shell.c ****     for (short i = shell->parser.length - shell->parser.cursor; i > 0; i--)
 2819              		.loc 1 715 1 is_stmt 1 view -0
 2820              		.cfi_startproc
 2821              		@ args = 0, pretend = 0, frame = 0
 2822              		@ frame_needed = 0, uses_anonymous_args = 0
 715:SYS/shell/shell.c ****     for (short i = shell->parser.length - shell->parser.cursor; i > 0; i--)
 2823              		.loc 1 715 1 is_stmt 0 view .LVU727
 2824 0000 38B5     		push	{r3, r4, r5, lr}
 2825              	.LCFI45:
 2826              		.cfi_def_cfa_offset 16
 2827              		.cfi_offset 3, -16
 2828              		.cfi_offset 4, -12
 2829              		.cfi_offset 5, -8
 2830              		.cfi_offset 14, -4
 2831 0002 0546     		mov	r5, r0
 716:SYS/shell/shell.c ****     {
 2832              		.loc 1 716 5 is_stmt 1 view .LVU728
 2833              	.LBB14:
 716:SYS/shell/shell.c ****     {
 2834              		.loc 1 716 10 view .LVU729
 716:SYS/shell/shell.c ****     {
 2835              		.loc 1 716 33 is_stmt 0 view .LVU730
 2836 0004 8489     		ldrh	r4, [r0, #12]
 716:SYS/shell/shell.c ****     {
 2837              		.loc 1 716 56 view .LVU731
 2838 0006 C389     		ldrh	r3, [r0, #14]
 716:SYS/shell/shell.c ****     {
 2839              		.loc 1 716 41 view .LVU732
 2840 0008 E41A     		subs	r4, r4, r3
 716:SYS/shell/shell.c ****     {
 2841              		.loc 1 716 16 view .LVU733
 2842 000a 24B2     		sxth	r4, r4
 2843              	.LVL258:
 716:SYS/shell/shell.c ****     {
 2844              		.loc 1 716 5 view .LVU734
 2845 000c 05E0     		b	.L253
 2846              	.LVL259:
 2847              	.L254:
 718:SYS/shell/shell.c ****     }
 2848              		.loc 1 718 9 is_stmt 1 discriminator 3 view .LVU735
 2849 000e 2021     		movs	r1, #32
 2850 0010 2846     		mov	r0, r5
 2851 0012 FFF7FEFF 		bl	shellWriteByte
 2852              	.LVL260:
 716:SYS/shell/shell.c ****     {
 2853              		.loc 1 716 72 discriminator 3 view .LVU736
 716:SYS/shell/shell.c ****     {
 2854              		.loc 1 716 73 is_stmt 0 discriminator 3 view .LVU737
ARM GAS  /var/folders/lx/hc4sn_b53233_zkc9xbbl97r0000gp/T//ccK5P7Jb.s 			page 92


 2855 0016 013C     		subs	r4, r4, #1
 2856              	.LVL261:
 716:SYS/shell/shell.c ****     {
 2857              		.loc 1 716 73 discriminator 3 view .LVU738
 2858 0018 24B2     		sxth	r4, r4
 2859              	.LVL262:
 2860              	.L253:
 716:SYS/shell/shell.c ****     {
 2861              		.loc 1 716 65 is_stmt 1 discriminator 1 view .LVU739
 716:SYS/shell/shell.c ****     {
 2862              		.loc 1 716 5 is_stmt 0 discriminator 1 view .LVU740
 2863 001a 002C     		cmp	r4, #0
 2864 001c F7DC     		bgt	.L254
 716:SYS/shell/shell.c ****     {
 2865              		.loc 1 716 5 discriminator 1 view .LVU741
 2866              	.LBE14:
 720:SYS/shell/shell.c **** }
 2867              		.loc 1 720 5 is_stmt 1 view .LVU742
 2868 001e 297B     		ldrb	r1, [r5, #12]	@ zero_extendqisi2
 2869 0020 2846     		mov	r0, r5
 2870 0022 FFF7FEFF 		bl	shellDeleteCommandLine
 2871              	.LVL263:
 721:SYS/shell/shell.c **** 
 2872              		.loc 1 721 1 is_stmt 0 view .LVU743
 2873 0026 38BD     		pop	{r3, r4, r5, pc}
 721:SYS/shell/shell.c **** 
 2874              		.loc 1 721 1 view .LVU744
 2875              		.cfi_endproc
 2876              	.LFE149:
 2878              		.section	.text.shellHistory,"ax",%progbits
 2879              		.align	1
 2880              		.syntax unified
 2881              		.thumb
 2882              		.thumb_func
 2883              		.fpu fpv4-sp-d16
 2885              	shellHistory:
 2886              	.LVL264:
 2887              	.LFB164:
1244:SYS/shell/shell.c ****     if (dir > 0)
 2888              		.loc 1 1244 1 is_stmt 1 view -0
 2889              		.cfi_startproc
 2890              		@ args = 0, pretend = 0, frame = 0
 2891              		@ frame_needed = 0, uses_anonymous_args = 0
1244:SYS/shell/shell.c ****     if (dir > 0)
 2892              		.loc 1 1244 1 is_stmt 0 view .LVU746
 2893 0000 10B5     		push	{r4, lr}
 2894              	.LCFI46:
 2895              		.cfi_def_cfa_offset 8
 2896              		.cfi_offset 4, -8
 2897              		.cfi_offset 14, -4
 2898 0002 0446     		mov	r4, r0
1245:SYS/shell/shell.c ****     {
 2899              		.loc 1 1245 5 is_stmt 1 view .LVU747
1245:SYS/shell/shell.c ****     {
 2900              		.loc 1 1245 8 is_stmt 0 view .LVU748
 2901 0004 0029     		cmp	r1, #0
 2902              	.LVL265:
ARM GAS  /var/folders/lx/hc4sn_b53233_zkc9xbbl97r0000gp/T//ccK5P7Jb.s 			page 93


1245:SYS/shell/shell.c ****     {
 2903              		.loc 1 1245 8 view .LVU749
 2904 0006 19DD     		ble	.L257
1247:SYS/shell/shell.c ****             -((shell->history.number > shell->history.record) ? shell->history.number : shell->hist
 2905              		.loc 1 1247 9 is_stmt 1 view .LVU750
1247:SYS/shell/shell.c ****             -((shell->history.number > shell->history.record) ? shell->history.number : shell->hist
 2906              		.loc 1 1247 27 is_stmt 0 view .LVU751
 2907 0008 B0F95420 		ldrsh	r2, [r0, #84]
1247:SYS/shell/shell.c ****             -((shell->history.number > shell->history.record) ? shell->history.number : shell->hist
 2908              		.loc 1 1247 34 view .LVU752
 2909 000c 531E     		subs	r3, r2, #1
 2910 000e A0F85430 		strh	r3, [r0, #84]	@ movhi
1248:SYS/shell/shell.c ****         {
 2911              		.loc 1 1248 54 view .LVU753
 2912 0012 B0F85230 		ldrh	r3, [r0, #82]
1248:SYS/shell/shell.c ****         {
 2913              		.loc 1 1248 30 view .LVU754
 2914 0016 B0F85010 		ldrh	r1, [r0, #80]
1248:SYS/shell/shell.c ****         {
 2915              		.loc 1 1248 87 view .LVU755
 2916 001a 8B42     		cmp	r3, r1
 2917 001c 38BF     		it	cc
 2918 001e 0B46     		movcc	r3, r1
1248:SYS/shell/shell.c ****         {
 2919              		.loc 1 1248 13 view .LVU756
 2920 0020 5942     		rsbs	r1, r3, #0
1247:SYS/shell/shell.c ****             -((shell->history.number > shell->history.record) ? shell->history.number : shell->hist
 2921              		.loc 1 1247 12 view .LVU757
 2922 0022 8A42     		cmp	r2, r1
 2923 0024 01DC     		bgt	.L258
1250:SYS/shell/shell.c ****                                           ? shell->history.number
 2924              		.loc 1 1250 13 is_stmt 1 view .LVU758
1250:SYS/shell/shell.c ****                                           ? shell->history.number
 2925              		.loc 1 1250 35 is_stmt 0 view .LVU759
 2926 0026 A4F85410 		strh	r1, [r4, #84]	@ movhi
 2927              	.L258:
1267:SYS/shell/shell.c ****     if (shell->history.offset == 0)
 2928              		.loc 1 1267 5 is_stmt 1 view .LVU760
 2929 002a 2046     		mov	r0, r4
 2930              	.LVL266:
1267:SYS/shell/shell.c ****     if (shell->history.offset == 0)
 2931              		.loc 1 1267 5 is_stmt 0 view .LVU761
 2932 002c FFF7FEFF 		bl	shellClearCommandLine
 2933              	.LVL267:
1268:SYS/shell/shell.c ****     {
 2934              		.loc 1 1268 5 is_stmt 1 view .LVU762
1268:SYS/shell/shell.c ****     {
 2935              		.loc 1 1268 23 is_stmt 0 view .LVU763
 2936 0030 B4F95430 		ldrsh	r3, [r4, #84]
1268:SYS/shell/shell.c ****     {
 2937              		.loc 1 1268 8 view .LVU764
 2938 0034 83B9     		cbnz	r3, .L260
1270:SYS/shell/shell.c ****     }
 2939              		.loc 1 1270 9 is_stmt 1 view .LVU765
1270:SYS/shell/shell.c ****     }
 2940              		.loc 1 1270 53 is_stmt 0 view .LVU766
 2941 0036 A381     		strh	r3, [r4, #12]	@ movhi
ARM GAS  /var/folders/lx/hc4sn_b53233_zkc9xbbl97r0000gp/T//ccK5P7Jb.s 			page 94


1270:SYS/shell/shell.c ****     }
 2942              		.loc 1 1270 30 view .LVU767
 2943 0038 E381     		strh	r3, [r4, #14]	@ movhi
 2944              	.L256:
1282:SYS/shell/shell.c **** 
 2945              		.loc 1 1282 1 view .LVU768
 2946 003a 10BD     		pop	{r4, pc}
 2947              	.LVL268:
 2948              	.L257:
1255:SYS/shell/shell.c ****     {
 2949              		.loc 1 1255 10 is_stmt 1 view .LVU769
1255:SYS/shell/shell.c ****     {
 2950              		.loc 1 1255 13 is_stmt 0 view .LVU770
 2951 003c 0029     		cmp	r1, #0
 2952 003e FCDA     		bge	.L256
1257:SYS/shell/shell.c ****         {
 2953              		.loc 1 1257 9 is_stmt 1 view .LVU771
1257:SYS/shell/shell.c ****         {
 2954              		.loc 1 1257 29 is_stmt 0 view .LVU772
 2955 0040 B0F95430 		ldrsh	r3, [r0, #84]
1257:SYS/shell/shell.c ****         {
 2956              		.loc 1 1257 13 view .LVU773
 2957 0044 0133     		adds	r3, r3, #1
 2958 0046 1BB2     		sxth	r3, r3
1257:SYS/shell/shell.c ****         {
 2959              		.loc 1 1257 12 view .LVU774
 2960 0048 A0F85430 		strh	r3, [r0, #84]	@ movhi
 2961 004c 002B     		cmp	r3, #0
 2962 004e ECDD     		ble	.L258
1259:SYS/shell/shell.c ****             return;
 2963              		.loc 1 1259 13 is_stmt 1 view .LVU775
1259:SYS/shell/shell.c ****             return;
 2964              		.loc 1 1259 35 is_stmt 0 view .LVU776
 2965 0050 0023     		movs	r3, #0
 2966 0052 A0F85430 		strh	r3, [r0, #84]	@ movhi
1260:SYS/shell/shell.c ****         }
 2967              		.loc 1 1260 13 is_stmt 1 view .LVU777
 2968 0056 F0E7     		b	.L256
 2969              	.LVL269:
 2970              	.L260:
1274:SYS/shell/shell.c ****                                                     shell->history.item[(shell->history.record + SH
 2971              		.loc 1 1274 9 view .LVU778
1275:SYS/shell/shell.c ****         {
 2972              		.loc 1 1275 88 is_stmt 0 view .LVU779
 2973 0058 B4F85220 		ldrh	r2, [r4, #82]
1275:SYS/shell/shell.c ****         {
 2974              		.loc 1 1275 96 view .LVU780
 2975 005c 0532     		adds	r2, r2, #5
1275:SYS/shell/shell.c ****         {
 2976              		.loc 1 1275 123 view .LVU781
 2977 005e 1A44     		add	r2, r2, r3
1275:SYS/shell/shell.c ****         {
 2978              		.loc 1 1275 148 view .LVU782
 2979 0060 0C49     		ldr	r1, .L262
 2980 0062 81FB0231 		smull	r3, r1, r1, r2
 2981 0066 D317     		asrs	r3, r2, #31
 2982 0068 C3EB6103 		rsb	r3, r3, r1, asr #1
ARM GAS  /var/folders/lx/hc4sn_b53233_zkc9xbbl97r0000gp/T//ccK5P7Jb.s 			page 95


 2983 006c 03EB8303 		add	r3, r3, r3, lsl #2
 2984 0070 D31A     		subs	r3, r2, r3
1274:SYS/shell/shell.c ****                                                     shell->history.item[(shell->history.record + SH
 2985              		.loc 1 1274 37 view .LVU783
 2986 0072 0E33     		adds	r3, r3, #14
 2987 0074 04EB8303 		add	r3, r4, r3, lsl #2
 2988 0078 5968     		ldr	r1, [r3, #4]
 2989 007a 2069     		ldr	r0, [r4, #16]
 2990 007c FFF7FEFF 		bl	shellStringCopy
 2991              	.LVL270:
1274:SYS/shell/shell.c ****                                                     shell->history.item[(shell->history.record + SH
 2992              		.loc 1 1274 35 view .LVU784
 2993 0080 A081     		strh	r0, [r4, #12]	@ movhi
1274:SYS/shell/shell.c ****                                                     shell->history.item[(shell->history.record + SH
 2994              		.loc 1 1274 12 view .LVU785
 2995 0082 0028     		cmp	r0, #0
 2996 0084 D9D0     		beq	.L256
1279:SYS/shell/shell.c ****         shellWriteString(shell, shell->parser.buffer);
 2997              		.loc 1 1279 9 is_stmt 1 view .LVU786
1279:SYS/shell/shell.c ****         shellWriteString(shell, shell->parser.buffer);
 2998              		.loc 1 1279 30 is_stmt 0 view .LVU787
 2999 0086 E081     		strh	r0, [r4, #14]	@ movhi
1280:SYS/shell/shell.c ****     }
 3000              		.loc 1 1280 9 is_stmt 1 view .LVU788
 3001 0088 2169     		ldr	r1, [r4, #16]
 3002 008a 2046     		mov	r0, r4
 3003 008c FFF7FEFF 		bl	shellWriteString
 3004              	.LVL271:
 3005 0090 D3E7     		b	.L256
 3006              	.L263:
 3007 0092 00BF     		.align	2
 3008              	.L262:
 3009 0094 67666666 		.word	1717986919
 3010              		.cfi_endproc
 3011              	.LFE164:
 3013              		.section	.text.shellUp,"ax",%progbits
 3014              		.align	1
 3015              		.global	shellUp
 3016              		.syntax unified
 3017              		.thumb
 3018              		.thumb_func
 3019              		.fpu fpv4-sp-d16
 3021              	shellUp:
 3022              	.LVL272:
 3023              	.LFB167:
1347:SYS/shell/shell.c ****     shellHistory(shell, 1);
 3024              		.loc 1 1347 1 view -0
 3025              		.cfi_startproc
 3026              		@ args = 0, pretend = 0, frame = 0
 3027              		@ frame_needed = 0, uses_anonymous_args = 0
1347:SYS/shell/shell.c ****     shellHistory(shell, 1);
 3028              		.loc 1 1347 1 is_stmt 0 view .LVU790
 3029 0000 08B5     		push	{r3, lr}
 3030              	.LCFI47:
 3031              		.cfi_def_cfa_offset 8
 3032              		.cfi_offset 3, -8
 3033              		.cfi_offset 14, -4
ARM GAS  /var/folders/lx/hc4sn_b53233_zkc9xbbl97r0000gp/T//ccK5P7Jb.s 			page 96


1348:SYS/shell/shell.c **** }
 3034              		.loc 1 1348 5 is_stmt 1 view .LVU791
 3035 0002 0121     		movs	r1, #1
 3036 0004 FFF7FEFF 		bl	shellHistory
 3037              	.LVL273:
1349:SYS/shell/shell.c **** SHELL_EXPORT_KEY(SHELL_CMD_PERMISSION(0), 0x1B5B4100, shellUp, up);
 3038              		.loc 1 1349 1 is_stmt 0 view .LVU792
 3039 0008 08BD     		pop	{r3, pc}
 3040              		.cfi_endproc
 3041              	.LFE167:
 3043              		.section	.text.shellDown,"ax",%progbits
 3044              		.align	1
 3045              		.global	shellDown
 3046              		.syntax unified
 3047              		.thumb
 3048              		.thumb_func
 3049              		.fpu fpv4-sp-d16
 3051              	shellDown:
 3052              	.LVL274:
 3053              	.LFB168:
1358:SYS/shell/shell.c ****     shellHistory(shell, -1);
 3054              		.loc 1 1358 1 is_stmt 1 view -0
 3055              		.cfi_startproc
 3056              		@ args = 0, pretend = 0, frame = 0
 3057              		@ frame_needed = 0, uses_anonymous_args = 0
1358:SYS/shell/shell.c ****     shellHistory(shell, -1);
 3058              		.loc 1 1358 1 is_stmt 0 view .LVU794
 3059 0000 08B5     		push	{r3, lr}
 3060              	.LCFI48:
 3061              		.cfi_def_cfa_offset 8
 3062              		.cfi_offset 3, -8
 3063              		.cfi_offset 14, -4
1359:SYS/shell/shell.c **** }
 3064              		.loc 1 1359 5 is_stmt 1 view .LVU795
 3065 0002 4FF0FF31 		mov	r1, #-1
 3066 0006 FFF7FEFF 		bl	shellHistory
 3067              	.LVL275:
1360:SYS/shell/shell.c **** SHELL_EXPORT_KEY(SHELL_CMD_PERMISSION(0), 0x1B5B4200, shellDown, down);
 3068              		.loc 1 1360 1 is_stmt 0 view .LVU796
 3069 000a 08BD     		pop	{r3, pc}
 3070              		.cfi_endproc
 3071              	.LFE168:
 3073              		.section	.text.shellTab,"ax",%progbits
 3074              		.align	1
 3075              		.global	shellTab
 3076              		.syntax unified
 3077              		.thumb
 3078              		.thumb_func
 3079              		.fpu fpv4-sp-d16
 3081              	shellTab:
 3082              	.LVL276:
 3083              	.LFB171:
1400:SYS/shell/shell.c ****     unsigned short maxMatch = shell->parser.bufferSize;
 3084              		.loc 1 1400 1 is_stmt 1 view -0
 3085              		.cfi_startproc
 3086              		@ args = 0, pretend = 0, frame = 0
 3087              		@ frame_needed = 0, uses_anonymous_args = 0
ARM GAS  /var/folders/lx/hc4sn_b53233_zkc9xbbl97r0000gp/T//ccK5P7Jb.s 			page 97


1400:SYS/shell/shell.c ****     unsigned short maxMatch = shell->parser.bufferSize;
 3088              		.loc 1 1400 1 is_stmt 0 view .LVU798
 3089 0000 2DE9F84F 		push	{r3, r4, r5, r6, r7, r8, r9, r10, fp, lr}
 3090              	.LCFI49:
 3091              		.cfi_def_cfa_offset 40
 3092              		.cfi_offset 3, -40
 3093              		.cfi_offset 4, -36
 3094              		.cfi_offset 5, -32
 3095              		.cfi_offset 6, -28
 3096              		.cfi_offset 7, -24
 3097              		.cfi_offset 8, -20
 3098              		.cfi_offset 9, -16
 3099              		.cfi_offset 10, -12
 3100              		.cfi_offset 11, -8
 3101              		.cfi_offset 14, -4
 3102 0004 0546     		mov	r5, r0
1401:SYS/shell/shell.c ****     unsigned short lastMatchIndex = 0;
 3103              		.loc 1 1401 5 is_stmt 1 view .LVU799
1401:SYS/shell/shell.c ****     unsigned short lastMatchIndex = 0;
 3104              		.loc 1 1401 20 is_stmt 0 view .LVU800
 3105 0006 B0F834A0 		ldrh	r10, [r0, #52]
 3106              	.LVL277:
1402:SYS/shell/shell.c ****     unsigned short matchNum = 0;
 3107              		.loc 1 1402 5 is_stmt 1 view .LVU801
1403:SYS/shell/shell.c ****     unsigned short length;
 3108              		.loc 1 1403 5 view .LVU802
1404:SYS/shell/shell.c **** 
 3109              		.loc 1 1404 5 view .LVU803
1406:SYS/shell/shell.c ****     {
 3110              		.loc 1 1406 5 view .LVU804
1406:SYS/shell/shell.c ****     {
 3111              		.loc 1 1406 22 is_stmt 0 view .LVU805
 3112 000a 8389     		ldrh	r3, [r0, #12]
1406:SYS/shell/shell.c ****     {
 3113              		.loc 1 1406 8 view .LVU806
 3114 000c 43B1     		cbz	r3, .L279
1411:SYS/shell/shell.c ****     {
 3115              		.loc 1 1411 10 is_stmt 1 view .LVU807
 3116              	.LBB15:
1413:SYS/shell/shell.c ****         ShellCommand *base = (ShellCommand *)shell->commandList.base;
 3117              		.loc 1 1413 9 view .LVU808
1413:SYS/shell/shell.c ****         ShellCommand *base = (ShellCommand *)shell->commandList.base;
 3118              		.loc 1 1413 22 is_stmt 0 view .LVU809
 3119 000e 0269     		ldr	r2, [r0, #16]
1413:SYS/shell/shell.c ****         ShellCommand *base = (ShellCommand *)shell->commandList.base;
 3120              		.loc 1 1413 52 view .LVU810
 3121 0010 4FF00008 		mov	r8, #0
 3122 0014 02F80380 		strb	r8, [r2, r3]
1414:SYS/shell/shell.c ****         for (short i = 0; i < shell->commandList.count; i++)
 3123              		.loc 1 1414 9 is_stmt 1 view .LVU811
1414:SYS/shell/shell.c ****         for (short i = 0; i < shell->commandList.count; i++)
 3124              		.loc 1 1414 23 is_stmt 0 view .LVU812
 3125 0018 876D     		ldr	r7, [r0, #88]
 3126              	.LVL278:
1415:SYS/shell/shell.c ****         {
 3127              		.loc 1 1415 9 is_stmt 1 view .LVU813
 3128              	.LBB16:
ARM GAS  /var/folders/lx/hc4sn_b53233_zkc9xbbl97r0000gp/T//ccK5P7Jb.s 			page 98


1415:SYS/shell/shell.c ****         {
 3129              		.loc 1 1415 14 view .LVU814
1415:SYS/shell/shell.c ****         {
 3130              		.loc 1 1415 20 is_stmt 0 view .LVU815
 3131 001a 4446     		mov	r4, r8
 3132              	.LBE16:
 3133              	.LBE15:
1403:SYS/shell/shell.c ****     unsigned short length;
 3134              		.loc 1 1403 20 view .LVU816
 3135 001c C146     		mov	r9, r8
 3136              	.LBB19:
 3137              	.LBB17:
1415:SYS/shell/shell.c ****         {
 3138              		.loc 1 1415 9 view .LVU817
 3139 001e 24E0     		b	.L271
 3140              	.LVL279:
 3141              	.L279:
1415:SYS/shell/shell.c ****         {
 3142              		.loc 1 1415 9 view .LVU818
 3143              	.LBE17:
 3144              	.LBE19:
1408:SYS/shell/shell.c ****         shellWriteCommandLine(shell, 1);
 3145              		.loc 1 1408 9 is_stmt 1 view .LVU819
 3146 0020 FFF7FEFF 		bl	shellListAll
 3147              	.LVL280:
1409:SYS/shell/shell.c ****     }
 3148              		.loc 1 1409 9 view .LVU820
 3149 0024 0121     		movs	r1, #1
 3150 0026 2846     		mov	r0, r5
 3151 0028 FFF7FEFF 		bl	shellWriteCommandLine
 3152              	.LVL281:
 3153 002c 5EE0     		b	.L268
 3154              	.LVL282:
 3155              	.L274:
 3156              	.LBB20:
 3157              	.LBB18:
1426:SYS/shell/shell.c ****                     length =
 3158              		.loc 1 1426 21 view .LVU821
 3159 002e 07EB0818 		add	r8, r7, r8, lsl #4
 3160              	.LVL283:
1426:SYS/shell/shell.c ****                     length =
 3161              		.loc 1 1426 21 is_stmt 0 view .LVU822
 3162 0032 4146     		mov	r1, r8
 3163 0034 2846     		mov	r0, r5
 3164 0036 FFF7FEFF 		bl	shellListItem
 3165              	.LVL284:
1427:SYS/shell/shell.c ****                         shellStringCompare((char *)shellGetCommandName(&base[lastMatchIndex]),
 3166              		.loc 1 1427 21 is_stmt 1 view .LVU823
1428:SYS/shell/shell.c ****                                            (char *)shellGetCommandName(&base[i]));
 3167              		.loc 1 1428 52 is_stmt 0 view .LVU824
 3168 003a 4046     		mov	r0, r8
 3169 003c FFF7FEFF 		bl	shellGetCommandName
 3170              	.LVL285:
 3171 0040 8046     		mov	r8, r0
1429:SYS/shell/shell.c ****                     maxMatch = (maxMatch > length) ? length : maxMatch;
 3172              		.loc 1 1429 52 view .LVU825
 3173 0042 3046     		mov	r0, r6
ARM GAS  /var/folders/lx/hc4sn_b53233_zkc9xbbl97r0000gp/T//ccK5P7Jb.s 			page 99


 3174 0044 FFF7FEFF 		bl	shellGetCommandName
 3175              	.LVL286:
 3176 0048 0146     		mov	r1, r0
1428:SYS/shell/shell.c ****                                            (char *)shellGetCommandName(&base[i]));
 3177              		.loc 1 1428 25 view .LVU826
 3178 004a 4046     		mov	r0, r8
 3179 004c FFF7FEFF 		bl	shellStringCompare
 3180              	.LVL287:
1430:SYS/shell/shell.c ****                 }
 3181              		.loc 1 1430 21 is_stmt 1 view .LVU827
1430:SYS/shell/shell.c ****                 }
 3182              		.loc 1 1430 30 is_stmt 0 view .LVU828
 3183 0050 8245     		cmp	r10, r0
 3184 0052 28BF     		it	cs
 3185 0054 8246     		movcs	r10, r0
 3186              	.LVL288:
1430:SYS/shell/shell.c ****                 }
 3187              		.loc 1 1430 30 view .LVU829
 3188 0056 1FFA8AFA 		uxth	r10, r10
 3189              	.LVL289:
 3190              	.L273:
1432:SYS/shell/shell.c ****                 matchNum++;
 3191              		.loc 1 1432 17 is_stmt 1 view .LVU830
1432:SYS/shell/shell.c ****                 matchNum++;
 3192              		.loc 1 1432 32 is_stmt 0 view .LVU831
 3193 005a 1FFA84F8 		uxth	r8, r4
 3194              	.LVL290:
1433:SYS/shell/shell.c ****             }
 3195              		.loc 1 1433 17 is_stmt 1 view .LVU832
1433:SYS/shell/shell.c ****             }
 3196              		.loc 1 1433 25 is_stmt 0 view .LVU833
 3197 005e 09F10109 		add	r9, r9, #1
 3198              	.LVL291:
1433:SYS/shell/shell.c ****             }
 3199              		.loc 1 1433 25 view .LVU834
 3200 0062 1FFA89F9 		uxth	r9, r9
 3201              	.LVL292:
 3202              	.L272:
1415:SYS/shell/shell.c ****         {
 3203              		.loc 1 1415 57 is_stmt 1 discriminator 2 view .LVU835
1415:SYS/shell/shell.c ****         {
 3204              		.loc 1 1415 58 is_stmt 0 discriminator 2 view .LVU836
 3205 0066 0134     		adds	r4, r4, #1
 3206              	.LVL293:
1415:SYS/shell/shell.c ****         {
 3207              		.loc 1 1415 58 discriminator 2 view .LVU837
 3208 0068 24B2     		sxth	r4, r4
 3209              	.LVL294:
 3210              	.L271:
1415:SYS/shell/shell.c ****         {
 3211              		.loc 1 1415 27 is_stmt 1 discriminator 1 view .LVU838
1415:SYS/shell/shell.c ****         {
 3212              		.loc 1 1415 49 is_stmt 0 discriminator 1 view .LVU839
 3213 006a B5F85C30 		ldrh	r3, [r5, #92]
1415:SYS/shell/shell.c ****         {
 3214              		.loc 1 1415 9 discriminator 1 view .LVU840
 3215 006e 9C42     		cmp	r4, r3
ARM GAS  /var/folders/lx/hc4sn_b53233_zkc9xbbl97r0000gp/T//ccK5P7Jb.s 			page 100


 3216 0070 1EDA     		bge	.L280
1417:SYS/shell/shell.c ****                                                                                  (char *)shellGetCo
 3217              		.loc 1 1417 13 is_stmt 1 view .LVU841
1417:SYS/shell/shell.c ****                                                                                  (char *)shellGetCo
 3218              		.loc 1 1417 17 is_stmt 0 view .LVU842
 3219 0072 07EB0416 		add	r6, r7, r4, lsl #4
 3220 0076 3146     		mov	r1, r6
 3221 0078 2846     		mov	r0, r5
 3222 007a FFF7FEFF 		bl	shellCheckPermission
 3223              	.LVL295:
1417:SYS/shell/shell.c ****                                                                                  (char *)shellGetCo
 3224              		.loc 1 1417 16 view .LVU843
 3225 007e 0028     		cmp	r0, #0
 3226 0080 F1D1     		bne	.L272
1417:SYS/shell/shell.c ****                                                                                  (char *)shellGetCo
 3227              		.loc 1 1417 63 discriminator 1 view .LVU844
 3228 0082 D5F810B0 		ldr	fp, [r5, #16]
1418:SYS/shell/shell.c ****             {
 3229              		.loc 1 1418 90 discriminator 1 view .LVU845
 3230 0086 3046     		mov	r0, r6
 3231 0088 FFF7FEFF 		bl	shellGetCommandName
 3232              	.LVL296:
 3233 008c 0146     		mov	r1, r0
1417:SYS/shell/shell.c ****                                                                                  (char *)shellGetCo
 3234              		.loc 1 1417 63 discriminator 1 view .LVU846
 3235 008e 5846     		mov	r0, fp
 3236 0090 FFF7FEFF 		bl	shellStringCompare
 3237              	.LVL297:
1418:SYS/shell/shell.c ****             {
 3238              		.loc 1 1418 137 discriminator 1 view .LVU847
 3239 0094 AB89     		ldrh	r3, [r5, #12]
1417:SYS/shell/shell.c ****                                                                                  (char *)shellGetCo
 3240              		.loc 1 1417 60 discriminator 1 view .LVU848
 3241 0096 9842     		cmp	r0, r3
 3242 0098 E5D1     		bne	.L272
1420:SYS/shell/shell.c ****                 {
 3243              		.loc 1 1420 17 is_stmt 1 view .LVU849
1420:SYS/shell/shell.c ****                 {
 3244              		.loc 1 1420 20 is_stmt 0 view .LVU850
 3245 009a B9F1000F 		cmp	r9, #0
 3246 009e DCD0     		beq	.L273
1422:SYS/shell/shell.c ****                     {
 3247              		.loc 1 1422 21 is_stmt 1 view .LVU851
1422:SYS/shell/shell.c ****                     {
 3248              		.loc 1 1422 24 is_stmt 0 view .LVU852
 3249 00a0 B9F1010F 		cmp	r9, #1
 3250 00a4 C3D1     		bne	.L274
1424:SYS/shell/shell.c ****                     }
 3251              		.loc 1 1424 25 is_stmt 1 view .LVU853
 3252 00a6 1A49     		ldr	r1, .L283
 3253 00a8 2846     		mov	r0, r5
 3254 00aa FFF7FEFF 		bl	shellWriteString
 3255              	.LVL298:
 3256 00ae BEE7     		b	.L274
 3257              	.L280:
1424:SYS/shell/shell.c ****                     }
 3258              		.loc 1 1424 25 is_stmt 0 view .LVU854
ARM GAS  /var/folders/lx/hc4sn_b53233_zkc9xbbl97r0000gp/T//ccK5P7Jb.s 			page 101


 3259              	.LBE18:
1436:SYS/shell/shell.c ****         {
 3260              		.loc 1 1436 9 is_stmt 1 view .LVU855
1436:SYS/shell/shell.c ****         {
 3261              		.loc 1 1436 12 is_stmt 0 view .LVU856
 3262 00b0 B9F1000F 		cmp	r9, #0
 3263 00b4 1AD0     		beq	.L268
1440:SYS/shell/shell.c ****         {
 3264              		.loc 1 1440 9 is_stmt 1 view .LVU857
1440:SYS/shell/shell.c ****         {
 3265              		.loc 1 1440 12 is_stmt 0 view .LVU858
 3266 00b6 B9F1010F 		cmp	r9, #1
 3267 00ba 19D0     		beq	.L281
 3268              	.L276:
1444:SYS/shell/shell.c ****         {
 3269              		.loc 1 1444 9 is_stmt 1 view .LVU859
1446:SYS/shell/shell.c ****                 shellStringCopy(shell->parser.buffer,
 3270              		.loc 1 1446 13 view .LVU860
1447:SYS/shell/shell.c ****                                 (char *)shellGetCommandName(&base[lastMatchIndex]));
 3271              		.loc 1 1447 17 is_stmt 0 view .LVU861
 3272 00bc 2C69     		ldr	r4, [r5, #16]
 3273              	.LVL299:
1448:SYS/shell/shell.c ****         }
 3274              		.loc 1 1448 41 view .LVU862
 3275 00be 07EB0817 		add	r7, r7, r8, lsl #4
 3276              	.LVL300:
1448:SYS/shell/shell.c ****         }
 3277              		.loc 1 1448 41 view .LVU863
 3278 00c2 3846     		mov	r0, r7
 3279 00c4 FFF7FEFF 		bl	shellGetCommandName
 3280              	.LVL301:
 3281 00c8 0146     		mov	r1, r0
1447:SYS/shell/shell.c ****                                 (char *)shellGetCommandName(&base[lastMatchIndex]));
 3282              		.loc 1 1447 17 view .LVU864
 3283 00ca 2046     		mov	r0, r4
 3284 00cc FFF7FEFF 		bl	shellStringCopy
 3285              	.LVL302:
1446:SYS/shell/shell.c ****                 shellStringCopy(shell->parser.buffer,
 3286              		.loc 1 1446 34 view .LVU865
 3287 00d0 A881     		strh	r0, [r5, #12]	@ movhi
1450:SYS/shell/shell.c ****         {
 3288              		.loc 1 1450 9 is_stmt 1 view .LVU866
1450:SYS/shell/shell.c ****         {
 3289              		.loc 1 1450 12 is_stmt 0 view .LVU867
 3290 00d2 B9F1010F 		cmp	r9, #1
 3291 00d6 0FD8     		bhi	.L282
 3292              	.L277:
1456:SYS/shell/shell.c ****         shell->parser.cursor = shell->parser.length;
 3293              		.loc 1 1456 9 is_stmt 1 view .LVU868
1456:SYS/shell/shell.c ****         shell->parser.cursor = shell->parser.length;
 3294              		.loc 1 1456 22 is_stmt 0 view .LVU869
 3295 00d8 2A69     		ldr	r2, [r5, #16]
1456:SYS/shell/shell.c ****         shell->parser.cursor = shell->parser.length;
 3296              		.loc 1 1456 43 view .LVU870
 3297 00da AB89     		ldrh	r3, [r5, #12]
1456:SYS/shell/shell.c ****         shell->parser.cursor = shell->parser.length;
 3298              		.loc 1 1456 52 view .LVU871
ARM GAS  /var/folders/lx/hc4sn_b53233_zkc9xbbl97r0000gp/T//ccK5P7Jb.s 			page 102


 3299 00dc 0021     		movs	r1, #0
 3300 00de D154     		strb	r1, [r2, r3]
1457:SYS/shell/shell.c ****         shellWriteString(shell, shell->parser.buffer);
 3301              		.loc 1 1457 9 is_stmt 1 view .LVU872
1457:SYS/shell/shell.c ****         shellWriteString(shell, shell->parser.buffer);
 3302              		.loc 1 1457 45 is_stmt 0 view .LVU873
 3303 00e0 AB89     		ldrh	r3, [r5, #12]
1457:SYS/shell/shell.c ****         shellWriteString(shell, shell->parser.buffer);
 3304              		.loc 1 1457 30 view .LVU874
 3305 00e2 EB81     		strh	r3, [r5, #14]	@ movhi
1458:SYS/shell/shell.c ****     }
 3306              		.loc 1 1458 9 is_stmt 1 view .LVU875
 3307 00e4 2969     		ldr	r1, [r5, #16]
 3308 00e6 2846     		mov	r0, r5
 3309 00e8 FFF7FEFF 		bl	shellWriteString
 3310              	.LVL303:
 3311              	.L268:
1458:SYS/shell/shell.c ****     }
 3312              		.loc 1 1458 9 is_stmt 0 view .LVU876
 3313              	.LBE20:
1481:SYS/shell/shell.c **** SHELL_EXPORT_KEY(SHELL_CMD_PERMISSION(0), 0x09000000, shellTab, tab);
 3314              		.loc 1 1481 1 view .LVU877
 3315 00ec BDE8F88F 		pop	{r3, r4, r5, r6, r7, r8, r9, r10, fp, pc}
 3316              	.LVL304:
 3317              	.L281:
 3318              	.LBB21:
1442:SYS/shell/shell.c ****         }
 3319              		.loc 1 1442 13 is_stmt 1 view .LVU878
 3320 00f0 2846     		mov	r0, r5
 3321 00f2 FFF7FEFF 		bl	shellClearCommandLine
 3322              	.LVL305:
 3323 00f6 E1E7     		b	.L276
 3324              	.LVL306:
 3325              	.L282:
1452:SYS/shell/shell.c ****             shellWriteCommandLine(shell, 1);
 3326              		.loc 1 1452 13 view .LVU879
 3327 00f8 3946     		mov	r1, r7
 3328 00fa 2846     		mov	r0, r5
 3329 00fc FFF7FEFF 		bl	shellListItem
 3330              	.LVL307:
1453:SYS/shell/shell.c ****             shell->parser.length = maxMatch;
 3331              		.loc 1 1453 13 view .LVU880
 3332 0100 0121     		movs	r1, #1
 3333 0102 2846     		mov	r0, r5
 3334 0104 FFF7FEFF 		bl	shellWriteCommandLine
 3335              	.LVL308:
1454:SYS/shell/shell.c ****         }
 3336              		.loc 1 1454 13 view .LVU881
1454:SYS/shell/shell.c ****         }
 3337              		.loc 1 1454 34 is_stmt 0 view .LVU882
 3338 0108 A5F80CA0 		strh	r10, [r5, #12]	@ movhi
 3339 010c E4E7     		b	.L277
 3340              	.L284:
 3341 010e 00BF     		.align	2
 3342              	.L283:
 3343 0110 04000000 		.word	.LC3
 3344              	.LBE21:
ARM GAS  /var/folders/lx/hc4sn_b53233_zkc9xbbl97r0000gp/T//ccK5P7Jb.s 			page 103


 3345              		.cfi_endproc
 3346              	.LFE171:
 3348              		.section	.rodata.shellInsertByte.str1.4,"aMS",%progbits,1
 3349              		.align	2
 3350              	.LC21:
 3351 0000 0D0A5761 		.ascii	"\015\012Warning: Command is too long\015\012\000"
 3351      726E696E 
 3351      673A2043 
 3351      6F6D6D61 
 3351      6E642069 
 3352              		.section	.text.shellInsertByte,"ax",%progbits
 3353              		.align	1
 3354              		.global	shellInsertByte
 3355              		.syntax unified
 3356              		.thumb
 3357              		.thumb_func
 3358              		.fpu fpv4-sp-d16
 3360              	shellInsertByte:
 3361              	.LVL309:
 3362              	.LFB150:
 730:SYS/shell/shell.c ****     /* 判断输入数据是否过长 */
 3363              		.loc 1 730 1 is_stmt 1 view -0
 3364              		.cfi_startproc
 3365              		@ args = 0, pretend = 0, frame = 0
 3366              		@ frame_needed = 0, uses_anonymous_args = 0
 730:SYS/shell/shell.c ****     /* 判断输入数据是否过长 */
 3367              		.loc 1 730 1 is_stmt 0 view .LVU884
 3368 0000 70B5     		push	{r4, r5, r6, lr}
 3369              	.LCFI50:
 3370              		.cfi_def_cfa_offset 16
 3371              		.cfi_offset 4, -16
 3372              		.cfi_offset 5, -12
 3373              		.cfi_offset 6, -8
 3374              		.cfi_offset 14, -4
 3375 0002 0446     		mov	r4, r0
 732:SYS/shell/shell.c ****     {
 3376              		.loc 1 732 5 is_stmt 1 view .LVU885
 732:SYS/shell/shell.c ****     {
 3377              		.loc 1 732 22 is_stmt 0 view .LVU886
 3378 0004 8389     		ldrh	r3, [r0, #12]
 732:SYS/shell/shell.c ****     {
 3379              		.loc 1 732 46 view .LVU887
 3380 0006 828E     		ldrh	r2, [r0, #52]
 732:SYS/shell/shell.c ****     {
 3381              		.loc 1 732 58 view .LVU888
 3382 0008 013A     		subs	r2, r2, #1
 732:SYS/shell/shell.c ****     {
 3383              		.loc 1 732 8 view .LVU889
 3384 000a 9342     		cmp	r3, r2
 3385 000c 07DA     		bge	.L296
 741:SYS/shell/shell.c ****     {
 3386              		.loc 1 741 5 is_stmt 1 view .LVU890
 741:SYS/shell/shell.c ****     {
 3387              		.loc 1 741 22 is_stmt 0 view .LVU891
 3388 000e C289     		ldrh	r2, [r0, #14]
 741:SYS/shell/shell.c ****     {
 3389              		.loc 1 741 8 view .LVU892
ARM GAS  /var/folders/lx/hc4sn_b53233_zkc9xbbl97r0000gp/T//ccK5P7Jb.s 			page 104


 3390 0010 9342     		cmp	r3, r2
 3391 0012 10D0     		beq	.L297
 748:SYS/shell/shell.c ****     {
 3392              		.loc 1 748 10 is_stmt 1 view .LVU893
 748:SYS/shell/shell.c ****     {
 3393              		.loc 1 748 13 is_stmt 0 view .LVU894
 3394 0014 9342     		cmp	r3, r2
 3395 0016 4ED9     		bls	.L285
 750:SYS/shell/shell.c ****         {
 3396              		.loc 1 750 9 is_stmt 1 view .LVU895
 3397              	.LBB22:
 750:SYS/shell/shell.c ****         {
 3398              		.loc 1 750 14 view .LVU896
 750:SYS/shell/shell.c ****         {
 3399              		.loc 1 750 45 is_stmt 0 view .LVU897
 3400 0018 9B1A     		subs	r3, r3, r2
 750:SYS/shell/shell.c ****         {
 3401              		.loc 1 750 20 view .LVU898
 3402 001a 1BB2     		sxth	r3, r3
 3403              	.LVL310:
 750:SYS/shell/shell.c ****         {
 3404              		.loc 1 750 9 view .LVU899
 3405 001c 23E0     		b	.L289
 3406              	.LVL311:
 3407              	.L296:
 750:SYS/shell/shell.c ****         {
 3408              		.loc 1 750 9 view .LVU900
 3409              	.LBE22:
 734:SYS/shell/shell.c ****         shellWriteCommandLine(shell, 1);
 3410              		.loc 1 734 9 is_stmt 1 view .LVU901
 3411 001e 2649     		ldr	r1, .L298
 3412              	.LVL312:
 734:SYS/shell/shell.c ****         shellWriteCommandLine(shell, 1);
 3413              		.loc 1 734 9 is_stmt 0 view .LVU902
 3414 0020 FFF7FEFF 		bl	shellWriteString
 3415              	.LVL313:
 735:SYS/shell/shell.c ****         shellWriteString(shell, shell->parser.buffer);
 3416              		.loc 1 735 9 is_stmt 1 view .LVU903
 3417 0024 0121     		movs	r1, #1
 3418 0026 2046     		mov	r0, r4
 3419 0028 FFF7FEFF 		bl	shellWriteCommandLine
 3420              	.LVL314:
 736:SYS/shell/shell.c ****         return;
 3421              		.loc 1 736 9 view .LVU904
 3422 002c 2169     		ldr	r1, [r4, #16]
 3423 002e 2046     		mov	r0, r4
 3424 0030 FFF7FEFF 		bl	shellWriteString
 3425              	.LVL315:
 737:SYS/shell/shell.c ****     }
 3426              		.loc 1 737 9 view .LVU905
 3427 0034 3FE0     		b	.L285
 3428              	.LVL316:
 3429              	.L297:
 743:SYS/shell/shell.c ****         shell->parser.buffer[shell->parser.length] = 0;
 3430              		.loc 1 743 9 view .LVU906
 743:SYS/shell/shell.c ****         shell->parser.buffer[shell->parser.length] = 0;
 3431              		.loc 1 743 22 is_stmt 0 view .LVU907
ARM GAS  /var/folders/lx/hc4sn_b53233_zkc9xbbl97r0000gp/T//ccK5P7Jb.s 			page 105


 3432 0036 0269     		ldr	r2, [r0, #16]
 743:SYS/shell/shell.c ****         shell->parser.buffer[shell->parser.length] = 0;
 3433              		.loc 1 743 50 view .LVU908
 3434 0038 581C     		adds	r0, r3, #1
 3435              	.LVL317:
 743:SYS/shell/shell.c ****         shell->parser.buffer[shell->parser.length] = 0;
 3436              		.loc 1 743 50 view .LVU909
 3437 003a A081     		strh	r0, [r4, #12]	@ movhi
 743:SYS/shell/shell.c ****         shell->parser.buffer[shell->parser.length] = 0;
 3438              		.loc 1 743 54 view .LVU910
 3439 003c D154     		strb	r1, [r2, r3]
 744:SYS/shell/shell.c ****         shell->parser.cursor++;
 3440              		.loc 1 744 9 is_stmt 1 view .LVU911
 744:SYS/shell/shell.c ****         shell->parser.cursor++;
 3441              		.loc 1 744 22 is_stmt 0 view .LVU912
 3442 003e 2269     		ldr	r2, [r4, #16]
 744:SYS/shell/shell.c ****         shell->parser.cursor++;
 3443              		.loc 1 744 43 view .LVU913
 3444 0040 A389     		ldrh	r3, [r4, #12]
 744:SYS/shell/shell.c ****         shell->parser.cursor++;
 3445              		.loc 1 744 52 view .LVU914
 3446 0042 0020     		movs	r0, #0
 3447 0044 D054     		strb	r0, [r2, r3]
 745:SYS/shell/shell.c ****         shellWriteByte(shell, data);
 3448              		.loc 1 745 9 is_stmt 1 view .LVU915
 745:SYS/shell/shell.c ****         shellWriteByte(shell, data);
 3449              		.loc 1 745 22 is_stmt 0 view .LVU916
 3450 0046 E389     		ldrh	r3, [r4, #14]
 745:SYS/shell/shell.c ****         shellWriteByte(shell, data);
 3451              		.loc 1 745 29 view .LVU917
 3452 0048 0133     		adds	r3, r3, #1
 3453 004a E381     		strh	r3, [r4, #14]	@ movhi
 746:SYS/shell/shell.c ****     }
 3454              		.loc 1 746 9 is_stmt 1 view .LVU918
 3455 004c 2046     		mov	r0, r4
 3456 004e FFF7FEFF 		bl	shellWriteByte
 3457              	.LVL318:
 746:SYS/shell/shell.c ****     }
 3458              		.loc 1 746 9 is_stmt 0 view .LVU919
 3459 0052 30E0     		b	.L285
 3460              	.LVL319:
 3461              	.L290:
 3462              	.LBB23:
 752:SYS/shell/shell.c ****                 shell->parser.buffer[shell->parser.cursor + i - 1];
 3463              		.loc 1 752 13 is_stmt 1 discriminator 3 view .LVU920
 753:SYS/shell/shell.c ****         }
 3464              		.loc 1 753 30 is_stmt 0 discriminator 3 view .LVU921
 3465 0054 2069     		ldr	r0, [r4, #16]
 753:SYS/shell/shell.c ****         }
 3466              		.loc 1 753 51 discriminator 3 view .LVU922
 3467 0056 E289     		ldrh	r2, [r4, #14]
 753:SYS/shell/shell.c ****         }
 3468              		.loc 1 753 59 discriminator 3 view .LVU923
 3469 0058 1A44     		add	r2, r2, r3
 752:SYS/shell/shell.c ****                 shell->parser.buffer[shell->parser.cursor + i - 1];
 3470              		.loc 1 752 33 discriminator 3 view .LVU924
 3471 005a 8518     		adds	r5, r0, r2
ARM GAS  /var/folders/lx/hc4sn_b53233_zkc9xbbl97r0000gp/T//ccK5P7Jb.s 			page 106


 753:SYS/shell/shell.c ****         }
 3472              		.loc 1 753 37 discriminator 3 view .LVU925
 3473 005c 15F8015C 		ldrb	r5, [r5, #-1]	@ zero_extendqisi2
 752:SYS/shell/shell.c ****                 shell->parser.buffer[shell->parser.cursor + i - 1];
 3474              		.loc 1 752 60 discriminator 3 view .LVU926
 3475 0060 8554     		strb	r5, [r0, r2]
 750:SYS/shell/shell.c ****         {
 3476              		.loc 1 750 76 is_stmt 1 discriminator 3 view .LVU927
 750:SYS/shell/shell.c ****         {
 3477              		.loc 1 750 77 is_stmt 0 discriminator 3 view .LVU928
 3478 0062 013B     		subs	r3, r3, #1
 3479              	.LVL320:
 750:SYS/shell/shell.c ****         {
 3480              		.loc 1 750 77 discriminator 3 view .LVU929
 3481 0064 1BB2     		sxth	r3, r3
 3482              	.LVL321:
 3483              	.L289:
 750:SYS/shell/shell.c ****         {
 3484              		.loc 1 750 69 is_stmt 1 discriminator 1 view .LVU930
 750:SYS/shell/shell.c ****         {
 3485              		.loc 1 750 9 is_stmt 0 discriminator 1 view .LVU931
 3486 0066 002B     		cmp	r3, #0
 3487 0068 F4DC     		bgt	.L290
 750:SYS/shell/shell.c ****         {
 3488              		.loc 1 750 9 discriminator 1 view .LVU932
 3489              	.LBE23:
 755:SYS/shell/shell.c ****         shell->parser.buffer[++shell->parser.length] = 0;
 3490              		.loc 1 755 9 is_stmt 1 view .LVU933
 755:SYS/shell/shell.c ****         shell->parser.buffer[++shell->parser.length] = 0;
 3491              		.loc 1 755 22 is_stmt 0 view .LVU934
 3492 006a 2269     		ldr	r2, [r4, #16]
 755:SYS/shell/shell.c ****         shell->parser.buffer[++shell->parser.length] = 0;
 3493              		.loc 1 755 43 view .LVU935
 3494 006c E389     		ldrh	r3, [r4, #14]
 3495              	.LVL322:
 755:SYS/shell/shell.c ****         shell->parser.buffer[++shell->parser.length] = 0;
 3496              		.loc 1 755 50 view .LVU936
 3497 006e 581C     		adds	r0, r3, #1
 3498 0070 E081     		strh	r0, [r4, #14]	@ movhi
 755:SYS/shell/shell.c ****         shell->parser.buffer[++shell->parser.length] = 0;
 3499              		.loc 1 755 54 view .LVU937
 3500 0072 D154     		strb	r1, [r2, r3]
 756:SYS/shell/shell.c ****         for (short i = shell->parser.cursor - 1; i < shell->parser.length; i++)
 3501              		.loc 1 756 9 is_stmt 1 view .LVU938
 756:SYS/shell/shell.c ****         for (short i = shell->parser.cursor - 1; i < shell->parser.length; i++)
 3502              		.loc 1 756 22 is_stmt 0 view .LVU939
 3503 0074 2269     		ldr	r2, [r4, #16]
 756:SYS/shell/shell.c ****         for (short i = shell->parser.cursor - 1; i < shell->parser.length; i++)
 3504              		.loc 1 756 45 view .LVU940
 3505 0076 A389     		ldrh	r3, [r4, #12]
 756:SYS/shell/shell.c ****         for (short i = shell->parser.cursor - 1; i < shell->parser.length; i++)
 3506              		.loc 1 756 30 view .LVU941
 3507 0078 0133     		adds	r3, r3, #1
 3508 007a 9BB2     		uxth	r3, r3
 756:SYS/shell/shell.c ****         for (short i = shell->parser.cursor - 1; i < shell->parser.length; i++)
 3509              		.loc 1 756 54 view .LVU942
 3510 007c A381     		strh	r3, [r4, #12]	@ movhi
ARM GAS  /var/folders/lx/hc4sn_b53233_zkc9xbbl97r0000gp/T//ccK5P7Jb.s 			page 107


 3511 007e 0021     		movs	r1, #0
 3512              	.LVL323:
 756:SYS/shell/shell.c ****         for (short i = shell->parser.cursor - 1; i < shell->parser.length; i++)
 3513              		.loc 1 756 54 view .LVU943
 3514 0080 D154     		strb	r1, [r2, r3]
 757:SYS/shell/shell.c ****         {
 3515              		.loc 1 757 9 is_stmt 1 view .LVU944
 3516              	.LBB24:
 757:SYS/shell/shell.c ****         {
 3517              		.loc 1 757 14 view .LVU945
 757:SYS/shell/shell.c ****         {
 3518              		.loc 1 757 37 is_stmt 0 view .LVU946
 3519 0082 E689     		ldrh	r6, [r4, #14]
 757:SYS/shell/shell.c ****         {
 3520              		.loc 1 757 45 view .LVU947
 3521 0084 013E     		subs	r6, r6, #1
 757:SYS/shell/shell.c ****         {
 3522              		.loc 1 757 20 view .LVU948
 3523 0086 36B2     		sxth	r6, r6
 3524              	.LVL324:
 757:SYS/shell/shell.c ****         {
 3525              		.loc 1 757 9 view .LVU949
 3526 0088 06E0     		b	.L291
 3527              	.L292:
 759:SYS/shell/shell.c ****         }
 3528              		.loc 1 759 13 is_stmt 1 discriminator 3 view .LVU950
 759:SYS/shell/shell.c ****         }
 3529              		.loc 1 759 48 is_stmt 0 discriminator 3 view .LVU951
 3530 008a 2369     		ldr	r3, [r4, #16]
 759:SYS/shell/shell.c ****         }
 3531              		.loc 1 759 13 discriminator 3 view .LVU952
 3532 008c 995D     		ldrb	r1, [r3, r6]	@ zero_extendqisi2
 3533 008e 2046     		mov	r0, r4
 3534 0090 FFF7FEFF 		bl	shellWriteByte
 3535              	.LVL325:
 757:SYS/shell/shell.c ****         {
 3536              		.loc 1 757 76 is_stmt 1 discriminator 3 view .LVU953
 757:SYS/shell/shell.c ****         {
 3537              		.loc 1 757 77 is_stmt 0 discriminator 3 view .LVU954
 3538 0094 0136     		adds	r6, r6, #1
 3539              	.LVL326:
 757:SYS/shell/shell.c ****         {
 3540              		.loc 1 757 77 discriminator 3 view .LVU955
 3541 0096 36B2     		sxth	r6, r6
 3542              	.LVL327:
 3543              	.L291:
 757:SYS/shell/shell.c ****         {
 3544              		.loc 1 757 50 is_stmt 1 discriminator 1 view .LVU956
 757:SYS/shell/shell.c ****         {
 3545              		.loc 1 757 67 is_stmt 0 discriminator 1 view .LVU957
 3546 0098 A589     		ldrh	r5, [r4, #12]
 757:SYS/shell/shell.c ****         {
 3547              		.loc 1 757 9 discriminator 1 view .LVU958
 3548 009a AE42     		cmp	r6, r5
 3549 009c F5DB     		blt	.L292
 757:SYS/shell/shell.c ****         {
 3550              		.loc 1 757 9 discriminator 1 view .LVU959
ARM GAS  /var/folders/lx/hc4sn_b53233_zkc9xbbl97r0000gp/T//ccK5P7Jb.s 			page 108


 3551              	.LBE24:
 761:SYS/shell/shell.c ****         {
 3552              		.loc 1 761 9 is_stmt 1 view .LVU960
 3553              	.LBB25:
 761:SYS/shell/shell.c ****         {
 3554              		.loc 1 761 14 view .LVU961
 761:SYS/shell/shell.c ****         {
 3555              		.loc 1 761 60 is_stmt 0 view .LVU962
 3556 009e E389     		ldrh	r3, [r4, #14]
 761:SYS/shell/shell.c ****         {
 3557              		.loc 1 761 45 view .LVU963
 3558 00a0 ED1A     		subs	r5, r5, r3
 761:SYS/shell/shell.c ****         {
 3559              		.loc 1 761 20 view .LVU964
 3560 00a2 2DB2     		sxth	r5, r5
 3561              	.LVL328:
 761:SYS/shell/shell.c ****         {
 3562              		.loc 1 761 9 view .LVU965
 3563 00a4 05E0     		b	.L293
 3564              	.L294:
 763:SYS/shell/shell.c ****         }
 3565              		.loc 1 763 13 is_stmt 1 discriminator 3 view .LVU966
 3566 00a6 0821     		movs	r1, #8
 3567 00a8 2046     		mov	r0, r4
 3568 00aa FFF7FEFF 		bl	shellWriteByte
 3569              	.LVL329:
 761:SYS/shell/shell.c ****         {
 3570              		.loc 1 761 76 discriminator 3 view .LVU967
 761:SYS/shell/shell.c ****         {
 3571              		.loc 1 761 77 is_stmt 0 discriminator 3 view .LVU968
 3572 00ae 013D     		subs	r5, r5, #1
 3573              	.LVL330:
 761:SYS/shell/shell.c ****         {
 3574              		.loc 1 761 77 discriminator 3 view .LVU969
 3575 00b0 2DB2     		sxth	r5, r5
 3576              	.LVL331:
 3577              	.L293:
 761:SYS/shell/shell.c ****         {
 3578              		.loc 1 761 69 is_stmt 1 discriminator 1 view .LVU970
 761:SYS/shell/shell.c ****         {
 3579              		.loc 1 761 9 is_stmt 0 discriminator 1 view .LVU971
 3580 00b2 002D     		cmp	r5, #0
 3581 00b4 F7DC     		bgt	.L294
 3582              	.LVL332:
 3583              	.L285:
 761:SYS/shell/shell.c ****         {
 3584              		.loc 1 761 9 discriminator 1 view .LVU972
 3585              	.LBE25:
 766:SYS/shell/shell.c **** 
 3586              		.loc 1 766 1 view .LVU973
 3587 00b6 70BD     		pop	{r4, r5, r6, pc}
 3588              	.LVL333:
 3589              	.L299:
 766:SYS/shell/shell.c **** 
 3590              		.loc 1 766 1 view .LVU974
 3591              		.align	2
 3592              	.L298:
ARM GAS  /var/folders/lx/hc4sn_b53233_zkc9xbbl97r0000gp/T//ccK5P7Jb.s 			page 109


 3593 00b8 00000000 		.word	.LC21
 3594              		.cfi_endproc
 3595              	.LFE150:
 3597              		.section	.text.shellDeleteByte,"ax",%progbits
 3598              		.align	1
 3599              		.global	shellDeleteByte
 3600              		.syntax unified
 3601              		.thumb
 3602              		.thumb_func
 3603              		.fpu fpv4-sp-d16
 3605              	shellDeleteByte:
 3606              	.LVL334:
 3607              	.LFB151:
 775:SYS/shell/shell.c ****     char offset = (direction == -1) ? 1 : 0;
 3608              		.loc 1 775 1 is_stmt 1 view -0
 3609              		.cfi_startproc
 3610              		@ args = 0, pretend = 0, frame = 0
 3611              		@ frame_needed = 0, uses_anonymous_args = 0
 775:SYS/shell/shell.c ****     char offset = (direction == -1) ? 1 : 0;
 3612              		.loc 1 775 1 is_stmt 0 view .LVU976
 3613 0000 38B5     		push	{r3, r4, r5, lr}
 3614              	.LCFI51:
 3615              		.cfi_def_cfa_offset 16
 3616              		.cfi_offset 3, -16
 3617              		.cfi_offset 4, -12
 3618              		.cfi_offset 5, -8
 3619              		.cfi_offset 14, -4
 3620 0002 0446     		mov	r4, r0
 776:SYS/shell/shell.c **** 
 3621              		.loc 1 776 5 is_stmt 1 view .LVU977
 776:SYS/shell/shell.c **** 
 3622              		.loc 1 776 41 is_stmt 0 view .LVU978
 3623 0004 B1F1FF3F 		cmp	r1, #-1
 3624 0008 14BF     		ite	ne
 3625 000a 0023     		movne	r3, #0
 3626 000c 0123     		moveq	r3, #1
 3627              	.LVL335:
 778:SYS/shell/shell.c ****     {
 3628              		.loc 1 778 5 is_stmt 1 view .LVU979
 778:SYS/shell/shell.c ****     {
 3629              		.loc 1 778 23 is_stmt 0 view .LVU980
 3630 000e C289     		ldrh	r2, [r0, #14]
 778:SYS/shell/shell.c ****     {
 3631              		.loc 1 778 8 view .LVU981
 3632 0010 0AB9     		cbnz	r2, .L301
 778:SYS/shell/shell.c ****     {
 3633              		.loc 1 778 36 discriminator 1 view .LVU982
 3634 0012 0129     		cmp	r1, #1
 3635 0014 55D0     		beq	.L300
 3636              	.L301:
 778:SYS/shell/shell.c ****     {
 3637              		.loc 1 778 96 discriminator 3 view .LVU983
 3638 0016 A089     		ldrh	r0, [r4, #12]
 3639              	.LVL336:
 778:SYS/shell/shell.c ****     {
 3640              		.loc 1 778 55 discriminator 3 view .LVU984
 3641 0018 8242     		cmp	r2, r0
ARM GAS  /var/folders/lx/hc4sn_b53233_zkc9xbbl97r0000gp/T//ccK5P7Jb.s 			page 110


 3642 001a 03D0     		beq	.L313
 3643              	.L303:
 782:SYS/shell/shell.c ****     {
 3644              		.loc 1 782 5 is_stmt 1 view .LVU985
 782:SYS/shell/shell.c ****     {
 3645              		.loc 1 782 8 is_stmt 0 view .LVU986
 3646 001c 8242     		cmp	r2, r0
 3647 001e 05D0     		beq	.L314
 3648              	.L304:
 791:SYS/shell/shell.c ****         {
 3649              		.loc 1 791 9 is_stmt 1 view .LVU987
 3650              	.LBB26:
 791:SYS/shell/shell.c ****         {
 3651              		.loc 1 791 14 view .LVU988
 791:SYS/shell/shell.c ****         {
 3652              		.loc 1 791 20 is_stmt 0 view .LVU989
 3653 0020 1BB2     		sxth	r3, r3
 3654              	.LVL337:
 791:SYS/shell/shell.c ****         {
 3655              		.loc 1 791 9 view .LVU990
 3656 0022 19E0     		b	.L305
 3657              	.LVL338:
 3658              	.L313:
 791:SYS/shell/shell.c ****         {
 3659              		.loc 1 791 9 view .LVU991
 3660              	.LBE26:
 778:SYS/shell/shell.c ****     {
 3661              		.loc 1 778 104 discriminator 4 view .LVU992
 3662 0024 B1F1FF3F 		cmp	r1, #-1
 3663 0028 F8D1     		bne	.L303
 3664 002a 4AE0     		b	.L300
 3665              	.L314:
 782:SYS/shell/shell.c ****     {
 3666              		.loc 1 782 54 discriminator 1 view .LVU993
 3667 002c 0129     		cmp	r1, #1
 3668 002e F7D1     		bne	.L304
 784:SYS/shell/shell.c ****         shell->parser.length--;
 3669              		.loc 1 784 9 is_stmt 1 view .LVU994
 784:SYS/shell/shell.c ****         shell->parser.length--;
 3670              		.loc 1 784 29 is_stmt 0 view .LVU995
 3671 0030 013A     		subs	r2, r2, #1
 3672 0032 E281     		strh	r2, [r4, #14]	@ movhi
 785:SYS/shell/shell.c ****         shell->parser.buffer[shell->parser.length] = 0;
 3673              		.loc 1 785 9 is_stmt 1 view .LVU996
 785:SYS/shell/shell.c ****         shell->parser.buffer[shell->parser.length] = 0;
 3674              		.loc 1 785 29 is_stmt 0 view .LVU997
 3675 0034 431E     		subs	r3, r0, #1
 3676              	.LVL339:
 785:SYS/shell/shell.c ****         shell->parser.buffer[shell->parser.length] = 0;
 3677              		.loc 1 785 29 view .LVU998
 3678 0036 9BB2     		uxth	r3, r3
 3679 0038 A381     		strh	r3, [r4, #12]	@ movhi
 786:SYS/shell/shell.c ****         shellDeleteCommandLine(shell, 1);
 3680              		.loc 1 786 9 is_stmt 1 view .LVU999
 786:SYS/shell/shell.c ****         shellDeleteCommandLine(shell, 1);
 3681              		.loc 1 786 22 is_stmt 0 view .LVU1000
 3682 003a 2269     		ldr	r2, [r4, #16]
ARM GAS  /var/folders/lx/hc4sn_b53233_zkc9xbbl97r0000gp/T//ccK5P7Jb.s 			page 111


 786:SYS/shell/shell.c ****         shellDeleteCommandLine(shell, 1);
 3683              		.loc 1 786 52 view .LVU1001
 3684 003c 0021     		movs	r1, #0
 3685              	.LVL340:
 786:SYS/shell/shell.c ****         shellDeleteCommandLine(shell, 1);
 3686              		.loc 1 786 52 view .LVU1002
 3687 003e D154     		strb	r1, [r2, r3]
 787:SYS/shell/shell.c ****     }
 3688              		.loc 1 787 9 is_stmt 1 view .LVU1003
 3689 0040 0121     		movs	r1, #1
 3690 0042 2046     		mov	r0, r4
 3691 0044 FFF7FEFF 		bl	shellDeleteCommandLine
 3692              	.LVL341:
 3693 0048 3BE0     		b	.L300
 3694              	.LVL342:
 3695              	.L306:
 3696              	.LBB27:
 793:SYS/shell/shell.c ****                 shell->parser.buffer[shell->parser.cursor + i];
 3697              		.loc 1 793 13 discriminator 3 view .LVU1004
 794:SYS/shell/shell.c ****         }
 3698              		.loc 1 794 30 is_stmt 0 discriminator 3 view .LVU1005
 3699 004a 2069     		ldr	r0, [r4, #16]
 794:SYS/shell/shell.c ****         }
 3700              		.loc 1 794 59 discriminator 3 view .LVU1006
 3701 004c 1A44     		add	r2, r2, r3
 793:SYS/shell/shell.c ****                 shell->parser.buffer[shell->parser.cursor + i];
 3702              		.loc 1 793 33 discriminator 3 view .LVU1007
 3703 004e 551E     		subs	r5, r2, #1
 794:SYS/shell/shell.c ****         }
 3704              		.loc 1 794 37 discriminator 3 view .LVU1008
 3705 0050 825C     		ldrb	r2, [r0, r2]	@ zero_extendqisi2
 793:SYS/shell/shell.c ****                 shell->parser.buffer[shell->parser.cursor + i];
 3706              		.loc 1 793 64 discriminator 3 view .LVU1009
 3707 0052 4255     		strb	r2, [r0, r5]
 791:SYS/shell/shell.c ****         {
 3708              		.loc 1 791 81 is_stmt 1 discriminator 3 view .LVU1010
 791:SYS/shell/shell.c ****         {
 3709              		.loc 1 791 82 is_stmt 0 discriminator 3 view .LVU1011
 3710 0054 0133     		adds	r3, r3, #1
 3711              	.LVL343:
 791:SYS/shell/shell.c ****         {
 3712              		.loc 1 791 82 discriminator 3 view .LVU1012
 3713 0056 1BB2     		sxth	r3, r3
 3714              	.LVL344:
 3715              	.L305:
 791:SYS/shell/shell.c ****         {
 3716              		.loc 1 791 32 is_stmt 1 discriminator 1 view .LVU1013
 791:SYS/shell/shell.c ****         {
 3717              		.loc 1 791 49 is_stmt 0 discriminator 1 view .LVU1014
 3718 0058 A089     		ldrh	r0, [r4, #12]
 791:SYS/shell/shell.c ****         {
 3719              		.loc 1 791 72 discriminator 1 view .LVU1015
 3720 005a E289     		ldrh	r2, [r4, #14]
 791:SYS/shell/shell.c ****         {
 3721              		.loc 1 791 57 discriminator 1 view .LVU1016
 3722 005c 851A     		subs	r5, r0, r2
 791:SYS/shell/shell.c ****         {
ARM GAS  /var/folders/lx/hc4sn_b53233_zkc9xbbl97r0000gp/T//ccK5P7Jb.s 			page 112


 3723              		.loc 1 791 9 discriminator 1 view .LVU1017
 3724 005e AB42     		cmp	r3, r5
 3725 0060 F3DB     		blt	.L306
 791:SYS/shell/shell.c ****         {
 3726              		.loc 1 791 9 discriminator 1 view .LVU1018
 3727              	.LBE27:
 796:SYS/shell/shell.c ****         if (!offset)
 3728              		.loc 1 796 9 is_stmt 1 view .LVU1019
 796:SYS/shell/shell.c ****         if (!offset)
 3729              		.loc 1 796 29 is_stmt 0 view .LVU1020
 3730 0062 0138     		subs	r0, r0, #1
 3731 0064 A081     		strh	r0, [r4, #12]	@ movhi
 797:SYS/shell/shell.c ****         {
 3732              		.loc 1 797 9 is_stmt 1 view .LVU1021
 797:SYS/shell/shell.c ****         {
 3733              		.loc 1 797 12 is_stmt 0 view .LVU1022
 3734 0066 B1F1FF3F 		cmp	r1, #-1
 3735 006a 06D1     		bne	.L315
 3736              	.LVL345:
 3737              	.L307:
 802:SYS/shell/shell.c ****         for (short i = shell->parser.cursor; i < shell->parser.length; i++)
 3738              		.loc 1 802 9 is_stmt 1 view .LVU1023
 802:SYS/shell/shell.c ****         for (short i = shell->parser.cursor; i < shell->parser.length; i++)
 3739              		.loc 1 802 22 is_stmt 0 view .LVU1024
 3740 006c 2269     		ldr	r2, [r4, #16]
 802:SYS/shell/shell.c ****         for (short i = shell->parser.cursor; i < shell->parser.length; i++)
 3741              		.loc 1 802 43 view .LVU1025
 3742 006e A389     		ldrh	r3, [r4, #12]
 802:SYS/shell/shell.c ****         for (short i = shell->parser.cursor; i < shell->parser.length; i++)
 3743              		.loc 1 802 52 view .LVU1026
 3744 0070 0021     		movs	r1, #0
 3745 0072 D154     		strb	r1, [r2, r3]
 803:SYS/shell/shell.c ****         {
 3746              		.loc 1 803 9 is_stmt 1 view .LVU1027
 3747              	.LBB28:
 803:SYS/shell/shell.c ****         {
 3748              		.loc 1 803 14 view .LVU1028
 803:SYS/shell/shell.c ****         {
 3749              		.loc 1 803 20 is_stmt 0 view .LVU1029
 3750 0074 B4F90E50 		ldrsh	r5, [r4, #14]
 3751              	.LVL346:
 803:SYS/shell/shell.c ****         {
 3752              		.loc 1 803 9 view .LVU1030
 3753 0078 0DE0     		b	.L308
 3754              	.LVL347:
 3755              	.L315:
 803:SYS/shell/shell.c ****         {
 3756              		.loc 1 803 9 view .LVU1031
 3757              	.LBE28:
 799:SYS/shell/shell.c ****             shellWriteByte(shell, '\b');
 3758              		.loc 1 799 13 is_stmt 1 view .LVU1032
 799:SYS/shell/shell.c ****             shellWriteByte(shell, '\b');
 3759              		.loc 1 799 33 is_stmt 0 view .LVU1033
 3760 007a 013A     		subs	r2, r2, #1
 3761 007c E281     		strh	r2, [r4, #14]	@ movhi
 800:SYS/shell/shell.c ****         }
 3762              		.loc 1 800 13 is_stmt 1 view .LVU1034
ARM GAS  /var/folders/lx/hc4sn_b53233_zkc9xbbl97r0000gp/T//ccK5P7Jb.s 			page 113


 3763 007e 0821     		movs	r1, #8
 3764              	.LVL348:
 800:SYS/shell/shell.c ****         }
 3765              		.loc 1 800 13 is_stmt 0 view .LVU1035
 3766 0080 2046     		mov	r0, r4
 3767 0082 FFF7FEFF 		bl	shellWriteByte
 3768              	.LVL349:
 800:SYS/shell/shell.c ****         }
 3769              		.loc 1 800 13 view .LVU1036
 3770 0086 F1E7     		b	.L307
 3771              	.LVL350:
 3772              	.L309:
 3773              	.LBB29:
 805:SYS/shell/shell.c ****         }
 3774              		.loc 1 805 13 is_stmt 1 discriminator 3 view .LVU1037
 805:SYS/shell/shell.c ****         }
 3775              		.loc 1 805 48 is_stmt 0 discriminator 3 view .LVU1038
 3776 0088 2369     		ldr	r3, [r4, #16]
 805:SYS/shell/shell.c ****         }
 3777              		.loc 1 805 13 discriminator 3 view .LVU1039
 3778 008a 595D     		ldrb	r1, [r3, r5]	@ zero_extendqisi2
 3779 008c 2046     		mov	r0, r4
 3780 008e FFF7FEFF 		bl	shellWriteByte
 3781              	.LVL351:
 803:SYS/shell/shell.c ****         {
 3782              		.loc 1 803 72 is_stmt 1 discriminator 3 view .LVU1040
 803:SYS/shell/shell.c ****         {
 3783              		.loc 1 803 73 is_stmt 0 discriminator 3 view .LVU1041
 3784 0092 0135     		adds	r5, r5, #1
 3785              	.LVL352:
 803:SYS/shell/shell.c ****         {
 3786              		.loc 1 803 73 discriminator 3 view .LVU1042
 3787 0094 2DB2     		sxth	r5, r5
 3788              	.LVL353:
 3789              	.L308:
 803:SYS/shell/shell.c ****         {
 3790              		.loc 1 803 46 is_stmt 1 discriminator 1 view .LVU1043
 803:SYS/shell/shell.c ****         {
 3791              		.loc 1 803 63 is_stmt 0 discriminator 1 view .LVU1044
 3792 0096 A389     		ldrh	r3, [r4, #12]
 803:SYS/shell/shell.c ****         {
 3793              		.loc 1 803 9 discriminator 1 view .LVU1045
 3794 0098 9D42     		cmp	r5, r3
 3795 009a F5DB     		blt	.L309
 803:SYS/shell/shell.c ****         {
 3796              		.loc 1 803 9 discriminator 1 view .LVU1046
 3797              	.LBE29:
 807:SYS/shell/shell.c ****         for (short i = shell->parser.length - shell->parser.cursor + 1; i > 0; i--)
 3798              		.loc 1 807 9 is_stmt 1 view .LVU1047
 3799 009c 2021     		movs	r1, #32
 3800 009e 2046     		mov	r0, r4
 3801 00a0 FFF7FEFF 		bl	shellWriteByte
 3802              	.LVL354:
 808:SYS/shell/shell.c ****         {
 3803              		.loc 1 808 9 view .LVU1048
 3804              	.LBB30:
 808:SYS/shell/shell.c ****         {
ARM GAS  /var/folders/lx/hc4sn_b53233_zkc9xbbl97r0000gp/T//ccK5P7Jb.s 			page 114


 3805              		.loc 1 808 14 view .LVU1049
 808:SYS/shell/shell.c ****         {
 3806              		.loc 1 808 37 is_stmt 0 view .LVU1050
 3807 00a4 A589     		ldrh	r5, [r4, #12]
 3808              	.LVL355:
 808:SYS/shell/shell.c ****         {
 3809              		.loc 1 808 60 view .LVU1051
 3810 00a6 E389     		ldrh	r3, [r4, #14]
 808:SYS/shell/shell.c ****         {
 3811              		.loc 1 808 45 view .LVU1052
 3812 00a8 ED1A     		subs	r5, r5, r3
 3813 00aa ADB2     		uxth	r5, r5
 808:SYS/shell/shell.c ****         {
 3814              		.loc 1 808 68 view .LVU1053
 3815 00ac 0135     		adds	r5, r5, #1
 808:SYS/shell/shell.c ****         {
 3816              		.loc 1 808 20 view .LVU1054
 3817 00ae 2DB2     		sxth	r5, r5
 3818              	.LVL356:
 808:SYS/shell/shell.c ****         {
 3819              		.loc 1 808 9 view .LVU1055
 3820 00b0 05E0     		b	.L310
 3821              	.L311:
 810:SYS/shell/shell.c ****         }
 3822              		.loc 1 810 13 is_stmt 1 discriminator 3 view .LVU1056
 3823 00b2 0821     		movs	r1, #8
 3824 00b4 2046     		mov	r0, r4
 3825 00b6 FFF7FEFF 		bl	shellWriteByte
 3826              	.LVL357:
 808:SYS/shell/shell.c ****         {
 3827              		.loc 1 808 80 discriminator 3 view .LVU1057
 808:SYS/shell/shell.c ****         {
 3828              		.loc 1 808 81 is_stmt 0 discriminator 3 view .LVU1058
 3829 00ba 013D     		subs	r5, r5, #1
 3830              	.LVL358:
 808:SYS/shell/shell.c ****         {
 3831              		.loc 1 808 81 discriminator 3 view .LVU1059
 3832 00bc 2DB2     		sxth	r5, r5
 3833              	.LVL359:
 3834              	.L310:
 808:SYS/shell/shell.c ****         {
 3835              		.loc 1 808 73 is_stmt 1 discriminator 1 view .LVU1060
 808:SYS/shell/shell.c ****         {
 3836              		.loc 1 808 9 is_stmt 0 discriminator 1 view .LVU1061
 3837 00be 002D     		cmp	r5, #0
 3838 00c0 F7DC     		bgt	.L311
 3839              	.LVL360:
 3840              	.L300:
 808:SYS/shell/shell.c ****         {
 3841              		.loc 1 808 9 discriminator 1 view .LVU1062
 3842              	.LBE30:
 813:SYS/shell/shell.c **** 
 3843              		.loc 1 813 1 view .LVU1063
 3844 00c2 38BD     		pop	{r3, r4, r5, pc}
 813:SYS/shell/shell.c **** 
 3845              		.loc 1 813 1 view .LVU1064
 3846              		.cfi_endproc
ARM GAS  /var/folders/lx/hc4sn_b53233_zkc9xbbl97r0000gp/T//ccK5P7Jb.s 			page 115


 3847              	.LFE151:
 3849              		.section	.text.shellBackspace,"ax",%progbits
 3850              		.align	1
 3851              		.global	shellBackspace
 3852              		.syntax unified
 3853              		.thumb
 3854              		.thumb_func
 3855              		.fpu fpv4-sp-d16
 3857              	shellBackspace:
 3858              	.LVL361:
 3859              	.LFB172:
1490:SYS/shell/shell.c ****     shellDeleteByte(shell, 1);
 3860              		.loc 1 1490 1 is_stmt 1 view -0
 3861              		.cfi_startproc
 3862              		@ args = 0, pretend = 0, frame = 0
 3863              		@ frame_needed = 0, uses_anonymous_args = 0
1490:SYS/shell/shell.c ****     shellDeleteByte(shell, 1);
 3864              		.loc 1 1490 1 is_stmt 0 view .LVU1066
 3865 0000 08B5     		push	{r3, lr}
 3866              	.LCFI52:
 3867              		.cfi_def_cfa_offset 8
 3868              		.cfi_offset 3, -8
 3869              		.cfi_offset 14, -4
1491:SYS/shell/shell.c **** }
 3870              		.loc 1 1491 5 is_stmt 1 view .LVU1067
 3871 0002 0121     		movs	r1, #1
 3872 0004 FFF7FEFF 		bl	shellDeleteByte
 3873              	.LVL362:
1492:SYS/shell/shell.c **** SHELL_EXPORT_KEY(SHELL_CMD_PERMISSION(0) | SHELL_CMD_ENABLE_UNCHECKED,
 3874              		.loc 1 1492 1 is_stmt 0 view .LVU1068
 3875 0008 08BD     		pop	{r3, pc}
 3876              		.cfi_endproc
 3877              	.LFE172:
 3879              		.section	.text.shellDelete,"ax",%progbits
 3880              		.align	1
 3881              		.global	shellDelete
 3882              		.syntax unified
 3883              		.thumb
 3884              		.thumb_func
 3885              		.fpu fpv4-sp-d16
 3887              	shellDelete:
 3888              	.LVL363:
 3889              	.LFB173:
1504:SYS/shell/shell.c ****     shellDeleteByte(shell, -1);
 3890              		.loc 1 1504 1 is_stmt 1 view -0
 3891              		.cfi_startproc
 3892              		@ args = 0, pretend = 0, frame = 0
 3893              		@ frame_needed = 0, uses_anonymous_args = 0
1504:SYS/shell/shell.c ****     shellDeleteByte(shell, -1);
 3894              		.loc 1 1504 1 is_stmt 0 view .LVU1070
 3895 0000 08B5     		push	{r3, lr}
 3896              	.LCFI53:
 3897              		.cfi_def_cfa_offset 8
 3898              		.cfi_offset 3, -8
 3899              		.cfi_offset 14, -4
1505:SYS/shell/shell.c **** }
 3900              		.loc 1 1505 5 is_stmt 1 view .LVU1071
ARM GAS  /var/folders/lx/hc4sn_b53233_zkc9xbbl97r0000gp/T//ccK5P7Jb.s 			page 116


 3901 0002 4FF0FF31 		mov	r1, #-1
 3902 0006 FFF7FEFF 		bl	shellDeleteByte
 3903              	.LVL364:
1506:SYS/shell/shell.c **** SHELL_EXPORT_KEY(SHELL_CMD_PERMISSION(0) | SHELL_CMD_ENABLE_UNCHECKED,
 3904              		.loc 1 1506 1 is_stmt 0 view .LVU1072
 3905 000a 08BD     		pop	{r3, pc}
 3906              		.cfi_endproc
 3907              	.LFE173:
 3909              		.section	.text.shellSeekCommand,"ax",%progbits
 3910              		.align	1
 3911              		.global	shellSeekCommand
 3912              		.syntax unified
 3913              		.thumb
 3914              		.thumb_func
 3915              		.fpu fpv4-sp-d16
 3917              	shellSeekCommand:
 3918              	.LVL365:
 3919              	.LFB154:
 897:SYS/shell/shell.c ****     const char *name;
 3920              		.loc 1 897 1 is_stmt 1 view -0
 3921              		.cfi_startproc
 3922              		@ args = 0, pretend = 0, frame = 0
 3923              		@ frame_needed = 0, uses_anonymous_args = 0
 897:SYS/shell/shell.c ****     const char *name;
 3924              		.loc 1 897 1 is_stmt 0 view .LVU1074
 3925 0000 2DE9F047 		push	{r4, r5, r6, r7, r8, r9, r10, lr}
 3926              	.LCFI54:
 3927              		.cfi_def_cfa_offset 32
 3928              		.cfi_offset 4, -32
 3929              		.cfi_offset 5, -28
 3930              		.cfi_offset 6, -24
 3931              		.cfi_offset 7, -20
 3932              		.cfi_offset 8, -16
 3933              		.cfi_offset 9, -12
 3934              		.cfi_offset 10, -8
 3935              		.cfi_offset 14, -4
 3936 0004 8046     		mov	r8, r0
 3937 0006 8A46     		mov	r10, r1
 3938 0008 1746     		mov	r7, r2
 3939 000a 9946     		mov	r9, r3
 898:SYS/shell/shell.c ****     int ret;
 3940              		.loc 1 898 5 is_stmt 1 view .LVU1075
 899:SYS/shell/shell.c ****     unsigned short count = shell->commandList.count -
 3941              		.loc 1 899 5 view .LVU1076
 900:SYS/shell/shell.c ****                            ((int)base - (int)shell->commandList.base) / sizeof(ShellCommand);
 3942              		.loc 1 900 5 view .LVU1077
 900:SYS/shell/shell.c ****                            ((int)base - (int)shell->commandList.base) / sizeof(ShellCommand);
 3943              		.loc 1 900 46 is_stmt 0 view .LVU1078
 3944 000c B0F85C60 		ldrh	r6, [r0, #92]
 901:SYS/shell/shell.c ****     for (unsigned short i = 0; i < count; i++)
 3945              		.loc 1 901 64 view .LVU1079
 3946 0010 836D     		ldr	r3, [r0, #88]
 3947              	.LVL366:
 901:SYS/shell/shell.c ****     for (unsigned short i = 0; i < count; i++)
 3948              		.loc 1 901 39 view .LVU1080
 3949 0012 D31A     		subs	r3, r2, r3
 900:SYS/shell/shell.c ****                            ((int)base - (int)shell->commandList.base) / sizeof(ShellCommand);
ARM GAS  /var/folders/lx/hc4sn_b53233_zkc9xbbl97r0000gp/T//ccK5P7Jb.s 			page 117


 3950              		.loc 1 900 53 view .LVU1081
 3951 0014 C3F30F13 		ubfx	r3, r3, #4, #16
 900:SYS/shell/shell.c ****                            ((int)base - (int)shell->commandList.base) / sizeof(ShellCommand);
 3952              		.loc 1 900 20 view .LVU1082
 3953 0018 F31A     		subs	r3, r6, r3
 3954 001a 9EB2     		uxth	r6, r3
 3955              	.LVL367:
 902:SYS/shell/shell.c ****     {
 3956              		.loc 1 902 5 is_stmt 1 view .LVU1083
 3957              	.LBB31:
 902:SYS/shell/shell.c ****     {
 3958              		.loc 1 902 10 view .LVU1084
 902:SYS/shell/shell.c ****     {
 3959              		.loc 1 902 25 is_stmt 0 view .LVU1085
 3960 001c 0024     		movs	r4, #0
 902:SYS/shell/shell.c ****     {
 3961              		.loc 1 902 5 view .LVU1086
 3962 001e 06E0     		b	.L321
 3963              	.LVL368:
 3964              	.L323:
 919:SYS/shell/shell.c ****             {
 3965              		.loc 1 919 13 is_stmt 1 view .LVU1087
 919:SYS/shell/shell.c ****             {
 3966              		.loc 1 919 17 is_stmt 0 view .LVU1088
 3967 0020 4A46     		mov	r2, r9
 3968 0022 5046     		mov	r0, r10
 3969              	.LVL369:
 919:SYS/shell/shell.c ****             {
 3970              		.loc 1 919 17 view .LVU1089
 3971 0024 FFF7FEFF 		bl	strncmp
 3972              	.LVL370:
 919:SYS/shell/shell.c ****             {
 3973              		.loc 1 919 16 view .LVU1090
 3974 0028 00B3     		cbz	r0, .L320
 3975              	.L322:
 902:SYS/shell/shell.c ****     {
 3976              		.loc 1 902 43 is_stmt 1 discriminator 2 view .LVU1091
 902:SYS/shell/shell.c ****     {
 3977              		.loc 1 902 44 is_stmt 0 discriminator 2 view .LVU1092
 3978 002a 0134     		adds	r4, r4, #1
 3979              	.LVL371:
 902:SYS/shell/shell.c ****     {
 3980              		.loc 1 902 44 discriminator 2 view .LVU1093
 3981 002c A4B2     		uxth	r4, r4
 3982              	.LVL372:
 3983              	.L321:
 902:SYS/shell/shell.c ****     {
 3984              		.loc 1 902 32 is_stmt 1 discriminator 1 view .LVU1094
 902:SYS/shell/shell.c ****     {
 3985              		.loc 1 902 5 is_stmt 0 discriminator 1 view .LVU1095
 3986 002e B442     		cmp	r4, r6
 3987 0030 1BD2     		bcs	.L327
 904:SYS/shell/shell.c ****         {
 3988              		.loc 1 904 9 is_stmt 1 view .LVU1096
 904:SYS/shell/shell.c ****         {
 3989              		.loc 1 904 17 is_stmt 0 view .LVU1097
 3990 0032 07EB0415 		add	r5, r7, r4, lsl #4
ARM GAS  /var/folders/lx/hc4sn_b53233_zkc9xbbl97r0000gp/T//ccK5P7Jb.s 			page 118


 904:SYS/shell/shell.c ****         {
 3991              		.loc 1 904 37 view .LVU1098
 3992 0036 95F801C0 		ldrb	ip, [r5, #1]	@ zero_extendqisi2
 3993 003a 0CF00F0C 		and	ip, ip, #15
 904:SYS/shell/shell.c ****         {
 3994              		.loc 1 904 12 view .LVU1099
 3995 003e BCF1090F 		cmp	ip, #9
 3996 0042 F2D0     		beq	.L322
 904:SYS/shell/shell.c ****         {
 3997              		.loc 1 904 58 discriminator 1 view .LVU1100
 3998 0044 2946     		mov	r1, r5
 3999 0046 4046     		mov	r0, r8
 4000 0048 FFF7FEFF 		bl	shellCheckPermission
 4001              	.LVL373:
 904:SYS/shell/shell.c ****         {
 4002              		.loc 1 904 55 discriminator 1 view .LVU1101
 4003 004c 0028     		cmp	r0, #0
 4004 004e ECD1     		bne	.L322
 908:SYS/shell/shell.c ****         if (!compareLength)
 4005              		.loc 1 908 9 is_stmt 1 view .LVU1102
 908:SYS/shell/shell.c ****         if (!compareLength)
 4006              		.loc 1 908 16 is_stmt 0 view .LVU1103
 4007 0050 2846     		mov	r0, r5
 4008 0052 FFF7FEFF 		bl	shellGetCommandName
 4009              	.LVL374:
 4010 0056 0146     		mov	r1, r0
 4011              	.LVL375:
 909:SYS/shell/shell.c ****         {
 4012              		.loc 1 909 9 is_stmt 1 view .LVU1104
 909:SYS/shell/shell.c ****         {
 4013              		.loc 1 909 12 is_stmt 0 view .LVU1105
 4014 0058 B9F1000F 		cmp	r9, #0
 4015 005c E0D1     		bne	.L323
 911:SYS/shell/shell.c ****             if (strcmp(cmd, name) == 0)
 4016              		.loc 1 911 13 is_stmt 1 view .LVU1106
 911:SYS/shell/shell.c ****             if (strcmp(cmd, name) == 0)
 4017              		.loc 1 911 19 is_stmt 0 view .LVU1107
 4018 005e 5046     		mov	r0, r10
 4019              	.LVL376:
 911:SYS/shell/shell.c ****             if (strcmp(cmd, name) == 0)
 4020              		.loc 1 911 19 view .LVU1108
 4021 0060 FFF7FEFF 		bl	strcmp
 4022              	.LVL377:
 912:SYS/shell/shell.c ****             {
 4023              		.loc 1 912 13 is_stmt 1 view .LVU1109
 912:SYS/shell/shell.c ****             {
 4024              		.loc 1 912 16 is_stmt 0 view .LVU1110
 4025 0064 0028     		cmp	r0, #0
 4026 0066 E0D1     		bne	.L322
 4027 0068 00E0     		b	.L320
 4028              	.LVL378:
 4029              	.L327:
 912:SYS/shell/shell.c ****             {
 4030              		.loc 1 912 16 view .LVU1111
 4031              	.LBE31:
 925:SYS/shell/shell.c **** }
 4032              		.loc 1 925 12 view .LVU1112
ARM GAS  /var/folders/lx/hc4sn_b53233_zkc9xbbl97r0000gp/T//ccK5P7Jb.s 			page 119


 4033 006a 0025     		movs	r5, #0
 4034              	.L320:
 926:SYS/shell/shell.c **** 
 4035              		.loc 1 926 1 view .LVU1113
 4036 006c 2846     		mov	r0, r5
 4037 006e BDE8F087 		pop	{r4, r5, r6, r7, r8, r9, r10, pc}
 926:SYS/shell/shell.c **** 
 4038              		.loc 1 926 1 view .LVU1114
 4039              		.cfi_endproc
 4040              	.LFE154:
 4042              		.section	.rodata.shellInit.str1.4,"aMS",%progbits,1
 4043              		.align	2
 4044              	.LC22:
 4045 0000 502E302E 		.ascii	"P.0.Wder Squad\000"
 4045      57646572 
 4045      20537175 
 4045      616400
 4046              		.section	.text.shellInit,"ax",%progbits
 4047              		.align	1
 4048              		.global	shellInit
 4049              		.syntax unified
 4050              		.thumb
 4051              		.thumb_func
 4052              		.fpu fpv4-sp-d16
 4054              	shellInit:
 4055              	.LVL379:
 4056              	.LFB126:
 164:SYS/shell/shell.c ****     __asm("cpsid i");
 4057              		.loc 1 164 1 is_stmt 1 view -0
 4058              		.cfi_startproc
 4059              		@ args = 0, pretend = 0, frame = 0
 4060              		@ frame_needed = 0, uses_anonymous_args = 0
 164:SYS/shell/shell.c ****     __asm("cpsid i");
 4061              		.loc 1 164 1 is_stmt 0 view .LVU1116
 4062 0000 10B5     		push	{r4, lr}
 4063              	.LCFI55:
 4064              		.cfi_def_cfa_offset 8
 4065              		.cfi_offset 4, -8
 4066              		.cfi_offset 14, -4
 4067 0002 0446     		mov	r4, r0
 165:SYS/shell/shell.c ****     shell->parser.length = 0;
 4068              		.loc 1 165 5 is_stmt 1 view .LVU1117
 4069              		.syntax unified
 4070              	@ 165 "SYS/shell/shell.c" 1
 4071 0004 72B6     		cpsid i
 4072              	@ 0 "" 2
 166:SYS/shell/shell.c ****     shell->parser.cursor = 0;
 4073              		.loc 1 166 5 view .LVU1118
 166:SYS/shell/shell.c ****     shell->parser.cursor = 0;
 4074              		.loc 1 166 26 is_stmt 0 view .LVU1119
 4075              		.thumb
 4076              		.syntax unified
 4077 0006 0023     		movs	r3, #0
 4078 0008 8381     		strh	r3, [r0, #12]	@ movhi
 167:SYS/shell/shell.c ****     shell->history.offset = 0;
 4079              		.loc 1 167 5 is_stmt 1 view .LVU1120
 167:SYS/shell/shell.c ****     shell->history.offset = 0;
ARM GAS  /var/folders/lx/hc4sn_b53233_zkc9xbbl97r0000gp/T//ccK5P7Jb.s 			page 120


 4080              		.loc 1 167 26 is_stmt 0 view .LVU1121
 4081 000a C381     		strh	r3, [r0, #14]	@ movhi
 168:SYS/shell/shell.c ****     shell->history.number = 0;
 4082              		.loc 1 168 5 is_stmt 1 view .LVU1122
 168:SYS/shell/shell.c ****     shell->history.number = 0;
 4083              		.loc 1 168 27 is_stmt 0 view .LVU1123
 4084 000c A0F85430 		strh	r3, [r0, #84]	@ movhi
 169:SYS/shell/shell.c ****     shell->history.record = 0;
 4085              		.loc 1 169 5 is_stmt 1 view .LVU1124
 169:SYS/shell/shell.c ****     shell->history.record = 0;
 4086              		.loc 1 169 27 is_stmt 0 view .LVU1125
 4087 0010 A0F85030 		strh	r3, [r0, #80]	@ movhi
 170:SYS/shell/shell.c ****     shell->info.user = NULL;
 4088              		.loc 1 170 5 is_stmt 1 view .LVU1126
 170:SYS/shell/shell.c ****     shell->info.user = NULL;
 4089              		.loc 1 170 27 is_stmt 0 view .LVU1127
 4090 0014 A0F85230 		strh	r3, [r0, #82]	@ movhi
 171:SYS/shell/shell.c ****     shell->status.isChecked = 1;
 4091              		.loc 1 171 5 is_stmt 1 view .LVU1128
 171:SYS/shell/shell.c ****     shell->status.isChecked = 1;
 4092              		.loc 1 171 22 is_stmt 0 view .LVU1129
 4093 0018 0360     		str	r3, [r0]
 172:SYS/shell/shell.c **** 
 4094              		.loc 1 172 5 is_stmt 1 view .LVU1130
 172:SYS/shell/shell.c **** 
 4095              		.loc 1 172 29 is_stmt 0 view .LVU1131
 4096 001a 90F86000 		ldrb	r0, [r0, #96]	@ zero_extendqisi2
 4097              	.LVL380:
 172:SYS/shell/shell.c **** 
 4098              		.loc 1 172 29 view .LVU1132
 4099 001e 40F00100 		orr	r0, r0, #1
 4100 0022 84F86000 		strb	r0, [r4, #96]
 174:SYS/shell/shell.c ****     shell->parser.bufferSize = size / (SHELL_HISTORY_MAX_NUMBER + 1);
 4101              		.loc 1 174 5 is_stmt 1 view .LVU1133
 174:SYS/shell/shell.c ****     shell->parser.bufferSize = size / (SHELL_HISTORY_MAX_NUMBER + 1);
 4102              		.loc 1 174 26 is_stmt 0 view .LVU1134
 4103 0026 2161     		str	r1, [r4, #16]
 175:SYS/shell/shell.c ****     for (short i = 0; i < SHELL_HISTORY_MAX_NUMBER; i++)
 4104              		.loc 1 175 5 is_stmt 1 view .LVU1135
 175:SYS/shell/shell.c ****     for (short i = 0; i < SHELL_HISTORY_MAX_NUMBER; i++)
 4105              		.loc 1 175 30 is_stmt 0 view .LVU1136
 4106 0028 1648     		ldr	r0, .L332
 4107 002a A0FB022C 		umull	r2, ip, r0, r2
 4108              	.LVL381:
 175:SYS/shell/shell.c ****     for (short i = 0; i < SHELL_HISTORY_MAX_NUMBER; i++)
 4109              		.loc 1 175 30 view .LVU1137
 4110 002e 4FEA9C0C 		lsr	ip, ip, #2
 4111 0032 A4F834C0 		strh	ip, [r4, #52]	@ movhi
 176:SYS/shell/shell.c ****     {
 4112              		.loc 1 176 5 is_stmt 1 view .LVU1138
 4113              	.LBB32:
 176:SYS/shell/shell.c ****     {
 4114              		.loc 1 176 10 view .LVU1139
 4115              	.LVL382:
 176:SYS/shell/shell.c ****     {
 4116              		.loc 1 176 5 is_stmt 0 view .LVU1140
 4117 0036 09E0     		b	.L329
ARM GAS  /var/folders/lx/hc4sn_b53233_zkc9xbbl97r0000gp/T//ccK5P7Jb.s 			page 121


 4118              	.LVL383:
 4119              	.L330:
 178:SYS/shell/shell.c ****     }
 4120              		.loc 1 178 9 is_stmt 1 discriminator 3 view .LVU1141
 178:SYS/shell/shell.c ****     }
 4121              		.loc 1 178 68 is_stmt 0 discriminator 3 view .LVU1142
 4122 0038 03FB0CC0 		mla	r0, r3, ip, ip
 178:SYS/shell/shell.c ****     }
 4123              		.loc 1 178 41 discriminator 3 view .LVU1143
 4124 003c 0844     		add	r0, r0, r1
 178:SYS/shell/shell.c ****     }
 4125              		.loc 1 178 32 discriminator 3 view .LVU1144
 4126 003e 03F10E02 		add	r2, r3, #14
 4127 0042 04EB8202 		add	r2, r4, r2, lsl #2
 4128 0046 5060     		str	r0, [r2, #4]
 176:SYS/shell/shell.c ****     {
 4129              		.loc 1 176 53 is_stmt 1 discriminator 3 view .LVU1145
 176:SYS/shell/shell.c ****     {
 4130              		.loc 1 176 54 is_stmt 0 discriminator 3 view .LVU1146
 4131 0048 0133     		adds	r3, r3, #1
 4132              	.LVL384:
 176:SYS/shell/shell.c ****     {
 4133              		.loc 1 176 54 discriminator 3 view .LVU1147
 4134 004a 1BB2     		sxth	r3, r3
 4135              	.LVL385:
 4136              	.L329:
 176:SYS/shell/shell.c ****     {
 4137              		.loc 1 176 23 is_stmt 1 discriminator 1 view .LVU1148
 176:SYS/shell/shell.c ****     {
 4138              		.loc 1 176 5 is_stmt 0 discriminator 1 view .LVU1149
 4139 004c 042B     		cmp	r3, #4
 4140 004e F3DD     		ble	.L330
 4141              	.LBE32:
 190:SYS/shell/shell.c ****     shell->commandList.count = ((unsigned int)(&_shell_command_end) - (unsigned int)(&_shell_comman
 4142              		.loc 1 190 5 is_stmt 1 view .LVU1150
 190:SYS/shell/shell.c ****     shell->commandList.count = ((unsigned int)(&_shell_command_end) - (unsigned int)(&_shell_comman
 4143              		.loc 1 190 29 is_stmt 0 view .LVU1151
 4144 0050 0D4A     		ldr	r2, .L332+4
 4145 0052 A265     		str	r2, [r4, #88]
 191:SYS/shell/shell.c **** #else
 4146              		.loc 1 191 5 is_stmt 1 view .LVU1152
 191:SYS/shell/shell.c **** #else
 4147              		.loc 1 191 33 is_stmt 0 view .LVU1153
 4148 0054 0D4B     		ldr	r3, .L332+8
 4149              	.LVL386:
 191:SYS/shell/shell.c **** #else
 4150              		.loc 1 191 69 view .LVU1154
 4151 0056 9B1A     		subs	r3, r3, r2
 191:SYS/shell/shell.c **** #else
 4152              		.loc 1 191 110 view .LVU1155
 4153 0058 1B09     		lsrs	r3, r3, #4
 191:SYS/shell/shell.c **** #else
 4154              		.loc 1 191 30 view .LVU1156
 4155 005a A4F85C30 		strh	r3, [r4, #92]	@ movhi
 200:SYS/shell/shell.c **** 
 4156              		.loc 1 200 5 is_stmt 1 view .LVU1157
 4157 005e 2046     		mov	r0, r4
ARM GAS  /var/folders/lx/hc4sn_b53233_zkc9xbbl97r0000gp/T//ccK5P7Jb.s 			page 122


 4158 0060 FFF7FEFF 		bl	shellAdd
 4159              	.LVL387:
 202:SYS/shell/shell.c ****                                          SHELL_DEFAULT_USER,
 4160              		.loc 1 202 5 view .LVU1158
 202:SYS/shell/shell.c ****                                          SHELL_DEFAULT_USER,
 4161              		.loc 1 202 25 is_stmt 0 view .LVU1159
 4162 0064 0023     		movs	r3, #0
 4163 0066 A26D     		ldr	r2, [r4, #88]
 4164 0068 0949     		ldr	r1, .L332+12
 4165 006a 2046     		mov	r0, r4
 4166 006c FFF7FEFF 		bl	shellSeekCommand
 4167              	.LVL388:
 4168 0070 0146     		mov	r1, r0
 202:SYS/shell/shell.c ****                                          SHELL_DEFAULT_USER,
 4169              		.loc 1 202 5 view .LVU1160
 4170 0072 2046     		mov	r0, r4
 4171 0074 FFF7FEFF 		bl	shellSetUser
 4172              	.LVL389:
 206:SYS/shell/shell.c ****     __asm("cpsie i");
 4173              		.loc 1 206 5 is_stmt 1 view .LVU1161
 4174 0078 0121     		movs	r1, #1
 4175 007a 2046     		mov	r0, r4
 4176 007c FFF7FEFF 		bl	shellWriteCommandLine
 4177              	.LVL390:
 207:SYS/shell/shell.c **** }
 4178              		.loc 1 207 5 view .LVU1162
 4179              		.syntax unified
 4180              	@ 207 "SYS/shell/shell.c" 1
 4181 0080 62B6     		cpsie i
 4182              	@ 0 "" 2
 208:SYS/shell/shell.c **** 
 4183              		.loc 1 208 1 is_stmt 0 view .LVU1163
 4184              		.thumb
 4185              		.syntax unified
 4186 0082 10BD     		pop	{r4, pc}
 4187              	.LVL391:
 4188              	.L333:
 208:SYS/shell/shell.c **** 
 4189              		.loc 1 208 1 view .LVU1164
 4190              		.align	2
 4191              	.L332:
 4192 0084 ABAAAAAA 		.word	-1431655765
 4193 0088 00000000 		.word	_shell_command_start
 4194 008c 00000000 		.word	_shell_command_end
 4195 0090 00000000 		.word	.LC22
 4196              		.cfi_endproc
 4197              	.LFE126:
 4199              		.section	.rodata.shellHelp.str1.4,"aMS",%progbits,1
 4200              		.align	2
 4201              	.LC23:
 4202 0000 636F6D6D 		.ascii	"command help of \000"
 4202      616E6420 
 4202      68656C70 
 4202      206F6620 
 4202      00
 4203 0011 000000   		.align	2
 4204              	.LC24:
ARM GAS  /var/folders/lx/hc4sn_b53233_zkc9xbbl97r0000gp/T//ccK5P7Jb.s 			page 123


 4205 0014 436F6D6D 		.ascii	"Command not Found\015\012\000"
 4205      616E6420 
 4205      6E6F7420 
 4205      466F756E 
 4205      640D0A00 
 4206              		.section	.text.shellHelp,"ax",%progbits
 4207              		.align	1
 4208              		.global	shellHelp
 4209              		.syntax unified
 4210              		.thumb
 4211              		.thumb_func
 4212              		.fpu fpv4-sp-d16
 4214              	shellHelp:
 4215              	.LVL392:
 4216              	.LFB175:
1540:SYS/shell/shell.c ****     Shell *shell = shellGetCurrent();
 4217              		.loc 1 1540 1 is_stmt 1 view -0
 4218              		.cfi_startproc
 4219              		@ args = 0, pretend = 0, frame = 0
 4220              		@ frame_needed = 0, uses_anonymous_args = 0
1540:SYS/shell/shell.c ****     Shell *shell = shellGetCurrent();
 4221              		.loc 1 1540 1 is_stmt 0 view .LVU1166
 4222 0000 70B5     		push	{r4, r5, r6, lr}
 4223              	.LCFI56:
 4224              		.cfi_def_cfa_offset 16
 4225              		.cfi_offset 4, -16
 4226              		.cfi_offset 5, -12
 4227              		.cfi_offset 6, -8
 4228              		.cfi_offset 14, -4
 4229 0002 0446     		mov	r4, r0
 4230 0004 0D46     		mov	r5, r1
1541:SYS/shell/shell.c ****     SHELL_ASSERT(shell, return );
 4231              		.loc 1 1541 5 is_stmt 1 view .LVU1167
1541:SYS/shell/shell.c ****     SHELL_ASSERT(shell, return );
 4232              		.loc 1 1541 20 is_stmt 0 view .LVU1168
 4233 0006 FFF7FEFF 		bl	shellGetCurrent
 4234              	.LVL393:
1542:SYS/shell/shell.c ****     if (argc == 1)
 4235              		.loc 1 1542 5 is_stmt 1 view .LVU1169
 4236 000a 20B1     		cbz	r0, .L334
 4237 000c 0646     		mov	r6, r0
1542:SYS/shell/shell.c ****     if (argc == 1)
 4238              		.loc 1 1542 33 discriminator 2 view .LVU1170
1543:SYS/shell/shell.c ****     {
 4239              		.loc 1 1543 5 discriminator 2 view .LVU1171
1543:SYS/shell/shell.c ****     {
 4240              		.loc 1 1543 8 is_stmt 0 discriminator 2 view .LVU1172
 4241 000e 012C     		cmp	r4, #1
 4242 0010 02D0     		beq	.L339
1547:SYS/shell/shell.c ****     {
 4243              		.loc 1 1547 10 is_stmt 1 view .LVU1173
1547:SYS/shell/shell.c ****     {
 4244              		.loc 1 1547 13 is_stmt 0 view .LVU1174
 4245 0012 012C     		cmp	r4, #1
 4246 0014 03DC     		bgt	.L340
 4247              	.LVL394:
 4248              	.L334:
ARM GAS  /var/folders/lx/hc4sn_b53233_zkc9xbbl97r0000gp/T//ccK5P7Jb.s 			page 124


1566:SYS/shell/shell.c **** SHELL_EXPORT_CMD(
 4249              		.loc 1 1566 1 view .LVU1175
 4250 0016 70BD     		pop	{r4, r5, r6, pc}
 4251              	.LVL395:
 4252              	.L339:
1545:SYS/shell/shell.c ****     }
 4253              		.loc 1 1545 9 is_stmt 1 view .LVU1176
 4254 0018 FFF7FEFF 		bl	shellListAll
 4255              	.LVL396:
1545:SYS/shell/shell.c ****     }
 4256              		.loc 1 1545 9 is_stmt 0 view .LVU1177
 4257 001c FBE7     		b	.L334
 4258              	.LVL397:
 4259              	.L340:
 4260              	.LBB33:
1549:SYS/shell/shell.c ****                                                  argv[1],
 4261              		.loc 1 1549 9 is_stmt 1 view .LVU1178
1549:SYS/shell/shell.c ****                                                  argv[1],
 4262              		.loc 1 1549 33 is_stmt 0 view .LVU1179
 4263 001e 0023     		movs	r3, #0
 4264 0020 826D     		ldr	r2, [r0, #88]
 4265 0022 6968     		ldr	r1, [r5, #4]
 4266 0024 FFF7FEFF 		bl	shellSeekCommand
 4267              	.LVL398:
1553:SYS/shell/shell.c ****         {
 4268              		.loc 1 1553 9 is_stmt 1 view .LVU1180
1553:SYS/shell/shell.c ****         {
 4269              		.loc 1 1553 12 is_stmt 0 view .LVU1181
 4270 0028 0446     		mov	r4, r0
 4271              	.LVL399:
1553:SYS/shell/shell.c ****         {
 4272              		.loc 1 1553 12 view .LVU1182
 4273 002a D8B1     		cbz	r0, .L337
1555:SYS/shell/shell.c ****             shellWriteString(shell, shellGetCommandName(command));
 4274              		.loc 1 1555 13 is_stmt 1 view .LVU1183
 4275 002c 1049     		ldr	r1, .L341
 4276 002e 3046     		mov	r0, r6
 4277              	.LVL400:
1555:SYS/shell/shell.c ****             shellWriteString(shell, shellGetCommandName(command));
 4278              		.loc 1 1555 13 is_stmt 0 view .LVU1184
 4279 0030 FFF7FEFF 		bl	shellWriteString
 4280              	.LVL401:
1556:SYS/shell/shell.c ****             shellWriteString(shell, "\r\n");
 4281              		.loc 1 1556 13 is_stmt 1 view .LVU1185
 4282 0034 2046     		mov	r0, r4
 4283 0036 FFF7FEFF 		bl	shellGetCommandName
 4284              	.LVL402:
 4285 003a 0146     		mov	r1, r0
 4286 003c 3046     		mov	r0, r6
 4287 003e FFF7FEFF 		bl	shellWriteString
 4288              	.LVL403:
1557:SYS/shell/shell.c ****             shellWriteString(shell, shellGetCommandDesc(command));
 4289              		.loc 1 1557 13 view .LVU1186
 4290 0042 0C4D     		ldr	r5, .L341+4
 4291              	.LVL404:
1557:SYS/shell/shell.c ****             shellWriteString(shell, shellGetCommandDesc(command));
 4292              		.loc 1 1557 13 is_stmt 0 view .LVU1187
ARM GAS  /var/folders/lx/hc4sn_b53233_zkc9xbbl97r0000gp/T//ccK5P7Jb.s 			page 125


 4293 0044 2946     		mov	r1, r5
 4294 0046 3046     		mov	r0, r6
 4295 0048 FFF7FEFF 		bl	shellWriteString
 4296              	.LVL405:
1558:SYS/shell/shell.c ****             shellWriteString(shell, "\r\n");
 4297              		.loc 1 1558 13 is_stmt 1 view .LVU1188
 4298 004c 2046     		mov	r0, r4
 4299 004e FFF7FEFF 		bl	shellGetCommandDesc
 4300              	.LVL406:
 4301 0052 0146     		mov	r1, r0
 4302 0054 3046     		mov	r0, r6
 4303 0056 FFF7FEFF 		bl	shellWriteString
 4304              	.LVL407:
1559:SYS/shell/shell.c ****         }
 4305              		.loc 1 1559 13 view .LVU1189
 4306 005a 2946     		mov	r1, r5
 4307 005c 3046     		mov	r0, r6
 4308 005e FFF7FEFF 		bl	shellWriteString
 4309              	.LVL408:
 4310 0062 D8E7     		b	.L334
 4311              	.LVL409:
 4312              	.L337:
1563:SYS/shell/shell.c ****         }
 4313              		.loc 1 1563 13 view .LVU1190
 4314 0064 0449     		ldr	r1, .L341+8
 4315 0066 3046     		mov	r0, r6
 4316              	.LVL410:
1563:SYS/shell/shell.c ****         }
 4317              		.loc 1 1563 13 is_stmt 0 view .LVU1191
 4318 0068 FFF7FEFF 		bl	shellWriteString
 4319              	.LVL411:
 4320 006c D3E7     		b	.L334
 4321              	.L342:
 4322 006e 00BF     		.align	2
 4323              	.L341:
 4324 0070 00000000 		.word	.LC23
 4325 0074 04000000 		.word	.LC3
 4326 0078 14000000 		.word	.LC24
 4327              	.LBE33:
 4328              		.cfi_endproc
 4329              	.LFE175:
 4331              		.section	.text.shellGetVarValue,"ax",%progbits
 4332              		.align	1
 4333              		.global	shellGetVarValue
 4334              		.syntax unified
 4335              		.thumb
 4336              		.thumb_func
 4337              		.fpu fpv4-sp-d16
 4339              	shellGetVarValue:
 4340              	.LVL412:
 4341              	.LFB155:
 936:SYS/shell/shell.c ****     int value = 0;
 4342              		.loc 1 936 1 is_stmt 1 view -0
 4343              		.cfi_startproc
 4344              		@ args = 0, pretend = 0, frame = 0
 4345              		@ frame_needed = 0, uses_anonymous_args = 0
 936:SYS/shell/shell.c ****     int value = 0;
ARM GAS  /var/folders/lx/hc4sn_b53233_zkc9xbbl97r0000gp/T//ccK5P7Jb.s 			page 126


 4346              		.loc 1 936 1 is_stmt 0 view .LVU1193
 4347 0000 08B5     		push	{r3, lr}
 4348              	.LCFI57:
 4349              		.cfi_def_cfa_offset 8
 4350              		.cfi_offset 3, -8
 4351              		.cfi_offset 14, -4
 937:SYS/shell/shell.c ****     switch (command->attr.attrs.type)
 4352              		.loc 1 937 5 is_stmt 1 view .LVU1194
 4353              	.LVL413:
 938:SYS/shell/shell.c ****     {
 4354              		.loc 1 938 5 view .LVU1195
 938:SYS/shell/shell.c ****     {
 4355              		.loc 1 938 32 is_stmt 0 view .LVU1196
 4356 0002 4B78     		ldrb	r3, [r1, #1]	@ zero_extendqisi2
 4357 0004 03F00F03 		and	r3, r3, #15
 4358 0008 023B     		subs	r3, r3, #2
 4359 000a 052B     		cmp	r3, #5
 4360 000c 16D8     		bhi	.L351
 4361 000e DFE803F0 		tbb	[pc, r3]
 4362              	.L346:
 4363 0012 03       		.byte	(.L350-.L346)/2
 4364 0013 06       		.byte	(.L349-.L346)/2
 4365 0014 0A       		.byte	(.L348-.L346)/2
 4366 0015 0D       		.byte	(.L347-.L346)/2
 4367 0016 0D       		.byte	(.L347-.L346)/2
 4368 0017 0F       		.byte	(.L345-.L346)/2
 4369              		.p2align 1
 4370              	.L350:
 941:SYS/shell/shell.c ****         break;
 4371              		.loc 1 941 9 is_stmt 1 view .LVU1197
 941:SYS/shell/shell.c ****         break;
 4372              		.loc 1 941 44 is_stmt 0 view .LVU1198
 4373 0018 8B68     		ldr	r3, [r1, #8]
 941:SYS/shell/shell.c ****         break;
 4374              		.loc 1 941 15 view .LVU1199
 4375 001a 1868     		ldr	r0, [r3]
 4376              	.LVL414:
 942:SYS/shell/shell.c ****     case SHELL_TYPE_VAR_SHORT:
 4377              		.loc 1 942 9 is_stmt 1 view .LVU1200
 4378              	.L343:
 962:SYS/shell/shell.c **** 
 4379              		.loc 1 962 1 is_stmt 0 view .LVU1201
 4380 001c 08BD     		pop	{r3, pc}
 4381              	.LVL415:
 4382              	.L349:
 944:SYS/shell/shell.c ****         break;
 4383              		.loc 1 944 9 is_stmt 1 view .LVU1202
 944:SYS/shell/shell.c ****         break;
 4384              		.loc 1 944 46 is_stmt 0 view .LVU1203
 4385 001e 8B68     		ldr	r3, [r1, #8]
 944:SYS/shell/shell.c ****         break;
 4386              		.loc 1 944 17 view .LVU1204
 4387 0020 B3F90000 		ldrsh	r0, [r3]
 4388              	.LVL416:
 945:SYS/shell/shell.c ****     case SHELL_TYPE_VAR_CHAR:
 4389              		.loc 1 945 9 is_stmt 1 view .LVU1205
 4390 0024 FAE7     		b	.L343
ARM GAS  /var/folders/lx/hc4sn_b53233_zkc9xbbl97r0000gp/T//ccK5P7Jb.s 			page 127


 4391              	.LVL417:
 4392              	.L348:
 947:SYS/shell/shell.c ****         break;
 4393              		.loc 1 947 9 view .LVU1206
 947:SYS/shell/shell.c ****         break;
 4394              		.loc 1 947 45 is_stmt 0 view .LVU1207
 4395 0026 8B68     		ldr	r3, [r1, #8]
 947:SYS/shell/shell.c ****         break;
 4396              		.loc 1 947 17 view .LVU1208
 4397 0028 1878     		ldrb	r0, [r3]	@ zero_extendqisi2
 4398              	.LVL418:
 948:SYS/shell/shell.c ****     case SHELL_TYPE_VAR_STRING:
 4399              		.loc 1 948 9 is_stmt 1 view .LVU1209
 4400 002a F7E7     		b	.L343
 4401              	.LVL419:
 4402              	.L347:
 951:SYS/shell/shell.c ****         break;
 4403              		.loc 1 951 9 view .LVU1210
 951:SYS/shell/shell.c ****         break;
 4404              		.loc 1 951 40 is_stmt 0 view .LVU1211
 4405 002c 8868     		ldr	r0, [r1, #8]
 4406              	.LVL420:
 952:SYS/shell/shell.c ****     case SHELL_TYPE_VAR_NODE:
 4407              		.loc 1 952 9 is_stmt 1 view .LVU1212
 4408 002e F5E7     		b	.L343
 4409              	.LVL421:
 4410              	.L345:
 954:SYS/shell/shell.c ****                                                                          ->get(((ShellNodeVarAttr *
 4411              		.loc 1 954 9 view .LVU1213
 954:SYS/shell/shell.c ****                                                                          ->get(((ShellNodeVarAttr *
 4412              		.loc 1 954 55 is_stmt 0 view .LVU1214
 4413 0030 8A68     		ldr	r2, [r1, #8]
 954:SYS/shell/shell.c ****                                                                          ->get(((ShellNodeVarAttr *
 4414              		.loc 1 954 62 view .LVU1215
 4415 0032 5368     		ldr	r3, [r2, #4]
 956:SYS/shell/shell.c ****         break;
 4416              		.loc 1 956 68 view .LVU1216
 4417 0034 23B1     		cbz	r3, .L352
 954:SYS/shell/shell.c ****                                                                          ->get(((ShellNodeVarAttr *
 4418              		.loc 1 954 71 view .LVU1217
 4419 0036 1068     		ldr	r0, [r2]
 4420              	.LVL422:
 954:SYS/shell/shell.c ****                                                                          ->get(((ShellNodeVarAttr *
 4421              		.loc 1 954 71 view .LVU1218
 4422 0038 9847     		blx	r3
 4423              	.LVL423:
 954:SYS/shell/shell.c ****                                                                          ->get(((ShellNodeVarAttr *
 4424              		.loc 1 954 71 view .LVU1219
 4425 003a EFE7     		b	.L343
 4426              	.LVL424:
 4427              	.L351:
 938:SYS/shell/shell.c ****     {
 4428              		.loc 1 938 32 view .LVU1220
 4429 003c 0020     		movs	r0, #0
 4430              	.LVL425:
 938:SYS/shell/shell.c ****     {
 4431              		.loc 1 938 32 view .LVU1221
ARM GAS  /var/folders/lx/hc4sn_b53233_zkc9xbbl97r0000gp/T//ccK5P7Jb.s 			page 128


 4432 003e EDE7     		b	.L343
 4433              	.LVL426:
 4434              	.L352:
 956:SYS/shell/shell.c ****         break;
 4435              		.loc 1 956 68 view .LVU1222
 4436 0040 0020     		movs	r0, #0
 4437              	.LVL427:
 961:SYS/shell/shell.c **** }
 4438              		.loc 1 961 5 is_stmt 1 view .LVU1223
 961:SYS/shell/shell.c **** }
 4439              		.loc 1 961 12 is_stmt 0 view .LVU1224
 4440 0042 EBE7     		b	.L343
 4441              		.cfi_endproc
 4442              	.LFE155:
 4444              		.section	.rodata.shellShowVar.str1.4,"aMS",%progbits,1
 4445              		.align	2
 4446              	.LC25:
 4447 0000 203D2000 		.ascii	" = \000"
 4448              		.align	2
 4449              	.LC26:
 4450 0004 2200     		.ascii	"\"\000"
 4451              		.section	.text.shellShowVar,"ax",%progbits
 4452              		.align	1
 4453              		.syntax unified
 4454              		.thumb
 4455              		.thumb_func
 4456              		.fpu fpv4-sp-d16
 4458              	shellShowVar:
 4459              	.LVL428:
 4460              	.LFB157:
1026:SYS/shell/shell.c ****     char buffer[12] = "00000000000";
 4461              		.loc 1 1026 1 is_stmt 1 view -0
 4462              		.cfi_startproc
 4463              		@ args = 0, pretend = 0, frame = 16
 4464              		@ frame_needed = 0, uses_anonymous_args = 0
1026:SYS/shell/shell.c ****     char buffer[12] = "00000000000";
 4465              		.loc 1 1026 1 is_stmt 0 view .LVU1226
 4466 0000 70B5     		push	{r4, r5, r6, lr}
 4467              	.LCFI58:
 4468              		.cfi_def_cfa_offset 16
 4469              		.cfi_offset 4, -16
 4470              		.cfi_offset 5, -12
 4471              		.cfi_offset 6, -8
 4472              		.cfi_offset 14, -4
 4473 0002 84B0     		sub	sp, sp, #16
 4474              	.LCFI59:
 4475              		.cfi_def_cfa_offset 32
 4476 0004 0446     		mov	r4, r0
 4477 0006 0D46     		mov	r5, r1
1027:SYS/shell/shell.c ****     int value = shellGetVarValue(shell, command);
 4478              		.loc 1 1027 5 is_stmt 1 view .LVU1227
1027:SYS/shell/shell.c ****     int value = shellGetVarValue(shell, command);
 4479              		.loc 1 1027 10 is_stmt 0 view .LVU1228
 4480 0008 274B     		ldr	r3, .L361
 4481 000a 93E80700 		ldm	r3, {r0, r1, r2}
 4482              	.LVL429:
1027:SYS/shell/shell.c ****     int value = shellGetVarValue(shell, command);
ARM GAS  /var/folders/lx/hc4sn_b53233_zkc9xbbl97r0000gp/T//ccK5P7Jb.s 			page 129


 4483              		.loc 1 1027 10 view .LVU1229
 4484 000e 04AB     		add	r3, sp, #16
 4485 0010 03E90700 		stmdb	r3, {r0, r1, r2}
1028:SYS/shell/shell.c **** 
 4486              		.loc 1 1028 5 is_stmt 1 view .LVU1230
1028:SYS/shell/shell.c **** 
 4487              		.loc 1 1028 17 is_stmt 0 view .LVU1231
 4488 0014 2946     		mov	r1, r5
 4489 0016 2046     		mov	r0, r4
 4490 0018 FFF7FEFF 		bl	shellGetVarValue
 4491              	.LVL430:
 4492 001c 0646     		mov	r6, r0
 4493              	.LVL431:
1030:SYS/shell/shell.c ****     shellWriteString(shell, " = ");
 4494              		.loc 1 1030 5 is_stmt 1 view .LVU1232
 4495 001e 6968     		ldr	r1, [r5, #4]
 4496 0020 2046     		mov	r0, r4
 4497              	.LVL432:
1030:SYS/shell/shell.c ****     shellWriteString(shell, " = ");
 4498              		.loc 1 1030 5 is_stmt 0 view .LVU1233
 4499 0022 FFF7FEFF 		bl	shellWriteString
 4500              	.LVL433:
1031:SYS/shell/shell.c **** 
 4501              		.loc 1 1031 5 is_stmt 1 view .LVU1234
 4502 0026 2149     		ldr	r1, .L361+4
 4503 0028 2046     		mov	r0, r4
 4504 002a FFF7FEFF 		bl	shellWriteString
 4505              	.LVL434:
1033:SYS/shell/shell.c ****     {
 4506              		.loc 1 1033 5 view .LVU1235
1033:SYS/shell/shell.c ****     {
 4507              		.loc 1 1033 32 is_stmt 0 view .LVU1236
 4508 002e 6B78     		ldrb	r3, [r5, #1]	@ zero_extendqisi2
 4509 0030 03F00F03 		and	r3, r3, #15
1033:SYS/shell/shell.c ****     {
 4510              		.loc 1 1033 5 view .LVU1237
 4511 0034 052B     		cmp	r3, #5
 4512 0036 10D0     		beq	.L360
1045:SYS/shell/shell.c ****         shellWriteString(shell, ", 0x");
 4513              		.loc 1 1045 9 is_stmt 1 view .LVU1238
1045:SYS/shell/shell.c ****         shellWriteString(shell, ", 0x");
 4514              		.loc 1 1045 46 is_stmt 0 view .LVU1239
 4515 0038 01A9     		add	r1, sp, #4
 4516 003a 3046     		mov	r0, r6
 4517 003c FFF7FEFF 		bl	shellToDec
 4518              	.LVL435:
1045:SYS/shell/shell.c ****         shellWriteString(shell, ", 0x");
 4519              		.loc 1 1045 44 view .LVU1240
 4520 0040 C0F10B01 		rsb	r1, r0, #11
1045:SYS/shell/shell.c ****         shellWriteString(shell, ", 0x");
 4521              		.loc 1 1045 9 view .LVU1241
 4522 0044 01AB     		add	r3, sp, #4
 4523 0046 1944     		add	r1, r1, r3
 4524 0048 2046     		mov	r0, r4
 4525 004a FFF7FEFF 		bl	shellWriteString
 4526              	.LVL436:
1046:SYS/shell/shell.c ****         for (short i = 0; i < 11; i++)
ARM GAS  /var/folders/lx/hc4sn_b53233_zkc9xbbl97r0000gp/T//ccK5P7Jb.s 			page 130


 4527              		.loc 1 1046 9 is_stmt 1 view .LVU1242
 4528 004e 1849     		ldr	r1, .L361+8
 4529 0050 2046     		mov	r0, r4
 4530 0052 FFF7FEFF 		bl	shellWriteString
 4531              	.LVL437:
1047:SYS/shell/shell.c ****         {
 4532              		.loc 1 1047 9 view .LVU1243
 4533              	.LBB34:
1047:SYS/shell/shell.c ****         {
 4534              		.loc 1 1047 14 view .LVU1244
1047:SYS/shell/shell.c ****         {
 4535              		.loc 1 1047 20 is_stmt 0 view .LVU1245
 4536 0056 0023     		movs	r3, #0
1047:SYS/shell/shell.c ****         {
 4537              		.loc 1 1047 9 view .LVU1246
 4538 0058 15E0     		b	.L357
 4539              	.LVL438:
 4540              	.L360:
1047:SYS/shell/shell.c ****         {
 4541              		.loc 1 1047 9 view .LVU1247
 4542              	.LBE34:
1036:SYS/shell/shell.c ****         shellWriteString(shell, (char *)value);
 4543              		.loc 1 1036 9 is_stmt 1 view .LVU1248
 4544 005a 164D     		ldr	r5, .L361+12
 4545              	.LVL439:
1036:SYS/shell/shell.c ****         shellWriteString(shell, (char *)value);
 4546              		.loc 1 1036 9 is_stmt 0 view .LVU1249
 4547 005c 2946     		mov	r1, r5
 4548 005e 2046     		mov	r0, r4
 4549 0060 FFF7FEFF 		bl	shellWriteString
 4550              	.LVL440:
1037:SYS/shell/shell.c ****         shellWriteString(shell, "\"");
 4551              		.loc 1 1037 9 is_stmt 1 view .LVU1250
 4552 0064 3146     		mov	r1, r6
 4553 0066 2046     		mov	r0, r4
 4554 0068 FFF7FEFF 		bl	shellWriteString
 4555              	.LVL441:
1038:SYS/shell/shell.c ****         break;
 4556              		.loc 1 1038 9 view .LVU1251
 4557 006c 2946     		mov	r1, r5
 4558 006e 2046     		mov	r0, r4
 4559 0070 FFF7FEFF 		bl	shellWriteString
 4560              	.LVL442:
1039:SYS/shell/shell.c ****     // case SHELL_TYPE_VAR_INT:
 4561              		.loc 1 1039 9 view .LVU1252
 4562 0074 11E0     		b	.L356
 4563              	.LVL443:
 4564              	.L358:
 4565              	.LBB35:
1049:SYS/shell/shell.c ****         }
 4566              		.loc 1 1049 13 discriminator 3 view .LVU1253
1049:SYS/shell/shell.c ****         }
 4567              		.loc 1 1049 23 is_stmt 0 discriminator 3 view .LVU1254
 4568 0076 04AA     		add	r2, sp, #16
 4569 0078 1A44     		add	r2, r2, r3
 4570 007a 4FF0300C 		mov	ip, #48
 4571 007e 02F80CCC 		strb	ip, [r2, #-12]
ARM GAS  /var/folders/lx/hc4sn_b53233_zkc9xbbl97r0000gp/T//ccK5P7Jb.s 			page 131


1047:SYS/shell/shell.c ****         {
 4572              		.loc 1 1047 35 is_stmt 1 discriminator 3 view .LVU1255
1047:SYS/shell/shell.c ****         {
 4573              		.loc 1 1047 36 is_stmt 0 discriminator 3 view .LVU1256
 4574 0082 0133     		adds	r3, r3, #1
 4575              	.LVL444:
1047:SYS/shell/shell.c ****         {
 4576              		.loc 1 1047 36 discriminator 3 view .LVU1257
 4577 0084 1BB2     		sxth	r3, r3
 4578              	.LVL445:
 4579              	.L357:
1047:SYS/shell/shell.c ****         {
 4580              		.loc 1 1047 27 is_stmt 1 discriminator 1 view .LVU1258
1047:SYS/shell/shell.c ****         {
 4581              		.loc 1 1047 9 is_stmt 0 discriminator 1 view .LVU1259
 4582 0086 0A2B     		cmp	r3, #10
 4583 0088 F5DD     		ble	.L358
 4584              	.LBE35:
1051:SYS/shell/shell.c ****         shellWriteString(shell, buffer);
 4585              		.loc 1 1051 9 is_stmt 1 view .LVU1260
 4586 008a 01A9     		add	r1, sp, #4
 4587 008c 3046     		mov	r0, r6
 4588 008e FFF7FEFF 		bl	shellToHex
 4589              	.LVL446:
1052:SYS/shell/shell.c ****         break;
 4590              		.loc 1 1052 9 view .LVU1261
 4591 0092 01A9     		add	r1, sp, #4
 4592 0094 2046     		mov	r0, r4
 4593 0096 FFF7FEFF 		bl	shellWriteString
 4594              	.LVL447:
1053:SYS/shell/shell.c ****     }
 4595              		.loc 1 1053 9 view .LVU1262
 4596              	.L356:
1056:SYS/shell/shell.c ****     return value;
 4597              		.loc 1 1056 5 view .LVU1263
 4598 009a 0749     		ldr	r1, .L361+16
 4599 009c 2046     		mov	r0, r4
 4600 009e FFF7FEFF 		bl	shellWriteString
 4601              	.LVL448:
1057:SYS/shell/shell.c **** }
 4602              		.loc 1 1057 5 view .LVU1264
1058:SYS/shell/shell.c **** 
 4603              		.loc 1 1058 1 is_stmt 0 view .LVU1265
 4604 00a2 3046     		mov	r0, r6
 4605 00a4 04B0     		add	sp, sp, #16
 4606              	.LCFI60:
 4607              		.cfi_def_cfa_offset 16
 4608              		@ sp needed
 4609 00a6 70BD     		pop	{r4, r5, r6, pc}
 4610              	.LVL449:
 4611              	.L362:
1058:SYS/shell/shell.c **** 
 4612              		.loc 1 1058 1 view .LVU1266
 4613              		.align	2
 4614              	.L361:
 4615 00a8 14000000 		.word	.LC8
 4616 00ac 00000000 		.word	.LC25
ARM GAS  /var/folders/lx/hc4sn_b53233_zkc9xbbl97r0000gp/T//ccK5P7Jb.s 			page 132


 4617 00b0 0C000000 		.word	.LC10
 4618 00b4 04000000 		.word	.LC26
 4619 00b8 04000000 		.word	.LC3
 4620              		.cfi_endproc
 4621              	.LFE157:
 4623              		.section	.rodata.shellSetVarValue.str1.4,"aMS",%progbits,1
 4624              		.align	2
 4625              	.LC27:
 4626 0000 63616E27 		.ascii	"can't set read only var\015\012\000"
 4626      74207365 
 4626      74207265 
 4626      6164206F 
 4626      6E6C7920 
 4627 001a 0000     		.align	2
 4628              	.LC28:
 4629 001c 63616E27 		.ascii	"can't set pointer\015\012\000"
 4629      74207365 
 4629      7420706F 
 4629      696E7465 
 4629      720D0A00 
 4630              		.section	.text.shellSetVarValue,"ax",%progbits
 4631              		.align	1
 4632              		.global	shellSetVarValue
 4633              		.syntax unified
 4634              		.thumb
 4635              		.thumb_func
 4636              		.fpu fpv4-sp-d16
 4638              	shellSetVarValue:
 4639              	.LVL450:
 4640              	.LFB156:
 973:SYS/shell/shell.c ****     if (command->attr.attrs.readOnly)
 4641              		.loc 1 973 1 is_stmt 1 view -0
 4642              		.cfi_startproc
 4643              		@ args = 0, pretend = 0, frame = 0
 4644              		@ frame_needed = 0, uses_anonymous_args = 0
 973:SYS/shell/shell.c ****     if (command->attr.attrs.readOnly)
 4645              		.loc 1 973 1 is_stmt 0 view .LVU1268
 4646 0000 70B5     		push	{r4, r5, r6, lr}
 4647              	.LCFI61:
 4648              		.cfi_def_cfa_offset 16
 4649              		.cfi_offset 4, -16
 4650              		.cfi_offset 5, -12
 4651              		.cfi_offset 6, -8
 4652              		.cfi_offset 14, -4
 4653 0002 0546     		mov	r5, r0
 4654 0004 0C46     		mov	r4, r1
 974:SYS/shell/shell.c ****     {
 4655              		.loc 1 974 5 is_stmt 1 view .LVU1269
 974:SYS/shell/shell.c ****     {
 4656              		.loc 1 974 9 is_stmt 0 view .LVU1270
 4657 0006 4B78     		ldrb	r3, [r1, #1]	@ zero_extendqisi2
 974:SYS/shell/shell.c ****     {
 4658              		.loc 1 974 8 view .LVU1271
 4659 0008 13F0400F 		tst	r3, #64
 4660 000c 0AD1     		bne	.L375
 980:SYS/shell/shell.c ****         {
 4661              		.loc 1 980 9 is_stmt 1 view .LVU1272
ARM GAS  /var/folders/lx/hc4sn_b53233_zkc9xbbl97r0000gp/T//ccK5P7Jb.s 			page 133


 980:SYS/shell/shell.c ****         {
 4662              		.loc 1 980 36 is_stmt 0 view .LVU1273
 4663 000e 4B78     		ldrb	r3, [r1, #1]	@ zero_extendqisi2
 4664 0010 03F00F03 		and	r3, r3, #15
 4665 0014 023B     		subs	r3, r3, #2
 4666 0016 052B     		cmp	r3, #5
 4667 0018 07D8     		bhi	.L365
 4668 001a DFE803F0 		tbb	[pc, r3]
 4669              	.LVL451:
 4670              	.L367:
 4671 001e 0B       		.byte	(.L372-.L367)/2
 4672 001f 0E       		.byte	(.L371-.L367)/2
 4673 0020 11       		.byte	(.L370-.L367)/2
 4674 0021 14       		.byte	(.L369-.L367)/2
 4675 0022 19       		.byte	(.L368-.L367)/2
 4676 0023 1D       		.byte	(.L366-.L367)/2
 4677              		.p2align 1
 4678              	.L375:
 976:SYS/shell/shell.c ****     }
 4679              		.loc 1 976 9 is_stmt 1 view .LVU1274
 4680 0024 1249     		ldr	r1, .L376
 4681              	.LVL452:
 976:SYS/shell/shell.c ****     }
 4682              		.loc 1 976 9 is_stmt 0 view .LVU1275
 4683 0026 FFF7FEFF 		bl	shellWriteString
 4684              	.LVL453:
 4685              	.L365:
1015:SYS/shell/shell.c **** }
 4686              		.loc 1 1015 5 is_stmt 1 view .LVU1276
1015:SYS/shell/shell.c **** }
 4687              		.loc 1 1015 12 is_stmt 0 view .LVU1277
 4688 002a 2146     		mov	r1, r4
 4689 002c 2846     		mov	r0, r5
 4690 002e FFF7FEFF 		bl	shellShowVar
 4691              	.LVL454:
1016:SYS/shell/shell.c **** 
 4692              		.loc 1 1016 1 view .LVU1278
 4693 0032 70BD     		pop	{r4, r5, r6, pc}
 4694              	.LVL455:
 4695              	.L372:
 983:SYS/shell/shell.c ****             break;
 4696              		.loc 1 983 13 is_stmt 1 view .LVU1279
 983:SYS/shell/shell.c ****             break;
 4697              		.loc 1 983 40 is_stmt 0 view .LVU1280
 4698 0034 A368     		ldr	r3, [r4, #8]
 983:SYS/shell/shell.c ****             break;
 4699              		.loc 1 983 49 view .LVU1281
 4700 0036 1A60     		str	r2, [r3]
 984:SYS/shell/shell.c ****         case SHELL_TYPE_VAR_SHORT:
 4701              		.loc 1 984 13 is_stmt 1 view .LVU1282
 4702 0038 F7E7     		b	.L365
 4703              	.L371:
 986:SYS/shell/shell.c ****             break;
 4704              		.loc 1 986 13 view .LVU1283
 986:SYS/shell/shell.c ****             break;
 4705              		.loc 1 986 42 is_stmt 0 view .LVU1284
 4706 003a A368     		ldr	r3, [r4, #8]
ARM GAS  /var/folders/lx/hc4sn_b53233_zkc9xbbl97r0000gp/T//ccK5P7Jb.s 			page 134


 986:SYS/shell/shell.c ****             break;
 4707              		.loc 1 986 51 view .LVU1285
 4708 003c 1A80     		strh	r2, [r3]	@ movhi
 987:SYS/shell/shell.c ****         case SHELL_TYPE_VAR_CHAR:
 4709              		.loc 1 987 13 is_stmt 1 view .LVU1286
 4710 003e F4E7     		b	.L365
 4711              	.L370:
 989:SYS/shell/shell.c ****             break;
 4712              		.loc 1 989 13 view .LVU1287
 989:SYS/shell/shell.c ****             break;
 4713              		.loc 1 989 41 is_stmt 0 view .LVU1288
 4714 0040 A368     		ldr	r3, [r4, #8]
 989:SYS/shell/shell.c ****             break;
 4715              		.loc 1 989 50 view .LVU1289
 4716 0042 1A70     		strb	r2, [r3]
 990:SYS/shell/shell.c ****         case SHELL_TYPE_VAR_STRING:
 4717              		.loc 1 990 13 is_stmt 1 view .LVU1290
 4718 0044 F1E7     		b	.L365
 4719              	.L369:
 992:SYS/shell/shell.c ****             break;
 4720              		.loc 1 992 13 view .LVU1291
 4721 0046 1146     		mov	r1, r2
 4722 0048 A068     		ldr	r0, [r4, #8]
 4723              	.LVL456:
 992:SYS/shell/shell.c ****             break;
 4724              		.loc 1 992 13 is_stmt 0 view .LVU1292
 4725 004a FFF7FEFF 		bl	shellStringCopy
 4726              	.LVL457:
 993:SYS/shell/shell.c ****         case SHELL_TYPE_VAR_POINT:
 4727              		.loc 1 993 13 is_stmt 1 view .LVU1293
 4728 004e ECE7     		b	.L365
 4729              	.LVL458:
 4730              	.L368:
 995:SYS/shell/shell.c ****             break;
 4731              		.loc 1 995 13 view .LVU1294
 4732 0050 0849     		ldr	r1, .L376+4
 4733 0052 FFF7FEFF 		bl	shellWriteString
 4734              	.LVL459:
 996:SYS/shell/shell.c ****         case SHELL_TYPE_VAR_NODE:
 4735              		.loc 1 996 13 view .LVU1295
 4736 0056 E8E7     		b	.L365
 4737              	.LVL460:
 4738              	.L366:
 998:SYS/shell/shell.c ****             {
 4739              		.loc 1 998 13 view .LVU1296
 998:SYS/shell/shell.c ****             {
 4740              		.loc 1 998 55 is_stmt 0 view .LVU1297
 4741 0058 A368     		ldr	r3, [r4, #8]
 998:SYS/shell/shell.c ****             {
 4742              		.loc 1 998 62 view .LVU1298
 4743 005a 9E68     		ldr	r6, [r3, #8]
 998:SYS/shell/shell.c ****             {
 4744              		.loc 1 998 16 view .LVU1299
 4745 005c 002E     		cmp	r6, #0
 4746 005e E4D0     		beq	.L365
1000:SYS/shell/shell.c ****                 {
 4747              		.loc 1 1000 17 is_stmt 1 view .LVU1300
ARM GAS  /var/folders/lx/hc4sn_b53233_zkc9xbbl97r0000gp/T//ccK5P7Jb.s 			page 135


1000:SYS/shell/shell.c ****                 {
 4748              		.loc 1 1000 66 is_stmt 0 view .LVU1301
 4749 0060 1868     		ldr	r0, [r3]
 4750              	.LVL461:
1000:SYS/shell/shell.c ****                 {
 4751              		.loc 1 1000 20 view .LVU1302
 4752 0062 10B1     		cbz	r0, .L373
1002:SYS/shell/shell.c ****                         ->set(((ShellNodeVarAttr *)command->data.var.value)->var, value);
 4753              		.loc 1 1002 21 is_stmt 1 view .LVU1303
1002:SYS/shell/shell.c ****                         ->set(((ShellNodeVarAttr *)command->data.var.value)->var, value);
 4754              		.loc 1 1002 22 is_stmt 0 view .LVU1304
 4755 0064 1146     		mov	r1, r2
 4756 0066 B047     		blx	r6
 4757              	.LVL462:
1002:SYS/shell/shell.c ****                         ->set(((ShellNodeVarAttr *)command->data.var.value)->var, value);
 4758              		.loc 1 1002 22 view .LVU1305
 4759 0068 DFE7     		b	.L365
 4760              	.LVL463:
 4761              	.L373:
1007:SYS/shell/shell.c ****                 }
 4762              		.loc 1 1007 21 is_stmt 1 view .LVU1306
1007:SYS/shell/shell.c ****                 }
 4763              		.loc 1 1007 22 is_stmt 0 view .LVU1307
 4764 006a 1046     		mov	r0, r2
 4765 006c B047     		blx	r6
 4766              	.LVL464:
1007:SYS/shell/shell.c ****                 }
 4767              		.loc 1 1007 22 view .LVU1308
 4768 006e DCE7     		b	.L365
 4769              	.L377:
 4770              		.align	2
 4771              	.L376:
 4772 0070 00000000 		.word	.LC27
 4773 0074 1C000000 		.word	.LC28
 4774              		.cfi_endproc
 4775              	.LFE156:
 4777              		.section	.rodata.shellSetVar.str1.4,"aMS",%progbits,1
 4778              		.align	2
 4779              	.LC29:
 4780 0000 56617220 		.ascii	"Var not Fount\015\012\000"
 4780      6E6F7420 
 4780      466F756E 
 4780      740D0A00 
 4781              		.align	2
 4782              	.LC30:
 4783 0010 20697320 		.ascii	" is not a var\015\012\000"
 4783      6E6F7420 
 4783      61207661 
 4783      720D0A00 
 4784              		.section	.text.shellSetVar,"ax",%progbits
 4785              		.align	1
 4786              		.global	shellSetVar
 4787              		.syntax unified
 4788              		.thumb
 4789              		.thumb_func
 4790              		.fpu fpv4-sp-d16
 4792              	shellSetVar:
ARM GAS  /var/folders/lx/hc4sn_b53233_zkc9xbbl97r0000gp/T//ccK5P7Jb.s 			page 136


 4793              	.LVL465:
 4794              	.LFB158:
1068:SYS/shell/shell.c ****     Shell *shell = shellGetCurrent();
 4795              		.loc 1 1068 1 is_stmt 1 view -0
 4796              		.cfi_startproc
 4797              		@ args = 0, pretend = 0, frame = 0
 4798              		@ frame_needed = 0, uses_anonymous_args = 0
1068:SYS/shell/shell.c ****     Shell *shell = shellGetCurrent();
 4799              		.loc 1 1068 1 is_stmt 0 view .LVU1310
 4800 0000 70B5     		push	{r4, r5, r6, lr}
 4801              	.LCFI62:
 4802              		.cfi_def_cfa_offset 16
 4803              		.cfi_offset 4, -16
 4804              		.cfi_offset 5, -12
 4805              		.cfi_offset 6, -8
 4806              		.cfi_offset 14, -4
 4807 0002 0446     		mov	r4, r0
 4808 0004 0D46     		mov	r5, r1
1069:SYS/shell/shell.c ****     if (shell == NULL)
 4809              		.loc 1 1069 5 is_stmt 1 view .LVU1311
1069:SYS/shell/shell.c ****     if (shell == NULL)
 4810              		.loc 1 1069 20 is_stmt 0 view .LVU1312
 4811 0006 FFF7FEFF 		bl	shellGetCurrent
 4812              	.LVL466:
1070:SYS/shell/shell.c ****     {
 4813              		.loc 1 1070 5 is_stmt 1 view .LVU1313
1070:SYS/shell/shell.c ****     {
 4814              		.loc 1 1070 8 is_stmt 0 view .LVU1314
 4815 000a 20B3     		cbz	r0, .L382
 4816 000c 0646     		mov	r6, r0
1074:SYS/shell/shell.c ****                                              name,
 4817              		.loc 1 1074 5 is_stmt 1 view .LVU1315
1074:SYS/shell/shell.c ****                                              name,
 4818              		.loc 1 1074 29 is_stmt 0 view .LVU1316
 4819 000e 0023     		movs	r3, #0
 4820 0010 826D     		ldr	r2, [r0, #88]
 4821 0012 2146     		mov	r1, r4
 4822 0014 FFF7FEFF 		bl	shellSeekCommand
 4823              	.LVL467:
1078:SYS/shell/shell.c ****     {
 4824              		.loc 1 1078 5 is_stmt 1 view .LVU1317
1078:SYS/shell/shell.c ****     {
 4825              		.loc 1 1078 8 is_stmt 0 view .LVU1318
 4826 0018 0146     		mov	r1, r0
 4827 001a 60B1     		cbz	r0, .L384
1083:SYS/shell/shell.c ****     {
 4828              		.loc 1 1083 5 is_stmt 1 view .LVU1319
1083:SYS/shell/shell.c ****     {
 4829              		.loc 1 1083 28 is_stmt 0 view .LVU1320
 4830 001c 4378     		ldrb	r3, [r0, #1]	@ zero_extendqisi2
 4831 001e 03F00F03 		and	r3, r3, #15
1083:SYS/shell/shell.c ****     {
 4832              		.loc 1 1083 55 view .LVU1321
 4833 0022 0E33     		adds	r3, r3, #14
 4834 0024 03F00F03 		and	r3, r3, #15
1083:SYS/shell/shell.c ****     {
 4835              		.loc 1 1083 8 view .LVU1322
ARM GAS  /var/folders/lx/hc4sn_b53233_zkc9xbbl97r0000gp/T//ccK5P7Jb.s 			page 137


 4836 0028 052B     		cmp	r3, #5
 4837 002a 0AD8     		bhi	.L385
1089:SYS/shell/shell.c **** }
 4838              		.loc 1 1089 5 is_stmt 1 view .LVU1323
1089:SYS/shell/shell.c **** }
 4839              		.loc 1 1089 12 is_stmt 0 view .LVU1324
 4840 002c 2A46     		mov	r2, r5
 4841 002e 3046     		mov	r0, r6
 4842              	.LVL468:
1089:SYS/shell/shell.c **** }
 4843              		.loc 1 1089 12 view .LVU1325
 4844 0030 FFF7FEFF 		bl	shellSetVarValue
 4845              	.LVL469:
 4846              	.L378:
1090:SYS/shell/shell.c **** SHELL_EXPORT_CMD(
 4847              		.loc 1 1090 1 view .LVU1326
 4848 0034 70BD     		pop	{r4, r5, r6, pc}
 4849              	.LVL470:
 4850              	.L384:
1080:SYS/shell/shell.c ****         return 0;
 4851              		.loc 1 1080 9 is_stmt 1 view .LVU1327
 4852 0036 0949     		ldr	r1, .L386
 4853 0038 3046     		mov	r0, r6
 4854              	.LVL471:
1080:SYS/shell/shell.c ****         return 0;
 4855              		.loc 1 1080 9 is_stmt 0 view .LVU1328
 4856 003a FFF7FEFF 		bl	shellWriteString
 4857              	.LVL472:
1081:SYS/shell/shell.c ****     }
 4858              		.loc 1 1081 9 is_stmt 1 view .LVU1329
1081:SYS/shell/shell.c ****     }
 4859              		.loc 1 1081 16 is_stmt 0 view .LVU1330
 4860 003e 0020     		movs	r0, #0
 4861 0040 F8E7     		b	.L378
 4862              	.LVL473:
 4863              	.L385:
1085:SYS/shell/shell.c ****         shellWriteString(shell, shellText[SHELL_TEXT_NOT_VAR]);
 4864              		.loc 1 1085 9 is_stmt 1 view .LVU1331
 4865 0042 2146     		mov	r1, r4
 4866 0044 3046     		mov	r0, r6
 4867              	.LVL474:
1085:SYS/shell/shell.c ****         shellWriteString(shell, shellText[SHELL_TEXT_NOT_VAR]);
 4868              		.loc 1 1085 9 is_stmt 0 view .LVU1332
 4869 0046 FFF7FEFF 		bl	shellWriteString
 4870              	.LVL475:
1086:SYS/shell/shell.c ****         return 0;
 4871              		.loc 1 1086 9 is_stmt 1 view .LVU1333
 4872 004a 0549     		ldr	r1, .L386+4
 4873 004c 3046     		mov	r0, r6
 4874 004e FFF7FEFF 		bl	shellWriteString
 4875              	.LVL476:
1087:SYS/shell/shell.c ****     }
 4876              		.loc 1 1087 9 view .LVU1334
1087:SYS/shell/shell.c ****     }
 4877              		.loc 1 1087 16 is_stmt 0 view .LVU1335
 4878 0052 0020     		movs	r0, #0
 4879 0054 EEE7     		b	.L378
ARM GAS  /var/folders/lx/hc4sn_b53233_zkc9xbbl97r0000gp/T//ccK5P7Jb.s 			page 138


 4880              	.LVL477:
 4881              	.L382:
1072:SYS/shell/shell.c ****     }
 4882              		.loc 1 1072 16 view .LVU1336
 4883 0056 0020     		movs	r0, #0
 4884              	.LVL478:
1072:SYS/shell/shell.c ****     }
 4885              		.loc 1 1072 16 view .LVU1337
 4886 0058 ECE7     		b	.L378
 4887              	.L387:
 4888 005a 00BF     		.align	2
 4889              	.L386:
 4890 005c 00000000 		.word	.LC29
 4891 0060 10000000 		.word	.LC30
 4892              		.cfi_endproc
 4893              	.LFE158:
 4895              		.section	.text.shellRunCommand,"ax",%progbits
 4896              		.align	1
 4897              		.global	shellRunCommand
 4898              		.syntax unified
 4899              		.thumb
 4900              		.thumb_func
 4901              		.fpu fpv4-sp-d16
 4903              	shellRunCommand:
 4904              	.LVL479:
 4905              	.LFB159:
1104:SYS/shell/shell.c ****     int returnValue = 0;
 4906              		.loc 1 1104 1 is_stmt 1 view -0
 4907              		.cfi_startproc
 4908              		@ args = 0, pretend = 0, frame = 0
 4909              		@ frame_needed = 0, uses_anonymous_args = 0
1104:SYS/shell/shell.c ****     int returnValue = 0;
 4910              		.loc 1 1104 1 is_stmt 0 view .LVU1339
 4911 0000 70B5     		push	{r4, r5, r6, lr}
 4912              	.LCFI63:
 4913              		.cfi_def_cfa_offset 16
 4914              		.cfi_offset 4, -16
 4915              		.cfi_offset 5, -12
 4916              		.cfi_offset 6, -8
 4917              		.cfi_offset 14, -4
 4918 0002 0446     		mov	r4, r0
 4919 0004 0D46     		mov	r5, r1
1105:SYS/shell/shell.c ****     shell->status.isActive = 1;
 4920              		.loc 1 1105 5 is_stmt 1 view .LVU1340
 4921              	.LVL480:
1106:SYS/shell/shell.c ****     if (command->attr.attrs.type == SHELL_TYPE_CMD_MAIN)
 4922              		.loc 1 1106 5 view .LVU1341
1106:SYS/shell/shell.c ****     if (command->attr.attrs.type == SHELL_TYPE_CMD_MAIN)
 4923              		.loc 1 1106 28 is_stmt 0 view .LVU1342
 4924 0006 90F86030 		ldrb	r3, [r0, #96]	@ zero_extendqisi2
 4925 000a 43F00203 		orr	r3, r3, #2
 4926 000e 80F86030 		strb	r3, [r0, #96]
1107:SYS/shell/shell.c ****     {
 4927              		.loc 1 1107 5 is_stmt 1 view .LVU1343
1107:SYS/shell/shell.c ****     {
 4928              		.loc 1 1107 34 is_stmt 0 view .LVU1344
 4929 0012 4B78     		ldrb	r3, [r1, #1]	@ zero_extendqisi2
ARM GAS  /var/folders/lx/hc4sn_b53233_zkc9xbbl97r0000gp/T//ccK5P7Jb.s 			page 139


1107:SYS/shell/shell.c ****     {
 4930              		.loc 1 1107 8 view .LVU1345
 4931 0014 13F00F03 		ands	r3, r3, #15
 4932 0018 14D0     		beq	.L395
1117:SYS/shell/shell.c ****     {
 4933              		.loc 1 1117 10 is_stmt 1 view .LVU1346
1117:SYS/shell/shell.c ****     {
 4934              		.loc 1 1117 13 is_stmt 0 view .LVU1347
 4935 001a 012B     		cmp	r3, #1
 4936 001c 23D0     		beq	.L396
1128:SYS/shell/shell.c ****     {
 4937              		.loc 1 1128 10 is_stmt 1 view .LVU1348
1128:SYS/shell/shell.c ****     {
 4938              		.loc 1 1128 33 is_stmt 0 view .LVU1349
 4939 001e 4A78     		ldrb	r2, [r1, #1]	@ zero_extendqisi2
 4940 0020 02F00F02 		and	r2, r2, #15
1128:SYS/shell/shell.c ****     {
 4941              		.loc 1 1128 61 view .LVU1350
 4942 0024 0E32     		adds	r2, r2, #14
 4943 0026 02F00F02 		and	r2, r2, #15
1128:SYS/shell/shell.c ****     {
 4944              		.loc 1 1128 13 view .LVU1351
 4945 002a 052A     		cmp	r2, #5
 4946 002c 2AD9     		bls	.L397
1132:SYS/shell/shell.c ****     {
 4947              		.loc 1 1132 10 is_stmt 1 view .LVU1352
1132:SYS/shell/shell.c ****     {
 4948              		.loc 1 1132 13 is_stmt 0 view .LVU1353
 4949 002e 082B     		cmp	r3, #8
 4950 0030 2CD0     		beq	.L398
1105:SYS/shell/shell.c ****     shell->status.isActive = 1;
 4951              		.loc 1 1105 9 view .LVU1354
 4952 0032 0026     		movs	r6, #0
 4953              	.LVL481:
 4954              	.L390:
1136:SYS/shell/shell.c **** 
 4955              		.loc 1 1136 5 is_stmt 1 view .LVU1355
1136:SYS/shell/shell.c **** 
 4956              		.loc 1 1136 28 is_stmt 0 view .LVU1356
 4957 0034 94F86030 		ldrb	r3, [r4, #96]	@ zero_extendqisi2
 4958 0038 6FF34103 		bfc	r3, #1, #1
 4959 003c 84F86030 		strb	r3, [r4, #96]
1138:SYS/shell/shell.c **** }
 4960              		.loc 1 1138 5 is_stmt 1 view .LVU1357
1139:SYS/shell/shell.c **** 
 4961              		.loc 1 1139 1 is_stmt 0 view .LVU1358
 4962 0040 3046     		mov	r0, r6
 4963 0042 70BD     		pop	{r4, r5, r6, pc}
 4964              	.LVL482:
 4965              	.L395:
1109:SYS/shell/shell.c ****         returnValue = command->data.cmd.function(shell->parser.paramCount,
 4966              		.loc 1 1109 9 is_stmt 1 view .LVU1359
 4967 0044 FFF7FEFF 		bl	shellRemoveParamQuotes
 4968              	.LVL483:
1110:SYS/shell/shell.c ****                                                  shell->parser.param);
 4969              		.loc 1 1110 9 view .LVU1360
1110:SYS/shell/shell.c ****                                                  shell->parser.param);
ARM GAS  /var/folders/lx/hc4sn_b53233_zkc9xbbl97r0000gp/T//ccK5P7Jb.s 			page 140


 4970              		.loc 1 1110 40 is_stmt 0 view .LVU1361
 4971 0048 AB68     		ldr	r3, [r5, #8]
1110:SYS/shell/shell.c ****                                                  shell->parser.param);
 4972              		.loc 1 1110 23 view .LVU1362
 4973 004a 04F11401 		add	r1, r4, #20
 4974 004e E08E     		ldrh	r0, [r4, #54]
 4975 0050 9847     		blx	r3
 4976              	.LVL484:
 4977 0052 0646     		mov	r6, r0
 4978              	.LVL485:
1112:SYS/shell/shell.c ****         {
 4979              		.loc 1 1112 9 is_stmt 1 view .LVU1363
1112:SYS/shell/shell.c ****         {
 4980              		.loc 1 1112 13 is_stmt 0 view .LVU1364
 4981 0054 6B78     		ldrb	r3, [r5, #1]	@ zero_extendqisi2
1112:SYS/shell/shell.c ****         {
 4982              		.loc 1 1112 12 view .LVU1365
 4983 0056 13F0200F 		tst	r3, #32
 4984 005a EBD1     		bne	.L390
1114:SYS/shell/shell.c ****         }
 4985              		.loc 1 1114 13 is_stmt 1 view .LVU1366
 4986 005c 0146     		mov	r1, r0
 4987 005e 2046     		mov	r0, r4
 4988              	.LVL486:
1114:SYS/shell/shell.c ****         }
 4989              		.loc 1 1114 13 is_stmt 0 view .LVU1367
 4990 0060 FFF7FEFF 		bl	shellWriteReturnValue
 4991              	.LVL487:
1114:SYS/shell/shell.c ****         }
 4992              		.loc 1 1114 13 view .LVU1368
 4993 0064 E6E7     		b	.L390
 4994              	.LVL488:
 4995              	.L396:
1119:SYS/shell/shell.c ****                                   command,
 4996              		.loc 1 1119 9 is_stmt 1 view .LVU1369
1119:SYS/shell/shell.c ****                                   command,
 4997              		.loc 1 1119 23 is_stmt 0 view .LVU1370
 4998 0066 00F11403 		add	r3, r0, #20
 4999 006a C28E     		ldrh	r2, [r0, #54]
 5000 006c FFF7FEFF 		bl	shellExtRun
 5001              	.LVL489:
1119:SYS/shell/shell.c ****                                   command,
 5002              		.loc 1 1119 23 view .LVU1371
 5003 0070 0646     		mov	r6, r0
 5004              	.LVL490:
1123:SYS/shell/shell.c ****         {
 5005              		.loc 1 1123 9 is_stmt 1 view .LVU1372
1123:SYS/shell/shell.c ****         {
 5006              		.loc 1 1123 13 is_stmt 0 view .LVU1373
 5007 0072 6B78     		ldrb	r3, [r5, #1]	@ zero_extendqisi2
1123:SYS/shell/shell.c ****         {
 5008              		.loc 1 1123 12 view .LVU1374
 5009 0074 13F0200F 		tst	r3, #32
 5010 0078 DCD1     		bne	.L390
1125:SYS/shell/shell.c ****         }
 5011              		.loc 1 1125 13 is_stmt 1 view .LVU1375
 5012 007a 0146     		mov	r1, r0
ARM GAS  /var/folders/lx/hc4sn_b53233_zkc9xbbl97r0000gp/T//ccK5P7Jb.s 			page 141


 5013 007c 2046     		mov	r0, r4
 5014              	.LVL491:
1125:SYS/shell/shell.c ****         }
 5015              		.loc 1 1125 13 is_stmt 0 view .LVU1376
 5016 007e FFF7FEFF 		bl	shellWriteReturnValue
 5017              	.LVL492:
1125:SYS/shell/shell.c ****         }
 5018              		.loc 1 1125 13 view .LVU1377
 5019 0082 D7E7     		b	.L390
 5020              	.LVL493:
 5021              	.L397:
1130:SYS/shell/shell.c ****     }
 5022              		.loc 1 1130 9 is_stmt 1 view .LVU1378
 5023 0084 FFF7FEFF 		bl	shellShowVar
 5024              	.LVL494:
1105:SYS/shell/shell.c ****     shell->status.isActive = 1;
 5025              		.loc 1 1105 9 is_stmt 0 view .LVU1379
 5026 0088 0026     		movs	r6, #0
 5027 008a D3E7     		b	.L390
 5028              	.LVL495:
 5029              	.L398:
1134:SYS/shell/shell.c ****     }
 5030              		.loc 1 1134 9 is_stmt 1 view .LVU1380
 5031 008c FFF7FEFF 		bl	shellSetUser
 5032              	.LVL496:
1105:SYS/shell/shell.c ****     shell->status.isActive = 1;
 5033              		.loc 1 1105 9 is_stmt 0 view .LVU1381
 5034 0090 0026     		movs	r6, #0
 5035 0092 CFE7     		b	.L390
 5036              		.cfi_endproc
 5037              	.LFE159:
 5039              		.section	.text.shellNormalInput,"ax",%progbits
 5040              		.align	1
 5041              		.global	shellNormalInput
 5042              		.syntax unified
 5043              		.thumb
 5044              		.thumb_func
 5045              		.fpu fpv4-sp-d16
 5047              	shellNormalInput:
 5048              	.LVL497:
 5049              	.LFB165:
1291:SYS/shell/shell.c ****     shell->status.tabFlag = 0;
 5050              		.loc 1 1291 1 is_stmt 1 view -0
 5051              		.cfi_startproc
 5052              		@ args = 0, pretend = 0, frame = 0
 5053              		@ frame_needed = 0, uses_anonymous_args = 0
1291:SYS/shell/shell.c ****     shell->status.tabFlag = 0;
 5054              		.loc 1 1291 1 is_stmt 0 view .LVU1383
 5055 0000 08B5     		push	{r3, lr}
 5056              	.LCFI64:
 5057              		.cfi_def_cfa_offset 8
 5058              		.cfi_offset 3, -8
 5059              		.cfi_offset 14, -4
1292:SYS/shell/shell.c ****     shellInsertByte(shell, data);
 5060              		.loc 1 1292 5 is_stmt 1 view .LVU1384
1292:SYS/shell/shell.c ****     shellInsertByte(shell, data);
 5061              		.loc 1 1292 27 is_stmt 0 view .LVU1385
ARM GAS  /var/folders/lx/hc4sn_b53233_zkc9xbbl97r0000gp/T//ccK5P7Jb.s 			page 142


 5062 0002 90F86020 		ldrb	r2, [r0, #96]	@ zero_extendqisi2
 5063 0006 6FF38202 		bfc	r2, #2, #1
 5064 000a 80F86020 		strb	r2, [r0, #96]
1293:SYS/shell/shell.c **** }
 5065              		.loc 1 1293 5 is_stmt 1 view .LVU1386
 5066 000e FFF7FEFF 		bl	shellInsertByte
 5067              	.LVL498:
1294:SYS/shell/shell.c **** 
 5068              		.loc 1 1294 1 is_stmt 0 view .LVU1387
 5069 0012 08BD     		pop	{r3, pc}
 5070              		.cfi_endproc
 5071              	.LFE165:
 5073              		.section	.text.shellExec,"ax",%progbits
 5074              		.align	1
 5075              		.global	shellExec
 5076              		.syntax unified
 5077              		.thumb
 5078              		.thumb_func
 5079              		.fpu fpv4-sp-d16
 5081              	shellExec:
 5082              	.LVL499:
 5083              	.LFB166:
1302:SYS/shell/shell.c **** 
 5084              		.loc 1 1302 1 is_stmt 1 view -0
 5085              		.cfi_startproc
 5086              		@ args = 0, pretend = 0, frame = 0
 5087              		@ frame_needed = 0, uses_anonymous_args = 0
1304:SYS/shell/shell.c ****     {
 5088              		.loc 1 1304 5 view .LVU1389
1304:SYS/shell/shell.c ****     {
 5089              		.loc 1 1304 22 is_stmt 0 view .LVU1390
 5090 0000 8389     		ldrh	r3, [r0, #12]
1304:SYS/shell/shell.c ****     {
 5091              		.loc 1 1304 8 view .LVU1391
 5092 0002 5BB3     		cbz	r3, .L406
1302:SYS/shell/shell.c **** 
 5093              		.loc 1 1302 1 view .LVU1392
 5094 0004 10B5     		push	{r4, lr}
 5095              	.LCFI65:
 5096              		.cfi_def_cfa_offset 8
 5097              		.cfi_offset 4, -8
 5098              		.cfi_offset 14, -4
 5099 0006 0446     		mov	r4, r0
1309:SYS/shell/shell.c **** 
 5100              		.loc 1 1309 5 is_stmt 1 view .LVU1393
1309:SYS/shell/shell.c **** 
 5101              		.loc 1 1309 18 is_stmt 0 view .LVU1394
 5102 0008 0269     		ldr	r2, [r0, #16]
1309:SYS/shell/shell.c **** 
 5103              		.loc 1 1309 48 view .LVU1395
 5104 000a 0021     		movs	r1, #0
 5105 000c D154     		strb	r1, [r2, r3]
1311:SYS/shell/shell.c ****     {
 5106              		.loc 1 1311 5 is_stmt 1 view .LVU1396
1311:SYS/shell/shell.c ****     {
 5107              		.loc 1 1311 9 is_stmt 0 view .LVU1397
 5108 000e 90F86030 		ldrb	r3, [r0, #96]	@ zero_extendqisi2
ARM GAS  /var/folders/lx/hc4sn_b53233_zkc9xbbl97r0000gp/T//ccK5P7Jb.s 			page 143


1311:SYS/shell/shell.c ****     {
 5109              		.loc 1 1311 8 view .LVU1398
 5110 0012 13F0010F 		tst	r3, #1
 5111 0016 1ED0     		beq	.L403
 5112              	.LBB36:
1313:SYS/shell/shell.c ****         shellParserParam(shell);
 5113              		.loc 1 1313 9 is_stmt 1 view .LVU1399
 5114 0018 FFF7FEFF 		bl	shellHistoryAdd
 5115              	.LVL500:
1314:SYS/shell/shell.c ****         shell->parser.length = shell->parser.cursor = 0;
 5116              		.loc 1 1314 9 view .LVU1400
 5117 001c 2046     		mov	r0, r4
 5118 001e FFF7FEFF 		bl	shellParserParam
 5119              	.LVL501:
1315:SYS/shell/shell.c ****         if (shell->parser.paramCount == 0)
 5120              		.loc 1 1315 9 view .LVU1401
1315:SYS/shell/shell.c ****         if (shell->parser.paramCount == 0)
 5121              		.loc 1 1315 53 is_stmt 0 view .LVU1402
 5122 0022 0023     		movs	r3, #0
 5123 0024 E381     		strh	r3, [r4, #14]	@ movhi
1315:SYS/shell/shell.c ****         if (shell->parser.paramCount == 0)
 5124              		.loc 1 1315 30 view .LVU1403
 5125 0026 A381     		strh	r3, [r4, #12]	@ movhi
1316:SYS/shell/shell.c ****         {
 5126              		.loc 1 1316 9 is_stmt 1 view .LVU1404
1316:SYS/shell/shell.c ****         {
 5127              		.loc 1 1316 26 is_stmt 0 view .LVU1405
 5128 0028 E38E     		ldrh	r3, [r4, #54]
1316:SYS/shell/shell.c ****         {
 5129              		.loc 1 1316 12 view .LVU1406
 5130 002a B3B1     		cbz	r3, .L401
1320:SYS/shell/shell.c **** 
 5131              		.loc 1 1320 9 is_stmt 1 view .LVU1407
 5132 002c 0C49     		ldr	r1, .L409
 5133 002e 2046     		mov	r0, r4
 5134 0030 FFF7FEFF 		bl	shellWriteString
 5135              	.LVL502:
1322:SYS/shell/shell.c ****                                                  shell->parser.param[0],
 5136              		.loc 1 1322 9 view .LVU1408
1322:SYS/shell/shell.c ****                                                  shell->parser.param[0],
 5137              		.loc 1 1322 33 is_stmt 0 view .LVU1409
 5138 0034 0023     		movs	r3, #0
 5139 0036 A26D     		ldr	r2, [r4, #88]
 5140 0038 6169     		ldr	r1, [r4, #20]
 5141 003a 2046     		mov	r0, r4
 5142 003c FFF7FEFF 		bl	shellSeekCommand
 5143              	.LVL503:
1326:SYS/shell/shell.c ****         {
 5144              		.loc 1 1326 9 is_stmt 1 view .LVU1410
1326:SYS/shell/shell.c ****         {
 5145              		.loc 1 1326 12 is_stmt 0 view .LVU1411
 5146 0040 0146     		mov	r1, r0
 5147 0042 18B1     		cbz	r0, .L404
1328:SYS/shell/shell.c ****         }
 5148              		.loc 1 1328 13 is_stmt 1 view .LVU1412
 5149 0044 2046     		mov	r0, r4
 5150              	.LVL504:
ARM GAS  /var/folders/lx/hc4sn_b53233_zkc9xbbl97r0000gp/T//ccK5P7Jb.s 			page 144


1328:SYS/shell/shell.c ****         }
 5151              		.loc 1 1328 13 is_stmt 0 view .LVU1413
 5152 0046 FFF7FEFF 		bl	shellRunCommand
 5153              	.LVL505:
1328:SYS/shell/shell.c ****         }
 5154              		.loc 1 1328 13 view .LVU1414
 5155 004a 06E0     		b	.L401
 5156              	.LVL506:
 5157              	.L404:
1332:SYS/shell/shell.c ****         }
 5158              		.loc 1 1332 13 is_stmt 1 view .LVU1415
 5159 004c 0549     		ldr	r1, .L409+4
 5160 004e 2046     		mov	r0, r4
 5161              	.LVL507:
1332:SYS/shell/shell.c ****         }
 5162              		.loc 1 1332 13 is_stmt 0 view .LVU1416
 5163 0050 FFF7FEFF 		bl	shellWriteString
 5164              	.LVL508:
 5165 0054 01E0     		b	.L401
 5166              	.LVL509:
 5167              	.L403:
1332:SYS/shell/shell.c ****         }
 5168              		.loc 1 1332 13 view .LVU1417
 5169              	.LBE36:
1337:SYS/shell/shell.c ****     }
 5170              		.loc 1 1337 9 is_stmt 1 view .LVU1418
 5171 0056 FFF7FEFF 		bl	shellCheckPassword
 5172              	.LVL510:
 5173              	.L401:
1339:SYS/shell/shell.c **** 
 5174              		.loc 1 1339 1 is_stmt 0 view .LVU1419
 5175 005a 10BD     		pop	{r4, pc}
 5176              	.LVL511:
 5177              	.L406:
 5178              	.LCFI66:
 5179              		.cfi_def_cfa_offset 0
 5180              		.cfi_restore 4
 5181              		.cfi_restore 14
1339:SYS/shell/shell.c **** 
 5182              		.loc 1 1339 1 view .LVU1420
 5183 005c 7047     		bx	lr
 5184              	.L410:
 5185 005e 00BF     		.align	2
 5186              	.L409:
 5187 0060 04000000 		.word	.LC3
 5188 0064 14000000 		.word	.LC24
 5189              		.cfi_endproc
 5190              	.LFE166:
 5192              		.section	.text.shellEnter,"ax",%progbits
 5193              		.align	1
 5194              		.global	shellEnter
 5195              		.syntax unified
 5196              		.thumb
 5197              		.thumb_func
 5198              		.fpu fpv4-sp-d16
 5200              	shellEnter:
 5201              	.LVL512:
ARM GAS  /var/folders/lx/hc4sn_b53233_zkc9xbbl97r0000gp/T//ccK5P7Jb.s 			page 145


 5202              	.LFB174:
1516:SYS/shell/shell.c ****     shellExec(shell);
 5203              		.loc 1 1516 1 is_stmt 1 view -0
 5204              		.cfi_startproc
 5205              		@ args = 0, pretend = 0, frame = 0
 5206              		@ frame_needed = 0, uses_anonymous_args = 0
1516:SYS/shell/shell.c ****     shellExec(shell);
 5207              		.loc 1 1516 1 is_stmt 0 view .LVU1422
 5208 0000 10B5     		push	{r4, lr}
 5209              	.LCFI67:
 5210              		.cfi_def_cfa_offset 8
 5211              		.cfi_offset 4, -8
 5212              		.cfi_offset 14, -4
 5213 0002 0446     		mov	r4, r0
1517:SYS/shell/shell.c ****     shellWriteCommandLine(shell, 1);
 5214              		.loc 1 1517 5 is_stmt 1 view .LVU1423
 5215 0004 FFF7FEFF 		bl	shellExec
 5216              	.LVL513:
1518:SYS/shell/shell.c **** }
 5217              		.loc 1 1518 5 view .LVU1424
 5218 0008 0121     		movs	r1, #1
 5219 000a 2046     		mov	r0, r4
 5220 000c FFF7FEFF 		bl	shellWriteCommandLine
 5221              	.LVL514:
1519:SYS/shell/shell.c **** #if SHELL_ENTER_LF == 1
 5222              		.loc 1 1519 1 is_stmt 0 view .LVU1425
 5223 0010 10BD     		pop	{r4, pc}
1519:SYS/shell/shell.c **** #if SHELL_ENTER_LF == 1
 5224              		.loc 1 1519 1 view .LVU1426
 5225              		.cfi_endproc
 5226              	.LFE174:
 5228              		.section	.text.shellHandler,"ax",%progbits
 5229              		.align	1
 5230              		.global	shellHandler
 5231              		.syntax unified
 5232              		.thumb
 5233              		.thumb_func
 5234              		.fpu fpv4-sp-d16
 5236              	shellHandler:
 5237              	.LVL515:
 5238              	.LFB176:
1578:SYS/shell/shell.c ****     SHELL_ASSERT(data, return );
 5239              		.loc 1 1578 1 is_stmt 1 view -0
 5240              		.cfi_startproc
 5241              		@ args = 0, pretend = 0, frame = 0
 5242              		@ frame_needed = 0, uses_anonymous_args = 0
1579:SYS/shell/shell.c **** 
 5243              		.loc 1 1579 5 view .LVU1428
 5244 0000 0029     		cmp	r1, #0
 5245 0002 65D0     		beq	.L426
1578:SYS/shell/shell.c ****     SHELL_ASSERT(data, return );
 5246              		.loc 1 1578 1 is_stmt 0 discriminator 2 view .LVU1429
 5247 0004 2DE9F047 		push	{r4, r5, r6, r7, r8, r9, r10, lr}
 5248              	.LCFI68:
 5249              		.cfi_def_cfa_offset 32
 5250              		.cfi_offset 4, -32
 5251              		.cfi_offset 5, -28
ARM GAS  /var/folders/lx/hc4sn_b53233_zkc9xbbl97r0000gp/T//ccK5P7Jb.s 			page 146


 5252              		.cfi_offset 6, -24
 5253              		.cfi_offset 7, -20
 5254              		.cfi_offset 8, -16
 5255              		.cfi_offset 9, -12
 5256              		.cfi_offset 10, -8
 5257              		.cfi_offset 14, -4
 5258 0008 0646     		mov	r6, r0
 5259 000a 8A46     		mov	r10, r1
1579:SYS/shell/shell.c **** 
 5260              		.loc 1 1579 32 is_stmt 1 discriminator 2 view .LVU1430
1592:SYS/shell/shell.c ****     int keyFilter = 0x00000000;
 5261              		.loc 1 1592 5 discriminator 2 view .LVU1431
 5262              	.LVL516:
1593:SYS/shell/shell.c ****     if ((shell->parser.keyValue & 0x0000FF00) != 0x00000000)
 5263              		.loc 1 1593 5 discriminator 2 view .LVU1432
1594:SYS/shell/shell.c ****     {
 5264              		.loc 1 1594 5 discriminator 2 view .LVU1433
1594:SYS/shell/shell.c ****     {
 5265              		.loc 1 1594 23 is_stmt 0 discriminator 2 view .LVU1434
 5266 000c 836B     		ldr	r3, [r0, #56]
1594:SYS/shell/shell.c ****     {
 5267              		.loc 1 1594 8 discriminator 2 view .LVU1435
 5268 000e 13F47F4F 		tst	r3, #65280
 5269 0012 08D1     		bne	.L421
1599:SYS/shell/shell.c ****     {
 5270              		.loc 1 1599 10 is_stmt 1 view .LVU1436
1599:SYS/shell/shell.c ****     {
 5271              		.loc 1 1599 13 is_stmt 0 view .LVU1437
 5272 0014 13F47F09 		ands	r9, r3, #16711680
 5273 0018 0AD1     		bne	.L422
1604:SYS/shell/shell.c ****     {
 5274              		.loc 1 1604 10 is_stmt 1 view .LVU1438
1604:SYS/shell/shell.c ****     {
 5275              		.loc 1 1604 13 is_stmt 0 view .LVU1439
 5276 001a 13F07F4F 		tst	r3, #-16777216
 5277 001e 0ED1     		bne	.L423
1592:SYS/shell/shell.c ****     int keyFilter = 0x00000000;
 5278              		.loc 1 1592 10 view .LVU1440
 5279 0020 4FF01808 		mov	r8, #24
 5280 0024 08E0     		b	.L415
 5281              	.L421:
1597:SYS/shell/shell.c ****     }
 5282              		.loc 1 1597 19 view .LVU1441
 5283 0026 6FF0FF09 		mvn	r9, #255
1596:SYS/shell/shell.c ****         keyFilter = 0xFFFFFF00;
 5284              		.loc 1 1596 23 view .LVU1442
 5285 002a 4FF00008 		mov	r8, #0
 5286 002e 03E0     		b	.L415
 5287              	.L422:
1602:SYS/shell/shell.c ****     }
 5288              		.loc 1 1602 19 view .LVU1443
 5289 0030 DFF8A090 		ldr	r9, .L431
1601:SYS/shell/shell.c ****         keyFilter = 0xFFFF0000;
 5290              		.loc 1 1601 23 view .LVU1444
 5291 0034 4FF00808 		mov	r8, #8
 5292              	.L415:
 5293              	.LVL517:
ARM GAS  /var/folders/lx/hc4sn_b53233_zkc9xbbl97r0000gp/T//ccK5P7Jb.s 			page 147


1611:SYS/shell/shell.c ****     for (short i = 0; i < shell->commandList.count; i++)
 5294              		.loc 1 1611 5 is_stmt 1 view .LVU1445
1611:SYS/shell/shell.c ****     for (short i = 0; i < shell->commandList.count; i++)
 5295              		.loc 1 1611 19 is_stmt 0 view .LVU1446
 5296 0038 B76D     		ldr	r7, [r6, #88]
 5297              	.LVL518:
1612:SYS/shell/shell.c ****     {
 5298              		.loc 1 1612 5 is_stmt 1 view .LVU1447
 5299              	.LBB37:
1612:SYS/shell/shell.c ****     {
 5300              		.loc 1 1612 10 view .LVU1448
1612:SYS/shell/shell.c ****     {
 5301              		.loc 1 1612 16 is_stmt 0 view .LVU1449
 5302 003a 0024     		movs	r4, #0
1612:SYS/shell/shell.c ****     {
 5303              		.loc 1 1612 5 view .LVU1450
 5304 003c 0DE0     		b	.L416
 5305              	.LVL519:
 5306              	.L423:
1612:SYS/shell/shell.c ****     {
 5307              		.loc 1 1612 5 view .LVU1451
 5308              	.LBE37:
1607:SYS/shell/shell.c ****     }
 5309              		.loc 1 1607 19 view .LVU1452
 5310 003e 4FF07F49 		mov	r9, #-16777216
1606:SYS/shell/shell.c ****         keyFilter = 0xFF000000;
 5311              		.loc 1 1606 23 view .LVU1453
 5312 0042 4FF01008 		mov	r8, #16
 5313 0046 F7E7     		b	.L415
 5314              	.LVL520:
 5315              	.L418:
 5316              	.LBB38:
1624:SYS/shell/shell.c ****                     {
 5317              		.loc 1 1624 21 is_stmt 1 view .LVU1454
1624:SYS/shell/shell.c ****                     {
 5318              		.loc 1 1624 41 is_stmt 0 view .LVU1455
 5319 0048 AB68     		ldr	r3, [r5, #8]
1624:SYS/shell/shell.c ****                     {
 5320              		.loc 1 1624 24 view .LVU1456
 5321 004a 0BB1     		cbz	r3, .L419
1626:SYS/shell/shell.c ****                     }
 5322              		.loc 1 1626 25 is_stmt 1 view .LVU1457
 5323 004c 3046     		mov	r0, r6
 5324 004e 9847     		blx	r3
 5325              	.LVL521:
 5326              	.L419:
1628:SYS/shell/shell.c ****                     break;
 5327              		.loc 1 1628 21 view .LVU1458
1628:SYS/shell/shell.c ****                     break;
 5328              		.loc 1 1628 44 is_stmt 0 view .LVU1459
 5329 0050 0023     		movs	r3, #0
 5330 0052 B363     		str	r3, [r6, #56]
1629:SYS/shell/shell.c ****                 }
 5331              		.loc 1 1629 21 is_stmt 1 view .LVU1460
1629:SYS/shell/shell.c ****                 }
 5332              		.loc 1 1629 21 is_stmt 0 view .LVU1461
 5333              	.LBE38:
ARM GAS  /var/folders/lx/hc4sn_b53233_zkc9xbbl97r0000gp/T//ccK5P7Jb.s 			page 148


1635:SYS/shell/shell.c ****     {
 5334              		.loc 1 1635 5 is_stmt 1 view .LVU1462
 5335 0054 33E0     		b	.L413
 5336              	.LVL522:
 5337              	.L417:
 5338              	.LBB39:
1612:SYS/shell/shell.c ****     {
 5339              		.loc 1 1612 53 discriminator 2 view .LVU1463
1612:SYS/shell/shell.c ****     {
 5340              		.loc 1 1612 54 is_stmt 0 discriminator 2 view .LVU1464
 5341 0056 0134     		adds	r4, r4, #1
 5342              	.LVL523:
1612:SYS/shell/shell.c ****     {
 5343              		.loc 1 1612 54 discriminator 2 view .LVU1465
 5344 0058 24B2     		sxth	r4, r4
 5345              	.LVL524:
 5346              	.L416:
1612:SYS/shell/shell.c ****     {
 5347              		.loc 1 1612 23 is_stmt 1 discriminator 1 view .LVU1466
1612:SYS/shell/shell.c ****     {
 5348              		.loc 1 1612 45 is_stmt 0 discriminator 1 view .LVU1467
 5349 005a B6F85C30 		ldrh	r3, [r6, #92]
1612:SYS/shell/shell.c ****     {
 5350              		.loc 1 1612 5 discriminator 1 view .LVU1468
 5351 005e 9C42     		cmp	r4, r3
 5352 0060 2ADA     		bge	.L429
1615:SYS/shell/shell.c ****         {
 5353              		.loc 1 1615 9 is_stmt 1 view .LVU1469
1615:SYS/shell/shell.c ****         {
 5354              		.loc 1 1615 17 is_stmt 0 view .LVU1470
 5355 0062 07EB0415 		add	r5, r7, r4, lsl #4
1615:SYS/shell/shell.c ****         {
 5356              		.loc 1 1615 37 view .LVU1471
 5357 0066 6B78     		ldrb	r3, [r5, #1]	@ zero_extendqisi2
 5358 0068 03F00F03 		and	r3, r3, #15
1615:SYS/shell/shell.c ****         {
 5359              		.loc 1 1615 12 view .LVU1472
 5360 006c 092B     		cmp	r3, #9
 5361 006e F2D1     		bne	.L417
1615:SYS/shell/shell.c ****         {
 5362              		.loc 1 1615 58 discriminator 1 view .LVU1473
 5363 0070 2946     		mov	r1, r5
 5364 0072 3046     		mov	r0, r6
 5365 0074 FFF7FEFF 		bl	shellCheckPermission
 5366              	.LVL525:
1615:SYS/shell/shell.c ****         {
 5367              		.loc 1 1615 55 discriminator 1 view .LVU1474
 5368 0078 0028     		cmp	r0, #0
 5369 007a ECD1     		bne	.L417
1618:SYS/shell/shell.c ****             {
 5370              		.loc 1 1618 13 is_stmt 1 view .LVU1475
1618:SYS/shell/shell.c ****             {
 5371              		.loc 1 1618 34 is_stmt 0 view .LVU1476
 5372 007c 6B68     		ldr	r3, [r5, #4]
1618:SYS/shell/shell.c ****             {
 5373              		.loc 1 1618 41 view .LVU1477
 5374 007e 03EA0901 		and	r1, r3, r9
ARM GAS  /var/folders/lx/hc4sn_b53233_zkc9xbbl97r0000gp/T//ccK5P7Jb.s 			page 149


1618:SYS/shell/shell.c ****             {
 5375              		.loc 1 1618 70 view .LVU1478
 5376 0082 B26B     		ldr	r2, [r6, #56]
1618:SYS/shell/shell.c ****             {
 5377              		.loc 1 1618 16 view .LVU1479
 5378 0084 9142     		cmp	r1, r2
 5379 0086 E6D1     		bne	.L417
1618:SYS/shell/shell.c ****             {
 5380              		.loc 1 1618 115 discriminator 1 view .LVU1480
 5381 0088 FF21     		movs	r1, #255
 5382 008a 01FA08F1 		lsl	r1, r1, r8
1618:SYS/shell/shell.c ****             {
 5383              		.loc 1 1618 107 discriminator 1 view .LVU1481
 5384 008e 0B40     		ands	r3, r3, r1
1618:SYS/shell/shell.c ****             {
 5385              		.loc 1 1618 143 discriminator 1 view .LVU1482
 5386 0090 0AFA08F1 		lsl	r1, r10, r8
1618:SYS/shell/shell.c ****             {
 5387              		.loc 1 1618 80 discriminator 1 view .LVU1483
 5388 0094 8B42     		cmp	r3, r1
 5389 0096 DED1     		bne	.L417
1620:SYS/shell/shell.c ****                 data = 0x00;
 5390              		.loc 1 1620 17 is_stmt 1 view .LVU1484
1620:SYS/shell/shell.c ****                 data = 0x00;
 5391              		.loc 1 1620 40 is_stmt 0 view .LVU1485
 5392 0098 0A43     		orrs	r2, r2, r1
 5393 009a B263     		str	r2, [r6, #56]
1621:SYS/shell/shell.c ****                 if (keyByteOffset == 0 || (base[i].data.key.value & (0xFF << (keyByteOffset - 8))) 
 5394              		.loc 1 1621 17 is_stmt 1 view .LVU1486
 5395              	.LVL526:
1622:SYS/shell/shell.c ****                 {
 5396              		.loc 1 1622 17 view .LVU1487
1622:SYS/shell/shell.c ****                 {
 5397              		.loc 1 1622 20 is_stmt 0 view .LVU1488
 5398 009c B8F1000F 		cmp	r8, #0
 5399 00a0 D2D0     		beq	.L418
1622:SYS/shell/shell.c ****                 {
 5400              		.loc 1 1622 60 discriminator 1 view .LVU1489
 5401 00a2 6B68     		ldr	r3, [r5, #4]
1622:SYS/shell/shell.c ****                 {
 5402              		.loc 1 1622 93 discriminator 1 view .LVU1490
 5403 00a4 A8F10800 		sub	r0, r8, #8
1622:SYS/shell/shell.c ****                 {
 5404              		.loc 1 1622 75 discriminator 1 view .LVU1491
 5405 00a8 FF22     		movs	r2, #255
 5406 00aa 02FA00F0 		lsl	r0, r2, r0
1622:SYS/shell/shell.c ****                 {
 5407              		.loc 1 1622 40 discriminator 1 view .LVU1492
 5408 00ae 0342     		tst	r3, r0
 5409 00b0 CAD0     		beq	.L418
1621:SYS/shell/shell.c ****                 if (keyByteOffset == 0 || (base[i].data.key.value & (0xFF << (keyByteOffset - 8))) 
 5410              		.loc 1 1621 22 view .LVU1493
 5411 00b2 4FF0000A 		mov	r10, #0
 5412 00b6 CEE7     		b	.L417
 5413              	.LVL527:
 5414              	.L429:
1621:SYS/shell/shell.c ****                 if (keyByteOffset == 0 || (base[i].data.key.value & (0xFF << (keyByteOffset - 8))) 
ARM GAS  /var/folders/lx/hc4sn_b53233_zkc9xbbl97r0000gp/T//ccK5P7Jb.s 			page 150


 5415              		.loc 1 1621 22 view .LVU1494
 5416              	.LBE39:
1635:SYS/shell/shell.c ****     {
 5417              		.loc 1 1635 5 is_stmt 1 view .LVU1495
1635:SYS/shell/shell.c ****     {
 5418              		.loc 1 1635 8 is_stmt 0 view .LVU1496
 5419 00b8 BAF1000F 		cmp	r10, #0
 5420 00bc 01D1     		bne	.L430
 5421              	.LVL528:
 5422              	.L413:
1645:SYS/shell/shell.c **** 
 5423              		.loc 1 1645 1 view .LVU1497
 5424 00be BDE8F087 		pop	{r4, r5, r6, r7, r8, r9, r10, pc}
 5425              	.LVL529:
 5426              	.L430:
1637:SYS/shell/shell.c ****         shellNormalInput(shell, data);
 5427              		.loc 1 1637 9 is_stmt 1 view .LVU1498
1637:SYS/shell/shell.c ****         shellNormalInput(shell, data);
 5428              		.loc 1 1637 32 is_stmt 0 view .LVU1499
 5429 00c2 0023     		movs	r3, #0
 5430 00c4 B363     		str	r3, [r6, #56]
1638:SYS/shell/shell.c ****     }
 5431              		.loc 1 1638 9 is_stmt 1 view .LVU1500
 5432 00c6 5146     		mov	r1, r10
 5433 00c8 3046     		mov	r0, r6
 5434 00ca FFF7FEFF 		bl	shellNormalInput
 5435              	.LVL530:
 5436 00ce F6E7     		b	.L413
 5437              	.LVL531:
 5438              	.L426:
 5439              	.LCFI69:
 5440              		.cfi_def_cfa_offset 0
 5441              		.cfi_restore 4
 5442              		.cfi_restore 5
 5443              		.cfi_restore 6
 5444              		.cfi_restore 7
 5445              		.cfi_restore 8
 5446              		.cfi_restore 9
 5447              		.cfi_restore 10
 5448              		.cfi_restore 14
1638:SYS/shell/shell.c ****     }
 5449              		.loc 1 1638 9 is_stmt 0 view .LVU1501
 5450 00d0 7047     		bx	lr
 5451              	.L432:
 5452 00d2 00BF     		.align	2
 5453              	.L431:
 5454 00d4 0000FFFF 		.word	-65536
 5455              		.cfi_endproc
 5456              	.LFE176:
 5458              		.section	.text.shellTask,"ax",%progbits
 5459              		.align	1
 5460              		.global	shellTask
 5461              		.syntax unified
 5462              		.thumb
 5463              		.thumb_func
 5464              		.fpu fpv4-sp-d16
 5466              	shellTask:
ARM GAS  /var/folders/lx/hc4sn_b53233_zkc9xbbl97r0000gp/T//ccK5P7Jb.s 			page 151


 5467              	.LVL532:
 5468              	.LFB177:
1680:SYS/shell/shell.c ****     Shell *shell = (Shell *)param;
 5469              		.loc 1 1680 1 is_stmt 1 view -0
 5470              		.cfi_startproc
 5471              		@ args = 0, pretend = 0, frame = 8
 5472              		@ frame_needed = 0, uses_anonymous_args = 0
1681:SYS/shell/shell.c ****     char data;
 5473              		.loc 1 1681 5 view .LVU1503
1682:SYS/shell/shell.c **** #if SHELL_TASK_WHILE == 1
 5474              		.loc 1 1682 5 view .LVU1504
1687:SYS/shell/shell.c ****         {
 5475              		.loc 1 1687 9 view .LVU1505
1687:SYS/shell/shell.c ****         {
 5476              		.loc 1 1687 18 is_stmt 0 view .LVU1506
 5477 0000 436E     		ldr	r3, [r0, #100]
1687:SYS/shell/shell.c ****         {
 5478              		.loc 1 1687 12 view .LVU1507
 5479 0002 73B1     		cbz	r3, .L436
1680:SYS/shell/shell.c ****     Shell *shell = (Shell *)param;
 5480              		.loc 1 1680 1 discriminator 1 view .LVU1508
 5481 0004 10B5     		push	{r4, lr}
 5482              	.LCFI70:
 5483              		.cfi_def_cfa_offset 8
 5484              		.cfi_offset 4, -8
 5485              		.cfi_offset 14, -4
 5486 0006 82B0     		sub	sp, sp, #8
 5487              	.LCFI71:
 5488              		.cfi_def_cfa_offset 16
 5489 0008 0446     		mov	r4, r0
1687:SYS/shell/shell.c ****         {
 5490              		.loc 1 1687 28 discriminator 1 view .LVU1509
 5491 000a 0DF10700 		add	r0, sp, #7
 5492              	.LVL533:
1687:SYS/shell/shell.c ****         {
 5493              		.loc 1 1687 28 discriminator 1 view .LVU1510
 5494 000e 9847     		blx	r3
 5495              	.LVL534:
1687:SYS/shell/shell.c ****         {
 5496              		.loc 1 1687 25 discriminator 1 view .LVU1511
 5497 0010 08B1     		cbz	r0, .L439
 5498              	.L433:
1694:SYS/shell/shell.c **** 
 5499              		.loc 1 1694 1 view .LVU1512
 5500 0012 02B0     		add	sp, sp, #8
 5501              	.LCFI72:
 5502              		.cfi_remember_state
 5503              		.cfi_def_cfa_offset 8
 5504              		@ sp needed
 5505 0014 10BD     		pop	{r4, pc}
 5506              	.LVL535:
 5507              	.L439:
 5508              	.LCFI73:
 5509              		.cfi_restore_state
1689:SYS/shell/shell.c ****         }
 5510              		.loc 1 1689 13 is_stmt 1 view .LVU1513
 5511 0016 9DF80710 		ldrb	r1, [sp, #7]	@ zero_extendqisi2
ARM GAS  /var/folders/lx/hc4sn_b53233_zkc9xbbl97r0000gp/T//ccK5P7Jb.s 			page 152


 5512 001a 2046     		mov	r0, r4
 5513 001c FFF7FEFF 		bl	shellHandler
 5514              	.LVL536:
1694:SYS/shell/shell.c **** 
 5515              		.loc 1 1694 1 is_stmt 0 view .LVU1514
 5516 0020 F7E7     		b	.L433
 5517              	.LVL537:
 5518              	.L436:
 5519              	.LCFI74:
 5520              		.cfi_def_cfa_offset 0
 5521              		.cfi_restore 4
 5522              		.cfi_restore 14
1694:SYS/shell/shell.c **** 
 5523              		.loc 1 1694 1 view .LVU1515
 5524 0022 7047     		bx	lr
 5525              		.cfi_endproc
 5526              	.LFE177:
 5528              		.section	.text.shellRun,"ax",%progbits
 5529              		.align	1
 5530              		.global	shellRun
 5531              		.syntax unified
 5532              		.thumb
 5533              		.thumb_func
 5534              		.fpu fpv4-sp-d16
 5536              	shellRun:
 5537              	.LVL538:
 5538              	.LFB183:
1767:SYS/shell/shell.c **** SHELL_EXPORT_CMD(
1768:SYS/shell/shell.c ****     SHELL_CMD_PERMISSION(0) | SHELL_CMD_TYPE(SHELL_TYPE_CMD_FUNC) | SHELL_CMD_DISABLE_RETURN,
1769:SYS/shell/shell.c ****     clear, shellClear, clear console);
1770:SYS/shell/shell.c **** 
1771:SYS/shell/shell.c **** /**
1772:SYS/shell/shell.c ****  * @brief shell执行命令
1773:SYS/shell/shell.c ****  * 
1774:SYS/shell/shell.c ****  * @param shell shell对象
1775:SYS/shell/shell.c ****  * @param cmd 命令字符串
1776:SYS/shell/shell.c ****  * @return int 返回值
1777:SYS/shell/shell.c ****  */
1778:SYS/shell/shell.c **** int shellRun(Shell *shell, const char *cmd)
1779:SYS/shell/shell.c **** {
 5539              		.loc 1 1779 1 is_stmt 1 view -0
 5540              		.cfi_startproc
 5541              		@ args = 0, pretend = 0, frame = 0
 5542              		@ frame_needed = 0, uses_anonymous_args = 0
1780:SYS/shell/shell.c ****     SHELL_ASSERT(shell && cmd, return -1);
 5543              		.loc 1 1780 5 view .LVU1517
 5544 0000 28B3     		cbz	r0, .L443
1779:SYS/shell/shell.c ****     SHELL_ASSERT(shell && cmd, return -1);
 5545              		.loc 1 1779 1 is_stmt 0 discriminator 2 view .LVU1518
 5546 0002 70B5     		push	{r4, r5, r6, lr}
 5547              	.LCFI75:
 5548              		.cfi_def_cfa_offset 16
 5549              		.cfi_offset 4, -16
 5550              		.cfi_offset 5, -12
 5551              		.cfi_offset 6, -8
 5552              		.cfi_offset 14, -4
 5553 0004 0D46     		mov	r5, r1
ARM GAS  /var/folders/lx/hc4sn_b53233_zkc9xbbl97r0000gp/T//ccK5P7Jb.s 			page 153


 5554 0006 0446     		mov	r4, r0
 5555              		.loc 1 1780 5 discriminator 2 view .LVU1519
 5556 0008 21B3     		cbz	r1, .L444
 5557              		.loc 1 1780 42 is_stmt 1 discriminator 4 view .LVU1520
1781:SYS/shell/shell.c ****     char active = shell->status.isActive;
 5558              		.loc 1 1781 5 discriminator 4 view .LVU1521
 5559              		.loc 1 1781 32 is_stmt 0 discriminator 4 view .LVU1522
 5560 000a 90F86030 		ldrb	r3, [r0, #96]	@ zero_extendqisi2
 5561 000e C3F34006 		ubfx	r6, r3, #1, #1
 5562              	.LVL539:
1782:SYS/shell/shell.c ****     if (strlen(cmd) > shell->parser.bufferSize - 1)
 5563              		.loc 1 1782 5 is_stmt 1 discriminator 4 view .LVU1523
 5564              		.loc 1 1782 9 is_stmt 0 discriminator 4 view .LVU1524
 5565 0012 0846     		mov	r0, r1
 5566              	.LVL540:
 5567              		.loc 1 1782 9 discriminator 4 view .LVU1525
 5568 0014 FFF7FEFF 		bl	strlen
 5569              	.LVL541:
 5570              		.loc 1 1782 36 discriminator 4 view .LVU1526
 5571 0018 A38E     		ldrh	r3, [r4, #52]
 5572              		.loc 1 1782 48 discriminator 4 view .LVU1527
 5573 001a 013B     		subs	r3, r3, #1
 5574              		.loc 1 1782 8 discriminator 4 view .LVU1528
 5575 001c 9842     		cmp	r0, r3
 5576 001e 0FD8     		bhi	.L449
1783:SYS/shell/shell.c ****     {
1784:SYS/shell/shell.c ****         shellWriteString(shell, shellText[SHELL_TEXT_CMD_TOO_LONG]);
1785:SYS/shell/shell.c ****         return -1;
1786:SYS/shell/shell.c ****     }
1787:SYS/shell/shell.c ****     else
1788:SYS/shell/shell.c ****     {
1789:SYS/shell/shell.c ****         shell->parser.length = shellStringCopy(shell->parser.buffer, (char *)cmd);
 5577              		.loc 1 1789 9 is_stmt 1 view .LVU1529
 5578              		.loc 1 1789 32 is_stmt 0 view .LVU1530
 5579 0020 2946     		mov	r1, r5
 5580 0022 2069     		ldr	r0, [r4, #16]
 5581 0024 FFF7FEFF 		bl	shellStringCopy
 5582              	.LVL542:
 5583              		.loc 1 1789 30 view .LVU1531
 5584 0028 A081     		strh	r0, [r4, #12]	@ movhi
1790:SYS/shell/shell.c ****         shellExec(shell);
 5585              		.loc 1 1790 9 is_stmt 1 view .LVU1532
 5586 002a 2046     		mov	r0, r4
 5587 002c FFF7FEFF 		bl	shellExec
 5588              	.LVL543:
1791:SYS/shell/shell.c ****         shell->status.isActive = active;
 5589              		.loc 1 1791 9 view .LVU1533
 5590              		.loc 1 1791 32 is_stmt 0 view .LVU1534
 5591 0030 94F86030 		ldrb	r3, [r4, #96]	@ zero_extendqisi2
 5592 0034 66F34103 		bfi	r3, r6, #1, #1
 5593 0038 84F86030 		strb	r3, [r4, #96]
1792:SYS/shell/shell.c ****         return 0;
 5594              		.loc 1 1792 9 is_stmt 1 view .LVU1535
 5595              		.loc 1 1792 16 is_stmt 0 view .LVU1536
 5596 003c 0020     		movs	r0, #0
 5597              	.L440:
1793:SYS/shell/shell.c ****     }
ARM GAS  /var/folders/lx/hc4sn_b53233_zkc9xbbl97r0000gp/T//ccK5P7Jb.s 			page 154


1794:SYS/shell/shell.c **** }
 5598              		.loc 1 1794 1 view .LVU1537
 5599 003e 70BD     		pop	{r4, r5, r6, pc}
 5600              	.LVL544:
 5601              	.L449:
1784:SYS/shell/shell.c ****         return -1;
 5602              		.loc 1 1784 9 is_stmt 1 view .LVU1538
 5603 0040 0649     		ldr	r1, .L450
 5604 0042 2046     		mov	r0, r4
 5605 0044 FFF7FEFF 		bl	shellWriteString
 5606              	.LVL545:
1785:SYS/shell/shell.c ****     }
 5607              		.loc 1 1785 9 view .LVU1539
1785:SYS/shell/shell.c ****     }
 5608              		.loc 1 1785 16 is_stmt 0 view .LVU1540
 5609 0048 4FF0FF30 		mov	r0, #-1
 5610 004c F7E7     		b	.L440
 5611              	.LVL546:
 5612              	.L443:
 5613              	.LCFI76:
 5614              		.cfi_def_cfa_offset 0
 5615              		.cfi_restore 4
 5616              		.cfi_restore 5
 5617              		.cfi_restore 6
 5618              		.cfi_restore 14
1780:SYS/shell/shell.c ****     char active = shell->status.isActive;
 5619              		.loc 1 1780 5 view .LVU1541
 5620 004e 4FF0FF30 		mov	r0, #-1
 5621              	.LVL547:
 5622              		.loc 1 1794 1 view .LVU1542
 5623 0052 7047     		bx	lr
 5624              	.LVL548:
 5625              	.L444:
 5626              	.LCFI77:
 5627              		.cfi_def_cfa_offset 16
 5628              		.cfi_offset 4, -16
 5629              		.cfi_offset 5, -12
 5630              		.cfi_offset 6, -8
 5631              		.cfi_offset 14, -4
1780:SYS/shell/shell.c ****     char active = shell->status.isActive;
 5632              		.loc 1 1780 5 view .LVU1543
 5633 0054 4FF0FF30 		mov	r0, #-1
 5634              	.LVL549:
1780:SYS/shell/shell.c ****     char active = shell->status.isActive;
 5635              		.loc 1 1780 5 view .LVU1544
 5636 0058 F1E7     		b	.L440
 5637              	.L451:
 5638 005a 00BF     		.align	2
 5639              	.L450:
 5640 005c 00000000 		.word	.LC21
 5641              		.cfi_endproc
 5642              	.LFE183:
 5644              		.global	shellCommandclear
 5645              		.global	shellDescclear
 5646              		.global	shellCmdclear
 5647              		.global	shellCommandkeys
 5648              		.global	shellDesckeys
ARM GAS  /var/folders/lx/hc4sn_b53233_zkc9xbbl97r0000gp/T//ccK5P7Jb.s 			page 155


 5649              		.global	shellCmdkeys
 5650              		.global	shellCommandvars
 5651              		.global	shellDescvars
 5652              		.global	shellCmdvars
 5653              		.global	shellCommandcmds
 5654              		.global	shellDesccmds
 5655              		.global	shellCmdcmds
 5656              		.global	shellCommandusers
 5657              		.global	shellDescusers
 5658              		.global	shellCmdusers
 5659              		.global	shellCommandhelp
 5660              		.global	shellDeschelp
 5661              		.global	shellCmdhelp
 5662              		.global	shellKey0x0D000000
 5663              		.global	shellDesc0x0D000000
 5664              		.global	shellKey0x0A000000
 5665              		.global	shellDesc0x0A000000
 5666              		.global	shellKey0x1B5B337E
 5667              		.global	shellDesc0x1B5B337E
 5668              		.global	shellKey0x7F000000
 5669              		.global	shellDesc0x7F000000
 5670              		.global	shellKey0x08000000
 5671              		.global	shellDesc0x08000000
 5672              		.global	shellKey0x09000000
 5673              		.global	shellDesc0x09000000
 5674              		.global	shellKey0x1B5B4400
 5675              		.global	shellDesc0x1B5B4400
 5676              		.global	shellKey0x1B5B4300
 5677              		.global	shellDesc0x1B5B4300
 5678              		.global	shellKey0x1B5B4200
 5679              		.global	shellDesc0x1B5B4200
 5680              		.global	shellKey0x1B5B4100
 5681              		.global	shellDesc0x1B5B4100
 5682              		.global	shellCommandsetVar
 5683              		.global	shellDescsetVar
 5684              		.global	shellCmdsetVar
 5685              		.global	shellUserDefault
 5686              		.global	shellDesDefaultUser
 5687              		.global	shellPasswordDefaultUser
 5688              		.global	shellCmdDefaultUser
 5689              		.section	.bss.buffer.0,"aw",%nobits
 5690              		.align	2
 5691              		.set	.LANCHOR1,. + 0
 5694              	buffer.0:
 5695 0000 00000000 		.space	9
 5695      00000000 
 5695      00
 5696              		.section	.bss.shellList,"aw",%nobits
 5697              		.align	2
 5698              		.set	.LANCHOR0,. + 0
 5701              	shellList:
 5702 0000 00000000 		.space	20
 5702      00000000 
 5702      00000000 
 5702      00000000 
 5702      00000000 
 5703              		.section	.rodata.shellCmdDefaultUser,"a"
ARM GAS  /var/folders/lx/hc4sn_b53233_zkc9xbbl97r0000gp/T//ccK5P7Jb.s 			page 156


 5704              		.align	2
 5707              	shellCmdDefaultUser:
 5708 0000 502E302E 		.ascii	"P.0.Wder Squad\000"
 5708      57646572 
 5708      20537175 
 5708      616400
 5709              		.section	.rodata.shellCmdclear,"a"
 5710              		.align	2
 5713              	shellCmdclear:
 5714 0000 636C6561 		.ascii	"clear\000"
 5714      7200
 5715              		.section	.rodata.shellCmdcmds,"a"
 5716              		.align	2
 5719              	shellCmdcmds:
 5720 0000 636D6473 		.ascii	"cmds\000"
 5720      00
 5721              		.section	.rodata.shellCmdhelp,"a"
 5722              		.align	2
 5725              	shellCmdhelp:
 5726 0000 68656C70 		.ascii	"help\000"
 5726      00
 5727              		.section	.rodata.shellCmdkeys,"a"
 5728              		.align	2
 5731              	shellCmdkeys:
 5732 0000 6B657973 		.ascii	"keys\000"
 5732      00
 5733              		.section	.rodata.shellCmdsetVar,"a"
 5734              		.align	2
 5737              	shellCmdsetVar:
 5738 0000 73657456 		.ascii	"setVar\000"
 5738      617200
 5739              		.section	.rodata.shellCmdusers,"a"
 5740              		.align	2
 5743              	shellCmdusers:
 5744 0000 75736572 		.ascii	"users\000"
 5744      7300
 5745              		.section	.rodata.shellCmdvars,"a"
 5746              		.align	2
 5749              	shellCmdvars:
 5750 0000 76617273 		.ascii	"vars\000"
 5750      00
 5751              		.section	.rodata.shellDesDefaultUser,"a"
 5752              		.align	2
 5755              	shellDesDefaultUser:
 5756 0000 64656661 		.ascii	"default user\000"
 5756      756C7420 
 5756      75736572 
 5756      00
 5757              		.section	.rodata.shellDesc0x08000000,"a"
 5758              		.align	2
 5761              	shellDesc0x08000000:
 5762 0000 6261636B 		.ascii	"backspace\000"
 5762      73706163 
 5762      6500
 5763              		.section	.rodata.shellDesc0x09000000,"a"
 5764              		.align	2
 5767              	shellDesc0x09000000:
ARM GAS  /var/folders/lx/hc4sn_b53233_zkc9xbbl97r0000gp/T//ccK5P7Jb.s 			page 157


 5768 0000 74616200 		.ascii	"tab\000"
 5769              		.section	.rodata.shellDesc0x0A000000,"a"
 5770              		.align	2
 5773              	shellDesc0x0A000000:
 5774 0000 656E7465 		.ascii	"enter\000"
 5774      7200
 5775              		.section	.rodata.shellDesc0x0D000000,"a"
 5776              		.align	2
 5779              	shellDesc0x0D000000:
 5780 0000 656E7465 		.ascii	"enter\000"
 5780      7200
 5781              		.section	.rodata.shellDesc0x1B5B337E,"a"
 5782              		.align	2
 5785              	shellDesc0x1B5B337E:
 5786 0000 64656C65 		.ascii	"delete\000"
 5786      746500
 5787              		.section	.rodata.shellDesc0x1B5B4100,"a"
 5788              		.align	2
 5791              	shellDesc0x1B5B4100:
 5792 0000 757000   		.ascii	"up\000"
 5793              		.section	.rodata.shellDesc0x1B5B4200,"a"
 5794              		.align	2
 5797              	shellDesc0x1B5B4200:
 5798 0000 646F776E 		.ascii	"down\000"
 5798      00
 5799              		.section	.rodata.shellDesc0x1B5B4300,"a"
 5800              		.align	2
 5803              	shellDesc0x1B5B4300:
 5804 0000 72696768 		.ascii	"right\000"
 5804      7400
 5805              		.section	.rodata.shellDesc0x1B5B4400,"a"
 5806              		.align	2
 5809              	shellDesc0x1B5B4400:
 5810 0000 6C656674 		.ascii	"left\000"
 5810      00
 5811              		.section	.rodata.shellDesc0x7F000000,"a"
 5812              		.align	2
 5815              	shellDesc0x7F000000:
 5816 0000 6261636B 		.ascii	"backspace\000"
 5816      73706163 
 5816      6500
 5817              		.section	.rodata.shellDescclear,"a"
 5818              		.align	2
 5821              	shellDescclear:
 5822 0000 636C6561 		.ascii	"clear console\000"
 5822      7220636F 
 5822      6E736F6C 
 5822      6500
 5823              		.section	.rodata.shellDesccmds,"a"
 5824              		.align	2
 5827              	shellDesccmds:
 5828 0000 6C697374 		.ascii	"list all cmd\000"
 5828      20616C6C 
 5828      20636D64 
 5828      00
 5829              		.section	.rodata.shellDeschelp,"a"
 5830              		.align	2
ARM GAS  /var/folders/lx/hc4sn_b53233_zkc9xbbl97r0000gp/T//ccK5P7Jb.s 			page 158


 5833              	shellDeschelp:
 5834 0000 73686F77 		.ascii	"show command info\015\012help[cmd]\000"
 5834      20636F6D 
 5834      6D616E64 
 5834      20696E66 
 5834      6F0D0A68 
 5835              		.section	.rodata.shellDesckeys,"a"
 5836              		.align	2
 5839              	shellDesckeys:
 5840 0000 6C697374 		.ascii	"list all key\000"
 5840      20616C6C 
 5840      206B6579 
 5840      00
 5841              		.section	.rodata.shellDescsetVar,"a"
 5842              		.align	2
 5845              	shellDescsetVar:
 5846 0000 73657420 		.ascii	"set var\000"
 5846      76617200 
 5847              		.section	.rodata.shellDescusers,"a"
 5848              		.align	2
 5851              	shellDescusers:
 5852 0000 6C697374 		.ascii	"list all user\000"
 5852      20616C6C 
 5852      20757365 
 5852      7200
 5853              		.section	.rodata.shellDescvars,"a"
 5854              		.align	2
 5857              	shellDescvars:
 5858 0000 6C697374 		.ascii	"list all var\000"
 5858      20616C6C 
 5858      20766172 
 5858      00
 5859              		.section	.rodata.shellPasswordDefaultUser,"a"
 5860              		.align	2
 5863              	shellPasswordDefaultUser:
 5864 0000 00       		.space	1
 5865              		.section	shellCommand,"a"
 5866              		.align	2
 5869              	shellCommandclear:
 5870 0000 00210000 		.word	8448
 5871 0004 00000000 		.word	shellCmdclear
 5872 0008 00000000 		.word	shellClear
 5873 000c 00000000 		.word	shellDescclear
 5876              	shellCommandkeys:
 5877 0010 00210000 		.word	8448
 5878 0014 00000000 		.word	shellCmdkeys
 5879 0018 00000000 		.word	shellKeys
 5880 001c 00000000 		.word	shellDesckeys
 5883              	shellCommandvars:
 5884 0020 00210000 		.word	8448
 5885 0024 00000000 		.word	shellCmdvars
 5886 0028 00000000 		.word	shellVars
 5887 002c 00000000 		.word	shellDescvars
 5890              	shellCommandcmds:
 5891 0030 00210000 		.word	8448
 5892 0034 00000000 		.word	shellCmdcmds
 5893 0038 00000000 		.word	shellCmds
ARM GAS  /var/folders/lx/hc4sn_b53233_zkc9xbbl97r0000gp/T//ccK5P7Jb.s 			page 159


 5894 003c 00000000 		.word	shellDesccmds
 5897              	shellCommandusers:
 5898 0040 00210000 		.word	8448
 5899 0044 00000000 		.word	shellCmdusers
 5900 0048 00000000 		.word	shellUsers
 5901 004c 00000000 		.word	shellDescusers
 5904              	shellCommandhelp:
 5905 0050 00200000 		.word	8192
 5906 0054 00000000 		.word	shellCmdhelp
 5907 0058 00000000 		.word	shellHelp
 5908 005c 00000000 		.word	shellDeschelp
 5911              	shellKey0x0D000000:
 5912 0060 00190000 		.word	6400
 5913 0064 0000000D 		.word	218103808
 5914 0068 00000000 		.word	shellEnter
 5915 006c 00000000 		.word	shellDesc0x0D000000
 5918              	shellKey0x0A000000:
 5919 0070 00190000 		.word	6400
 5920 0074 0000000A 		.word	167772160
 5921 0078 00000000 		.word	shellEnter
 5922 007c 00000000 		.word	shellDesc0x0A000000
 5925              	shellKey0x1B5B337E:
 5926 0080 00190000 		.word	6400
 5927 0084 7E335B1B 		.word	458961790
 5928 0088 00000000 		.word	shellDelete
 5929 008c 00000000 		.word	shellDesc0x1B5B337E
 5932              	shellKey0x7F000000:
 5933 0090 00190000 		.word	6400
 5934 0094 0000007F 		.word	2130706432
 5935 0098 00000000 		.word	shellBackspace
 5936 009c 00000000 		.word	shellDesc0x7F000000
 5939              	shellKey0x08000000:
 5940 00a0 00190000 		.word	6400
 5941 00a4 00000008 		.word	134217728
 5942 00a8 00000000 		.word	shellBackspace
 5943 00ac 00000000 		.word	shellDesc0x08000000
 5946              	shellKey0x09000000:
 5947 00b0 00090000 		.word	2304
 5948 00b4 00000009 		.word	150994944
 5949 00b8 00000000 		.word	shellTab
 5950 00bc 00000000 		.word	shellDesc0x09000000
 5953              	shellKey0x1B5B4400:
 5954 00c0 00190000 		.word	6400
 5955 00c4 00445B1B 		.word	458966016
 5956 00c8 00000000 		.word	shellLeft
 5957 00cc 00000000 		.word	shellDesc0x1B5B4400
 5960              	shellKey0x1B5B4300:
 5961 00d0 00190000 		.word	6400
 5962 00d4 00435B1B 		.word	458965760
 5963 00d8 00000000 		.word	shellRight
 5964 00dc 00000000 		.word	shellDesc0x1B5B4300
 5967              	shellKey0x1B5B4200:
 5968 00e0 00090000 		.word	2304
 5969 00e4 00425B1B 		.word	458965504
 5970 00e8 00000000 		.word	shellDown
 5971 00ec 00000000 		.word	shellDesc0x1B5B4200
 5974              	shellKey0x1B5B4100:
ARM GAS  /var/folders/lx/hc4sn_b53233_zkc9xbbl97r0000gp/T//ccK5P7Jb.s 			page 160


 5975 00f0 00090000 		.word	2304
 5976 00f4 00415B1B 		.word	458965248
 5977 00f8 00000000 		.word	shellUp
 5978 00fc 00000000 		.word	shellDesc0x1B5B4100
 5981              	shellCommandsetVar:
 5982 0100 00210000 		.word	8448
 5983 0104 00000000 		.word	shellCmdsetVar
 5984 0108 00000000 		.word	shellSetVar
 5985 010c 00000000 		.word	shellDescsetVar
 5988              	shellUserDefault:
 5989 0110 00080000 		.word	2048
 5990 0114 00000000 		.word	shellCmdDefaultUser
 5991 0118 00000000 		.word	shellPasswordDefaultUser
 5992 011c 00000000 		.word	shellDesDefaultUser
 5993              		.text
 5994              	.Letext0:
 5995              		.file 2 "/usr/local/arm-none-eabi-gcc/gcc-arm-none-eabi-10-2020-q4-major/arm-none-eabi/include/mac
 5996              		.file 3 "/usr/local/arm-none-eabi-gcc/gcc-arm-none-eabi-10-2020-q4-major/arm-none-eabi/include/sys
 5997              		.file 4 "SYS/shell/shell.h"
 5998              		.file 5 "/usr/local/arm-none-eabi-gcc/gcc-arm-none-eabi-10-2020-q4-major/lib/gcc/arm-none-eabi/10.
 5999              		.file 6 "/usr/local/arm-none-eabi-gcc/gcc-arm-none-eabi-10-2020-q4-major/arm-none-eabi/include/std
 6000              		.file 7 "/usr/local/arm-none-eabi-gcc/gcc-arm-none-eabi-10-2020-q4-major/arm-none-eabi/include/str
 6001              		.file 8 "SYS/shell/shell_ext.h"
 6002              		.file 9 "<built-in>"
ARM GAS  /var/folders/lx/hc4sn_b53233_zkc9xbbl97r0000gp/T//ccK5P7Jb.s 			page 161


DEFINED SYMBOLS
                            *ABS*:0000000000000000 shell.c
/var/folders/lx/hc4sn_b53233_zkc9xbbl97r0000gp/T//ccK5P7Jb.s:18     .text.shellAdd:0000000000000000 $t
/var/folders/lx/hc4sn_b53233_zkc9xbbl97r0000gp/T//ccK5P7Jb.s:25     .text.shellAdd:0000000000000000 shellAdd
/var/folders/lx/hc4sn_b53233_zkc9xbbl97r0000gp/T//ccK5P7Jb.s:79     .text.shellAdd:0000000000000020 $d
/var/folders/lx/hc4sn_b53233_zkc9xbbl97r0000gp/T//ccK5P7Jb.s:84     .text.shellStringCopy:0000000000000000 $t
/var/folders/lx/hc4sn_b53233_zkc9xbbl97r0000gp/T//ccK5P7Jb.s:90     .text.shellStringCopy:0000000000000000 shellStringCopy
/var/folders/lx/hc4sn_b53233_zkc9xbbl97r0000gp/T//ccK5P7Jb.s:137    .text.shellStringCompare:0000000000000000 $t
/var/folders/lx/hc4sn_b53233_zkc9xbbl97r0000gp/T//ccK5P7Jb.s:143    .text.shellStringCompare:0000000000000000 shellStringCompare
/var/folders/lx/hc4sn_b53233_zkc9xbbl97r0000gp/T//ccK5P7Jb.s:218    .text.shellGetCommandDesc:0000000000000000 $t
/var/folders/lx/hc4sn_b53233_zkc9xbbl97r0000gp/T//ccK5P7Jb.s:224    .text.shellGetCommandDesc:0000000000000000 shellGetCommandDesc
/var/folders/lx/hc4sn_b53233_zkc9xbbl97r0000gp/T//ccK5P7Jb.s:281    .text.shellParserParam:0000000000000000 $t
/var/folders/lx/hc4sn_b53233_zkc9xbbl97r0000gp/T//ccK5P7Jb.s:287    .text.shellParserParam:0000000000000000 shellParserParam
/var/folders/lx/hc4sn_b53233_zkc9xbbl97r0000gp/T//ccK5P7Jb.s:472    .text.shellHistoryAdd:0000000000000000 $t
/var/folders/lx/hc4sn_b53233_zkc9xbbl97r0000gp/T//ccK5P7Jb.s:478    .text.shellHistoryAdd:0000000000000000 shellHistoryAdd
/var/folders/lx/hc4sn_b53233_zkc9xbbl97r0000gp/T//ccK5P7Jb.s:577    .text.shellRemoveParamQuotes:0000000000000000 $t
/var/folders/lx/hc4sn_b53233_zkc9xbbl97r0000gp/T//ccK5P7Jb.s:583    .text.shellRemoveParamQuotes:0000000000000000 shellRemoveParamQuotes
/var/folders/lx/hc4sn_b53233_zkc9xbbl97r0000gp/T//ccK5P7Jb.s:685    .text.shellGetCurrent:0000000000000000 $t
/var/folders/lx/hc4sn_b53233_zkc9xbbl97r0000gp/T//ccK5P7Jb.s:692    .text.shellGetCurrent:0000000000000000 shellGetCurrent
/var/folders/lx/hc4sn_b53233_zkc9xbbl97r0000gp/T//ccK5P7Jb.s:743    .text.shellGetCurrent:0000000000000028 $d
/var/folders/lx/hc4sn_b53233_zkc9xbbl97r0000gp/T//ccK5P7Jb.s:748    .text.shellWriteByte:0000000000000000 $t
/var/folders/lx/hc4sn_b53233_zkc9xbbl97r0000gp/T//ccK5P7Jb.s:755    .text.shellWriteByte:0000000000000000 shellWriteByte
/var/folders/lx/hc4sn_b53233_zkc9xbbl97r0000gp/T//ccK5P7Jb.s:793    .text.shellRight:0000000000000000 $t
/var/folders/lx/hc4sn_b53233_zkc9xbbl97r0000gp/T//ccK5P7Jb.s:800    .text.shellRight:0000000000000000 shellRight
/var/folders/lx/hc4sn_b53233_zkc9xbbl97r0000gp/T//ccK5P7Jb.s:843    .text.shellLeft:0000000000000000 $t
/var/folders/lx/hc4sn_b53233_zkc9xbbl97r0000gp/T//ccK5P7Jb.s:850    .text.shellLeft:0000000000000000 shellLeft
/var/folders/lx/hc4sn_b53233_zkc9xbbl97r0000gp/T//ccK5P7Jb.s:888    .text.shellWriteString:0000000000000000 $t
/var/folders/lx/hc4sn_b53233_zkc9xbbl97r0000gp/T//ccK5P7Jb.s:895    .text.shellWriteString:0000000000000000 shellWriteString
/var/folders/lx/hc4sn_b53233_zkc9xbbl97r0000gp/T//ccK5P7Jb.s:938    .rodata.shellSetUser.str1.4:0000000000000000 $d
/var/folders/lx/hc4sn_b53233_zkc9xbbl97r0000gp/T//ccK5P7Jb.s:949    .text.shellSetUser:0000000000000000 $t
/var/folders/lx/hc4sn_b53233_zkc9xbbl97r0000gp/T//ccK5P7Jb.s:955    .text.shellSetUser:0000000000000000 shellSetUser
/var/folders/lx/hc4sn_b53233_zkc9xbbl97r0000gp/T//ccK5P7Jb.s:1046   .text.shellSetUser:0000000000000058 $d
/var/folders/lx/hc4sn_b53233_zkc9xbbl97r0000gp/T//ccK5P7Jb.s:1052   .rodata.shellWriteCommandLine.str1.4:0000000000000000 $d
/var/folders/lx/hc4sn_b53233_zkc9xbbl97r0000gp/T//ccK5P7Jb.s:1068   .text.shellWriteCommandLine:0000000000000000 $t
/var/folders/lx/hc4sn_b53233_zkc9xbbl97r0000gp/T//ccK5P7Jb.s:1074   .text.shellWriteCommandLine:0000000000000000 shellWriteCommandLine
/var/folders/lx/hc4sn_b53233_zkc9xbbl97r0000gp/T//ccK5P7Jb.s:1157   .text.shellWriteCommandLine:000000000000004c $d
/var/folders/lx/hc4sn_b53233_zkc9xbbl97r0000gp/T//ccK5P7Jb.s:1166   .rodata.shellCheckPassword.str1.4:0000000000000000 $d
/var/folders/lx/hc4sn_b53233_zkc9xbbl97r0000gp/T//ccK5P7Jb.s:1170   .text.shellCheckPassword:0000000000000000 $t
/var/folders/lx/hc4sn_b53233_zkc9xbbl97r0000gp/T//ccK5P7Jb.s:1176   .text.shellCheckPassword:0000000000000000 shellCheckPassword
/var/folders/lx/hc4sn_b53233_zkc9xbbl97r0000gp/T//ccK5P7Jb.s:1233   .text.shellCheckPassword:0000000000000038 $d
/var/folders/lx/hc4sn_b53233_zkc9xbbl97r0000gp/T//ccK5P7Jb.s:1239   .text.shellClear:0000000000000000 $t
/var/folders/lx/hc4sn_b53233_zkc9xbbl97r0000gp/T//ccK5P7Jb.s:1246   .text.shellClear:0000000000000000 shellClear
/var/folders/lx/hc4sn_b53233_zkc9xbbl97r0000gp/T//ccK5P7Jb.s:1274   .text.shellClear:0000000000000010 $d
/var/folders/lx/hc4sn_b53233_zkc9xbbl97r0000gp/T//ccK5P7Jb.s:1279   .text.shellPrint:0000000000000000 $t
/var/folders/lx/hc4sn_b53233_zkc9xbbl97r0000gp/T//ccK5P7Jb.s:1286   .text.shellPrint:0000000000000000 shellPrint
/var/folders/lx/hc4sn_b53233_zkc9xbbl97r0000gp/T//ccK5P7Jb.s:1356   .text.shellScan:0000000000000000 $t
/var/folders/lx/hc4sn_b53233_zkc9xbbl97r0000gp/T//ccK5P7Jb.s:1363   .text.shellScan:0000000000000000 shellScan
/var/folders/lx/hc4sn_b53233_zkc9xbbl97r0000gp/T//ccK5P7Jb.s:1505   .text.shellScan:0000000000000074 $d
/var/folders/lx/hc4sn_b53233_zkc9xbbl97r0000gp/T//ccK5P7Jb.s:1510   .text.shellCheckPermission:0000000000000000 $t
/var/folders/lx/hc4sn_b53233_zkc9xbbl97r0000gp/T//ccK5P7Jb.s:1517   .text.shellCheckPermission:0000000000000000 shellCheckPermission
/var/folders/lx/hc4sn_b53233_zkc9xbbl97r0000gp/T//ccK5P7Jb.s:1583   .text.shellToHex:0000000000000000 $t
/var/folders/lx/hc4sn_b53233_zkc9xbbl97r0000gp/T//ccK5P7Jb.s:1590   .text.shellToHex:0000000000000000 shellToHex
/var/folders/lx/hc4sn_b53233_zkc9xbbl97r0000gp/T//ccK5P7Jb.s:1656   .text.shellGetCommandName:0000000000000000 $t
/var/folders/lx/hc4sn_b53233_zkc9xbbl97r0000gp/T//ccK5P7Jb.s:1662   .text.shellGetCommandName:0000000000000000 shellGetCommandName
/var/folders/lx/hc4sn_b53233_zkc9xbbl97r0000gp/T//ccK5P7Jb.s:1760   .text.shellGetCommandName:0000000000000040 $d
/var/folders/lx/hc4sn_b53233_zkc9xbbl97r0000gp/T//ccK5P7Jb.s:1765   .text.shellToDec:0000000000000000 $t
/var/folders/lx/hc4sn_b53233_zkc9xbbl97r0000gp/T//ccK5P7Jb.s:1772   .text.shellToDec:0000000000000000 shellToDec
ARM GAS  /var/folders/lx/hc4sn_b53233_zkc9xbbl97r0000gp/T//ccK5P7Jb.s 			page 162


/var/folders/lx/hc4sn_b53233_zkc9xbbl97r0000gp/T//ccK5P7Jb.s:1894   .text.shellToDec:000000000000005c $d
/var/folders/lx/hc4sn_b53233_zkc9xbbl97r0000gp/T//ccK5P7Jb.s:1899   .rodata.shellWriteReturnValue.str1.4:0000000000000000 $d
/var/folders/lx/hc4sn_b53233_zkc9xbbl97r0000gp/T//ccK5P7Jb.s:1909   .text.shellWriteReturnValue:0000000000000000 $t
/var/folders/lx/hc4sn_b53233_zkc9xbbl97r0000gp/T//ccK5P7Jb.s:1915   .text.shellWriteReturnValue:0000000000000000 shellWriteReturnValue
/var/folders/lx/hc4sn_b53233_zkc9xbbl97r0000gp/T//ccK5P7Jb.s:2020   .text.shellWriteReturnValue:000000000000006c $d
/var/folders/lx/hc4sn_b53233_zkc9xbbl97r0000gp/T//ccK5P7Jb.s:2028   .rodata.shellListItem.str1.4:0000000000000000 $d
/var/folders/lx/hc4sn_b53233_zkc9xbbl97r0000gp/T//ccK5P7Jb.s:2044   .text.shellListItem:0000000000000000 $t
/var/folders/lx/hc4sn_b53233_zkc9xbbl97r0000gp/T//ccK5P7Jb.s:2051   .text.shellListItem:0000000000000000 shellListItem
/var/folders/lx/hc4sn_b53233_zkc9xbbl97r0000gp/T//ccK5P7Jb.s:2175   .text.shellListItem:000000000000007c $d
/var/folders/lx/hc4sn_b53233_zkc9xbbl97r0000gp/T//ccK5P7Jb.s:2184   .rodata.shellListCommand.str1.4:0000000000000000 $d
/var/folders/lx/hc4sn_b53233_zkc9xbbl97r0000gp/T//ccK5P7Jb.s:2188   .text.shellListCommand:0000000000000000 $t
/var/folders/lx/hc4sn_b53233_zkc9xbbl97r0000gp/T//ccK5P7Jb.s:2195   .text.shellListCommand:0000000000000000 shellListCommand
/var/folders/lx/hc4sn_b53233_zkc9xbbl97r0000gp/T//ccK5P7Jb.s:2277   .text.shellListCommand:0000000000000044 $d
/var/folders/lx/hc4sn_b53233_zkc9xbbl97r0000gp/T//ccK5P7Jb.s:2282   .text.shellCmds:0000000000000000 $t
/var/folders/lx/hc4sn_b53233_zkc9xbbl97r0000gp/T//ccK5P7Jb.s:2289   .text.shellCmds:0000000000000000 shellCmds
/var/folders/lx/hc4sn_b53233_zkc9xbbl97r0000gp/T//ccK5P7Jb.s:2317   .rodata.shellListVar.str1.4:0000000000000000 $d
/var/folders/lx/hc4sn_b53233_zkc9xbbl97r0000gp/T//ccK5P7Jb.s:2321   .text.shellListVar:0000000000000000 $t
/var/folders/lx/hc4sn_b53233_zkc9xbbl97r0000gp/T//ccK5P7Jb.s:2328   .text.shellListVar:0000000000000000 shellListVar
/var/folders/lx/hc4sn_b53233_zkc9xbbl97r0000gp/T//ccK5P7Jb.s:2413   .text.shellListVar:0000000000000048 $d
/var/folders/lx/hc4sn_b53233_zkc9xbbl97r0000gp/T//ccK5P7Jb.s:2418   .text.shellVars:0000000000000000 $t
/var/folders/lx/hc4sn_b53233_zkc9xbbl97r0000gp/T//ccK5P7Jb.s:2425   .text.shellVars:0000000000000000 shellVars
/var/folders/lx/hc4sn_b53233_zkc9xbbl97r0000gp/T//ccK5P7Jb.s:2453   .rodata.shellListUser.str1.4:0000000000000000 $d
/var/folders/lx/hc4sn_b53233_zkc9xbbl97r0000gp/T//ccK5P7Jb.s:2457   .text.shellListUser:0000000000000000 $t
/var/folders/lx/hc4sn_b53233_zkc9xbbl97r0000gp/T//ccK5P7Jb.s:2464   .text.shellListUser:0000000000000000 shellListUser
/var/folders/lx/hc4sn_b53233_zkc9xbbl97r0000gp/T//ccK5P7Jb.s:2546   .text.shellListUser:0000000000000044 $d
/var/folders/lx/hc4sn_b53233_zkc9xbbl97r0000gp/T//ccK5P7Jb.s:2551   .text.shellUsers:0000000000000000 $t
/var/folders/lx/hc4sn_b53233_zkc9xbbl97r0000gp/T//ccK5P7Jb.s:2558   .text.shellUsers:0000000000000000 shellUsers
/var/folders/lx/hc4sn_b53233_zkc9xbbl97r0000gp/T//ccK5P7Jb.s:2586   .rodata.shellListKey.str1.4:0000000000000000 $d
/var/folders/lx/hc4sn_b53233_zkc9xbbl97r0000gp/T//ccK5P7Jb.s:2590   .text.shellListKey:0000000000000000 $t
/var/folders/lx/hc4sn_b53233_zkc9xbbl97r0000gp/T//ccK5P7Jb.s:2597   .text.shellListKey:0000000000000000 shellListKey
/var/folders/lx/hc4sn_b53233_zkc9xbbl97r0000gp/T//ccK5P7Jb.s:2679   .text.shellListKey:0000000000000044 $d
/var/folders/lx/hc4sn_b53233_zkc9xbbl97r0000gp/T//ccK5P7Jb.s:2684   .text.shellKeys:0000000000000000 $t
/var/folders/lx/hc4sn_b53233_zkc9xbbl97r0000gp/T//ccK5P7Jb.s:2691   .text.shellKeys:0000000000000000 shellKeys
/var/folders/lx/hc4sn_b53233_zkc9xbbl97r0000gp/T//ccK5P7Jb.s:2719   .text.shellListAll:0000000000000000 $t
/var/folders/lx/hc4sn_b53233_zkc9xbbl97r0000gp/T//ccK5P7Jb.s:2726   .text.shellListAll:0000000000000000 shellListAll
/var/folders/lx/hc4sn_b53233_zkc9xbbl97r0000gp/T//ccK5P7Jb.s:2748   .rodata.shellDeleteCommandLine.str1.4:0000000000000000 $d
/var/folders/lx/hc4sn_b53233_zkc9xbbl97r0000gp/T//ccK5P7Jb.s:2752   .text.shellDeleteCommandLine:0000000000000000 $t
/var/folders/lx/hc4sn_b53233_zkc9xbbl97r0000gp/T//ccK5P7Jb.s:2759   .text.shellDeleteCommandLine:0000000000000000 shellDeleteCommandLine
/var/folders/lx/hc4sn_b53233_zkc9xbbl97r0000gp/T//ccK5P7Jb.s:2804   .text.shellDeleteCommandLine:000000000000001c $d
/var/folders/lx/hc4sn_b53233_zkc9xbbl97r0000gp/T//ccK5P7Jb.s:2809   .text.shellClearCommandLine:0000000000000000 $t
/var/folders/lx/hc4sn_b53233_zkc9xbbl97r0000gp/T//ccK5P7Jb.s:2816   .text.shellClearCommandLine:0000000000000000 shellClearCommandLine
/var/folders/lx/hc4sn_b53233_zkc9xbbl97r0000gp/T//ccK5P7Jb.s:2879   .text.shellHistory:0000000000000000 $t
/var/folders/lx/hc4sn_b53233_zkc9xbbl97r0000gp/T//ccK5P7Jb.s:2885   .text.shellHistory:0000000000000000 shellHistory
/var/folders/lx/hc4sn_b53233_zkc9xbbl97r0000gp/T//ccK5P7Jb.s:3009   .text.shellHistory:0000000000000094 $d
/var/folders/lx/hc4sn_b53233_zkc9xbbl97r0000gp/T//ccK5P7Jb.s:3014   .text.shellUp:0000000000000000 $t
/var/folders/lx/hc4sn_b53233_zkc9xbbl97r0000gp/T//ccK5P7Jb.s:3021   .text.shellUp:0000000000000000 shellUp
/var/folders/lx/hc4sn_b53233_zkc9xbbl97r0000gp/T//ccK5P7Jb.s:3044   .text.shellDown:0000000000000000 $t
/var/folders/lx/hc4sn_b53233_zkc9xbbl97r0000gp/T//ccK5P7Jb.s:3051   .text.shellDown:0000000000000000 shellDown
/var/folders/lx/hc4sn_b53233_zkc9xbbl97r0000gp/T//ccK5P7Jb.s:3074   .text.shellTab:0000000000000000 $t
/var/folders/lx/hc4sn_b53233_zkc9xbbl97r0000gp/T//ccK5P7Jb.s:3081   .text.shellTab:0000000000000000 shellTab
/var/folders/lx/hc4sn_b53233_zkc9xbbl97r0000gp/T//ccK5P7Jb.s:3343   .text.shellTab:0000000000000110 $d
/var/folders/lx/hc4sn_b53233_zkc9xbbl97r0000gp/T//ccK5P7Jb.s:3349   .rodata.shellInsertByte.str1.4:0000000000000000 $d
/var/folders/lx/hc4sn_b53233_zkc9xbbl97r0000gp/T//ccK5P7Jb.s:3353   .text.shellInsertByte:0000000000000000 $t
/var/folders/lx/hc4sn_b53233_zkc9xbbl97r0000gp/T//ccK5P7Jb.s:3360   .text.shellInsertByte:0000000000000000 shellInsertByte
/var/folders/lx/hc4sn_b53233_zkc9xbbl97r0000gp/T//ccK5P7Jb.s:3593   .text.shellInsertByte:00000000000000b8 $d
/var/folders/lx/hc4sn_b53233_zkc9xbbl97r0000gp/T//ccK5P7Jb.s:3598   .text.shellDeleteByte:0000000000000000 $t
/var/folders/lx/hc4sn_b53233_zkc9xbbl97r0000gp/T//ccK5P7Jb.s:3605   .text.shellDeleteByte:0000000000000000 shellDeleteByte
ARM GAS  /var/folders/lx/hc4sn_b53233_zkc9xbbl97r0000gp/T//ccK5P7Jb.s 			page 163


/var/folders/lx/hc4sn_b53233_zkc9xbbl97r0000gp/T//ccK5P7Jb.s:3850   .text.shellBackspace:0000000000000000 $t
/var/folders/lx/hc4sn_b53233_zkc9xbbl97r0000gp/T//ccK5P7Jb.s:3857   .text.shellBackspace:0000000000000000 shellBackspace
/var/folders/lx/hc4sn_b53233_zkc9xbbl97r0000gp/T//ccK5P7Jb.s:3880   .text.shellDelete:0000000000000000 $t
/var/folders/lx/hc4sn_b53233_zkc9xbbl97r0000gp/T//ccK5P7Jb.s:3887   .text.shellDelete:0000000000000000 shellDelete
/var/folders/lx/hc4sn_b53233_zkc9xbbl97r0000gp/T//ccK5P7Jb.s:3910   .text.shellSeekCommand:0000000000000000 $t
/var/folders/lx/hc4sn_b53233_zkc9xbbl97r0000gp/T//ccK5P7Jb.s:3917   .text.shellSeekCommand:0000000000000000 shellSeekCommand
/var/folders/lx/hc4sn_b53233_zkc9xbbl97r0000gp/T//ccK5P7Jb.s:4043   .rodata.shellInit.str1.4:0000000000000000 $d
/var/folders/lx/hc4sn_b53233_zkc9xbbl97r0000gp/T//ccK5P7Jb.s:4047   .text.shellInit:0000000000000000 $t
/var/folders/lx/hc4sn_b53233_zkc9xbbl97r0000gp/T//ccK5P7Jb.s:4054   .text.shellInit:0000000000000000 shellInit
/var/folders/lx/hc4sn_b53233_zkc9xbbl97r0000gp/T//ccK5P7Jb.s:4192   .text.shellInit:0000000000000084 $d
/var/folders/lx/hc4sn_b53233_zkc9xbbl97r0000gp/T//ccK5P7Jb.s:4200   .rodata.shellHelp.str1.4:0000000000000000 $d
/var/folders/lx/hc4sn_b53233_zkc9xbbl97r0000gp/T//ccK5P7Jb.s:4207   .text.shellHelp:0000000000000000 $t
/var/folders/lx/hc4sn_b53233_zkc9xbbl97r0000gp/T//ccK5P7Jb.s:4214   .text.shellHelp:0000000000000000 shellHelp
/var/folders/lx/hc4sn_b53233_zkc9xbbl97r0000gp/T//ccK5P7Jb.s:4324   .text.shellHelp:0000000000000070 $d
/var/folders/lx/hc4sn_b53233_zkc9xbbl97r0000gp/T//ccK5P7Jb.s:4332   .text.shellGetVarValue:0000000000000000 $t
/var/folders/lx/hc4sn_b53233_zkc9xbbl97r0000gp/T//ccK5P7Jb.s:4339   .text.shellGetVarValue:0000000000000000 shellGetVarValue
/var/folders/lx/hc4sn_b53233_zkc9xbbl97r0000gp/T//ccK5P7Jb.s:4363   .text.shellGetVarValue:0000000000000012 $d
/var/folders/lx/hc4sn_b53233_zkc9xbbl97r0000gp/T//ccK5P7Jb.s:4369   .text.shellGetVarValue:0000000000000018 $t
/var/folders/lx/hc4sn_b53233_zkc9xbbl97r0000gp/T//ccK5P7Jb.s:4445   .rodata.shellShowVar.str1.4:0000000000000000 $d
/var/folders/lx/hc4sn_b53233_zkc9xbbl97r0000gp/T//ccK5P7Jb.s:4452   .text.shellShowVar:0000000000000000 $t
/var/folders/lx/hc4sn_b53233_zkc9xbbl97r0000gp/T//ccK5P7Jb.s:4458   .text.shellShowVar:0000000000000000 shellShowVar
/var/folders/lx/hc4sn_b53233_zkc9xbbl97r0000gp/T//ccK5P7Jb.s:4615   .text.shellShowVar:00000000000000a8 $d
/var/folders/lx/hc4sn_b53233_zkc9xbbl97r0000gp/T//ccK5P7Jb.s:4624   .rodata.shellSetVarValue.str1.4:0000000000000000 $d
/var/folders/lx/hc4sn_b53233_zkc9xbbl97r0000gp/T//ccK5P7Jb.s:4631   .text.shellSetVarValue:0000000000000000 $t
/var/folders/lx/hc4sn_b53233_zkc9xbbl97r0000gp/T//ccK5P7Jb.s:4638   .text.shellSetVarValue:0000000000000000 shellSetVarValue
/var/folders/lx/hc4sn_b53233_zkc9xbbl97r0000gp/T//ccK5P7Jb.s:4671   .text.shellSetVarValue:000000000000001e $d
/var/folders/lx/hc4sn_b53233_zkc9xbbl97r0000gp/T//ccK5P7Jb.s:4677   .text.shellSetVarValue:0000000000000024 $t
/var/folders/lx/hc4sn_b53233_zkc9xbbl97r0000gp/T//ccK5P7Jb.s:4772   .text.shellSetVarValue:0000000000000070 $d
/var/folders/lx/hc4sn_b53233_zkc9xbbl97r0000gp/T//ccK5P7Jb.s:4778   .rodata.shellSetVar.str1.4:0000000000000000 $d
/var/folders/lx/hc4sn_b53233_zkc9xbbl97r0000gp/T//ccK5P7Jb.s:4785   .text.shellSetVar:0000000000000000 $t
/var/folders/lx/hc4sn_b53233_zkc9xbbl97r0000gp/T//ccK5P7Jb.s:4792   .text.shellSetVar:0000000000000000 shellSetVar
/var/folders/lx/hc4sn_b53233_zkc9xbbl97r0000gp/T//ccK5P7Jb.s:4890   .text.shellSetVar:000000000000005c $d
/var/folders/lx/hc4sn_b53233_zkc9xbbl97r0000gp/T//ccK5P7Jb.s:4896   .text.shellRunCommand:0000000000000000 $t
/var/folders/lx/hc4sn_b53233_zkc9xbbl97r0000gp/T//ccK5P7Jb.s:4903   .text.shellRunCommand:0000000000000000 shellRunCommand
/var/folders/lx/hc4sn_b53233_zkc9xbbl97r0000gp/T//ccK5P7Jb.s:5040   .text.shellNormalInput:0000000000000000 $t
/var/folders/lx/hc4sn_b53233_zkc9xbbl97r0000gp/T//ccK5P7Jb.s:5047   .text.shellNormalInput:0000000000000000 shellNormalInput
/var/folders/lx/hc4sn_b53233_zkc9xbbl97r0000gp/T//ccK5P7Jb.s:5074   .text.shellExec:0000000000000000 $t
/var/folders/lx/hc4sn_b53233_zkc9xbbl97r0000gp/T//ccK5P7Jb.s:5081   .text.shellExec:0000000000000000 shellExec
/var/folders/lx/hc4sn_b53233_zkc9xbbl97r0000gp/T//ccK5P7Jb.s:5187   .text.shellExec:0000000000000060 $d
/var/folders/lx/hc4sn_b53233_zkc9xbbl97r0000gp/T//ccK5P7Jb.s:5193   .text.shellEnter:0000000000000000 $t
/var/folders/lx/hc4sn_b53233_zkc9xbbl97r0000gp/T//ccK5P7Jb.s:5200   .text.shellEnter:0000000000000000 shellEnter
/var/folders/lx/hc4sn_b53233_zkc9xbbl97r0000gp/T//ccK5P7Jb.s:5229   .text.shellHandler:0000000000000000 $t
/var/folders/lx/hc4sn_b53233_zkc9xbbl97r0000gp/T//ccK5P7Jb.s:5236   .text.shellHandler:0000000000000000 shellHandler
/var/folders/lx/hc4sn_b53233_zkc9xbbl97r0000gp/T//ccK5P7Jb.s:5454   .text.shellHandler:00000000000000d4 $d
/var/folders/lx/hc4sn_b53233_zkc9xbbl97r0000gp/T//ccK5P7Jb.s:5459   .text.shellTask:0000000000000000 $t
/var/folders/lx/hc4sn_b53233_zkc9xbbl97r0000gp/T//ccK5P7Jb.s:5466   .text.shellTask:0000000000000000 shellTask
/var/folders/lx/hc4sn_b53233_zkc9xbbl97r0000gp/T//ccK5P7Jb.s:5529   .text.shellRun:0000000000000000 $t
/var/folders/lx/hc4sn_b53233_zkc9xbbl97r0000gp/T//ccK5P7Jb.s:5536   .text.shellRun:0000000000000000 shellRun
/var/folders/lx/hc4sn_b53233_zkc9xbbl97r0000gp/T//ccK5P7Jb.s:5640   .text.shellRun:000000000000005c $d
/var/folders/lx/hc4sn_b53233_zkc9xbbl97r0000gp/T//ccK5P7Jb.s:5869   shellCommand:0000000000000000 shellCommandclear
/var/folders/lx/hc4sn_b53233_zkc9xbbl97r0000gp/T//ccK5P7Jb.s:5821   .rodata.shellDescclear:0000000000000000 shellDescclear
/var/folders/lx/hc4sn_b53233_zkc9xbbl97r0000gp/T//ccK5P7Jb.s:5713   .rodata.shellCmdclear:0000000000000000 shellCmdclear
/var/folders/lx/hc4sn_b53233_zkc9xbbl97r0000gp/T//ccK5P7Jb.s:5876   shellCommand:0000000000000010 shellCommandkeys
/var/folders/lx/hc4sn_b53233_zkc9xbbl97r0000gp/T//ccK5P7Jb.s:5839   .rodata.shellDesckeys:0000000000000000 shellDesckeys
/var/folders/lx/hc4sn_b53233_zkc9xbbl97r0000gp/T//ccK5P7Jb.s:5731   .rodata.shellCmdkeys:0000000000000000 shellCmdkeys
/var/folders/lx/hc4sn_b53233_zkc9xbbl97r0000gp/T//ccK5P7Jb.s:5883   shellCommand:0000000000000020 shellCommandvars
/var/folders/lx/hc4sn_b53233_zkc9xbbl97r0000gp/T//ccK5P7Jb.s:5857   .rodata.shellDescvars:0000000000000000 shellDescvars
ARM GAS  /var/folders/lx/hc4sn_b53233_zkc9xbbl97r0000gp/T//ccK5P7Jb.s 			page 164


/var/folders/lx/hc4sn_b53233_zkc9xbbl97r0000gp/T//ccK5P7Jb.s:5749   .rodata.shellCmdvars:0000000000000000 shellCmdvars
/var/folders/lx/hc4sn_b53233_zkc9xbbl97r0000gp/T//ccK5P7Jb.s:5890   shellCommand:0000000000000030 shellCommandcmds
/var/folders/lx/hc4sn_b53233_zkc9xbbl97r0000gp/T//ccK5P7Jb.s:5827   .rodata.shellDesccmds:0000000000000000 shellDesccmds
/var/folders/lx/hc4sn_b53233_zkc9xbbl97r0000gp/T//ccK5P7Jb.s:5719   .rodata.shellCmdcmds:0000000000000000 shellCmdcmds
/var/folders/lx/hc4sn_b53233_zkc9xbbl97r0000gp/T//ccK5P7Jb.s:5897   shellCommand:0000000000000040 shellCommandusers
/var/folders/lx/hc4sn_b53233_zkc9xbbl97r0000gp/T//ccK5P7Jb.s:5851   .rodata.shellDescusers:0000000000000000 shellDescusers
/var/folders/lx/hc4sn_b53233_zkc9xbbl97r0000gp/T//ccK5P7Jb.s:5743   .rodata.shellCmdusers:0000000000000000 shellCmdusers
/var/folders/lx/hc4sn_b53233_zkc9xbbl97r0000gp/T//ccK5P7Jb.s:5904   shellCommand:0000000000000050 shellCommandhelp
/var/folders/lx/hc4sn_b53233_zkc9xbbl97r0000gp/T//ccK5P7Jb.s:5833   .rodata.shellDeschelp:0000000000000000 shellDeschelp
/var/folders/lx/hc4sn_b53233_zkc9xbbl97r0000gp/T//ccK5P7Jb.s:5725   .rodata.shellCmdhelp:0000000000000000 shellCmdhelp
/var/folders/lx/hc4sn_b53233_zkc9xbbl97r0000gp/T//ccK5P7Jb.s:5911   shellCommand:0000000000000060 shellKey0x0D000000
/var/folders/lx/hc4sn_b53233_zkc9xbbl97r0000gp/T//ccK5P7Jb.s:5779   .rodata.shellDesc0x0D000000:0000000000000000 shellDesc0x0D000000
/var/folders/lx/hc4sn_b53233_zkc9xbbl97r0000gp/T//ccK5P7Jb.s:5918   shellCommand:0000000000000070 shellKey0x0A000000
/var/folders/lx/hc4sn_b53233_zkc9xbbl97r0000gp/T//ccK5P7Jb.s:5773   .rodata.shellDesc0x0A000000:0000000000000000 shellDesc0x0A000000
/var/folders/lx/hc4sn_b53233_zkc9xbbl97r0000gp/T//ccK5P7Jb.s:5925   shellCommand:0000000000000080 shellKey0x1B5B337E
/var/folders/lx/hc4sn_b53233_zkc9xbbl97r0000gp/T//ccK5P7Jb.s:5785   .rodata.shellDesc0x1B5B337E:0000000000000000 shellDesc0x1B5B337E
/var/folders/lx/hc4sn_b53233_zkc9xbbl97r0000gp/T//ccK5P7Jb.s:5932   shellCommand:0000000000000090 shellKey0x7F000000
/var/folders/lx/hc4sn_b53233_zkc9xbbl97r0000gp/T//ccK5P7Jb.s:5815   .rodata.shellDesc0x7F000000:0000000000000000 shellDesc0x7F000000
/var/folders/lx/hc4sn_b53233_zkc9xbbl97r0000gp/T//ccK5P7Jb.s:5939   shellCommand:00000000000000a0 shellKey0x08000000
/var/folders/lx/hc4sn_b53233_zkc9xbbl97r0000gp/T//ccK5P7Jb.s:5761   .rodata.shellDesc0x08000000:0000000000000000 shellDesc0x08000000
/var/folders/lx/hc4sn_b53233_zkc9xbbl97r0000gp/T//ccK5P7Jb.s:5946   shellCommand:00000000000000b0 shellKey0x09000000
/var/folders/lx/hc4sn_b53233_zkc9xbbl97r0000gp/T//ccK5P7Jb.s:5767   .rodata.shellDesc0x09000000:0000000000000000 shellDesc0x09000000
/var/folders/lx/hc4sn_b53233_zkc9xbbl97r0000gp/T//ccK5P7Jb.s:5953   shellCommand:00000000000000c0 shellKey0x1B5B4400
/var/folders/lx/hc4sn_b53233_zkc9xbbl97r0000gp/T//ccK5P7Jb.s:5809   .rodata.shellDesc0x1B5B4400:0000000000000000 shellDesc0x1B5B4400
/var/folders/lx/hc4sn_b53233_zkc9xbbl97r0000gp/T//ccK5P7Jb.s:5960   shellCommand:00000000000000d0 shellKey0x1B5B4300
/var/folders/lx/hc4sn_b53233_zkc9xbbl97r0000gp/T//ccK5P7Jb.s:5803   .rodata.shellDesc0x1B5B4300:0000000000000000 shellDesc0x1B5B4300
/var/folders/lx/hc4sn_b53233_zkc9xbbl97r0000gp/T//ccK5P7Jb.s:5967   shellCommand:00000000000000e0 shellKey0x1B5B4200
/var/folders/lx/hc4sn_b53233_zkc9xbbl97r0000gp/T//ccK5P7Jb.s:5797   .rodata.shellDesc0x1B5B4200:0000000000000000 shellDesc0x1B5B4200
/var/folders/lx/hc4sn_b53233_zkc9xbbl97r0000gp/T//ccK5P7Jb.s:5974   shellCommand:00000000000000f0 shellKey0x1B5B4100
/var/folders/lx/hc4sn_b53233_zkc9xbbl97r0000gp/T//ccK5P7Jb.s:5791   .rodata.shellDesc0x1B5B4100:0000000000000000 shellDesc0x1B5B4100
/var/folders/lx/hc4sn_b53233_zkc9xbbl97r0000gp/T//ccK5P7Jb.s:5981   shellCommand:0000000000000100 shellCommandsetVar
/var/folders/lx/hc4sn_b53233_zkc9xbbl97r0000gp/T//ccK5P7Jb.s:5845   .rodata.shellDescsetVar:0000000000000000 shellDescsetVar
/var/folders/lx/hc4sn_b53233_zkc9xbbl97r0000gp/T//ccK5P7Jb.s:5737   .rodata.shellCmdsetVar:0000000000000000 shellCmdsetVar
/var/folders/lx/hc4sn_b53233_zkc9xbbl97r0000gp/T//ccK5P7Jb.s:5988   shellCommand:0000000000000110 shellUserDefault
/var/folders/lx/hc4sn_b53233_zkc9xbbl97r0000gp/T//ccK5P7Jb.s:5755   .rodata.shellDesDefaultUser:0000000000000000 shellDesDefaultUser
/var/folders/lx/hc4sn_b53233_zkc9xbbl97r0000gp/T//ccK5P7Jb.s:5863   .rodata.shellPasswordDefaultUser:0000000000000000 shellPasswordDefaultUser
/var/folders/lx/hc4sn_b53233_zkc9xbbl97r0000gp/T//ccK5P7Jb.s:5707   .rodata.shellCmdDefaultUser:0000000000000000 shellCmdDefaultUser
/var/folders/lx/hc4sn_b53233_zkc9xbbl97r0000gp/T//ccK5P7Jb.s:5690   .bss.buffer.0:0000000000000000 $d
/var/folders/lx/hc4sn_b53233_zkc9xbbl97r0000gp/T//ccK5P7Jb.s:5694   .bss.buffer.0:0000000000000000 buffer.0
/var/folders/lx/hc4sn_b53233_zkc9xbbl97r0000gp/T//ccK5P7Jb.s:5697   .bss.shellList:0000000000000000 $d
/var/folders/lx/hc4sn_b53233_zkc9xbbl97r0000gp/T//ccK5P7Jb.s:5701   .bss.shellList:0000000000000000 shellList
/var/folders/lx/hc4sn_b53233_zkc9xbbl97r0000gp/T//ccK5P7Jb.s:5704   .rodata.shellCmdDefaultUser:0000000000000000 $d
/var/folders/lx/hc4sn_b53233_zkc9xbbl97r0000gp/T//ccK5P7Jb.s:5710   .rodata.shellCmdclear:0000000000000000 $d
/var/folders/lx/hc4sn_b53233_zkc9xbbl97r0000gp/T//ccK5P7Jb.s:5716   .rodata.shellCmdcmds:0000000000000000 $d
/var/folders/lx/hc4sn_b53233_zkc9xbbl97r0000gp/T//ccK5P7Jb.s:5722   .rodata.shellCmdhelp:0000000000000000 $d
/var/folders/lx/hc4sn_b53233_zkc9xbbl97r0000gp/T//ccK5P7Jb.s:5728   .rodata.shellCmdkeys:0000000000000000 $d
/var/folders/lx/hc4sn_b53233_zkc9xbbl97r0000gp/T//ccK5P7Jb.s:5734   .rodata.shellCmdsetVar:0000000000000000 $d
/var/folders/lx/hc4sn_b53233_zkc9xbbl97r0000gp/T//ccK5P7Jb.s:5740   .rodata.shellCmdusers:0000000000000000 $d
/var/folders/lx/hc4sn_b53233_zkc9xbbl97r0000gp/T//ccK5P7Jb.s:5746   .rodata.shellCmdvars:0000000000000000 $d
/var/folders/lx/hc4sn_b53233_zkc9xbbl97r0000gp/T//ccK5P7Jb.s:5752   .rodata.shellDesDefaultUser:0000000000000000 $d
/var/folders/lx/hc4sn_b53233_zkc9xbbl97r0000gp/T//ccK5P7Jb.s:5758   .rodata.shellDesc0x08000000:0000000000000000 $d
/var/folders/lx/hc4sn_b53233_zkc9xbbl97r0000gp/T//ccK5P7Jb.s:5764   .rodata.shellDesc0x09000000:0000000000000000 $d
/var/folders/lx/hc4sn_b53233_zkc9xbbl97r0000gp/T//ccK5P7Jb.s:5770   .rodata.shellDesc0x0A000000:0000000000000000 $d
/var/folders/lx/hc4sn_b53233_zkc9xbbl97r0000gp/T//ccK5P7Jb.s:5776   .rodata.shellDesc0x0D000000:0000000000000000 $d
/var/folders/lx/hc4sn_b53233_zkc9xbbl97r0000gp/T//ccK5P7Jb.s:5782   .rodata.shellDesc0x1B5B337E:0000000000000000 $d
/var/folders/lx/hc4sn_b53233_zkc9xbbl97r0000gp/T//ccK5P7Jb.s:5788   .rodata.shellDesc0x1B5B4100:0000000000000000 $d
/var/folders/lx/hc4sn_b53233_zkc9xbbl97r0000gp/T//ccK5P7Jb.s:5794   .rodata.shellDesc0x1B5B4200:0000000000000000 $d
ARM GAS  /var/folders/lx/hc4sn_b53233_zkc9xbbl97r0000gp/T//ccK5P7Jb.s 			page 165


/var/folders/lx/hc4sn_b53233_zkc9xbbl97r0000gp/T//ccK5P7Jb.s:5800   .rodata.shellDesc0x1B5B4300:0000000000000000 $d
/var/folders/lx/hc4sn_b53233_zkc9xbbl97r0000gp/T//ccK5P7Jb.s:5806   .rodata.shellDesc0x1B5B4400:0000000000000000 $d
/var/folders/lx/hc4sn_b53233_zkc9xbbl97r0000gp/T//ccK5P7Jb.s:5812   .rodata.shellDesc0x7F000000:0000000000000000 $d
/var/folders/lx/hc4sn_b53233_zkc9xbbl97r0000gp/T//ccK5P7Jb.s:5818   .rodata.shellDescclear:0000000000000000 $d
/var/folders/lx/hc4sn_b53233_zkc9xbbl97r0000gp/T//ccK5P7Jb.s:5824   .rodata.shellDesccmds:0000000000000000 $d
/var/folders/lx/hc4sn_b53233_zkc9xbbl97r0000gp/T//ccK5P7Jb.s:5830   .rodata.shellDeschelp:0000000000000000 $d
/var/folders/lx/hc4sn_b53233_zkc9xbbl97r0000gp/T//ccK5P7Jb.s:5836   .rodata.shellDesckeys:0000000000000000 $d
/var/folders/lx/hc4sn_b53233_zkc9xbbl97r0000gp/T//ccK5P7Jb.s:5842   .rodata.shellDescsetVar:0000000000000000 $d
/var/folders/lx/hc4sn_b53233_zkc9xbbl97r0000gp/T//ccK5P7Jb.s:5848   .rodata.shellDescusers:0000000000000000 $d
/var/folders/lx/hc4sn_b53233_zkc9xbbl97r0000gp/T//ccK5P7Jb.s:5854   .rodata.shellDescvars:0000000000000000 $d
/var/folders/lx/hc4sn_b53233_zkc9xbbl97r0000gp/T//ccK5P7Jb.s:5860   .rodata.shellPasswordDefaultUser:0000000000000000 $d
/var/folders/lx/hc4sn_b53233_zkc9xbbl97r0000gp/T//ccK5P7Jb.s:5866   shellCommand:0000000000000000 $d

UNDEFINED SYMBOLS
strcmp
strlen
vsnprintf
vsscanf
strncmp
_shell_command_start
_shell_command_end
shellExtRun
