ARM GAS  /var/folders/lx/hc4sn_b53233_zkc9xbbl97r0000gp/T//ccpw5FQw.s 			page 1


   1              		.cpu cortex-m4
   2              		.eabi_attribute 27, 1
   3              		.eabi_attribute 28, 1
   4              		.eabi_attribute 20, 1
   5              		.eabi_attribute 21, 1
   6              		.eabi_attribute 23, 3
   7              		.eabi_attribute 24, 1
   8              		.eabi_attribute 25, 1
   9              		.eabi_attribute 26, 1
  10              		.eabi_attribute 30, 1
  11              		.eabi_attribute 34, 1
  12              		.eabi_attribute 18, 4
  13              		.file	"shell_port.c"
  14              		.text
  15              	.Ltext0:
  16              		.cfi_sections	.debug_frame
  17              		.section	.text.user_shell_write,"ax",%progbits
  18              		.align	1
  19              		.global	user_shell_write
  20              		.arch armv7e-m
  21              		.syntax unified
  22              		.thumb
  23              		.thumb_func
  24              		.fpu fpv4-sp-d16
  26              	user_shell_write:
  27              	.LVL0:
  28              	.LFB123:
  29              		.file 1 "Dsp/letter_shell/shell_port.c"
   1:Dsp/letter_shell/shell_port.c **** #include "shell.h"
   2:Dsp/letter_shell/shell_port.c **** #include "stm32f4xx.h"
   3:Dsp/letter_shell/shell_port.c **** #include "periph_serial.h"
   4:Dsp/letter_shell/shell_port.c **** #include "shell_port.h"
   5:Dsp/letter_shell/shell_port.c **** #include "stm32f4xx_usart.h"
   6:Dsp/letter_shell/shell_port.c **** #include "delay.h"
   7:Dsp/letter_shell/shell_port.c **** #include "periph_dma.h"
   8:Dsp/letter_shell/shell_port.c **** 
   9:Dsp/letter_shell/shell_port.c **** Shell shell;
  10:Dsp/letter_shell/shell_port.c **** char shell_buff[512];
  11:Dsp/letter_shell/shell_port.c **** uint16_t dma_shell_buf[1] = {0};
  12:Dsp/letter_shell/shell_port.c **** 
  13:Dsp/letter_shell/shell_port.c **** void user_shell_write(const char ch)
  14:Dsp/letter_shell/shell_port.c **** {	
  30              		.loc 1 14 1 view -0
  31              		.cfi_startproc
  32              		@ args = 0, pretend = 0, frame = 0
  33              		@ frame_needed = 0, uses_anonymous_args = 0
  34              		.loc 1 14 1 is_stmt 0 view .LVU1
  35 0000 08B5     		push	{r3, lr}
  36              	.LCFI0:
  37              		.cfi_def_cfa_offset 8
  38              		.cfi_offset 3, -8
  39              		.cfi_offset 14, -4
  15:Dsp/letter_shell/shell_port.c **** 		dma_shell_buf[0] = ch;
  40              		.loc 1 15 3 is_stmt 1 view .LVU2
  41              		.loc 1 15 20 is_stmt 0 view .LVU3
  42 0002 064B     		ldr	r3, .L3
  43 0004 1880     		strh	r0, [r3]	@ movhi
ARM GAS  /var/folders/lx/hc4sn_b53233_zkc9xbbl97r0000gp/T//ccpw5FQw.s 			page 2


  16:Dsp/letter_shell/shell_port.c **** 		Serial_DMA_SendBuff(Serial_1,1);
  44              		.loc 1 16 3 is_stmt 1 view .LVU4
  45 0006 0121     		movs	r1, #1
  46 0008 0020     		movs	r0, #0
  47              	.LVL1:
  48              		.loc 1 16 3 is_stmt 0 view .LVU5
  49 000a FFF7FEFF 		bl	Serial_DMA_SendBuff
  50              	.LVL2:
  17:Dsp/letter_shell/shell_port.c **** 		DMA_ClearFlag(DMA2_Stream7,DMA_FLAG_TCIF7);//清除DMA2_Steam7传输完成标志
  51              		.loc 1 17 3 is_stmt 1 view .LVU6
  52 000e 4FF02051 		mov	r1, #671088640
  53 0012 0348     		ldr	r0, .L3+4
  54 0014 FFF7FEFF 		bl	DMA_ClearFlag
  55              	.LVL3:
  18:Dsp/letter_shell/shell_port.c **** }
  56              		.loc 1 18 1 is_stmt 0 view .LVU7
  57 0018 08BD     		pop	{r3, pc}
  58              	.L4:
  59 001a 00BF     		.align	2
  60              	.L3:
  61 001c 00000000 		.word	.LANCHOR0
  62 0020 B8640240 		.word	1073898680
  63              		.cfi_endproc
  64              	.LFE123:
  66              		.section	.text.Shell_Init,"ax",%progbits
  67              		.align	1
  68              		.global	Shell_Init
  69              		.syntax unified
  70              		.thumb
  71              		.thumb_func
  72              		.fpu fpv4-sp-d16
  74              	Shell_Init:
  75              	.LFB124:
  19:Dsp/letter_shell/shell_port.c **** 
  20:Dsp/letter_shell/shell_port.c **** void Shell_Init(void)
  21:Dsp/letter_shell/shell_port.c **** {
  76              		.loc 1 21 1 is_stmt 1 view -0
  77              		.cfi_startproc
  78              		@ args = 0, pretend = 0, frame = 0
  79              		@ frame_needed = 0, uses_anonymous_args = 0
  80 0000 08B5     		push	{r3, lr}
  81              	.LCFI1:
  82              		.cfi_def_cfa_offset 8
  83              		.cfi_offset 3, -8
  84              		.cfi_offset 14, -4
  22:Dsp/letter_shell/shell_port.c **** 	shell.write = user_shell_write;
  85              		.loc 1 22 2 view .LVU9
  86              		.loc 1 22 14 is_stmt 0 view .LVU10
  87 0002 0448     		ldr	r0, .L7
  88 0004 044B     		ldr	r3, .L7+4
  89 0006 8366     		str	r3, [r0, #104]
  23:Dsp/letter_shell/shell_port.c **** 	
  24:Dsp/letter_shell/shell_port.c **** 	shellInit(&shell,shell_buff,512);
  90              		.loc 1 24 2 is_stmt 1 view .LVU11
  91 0008 4FF40072 		mov	r2, #512
  92 000c 0349     		ldr	r1, .L7+8
  93 000e FFF7FEFF 		bl	shellInit
ARM GAS  /var/folders/lx/hc4sn_b53233_zkc9xbbl97r0000gp/T//ccpw5FQw.s 			page 3


  94              	.LVL4:
  25:Dsp/letter_shell/shell_port.c **** }
  95              		.loc 1 25 1 is_stmt 0 view .LVU12
  96 0012 08BD     		pop	{r3, pc}
  97              	.L8:
  98              		.align	2
  99              	.L7:
 100 0014 00000000 		.word	.LANCHOR1
 101 0018 00000000 		.word	user_shell_write
 102 001c 00000000 		.word	.LANCHOR2
 103              		.cfi_endproc
 104              	.LFE124:
 106              		.global	dma_shell_buf
 107              		.global	shell_buff
 108              		.global	shell
 109              		.section	.bss.dma_shell_buf,"aw",%nobits
 110              		.align	2
 111              		.set	.LANCHOR0,. + 0
 114              	dma_shell_buf:
 115 0000 0000     		.space	2
 116              		.section	.bss.shell,"aw",%nobits
 117              		.align	2
 118              		.set	.LANCHOR1,. + 0
 121              	shell:
 122 0000 00000000 		.space	108
 122      00000000 
 122      00000000 
 122      00000000 
 122      00000000 
 123              		.section	.bss.shell_buff,"aw",%nobits
 124              		.align	2
 125              		.set	.LANCHOR2,. + 0
 128              	shell_buff:
 129 0000 00000000 		.space	512
 129      00000000 
 129      00000000 
 129      00000000 
 129      00000000 
 130              		.text
 131              	.Letext0:
 132              		.file 2 "Dsp/letter_shell/shell.h"
 133              		.file 3 "/usr/local/arm-none-eabi-gcc/gcc-arm-none-eabi-10-2020-q4-major/arm-none-eabi/include/mac
 134              		.file 4 "/usr/local/arm-none-eabi-gcc/gcc-arm-none-eabi-10-2020-q4-major/arm-none-eabi/include/sys
 135              		.file 5 "USER/stm32f4xx.h"
 136              		.file 6 "Bsp/periph_serial.h"
 137              		.file 7 "Dsp/letter_shell/shell_port.h"
 138              		.file 8 "FWLIB/inc/stm32f4xx_dma.h"
ARM GAS  /var/folders/lx/hc4sn_b53233_zkc9xbbl97r0000gp/T//ccpw5FQw.s 			page 4

