ARM GAS  C:\Users\huav\AppData\Local\Temp\cc1GSGvG.s 			page 1


   1              		.cpu cortex-m4
   2              		.eabi_attribute 27, 1
   3              		.eabi_attribute 28, 1
   4              		.eabi_attribute 20, 1
   5              		.eabi_attribute 21, 1
   6              		.eabi_attribute 23, 3
   7              		.eabi_attribute 24, 1
   8              		.eabi_attribute 25, 1
   9              		.eabi_attribute 26, 1
  10              		.eabi_attribute 30, 1
  11              		.eabi_attribute 34, 1
  12              		.eabi_attribute 18, 4
  13              		.file	"shell.c"
  14              		.text
  15              	.Ltext0:
  16              		.cfi_sections	.debug_frame
  17              		.section	.text.shellAdd,"ax",%progbits
  18              		.align	1
  19              		.arch armv7e-m
  20              		.syntax unified
  21              		.thumb
  22              		.thumb_func
  23              		.fpu fpv4-sp-d16
  25              	shellAdd:
  26              	.LVL0:
  27              	.LFB127:
  28              		.file 1 "SYS/shell/shell.c"
   1:SYS/shell/shell.c **** /**
   2:SYS/shell/shell.c ****  * @file shell.c
   3:SYS/shell/shell.c ****  * @author Letter (NevermindZZT@gmail.com)
   4:SYS/shell/shell.c ****  * @version 3.0.0
   5:SYS/shell/shell.c ****  * @date 2019-12-30
   6:SYS/shell/shell.c ****  * 
   7:SYS/shell/shell.c ****  * @copyright (c) 2020 Letter
   8:SYS/shell/shell.c ****  * 
   9:SYS/shell/shell.c ****  */
  10:SYS/shell/shell.c **** 
  11:SYS/shell/shell.c **** #include "shell.h"
  12:SYS/shell/shell.c **** #include "string.h"
  13:SYS/shell/shell.c **** #include "stdio.h"
  14:SYS/shell/shell.c **** #include "stdarg.h"
  15:SYS/shell/shell.c **** #include "shell_ext.h"
  16:SYS/shell/shell.c **** #include "stm32f4xx_usart.h"
  17:SYS/shell/shell.c **** 
  18:SYS/shell/shell.c **** #if SHELL_USING_CMD_EXPORT == 1
  19:SYS/shell/shell.c **** /**
  20:SYS/shell/shell.c ****  * @brief 默认用户
  21:SYS/shell/shell.c ****  */
  22:SYS/shell/shell.c **** const char shellCmdDefaultUser[] = SHELL_DEFAULT_USER;
  23:SYS/shell/shell.c **** const char shellPasswordDefaultUser[] = SHELL_DEFAULT_USER_PASSWORD;
  24:SYS/shell/shell.c **** const char shellDesDefaultUser[] = "default user";
  25:SYS/shell/shell.c **** const ShellCommand shellUserDefault SECTION("shellCommand") =
  26:SYS/shell/shell.c ****     {
  27:SYS/shell/shell.c ****         .attr.value = SHELL_CMD_PERMISSION(0) | SHELL_CMD_TYPE(SHELL_TYPE_USER),
  28:SYS/shell/shell.c ****         .data.user.name = shellCmdDefaultUser,
  29:SYS/shell/shell.c ****         .data.user.password = shellPasswordDefaultUser,
  30:SYS/shell/shell.c ****         .data.user.desc = shellDesDefaultUser};
ARM GAS  C:\Users\huav\AppData\Local\Temp\cc1GSGvG.s 			page 2


  31:SYS/shell/shell.c **** #endif
  32:SYS/shell/shell.c **** 
  33:SYS/shell/shell.c **** #if SHELL_USING_CMD_EXPORT == 1
  34:SYS/shell/shell.c **** #if defined(__CC_ARM) || (defined(__ARMCC_VERSION) && __ARMCC_VERSION >= 6000000)
  35:SYS/shell/shell.c **** extern const unsigned int shellCommand$$Base;
  36:SYS/shell/shell.c **** extern const unsigned int shellCommand$$Limit;
  37:SYS/shell/shell.c **** #elif defined(__ICCARM__) || defined(__ICCRX__)
  38:SYS/shell/shell.c **** #pragma section = "shellCommand"
  39:SYS/shell/shell.c **** #elif defined(__GNUC__)
  40:SYS/shell/shell.c **** extern const unsigned int _shell_command_start;
  41:SYS/shell/shell.c **** extern const unsigned int _shell_command_end;
  42:SYS/shell/shell.c **** #endif
  43:SYS/shell/shell.c **** #else
  44:SYS/shell/shell.c **** extern const ShellCommand shellCommandList[];
  45:SYS/shell/shell.c **** extern const unsigned short shellCommandCount;
  46:SYS/shell/shell.c **** #endif
  47:SYS/shell/shell.c **** 
  48:SYS/shell/shell.c **** /**
  49:SYS/shell/shell.c ****  * @brief shell 常量文本索引
  50:SYS/shell/shell.c ****  */
  51:SYS/shell/shell.c **** enum
  52:SYS/shell/shell.c **** {
  53:SYS/shell/shell.c **** #if SHELL_SHOW_INFO == 1
  54:SYS/shell/shell.c ****     SHELL_TEXT_INFO, /**< shell信息 */
  55:SYS/shell/shell.c **** #endif
  56:SYS/shell/shell.c ****     SHELL_TEXT_CMD_TOO_LONG,                /**< 命令过长 */
  57:SYS/shell/shell.c ****     SHELL_TEXT_CMD_LIST,                    /**< 可执行命令列表标题 */
  58:SYS/shell/shell.c ****     SHELL_TEXT_VAR_LIST,                    /**< 变量列表标题 */
  59:SYS/shell/shell.c ****     SHELL_TEXT_USER_LIST,                   /**< 用户列表标题 */
  60:SYS/shell/shell.c ****     SHELL_TEXT_KEY_LIST,                    /**< 按键列表标题 */
  61:SYS/shell/shell.c ****     SHELL_TEXT_CMD_NOT_FOUND,               /**< 命令未找到 */
  62:SYS/shell/shell.c ****     SHELL_TEXT_POINT_CANNOT_MODIFY,         /**< 指针变量不允许修改 */
  63:SYS/shell/shell.c ****     SHELL_TEXT_VAR_READ_ONLY_CANNOT_MODIFY, /**< 只读变量不允许修改 */
  64:SYS/shell/shell.c ****     SHELL_TEXT_NOT_VAR,                     /**< 命令不是变量 */
  65:SYS/shell/shell.c ****     SHELL_TEXT_VAR_NOT_FOUND,               /**< 变量未找到 */
  66:SYS/shell/shell.c ****     SHELL_TEXT_HELP_HEADER,                 /**< help头 */
  67:SYS/shell/shell.c ****     SHELL_TEXT_PASSWORD_HINT,               /**< 密码输入提示 */
  68:SYS/shell/shell.c ****     SHELL_TEXT_PASSWORD_ERROR,              /**< 密码错误 */
  69:SYS/shell/shell.c ****     SHELL_TEXT_CLEAR_CONSOLE,               /**< 清空控制台 */
  70:SYS/shell/shell.c ****     SHELL_TEXT_CLEAR_LINE,                  /**< 清空当前行 */
  71:SYS/shell/shell.c ****     SHELL_TEXT_TYPE_CMD,                    /**< 命令类型 */
  72:SYS/shell/shell.c ****     SHELL_TEXT_TYPE_VAR,                    /**< 变量类型 */
  73:SYS/shell/shell.c ****     SHELL_TEXT_TYPE_USER,                   /**< 用户类型 */
  74:SYS/shell/shell.c ****     SHELL_TEXT_TYPE_KEY,                    /**< 按键类型 */
  75:SYS/shell/shell.c ****     SHELL_TEXT_TYPE_NONE,                   /**< 非法类型 */
  76:SYS/shell/shell.c **** #if SHELL_EXEC_UNDEF_FUNC == 1
  77:SYS/shell/shell.c ****     SHELL_TEXT_PARAM_ERROR, /**< 参数错误 */
  78:SYS/shell/shell.c **** #endif
  79:SYS/shell/shell.c **** };
  80:SYS/shell/shell.c **** 
  81:SYS/shell/shell.c **** static const char *shellText[] =
  82:SYS/shell/shell.c ****     {
  83:SYS/shell/shell.c **** #if SHELL_SHOW_INFO == 1
  84:SYS/shell/shell.c ****         [SHELL_TEXT_INFO] =
  85:SYS/shell/shell.c ****             "\r\n"
  86:SYS/shell/shell.c ****             "  ____    _      _       ___      _                   \r\n"
  87:SYS/shell/shell.c ****             " |    \\  /_\\    | |     | _ \\   | |              ___ \r\n"
ARM GAS  C:\Users\huav\AppData\Local\Temp\cc1GSGvG.s 			page 3


  88:SYS/shell/shell.c ****             " |    |   _   __| |__   ||_|/ __| |__   ___    //    \r\n"
  89:SYS/shell/shell.c ****             " |----/  | | |__   __|  |  \\ |__   __|  //   \\  \\__    \r\n"
  90:SYS/shell/shell.c ****             " |    |  | |    | |_    | |\\    | |_   ||   ||      \\  \r\n"
  91:SYS/shell/shell.c ****             " \\____/  |_|    |___/   |_| \\   |___/   \\___//   ___//  \r\n"
  92:SYS/shell/shell.c ****             "\r\n"
  93:SYS/shell/shell.c ****             "Build:       "__DATE__
  94:SYS/shell/shell.c ****             " "__TIME__
  95:SYS/shell/shell.c ****             "\r\n"
  96:SYS/shell/shell.c ****             "Version:     " SHELL_VERSION "\r\n",
  97:SYS/shell/shell.c **** #endif
  98:SYS/shell/shell.c ****         [SHELL_TEXT_CMD_TOO_LONG] =
  99:SYS/shell/shell.c ****             "\r\nWarning: Command is too long\r\n",
 100:SYS/shell/shell.c ****         [SHELL_TEXT_CMD_LIST] =
 101:SYS/shell/shell.c ****             "\r\nCommand List:\r\n",
 102:SYS/shell/shell.c ****         [SHELL_TEXT_VAR_LIST] =
 103:SYS/shell/shell.c ****             "\r\nVar List:\r\n",
 104:SYS/shell/shell.c ****         [SHELL_TEXT_USER_LIST] =
 105:SYS/shell/shell.c ****             "\r\nUser List:\r\n",
 106:SYS/shell/shell.c ****         [SHELL_TEXT_KEY_LIST] =
 107:SYS/shell/shell.c ****             "\r\nKey List:\r\n",
 108:SYS/shell/shell.c ****         [SHELL_TEXT_CMD_NOT_FOUND] =
 109:SYS/shell/shell.c ****             "Command not Found\r\n",
 110:SYS/shell/shell.c ****         [SHELL_TEXT_POINT_CANNOT_MODIFY] =
 111:SYS/shell/shell.c ****             "can't set pointer\r\n",
 112:SYS/shell/shell.c ****         [SHELL_TEXT_VAR_READ_ONLY_CANNOT_MODIFY] =
 113:SYS/shell/shell.c ****             "can't set read only var\r\n",
 114:SYS/shell/shell.c ****         [SHELL_TEXT_NOT_VAR] =
 115:SYS/shell/shell.c ****             " is not a var\r\n",
 116:SYS/shell/shell.c ****         [SHELL_TEXT_VAR_NOT_FOUND] =
 117:SYS/shell/shell.c ****             "Var not Fount\r\n",
 118:SYS/shell/shell.c ****         [SHELL_TEXT_HELP_HEADER] =
 119:SYS/shell/shell.c ****             "command help of ",
 120:SYS/shell/shell.c ****         [SHELL_TEXT_PASSWORD_HINT] =
 121:SYS/shell/shell.c ****             "\r\nPlease input password:",
 122:SYS/shell/shell.c ****         [SHELL_TEXT_PASSWORD_ERROR] =
 123:SYS/shell/shell.c ****             "\r\npassword error\r\n",
 124:SYS/shell/shell.c ****         [SHELL_TEXT_CLEAR_CONSOLE] =
 125:SYS/shell/shell.c ****             "\033[2J\033[1H",
 126:SYS/shell/shell.c ****         [SHELL_TEXT_CLEAR_LINE] =
 127:SYS/shell/shell.c ****             "\033[2K\r",
 128:SYS/shell/shell.c ****         [SHELL_TEXT_TYPE_CMD] =
 129:SYS/shell/shell.c ****             "CMD \r\n",
 130:SYS/shell/shell.c ****         [SHELL_TEXT_TYPE_VAR] =
 131:SYS/shell/shell.c ****             "VAR",
 132:SYS/shell/shell.c ****         [SHELL_TEXT_TYPE_USER] =
 133:SYS/shell/shell.c ****             "USER",
 134:SYS/shell/shell.c ****         [SHELL_TEXT_TYPE_KEY] =
 135:SYS/shell/shell.c ****             "KEY",
 136:SYS/shell/shell.c ****         [SHELL_TEXT_TYPE_NONE] =
 137:SYS/shell/shell.c ****             "NONE",
 138:SYS/shell/shell.c **** #if SHELL_EXEC_UNDEF_FUNC == 1
 139:SYS/shell/shell.c ****         [SHELL_TEXT_PARAM_ERROR] =
 140:SYS/shell/shell.c ****             "Parameter error\r\n",
 141:SYS/shell/shell.c **** #endif
 142:SYS/shell/shell.c **** };
 143:SYS/shell/shell.c **** 
 144:SYS/shell/shell.c **** /**
ARM GAS  C:\Users\huav\AppData\Local\Temp\cc1GSGvG.s 			page 4


 145:SYS/shell/shell.c ****  * @brief shell对象表
 146:SYS/shell/shell.c ****  */
 147:SYS/shell/shell.c **** static Shell *shellList[SHELL_MAX_NUMBER] = {NULL};
 148:SYS/shell/shell.c **** 
 149:SYS/shell/shell.c **** static void shellAdd(Shell *shell);
 150:SYS/shell/shell.c **** static void shellWriteCommandLine(Shell *shell, unsigned char newline);
 151:SYS/shell/shell.c **** static void shellWriteReturnValue(Shell *shell, int value);
 152:SYS/shell/shell.c **** static int shellShowVar(Shell *shell, ShellCommand *command);
 153:SYS/shell/shell.c **** static void shellSetUser(Shell *shell, const ShellCommand *user);
 154:SYS/shell/shell.c **** ShellCommand *shellSeekCommand(Shell *shell,
 155:SYS/shell/shell.c ****                                const char *cmd,
 156:SYS/shell/shell.c ****                                ShellCommand *base,
 157:SYS/shell/shell.c ****                                unsigned short compareLength);
 158:SYS/shell/shell.c **** 
 159:SYS/shell/shell.c **** /**
 160:SYS/shell/shell.c ****  * @brief shell 初始化
 161:SYS/shell/shell.c ****  * 
 162:SYS/shell/shell.c ****  * @param shell shell对象
 163:SYS/shell/shell.c ****  */
 164:SYS/shell/shell.c **** void shellInit(Shell *shell, char *buffer, unsigned short size)
 165:SYS/shell/shell.c **** {
 166:SYS/shell/shell.c ****     shell->parser.length = 0;
 167:SYS/shell/shell.c ****     shell->parser.cursor = 0;
 168:SYS/shell/shell.c ****     shell->history.offset = 0;
 169:SYS/shell/shell.c ****     shell->history.number = 0;
 170:SYS/shell/shell.c ****     shell->history.record = 0;
 171:SYS/shell/shell.c ****     shell->info.user = NULL;
 172:SYS/shell/shell.c ****     shell->status.isChecked = 1;
 173:SYS/shell/shell.c **** 
 174:SYS/shell/shell.c ****     shell->parser.buffer = buffer;
 175:SYS/shell/shell.c ****     shell->parser.bufferSize = size / (SHELL_HISTORY_MAX_NUMBER + 1);
 176:SYS/shell/shell.c ****     for (short i = 0; i < SHELL_HISTORY_MAX_NUMBER; i++)
 177:SYS/shell/shell.c ****     {
 178:SYS/shell/shell.c ****         shell->history.item[i] = buffer + shell->parser.bufferSize * (i + 1);
 179:SYS/shell/shell.c ****     }
 180:SYS/shell/shell.c **** 
 181:SYS/shell/shell.c **** #if SHELL_USING_CMD_EXPORT == 1
 182:SYS/shell/shell.c **** #if defined(__CC_ARM) || (defined(__ARMCC_VERSION) && __ARMCC_VERSION >= 6000000)
 183:SYS/shell/shell.c ****     shell->commandList.base = (ShellCommand *)(&shellCommand$$Base);
 184:SYS/shell/shell.c ****     shell->commandList.count = ((unsigned int)(&shellCommand$$Limit) - (unsigned int)(&shellCommand
 185:SYS/shell/shell.c **** 
 186:SYS/shell/shell.c **** #elif defined(__ICCARM__) || defined(__ICCRX__)
 187:SYS/shell/shell.c ****     shell->commandList.base = (ShellCommand *)(__section_begin("shellCommand"));
 188:SYS/shell/shell.c ****     shell->commandList.count = ((unsigned int)(__section_end("shellCommand")) - (unsigned int)(__se
 189:SYS/shell/shell.c **** #elif defined(__GNUC__)
 190:SYS/shell/shell.c ****     shell->commandList.base = (ShellCommand *)(&_shell_command_start);
 191:SYS/shell/shell.c ****     shell->commandList.count = ((unsigned int)(&_shell_command_end) - (unsigned int)(&_shell_comman
 192:SYS/shell/shell.c **** #else
 193:SYS/shell/shell.c **** #error not supported compiler, please use command table mode
 194:SYS/shell/shell.c **** #endif
 195:SYS/shell/shell.c **** #else
 196:SYS/shell/shell.c ****     shell->commandList.base = (ShellCommand *)shellCommandList;
 197:SYS/shell/shell.c ****     shell->commandList.count = shellCommandCount;
 198:SYS/shell/shell.c **** #endif
 199:SYS/shell/shell.c **** 
 200:SYS/shell/shell.c ****     shellAdd(shell);
 201:SYS/shell/shell.c **** 
ARM GAS  C:\Users\huav\AppData\Local\Temp\cc1GSGvG.s 			page 5


 202:SYS/shell/shell.c ****     shellSetUser(shell, shellSeekCommand(shell,
 203:SYS/shell/shell.c ****                                          SHELL_DEFAULT_USER,
 204:SYS/shell/shell.c ****                                          shell->commandList.base,
 205:SYS/shell/shell.c ****                                          0));
 206:SYS/shell/shell.c ****     shellWriteCommandLine(shell, 1);
 207:SYS/shell/shell.c **** }
 208:SYS/shell/shell.c **** 
 209:SYS/shell/shell.c **** /**
 210:SYS/shell/shell.c ****  * @brief 添加shell
 211:SYS/shell/shell.c ****  * 
 212:SYS/shell/shell.c ****  * @param shell shell对象
 213:SYS/shell/shell.c ****  */
 214:SYS/shell/shell.c **** static void shellAdd(Shell *shell)
 215:SYS/shell/shell.c **** {
  29              		.loc 1 215 1 view -0
  30              		.cfi_startproc
  31              		@ args = 0, pretend = 0, frame = 0
  32              		@ frame_needed = 0, uses_anonymous_args = 0
  33              		@ link register save eliminated.
 216:SYS/shell/shell.c ****     for (short i = 0; i < SHELL_MAX_NUMBER; i++)
  34              		.loc 1 216 5 view .LVU1
  35              	.LBB2:
  36              		.loc 1 216 10 view .LVU2
  37              		.loc 1 216 16 is_stmt 0 view .LVU3
  38 0000 0023     		movs	r3, #0
  39              	.LVL1:
  40              	.L2:
  41              		.loc 1 216 23 is_stmt 1 discriminator 1 view .LVU4
  42              		.loc 1 216 5 is_stmt 0 discriminator 1 view .LVU5
  43 0002 042B     		cmp	r3, #4
  44 0004 0BDC     		bgt	.L6
 217:SYS/shell/shell.c ****     {
 218:SYS/shell/shell.c ****         if (shellList[i] == NULL)
  45              		.loc 1 218 9 is_stmt 1 view .LVU6
  46              		.loc 1 218 22 is_stmt 0 view .LVU7
  47 0006 1946     		mov	r1, r3
  48 0008 054A     		ldr	r2, .L8
  49 000a 52F82320 		ldr	r2, [r2, r3, lsl #2]
  50              		.loc 1 218 12 view .LVU8
  51 000e 12B1     		cbz	r2, .L7
 216:SYS/shell/shell.c ****     for (short i = 0; i < SHELL_MAX_NUMBER; i++)
  52              		.loc 1 216 45 is_stmt 1 discriminator 2 view .LVU9
 216:SYS/shell/shell.c ****     for (short i = 0; i < SHELL_MAX_NUMBER; i++)
  53              		.loc 1 216 46 is_stmt 0 discriminator 2 view .LVU10
  54 0010 0133     		adds	r3, r3, #1
  55              	.LVL2:
 216:SYS/shell/shell.c ****     for (short i = 0; i < SHELL_MAX_NUMBER; i++)
  56              		.loc 1 216 46 discriminator 2 view .LVU11
  57 0012 1BB2     		sxth	r3, r3
  58              	.LVL3:
 216:SYS/shell/shell.c ****     for (short i = 0; i < SHELL_MAX_NUMBER; i++)
  59              		.loc 1 216 46 discriminator 2 view .LVU12
  60 0014 F5E7     		b	.L2
  61              	.L7:
 219:SYS/shell/shell.c ****         {
 220:SYS/shell/shell.c ****             shellList[i] = shell;
  62              		.loc 1 220 13 is_stmt 1 view .LVU13
ARM GAS  C:\Users\huav\AppData\Local\Temp\cc1GSGvG.s 			page 6


  63              		.loc 1 220 26 is_stmt 0 view .LVU14
  64 0016 024B     		ldr	r3, .L8
  65              	.LVL4:
  66              		.loc 1 220 26 view .LVU15
  67 0018 43F82100 		str	r0, [r3, r1, lsl #2]
 221:SYS/shell/shell.c ****             return;
  68              		.loc 1 221 13 is_stmt 1 view .LVU16
  69 001c 7047     		bx	lr
  70              	.LVL5:
  71              	.L6:
  72              		.loc 1 221 13 is_stmt 0 view .LVU17
  73              	.LBE2:
 222:SYS/shell/shell.c ****         }
 223:SYS/shell/shell.c ****     }
 224:SYS/shell/shell.c **** }
  74              		.loc 1 224 1 view .LVU18
  75 001e 7047     		bx	lr
  76              	.L9:
  77              		.align	2
  78              	.L8:
  79 0020 00000000 		.word	.LANCHOR0
  80              		.cfi_endproc
  81              	.LFE127:
  83              		.section	.text.shellStringCopy,"ax",%progbits
  84              		.align	1
  85              		.syntax unified
  86              		.thumb
  87              		.thumb_func
  88              		.fpu fpv4-sp-d16
  90              	shellStringCopy:
  91              	.LVL6:
  92              	.LFB138:
 225:SYS/shell/shell.c **** 
 226:SYS/shell/shell.c **** /**
 227:SYS/shell/shell.c ****  * @brief 获取当前活动shell
 228:SYS/shell/shell.c ****  * 
 229:SYS/shell/shell.c ****  * @return Shell* 当前活动shell对象
 230:SYS/shell/shell.c ****  */
 231:SYS/shell/shell.c **** Shell *shellGetCurrent(void)
 232:SYS/shell/shell.c **** {
 233:SYS/shell/shell.c ****     for (short i = 0; i < SHELL_MAX_NUMBER; i++)
 234:SYS/shell/shell.c ****     {
 235:SYS/shell/shell.c ****         if (shellList[i] && shellList[i]->status.isActive)
 236:SYS/shell/shell.c ****         {
 237:SYS/shell/shell.c ****             return shellList[i];
 238:SYS/shell/shell.c ****         }
 239:SYS/shell/shell.c ****     }
 240:SYS/shell/shell.c ****     return NULL;
 241:SYS/shell/shell.c **** }
 242:SYS/shell/shell.c **** 
 243:SYS/shell/shell.c **** /**
 244:SYS/shell/shell.c ****  * @brief shell写字符
 245:SYS/shell/shell.c ****  * 
 246:SYS/shell/shell.c ****  * @param shell shell对象
 247:SYS/shell/shell.c ****  * @param data 字符数据
 248:SYS/shell/shell.c ****  */
 249:SYS/shell/shell.c **** void shellWriteByte(Shell *shell, const char data)
ARM GAS  C:\Users\huav\AppData\Local\Temp\cc1GSGvG.s 			page 7


 250:SYS/shell/shell.c **** {
 251:SYS/shell/shell.c ****     shell->write(data);
 252:SYS/shell/shell.c **** }
 253:SYS/shell/shell.c **** 
 254:SYS/shell/shell.c **** /**
 255:SYS/shell/shell.c ****  * @brief shell 写字符串
 256:SYS/shell/shell.c ****  * 
 257:SYS/shell/shell.c ****  * @param shell shell对象
 258:SYS/shell/shell.c ****  * @param string 字符串数据
 259:SYS/shell/shell.c ****  * 
 260:SYS/shell/shell.c ****  * @return unsigned short 写入字符的数量
 261:SYS/shell/shell.c ****  */
 262:SYS/shell/shell.c **** unsigned short shellWriteString(Shell *shell, const char *string)
 263:SYS/shell/shell.c **** {
 264:SYS/shell/shell.c ****     unsigned short count = 0;
 265:SYS/shell/shell.c ****     SHELL_ASSERT(shell->write, return 0);
 266:SYS/shell/shell.c ****     while (*string)
 267:SYS/shell/shell.c ****     {
 268:SYS/shell/shell.c ****         shell->write(*string++);
 269:SYS/shell/shell.c ****         count++;
 270:SYS/shell/shell.c ****     }
 271:SYS/shell/shell.c ****     return count;
 272:SYS/shell/shell.c **** }
 273:SYS/shell/shell.c **** 
 274:SYS/shell/shell.c **** /**
 275:SYS/shell/shell.c ****  * @brief shell 写命令描述字符串
 276:SYS/shell/shell.c ****  * 
 277:SYS/shell/shell.c ****  * @param shell shell对象
 278:SYS/shell/shell.c ****  * @param string 字符串数据
 279:SYS/shell/shell.c ****  * 
 280:SYS/shell/shell.c ****  * @return unsigned short 写入字符的数量
 281:SYS/shell/shell.c ****  */
 282:SYS/shell/shell.c **** static unsigned short shellWriteCommandDesc(Shell *shell, const char *string)
 283:SYS/shell/shell.c **** {
 284:SYS/shell/shell.c ****     unsigned short count = 0;
 285:SYS/shell/shell.c ****     SHELL_ASSERT(shell->write, return 0);
 286:SYS/shell/shell.c ****     while (*string && *string != '\r' && *string != '\n' && count < 36)
 287:SYS/shell/shell.c ****     {
 288:SYS/shell/shell.c ****         shell->write(*string++);
 289:SYS/shell/shell.c ****         count++;
 290:SYS/shell/shell.c ****         if (count >= 36 && *(string + 1))
 291:SYS/shell/shell.c ****         {
 292:SYS/shell/shell.c ****             shell->write('.');
 293:SYS/shell/shell.c ****             shell->write('.');
 294:SYS/shell/shell.c ****             shell->write('.');
 295:SYS/shell/shell.c ****         }
 296:SYS/shell/shell.c ****     }
 297:SYS/shell/shell.c ****     return count;
 298:SYS/shell/shell.c **** }
 299:SYS/shell/shell.c **** 
 300:SYS/shell/shell.c **** /**
 301:SYS/shell/shell.c ****  * @brief shell写命令提示符
 302:SYS/shell/shell.c ****  * 
 303:SYS/shell/shell.c ****  * @param shell shell对象
 304:SYS/shell/shell.c ****  * @param newline 新行
 305:SYS/shell/shell.c ****  * 
 306:SYS/shell/shell.c ****  */
ARM GAS  C:\Users\huav\AppData\Local\Temp\cc1GSGvG.s 			page 8


 307:SYS/shell/shell.c **** static void shellWriteCommandLine(Shell *shell, unsigned char newline)
 308:SYS/shell/shell.c **** {
 309:SYS/shell/shell.c ****     if (shell->status.isChecked)
 310:SYS/shell/shell.c ****     {
 311:SYS/shell/shell.c ****         if (newline)
 312:SYS/shell/shell.c ****         {
 313:SYS/shell/shell.c ****             shellWriteString(shell, "\r\n");
 314:SYS/shell/shell.c ****         }
 315:SYS/shell/shell.c ****         shellWriteString(shell, shell->info.user->data.user.name);
 316:SYS/shell/shell.c ****         shellWriteString(shell, ":");
 317:SYS/shell/shell.c ****         shellWriteString(shell, shell->info.path ? shell->info.path : "/");
 318:SYS/shell/shell.c ****         shellWriteString(shell, "$ ");
 319:SYS/shell/shell.c ****     }
 320:SYS/shell/shell.c ****     else
 321:SYS/shell/shell.c ****     {
 322:SYS/shell/shell.c ****         shellWriteString(shell, shellText[SHELL_TEXT_PASSWORD_HINT]);
 323:SYS/shell/shell.c ****     }
 324:SYS/shell/shell.c **** }
 325:SYS/shell/shell.c **** 
 326:SYS/shell/shell.c **** #if SHELL_PRINT_BUFFER > 0
 327:SYS/shell/shell.c **** /**
 328:SYS/shell/shell.c ****  * @brief shell格式化输出
 329:SYS/shell/shell.c ****  * 
 330:SYS/shell/shell.c ****  * @param shell shell对象
 331:SYS/shell/shell.c ****  * @param fmt 格式化字符串
 332:SYS/shell/shell.c ****  * @param ... 参数
 333:SYS/shell/shell.c ****  */
 334:SYS/shell/shell.c **** void shellPrint(Shell *shell, char *fmt, ...)
 335:SYS/shell/shell.c **** {
 336:SYS/shell/shell.c ****     char buffer[SHELL_PRINT_BUFFER];
 337:SYS/shell/shell.c ****     va_list vargs;
 338:SYS/shell/shell.c **** 
 339:SYS/shell/shell.c ****     SHELL_ASSERT(shell, return );
 340:SYS/shell/shell.c **** 
 341:SYS/shell/shell.c ****     va_start(vargs, fmt);
 342:SYS/shell/shell.c ****     vsnprintf(buffer, SHELL_PRINT_BUFFER - 1, fmt, vargs);
 343:SYS/shell/shell.c ****     va_end(vargs);
 344:SYS/shell/shell.c **** 
 345:SYS/shell/shell.c ****     shellWriteString(shell, buffer);
 346:SYS/shell/shell.c **** }
 347:SYS/shell/shell.c **** #endif
 348:SYS/shell/shell.c **** 
 349:SYS/shell/shell.c **** #if SHELL_SCAN_BUFFER > 0
 350:SYS/shell/shell.c **** /**
 351:SYS/shell/shell.c ****  * @brief shell格式化输入
 352:SYS/shell/shell.c ****  * 
 353:SYS/shell/shell.c ****  * @param shell shell对象
 354:SYS/shell/shell.c ****  * @param fmt 格式化字符串
 355:SYS/shell/shell.c ****  * @param ... 参数
 356:SYS/shell/shell.c ****  */
 357:SYS/shell/shell.c **** void shellScan(Shell *shell, char *fmt, ...)
 358:SYS/shell/shell.c **** {
 359:SYS/shell/shell.c ****     char buffer[SHELL_SCAN_BUFFER];
 360:SYS/shell/shell.c ****     va_list vargs;
 361:SYS/shell/shell.c ****     short index = 0;
 362:SYS/shell/shell.c **** 
 363:SYS/shell/shell.c ****     SHELL_ASSERT(shell, return );
ARM GAS  C:\Users\huav\AppData\Local\Temp\cc1GSGvG.s 			page 9


 364:SYS/shell/shell.c **** 
 365:SYS/shell/shell.c ****     if (shell->read)
 366:SYS/shell/shell.c ****     {
 367:SYS/shell/shell.c ****         do
 368:SYS/shell/shell.c ****         {
 369:SYS/shell/shell.c ****             if (shell->read(&buffer[index]) == 0)
 370:SYS/shell/shell.c ****             {
 371:SYS/shell/shell.c ****                 shell->write(buffer[index]);
 372:SYS/shell/shell.c ****                 index++;
 373:SYS/shell/shell.c ****             }
 374:SYS/shell/shell.c ****         } while (buffer[index - 1] != '\r' && buffer[index - 1] != '\n' && index < SHELL_SCAN_BUFFE
 375:SYS/shell/shell.c ****         shellWriteString(shell, "\r\n");
 376:SYS/shell/shell.c ****         buffer[index] = '\0';
 377:SYS/shell/shell.c ****     }
 378:SYS/shell/shell.c **** 
 379:SYS/shell/shell.c ****     va_start(vargs, fmt);
 380:SYS/shell/shell.c ****     vsscanf(buffer, fmt, vargs);
 381:SYS/shell/shell.c ****     va_end(vargs);
 382:SYS/shell/shell.c **** }
 383:SYS/shell/shell.c **** #endif
 384:SYS/shell/shell.c **** 
 385:SYS/shell/shell.c **** /**
 386:SYS/shell/shell.c ****  * @brief shell 检查命令权限
 387:SYS/shell/shell.c ****  * 
 388:SYS/shell/shell.c ****  * @param shell shell对象
 389:SYS/shell/shell.c ****  * @param command ShellCommand
 390:SYS/shell/shell.c ****  * 
 391:SYS/shell/shell.c ****  * @return signed char 0 当前用户具有该命令权限
 392:SYS/shell/shell.c ****  * @return signec char -1 当前用户不具有该命令权限
 393:SYS/shell/shell.c ****  */
 394:SYS/shell/shell.c **** signed char shellCheckPermission(Shell *shell, ShellCommand *command)
 395:SYS/shell/shell.c **** {
 396:SYS/shell/shell.c ****     return ((!command->attr.attrs.permission || command->attr.attrs.type == SHELL_TYPE_USER || (com
 397:SYS/shell/shell.c ****                ? 0
 398:SYS/shell/shell.c ****                : -1;
 399:SYS/shell/shell.c **** }
 400:SYS/shell/shell.c **** 
 401:SYS/shell/shell.c **** /**
 402:SYS/shell/shell.c ****  * @brief int转16进制字符串
 403:SYS/shell/shell.c ****  * 
 404:SYS/shell/shell.c ****  * @param value 数值
 405:SYS/shell/shell.c ****  * @param buffer 缓冲
 406:SYS/shell/shell.c ****  * 
 407:SYS/shell/shell.c ****  * @return signed char 转换后有效数据长度
 408:SYS/shell/shell.c ****  */
 409:SYS/shell/shell.c **** signed char shellToHex(unsigned int value, char *buffer)
 410:SYS/shell/shell.c **** {
 411:SYS/shell/shell.c ****     char byte;
 412:SYS/shell/shell.c ****     unsigned char i = 8;
 413:SYS/shell/shell.c ****     buffer[8] = 0;
 414:SYS/shell/shell.c ****     while (value)
 415:SYS/shell/shell.c ****     {
 416:SYS/shell/shell.c ****         byte = value & 0x0000000F;
 417:SYS/shell/shell.c ****         buffer[--i] = (byte > 9) ? (byte + 87) : (byte + 48);
 418:SYS/shell/shell.c ****         value >>= 4;
 419:SYS/shell/shell.c ****     }
 420:SYS/shell/shell.c ****     return 8 - i;
ARM GAS  C:\Users\huav\AppData\Local\Temp\cc1GSGvG.s 			page 10


 421:SYS/shell/shell.c **** }
 422:SYS/shell/shell.c **** 
 423:SYS/shell/shell.c **** /**
 424:SYS/shell/shell.c **** * @brief int转10进制字符串
 425:SYS/shell/shell.c ****  * 
 426:SYS/shell/shell.c ****  * @param value 数值
 427:SYS/shell/shell.c ****  * @param buffer 缓冲
 428:SYS/shell/shell.c ****  * 
 429:SYS/shell/shell.c ****  * @return signed char 转换后有效数据长度
 430:SYS/shell/shell.c ****  */
 431:SYS/shell/shell.c **** signed char shellToDec(int value, char *buffer)
 432:SYS/shell/shell.c **** {
 433:SYS/shell/shell.c ****     unsigned char i = 11;
 434:SYS/shell/shell.c ****     int v = value;
 435:SYS/shell/shell.c ****     if (value < 0)
 436:SYS/shell/shell.c ****     {
 437:SYS/shell/shell.c ****         v = -value;
 438:SYS/shell/shell.c ****     }
 439:SYS/shell/shell.c ****     buffer[11] = 0;
 440:SYS/shell/shell.c ****     while (v)
 441:SYS/shell/shell.c ****     {
 442:SYS/shell/shell.c ****         buffer[--i] = v % 10 + 48;
 443:SYS/shell/shell.c ****         v /= 10;
 444:SYS/shell/shell.c ****     }
 445:SYS/shell/shell.c ****     if (value < 0)
 446:SYS/shell/shell.c ****     {
 447:SYS/shell/shell.c ****         buffer[--i] = '-';
 448:SYS/shell/shell.c ****     }
 449:SYS/shell/shell.c ****     if (value == 0)
 450:SYS/shell/shell.c ****     {
 451:SYS/shell/shell.c ****         buffer[--i] = '0';
 452:SYS/shell/shell.c ****     }
 453:SYS/shell/shell.c ****     return 11 - i;
 454:SYS/shell/shell.c **** }
 455:SYS/shell/shell.c **** 
 456:SYS/shell/shell.c **** /**
 457:SYS/shell/shell.c ****  * @brief shell字符串复制
 458:SYS/shell/shell.c ****  * 
 459:SYS/shell/shell.c ****  * @param dest 目标字符串
 460:SYS/shell/shell.c ****  * @param src 源字符串
 461:SYS/shell/shell.c ****  * @return unsigned short 字符串长度
 462:SYS/shell/shell.c ****  */
 463:SYS/shell/shell.c **** static unsigned short shellStringCopy(char *dest, char *src)
 464:SYS/shell/shell.c **** {
  93              		.loc 1 464 1 is_stmt 1 view -0
  94              		.cfi_startproc
  95              		@ args = 0, pretend = 0, frame = 0
  96              		@ frame_needed = 0, uses_anonymous_args = 0
  97              		@ link register save eliminated.
  98              		.loc 1 464 1 is_stmt 0 view .LVU20
  99 0000 0246     		mov	r2, r0
 465:SYS/shell/shell.c ****     unsigned short count = 0;
 100              		.loc 1 465 5 is_stmt 1 view .LVU21
 101              	.LVL7:
 466:SYS/shell/shell.c ****     while (*(src + count))
 102              		.loc 1 466 5 view .LVU22
 465:SYS/shell/shell.c ****     unsigned short count = 0;
ARM GAS  C:\Users\huav\AppData\Local\Temp\cc1GSGvG.s 			page 11


 103              		.loc 1 465 20 is_stmt 0 view .LVU23
 104 0002 0020     		movs	r0, #0
 105              	.LVL8:
 106              		.loc 1 466 11 view .LVU24
 107 0004 02E0     		b	.L11
 108              	.LVL9:
 109              	.L12:
 467:SYS/shell/shell.c ****     {
 468:SYS/shell/shell.c ****         *(dest + count) = *(src + count);
 110              		.loc 1 468 9 is_stmt 1 view .LVU25
 111              		.loc 1 468 25 is_stmt 0 view .LVU26
 112 0006 1354     		strb	r3, [r2, r0]
 469:SYS/shell/shell.c ****         count++;
 113              		.loc 1 469 9 is_stmt 1 view .LVU27
 114              		.loc 1 469 14 is_stmt 0 view .LVU28
 115 0008 0130     		adds	r0, r0, #1
 116              	.LVL10:
 117              		.loc 1 469 14 view .LVU29
 118 000a 80B2     		uxth	r0, r0
 119              	.LVL11:
 120              	.L11:
 466:SYS/shell/shell.c ****     while (*(src + count))
 121              		.loc 1 466 11 is_stmt 1 view .LVU30
 466:SYS/shell/shell.c ****     while (*(src + count))
 122              		.loc 1 466 12 is_stmt 0 view .LVU31
 123 000c 0B5C     		ldrb	r3, [r1, r0]	@ zero_extendqisi2
 466:SYS/shell/shell.c ****     while (*(src + count))
 124              		.loc 1 466 11 view .LVU32
 125 000e 002B     		cmp	r3, #0
 126 0010 F9D1     		bne	.L12
 470:SYS/shell/shell.c ****     }
 471:SYS/shell/shell.c ****     *(dest + count) = 0;
 127              		.loc 1 471 5 is_stmt 1 view .LVU33
 128              		.loc 1 471 21 is_stmt 0 view .LVU34
 129 0012 1354     		strb	r3, [r2, r0]
 472:SYS/shell/shell.c ****     return count;
 130              		.loc 1 472 5 is_stmt 1 view .LVU35
 473:SYS/shell/shell.c **** }
 131              		.loc 1 473 1 is_stmt 0 view .LVU36
 132 0014 7047     		bx	lr
 133              		.cfi_endproc
 134              	.LFE138:
 136              		.section	.text.shellStringCompare,"ax",%progbits
 137              		.align	1
 138              		.syntax unified
 139              		.thumb
 140              		.thumb_func
 141              		.fpu fpv4-sp-d16
 143              	shellStringCompare:
 144              	.LVL12:
 145              	.LFB139:
 474:SYS/shell/shell.c **** 
 475:SYS/shell/shell.c **** /**
 476:SYS/shell/shell.c ****  * @brief shell字符串比较
 477:SYS/shell/shell.c ****  * 
 478:SYS/shell/shell.c ****  * @param dest 目标字符串
 479:SYS/shell/shell.c ****  * @param src 源字符串
ARM GAS  C:\Users\huav\AppData\Local\Temp\cc1GSGvG.s 			page 12


 480:SYS/shell/shell.c ****  * @return unsigned short 匹配长度
 481:SYS/shell/shell.c ****  */
 482:SYS/shell/shell.c **** static unsigned short shellStringCompare(char *dest, char *src)
 483:SYS/shell/shell.c **** {
 146              		.loc 1 483 1 is_stmt 1 view -0
 147              		.cfi_startproc
 148              		@ args = 0, pretend = 0, frame = 0
 149              		@ frame_needed = 0, uses_anonymous_args = 0
 150              		@ link register save eliminated.
 151              		.loc 1 483 1 is_stmt 0 view .LVU38
 152 0000 8446     		mov	ip, r0
 484:SYS/shell/shell.c ****     unsigned short match = 0;
 153              		.loc 1 484 5 is_stmt 1 view .LVU39
 154              	.LVL13:
 485:SYS/shell/shell.c ****     unsigned short i = 0;
 155              		.loc 1 485 5 view .LVU40
 486:SYS/shell/shell.c **** 
 487:SYS/shell/shell.c ****     while (*(dest + i) && *(src + i))
 156              		.loc 1 487 5 view .LVU41
 485:SYS/shell/shell.c ****     unsigned short i = 0;
 157              		.loc 1 485 20 is_stmt 0 view .LVU42
 158 0002 0023     		movs	r3, #0
 484:SYS/shell/shell.c ****     unsigned short i = 0;
 159              		.loc 1 484 20 view .LVU43
 160 0004 1846     		mov	r0, r3
 161              	.LVL14:
 162              		.loc 1 487 11 is_stmt 1 view .LVU44
 163              		.loc 1 487 12 is_stmt 0 view .LVU45
 164 0006 1CF80320 		ldrb	r2, [ip, r3]	@ zero_extendqisi2
 165              		.loc 1 487 11 view .LVU46
 166 000a 7AB1     		cbz	r2, .L22
 483:SYS/shell/shell.c ****     unsigned short match = 0;
 167              		.loc 1 483 1 view .LVU47
 168 000c 10B4     		push	{r4}
 169              	.LCFI0:
 170              		.cfi_def_cfa_offset 4
 171              		.cfi_offset 4, -4
 172              	.LVL15:
 173              	.L19:
 174              		.loc 1 487 27 discriminator 1 view .LVU48
 175 000e CC5C     		ldrb	r4, [r1, r3]	@ zero_extendqisi2
 176              		.loc 1 487 24 discriminator 1 view .LVU49
 177 0010 4CB1     		cbz	r4, .L15
 488:SYS/shell/shell.c ****     {
 489:SYS/shell/shell.c ****         if (*(dest + i) != *(src + i))
 178              		.loc 1 489 9 is_stmt 1 view .LVU50
 179              		.loc 1 489 12 is_stmt 0 view .LVU51
 180 0012 A242     		cmp	r2, r4
 181 0014 07D1     		bne	.L15
 490:SYS/shell/shell.c ****         {
 491:SYS/shell/shell.c ****             break;
 492:SYS/shell/shell.c ****         }
 493:SYS/shell/shell.c ****         match++;
 182              		.loc 1 493 9 is_stmt 1 view .LVU52
 183              		.loc 1 493 14 is_stmt 0 view .LVU53
 184 0016 0130     		adds	r0, r0, #1
 185 0018 80B2     		uxth	r0, r0
ARM GAS  C:\Users\huav\AppData\Local\Temp\cc1GSGvG.s 			page 13


 186              	.LVL16:
 494:SYS/shell/shell.c ****         i++;
 187              		.loc 1 494 9 is_stmt 1 view .LVU54
 188              		.loc 1 494 10 is_stmt 0 view .LVU55
 189 001a 0133     		adds	r3, r3, #1
 190              	.LVL17:
 191              		.loc 1 494 10 view .LVU56
 192 001c 9BB2     		uxth	r3, r3
 193              	.LVL18:
 487:SYS/shell/shell.c ****     {
 194              		.loc 1 487 11 is_stmt 1 view .LVU57
 487:SYS/shell/shell.c ****     {
 195              		.loc 1 487 12 is_stmt 0 view .LVU58
 196 001e 1CF80320 		ldrb	r2, [ip, r3]	@ zero_extendqisi2
 487:SYS/shell/shell.c ****     {
 197              		.loc 1 487 11 view .LVU59
 198 0022 002A     		cmp	r2, #0
 199 0024 F3D1     		bne	.L19
 200              	.LVL19:
 201              	.L15:
 495:SYS/shell/shell.c ****     }
 496:SYS/shell/shell.c ****     return match;
 202              		.loc 1 496 5 is_stmt 1 view .LVU60
 497:SYS/shell/shell.c **** }
 203              		.loc 1 497 1 is_stmt 0 view .LVU61
 204 0026 5DF8044B 		ldr	r4, [sp], #4
 205              	.LCFI1:
 206              		.cfi_restore 4
 207              		.cfi_def_cfa_offset 0
 208 002a 7047     		bx	lr
 209              	.LVL20:
 210              	.L22:
 496:SYS/shell/shell.c **** }
 211              		.loc 1 496 5 is_stmt 1 view .LVU62
 212              		.loc 1 497 1 is_stmt 0 view .LVU63
 213 002c 7047     		bx	lr
 214              		.cfi_endproc
 215              	.LFE139:
 217              		.section	.text.shellGetCommandDesc,"ax",%progbits
 218              		.align	1
 219              		.syntax unified
 220              		.thumb
 221              		.thumb_func
 222              		.fpu fpv4-sp-d16
 224              	shellGetCommandDesc:
 225              	.LVL21:
 226              	.LFB141:
 498:SYS/shell/shell.c **** 
 499:SYS/shell/shell.c **** /**
 500:SYS/shell/shell.c ****  * @brief shell获取命令名
 501:SYS/shell/shell.c ****  * 
 502:SYS/shell/shell.c ****  * @param command 命令
 503:SYS/shell/shell.c ****  * @return const char* 命令名
 504:SYS/shell/shell.c ****  */
 505:SYS/shell/shell.c **** static const char *shellGetCommandName(ShellCommand *command)
 506:SYS/shell/shell.c **** {
 507:SYS/shell/shell.c ****     static char buffer[9];
ARM GAS  C:\Users\huav\AppData\Local\Temp\cc1GSGvG.s 			page 14


 508:SYS/shell/shell.c ****     for (unsigned char i = 0; i < 9; i++)
 509:SYS/shell/shell.c ****     {
 510:SYS/shell/shell.c ****         buffer[i] = '0';
 511:SYS/shell/shell.c ****     }
 512:SYS/shell/shell.c ****     if (command->attr.attrs.type <= SHELL_TYPE_CMD_FUNC)
 513:SYS/shell/shell.c ****     {
 514:SYS/shell/shell.c ****         return command->data.cmd.name;
 515:SYS/shell/shell.c ****     }
 516:SYS/shell/shell.c ****     else if (command->attr.attrs.type <= SHELL_TYPE_VAR_NODE)
 517:SYS/shell/shell.c ****     {
 518:SYS/shell/shell.c ****         return command->data.var.name;
 519:SYS/shell/shell.c ****     }
 520:SYS/shell/shell.c ****     else if (command->attr.attrs.type <= SHELL_TYPE_USER)
 521:SYS/shell/shell.c ****     {
 522:SYS/shell/shell.c ****         return command->data.user.name;
 523:SYS/shell/shell.c ****     }
 524:SYS/shell/shell.c ****     else
 525:SYS/shell/shell.c ****     {
 526:SYS/shell/shell.c ****         shellToHex(command->data.key.value, buffer);
 527:SYS/shell/shell.c ****         return buffer;
 528:SYS/shell/shell.c ****     }
 529:SYS/shell/shell.c **** }
 530:SYS/shell/shell.c **** 
 531:SYS/shell/shell.c **** /**
 532:SYS/shell/shell.c ****  * @brief shell获取命令描述
 533:SYS/shell/shell.c ****  * 
 534:SYS/shell/shell.c ****  * @param command 命令
 535:SYS/shell/shell.c ****  * @return const char* 命令描述
 536:SYS/shell/shell.c ****  */
 537:SYS/shell/shell.c **** static const char *shellGetCommandDesc(ShellCommand *command)
 538:SYS/shell/shell.c **** {
 227              		.loc 1 538 1 is_stmt 1 view -0
 228              		.cfi_startproc
 229              		@ args = 0, pretend = 0, frame = 0
 230              		@ frame_needed = 0, uses_anonymous_args = 0
 231              		@ link register save eliminated.
 539:SYS/shell/shell.c ****     if (command->attr.attrs.type <= SHELL_TYPE_CMD_FUNC)
 232              		.loc 1 539 5 view .LVU65
 233              		.loc 1 539 28 is_stmt 0 view .LVU66
 234 0000 4378     		ldrb	r3, [r0, #1]	@ zero_extendqisi2
 235 0002 03F00F03 		and	r3, r3, #15
 236              		.loc 1 539 8 view .LVU67
 237 0006 012B     		cmp	r3, #1
 238 0008 05D9     		bls	.L28
 540:SYS/shell/shell.c ****     {
 541:SYS/shell/shell.c ****         return command->data.cmd.desc;
 542:SYS/shell/shell.c ****     }
 543:SYS/shell/shell.c ****     else if (command->attr.attrs.type <= SHELL_TYPE_VAR_NODE)
 239              		.loc 1 543 10 is_stmt 1 view .LVU68
 240              		.loc 1 543 13 is_stmt 0 view .LVU69
 241 000a 072B     		cmp	r3, #7
 242 000c 05D9     		bls	.L29
 544:SYS/shell/shell.c ****     {
 545:SYS/shell/shell.c ****         return command->data.var.desc;
 546:SYS/shell/shell.c ****     }
 547:SYS/shell/shell.c ****     else if (command->attr.attrs.type <= SHELL_TYPE_USER)
 243              		.loc 1 547 10 is_stmt 1 view .LVU70
ARM GAS  C:\Users\huav\AppData\Local\Temp\cc1GSGvG.s 			page 15


 244              		.loc 1 547 13 is_stmt 0 view .LVU71
 245 000e 082B     		cmp	r3, #8
 246 0010 05D8     		bhi	.L27
 548:SYS/shell/shell.c ****     {
 549:SYS/shell/shell.c ****         return command->data.user.desc;
 247              		.loc 1 549 9 is_stmt 1 view .LVU72
 248              		.loc 1 549 34 is_stmt 0 view .LVU73
 249 0012 C068     		ldr	r0, [r0, #12]
 250              	.LVL22:
 251              		.loc 1 549 34 view .LVU74
 252 0014 7047     		bx	lr
 253              	.LVL23:
 254              	.L28:
 541:SYS/shell/shell.c ****     }
 255              		.loc 1 541 9 is_stmt 1 view .LVU75
 541:SYS/shell/shell.c ****     }
 256              		.loc 1 541 33 is_stmt 0 view .LVU76
 257 0016 C068     		ldr	r0, [r0, #12]
 258              	.LVL24:
 541:SYS/shell/shell.c ****     }
 259              		.loc 1 541 33 view .LVU77
 260 0018 7047     		bx	lr
 261              	.LVL25:
 262              	.L29:
 545:SYS/shell/shell.c ****     }
 263              		.loc 1 545 9 is_stmt 1 view .LVU78
 545:SYS/shell/shell.c ****     }
 264              		.loc 1 545 33 is_stmt 0 view .LVU79
 265 001a C068     		ldr	r0, [r0, #12]
 266              	.LVL26:
 545:SYS/shell/shell.c ****     }
 267              		.loc 1 545 33 view .LVU80
 268 001c 7047     		bx	lr
 269              	.LVL27:
 270              	.L27:
 550:SYS/shell/shell.c ****     }
 551:SYS/shell/shell.c ****     else
 552:SYS/shell/shell.c ****     {
 553:SYS/shell/shell.c ****         return command->data.key.desc;
 271              		.loc 1 553 9 is_stmt 1 view .LVU81
 272              		.loc 1 553 33 is_stmt 0 view .LVU82
 273 001e C068     		ldr	r0, [r0, #12]
 274              	.LVL28:
 554:SYS/shell/shell.c ****     }
 555:SYS/shell/shell.c **** }
 275              		.loc 1 555 1 view .LVU83
 276 0020 7047     		bx	lr
 277              		.cfi_endproc
 278              	.LFE141:
 280              		.section	.text.shellParserParam,"ax",%progbits
 281              		.align	1
 282              		.syntax unified
 283              		.thumb
 284              		.thumb_func
 285              		.fpu fpv4-sp-d16
 287              	shellParserParam:
 288              	.LVL29:
ARM GAS  C:\Users\huav\AppData\Local\Temp\cc1GSGvG.s 			page 16


 289              	.LFB152:
 556:SYS/shell/shell.c **** 
 557:SYS/shell/shell.c **** /**
 558:SYS/shell/shell.c ****  * @brief shell 列出命令条目
 559:SYS/shell/shell.c ****  * 
 560:SYS/shell/shell.c ****  * @param shell shell对象
 561:SYS/shell/shell.c ****  * @param item 命令条目
 562:SYS/shell/shell.c ****  */
 563:SYS/shell/shell.c **** void shellListItem(Shell *shell, ShellCommand *item)
 564:SYS/shell/shell.c **** {
 565:SYS/shell/shell.c ****     short spaceLength;
 566:SYS/shell/shell.c **** 
 567:SYS/shell/shell.c ****     spaceLength = 22 - shellWriteString(shell, shellGetCommandName(item));
 568:SYS/shell/shell.c ****     spaceLength = (spaceLength > 0) ? spaceLength : 4;
 569:SYS/shell/shell.c ****     do
 570:SYS/shell/shell.c ****     {
 571:SYS/shell/shell.c ****         shellWriteByte(shell, '-');
 572:SYS/shell/shell.c ****     } while (--spaceLength);
 573:SYS/shell/shell.c ****     if (item->attr.attrs.type <= SHELL_TYPE_CMD_FUNC)
 574:SYS/shell/shell.c ****     {
 575:SYS/shell/shell.c ****         shellWriteString(shell, shellText[SHELL_TEXT_TYPE_CMD]);
 576:SYS/shell/shell.c ****     }
 577:SYS/shell/shell.c ****     else if (item->attr.attrs.type <= SHELL_TYPE_VAR_NODE)
 578:SYS/shell/shell.c ****     {
 579:SYS/shell/shell.c ****         shellWriteString(shell, shellText[SHELL_TEXT_TYPE_VAR]);
 580:SYS/shell/shell.c ****     }
 581:SYS/shell/shell.c ****     else if (item->attr.attrs.type <= SHELL_TYPE_USER)
 582:SYS/shell/shell.c ****     {
 583:SYS/shell/shell.c ****         shellWriteString(shell, shellText[SHELL_TEXT_TYPE_USER]);
 584:SYS/shell/shell.c ****     }
 585:SYS/shell/shell.c ****     else if (item->attr.attrs.type <= SHELL_TYPE_KEY)
 586:SYS/shell/shell.c ****     {
 587:SYS/shell/shell.c ****         shellWriteString(shell, shellText[SHELL_TEXT_TYPE_KEY]);
 588:SYS/shell/shell.c ****     }
 589:SYS/shell/shell.c ****     else
 590:SYS/shell/shell.c ****     {
 591:SYS/shell/shell.c ****         shellWriteString(shell, shellText[SHELL_TEXT_TYPE_NONE]);
 592:SYS/shell/shell.c ****     }
 593:SYS/shell/shell.c **** #if SHELL_HELP_SHOW_PERMISSION == 1
 594:SYS/shell/shell.c ****     shellWriteString(shell, " ");
 595:SYS/shell/shell.c ****     for (signed char i = 7; i >= 0; i--)
 596:SYS/shell/shell.c ****     {
 597:SYS/shell/shell.c ****         shellWriteByte(shell, item->attr.attrs.permission & (1 << i) ? 'x' : '-');
 598:SYS/shell/shell.c ****     }
 599:SYS/shell/shell.c **** #endif
 600:SYS/shell/shell.c ****     // shellWriteString(shell, " ");
 601:SYS/shell/shell.c ****     // shellWriteCommandDesc(shell, shellGetCommandDesc(item));
 602:SYS/shell/shell.c ****     // shellWriteString(shell, "\r\n");
 603:SYS/shell/shell.c **** }
 604:SYS/shell/shell.c **** 
 605:SYS/shell/shell.c **** /**
 606:SYS/shell/shell.c ****  * @brief shell列出可执行命令
 607:SYS/shell/shell.c ****  * 
 608:SYS/shell/shell.c ****  * @param shell shell对象
 609:SYS/shell/shell.c ****  */
 610:SYS/shell/shell.c **** void shellListCommand(Shell *shell)
 611:SYS/shell/shell.c **** {
ARM GAS  C:\Users\huav\AppData\Local\Temp\cc1GSGvG.s 			page 17


 612:SYS/shell/shell.c ****     ShellCommand *base = (ShellCommand *)shell->commandList.base;
 613:SYS/shell/shell.c ****     shellWriteString(shell, shellText[SHELL_TEXT_CMD_LIST]);
 614:SYS/shell/shell.c ****     for (short i = 0; i < shell->commandList.count; i++)
 615:SYS/shell/shell.c ****     {
 616:SYS/shell/shell.c ****         if (base[i].attr.attrs.type <= SHELL_TYPE_CMD_FUNC && shellCheckPermission(shell, &base[i])
 617:SYS/shell/shell.c ****         {
 618:SYS/shell/shell.c ****             shellListItem(shell, &base[i]);
 619:SYS/shell/shell.c ****         }
 620:SYS/shell/shell.c ****     }
 621:SYS/shell/shell.c **** }
 622:SYS/shell/shell.c **** 
 623:SYS/shell/shell.c **** /**
 624:SYS/shell/shell.c ****  * @brief shell列出变量
 625:SYS/shell/shell.c ****  * 
 626:SYS/shell/shell.c ****  * @param shell shell对象
 627:SYS/shell/shell.c ****  */
 628:SYS/shell/shell.c **** void shellListVar(Shell *shell)
 629:SYS/shell/shell.c **** {
 630:SYS/shell/shell.c ****     ShellCommand *base = (ShellCommand *)shell->commandList.base;
 631:SYS/shell/shell.c ****     shellWriteString(shell, shellText[SHELL_TEXT_VAR_LIST]);
 632:SYS/shell/shell.c ****     for (short i = 0; i < shell->commandList.count; i++)
 633:SYS/shell/shell.c ****     {
 634:SYS/shell/shell.c ****         if (base[i].attr.attrs.type > SHELL_TYPE_CMD_FUNC && base[i].attr.attrs.type <= SHELL_TYPE_
 635:SYS/shell/shell.c ****         {
 636:SYS/shell/shell.c ****             shellListItem(shell, &base[i]);
 637:SYS/shell/shell.c ****         }
 638:SYS/shell/shell.c ****     }
 639:SYS/shell/shell.c **** }
 640:SYS/shell/shell.c **** 
 641:SYS/shell/shell.c **** /**
 642:SYS/shell/shell.c ****  * @brief shell列出用户
 643:SYS/shell/shell.c ****  * 
 644:SYS/shell/shell.c ****  * @param shell shell对象
 645:SYS/shell/shell.c ****  */
 646:SYS/shell/shell.c **** void shellListUser(Shell *shell)
 647:SYS/shell/shell.c **** {
 648:SYS/shell/shell.c ****     ShellCommand *base = (ShellCommand *)shell->commandList.base;
 649:SYS/shell/shell.c ****     shellWriteString(shell, shellText[SHELL_TEXT_USER_LIST]);
 650:SYS/shell/shell.c ****     for (short i = 0; i < shell->commandList.count; i++)
 651:SYS/shell/shell.c ****     {
 652:SYS/shell/shell.c ****         if (base[i].attr.attrs.type > SHELL_TYPE_VAR_NODE && base[i].attr.attrs.type <= SHELL_TYPE_
 653:SYS/shell/shell.c ****         {
 654:SYS/shell/shell.c ****             shellListItem(shell, &base[i]);
 655:SYS/shell/shell.c ****         }
 656:SYS/shell/shell.c ****     }
 657:SYS/shell/shell.c **** }
 658:SYS/shell/shell.c **** 
 659:SYS/shell/shell.c **** /**
 660:SYS/shell/shell.c ****  * @brief shell列出按键
 661:SYS/shell/shell.c ****  * 
 662:SYS/shell/shell.c ****  * @param shell shell对象
 663:SYS/shell/shell.c ****  */
 664:SYS/shell/shell.c **** void shellListKey(Shell *shell)
 665:SYS/shell/shell.c **** {
 666:SYS/shell/shell.c ****     ShellCommand *base = (ShellCommand *)shell->commandList.base;
 667:SYS/shell/shell.c ****     shellWriteString(shell, shellText[SHELL_TEXT_KEY_LIST]);
 668:SYS/shell/shell.c ****     for (short i = 0; i < shell->commandList.count; i++)
ARM GAS  C:\Users\huav\AppData\Local\Temp\cc1GSGvG.s 			page 18


 669:SYS/shell/shell.c ****     {
 670:SYS/shell/shell.c ****         if (base[i].attr.attrs.type > SHELL_TYPE_USER && base[i].attr.attrs.type <= SHELL_TYPE_KEY 
 671:SYS/shell/shell.c ****         {
 672:SYS/shell/shell.c ****             shellListItem(shell, &base[i]);
 673:SYS/shell/shell.c ****         }
 674:SYS/shell/shell.c ****     }
 675:SYS/shell/shell.c **** }
 676:SYS/shell/shell.c **** 
 677:SYS/shell/shell.c **** /**
 678:SYS/shell/shell.c ****  * @brief shell列出所有命令
 679:SYS/shell/shell.c ****  * 
 680:SYS/shell/shell.c ****  * @param shell shell对象
 681:SYS/shell/shell.c ****  */
 682:SYS/shell/shell.c **** void shellListAll(Shell *shell)
 683:SYS/shell/shell.c **** {
 684:SYS/shell/shell.c **** #if SHELL_HELP_LIST_USER == 1
 685:SYS/shell/shell.c ****     shellListUser(shell);
 686:SYS/shell/shell.c **** #endif
 687:SYS/shell/shell.c ****     shellListCommand(shell);
 688:SYS/shell/shell.c **** #if SHELL_HELP_LIST_VAR == 1
 689:SYS/shell/shell.c ****     shellListVar(shell);
 690:SYS/shell/shell.c **** #endif
 691:SYS/shell/shell.c **** #if SHELL_HELP_LIST_KEY == 1
 692:SYS/shell/shell.c ****     shellListKey(shell);
 693:SYS/shell/shell.c **** #endif
 694:SYS/shell/shell.c **** }
 695:SYS/shell/shell.c **** 
 696:SYS/shell/shell.c **** /**
 697:SYS/shell/shell.c ****  * @brief shell删除命令行数据
 698:SYS/shell/shell.c ****  * 
 699:SYS/shell/shell.c ****  * @param shell shell对象
 700:SYS/shell/shell.c ****  * @param length 删除长度
 701:SYS/shell/shell.c ****  */
 702:SYS/shell/shell.c **** void shellDeleteCommandLine(Shell *shell, unsigned char length)
 703:SYS/shell/shell.c **** {
 704:SYS/shell/shell.c ****     while (length--)
 705:SYS/shell/shell.c ****     {
 706:SYS/shell/shell.c ****         shellWriteString(shell, "\b \b");
 707:SYS/shell/shell.c ****     }
 708:SYS/shell/shell.c **** }
 709:SYS/shell/shell.c **** 
 710:SYS/shell/shell.c **** /**
 711:SYS/shell/shell.c ****  * @brief shell 清空命令行输入
 712:SYS/shell/shell.c ****  * 
 713:SYS/shell/shell.c ****  * @param shell shell对象
 714:SYS/shell/shell.c ****  */
 715:SYS/shell/shell.c **** void shellClearCommandLine(Shell *shell)
 716:SYS/shell/shell.c **** {
 717:SYS/shell/shell.c ****     for (short i = shell->parser.length - shell->parser.cursor; i > 0; i--)
 718:SYS/shell/shell.c ****     {
 719:SYS/shell/shell.c ****         shellWriteByte(shell, ' ');
 720:SYS/shell/shell.c ****     }
 721:SYS/shell/shell.c ****     shellDeleteCommandLine(shell, shell->parser.length);
 722:SYS/shell/shell.c **** }
 723:SYS/shell/shell.c **** 
 724:SYS/shell/shell.c **** /**
 725:SYS/shell/shell.c ****  * @brief shell插入一个字符到光标位置
ARM GAS  C:\Users\huav\AppData\Local\Temp\cc1GSGvG.s 			page 19


 726:SYS/shell/shell.c ****  * 
 727:SYS/shell/shell.c ****  * @param shell shell对象
 728:SYS/shell/shell.c ****  * @param data 字符数据
 729:SYS/shell/shell.c ****  */
 730:SYS/shell/shell.c **** void shellInsertByte(Shell *shell, char data)
 731:SYS/shell/shell.c **** {
 732:SYS/shell/shell.c ****     /* 判断输入数据是否过长 */
 733:SYS/shell/shell.c ****     if (shell->parser.length >= shell->parser.bufferSize - 1)
 734:SYS/shell/shell.c ****     {
 735:SYS/shell/shell.c ****         shellWriteString(shell, shellText[SHELL_TEXT_CMD_TOO_LONG]);
 736:SYS/shell/shell.c ****         shellWriteCommandLine(shell, 1);
 737:SYS/shell/shell.c ****         shellWriteString(shell, shell->parser.buffer);
 738:SYS/shell/shell.c ****         return;
 739:SYS/shell/shell.c ****     }
 740:SYS/shell/shell.c **** 
 741:SYS/shell/shell.c ****     /* 插入数据 */
 742:SYS/shell/shell.c ****     if (shell->parser.cursor == shell->parser.length)
 743:SYS/shell/shell.c ****     {
 744:SYS/shell/shell.c ****         shell->parser.buffer[shell->parser.length++] = data;
 745:SYS/shell/shell.c ****         shell->parser.buffer[shell->parser.length] = 0;
 746:SYS/shell/shell.c ****         shell->parser.cursor++;
 747:SYS/shell/shell.c ****         shellWriteByte(shell, data);
 748:SYS/shell/shell.c ****     }
 749:SYS/shell/shell.c ****     else if (shell->parser.cursor < shell->parser.length)
 750:SYS/shell/shell.c ****     {
 751:SYS/shell/shell.c ****         for (short i = shell->parser.length - shell->parser.cursor; i > 0; i--)
 752:SYS/shell/shell.c ****         {
 753:SYS/shell/shell.c ****             shell->parser.buffer[shell->parser.cursor + i] =
 754:SYS/shell/shell.c ****                 shell->parser.buffer[shell->parser.cursor + i - 1];
 755:SYS/shell/shell.c ****         }
 756:SYS/shell/shell.c ****         shell->parser.buffer[shell->parser.cursor++] = data;
 757:SYS/shell/shell.c ****         shell->parser.buffer[++shell->parser.length] = 0;
 758:SYS/shell/shell.c ****         for (short i = shell->parser.cursor - 1; i < shell->parser.length; i++)
 759:SYS/shell/shell.c ****         {
 760:SYS/shell/shell.c ****             shellWriteByte(shell, shell->parser.buffer[i]);
 761:SYS/shell/shell.c ****         }
 762:SYS/shell/shell.c ****         for (short i = shell->parser.length - shell->parser.cursor; i > 0; i--)
 763:SYS/shell/shell.c ****         {
 764:SYS/shell/shell.c ****             shellWriteByte(shell, '\b');
 765:SYS/shell/shell.c ****         }
 766:SYS/shell/shell.c ****     }
 767:SYS/shell/shell.c **** }
 768:SYS/shell/shell.c **** 
 769:SYS/shell/shell.c **** /**
 770:SYS/shell/shell.c ****  * @brief shell 删除字节
 771:SYS/shell/shell.c ****  * 
 772:SYS/shell/shell.c ****  * @param shell shell对象
 773:SYS/shell/shell.c ****  * @param direction 删除方向 {@code 1}删除光标前字符 {@code -1}删除光标处字符
 774:SYS/shell/shell.c ****  */
 775:SYS/shell/shell.c **** void shellDeleteByte(Shell *shell, signed char direction)
 776:SYS/shell/shell.c **** {
 777:SYS/shell/shell.c ****     char offset = (direction == -1) ? 1 : 0;
 778:SYS/shell/shell.c **** 
 779:SYS/shell/shell.c ****     if ((shell->parser.cursor == 0 && direction == 1) || (shell->parser.cursor == shell->parser.len
 780:SYS/shell/shell.c ****     {
 781:SYS/shell/shell.c ****         return;
 782:SYS/shell/shell.c ****     }
ARM GAS  C:\Users\huav\AppData\Local\Temp\cc1GSGvG.s 			page 20


 783:SYS/shell/shell.c ****     if (shell->parser.cursor == shell->parser.length && direction == 1)
 784:SYS/shell/shell.c ****     {
 785:SYS/shell/shell.c ****         shell->parser.cursor--;
 786:SYS/shell/shell.c ****         shell->parser.length--;
 787:SYS/shell/shell.c ****         shell->parser.buffer[shell->parser.length] = 0;
 788:SYS/shell/shell.c ****         shellDeleteCommandLine(shell, 1);
 789:SYS/shell/shell.c ****     }
 790:SYS/shell/shell.c ****     else
 791:SYS/shell/shell.c ****     {
 792:SYS/shell/shell.c ****         for (short i = offset; i < shell->parser.length - shell->parser.cursor; i++)
 793:SYS/shell/shell.c ****         {
 794:SYS/shell/shell.c ****             shell->parser.buffer[shell->parser.cursor + i - 1] =
 795:SYS/shell/shell.c ****                 shell->parser.buffer[shell->parser.cursor + i];
 796:SYS/shell/shell.c ****         }
 797:SYS/shell/shell.c ****         shell->parser.length--;
 798:SYS/shell/shell.c ****         if (!offset)
 799:SYS/shell/shell.c ****         {
 800:SYS/shell/shell.c ****             shell->parser.cursor--;
 801:SYS/shell/shell.c ****             shellWriteByte(shell, '\b');
 802:SYS/shell/shell.c ****         }
 803:SYS/shell/shell.c ****         shell->parser.buffer[shell->parser.length] = 0;
 804:SYS/shell/shell.c ****         for (short i = shell->parser.cursor; i < shell->parser.length; i++)
 805:SYS/shell/shell.c ****         {
 806:SYS/shell/shell.c ****             shellWriteByte(shell, shell->parser.buffer[i]);
 807:SYS/shell/shell.c ****         }
 808:SYS/shell/shell.c ****         shellWriteByte(shell, ' ');
 809:SYS/shell/shell.c ****         for (short i = shell->parser.length - shell->parser.cursor + 1; i > 0; i--)
 810:SYS/shell/shell.c ****         {
 811:SYS/shell/shell.c ****             shellWriteByte(shell, '\b');
 812:SYS/shell/shell.c ****         }
 813:SYS/shell/shell.c ****     }
 814:SYS/shell/shell.c **** }
 815:SYS/shell/shell.c **** 
 816:SYS/shell/shell.c **** /**
 817:SYS/shell/shell.c ****  * @brief shell 解析参数
 818:SYS/shell/shell.c ****  * 
 819:SYS/shell/shell.c ****  * @param shell shell对象
 820:SYS/shell/shell.c ****  */
 821:SYS/shell/shell.c **** static void shellParserParam(Shell *shell)
 822:SYS/shell/shell.c **** {
 290              		.loc 1 822 1 is_stmt 1 view -0
 291              		.cfi_startproc
 292              		@ args = 0, pretend = 0, frame = 0
 293              		@ frame_needed = 0, uses_anonymous_args = 0
 294              		.loc 1 822 1 is_stmt 0 view .LVU85
 295 0000 30B5     		push	{r4, r5, lr}
 296              	.LCFI2:
 297              		.cfi_def_cfa_offset 12
 298              		.cfi_offset 4, -12
 299              		.cfi_offset 5, -8
 300              		.cfi_offset 14, -4
 823:SYS/shell/shell.c ****     unsigned char quotes = 0;
 301              		.loc 1 823 5 is_stmt 1 view .LVU86
 302              	.LVL30:
 824:SYS/shell/shell.c ****     unsigned char record = 1;
 303              		.loc 1 824 5 view .LVU87
 825:SYS/shell/shell.c **** 
ARM GAS  C:\Users\huav\AppData\Local\Temp\cc1GSGvG.s 			page 21


 826:SYS/shell/shell.c ****     for (short i = 0; i < SHELL_PARAMETER_MAX_NUMBER; i++)
 304              		.loc 1 826 5 view .LVU88
 305              	.LBB3:
 306              		.loc 1 826 10 view .LVU89
 307              		.loc 1 826 16 is_stmt 0 view .LVU90
 308 0002 0023     		movs	r3, #0
 309              		.loc 1 826 5 view .LVU91
 310 0004 06E0     		b	.L31
 311              	.LVL31:
 312              	.L32:
 827:SYS/shell/shell.c ****     {
 828:SYS/shell/shell.c ****         shell->parser.param[i] = NULL;
 313              		.loc 1 828 9 is_stmt 1 discriminator 3 view .LVU92
 314              		.loc 1 828 32 is_stmt 0 discriminator 3 view .LVU93
 315 0006 1A1D     		adds	r2, r3, #4
 316 0008 00EB8202 		add	r2, r0, r2, lsl #2
 317 000c 0021     		movs	r1, #0
 318 000e 5160     		str	r1, [r2, #4]
 826:SYS/shell/shell.c ****     {
 319              		.loc 1 826 55 is_stmt 1 discriminator 3 view .LVU94
 826:SYS/shell/shell.c ****     {
 320              		.loc 1 826 56 is_stmt 0 discriminator 3 view .LVU95
 321 0010 0133     		adds	r3, r3, #1
 322              	.LVL32:
 826:SYS/shell/shell.c ****     {
 323              		.loc 1 826 56 discriminator 3 view .LVU96
 324 0012 1BB2     		sxth	r3, r3
 325              	.LVL33:
 326              	.L31:
 826:SYS/shell/shell.c ****     {
 327              		.loc 1 826 23 is_stmt 1 discriminator 1 view .LVU97
 826:SYS/shell/shell.c ****     {
 328              		.loc 1 826 5 is_stmt 0 discriminator 1 view .LVU98
 329 0014 072B     		cmp	r3, #7
 330 0016 F6DD     		ble	.L32
 331              	.LBE3:
 829:SYS/shell/shell.c ****     }
 830:SYS/shell/shell.c **** 
 831:SYS/shell/shell.c ****     shell->parser.paramCount = 0;
 332              		.loc 1 831 5 is_stmt 1 view .LVU99
 333              		.loc 1 831 30 is_stmt 0 view .LVU100
 334 0018 0021     		movs	r1, #0
 335 001a C186     		strh	r1, [r0, #54]	@ movhi
 832:SYS/shell/shell.c ****     for (unsigned short i = 0; i < shell->parser.length; i++)
 336              		.loc 1 832 5 is_stmt 1 view .LVU101
 337              	.LBB4:
 338              		.loc 1 832 10 view .LVU102
 339              	.LVL34:
 340              		.loc 1 832 25 is_stmt 0 view .LVU103
 341 001c 0B46     		mov	r3, r1
 342              	.LVL35:
 343              		.loc 1 832 25 view .LVU104
 344              	.LBE4:
 824:SYS/shell/shell.c **** 
 345              		.loc 1 824 19 view .LVU105
 346 001e 0125     		movs	r5, #1
 347              	.LBB5:
ARM GAS  C:\Users\huav\AppData\Local\Temp\cc1GSGvG.s 			page 22


 348              		.loc 1 832 5 view .LVU106
 349 0020 0DE0     		b	.L33
 350              	.LVL36:
 351              	.L34:
 833:SYS/shell/shell.c ****     {
 834:SYS/shell/shell.c ****         if (quotes != 0 || (shell->parser.buffer[i] != ' ' && shell->parser.buffer[i] != 0))
 835:SYS/shell/shell.c ****         {
 836:SYS/shell/shell.c ****             if (shell->parser.buffer[i] == '\"')
 352              		.loc 1 836 13 is_stmt 1 view .LVU107
 353              		.loc 1 836 30 is_stmt 0 view .LVU108
 354 0022 0269     		ldr	r2, [r0, #16]
 355              		.loc 1 836 37 view .LVU109
 356 0024 9E46     		mov	lr, r3
 357 0026 D418     		adds	r4, r2, r3
 358 0028 12F803C0 		ldrb	ip, [r2, r3]	@ zero_extendqisi2
 359              		.loc 1 836 16 view .LVU110
 360 002c BCF1220F 		cmp	ip, #34
 361 0030 15D0     		beq	.L42
 362              	.L36:
 837:SYS/shell/shell.c ****             {
 838:SYS/shell/shell.c ****                 quotes = quotes ? 0 : 1;
 839:SYS/shell/shell.c ****             }
 840:SYS/shell/shell.c ****             if (record == 1)
 363              		.loc 1 840 13 is_stmt 1 view .LVU111
 364              		.loc 1 840 16 is_stmt 0 view .LVU112
 365 0032 BDB9     		cbnz	r5, .L43
 366              	.LVL37:
 367              	.L37:
 841:SYS/shell/shell.c ****             {
 842:SYS/shell/shell.c ****                 if (shell->parser.paramCount < SHELL_PARAMETER_MAX_NUMBER)
 843:SYS/shell/shell.c ****                 {
 844:SYS/shell/shell.c ****                     shell->parser.param[shell->parser.paramCount++] =
 845:SYS/shell/shell.c ****                         &(shell->parser.buffer[i]);
 846:SYS/shell/shell.c ****                 }
 847:SYS/shell/shell.c ****                 record = 0;
 848:SYS/shell/shell.c ****             }
 849:SYS/shell/shell.c ****             if (shell->parser.buffer[i] == '\\' && shell->parser.buffer[i + 1] != 0)
 368              		.loc 1 849 13 is_stmt 1 view .LVU113
 369              		.loc 1 849 37 is_stmt 0 view .LVU114
 370 0034 2478     		ldrb	r4, [r4]	@ zero_extendqisi2
 371              		.loc 1 849 16 view .LVU115
 372 0036 5C2C     		cmp	r4, #92
 373 0038 23D0     		beq	.L44
 374              	.LVL38:
 375              	.L38:
 832:SYS/shell/shell.c ****     {
 376              		.loc 1 832 58 is_stmt 1 discriminator 2 view .LVU116
 832:SYS/shell/shell.c ****     {
 377              		.loc 1 832 59 is_stmt 0 discriminator 2 view .LVU117
 378 003a 0133     		adds	r3, r3, #1
 379              	.LVL39:
 832:SYS/shell/shell.c ****     {
 380              		.loc 1 832 59 discriminator 2 view .LVU118
 381 003c 9BB2     		uxth	r3, r3
 382              	.LVL40:
 383              	.L33:
 832:SYS/shell/shell.c ****     {
ARM GAS  C:\Users\huav\AppData\Local\Temp\cc1GSGvG.s 			page 23


 384              		.loc 1 832 32 is_stmt 1 discriminator 1 view .LVU119
 832:SYS/shell/shell.c ****     {
 385              		.loc 1 832 49 is_stmt 0 discriminator 1 view .LVU120
 386 003e 8289     		ldrh	r2, [r0, #12]
 832:SYS/shell/shell.c ****     {
 387              		.loc 1 832 5 discriminator 1 view .LVU121
 388 0040 9A42     		cmp	r2, r3
 389 0042 25D9     		bls	.L45
 834:SYS/shell/shell.c ****         {
 390              		.loc 1 834 9 is_stmt 1 view .LVU122
 834:SYS/shell/shell.c ****         {
 391              		.loc 1 834 12 is_stmt 0 view .LVU123
 392 0044 0029     		cmp	r1, #0
 393 0046 ECD1     		bne	.L34
 834:SYS/shell/shell.c ****         {
 394              		.loc 1 834 42 discriminator 1 view .LVU124
 395 0048 0269     		ldr	r2, [r0, #16]
 834:SYS/shell/shell.c ****         {
 396              		.loc 1 834 49 discriminator 1 view .LVU125
 397 004a D418     		adds	r4, r2, r3
 398 004c D25C     		ldrb	r2, [r2, r3]	@ zero_extendqisi2
 834:SYS/shell/shell.c ****         {
 399              		.loc 1 834 25 discriminator 1 view .LVU126
 400 004e 202A     		cmp	r2, #32
 401 0050 01D0     		beq	.L35
 834:SYS/shell/shell.c ****         {
 402              		.loc 1 834 60 discriminator 2 view .LVU127
 403 0052 002A     		cmp	r2, #0
 404 0054 E5D1     		bne	.L34
 405              	.L35:
 850:SYS/shell/shell.c ****             {
 851:SYS/shell/shell.c ****                 i++;
 852:SYS/shell/shell.c ****             }
 853:SYS/shell/shell.c ****         }
 854:SYS/shell/shell.c ****         else
 855:SYS/shell/shell.c ****         {
 856:SYS/shell/shell.c ****             shell->parser.buffer[i] = 0;
 406              		.loc 1 856 13 is_stmt 1 view .LVU128
 407              		.loc 1 856 37 is_stmt 0 view .LVU129
 408 0056 0022     		movs	r2, #0
 409 0058 2270     		strb	r2, [r4]
 857:SYS/shell/shell.c ****             record = 1;
 410              		.loc 1 857 13 is_stmt 1 view .LVU130
 411              	.LVL41:
 412              		.loc 1 857 20 is_stmt 0 view .LVU131
 413 005a 0125     		movs	r5, #1
 414 005c EDE7     		b	.L38
 415              	.LVL42:
 416              	.L42:
 838:SYS/shell/shell.c ****             }
 417              		.loc 1 838 17 is_stmt 1 view .LVU132
 838:SYS/shell/shell.c ****             }
 418              		.loc 1 838 37 is_stmt 0 view .LVU133
 419 005e 81F00101 		eor	r1, r1, #1
 420              	.LVL43:
 838:SYS/shell/shell.c ****             }
 421              		.loc 1 838 37 view .LVU134
ARM GAS  C:\Users\huav\AppData\Local\Temp\cc1GSGvG.s 			page 24


 422 0062 E6E7     		b	.L36
 423              	.L43:
 842:SYS/shell/shell.c ****                 {
 424              		.loc 1 842 17 is_stmt 1 view .LVU135
 842:SYS/shell/shell.c ****                 {
 425              		.loc 1 842 34 is_stmt 0 view .LVU136
 426 0064 C58E     		ldrh	r5, [r0, #54]
 427              	.LVL44:
 842:SYS/shell/shell.c ****                 {
 428              		.loc 1 842 20 view .LVU137
 429 0066 072D     		cmp	r5, #7
 430 0068 09D8     		bhi	.L40
 844:SYS/shell/shell.c ****                         &(shell->parser.buffer[i]);
 431              		.loc 1 844 21 is_stmt 1 view .LVU138
 844:SYS/shell/shell.c ****                         &(shell->parser.buffer[i]);
 432              		.loc 1 844 65 is_stmt 0 view .LVU139
 433 006a 05F1010C 		add	ip, r5, #1
 434 006e A0F836C0 		strh	ip, [r0, #54]	@ movhi
 844:SYS/shell/shell.c ****                         &(shell->parser.buffer[i]);
 435              		.loc 1 844 69 view .LVU140
 436 0072 0435     		adds	r5, r5, #4
 437 0074 00EB8505 		add	r5, r0, r5, lsl #2
 438 0078 6C60     		str	r4, [r5, #4]
 847:SYS/shell/shell.c ****             }
 439              		.loc 1 847 24 view .LVU141
 440 007a 0025     		movs	r5, #0
 441 007c DAE7     		b	.L37
 442              	.L40:
 443 007e 0025     		movs	r5, #0
 444 0080 D8E7     		b	.L37
 445              	.LVL45:
 446              	.L44:
 849:SYS/shell/shell.c ****             {
 447              		.loc 1 849 72 discriminator 1 view .LVU142
 448 0082 7244     		add	r2, r2, lr
 449 0084 5278     		ldrb	r2, [r2, #1]	@ zero_extendqisi2
 849:SYS/shell/shell.c ****             {
 450              		.loc 1 849 49 discriminator 1 view .LVU143
 451 0086 002A     		cmp	r2, #0
 452 0088 D7D0     		beq	.L38
 851:SYS/shell/shell.c ****             }
 453              		.loc 1 851 17 is_stmt 1 view .LVU144
 851:SYS/shell/shell.c ****             }
 454              		.loc 1 851 18 is_stmt 0 view .LVU145
 455 008a 0133     		adds	r3, r3, #1
 456              	.LVL46:
 851:SYS/shell/shell.c ****             }
 457              		.loc 1 851 18 view .LVU146
 458 008c 9BB2     		uxth	r3, r3
 459              	.LVL47:
 851:SYS/shell/shell.c ****             }
 460              		.loc 1 851 18 view .LVU147
 461 008e D4E7     		b	.L38
 462              	.L45:
 851:SYS/shell/shell.c ****             }
 463              		.loc 1 851 18 view .LVU148
 464              	.LBE5:
ARM GAS  C:\Users\huav\AppData\Local\Temp\cc1GSGvG.s 			page 25


 858:SYS/shell/shell.c ****         }
 859:SYS/shell/shell.c ****     }
 860:SYS/shell/shell.c **** }
 465              		.loc 1 860 1 view .LVU149
 466 0090 30BD     		pop	{r4, r5, pc}
 467              		.loc 1 860 1 view .LVU150
 468              		.cfi_endproc
 469              	.LFE152:
 471              		.section	.text.shellHistoryAdd,"ax",%progbits
 472              		.align	1
 473              		.syntax unified
 474              		.thumb
 475              		.thumb_func
 476              		.fpu fpv4-sp-d16
 478              	shellHistoryAdd:
 479              	.LVL48:
 480              	.LFB163:
 861:SYS/shell/shell.c **** 
 862:SYS/shell/shell.c **** /**
 863:SYS/shell/shell.c ****  * @brief shell去除字符串参数头尾的双引号
 864:SYS/shell/shell.c ****  * 
 865:SYS/shell/shell.c ****  * @param shell shell对象
 866:SYS/shell/shell.c ****  */
 867:SYS/shell/shell.c **** static void shellRemoveParamQuotes(Shell *shell)
 868:SYS/shell/shell.c **** {
 869:SYS/shell/shell.c ****     unsigned short paramLength;
 870:SYS/shell/shell.c ****     for (unsigned short i = 0; i < shell->parser.paramCount; i++)
 871:SYS/shell/shell.c ****     {
 872:SYS/shell/shell.c ****         if (shell->parser.param[i][0] == '\"')
 873:SYS/shell/shell.c ****         {
 874:SYS/shell/shell.c ****             shell->parser.param[i][0] = 0;
 875:SYS/shell/shell.c ****             shell->parser.param[i] = &shell->parser.param[i][1];
 876:SYS/shell/shell.c ****         }
 877:SYS/shell/shell.c ****         paramLength = strlen(shell->parser.param[i]);
 878:SYS/shell/shell.c ****         if (shell->parser.param[i][paramLength - 1] == '\"')
 879:SYS/shell/shell.c ****         {
 880:SYS/shell/shell.c ****             shell->parser.param[i][paramLength - 1] = 0;
 881:SYS/shell/shell.c ****         }
 882:SYS/shell/shell.c ****     }
 883:SYS/shell/shell.c **** }
 884:SYS/shell/shell.c **** 
 885:SYS/shell/shell.c **** /**
 886:SYS/shell/shell.c ****  * @brief shell匹配命令
 887:SYS/shell/shell.c ****  * 
 888:SYS/shell/shell.c ****  * @param shell shell对象
 889:SYS/shell/shell.c ****  * @param cmd 命令
 890:SYS/shell/shell.c ****  * @param base 匹配命令表基址
 891:SYS/shell/shell.c ****  * @param compareLength 匹配字符串长度
 892:SYS/shell/shell.c ****  * @return ShellCommand* 匹配到的命令
 893:SYS/shell/shell.c ****  */
 894:SYS/shell/shell.c **** ShellCommand *shellSeekCommand(Shell *shell,
 895:SYS/shell/shell.c ****                                const char *cmd,
 896:SYS/shell/shell.c ****                                ShellCommand *base,
 897:SYS/shell/shell.c ****                                unsigned short compareLength)
 898:SYS/shell/shell.c **** {
 899:SYS/shell/shell.c ****     const char *name;
 900:SYS/shell/shell.c ****     int ret;
ARM GAS  C:\Users\huav\AppData\Local\Temp\cc1GSGvG.s 			page 26


 901:SYS/shell/shell.c ****     unsigned short count = shell->commandList.count -
 902:SYS/shell/shell.c ****                            ((int)base - (int)shell->commandList.base) / sizeof(ShellCommand);
 903:SYS/shell/shell.c ****     for (unsigned short i = 0; i < count; i++)
 904:SYS/shell/shell.c ****     {
 905:SYS/shell/shell.c ****         if (base[i].attr.attrs.type == SHELL_TYPE_KEY || shellCheckPermission(shell, &base[i]) != 0
 906:SYS/shell/shell.c ****         {
 907:SYS/shell/shell.c ****             continue;
 908:SYS/shell/shell.c ****         }
 909:SYS/shell/shell.c ****         name = shellGetCommandName(&base[i]);
 910:SYS/shell/shell.c ****         if (!compareLength)
 911:SYS/shell/shell.c ****         {
 912:SYS/shell/shell.c ****             ret = strcmp(cmd, name);
 913:SYS/shell/shell.c ****             if (strcmp(cmd, name) == 0)
 914:SYS/shell/shell.c ****             {
 915:SYS/shell/shell.c ****                 return &base[i];
 916:SYS/shell/shell.c ****             }
 917:SYS/shell/shell.c ****         }
 918:SYS/shell/shell.c ****         else
 919:SYS/shell/shell.c ****         {
 920:SYS/shell/shell.c ****             if (strncmp(cmd, name, compareLength) == 0)
 921:SYS/shell/shell.c ****             {
 922:SYS/shell/shell.c ****                 return &base[i];
 923:SYS/shell/shell.c ****             }
 924:SYS/shell/shell.c ****         }
 925:SYS/shell/shell.c ****     }
 926:SYS/shell/shell.c ****     return NULL;
 927:SYS/shell/shell.c **** }
 928:SYS/shell/shell.c **** 
 929:SYS/shell/shell.c **** /**
 930:SYS/shell/shell.c ****  * @brief shell 获取变量值
 931:SYS/shell/shell.c ****  * 
 932:SYS/shell/shell.c ****  * @param shell shell对象
 933:SYS/shell/shell.c ****  * @param command 命令
 934:SYS/shell/shell.c ****  * @return int 变量值
 935:SYS/shell/shell.c ****  */
 936:SYS/shell/shell.c **** int shellGetVarValue(Shell *shell, ShellCommand *command)
 937:SYS/shell/shell.c **** {
 938:SYS/shell/shell.c ****     int value = 0;
 939:SYS/shell/shell.c ****     switch (command->attr.attrs.type)
 940:SYS/shell/shell.c ****     {
 941:SYS/shell/shell.c ****     case SHELL_TYPE_VAR_INT:
 942:SYS/shell/shell.c ****         value = *((int *)(command->data.var.value));
 943:SYS/shell/shell.c ****         break;
 944:SYS/shell/shell.c ****     case SHELL_TYPE_VAR_SHORT:
 945:SYS/shell/shell.c ****         value = *((short *)(command->data.var.value));
 946:SYS/shell/shell.c ****         break;
 947:SYS/shell/shell.c ****     case SHELL_TYPE_VAR_CHAR:
 948:SYS/shell/shell.c ****         value = *((char *)(command->data.var.value));
 949:SYS/shell/shell.c ****         break;
 950:SYS/shell/shell.c ****     case SHELL_TYPE_VAR_STRING:
 951:SYS/shell/shell.c ****     case SHELL_TYPE_VAR_POINT:
 952:SYS/shell/shell.c ****         value = (int)(command->data.var.value);
 953:SYS/shell/shell.c ****         break;
 954:SYS/shell/shell.c ****     case SHELL_TYPE_VAR_NODE:
 955:SYS/shell/shell.c ****         value = ((ShellNodeVarAttr *)command->data.var.value)->get ? ((ShellNodeVarAttr *)command->
 956:SYS/shell/shell.c ****                                                                          ->get(((ShellNodeVarAttr *
 957:SYS/shell/shell.c ****                                                                    : 0;
ARM GAS  C:\Users\huav\AppData\Local\Temp\cc1GSGvG.s 			page 27


 958:SYS/shell/shell.c ****         break;
 959:SYS/shell/shell.c ****     default:
 960:SYS/shell/shell.c ****         break;
 961:SYS/shell/shell.c ****     }
 962:SYS/shell/shell.c ****     return value;
 963:SYS/shell/shell.c **** }
 964:SYS/shell/shell.c **** 
 965:SYS/shell/shell.c **** /**
 966:SYS/shell/shell.c ****  * @brief shell设置变量值
 967:SYS/shell/shell.c ****  * 
 968:SYS/shell/shell.c ****  * @param shell shell对象
 969:SYS/shell/shell.c ****  * @param command 命令
 970:SYS/shell/shell.c ****  * @param value 值
 971:SYS/shell/shell.c ****  * @return int 返回变量值
 972:SYS/shell/shell.c ****  */
 973:SYS/shell/shell.c **** int shellSetVarValue(Shell *shell, ShellCommand *command, int value)
 974:SYS/shell/shell.c **** {
 975:SYS/shell/shell.c ****     if (command->attr.attrs.readOnly)
 976:SYS/shell/shell.c ****     {
 977:SYS/shell/shell.c ****         shellWriteString(shell, shellText[SHELL_TEXT_VAR_READ_ONLY_CANNOT_MODIFY]);
 978:SYS/shell/shell.c ****     }
 979:SYS/shell/shell.c ****     else
 980:SYS/shell/shell.c ****     {
 981:SYS/shell/shell.c ****         switch (command->attr.attrs.type)
 982:SYS/shell/shell.c ****         {
 983:SYS/shell/shell.c ****         case SHELL_TYPE_VAR_INT:
 984:SYS/shell/shell.c ****             *((int *)(command->data.var.value)) = value;
 985:SYS/shell/shell.c ****             break;
 986:SYS/shell/shell.c ****         case SHELL_TYPE_VAR_SHORT:
 987:SYS/shell/shell.c ****             *((short *)(command->data.var.value)) = value;
 988:SYS/shell/shell.c ****             break;
 989:SYS/shell/shell.c ****         case SHELL_TYPE_VAR_CHAR:
 990:SYS/shell/shell.c ****             *((char *)(command->data.var.value)) = value;
 991:SYS/shell/shell.c ****             break;
 992:SYS/shell/shell.c ****         case SHELL_TYPE_VAR_STRING:
 993:SYS/shell/shell.c ****             shellStringCopy(((char *)(command->data.var.value)), (char *)value);
 994:SYS/shell/shell.c ****             break;
 995:SYS/shell/shell.c ****         case SHELL_TYPE_VAR_POINT:
 996:SYS/shell/shell.c ****             shellWriteString(shell, shellText[SHELL_TEXT_POINT_CANNOT_MODIFY]);
 997:SYS/shell/shell.c ****             break;
 998:SYS/shell/shell.c ****         case SHELL_TYPE_VAR_NODE:
 999:SYS/shell/shell.c ****             if (((ShellNodeVarAttr *)command->data.var.value)->set)
1000:SYS/shell/shell.c ****             {
1001:SYS/shell/shell.c ****                 if (((ShellNodeVarAttr *)command->data.var.value)->var)
1002:SYS/shell/shell.c ****                 {
1003:SYS/shell/shell.c ****                     ((ShellNodeVarAttr *)command->data.var.value)
1004:SYS/shell/shell.c ****                         ->set(((ShellNodeVarAttr *)command->data.var.value)->var, value);
1005:SYS/shell/shell.c ****                 }
1006:SYS/shell/shell.c ****                 else
1007:SYS/shell/shell.c ****                 {
1008:SYS/shell/shell.c ****                     ((ShellNodeVarAttr *)command->data.var.value)->set(value);
1009:SYS/shell/shell.c ****                 }
1010:SYS/shell/shell.c ****             }
1011:SYS/shell/shell.c ****             break;
1012:SYS/shell/shell.c ****         default:
1013:SYS/shell/shell.c ****             break;
1014:SYS/shell/shell.c ****         }
ARM GAS  C:\Users\huav\AppData\Local\Temp\cc1GSGvG.s 			page 28


1015:SYS/shell/shell.c ****     }
1016:SYS/shell/shell.c ****     return shellShowVar(shell, command);
1017:SYS/shell/shell.c **** }
1018:SYS/shell/shell.c **** 
1019:SYS/shell/shell.c **** /**
1020:SYS/shell/shell.c ****  * @brief shell变量输出
1021:SYS/shell/shell.c ****  * 
1022:SYS/shell/shell.c ****  * @param shell shell对象
1023:SYS/shell/shell.c ****  * @param command 命令
1024:SYS/shell/shell.c ****  * @return int 返回变量值
1025:SYS/shell/shell.c ****  */
1026:SYS/shell/shell.c **** static int shellShowVar(Shell *shell, ShellCommand *command)
1027:SYS/shell/shell.c **** {
1028:SYS/shell/shell.c ****     char buffer[12] = "00000000000";
1029:SYS/shell/shell.c ****     int value = shellGetVarValue(shell, command);
1030:SYS/shell/shell.c **** 
1031:SYS/shell/shell.c ****     shellWriteString(shell, command->data.var.name);
1032:SYS/shell/shell.c ****     shellWriteString(shell, " = ");
1033:SYS/shell/shell.c **** 
1034:SYS/shell/shell.c ****     switch (command->attr.attrs.type)
1035:SYS/shell/shell.c ****     {
1036:SYS/shell/shell.c ****     case SHELL_TYPE_VAR_STRING:
1037:SYS/shell/shell.c ****         shellWriteString(shell, "\"");
1038:SYS/shell/shell.c ****         shellWriteString(shell, (char *)value);
1039:SYS/shell/shell.c ****         shellWriteString(shell, "\"");
1040:SYS/shell/shell.c ****         break;
1041:SYS/shell/shell.c ****     // case SHELL_TYPE_VAR_INT:
1042:SYS/shell/shell.c ****     // case SHELL_TYPE_VAR_SHORT:
1043:SYS/shell/shell.c ****     // case SHELL_TYPE_VAR_CHAR:
1044:SYS/shell/shell.c ****     // case SHELL_TYPE_VAR_POINT:
1045:SYS/shell/shell.c ****     default:
1046:SYS/shell/shell.c ****         shellWriteString(shell, &buffer[11 - shellToDec(value, buffer)]);
1047:SYS/shell/shell.c ****         shellWriteString(shell, ", 0x");
1048:SYS/shell/shell.c ****         for (short i = 0; i < 11; i++)
1049:SYS/shell/shell.c ****         {
1050:SYS/shell/shell.c ****             buffer[i] = '0';
1051:SYS/shell/shell.c ****         }
1052:SYS/shell/shell.c ****         shellToHex(value, buffer);
1053:SYS/shell/shell.c ****         shellWriteString(shell, buffer);
1054:SYS/shell/shell.c ****         break;
1055:SYS/shell/shell.c ****     }
1056:SYS/shell/shell.c **** 
1057:SYS/shell/shell.c ****     shellWriteString(shell, "\r\n");
1058:SYS/shell/shell.c ****     return value;
1059:SYS/shell/shell.c **** }
1060:SYS/shell/shell.c **** 
1061:SYS/shell/shell.c **** /**
1062:SYS/shell/shell.c ****  * @brief shell设置变量
1063:SYS/shell/shell.c ****  * 
1064:SYS/shell/shell.c ****  * @param name 变量名
1065:SYS/shell/shell.c ****  * @param value 变量值
1066:SYS/shell/shell.c ****  * @return int 返回变量值
1067:SYS/shell/shell.c ****  */
1068:SYS/shell/shell.c **** int shellSetVar(char *name, int value)
1069:SYS/shell/shell.c **** {
1070:SYS/shell/shell.c ****     Shell *shell = shellGetCurrent();
1071:SYS/shell/shell.c ****     if (shell == NULL)
ARM GAS  C:\Users\huav\AppData\Local\Temp\cc1GSGvG.s 			page 29


1072:SYS/shell/shell.c ****     {
1073:SYS/shell/shell.c ****         return 0;
1074:SYS/shell/shell.c ****     }
1075:SYS/shell/shell.c ****     ShellCommand *command = shellSeekCommand(shell,
1076:SYS/shell/shell.c ****                                              name,
1077:SYS/shell/shell.c ****                                              shell->commandList.base,
1078:SYS/shell/shell.c ****                                              0);
1079:SYS/shell/shell.c ****     if (!command)
1080:SYS/shell/shell.c ****     {
1081:SYS/shell/shell.c ****         shellWriteString(shell, shellText[SHELL_TEXT_VAR_NOT_FOUND]);
1082:SYS/shell/shell.c ****         return 0;
1083:SYS/shell/shell.c ****     }
1084:SYS/shell/shell.c ****     if (command->attr.attrs.type < SHELL_TYPE_VAR_INT || command->attr.attrs.type > SHELL_TYPE_VAR_
1085:SYS/shell/shell.c ****     {
1086:SYS/shell/shell.c ****         shellWriteString(shell, name);
1087:SYS/shell/shell.c ****         shellWriteString(shell, shellText[SHELL_TEXT_NOT_VAR]);
1088:SYS/shell/shell.c ****         return 0;
1089:SYS/shell/shell.c ****     }
1090:SYS/shell/shell.c ****     return shellSetVarValue(shell, command, value);
1091:SYS/shell/shell.c **** }
1092:SYS/shell/shell.c **** SHELL_EXPORT_CMD(
1093:SYS/shell/shell.c ****     SHELL_CMD_PERMISSION(0) | SHELL_CMD_TYPE(SHELL_TYPE_CMD_FUNC) | SHELL_CMD_DISABLE_RETURN,
1094:SYS/shell/shell.c ****     setVar, shellSetVar, set var);
1095:SYS/shell/shell.c **** 
1096:SYS/shell/shell.c **** /**
1097:SYS/shell/shell.c ****  * @brief shell运行命令
1098:SYS/shell/shell.c ****  * 
1099:SYS/shell/shell.c ****  * @param shell shell对象
1100:SYS/shell/shell.c ****  * @param command 命令
1101:SYS/shell/shell.c ****  * 
1102:SYS/shell/shell.c ****  * @return unsigned int 命令返回值
1103:SYS/shell/shell.c ****  */
1104:SYS/shell/shell.c **** unsigned int shellRunCommand(Shell *shell, ShellCommand *command)
1105:SYS/shell/shell.c **** {
1106:SYS/shell/shell.c ****     int returnValue = 0;
1107:SYS/shell/shell.c ****     shell->status.isActive = 1;
1108:SYS/shell/shell.c ****     if (command->attr.attrs.type == SHELL_TYPE_CMD_MAIN)
1109:SYS/shell/shell.c ****     {
1110:SYS/shell/shell.c ****         shellRemoveParamQuotes(shell);
1111:SYS/shell/shell.c ****         returnValue = command->data.cmd.function(shell->parser.paramCount,
1112:SYS/shell/shell.c ****                                                  shell->parser.param);
1113:SYS/shell/shell.c ****         if (!command->attr.attrs.disableReturn)
1114:SYS/shell/shell.c ****         {
1115:SYS/shell/shell.c ****             shellWriteReturnValue(shell, returnValue);
1116:SYS/shell/shell.c ****         }
1117:SYS/shell/shell.c ****     }
1118:SYS/shell/shell.c ****     else if (command->attr.attrs.type == SHELL_TYPE_CMD_FUNC)
1119:SYS/shell/shell.c ****     {
1120:SYS/shell/shell.c ****         returnValue = shellExtRun(shell,
1121:SYS/shell/shell.c ****                                   command,
1122:SYS/shell/shell.c ****                                   shell->parser.paramCount,
1123:SYS/shell/shell.c ****                                   shell->parser.param);
1124:SYS/shell/shell.c ****         if (!command->attr.attrs.disableReturn)
1125:SYS/shell/shell.c ****         {
1126:SYS/shell/shell.c ****             shellWriteReturnValue(shell, returnValue);
1127:SYS/shell/shell.c ****         }
1128:SYS/shell/shell.c ****     }
ARM GAS  C:\Users\huav\AppData\Local\Temp\cc1GSGvG.s 			page 30


1129:SYS/shell/shell.c ****     else if (command->attr.attrs.type >= SHELL_TYPE_VAR_INT && command->attr.attrs.type <= SHELL_TY
1130:SYS/shell/shell.c ****     {
1131:SYS/shell/shell.c ****         shellShowVar(shell, command);
1132:SYS/shell/shell.c ****     }
1133:SYS/shell/shell.c ****     else if (command->attr.attrs.type == SHELL_TYPE_USER)
1134:SYS/shell/shell.c ****     {
1135:SYS/shell/shell.c ****         shellSetUser(shell, command);
1136:SYS/shell/shell.c ****     }
1137:SYS/shell/shell.c ****     shell->status.isActive = 0;
1138:SYS/shell/shell.c **** 
1139:SYS/shell/shell.c ****     return returnValue;
1140:SYS/shell/shell.c **** }
1141:SYS/shell/shell.c **** 
1142:SYS/shell/shell.c **** /**
1143:SYS/shell/shell.c ****  * @brief shell校验密码
1144:SYS/shell/shell.c ****  * 
1145:SYS/shell/shell.c ****  * @param shell shell对象
1146:SYS/shell/shell.c ****  */
1147:SYS/shell/shell.c **** static void shellCheckPassword(Shell *shell)
1148:SYS/shell/shell.c **** {
1149:SYS/shell/shell.c ****     if (strcmp(shell->parser.buffer, shell->info.user->data.user.password) == 0)
1150:SYS/shell/shell.c ****     {
1151:SYS/shell/shell.c ****         shell->status.isChecked = 1;
1152:SYS/shell/shell.c **** #if SHELL_SHOW_INFO == 1
1153:SYS/shell/shell.c ****         shellWriteString(shell, shellText[SHELL_TEXT_INFO]);
1154:SYS/shell/shell.c **** #endif
1155:SYS/shell/shell.c ****     }
1156:SYS/shell/shell.c ****     else
1157:SYS/shell/shell.c ****     {
1158:SYS/shell/shell.c ****         shellWriteString(shell, shellText[SHELL_TEXT_PASSWORD_ERROR]);
1159:SYS/shell/shell.c ****     }
1160:SYS/shell/shell.c ****     shell->parser.length = 0;
1161:SYS/shell/shell.c ****     shell->parser.cursor = 0;
1162:SYS/shell/shell.c **** }
1163:SYS/shell/shell.c **** 
1164:SYS/shell/shell.c **** /**
1165:SYS/shell/shell.c ****  * @brief shell设置用户
1166:SYS/shell/shell.c ****  * 
1167:SYS/shell/shell.c ****  * @param shell shell对象
1168:SYS/shell/shell.c ****  * @param user 用户
1169:SYS/shell/shell.c ****  */
1170:SYS/shell/shell.c **** static void shellSetUser(Shell *shell, const ShellCommand *user)
1171:SYS/shell/shell.c **** {
1172:SYS/shell/shell.c ****     shell->info.user = user;
1173:SYS/shell/shell.c ****     shell->status.isChecked =
1174:SYS/shell/shell.c ****         ((user->data.user.password && strlen(user->data.user.password) != 0) && (shell->parser.para
1175:SYS/shell/shell.c ****             ? 0
1176:SYS/shell/shell.c ****             : 1;
1177:SYS/shell/shell.c **** 
1178:SYS/shell/shell.c **** #if SHELL_CLS_WHEN_LOGIN == 1
1179:SYS/shell/shell.c ****     shellWriteString(shell, shellText[SHELL_TEXT_CLEAR_CONSOLE]);
1180:SYS/shell/shell.c **** #endif
1181:SYS/shell/shell.c **** #if SHELL_SHOW_INFO == 1
1182:SYS/shell/shell.c ****     if (shell->status.isChecked)
1183:SYS/shell/shell.c ****     {
1184:SYS/shell/shell.c ****         shellWriteString(shell, shellText[SHELL_TEXT_INFO]);
1185:SYS/shell/shell.c ****     }
ARM GAS  C:\Users\huav\AppData\Local\Temp\cc1GSGvG.s 			page 31


1186:SYS/shell/shell.c **** #endif
1187:SYS/shell/shell.c **** }
1188:SYS/shell/shell.c **** 
1189:SYS/shell/shell.c **** /**
1190:SYS/shell/shell.c ****  * @brief shell写返回值
1191:SYS/shell/shell.c ****  * 
1192:SYS/shell/shell.c ****  * @param shell shell对象
1193:SYS/shell/shell.c ****  * @param value 返回值
1194:SYS/shell/shell.c ****  */
1195:SYS/shell/shell.c **** static void shellWriteReturnValue(Shell *shell, int value)
1196:SYS/shell/shell.c **** {
1197:SYS/shell/shell.c ****     char buffer[12] = "00000000000";
1198:SYS/shell/shell.c ****     shellWriteString(shell, "Return: ");
1199:SYS/shell/shell.c ****     shellWriteString(shell, &buffer[11 - shellToDec(value, buffer)]);
1200:SYS/shell/shell.c ****     shellWriteString(shell, ", 0x");
1201:SYS/shell/shell.c ****     for (short i = 0; i < 11; i++)
1202:SYS/shell/shell.c ****     {
1203:SYS/shell/shell.c ****         buffer[i] = '0';
1204:SYS/shell/shell.c ****     }
1205:SYS/shell/shell.c ****     shellToHex(value, buffer);
1206:SYS/shell/shell.c ****     shellWriteString(shell, buffer);
1207:SYS/shell/shell.c ****     shellWriteString(shell, "\r\n");
1208:SYS/shell/shell.c **** }
1209:SYS/shell/shell.c **** 
1210:SYS/shell/shell.c **** /**
1211:SYS/shell/shell.c ****  * @brief shell历史记录添加
1212:SYS/shell/shell.c ****  * 
1213:SYS/shell/shell.c ****  * @param shell shell对象
1214:SYS/shell/shell.c ****  */
1215:SYS/shell/shell.c **** static void shellHistoryAdd(Shell *shell)
1216:SYS/shell/shell.c **** {
 481              		.loc 1 1216 1 is_stmt 1 view -0
 482              		.cfi_startproc
 483              		@ args = 0, pretend = 0, frame = 0
 484              		@ frame_needed = 0, uses_anonymous_args = 0
 485              		.loc 1 1216 1 is_stmt 0 view .LVU152
 486 0000 10B5     		push	{r4, lr}
 487              	.LCFI3:
 488              		.cfi_def_cfa_offset 8
 489              		.cfi_offset 4, -8
 490              		.cfi_offset 14, -4
 491 0002 0446     		mov	r4, r0
1217:SYS/shell/shell.c ****     shell->history.offset = 0;
 492              		.loc 1 1217 5 is_stmt 1 view .LVU153
 493              		.loc 1 1217 27 is_stmt 0 view .LVU154
 494 0004 0023     		movs	r3, #0
 495 0006 A0F85430 		strh	r3, [r0, #84]	@ movhi
1218:SYS/shell/shell.c ****     if (shell->history.number > 0 && strcmp(shell->history.item[(shell->history.record == 0 ? SHELL
 496              		.loc 1 1218 5 is_stmt 1 view .LVU155
 497              		.loc 1 1218 23 is_stmt 0 view .LVU156
 498 000a B0F85030 		ldrh	r3, [r0, #80]
 499              		.loc 1 1218 8 view .LVU157
 500 000e 5BB1     		cbz	r3, .L47
 501              		.loc 1 1218 80 discriminator 1 view .LVU158
 502 0010 B0F85230 		ldrh	r3, [r0, #82]
 503              		.loc 1 1218 145 discriminator 1 view .LVU159
 504 0014 53B3     		cbz	r3, .L52
ARM GAS  C:\Users\huav\AppData\Local\Temp\cc1GSGvG.s 			page 32


 505              		.loc 1 1218 145 discriminator 2 view .LVU160
 506 0016 013B     		subs	r3, r3, #1
 507              	.L48:
 508              		.loc 1 1218 64 discriminator 5 view .LVU161
 509 0018 0E33     		adds	r3, r3, #14
 510 001a 04EB8303 		add	r3, r4, r3, lsl #2
 511              		.loc 1 1218 38 discriminator 5 view .LVU162
 512 001e 2169     		ldr	r1, [r4, #16]
 513 0020 5868     		ldr	r0, [r3, #4]
 514              	.LVL49:
 515              		.loc 1 1218 38 discriminator 5 view .LVU163
 516 0022 FFF7FEFF 		bl	strcmp
 517              	.LVL50:
 518              		.loc 1 1218 35 discriminator 5 view .LVU164
 519 0026 00B3     		cbz	r0, .L46
 520              	.L47:
1219:SYS/shell/shell.c ****                                             shell->parser.buffer) == 0)
1220:SYS/shell/shell.c ****     {
1221:SYS/shell/shell.c ****         return;
1222:SYS/shell/shell.c ****     }
1223:SYS/shell/shell.c ****     if (shellStringCopy(shell->history.item[shell->history.record],
 521              		.loc 1 1223 5 is_stmt 1 view .LVU165
 522              		.loc 1 1223 59 is_stmt 0 view .LVU166
 523 0028 B4F85230 		ldrh	r3, [r4, #82]
 524              		.loc 1 1223 9 view .LVU167
 525 002c 0E33     		adds	r3, r3, #14
 526 002e 04EB8303 		add	r3, r4, r3, lsl #2
 527 0032 2169     		ldr	r1, [r4, #16]
 528 0034 5868     		ldr	r0, [r3, #4]
 529 0036 FFF7FEFF 		bl	shellStringCopy
 530              	.LVL51:
 531              		.loc 1 1223 8 view .LVU168
 532 003a 20B1     		cbz	r0, .L50
1224:SYS/shell/shell.c ****                         shell->parser.buffer) != 0)
1225:SYS/shell/shell.c ****     {
1226:SYS/shell/shell.c ****         shell->history.record++;
 533              		.loc 1 1226 9 is_stmt 1 view .LVU169
 534              		.loc 1 1226 23 is_stmt 0 view .LVU170
 535 003c B4F85230 		ldrh	r3, [r4, #82]
 536              		.loc 1 1226 30 view .LVU171
 537 0040 0133     		adds	r3, r3, #1
 538 0042 A4F85230 		strh	r3, [r4, #82]	@ movhi
 539              	.L50:
1227:SYS/shell/shell.c ****     }
1228:SYS/shell/shell.c ****     if (++shell->history.number > SHELL_HISTORY_MAX_NUMBER)
 540              		.loc 1 1228 5 is_stmt 1 view .LVU172
 541              		.loc 1 1228 25 is_stmt 0 view .LVU173
 542 0046 B4F85030 		ldrh	r3, [r4, #80]
 543              		.loc 1 1228 9 view .LVU174
 544 004a 0133     		adds	r3, r3, #1
 545 004c 9BB2     		uxth	r3, r3
 546              		.loc 1 1228 8 view .LVU175
 547 004e A4F85030 		strh	r3, [r4, #80]	@ movhi
 548 0052 052B     		cmp	r3, #5
 549 0054 02D9     		bls	.L51
1229:SYS/shell/shell.c ****     {
1230:SYS/shell/shell.c ****         shell->history.number = SHELL_HISTORY_MAX_NUMBER;
ARM GAS  C:\Users\huav\AppData\Local\Temp\cc1GSGvG.s 			page 33


 550              		.loc 1 1230 9 is_stmt 1 view .LVU176
 551              		.loc 1 1230 31 is_stmt 0 view .LVU177
 552 0056 0523     		movs	r3, #5
 553 0058 A4F85030 		strh	r3, [r4, #80]	@ movhi
 554              	.L51:
1231:SYS/shell/shell.c ****     }
1232:SYS/shell/shell.c ****     if (shell->history.record >= SHELL_HISTORY_MAX_NUMBER)
 555              		.loc 1 1232 5 is_stmt 1 view .LVU178
 556              		.loc 1 1232 23 is_stmt 0 view .LVU179
 557 005c B4F85230 		ldrh	r3, [r4, #82]
 558              		.loc 1 1232 8 view .LVU180
 559 0060 042B     		cmp	r3, #4
 560 0062 02D9     		bls	.L46
1233:SYS/shell/shell.c ****     {
1234:SYS/shell/shell.c ****         shell->history.record = 0;
 561              		.loc 1 1234 9 is_stmt 1 view .LVU181
 562              		.loc 1 1234 31 is_stmt 0 view .LVU182
 563 0064 0023     		movs	r3, #0
 564 0066 A4F85230 		strh	r3, [r4, #82]	@ movhi
 565              	.L46:
1235:SYS/shell/shell.c ****     }
1236:SYS/shell/shell.c **** }
 566              		.loc 1 1236 1 view .LVU183
 567 006a 10BD     		pop	{r4, pc}
 568              	.LVL52:
 569              	.L52:
1218:SYS/shell/shell.c ****                                             shell->parser.buffer) == 0)
 570              		.loc 1 1218 145 view .LVU184
 571 006c 0423     		movs	r3, #4
 572 006e D3E7     		b	.L48
 573              		.cfi_endproc
 574              	.LFE163:
 576              		.section	.text.shellRemoveParamQuotes,"ax",%progbits
 577              		.align	1
 578              		.syntax unified
 579              		.thumb
 580              		.thumb_func
 581              		.fpu fpv4-sp-d16
 583              	shellRemoveParamQuotes:
 584              	.LVL53:
 585              	.LFB153:
 868:SYS/shell/shell.c ****     unsigned short paramLength;
 586              		.loc 1 868 1 is_stmt 1 view -0
 587              		.cfi_startproc
 588              		@ args = 0, pretend = 0, frame = 0
 589              		@ frame_needed = 0, uses_anonymous_args = 0
 868:SYS/shell/shell.c ****     unsigned short paramLength;
 590              		.loc 1 868 1 is_stmt 0 view .LVU186
 591 0000 70B5     		push	{r4, r5, r6, lr}
 592              	.LCFI4:
 593              		.cfi_def_cfa_offset 16
 594              		.cfi_offset 4, -16
 595              		.cfi_offset 5, -12
 596              		.cfi_offset 6, -8
 597              		.cfi_offset 14, -4
 598 0002 0546     		mov	r5, r0
 869:SYS/shell/shell.c ****     for (unsigned short i = 0; i < shell->parser.paramCount; i++)
ARM GAS  C:\Users\huav\AppData\Local\Temp\cc1GSGvG.s 			page 34


 599              		.loc 1 869 5 is_stmt 1 view .LVU187
 870:SYS/shell/shell.c ****     {
 600              		.loc 1 870 5 view .LVU188
 601              	.LBB6:
 870:SYS/shell/shell.c ****     {
 602              		.loc 1 870 10 view .LVU189
 603              	.LVL54:
 870:SYS/shell/shell.c ****     {
 604              		.loc 1 870 25 is_stmt 0 view .LVU190
 605 0004 0024     		movs	r4, #0
 870:SYS/shell/shell.c ****     {
 606              		.loc 1 870 5 view .LVU191
 607 0006 0AE0     		b	.L55
 608              	.LVL55:
 609              	.L61:
 874:SYS/shell/shell.c ****             shell->parser.param[i] = &shell->parser.param[i][1];
 610              		.loc 1 874 13 is_stmt 1 view .LVU192
 874:SYS/shell/shell.c ****             shell->parser.param[i] = &shell->parser.param[i][1];
 611              		.loc 1 874 39 is_stmt 0 view .LVU193
 612 0008 0021     		movs	r1, #0
 613 000a 1170     		strb	r1, [r2]
 875:SYS/shell/shell.c ****         }
 614              		.loc 1 875 13 is_stmt 1 view .LVU194
 875:SYS/shell/shell.c ****         }
 615              		.loc 1 875 58 is_stmt 0 view .LVU195
 616 000c 221D     		adds	r2, r4, #4
 617 000e 05EB8202 		add	r2, r5, r2, lsl #2
 618 0012 5168     		ldr	r1, [r2, #4]
 875:SYS/shell/shell.c ****         }
 619              		.loc 1 875 38 view .LVU196
 620 0014 0131     		adds	r1, r1, #1
 875:SYS/shell/shell.c ****         }
 621              		.loc 1 875 36 view .LVU197
 622 0016 5160     		str	r1, [r2, #4]
 623 0018 0CE0     		b	.L56
 624              	.LVL56:
 625              	.L57:
 870:SYS/shell/shell.c ****     {
 626              		.loc 1 870 62 is_stmt 1 discriminator 2 view .LVU198
 870:SYS/shell/shell.c ****     {
 627              		.loc 1 870 63 is_stmt 0 discriminator 2 view .LVU199
 628 001a 0134     		adds	r4, r4, #1
 629              	.LVL57:
 870:SYS/shell/shell.c ****     {
 630              		.loc 1 870 63 discriminator 2 view .LVU200
 631 001c A4B2     		uxth	r4, r4
 632              	.LVL58:
 633              	.L55:
 870:SYS/shell/shell.c ****     {
 634              		.loc 1 870 32 is_stmt 1 discriminator 1 view .LVU201
 870:SYS/shell/shell.c ****     {
 635              		.loc 1 870 49 is_stmt 0 discriminator 1 view .LVU202
 636 001e EB8E     		ldrh	r3, [r5, #54]
 870:SYS/shell/shell.c ****     {
 637              		.loc 1 870 5 discriminator 1 view .LVU203
 638 0020 A342     		cmp	r3, r4
 639 0022 16D9     		bls	.L60
ARM GAS  C:\Users\huav\AppData\Local\Temp\cc1GSGvG.s 			page 35


 872:SYS/shell/shell.c ****         {
 640              		.loc 1 872 9 is_stmt 1 view .LVU204
 872:SYS/shell/shell.c ****         {
 641              		.loc 1 872 32 is_stmt 0 view .LVU205
 642 0024 2346     		mov	r3, r4
 643 0026 221D     		adds	r2, r4, #4
 644 0028 05EB8202 		add	r2, r5, r2, lsl #2
 645 002c 5268     		ldr	r2, [r2, #4]
 872:SYS/shell/shell.c ****         {
 646              		.loc 1 872 35 view .LVU206
 647 002e 1178     		ldrb	r1, [r2]	@ zero_extendqisi2
 872:SYS/shell/shell.c ****         {
 648              		.loc 1 872 12 view .LVU207
 649 0030 2229     		cmp	r1, #34
 650 0032 E9D0     		beq	.L61
 651              	.L56:
 877:SYS/shell/shell.c ****         if (shell->parser.param[i][paramLength - 1] == '\"')
 652              		.loc 1 877 9 is_stmt 1 view .LVU208
 877:SYS/shell/shell.c ****         if (shell->parser.param[i][paramLength - 1] == '\"')
 653              		.loc 1 877 49 is_stmt 0 view .LVU209
 654 0034 0433     		adds	r3, r3, #4
 655 0036 05EB8303 		add	r3, r5, r3, lsl #2
 656 003a 5E68     		ldr	r6, [r3, #4]
 877:SYS/shell/shell.c ****         if (shell->parser.param[i][paramLength - 1] == '\"')
 657              		.loc 1 877 23 view .LVU210
 658 003c 3046     		mov	r0, r6
 659 003e FFF7FEFF 		bl	strlen
 660              	.LVL59:
 878:SYS/shell/shell.c ****         {
 661              		.loc 1 878 9 is_stmt 1 view .LVU211
 878:SYS/shell/shell.c ****         {
 662              		.loc 1 878 35 is_stmt 0 view .LVU212
 663 0042 83B2     		uxth	r3, r0
 664 0044 013B     		subs	r3, r3, #1
 665 0046 F25C     		ldrb	r2, [r6, r3]	@ zero_extendqisi2
 878:SYS/shell/shell.c ****         {
 666              		.loc 1 878 12 view .LVU213
 667 0048 222A     		cmp	r2, #34
 668 004a E6D1     		bne	.L57
 880:SYS/shell/shell.c ****         }
 669              		.loc 1 880 13 is_stmt 1 view .LVU214
 880:SYS/shell/shell.c ****         }
 670              		.loc 1 880 53 is_stmt 0 view .LVU215
 671 004c 0022     		movs	r2, #0
 672 004e F254     		strb	r2, [r6, r3]
 673 0050 E3E7     		b	.L57
 674              	.LVL60:
 675              	.L60:
 880:SYS/shell/shell.c ****         }
 676              		.loc 1 880 53 view .LVU216
 677              	.LBE6:
 883:SYS/shell/shell.c **** 
 678              		.loc 1 883 1 view .LVU217
 679 0052 70BD     		pop	{r4, r5, r6, pc}
 883:SYS/shell/shell.c **** 
 680              		.loc 1 883 1 view .LVU218
 681              		.cfi_endproc
ARM GAS  C:\Users\huav\AppData\Local\Temp\cc1GSGvG.s 			page 36


 682              	.LFE153:
 684              		.section	.text.shellGetCurrent,"ax",%progbits
 685              		.align	1
 686              		.global	shellGetCurrent
 687              		.syntax unified
 688              		.thumb
 689              		.thumb_func
 690              		.fpu fpv4-sp-d16
 692              	shellGetCurrent:
 693              	.LFB128:
 232:SYS/shell/shell.c ****     for (short i = 0; i < SHELL_MAX_NUMBER; i++)
 694              		.loc 1 232 1 is_stmt 1 view -0
 695              		.cfi_startproc
 696              		@ args = 0, pretend = 0, frame = 0
 697              		@ frame_needed = 0, uses_anonymous_args = 0
 698              		@ link register save eliminated.
 233:SYS/shell/shell.c ****     {
 699              		.loc 1 233 5 view .LVU220
 700              	.LBB7:
 233:SYS/shell/shell.c ****     {
 701              		.loc 1 233 10 view .LVU221
 702              	.LVL61:
 233:SYS/shell/shell.c ****     {
 703              		.loc 1 233 16 is_stmt 0 view .LVU222
 704 0000 0023     		movs	r3, #0
 233:SYS/shell/shell.c ****     {
 705              		.loc 1 233 5 view .LVU223
 706 0002 01E0     		b	.L63
 707              	.LVL62:
 708              	.L64:
 233:SYS/shell/shell.c ****     {
 709              		.loc 1 233 45 is_stmt 1 discriminator 2 view .LVU224
 233:SYS/shell/shell.c ****     {
 710              		.loc 1 233 46 is_stmt 0 discriminator 2 view .LVU225
 711 0004 0133     		adds	r3, r3, #1
 712              	.LVL63:
 233:SYS/shell/shell.c ****     {
 713              		.loc 1 233 46 discriminator 2 view .LVU226
 714 0006 1BB2     		sxth	r3, r3
 715              	.LVL64:
 716              	.L63:
 233:SYS/shell/shell.c ****     {
 717              		.loc 1 233 23 is_stmt 1 discriminator 1 view .LVU227
 233:SYS/shell/shell.c ****     {
 718              		.loc 1 233 5 is_stmt 0 discriminator 1 view .LVU228
 719 0008 042B     		cmp	r3, #4
 720 000a 0ADC     		bgt	.L67
 235:SYS/shell/shell.c ****         {
 721              		.loc 1 235 9 is_stmt 1 view .LVU229
 235:SYS/shell/shell.c ****         {
 722              		.loc 1 235 22 is_stmt 0 view .LVU230
 723 000c 064A     		ldr	r2, .L68
 724 000e 52F82300 		ldr	r0, [r2, r3, lsl #2]
 235:SYS/shell/shell.c ****         {
 725              		.loc 1 235 12 view .LVU231
 726 0012 0028     		cmp	r0, #0
 727 0014 F6D0     		beq	.L64
ARM GAS  C:\Users\huav\AppData\Local\Temp\cc1GSGvG.s 			page 37


 235:SYS/shell/shell.c ****         {
 728              		.loc 1 235 26 discriminator 1 view .LVU232
 729 0016 90F86020 		ldrb	r2, [r0, #96]	@ zero_extendqisi2
 730 001a 12F0020F 		tst	r2, #2
 731 001e F1D0     		beq	.L64
 732 0020 00E0     		b	.L62
 733              	.L67:
 734              	.LBE7:
 240:SYS/shell/shell.c **** }
 735              		.loc 1 240 12 view .LVU233
 736 0022 0020     		movs	r0, #0
 737              	.L62:
 241:SYS/shell/shell.c **** 
 738              		.loc 1 241 1 view .LVU234
 739 0024 7047     		bx	lr
 740              	.L69:
 741 0026 00BF     		.align	2
 742              	.L68:
 743 0028 00000000 		.word	.LANCHOR0
 744              		.cfi_endproc
 745              	.LFE128:
 747              		.section	.text.shellWriteByte,"ax",%progbits
 748              		.align	1
 749              		.global	shellWriteByte
 750              		.syntax unified
 751              		.thumb
 752              		.thumb_func
 753              		.fpu fpv4-sp-d16
 755              	shellWriteByte:
 756              	.LVL65:
 757              	.LFB129:
 250:SYS/shell/shell.c ****     shell->write(data);
 758              		.loc 1 250 1 is_stmt 1 view -0
 759              		.cfi_startproc
 760              		@ args = 0, pretend = 0, frame = 0
 761              		@ frame_needed = 0, uses_anonymous_args = 0
 250:SYS/shell/shell.c ****     shell->write(data);
 762              		.loc 1 250 1 is_stmt 0 view .LVU236
 763 0000 08B5     		push	{r3, lr}
 764              	.LCFI5:
 765              		.cfi_def_cfa_offset 8
 766              		.cfi_offset 3, -8
 767              		.cfi_offset 14, -4
 251:SYS/shell/shell.c **** }
 768              		.loc 1 251 5 is_stmt 1 view .LVU237
 251:SYS/shell/shell.c **** }
 769              		.loc 1 251 10 is_stmt 0 view .LVU238
 770 0002 836E     		ldr	r3, [r0, #104]
 251:SYS/shell/shell.c **** }
 771              		.loc 1 251 5 view .LVU239
 772 0004 0846     		mov	r0, r1
 773              	.LVL66:
 251:SYS/shell/shell.c **** }
 774              		.loc 1 251 5 view .LVU240
 775 0006 9847     		blx	r3
 776              	.LVL67:
 252:SYS/shell/shell.c **** 
ARM GAS  C:\Users\huav\AppData\Local\Temp\cc1GSGvG.s 			page 38


 777              		.loc 1 252 1 view .LVU241
 778 0008 08BD     		pop	{r3, pc}
 779              		.cfi_endproc
 780              	.LFE129:
 782              		.section	.text.shellRight,"ax",%progbits
 783              		.align	1
 784              		.global	shellRight
 785              		.syntax unified
 786              		.thumb
 787              		.thumb_func
 788              		.fpu fpv4-sp-d16
 790              	shellRight:
 791              	.LVL68:
 792              	.LFB169:
1237:SYS/shell/shell.c **** 
1238:SYS/shell/shell.c **** /**
1239:SYS/shell/shell.c ****  * @brief shell历史记录查找
1240:SYS/shell/shell.c ****  * 
1241:SYS/shell/shell.c ****  * @param shell shell对象
1242:SYS/shell/shell.c ****  * @param dir 方向 {@code <0}往上查找 {@code >0}往下查找
1243:SYS/shell/shell.c ****  */
1244:SYS/shell/shell.c **** static void shellHistory(Shell *shell, signed char dir)
1245:SYS/shell/shell.c **** {
1246:SYS/shell/shell.c ****     if (dir > 0)
1247:SYS/shell/shell.c ****     {
1248:SYS/shell/shell.c ****         if (shell->history.offset-- <=
1249:SYS/shell/shell.c ****             -((shell->history.number > shell->history.record) ? shell->history.number : shell->hist
1250:SYS/shell/shell.c ****         {
1251:SYS/shell/shell.c ****             shell->history.offset = -((shell->history.number > shell->history.record)
1252:SYS/shell/shell.c ****                                           ? shell->history.number
1253:SYS/shell/shell.c ****                                           : shell->history.record);
1254:SYS/shell/shell.c ****         }
1255:SYS/shell/shell.c ****     }
1256:SYS/shell/shell.c ****     else if (dir < 0)
1257:SYS/shell/shell.c ****     {
1258:SYS/shell/shell.c ****         if (++shell->history.offset > 0)
1259:SYS/shell/shell.c ****         {
1260:SYS/shell/shell.c ****             shell->history.offset = 0;
1261:SYS/shell/shell.c ****             return;
1262:SYS/shell/shell.c ****         }
1263:SYS/shell/shell.c ****     }
1264:SYS/shell/shell.c ****     else
1265:SYS/shell/shell.c ****     {
1266:SYS/shell/shell.c ****         return;
1267:SYS/shell/shell.c ****     }
1268:SYS/shell/shell.c ****     shellClearCommandLine(shell);
1269:SYS/shell/shell.c ****     if (shell->history.offset == 0)
1270:SYS/shell/shell.c ****     {
1271:SYS/shell/shell.c ****         shell->parser.cursor = shell->parser.length = 0;
1272:SYS/shell/shell.c ****     }
1273:SYS/shell/shell.c ****     else
1274:SYS/shell/shell.c ****     {
1275:SYS/shell/shell.c ****         if ((shell->parser.length = shellStringCopy(shell->parser.buffer,
1276:SYS/shell/shell.c ****                                                     shell->history.item[(shell->history.record + SH
1277:SYS/shell/shell.c ****         {
1278:SYS/shell/shell.c ****             return;
1279:SYS/shell/shell.c ****         }
ARM GAS  C:\Users\huav\AppData\Local\Temp\cc1GSGvG.s 			page 39


1280:SYS/shell/shell.c ****         shell->parser.cursor = shell->parser.length;
1281:SYS/shell/shell.c ****         shellWriteString(shell, shell->parser.buffer);
1282:SYS/shell/shell.c ****     }
1283:SYS/shell/shell.c **** }
1284:SYS/shell/shell.c **** 
1285:SYS/shell/shell.c **** /**
1286:SYS/shell/shell.c ****  * @brief shell 常规输入
1287:SYS/shell/shell.c ****  * 
1288:SYS/shell/shell.c ****  * @param shell shell 对象
1289:SYS/shell/shell.c ****  * @param data 输入字符
1290:SYS/shell/shell.c ****  */
1291:SYS/shell/shell.c **** void shellNormalInput(Shell *shell, char data)
1292:SYS/shell/shell.c **** {
1293:SYS/shell/shell.c ****     shell->status.tabFlag = 0;
1294:SYS/shell/shell.c ****     shellInsertByte(shell, data);
1295:SYS/shell/shell.c **** }
1296:SYS/shell/shell.c **** 
1297:SYS/shell/shell.c **** /**
1298:SYS/shell/shell.c ****  * @brief shell运行命令
1299:SYS/shell/shell.c ****  * 
1300:SYS/shell/shell.c ****  * @param shell shell对象
1301:SYS/shell/shell.c ****  */
1302:SYS/shell/shell.c **** void shellExec(Shell *shell)
1303:SYS/shell/shell.c **** {
1304:SYS/shell/shell.c **** 
1305:SYS/shell/shell.c ****     if (shell->parser.length == 0)
1306:SYS/shell/shell.c ****     {
1307:SYS/shell/shell.c ****         return;
1308:SYS/shell/shell.c ****     }
1309:SYS/shell/shell.c **** 
1310:SYS/shell/shell.c ****     shell->parser.buffer[shell->parser.length] = 0;
1311:SYS/shell/shell.c **** 
1312:SYS/shell/shell.c ****     if (shell->status.isChecked)
1313:SYS/shell/shell.c ****     {
1314:SYS/shell/shell.c ****         shellHistoryAdd(shell);
1315:SYS/shell/shell.c ****         shellParserParam(shell);
1316:SYS/shell/shell.c ****         shell->parser.length = shell->parser.cursor = 0;
1317:SYS/shell/shell.c ****         if (shell->parser.paramCount == 0)
1318:SYS/shell/shell.c ****         {
1319:SYS/shell/shell.c ****             return;
1320:SYS/shell/shell.c ****         }
1321:SYS/shell/shell.c ****         shellWriteString(shell, "\r\n");
1322:SYS/shell/shell.c **** 
1323:SYS/shell/shell.c ****         ShellCommand *command = shellSeekCommand(shell,
1324:SYS/shell/shell.c ****                                                  shell->parser.param[0],
1325:SYS/shell/shell.c ****                                                  shell->commandList.base,
1326:SYS/shell/shell.c ****                                                  0);
1327:SYS/shell/shell.c ****         if (command != NULL)
1328:SYS/shell/shell.c ****         {
1329:SYS/shell/shell.c ****             shellRunCommand(shell, command);
1330:SYS/shell/shell.c ****         }
1331:SYS/shell/shell.c ****         else
1332:SYS/shell/shell.c ****         {
1333:SYS/shell/shell.c ****             shellWriteString(shell, shellText[SHELL_TEXT_CMD_NOT_FOUND]);
1334:SYS/shell/shell.c ****         }
1335:SYS/shell/shell.c ****     }
1336:SYS/shell/shell.c ****     else
ARM GAS  C:\Users\huav\AppData\Local\Temp\cc1GSGvG.s 			page 40


1337:SYS/shell/shell.c ****     {
1338:SYS/shell/shell.c ****         shellCheckPassword(shell);
1339:SYS/shell/shell.c ****     }
1340:SYS/shell/shell.c **** }
1341:SYS/shell/shell.c **** 
1342:SYS/shell/shell.c **** /**
1343:SYS/shell/shell.c ****  * @brief shell上方向键输入
1344:SYS/shell/shell.c ****  * 
1345:SYS/shell/shell.c ****  * @param shell shell对象
1346:SYS/shell/shell.c ****  */
1347:SYS/shell/shell.c **** void shellUp(Shell *shell)
1348:SYS/shell/shell.c **** {
1349:SYS/shell/shell.c ****     shellHistory(shell, 1);
1350:SYS/shell/shell.c **** }
1351:SYS/shell/shell.c **** SHELL_EXPORT_KEY(SHELL_CMD_PERMISSION(0), 0x1B5B4100, shellUp, up);
1352:SYS/shell/shell.c **** 
1353:SYS/shell/shell.c **** /**
1354:SYS/shell/shell.c ****  * @brief shell下方向键输入
1355:SYS/shell/shell.c ****  * 
1356:SYS/shell/shell.c ****  * @param shell shell对象
1357:SYS/shell/shell.c ****  */
1358:SYS/shell/shell.c **** void shellDown(Shell *shell)
1359:SYS/shell/shell.c **** {
1360:SYS/shell/shell.c ****     shellHistory(shell, -1);
1361:SYS/shell/shell.c **** }
1362:SYS/shell/shell.c **** SHELL_EXPORT_KEY(SHELL_CMD_PERMISSION(0), 0x1B5B4200, shellDown, down);
1363:SYS/shell/shell.c **** 
1364:SYS/shell/shell.c **** /**
1365:SYS/shell/shell.c ****  * @brief shell右方向键输入
1366:SYS/shell/shell.c ****  * 
1367:SYS/shell/shell.c ****  * @param shell shell对象
1368:SYS/shell/shell.c ****  */
1369:SYS/shell/shell.c **** void shellRight(Shell *shell)
1370:SYS/shell/shell.c **** {
 793              		.loc 1 1370 1 is_stmt 1 view -0
 794              		.cfi_startproc
 795              		@ args = 0, pretend = 0, frame = 0
 796              		@ frame_needed = 0, uses_anonymous_args = 0
 797              		.loc 1 1370 1 is_stmt 0 view .LVU243
 798 0000 08B5     		push	{r3, lr}
 799              	.LCFI6:
 800              		.cfi_def_cfa_offset 8
 801              		.cfi_offset 3, -8
 802              		.cfi_offset 14, -4
1371:SYS/shell/shell.c ****     if (shell->parser.cursor < shell->parser.length)
 803              		.loc 1 1371 5 is_stmt 1 view .LVU244
 804              		.loc 1 1371 22 is_stmt 0 view .LVU245
 805 0002 C389     		ldrh	r3, [r0, #14]
 806              		.loc 1 1371 45 view .LVU246
 807 0004 8289     		ldrh	r2, [r0, #12]
 808              		.loc 1 1371 8 view .LVU247
 809 0006 9342     		cmp	r3, r2
 810 0008 00D3     		bcc	.L75
 811              	.LVL69:
 812              	.L72:
1372:SYS/shell/shell.c ****     {
1373:SYS/shell/shell.c ****         shellWriteByte(shell, shell->parser.buffer[shell->parser.cursor++]);
ARM GAS  C:\Users\huav\AppData\Local\Temp\cc1GSGvG.s 			page 41


1374:SYS/shell/shell.c ****     }
1375:SYS/shell/shell.c **** }
 813              		.loc 1 1375 1 view .LVU248
 814 000a 08BD     		pop	{r3, pc}
 815              	.LVL70:
 816              	.L75:
1373:SYS/shell/shell.c ****     }
 817              		.loc 1 1373 9 is_stmt 1 view .LVU249
1373:SYS/shell/shell.c ****     }
 818              		.loc 1 1373 44 is_stmt 0 view .LVU250
 819 000c 0269     		ldr	r2, [r0, #16]
1373:SYS/shell/shell.c ****     }
 820              		.loc 1 1373 72 view .LVU251
 821 000e 591C     		adds	r1, r3, #1
 822 0010 C181     		strh	r1, [r0, #14]	@ movhi
1373:SYS/shell/shell.c ****     }
 823              		.loc 1 1373 9 view .LVU252
 824 0012 D15C     		ldrb	r1, [r2, r3]	@ zero_extendqisi2
 825 0014 FFF7FEFF 		bl	shellWriteByte
 826              	.LVL71:
 827              		.loc 1 1375 1 view .LVU253
 828 0018 F7E7     		b	.L72
 829              		.cfi_endproc
 830              	.LFE169:
 832              		.section	.text.shellLeft,"ax",%progbits
 833              		.align	1
 834              		.global	shellLeft
 835              		.syntax unified
 836              		.thumb
 837              		.thumb_func
 838              		.fpu fpv4-sp-d16
 840              	shellLeft:
 841              	.LVL72:
 842              	.LFB170:
1376:SYS/shell/shell.c **** SHELL_EXPORT_KEY(SHELL_CMD_PERMISSION(0) | SHELL_CMD_ENABLE_UNCHECKED,
1377:SYS/shell/shell.c ****                  0x1B5B4300, shellRight, right);
1378:SYS/shell/shell.c **** 
1379:SYS/shell/shell.c **** /**
1380:SYS/shell/shell.c ****  * @brief shell左方向键输入
1381:SYS/shell/shell.c ****  * 
1382:SYS/shell/shell.c ****  * @param shell shell对象
1383:SYS/shell/shell.c ****  */
1384:SYS/shell/shell.c **** void shellLeft(Shell *shell)
1385:SYS/shell/shell.c **** {
 843              		.loc 1 1385 1 is_stmt 1 view -0
 844              		.cfi_startproc
 845              		@ args = 0, pretend = 0, frame = 0
 846              		@ frame_needed = 0, uses_anonymous_args = 0
1386:SYS/shell/shell.c ****     if (shell->parser.cursor > 0)
 847              		.loc 1 1386 5 view .LVU255
 848              		.loc 1 1386 22 is_stmt 0 view .LVU256
 849 0000 C389     		ldrh	r3, [r0, #14]
 850              		.loc 1 1386 8 view .LVU257
 851 0002 03B9     		cbnz	r3, .L82
 852 0004 7047     		bx	lr
 853              	.L82:
1385:SYS/shell/shell.c ****     if (shell->parser.cursor > 0)
ARM GAS  C:\Users\huav\AppData\Local\Temp\cc1GSGvG.s 			page 42


 854              		.loc 1 1385 1 view .LVU258
 855 0006 10B5     		push	{r4, lr}
 856              	.LCFI7:
 857              		.cfi_def_cfa_offset 8
 858              		.cfi_offset 4, -8
 859              		.cfi_offset 14, -4
 860 0008 0446     		mov	r4, r0
1387:SYS/shell/shell.c ****     {
1388:SYS/shell/shell.c ****         shellWriteByte(shell, '\b');
 861              		.loc 1 1388 9 is_stmt 1 view .LVU259
 862 000a 0821     		movs	r1, #8
 863 000c FFF7FEFF 		bl	shellWriteByte
 864              	.LVL73:
1389:SYS/shell/shell.c ****         shell->parser.cursor--;
 865              		.loc 1 1389 9 view .LVU260
 866              		.loc 1 1389 22 is_stmt 0 view .LVU261
 867 0010 E389     		ldrh	r3, [r4, #14]
 868              		.loc 1 1389 29 view .LVU262
 869 0012 013B     		subs	r3, r3, #1
 870 0014 E381     		strh	r3, [r4, #14]	@ movhi
1390:SYS/shell/shell.c ****     }
1391:SYS/shell/shell.c **** }
 871              		.loc 1 1391 1 view .LVU263
 872 0016 10BD     		pop	{r4, pc}
 873              		.loc 1 1391 1 view .LVU264
 874              		.cfi_endproc
 875              	.LFE170:
 877              		.section	.text.shellWriteString,"ax",%progbits
 878              		.align	1
 879              		.global	shellWriteString
 880              		.syntax unified
 881              		.thumb
 882              		.thumb_func
 883              		.fpu fpv4-sp-d16
 885              	shellWriteString:
 886              	.LVL74:
 887              	.LFB130:
 263:SYS/shell/shell.c ****     unsigned short count = 0;
 888              		.loc 1 263 1 is_stmt 1 view -0
 889              		.cfi_startproc
 890              		@ args = 0, pretend = 0, frame = 0
 891              		@ frame_needed = 0, uses_anonymous_args = 0
 263:SYS/shell/shell.c ****     unsigned short count = 0;
 892              		.loc 1 263 1 is_stmt 0 view .LVU266
 893 0000 70B5     		push	{r4, r5, r6, lr}
 894              	.LCFI8:
 895              		.cfi_def_cfa_offset 16
 896              		.cfi_offset 4, -16
 897              		.cfi_offset 5, -12
 898              		.cfi_offset 6, -8
 899              		.cfi_offset 14, -4
 264:SYS/shell/shell.c ****     SHELL_ASSERT(shell->write, return 0);
 900              		.loc 1 264 5 is_stmt 1 view .LVU267
 901              	.LVL75:
 265:SYS/shell/shell.c ****     while (*string)
 902              		.loc 1 265 5 view .LVU268
 903 0002 836E     		ldr	r3, [r0, #104]
ARM GAS  C:\Users\huav\AppData\Local\Temp\cc1GSGvG.s 			page 43


 904 0004 6BB1     		cbz	r3, .L87
 905 0006 0646     		mov	r6, r0
 906 0008 0D46     		mov	r5, r1
 264:SYS/shell/shell.c ****     SHELL_ASSERT(shell->write, return 0);
 907              		.loc 1 264 20 is_stmt 0 view .LVU269
 908 000a 0024     		movs	r4, #0
 909 000c 04E0     		b	.L85
 910              	.LVL76:
 911              	.L86:
 268:SYS/shell/shell.c ****         count++;
 912              		.loc 1 268 9 is_stmt 1 view .LVU270
 268:SYS/shell/shell.c ****         count++;
 913              		.loc 1 268 14 is_stmt 0 view .LVU271
 914 000e B36E     		ldr	r3, [r6, #104]
 268:SYS/shell/shell.c ****         count++;
 915              		.loc 1 268 29 view .LVU272
 916 0010 0135     		adds	r5, r5, #1
 917              	.LVL77:
 268:SYS/shell/shell.c ****         count++;
 918              		.loc 1 268 9 view .LVU273
 919 0012 9847     		blx	r3
 920              	.LVL78:
 269:SYS/shell/shell.c ****     }
 921              		.loc 1 269 9 is_stmt 1 view .LVU274
 269:SYS/shell/shell.c ****     }
 922              		.loc 1 269 14 is_stmt 0 view .LVU275
 923 0014 0134     		adds	r4, r4, #1
 924              	.LVL79:
 269:SYS/shell/shell.c ****     }
 925              		.loc 1 269 14 view .LVU276
 926 0016 A4B2     		uxth	r4, r4
 927              	.LVL80:
 928              	.L85:
 266:SYS/shell/shell.c ****     {
 929              		.loc 1 266 11 is_stmt 1 view .LVU277
 266:SYS/shell/shell.c ****     {
 930              		.loc 1 266 12 is_stmt 0 view .LVU278
 931 0018 2878     		ldrb	r0, [r5]	@ zero_extendqisi2
 266:SYS/shell/shell.c ****     {
 932              		.loc 1 266 11 view .LVU279
 933 001a 0028     		cmp	r0, #0
 934 001c F7D1     		bne	.L86
 935              	.LVL81:
 936              	.L84:
 272:SYS/shell/shell.c **** 
 937              		.loc 1 272 1 view .LVU280
 938 001e 2046     		mov	r0, r4
 939 0020 70BD     		pop	{r4, r5, r6, pc}
 940              	.LVL82:
 941              	.L87:
 265:SYS/shell/shell.c ****     while (*string)
 942              		.loc 1 265 5 view .LVU281
 943 0022 0024     		movs	r4, #0
 944 0024 FBE7     		b	.L84
 945              		.cfi_endproc
 946              	.LFE130:
 948              		.section	.rodata.shellSetUser.str1.4,"aMS",%progbits,1
ARM GAS  C:\Users\huav\AppData\Local\Temp\cc1GSGvG.s 			page 44


 949              		.align	2
 950              	.LC0:
 951 0000 1B5B324A 		.ascii	"\033[2J\033[1H\000"
 951      1B5B3148 
 951      00
 952 0009 000000   		.align	2
 953              	.LC1:
 954 000c 0D0A2020 		.ascii	"\015\012  ____    _      _       ___      _        "
 954      5F5F5F5F 
 954      20202020 
 954      5F202020 
 954      2020205F 
 955 0039 20202020 		.ascii	"           \015\012 |    \\  /_\\    | |     | _ \\"
 955      20202020 
 955      2020200D 
 955      0A207C20 
 955      2020205C 
 956 0063 2020207C 		.ascii	"   | |              ___ \015\012 |    |   _   __| |"
 956      207C2020 
 956      20202020 
 956      20202020 
 956      20202020 
 957 0090 5F5F2020 		.ascii	"__   ||_|/ __| |__   ___    //    \015\012 |----/  "
 957      207C7C5F 
 957      7C2F205F 
 957      5F7C207C 
 957      5F5F2020 
 958 00bd 7C207C20 		.ascii	"| | |__   __|  |  \\ |__   __|  //   \\  \\__    \015"
 958      7C5F5F20 
 958      20205F5F 
 958      7C20207C 
 958      20205C20 
 959 00ec 0A207C20 		.ascii	"\012 |    |  | |    | |_    | |\\    | |_   ||   ||"
 959      2020207C 
 959      20207C20 
 959      7C202020 
 959      207C207C 
 960 011b 20202020 		.ascii	"      \\  \015\012 \\____/  |_|    |___/   |_| \\  "
 960      20205C20 
 960      200D0A20 
 960      5C5F5F5F 
 960      5F2F2020 
 961 0145 207C5F5F 		.ascii	" |___/   \\___//   ___//  \015\012\015\012Build:   "
 961      5F2F2020 
 961      205C5F5F 
 961      5F2F2F20 
 961      20205F5F 
 962 016b 20202020 		.ascii	"    Nov 25 2021 18:58:13\015\012Version:     3.0.6\015"
 962      4E6F7620 
 962      32352032 
 962      30323120 
 962      31383A35 
 963 0198 0A00     		.ascii	"\012\000"
 964              		.section	.text.shellSetUser,"ax",%progbits
 965              		.align	1
 966              		.syntax unified
 967              		.thumb
ARM GAS  C:\Users\huav\AppData\Local\Temp\cc1GSGvG.s 			page 45


 968              		.thumb_func
 969              		.fpu fpv4-sp-d16
 971              	shellSetUser:
 972              	.LVL83:
 973              	.LFB161:
1171:SYS/shell/shell.c ****     shell->info.user = user;
 974              		.loc 1 1171 1 is_stmt 1 view -0
 975              		.cfi_startproc
 976              		@ args = 0, pretend = 0, frame = 0
 977              		@ frame_needed = 0, uses_anonymous_args = 0
1171:SYS/shell/shell.c ****     shell->info.user = user;
 978              		.loc 1 1171 1 is_stmt 0 view .LVU283
 979 0000 10B5     		push	{r4, lr}
 980              	.LCFI9:
 981              		.cfi_def_cfa_offset 8
 982              		.cfi_offset 4, -8
 983              		.cfi_offset 14, -4
 984 0002 0446     		mov	r4, r0
1172:SYS/shell/shell.c ****     shell->status.isChecked =
 985              		.loc 1 1172 5 is_stmt 1 view .LVU284
1172:SYS/shell/shell.c ****     shell->status.isChecked =
 986              		.loc 1 1172 22 is_stmt 0 view .LVU285
 987 0004 0160     		str	r1, [r0]
1173:SYS/shell/shell.c ****         ((user->data.user.password && strlen(user->data.user.password) != 0) && (shell->parser.para
 988              		.loc 1 1173 5 is_stmt 1 view .LVU286
1174:SYS/shell/shell.c ****             ? 0
 989              		.loc 1 1174 26 is_stmt 0 view .LVU287
 990 0006 8868     		ldr	r0, [r1, #8]
 991              	.LVL84:
1176:SYS/shell/shell.c **** 
 992              		.loc 1 1176 13 view .LVU288
 993 0008 50B1     		cbz	r0, .L92
1174:SYS/shell/shell.c ****             ? 0
 994              		.loc 1 1174 72 view .LVU289
 995 000a 0378     		ldrb	r3, [r0]	@ zero_extendqisi2
1174:SYS/shell/shell.c ****             ? 0
 996              		.loc 1 1174 36 view .LVU290
 997 000c 53B1     		cbz	r3, .L93
1174:SYS/shell/shell.c ****             ? 0
 998              		.loc 1 1174 95 discriminator 1 view .LVU291
 999 000e E38E     		ldrh	r3, [r4, #54]
1176:SYS/shell/shell.c **** 
 1000              		.loc 1 1176 13 discriminator 1 view .LVU292
 1001 0010 012B     		cmp	r3, #1
 1002 0012 18D9     		bls	.L94
1174:SYS/shell/shell.c ****             ? 0
 1003              		.loc 1 1174 114 view .LVU293
 1004 0014 A169     		ldr	r1, [r4, #24]
 1005              	.LVL85:
1174:SYS/shell/shell.c ****             ? 0
 1006              		.loc 1 1174 114 view .LVU294
 1007 0016 FFF7FEFF 		bl	strcmp
 1008              	.LVL86:
1174:SYS/shell/shell.c ****             ? 0
 1009              		.loc 1 1174 111 view .LVU295
 1010 001a B0B1     		cbz	r0, .L95
1176:SYS/shell/shell.c **** 
ARM GAS  C:\Users\huav\AppData\Local\Temp\cc1GSGvG.s 			page 46


 1011              		.loc 1 1176 13 view .LVU296
 1012 001c 0022     		movs	r2, #0
 1013 001e 02E0     		b	.L90
 1014              	.LVL87:
 1015              	.L92:
1176:SYS/shell/shell.c **** 
 1016              		.loc 1 1176 13 view .LVU297
 1017 0020 0122     		movs	r2, #1
 1018 0022 00E0     		b	.L90
 1019              	.L93:
 1020 0024 0122     		movs	r2, #1
 1021              	.LVL88:
 1022              	.L90:
1173:SYS/shell/shell.c ****         ((user->data.user.password && strlen(user->data.user.password) != 0) && (shell->parser.para
 1023              		.loc 1 1173 29 discriminator 4 view .LVU298
 1024 0026 94F86030 		ldrb	r3, [r4, #96]	@ zero_extendqisi2
 1025 002a 62F30003 		bfi	r3, r2, #0, #1
 1026 002e 84F86030 		strb	r3, [r4, #96]
1179:SYS/shell/shell.c **** #endif
 1027              		.loc 1 1179 5 is_stmt 1 discriminator 4 view .LVU299
 1028 0032 0949     		ldr	r1, .L98
 1029 0034 2046     		mov	r0, r4
 1030 0036 FFF7FEFF 		bl	shellWriteString
 1031              	.LVL89:
1182:SYS/shell/shell.c ****     {
 1032              		.loc 1 1182 5 discriminator 4 view .LVU300
1182:SYS/shell/shell.c ****     {
 1033              		.loc 1 1182 9 is_stmt 0 discriminator 4 view .LVU301
 1034 003a 94F86030 		ldrb	r3, [r4, #96]	@ zero_extendqisi2
1182:SYS/shell/shell.c ****     {
 1035              		.loc 1 1182 8 discriminator 4 view .LVU302
 1036 003e 13F0010F 		tst	r3, #1
 1037 0042 04D1     		bne	.L97
 1038              	.L89:
1187:SYS/shell/shell.c **** 
 1039              		.loc 1 1187 1 view .LVU303
 1040 0044 10BD     		pop	{r4, pc}
 1041              	.LVL90:
 1042              	.L94:
1176:SYS/shell/shell.c **** 
 1043              		.loc 1 1176 13 view .LVU304
 1044 0046 0022     		movs	r2, #0
 1045 0048 EDE7     		b	.L90
 1046              	.LVL91:
 1047              	.L95:
1176:SYS/shell/shell.c **** 
 1048              		.loc 1 1176 13 view .LVU305
 1049 004a 0122     		movs	r2, #1
 1050 004c EBE7     		b	.L90
 1051              	.L97:
1184:SYS/shell/shell.c ****     }
 1052              		.loc 1 1184 9 is_stmt 1 view .LVU306
 1053 004e 0349     		ldr	r1, .L98+4
 1054 0050 2046     		mov	r0, r4
 1055 0052 FFF7FEFF 		bl	shellWriteString
 1056              	.LVL92:
1187:SYS/shell/shell.c **** 
ARM GAS  C:\Users\huav\AppData\Local\Temp\cc1GSGvG.s 			page 47


 1057              		.loc 1 1187 1 is_stmt 0 view .LVU307
 1058 0056 F5E7     		b	.L89
 1059              	.L99:
 1060              		.align	2
 1061              	.L98:
 1062 0058 00000000 		.word	.LC0
 1063 005c 0C000000 		.word	.LC1
 1064              		.cfi_endproc
 1065              	.LFE161:
 1067              		.section	.rodata.shellWriteCommandLine.str1.4,"aMS",%progbits,1
 1068              		.align	2
 1069              	.LC2:
 1070 0000 2F00     		.ascii	"/\000"
 1071 0002 0000     		.align	2
 1072              	.LC3:
 1073 0004 0D0A00   		.ascii	"\015\012\000"
 1074 0007 00       		.align	2
 1075              	.LC4:
 1076 0008 3A00     		.ascii	":\000"
 1077 000a 0000     		.align	2
 1078              	.LC5:
 1079 000c 242000   		.ascii	"$ \000"
 1080 000f 00       		.align	2
 1081              	.LC6:
 1082 0010 0D0A506C 		.ascii	"\015\012Please input password:\000"
 1082      65617365 
 1082      20696E70 
 1082      75742070 
 1082      61737377 
 1083              		.section	.text.shellWriteCommandLine,"ax",%progbits
 1084              		.align	1
 1085              		.syntax unified
 1086              		.thumb
 1087              		.thumb_func
 1088              		.fpu fpv4-sp-d16
 1090              	shellWriteCommandLine:
 1091              	.LVL93:
 1092              	.LFB132:
 308:SYS/shell/shell.c ****     if (shell->status.isChecked)
 1093              		.loc 1 308 1 is_stmt 1 view -0
 1094              		.cfi_startproc
 1095              		@ args = 0, pretend = 0, frame = 0
 1096              		@ frame_needed = 0, uses_anonymous_args = 0
 308:SYS/shell/shell.c ****     if (shell->status.isChecked)
 1097              		.loc 1 308 1 is_stmt 0 view .LVU309
 1098 0000 10B5     		push	{r4, lr}
 1099              	.LCFI10:
 1100              		.cfi_def_cfa_offset 8
 1101              		.cfi_offset 4, -8
 1102              		.cfi_offset 14, -4
 1103 0002 0446     		mov	r4, r0
 309:SYS/shell/shell.c ****     {
 1104              		.loc 1 309 5 is_stmt 1 view .LVU310
 309:SYS/shell/shell.c ****     {
 1105              		.loc 1 309 9 is_stmt 0 view .LVU311
 1106 0004 90F86030 		ldrb	r3, [r0, #96]	@ zero_extendqisi2
 309:SYS/shell/shell.c ****     {
ARM GAS  C:\Users\huav\AppData\Local\Temp\cc1GSGvG.s 			page 48


 1107              		.loc 1 309 8 view .LVU312
 1108 0008 13F0010F 		tst	r3, #1
 1109 000c 19D0     		beq	.L101
 311:SYS/shell/shell.c ****         {
 1110              		.loc 1 311 9 is_stmt 1 view .LVU313
 311:SYS/shell/shell.c ****         {
 1111              		.loc 1 311 12 is_stmt 0 view .LVU314
 1112 000e 91B9     		cbnz	r1, .L106
 1113              	.LVL94:
 1114              	.L102:
 315:SYS/shell/shell.c ****         shellWriteString(shell, ":");
 1115              		.loc 1 315 9 is_stmt 1 view .LVU315
 315:SYS/shell/shell.c ****         shellWriteString(shell, ":");
 1116              		.loc 1 315 44 is_stmt 0 view .LVU316
 1117 0010 2368     		ldr	r3, [r4]
 315:SYS/shell/shell.c ****         shellWriteString(shell, ":");
 1118              		.loc 1 315 9 view .LVU317
 1119 0012 5968     		ldr	r1, [r3, #4]
 1120 0014 2046     		mov	r0, r4
 1121 0016 FFF7FEFF 		bl	shellWriteString
 1122              	.LVL95:
 316:SYS/shell/shell.c ****         shellWriteString(shell, shell->info.path ? shell->info.path : "/");
 1123              		.loc 1 316 9 is_stmt 1 view .LVU318
 1124 001a 0C49     		ldr	r1, .L108
 1125 001c 2046     		mov	r0, r4
 1126 001e FFF7FEFF 		bl	shellWriteString
 1127              	.LVL96:
 317:SYS/shell/shell.c ****         shellWriteString(shell, "$ ");
 1128              		.loc 1 317 9 view .LVU319
 317:SYS/shell/shell.c ****         shellWriteString(shell, "$ ");
 1129              		.loc 1 317 44 is_stmt 0 view .LVU320
 1130 0022 A168     		ldr	r1, [r4, #8]
 317:SYS/shell/shell.c ****         shellWriteString(shell, "$ ");
 1131              		.loc 1 317 9 view .LVU321
 1132 0024 59B1     		cbz	r1, .L107
 1133              	.L103:
 317:SYS/shell/shell.c ****         shellWriteString(shell, "$ ");
 1134              		.loc 1 317 9 discriminator 4 view .LVU322
 1135 0026 2046     		mov	r0, r4
 1136 0028 FFF7FEFF 		bl	shellWriteString
 1137              	.LVL97:
 318:SYS/shell/shell.c ****     }
 1138              		.loc 1 318 9 is_stmt 1 discriminator 4 view .LVU323
 1139 002c 0849     		ldr	r1, .L108+4
 1140 002e 2046     		mov	r0, r4
 1141 0030 FFF7FEFF 		bl	shellWriteString
 1142              	.LVL98:
 1143              	.L100:
 324:SYS/shell/shell.c **** 
 1144              		.loc 1 324 1 is_stmt 0 view .LVU324
 1145 0034 10BD     		pop	{r4, pc}
 1146              	.LVL99:
 1147              	.L106:
 313:SYS/shell/shell.c ****         }
 1148              		.loc 1 313 13 is_stmt 1 view .LVU325
 1149 0036 0749     		ldr	r1, .L108+8
 1150              	.LVL100:
ARM GAS  C:\Users\huav\AppData\Local\Temp\cc1GSGvG.s 			page 49


 313:SYS/shell/shell.c ****         }
 1151              		.loc 1 313 13 is_stmt 0 view .LVU326
 1152 0038 FFF7FEFF 		bl	shellWriteString
 1153              	.LVL101:
 313:SYS/shell/shell.c ****         }
 1154              		.loc 1 313 13 view .LVU327
 1155 003c E8E7     		b	.L102
 1156              	.L107:
 317:SYS/shell/shell.c ****         shellWriteString(shell, "$ ");
 1157              		.loc 1 317 9 view .LVU328
 1158 003e 0649     		ldr	r1, .L108+12
 1159 0040 F1E7     		b	.L103
 1160              	.LVL102:
 1161              	.L101:
 322:SYS/shell/shell.c ****     }
 1162              		.loc 1 322 9 is_stmt 1 view .LVU329
 1163 0042 0649     		ldr	r1, .L108+16
 1164              	.LVL103:
 322:SYS/shell/shell.c ****     }
 1165              		.loc 1 322 9 is_stmt 0 view .LVU330
 1166 0044 FFF7FEFF 		bl	shellWriteString
 1167              	.LVL104:
 324:SYS/shell/shell.c **** 
 1168              		.loc 1 324 1 view .LVU331
 1169 0048 F4E7     		b	.L100
 1170              	.L109:
 1171 004a 00BF     		.align	2
 1172              	.L108:
 1173 004c 08000000 		.word	.LC4
 1174 0050 0C000000 		.word	.LC5
 1175 0054 04000000 		.word	.LC3
 1176 0058 00000000 		.word	.LC2
 1177 005c 10000000 		.word	.LC6
 1178              		.cfi_endproc
 1179              	.LFE132:
 1181              		.section	.rodata.shellCheckPassword.str1.4,"aMS",%progbits,1
 1182              		.align	2
 1183              	.LC7:
 1184 0000 0D0A7061 		.ascii	"\015\012password error\015\012\000"
 1184      7373776F 
 1184      72642065 
 1184      72726F72 
 1184      0D0A00
 1185              		.section	.text.shellCheckPassword,"ax",%progbits
 1186              		.align	1
 1187              		.syntax unified
 1188              		.thumb
 1189              		.thumb_func
 1190              		.fpu fpv4-sp-d16
 1192              	shellCheckPassword:
 1193              	.LVL105:
 1194              	.LFB160:
1148:SYS/shell/shell.c ****     if (strcmp(shell->parser.buffer, shell->info.user->data.user.password) == 0)
 1195              		.loc 1 1148 1 is_stmt 1 view -0
 1196              		.cfi_startproc
 1197              		@ args = 0, pretend = 0, frame = 0
 1198              		@ frame_needed = 0, uses_anonymous_args = 0
ARM GAS  C:\Users\huav\AppData\Local\Temp\cc1GSGvG.s 			page 50


1148:SYS/shell/shell.c ****     if (strcmp(shell->parser.buffer, shell->info.user->data.user.password) == 0)
 1199              		.loc 1 1148 1 is_stmt 0 view .LVU333
 1200 0000 10B5     		push	{r4, lr}
 1201              	.LCFI11:
 1202              		.cfi_def_cfa_offset 8
 1203              		.cfi_offset 4, -8
 1204              		.cfi_offset 14, -4
 1205 0002 0446     		mov	r4, r0
1149:SYS/shell/shell.c ****     {
 1206              		.loc 1 1149 5 is_stmt 1 view .LVU334
1149:SYS/shell/shell.c ****     {
 1207              		.loc 1 1149 49 is_stmt 0 view .LVU335
 1208 0004 0368     		ldr	r3, [r0]
1149:SYS/shell/shell.c ****     {
 1209              		.loc 1 1149 9 view .LVU336
 1210 0006 9968     		ldr	r1, [r3, #8]
 1211 0008 0069     		ldr	r0, [r0, #16]
 1212              	.LVL106:
1149:SYS/shell/shell.c ****     {
 1213              		.loc 1 1149 9 view .LVU337
 1214 000a FFF7FEFF 		bl	strcmp
 1215              	.LVL107:
1149:SYS/shell/shell.c ****     {
 1216              		.loc 1 1149 8 view .LVU338
 1217 000e 68B9     		cbnz	r0, .L111
1151:SYS/shell/shell.c **** #if SHELL_SHOW_INFO == 1
 1218              		.loc 1 1151 9 is_stmt 1 view .LVU339
1151:SYS/shell/shell.c **** #if SHELL_SHOW_INFO == 1
 1219              		.loc 1 1151 33 is_stmt 0 view .LVU340
 1220 0010 94F86030 		ldrb	r3, [r4, #96]	@ zero_extendqisi2
 1221 0014 43F00103 		orr	r3, r3, #1
 1222 0018 84F86030 		strb	r3, [r4, #96]
1153:SYS/shell/shell.c **** #endif
 1223              		.loc 1 1153 9 is_stmt 1 view .LVU341
 1224 001c 0649     		ldr	r1, .L114
 1225 001e 2046     		mov	r0, r4
 1226 0020 FFF7FEFF 		bl	shellWriteString
 1227              	.LVL108:
 1228              	.L112:
1160:SYS/shell/shell.c ****     shell->parser.cursor = 0;
 1229              		.loc 1 1160 5 view .LVU342
1160:SYS/shell/shell.c ****     shell->parser.cursor = 0;
 1230              		.loc 1 1160 26 is_stmt 0 view .LVU343
 1231 0024 0023     		movs	r3, #0
 1232 0026 A381     		strh	r3, [r4, #12]	@ movhi
1161:SYS/shell/shell.c **** }
 1233              		.loc 1 1161 5 is_stmt 1 view .LVU344
1161:SYS/shell/shell.c **** }
 1234              		.loc 1 1161 26 is_stmt 0 view .LVU345
 1235 0028 E381     		strh	r3, [r4, #14]	@ movhi
1162:SYS/shell/shell.c **** 
 1236              		.loc 1 1162 1 view .LVU346
 1237 002a 10BD     		pop	{r4, pc}
 1238              	.LVL109:
 1239              	.L111:
1158:SYS/shell/shell.c ****     }
 1240              		.loc 1 1158 9 is_stmt 1 view .LVU347
ARM GAS  C:\Users\huav\AppData\Local\Temp\cc1GSGvG.s 			page 51


 1241 002c 0349     		ldr	r1, .L114+4
 1242 002e 2046     		mov	r0, r4
 1243 0030 FFF7FEFF 		bl	shellWriteString
 1244              	.LVL110:
 1245 0034 F6E7     		b	.L112
 1246              	.L115:
 1247 0036 00BF     		.align	2
 1248              	.L114:
 1249 0038 0C000000 		.word	.LC1
 1250 003c 00000000 		.word	.LC7
 1251              		.cfi_endproc
 1252              	.LFE160:
 1254              		.section	.text.shellClear,"ax",%progbits
 1255              		.align	1
 1256              		.global	shellClear
 1257              		.syntax unified
 1258              		.thumb
 1259              		.thumb_func
 1260              		.fpu fpv4-sp-d16
 1262              	shellClear:
 1263              	.LFB182:
1392:SYS/shell/shell.c **** SHELL_EXPORT_KEY(SHELL_CMD_PERMISSION(0) | SHELL_CMD_ENABLE_UNCHECKED,
1393:SYS/shell/shell.c ****                  0x1B5B4400, shellLeft, left);
1394:SYS/shell/shell.c **** 
1395:SYS/shell/shell.c **** /**
1396:SYS/shell/shell.c ****  * @brief shell Tab按键处理
1397:SYS/shell/shell.c ****  * 
1398:SYS/shell/shell.c ****  * @param shell shell对象
1399:SYS/shell/shell.c ****  */
1400:SYS/shell/shell.c **** void shellTab(Shell *shell)
1401:SYS/shell/shell.c **** {
1402:SYS/shell/shell.c ****     unsigned short maxMatch = shell->parser.bufferSize;
1403:SYS/shell/shell.c ****     unsigned short lastMatchIndex = 0;
1404:SYS/shell/shell.c ****     unsigned short matchNum = 0;
1405:SYS/shell/shell.c ****     unsigned short length;
1406:SYS/shell/shell.c **** 
1407:SYS/shell/shell.c ****     if (shell->parser.length == 0)
1408:SYS/shell/shell.c ****     {
1409:SYS/shell/shell.c ****         shellListAll(shell);
1410:SYS/shell/shell.c ****         shellWriteCommandLine(shell, 1);
1411:SYS/shell/shell.c ****     }
1412:SYS/shell/shell.c ****     else if (shell->parser.length > 0)
1413:SYS/shell/shell.c ****     {
1414:SYS/shell/shell.c ****         shell->parser.buffer[shell->parser.length] = 0;
1415:SYS/shell/shell.c ****         ShellCommand *base = (ShellCommand *)shell->commandList.base;
1416:SYS/shell/shell.c ****         for (short i = 0; i < shell->commandList.count; i++)
1417:SYS/shell/shell.c ****         {
1418:SYS/shell/shell.c ****             if (shellCheckPermission(shell, &base[i]) == 0 && shellStringCompare(shell->parser.buff
1419:SYS/shell/shell.c ****                                                                                  (char *)shellGetCo
1420:SYS/shell/shell.c ****             {
1421:SYS/shell/shell.c ****                 if (matchNum != 0)
1422:SYS/shell/shell.c ****                 {
1423:SYS/shell/shell.c ****                     if (matchNum == 1)
1424:SYS/shell/shell.c ****                     {
1425:SYS/shell/shell.c ****                         shellWriteString(shell, "\r\n");
1426:SYS/shell/shell.c ****                     }
1427:SYS/shell/shell.c ****                     shellListItem(shell, &base[lastMatchIndex]);
ARM GAS  C:\Users\huav\AppData\Local\Temp\cc1GSGvG.s 			page 52


1428:SYS/shell/shell.c ****                     length =
1429:SYS/shell/shell.c ****                         shellStringCompare((char *)shellGetCommandName(&base[lastMatchIndex]),
1430:SYS/shell/shell.c ****                                            (char *)shellGetCommandName(&base[i]));
1431:SYS/shell/shell.c ****                     maxMatch = (maxMatch > length) ? length : maxMatch;
1432:SYS/shell/shell.c ****                 }
1433:SYS/shell/shell.c ****                 lastMatchIndex = i;
1434:SYS/shell/shell.c ****                 matchNum++;
1435:SYS/shell/shell.c ****             }
1436:SYS/shell/shell.c ****         }
1437:SYS/shell/shell.c ****         if (matchNum == 0)
1438:SYS/shell/shell.c ****         {
1439:SYS/shell/shell.c ****             return;
1440:SYS/shell/shell.c ****         }
1441:SYS/shell/shell.c ****         if (matchNum == 1)
1442:SYS/shell/shell.c ****         {
1443:SYS/shell/shell.c ****             shellClearCommandLine(shell);
1444:SYS/shell/shell.c ****         }
1445:SYS/shell/shell.c ****         if (matchNum != 0)
1446:SYS/shell/shell.c ****         {
1447:SYS/shell/shell.c ****             shell->parser.length =
1448:SYS/shell/shell.c ****                 shellStringCopy(shell->parser.buffer,
1449:SYS/shell/shell.c ****                                 (char *)shellGetCommandName(&base[lastMatchIndex]));
1450:SYS/shell/shell.c ****         }
1451:SYS/shell/shell.c ****         if (matchNum > 1)
1452:SYS/shell/shell.c ****         {
1453:SYS/shell/shell.c ****             shellListItem(shell, &base[lastMatchIndex]);
1454:SYS/shell/shell.c ****             shellWriteCommandLine(shell, 1);
1455:SYS/shell/shell.c ****             shell->parser.length = maxMatch;
1456:SYS/shell/shell.c ****         }
1457:SYS/shell/shell.c ****         shell->parser.buffer[shell->parser.length] = 0;
1458:SYS/shell/shell.c ****         shell->parser.cursor = shell->parser.length;
1459:SYS/shell/shell.c ****         shellWriteString(shell, shell->parser.buffer);
1460:SYS/shell/shell.c ****     }
1461:SYS/shell/shell.c **** 
1462:SYS/shell/shell.c ****     if (SHELL_GET_TICK())
1463:SYS/shell/shell.c ****     {
1464:SYS/shell/shell.c ****         if (matchNum == 1 && shell->status.tabFlag && SHELL_GET_TICK() - shell->info.activeTime < S
1465:SYS/shell/shell.c ****         {
1466:SYS/shell/shell.c ****             shellClearCommandLine(shell);
1467:SYS/shell/shell.c ****             for (short i = shell->parser.length; i >= 0; i--)
1468:SYS/shell/shell.c ****             {
1469:SYS/shell/shell.c ****                 shell->parser.buffer[i + 5] = shell->parser.buffer[i];
1470:SYS/shell/shell.c ****             }
1471:SYS/shell/shell.c ****             shellStringCopy(shell->parser.buffer, "help");
1472:SYS/shell/shell.c ****             shell->parser.buffer[4] = ' ';
1473:SYS/shell/shell.c ****             shell->parser.length += 5;
1474:SYS/shell/shell.c ****             shell->parser.cursor = shell->parser.length;
1475:SYS/shell/shell.c ****             shellWriteString(shell, shell->parser.buffer);
1476:SYS/shell/shell.c ****         }
1477:SYS/shell/shell.c ****         else
1478:SYS/shell/shell.c ****         {
1479:SYS/shell/shell.c ****             shell->status.tabFlag = 1;
1480:SYS/shell/shell.c ****         }
1481:SYS/shell/shell.c ****     }
1482:SYS/shell/shell.c **** }
1483:SYS/shell/shell.c **** SHELL_EXPORT_KEY(SHELL_CMD_PERMISSION(0), 0x09000000, shellTab, tab);
1484:SYS/shell/shell.c **** 
ARM GAS  C:\Users\huav\AppData\Local\Temp\cc1GSGvG.s 			page 53


1485:SYS/shell/shell.c **** /**
1486:SYS/shell/shell.c ****  * @brief shell 退格
1487:SYS/shell/shell.c ****  * 
1488:SYS/shell/shell.c ****  * @param shell shell对象
1489:SYS/shell/shell.c ****  */
1490:SYS/shell/shell.c **** void shellBackspace(Shell *shell)
1491:SYS/shell/shell.c **** {
1492:SYS/shell/shell.c ****     shellDeleteByte(shell, 1);
1493:SYS/shell/shell.c **** }
1494:SYS/shell/shell.c **** SHELL_EXPORT_KEY(SHELL_CMD_PERMISSION(0) | SHELL_CMD_ENABLE_UNCHECKED,
1495:SYS/shell/shell.c ****                  0x08000000, shellBackspace, backspace);
1496:SYS/shell/shell.c **** SHELL_EXPORT_KEY(SHELL_CMD_PERMISSION(0) | SHELL_CMD_ENABLE_UNCHECKED,
1497:SYS/shell/shell.c ****                  0x7F000000, shellBackspace, backspace);
1498:SYS/shell/shell.c **** 
1499:SYS/shell/shell.c **** /**
1500:SYS/shell/shell.c ****  * @brief shell 删除
1501:SYS/shell/shell.c ****  * 
1502:SYS/shell/shell.c ****  * @param shell shell对象
1503:SYS/shell/shell.c ****  */
1504:SYS/shell/shell.c **** void shellDelete(Shell *shell)
1505:SYS/shell/shell.c **** {
1506:SYS/shell/shell.c ****     shellDeleteByte(shell, -1);
1507:SYS/shell/shell.c **** }
1508:SYS/shell/shell.c **** SHELL_EXPORT_KEY(SHELL_CMD_PERMISSION(0) | SHELL_CMD_ENABLE_UNCHECKED,
1509:SYS/shell/shell.c ****                  0x1B5B337E, shellDelete, delete);
1510:SYS/shell/shell.c **** 
1511:SYS/shell/shell.c **** /**
1512:SYS/shell/shell.c ****  * @brief shell 回车处理
1513:SYS/shell/shell.c ****  * 
1514:SYS/shell/shell.c ****  * @param shell shell对象
1515:SYS/shell/shell.c ****  */
1516:SYS/shell/shell.c **** void shellEnter(Shell *shell)
1517:SYS/shell/shell.c **** {
1518:SYS/shell/shell.c ****     shellExec(shell);
1519:SYS/shell/shell.c ****     shellWriteCommandLine(shell, 1);
1520:SYS/shell/shell.c **** }
1521:SYS/shell/shell.c **** #if SHELL_ENTER_LF == 1
1522:SYS/shell/shell.c **** SHELL_EXPORT_KEY(SHELL_CMD_PERMISSION(0) | SHELL_CMD_ENABLE_UNCHECKED,
1523:SYS/shell/shell.c ****                  0x0A000000, shellEnter, enter);
1524:SYS/shell/shell.c **** #endif
1525:SYS/shell/shell.c **** #if SHELL_ENTER_CR == 1
1526:SYS/shell/shell.c **** SHELL_EXPORT_KEY(SHELL_CMD_PERMISSION(0) | SHELL_CMD_ENABLE_UNCHECKED,
1527:SYS/shell/shell.c ****                  0x0D000000, shellEnter, enter);
1528:SYS/shell/shell.c **** #endif
1529:SYS/shell/shell.c **** #if SHELL_ENTER_CRLF == 1
1530:SYS/shell/shell.c **** SHELL_EXPORT_KEY(SHELL_CMD_PERMISSION(0) | SHELL_CMD_ENABLE_UNCHECKED,
1531:SYS/shell/shell.c ****                  0x0D0A0000, shellEnter, enter);
1532:SYS/shell/shell.c **** #endif
1533:SYS/shell/shell.c **** 
1534:SYS/shell/shell.c **** /**
1535:SYS/shell/shell.c ****  * @brief shell help
1536:SYS/shell/shell.c ****  * 
1537:SYS/shell/shell.c ****  * @param argc 参数个数
1538:SYS/shell/shell.c ****  * @param argv 参数
1539:SYS/shell/shell.c ****  */
1540:SYS/shell/shell.c **** void shellHelp(int argc, char *argv[])
1541:SYS/shell/shell.c **** {
ARM GAS  C:\Users\huav\AppData\Local\Temp\cc1GSGvG.s 			page 54


1542:SYS/shell/shell.c ****     Shell *shell = shellGetCurrent();
1543:SYS/shell/shell.c ****     SHELL_ASSERT(shell, return );
1544:SYS/shell/shell.c ****     if (argc == 1)
1545:SYS/shell/shell.c ****     {
1546:SYS/shell/shell.c ****         shellListAll(shell);
1547:SYS/shell/shell.c ****     }
1548:SYS/shell/shell.c ****     else if (argc > 1)
1549:SYS/shell/shell.c ****     {
1550:SYS/shell/shell.c ****         ShellCommand *command = shellSeekCommand(shell,
1551:SYS/shell/shell.c ****                                                  argv[1],
1552:SYS/shell/shell.c ****                                                  shell->commandList.base,
1553:SYS/shell/shell.c ****                                                  0);
1554:SYS/shell/shell.c ****         if (command)
1555:SYS/shell/shell.c ****         {
1556:SYS/shell/shell.c ****             shellWriteString(shell, shellText[SHELL_TEXT_HELP_HEADER]);
1557:SYS/shell/shell.c ****             shellWriteString(shell, shellGetCommandName(command));
1558:SYS/shell/shell.c ****             shellWriteString(shell, "\r\n");
1559:SYS/shell/shell.c ****             shellWriteString(shell, shellGetCommandDesc(command));
1560:SYS/shell/shell.c ****             shellWriteString(shell, "\r\n");
1561:SYS/shell/shell.c ****         }
1562:SYS/shell/shell.c ****         else
1563:SYS/shell/shell.c ****         {
1564:SYS/shell/shell.c ****             shellWriteString(shell, shellText[SHELL_TEXT_CMD_NOT_FOUND]);
1565:SYS/shell/shell.c ****         }
1566:SYS/shell/shell.c ****     }
1567:SYS/shell/shell.c **** }
1568:SYS/shell/shell.c **** SHELL_EXPORT_CMD(
1569:SYS/shell/shell.c ****     SHELL_CMD_PERMISSION(0) | SHELL_CMD_TYPE(SHELL_TYPE_CMD_MAIN) | SHELL_CMD_DISABLE_RETURN,
1570:SYS/shell/shell.c ****     help, shellHelp, show command info\r\nhelp[cmd]);
1571:SYS/shell/shell.c **** 
1572:SYS/shell/shell.c **** /**
1573:SYS/shell/shell.c ****  * @brief shell 输入处理
1574:SYS/shell/shell.c ****  * 
1575:SYS/shell/shell.c ****  * @param shell shell对象
1576:SYS/shell/shell.c ****  * @param data 输入数据
1577:SYS/shell/shell.c ****  */
1578:SYS/shell/shell.c **** void shellHandler(Shell *shell, char data)
1579:SYS/shell/shell.c **** {
1580:SYS/shell/shell.c ****     SHELL_ASSERT(data, return );
1581:SYS/shell/shell.c **** 
1582:SYS/shell/shell.c **** #if SHELL_LOCK_TIMEOUT > 0
1583:SYS/shell/shell.c ****     if (shell->info.user->data.user.password && strlen(shell->info.user->data.user.password) != 0 &
1584:SYS/shell/shell.c ****     {
1585:SYS/shell/shell.c ****         if (SHELL_GET_TICK() - shell->info.activeTime > SHELL_LOCK_TIMEOUT)
1586:SYS/shell/shell.c ****         {
1587:SYS/shell/shell.c ****             shell->status.isChecked = 0;
1588:SYS/shell/shell.c ****         }
1589:SYS/shell/shell.c ****     }
1590:SYS/shell/shell.c **** #endif
1591:SYS/shell/shell.c **** 
1592:SYS/shell/shell.c ****     /* 根据记录的按键键值计算当前字节在按键键值中的偏移 */
1593:SYS/shell/shell.c ****     char keyByteOffset = 24;
1594:SYS/shell/shell.c ****     int keyFilter = 0x00000000;
1595:SYS/shell/shell.c ****     if ((shell->parser.keyValue & 0x0000FF00) != 0x00000000)
1596:SYS/shell/shell.c ****     {
1597:SYS/shell/shell.c ****         keyByteOffset = 0;
1598:SYS/shell/shell.c ****         keyFilter = 0xFFFFFF00;
ARM GAS  C:\Users\huav\AppData\Local\Temp\cc1GSGvG.s 			page 55


1599:SYS/shell/shell.c ****     }
1600:SYS/shell/shell.c ****     else if ((shell->parser.keyValue & 0x00FF0000) != 0x00000000)
1601:SYS/shell/shell.c ****     {
1602:SYS/shell/shell.c ****         keyByteOffset = 8;
1603:SYS/shell/shell.c ****         keyFilter = 0xFFFF0000;
1604:SYS/shell/shell.c ****     }
1605:SYS/shell/shell.c ****     else if ((shell->parser.keyValue & 0xFF000000) != 0x00000000)
1606:SYS/shell/shell.c ****     {
1607:SYS/shell/shell.c ****         keyByteOffset = 16;
1608:SYS/shell/shell.c ****         keyFilter = 0xFF000000;
1609:SYS/shell/shell.c ****     }
1610:SYS/shell/shell.c **** 
1611:SYS/shell/shell.c ****     /* 遍历ShellCommand列表，尝试进行按键键值匹配 */
1612:SYS/shell/shell.c ****     ShellCommand *base = (ShellCommand *)shell->commandList.base;
1613:SYS/shell/shell.c ****     for (short i = 0; i < shell->commandList.count; i++)
1614:SYS/shell/shell.c ****     {
1615:SYS/shell/shell.c ****         /* 判断是否是按键定义并验证权限 */
1616:SYS/shell/shell.c ****         if (base[i].attr.attrs.type == SHELL_TYPE_KEY && shellCheckPermission(shell, &(base[i])) ==
1617:SYS/shell/shell.c ****         {
1618:SYS/shell/shell.c ****             /* 对输入的字节同按键键值进行匹配 */
1619:SYS/shell/shell.c ****             if ((base[i].data.key.value & keyFilter) == shell->parser.keyValue && (base[i].data.key
1620:SYS/shell/shell.c ****             {
1621:SYS/shell/shell.c ****                 shell->parser.keyValue |= data << keyByteOffset;
1622:SYS/shell/shell.c ****                 data = 0x00;
1623:SYS/shell/shell.c ****                 if (keyByteOffset == 0 || (base[i].data.key.value & (0xFF << (keyByteOffset - 8))) 
1624:SYS/shell/shell.c ****                 {
1625:SYS/shell/shell.c ****                     if (base[i].data.key.function)
1626:SYS/shell/shell.c ****                     {
1627:SYS/shell/shell.c ****                         base[i].data.key.function(shell);
1628:SYS/shell/shell.c ****                     }
1629:SYS/shell/shell.c ****                     shell->parser.keyValue = 0x00000000;
1630:SYS/shell/shell.c ****                     break;
1631:SYS/shell/shell.c ****                 }
1632:SYS/shell/shell.c ****             }
1633:SYS/shell/shell.c ****         }
1634:SYS/shell/shell.c ****     }
1635:SYS/shell/shell.c **** 
1636:SYS/shell/shell.c ****     if (data != 0x00)
1637:SYS/shell/shell.c ****     {
1638:SYS/shell/shell.c ****         shell->parser.keyValue = 0x00000000;
1639:SYS/shell/shell.c ****         shellNormalInput(shell, data);
1640:SYS/shell/shell.c ****     }
1641:SYS/shell/shell.c **** 
1642:SYS/shell/shell.c ****     if (SHELL_GET_TICK())
1643:SYS/shell/shell.c ****     {
1644:SYS/shell/shell.c ****         shell->info.activeTime = SHELL_GET_TICK();
1645:SYS/shell/shell.c ****     }
1646:SYS/shell/shell.c **** }
1647:SYS/shell/shell.c **** 
1648:SYS/shell/shell.c **** #if SHELL_SUPPORT_END_LINE == 1
1649:SYS/shell/shell.c **** void shellWriteEndLine(Shell *shell, char *buffer, int len)
1650:SYS/shell/shell.c **** {
1651:SYS/shell/shell.c ****     if (!shell->status.isActive)
1652:SYS/shell/shell.c ****     {
1653:SYS/shell/shell.c ****         shellWriteString(shell, shellText[SHELL_TEXT_CLEAR_LINE]);
1654:SYS/shell/shell.c ****     }
1655:SYS/shell/shell.c ****     while (len--)
ARM GAS  C:\Users\huav\AppData\Local\Temp\cc1GSGvG.s 			page 56


1656:SYS/shell/shell.c ****     {
1657:SYS/shell/shell.c ****         shell->write(*buffer++);
1658:SYS/shell/shell.c ****     }
1659:SYS/shell/shell.c ****     if (!shell->status.isActive)
1660:SYS/shell/shell.c ****     {
1661:SYS/shell/shell.c ****         shellWriteCommandLine(shell, 0);
1662:SYS/shell/shell.c ****         if (shell->parser.length > 0)
1663:SYS/shell/shell.c ****         {
1664:SYS/shell/shell.c ****             shellWriteString(shell, shell->parser.buffer);
1665:SYS/shell/shell.c ****             for (short i = 0; i < shell->parser.length - shell->parser.cursor; i++)
1666:SYS/shell/shell.c ****             {
1667:SYS/shell/shell.c ****                 shell->write('\b');
1668:SYS/shell/shell.c ****             }
1669:SYS/shell/shell.c ****         }
1670:SYS/shell/shell.c ****     }
1671:SYS/shell/shell.c **** }
1672:SYS/shell/shell.c **** #endif /** SHELL_SUPPORT_END_LINE == 1 */
1673:SYS/shell/shell.c **** 
1674:SYS/shell/shell.c **** /**
1675:SYS/shell/shell.c ****  * @brief shell 任务
1676:SYS/shell/shell.c ****  * 
1677:SYS/shell/shell.c ****  * @param param 参数(shell对象)
1678:SYS/shell/shell.c ****  * 
1679:SYS/shell/shell.c ****  */
1680:SYS/shell/shell.c **** void shellTask(void *param)
1681:SYS/shell/shell.c **** {
1682:SYS/shell/shell.c ****     Shell *shell = (Shell *)param;
1683:SYS/shell/shell.c ****     char data;
1684:SYS/shell/shell.c **** #if SHELL_TASK_WHILE == 1
1685:SYS/shell/shell.c ****     while (1)
1686:SYS/shell/shell.c ****     {
1687:SYS/shell/shell.c **** #endif
1688:SYS/shell/shell.c ****         if (shell->read && shell->read(&data) == 0)
1689:SYS/shell/shell.c ****         {
1690:SYS/shell/shell.c ****             shellHandler(shell, data);
1691:SYS/shell/shell.c ****         }
1692:SYS/shell/shell.c **** #if SHELL_TASK_WHILE == 1
1693:SYS/shell/shell.c ****     }
1694:SYS/shell/shell.c **** #endif
1695:SYS/shell/shell.c **** }
1696:SYS/shell/shell.c **** 
1697:SYS/shell/shell.c **** /**
1698:SYS/shell/shell.c ****  * @brief shell 输出用户列表(shell调用)
1699:SYS/shell/shell.c ****  */
1700:SYS/shell/shell.c **** void shellUsers(void)
1701:SYS/shell/shell.c **** {
1702:SYS/shell/shell.c ****     Shell *shell = shellGetCurrent();
1703:SYS/shell/shell.c ****     if (shell)
1704:SYS/shell/shell.c ****     {
1705:SYS/shell/shell.c ****         shellListUser(shell);
1706:SYS/shell/shell.c ****     }
1707:SYS/shell/shell.c **** }
1708:SYS/shell/shell.c **** SHELL_EXPORT_CMD(
1709:SYS/shell/shell.c ****     SHELL_CMD_PERMISSION(0) | SHELL_CMD_TYPE(SHELL_TYPE_CMD_FUNC) | SHELL_CMD_DISABLE_RETURN,
1710:SYS/shell/shell.c ****     users, shellUsers, list all user);
1711:SYS/shell/shell.c **** 
1712:SYS/shell/shell.c **** /**
ARM GAS  C:\Users\huav\AppData\Local\Temp\cc1GSGvG.s 			page 57


1713:SYS/shell/shell.c ****  * @brief shell 输出命令列表(shell调用)
1714:SYS/shell/shell.c ****  */
1715:SYS/shell/shell.c **** void shellCmds(void)
1716:SYS/shell/shell.c **** {
1717:SYS/shell/shell.c ****     Shell *shell = shellGetCurrent();
1718:SYS/shell/shell.c ****     if (shell)
1719:SYS/shell/shell.c ****     {
1720:SYS/shell/shell.c ****         shellListCommand(shell);
1721:SYS/shell/shell.c ****     }
1722:SYS/shell/shell.c **** }
1723:SYS/shell/shell.c **** SHELL_EXPORT_CMD(
1724:SYS/shell/shell.c ****     SHELL_CMD_PERMISSION(0) | SHELL_CMD_TYPE(SHELL_TYPE_CMD_FUNC) | SHELL_CMD_DISABLE_RETURN,
1725:SYS/shell/shell.c ****     cmds, shellCmds, list all cmd);
1726:SYS/shell/shell.c **** 
1727:SYS/shell/shell.c **** /**
1728:SYS/shell/shell.c ****  * @brief shell 输出变量列表(shell调用)
1729:SYS/shell/shell.c ****  */
1730:SYS/shell/shell.c **** void shellVars(void)
1731:SYS/shell/shell.c **** {
1732:SYS/shell/shell.c ****     Shell *shell = shellGetCurrent();
1733:SYS/shell/shell.c ****     if (shell)
1734:SYS/shell/shell.c ****     {
1735:SYS/shell/shell.c ****         shellListVar(shell);
1736:SYS/shell/shell.c ****     }
1737:SYS/shell/shell.c **** }
1738:SYS/shell/shell.c **** SHELL_EXPORT_CMD(
1739:SYS/shell/shell.c ****     SHELL_CMD_PERMISSION(0) | SHELL_CMD_TYPE(SHELL_TYPE_CMD_FUNC) | SHELL_CMD_DISABLE_RETURN,
1740:SYS/shell/shell.c ****     vars, shellVars, list all var);
1741:SYS/shell/shell.c **** 
1742:SYS/shell/shell.c **** /**
1743:SYS/shell/shell.c ****  * @brief shell 输出按键列表(shell调用)
1744:SYS/shell/shell.c ****  */
1745:SYS/shell/shell.c **** void shellKeys(void)
1746:SYS/shell/shell.c **** {
1747:SYS/shell/shell.c ****     Shell *shell = shellGetCurrent();
1748:SYS/shell/shell.c ****     if (shell)
1749:SYS/shell/shell.c ****     {
1750:SYS/shell/shell.c ****         shellListKey(shell);
1751:SYS/shell/shell.c ****     }
1752:SYS/shell/shell.c **** }
1753:SYS/shell/shell.c **** SHELL_EXPORT_CMD(
1754:SYS/shell/shell.c ****     SHELL_CMD_PERMISSION(0) | SHELL_CMD_TYPE(SHELL_TYPE_CMD_FUNC) | SHELL_CMD_DISABLE_RETURN,
1755:SYS/shell/shell.c ****     keys, shellKeys, list all key);
1756:SYS/shell/shell.c **** 
1757:SYS/shell/shell.c **** /**
1758:SYS/shell/shell.c ****  * @brief shell 清空控制台(shell调用)
1759:SYS/shell/shell.c ****  */
1760:SYS/shell/shell.c **** void shellClear(void)
1761:SYS/shell/shell.c **** {
 1264              		.loc 1 1761 1 view -0
 1265              		.cfi_startproc
 1266              		@ args = 0, pretend = 0, frame = 0
 1267              		@ frame_needed = 0, uses_anonymous_args = 0
 1268 0000 08B5     		push	{r3, lr}
 1269              	.LCFI12:
 1270              		.cfi_def_cfa_offset 8
 1271              		.cfi_offset 3, -8
ARM GAS  C:\Users\huav\AppData\Local\Temp\cc1GSGvG.s 			page 58


 1272              		.cfi_offset 14, -4
1762:SYS/shell/shell.c ****     Shell *shell = shellGetCurrent();
 1273              		.loc 1 1762 5 view .LVU349
 1274              		.loc 1 1762 20 is_stmt 0 view .LVU350
 1275 0002 FFF7FEFF 		bl	shellGetCurrent
 1276              	.LVL111:
1763:SYS/shell/shell.c ****     if (shell)
 1277              		.loc 1 1763 5 is_stmt 1 view .LVU351
 1278              		.loc 1 1763 8 is_stmt 0 view .LVU352
 1279 0006 10B1     		cbz	r0, .L116
1764:SYS/shell/shell.c ****     {
1765:SYS/shell/shell.c ****         shellWriteString(shell, shellText[SHELL_TEXT_CLEAR_CONSOLE]);
 1280              		.loc 1 1765 9 is_stmt 1 view .LVU353
 1281 0008 0149     		ldr	r1, .L119
 1282 000a FFF7FEFF 		bl	shellWriteString
 1283              	.LVL112:
 1284              	.L116:
1766:SYS/shell/shell.c ****     }
1767:SYS/shell/shell.c **** }
 1285              		.loc 1 1767 1 is_stmt 0 view .LVU354
 1286 000e 08BD     		pop	{r3, pc}
 1287              	.L120:
 1288              		.align	2
 1289              	.L119:
 1290 0010 00000000 		.word	.LC0
 1291              		.cfi_endproc
 1292              	.LFE182:
 1294              		.section	.text.shellPrint,"ax",%progbits
 1295              		.align	1
 1296              		.global	shellPrint
 1297              		.syntax unified
 1298              		.thumb
 1299              		.thumb_func
 1300              		.fpu fpv4-sp-d16
 1302              	shellPrint:
 1303              	.LVL113:
 1304              	.LFB133:
 335:SYS/shell/shell.c ****     char buffer[SHELL_PRINT_BUFFER];
 1305              		.loc 1 335 1 is_stmt 1 view -0
 1306              		.cfi_startproc
 1307              		@ args = 4, pretend = 12, frame = 136
 1308              		@ frame_needed = 0, uses_anonymous_args = 1
 336:SYS/shell/shell.c ****     va_list vargs;
 1309              		.loc 1 336 5 view .LVU356
 337:SYS/shell/shell.c **** 
 1310              		.loc 1 337 5 view .LVU357
 339:SYS/shell/shell.c **** 
 1311              		.loc 1 339 5 view .LVU358
 1312 0000 98B1     		cbz	r0, .L125
 335:SYS/shell/shell.c ****     char buffer[SHELL_PRINT_BUFFER];
 1313              		.loc 1 335 1 is_stmt 0 discriminator 2 view .LVU359
 1314 0002 0EB4     		push	{r1, r2, r3}
 1315              	.LCFI13:
 1316              		.cfi_def_cfa_offset 12
 1317              		.cfi_offset 1, -12
 1318              		.cfi_offset 2, -8
 1319              		.cfi_offset 3, -4
ARM GAS  C:\Users\huav\AppData\Local\Temp\cc1GSGvG.s 			page 59


 1320 0004 10B5     		push	{r4, lr}
 1321              	.LCFI14:
 1322              		.cfi_def_cfa_offset 20
 1323              		.cfi_offset 4, -20
 1324              		.cfi_offset 14, -16
 1325 0006 A3B0     		sub	sp, sp, #140
 1326              	.LCFI15:
 1327              		.cfi_def_cfa_offset 160
 1328 0008 0446     		mov	r4, r0
 339:SYS/shell/shell.c **** 
 1329              		.loc 1 339 33 is_stmt 1 discriminator 2 view .LVU360
 341:SYS/shell/shell.c ****     vsnprintf(buffer, SHELL_PRINT_BUFFER - 1, fmt, vargs);
 1330              		.loc 1 341 5 discriminator 2 view .LVU361
 1331 000a 26AB     		add	r3, sp, #152
 1332 000c 0193     		str	r3, [sp, #4]
 342:SYS/shell/shell.c ****     va_end(vargs);
 1333              		.loc 1 342 5 discriminator 2 view .LVU362
 1334 000e 259A     		ldr	r2, [sp, #148]
 1335 0010 7F21     		movs	r1, #127
 1336 0012 02A8     		add	r0, sp, #8
 1337 0014 FFF7FEFF 		bl	vsnprintf
 1338              	.LVL114:
 343:SYS/shell/shell.c **** 
 1339              		.loc 1 343 5 discriminator 2 view .LVU363
 345:SYS/shell/shell.c **** }
 1340              		.loc 1 345 5 discriminator 2 view .LVU364
 1341 0018 02A9     		add	r1, sp, #8
 1342 001a 2046     		mov	r0, r4
 1343 001c FFF7FEFF 		bl	shellWriteString
 1344              	.LVL115:
 346:SYS/shell/shell.c **** #endif
 1345              		.loc 1 346 1 is_stmt 0 discriminator 2 view .LVU365
 1346 0020 23B0     		add	sp, sp, #140
 1347              	.LCFI16:
 1348              		.cfi_def_cfa_offset 20
 1349              		@ sp needed
 1350 0022 BDE81040 		pop	{r4, lr}
 1351              	.LCFI17:
 1352              		.cfi_restore 14
 1353              		.cfi_restore 4
 1354              		.cfi_def_cfa_offset 12
 1355              	.LVL116:
 346:SYS/shell/shell.c **** #endif
 1356              		.loc 1 346 1 discriminator 2 view .LVU366
 1357 0026 03B0     		add	sp, sp, #12
 1358              	.LCFI18:
 1359              		.cfi_restore 3
 1360              		.cfi_restore 2
 1361              		.cfi_restore 1
 1362              		.cfi_def_cfa_offset 0
 1363 0028 7047     		bx	lr
 1364              	.LVL117:
 1365              	.L125:
 346:SYS/shell/shell.c **** #endif
 1366              		.loc 1 346 1 discriminator 2 view .LVU367
 1367 002a 7047     		bx	lr
 1368              		.cfi_endproc
ARM GAS  C:\Users\huav\AppData\Local\Temp\cc1GSGvG.s 			page 60


 1369              	.LFE133:
 1371              		.section	.text.shellScan,"ax",%progbits
 1372              		.align	1
 1373              		.global	shellScan
 1374              		.syntax unified
 1375              		.thumb
 1376              		.thumb_func
 1377              		.fpu fpv4-sp-d16
 1379              	shellScan:
 1380              	.LVL118:
 1381              	.LFB134:
 358:SYS/shell/shell.c ****     char buffer[SHELL_SCAN_BUFFER];
 1382              		.loc 1 358 1 is_stmt 1 view -0
 1383              		.cfi_startproc
 1384              		@ args = 4, pretend = 12, frame = 8
 1385              		@ frame_needed = 0, uses_anonymous_args = 1
 359:SYS/shell/shell.c ****     va_list vargs;
 1386              		.loc 1 359 5 view .LVU369
 360:SYS/shell/shell.c ****     short index = 0;
 1387              		.loc 1 360 5 view .LVU370
 361:SYS/shell/shell.c **** 
 1388              		.loc 1 361 5 view .LVU371
 363:SYS/shell/shell.c **** 
 1389              		.loc 1 363 5 view .LVU372
 1390 0000 0028     		cmp	r0, #0
 1391 0002 36D0     		beq	.L136
 358:SYS/shell/shell.c ****     char buffer[SHELL_SCAN_BUFFER];
 1392              		.loc 1 358 1 is_stmt 0 discriminator 2 view .LVU373
 1393 0004 0EB4     		push	{r1, r2, r3}
 1394              	.LCFI19:
 1395              		.cfi_def_cfa_offset 12
 1396              		.cfi_offset 1, -12
 1397              		.cfi_offset 2, -8
 1398              		.cfi_offset 3, -4
 1399 0006 70B5     		push	{r4, r5, r6, lr}
 1400              	.LCFI20:
 1401              		.cfi_def_cfa_offset 28
 1402              		.cfi_offset 4, -28
 1403              		.cfi_offset 5, -24
 1404              		.cfi_offset 6, -20
 1405              		.cfi_offset 14, -16
 1406 0008 83B0     		sub	sp, sp, #12
 1407              	.LCFI21:
 1408              		.cfi_def_cfa_offset 40
 1409 000a 0546     		mov	r5, r0
 363:SYS/shell/shell.c **** 
 1410              		.loc 1 363 33 is_stmt 1 discriminator 2 view .LVU374
 365:SYS/shell/shell.c ****     {
 1411              		.loc 1 365 5 discriminator 2 view .LVU375
 365:SYS/shell/shell.c ****     {
 1412              		.loc 1 365 14 is_stmt 0 discriminator 2 view .LVU376
 1413 000c 436E     		ldr	r3, [r0, #100]
 365:SYS/shell/shell.c ****     {
 1414              		.loc 1 365 8 discriminator 2 view .LVU377
 1415 000e 2BB3     		cbz	r3, .L131
 361:SYS/shell/shell.c **** 
 1416              		.loc 1 361 11 view .LVU378
ARM GAS  C:\Users\huav\AppData\Local\Temp\cc1GSGvG.s 			page 61


 1417 0010 0024     		movs	r4, #0
 1418 0012 13E0     		b	.L134
 1419              	.LVL119:
 1420              	.L139:
 371:SYS/shell/shell.c ****                 index++;
 1421              		.loc 1 371 17 is_stmt 1 view .LVU379
 371:SYS/shell/shell.c ****                 index++;
 1422              		.loc 1 371 22 is_stmt 0 view .LVU380
 1423 0014 AB6E     		ldr	r3, [r5, #104]
 371:SYS/shell/shell.c ****                 index++;
 1424              		.loc 1 371 17 view .LVU381
 1425 0016 02AA     		add	r2, sp, #8
 1426 0018 2244     		add	r2, r2, r4
 1427 001a 12F8040C 		ldrb	r0, [r2, #-4]	@ zero_extendqisi2
 1428 001e 9847     		blx	r3
 1429              	.LVL120:
 372:SYS/shell/shell.c ****             }
 1430              		.loc 1 372 17 is_stmt 1 view .LVU382
 372:SYS/shell/shell.c ****             }
 1431              		.loc 1 372 22 is_stmt 0 view .LVU383
 1432 0020 0134     		adds	r4, r4, #1
 1433              	.LVL121:
 372:SYS/shell/shell.c ****             }
 1434              		.loc 1 372 22 view .LVU384
 1435 0022 24B2     		sxth	r4, r4
 1436              	.LVL122:
 1437              	.L132:
 374:SYS/shell/shell.c ****         shellWriteString(shell, "\r\n");
 1438              		.loc 1 374 17 is_stmt 1 view .LVU385
 374:SYS/shell/shell.c ****         shellWriteString(shell, "\r\n");
 1439              		.loc 1 374 31 is_stmt 0 view .LVU386
 1440 0024 2646     		mov	r6, r4
 1441 0026 631E     		subs	r3, r4, #1
 374:SYS/shell/shell.c ****         shellWriteString(shell, "\r\n");
 1442              		.loc 1 374 24 view .LVU387
 1443 0028 02AA     		add	r2, sp, #8
 1444 002a 1344     		add	r3, r3, r2
 1445 002c 13F8043C 		ldrb	r3, [r3, #-4]	@ zero_extendqisi2
 374:SYS/shell/shell.c ****         shellWriteString(shell, "\r\n");
 1446              		.loc 1 374 9 view .LVU388
 1447 0030 0D2B     		cmp	r3, #13
 1448 0032 0AD0     		beq	.L133
 374:SYS/shell/shell.c ****         shellWriteString(shell, "\r\n");
 1449              		.loc 1 374 44 discriminator 1 view .LVU389
 1450 0034 0A2B     		cmp	r3, #10
 1451 0036 08D0     		beq	.L133
 374:SYS/shell/shell.c ****         shellWriteString(shell, "\r\n");
 1452              		.loc 1 374 73 discriminator 2 view .LVU390
 1453 0038 002C     		cmp	r4, #0
 1454 003a 06DC     		bgt	.L133
 1455              	.LVL123:
 1456              	.L134:
 367:SYS/shell/shell.c ****         {
 1457              		.loc 1 367 9 is_stmt 1 view .LVU391
 369:SYS/shell/shell.c ****             {
 1458              		.loc 1 369 13 view .LVU392
 369:SYS/shell/shell.c ****             {
ARM GAS  C:\Users\huav\AppData\Local\Temp\cc1GSGvG.s 			page 62


 1459              		.loc 1 369 22 is_stmt 0 view .LVU393
 1460 003c 6B6E     		ldr	r3, [r5, #100]
 369:SYS/shell/shell.c ****             {
 1461              		.loc 1 369 17 view .LVU394
 1462 003e 01AA     		add	r2, sp, #4
 1463 0040 1019     		adds	r0, r2, r4
 1464 0042 9847     		blx	r3
 1465              	.LVL124:
 369:SYS/shell/shell.c ****             {
 1466              		.loc 1 369 16 view .LVU395
 1467 0044 0028     		cmp	r0, #0
 1468 0046 EDD1     		bne	.L132
 1469 0048 E4E7     		b	.L139
 1470              	.L133:
 375:SYS/shell/shell.c ****         buffer[index] = '\0';
 1471              		.loc 1 375 9 is_stmt 1 view .LVU396
 1472 004a 0A49     		ldr	r1, .L140
 1473 004c 2846     		mov	r0, r5
 1474 004e FFF7FEFF 		bl	shellWriteString
 1475              	.LVL125:
 376:SYS/shell/shell.c ****     }
 1476              		.loc 1 376 9 view .LVU397
 376:SYS/shell/shell.c ****     }
 1477              		.loc 1 376 23 is_stmt 0 view .LVU398
 1478 0052 02AB     		add	r3, sp, #8
 1479 0054 1E44     		add	r6, r6, r3
 1480 0056 0023     		movs	r3, #0
 1481 0058 06F8043C 		strb	r3, [r6, #-4]
 1482              	.LVL126:
 1483              	.L131:
 379:SYS/shell/shell.c ****     vsscanf(buffer, fmt, vargs);
 1484              		.loc 1 379 5 is_stmt 1 view .LVU399
 1485 005c 08AA     		add	r2, sp, #32
 1486 005e 0092     		str	r2, [sp]
 380:SYS/shell/shell.c ****     va_end(vargs);
 1487              		.loc 1 380 5 view .LVU400
 1488 0060 0799     		ldr	r1, [sp, #28]
 1489 0062 01A8     		add	r0, sp, #4
 1490 0064 FFF7FEFF 		bl	vsscanf
 1491              	.LVL127:
 381:SYS/shell/shell.c **** }
 1492              		.loc 1 381 5 view .LVU401
 382:SYS/shell/shell.c **** #endif
 1493              		.loc 1 382 1 is_stmt 0 view .LVU402
 1494 0068 03B0     		add	sp, sp, #12
 1495              	.LCFI22:
 1496              		.cfi_def_cfa_offset 28
 1497              		@ sp needed
 1498 006a BDE87040 		pop	{r4, r5, r6, lr}
 1499              	.LCFI23:
 1500              		.cfi_restore 14
 1501              		.cfi_restore 6
 1502              		.cfi_restore 5
 1503              		.cfi_restore 4
 1504              		.cfi_def_cfa_offset 12
 1505              	.LVL128:
 382:SYS/shell/shell.c **** #endif
ARM GAS  C:\Users\huav\AppData\Local\Temp\cc1GSGvG.s 			page 63


 1506              		.loc 1 382 1 view .LVU403
 1507 006e 03B0     		add	sp, sp, #12
 1508              	.LCFI24:
 1509              		.cfi_restore 3
 1510              		.cfi_restore 2
 1511              		.cfi_restore 1
 1512              		.cfi_def_cfa_offset 0
 1513 0070 7047     		bx	lr
 1514              	.LVL129:
 1515              	.L136:
 382:SYS/shell/shell.c **** #endif
 1516              		.loc 1 382 1 view .LVU404
 1517 0072 7047     		bx	lr
 1518              	.L141:
 1519              		.align	2
 1520              	.L140:
 1521 0074 04000000 		.word	.LC3
 1522              		.cfi_endproc
 1523              	.LFE134:
 1525              		.section	.text.shellCheckPermission,"ax",%progbits
 1526              		.align	1
 1527              		.global	shellCheckPermission
 1528              		.syntax unified
 1529              		.thumb
 1530              		.thumb_func
 1531              		.fpu fpv4-sp-d16
 1533              	shellCheckPermission:
 1534              	.LVL130:
 1535              	.LFB135:
 395:SYS/shell/shell.c ****     return ((!command->attr.attrs.permission || command->attr.attrs.type == SHELL_TYPE_USER || (com
 1536              		.loc 1 395 1 is_stmt 1 view -0
 1537              		.cfi_startproc
 1538              		@ args = 0, pretend = 0, frame = 0
 1539              		@ frame_needed = 0, uses_anonymous_args = 0
 1540              		@ link register save eliminated.
 396:SYS/shell/shell.c ****                ? 0
 1541              		.loc 1 396 5 view .LVU406
 396:SYS/shell/shell.c ****                ? 0
 1542              		.loc 1 396 34 is_stmt 0 view .LVU407
 1543 0000 0B78     		ldrb	r3, [r1]	@ zero_extendqisi2
 398:SYS/shell/shell.c **** }
 1544              		.loc 1 398 16 view .LVU408
 1545 0002 43B1     		cbz	r3, .L143
 396:SYS/shell/shell.c ****                ? 0
 1546              		.loc 1 396 74 view .LVU409
 1547 0004 4A78     		ldrb	r2, [r1, #1]	@ zero_extendqisi2
 1548 0006 02F00F02 		and	r2, r2, #15
 396:SYS/shell/shell.c ****                ? 0
 1549              		.loc 1 396 46 view .LVU410
 1550 000a 082A     		cmp	r2, #8
 1551 000c 03D0     		beq	.L143
 396:SYS/shell/shell.c ****                ? 0
 1552              		.loc 1 396 141 discriminator 2 view .LVU411
 1553 000e 0268     		ldr	r2, [r0]
 396:SYS/shell/shell.c ****                ? 0
 1554              		.loc 1 396 158 discriminator 2 view .LVU412
 1555 0010 1278     		ldrb	r2, [r2]	@ zero_extendqisi2
ARM GAS  C:\Users\huav\AppData\Local\Temp\cc1GSGvG.s 			page 64


 396:SYS/shell/shell.c ****                ? 0
 1556              		.loc 1 396 93 discriminator 2 view .LVU413
 1557 0012 1342     		tst	r3, r2
 1558 0014 0DD0     		beq	.L145
 1559              	.L143:
 396:SYS/shell/shell.c ****                ? 0
 1560              		.loc 1 396 176 discriminator 3 view .LVU414
 1561 0016 90F86030 		ldrb	r3, [r0, #96]	@ zero_extendqisi2
 396:SYS/shell/shell.c ****                ? 0
 1562              		.loc 1 396 172 discriminator 3 view .LVU415
 1563 001a 13F0010F 		tst	r3, #1
 1564 001e 0BD1     		bne	.L146
 396:SYS/shell/shell.c ****                ? 0
 1565              		.loc 1 396 200 discriminator 4 view .LVU416
 1566 0020 4B78     		ldrb	r3, [r1, #1]	@ zero_extendqisi2
 1567 0022 13F0100F 		tst	r3, #16
 1568 0026 01D0     		beq	.L148
 398:SYS/shell/shell.c **** }
 1569              		.loc 1 398 16 view .LVU417
 1570 0028 0020     		movs	r0, #0
 1571              	.LVL131:
 399:SYS/shell/shell.c **** 
 1572              		.loc 1 399 1 view .LVU418
 1573 002a 7047     		bx	lr
 1574              	.LVL132:
 1575              	.L148:
 398:SYS/shell/shell.c **** }
 1576              		.loc 1 398 16 view .LVU419
 1577 002c 4FF0FF30 		mov	r0, #-1
 1578              	.LVL133:
 398:SYS/shell/shell.c **** }
 1579              		.loc 1 398 16 view .LVU420
 1580 0030 7047     		bx	lr
 1581              	.LVL134:
 1582              	.L145:
 398:SYS/shell/shell.c **** }
 1583              		.loc 1 398 16 view .LVU421
 1584 0032 4FF0FF30 		mov	r0, #-1
 1585              	.LVL135:
 398:SYS/shell/shell.c **** }
 1586              		.loc 1 398 16 view .LVU422
 1587 0036 7047     		bx	lr
 1588              	.LVL136:
 1589              	.L146:
 398:SYS/shell/shell.c **** }
 1590              		.loc 1 398 16 view .LVU423
 1591 0038 0020     		movs	r0, #0
 1592              	.LVL137:
 398:SYS/shell/shell.c **** }
 1593              		.loc 1 398 16 view .LVU424
 1594 003a 7047     		bx	lr
 1595              		.cfi_endproc
 1596              	.LFE135:
 1598              		.section	.text.shellToHex,"ax",%progbits
 1599              		.align	1
 1600              		.global	shellToHex
 1601              		.syntax unified
ARM GAS  C:\Users\huav\AppData\Local\Temp\cc1GSGvG.s 			page 65


 1602              		.thumb
 1603              		.thumb_func
 1604              		.fpu fpv4-sp-d16
 1606              	shellToHex:
 1607              	.LVL138:
 1608              	.LFB136:
 410:SYS/shell/shell.c ****     char byte;
 1609              		.loc 1 410 1 is_stmt 1 view -0
 1610              		.cfi_startproc
 1611              		@ args = 0, pretend = 0, frame = 0
 1612              		@ frame_needed = 0, uses_anonymous_args = 0
 1613              		@ link register save eliminated.
 411:SYS/shell/shell.c ****     unsigned char i = 8;
 1614              		.loc 1 411 5 view .LVU426
 412:SYS/shell/shell.c ****     buffer[8] = 0;
 1615              		.loc 1 412 5 view .LVU427
 413:SYS/shell/shell.c ****     while (value)
 1616              		.loc 1 413 5 view .LVU428
 413:SYS/shell/shell.c ****     while (value)
 1617              		.loc 1 413 15 is_stmt 0 view .LVU429
 1618 0000 0023     		movs	r3, #0
 1619 0002 0B72     		strb	r3, [r1, #8]
 414:SYS/shell/shell.c ****     {
 1620              		.loc 1 414 5 is_stmt 1 view .LVU430
 412:SYS/shell/shell.c ****     buffer[8] = 0;
 1621              		.loc 1 412 19 is_stmt 0 view .LVU431
 1622 0004 0823     		movs	r3, #8
 414:SYS/shell/shell.c ****     {
 1623              		.loc 1 414 11 view .LVU432
 1624 0006 04E0     		b	.L150
 1625              	.LVL139:
 1626              	.L151:
 417:SYS/shell/shell.c ****         value >>= 4;
 1627              		.loc 1 417 21 discriminator 2 view .LVU433
 1628 0008 3032     		adds	r2, r2, #48
 1629              	.LVL140:
 1630              	.L152:
 417:SYS/shell/shell.c ****         value >>= 4;
 1631              		.loc 1 417 21 discriminator 4 view .LVU434
 1632 000a 013B     		subs	r3, r3, #1
 1633              	.LVL141:
 417:SYS/shell/shell.c ****         value >>= 4;
 1634              		.loc 1 417 21 discriminator 4 view .LVU435
 1635 000c DBB2     		uxtb	r3, r3
 1636              	.LVL142:
 417:SYS/shell/shell.c ****         value >>= 4;
 1637              		.loc 1 417 21 discriminator 4 view .LVU436
 1638 000e CA54     		strb	r2, [r1, r3]
 418:SYS/shell/shell.c ****     }
 1639              		.loc 1 418 9 is_stmt 1 discriminator 4 view .LVU437
 418:SYS/shell/shell.c ****     }
 1640              		.loc 1 418 15 is_stmt 0 discriminator 4 view .LVU438
 1641 0010 0009     		lsrs	r0, r0, #4
 1642              	.LVL143:
 1643              	.L150:
 414:SYS/shell/shell.c ****     {
 1644              		.loc 1 414 11 is_stmt 1 view .LVU439
ARM GAS  C:\Users\huav\AppData\Local\Temp\cc1GSGvG.s 			page 66


 1645 0012 28B1     		cbz	r0, .L154
 416:SYS/shell/shell.c ****         buffer[--i] = (byte > 9) ? (byte + 87) : (byte + 48);
 1646              		.loc 1 416 9 view .LVU440
 416:SYS/shell/shell.c ****         buffer[--i] = (byte > 9) ? (byte + 87) : (byte + 48);
 1647              		.loc 1 416 14 is_stmt 0 view .LVU441
 1648 0014 00F00F02 		and	r2, r0, #15
 1649              	.LVL144:
 417:SYS/shell/shell.c ****         value >>= 4;
 1650              		.loc 1 417 9 is_stmt 1 view .LVU442
 417:SYS/shell/shell.c ****         value >>= 4;
 1651              		.loc 1 417 21 is_stmt 0 view .LVU443
 1652 0018 092A     		cmp	r2, #9
 1653 001a F5D9     		bls	.L151
 417:SYS/shell/shell.c ****         value >>= 4;
 1654              		.loc 1 417 21 discriminator 1 view .LVU444
 1655 001c 5732     		adds	r2, r2, #87
 1656              	.LVL145:
 417:SYS/shell/shell.c ****         value >>= 4;
 1657              		.loc 1 417 21 discriminator 1 view .LVU445
 1658 001e F4E7     		b	.L152
 1659              	.LVL146:
 1660              	.L154:
 420:SYS/shell/shell.c **** }
 1661              		.loc 1 420 5 is_stmt 1 view .LVU446
 420:SYS/shell/shell.c **** }
 1662              		.loc 1 420 14 is_stmt 0 view .LVU447
 1663 0020 C3F10800 		rsb	r0, r3, #8
 1664              	.LVL147:
 421:SYS/shell/shell.c **** 
 1665              		.loc 1 421 1 view .LVU448
 1666 0024 40B2     		sxtb	r0, r0
 1667 0026 7047     		bx	lr
 1668              		.cfi_endproc
 1669              	.LFE136:
 1671              		.section	.text.shellGetCommandName,"ax",%progbits
 1672              		.align	1
 1673              		.syntax unified
 1674              		.thumb
 1675              		.thumb_func
 1676              		.fpu fpv4-sp-d16
 1678              	shellGetCommandName:
 1679              	.LVL148:
 1680              	.LFB140:
 506:SYS/shell/shell.c ****     static char buffer[9];
 1681              		.loc 1 506 1 is_stmt 1 view -0
 1682              		.cfi_startproc
 1683              		@ args = 0, pretend = 0, frame = 0
 1684              		@ frame_needed = 0, uses_anonymous_args = 0
 507:SYS/shell/shell.c ****     for (unsigned char i = 0; i < 9; i++)
 1685              		.loc 1 507 5 view .LVU450
 508:SYS/shell/shell.c ****     {
 1686              		.loc 1 508 5 view .LVU451
 1687              	.LBB8:
 508:SYS/shell/shell.c ****     {
 1688              		.loc 1 508 10 view .LVU452
 508:SYS/shell/shell.c ****     {
 1689              		.loc 1 508 24 is_stmt 0 view .LVU453
ARM GAS  C:\Users\huav\AppData\Local\Temp\cc1GSGvG.s 			page 67


 1690 0000 0023     		movs	r3, #0
 508:SYS/shell/shell.c ****     {
 1691              		.loc 1 508 5 view .LVU454
 1692 0002 04E0     		b	.L156
 1693              	.LVL149:
 1694              	.L157:
 510:SYS/shell/shell.c ****     }
 1695              		.loc 1 510 9 is_stmt 1 discriminator 3 view .LVU455
 510:SYS/shell/shell.c ****     }
 1696              		.loc 1 510 19 is_stmt 0 discriminator 3 view .LVU456
 1697 0004 0E4A     		ldr	r2, .L167
 1698 0006 3021     		movs	r1, #48
 1699 0008 D154     		strb	r1, [r2, r3]
 508:SYS/shell/shell.c ****     {
 1700              		.loc 1 508 38 is_stmt 1 discriminator 3 view .LVU457
 508:SYS/shell/shell.c ****     {
 1701              		.loc 1 508 39 is_stmt 0 discriminator 3 view .LVU458
 1702 000a 0133     		adds	r3, r3, #1
 1703              	.LVL150:
 508:SYS/shell/shell.c ****     {
 1704              		.loc 1 508 39 discriminator 3 view .LVU459
 1705 000c DBB2     		uxtb	r3, r3
 1706              	.LVL151:
 1707              	.L156:
 508:SYS/shell/shell.c ****     {
 1708              		.loc 1 508 31 is_stmt 1 discriminator 1 view .LVU460
 508:SYS/shell/shell.c ****     {
 1709              		.loc 1 508 5 is_stmt 0 discriminator 1 view .LVU461
 1710 000e 082B     		cmp	r3, #8
 1711 0010 F8D9     		bls	.L157
 1712              	.LBE8:
 512:SYS/shell/shell.c ****     {
 1713              		.loc 1 512 5 is_stmt 1 view .LVU462
 512:SYS/shell/shell.c ****     {
 1714              		.loc 1 512 28 is_stmt 0 view .LVU463
 1715 0012 4378     		ldrb	r3, [r0, #1]	@ zero_extendqisi2
 1716              	.LVL152:
 512:SYS/shell/shell.c ****     {
 1717              		.loc 1 512 28 view .LVU464
 1718 0014 03F00F03 		and	r3, r3, #15
 512:SYS/shell/shell.c ****     {
 1719              		.loc 1 512 8 view .LVU465
 1720 0018 012B     		cmp	r3, #1
 1721 001a 05D9     		bls	.L165
 516:SYS/shell/shell.c ****     {
 1722              		.loc 1 516 10 is_stmt 1 view .LVU466
 516:SYS/shell/shell.c ****     {
 1723              		.loc 1 516 13 is_stmt 0 view .LVU467
 1724 001c 072B     		cmp	r3, #7
 1725 001e 05D9     		bls	.L166
 520:SYS/shell/shell.c ****     {
 1726              		.loc 1 520 10 is_stmt 1 view .LVU468
 520:SYS/shell/shell.c ****     {
 1727              		.loc 1 520 13 is_stmt 0 view .LVU469
 1728 0020 082B     		cmp	r3, #8
 1729 0022 05D8     		bhi	.L161
 522:SYS/shell/shell.c ****     }
ARM GAS  C:\Users\huav\AppData\Local\Temp\cc1GSGvG.s 			page 68


 1730              		.loc 1 522 9 is_stmt 1 view .LVU470
 522:SYS/shell/shell.c ****     }
 1731              		.loc 1 522 34 is_stmt 0 view .LVU471
 1732 0024 4068     		ldr	r0, [r0, #4]
 1733              	.LVL153:
 529:SYS/shell/shell.c **** 
 1734              		.loc 1 529 1 view .LVU472
 1735 0026 7047     		bx	lr
 1736              	.LVL154:
 1737              	.L165:
 514:SYS/shell/shell.c ****     }
 1738              		.loc 1 514 9 is_stmt 1 view .LVU473
 514:SYS/shell/shell.c ****     }
 1739              		.loc 1 514 33 is_stmt 0 view .LVU474
 1740 0028 4068     		ldr	r0, [r0, #4]
 1741              	.LVL155:
 514:SYS/shell/shell.c ****     }
 1742              		.loc 1 514 33 view .LVU475
 1743 002a 7047     		bx	lr
 1744              	.LVL156:
 1745              	.L166:
 518:SYS/shell/shell.c ****     }
 1746              		.loc 1 518 9 is_stmt 1 view .LVU476
 518:SYS/shell/shell.c ****     }
 1747              		.loc 1 518 33 is_stmt 0 view .LVU477
 1748 002c 4068     		ldr	r0, [r0, #4]
 1749              	.LVL157:
 518:SYS/shell/shell.c ****     }
 1750              		.loc 1 518 33 view .LVU478
 1751 002e 7047     		bx	lr
 1752              	.LVL158:
 1753              	.L161:
 506:SYS/shell/shell.c ****     static char buffer[9];
 1754              		.loc 1 506 1 view .LVU479
 1755 0030 10B5     		push	{r4, lr}
 1756              	.LCFI25:
 1757              		.cfi_def_cfa_offset 8
 1758              		.cfi_offset 4, -8
 1759              		.cfi_offset 14, -4
 526:SYS/shell/shell.c ****         return buffer;
 1760              		.loc 1 526 9 is_stmt 1 view .LVU480
 1761 0032 034C     		ldr	r4, .L167
 1762 0034 2146     		mov	r1, r4
 1763 0036 4068     		ldr	r0, [r0, #4]
 1764              	.LVL159:
 526:SYS/shell/shell.c ****         return buffer;
 1765              		.loc 1 526 9 is_stmt 0 view .LVU481
 1766 0038 FFF7FEFF 		bl	shellToHex
 1767              	.LVL160:
 527:SYS/shell/shell.c ****     }
 1768              		.loc 1 527 9 is_stmt 1 view .LVU482
 527:SYS/shell/shell.c ****     }
 1769              		.loc 1 527 16 is_stmt 0 view .LVU483
 1770 003c 2046     		mov	r0, r4
 529:SYS/shell/shell.c **** 
 1771              		.loc 1 529 1 view .LVU484
 1772 003e 10BD     		pop	{r4, pc}
ARM GAS  C:\Users\huav\AppData\Local\Temp\cc1GSGvG.s 			page 69


 1773              	.L168:
 1774              		.align	2
 1775              	.L167:
 1776 0040 00000000 		.word	.LANCHOR1
 1777              		.cfi_endproc
 1778              	.LFE140:
 1780              		.section	.text.shellToDec,"ax",%progbits
 1781              		.align	1
 1782              		.global	shellToDec
 1783              		.syntax unified
 1784              		.thumb
 1785              		.thumb_func
 1786              		.fpu fpv4-sp-d16
 1788              	shellToDec:
 1789              	.LVL161:
 1790              	.LFB137:
 432:SYS/shell/shell.c ****     unsigned char i = 11;
 1791              		.loc 1 432 1 is_stmt 1 view -0
 1792              		.cfi_startproc
 1793              		@ args = 0, pretend = 0, frame = 0
 1794              		@ frame_needed = 0, uses_anonymous_args = 0
 1795              		@ link register save eliminated.
 432:SYS/shell/shell.c ****     unsigned char i = 11;
 1796              		.loc 1 432 1 is_stmt 0 view .LVU486
 1797 0000 10B4     		push	{r4}
 1798              	.LCFI26:
 1799              		.cfi_def_cfa_offset 4
 1800              		.cfi_offset 4, -4
 433:SYS/shell/shell.c ****     int v = value;
 1801              		.loc 1 433 5 is_stmt 1 view .LVU487
 1802              	.LVL162:
 434:SYS/shell/shell.c ****     if (value < 0)
 1803              		.loc 1 434 5 view .LVU488
 435:SYS/shell/shell.c ****     {
 1804              		.loc 1 435 5 view .LVU489
 435:SYS/shell/shell.c ****     {
 1805              		.loc 1 435 8 is_stmt 0 view .LVU490
 1806 0002 041E     		subs	r4, r0, #0
 1807 0004 04DB     		blt	.L177
 434:SYS/shell/shell.c ****     if (value < 0)
 1808              		.loc 1 434 9 view .LVU491
 1809 0006 2246     		mov	r2, r4
 1810              	.LVL163:
 1811              	.L170:
 439:SYS/shell/shell.c ****     while (v)
 1812              		.loc 1 439 5 is_stmt 1 view .LVU492
 439:SYS/shell/shell.c ****     while (v)
 1813              		.loc 1 439 16 is_stmt 0 view .LVU493
 1814 0008 0023     		movs	r3, #0
 1815 000a CB72     		strb	r3, [r1, #11]
 440:SYS/shell/shell.c ****     {
 1816              		.loc 1 440 5 is_stmt 1 view .LVU494
 433:SYS/shell/shell.c ****     int v = value;
 1817              		.loc 1 433 19 is_stmt 0 view .LVU495
 1818 000c 0B20     		movs	r0, #11
 1819              	.LVL164:
 440:SYS/shell/shell.c ****     {
ARM GAS  C:\Users\huav\AppData\Local\Temp\cc1GSGvG.s 			page 70


 1820              		.loc 1 440 11 view .LVU496
 1821 000e 11E0     		b	.L171
 1822              	.LVL165:
 1823              	.L177:
 437:SYS/shell/shell.c ****     }
 1824              		.loc 1 437 9 is_stmt 1 view .LVU497
 437:SYS/shell/shell.c ****     }
 1825              		.loc 1 437 11 is_stmt 0 view .LVU498
 1826 0010 6242     		rsbs	r2, r4, #0
 1827              	.LVL166:
 437:SYS/shell/shell.c ****     }
 1828              		.loc 1 437 11 view .LVU499
 1829 0012 F9E7     		b	.L170
 1830              	.LVL167:
 1831              	.L172:
 442:SYS/shell/shell.c ****         v /= 10;
 1832              		.loc 1 442 9 is_stmt 1 view .LVU500
 442:SYS/shell/shell.c ****         v /= 10;
 1833              		.loc 1 442 25 is_stmt 0 view .LVU501
 1834 0014 114B     		ldr	r3, .L179
 1835 0016 83FB023C 		smull	r3, ip, r3, r2
 1836 001a D317     		asrs	r3, r2, #31
 1837 001c C3EBAC03 		rsb	r3, r3, ip, asr #2
 1838 0020 9C46     		mov	ip, r3
 1839 0022 03EB8303 		add	r3, r3, r3, lsl #2
 1840 0026 A2EB4303 		sub	r3, r2, r3, lsl #1
 442:SYS/shell/shell.c ****         v /= 10;
 1841              		.loc 1 442 21 view .LVU502
 1842 002a 0138     		subs	r0, r0, #1
 1843              	.LVL168:
 442:SYS/shell/shell.c ****         v /= 10;
 1844              		.loc 1 442 21 view .LVU503
 1845 002c C0B2     		uxtb	r0, r0
 1846              	.LVL169:
 442:SYS/shell/shell.c ****         v /= 10;
 1847              		.loc 1 442 30 view .LVU504
 1848 002e 3033     		adds	r3, r3, #48
 442:SYS/shell/shell.c ****         v /= 10;
 1849              		.loc 1 442 21 view .LVU505
 1850 0030 0B54     		strb	r3, [r1, r0]
 443:SYS/shell/shell.c ****     }
 1851              		.loc 1 443 9 is_stmt 1 view .LVU506
 443:SYS/shell/shell.c ****     }
 1852              		.loc 1 443 11 is_stmt 0 view .LVU507
 1853 0032 6246     		mov	r2, ip
 1854              	.LVL170:
 1855              	.L171:
 440:SYS/shell/shell.c ****     {
 1856              		.loc 1 440 11 is_stmt 1 view .LVU508
 1857 0034 002A     		cmp	r2, #0
 1858 0036 EDD1     		bne	.L172
 445:SYS/shell/shell.c ****     {
 1859              		.loc 1 445 5 view .LVU509
 445:SYS/shell/shell.c ****     {
 1860              		.loc 1 445 8 is_stmt 0 view .LVU510
 1861 0038 002C     		cmp	r4, #0
 1862 003a 0ADB     		blt	.L178
ARM GAS  C:\Users\huav\AppData\Local\Temp\cc1GSGvG.s 			page 71


 1863              	.L173:
 449:SYS/shell/shell.c ****     {
 1864              		.loc 1 449 5 is_stmt 1 view .LVU511
 449:SYS/shell/shell.c ****     {
 1865              		.loc 1 449 8 is_stmt 0 view .LVU512
 1866 003c 1CB9     		cbnz	r4, .L174
 451:SYS/shell/shell.c ****     }
 1867              		.loc 1 451 9 is_stmt 1 view .LVU513
 451:SYS/shell/shell.c ****     }
 1868              		.loc 1 451 21 is_stmt 0 view .LVU514
 1869 003e 0138     		subs	r0, r0, #1
 1870              	.LVL171:
 451:SYS/shell/shell.c ****     }
 1871              		.loc 1 451 21 view .LVU515
 1872 0040 C0B2     		uxtb	r0, r0
 1873              	.LVL172:
 451:SYS/shell/shell.c ****     }
 1874              		.loc 1 451 21 view .LVU516
 1875 0042 3023     		movs	r3, #48
 1876 0044 0B54     		strb	r3, [r1, r0]
 1877              	.L174:
 453:SYS/shell/shell.c **** }
 1878              		.loc 1 453 5 is_stmt 1 view .LVU517
 453:SYS/shell/shell.c **** }
 1879              		.loc 1 453 15 is_stmt 0 view .LVU518
 1880 0046 C0F10B00 		rsb	r0, r0, #11
 1881              	.LVL173:
 454:SYS/shell/shell.c **** 
 1882              		.loc 1 454 1 view .LVU519
 1883 004a 40B2     		sxtb	r0, r0
 1884 004c 5DF8044B 		ldr	r4, [sp], #4
 1885              	.LCFI27:
 1886              		.cfi_remember_state
 1887              		.cfi_restore 4
 1888              		.cfi_def_cfa_offset 0
 1889              	.LVL174:
 454:SYS/shell/shell.c **** 
 1890              		.loc 1 454 1 view .LVU520
 1891 0050 7047     		bx	lr
 1892              	.LVL175:
 1893              	.L178:
 1894              	.LCFI28:
 1895              		.cfi_restore_state
 447:SYS/shell/shell.c ****     }
 1896              		.loc 1 447 9 is_stmt 1 view .LVU521
 447:SYS/shell/shell.c ****     }
 1897              		.loc 1 447 21 is_stmt 0 view .LVU522
 1898 0052 0138     		subs	r0, r0, #1
 1899              	.LVL176:
 447:SYS/shell/shell.c ****     }
 1900              		.loc 1 447 21 view .LVU523
 1901 0054 C0B2     		uxtb	r0, r0
 1902              	.LVL177:
 447:SYS/shell/shell.c ****     }
 1903              		.loc 1 447 21 view .LVU524
 1904 0056 2D23     		movs	r3, #45
 1905 0058 0B54     		strb	r3, [r1, r0]
ARM GAS  C:\Users\huav\AppData\Local\Temp\cc1GSGvG.s 			page 72


 1906 005a EFE7     		b	.L173
 1907              	.L180:
 1908              		.align	2
 1909              	.L179:
 1910 005c 67666666 		.word	1717986919
 1911              		.cfi_endproc
 1912              	.LFE137:
 1914              		.section	.rodata.shellWriteReturnValue.str1.4,"aMS",%progbits,1
 1915              		.align	2
 1916              	.LC9:
 1917 0000 52657475 		.ascii	"Return: \000"
 1917      726E3A20 
 1917      00
 1918 0009 000000   		.align	2
 1919              	.LC10:
 1920 000c 2C203078 		.ascii	", 0x\000"
 1920      00
 1921 0011 000000   		.align	2
 1922              	.LC8:
 1923 0014 30303030 		.ascii	"00000000000\000"
 1923      30303030 
 1923      30303000 
 1924              		.section	.text.shellWriteReturnValue,"ax",%progbits
 1925              		.align	1
 1926              		.syntax unified
 1927              		.thumb
 1928              		.thumb_func
 1929              		.fpu fpv4-sp-d16
 1931              	shellWriteReturnValue:
 1932              	.LVL178:
 1933              	.LFB162:
1196:SYS/shell/shell.c ****     char buffer[12] = "00000000000";
 1934              		.loc 1 1196 1 is_stmt 1 view -0
 1935              		.cfi_startproc
 1936              		@ args = 0, pretend = 0, frame = 16
 1937              		@ frame_needed = 0, uses_anonymous_args = 0
1196:SYS/shell/shell.c ****     char buffer[12] = "00000000000";
 1938              		.loc 1 1196 1 is_stmt 0 view .LVU526
 1939 0000 70B5     		push	{r4, r5, r6, lr}
 1940              	.LCFI29:
 1941              		.cfi_def_cfa_offset 16
 1942              		.cfi_offset 4, -16
 1943              		.cfi_offset 5, -12
 1944              		.cfi_offset 6, -8
 1945              		.cfi_offset 14, -4
 1946 0002 84B0     		sub	sp, sp, #16
 1947              	.LCFI30:
 1948              		.cfi_def_cfa_offset 32
 1949 0004 0446     		mov	r4, r0
 1950 0006 0E46     		mov	r6, r1
1197:SYS/shell/shell.c ****     shellWriteString(shell, "Return: ");
 1951              		.loc 1 1197 5 is_stmt 1 view .LVU527
1197:SYS/shell/shell.c ****     shellWriteString(shell, "Return: ");
 1952              		.loc 1 1197 10 is_stmt 0 view .LVU528
 1953 0008 184B     		ldr	r3, .L185
 1954 000a 01AD     		add	r5, sp, #4
 1955 000c 93E80700 		ldm	r3, {r0, r1, r2}
ARM GAS  C:\Users\huav\AppData\Local\Temp\cc1GSGvG.s 			page 73


 1956              	.LVL179:
1197:SYS/shell/shell.c ****     shellWriteString(shell, "Return: ");
 1957              		.loc 1 1197 10 view .LVU529
 1958 0010 85E80700 		stm	r5, {r0, r1, r2}
1198:SYS/shell/shell.c ****     shellWriteString(shell, &buffer[11 - shellToDec(value, buffer)]);
 1959              		.loc 1 1198 5 is_stmt 1 view .LVU530
 1960 0014 1649     		ldr	r1, .L185+4
 1961 0016 2046     		mov	r0, r4
 1962 0018 FFF7FEFF 		bl	shellWriteString
 1963              	.LVL180:
1199:SYS/shell/shell.c ****     shellWriteString(shell, ", 0x");
 1964              		.loc 1 1199 5 view .LVU531
1199:SYS/shell/shell.c ****     shellWriteString(shell, ", 0x");
 1965              		.loc 1 1199 42 is_stmt 0 view .LVU532
 1966 001c 2946     		mov	r1, r5
 1967 001e 3046     		mov	r0, r6
 1968 0020 FFF7FEFF 		bl	shellToDec
 1969              	.LVL181:
1199:SYS/shell/shell.c ****     shellWriteString(shell, ", 0x");
 1970              		.loc 1 1199 40 view .LVU533
 1971 0024 C0F10B01 		rsb	r1, r0, #11
1199:SYS/shell/shell.c ****     shellWriteString(shell, ", 0x");
 1972              		.loc 1 1199 5 view .LVU534
 1973 0028 2944     		add	r1, r1, r5
 1974 002a 2046     		mov	r0, r4
 1975 002c FFF7FEFF 		bl	shellWriteString
 1976              	.LVL182:
1200:SYS/shell/shell.c ****     for (short i = 0; i < 11; i++)
 1977              		.loc 1 1200 5 is_stmt 1 view .LVU535
 1978 0030 1049     		ldr	r1, .L185+8
 1979 0032 2046     		mov	r0, r4
 1980 0034 FFF7FEFF 		bl	shellWriteString
 1981              	.LVL183:
1201:SYS/shell/shell.c ****     {
 1982              		.loc 1 1201 5 view .LVU536
 1983              	.LBB9:
1201:SYS/shell/shell.c ****     {
 1984              		.loc 1 1201 10 view .LVU537
1201:SYS/shell/shell.c ****     {
 1985              		.loc 1 1201 16 is_stmt 0 view .LVU538
 1986 0038 0023     		movs	r3, #0
1201:SYS/shell/shell.c ****     {
 1987              		.loc 1 1201 5 view .LVU539
 1988 003a 07E0     		b	.L182
 1989              	.LVL184:
 1990              	.L183:
1203:SYS/shell/shell.c ****     }
 1991              		.loc 1 1203 9 is_stmt 1 discriminator 3 view .LVU540
1203:SYS/shell/shell.c ****     }
 1992              		.loc 1 1203 19 is_stmt 0 discriminator 3 view .LVU541
 1993 003c 04AA     		add	r2, sp, #16
 1994 003e 1A44     		add	r2, r2, r3
 1995 0040 4FF0300C 		mov	ip, #48
 1996 0044 02F80CCC 		strb	ip, [r2, #-12]
1201:SYS/shell/shell.c ****     {
 1997              		.loc 1 1201 31 is_stmt 1 discriminator 3 view .LVU542
1201:SYS/shell/shell.c ****     {
ARM GAS  C:\Users\huav\AppData\Local\Temp\cc1GSGvG.s 			page 74


 1998              		.loc 1 1201 32 is_stmt 0 discriminator 3 view .LVU543
 1999 0048 0133     		adds	r3, r3, #1
 2000              	.LVL185:
1201:SYS/shell/shell.c ****     {
 2001              		.loc 1 1201 32 discriminator 3 view .LVU544
 2002 004a 1BB2     		sxth	r3, r3
 2003              	.LVL186:
 2004              	.L182:
1201:SYS/shell/shell.c ****     {
 2005              		.loc 1 1201 23 is_stmt 1 discriminator 1 view .LVU545
1201:SYS/shell/shell.c ****     {
 2006              		.loc 1 1201 5 is_stmt 0 discriminator 1 view .LVU546
 2007 004c 0A2B     		cmp	r3, #10
 2008 004e F5DD     		ble	.L183
 2009              	.LBE9:
1205:SYS/shell/shell.c ****     shellWriteString(shell, buffer);
 2010              		.loc 1 1205 5 is_stmt 1 view .LVU547
 2011 0050 01A9     		add	r1, sp, #4
 2012 0052 3046     		mov	r0, r6
 2013 0054 FFF7FEFF 		bl	shellToHex
 2014              	.LVL187:
1206:SYS/shell/shell.c ****     shellWriteString(shell, "\r\n");
 2015              		.loc 1 1206 5 view .LVU548
 2016 0058 01A9     		add	r1, sp, #4
 2017 005a 2046     		mov	r0, r4
 2018 005c FFF7FEFF 		bl	shellWriteString
 2019              	.LVL188:
1207:SYS/shell/shell.c **** }
 2020              		.loc 1 1207 5 view .LVU549
 2021 0060 0549     		ldr	r1, .L185+12
 2022 0062 2046     		mov	r0, r4
 2023 0064 FFF7FEFF 		bl	shellWriteString
 2024              	.LVL189:
1208:SYS/shell/shell.c **** 
 2025              		.loc 1 1208 1 is_stmt 0 view .LVU550
 2026 0068 04B0     		add	sp, sp, #16
 2027              	.LCFI31:
 2028              		.cfi_def_cfa_offset 16
 2029              		@ sp needed
 2030 006a 70BD     		pop	{r4, r5, r6, pc}
 2031              	.LVL190:
 2032              	.L186:
1208:SYS/shell/shell.c **** 
 2033              		.loc 1 1208 1 view .LVU551
 2034              		.align	2
 2035              	.L185:
 2036 006c 14000000 		.word	.LC8
 2037 0070 00000000 		.word	.LC9
 2038 0074 0C000000 		.word	.LC10
 2039 0078 04000000 		.word	.LC3
 2040              		.cfi_endproc
 2041              	.LFE162:
 2043              		.section	.rodata.shellListItem.str1.4,"aMS",%progbits,1
 2044              		.align	2
 2045              	.LC11:
 2046 0000 434D4420 		.ascii	"CMD \015\012\000"
 2046      0D0A00
ARM GAS  C:\Users\huav\AppData\Local\Temp\cc1GSGvG.s 			page 75


 2047 0007 00       		.align	2
 2048              	.LC12:
 2049 0008 56415200 		.ascii	"VAR\000"
 2050              		.align	2
 2051              	.LC13:
 2052 000c 55534552 		.ascii	"USER\000"
 2052      00
 2053 0011 000000   		.align	2
 2054              	.LC14:
 2055 0014 4B455900 		.ascii	"KEY\000"
 2056              		.align	2
 2057              	.LC15:
 2058 0018 4E4F4E45 		.ascii	"NONE\000"
 2058      00
 2059              		.section	.text.shellListItem,"ax",%progbits
 2060              		.align	1
 2061              		.global	shellListItem
 2062              		.syntax unified
 2063              		.thumb
 2064              		.thumb_func
 2065              		.fpu fpv4-sp-d16
 2067              	shellListItem:
 2068              	.LVL191:
 2069              	.LFB142:
 564:SYS/shell/shell.c ****     short spaceLength;
 2070              		.loc 1 564 1 is_stmt 1 view -0
 2071              		.cfi_startproc
 2072              		@ args = 0, pretend = 0, frame = 0
 2073              		@ frame_needed = 0, uses_anonymous_args = 0
 564:SYS/shell/shell.c ****     short spaceLength;
 2074              		.loc 1 564 1 is_stmt 0 view .LVU553
 2075 0000 70B5     		push	{r4, r5, r6, lr}
 2076              	.LCFI32:
 2077              		.cfi_def_cfa_offset 16
 2078              		.cfi_offset 4, -16
 2079              		.cfi_offset 5, -12
 2080              		.cfi_offset 6, -8
 2081              		.cfi_offset 14, -4
 2082 0002 0546     		mov	r5, r0
 2083 0004 0E46     		mov	r6, r1
 565:SYS/shell/shell.c **** 
 2084              		.loc 1 565 5 is_stmt 1 view .LVU554
 567:SYS/shell/shell.c ****     spaceLength = (spaceLength > 0) ? spaceLength : 4;
 2085              		.loc 1 567 5 view .LVU555
 567:SYS/shell/shell.c ****     spaceLength = (spaceLength > 0) ? spaceLength : 4;
 2086              		.loc 1 567 24 is_stmt 0 view .LVU556
 2087 0006 0846     		mov	r0, r1
 2088              	.LVL192:
 567:SYS/shell/shell.c ****     spaceLength = (spaceLength > 0) ? spaceLength : 4;
 2089              		.loc 1 567 24 view .LVU557
 2090 0008 FFF7FEFF 		bl	shellGetCommandName
 2091              	.LVL193:
 567:SYS/shell/shell.c ****     spaceLength = (spaceLength > 0) ? spaceLength : 4;
 2092              		.loc 1 567 24 view .LVU558
 2093 000c 0146     		mov	r1, r0
 2094 000e 2846     		mov	r0, r5
 2095 0010 FFF7FEFF 		bl	shellWriteString
ARM GAS  C:\Users\huav\AppData\Local\Temp\cc1GSGvG.s 			page 76


 2096              	.LVL194:
 567:SYS/shell/shell.c ****     spaceLength = (spaceLength > 0) ? spaceLength : 4;
 2097              		.loc 1 567 22 view .LVU559
 2098 0014 C0F11604 		rsb	r4, r0, #22
 567:SYS/shell/shell.c ****     spaceLength = (spaceLength > 0) ? spaceLength : 4;
 2099              		.loc 1 567 17 view .LVU560
 2100 0018 24B2     		sxth	r4, r4
 2101              	.LVL195:
 568:SYS/shell/shell.c ****     do
 2102              		.loc 1 568 5 is_stmt 1 view .LVU561
 568:SYS/shell/shell.c ****     do
 2103              		.loc 1 568 17 is_stmt 0 view .LVU562
 2104 001a 002C     		cmp	r4, #0
 2105 001c 17DD     		ble	.L197
 2106              	.LVL196:
 2107              	.L189:
 569:SYS/shell/shell.c ****     {
 2108              		.loc 1 569 5 is_stmt 1 discriminator 1 view .LVU563
 571:SYS/shell/shell.c ****     } while (--spaceLength);
 2109              		.loc 1 571 9 discriminator 1 view .LVU564
 2110 001e 2D21     		movs	r1, #45
 2111 0020 2846     		mov	r0, r5
 2112 0022 FFF7FEFF 		bl	shellWriteByte
 2113              	.LVL197:
 572:SYS/shell/shell.c ****     if (item->attr.attrs.type <= SHELL_TYPE_CMD_FUNC)
 2114              		.loc 1 572 13 discriminator 1 view .LVU565
 572:SYS/shell/shell.c ****     if (item->attr.attrs.type <= SHELL_TYPE_CMD_FUNC)
 2115              		.loc 1 572 14 is_stmt 0 discriminator 1 view .LVU566
 2116 0026 013C     		subs	r4, r4, #1
 2117              	.LVL198:
 572:SYS/shell/shell.c ****     if (item->attr.attrs.type <= SHELL_TYPE_CMD_FUNC)
 2118              		.loc 1 572 5 discriminator 1 view .LVU567
 2119 0028 24B2     		sxth	r4, r4
 2120              	.LVL199:
 572:SYS/shell/shell.c ****     if (item->attr.attrs.type <= SHELL_TYPE_CMD_FUNC)
 2121              		.loc 1 572 5 discriminator 1 view .LVU568
 2122 002a 002C     		cmp	r4, #0
 2123 002c F7D1     		bne	.L189
 573:SYS/shell/shell.c ****     {
 2124              		.loc 1 573 5 is_stmt 1 view .LVU569
 573:SYS/shell/shell.c ****     {
 2125              		.loc 1 573 25 is_stmt 0 view .LVU570
 2126 002e 7378     		ldrb	r3, [r6, #1]	@ zero_extendqisi2
 2127 0030 03F00F03 		and	r3, r3, #15
 573:SYS/shell/shell.c ****     {
 2128              		.loc 1 573 8 view .LVU571
 2129 0034 012B     		cmp	r3, #1
 2130 0036 0CD9     		bls	.L198
 577:SYS/shell/shell.c ****     {
 2131              		.loc 1 577 10 is_stmt 1 view .LVU572
 577:SYS/shell/shell.c ****     {
 2132              		.loc 1 577 13 is_stmt 0 view .LVU573
 2133 0038 072B     		cmp	r3, #7
 2134 003a 0FD9     		bls	.L199
 581:SYS/shell/shell.c ****     {
 2135              		.loc 1 581 10 is_stmt 1 view .LVU574
 581:SYS/shell/shell.c ****     {
ARM GAS  C:\Users\huav\AppData\Local\Temp\cc1GSGvG.s 			page 77


 2136              		.loc 1 581 13 is_stmt 0 view .LVU575
 2137 003c 082B     		cmp	r3, #8
 2138 003e 12D9     		bls	.L200
 585:SYS/shell/shell.c ****     {
 2139              		.loc 1 585 10 is_stmt 1 view .LVU576
 585:SYS/shell/shell.c ****     {
 2140              		.loc 1 585 13 is_stmt 0 view .LVU577
 2141 0040 092B     		cmp	r3, #9
 2142 0042 15D8     		bhi	.L194
 587:SYS/shell/shell.c ****     }
 2143              		.loc 1 587 9 is_stmt 1 view .LVU578
 2144 0044 0D49     		ldr	r1, .L201
 2145 0046 2846     		mov	r0, r5
 2146 0048 FFF7FEFF 		bl	shellWriteString
 2147              	.LVL200:
 2148 004c 05E0     		b	.L187
 2149              	.L197:
 568:SYS/shell/shell.c ****     do
 2150              		.loc 1 568 17 is_stmt 0 view .LVU579
 2151 004e 0424     		movs	r4, #4
 2152              	.LVL201:
 568:SYS/shell/shell.c ****     do
 2153              		.loc 1 568 17 view .LVU580
 2154 0050 E5E7     		b	.L189
 2155              	.LVL202:
 2156              	.L198:
 575:SYS/shell/shell.c ****     }
 2157              		.loc 1 575 9 is_stmt 1 view .LVU581
 2158 0052 0B49     		ldr	r1, .L201+4
 2159 0054 2846     		mov	r0, r5
 2160 0056 FFF7FEFF 		bl	shellWriteString
 2161              	.LVL203:
 2162              	.L187:
 603:SYS/shell/shell.c **** 
 2163              		.loc 1 603 1 is_stmt 0 view .LVU582
 2164 005a 70BD     		pop	{r4, r5, r6, pc}
 2165              	.LVL204:
 2166              	.L199:
 579:SYS/shell/shell.c ****     }
 2167              		.loc 1 579 9 is_stmt 1 view .LVU583
 2168 005c 0949     		ldr	r1, .L201+8
 2169 005e 2846     		mov	r0, r5
 2170 0060 FFF7FEFF 		bl	shellWriteString
 2171              	.LVL205:
 2172 0064 F9E7     		b	.L187
 2173              	.L200:
 583:SYS/shell/shell.c ****     }
 2174              		.loc 1 583 9 view .LVU584
 2175 0066 0849     		ldr	r1, .L201+12
 2176 0068 2846     		mov	r0, r5
 2177 006a FFF7FEFF 		bl	shellWriteString
 2178              	.LVL206:
 2179 006e F4E7     		b	.L187
 2180              	.L194:
 591:SYS/shell/shell.c ****     }
 2181              		.loc 1 591 9 view .LVU585
 2182 0070 0649     		ldr	r1, .L201+16
ARM GAS  C:\Users\huav\AppData\Local\Temp\cc1GSGvG.s 			page 78


 2183 0072 2846     		mov	r0, r5
 2184 0074 FFF7FEFF 		bl	shellWriteString
 2185              	.LVL207:
 603:SYS/shell/shell.c **** 
 2186              		.loc 1 603 1 is_stmt 0 view .LVU586
 2187 0078 EFE7     		b	.L187
 2188              	.L202:
 2189 007a 00BF     		.align	2
 2190              	.L201:
 2191 007c 14000000 		.word	.LC14
 2192 0080 00000000 		.word	.LC11
 2193 0084 08000000 		.word	.LC12
 2194 0088 0C000000 		.word	.LC13
 2195 008c 18000000 		.word	.LC15
 2196              		.cfi_endproc
 2197              	.LFE142:
 2199              		.section	.rodata.shellListCommand.str1.4,"aMS",%progbits,1
 2200              		.align	2
 2201              	.LC16:
 2202 0000 0D0A436F 		.ascii	"\015\012Command List:\015\012\000"
 2202      6D6D616E 
 2202      64204C69 
 2202      73743A0D 
 2202      0A00
 2203              		.section	.text.shellListCommand,"ax",%progbits
 2204              		.align	1
 2205              		.global	shellListCommand
 2206              		.syntax unified
 2207              		.thumb
 2208              		.thumb_func
 2209              		.fpu fpv4-sp-d16
 2211              	shellListCommand:
 2212              	.LVL208:
 2213              	.LFB143:
 611:SYS/shell/shell.c ****     ShellCommand *base = (ShellCommand *)shell->commandList.base;
 2214              		.loc 1 611 1 is_stmt 1 view -0
 2215              		.cfi_startproc
 2216              		@ args = 0, pretend = 0, frame = 0
 2217              		@ frame_needed = 0, uses_anonymous_args = 0
 611:SYS/shell/shell.c ****     ShellCommand *base = (ShellCommand *)shell->commandList.base;
 2218              		.loc 1 611 1 is_stmt 0 view .LVU588
 2219 0000 F8B5     		push	{r3, r4, r5, r6, r7, lr}
 2220              	.LCFI33:
 2221              		.cfi_def_cfa_offset 24
 2222              		.cfi_offset 3, -24
 2223              		.cfi_offset 4, -20
 2224              		.cfi_offset 5, -16
 2225              		.cfi_offset 6, -12
 2226              		.cfi_offset 7, -8
 2227              		.cfi_offset 14, -4
 2228 0002 0646     		mov	r6, r0
 612:SYS/shell/shell.c ****     shellWriteString(shell, shellText[SHELL_TEXT_CMD_LIST]);
 2229              		.loc 1 612 5 is_stmt 1 view .LVU589
 612:SYS/shell/shell.c ****     shellWriteString(shell, shellText[SHELL_TEXT_CMD_LIST]);
 2230              		.loc 1 612 19 is_stmt 0 view .LVU590
 2231 0004 876D     		ldr	r7, [r0, #88]
 2232              	.LVL209:
ARM GAS  C:\Users\huav\AppData\Local\Temp\cc1GSGvG.s 			page 79


 613:SYS/shell/shell.c ****     for (short i = 0; i < shell->commandList.count; i++)
 2233              		.loc 1 613 5 is_stmt 1 view .LVU591
 2234 0006 0F49     		ldr	r1, .L209
 2235 0008 FFF7FEFF 		bl	shellWriteString
 2236              	.LVL210:
 614:SYS/shell/shell.c ****     {
 2237              		.loc 1 614 5 view .LVU592
 2238              	.LBB10:
 614:SYS/shell/shell.c ****     {
 2239              		.loc 1 614 10 view .LVU593
 614:SYS/shell/shell.c ****     {
 2240              		.loc 1 614 16 is_stmt 0 view .LVU594
 2241 000c 0024     		movs	r4, #0
 614:SYS/shell/shell.c ****     {
 2242              		.loc 1 614 5 view .LVU595
 2243 000e 01E0     		b	.L204
 2244              	.LVL211:
 2245              	.L205:
 614:SYS/shell/shell.c ****     {
 2246              		.loc 1 614 53 is_stmt 1 discriminator 2 view .LVU596
 614:SYS/shell/shell.c ****     {
 2247              		.loc 1 614 54 is_stmt 0 discriminator 2 view .LVU597
 2248 0010 0134     		adds	r4, r4, #1
 2249              	.LVL212:
 614:SYS/shell/shell.c ****     {
 2250              		.loc 1 614 54 discriminator 2 view .LVU598
 2251 0012 24B2     		sxth	r4, r4
 2252              	.LVL213:
 2253              	.L204:
 614:SYS/shell/shell.c ****     {
 2254              		.loc 1 614 23 is_stmt 1 discriminator 1 view .LVU599
 614:SYS/shell/shell.c ****     {
 2255              		.loc 1 614 45 is_stmt 0 discriminator 1 view .LVU600
 2256 0014 B6F85C30 		ldrh	r3, [r6, #92]
 614:SYS/shell/shell.c ****     {
 2257              		.loc 1 614 5 discriminator 1 view .LVU601
 2258 0018 9C42     		cmp	r4, r3
 2259 001a 11DA     		bge	.L208
 616:SYS/shell/shell.c ****         {
 2260              		.loc 1 616 9 is_stmt 1 view .LVU602
 616:SYS/shell/shell.c ****         {
 2261              		.loc 1 616 17 is_stmt 0 view .LVU603
 2262 001c 07EB0415 		add	r5, r7, r4, lsl #4
 616:SYS/shell/shell.c ****         {
 2263              		.loc 1 616 31 view .LVU604
 2264 0020 6B78     		ldrb	r3, [r5, #1]	@ zero_extendqisi2
 2265 0022 03F00F03 		and	r3, r3, #15
 616:SYS/shell/shell.c ****         {
 2266              		.loc 1 616 12 view .LVU605
 2267 0026 012B     		cmp	r3, #1
 2268 0028 F2D8     		bhi	.L205
 616:SYS/shell/shell.c ****         {
 2269              		.loc 1 616 63 discriminator 1 view .LVU606
 2270 002a 2946     		mov	r1, r5
 2271 002c 3046     		mov	r0, r6
 2272 002e FFF7FEFF 		bl	shellCheckPermission
 2273              	.LVL214:
ARM GAS  C:\Users\huav\AppData\Local\Temp\cc1GSGvG.s 			page 80


 616:SYS/shell/shell.c ****         {
 2274              		.loc 1 616 60 discriminator 1 view .LVU607
 2275 0032 0028     		cmp	r0, #0
 2276 0034 ECD1     		bne	.L205
 618:SYS/shell/shell.c ****         }
 2277              		.loc 1 618 13 is_stmt 1 view .LVU608
 2278 0036 2946     		mov	r1, r5
 2279 0038 3046     		mov	r0, r6
 2280 003a FFF7FEFF 		bl	shellListItem
 2281              	.LVL215:
 2282 003e E7E7     		b	.L205
 2283              	.L208:
 618:SYS/shell/shell.c ****         }
 2284              		.loc 1 618 13 is_stmt 0 view .LVU609
 2285              	.LBE10:
 621:SYS/shell/shell.c **** 
 2286              		.loc 1 621 1 view .LVU610
 2287 0040 F8BD     		pop	{r3, r4, r5, r6, r7, pc}
 2288              	.LVL216:
 2289              	.L210:
 621:SYS/shell/shell.c **** 
 2290              		.loc 1 621 1 view .LVU611
 2291 0042 00BF     		.align	2
 2292              	.L209:
 2293 0044 00000000 		.word	.LC16
 2294              		.cfi_endproc
 2295              	.LFE143:
 2297              		.section	.text.shellCmds,"ax",%progbits
 2298              		.align	1
 2299              		.global	shellCmds
 2300              		.syntax unified
 2301              		.thumb
 2302              		.thumb_func
 2303              		.fpu fpv4-sp-d16
 2305              	shellCmds:
 2306              	.LFB179:
1716:SYS/shell/shell.c ****     Shell *shell = shellGetCurrent();
 2307              		.loc 1 1716 1 is_stmt 1 view -0
 2308              		.cfi_startproc
 2309              		@ args = 0, pretend = 0, frame = 0
 2310              		@ frame_needed = 0, uses_anonymous_args = 0
 2311 0000 08B5     		push	{r3, lr}
 2312              	.LCFI34:
 2313              		.cfi_def_cfa_offset 8
 2314              		.cfi_offset 3, -8
 2315              		.cfi_offset 14, -4
1717:SYS/shell/shell.c ****     if (shell)
 2316              		.loc 1 1717 5 view .LVU613
1717:SYS/shell/shell.c ****     if (shell)
 2317              		.loc 1 1717 20 is_stmt 0 view .LVU614
 2318 0002 FFF7FEFF 		bl	shellGetCurrent
 2319              	.LVL217:
1718:SYS/shell/shell.c ****     {
 2320              		.loc 1 1718 5 is_stmt 1 view .LVU615
1718:SYS/shell/shell.c ****     {
 2321              		.loc 1 1718 8 is_stmt 0 view .LVU616
 2322 0006 08B1     		cbz	r0, .L211
ARM GAS  C:\Users\huav\AppData\Local\Temp\cc1GSGvG.s 			page 81


1720:SYS/shell/shell.c ****     }
 2323              		.loc 1 1720 9 is_stmt 1 view .LVU617
 2324 0008 FFF7FEFF 		bl	shellListCommand
 2325              	.LVL218:
 2326              	.L211:
1722:SYS/shell/shell.c **** SHELL_EXPORT_CMD(
 2327              		.loc 1 1722 1 is_stmt 0 view .LVU618
 2328 000c 08BD     		pop	{r3, pc}
 2329              		.cfi_endproc
 2330              	.LFE179:
 2332              		.section	.rodata.shellListVar.str1.4,"aMS",%progbits,1
 2333              		.align	2
 2334              	.LC17:
 2335 0000 0D0A5661 		.ascii	"\015\012Var List:\015\012\000"
 2335      72204C69 
 2335      73743A0D 
 2335      0A00
 2336              		.section	.text.shellListVar,"ax",%progbits
 2337              		.align	1
 2338              		.global	shellListVar
 2339              		.syntax unified
 2340              		.thumb
 2341              		.thumb_func
 2342              		.fpu fpv4-sp-d16
 2344              	shellListVar:
 2345              	.LVL219:
 2346              	.LFB144:
 629:SYS/shell/shell.c ****     ShellCommand *base = (ShellCommand *)shell->commandList.base;
 2347              		.loc 1 629 1 is_stmt 1 view -0
 2348              		.cfi_startproc
 2349              		@ args = 0, pretend = 0, frame = 0
 2350              		@ frame_needed = 0, uses_anonymous_args = 0
 629:SYS/shell/shell.c ****     ShellCommand *base = (ShellCommand *)shell->commandList.base;
 2351              		.loc 1 629 1 is_stmt 0 view .LVU620
 2352 0000 F8B5     		push	{r3, r4, r5, r6, r7, lr}
 2353              	.LCFI35:
 2354              		.cfi_def_cfa_offset 24
 2355              		.cfi_offset 3, -24
 2356              		.cfi_offset 4, -20
 2357              		.cfi_offset 5, -16
 2358              		.cfi_offset 6, -12
 2359              		.cfi_offset 7, -8
 2360              		.cfi_offset 14, -4
 2361 0002 0646     		mov	r6, r0
 630:SYS/shell/shell.c ****     shellWriteString(shell, shellText[SHELL_TEXT_VAR_LIST]);
 2362              		.loc 1 630 5 is_stmt 1 view .LVU621
 630:SYS/shell/shell.c ****     shellWriteString(shell, shellText[SHELL_TEXT_VAR_LIST]);
 2363              		.loc 1 630 19 is_stmt 0 view .LVU622
 2364 0004 876D     		ldr	r7, [r0, #88]
 2365              	.LVL220:
 631:SYS/shell/shell.c ****     for (short i = 0; i < shell->commandList.count; i++)
 2366              		.loc 1 631 5 is_stmt 1 view .LVU623
 2367 0006 1049     		ldr	r1, .L220
 2368 0008 FFF7FEFF 		bl	shellWriteString
 2369              	.LVL221:
 632:SYS/shell/shell.c ****     {
 2370              		.loc 1 632 5 view .LVU624
ARM GAS  C:\Users\huav\AppData\Local\Temp\cc1GSGvG.s 			page 82


 2371              	.LBB11:
 632:SYS/shell/shell.c ****     {
 2372              		.loc 1 632 10 view .LVU625
 632:SYS/shell/shell.c ****     {
 2373              		.loc 1 632 16 is_stmt 0 view .LVU626
 2374 000c 0024     		movs	r4, #0
 632:SYS/shell/shell.c ****     {
 2375              		.loc 1 632 5 view .LVU627
 2376 000e 01E0     		b	.L215
 2377              	.LVL222:
 2378              	.L216:
 632:SYS/shell/shell.c ****     {
 2379              		.loc 1 632 53 is_stmt 1 discriminator 2 view .LVU628
 632:SYS/shell/shell.c ****     {
 2380              		.loc 1 632 54 is_stmt 0 discriminator 2 view .LVU629
 2381 0010 0134     		adds	r4, r4, #1
 2382              	.LVL223:
 632:SYS/shell/shell.c ****     {
 2383              		.loc 1 632 54 discriminator 2 view .LVU630
 2384 0012 24B2     		sxth	r4, r4
 2385              	.LVL224:
 2386              	.L215:
 632:SYS/shell/shell.c ****     {
 2387              		.loc 1 632 23 is_stmt 1 discriminator 1 view .LVU631
 632:SYS/shell/shell.c ****     {
 2388              		.loc 1 632 45 is_stmt 0 discriminator 1 view .LVU632
 2389 0014 B6F85C30 		ldrh	r3, [r6, #92]
 632:SYS/shell/shell.c ****     {
 2390              		.loc 1 632 5 discriminator 1 view .LVU633
 2391 0018 9C42     		cmp	r4, r3
 2392 001a 14DA     		bge	.L219
 634:SYS/shell/shell.c ****         {
 2393              		.loc 1 634 9 is_stmt 1 view .LVU634
 634:SYS/shell/shell.c ****         {
 2394              		.loc 1 634 17 is_stmt 0 view .LVU635
 2395 001c 07EB0415 		add	r5, r7, r4, lsl #4
 634:SYS/shell/shell.c ****         {
 2396              		.loc 1 634 31 view .LVU636
 2397 0020 6B78     		ldrb	r3, [r5, #1]	@ zero_extendqisi2
 2398 0022 03F00F03 		and	r3, r3, #15
 634:SYS/shell/shell.c ****         {
 2399              		.loc 1 634 59 view .LVU637
 2400 0026 0E33     		adds	r3, r3, #14
 2401 0028 03F00F03 		and	r3, r3, #15
 634:SYS/shell/shell.c ****         {
 2402              		.loc 1 634 12 view .LVU638
 2403 002c 052B     		cmp	r3, #5
 2404 002e EFD8     		bhi	.L216
 634:SYS/shell/shell.c ****         {
 2405              		.loc 1 634 112 discriminator 1 view .LVU639
 2406 0030 2946     		mov	r1, r5
 2407 0032 3046     		mov	r0, r6
 2408 0034 FFF7FEFF 		bl	shellCheckPermission
 2409              	.LVL225:
 634:SYS/shell/shell.c ****         {
 2410              		.loc 1 634 109 discriminator 1 view .LVU640
 2411 0038 0028     		cmp	r0, #0
ARM GAS  C:\Users\huav\AppData\Local\Temp\cc1GSGvG.s 			page 83


 2412 003a E9D1     		bne	.L216
 636:SYS/shell/shell.c ****         }
 2413              		.loc 1 636 13 is_stmt 1 view .LVU641
 2414 003c 2946     		mov	r1, r5
 2415 003e 3046     		mov	r0, r6
 2416 0040 FFF7FEFF 		bl	shellListItem
 2417              	.LVL226:
 2418 0044 E4E7     		b	.L216
 2419              	.L219:
 636:SYS/shell/shell.c ****         }
 2420              		.loc 1 636 13 is_stmt 0 view .LVU642
 2421              	.LBE11:
 639:SYS/shell/shell.c **** 
 2422              		.loc 1 639 1 view .LVU643
 2423 0046 F8BD     		pop	{r3, r4, r5, r6, r7, pc}
 2424              	.LVL227:
 2425              	.L221:
 639:SYS/shell/shell.c **** 
 2426              		.loc 1 639 1 view .LVU644
 2427              		.align	2
 2428              	.L220:
 2429 0048 00000000 		.word	.LC17
 2430              		.cfi_endproc
 2431              	.LFE144:
 2433              		.section	.text.shellVars,"ax",%progbits
 2434              		.align	1
 2435              		.global	shellVars
 2436              		.syntax unified
 2437              		.thumb
 2438              		.thumb_func
 2439              		.fpu fpv4-sp-d16
 2441              	shellVars:
 2442              	.LFB180:
1731:SYS/shell/shell.c ****     Shell *shell = shellGetCurrent();
 2443              		.loc 1 1731 1 is_stmt 1 view -0
 2444              		.cfi_startproc
 2445              		@ args = 0, pretend = 0, frame = 0
 2446              		@ frame_needed = 0, uses_anonymous_args = 0
 2447 0000 08B5     		push	{r3, lr}
 2448              	.LCFI36:
 2449              		.cfi_def_cfa_offset 8
 2450              		.cfi_offset 3, -8
 2451              		.cfi_offset 14, -4
1732:SYS/shell/shell.c ****     if (shell)
 2452              		.loc 1 1732 5 view .LVU646
1732:SYS/shell/shell.c ****     if (shell)
 2453              		.loc 1 1732 20 is_stmt 0 view .LVU647
 2454 0002 FFF7FEFF 		bl	shellGetCurrent
 2455              	.LVL228:
1733:SYS/shell/shell.c ****     {
 2456              		.loc 1 1733 5 is_stmt 1 view .LVU648
1733:SYS/shell/shell.c ****     {
 2457              		.loc 1 1733 8 is_stmt 0 view .LVU649
 2458 0006 08B1     		cbz	r0, .L222
1735:SYS/shell/shell.c ****     }
 2459              		.loc 1 1735 9 is_stmt 1 view .LVU650
 2460 0008 FFF7FEFF 		bl	shellListVar
ARM GAS  C:\Users\huav\AppData\Local\Temp\cc1GSGvG.s 			page 84


 2461              	.LVL229:
 2462              	.L222:
1737:SYS/shell/shell.c **** SHELL_EXPORT_CMD(
 2463              		.loc 1 1737 1 is_stmt 0 view .LVU651
 2464 000c 08BD     		pop	{r3, pc}
 2465              		.cfi_endproc
 2466              	.LFE180:
 2468              		.section	.rodata.shellListUser.str1.4,"aMS",%progbits,1
 2469              		.align	2
 2470              	.LC18:
 2471 0000 0D0A5573 		.ascii	"\015\012User List:\015\012\000"
 2471      6572204C 
 2471      6973743A 
 2471      0D0A00
 2472              		.section	.text.shellListUser,"ax",%progbits
 2473              		.align	1
 2474              		.global	shellListUser
 2475              		.syntax unified
 2476              		.thumb
 2477              		.thumb_func
 2478              		.fpu fpv4-sp-d16
 2480              	shellListUser:
 2481              	.LVL230:
 2482              	.LFB145:
 647:SYS/shell/shell.c ****     ShellCommand *base = (ShellCommand *)shell->commandList.base;
 2483              		.loc 1 647 1 is_stmt 1 view -0
 2484              		.cfi_startproc
 2485              		@ args = 0, pretend = 0, frame = 0
 2486              		@ frame_needed = 0, uses_anonymous_args = 0
 647:SYS/shell/shell.c ****     ShellCommand *base = (ShellCommand *)shell->commandList.base;
 2487              		.loc 1 647 1 is_stmt 0 view .LVU653
 2488 0000 F8B5     		push	{r3, r4, r5, r6, r7, lr}
 2489              	.LCFI37:
 2490              		.cfi_def_cfa_offset 24
 2491              		.cfi_offset 3, -24
 2492              		.cfi_offset 4, -20
 2493              		.cfi_offset 5, -16
 2494              		.cfi_offset 6, -12
 2495              		.cfi_offset 7, -8
 2496              		.cfi_offset 14, -4
 2497 0002 0646     		mov	r6, r0
 648:SYS/shell/shell.c ****     shellWriteString(shell, shellText[SHELL_TEXT_USER_LIST]);
 2498              		.loc 1 648 5 is_stmt 1 view .LVU654
 648:SYS/shell/shell.c ****     shellWriteString(shell, shellText[SHELL_TEXT_USER_LIST]);
 2499              		.loc 1 648 19 is_stmt 0 view .LVU655
 2500 0004 876D     		ldr	r7, [r0, #88]
 2501              	.LVL231:
 649:SYS/shell/shell.c ****     for (short i = 0; i < shell->commandList.count; i++)
 2502              		.loc 1 649 5 is_stmt 1 view .LVU656
 2503 0006 0F49     		ldr	r1, .L231
 2504 0008 FFF7FEFF 		bl	shellWriteString
 2505              	.LVL232:
 650:SYS/shell/shell.c ****     {
 2506              		.loc 1 650 5 view .LVU657
 2507              	.LBB12:
 650:SYS/shell/shell.c ****     {
 2508              		.loc 1 650 10 view .LVU658
ARM GAS  C:\Users\huav\AppData\Local\Temp\cc1GSGvG.s 			page 85


 650:SYS/shell/shell.c ****     {
 2509              		.loc 1 650 16 is_stmt 0 view .LVU659
 2510 000c 0024     		movs	r4, #0
 650:SYS/shell/shell.c ****     {
 2511              		.loc 1 650 5 view .LVU660
 2512 000e 01E0     		b	.L226
 2513              	.LVL233:
 2514              	.L227:
 650:SYS/shell/shell.c ****     {
 2515              		.loc 1 650 53 is_stmt 1 discriminator 2 view .LVU661
 650:SYS/shell/shell.c ****     {
 2516              		.loc 1 650 54 is_stmt 0 discriminator 2 view .LVU662
 2517 0010 0134     		adds	r4, r4, #1
 2518              	.LVL234:
 650:SYS/shell/shell.c ****     {
 2519              		.loc 1 650 54 discriminator 2 view .LVU663
 2520 0012 24B2     		sxth	r4, r4
 2521              	.LVL235:
 2522              	.L226:
 650:SYS/shell/shell.c ****     {
 2523              		.loc 1 650 23 is_stmt 1 discriminator 1 view .LVU664
 650:SYS/shell/shell.c ****     {
 2524              		.loc 1 650 45 is_stmt 0 discriminator 1 view .LVU665
 2525 0014 B6F85C30 		ldrh	r3, [r6, #92]
 650:SYS/shell/shell.c ****     {
 2526              		.loc 1 650 5 discriminator 1 view .LVU666
 2527 0018 9C42     		cmp	r4, r3
 2528 001a 11DA     		bge	.L230
 652:SYS/shell/shell.c ****         {
 2529              		.loc 1 652 9 is_stmt 1 view .LVU667
 652:SYS/shell/shell.c ****         {
 2530              		.loc 1 652 17 is_stmt 0 view .LVU668
 2531 001c 07EB0415 		add	r5, r7, r4, lsl #4
 652:SYS/shell/shell.c ****         {
 2532              		.loc 1 652 59 view .LVU669
 2533 0020 6B78     		ldrb	r3, [r5, #1]	@ zero_extendqisi2
 2534 0022 03F00F03 		and	r3, r3, #15
 652:SYS/shell/shell.c ****         {
 2535              		.loc 1 652 12 view .LVU670
 2536 0026 082B     		cmp	r3, #8
 2537 0028 F2D1     		bne	.L227
 652:SYS/shell/shell.c ****         {
 2538              		.loc 1 652 108 discriminator 1 view .LVU671
 2539 002a 2946     		mov	r1, r5
 2540 002c 3046     		mov	r0, r6
 2541 002e FFF7FEFF 		bl	shellCheckPermission
 2542              	.LVL236:
 652:SYS/shell/shell.c ****         {
 2543              		.loc 1 652 105 discriminator 1 view .LVU672
 2544 0032 0028     		cmp	r0, #0
 2545 0034 ECD1     		bne	.L227
 654:SYS/shell/shell.c ****         }
 2546              		.loc 1 654 13 is_stmt 1 view .LVU673
 2547 0036 2946     		mov	r1, r5
 2548 0038 3046     		mov	r0, r6
 2549 003a FFF7FEFF 		bl	shellListItem
 2550              	.LVL237:
ARM GAS  C:\Users\huav\AppData\Local\Temp\cc1GSGvG.s 			page 86


 2551 003e E7E7     		b	.L227
 2552              	.L230:
 654:SYS/shell/shell.c ****         }
 2553              		.loc 1 654 13 is_stmt 0 view .LVU674
 2554              	.LBE12:
 657:SYS/shell/shell.c **** 
 2555              		.loc 1 657 1 view .LVU675
 2556 0040 F8BD     		pop	{r3, r4, r5, r6, r7, pc}
 2557              	.LVL238:
 2558              	.L232:
 657:SYS/shell/shell.c **** 
 2559              		.loc 1 657 1 view .LVU676
 2560 0042 00BF     		.align	2
 2561              	.L231:
 2562 0044 00000000 		.word	.LC18
 2563              		.cfi_endproc
 2564              	.LFE145:
 2566              		.section	.text.shellUsers,"ax",%progbits
 2567              		.align	1
 2568              		.global	shellUsers
 2569              		.syntax unified
 2570              		.thumb
 2571              		.thumb_func
 2572              		.fpu fpv4-sp-d16
 2574              	shellUsers:
 2575              	.LFB178:
1701:SYS/shell/shell.c ****     Shell *shell = shellGetCurrent();
 2576              		.loc 1 1701 1 is_stmt 1 view -0
 2577              		.cfi_startproc
 2578              		@ args = 0, pretend = 0, frame = 0
 2579              		@ frame_needed = 0, uses_anonymous_args = 0
 2580 0000 08B5     		push	{r3, lr}
 2581              	.LCFI38:
 2582              		.cfi_def_cfa_offset 8
 2583              		.cfi_offset 3, -8
 2584              		.cfi_offset 14, -4
1702:SYS/shell/shell.c ****     if (shell)
 2585              		.loc 1 1702 5 view .LVU678
1702:SYS/shell/shell.c ****     if (shell)
 2586              		.loc 1 1702 20 is_stmt 0 view .LVU679
 2587 0002 FFF7FEFF 		bl	shellGetCurrent
 2588              	.LVL239:
1703:SYS/shell/shell.c ****     {
 2589              		.loc 1 1703 5 is_stmt 1 view .LVU680
1703:SYS/shell/shell.c ****     {
 2590              		.loc 1 1703 8 is_stmt 0 view .LVU681
 2591 0006 08B1     		cbz	r0, .L233
1705:SYS/shell/shell.c ****     }
 2592              		.loc 1 1705 9 is_stmt 1 view .LVU682
 2593 0008 FFF7FEFF 		bl	shellListUser
 2594              	.LVL240:
 2595              	.L233:
1707:SYS/shell/shell.c **** SHELL_EXPORT_CMD(
 2596              		.loc 1 1707 1 is_stmt 0 view .LVU683
 2597 000c 08BD     		pop	{r3, pc}
 2598              		.cfi_endproc
 2599              	.LFE178:
ARM GAS  C:\Users\huav\AppData\Local\Temp\cc1GSGvG.s 			page 87


 2601              		.section	.rodata.shellListKey.str1.4,"aMS",%progbits,1
 2602              		.align	2
 2603              	.LC19:
 2604 0000 0D0A4B65 		.ascii	"\015\012Key List:\015\012\000"
 2604      79204C69 
 2604      73743A0D 
 2604      0A00
 2605              		.section	.text.shellListKey,"ax",%progbits
 2606              		.align	1
 2607              		.global	shellListKey
 2608              		.syntax unified
 2609              		.thumb
 2610              		.thumb_func
 2611              		.fpu fpv4-sp-d16
 2613              	shellListKey:
 2614              	.LVL241:
 2615              	.LFB146:
 665:SYS/shell/shell.c ****     ShellCommand *base = (ShellCommand *)shell->commandList.base;
 2616              		.loc 1 665 1 is_stmt 1 view -0
 2617              		.cfi_startproc
 2618              		@ args = 0, pretend = 0, frame = 0
 2619              		@ frame_needed = 0, uses_anonymous_args = 0
 665:SYS/shell/shell.c ****     ShellCommand *base = (ShellCommand *)shell->commandList.base;
 2620              		.loc 1 665 1 is_stmt 0 view .LVU685
 2621 0000 F8B5     		push	{r3, r4, r5, r6, r7, lr}
 2622              	.LCFI39:
 2623              		.cfi_def_cfa_offset 24
 2624              		.cfi_offset 3, -24
 2625              		.cfi_offset 4, -20
 2626              		.cfi_offset 5, -16
 2627              		.cfi_offset 6, -12
 2628              		.cfi_offset 7, -8
 2629              		.cfi_offset 14, -4
 2630 0002 0646     		mov	r6, r0
 666:SYS/shell/shell.c ****     shellWriteString(shell, shellText[SHELL_TEXT_KEY_LIST]);
 2631              		.loc 1 666 5 is_stmt 1 view .LVU686
 666:SYS/shell/shell.c ****     shellWriteString(shell, shellText[SHELL_TEXT_KEY_LIST]);
 2632              		.loc 1 666 19 is_stmt 0 view .LVU687
 2633 0004 876D     		ldr	r7, [r0, #88]
 2634              	.LVL242:
 667:SYS/shell/shell.c ****     for (short i = 0; i < shell->commandList.count; i++)
 2635              		.loc 1 667 5 is_stmt 1 view .LVU688
 2636 0006 0F49     		ldr	r1, .L242
 2637 0008 FFF7FEFF 		bl	shellWriteString
 2638              	.LVL243:
 668:SYS/shell/shell.c ****     {
 2639              		.loc 1 668 5 view .LVU689
 2640              	.LBB13:
 668:SYS/shell/shell.c ****     {
 2641              		.loc 1 668 10 view .LVU690
 668:SYS/shell/shell.c ****     {
 2642              		.loc 1 668 16 is_stmt 0 view .LVU691
 2643 000c 0024     		movs	r4, #0
 668:SYS/shell/shell.c ****     {
 2644              		.loc 1 668 5 view .LVU692
 2645 000e 01E0     		b	.L237
 2646              	.LVL244:
ARM GAS  C:\Users\huav\AppData\Local\Temp\cc1GSGvG.s 			page 88


 2647              	.L238:
 668:SYS/shell/shell.c ****     {
 2648              		.loc 1 668 53 is_stmt 1 discriminator 2 view .LVU693
 668:SYS/shell/shell.c ****     {
 2649              		.loc 1 668 54 is_stmt 0 discriminator 2 view .LVU694
 2650 0010 0134     		adds	r4, r4, #1
 2651              	.LVL245:
 668:SYS/shell/shell.c ****     {
 2652              		.loc 1 668 54 discriminator 2 view .LVU695
 2653 0012 24B2     		sxth	r4, r4
 2654              	.LVL246:
 2655              	.L237:
 668:SYS/shell/shell.c ****     {
 2656              		.loc 1 668 23 is_stmt 1 discriminator 1 view .LVU696
 668:SYS/shell/shell.c ****     {
 2657              		.loc 1 668 45 is_stmt 0 discriminator 1 view .LVU697
 2658 0014 B6F85C30 		ldrh	r3, [r6, #92]
 668:SYS/shell/shell.c ****     {
 2659              		.loc 1 668 5 discriminator 1 view .LVU698
 2660 0018 9C42     		cmp	r4, r3
 2661 001a 11DA     		bge	.L241
 670:SYS/shell/shell.c ****         {
 2662              		.loc 1 670 9 is_stmt 1 view .LVU699
 670:SYS/shell/shell.c ****         {
 2663              		.loc 1 670 17 is_stmt 0 view .LVU700
 2664 001c 07EB0415 		add	r5, r7, r4, lsl #4
 670:SYS/shell/shell.c ****         {
 2665              		.loc 1 670 55 view .LVU701
 2666 0020 6B78     		ldrb	r3, [r5, #1]	@ zero_extendqisi2
 2667 0022 03F00F03 		and	r3, r3, #15
 670:SYS/shell/shell.c ****         {
 2668              		.loc 1 670 12 view .LVU702
 2669 0026 092B     		cmp	r3, #9
 2670 0028 F2D1     		bne	.L238
 670:SYS/shell/shell.c ****         {
 2671              		.loc 1 670 103 discriminator 1 view .LVU703
 2672 002a 2946     		mov	r1, r5
 2673 002c 3046     		mov	r0, r6
 2674 002e FFF7FEFF 		bl	shellCheckPermission
 2675              	.LVL247:
 670:SYS/shell/shell.c ****         {
 2676              		.loc 1 670 100 discriminator 1 view .LVU704
 2677 0032 0028     		cmp	r0, #0
 2678 0034 ECD1     		bne	.L238
 672:SYS/shell/shell.c ****         }
 2679              		.loc 1 672 13 is_stmt 1 view .LVU705
 2680 0036 2946     		mov	r1, r5
 2681 0038 3046     		mov	r0, r6
 2682 003a FFF7FEFF 		bl	shellListItem
 2683              	.LVL248:
 2684 003e E7E7     		b	.L238
 2685              	.L241:
 672:SYS/shell/shell.c ****         }
 2686              		.loc 1 672 13 is_stmt 0 view .LVU706
 2687              	.LBE13:
 675:SYS/shell/shell.c **** 
 2688              		.loc 1 675 1 view .LVU707
ARM GAS  C:\Users\huav\AppData\Local\Temp\cc1GSGvG.s 			page 89


 2689 0040 F8BD     		pop	{r3, r4, r5, r6, r7, pc}
 2690              	.LVL249:
 2691              	.L243:
 675:SYS/shell/shell.c **** 
 2692              		.loc 1 675 1 view .LVU708
 2693 0042 00BF     		.align	2
 2694              	.L242:
 2695 0044 00000000 		.word	.LC19
 2696              		.cfi_endproc
 2697              	.LFE146:
 2699              		.section	.text.shellKeys,"ax",%progbits
 2700              		.align	1
 2701              		.global	shellKeys
 2702              		.syntax unified
 2703              		.thumb
 2704              		.thumb_func
 2705              		.fpu fpv4-sp-d16
 2707              	shellKeys:
 2708              	.LFB181:
1746:SYS/shell/shell.c ****     Shell *shell = shellGetCurrent();
 2709              		.loc 1 1746 1 is_stmt 1 view -0
 2710              		.cfi_startproc
 2711              		@ args = 0, pretend = 0, frame = 0
 2712              		@ frame_needed = 0, uses_anonymous_args = 0
 2713 0000 08B5     		push	{r3, lr}
 2714              	.LCFI40:
 2715              		.cfi_def_cfa_offset 8
 2716              		.cfi_offset 3, -8
 2717              		.cfi_offset 14, -4
1747:SYS/shell/shell.c ****     if (shell)
 2718              		.loc 1 1747 5 view .LVU710
1747:SYS/shell/shell.c ****     if (shell)
 2719              		.loc 1 1747 20 is_stmt 0 view .LVU711
 2720 0002 FFF7FEFF 		bl	shellGetCurrent
 2721              	.LVL250:
1748:SYS/shell/shell.c ****     {
 2722              		.loc 1 1748 5 is_stmt 1 view .LVU712
1748:SYS/shell/shell.c ****     {
 2723              		.loc 1 1748 8 is_stmt 0 view .LVU713
 2724 0006 08B1     		cbz	r0, .L244
1750:SYS/shell/shell.c ****     }
 2725              		.loc 1 1750 9 is_stmt 1 view .LVU714
 2726 0008 FFF7FEFF 		bl	shellListKey
 2727              	.LVL251:
 2728              	.L244:
1752:SYS/shell/shell.c **** SHELL_EXPORT_CMD(
 2729              		.loc 1 1752 1 is_stmt 0 view .LVU715
 2730 000c 08BD     		pop	{r3, pc}
 2731              		.cfi_endproc
 2732              	.LFE181:
 2734              		.section	.text.shellListAll,"ax",%progbits
 2735              		.align	1
 2736              		.global	shellListAll
 2737              		.syntax unified
 2738              		.thumb
 2739              		.thumb_func
 2740              		.fpu fpv4-sp-d16
ARM GAS  C:\Users\huav\AppData\Local\Temp\cc1GSGvG.s 			page 90


 2742              	shellListAll:
 2743              	.LVL252:
 2744              	.LFB147:
 683:SYS/shell/shell.c **** #if SHELL_HELP_LIST_USER == 1
 2745              		.loc 1 683 1 is_stmt 1 view -0
 2746              		.cfi_startproc
 2747              		@ args = 0, pretend = 0, frame = 0
 2748              		@ frame_needed = 0, uses_anonymous_args = 0
 683:SYS/shell/shell.c **** #if SHELL_HELP_LIST_USER == 1
 2749              		.loc 1 683 1 is_stmt 0 view .LVU717
 2750 0000 08B5     		push	{r3, lr}
 2751              	.LCFI41:
 2752              		.cfi_def_cfa_offset 8
 2753              		.cfi_offset 3, -8
 2754              		.cfi_offset 14, -4
 687:SYS/shell/shell.c **** #if SHELL_HELP_LIST_VAR == 1
 2755              		.loc 1 687 5 is_stmt 1 view .LVU718
 2756 0002 FFF7FEFF 		bl	shellListCommand
 2757              	.LVL253:
 694:SYS/shell/shell.c **** 
 2758              		.loc 1 694 1 is_stmt 0 view .LVU719
 2759 0006 08BD     		pop	{r3, pc}
 2760              		.cfi_endproc
 2761              	.LFE147:
 2763              		.section	.rodata.shellDeleteCommandLine.str1.4,"aMS",%progbits,1
 2764              		.align	2
 2765              	.LC20:
 2766 0000 08200800 		.ascii	"\010 \010\000"
 2767              		.section	.text.shellDeleteCommandLine,"ax",%progbits
 2768              		.align	1
 2769              		.global	shellDeleteCommandLine
 2770              		.syntax unified
 2771              		.thumb
 2772              		.thumb_func
 2773              		.fpu fpv4-sp-d16
 2775              	shellDeleteCommandLine:
 2776              	.LVL254:
 2777              	.LFB148:
 703:SYS/shell/shell.c ****     while (length--)
 2778              		.loc 1 703 1 is_stmt 1 view -0
 2779              		.cfi_startproc
 2780              		@ args = 0, pretend = 0, frame = 0
 2781              		@ frame_needed = 0, uses_anonymous_args = 0
 703:SYS/shell/shell.c ****     while (length--)
 2782              		.loc 1 703 1 is_stmt 0 view .LVU721
 2783 0000 38B5     		push	{r3, r4, r5, lr}
 2784              	.LCFI42:
 2785              		.cfi_def_cfa_offset 16
 2786              		.cfi_offset 3, -16
 2787              		.cfi_offset 4, -12
 2788              		.cfi_offset 5, -8
 2789              		.cfi_offset 14, -4
 2790 0002 0546     		mov	r5, r0
 704:SYS/shell/shell.c ****     {
 2791              		.loc 1 704 5 is_stmt 1 view .LVU722
 704:SYS/shell/shell.c ****     {
 2792              		.loc 1 704 11 is_stmt 0 view .LVU723
ARM GAS  C:\Users\huav\AppData\Local\Temp\cc1GSGvG.s 			page 91


 2793 0004 04E0     		b	.L250
 2794              	.LVL255:
 2795              	.L251:
 706:SYS/shell/shell.c ****     }
 2796              		.loc 1 706 9 is_stmt 1 view .LVU724
 2797 0006 0549     		ldr	r1, .L253
 2798 0008 2846     		mov	r0, r5
 2799 000a FFF7FEFF 		bl	shellWriteString
 2800              	.LVL256:
 704:SYS/shell/shell.c ****     {
 2801              		.loc 1 704 18 is_stmt 0 view .LVU725
 2802 000e 2146     		mov	r1, r4
 2803              	.LVL257:
 2804              	.L250:
 704:SYS/shell/shell.c ****     {
 2805              		.loc 1 704 11 is_stmt 1 view .LVU726
 704:SYS/shell/shell.c ****     {
 2806              		.loc 1 704 18 is_stmt 0 view .LVU727
 2807 0010 4B1E     		subs	r3, r1, #1
 2808 0012 DCB2     		uxtb	r4, r3
 2809              	.LVL258:
 704:SYS/shell/shell.c ****     {
 2810              		.loc 1 704 11 view .LVU728
 2811 0014 0029     		cmp	r1, #0
 2812 0016 F6D1     		bne	.L251
 708:SYS/shell/shell.c **** 
 2813              		.loc 1 708 1 view .LVU729
 2814 0018 38BD     		pop	{r3, r4, r5, pc}
 2815              	.LVL259:
 2816              	.L254:
 708:SYS/shell/shell.c **** 
 2817              		.loc 1 708 1 view .LVU730
 2818 001a 00BF     		.align	2
 2819              	.L253:
 2820 001c 00000000 		.word	.LC20
 2821              		.cfi_endproc
 2822              	.LFE148:
 2824              		.section	.text.shellClearCommandLine,"ax",%progbits
 2825              		.align	1
 2826              		.global	shellClearCommandLine
 2827              		.syntax unified
 2828              		.thumb
 2829              		.thumb_func
 2830              		.fpu fpv4-sp-d16
 2832              	shellClearCommandLine:
 2833              	.LVL260:
 2834              	.LFB149:
 716:SYS/shell/shell.c ****     for (short i = shell->parser.length - shell->parser.cursor; i > 0; i--)
 2835              		.loc 1 716 1 is_stmt 1 view -0
 2836              		.cfi_startproc
 2837              		@ args = 0, pretend = 0, frame = 0
 2838              		@ frame_needed = 0, uses_anonymous_args = 0
 716:SYS/shell/shell.c ****     for (short i = shell->parser.length - shell->parser.cursor; i > 0; i--)
 2839              		.loc 1 716 1 is_stmt 0 view .LVU732
 2840 0000 38B5     		push	{r3, r4, r5, lr}
 2841              	.LCFI43:
 2842              		.cfi_def_cfa_offset 16
ARM GAS  C:\Users\huav\AppData\Local\Temp\cc1GSGvG.s 			page 92


 2843              		.cfi_offset 3, -16
 2844              		.cfi_offset 4, -12
 2845              		.cfi_offset 5, -8
 2846              		.cfi_offset 14, -4
 2847 0002 0546     		mov	r5, r0
 717:SYS/shell/shell.c ****     {
 2848              		.loc 1 717 5 is_stmt 1 view .LVU733
 2849              	.LBB14:
 717:SYS/shell/shell.c ****     {
 2850              		.loc 1 717 10 view .LVU734
 717:SYS/shell/shell.c ****     {
 2851              		.loc 1 717 33 is_stmt 0 view .LVU735
 2852 0004 8489     		ldrh	r4, [r0, #12]
 717:SYS/shell/shell.c ****     {
 2853              		.loc 1 717 56 view .LVU736
 2854 0006 C389     		ldrh	r3, [r0, #14]
 717:SYS/shell/shell.c ****     {
 2855              		.loc 1 717 41 view .LVU737
 2856 0008 E41A     		subs	r4, r4, r3
 717:SYS/shell/shell.c ****     {
 2857              		.loc 1 717 16 view .LVU738
 2858 000a 24B2     		sxth	r4, r4
 2859              	.LVL261:
 717:SYS/shell/shell.c ****     {
 2860              		.loc 1 717 5 view .LVU739
 2861 000c 05E0     		b	.L256
 2862              	.LVL262:
 2863              	.L257:
 719:SYS/shell/shell.c ****     }
 2864              		.loc 1 719 9 is_stmt 1 discriminator 3 view .LVU740
 2865 000e 2021     		movs	r1, #32
 2866 0010 2846     		mov	r0, r5
 2867 0012 FFF7FEFF 		bl	shellWriteByte
 2868              	.LVL263:
 717:SYS/shell/shell.c ****     {
 2869              		.loc 1 717 72 discriminator 3 view .LVU741
 717:SYS/shell/shell.c ****     {
 2870              		.loc 1 717 73 is_stmt 0 discriminator 3 view .LVU742
 2871 0016 013C     		subs	r4, r4, #1
 2872              	.LVL264:
 717:SYS/shell/shell.c ****     {
 2873              		.loc 1 717 73 discriminator 3 view .LVU743
 2874 0018 24B2     		sxth	r4, r4
 2875              	.LVL265:
 2876              	.L256:
 717:SYS/shell/shell.c ****     {
 2877              		.loc 1 717 65 is_stmt 1 discriminator 1 view .LVU744
 717:SYS/shell/shell.c ****     {
 2878              		.loc 1 717 5 is_stmt 0 discriminator 1 view .LVU745
 2879 001a 002C     		cmp	r4, #0
 2880 001c F7DC     		bgt	.L257
 717:SYS/shell/shell.c ****     {
 2881              		.loc 1 717 5 discriminator 1 view .LVU746
 2882              	.LBE14:
 721:SYS/shell/shell.c **** }
 2883              		.loc 1 721 5 is_stmt 1 view .LVU747
 2884 001e 297B     		ldrb	r1, [r5, #12]	@ zero_extendqisi2
ARM GAS  C:\Users\huav\AppData\Local\Temp\cc1GSGvG.s 			page 93


 2885 0020 2846     		mov	r0, r5
 2886 0022 FFF7FEFF 		bl	shellDeleteCommandLine
 2887              	.LVL266:
 722:SYS/shell/shell.c **** 
 2888              		.loc 1 722 1 is_stmt 0 view .LVU748
 2889 0026 38BD     		pop	{r3, r4, r5, pc}
 722:SYS/shell/shell.c **** 
 2890              		.loc 1 722 1 view .LVU749
 2891              		.cfi_endproc
 2892              	.LFE149:
 2894              		.section	.text.shellHistory,"ax",%progbits
 2895              		.align	1
 2896              		.syntax unified
 2897              		.thumb
 2898              		.thumb_func
 2899              		.fpu fpv4-sp-d16
 2901              	shellHistory:
 2902              	.LVL267:
 2903              	.LFB164:
1245:SYS/shell/shell.c ****     if (dir > 0)
 2904              		.loc 1 1245 1 is_stmt 1 view -0
 2905              		.cfi_startproc
 2906              		@ args = 0, pretend = 0, frame = 0
 2907              		@ frame_needed = 0, uses_anonymous_args = 0
1245:SYS/shell/shell.c ****     if (dir > 0)
 2908              		.loc 1 1245 1 is_stmt 0 view .LVU751
 2909 0000 10B5     		push	{r4, lr}
 2910              	.LCFI44:
 2911              		.cfi_def_cfa_offset 8
 2912              		.cfi_offset 4, -8
 2913              		.cfi_offset 14, -4
 2914 0002 0446     		mov	r4, r0
1246:SYS/shell/shell.c ****     {
 2915              		.loc 1 1246 5 is_stmt 1 view .LVU752
1246:SYS/shell/shell.c ****     {
 2916              		.loc 1 1246 8 is_stmt 0 view .LVU753
 2917 0004 0029     		cmp	r1, #0
 2918              	.LVL268:
1246:SYS/shell/shell.c ****     {
 2919              		.loc 1 1246 8 view .LVU754
 2920 0006 19DD     		ble	.L260
1248:SYS/shell/shell.c ****             -((shell->history.number > shell->history.record) ? shell->history.number : shell->hist
 2921              		.loc 1 1248 9 is_stmt 1 view .LVU755
1248:SYS/shell/shell.c ****             -((shell->history.number > shell->history.record) ? shell->history.number : shell->hist
 2922              		.loc 1 1248 27 is_stmt 0 view .LVU756
 2923 0008 B0F95420 		ldrsh	r2, [r0, #84]
1248:SYS/shell/shell.c ****             -((shell->history.number > shell->history.record) ? shell->history.number : shell->hist
 2924              		.loc 1 1248 34 view .LVU757
 2925 000c 531E     		subs	r3, r2, #1
 2926 000e A0F85430 		strh	r3, [r0, #84]	@ movhi
1249:SYS/shell/shell.c ****         {
 2927              		.loc 1 1249 54 view .LVU758
 2928 0012 B0F85230 		ldrh	r3, [r0, #82]
1249:SYS/shell/shell.c ****         {
 2929              		.loc 1 1249 30 view .LVU759
 2930 0016 B0F85010 		ldrh	r1, [r0, #80]
1249:SYS/shell/shell.c ****         {
ARM GAS  C:\Users\huav\AppData\Local\Temp\cc1GSGvG.s 			page 94


 2931              		.loc 1 1249 87 view .LVU760
 2932 001a 8B42     		cmp	r3, r1
 2933 001c 38BF     		it	cc
 2934 001e 0B46     		movcc	r3, r1
1249:SYS/shell/shell.c ****         {
 2935              		.loc 1 1249 13 view .LVU761
 2936 0020 5942     		rsbs	r1, r3, #0
1248:SYS/shell/shell.c ****             -((shell->history.number > shell->history.record) ? shell->history.number : shell->hist
 2937              		.loc 1 1248 12 view .LVU762
 2938 0022 8A42     		cmp	r2, r1
 2939 0024 01DC     		bgt	.L261
1251:SYS/shell/shell.c ****                                           ? shell->history.number
 2940              		.loc 1 1251 13 is_stmt 1 view .LVU763
1251:SYS/shell/shell.c ****                                           ? shell->history.number
 2941              		.loc 1 1251 35 is_stmt 0 view .LVU764
 2942 0026 A4F85410 		strh	r1, [r4, #84]	@ movhi
 2943              	.L261:
1268:SYS/shell/shell.c ****     if (shell->history.offset == 0)
 2944              		.loc 1 1268 5 is_stmt 1 view .LVU765
 2945 002a 2046     		mov	r0, r4
 2946              	.LVL269:
1268:SYS/shell/shell.c ****     if (shell->history.offset == 0)
 2947              		.loc 1 1268 5 is_stmt 0 view .LVU766
 2948 002c FFF7FEFF 		bl	shellClearCommandLine
 2949              	.LVL270:
1269:SYS/shell/shell.c ****     {
 2950              		.loc 1 1269 5 is_stmt 1 view .LVU767
1269:SYS/shell/shell.c ****     {
 2951              		.loc 1 1269 23 is_stmt 0 view .LVU768
 2952 0030 B4F95430 		ldrsh	r3, [r4, #84]
1269:SYS/shell/shell.c ****     {
 2953              		.loc 1 1269 8 view .LVU769
 2954 0034 83B9     		cbnz	r3, .L263
1271:SYS/shell/shell.c ****     }
 2955              		.loc 1 1271 9 is_stmt 1 view .LVU770
1271:SYS/shell/shell.c ****     }
 2956              		.loc 1 1271 53 is_stmt 0 view .LVU771
 2957 0036 A381     		strh	r3, [r4, #12]	@ movhi
1271:SYS/shell/shell.c ****     }
 2958              		.loc 1 1271 30 view .LVU772
 2959 0038 E381     		strh	r3, [r4, #14]	@ movhi
 2960              	.L259:
1283:SYS/shell/shell.c **** 
 2961              		.loc 1 1283 1 view .LVU773
 2962 003a 10BD     		pop	{r4, pc}
 2963              	.LVL271:
 2964              	.L260:
1256:SYS/shell/shell.c ****     {
 2965              		.loc 1 1256 10 is_stmt 1 view .LVU774
1256:SYS/shell/shell.c ****     {
 2966              		.loc 1 1256 13 is_stmt 0 view .LVU775
 2967 003c 0029     		cmp	r1, #0
 2968 003e FCDA     		bge	.L259
1258:SYS/shell/shell.c ****         {
 2969              		.loc 1 1258 9 is_stmt 1 view .LVU776
1258:SYS/shell/shell.c ****         {
 2970              		.loc 1 1258 29 is_stmt 0 view .LVU777
ARM GAS  C:\Users\huav\AppData\Local\Temp\cc1GSGvG.s 			page 95


 2971 0040 B0F95430 		ldrsh	r3, [r0, #84]
1258:SYS/shell/shell.c ****         {
 2972              		.loc 1 1258 13 view .LVU778
 2973 0044 0133     		adds	r3, r3, #1
 2974 0046 1BB2     		sxth	r3, r3
1258:SYS/shell/shell.c ****         {
 2975              		.loc 1 1258 12 view .LVU779
 2976 0048 A0F85430 		strh	r3, [r0, #84]	@ movhi
 2977 004c 002B     		cmp	r3, #0
 2978 004e ECDD     		ble	.L261
1260:SYS/shell/shell.c ****             return;
 2979              		.loc 1 1260 13 is_stmt 1 view .LVU780
1260:SYS/shell/shell.c ****             return;
 2980              		.loc 1 1260 35 is_stmt 0 view .LVU781
 2981 0050 0023     		movs	r3, #0
 2982 0052 A0F85430 		strh	r3, [r0, #84]	@ movhi
1261:SYS/shell/shell.c ****         }
 2983              		.loc 1 1261 13 is_stmt 1 view .LVU782
 2984 0056 F0E7     		b	.L259
 2985              	.LVL272:
 2986              	.L263:
1275:SYS/shell/shell.c ****                                                     shell->history.item[(shell->history.record + SH
 2987              		.loc 1 1275 9 view .LVU783
1276:SYS/shell/shell.c ****         {
 2988              		.loc 1 1276 88 is_stmt 0 view .LVU784
 2989 0058 B4F85220 		ldrh	r2, [r4, #82]
1276:SYS/shell/shell.c ****         {
 2990              		.loc 1 1276 96 view .LVU785
 2991 005c 0532     		adds	r2, r2, #5
1276:SYS/shell/shell.c ****         {
 2992              		.loc 1 1276 123 view .LVU786
 2993 005e 1A44     		add	r2, r2, r3
1276:SYS/shell/shell.c ****         {
 2994              		.loc 1 1276 148 view .LVU787
 2995 0060 0C49     		ldr	r1, .L265
 2996 0062 81FB0231 		smull	r3, r1, r1, r2
 2997 0066 D317     		asrs	r3, r2, #31
 2998 0068 C3EB6103 		rsb	r3, r3, r1, asr #1
 2999 006c 03EB8303 		add	r3, r3, r3, lsl #2
 3000 0070 D31A     		subs	r3, r2, r3
1275:SYS/shell/shell.c ****                                                     shell->history.item[(shell->history.record + SH
 3001              		.loc 1 1275 37 view .LVU788
 3002 0072 0E33     		adds	r3, r3, #14
 3003 0074 04EB8303 		add	r3, r4, r3, lsl #2
 3004 0078 5968     		ldr	r1, [r3, #4]
 3005 007a 2069     		ldr	r0, [r4, #16]
 3006 007c FFF7FEFF 		bl	shellStringCopy
 3007              	.LVL273:
1275:SYS/shell/shell.c ****                                                     shell->history.item[(shell->history.record + SH
 3008              		.loc 1 1275 35 view .LVU789
 3009 0080 A081     		strh	r0, [r4, #12]	@ movhi
1275:SYS/shell/shell.c ****                                                     shell->history.item[(shell->history.record + SH
 3010              		.loc 1 1275 12 view .LVU790
 3011 0082 0028     		cmp	r0, #0
 3012 0084 D9D0     		beq	.L259
1280:SYS/shell/shell.c ****         shellWriteString(shell, shell->parser.buffer);
 3013              		.loc 1 1280 9 is_stmt 1 view .LVU791
ARM GAS  C:\Users\huav\AppData\Local\Temp\cc1GSGvG.s 			page 96


1280:SYS/shell/shell.c ****         shellWriteString(shell, shell->parser.buffer);
 3014              		.loc 1 1280 30 is_stmt 0 view .LVU792
 3015 0086 E081     		strh	r0, [r4, #14]	@ movhi
1281:SYS/shell/shell.c ****     }
 3016              		.loc 1 1281 9 is_stmt 1 view .LVU793
 3017 0088 2169     		ldr	r1, [r4, #16]
 3018 008a 2046     		mov	r0, r4
 3019 008c FFF7FEFF 		bl	shellWriteString
 3020              	.LVL274:
 3021 0090 D3E7     		b	.L259
 3022              	.L266:
 3023 0092 00BF     		.align	2
 3024              	.L265:
 3025 0094 67666666 		.word	1717986919
 3026              		.cfi_endproc
 3027              	.LFE164:
 3029              		.section	.text.shellUp,"ax",%progbits
 3030              		.align	1
 3031              		.global	shellUp
 3032              		.syntax unified
 3033              		.thumb
 3034              		.thumb_func
 3035              		.fpu fpv4-sp-d16
 3037              	shellUp:
 3038              	.LVL275:
 3039              	.LFB167:
1348:SYS/shell/shell.c ****     shellHistory(shell, 1);
 3040              		.loc 1 1348 1 view -0
 3041              		.cfi_startproc
 3042              		@ args = 0, pretend = 0, frame = 0
 3043              		@ frame_needed = 0, uses_anonymous_args = 0
1348:SYS/shell/shell.c ****     shellHistory(shell, 1);
 3044              		.loc 1 1348 1 is_stmt 0 view .LVU795
 3045 0000 08B5     		push	{r3, lr}
 3046              	.LCFI45:
 3047              		.cfi_def_cfa_offset 8
 3048              		.cfi_offset 3, -8
 3049              		.cfi_offset 14, -4
1349:SYS/shell/shell.c **** }
 3050              		.loc 1 1349 5 is_stmt 1 view .LVU796
 3051 0002 0121     		movs	r1, #1
 3052 0004 FFF7FEFF 		bl	shellHistory
 3053              	.LVL276:
1350:SYS/shell/shell.c **** SHELL_EXPORT_KEY(SHELL_CMD_PERMISSION(0), 0x1B5B4100, shellUp, up);
 3054              		.loc 1 1350 1 is_stmt 0 view .LVU797
 3055 0008 08BD     		pop	{r3, pc}
 3056              		.cfi_endproc
 3057              	.LFE167:
 3059              		.section	.text.shellDown,"ax",%progbits
 3060              		.align	1
 3061              		.global	shellDown
 3062              		.syntax unified
 3063              		.thumb
 3064              		.thumb_func
 3065              		.fpu fpv4-sp-d16
 3067              	shellDown:
 3068              	.LVL277:
ARM GAS  C:\Users\huav\AppData\Local\Temp\cc1GSGvG.s 			page 97


 3069              	.LFB168:
1359:SYS/shell/shell.c ****     shellHistory(shell, -1);
 3070              		.loc 1 1359 1 is_stmt 1 view -0
 3071              		.cfi_startproc
 3072              		@ args = 0, pretend = 0, frame = 0
 3073              		@ frame_needed = 0, uses_anonymous_args = 0
1359:SYS/shell/shell.c ****     shellHistory(shell, -1);
 3074              		.loc 1 1359 1 is_stmt 0 view .LVU799
 3075 0000 08B5     		push	{r3, lr}
 3076              	.LCFI46:
 3077              		.cfi_def_cfa_offset 8
 3078              		.cfi_offset 3, -8
 3079              		.cfi_offset 14, -4
1360:SYS/shell/shell.c **** }
 3080              		.loc 1 1360 5 is_stmt 1 view .LVU800
 3081 0002 4FF0FF31 		mov	r1, #-1
 3082 0006 FFF7FEFF 		bl	shellHistory
 3083              	.LVL278:
1361:SYS/shell/shell.c **** SHELL_EXPORT_KEY(SHELL_CMD_PERMISSION(0), 0x1B5B4200, shellDown, down);
 3084              		.loc 1 1361 1 is_stmt 0 view .LVU801
 3085 000a 08BD     		pop	{r3, pc}
 3086              		.cfi_endproc
 3087              	.LFE168:
 3089              		.section	.text.shellTab,"ax",%progbits
 3090              		.align	1
 3091              		.global	shellTab
 3092              		.syntax unified
 3093              		.thumb
 3094              		.thumb_func
 3095              		.fpu fpv4-sp-d16
 3097              	shellTab:
 3098              	.LVL279:
 3099              	.LFB171:
1401:SYS/shell/shell.c ****     unsigned short maxMatch = shell->parser.bufferSize;
 3100              		.loc 1 1401 1 is_stmt 1 view -0
 3101              		.cfi_startproc
 3102              		@ args = 0, pretend = 0, frame = 0
 3103              		@ frame_needed = 0, uses_anonymous_args = 0
1401:SYS/shell/shell.c ****     unsigned short maxMatch = shell->parser.bufferSize;
 3104              		.loc 1 1401 1 is_stmt 0 view .LVU803
 3105 0000 2DE9F84F 		push	{r3, r4, r5, r6, r7, r8, r9, r10, fp, lr}
 3106              	.LCFI47:
 3107              		.cfi_def_cfa_offset 40
 3108              		.cfi_offset 3, -40
 3109              		.cfi_offset 4, -36
 3110              		.cfi_offset 5, -32
 3111              		.cfi_offset 6, -28
 3112              		.cfi_offset 7, -24
 3113              		.cfi_offset 8, -20
 3114              		.cfi_offset 9, -16
 3115              		.cfi_offset 10, -12
 3116              		.cfi_offset 11, -8
 3117              		.cfi_offset 14, -4
 3118 0004 0546     		mov	r5, r0
1402:SYS/shell/shell.c ****     unsigned short lastMatchIndex = 0;
 3119              		.loc 1 1402 5 is_stmt 1 view .LVU804
1402:SYS/shell/shell.c ****     unsigned short lastMatchIndex = 0;
ARM GAS  C:\Users\huav\AppData\Local\Temp\cc1GSGvG.s 			page 98


 3120              		.loc 1 1402 20 is_stmt 0 view .LVU805
 3121 0006 B0F834A0 		ldrh	r10, [r0, #52]
 3122              	.LVL280:
1403:SYS/shell/shell.c ****     unsigned short matchNum = 0;
 3123              		.loc 1 1403 5 is_stmt 1 view .LVU806
1404:SYS/shell/shell.c ****     unsigned short length;
 3124              		.loc 1 1404 5 view .LVU807
1405:SYS/shell/shell.c **** 
 3125              		.loc 1 1405 5 view .LVU808
1407:SYS/shell/shell.c ****     {
 3126              		.loc 1 1407 5 view .LVU809
1407:SYS/shell/shell.c ****     {
 3127              		.loc 1 1407 22 is_stmt 0 view .LVU810
 3128 000a 8389     		ldrh	r3, [r0, #12]
1407:SYS/shell/shell.c ****     {
 3129              		.loc 1 1407 8 view .LVU811
 3130 000c 43B1     		cbz	r3, .L282
1412:SYS/shell/shell.c ****     {
 3131              		.loc 1 1412 10 is_stmt 1 view .LVU812
 3132              	.LBB15:
1414:SYS/shell/shell.c ****         ShellCommand *base = (ShellCommand *)shell->commandList.base;
 3133              		.loc 1 1414 9 view .LVU813
1414:SYS/shell/shell.c ****         ShellCommand *base = (ShellCommand *)shell->commandList.base;
 3134              		.loc 1 1414 22 is_stmt 0 view .LVU814
 3135 000e 0269     		ldr	r2, [r0, #16]
1414:SYS/shell/shell.c ****         ShellCommand *base = (ShellCommand *)shell->commandList.base;
 3136              		.loc 1 1414 52 view .LVU815
 3137 0010 4FF00008 		mov	r8, #0
 3138 0014 02F80380 		strb	r8, [r2, r3]
1415:SYS/shell/shell.c ****         for (short i = 0; i < shell->commandList.count; i++)
 3139              		.loc 1 1415 9 is_stmt 1 view .LVU816
1415:SYS/shell/shell.c ****         for (short i = 0; i < shell->commandList.count; i++)
 3140              		.loc 1 1415 23 is_stmt 0 view .LVU817
 3141 0018 876D     		ldr	r7, [r0, #88]
 3142              	.LVL281:
1416:SYS/shell/shell.c ****         {
 3143              		.loc 1 1416 9 is_stmt 1 view .LVU818
 3144              	.LBB16:
1416:SYS/shell/shell.c ****         {
 3145              		.loc 1 1416 14 view .LVU819
1416:SYS/shell/shell.c ****         {
 3146              		.loc 1 1416 20 is_stmt 0 view .LVU820
 3147 001a 4446     		mov	r4, r8
 3148              	.LBE16:
 3149              	.LBE15:
1404:SYS/shell/shell.c ****     unsigned short length;
 3150              		.loc 1 1404 20 view .LVU821
 3151 001c C146     		mov	r9, r8
 3152              	.LBB19:
 3153              	.LBB17:
1416:SYS/shell/shell.c ****         {
 3154              		.loc 1 1416 9 view .LVU822
 3155 001e 24E0     		b	.L274
 3156              	.LVL282:
 3157              	.L282:
1416:SYS/shell/shell.c ****         {
 3158              		.loc 1 1416 9 view .LVU823
ARM GAS  C:\Users\huav\AppData\Local\Temp\cc1GSGvG.s 			page 99


 3159              	.LBE17:
 3160              	.LBE19:
1409:SYS/shell/shell.c ****         shellWriteCommandLine(shell, 1);
 3161              		.loc 1 1409 9 is_stmt 1 view .LVU824
 3162 0020 FFF7FEFF 		bl	shellListAll
 3163              	.LVL283:
1410:SYS/shell/shell.c ****     }
 3164              		.loc 1 1410 9 view .LVU825
 3165 0024 0121     		movs	r1, #1
 3166 0026 2846     		mov	r0, r5
 3167 0028 FFF7FEFF 		bl	shellWriteCommandLine
 3168              	.LVL284:
 3169 002c 5EE0     		b	.L271
 3170              	.LVL285:
 3171              	.L277:
 3172              	.LBB20:
 3173              	.LBB18:
1427:SYS/shell/shell.c ****                     length =
 3174              		.loc 1 1427 21 view .LVU826
 3175 002e 07EB0818 		add	r8, r7, r8, lsl #4
 3176              	.LVL286:
1427:SYS/shell/shell.c ****                     length =
 3177              		.loc 1 1427 21 is_stmt 0 view .LVU827
 3178 0032 4146     		mov	r1, r8
 3179 0034 2846     		mov	r0, r5
 3180 0036 FFF7FEFF 		bl	shellListItem
 3181              	.LVL287:
1428:SYS/shell/shell.c ****                         shellStringCompare((char *)shellGetCommandName(&base[lastMatchIndex]),
 3182              		.loc 1 1428 21 is_stmt 1 view .LVU828
1429:SYS/shell/shell.c ****                                            (char *)shellGetCommandName(&base[i]));
 3183              		.loc 1 1429 52 is_stmt 0 view .LVU829
 3184 003a 4046     		mov	r0, r8
 3185 003c FFF7FEFF 		bl	shellGetCommandName
 3186              	.LVL288:
 3187 0040 8046     		mov	r8, r0
1430:SYS/shell/shell.c ****                     maxMatch = (maxMatch > length) ? length : maxMatch;
 3188              		.loc 1 1430 52 view .LVU830
 3189 0042 3046     		mov	r0, r6
 3190 0044 FFF7FEFF 		bl	shellGetCommandName
 3191              	.LVL289:
 3192 0048 0146     		mov	r1, r0
1429:SYS/shell/shell.c ****                                            (char *)shellGetCommandName(&base[i]));
 3193              		.loc 1 1429 25 view .LVU831
 3194 004a 4046     		mov	r0, r8
 3195 004c FFF7FEFF 		bl	shellStringCompare
 3196              	.LVL290:
1431:SYS/shell/shell.c ****                 }
 3197              		.loc 1 1431 21 is_stmt 1 view .LVU832
1431:SYS/shell/shell.c ****                 }
 3198              		.loc 1 1431 30 is_stmt 0 view .LVU833
 3199 0050 8245     		cmp	r10, r0
 3200 0052 28BF     		it	cs
 3201 0054 8246     		movcs	r10, r0
 3202              	.LVL291:
1431:SYS/shell/shell.c ****                 }
 3203              		.loc 1 1431 30 view .LVU834
 3204 0056 1FFA8AFA 		uxth	r10, r10
ARM GAS  C:\Users\huav\AppData\Local\Temp\cc1GSGvG.s 			page 100


 3205              	.LVL292:
 3206              	.L276:
1433:SYS/shell/shell.c ****                 matchNum++;
 3207              		.loc 1 1433 17 is_stmt 1 view .LVU835
1433:SYS/shell/shell.c ****                 matchNum++;
 3208              		.loc 1 1433 32 is_stmt 0 view .LVU836
 3209 005a 1FFA84F8 		uxth	r8, r4
 3210              	.LVL293:
1434:SYS/shell/shell.c ****             }
 3211              		.loc 1 1434 17 is_stmt 1 view .LVU837
1434:SYS/shell/shell.c ****             }
 3212              		.loc 1 1434 25 is_stmt 0 view .LVU838
 3213 005e 09F10109 		add	r9, r9, #1
 3214              	.LVL294:
1434:SYS/shell/shell.c ****             }
 3215              		.loc 1 1434 25 view .LVU839
 3216 0062 1FFA89F9 		uxth	r9, r9
 3217              	.LVL295:
 3218              	.L275:
1416:SYS/shell/shell.c ****         {
 3219              		.loc 1 1416 57 is_stmt 1 discriminator 2 view .LVU840
1416:SYS/shell/shell.c ****         {
 3220              		.loc 1 1416 58 is_stmt 0 discriminator 2 view .LVU841
 3221 0066 0134     		adds	r4, r4, #1
 3222              	.LVL296:
1416:SYS/shell/shell.c ****         {
 3223              		.loc 1 1416 58 discriminator 2 view .LVU842
 3224 0068 24B2     		sxth	r4, r4
 3225              	.LVL297:
 3226              	.L274:
1416:SYS/shell/shell.c ****         {
 3227              		.loc 1 1416 27 is_stmt 1 discriminator 1 view .LVU843
1416:SYS/shell/shell.c ****         {
 3228              		.loc 1 1416 49 is_stmt 0 discriminator 1 view .LVU844
 3229 006a B5F85C30 		ldrh	r3, [r5, #92]
1416:SYS/shell/shell.c ****         {
 3230              		.loc 1 1416 9 discriminator 1 view .LVU845
 3231 006e 9C42     		cmp	r4, r3
 3232 0070 1EDA     		bge	.L283
1418:SYS/shell/shell.c ****                                                                                  (char *)shellGetCo
 3233              		.loc 1 1418 13 is_stmt 1 view .LVU846
1418:SYS/shell/shell.c ****                                                                                  (char *)shellGetCo
 3234              		.loc 1 1418 17 is_stmt 0 view .LVU847
 3235 0072 07EB0416 		add	r6, r7, r4, lsl #4
 3236 0076 3146     		mov	r1, r6
 3237 0078 2846     		mov	r0, r5
 3238 007a FFF7FEFF 		bl	shellCheckPermission
 3239              	.LVL298:
1418:SYS/shell/shell.c ****                                                                                  (char *)shellGetCo
 3240              		.loc 1 1418 16 view .LVU848
 3241 007e 0028     		cmp	r0, #0
 3242 0080 F1D1     		bne	.L275
1418:SYS/shell/shell.c ****                                                                                  (char *)shellGetCo
 3243              		.loc 1 1418 63 discriminator 1 view .LVU849
 3244 0082 D5F810B0 		ldr	fp, [r5, #16]
1419:SYS/shell/shell.c ****             {
 3245              		.loc 1 1419 90 discriminator 1 view .LVU850
ARM GAS  C:\Users\huav\AppData\Local\Temp\cc1GSGvG.s 			page 101


 3246 0086 3046     		mov	r0, r6
 3247 0088 FFF7FEFF 		bl	shellGetCommandName
 3248              	.LVL299:
 3249 008c 0146     		mov	r1, r0
1418:SYS/shell/shell.c ****                                                                                  (char *)shellGetCo
 3250              		.loc 1 1418 63 discriminator 1 view .LVU851
 3251 008e 5846     		mov	r0, fp
 3252 0090 FFF7FEFF 		bl	shellStringCompare
 3253              	.LVL300:
1419:SYS/shell/shell.c ****             {
 3254              		.loc 1 1419 137 discriminator 1 view .LVU852
 3255 0094 AB89     		ldrh	r3, [r5, #12]
1418:SYS/shell/shell.c ****                                                                                  (char *)shellGetCo
 3256              		.loc 1 1418 60 discriminator 1 view .LVU853
 3257 0096 9842     		cmp	r0, r3
 3258 0098 E5D1     		bne	.L275
1421:SYS/shell/shell.c ****                 {
 3259              		.loc 1 1421 17 is_stmt 1 view .LVU854
1421:SYS/shell/shell.c ****                 {
 3260              		.loc 1 1421 20 is_stmt 0 view .LVU855
 3261 009a B9F1000F 		cmp	r9, #0
 3262 009e DCD0     		beq	.L276
1423:SYS/shell/shell.c ****                     {
 3263              		.loc 1 1423 21 is_stmt 1 view .LVU856
1423:SYS/shell/shell.c ****                     {
 3264              		.loc 1 1423 24 is_stmt 0 view .LVU857
 3265 00a0 B9F1010F 		cmp	r9, #1
 3266 00a4 C3D1     		bne	.L277
1425:SYS/shell/shell.c ****                     }
 3267              		.loc 1 1425 25 is_stmt 1 view .LVU858
 3268 00a6 1A49     		ldr	r1, .L286
 3269 00a8 2846     		mov	r0, r5
 3270 00aa FFF7FEFF 		bl	shellWriteString
 3271              	.LVL301:
 3272 00ae BEE7     		b	.L277
 3273              	.L283:
1425:SYS/shell/shell.c ****                     }
 3274              		.loc 1 1425 25 is_stmt 0 view .LVU859
 3275              	.LBE18:
1437:SYS/shell/shell.c ****         {
 3276              		.loc 1 1437 9 is_stmt 1 view .LVU860
1437:SYS/shell/shell.c ****         {
 3277              		.loc 1 1437 12 is_stmt 0 view .LVU861
 3278 00b0 B9F1000F 		cmp	r9, #0
 3279 00b4 1AD0     		beq	.L271
1441:SYS/shell/shell.c ****         {
 3280              		.loc 1 1441 9 is_stmt 1 view .LVU862
1441:SYS/shell/shell.c ****         {
 3281              		.loc 1 1441 12 is_stmt 0 view .LVU863
 3282 00b6 B9F1010F 		cmp	r9, #1
 3283 00ba 19D0     		beq	.L284
 3284              	.L279:
1445:SYS/shell/shell.c ****         {
 3285              		.loc 1 1445 9 is_stmt 1 view .LVU864
1447:SYS/shell/shell.c ****                 shellStringCopy(shell->parser.buffer,
 3286              		.loc 1 1447 13 view .LVU865
1448:SYS/shell/shell.c ****                                 (char *)shellGetCommandName(&base[lastMatchIndex]));
ARM GAS  C:\Users\huav\AppData\Local\Temp\cc1GSGvG.s 			page 102


 3287              		.loc 1 1448 17 is_stmt 0 view .LVU866
 3288 00bc 2C69     		ldr	r4, [r5, #16]
 3289              	.LVL302:
1449:SYS/shell/shell.c ****         }
 3290              		.loc 1 1449 41 view .LVU867
 3291 00be 07EB0817 		add	r7, r7, r8, lsl #4
 3292              	.LVL303:
1449:SYS/shell/shell.c ****         }
 3293              		.loc 1 1449 41 view .LVU868
 3294 00c2 3846     		mov	r0, r7
 3295 00c4 FFF7FEFF 		bl	shellGetCommandName
 3296              	.LVL304:
 3297 00c8 0146     		mov	r1, r0
1448:SYS/shell/shell.c ****                                 (char *)shellGetCommandName(&base[lastMatchIndex]));
 3298              		.loc 1 1448 17 view .LVU869
 3299 00ca 2046     		mov	r0, r4
 3300 00cc FFF7FEFF 		bl	shellStringCopy
 3301              	.LVL305:
1447:SYS/shell/shell.c ****                 shellStringCopy(shell->parser.buffer,
 3302              		.loc 1 1447 34 view .LVU870
 3303 00d0 A881     		strh	r0, [r5, #12]	@ movhi
1451:SYS/shell/shell.c ****         {
 3304              		.loc 1 1451 9 is_stmt 1 view .LVU871
1451:SYS/shell/shell.c ****         {
 3305              		.loc 1 1451 12 is_stmt 0 view .LVU872
 3306 00d2 B9F1010F 		cmp	r9, #1
 3307 00d6 0FD8     		bhi	.L285
 3308              	.L280:
1457:SYS/shell/shell.c ****         shell->parser.cursor = shell->parser.length;
 3309              		.loc 1 1457 9 is_stmt 1 view .LVU873
1457:SYS/shell/shell.c ****         shell->parser.cursor = shell->parser.length;
 3310              		.loc 1 1457 22 is_stmt 0 view .LVU874
 3311 00d8 2A69     		ldr	r2, [r5, #16]
1457:SYS/shell/shell.c ****         shell->parser.cursor = shell->parser.length;
 3312              		.loc 1 1457 43 view .LVU875
 3313 00da AB89     		ldrh	r3, [r5, #12]
1457:SYS/shell/shell.c ****         shell->parser.cursor = shell->parser.length;
 3314              		.loc 1 1457 52 view .LVU876
 3315 00dc 0021     		movs	r1, #0
 3316 00de D154     		strb	r1, [r2, r3]
1458:SYS/shell/shell.c ****         shellWriteString(shell, shell->parser.buffer);
 3317              		.loc 1 1458 9 is_stmt 1 view .LVU877
1458:SYS/shell/shell.c ****         shellWriteString(shell, shell->parser.buffer);
 3318              		.loc 1 1458 45 is_stmt 0 view .LVU878
 3319 00e0 AB89     		ldrh	r3, [r5, #12]
1458:SYS/shell/shell.c ****         shellWriteString(shell, shell->parser.buffer);
 3320              		.loc 1 1458 30 view .LVU879
 3321 00e2 EB81     		strh	r3, [r5, #14]	@ movhi
1459:SYS/shell/shell.c ****     }
 3322              		.loc 1 1459 9 is_stmt 1 view .LVU880
 3323 00e4 2969     		ldr	r1, [r5, #16]
 3324 00e6 2846     		mov	r0, r5
 3325 00e8 FFF7FEFF 		bl	shellWriteString
 3326              	.LVL306:
 3327              	.L271:
1459:SYS/shell/shell.c ****     }
 3328              		.loc 1 1459 9 is_stmt 0 view .LVU881
ARM GAS  C:\Users\huav\AppData\Local\Temp\cc1GSGvG.s 			page 103


 3329              	.LBE20:
1482:SYS/shell/shell.c **** SHELL_EXPORT_KEY(SHELL_CMD_PERMISSION(0), 0x09000000, shellTab, tab);
 3330              		.loc 1 1482 1 view .LVU882
 3331 00ec BDE8F88F 		pop	{r3, r4, r5, r6, r7, r8, r9, r10, fp, pc}
 3332              	.LVL307:
 3333              	.L284:
 3334              	.LBB21:
1443:SYS/shell/shell.c ****         }
 3335              		.loc 1 1443 13 is_stmt 1 view .LVU883
 3336 00f0 2846     		mov	r0, r5
 3337 00f2 FFF7FEFF 		bl	shellClearCommandLine
 3338              	.LVL308:
 3339 00f6 E1E7     		b	.L279
 3340              	.LVL309:
 3341              	.L285:
1453:SYS/shell/shell.c ****             shellWriteCommandLine(shell, 1);
 3342              		.loc 1 1453 13 view .LVU884
 3343 00f8 3946     		mov	r1, r7
 3344 00fa 2846     		mov	r0, r5
 3345 00fc FFF7FEFF 		bl	shellListItem
 3346              	.LVL310:
1454:SYS/shell/shell.c ****             shell->parser.length = maxMatch;
 3347              		.loc 1 1454 13 view .LVU885
 3348 0100 0121     		movs	r1, #1
 3349 0102 2846     		mov	r0, r5
 3350 0104 FFF7FEFF 		bl	shellWriteCommandLine
 3351              	.LVL311:
1455:SYS/shell/shell.c ****         }
 3352              		.loc 1 1455 13 view .LVU886
1455:SYS/shell/shell.c ****         }
 3353              		.loc 1 1455 34 is_stmt 0 view .LVU887
 3354 0108 A5F80CA0 		strh	r10, [r5, #12]	@ movhi
 3355 010c E4E7     		b	.L280
 3356              	.L287:
 3357 010e 00BF     		.align	2
 3358              	.L286:
 3359 0110 04000000 		.word	.LC3
 3360              	.LBE21:
 3361              		.cfi_endproc
 3362              	.LFE171:
 3364              		.section	.rodata.shellInsertByte.str1.4,"aMS",%progbits,1
 3365              		.align	2
 3366              	.LC21:
 3367 0000 0D0A5761 		.ascii	"\015\012Warning: Command is too long\015\012\000"
 3367      726E696E 
 3367      673A2043 
 3367      6F6D6D61 
 3367      6E642069 
 3368              		.section	.text.shellInsertByte,"ax",%progbits
 3369              		.align	1
 3370              		.global	shellInsertByte
 3371              		.syntax unified
 3372              		.thumb
 3373              		.thumb_func
 3374              		.fpu fpv4-sp-d16
 3376              	shellInsertByte:
 3377              	.LVL312:
ARM GAS  C:\Users\huav\AppData\Local\Temp\cc1GSGvG.s 			page 104


 3378              	.LFB150:
 731:SYS/shell/shell.c ****     /* 判断输入数据是否过长 */
 3379              		.loc 1 731 1 is_stmt 1 view -0
 3380              		.cfi_startproc
 3381              		@ args = 0, pretend = 0, frame = 0
 3382              		@ frame_needed = 0, uses_anonymous_args = 0
 731:SYS/shell/shell.c ****     /* 判断输入数据是否过长 */
 3383              		.loc 1 731 1 is_stmt 0 view .LVU889
 3384 0000 70B5     		push	{r4, r5, r6, lr}
 3385              	.LCFI48:
 3386              		.cfi_def_cfa_offset 16
 3387              		.cfi_offset 4, -16
 3388              		.cfi_offset 5, -12
 3389              		.cfi_offset 6, -8
 3390              		.cfi_offset 14, -4
 3391 0002 0446     		mov	r4, r0
 733:SYS/shell/shell.c ****     {
 3392              		.loc 1 733 5 is_stmt 1 view .LVU890
 733:SYS/shell/shell.c ****     {
 3393              		.loc 1 733 22 is_stmt 0 view .LVU891
 3394 0004 8389     		ldrh	r3, [r0, #12]
 733:SYS/shell/shell.c ****     {
 3395              		.loc 1 733 46 view .LVU892
 3396 0006 828E     		ldrh	r2, [r0, #52]
 733:SYS/shell/shell.c ****     {
 3397              		.loc 1 733 58 view .LVU893
 3398 0008 013A     		subs	r2, r2, #1
 733:SYS/shell/shell.c ****     {
 3399              		.loc 1 733 8 view .LVU894
 3400 000a 9342     		cmp	r3, r2
 3401 000c 07DA     		bge	.L299
 742:SYS/shell/shell.c ****     {
 3402              		.loc 1 742 5 is_stmt 1 view .LVU895
 742:SYS/shell/shell.c ****     {
 3403              		.loc 1 742 22 is_stmt 0 view .LVU896
 3404 000e C289     		ldrh	r2, [r0, #14]
 742:SYS/shell/shell.c ****     {
 3405              		.loc 1 742 8 view .LVU897
 3406 0010 9342     		cmp	r3, r2
 3407 0012 10D0     		beq	.L300
 749:SYS/shell/shell.c ****     {
 3408              		.loc 1 749 10 is_stmt 1 view .LVU898
 749:SYS/shell/shell.c ****     {
 3409              		.loc 1 749 13 is_stmt 0 view .LVU899
 3410 0014 9342     		cmp	r3, r2
 3411 0016 4ED9     		bls	.L288
 751:SYS/shell/shell.c ****         {
 3412              		.loc 1 751 9 is_stmt 1 view .LVU900
 3413              	.LBB22:
 751:SYS/shell/shell.c ****         {
 3414              		.loc 1 751 14 view .LVU901
 751:SYS/shell/shell.c ****         {
 3415              		.loc 1 751 45 is_stmt 0 view .LVU902
 3416 0018 9B1A     		subs	r3, r3, r2
 751:SYS/shell/shell.c ****         {
 3417              		.loc 1 751 20 view .LVU903
 3418 001a 1BB2     		sxth	r3, r3
ARM GAS  C:\Users\huav\AppData\Local\Temp\cc1GSGvG.s 			page 105


 3419              	.LVL313:
 751:SYS/shell/shell.c ****         {
 3420              		.loc 1 751 9 view .LVU904
 3421 001c 23E0     		b	.L292
 3422              	.LVL314:
 3423              	.L299:
 751:SYS/shell/shell.c ****         {
 3424              		.loc 1 751 9 view .LVU905
 3425              	.LBE22:
 735:SYS/shell/shell.c ****         shellWriteCommandLine(shell, 1);
 3426              		.loc 1 735 9 is_stmt 1 view .LVU906
 3427 001e 2649     		ldr	r1, .L301
 3428              	.LVL315:
 735:SYS/shell/shell.c ****         shellWriteCommandLine(shell, 1);
 3429              		.loc 1 735 9 is_stmt 0 view .LVU907
 3430 0020 FFF7FEFF 		bl	shellWriteString
 3431              	.LVL316:
 736:SYS/shell/shell.c ****         shellWriteString(shell, shell->parser.buffer);
 3432              		.loc 1 736 9 is_stmt 1 view .LVU908
 3433 0024 0121     		movs	r1, #1
 3434 0026 2046     		mov	r0, r4
 3435 0028 FFF7FEFF 		bl	shellWriteCommandLine
 3436              	.LVL317:
 737:SYS/shell/shell.c ****         return;
 3437              		.loc 1 737 9 view .LVU909
 3438 002c 2169     		ldr	r1, [r4, #16]
 3439 002e 2046     		mov	r0, r4
 3440 0030 FFF7FEFF 		bl	shellWriteString
 3441              	.LVL318:
 738:SYS/shell/shell.c ****     }
 3442              		.loc 1 738 9 view .LVU910
 3443 0034 3FE0     		b	.L288
 3444              	.LVL319:
 3445              	.L300:
 744:SYS/shell/shell.c ****         shell->parser.buffer[shell->parser.length] = 0;
 3446              		.loc 1 744 9 view .LVU911
 744:SYS/shell/shell.c ****         shell->parser.buffer[shell->parser.length] = 0;
 3447              		.loc 1 744 22 is_stmt 0 view .LVU912
 3448 0036 0269     		ldr	r2, [r0, #16]
 744:SYS/shell/shell.c ****         shell->parser.buffer[shell->parser.length] = 0;
 3449              		.loc 1 744 50 view .LVU913
 3450 0038 581C     		adds	r0, r3, #1
 3451              	.LVL320:
 744:SYS/shell/shell.c ****         shell->parser.buffer[shell->parser.length] = 0;
 3452              		.loc 1 744 50 view .LVU914
 3453 003a A081     		strh	r0, [r4, #12]	@ movhi
 744:SYS/shell/shell.c ****         shell->parser.buffer[shell->parser.length] = 0;
 3454              		.loc 1 744 54 view .LVU915
 3455 003c D154     		strb	r1, [r2, r3]
 745:SYS/shell/shell.c ****         shell->parser.cursor++;
 3456              		.loc 1 745 9 is_stmt 1 view .LVU916
 745:SYS/shell/shell.c ****         shell->parser.cursor++;
 3457              		.loc 1 745 22 is_stmt 0 view .LVU917
 3458 003e 2269     		ldr	r2, [r4, #16]
 745:SYS/shell/shell.c ****         shell->parser.cursor++;
 3459              		.loc 1 745 43 view .LVU918
 3460 0040 A389     		ldrh	r3, [r4, #12]
ARM GAS  C:\Users\huav\AppData\Local\Temp\cc1GSGvG.s 			page 106


 745:SYS/shell/shell.c ****         shell->parser.cursor++;
 3461              		.loc 1 745 52 view .LVU919
 3462 0042 0020     		movs	r0, #0
 3463 0044 D054     		strb	r0, [r2, r3]
 746:SYS/shell/shell.c ****         shellWriteByte(shell, data);
 3464              		.loc 1 746 9 is_stmt 1 view .LVU920
 746:SYS/shell/shell.c ****         shellWriteByte(shell, data);
 3465              		.loc 1 746 22 is_stmt 0 view .LVU921
 3466 0046 E389     		ldrh	r3, [r4, #14]
 746:SYS/shell/shell.c ****         shellWriteByte(shell, data);
 3467              		.loc 1 746 29 view .LVU922
 3468 0048 0133     		adds	r3, r3, #1
 3469 004a E381     		strh	r3, [r4, #14]	@ movhi
 747:SYS/shell/shell.c ****     }
 3470              		.loc 1 747 9 is_stmt 1 view .LVU923
 3471 004c 2046     		mov	r0, r4
 3472 004e FFF7FEFF 		bl	shellWriteByte
 3473              	.LVL321:
 747:SYS/shell/shell.c ****     }
 3474              		.loc 1 747 9 is_stmt 0 view .LVU924
 3475 0052 30E0     		b	.L288
 3476              	.LVL322:
 3477              	.L293:
 3478              	.LBB23:
 753:SYS/shell/shell.c ****                 shell->parser.buffer[shell->parser.cursor + i - 1];
 3479              		.loc 1 753 13 is_stmt 1 discriminator 3 view .LVU925
 754:SYS/shell/shell.c ****         }
 3480              		.loc 1 754 30 is_stmt 0 discriminator 3 view .LVU926
 3481 0054 2069     		ldr	r0, [r4, #16]
 754:SYS/shell/shell.c ****         }
 3482              		.loc 1 754 51 discriminator 3 view .LVU927
 3483 0056 E289     		ldrh	r2, [r4, #14]
 754:SYS/shell/shell.c ****         }
 3484              		.loc 1 754 59 discriminator 3 view .LVU928
 3485 0058 1A44     		add	r2, r2, r3
 753:SYS/shell/shell.c ****                 shell->parser.buffer[shell->parser.cursor + i - 1];
 3486              		.loc 1 753 33 discriminator 3 view .LVU929
 3487 005a 8518     		adds	r5, r0, r2
 754:SYS/shell/shell.c ****         }
 3488              		.loc 1 754 37 discriminator 3 view .LVU930
 3489 005c 15F8015C 		ldrb	r5, [r5, #-1]	@ zero_extendqisi2
 753:SYS/shell/shell.c ****                 shell->parser.buffer[shell->parser.cursor + i - 1];
 3490              		.loc 1 753 60 discriminator 3 view .LVU931
 3491 0060 8554     		strb	r5, [r0, r2]
 751:SYS/shell/shell.c ****         {
 3492              		.loc 1 751 76 is_stmt 1 discriminator 3 view .LVU932
 751:SYS/shell/shell.c ****         {
 3493              		.loc 1 751 77 is_stmt 0 discriminator 3 view .LVU933
 3494 0062 013B     		subs	r3, r3, #1
 3495              	.LVL323:
 751:SYS/shell/shell.c ****         {
 3496              		.loc 1 751 77 discriminator 3 view .LVU934
 3497 0064 1BB2     		sxth	r3, r3
 3498              	.LVL324:
 3499              	.L292:
 751:SYS/shell/shell.c ****         {
 3500              		.loc 1 751 69 is_stmt 1 discriminator 1 view .LVU935
ARM GAS  C:\Users\huav\AppData\Local\Temp\cc1GSGvG.s 			page 107


 751:SYS/shell/shell.c ****         {
 3501              		.loc 1 751 9 is_stmt 0 discriminator 1 view .LVU936
 3502 0066 002B     		cmp	r3, #0
 3503 0068 F4DC     		bgt	.L293
 751:SYS/shell/shell.c ****         {
 3504              		.loc 1 751 9 discriminator 1 view .LVU937
 3505              	.LBE23:
 756:SYS/shell/shell.c ****         shell->parser.buffer[++shell->parser.length] = 0;
 3506              		.loc 1 756 9 is_stmt 1 view .LVU938
 756:SYS/shell/shell.c ****         shell->parser.buffer[++shell->parser.length] = 0;
 3507              		.loc 1 756 22 is_stmt 0 view .LVU939
 3508 006a 2269     		ldr	r2, [r4, #16]
 756:SYS/shell/shell.c ****         shell->parser.buffer[++shell->parser.length] = 0;
 3509              		.loc 1 756 43 view .LVU940
 3510 006c E389     		ldrh	r3, [r4, #14]
 3511              	.LVL325:
 756:SYS/shell/shell.c ****         shell->parser.buffer[++shell->parser.length] = 0;
 3512              		.loc 1 756 50 view .LVU941
 3513 006e 581C     		adds	r0, r3, #1
 3514 0070 E081     		strh	r0, [r4, #14]	@ movhi
 756:SYS/shell/shell.c ****         shell->parser.buffer[++shell->parser.length] = 0;
 3515              		.loc 1 756 54 view .LVU942
 3516 0072 D154     		strb	r1, [r2, r3]
 757:SYS/shell/shell.c ****         for (short i = shell->parser.cursor - 1; i < shell->parser.length; i++)
 3517              		.loc 1 757 9 is_stmt 1 view .LVU943
 757:SYS/shell/shell.c ****         for (short i = shell->parser.cursor - 1; i < shell->parser.length; i++)
 3518              		.loc 1 757 22 is_stmt 0 view .LVU944
 3519 0074 2269     		ldr	r2, [r4, #16]
 757:SYS/shell/shell.c ****         for (short i = shell->parser.cursor - 1; i < shell->parser.length; i++)
 3520              		.loc 1 757 45 view .LVU945
 3521 0076 A389     		ldrh	r3, [r4, #12]
 757:SYS/shell/shell.c ****         for (short i = shell->parser.cursor - 1; i < shell->parser.length; i++)
 3522              		.loc 1 757 30 view .LVU946
 3523 0078 0133     		adds	r3, r3, #1
 3524 007a 9BB2     		uxth	r3, r3
 757:SYS/shell/shell.c ****         for (short i = shell->parser.cursor - 1; i < shell->parser.length; i++)
 3525              		.loc 1 757 54 view .LVU947
 3526 007c A381     		strh	r3, [r4, #12]	@ movhi
 3527 007e 0021     		movs	r1, #0
 3528              	.LVL326:
 757:SYS/shell/shell.c ****         for (short i = shell->parser.cursor - 1; i < shell->parser.length; i++)
 3529              		.loc 1 757 54 view .LVU948
 3530 0080 D154     		strb	r1, [r2, r3]
 758:SYS/shell/shell.c ****         {
 3531              		.loc 1 758 9 is_stmt 1 view .LVU949
 3532              	.LBB24:
 758:SYS/shell/shell.c ****         {
 3533              		.loc 1 758 14 view .LVU950
 758:SYS/shell/shell.c ****         {
 3534              		.loc 1 758 37 is_stmt 0 view .LVU951
 3535 0082 E689     		ldrh	r6, [r4, #14]
 758:SYS/shell/shell.c ****         {
 3536              		.loc 1 758 45 view .LVU952
 3537 0084 013E     		subs	r6, r6, #1
 758:SYS/shell/shell.c ****         {
 3538              		.loc 1 758 20 view .LVU953
 3539 0086 36B2     		sxth	r6, r6
ARM GAS  C:\Users\huav\AppData\Local\Temp\cc1GSGvG.s 			page 108


 3540              	.LVL327:
 758:SYS/shell/shell.c ****         {
 3541              		.loc 1 758 9 view .LVU954
 3542 0088 06E0     		b	.L294
 3543              	.L295:
 760:SYS/shell/shell.c ****         }
 3544              		.loc 1 760 13 is_stmt 1 discriminator 3 view .LVU955
 760:SYS/shell/shell.c ****         }
 3545              		.loc 1 760 48 is_stmt 0 discriminator 3 view .LVU956
 3546 008a 2369     		ldr	r3, [r4, #16]
 760:SYS/shell/shell.c ****         }
 3547              		.loc 1 760 13 discriminator 3 view .LVU957
 3548 008c 995D     		ldrb	r1, [r3, r6]	@ zero_extendqisi2
 3549 008e 2046     		mov	r0, r4
 3550 0090 FFF7FEFF 		bl	shellWriteByte
 3551              	.LVL328:
 758:SYS/shell/shell.c ****         {
 3552              		.loc 1 758 76 is_stmt 1 discriminator 3 view .LVU958
 758:SYS/shell/shell.c ****         {
 3553              		.loc 1 758 77 is_stmt 0 discriminator 3 view .LVU959
 3554 0094 0136     		adds	r6, r6, #1
 3555              	.LVL329:
 758:SYS/shell/shell.c ****         {
 3556              		.loc 1 758 77 discriminator 3 view .LVU960
 3557 0096 36B2     		sxth	r6, r6
 3558              	.LVL330:
 3559              	.L294:
 758:SYS/shell/shell.c ****         {
 3560              		.loc 1 758 50 is_stmt 1 discriminator 1 view .LVU961
 758:SYS/shell/shell.c ****         {
 3561              		.loc 1 758 67 is_stmt 0 discriminator 1 view .LVU962
 3562 0098 A589     		ldrh	r5, [r4, #12]
 758:SYS/shell/shell.c ****         {
 3563              		.loc 1 758 9 discriminator 1 view .LVU963
 3564 009a AE42     		cmp	r6, r5
 3565 009c F5DB     		blt	.L295
 758:SYS/shell/shell.c ****         {
 3566              		.loc 1 758 9 discriminator 1 view .LVU964
 3567              	.LBE24:
 762:SYS/shell/shell.c ****         {
 3568              		.loc 1 762 9 is_stmt 1 view .LVU965
 3569              	.LBB25:
 762:SYS/shell/shell.c ****         {
 3570              		.loc 1 762 14 view .LVU966
 762:SYS/shell/shell.c ****         {
 3571              		.loc 1 762 60 is_stmt 0 view .LVU967
 3572 009e E389     		ldrh	r3, [r4, #14]
 762:SYS/shell/shell.c ****         {
 3573              		.loc 1 762 45 view .LVU968
 3574 00a0 ED1A     		subs	r5, r5, r3
 762:SYS/shell/shell.c ****         {
 3575              		.loc 1 762 20 view .LVU969
 3576 00a2 2DB2     		sxth	r5, r5
 3577              	.LVL331:
 762:SYS/shell/shell.c ****         {
 3578              		.loc 1 762 9 view .LVU970
 3579 00a4 05E0     		b	.L296
ARM GAS  C:\Users\huav\AppData\Local\Temp\cc1GSGvG.s 			page 109


 3580              	.L297:
 764:SYS/shell/shell.c ****         }
 3581              		.loc 1 764 13 is_stmt 1 discriminator 3 view .LVU971
 3582 00a6 0821     		movs	r1, #8
 3583 00a8 2046     		mov	r0, r4
 3584 00aa FFF7FEFF 		bl	shellWriteByte
 3585              	.LVL332:
 762:SYS/shell/shell.c ****         {
 3586              		.loc 1 762 76 discriminator 3 view .LVU972
 762:SYS/shell/shell.c ****         {
 3587              		.loc 1 762 77 is_stmt 0 discriminator 3 view .LVU973
 3588 00ae 013D     		subs	r5, r5, #1
 3589              	.LVL333:
 762:SYS/shell/shell.c ****         {
 3590              		.loc 1 762 77 discriminator 3 view .LVU974
 3591 00b0 2DB2     		sxth	r5, r5
 3592              	.LVL334:
 3593              	.L296:
 762:SYS/shell/shell.c ****         {
 3594              		.loc 1 762 69 is_stmt 1 discriminator 1 view .LVU975
 762:SYS/shell/shell.c ****         {
 3595              		.loc 1 762 9 is_stmt 0 discriminator 1 view .LVU976
 3596 00b2 002D     		cmp	r5, #0
 3597 00b4 F7DC     		bgt	.L297
 3598              	.LVL335:
 3599              	.L288:
 762:SYS/shell/shell.c ****         {
 3600              		.loc 1 762 9 discriminator 1 view .LVU977
 3601              	.LBE25:
 767:SYS/shell/shell.c **** 
 3602              		.loc 1 767 1 view .LVU978
 3603 00b6 70BD     		pop	{r4, r5, r6, pc}
 3604              	.LVL336:
 3605              	.L302:
 767:SYS/shell/shell.c **** 
 3606              		.loc 1 767 1 view .LVU979
 3607              		.align	2
 3608              	.L301:
 3609 00b8 00000000 		.word	.LC21
 3610              		.cfi_endproc
 3611              	.LFE150:
 3613              		.section	.text.shellDeleteByte,"ax",%progbits
 3614              		.align	1
 3615              		.global	shellDeleteByte
 3616              		.syntax unified
 3617              		.thumb
 3618              		.thumb_func
 3619              		.fpu fpv4-sp-d16
 3621              	shellDeleteByte:
 3622              	.LVL337:
 3623              	.LFB151:
 776:SYS/shell/shell.c ****     char offset = (direction == -1) ? 1 : 0;
 3624              		.loc 1 776 1 is_stmt 1 view -0
 3625              		.cfi_startproc
 3626              		@ args = 0, pretend = 0, frame = 0
 3627              		@ frame_needed = 0, uses_anonymous_args = 0
 776:SYS/shell/shell.c ****     char offset = (direction == -1) ? 1 : 0;
ARM GAS  C:\Users\huav\AppData\Local\Temp\cc1GSGvG.s 			page 110


 3628              		.loc 1 776 1 is_stmt 0 view .LVU981
 3629 0000 38B5     		push	{r3, r4, r5, lr}
 3630              	.LCFI49:
 3631              		.cfi_def_cfa_offset 16
 3632              		.cfi_offset 3, -16
 3633              		.cfi_offset 4, -12
 3634              		.cfi_offset 5, -8
 3635              		.cfi_offset 14, -4
 3636 0002 0446     		mov	r4, r0
 777:SYS/shell/shell.c **** 
 3637              		.loc 1 777 5 is_stmt 1 view .LVU982
 777:SYS/shell/shell.c **** 
 3638              		.loc 1 777 41 is_stmt 0 view .LVU983
 3639 0004 B1F1FF3F 		cmp	r1, #-1
 3640 0008 14BF     		ite	ne
 3641 000a 0023     		movne	r3, #0
 3642 000c 0123     		moveq	r3, #1
 3643              	.LVL338:
 779:SYS/shell/shell.c ****     {
 3644              		.loc 1 779 5 is_stmt 1 view .LVU984
 779:SYS/shell/shell.c ****     {
 3645              		.loc 1 779 23 is_stmt 0 view .LVU985
 3646 000e C289     		ldrh	r2, [r0, #14]
 779:SYS/shell/shell.c ****     {
 3647              		.loc 1 779 8 view .LVU986
 3648 0010 0AB9     		cbnz	r2, .L304
 779:SYS/shell/shell.c ****     {
 3649              		.loc 1 779 36 discriminator 1 view .LVU987
 3650 0012 0129     		cmp	r1, #1
 3651 0014 55D0     		beq	.L303
 3652              	.L304:
 779:SYS/shell/shell.c ****     {
 3653              		.loc 1 779 96 discriminator 3 view .LVU988
 3654 0016 A089     		ldrh	r0, [r4, #12]
 3655              	.LVL339:
 779:SYS/shell/shell.c ****     {
 3656              		.loc 1 779 55 discriminator 3 view .LVU989
 3657 0018 8242     		cmp	r2, r0
 3658 001a 03D0     		beq	.L316
 3659              	.L306:
 783:SYS/shell/shell.c ****     {
 3660              		.loc 1 783 5 is_stmt 1 view .LVU990
 783:SYS/shell/shell.c ****     {
 3661              		.loc 1 783 8 is_stmt 0 view .LVU991
 3662 001c 8242     		cmp	r2, r0
 3663 001e 05D0     		beq	.L317
 3664              	.L307:
 792:SYS/shell/shell.c ****         {
 3665              		.loc 1 792 9 is_stmt 1 view .LVU992
 3666              	.LBB26:
 792:SYS/shell/shell.c ****         {
 3667              		.loc 1 792 14 view .LVU993
 792:SYS/shell/shell.c ****         {
 3668              		.loc 1 792 20 is_stmt 0 view .LVU994
 3669 0020 1BB2     		sxth	r3, r3
 3670              	.LVL340:
 792:SYS/shell/shell.c ****         {
ARM GAS  C:\Users\huav\AppData\Local\Temp\cc1GSGvG.s 			page 111


 3671              		.loc 1 792 9 view .LVU995
 3672 0022 19E0     		b	.L308
 3673              	.LVL341:
 3674              	.L316:
 792:SYS/shell/shell.c ****         {
 3675              		.loc 1 792 9 view .LVU996
 3676              	.LBE26:
 779:SYS/shell/shell.c ****     {
 3677              		.loc 1 779 104 discriminator 4 view .LVU997
 3678 0024 B1F1FF3F 		cmp	r1, #-1
 3679 0028 F8D1     		bne	.L306
 3680 002a 4AE0     		b	.L303
 3681              	.L317:
 783:SYS/shell/shell.c ****     {
 3682              		.loc 1 783 54 discriminator 1 view .LVU998
 3683 002c 0129     		cmp	r1, #1
 3684 002e F7D1     		bne	.L307
 785:SYS/shell/shell.c ****         shell->parser.length--;
 3685              		.loc 1 785 9 is_stmt 1 view .LVU999
 785:SYS/shell/shell.c ****         shell->parser.length--;
 3686              		.loc 1 785 29 is_stmt 0 view .LVU1000
 3687 0030 013A     		subs	r2, r2, #1
 3688 0032 E281     		strh	r2, [r4, #14]	@ movhi
 786:SYS/shell/shell.c ****         shell->parser.buffer[shell->parser.length] = 0;
 3689              		.loc 1 786 9 is_stmt 1 view .LVU1001
 786:SYS/shell/shell.c ****         shell->parser.buffer[shell->parser.length] = 0;
 3690              		.loc 1 786 29 is_stmt 0 view .LVU1002
 3691 0034 431E     		subs	r3, r0, #1
 3692              	.LVL342:
 786:SYS/shell/shell.c ****         shell->parser.buffer[shell->parser.length] = 0;
 3693              		.loc 1 786 29 view .LVU1003
 3694 0036 9BB2     		uxth	r3, r3
 3695 0038 A381     		strh	r3, [r4, #12]	@ movhi
 787:SYS/shell/shell.c ****         shellDeleteCommandLine(shell, 1);
 3696              		.loc 1 787 9 is_stmt 1 view .LVU1004
 787:SYS/shell/shell.c ****         shellDeleteCommandLine(shell, 1);
 3697              		.loc 1 787 22 is_stmt 0 view .LVU1005
 3698 003a 2269     		ldr	r2, [r4, #16]
 787:SYS/shell/shell.c ****         shellDeleteCommandLine(shell, 1);
 3699              		.loc 1 787 52 view .LVU1006
 3700 003c 0021     		movs	r1, #0
 3701              	.LVL343:
 787:SYS/shell/shell.c ****         shellDeleteCommandLine(shell, 1);
 3702              		.loc 1 787 52 view .LVU1007
 3703 003e D154     		strb	r1, [r2, r3]
 788:SYS/shell/shell.c ****     }
 3704              		.loc 1 788 9 is_stmt 1 view .LVU1008
 3705 0040 0121     		movs	r1, #1
 3706 0042 2046     		mov	r0, r4
 3707 0044 FFF7FEFF 		bl	shellDeleteCommandLine
 3708              	.LVL344:
 3709 0048 3BE0     		b	.L303
 3710              	.LVL345:
 3711              	.L309:
 3712              	.LBB27:
 794:SYS/shell/shell.c ****                 shell->parser.buffer[shell->parser.cursor + i];
 3713              		.loc 1 794 13 discriminator 3 view .LVU1009
ARM GAS  C:\Users\huav\AppData\Local\Temp\cc1GSGvG.s 			page 112


 795:SYS/shell/shell.c ****         }
 3714              		.loc 1 795 30 is_stmt 0 discriminator 3 view .LVU1010
 3715 004a 2069     		ldr	r0, [r4, #16]
 795:SYS/shell/shell.c ****         }
 3716              		.loc 1 795 59 discriminator 3 view .LVU1011
 3717 004c 1A44     		add	r2, r2, r3
 794:SYS/shell/shell.c ****                 shell->parser.buffer[shell->parser.cursor + i];
 3718              		.loc 1 794 33 discriminator 3 view .LVU1012
 3719 004e 551E     		subs	r5, r2, #1
 795:SYS/shell/shell.c ****         }
 3720              		.loc 1 795 37 discriminator 3 view .LVU1013
 3721 0050 825C     		ldrb	r2, [r0, r2]	@ zero_extendqisi2
 794:SYS/shell/shell.c ****                 shell->parser.buffer[shell->parser.cursor + i];
 3722              		.loc 1 794 64 discriminator 3 view .LVU1014
 3723 0052 4255     		strb	r2, [r0, r5]
 792:SYS/shell/shell.c ****         {
 3724              		.loc 1 792 81 is_stmt 1 discriminator 3 view .LVU1015
 792:SYS/shell/shell.c ****         {
 3725              		.loc 1 792 82 is_stmt 0 discriminator 3 view .LVU1016
 3726 0054 0133     		adds	r3, r3, #1
 3727              	.LVL346:
 792:SYS/shell/shell.c ****         {
 3728              		.loc 1 792 82 discriminator 3 view .LVU1017
 3729 0056 1BB2     		sxth	r3, r3
 3730              	.LVL347:
 3731              	.L308:
 792:SYS/shell/shell.c ****         {
 3732              		.loc 1 792 32 is_stmt 1 discriminator 1 view .LVU1018
 792:SYS/shell/shell.c ****         {
 3733              		.loc 1 792 49 is_stmt 0 discriminator 1 view .LVU1019
 3734 0058 A089     		ldrh	r0, [r4, #12]
 792:SYS/shell/shell.c ****         {
 3735              		.loc 1 792 72 discriminator 1 view .LVU1020
 3736 005a E289     		ldrh	r2, [r4, #14]
 792:SYS/shell/shell.c ****         {
 3737              		.loc 1 792 57 discriminator 1 view .LVU1021
 3738 005c 851A     		subs	r5, r0, r2
 792:SYS/shell/shell.c ****         {
 3739              		.loc 1 792 9 discriminator 1 view .LVU1022
 3740 005e AB42     		cmp	r3, r5
 3741 0060 F3DB     		blt	.L309
 792:SYS/shell/shell.c ****         {
 3742              		.loc 1 792 9 discriminator 1 view .LVU1023
 3743              	.LBE27:
 797:SYS/shell/shell.c ****         if (!offset)
 3744              		.loc 1 797 9 is_stmt 1 view .LVU1024
 797:SYS/shell/shell.c ****         if (!offset)
 3745              		.loc 1 797 29 is_stmt 0 view .LVU1025
 3746 0062 0138     		subs	r0, r0, #1
 3747 0064 A081     		strh	r0, [r4, #12]	@ movhi
 798:SYS/shell/shell.c ****         {
 3748              		.loc 1 798 9 is_stmt 1 view .LVU1026
 798:SYS/shell/shell.c ****         {
 3749              		.loc 1 798 12 is_stmt 0 view .LVU1027
 3750 0066 B1F1FF3F 		cmp	r1, #-1
 3751 006a 06D1     		bne	.L318
 3752              	.LVL348:
ARM GAS  C:\Users\huav\AppData\Local\Temp\cc1GSGvG.s 			page 113


 3753              	.L310:
 803:SYS/shell/shell.c ****         for (short i = shell->parser.cursor; i < shell->parser.length; i++)
 3754              		.loc 1 803 9 is_stmt 1 view .LVU1028
 803:SYS/shell/shell.c ****         for (short i = shell->parser.cursor; i < shell->parser.length; i++)
 3755              		.loc 1 803 22 is_stmt 0 view .LVU1029
 3756 006c 2269     		ldr	r2, [r4, #16]
 803:SYS/shell/shell.c ****         for (short i = shell->parser.cursor; i < shell->parser.length; i++)
 3757              		.loc 1 803 43 view .LVU1030
 3758 006e A389     		ldrh	r3, [r4, #12]
 803:SYS/shell/shell.c ****         for (short i = shell->parser.cursor; i < shell->parser.length; i++)
 3759              		.loc 1 803 52 view .LVU1031
 3760 0070 0021     		movs	r1, #0
 3761 0072 D154     		strb	r1, [r2, r3]
 804:SYS/shell/shell.c ****         {
 3762              		.loc 1 804 9 is_stmt 1 view .LVU1032
 3763              	.LBB28:
 804:SYS/shell/shell.c ****         {
 3764              		.loc 1 804 14 view .LVU1033
 804:SYS/shell/shell.c ****         {
 3765              		.loc 1 804 20 is_stmt 0 view .LVU1034
 3766 0074 B4F90E50 		ldrsh	r5, [r4, #14]
 3767              	.LVL349:
 804:SYS/shell/shell.c ****         {
 3768              		.loc 1 804 9 view .LVU1035
 3769 0078 0DE0     		b	.L311
 3770              	.LVL350:
 3771              	.L318:
 804:SYS/shell/shell.c ****         {
 3772              		.loc 1 804 9 view .LVU1036
 3773              	.LBE28:
 800:SYS/shell/shell.c ****             shellWriteByte(shell, '\b');
 3774              		.loc 1 800 13 is_stmt 1 view .LVU1037
 800:SYS/shell/shell.c ****             shellWriteByte(shell, '\b');
 3775              		.loc 1 800 33 is_stmt 0 view .LVU1038
 3776 007a 013A     		subs	r2, r2, #1
 3777 007c E281     		strh	r2, [r4, #14]	@ movhi
 801:SYS/shell/shell.c ****         }
 3778              		.loc 1 801 13 is_stmt 1 view .LVU1039
 3779 007e 0821     		movs	r1, #8
 3780              	.LVL351:
 801:SYS/shell/shell.c ****         }
 3781              		.loc 1 801 13 is_stmt 0 view .LVU1040
 3782 0080 2046     		mov	r0, r4
 3783 0082 FFF7FEFF 		bl	shellWriteByte
 3784              	.LVL352:
 801:SYS/shell/shell.c ****         }
 3785              		.loc 1 801 13 view .LVU1041
 3786 0086 F1E7     		b	.L310
 3787              	.LVL353:
 3788              	.L312:
 3789              	.LBB29:
 806:SYS/shell/shell.c ****         }
 3790              		.loc 1 806 13 is_stmt 1 discriminator 3 view .LVU1042
 806:SYS/shell/shell.c ****         }
 3791              		.loc 1 806 48 is_stmt 0 discriminator 3 view .LVU1043
 3792 0088 2369     		ldr	r3, [r4, #16]
 806:SYS/shell/shell.c ****         }
ARM GAS  C:\Users\huav\AppData\Local\Temp\cc1GSGvG.s 			page 114


 3793              		.loc 1 806 13 discriminator 3 view .LVU1044
 3794 008a 595D     		ldrb	r1, [r3, r5]	@ zero_extendqisi2
 3795 008c 2046     		mov	r0, r4
 3796 008e FFF7FEFF 		bl	shellWriteByte
 3797              	.LVL354:
 804:SYS/shell/shell.c ****         {
 3798              		.loc 1 804 72 is_stmt 1 discriminator 3 view .LVU1045
 804:SYS/shell/shell.c ****         {
 3799              		.loc 1 804 73 is_stmt 0 discriminator 3 view .LVU1046
 3800 0092 0135     		adds	r5, r5, #1
 3801              	.LVL355:
 804:SYS/shell/shell.c ****         {
 3802              		.loc 1 804 73 discriminator 3 view .LVU1047
 3803 0094 2DB2     		sxth	r5, r5
 3804              	.LVL356:
 3805              	.L311:
 804:SYS/shell/shell.c ****         {
 3806              		.loc 1 804 46 is_stmt 1 discriminator 1 view .LVU1048
 804:SYS/shell/shell.c ****         {
 3807              		.loc 1 804 63 is_stmt 0 discriminator 1 view .LVU1049
 3808 0096 A389     		ldrh	r3, [r4, #12]
 804:SYS/shell/shell.c ****         {
 3809              		.loc 1 804 9 discriminator 1 view .LVU1050
 3810 0098 9D42     		cmp	r5, r3
 3811 009a F5DB     		blt	.L312
 804:SYS/shell/shell.c ****         {
 3812              		.loc 1 804 9 discriminator 1 view .LVU1051
 3813              	.LBE29:
 808:SYS/shell/shell.c ****         for (short i = shell->parser.length - shell->parser.cursor + 1; i > 0; i--)
 3814              		.loc 1 808 9 is_stmt 1 view .LVU1052
 3815 009c 2021     		movs	r1, #32
 3816 009e 2046     		mov	r0, r4
 3817 00a0 FFF7FEFF 		bl	shellWriteByte
 3818              	.LVL357:
 809:SYS/shell/shell.c ****         {
 3819              		.loc 1 809 9 view .LVU1053
 3820              	.LBB30:
 809:SYS/shell/shell.c ****         {
 3821              		.loc 1 809 14 view .LVU1054
 809:SYS/shell/shell.c ****         {
 3822              		.loc 1 809 37 is_stmt 0 view .LVU1055
 3823 00a4 A589     		ldrh	r5, [r4, #12]
 3824              	.LVL358:
 809:SYS/shell/shell.c ****         {
 3825              		.loc 1 809 60 view .LVU1056
 3826 00a6 E389     		ldrh	r3, [r4, #14]
 809:SYS/shell/shell.c ****         {
 3827              		.loc 1 809 45 view .LVU1057
 3828 00a8 ED1A     		subs	r5, r5, r3
 3829 00aa ADB2     		uxth	r5, r5
 809:SYS/shell/shell.c ****         {
 3830              		.loc 1 809 68 view .LVU1058
 3831 00ac 0135     		adds	r5, r5, #1
 809:SYS/shell/shell.c ****         {
 3832              		.loc 1 809 20 view .LVU1059
 3833 00ae 2DB2     		sxth	r5, r5
 3834              	.LVL359:
ARM GAS  C:\Users\huav\AppData\Local\Temp\cc1GSGvG.s 			page 115


 809:SYS/shell/shell.c ****         {
 3835              		.loc 1 809 9 view .LVU1060
 3836 00b0 05E0     		b	.L313
 3837              	.L314:
 811:SYS/shell/shell.c ****         }
 3838              		.loc 1 811 13 is_stmt 1 discriminator 3 view .LVU1061
 3839 00b2 0821     		movs	r1, #8
 3840 00b4 2046     		mov	r0, r4
 3841 00b6 FFF7FEFF 		bl	shellWriteByte
 3842              	.LVL360:
 809:SYS/shell/shell.c ****         {
 3843              		.loc 1 809 80 discriminator 3 view .LVU1062
 809:SYS/shell/shell.c ****         {
 3844              		.loc 1 809 81 is_stmt 0 discriminator 3 view .LVU1063
 3845 00ba 013D     		subs	r5, r5, #1
 3846              	.LVL361:
 809:SYS/shell/shell.c ****         {
 3847              		.loc 1 809 81 discriminator 3 view .LVU1064
 3848 00bc 2DB2     		sxth	r5, r5
 3849              	.LVL362:
 3850              	.L313:
 809:SYS/shell/shell.c ****         {
 3851              		.loc 1 809 73 is_stmt 1 discriminator 1 view .LVU1065
 809:SYS/shell/shell.c ****         {
 3852              		.loc 1 809 9 is_stmt 0 discriminator 1 view .LVU1066
 3853 00be 002D     		cmp	r5, #0
 3854 00c0 F7DC     		bgt	.L314
 3855              	.LVL363:
 3856              	.L303:
 809:SYS/shell/shell.c ****         {
 3857              		.loc 1 809 9 discriminator 1 view .LVU1067
 3858              	.LBE30:
 814:SYS/shell/shell.c **** 
 3859              		.loc 1 814 1 view .LVU1068
 3860 00c2 38BD     		pop	{r3, r4, r5, pc}
 814:SYS/shell/shell.c **** 
 3861              		.loc 1 814 1 view .LVU1069
 3862              		.cfi_endproc
 3863              	.LFE151:
 3865              		.section	.text.shellBackspace,"ax",%progbits
 3866              		.align	1
 3867              		.global	shellBackspace
 3868              		.syntax unified
 3869              		.thumb
 3870              		.thumb_func
 3871              		.fpu fpv4-sp-d16
 3873              	shellBackspace:
 3874              	.LVL364:
 3875              	.LFB172:
1491:SYS/shell/shell.c ****     shellDeleteByte(shell, 1);
 3876              		.loc 1 1491 1 is_stmt 1 view -0
 3877              		.cfi_startproc
 3878              		@ args = 0, pretend = 0, frame = 0
 3879              		@ frame_needed = 0, uses_anonymous_args = 0
1491:SYS/shell/shell.c ****     shellDeleteByte(shell, 1);
 3880              		.loc 1 1491 1 is_stmt 0 view .LVU1071
 3881 0000 08B5     		push	{r3, lr}
ARM GAS  C:\Users\huav\AppData\Local\Temp\cc1GSGvG.s 			page 116


 3882              	.LCFI50:
 3883              		.cfi_def_cfa_offset 8
 3884              		.cfi_offset 3, -8
 3885              		.cfi_offset 14, -4
1492:SYS/shell/shell.c **** }
 3886              		.loc 1 1492 5 is_stmt 1 view .LVU1072
 3887 0002 0121     		movs	r1, #1
 3888 0004 FFF7FEFF 		bl	shellDeleteByte
 3889              	.LVL365:
1493:SYS/shell/shell.c **** SHELL_EXPORT_KEY(SHELL_CMD_PERMISSION(0) | SHELL_CMD_ENABLE_UNCHECKED,
 3890              		.loc 1 1493 1 is_stmt 0 view .LVU1073
 3891 0008 08BD     		pop	{r3, pc}
 3892              		.cfi_endproc
 3893              	.LFE172:
 3895              		.section	.text.shellDelete,"ax",%progbits
 3896              		.align	1
 3897              		.global	shellDelete
 3898              		.syntax unified
 3899              		.thumb
 3900              		.thumb_func
 3901              		.fpu fpv4-sp-d16
 3903              	shellDelete:
 3904              	.LVL366:
 3905              	.LFB173:
1505:SYS/shell/shell.c ****     shellDeleteByte(shell, -1);
 3906              		.loc 1 1505 1 is_stmt 1 view -0
 3907              		.cfi_startproc
 3908              		@ args = 0, pretend = 0, frame = 0
 3909              		@ frame_needed = 0, uses_anonymous_args = 0
1505:SYS/shell/shell.c ****     shellDeleteByte(shell, -1);
 3910              		.loc 1 1505 1 is_stmt 0 view .LVU1075
 3911 0000 08B5     		push	{r3, lr}
 3912              	.LCFI51:
 3913              		.cfi_def_cfa_offset 8
 3914              		.cfi_offset 3, -8
 3915              		.cfi_offset 14, -4
1506:SYS/shell/shell.c **** }
 3916              		.loc 1 1506 5 is_stmt 1 view .LVU1076
 3917 0002 4FF0FF31 		mov	r1, #-1
 3918 0006 FFF7FEFF 		bl	shellDeleteByte
 3919              	.LVL367:
1507:SYS/shell/shell.c **** SHELL_EXPORT_KEY(SHELL_CMD_PERMISSION(0) | SHELL_CMD_ENABLE_UNCHECKED,
 3920              		.loc 1 1507 1 is_stmt 0 view .LVU1077
 3921 000a 08BD     		pop	{r3, pc}
 3922              		.cfi_endproc
 3923              	.LFE173:
 3925              		.section	.text.shellSeekCommand,"ax",%progbits
 3926              		.align	1
 3927              		.global	shellSeekCommand
 3928              		.syntax unified
 3929              		.thumb
 3930              		.thumb_func
 3931              		.fpu fpv4-sp-d16
 3933              	shellSeekCommand:
 3934              	.LVL368:
 3935              	.LFB154:
 898:SYS/shell/shell.c ****     const char *name;
ARM GAS  C:\Users\huav\AppData\Local\Temp\cc1GSGvG.s 			page 117


 3936              		.loc 1 898 1 is_stmt 1 view -0
 3937              		.cfi_startproc
 3938              		@ args = 0, pretend = 0, frame = 0
 3939              		@ frame_needed = 0, uses_anonymous_args = 0
 898:SYS/shell/shell.c ****     const char *name;
 3940              		.loc 1 898 1 is_stmt 0 view .LVU1079
 3941 0000 2DE9F047 		push	{r4, r5, r6, r7, r8, r9, r10, lr}
 3942              	.LCFI52:
 3943              		.cfi_def_cfa_offset 32
 3944              		.cfi_offset 4, -32
 3945              		.cfi_offset 5, -28
 3946              		.cfi_offset 6, -24
 3947              		.cfi_offset 7, -20
 3948              		.cfi_offset 8, -16
 3949              		.cfi_offset 9, -12
 3950              		.cfi_offset 10, -8
 3951              		.cfi_offset 14, -4
 3952 0004 8046     		mov	r8, r0
 3953 0006 8A46     		mov	r10, r1
 3954 0008 1746     		mov	r7, r2
 3955 000a 9946     		mov	r9, r3
 899:SYS/shell/shell.c ****     int ret;
 3956              		.loc 1 899 5 is_stmt 1 view .LVU1080
 900:SYS/shell/shell.c ****     unsigned short count = shell->commandList.count -
 3957              		.loc 1 900 5 view .LVU1081
 901:SYS/shell/shell.c ****                            ((int)base - (int)shell->commandList.base) / sizeof(ShellCommand);
 3958              		.loc 1 901 5 view .LVU1082
 901:SYS/shell/shell.c ****                            ((int)base - (int)shell->commandList.base) / sizeof(ShellCommand);
 3959              		.loc 1 901 46 is_stmt 0 view .LVU1083
 3960 000c B0F85C60 		ldrh	r6, [r0, #92]
 902:SYS/shell/shell.c ****     for (unsigned short i = 0; i < count; i++)
 3961              		.loc 1 902 64 view .LVU1084
 3962 0010 836D     		ldr	r3, [r0, #88]
 3963              	.LVL369:
 902:SYS/shell/shell.c ****     for (unsigned short i = 0; i < count; i++)
 3964              		.loc 1 902 39 view .LVU1085
 3965 0012 D31A     		subs	r3, r2, r3
 901:SYS/shell/shell.c ****                            ((int)base - (int)shell->commandList.base) / sizeof(ShellCommand);
 3966              		.loc 1 901 53 view .LVU1086
 3967 0014 C3F30F13 		ubfx	r3, r3, #4, #16
 901:SYS/shell/shell.c ****                            ((int)base - (int)shell->commandList.base) / sizeof(ShellCommand);
 3968              		.loc 1 901 20 view .LVU1087
 3969 0018 F31A     		subs	r3, r6, r3
 3970 001a 9EB2     		uxth	r6, r3
 3971              	.LVL370:
 903:SYS/shell/shell.c ****     {
 3972              		.loc 1 903 5 is_stmt 1 view .LVU1088
 3973              	.LBB31:
 903:SYS/shell/shell.c ****     {
 3974              		.loc 1 903 10 view .LVU1089
 903:SYS/shell/shell.c ****     {
 3975              		.loc 1 903 25 is_stmt 0 view .LVU1090
 3976 001c 0024     		movs	r4, #0
 903:SYS/shell/shell.c ****     {
 3977              		.loc 1 903 5 view .LVU1091
 3978 001e 06E0     		b	.L324
 3979              	.LVL371:
ARM GAS  C:\Users\huav\AppData\Local\Temp\cc1GSGvG.s 			page 118


 3980              	.L326:
 920:SYS/shell/shell.c ****             {
 3981              		.loc 1 920 13 is_stmt 1 view .LVU1092
 920:SYS/shell/shell.c ****             {
 3982              		.loc 1 920 17 is_stmt 0 view .LVU1093
 3983 0020 4A46     		mov	r2, r9
 3984 0022 5046     		mov	r0, r10
 3985              	.LVL372:
 920:SYS/shell/shell.c ****             {
 3986              		.loc 1 920 17 view .LVU1094
 3987 0024 FFF7FEFF 		bl	strncmp
 3988              	.LVL373:
 920:SYS/shell/shell.c ****             {
 3989              		.loc 1 920 16 view .LVU1095
 3990 0028 00B3     		cbz	r0, .L323
 3991              	.L325:
 903:SYS/shell/shell.c ****     {
 3992              		.loc 1 903 43 is_stmt 1 discriminator 2 view .LVU1096
 903:SYS/shell/shell.c ****     {
 3993              		.loc 1 903 44 is_stmt 0 discriminator 2 view .LVU1097
 3994 002a 0134     		adds	r4, r4, #1
 3995              	.LVL374:
 903:SYS/shell/shell.c ****     {
 3996              		.loc 1 903 44 discriminator 2 view .LVU1098
 3997 002c A4B2     		uxth	r4, r4
 3998              	.LVL375:
 3999              	.L324:
 903:SYS/shell/shell.c ****     {
 4000              		.loc 1 903 32 is_stmt 1 discriminator 1 view .LVU1099
 903:SYS/shell/shell.c ****     {
 4001              		.loc 1 903 5 is_stmt 0 discriminator 1 view .LVU1100
 4002 002e B442     		cmp	r4, r6
 4003 0030 1BD2     		bcs	.L330
 905:SYS/shell/shell.c ****         {
 4004              		.loc 1 905 9 is_stmt 1 view .LVU1101
 905:SYS/shell/shell.c ****         {
 4005              		.loc 1 905 17 is_stmt 0 view .LVU1102
 4006 0032 07EB0415 		add	r5, r7, r4, lsl #4
 905:SYS/shell/shell.c ****         {
 4007              		.loc 1 905 37 view .LVU1103
 4008 0036 95F801C0 		ldrb	ip, [r5, #1]	@ zero_extendqisi2
 4009 003a 0CF00F0C 		and	ip, ip, #15
 905:SYS/shell/shell.c ****         {
 4010              		.loc 1 905 12 view .LVU1104
 4011 003e BCF1090F 		cmp	ip, #9
 4012 0042 F2D0     		beq	.L325
 905:SYS/shell/shell.c ****         {
 4013              		.loc 1 905 58 discriminator 1 view .LVU1105
 4014 0044 2946     		mov	r1, r5
 4015 0046 4046     		mov	r0, r8
 4016 0048 FFF7FEFF 		bl	shellCheckPermission
 4017              	.LVL376:
 905:SYS/shell/shell.c ****         {
 4018              		.loc 1 905 55 discriminator 1 view .LVU1106
 4019 004c 0028     		cmp	r0, #0
 4020 004e ECD1     		bne	.L325
 909:SYS/shell/shell.c ****         if (!compareLength)
ARM GAS  C:\Users\huav\AppData\Local\Temp\cc1GSGvG.s 			page 119


 4021              		.loc 1 909 9 is_stmt 1 view .LVU1107
 909:SYS/shell/shell.c ****         if (!compareLength)
 4022              		.loc 1 909 16 is_stmt 0 view .LVU1108
 4023 0050 2846     		mov	r0, r5
 4024 0052 FFF7FEFF 		bl	shellGetCommandName
 4025              	.LVL377:
 4026 0056 0146     		mov	r1, r0
 4027              	.LVL378:
 910:SYS/shell/shell.c ****         {
 4028              		.loc 1 910 9 is_stmt 1 view .LVU1109
 910:SYS/shell/shell.c ****         {
 4029              		.loc 1 910 12 is_stmt 0 view .LVU1110
 4030 0058 B9F1000F 		cmp	r9, #0
 4031 005c E0D1     		bne	.L326
 912:SYS/shell/shell.c ****             if (strcmp(cmd, name) == 0)
 4032              		.loc 1 912 13 is_stmt 1 view .LVU1111
 912:SYS/shell/shell.c ****             if (strcmp(cmd, name) == 0)
 4033              		.loc 1 912 19 is_stmt 0 view .LVU1112
 4034 005e 5046     		mov	r0, r10
 4035              	.LVL379:
 912:SYS/shell/shell.c ****             if (strcmp(cmd, name) == 0)
 4036              		.loc 1 912 19 view .LVU1113
 4037 0060 FFF7FEFF 		bl	strcmp
 4038              	.LVL380:
 913:SYS/shell/shell.c ****             {
 4039              		.loc 1 913 13 is_stmt 1 view .LVU1114
 913:SYS/shell/shell.c ****             {
 4040              		.loc 1 913 16 is_stmt 0 view .LVU1115
 4041 0064 0028     		cmp	r0, #0
 4042 0066 E0D1     		bne	.L325
 4043 0068 00E0     		b	.L323
 4044              	.LVL381:
 4045              	.L330:
 913:SYS/shell/shell.c ****             {
 4046              		.loc 1 913 16 view .LVU1116
 4047              	.LBE31:
 926:SYS/shell/shell.c **** }
 4048              		.loc 1 926 12 view .LVU1117
 4049 006a 0025     		movs	r5, #0
 4050              	.L323:
 927:SYS/shell/shell.c **** 
 4051              		.loc 1 927 1 view .LVU1118
 4052 006c 2846     		mov	r0, r5
 4053 006e BDE8F087 		pop	{r4, r5, r6, r7, r8, r9, r10, pc}
 927:SYS/shell/shell.c **** 
 4054              		.loc 1 927 1 view .LVU1119
 4055              		.cfi_endproc
 4056              	.LFE154:
 4058              		.section	.rodata.shellInit.str1.4,"aMS",%progbits,1
 4059              		.align	2
 4060              	.LC22:
 4061 0000 502E302E 		.ascii	"P.0.Wder Squad\000"
 4061      57646572 
 4061      20537175 
 4061      616400
 4062              		.section	.text.shellInit,"ax",%progbits
 4063              		.align	1
ARM GAS  C:\Users\huav\AppData\Local\Temp\cc1GSGvG.s 			page 120


 4064              		.global	shellInit
 4065              		.syntax unified
 4066              		.thumb
 4067              		.thumb_func
 4068              		.fpu fpv4-sp-d16
 4070              	shellInit:
 4071              	.LVL382:
 4072              	.LFB126:
 165:SYS/shell/shell.c ****     shell->parser.length = 0;
 4073              		.loc 1 165 1 is_stmt 1 view -0
 4074              		.cfi_startproc
 4075              		@ args = 0, pretend = 0, frame = 0
 4076              		@ frame_needed = 0, uses_anonymous_args = 0
 165:SYS/shell/shell.c ****     shell->parser.length = 0;
 4077              		.loc 1 165 1 is_stmt 0 view .LVU1121
 4078 0000 10B5     		push	{r4, lr}
 4079              	.LCFI53:
 4080              		.cfi_def_cfa_offset 8
 4081              		.cfi_offset 4, -8
 4082              		.cfi_offset 14, -4
 4083 0002 0446     		mov	r4, r0
 166:SYS/shell/shell.c ****     shell->parser.cursor = 0;
 4084              		.loc 1 166 5 is_stmt 1 view .LVU1122
 166:SYS/shell/shell.c ****     shell->parser.cursor = 0;
 4085              		.loc 1 166 26 is_stmt 0 view .LVU1123
 4086 0004 0023     		movs	r3, #0
 4087 0006 8381     		strh	r3, [r0, #12]	@ movhi
 167:SYS/shell/shell.c ****     shell->history.offset = 0;
 4088              		.loc 1 167 5 is_stmt 1 view .LVU1124
 167:SYS/shell/shell.c ****     shell->history.offset = 0;
 4089              		.loc 1 167 26 is_stmt 0 view .LVU1125
 4090 0008 C381     		strh	r3, [r0, #14]	@ movhi
 168:SYS/shell/shell.c ****     shell->history.number = 0;
 4091              		.loc 1 168 5 is_stmt 1 view .LVU1126
 168:SYS/shell/shell.c ****     shell->history.number = 0;
 4092              		.loc 1 168 27 is_stmt 0 view .LVU1127
 4093 000a A0F85430 		strh	r3, [r0, #84]	@ movhi
 169:SYS/shell/shell.c ****     shell->history.record = 0;
 4094              		.loc 1 169 5 is_stmt 1 view .LVU1128
 169:SYS/shell/shell.c ****     shell->history.record = 0;
 4095              		.loc 1 169 27 is_stmt 0 view .LVU1129
 4096 000e A0F85030 		strh	r3, [r0, #80]	@ movhi
 170:SYS/shell/shell.c ****     shell->info.user = NULL;
 4097              		.loc 1 170 5 is_stmt 1 view .LVU1130
 170:SYS/shell/shell.c ****     shell->info.user = NULL;
 4098              		.loc 1 170 27 is_stmt 0 view .LVU1131
 4099 0012 A0F85230 		strh	r3, [r0, #82]	@ movhi
 171:SYS/shell/shell.c ****     shell->status.isChecked = 1;
 4100              		.loc 1 171 5 is_stmt 1 view .LVU1132
 171:SYS/shell/shell.c ****     shell->status.isChecked = 1;
 4101              		.loc 1 171 22 is_stmt 0 view .LVU1133
 4102 0016 0360     		str	r3, [r0]
 172:SYS/shell/shell.c **** 
 4103              		.loc 1 172 5 is_stmt 1 view .LVU1134
 172:SYS/shell/shell.c **** 
 4104              		.loc 1 172 29 is_stmt 0 view .LVU1135
 4105 0018 90F86000 		ldrb	r0, [r0, #96]	@ zero_extendqisi2
ARM GAS  C:\Users\huav\AppData\Local\Temp\cc1GSGvG.s 			page 121


 4106              	.LVL383:
 172:SYS/shell/shell.c **** 
 4107              		.loc 1 172 29 view .LVU1136
 4108 001c 40F00100 		orr	r0, r0, #1
 4109 0020 84F86000 		strb	r0, [r4, #96]
 174:SYS/shell/shell.c ****     shell->parser.bufferSize = size / (SHELL_HISTORY_MAX_NUMBER + 1);
 4110              		.loc 1 174 5 is_stmt 1 view .LVU1137
 174:SYS/shell/shell.c ****     shell->parser.bufferSize = size / (SHELL_HISTORY_MAX_NUMBER + 1);
 4111              		.loc 1 174 26 is_stmt 0 view .LVU1138
 4112 0024 2161     		str	r1, [r4, #16]
 175:SYS/shell/shell.c ****     for (short i = 0; i < SHELL_HISTORY_MAX_NUMBER; i++)
 4113              		.loc 1 175 5 is_stmt 1 view .LVU1139
 175:SYS/shell/shell.c ****     for (short i = 0; i < SHELL_HISTORY_MAX_NUMBER; i++)
 4114              		.loc 1 175 30 is_stmt 0 view .LVU1140
 4115 0026 1648     		ldr	r0, .L335
 4116 0028 A0FB022C 		umull	r2, ip, r0, r2
 4117              	.LVL384:
 175:SYS/shell/shell.c ****     for (short i = 0; i < SHELL_HISTORY_MAX_NUMBER; i++)
 4118              		.loc 1 175 30 view .LVU1141
 4119 002c 4FEA9C0C 		lsr	ip, ip, #2
 4120 0030 A4F834C0 		strh	ip, [r4, #52]	@ movhi
 176:SYS/shell/shell.c ****     {
 4121              		.loc 1 176 5 is_stmt 1 view .LVU1142
 4122              	.LBB32:
 176:SYS/shell/shell.c ****     {
 4123              		.loc 1 176 10 view .LVU1143
 4124              	.LVL385:
 176:SYS/shell/shell.c ****     {
 4125              		.loc 1 176 5 is_stmt 0 view .LVU1144
 4126 0034 09E0     		b	.L332
 4127              	.LVL386:
 4128              	.L333:
 178:SYS/shell/shell.c ****     }
 4129              		.loc 1 178 9 is_stmt 1 discriminator 3 view .LVU1145
 178:SYS/shell/shell.c ****     }
 4130              		.loc 1 178 68 is_stmt 0 discriminator 3 view .LVU1146
 4131 0036 03FB0CC0 		mla	r0, r3, ip, ip
 178:SYS/shell/shell.c ****     }
 4132              		.loc 1 178 41 discriminator 3 view .LVU1147
 4133 003a 0844     		add	r0, r0, r1
 178:SYS/shell/shell.c ****     }
 4134              		.loc 1 178 32 discriminator 3 view .LVU1148
 4135 003c 03F10E02 		add	r2, r3, #14
 4136 0040 04EB8202 		add	r2, r4, r2, lsl #2
 4137 0044 5060     		str	r0, [r2, #4]
 176:SYS/shell/shell.c ****     {
 4138              		.loc 1 176 53 is_stmt 1 discriminator 3 view .LVU1149
 176:SYS/shell/shell.c ****     {
 4139              		.loc 1 176 54 is_stmt 0 discriminator 3 view .LVU1150
 4140 0046 0133     		adds	r3, r3, #1
 4141              	.LVL387:
 176:SYS/shell/shell.c ****     {
 4142              		.loc 1 176 54 discriminator 3 view .LVU1151
 4143 0048 1BB2     		sxth	r3, r3
 4144              	.LVL388:
 4145              	.L332:
 176:SYS/shell/shell.c ****     {
ARM GAS  C:\Users\huav\AppData\Local\Temp\cc1GSGvG.s 			page 122


 4146              		.loc 1 176 23 is_stmt 1 discriminator 1 view .LVU1152
 176:SYS/shell/shell.c ****     {
 4147              		.loc 1 176 5 is_stmt 0 discriminator 1 view .LVU1153
 4148 004a 042B     		cmp	r3, #4
 4149 004c F3DD     		ble	.L333
 4150              	.LBE32:
 190:SYS/shell/shell.c ****     shell->commandList.count = ((unsigned int)(&_shell_command_end) - (unsigned int)(&_shell_comman
 4151              		.loc 1 190 5 is_stmt 1 view .LVU1154
 190:SYS/shell/shell.c ****     shell->commandList.count = ((unsigned int)(&_shell_command_end) - (unsigned int)(&_shell_comman
 4152              		.loc 1 190 29 is_stmt 0 view .LVU1155
 4153 004e 0D4A     		ldr	r2, .L335+4
 4154 0050 A265     		str	r2, [r4, #88]
 191:SYS/shell/shell.c **** #else
 4155              		.loc 1 191 5 is_stmt 1 view .LVU1156
 191:SYS/shell/shell.c **** #else
 4156              		.loc 1 191 33 is_stmt 0 view .LVU1157
 4157 0052 0D4B     		ldr	r3, .L335+8
 4158              	.LVL389:
 191:SYS/shell/shell.c **** #else
 4159              		.loc 1 191 69 view .LVU1158
 4160 0054 9B1A     		subs	r3, r3, r2
 191:SYS/shell/shell.c **** #else
 4161              		.loc 1 191 110 view .LVU1159
 4162 0056 1B09     		lsrs	r3, r3, #4
 191:SYS/shell/shell.c **** #else
 4163              		.loc 1 191 30 view .LVU1160
 4164 0058 A4F85C30 		strh	r3, [r4, #92]	@ movhi
 200:SYS/shell/shell.c **** 
 4165              		.loc 1 200 5 is_stmt 1 view .LVU1161
 4166 005c 2046     		mov	r0, r4
 4167 005e FFF7FEFF 		bl	shellAdd
 4168              	.LVL390:
 202:SYS/shell/shell.c ****                                          SHELL_DEFAULT_USER,
 4169              		.loc 1 202 5 view .LVU1162
 202:SYS/shell/shell.c ****                                          SHELL_DEFAULT_USER,
 4170              		.loc 1 202 25 is_stmt 0 view .LVU1163
 4171 0062 0023     		movs	r3, #0
 4172 0064 A26D     		ldr	r2, [r4, #88]
 4173 0066 0949     		ldr	r1, .L335+12
 4174 0068 2046     		mov	r0, r4
 4175 006a FFF7FEFF 		bl	shellSeekCommand
 4176              	.LVL391:
 4177 006e 0146     		mov	r1, r0
 202:SYS/shell/shell.c ****                                          SHELL_DEFAULT_USER,
 4178              		.loc 1 202 5 view .LVU1164
 4179 0070 2046     		mov	r0, r4
 4180 0072 FFF7FEFF 		bl	shellSetUser
 4181              	.LVL392:
 206:SYS/shell/shell.c **** }
 4182              		.loc 1 206 5 is_stmt 1 view .LVU1165
 4183 0076 0121     		movs	r1, #1
 4184 0078 2046     		mov	r0, r4
 4185 007a FFF7FEFF 		bl	shellWriteCommandLine
 4186              	.LVL393:
 207:SYS/shell/shell.c **** 
 4187              		.loc 1 207 1 is_stmt 0 view .LVU1166
 4188 007e 10BD     		pop	{r4, pc}
ARM GAS  C:\Users\huav\AppData\Local\Temp\cc1GSGvG.s 			page 123


 4189              	.LVL394:
 4190              	.L336:
 207:SYS/shell/shell.c **** 
 4191              		.loc 1 207 1 view .LVU1167
 4192              		.align	2
 4193              	.L335:
 4194 0080 ABAAAAAA 		.word	-1431655765
 4195 0084 00000000 		.word	_shell_command_start
 4196 0088 00000000 		.word	_shell_command_end
 4197 008c 00000000 		.word	.LC22
 4198              		.cfi_endproc
 4199              	.LFE126:
 4201              		.section	.rodata.shellHelp.str1.4,"aMS",%progbits,1
 4202              		.align	2
 4203              	.LC23:
 4204 0000 636F6D6D 		.ascii	"command help of \000"
 4204      616E6420 
 4204      68656C70 
 4204      206F6620 
 4204      00
 4205 0011 000000   		.align	2
 4206              	.LC24:
 4207 0014 436F6D6D 		.ascii	"Command not Found\015\012\000"
 4207      616E6420 
 4207      6E6F7420 
 4207      466F756E 
 4207      640D0A00 
 4208              		.section	.text.shellHelp,"ax",%progbits
 4209              		.align	1
 4210              		.global	shellHelp
 4211              		.syntax unified
 4212              		.thumb
 4213              		.thumb_func
 4214              		.fpu fpv4-sp-d16
 4216              	shellHelp:
 4217              	.LVL395:
 4218              	.LFB175:
1541:SYS/shell/shell.c ****     Shell *shell = shellGetCurrent();
 4219              		.loc 1 1541 1 is_stmt 1 view -0
 4220              		.cfi_startproc
 4221              		@ args = 0, pretend = 0, frame = 0
 4222              		@ frame_needed = 0, uses_anonymous_args = 0
1541:SYS/shell/shell.c ****     Shell *shell = shellGetCurrent();
 4223              		.loc 1 1541 1 is_stmt 0 view .LVU1169
 4224 0000 70B5     		push	{r4, r5, r6, lr}
 4225              	.LCFI54:
 4226              		.cfi_def_cfa_offset 16
 4227              		.cfi_offset 4, -16
 4228              		.cfi_offset 5, -12
 4229              		.cfi_offset 6, -8
 4230              		.cfi_offset 14, -4
 4231 0002 0446     		mov	r4, r0
 4232 0004 0D46     		mov	r5, r1
1542:SYS/shell/shell.c ****     SHELL_ASSERT(shell, return );
 4233              		.loc 1 1542 5 is_stmt 1 view .LVU1170
1542:SYS/shell/shell.c ****     SHELL_ASSERT(shell, return );
 4234              		.loc 1 1542 20 is_stmt 0 view .LVU1171
ARM GAS  C:\Users\huav\AppData\Local\Temp\cc1GSGvG.s 			page 124


 4235 0006 FFF7FEFF 		bl	shellGetCurrent
 4236              	.LVL396:
1543:SYS/shell/shell.c ****     if (argc == 1)
 4237              		.loc 1 1543 5 is_stmt 1 view .LVU1172
 4238 000a 20B1     		cbz	r0, .L337
 4239 000c 0646     		mov	r6, r0
1543:SYS/shell/shell.c ****     if (argc == 1)
 4240              		.loc 1 1543 33 discriminator 2 view .LVU1173
1544:SYS/shell/shell.c ****     {
 4241              		.loc 1 1544 5 discriminator 2 view .LVU1174
1544:SYS/shell/shell.c ****     {
 4242              		.loc 1 1544 8 is_stmt 0 discriminator 2 view .LVU1175
 4243 000e 012C     		cmp	r4, #1
 4244 0010 02D0     		beq	.L342
1548:SYS/shell/shell.c ****     {
 4245              		.loc 1 1548 10 is_stmt 1 view .LVU1176
1548:SYS/shell/shell.c ****     {
 4246              		.loc 1 1548 13 is_stmt 0 view .LVU1177
 4247 0012 012C     		cmp	r4, #1
 4248 0014 03DC     		bgt	.L343
 4249              	.LVL397:
 4250              	.L337:
1567:SYS/shell/shell.c **** SHELL_EXPORT_CMD(
 4251              		.loc 1 1567 1 view .LVU1178
 4252 0016 70BD     		pop	{r4, r5, r6, pc}
 4253              	.LVL398:
 4254              	.L342:
1546:SYS/shell/shell.c ****     }
 4255              		.loc 1 1546 9 is_stmt 1 view .LVU1179
 4256 0018 FFF7FEFF 		bl	shellListAll
 4257              	.LVL399:
1546:SYS/shell/shell.c ****     }
 4258              		.loc 1 1546 9 is_stmt 0 view .LVU1180
 4259 001c FBE7     		b	.L337
 4260              	.LVL400:
 4261              	.L343:
 4262              	.LBB33:
1550:SYS/shell/shell.c ****                                                  argv[1],
 4263              		.loc 1 1550 9 is_stmt 1 view .LVU1181
1550:SYS/shell/shell.c ****                                                  argv[1],
 4264              		.loc 1 1550 33 is_stmt 0 view .LVU1182
 4265 001e 0023     		movs	r3, #0
 4266 0020 826D     		ldr	r2, [r0, #88]
 4267 0022 6968     		ldr	r1, [r5, #4]
 4268 0024 FFF7FEFF 		bl	shellSeekCommand
 4269              	.LVL401:
1554:SYS/shell/shell.c ****         {
 4270              		.loc 1 1554 9 is_stmt 1 view .LVU1183
1554:SYS/shell/shell.c ****         {
 4271              		.loc 1 1554 12 is_stmt 0 view .LVU1184
 4272 0028 0446     		mov	r4, r0
 4273              	.LVL402:
1554:SYS/shell/shell.c ****         {
 4274              		.loc 1 1554 12 view .LVU1185
 4275 002a D8B1     		cbz	r0, .L340
1556:SYS/shell/shell.c ****             shellWriteString(shell, shellGetCommandName(command));
 4276              		.loc 1 1556 13 is_stmt 1 view .LVU1186
ARM GAS  C:\Users\huav\AppData\Local\Temp\cc1GSGvG.s 			page 125


 4277 002c 1049     		ldr	r1, .L344
 4278 002e 3046     		mov	r0, r6
 4279              	.LVL403:
1556:SYS/shell/shell.c ****             shellWriteString(shell, shellGetCommandName(command));
 4280              		.loc 1 1556 13 is_stmt 0 view .LVU1187
 4281 0030 FFF7FEFF 		bl	shellWriteString
 4282              	.LVL404:
1557:SYS/shell/shell.c ****             shellWriteString(shell, "\r\n");
 4283              		.loc 1 1557 13 is_stmt 1 view .LVU1188
 4284 0034 2046     		mov	r0, r4
 4285 0036 FFF7FEFF 		bl	shellGetCommandName
 4286              	.LVL405:
 4287 003a 0146     		mov	r1, r0
 4288 003c 3046     		mov	r0, r6
 4289 003e FFF7FEFF 		bl	shellWriteString
 4290              	.LVL406:
1558:SYS/shell/shell.c ****             shellWriteString(shell, shellGetCommandDesc(command));
 4291              		.loc 1 1558 13 view .LVU1189
 4292 0042 0C4D     		ldr	r5, .L344+4
 4293              	.LVL407:
1558:SYS/shell/shell.c ****             shellWriteString(shell, shellGetCommandDesc(command));
 4294              		.loc 1 1558 13 is_stmt 0 view .LVU1190
 4295 0044 2946     		mov	r1, r5
 4296 0046 3046     		mov	r0, r6
 4297 0048 FFF7FEFF 		bl	shellWriteString
 4298              	.LVL408:
1559:SYS/shell/shell.c ****             shellWriteString(shell, "\r\n");
 4299              		.loc 1 1559 13 is_stmt 1 view .LVU1191
 4300 004c 2046     		mov	r0, r4
 4301 004e FFF7FEFF 		bl	shellGetCommandDesc
 4302              	.LVL409:
 4303 0052 0146     		mov	r1, r0
 4304 0054 3046     		mov	r0, r6
 4305 0056 FFF7FEFF 		bl	shellWriteString
 4306              	.LVL410:
1560:SYS/shell/shell.c ****         }
 4307              		.loc 1 1560 13 view .LVU1192
 4308 005a 2946     		mov	r1, r5
 4309 005c 3046     		mov	r0, r6
 4310 005e FFF7FEFF 		bl	shellWriteString
 4311              	.LVL411:
 4312 0062 D8E7     		b	.L337
 4313              	.LVL412:
 4314              	.L340:
1564:SYS/shell/shell.c ****         }
 4315              		.loc 1 1564 13 view .LVU1193
 4316 0064 0449     		ldr	r1, .L344+8
 4317 0066 3046     		mov	r0, r6
 4318              	.LVL413:
1564:SYS/shell/shell.c ****         }
 4319              		.loc 1 1564 13 is_stmt 0 view .LVU1194
 4320 0068 FFF7FEFF 		bl	shellWriteString
 4321              	.LVL414:
 4322 006c D3E7     		b	.L337
 4323              	.L345:
 4324 006e 00BF     		.align	2
 4325              	.L344:
ARM GAS  C:\Users\huav\AppData\Local\Temp\cc1GSGvG.s 			page 126


 4326 0070 00000000 		.word	.LC23
 4327 0074 04000000 		.word	.LC3
 4328 0078 14000000 		.word	.LC24
 4329              	.LBE33:
 4330              		.cfi_endproc
 4331              	.LFE175:
 4333              		.section	.text.shellGetVarValue,"ax",%progbits
 4334              		.align	1
 4335              		.global	shellGetVarValue
 4336              		.syntax unified
 4337              		.thumb
 4338              		.thumb_func
 4339              		.fpu fpv4-sp-d16
 4341              	shellGetVarValue:
 4342              	.LVL415:
 4343              	.LFB155:
 937:SYS/shell/shell.c ****     int value = 0;
 4344              		.loc 1 937 1 is_stmt 1 view -0
 4345              		.cfi_startproc
 4346              		@ args = 0, pretend = 0, frame = 0
 4347              		@ frame_needed = 0, uses_anonymous_args = 0
 937:SYS/shell/shell.c ****     int value = 0;
 4348              		.loc 1 937 1 is_stmt 0 view .LVU1196
 4349 0000 08B5     		push	{r3, lr}
 4350              	.LCFI55:
 4351              		.cfi_def_cfa_offset 8
 4352              		.cfi_offset 3, -8
 4353              		.cfi_offset 14, -4
 938:SYS/shell/shell.c ****     switch (command->attr.attrs.type)
 4354              		.loc 1 938 5 is_stmt 1 view .LVU1197
 4355              	.LVL416:
 939:SYS/shell/shell.c ****     {
 4356              		.loc 1 939 5 view .LVU1198
 939:SYS/shell/shell.c ****     {
 4357              		.loc 1 939 32 is_stmt 0 view .LVU1199
 4358 0002 4B78     		ldrb	r3, [r1, #1]	@ zero_extendqisi2
 4359 0004 03F00F03 		and	r3, r3, #15
 4360 0008 023B     		subs	r3, r3, #2
 4361 000a 052B     		cmp	r3, #5
 4362 000c 16D8     		bhi	.L354
 4363 000e DFE803F0 		tbb	[pc, r3]
 4364              	.L349:
 4365 0012 03       		.byte	(.L353-.L349)/2
 4366 0013 06       		.byte	(.L352-.L349)/2
 4367 0014 0A       		.byte	(.L351-.L349)/2
 4368 0015 0D       		.byte	(.L350-.L349)/2
 4369 0016 0D       		.byte	(.L350-.L349)/2
 4370 0017 0F       		.byte	(.L348-.L349)/2
 4371              		.p2align 1
 4372              	.L353:
 942:SYS/shell/shell.c ****         break;
 4373              		.loc 1 942 9 is_stmt 1 view .LVU1200
 942:SYS/shell/shell.c ****         break;
 4374              		.loc 1 942 44 is_stmt 0 view .LVU1201
 4375 0018 8B68     		ldr	r3, [r1, #8]
 942:SYS/shell/shell.c ****         break;
 4376              		.loc 1 942 15 view .LVU1202
ARM GAS  C:\Users\huav\AppData\Local\Temp\cc1GSGvG.s 			page 127


 4377 001a 1868     		ldr	r0, [r3]
 4378              	.LVL417:
 943:SYS/shell/shell.c ****     case SHELL_TYPE_VAR_SHORT:
 4379              		.loc 1 943 9 is_stmt 1 view .LVU1203
 4380              	.L346:
 963:SYS/shell/shell.c **** 
 4381              		.loc 1 963 1 is_stmt 0 view .LVU1204
 4382 001c 08BD     		pop	{r3, pc}
 4383              	.LVL418:
 4384              	.L352:
 945:SYS/shell/shell.c ****         break;
 4385              		.loc 1 945 9 is_stmt 1 view .LVU1205
 945:SYS/shell/shell.c ****         break;
 4386              		.loc 1 945 46 is_stmt 0 view .LVU1206
 4387 001e 8B68     		ldr	r3, [r1, #8]
 945:SYS/shell/shell.c ****         break;
 4388              		.loc 1 945 17 view .LVU1207
 4389 0020 B3F90000 		ldrsh	r0, [r3]
 4390              	.LVL419:
 946:SYS/shell/shell.c ****     case SHELL_TYPE_VAR_CHAR:
 4391              		.loc 1 946 9 is_stmt 1 view .LVU1208
 4392 0024 FAE7     		b	.L346
 4393              	.LVL420:
 4394              	.L351:
 948:SYS/shell/shell.c ****         break;
 4395              		.loc 1 948 9 view .LVU1209
 948:SYS/shell/shell.c ****         break;
 4396              		.loc 1 948 45 is_stmt 0 view .LVU1210
 4397 0026 8B68     		ldr	r3, [r1, #8]
 948:SYS/shell/shell.c ****         break;
 4398              		.loc 1 948 17 view .LVU1211
 4399 0028 1878     		ldrb	r0, [r3]	@ zero_extendqisi2
 4400              	.LVL421:
 949:SYS/shell/shell.c ****     case SHELL_TYPE_VAR_STRING:
 4401              		.loc 1 949 9 is_stmt 1 view .LVU1212
 4402 002a F7E7     		b	.L346
 4403              	.LVL422:
 4404              	.L350:
 952:SYS/shell/shell.c ****         break;
 4405              		.loc 1 952 9 view .LVU1213
 952:SYS/shell/shell.c ****         break;
 4406              		.loc 1 952 40 is_stmt 0 view .LVU1214
 4407 002c 8868     		ldr	r0, [r1, #8]
 4408              	.LVL423:
 953:SYS/shell/shell.c ****     case SHELL_TYPE_VAR_NODE:
 4409              		.loc 1 953 9 is_stmt 1 view .LVU1215
 4410 002e F5E7     		b	.L346
 4411              	.LVL424:
 4412              	.L348:
 955:SYS/shell/shell.c ****                                                                          ->get(((ShellNodeVarAttr *
 4413              		.loc 1 955 9 view .LVU1216
 955:SYS/shell/shell.c ****                                                                          ->get(((ShellNodeVarAttr *
 4414              		.loc 1 955 55 is_stmt 0 view .LVU1217
 4415 0030 8A68     		ldr	r2, [r1, #8]
 955:SYS/shell/shell.c ****                                                                          ->get(((ShellNodeVarAttr *
 4416              		.loc 1 955 62 view .LVU1218
 4417 0032 5368     		ldr	r3, [r2, #4]
ARM GAS  C:\Users\huav\AppData\Local\Temp\cc1GSGvG.s 			page 128


 957:SYS/shell/shell.c ****         break;
 4418              		.loc 1 957 68 view .LVU1219
 4419 0034 23B1     		cbz	r3, .L355
 955:SYS/shell/shell.c ****                                                                          ->get(((ShellNodeVarAttr *
 4420              		.loc 1 955 71 view .LVU1220
 4421 0036 1068     		ldr	r0, [r2]
 4422              	.LVL425:
 955:SYS/shell/shell.c ****                                                                          ->get(((ShellNodeVarAttr *
 4423              		.loc 1 955 71 view .LVU1221
 4424 0038 9847     		blx	r3
 4425              	.LVL426:
 955:SYS/shell/shell.c ****                                                                          ->get(((ShellNodeVarAttr *
 4426              		.loc 1 955 71 view .LVU1222
 4427 003a EFE7     		b	.L346
 4428              	.LVL427:
 4429              	.L354:
 939:SYS/shell/shell.c ****     {
 4430              		.loc 1 939 32 view .LVU1223
 4431 003c 0020     		movs	r0, #0
 4432              	.LVL428:
 939:SYS/shell/shell.c ****     {
 4433              		.loc 1 939 32 view .LVU1224
 4434 003e EDE7     		b	.L346
 4435              	.LVL429:
 4436              	.L355:
 957:SYS/shell/shell.c ****         break;
 4437              		.loc 1 957 68 view .LVU1225
 4438 0040 0020     		movs	r0, #0
 4439              	.LVL430:
 962:SYS/shell/shell.c **** }
 4440              		.loc 1 962 5 is_stmt 1 view .LVU1226
 962:SYS/shell/shell.c **** }
 4441              		.loc 1 962 12 is_stmt 0 view .LVU1227
 4442 0042 EBE7     		b	.L346
 4443              		.cfi_endproc
 4444              	.LFE155:
 4446              		.section	.rodata.shellShowVar.str1.4,"aMS",%progbits,1
 4447              		.align	2
 4448              	.LC25:
 4449 0000 203D2000 		.ascii	" = \000"
 4450              		.align	2
 4451              	.LC26:
 4452 0004 2200     		.ascii	"\"\000"
 4453              		.section	.text.shellShowVar,"ax",%progbits
 4454              		.align	1
 4455              		.syntax unified
 4456              		.thumb
 4457              		.thumb_func
 4458              		.fpu fpv4-sp-d16
 4460              	shellShowVar:
 4461              	.LVL431:
 4462              	.LFB157:
1027:SYS/shell/shell.c ****     char buffer[12] = "00000000000";
 4463              		.loc 1 1027 1 is_stmt 1 view -0
 4464              		.cfi_startproc
 4465              		@ args = 0, pretend = 0, frame = 16
 4466              		@ frame_needed = 0, uses_anonymous_args = 0
ARM GAS  C:\Users\huav\AppData\Local\Temp\cc1GSGvG.s 			page 129


1027:SYS/shell/shell.c ****     char buffer[12] = "00000000000";
 4467              		.loc 1 1027 1 is_stmt 0 view .LVU1229
 4468 0000 70B5     		push	{r4, r5, r6, lr}
 4469              	.LCFI56:
 4470              		.cfi_def_cfa_offset 16
 4471              		.cfi_offset 4, -16
 4472              		.cfi_offset 5, -12
 4473              		.cfi_offset 6, -8
 4474              		.cfi_offset 14, -4
 4475 0002 84B0     		sub	sp, sp, #16
 4476              	.LCFI57:
 4477              		.cfi_def_cfa_offset 32
 4478 0004 0446     		mov	r4, r0
 4479 0006 0D46     		mov	r5, r1
1028:SYS/shell/shell.c ****     int value = shellGetVarValue(shell, command);
 4480              		.loc 1 1028 5 is_stmt 1 view .LVU1230
1028:SYS/shell/shell.c ****     int value = shellGetVarValue(shell, command);
 4481              		.loc 1 1028 10 is_stmt 0 view .LVU1231
 4482 0008 274B     		ldr	r3, .L364
 4483 000a 93E80700 		ldm	r3, {r0, r1, r2}
 4484              	.LVL432:
1028:SYS/shell/shell.c ****     int value = shellGetVarValue(shell, command);
 4485              		.loc 1 1028 10 view .LVU1232
 4486 000e 04AB     		add	r3, sp, #16
 4487 0010 03E90700 		stmdb	r3, {r0, r1, r2}
1029:SYS/shell/shell.c **** 
 4488              		.loc 1 1029 5 is_stmt 1 view .LVU1233
1029:SYS/shell/shell.c **** 
 4489              		.loc 1 1029 17 is_stmt 0 view .LVU1234
 4490 0014 2946     		mov	r1, r5
 4491 0016 2046     		mov	r0, r4
 4492 0018 FFF7FEFF 		bl	shellGetVarValue
 4493              	.LVL433:
 4494 001c 0646     		mov	r6, r0
 4495              	.LVL434:
1031:SYS/shell/shell.c ****     shellWriteString(shell, " = ");
 4496              		.loc 1 1031 5 is_stmt 1 view .LVU1235
 4497 001e 6968     		ldr	r1, [r5, #4]
 4498 0020 2046     		mov	r0, r4
 4499              	.LVL435:
1031:SYS/shell/shell.c ****     shellWriteString(shell, " = ");
 4500              		.loc 1 1031 5 is_stmt 0 view .LVU1236
 4501 0022 FFF7FEFF 		bl	shellWriteString
 4502              	.LVL436:
1032:SYS/shell/shell.c **** 
 4503              		.loc 1 1032 5 is_stmt 1 view .LVU1237
 4504 0026 2149     		ldr	r1, .L364+4
 4505 0028 2046     		mov	r0, r4
 4506 002a FFF7FEFF 		bl	shellWriteString
 4507              	.LVL437:
1034:SYS/shell/shell.c ****     {
 4508              		.loc 1 1034 5 view .LVU1238
1034:SYS/shell/shell.c ****     {
 4509              		.loc 1 1034 32 is_stmt 0 view .LVU1239
 4510 002e 6B78     		ldrb	r3, [r5, #1]	@ zero_extendqisi2
 4511 0030 03F00F03 		and	r3, r3, #15
1034:SYS/shell/shell.c ****     {
ARM GAS  C:\Users\huav\AppData\Local\Temp\cc1GSGvG.s 			page 130


 4512              		.loc 1 1034 5 view .LVU1240
 4513 0034 052B     		cmp	r3, #5
 4514 0036 10D0     		beq	.L363
1046:SYS/shell/shell.c ****         shellWriteString(shell, ", 0x");
 4515              		.loc 1 1046 9 is_stmt 1 view .LVU1241
1046:SYS/shell/shell.c ****         shellWriteString(shell, ", 0x");
 4516              		.loc 1 1046 46 is_stmt 0 view .LVU1242
 4517 0038 01A9     		add	r1, sp, #4
 4518 003a 3046     		mov	r0, r6
 4519 003c FFF7FEFF 		bl	shellToDec
 4520              	.LVL438:
1046:SYS/shell/shell.c ****         shellWriteString(shell, ", 0x");
 4521              		.loc 1 1046 44 view .LVU1243
 4522 0040 C0F10B01 		rsb	r1, r0, #11
1046:SYS/shell/shell.c ****         shellWriteString(shell, ", 0x");
 4523              		.loc 1 1046 9 view .LVU1244
 4524 0044 01AB     		add	r3, sp, #4
 4525 0046 1944     		add	r1, r1, r3
 4526 0048 2046     		mov	r0, r4
 4527 004a FFF7FEFF 		bl	shellWriteString
 4528              	.LVL439:
1047:SYS/shell/shell.c ****         for (short i = 0; i < 11; i++)
 4529              		.loc 1 1047 9 is_stmt 1 view .LVU1245
 4530 004e 1849     		ldr	r1, .L364+8
 4531 0050 2046     		mov	r0, r4
 4532 0052 FFF7FEFF 		bl	shellWriteString
 4533              	.LVL440:
1048:SYS/shell/shell.c ****         {
 4534              		.loc 1 1048 9 view .LVU1246
 4535              	.LBB34:
1048:SYS/shell/shell.c ****         {
 4536              		.loc 1 1048 14 view .LVU1247
1048:SYS/shell/shell.c ****         {
 4537              		.loc 1 1048 20 is_stmt 0 view .LVU1248
 4538 0056 0023     		movs	r3, #0
1048:SYS/shell/shell.c ****         {
 4539              		.loc 1 1048 9 view .LVU1249
 4540 0058 15E0     		b	.L360
 4541              	.LVL441:
 4542              	.L363:
1048:SYS/shell/shell.c ****         {
 4543              		.loc 1 1048 9 view .LVU1250
 4544              	.LBE34:
1037:SYS/shell/shell.c ****         shellWriteString(shell, (char *)value);
 4545              		.loc 1 1037 9 is_stmt 1 view .LVU1251
 4546 005a 164D     		ldr	r5, .L364+12
 4547              	.LVL442:
1037:SYS/shell/shell.c ****         shellWriteString(shell, (char *)value);
 4548              		.loc 1 1037 9 is_stmt 0 view .LVU1252
 4549 005c 2946     		mov	r1, r5
 4550 005e 2046     		mov	r0, r4
 4551 0060 FFF7FEFF 		bl	shellWriteString
 4552              	.LVL443:
1038:SYS/shell/shell.c ****         shellWriteString(shell, "\"");
 4553              		.loc 1 1038 9 is_stmt 1 view .LVU1253
 4554 0064 3146     		mov	r1, r6
 4555 0066 2046     		mov	r0, r4
ARM GAS  C:\Users\huav\AppData\Local\Temp\cc1GSGvG.s 			page 131


 4556 0068 FFF7FEFF 		bl	shellWriteString
 4557              	.LVL444:
1039:SYS/shell/shell.c ****         break;
 4558              		.loc 1 1039 9 view .LVU1254
 4559 006c 2946     		mov	r1, r5
 4560 006e 2046     		mov	r0, r4
 4561 0070 FFF7FEFF 		bl	shellWriteString
 4562              	.LVL445:
1040:SYS/shell/shell.c ****     // case SHELL_TYPE_VAR_INT:
 4563              		.loc 1 1040 9 view .LVU1255
 4564 0074 11E0     		b	.L359
 4565              	.LVL446:
 4566              	.L361:
 4567              	.LBB35:
1050:SYS/shell/shell.c ****         }
 4568              		.loc 1 1050 13 discriminator 3 view .LVU1256
1050:SYS/shell/shell.c ****         }
 4569              		.loc 1 1050 23 is_stmt 0 discriminator 3 view .LVU1257
 4570 0076 04AA     		add	r2, sp, #16
 4571 0078 1A44     		add	r2, r2, r3
 4572 007a 4FF0300C 		mov	ip, #48
 4573 007e 02F80CCC 		strb	ip, [r2, #-12]
1048:SYS/shell/shell.c ****         {
 4574              		.loc 1 1048 35 is_stmt 1 discriminator 3 view .LVU1258
1048:SYS/shell/shell.c ****         {
 4575              		.loc 1 1048 36 is_stmt 0 discriminator 3 view .LVU1259
 4576 0082 0133     		adds	r3, r3, #1
 4577              	.LVL447:
1048:SYS/shell/shell.c ****         {
 4578              		.loc 1 1048 36 discriminator 3 view .LVU1260
 4579 0084 1BB2     		sxth	r3, r3
 4580              	.LVL448:
 4581              	.L360:
1048:SYS/shell/shell.c ****         {
 4582              		.loc 1 1048 27 is_stmt 1 discriminator 1 view .LVU1261
1048:SYS/shell/shell.c ****         {
 4583              		.loc 1 1048 9 is_stmt 0 discriminator 1 view .LVU1262
 4584 0086 0A2B     		cmp	r3, #10
 4585 0088 F5DD     		ble	.L361
 4586              	.LBE35:
1052:SYS/shell/shell.c ****         shellWriteString(shell, buffer);
 4587              		.loc 1 1052 9 is_stmt 1 view .LVU1263
 4588 008a 01A9     		add	r1, sp, #4
 4589 008c 3046     		mov	r0, r6
 4590 008e FFF7FEFF 		bl	shellToHex
 4591              	.LVL449:
1053:SYS/shell/shell.c ****         break;
 4592              		.loc 1 1053 9 view .LVU1264
 4593 0092 01A9     		add	r1, sp, #4
 4594 0094 2046     		mov	r0, r4
 4595 0096 FFF7FEFF 		bl	shellWriteString
 4596              	.LVL450:
1054:SYS/shell/shell.c ****     }
 4597              		.loc 1 1054 9 view .LVU1265
 4598              	.L359:
1057:SYS/shell/shell.c ****     return value;
 4599              		.loc 1 1057 5 view .LVU1266
ARM GAS  C:\Users\huav\AppData\Local\Temp\cc1GSGvG.s 			page 132


 4600 009a 0749     		ldr	r1, .L364+16
 4601 009c 2046     		mov	r0, r4
 4602 009e FFF7FEFF 		bl	shellWriteString
 4603              	.LVL451:
1058:SYS/shell/shell.c **** }
 4604              		.loc 1 1058 5 view .LVU1267
1059:SYS/shell/shell.c **** 
 4605              		.loc 1 1059 1 is_stmt 0 view .LVU1268
 4606 00a2 3046     		mov	r0, r6
 4607 00a4 04B0     		add	sp, sp, #16
 4608              	.LCFI58:
 4609              		.cfi_def_cfa_offset 16
 4610              		@ sp needed
 4611 00a6 70BD     		pop	{r4, r5, r6, pc}
 4612              	.LVL452:
 4613              	.L365:
1059:SYS/shell/shell.c **** 
 4614              		.loc 1 1059 1 view .LVU1269
 4615              		.align	2
 4616              	.L364:
 4617 00a8 14000000 		.word	.LC8
 4618 00ac 00000000 		.word	.LC25
 4619 00b0 0C000000 		.word	.LC10
 4620 00b4 04000000 		.word	.LC26
 4621 00b8 04000000 		.word	.LC3
 4622              		.cfi_endproc
 4623              	.LFE157:
 4625              		.section	.rodata.shellSetVarValue.str1.4,"aMS",%progbits,1
 4626              		.align	2
 4627              	.LC27:
 4628 0000 63616E27 		.ascii	"can't set read only var\015\012\000"
 4628      74207365 
 4628      74207265 
 4628      6164206F 
 4628      6E6C7920 
 4629 001a 0000     		.align	2
 4630              	.LC28:
 4631 001c 63616E27 		.ascii	"can't set pointer\015\012\000"
 4631      74207365 
 4631      7420706F 
 4631      696E7465 
 4631      720D0A00 
 4632              		.section	.text.shellSetVarValue,"ax",%progbits
 4633              		.align	1
 4634              		.global	shellSetVarValue
 4635              		.syntax unified
 4636              		.thumb
 4637              		.thumb_func
 4638              		.fpu fpv4-sp-d16
 4640              	shellSetVarValue:
 4641              	.LVL453:
 4642              	.LFB156:
 974:SYS/shell/shell.c ****     if (command->attr.attrs.readOnly)
 4643              		.loc 1 974 1 is_stmt 1 view -0
 4644              		.cfi_startproc
 4645              		@ args = 0, pretend = 0, frame = 0
 4646              		@ frame_needed = 0, uses_anonymous_args = 0
ARM GAS  C:\Users\huav\AppData\Local\Temp\cc1GSGvG.s 			page 133


 974:SYS/shell/shell.c ****     if (command->attr.attrs.readOnly)
 4647              		.loc 1 974 1 is_stmt 0 view .LVU1271
 4648 0000 70B5     		push	{r4, r5, r6, lr}
 4649              	.LCFI59:
 4650              		.cfi_def_cfa_offset 16
 4651              		.cfi_offset 4, -16
 4652              		.cfi_offset 5, -12
 4653              		.cfi_offset 6, -8
 4654              		.cfi_offset 14, -4
 4655 0002 0546     		mov	r5, r0
 4656 0004 0C46     		mov	r4, r1
 975:SYS/shell/shell.c ****     {
 4657              		.loc 1 975 5 is_stmt 1 view .LVU1272
 975:SYS/shell/shell.c ****     {
 4658              		.loc 1 975 9 is_stmt 0 view .LVU1273
 4659 0006 4B78     		ldrb	r3, [r1, #1]	@ zero_extendqisi2
 975:SYS/shell/shell.c ****     {
 4660              		.loc 1 975 8 view .LVU1274
 4661 0008 13F0400F 		tst	r3, #64
 4662 000c 0AD1     		bne	.L378
 981:SYS/shell/shell.c ****         {
 4663              		.loc 1 981 9 is_stmt 1 view .LVU1275
 981:SYS/shell/shell.c ****         {
 4664              		.loc 1 981 36 is_stmt 0 view .LVU1276
 4665 000e 4B78     		ldrb	r3, [r1, #1]	@ zero_extendqisi2
 4666 0010 03F00F03 		and	r3, r3, #15
 4667 0014 023B     		subs	r3, r3, #2
 4668 0016 052B     		cmp	r3, #5
 4669 0018 07D8     		bhi	.L368
 4670 001a DFE803F0 		tbb	[pc, r3]
 4671              	.LVL454:
 4672              	.L370:
 4673 001e 0B       		.byte	(.L375-.L370)/2
 4674 001f 0E       		.byte	(.L374-.L370)/2
 4675 0020 11       		.byte	(.L373-.L370)/2
 4676 0021 14       		.byte	(.L372-.L370)/2
 4677 0022 19       		.byte	(.L371-.L370)/2
 4678 0023 1D       		.byte	(.L369-.L370)/2
 4679              		.p2align 1
 4680              	.L378:
 977:SYS/shell/shell.c ****     }
 4681              		.loc 1 977 9 is_stmt 1 view .LVU1277
 4682 0024 1249     		ldr	r1, .L379
 4683              	.LVL455:
 977:SYS/shell/shell.c ****     }
 4684              		.loc 1 977 9 is_stmt 0 view .LVU1278
 4685 0026 FFF7FEFF 		bl	shellWriteString
 4686              	.LVL456:
 4687              	.L368:
1016:SYS/shell/shell.c **** }
 4688              		.loc 1 1016 5 is_stmt 1 view .LVU1279
1016:SYS/shell/shell.c **** }
 4689              		.loc 1 1016 12 is_stmt 0 view .LVU1280
 4690 002a 2146     		mov	r1, r4
 4691 002c 2846     		mov	r0, r5
 4692 002e FFF7FEFF 		bl	shellShowVar
 4693              	.LVL457:
ARM GAS  C:\Users\huav\AppData\Local\Temp\cc1GSGvG.s 			page 134


1017:SYS/shell/shell.c **** 
 4694              		.loc 1 1017 1 view .LVU1281
 4695 0032 70BD     		pop	{r4, r5, r6, pc}
 4696              	.LVL458:
 4697              	.L375:
 984:SYS/shell/shell.c ****             break;
 4698              		.loc 1 984 13 is_stmt 1 view .LVU1282
 984:SYS/shell/shell.c ****             break;
 4699              		.loc 1 984 40 is_stmt 0 view .LVU1283
 4700 0034 A368     		ldr	r3, [r4, #8]
 984:SYS/shell/shell.c ****             break;
 4701              		.loc 1 984 49 view .LVU1284
 4702 0036 1A60     		str	r2, [r3]
 985:SYS/shell/shell.c ****         case SHELL_TYPE_VAR_SHORT:
 4703              		.loc 1 985 13 is_stmt 1 view .LVU1285
 4704 0038 F7E7     		b	.L368
 4705              	.L374:
 987:SYS/shell/shell.c ****             break;
 4706              		.loc 1 987 13 view .LVU1286
 987:SYS/shell/shell.c ****             break;
 4707              		.loc 1 987 42 is_stmt 0 view .LVU1287
 4708 003a A368     		ldr	r3, [r4, #8]
 987:SYS/shell/shell.c ****             break;
 4709              		.loc 1 987 51 view .LVU1288
 4710 003c 1A80     		strh	r2, [r3]	@ movhi
 988:SYS/shell/shell.c ****         case SHELL_TYPE_VAR_CHAR:
 4711              		.loc 1 988 13 is_stmt 1 view .LVU1289
 4712 003e F4E7     		b	.L368
 4713              	.L373:
 990:SYS/shell/shell.c ****             break;
 4714              		.loc 1 990 13 view .LVU1290
 990:SYS/shell/shell.c ****             break;
 4715              		.loc 1 990 41 is_stmt 0 view .LVU1291
 4716 0040 A368     		ldr	r3, [r4, #8]
 990:SYS/shell/shell.c ****             break;
 4717              		.loc 1 990 50 view .LVU1292
 4718 0042 1A70     		strb	r2, [r3]
 991:SYS/shell/shell.c ****         case SHELL_TYPE_VAR_STRING:
 4719              		.loc 1 991 13 is_stmt 1 view .LVU1293
 4720 0044 F1E7     		b	.L368
 4721              	.L372:
 993:SYS/shell/shell.c ****             break;
 4722              		.loc 1 993 13 view .LVU1294
 4723 0046 1146     		mov	r1, r2
 4724 0048 A068     		ldr	r0, [r4, #8]
 4725              	.LVL459:
 993:SYS/shell/shell.c ****             break;
 4726              		.loc 1 993 13 is_stmt 0 view .LVU1295
 4727 004a FFF7FEFF 		bl	shellStringCopy
 4728              	.LVL460:
 994:SYS/shell/shell.c ****         case SHELL_TYPE_VAR_POINT:
 4729              		.loc 1 994 13 is_stmt 1 view .LVU1296
 4730 004e ECE7     		b	.L368
 4731              	.LVL461:
 4732              	.L371:
 996:SYS/shell/shell.c ****             break;
 4733              		.loc 1 996 13 view .LVU1297
ARM GAS  C:\Users\huav\AppData\Local\Temp\cc1GSGvG.s 			page 135


 4734 0050 0849     		ldr	r1, .L379+4
 4735 0052 FFF7FEFF 		bl	shellWriteString
 4736              	.LVL462:
 997:SYS/shell/shell.c ****         case SHELL_TYPE_VAR_NODE:
 4737              		.loc 1 997 13 view .LVU1298
 4738 0056 E8E7     		b	.L368
 4739              	.LVL463:
 4740              	.L369:
 999:SYS/shell/shell.c ****             {
 4741              		.loc 1 999 13 view .LVU1299
 999:SYS/shell/shell.c ****             {
 4742              		.loc 1 999 55 is_stmt 0 view .LVU1300
 4743 0058 A368     		ldr	r3, [r4, #8]
 999:SYS/shell/shell.c ****             {
 4744              		.loc 1 999 62 view .LVU1301
 4745 005a 9E68     		ldr	r6, [r3, #8]
 999:SYS/shell/shell.c ****             {
 4746              		.loc 1 999 16 view .LVU1302
 4747 005c 002E     		cmp	r6, #0
 4748 005e E4D0     		beq	.L368
1001:SYS/shell/shell.c ****                 {
 4749              		.loc 1 1001 17 is_stmt 1 view .LVU1303
1001:SYS/shell/shell.c ****                 {
 4750              		.loc 1 1001 66 is_stmt 0 view .LVU1304
 4751 0060 1868     		ldr	r0, [r3]
 4752              	.LVL464:
1001:SYS/shell/shell.c ****                 {
 4753              		.loc 1 1001 20 view .LVU1305
 4754 0062 10B1     		cbz	r0, .L376
1003:SYS/shell/shell.c ****                         ->set(((ShellNodeVarAttr *)command->data.var.value)->var, value);
 4755              		.loc 1 1003 21 is_stmt 1 view .LVU1306
1003:SYS/shell/shell.c ****                         ->set(((ShellNodeVarAttr *)command->data.var.value)->var, value);
 4756              		.loc 1 1003 22 is_stmt 0 view .LVU1307
 4757 0064 1146     		mov	r1, r2
 4758 0066 B047     		blx	r6
 4759              	.LVL465:
1003:SYS/shell/shell.c ****                         ->set(((ShellNodeVarAttr *)command->data.var.value)->var, value);
 4760              		.loc 1 1003 22 view .LVU1308
 4761 0068 DFE7     		b	.L368
 4762              	.LVL466:
 4763              	.L376:
1008:SYS/shell/shell.c ****                 }
 4764              		.loc 1 1008 21 is_stmt 1 view .LVU1309
1008:SYS/shell/shell.c ****                 }
 4765              		.loc 1 1008 22 is_stmt 0 view .LVU1310
 4766 006a 1046     		mov	r0, r2
 4767 006c B047     		blx	r6
 4768              	.LVL467:
1008:SYS/shell/shell.c ****                 }
 4769              		.loc 1 1008 22 view .LVU1311
 4770 006e DCE7     		b	.L368
 4771              	.L380:
 4772              		.align	2
 4773              	.L379:
 4774 0070 00000000 		.word	.LC27
 4775 0074 1C000000 		.word	.LC28
 4776              		.cfi_endproc
ARM GAS  C:\Users\huav\AppData\Local\Temp\cc1GSGvG.s 			page 136


 4777              	.LFE156:
 4779              		.section	.rodata.shellSetVar.str1.4,"aMS",%progbits,1
 4780              		.align	2
 4781              	.LC29:
 4782 0000 56617220 		.ascii	"Var not Fount\015\012\000"
 4782      6E6F7420 
 4782      466F756E 
 4782      740D0A00 
 4783              		.align	2
 4784              	.LC30:
 4785 0010 20697320 		.ascii	" is not a var\015\012\000"
 4785      6E6F7420 
 4785      61207661 
 4785      720D0A00 
 4786              		.section	.text.shellSetVar,"ax",%progbits
 4787              		.align	1
 4788              		.global	shellSetVar
 4789              		.syntax unified
 4790              		.thumb
 4791              		.thumb_func
 4792              		.fpu fpv4-sp-d16
 4794              	shellSetVar:
 4795              	.LVL468:
 4796              	.LFB158:
1069:SYS/shell/shell.c ****     Shell *shell = shellGetCurrent();
 4797              		.loc 1 1069 1 is_stmt 1 view -0
 4798              		.cfi_startproc
 4799              		@ args = 0, pretend = 0, frame = 0
 4800              		@ frame_needed = 0, uses_anonymous_args = 0
1069:SYS/shell/shell.c ****     Shell *shell = shellGetCurrent();
 4801              		.loc 1 1069 1 is_stmt 0 view .LVU1313
 4802 0000 70B5     		push	{r4, r5, r6, lr}
 4803              	.LCFI60:
 4804              		.cfi_def_cfa_offset 16
 4805              		.cfi_offset 4, -16
 4806              		.cfi_offset 5, -12
 4807              		.cfi_offset 6, -8
 4808              		.cfi_offset 14, -4
 4809 0002 0446     		mov	r4, r0
 4810 0004 0D46     		mov	r5, r1
1070:SYS/shell/shell.c ****     if (shell == NULL)
 4811              		.loc 1 1070 5 is_stmt 1 view .LVU1314
1070:SYS/shell/shell.c ****     if (shell == NULL)
 4812              		.loc 1 1070 20 is_stmt 0 view .LVU1315
 4813 0006 FFF7FEFF 		bl	shellGetCurrent
 4814              	.LVL469:
1071:SYS/shell/shell.c ****     {
 4815              		.loc 1 1071 5 is_stmt 1 view .LVU1316
1071:SYS/shell/shell.c ****     {
 4816              		.loc 1 1071 8 is_stmt 0 view .LVU1317
 4817 000a 20B3     		cbz	r0, .L385
 4818 000c 0646     		mov	r6, r0
1075:SYS/shell/shell.c ****                                              name,
 4819              		.loc 1 1075 5 is_stmt 1 view .LVU1318
1075:SYS/shell/shell.c ****                                              name,
 4820              		.loc 1 1075 29 is_stmt 0 view .LVU1319
 4821 000e 0023     		movs	r3, #0
ARM GAS  C:\Users\huav\AppData\Local\Temp\cc1GSGvG.s 			page 137


 4822 0010 826D     		ldr	r2, [r0, #88]
 4823 0012 2146     		mov	r1, r4
 4824 0014 FFF7FEFF 		bl	shellSeekCommand
 4825              	.LVL470:
1079:SYS/shell/shell.c ****     {
 4826              		.loc 1 1079 5 is_stmt 1 view .LVU1320
1079:SYS/shell/shell.c ****     {
 4827              		.loc 1 1079 8 is_stmt 0 view .LVU1321
 4828 0018 0146     		mov	r1, r0
 4829 001a 60B1     		cbz	r0, .L387
1084:SYS/shell/shell.c ****     {
 4830              		.loc 1 1084 5 is_stmt 1 view .LVU1322
1084:SYS/shell/shell.c ****     {
 4831              		.loc 1 1084 28 is_stmt 0 view .LVU1323
 4832 001c 4378     		ldrb	r3, [r0, #1]	@ zero_extendqisi2
 4833 001e 03F00F03 		and	r3, r3, #15
1084:SYS/shell/shell.c ****     {
 4834              		.loc 1 1084 55 view .LVU1324
 4835 0022 0E33     		adds	r3, r3, #14
 4836 0024 03F00F03 		and	r3, r3, #15
1084:SYS/shell/shell.c ****     {
 4837              		.loc 1 1084 8 view .LVU1325
 4838 0028 052B     		cmp	r3, #5
 4839 002a 0AD8     		bhi	.L388
1090:SYS/shell/shell.c **** }
 4840              		.loc 1 1090 5 is_stmt 1 view .LVU1326
1090:SYS/shell/shell.c **** }
 4841              		.loc 1 1090 12 is_stmt 0 view .LVU1327
 4842 002c 2A46     		mov	r2, r5
 4843 002e 3046     		mov	r0, r6
 4844              	.LVL471:
1090:SYS/shell/shell.c **** }
 4845              		.loc 1 1090 12 view .LVU1328
 4846 0030 FFF7FEFF 		bl	shellSetVarValue
 4847              	.LVL472:
 4848              	.L381:
1091:SYS/shell/shell.c **** SHELL_EXPORT_CMD(
 4849              		.loc 1 1091 1 view .LVU1329
 4850 0034 70BD     		pop	{r4, r5, r6, pc}
 4851              	.LVL473:
 4852              	.L387:
1081:SYS/shell/shell.c ****         return 0;
 4853              		.loc 1 1081 9 is_stmt 1 view .LVU1330
 4854 0036 0949     		ldr	r1, .L389
 4855 0038 3046     		mov	r0, r6
 4856              	.LVL474:
1081:SYS/shell/shell.c ****         return 0;
 4857              		.loc 1 1081 9 is_stmt 0 view .LVU1331
 4858 003a FFF7FEFF 		bl	shellWriteString
 4859              	.LVL475:
1082:SYS/shell/shell.c ****     }
 4860              		.loc 1 1082 9 is_stmt 1 view .LVU1332
1082:SYS/shell/shell.c ****     }
 4861              		.loc 1 1082 16 is_stmt 0 view .LVU1333
 4862 003e 0020     		movs	r0, #0
 4863 0040 F8E7     		b	.L381
 4864              	.LVL476:
ARM GAS  C:\Users\huav\AppData\Local\Temp\cc1GSGvG.s 			page 138


 4865              	.L388:
1086:SYS/shell/shell.c ****         shellWriteString(shell, shellText[SHELL_TEXT_NOT_VAR]);
 4866              		.loc 1 1086 9 is_stmt 1 view .LVU1334
 4867 0042 2146     		mov	r1, r4
 4868 0044 3046     		mov	r0, r6
 4869              	.LVL477:
1086:SYS/shell/shell.c ****         shellWriteString(shell, shellText[SHELL_TEXT_NOT_VAR]);
 4870              		.loc 1 1086 9 is_stmt 0 view .LVU1335
 4871 0046 FFF7FEFF 		bl	shellWriteString
 4872              	.LVL478:
1087:SYS/shell/shell.c ****         return 0;
 4873              		.loc 1 1087 9 is_stmt 1 view .LVU1336
 4874 004a 0549     		ldr	r1, .L389+4
 4875 004c 3046     		mov	r0, r6
 4876 004e FFF7FEFF 		bl	shellWriteString
 4877              	.LVL479:
1088:SYS/shell/shell.c ****     }
 4878              		.loc 1 1088 9 view .LVU1337
1088:SYS/shell/shell.c ****     }
 4879              		.loc 1 1088 16 is_stmt 0 view .LVU1338
 4880 0052 0020     		movs	r0, #0
 4881 0054 EEE7     		b	.L381
 4882              	.LVL480:
 4883              	.L385:
1073:SYS/shell/shell.c ****     }
 4884              		.loc 1 1073 16 view .LVU1339
 4885 0056 0020     		movs	r0, #0
 4886              	.LVL481:
1073:SYS/shell/shell.c ****     }
 4887              		.loc 1 1073 16 view .LVU1340
 4888 0058 ECE7     		b	.L381
 4889              	.L390:
 4890 005a 00BF     		.align	2
 4891              	.L389:
 4892 005c 00000000 		.word	.LC29
 4893 0060 10000000 		.word	.LC30
 4894              		.cfi_endproc
 4895              	.LFE158:
 4897              		.section	.text.shellRunCommand,"ax",%progbits
 4898              		.align	1
 4899              		.global	shellRunCommand
 4900              		.syntax unified
 4901              		.thumb
 4902              		.thumb_func
 4903              		.fpu fpv4-sp-d16
 4905              	shellRunCommand:
 4906              	.LVL482:
 4907              	.LFB159:
1105:SYS/shell/shell.c ****     int returnValue = 0;
 4908              		.loc 1 1105 1 is_stmt 1 view -0
 4909              		.cfi_startproc
 4910              		@ args = 0, pretend = 0, frame = 0
 4911              		@ frame_needed = 0, uses_anonymous_args = 0
1105:SYS/shell/shell.c ****     int returnValue = 0;
 4912              		.loc 1 1105 1 is_stmt 0 view .LVU1342
 4913 0000 70B5     		push	{r4, r5, r6, lr}
 4914              	.LCFI61:
ARM GAS  C:\Users\huav\AppData\Local\Temp\cc1GSGvG.s 			page 139


 4915              		.cfi_def_cfa_offset 16
 4916              		.cfi_offset 4, -16
 4917              		.cfi_offset 5, -12
 4918              		.cfi_offset 6, -8
 4919              		.cfi_offset 14, -4
 4920 0002 0446     		mov	r4, r0
 4921 0004 0D46     		mov	r5, r1
1106:SYS/shell/shell.c ****     shell->status.isActive = 1;
 4922              		.loc 1 1106 5 is_stmt 1 view .LVU1343
 4923              	.LVL483:
1107:SYS/shell/shell.c ****     if (command->attr.attrs.type == SHELL_TYPE_CMD_MAIN)
 4924              		.loc 1 1107 5 view .LVU1344
1107:SYS/shell/shell.c ****     if (command->attr.attrs.type == SHELL_TYPE_CMD_MAIN)
 4925              		.loc 1 1107 28 is_stmt 0 view .LVU1345
 4926 0006 90F86030 		ldrb	r3, [r0, #96]	@ zero_extendqisi2
 4927 000a 43F00203 		orr	r3, r3, #2
 4928 000e 80F86030 		strb	r3, [r0, #96]
1108:SYS/shell/shell.c ****     {
 4929              		.loc 1 1108 5 is_stmt 1 view .LVU1346
1108:SYS/shell/shell.c ****     {
 4930              		.loc 1 1108 34 is_stmt 0 view .LVU1347
 4931 0012 4B78     		ldrb	r3, [r1, #1]	@ zero_extendqisi2
1108:SYS/shell/shell.c ****     {
 4932              		.loc 1 1108 8 view .LVU1348
 4933 0014 13F00F03 		ands	r3, r3, #15
 4934 0018 14D0     		beq	.L398
1118:SYS/shell/shell.c ****     {
 4935              		.loc 1 1118 10 is_stmt 1 view .LVU1349
1118:SYS/shell/shell.c ****     {
 4936              		.loc 1 1118 13 is_stmt 0 view .LVU1350
 4937 001a 012B     		cmp	r3, #1
 4938 001c 23D0     		beq	.L399
1129:SYS/shell/shell.c ****     {
 4939              		.loc 1 1129 10 is_stmt 1 view .LVU1351
1129:SYS/shell/shell.c ****     {
 4940              		.loc 1 1129 33 is_stmt 0 view .LVU1352
 4941 001e 4A78     		ldrb	r2, [r1, #1]	@ zero_extendqisi2
 4942 0020 02F00F02 		and	r2, r2, #15
1129:SYS/shell/shell.c ****     {
 4943              		.loc 1 1129 61 view .LVU1353
 4944 0024 0E32     		adds	r2, r2, #14
 4945 0026 02F00F02 		and	r2, r2, #15
1129:SYS/shell/shell.c ****     {
 4946              		.loc 1 1129 13 view .LVU1354
 4947 002a 052A     		cmp	r2, #5
 4948 002c 2AD9     		bls	.L400
1133:SYS/shell/shell.c ****     {
 4949              		.loc 1 1133 10 is_stmt 1 view .LVU1355
1133:SYS/shell/shell.c ****     {
 4950              		.loc 1 1133 13 is_stmt 0 view .LVU1356
 4951 002e 082B     		cmp	r3, #8
 4952 0030 2CD0     		beq	.L401
1106:SYS/shell/shell.c ****     shell->status.isActive = 1;
 4953              		.loc 1 1106 9 view .LVU1357
 4954 0032 0026     		movs	r6, #0
 4955              	.LVL484:
 4956              	.L393:
ARM GAS  C:\Users\huav\AppData\Local\Temp\cc1GSGvG.s 			page 140


1137:SYS/shell/shell.c **** 
 4957              		.loc 1 1137 5 is_stmt 1 view .LVU1358
1137:SYS/shell/shell.c **** 
 4958              		.loc 1 1137 28 is_stmt 0 view .LVU1359
 4959 0034 94F86030 		ldrb	r3, [r4, #96]	@ zero_extendqisi2
 4960 0038 6FF34103 		bfc	r3, #1, #1
 4961 003c 84F86030 		strb	r3, [r4, #96]
1139:SYS/shell/shell.c **** }
 4962              		.loc 1 1139 5 is_stmt 1 view .LVU1360
1140:SYS/shell/shell.c **** 
 4963              		.loc 1 1140 1 is_stmt 0 view .LVU1361
 4964 0040 3046     		mov	r0, r6
 4965 0042 70BD     		pop	{r4, r5, r6, pc}
 4966              	.LVL485:
 4967              	.L398:
1110:SYS/shell/shell.c ****         returnValue = command->data.cmd.function(shell->parser.paramCount,
 4968              		.loc 1 1110 9 is_stmt 1 view .LVU1362
 4969 0044 FFF7FEFF 		bl	shellRemoveParamQuotes
 4970              	.LVL486:
1111:SYS/shell/shell.c ****                                                  shell->parser.param);
 4971              		.loc 1 1111 9 view .LVU1363
1111:SYS/shell/shell.c ****                                                  shell->parser.param);
 4972              		.loc 1 1111 40 is_stmt 0 view .LVU1364
 4973 0048 AB68     		ldr	r3, [r5, #8]
1111:SYS/shell/shell.c ****                                                  shell->parser.param);
 4974              		.loc 1 1111 23 view .LVU1365
 4975 004a 04F11401 		add	r1, r4, #20
 4976 004e E08E     		ldrh	r0, [r4, #54]
 4977 0050 9847     		blx	r3
 4978              	.LVL487:
 4979 0052 0646     		mov	r6, r0
 4980              	.LVL488:
1113:SYS/shell/shell.c ****         {
 4981              		.loc 1 1113 9 is_stmt 1 view .LVU1366
1113:SYS/shell/shell.c ****         {
 4982              		.loc 1 1113 13 is_stmt 0 view .LVU1367
 4983 0054 6B78     		ldrb	r3, [r5, #1]	@ zero_extendqisi2
1113:SYS/shell/shell.c ****         {
 4984              		.loc 1 1113 12 view .LVU1368
 4985 0056 13F0200F 		tst	r3, #32
 4986 005a EBD1     		bne	.L393
1115:SYS/shell/shell.c ****         }
 4987              		.loc 1 1115 13 is_stmt 1 view .LVU1369
 4988 005c 0146     		mov	r1, r0
 4989 005e 2046     		mov	r0, r4
 4990              	.LVL489:
1115:SYS/shell/shell.c ****         }
 4991              		.loc 1 1115 13 is_stmt 0 view .LVU1370
 4992 0060 FFF7FEFF 		bl	shellWriteReturnValue
 4993              	.LVL490:
1115:SYS/shell/shell.c ****         }
 4994              		.loc 1 1115 13 view .LVU1371
 4995 0064 E6E7     		b	.L393
 4996              	.LVL491:
 4997              	.L399:
1120:SYS/shell/shell.c ****                                   command,
 4998              		.loc 1 1120 9 is_stmt 1 view .LVU1372
ARM GAS  C:\Users\huav\AppData\Local\Temp\cc1GSGvG.s 			page 141


1120:SYS/shell/shell.c ****                                   command,
 4999              		.loc 1 1120 23 is_stmt 0 view .LVU1373
 5000 0066 00F11403 		add	r3, r0, #20
 5001 006a C28E     		ldrh	r2, [r0, #54]
 5002 006c FFF7FEFF 		bl	shellExtRun
 5003              	.LVL492:
1120:SYS/shell/shell.c ****                                   command,
 5004              		.loc 1 1120 23 view .LVU1374
 5005 0070 0646     		mov	r6, r0
 5006              	.LVL493:
1124:SYS/shell/shell.c ****         {
 5007              		.loc 1 1124 9 is_stmt 1 view .LVU1375
1124:SYS/shell/shell.c ****         {
 5008              		.loc 1 1124 13 is_stmt 0 view .LVU1376
 5009 0072 6B78     		ldrb	r3, [r5, #1]	@ zero_extendqisi2
1124:SYS/shell/shell.c ****         {
 5010              		.loc 1 1124 12 view .LVU1377
 5011 0074 13F0200F 		tst	r3, #32
 5012 0078 DCD1     		bne	.L393
1126:SYS/shell/shell.c ****         }
 5013              		.loc 1 1126 13 is_stmt 1 view .LVU1378
 5014 007a 0146     		mov	r1, r0
 5015 007c 2046     		mov	r0, r4
 5016              	.LVL494:
1126:SYS/shell/shell.c ****         }
 5017              		.loc 1 1126 13 is_stmt 0 view .LVU1379
 5018 007e FFF7FEFF 		bl	shellWriteReturnValue
 5019              	.LVL495:
1126:SYS/shell/shell.c ****         }
 5020              		.loc 1 1126 13 view .LVU1380
 5021 0082 D7E7     		b	.L393
 5022              	.LVL496:
 5023              	.L400:
1131:SYS/shell/shell.c ****     }
 5024              		.loc 1 1131 9 is_stmt 1 view .LVU1381
 5025 0084 FFF7FEFF 		bl	shellShowVar
 5026              	.LVL497:
1106:SYS/shell/shell.c ****     shell->status.isActive = 1;
 5027              		.loc 1 1106 9 is_stmt 0 view .LVU1382
 5028 0088 0026     		movs	r6, #0
 5029 008a D3E7     		b	.L393
 5030              	.LVL498:
 5031              	.L401:
1135:SYS/shell/shell.c ****     }
 5032              		.loc 1 1135 9 is_stmt 1 view .LVU1383
 5033 008c FFF7FEFF 		bl	shellSetUser
 5034              	.LVL499:
1106:SYS/shell/shell.c ****     shell->status.isActive = 1;
 5035              		.loc 1 1106 9 is_stmt 0 view .LVU1384
 5036 0090 0026     		movs	r6, #0
 5037 0092 CFE7     		b	.L393
 5038              		.cfi_endproc
 5039              	.LFE159:
 5041              		.section	.text.shellNormalInput,"ax",%progbits
 5042              		.align	1
 5043              		.global	shellNormalInput
 5044              		.syntax unified
ARM GAS  C:\Users\huav\AppData\Local\Temp\cc1GSGvG.s 			page 142


 5045              		.thumb
 5046              		.thumb_func
 5047              		.fpu fpv4-sp-d16
 5049              	shellNormalInput:
 5050              	.LVL500:
 5051              	.LFB165:
1292:SYS/shell/shell.c ****     shell->status.tabFlag = 0;
 5052              		.loc 1 1292 1 is_stmt 1 view -0
 5053              		.cfi_startproc
 5054              		@ args = 0, pretend = 0, frame = 0
 5055              		@ frame_needed = 0, uses_anonymous_args = 0
1292:SYS/shell/shell.c ****     shell->status.tabFlag = 0;
 5056              		.loc 1 1292 1 is_stmt 0 view .LVU1386
 5057 0000 08B5     		push	{r3, lr}
 5058              	.LCFI62:
 5059              		.cfi_def_cfa_offset 8
 5060              		.cfi_offset 3, -8
 5061              		.cfi_offset 14, -4
1293:SYS/shell/shell.c ****     shellInsertByte(shell, data);
 5062              		.loc 1 1293 5 is_stmt 1 view .LVU1387
1293:SYS/shell/shell.c ****     shellInsertByte(shell, data);
 5063              		.loc 1 1293 27 is_stmt 0 view .LVU1388
 5064 0002 90F86020 		ldrb	r2, [r0, #96]	@ zero_extendqisi2
 5065 0006 6FF38202 		bfc	r2, #2, #1
 5066 000a 80F86020 		strb	r2, [r0, #96]
1294:SYS/shell/shell.c **** }
 5067              		.loc 1 1294 5 is_stmt 1 view .LVU1389
 5068 000e FFF7FEFF 		bl	shellInsertByte
 5069              	.LVL501:
1295:SYS/shell/shell.c **** 
 5070              		.loc 1 1295 1 is_stmt 0 view .LVU1390
 5071 0012 08BD     		pop	{r3, pc}
 5072              		.cfi_endproc
 5073              	.LFE165:
 5075              		.section	.text.shellExec,"ax",%progbits
 5076              		.align	1
 5077              		.global	shellExec
 5078              		.syntax unified
 5079              		.thumb
 5080              		.thumb_func
 5081              		.fpu fpv4-sp-d16
 5083              	shellExec:
 5084              	.LVL502:
 5085              	.LFB166:
1303:SYS/shell/shell.c **** 
 5086              		.loc 1 1303 1 is_stmt 1 view -0
 5087              		.cfi_startproc
 5088              		@ args = 0, pretend = 0, frame = 0
 5089              		@ frame_needed = 0, uses_anonymous_args = 0
1305:SYS/shell/shell.c ****     {
 5090              		.loc 1 1305 5 view .LVU1392
1305:SYS/shell/shell.c ****     {
 5091              		.loc 1 1305 22 is_stmt 0 view .LVU1393
 5092 0000 8389     		ldrh	r3, [r0, #12]
1305:SYS/shell/shell.c ****     {
 5093              		.loc 1 1305 8 view .LVU1394
 5094 0002 5BB3     		cbz	r3, .L409
ARM GAS  C:\Users\huav\AppData\Local\Temp\cc1GSGvG.s 			page 143


1303:SYS/shell/shell.c **** 
 5095              		.loc 1 1303 1 view .LVU1395
 5096 0004 10B5     		push	{r4, lr}
 5097              	.LCFI63:
 5098              		.cfi_def_cfa_offset 8
 5099              		.cfi_offset 4, -8
 5100              		.cfi_offset 14, -4
 5101 0006 0446     		mov	r4, r0
1310:SYS/shell/shell.c **** 
 5102              		.loc 1 1310 5 is_stmt 1 view .LVU1396
1310:SYS/shell/shell.c **** 
 5103              		.loc 1 1310 18 is_stmt 0 view .LVU1397
 5104 0008 0269     		ldr	r2, [r0, #16]
1310:SYS/shell/shell.c **** 
 5105              		.loc 1 1310 48 view .LVU1398
 5106 000a 0021     		movs	r1, #0
 5107 000c D154     		strb	r1, [r2, r3]
1312:SYS/shell/shell.c ****     {
 5108              		.loc 1 1312 5 is_stmt 1 view .LVU1399
1312:SYS/shell/shell.c ****     {
 5109              		.loc 1 1312 9 is_stmt 0 view .LVU1400
 5110 000e 90F86030 		ldrb	r3, [r0, #96]	@ zero_extendqisi2
1312:SYS/shell/shell.c ****     {
 5111              		.loc 1 1312 8 view .LVU1401
 5112 0012 13F0010F 		tst	r3, #1
 5113 0016 1ED0     		beq	.L406
 5114              	.LBB36:
1314:SYS/shell/shell.c ****         shellParserParam(shell);
 5115              		.loc 1 1314 9 is_stmt 1 view .LVU1402
 5116 0018 FFF7FEFF 		bl	shellHistoryAdd
 5117              	.LVL503:
1315:SYS/shell/shell.c ****         shell->parser.length = shell->parser.cursor = 0;
 5118              		.loc 1 1315 9 view .LVU1403
 5119 001c 2046     		mov	r0, r4
 5120 001e FFF7FEFF 		bl	shellParserParam
 5121              	.LVL504:
1316:SYS/shell/shell.c ****         if (shell->parser.paramCount == 0)
 5122              		.loc 1 1316 9 view .LVU1404
1316:SYS/shell/shell.c ****         if (shell->parser.paramCount == 0)
 5123              		.loc 1 1316 53 is_stmt 0 view .LVU1405
 5124 0022 0023     		movs	r3, #0
 5125 0024 E381     		strh	r3, [r4, #14]	@ movhi
1316:SYS/shell/shell.c ****         if (shell->parser.paramCount == 0)
 5126              		.loc 1 1316 30 view .LVU1406
 5127 0026 A381     		strh	r3, [r4, #12]	@ movhi
1317:SYS/shell/shell.c ****         {
 5128              		.loc 1 1317 9 is_stmt 1 view .LVU1407
1317:SYS/shell/shell.c ****         {
 5129              		.loc 1 1317 26 is_stmt 0 view .LVU1408
 5130 0028 E38E     		ldrh	r3, [r4, #54]
1317:SYS/shell/shell.c ****         {
 5131              		.loc 1 1317 12 view .LVU1409
 5132 002a B3B1     		cbz	r3, .L404
1321:SYS/shell/shell.c **** 
 5133              		.loc 1 1321 9 is_stmt 1 view .LVU1410
 5134 002c 0C49     		ldr	r1, .L412
 5135 002e 2046     		mov	r0, r4
ARM GAS  C:\Users\huav\AppData\Local\Temp\cc1GSGvG.s 			page 144


 5136 0030 FFF7FEFF 		bl	shellWriteString
 5137              	.LVL505:
1323:SYS/shell/shell.c ****                                                  shell->parser.param[0],
 5138              		.loc 1 1323 9 view .LVU1411
1323:SYS/shell/shell.c ****                                                  shell->parser.param[0],
 5139              		.loc 1 1323 33 is_stmt 0 view .LVU1412
 5140 0034 0023     		movs	r3, #0
 5141 0036 A26D     		ldr	r2, [r4, #88]
 5142 0038 6169     		ldr	r1, [r4, #20]
 5143 003a 2046     		mov	r0, r4
 5144 003c FFF7FEFF 		bl	shellSeekCommand
 5145              	.LVL506:
1327:SYS/shell/shell.c ****         {
 5146              		.loc 1 1327 9 is_stmt 1 view .LVU1413
1327:SYS/shell/shell.c ****         {
 5147              		.loc 1 1327 12 is_stmt 0 view .LVU1414
 5148 0040 0146     		mov	r1, r0
 5149 0042 18B1     		cbz	r0, .L407
1329:SYS/shell/shell.c ****         }
 5150              		.loc 1 1329 13 is_stmt 1 view .LVU1415
 5151 0044 2046     		mov	r0, r4
 5152              	.LVL507:
1329:SYS/shell/shell.c ****         }
 5153              		.loc 1 1329 13 is_stmt 0 view .LVU1416
 5154 0046 FFF7FEFF 		bl	shellRunCommand
 5155              	.LVL508:
1329:SYS/shell/shell.c ****         }
 5156              		.loc 1 1329 13 view .LVU1417
 5157 004a 06E0     		b	.L404
 5158              	.LVL509:
 5159              	.L407:
1333:SYS/shell/shell.c ****         }
 5160              		.loc 1 1333 13 is_stmt 1 view .LVU1418
 5161 004c 0549     		ldr	r1, .L412+4
 5162 004e 2046     		mov	r0, r4
 5163              	.LVL510:
1333:SYS/shell/shell.c ****         }
 5164              		.loc 1 1333 13 is_stmt 0 view .LVU1419
 5165 0050 FFF7FEFF 		bl	shellWriteString
 5166              	.LVL511:
 5167 0054 01E0     		b	.L404
 5168              	.LVL512:
 5169              	.L406:
1333:SYS/shell/shell.c ****         }
 5170              		.loc 1 1333 13 view .LVU1420
 5171              	.LBE36:
1338:SYS/shell/shell.c ****     }
 5172              		.loc 1 1338 9 is_stmt 1 view .LVU1421
 5173 0056 FFF7FEFF 		bl	shellCheckPassword
 5174              	.LVL513:
 5175              	.L404:
1340:SYS/shell/shell.c **** 
 5176              		.loc 1 1340 1 is_stmt 0 view .LVU1422
 5177 005a 10BD     		pop	{r4, pc}
 5178              	.LVL514:
 5179              	.L409:
 5180              	.LCFI64:
ARM GAS  C:\Users\huav\AppData\Local\Temp\cc1GSGvG.s 			page 145


 5181              		.cfi_def_cfa_offset 0
 5182              		.cfi_restore 4
 5183              		.cfi_restore 14
1340:SYS/shell/shell.c **** 
 5184              		.loc 1 1340 1 view .LVU1423
 5185 005c 7047     		bx	lr
 5186              	.L413:
 5187 005e 00BF     		.align	2
 5188              	.L412:
 5189 0060 04000000 		.word	.LC3
 5190 0064 14000000 		.word	.LC24
 5191              		.cfi_endproc
 5192              	.LFE166:
 5194              		.section	.text.shellEnter,"ax",%progbits
 5195              		.align	1
 5196              		.global	shellEnter
 5197              		.syntax unified
 5198              		.thumb
 5199              		.thumb_func
 5200              		.fpu fpv4-sp-d16
 5202              	shellEnter:
 5203              	.LVL515:
 5204              	.LFB174:
1517:SYS/shell/shell.c ****     shellExec(shell);
 5205              		.loc 1 1517 1 is_stmt 1 view -0
 5206              		.cfi_startproc
 5207              		@ args = 0, pretend = 0, frame = 0
 5208              		@ frame_needed = 0, uses_anonymous_args = 0
1517:SYS/shell/shell.c ****     shellExec(shell);
 5209              		.loc 1 1517 1 is_stmt 0 view .LVU1425
 5210 0000 10B5     		push	{r4, lr}
 5211              	.LCFI65:
 5212              		.cfi_def_cfa_offset 8
 5213              		.cfi_offset 4, -8
 5214              		.cfi_offset 14, -4
 5215 0002 0446     		mov	r4, r0
1518:SYS/shell/shell.c ****     shellWriteCommandLine(shell, 1);
 5216              		.loc 1 1518 5 is_stmt 1 view .LVU1426
 5217 0004 FFF7FEFF 		bl	shellExec
 5218              	.LVL516:
1519:SYS/shell/shell.c **** }
 5219              		.loc 1 1519 5 view .LVU1427
 5220 0008 0121     		movs	r1, #1
 5221 000a 2046     		mov	r0, r4
 5222 000c FFF7FEFF 		bl	shellWriteCommandLine
 5223              	.LVL517:
1520:SYS/shell/shell.c **** #if SHELL_ENTER_LF == 1
 5224              		.loc 1 1520 1 is_stmt 0 view .LVU1428
 5225 0010 10BD     		pop	{r4, pc}
1520:SYS/shell/shell.c **** #if SHELL_ENTER_LF == 1
 5226              		.loc 1 1520 1 view .LVU1429
 5227              		.cfi_endproc
 5228              	.LFE174:
 5230              		.section	.text.shellHandler,"ax",%progbits
 5231              		.align	1
 5232              		.global	shellHandler
 5233              		.syntax unified
ARM GAS  C:\Users\huav\AppData\Local\Temp\cc1GSGvG.s 			page 146


 5234              		.thumb
 5235              		.thumb_func
 5236              		.fpu fpv4-sp-d16
 5238              	shellHandler:
 5239              	.LVL518:
 5240              	.LFB176:
1579:SYS/shell/shell.c ****     SHELL_ASSERT(data, return );
 5241              		.loc 1 1579 1 is_stmt 1 view -0
 5242              		.cfi_startproc
 5243              		@ args = 0, pretend = 0, frame = 0
 5244              		@ frame_needed = 0, uses_anonymous_args = 0
1580:SYS/shell/shell.c **** 
 5245              		.loc 1 1580 5 view .LVU1431
 5246 0000 0029     		cmp	r1, #0
 5247 0002 65D0     		beq	.L429
1579:SYS/shell/shell.c ****     SHELL_ASSERT(data, return );
 5248              		.loc 1 1579 1 is_stmt 0 discriminator 2 view .LVU1432
 5249 0004 2DE9F047 		push	{r4, r5, r6, r7, r8, r9, r10, lr}
 5250              	.LCFI66:
 5251              		.cfi_def_cfa_offset 32
 5252              		.cfi_offset 4, -32
 5253              		.cfi_offset 5, -28
 5254              		.cfi_offset 6, -24
 5255              		.cfi_offset 7, -20
 5256              		.cfi_offset 8, -16
 5257              		.cfi_offset 9, -12
 5258              		.cfi_offset 10, -8
 5259              		.cfi_offset 14, -4
 5260 0008 0646     		mov	r6, r0
 5261 000a 8A46     		mov	r10, r1
1580:SYS/shell/shell.c **** 
 5262              		.loc 1 1580 32 is_stmt 1 discriminator 2 view .LVU1433
1593:SYS/shell/shell.c ****     int keyFilter = 0x00000000;
 5263              		.loc 1 1593 5 discriminator 2 view .LVU1434
 5264              	.LVL519:
1594:SYS/shell/shell.c ****     if ((shell->parser.keyValue & 0x0000FF00) != 0x00000000)
 5265              		.loc 1 1594 5 discriminator 2 view .LVU1435
1595:SYS/shell/shell.c ****     {
 5266              		.loc 1 1595 5 discriminator 2 view .LVU1436
1595:SYS/shell/shell.c ****     {
 5267              		.loc 1 1595 23 is_stmt 0 discriminator 2 view .LVU1437
 5268 000c 836B     		ldr	r3, [r0, #56]
1595:SYS/shell/shell.c ****     {
 5269              		.loc 1 1595 8 discriminator 2 view .LVU1438
 5270 000e 13F47F4F 		tst	r3, #65280
 5271 0012 08D1     		bne	.L424
1600:SYS/shell/shell.c ****     {
 5272              		.loc 1 1600 10 is_stmt 1 view .LVU1439
1600:SYS/shell/shell.c ****     {
 5273              		.loc 1 1600 13 is_stmt 0 view .LVU1440
 5274 0014 13F47F09 		ands	r9, r3, #16711680
 5275 0018 0AD1     		bne	.L425
1605:SYS/shell/shell.c ****     {
 5276              		.loc 1 1605 10 is_stmt 1 view .LVU1441
1605:SYS/shell/shell.c ****     {
 5277              		.loc 1 1605 13 is_stmt 0 view .LVU1442
 5278 001a 13F07F4F 		tst	r3, #-16777216
ARM GAS  C:\Users\huav\AppData\Local\Temp\cc1GSGvG.s 			page 147


 5279 001e 0ED1     		bne	.L426
1593:SYS/shell/shell.c ****     int keyFilter = 0x00000000;
 5280              		.loc 1 1593 10 view .LVU1443
 5281 0020 4FF01808 		mov	r8, #24
 5282 0024 08E0     		b	.L418
 5283              	.L424:
1598:SYS/shell/shell.c ****     }
 5284              		.loc 1 1598 19 view .LVU1444
 5285 0026 6FF0FF09 		mvn	r9, #255
1597:SYS/shell/shell.c ****         keyFilter = 0xFFFFFF00;
 5286              		.loc 1 1597 23 view .LVU1445
 5287 002a 4FF00008 		mov	r8, #0
 5288 002e 03E0     		b	.L418
 5289              	.L425:
1603:SYS/shell/shell.c ****     }
 5290              		.loc 1 1603 19 view .LVU1446
 5291 0030 DFF8A090 		ldr	r9, .L434
1602:SYS/shell/shell.c ****         keyFilter = 0xFFFF0000;
 5292              		.loc 1 1602 23 view .LVU1447
 5293 0034 4FF00808 		mov	r8, #8
 5294              	.L418:
 5295              	.LVL520:
1612:SYS/shell/shell.c ****     for (short i = 0; i < shell->commandList.count; i++)
 5296              		.loc 1 1612 5 is_stmt 1 view .LVU1448
1612:SYS/shell/shell.c ****     for (short i = 0; i < shell->commandList.count; i++)
 5297              		.loc 1 1612 19 is_stmt 0 view .LVU1449
 5298 0038 B76D     		ldr	r7, [r6, #88]
 5299              	.LVL521:
1613:SYS/shell/shell.c ****     {
 5300              		.loc 1 1613 5 is_stmt 1 view .LVU1450
 5301              	.LBB37:
1613:SYS/shell/shell.c ****     {
 5302              		.loc 1 1613 10 view .LVU1451
1613:SYS/shell/shell.c ****     {
 5303              		.loc 1 1613 16 is_stmt 0 view .LVU1452
 5304 003a 0024     		movs	r4, #0
1613:SYS/shell/shell.c ****     {
 5305              		.loc 1 1613 5 view .LVU1453
 5306 003c 0DE0     		b	.L419
 5307              	.LVL522:
 5308              	.L426:
1613:SYS/shell/shell.c ****     {
 5309              		.loc 1 1613 5 view .LVU1454
 5310              	.LBE37:
1608:SYS/shell/shell.c ****     }
 5311              		.loc 1 1608 19 view .LVU1455
 5312 003e 4FF07F49 		mov	r9, #-16777216
1607:SYS/shell/shell.c ****         keyFilter = 0xFF000000;
 5313              		.loc 1 1607 23 view .LVU1456
 5314 0042 4FF01008 		mov	r8, #16
 5315 0046 F7E7     		b	.L418
 5316              	.LVL523:
 5317              	.L421:
 5318              	.LBB38:
1625:SYS/shell/shell.c ****                     {
 5319              		.loc 1 1625 21 is_stmt 1 view .LVU1457
1625:SYS/shell/shell.c ****                     {
ARM GAS  C:\Users\huav\AppData\Local\Temp\cc1GSGvG.s 			page 148


 5320              		.loc 1 1625 41 is_stmt 0 view .LVU1458
 5321 0048 AB68     		ldr	r3, [r5, #8]
1625:SYS/shell/shell.c ****                     {
 5322              		.loc 1 1625 24 view .LVU1459
 5323 004a 0BB1     		cbz	r3, .L422
1627:SYS/shell/shell.c ****                     }
 5324              		.loc 1 1627 25 is_stmt 1 view .LVU1460
 5325 004c 3046     		mov	r0, r6
 5326 004e 9847     		blx	r3
 5327              	.LVL524:
 5328              	.L422:
1629:SYS/shell/shell.c ****                     break;
 5329              		.loc 1 1629 21 view .LVU1461
1629:SYS/shell/shell.c ****                     break;
 5330              		.loc 1 1629 44 is_stmt 0 view .LVU1462
 5331 0050 0023     		movs	r3, #0
 5332 0052 B363     		str	r3, [r6, #56]
1630:SYS/shell/shell.c ****                 }
 5333              		.loc 1 1630 21 is_stmt 1 view .LVU1463
1630:SYS/shell/shell.c ****                 }
 5334              		.loc 1 1630 21 is_stmt 0 view .LVU1464
 5335              	.LBE38:
1636:SYS/shell/shell.c ****     {
 5336              		.loc 1 1636 5 is_stmt 1 view .LVU1465
 5337 0054 33E0     		b	.L416
 5338              	.LVL525:
 5339              	.L420:
 5340              	.LBB39:
1613:SYS/shell/shell.c ****     {
 5341              		.loc 1 1613 53 discriminator 2 view .LVU1466
1613:SYS/shell/shell.c ****     {
 5342              		.loc 1 1613 54 is_stmt 0 discriminator 2 view .LVU1467
 5343 0056 0134     		adds	r4, r4, #1
 5344              	.LVL526:
1613:SYS/shell/shell.c ****     {
 5345              		.loc 1 1613 54 discriminator 2 view .LVU1468
 5346 0058 24B2     		sxth	r4, r4
 5347              	.LVL527:
 5348              	.L419:
1613:SYS/shell/shell.c ****     {
 5349              		.loc 1 1613 23 is_stmt 1 discriminator 1 view .LVU1469
1613:SYS/shell/shell.c ****     {
 5350              		.loc 1 1613 45 is_stmt 0 discriminator 1 view .LVU1470
 5351 005a B6F85C30 		ldrh	r3, [r6, #92]
1613:SYS/shell/shell.c ****     {
 5352              		.loc 1 1613 5 discriminator 1 view .LVU1471
 5353 005e 9C42     		cmp	r4, r3
 5354 0060 2ADA     		bge	.L432
1616:SYS/shell/shell.c ****         {
 5355              		.loc 1 1616 9 is_stmt 1 view .LVU1472
1616:SYS/shell/shell.c ****         {
 5356              		.loc 1 1616 17 is_stmt 0 view .LVU1473
 5357 0062 07EB0415 		add	r5, r7, r4, lsl #4
1616:SYS/shell/shell.c ****         {
 5358              		.loc 1 1616 37 view .LVU1474
 5359 0066 6B78     		ldrb	r3, [r5, #1]	@ zero_extendqisi2
 5360 0068 03F00F03 		and	r3, r3, #15
ARM GAS  C:\Users\huav\AppData\Local\Temp\cc1GSGvG.s 			page 149


1616:SYS/shell/shell.c ****         {
 5361              		.loc 1 1616 12 view .LVU1475
 5362 006c 092B     		cmp	r3, #9
 5363 006e F2D1     		bne	.L420
1616:SYS/shell/shell.c ****         {
 5364              		.loc 1 1616 58 discriminator 1 view .LVU1476
 5365 0070 2946     		mov	r1, r5
 5366 0072 3046     		mov	r0, r6
 5367 0074 FFF7FEFF 		bl	shellCheckPermission
 5368              	.LVL528:
1616:SYS/shell/shell.c ****         {
 5369              		.loc 1 1616 55 discriminator 1 view .LVU1477
 5370 0078 0028     		cmp	r0, #0
 5371 007a ECD1     		bne	.L420
1619:SYS/shell/shell.c ****             {
 5372              		.loc 1 1619 13 is_stmt 1 view .LVU1478
1619:SYS/shell/shell.c ****             {
 5373              		.loc 1 1619 34 is_stmt 0 view .LVU1479
 5374 007c 6B68     		ldr	r3, [r5, #4]
1619:SYS/shell/shell.c ****             {
 5375              		.loc 1 1619 41 view .LVU1480
 5376 007e 03EA0901 		and	r1, r3, r9
1619:SYS/shell/shell.c ****             {
 5377              		.loc 1 1619 70 view .LVU1481
 5378 0082 B26B     		ldr	r2, [r6, #56]
1619:SYS/shell/shell.c ****             {
 5379              		.loc 1 1619 16 view .LVU1482
 5380 0084 9142     		cmp	r1, r2
 5381 0086 E6D1     		bne	.L420
1619:SYS/shell/shell.c ****             {
 5382              		.loc 1 1619 115 discriminator 1 view .LVU1483
 5383 0088 FF21     		movs	r1, #255
 5384 008a 01FA08F1 		lsl	r1, r1, r8
1619:SYS/shell/shell.c ****             {
 5385              		.loc 1 1619 107 discriminator 1 view .LVU1484
 5386 008e 0B40     		ands	r3, r3, r1
1619:SYS/shell/shell.c ****             {
 5387              		.loc 1 1619 143 discriminator 1 view .LVU1485
 5388 0090 0AFA08F1 		lsl	r1, r10, r8
1619:SYS/shell/shell.c ****             {
 5389              		.loc 1 1619 80 discriminator 1 view .LVU1486
 5390 0094 8B42     		cmp	r3, r1
 5391 0096 DED1     		bne	.L420
1621:SYS/shell/shell.c ****                 data = 0x00;
 5392              		.loc 1 1621 17 is_stmt 1 view .LVU1487
1621:SYS/shell/shell.c ****                 data = 0x00;
 5393              		.loc 1 1621 40 is_stmt 0 view .LVU1488
 5394 0098 0A43     		orrs	r2, r2, r1
 5395 009a B263     		str	r2, [r6, #56]
1622:SYS/shell/shell.c ****                 if (keyByteOffset == 0 || (base[i].data.key.value & (0xFF << (keyByteOffset - 8))) 
 5396              		.loc 1 1622 17 is_stmt 1 view .LVU1489
 5397              	.LVL529:
1623:SYS/shell/shell.c ****                 {
 5398              		.loc 1 1623 17 view .LVU1490
1623:SYS/shell/shell.c ****                 {
 5399              		.loc 1 1623 20 is_stmt 0 view .LVU1491
 5400 009c B8F1000F 		cmp	r8, #0
ARM GAS  C:\Users\huav\AppData\Local\Temp\cc1GSGvG.s 			page 150


 5401 00a0 D2D0     		beq	.L421
1623:SYS/shell/shell.c ****                 {
 5402              		.loc 1 1623 60 discriminator 1 view .LVU1492
 5403 00a2 6B68     		ldr	r3, [r5, #4]
1623:SYS/shell/shell.c ****                 {
 5404              		.loc 1 1623 93 discriminator 1 view .LVU1493
 5405 00a4 A8F10800 		sub	r0, r8, #8
1623:SYS/shell/shell.c ****                 {
 5406              		.loc 1 1623 75 discriminator 1 view .LVU1494
 5407 00a8 FF22     		movs	r2, #255
 5408 00aa 02FA00F0 		lsl	r0, r2, r0
1623:SYS/shell/shell.c ****                 {
 5409              		.loc 1 1623 40 discriminator 1 view .LVU1495
 5410 00ae 0342     		tst	r3, r0
 5411 00b0 CAD0     		beq	.L421
1622:SYS/shell/shell.c ****                 if (keyByteOffset == 0 || (base[i].data.key.value & (0xFF << (keyByteOffset - 8))) 
 5412              		.loc 1 1622 22 view .LVU1496
 5413 00b2 4FF0000A 		mov	r10, #0
 5414 00b6 CEE7     		b	.L420
 5415              	.LVL530:
 5416              	.L432:
1622:SYS/shell/shell.c ****                 if (keyByteOffset == 0 || (base[i].data.key.value & (0xFF << (keyByteOffset - 8))) 
 5417              		.loc 1 1622 22 view .LVU1497
 5418              	.LBE39:
1636:SYS/shell/shell.c ****     {
 5419              		.loc 1 1636 5 is_stmt 1 view .LVU1498
1636:SYS/shell/shell.c ****     {
 5420              		.loc 1 1636 8 is_stmt 0 view .LVU1499
 5421 00b8 BAF1000F 		cmp	r10, #0
 5422 00bc 01D1     		bne	.L433
 5423              	.LVL531:
 5424              	.L416:
1646:SYS/shell/shell.c **** 
 5425              		.loc 1 1646 1 view .LVU1500
 5426 00be BDE8F087 		pop	{r4, r5, r6, r7, r8, r9, r10, pc}
 5427              	.LVL532:
 5428              	.L433:
1638:SYS/shell/shell.c ****         shellNormalInput(shell, data);
 5429              		.loc 1 1638 9 is_stmt 1 view .LVU1501
1638:SYS/shell/shell.c ****         shellNormalInput(shell, data);
 5430              		.loc 1 1638 32 is_stmt 0 view .LVU1502
 5431 00c2 0023     		movs	r3, #0
 5432 00c4 B363     		str	r3, [r6, #56]
1639:SYS/shell/shell.c ****     }
 5433              		.loc 1 1639 9 is_stmt 1 view .LVU1503
 5434 00c6 5146     		mov	r1, r10
 5435 00c8 3046     		mov	r0, r6
 5436 00ca FFF7FEFF 		bl	shellNormalInput
 5437              	.LVL533:
 5438 00ce F6E7     		b	.L416
 5439              	.LVL534:
 5440              	.L429:
 5441              	.LCFI67:
 5442              		.cfi_def_cfa_offset 0
 5443              		.cfi_restore 4
 5444              		.cfi_restore 5
 5445              		.cfi_restore 6
ARM GAS  C:\Users\huav\AppData\Local\Temp\cc1GSGvG.s 			page 151


 5446              		.cfi_restore 7
 5447              		.cfi_restore 8
 5448              		.cfi_restore 9
 5449              		.cfi_restore 10
 5450              		.cfi_restore 14
1639:SYS/shell/shell.c ****     }
 5451              		.loc 1 1639 9 is_stmt 0 view .LVU1504
 5452 00d0 7047     		bx	lr
 5453              	.L435:
 5454 00d2 00BF     		.align	2
 5455              	.L434:
 5456 00d4 0000FFFF 		.word	-65536
 5457              		.cfi_endproc
 5458              	.LFE176:
 5460              		.section	.text.shellTask,"ax",%progbits
 5461              		.align	1
 5462              		.global	shellTask
 5463              		.syntax unified
 5464              		.thumb
 5465              		.thumb_func
 5466              		.fpu fpv4-sp-d16
 5468              	shellTask:
 5469              	.LVL535:
 5470              	.LFB177:
1681:SYS/shell/shell.c ****     Shell *shell = (Shell *)param;
 5471              		.loc 1 1681 1 is_stmt 1 view -0
 5472              		.cfi_startproc
 5473              		@ args = 0, pretend = 0, frame = 8
 5474              		@ frame_needed = 0, uses_anonymous_args = 0
1682:SYS/shell/shell.c ****     char data;
 5475              		.loc 1 1682 5 view .LVU1506
1683:SYS/shell/shell.c **** #if SHELL_TASK_WHILE == 1
 5476              		.loc 1 1683 5 view .LVU1507
1688:SYS/shell/shell.c ****         {
 5477              		.loc 1 1688 9 view .LVU1508
1688:SYS/shell/shell.c ****         {
 5478              		.loc 1 1688 18 is_stmt 0 view .LVU1509
 5479 0000 436E     		ldr	r3, [r0, #100]
1688:SYS/shell/shell.c ****         {
 5480              		.loc 1 1688 12 view .LVU1510
 5481 0002 73B1     		cbz	r3, .L439
1681:SYS/shell/shell.c ****     Shell *shell = (Shell *)param;
 5482              		.loc 1 1681 1 discriminator 1 view .LVU1511
 5483 0004 10B5     		push	{r4, lr}
 5484              	.LCFI68:
 5485              		.cfi_def_cfa_offset 8
 5486              		.cfi_offset 4, -8
 5487              		.cfi_offset 14, -4
 5488 0006 82B0     		sub	sp, sp, #8
 5489              	.LCFI69:
 5490              		.cfi_def_cfa_offset 16
 5491 0008 0446     		mov	r4, r0
1688:SYS/shell/shell.c ****         {
 5492              		.loc 1 1688 28 discriminator 1 view .LVU1512
 5493 000a 0DF10700 		add	r0, sp, #7
 5494              	.LVL536:
1688:SYS/shell/shell.c ****         {
ARM GAS  C:\Users\huav\AppData\Local\Temp\cc1GSGvG.s 			page 152


 5495              		.loc 1 1688 28 discriminator 1 view .LVU1513
 5496 000e 9847     		blx	r3
 5497              	.LVL537:
1688:SYS/shell/shell.c ****         {
 5498              		.loc 1 1688 25 discriminator 1 view .LVU1514
 5499 0010 08B1     		cbz	r0, .L442
 5500              	.L436:
1695:SYS/shell/shell.c **** 
 5501              		.loc 1 1695 1 view .LVU1515
 5502 0012 02B0     		add	sp, sp, #8
 5503              	.LCFI70:
 5504              		.cfi_remember_state
 5505              		.cfi_def_cfa_offset 8
 5506              		@ sp needed
 5507 0014 10BD     		pop	{r4, pc}
 5508              	.LVL538:
 5509              	.L442:
 5510              	.LCFI71:
 5511              		.cfi_restore_state
1690:SYS/shell/shell.c ****         }
 5512              		.loc 1 1690 13 is_stmt 1 view .LVU1516
 5513 0016 9DF80710 		ldrb	r1, [sp, #7]	@ zero_extendqisi2
 5514 001a 2046     		mov	r0, r4
 5515 001c FFF7FEFF 		bl	shellHandler
 5516              	.LVL539:
1695:SYS/shell/shell.c **** 
 5517              		.loc 1 1695 1 is_stmt 0 view .LVU1517
 5518 0020 F7E7     		b	.L436
 5519              	.LVL540:
 5520              	.L439:
 5521              	.LCFI72:
 5522              		.cfi_def_cfa_offset 0
 5523              		.cfi_restore 4
 5524              		.cfi_restore 14
1695:SYS/shell/shell.c **** 
 5525              		.loc 1 1695 1 view .LVU1518
 5526 0022 7047     		bx	lr
 5527              		.cfi_endproc
 5528              	.LFE177:
 5530              		.section	.text.shellRun,"ax",%progbits
 5531              		.align	1
 5532              		.global	shellRun
 5533              		.syntax unified
 5534              		.thumb
 5535              		.thumb_func
 5536              		.fpu fpv4-sp-d16
 5538              	shellRun:
 5539              	.LVL541:
 5540              	.LFB183:
1768:SYS/shell/shell.c **** SHELL_EXPORT_CMD(
1769:SYS/shell/shell.c ****     SHELL_CMD_PERMISSION(0) | SHELL_CMD_TYPE(SHELL_TYPE_CMD_FUNC) | SHELL_CMD_DISABLE_RETURN,
1770:SYS/shell/shell.c ****     clear, shellClear, clear console);
1771:SYS/shell/shell.c **** 
1772:SYS/shell/shell.c **** /**
1773:SYS/shell/shell.c ****  * @brief shell执行命令
1774:SYS/shell/shell.c ****  * 
1775:SYS/shell/shell.c ****  * @param shell shell对象
ARM GAS  C:\Users\huav\AppData\Local\Temp\cc1GSGvG.s 			page 153


1776:SYS/shell/shell.c ****  * @param cmd 命令字符串
1777:SYS/shell/shell.c ****  * @return int 返回值
1778:SYS/shell/shell.c ****  */
1779:SYS/shell/shell.c **** int shellRun(Shell *shell, const char *cmd)
1780:SYS/shell/shell.c **** {
 5541              		.loc 1 1780 1 is_stmt 1 view -0
 5542              		.cfi_startproc
 5543              		@ args = 0, pretend = 0, frame = 0
 5544              		@ frame_needed = 0, uses_anonymous_args = 0
1781:SYS/shell/shell.c ****     SHELL_ASSERT(shell && cmd, return -1);
 5545              		.loc 1 1781 5 view .LVU1520
 5546 0000 28B3     		cbz	r0, .L446
1780:SYS/shell/shell.c ****     SHELL_ASSERT(shell && cmd, return -1);
 5547              		.loc 1 1780 1 is_stmt 0 discriminator 2 view .LVU1521
 5548 0002 70B5     		push	{r4, r5, r6, lr}
 5549              	.LCFI73:
 5550              		.cfi_def_cfa_offset 16
 5551              		.cfi_offset 4, -16
 5552              		.cfi_offset 5, -12
 5553              		.cfi_offset 6, -8
 5554              		.cfi_offset 14, -4
 5555 0004 0D46     		mov	r5, r1
 5556 0006 0446     		mov	r4, r0
 5557              		.loc 1 1781 5 discriminator 2 view .LVU1522
 5558 0008 21B3     		cbz	r1, .L447
 5559              		.loc 1 1781 42 is_stmt 1 discriminator 4 view .LVU1523
1782:SYS/shell/shell.c ****     char active = shell->status.isActive;
 5560              		.loc 1 1782 5 discriminator 4 view .LVU1524
 5561              		.loc 1 1782 32 is_stmt 0 discriminator 4 view .LVU1525
 5562 000a 90F86030 		ldrb	r3, [r0, #96]	@ zero_extendqisi2
 5563 000e C3F34006 		ubfx	r6, r3, #1, #1
 5564              	.LVL542:
1783:SYS/shell/shell.c ****     if (strlen(cmd) > shell->parser.bufferSize - 1)
 5565              		.loc 1 1783 5 is_stmt 1 discriminator 4 view .LVU1526
 5566              		.loc 1 1783 9 is_stmt 0 discriminator 4 view .LVU1527
 5567 0012 0846     		mov	r0, r1
 5568              	.LVL543:
 5569              		.loc 1 1783 9 discriminator 4 view .LVU1528
 5570 0014 FFF7FEFF 		bl	strlen
 5571              	.LVL544:
 5572              		.loc 1 1783 36 discriminator 4 view .LVU1529
 5573 0018 A38E     		ldrh	r3, [r4, #52]
 5574              		.loc 1 1783 48 discriminator 4 view .LVU1530
 5575 001a 013B     		subs	r3, r3, #1
 5576              		.loc 1 1783 8 discriminator 4 view .LVU1531
 5577 001c 9842     		cmp	r0, r3
 5578 001e 0FD8     		bhi	.L452
1784:SYS/shell/shell.c ****     {
1785:SYS/shell/shell.c ****         shellWriteString(shell, shellText[SHELL_TEXT_CMD_TOO_LONG]);
1786:SYS/shell/shell.c ****         return -1;
1787:SYS/shell/shell.c ****     }
1788:SYS/shell/shell.c ****     else
1789:SYS/shell/shell.c ****     {
1790:SYS/shell/shell.c ****         shell->parser.length = shellStringCopy(shell->parser.buffer, (char *)cmd);
 5579              		.loc 1 1790 9 is_stmt 1 view .LVU1532
 5580              		.loc 1 1790 32 is_stmt 0 view .LVU1533
 5581 0020 2946     		mov	r1, r5
ARM GAS  C:\Users\huav\AppData\Local\Temp\cc1GSGvG.s 			page 154


 5582 0022 2069     		ldr	r0, [r4, #16]
 5583 0024 FFF7FEFF 		bl	shellStringCopy
 5584              	.LVL545:
 5585              		.loc 1 1790 30 view .LVU1534
 5586 0028 A081     		strh	r0, [r4, #12]	@ movhi
1791:SYS/shell/shell.c ****         shellExec(shell);
 5587              		.loc 1 1791 9 is_stmt 1 view .LVU1535
 5588 002a 2046     		mov	r0, r4
 5589 002c FFF7FEFF 		bl	shellExec
 5590              	.LVL546:
1792:SYS/shell/shell.c ****         shell->status.isActive = active;
 5591              		.loc 1 1792 9 view .LVU1536
 5592              		.loc 1 1792 32 is_stmt 0 view .LVU1537
 5593 0030 94F86030 		ldrb	r3, [r4, #96]	@ zero_extendqisi2
 5594 0034 66F34103 		bfi	r3, r6, #1, #1
 5595 0038 84F86030 		strb	r3, [r4, #96]
1793:SYS/shell/shell.c ****         return 0;
 5596              		.loc 1 1793 9 is_stmt 1 view .LVU1538
 5597              		.loc 1 1793 16 is_stmt 0 view .LVU1539
 5598 003c 0020     		movs	r0, #0
 5599              	.L443:
1794:SYS/shell/shell.c ****     }
1795:SYS/shell/shell.c **** }
 5600              		.loc 1 1795 1 view .LVU1540
 5601 003e 70BD     		pop	{r4, r5, r6, pc}
 5602              	.LVL547:
 5603              	.L452:
1785:SYS/shell/shell.c ****         return -1;
 5604              		.loc 1 1785 9 is_stmt 1 view .LVU1541
 5605 0040 0649     		ldr	r1, .L453
 5606 0042 2046     		mov	r0, r4
 5607 0044 FFF7FEFF 		bl	shellWriteString
 5608              	.LVL548:
1786:SYS/shell/shell.c ****     }
 5609              		.loc 1 1786 9 view .LVU1542
1786:SYS/shell/shell.c ****     }
 5610              		.loc 1 1786 16 is_stmt 0 view .LVU1543
 5611 0048 4FF0FF30 		mov	r0, #-1
 5612 004c F7E7     		b	.L443
 5613              	.LVL549:
 5614              	.L446:
 5615              	.LCFI74:
 5616              		.cfi_def_cfa_offset 0
 5617              		.cfi_restore 4
 5618              		.cfi_restore 5
 5619              		.cfi_restore 6
 5620              		.cfi_restore 14
1781:SYS/shell/shell.c ****     char active = shell->status.isActive;
 5621              		.loc 1 1781 5 view .LVU1544
 5622 004e 4FF0FF30 		mov	r0, #-1
 5623              	.LVL550:
 5624              		.loc 1 1795 1 view .LVU1545
 5625 0052 7047     		bx	lr
 5626              	.LVL551:
 5627              	.L447:
 5628              	.LCFI75:
 5629              		.cfi_def_cfa_offset 16
ARM GAS  C:\Users\huav\AppData\Local\Temp\cc1GSGvG.s 			page 155


 5630              		.cfi_offset 4, -16
 5631              		.cfi_offset 5, -12
 5632              		.cfi_offset 6, -8
 5633              		.cfi_offset 14, -4
1781:SYS/shell/shell.c ****     char active = shell->status.isActive;
 5634              		.loc 1 1781 5 view .LVU1546
 5635 0054 4FF0FF30 		mov	r0, #-1
 5636              	.LVL552:
1781:SYS/shell/shell.c ****     char active = shell->status.isActive;
 5637              		.loc 1 1781 5 view .LVU1547
 5638 0058 F1E7     		b	.L443
 5639              	.L454:
 5640 005a 00BF     		.align	2
 5641              	.L453:
 5642 005c 00000000 		.word	.LC21
 5643              		.cfi_endproc
 5644              	.LFE183:
 5646              		.global	shellCommandclear
 5647              		.global	shellDescclear
 5648              		.global	shellCmdclear
 5649              		.global	shellCommandkeys
 5650              		.global	shellDesckeys
 5651              		.global	shellCmdkeys
 5652              		.global	shellCommandvars
 5653              		.global	shellDescvars
 5654              		.global	shellCmdvars
 5655              		.global	shellCommandcmds
 5656              		.global	shellDesccmds
 5657              		.global	shellCmdcmds
 5658              		.global	shellCommandusers
 5659              		.global	shellDescusers
 5660              		.global	shellCmdusers
 5661              		.global	shellCommandhelp
 5662              		.global	shellDeschelp
 5663              		.global	shellCmdhelp
 5664              		.global	shellKey0x0D000000
 5665              		.global	shellDesc0x0D000000
 5666              		.global	shellKey0x0A000000
 5667              		.global	shellDesc0x0A000000
 5668              		.global	shellKey0x1B5B337E
 5669              		.global	shellDesc0x1B5B337E
 5670              		.global	shellKey0x7F000000
 5671              		.global	shellDesc0x7F000000
 5672              		.global	shellKey0x08000000
 5673              		.global	shellDesc0x08000000
 5674              		.global	shellKey0x09000000
 5675              		.global	shellDesc0x09000000
 5676              		.global	shellKey0x1B5B4400
 5677              		.global	shellDesc0x1B5B4400
 5678              		.global	shellKey0x1B5B4300
 5679              		.global	shellDesc0x1B5B4300
 5680              		.global	shellKey0x1B5B4200
 5681              		.global	shellDesc0x1B5B4200
 5682              		.global	shellKey0x1B5B4100
 5683              		.global	shellDesc0x1B5B4100
 5684              		.global	shellCommandsetVar
 5685              		.global	shellDescsetVar
ARM GAS  C:\Users\huav\AppData\Local\Temp\cc1GSGvG.s 			page 156


 5686              		.global	shellCmdsetVar
 5687              		.global	shellUserDefault
 5688              		.global	shellDesDefaultUser
 5689              		.global	shellPasswordDefaultUser
 5690              		.global	shellCmdDefaultUser
 5691              		.section	.bss.buffer.0,"aw",%nobits
 5692              		.align	2
 5693              		.set	.LANCHOR1,. + 0
 5696              	buffer.0:
 5697 0000 00000000 		.space	9
 5697      00000000 
 5697      00
 5698              		.section	.bss.shellList,"aw",%nobits
 5699              		.align	2
 5700              		.set	.LANCHOR0,. + 0
 5703              	shellList:
 5704 0000 00000000 		.space	20
 5704      00000000 
 5704      00000000 
 5704      00000000 
 5704      00000000 
 5705              		.section	.rodata.shellCmdDefaultUser,"a"
 5706              		.align	2
 5709              	shellCmdDefaultUser:
 5710 0000 502E302E 		.ascii	"P.0.Wder Squad\000"
 5710      57646572 
 5710      20537175 
 5710      616400
 5711              		.section	.rodata.shellCmdclear,"a"
 5712              		.align	2
 5715              	shellCmdclear:
 5716 0000 636C6561 		.ascii	"clear\000"
 5716      7200
 5717              		.section	.rodata.shellCmdcmds,"a"
 5718              		.align	2
 5721              	shellCmdcmds:
 5722 0000 636D6473 		.ascii	"cmds\000"
 5722      00
 5723              		.section	.rodata.shellCmdhelp,"a"
 5724              		.align	2
 5727              	shellCmdhelp:
 5728 0000 68656C70 		.ascii	"help\000"
 5728      00
 5729              		.section	.rodata.shellCmdkeys,"a"
 5730              		.align	2
 5733              	shellCmdkeys:
 5734 0000 6B657973 		.ascii	"keys\000"
 5734      00
 5735              		.section	.rodata.shellCmdsetVar,"a"
 5736              		.align	2
 5739              	shellCmdsetVar:
 5740 0000 73657456 		.ascii	"setVar\000"
 5740      617200
 5741              		.section	.rodata.shellCmdusers,"a"
 5742              		.align	2
 5745              	shellCmdusers:
 5746 0000 75736572 		.ascii	"users\000"
ARM GAS  C:\Users\huav\AppData\Local\Temp\cc1GSGvG.s 			page 157


 5746      7300
 5747              		.section	.rodata.shellCmdvars,"a"
 5748              		.align	2
 5751              	shellCmdvars:
 5752 0000 76617273 		.ascii	"vars\000"
 5752      00
 5753              		.section	.rodata.shellDesDefaultUser,"a"
 5754              		.align	2
 5757              	shellDesDefaultUser:
 5758 0000 64656661 		.ascii	"default user\000"
 5758      756C7420 
 5758      75736572 
 5758      00
 5759              		.section	.rodata.shellDesc0x08000000,"a"
 5760              		.align	2
 5763              	shellDesc0x08000000:
 5764 0000 6261636B 		.ascii	"backspace\000"
 5764      73706163 
 5764      6500
 5765              		.section	.rodata.shellDesc0x09000000,"a"
 5766              		.align	2
 5769              	shellDesc0x09000000:
 5770 0000 74616200 		.ascii	"tab\000"
 5771              		.section	.rodata.shellDesc0x0A000000,"a"
 5772              		.align	2
 5775              	shellDesc0x0A000000:
 5776 0000 656E7465 		.ascii	"enter\000"
 5776      7200
 5777              		.section	.rodata.shellDesc0x0D000000,"a"
 5778              		.align	2
 5781              	shellDesc0x0D000000:
 5782 0000 656E7465 		.ascii	"enter\000"
 5782      7200
 5783              		.section	.rodata.shellDesc0x1B5B337E,"a"
 5784              		.align	2
 5787              	shellDesc0x1B5B337E:
 5788 0000 64656C65 		.ascii	"delete\000"
 5788      746500
 5789              		.section	.rodata.shellDesc0x1B5B4100,"a"
 5790              		.align	2
 5793              	shellDesc0x1B5B4100:
 5794 0000 757000   		.ascii	"up\000"
 5795              		.section	.rodata.shellDesc0x1B5B4200,"a"
 5796              		.align	2
 5799              	shellDesc0x1B5B4200:
 5800 0000 646F776E 		.ascii	"down\000"
 5800      00
 5801              		.section	.rodata.shellDesc0x1B5B4300,"a"
 5802              		.align	2
 5805              	shellDesc0x1B5B4300:
 5806 0000 72696768 		.ascii	"right\000"
 5806      7400
 5807              		.section	.rodata.shellDesc0x1B5B4400,"a"
 5808              		.align	2
 5811              	shellDesc0x1B5B4400:
 5812 0000 6C656674 		.ascii	"left\000"
 5812      00
ARM GAS  C:\Users\huav\AppData\Local\Temp\cc1GSGvG.s 			page 158


 5813              		.section	.rodata.shellDesc0x7F000000,"a"
 5814              		.align	2
 5817              	shellDesc0x7F000000:
 5818 0000 6261636B 		.ascii	"backspace\000"
 5818      73706163 
 5818      6500
 5819              		.section	.rodata.shellDescclear,"a"
 5820              		.align	2
 5823              	shellDescclear:
 5824 0000 636C6561 		.ascii	"clear console\000"
 5824      7220636F 
 5824      6E736F6C 
 5824      6500
 5825              		.section	.rodata.shellDesccmds,"a"
 5826              		.align	2
 5829              	shellDesccmds:
 5830 0000 6C697374 		.ascii	"list all cmd\000"
 5830      20616C6C 
 5830      20636D64 
 5830      00
 5831              		.section	.rodata.shellDeschelp,"a"
 5832              		.align	2
 5835              	shellDeschelp:
 5836 0000 73686F77 		.ascii	"show command info\015\012help[cmd]\000"
 5836      20636F6D 
 5836      6D616E64 
 5836      20696E66 
 5836      6F0D0A68 
 5837              		.section	.rodata.shellDesckeys,"a"
 5838              		.align	2
 5841              	shellDesckeys:
 5842 0000 6C697374 		.ascii	"list all key\000"
 5842      20616C6C 
 5842      206B6579 
 5842      00
 5843              		.section	.rodata.shellDescsetVar,"a"
 5844              		.align	2
 5847              	shellDescsetVar:
 5848 0000 73657420 		.ascii	"set var\000"
 5848      76617200 
 5849              		.section	.rodata.shellDescusers,"a"
 5850              		.align	2
 5853              	shellDescusers:
 5854 0000 6C697374 		.ascii	"list all user\000"
 5854      20616C6C 
 5854      20757365 
 5854      7200
 5855              		.section	.rodata.shellDescvars,"a"
 5856              		.align	2
 5859              	shellDescvars:
 5860 0000 6C697374 		.ascii	"list all var\000"
 5860      20616C6C 
 5860      20766172 
 5860      00
 5861              		.section	.rodata.shellPasswordDefaultUser,"a"
 5862              		.align	2
 5865              	shellPasswordDefaultUser:
ARM GAS  C:\Users\huav\AppData\Local\Temp\cc1GSGvG.s 			page 159


 5866 0000 00       		.space	1
 5867              		.section	shellCommand,"a"
 5868              		.align	2
 5871              	shellCommandclear:
 5872 0000 00210000 		.word	8448
 5873 0004 00000000 		.word	shellCmdclear
 5874 0008 00000000 		.word	shellClear
 5875 000c 00000000 		.word	shellDescclear
 5878              	shellCommandkeys:
 5879 0010 00210000 		.word	8448
 5880 0014 00000000 		.word	shellCmdkeys
 5881 0018 00000000 		.word	shellKeys
 5882 001c 00000000 		.word	shellDesckeys
 5885              	shellCommandvars:
 5886 0020 00210000 		.word	8448
 5887 0024 00000000 		.word	shellCmdvars
 5888 0028 00000000 		.word	shellVars
 5889 002c 00000000 		.word	shellDescvars
 5892              	shellCommandcmds:
 5893 0030 00210000 		.word	8448
 5894 0034 00000000 		.word	shellCmdcmds
 5895 0038 00000000 		.word	shellCmds
 5896 003c 00000000 		.word	shellDesccmds
 5899              	shellCommandusers:
 5900 0040 00210000 		.word	8448
 5901 0044 00000000 		.word	shellCmdusers
 5902 0048 00000000 		.word	shellUsers
 5903 004c 00000000 		.word	shellDescusers
 5906              	shellCommandhelp:
 5907 0050 00200000 		.word	8192
 5908 0054 00000000 		.word	shellCmdhelp
 5909 0058 00000000 		.word	shellHelp
 5910 005c 00000000 		.word	shellDeschelp
 5913              	shellKey0x0D000000:
 5914 0060 00190000 		.word	6400
 5915 0064 0000000D 		.word	218103808
 5916 0068 00000000 		.word	shellEnter
 5917 006c 00000000 		.word	shellDesc0x0D000000
 5920              	shellKey0x0A000000:
 5921 0070 00190000 		.word	6400
 5922 0074 0000000A 		.word	167772160
 5923 0078 00000000 		.word	shellEnter
 5924 007c 00000000 		.word	shellDesc0x0A000000
 5927              	shellKey0x1B5B337E:
 5928 0080 00190000 		.word	6400
 5929 0084 7E335B1B 		.word	458961790
 5930 0088 00000000 		.word	shellDelete
 5931 008c 00000000 		.word	shellDesc0x1B5B337E
 5934              	shellKey0x7F000000:
 5935 0090 00190000 		.word	6400
 5936 0094 0000007F 		.word	2130706432
 5937 0098 00000000 		.word	shellBackspace
 5938 009c 00000000 		.word	shellDesc0x7F000000
 5941              	shellKey0x08000000:
 5942 00a0 00190000 		.word	6400
 5943 00a4 00000008 		.word	134217728
 5944 00a8 00000000 		.word	shellBackspace
ARM GAS  C:\Users\huav\AppData\Local\Temp\cc1GSGvG.s 			page 160


 5945 00ac 00000000 		.word	shellDesc0x08000000
 5948              	shellKey0x09000000:
 5949 00b0 00090000 		.word	2304
 5950 00b4 00000009 		.word	150994944
 5951 00b8 00000000 		.word	shellTab
 5952 00bc 00000000 		.word	shellDesc0x09000000
 5955              	shellKey0x1B5B4400:
 5956 00c0 00190000 		.word	6400
 5957 00c4 00445B1B 		.word	458966016
 5958 00c8 00000000 		.word	shellLeft
 5959 00cc 00000000 		.word	shellDesc0x1B5B4400
 5962              	shellKey0x1B5B4300:
 5963 00d0 00190000 		.word	6400
 5964 00d4 00435B1B 		.word	458965760
 5965 00d8 00000000 		.word	shellRight
 5966 00dc 00000000 		.word	shellDesc0x1B5B4300
 5969              	shellKey0x1B5B4200:
 5970 00e0 00090000 		.word	2304
 5971 00e4 00425B1B 		.word	458965504
 5972 00e8 00000000 		.word	shellDown
 5973 00ec 00000000 		.word	shellDesc0x1B5B4200
 5976              	shellKey0x1B5B4100:
 5977 00f0 00090000 		.word	2304
 5978 00f4 00415B1B 		.word	458965248
 5979 00f8 00000000 		.word	shellUp
 5980 00fc 00000000 		.word	shellDesc0x1B5B4100
 5983              	shellCommandsetVar:
 5984 0100 00210000 		.word	8448
 5985 0104 00000000 		.word	shellCmdsetVar
 5986 0108 00000000 		.word	shellSetVar
 5987 010c 00000000 		.word	shellDescsetVar
 5990              	shellUserDefault:
 5991 0110 00080000 		.word	2048
 5992 0114 00000000 		.word	shellCmdDefaultUser
 5993 0118 00000000 		.word	shellPasswordDefaultUser
 5994 011c 00000000 		.word	shellDesDefaultUser
 5995              		.text
 5996              	.Letext0:
 5997              		.file 2 "SYS/shell/shell.h"
 5998              		.file 3 "c:\\program files (x86)\\gnu arm embedded toolchain\\10 2020-q4-major\\lib\\gcc\\arm-none
 5999              		.file 4 "c:\\program files (x86)\\gnu arm embedded toolchain\\10 2020-q4-major\\arm-none-eabi\\inc
 6000              		.file 5 "c:\\program files (x86)\\gnu arm embedded toolchain\\10 2020-q4-major\\arm-none-eabi\\inc
 6001              		.file 6 "SYS/shell/shell_ext.h"
 6002              		.file 7 "<built-in>"
ARM GAS  C:\Users\huav\AppData\Local\Temp\cc1GSGvG.s 			page 161


DEFINED SYMBOLS
                            *ABS*:00000000 shell.c
C:\Users\huav\AppData\Local\Temp\cc1GSGvG.s:18     .text.shellAdd:00000000 $t
C:\Users\huav\AppData\Local\Temp\cc1GSGvG.s:25     .text.shellAdd:00000000 shellAdd
C:\Users\huav\AppData\Local\Temp\cc1GSGvG.s:79     .text.shellAdd:00000020 $d
C:\Users\huav\AppData\Local\Temp\cc1GSGvG.s:84     .text.shellStringCopy:00000000 $t
C:\Users\huav\AppData\Local\Temp\cc1GSGvG.s:90     .text.shellStringCopy:00000000 shellStringCopy
C:\Users\huav\AppData\Local\Temp\cc1GSGvG.s:137    .text.shellStringCompare:00000000 $t
C:\Users\huav\AppData\Local\Temp\cc1GSGvG.s:143    .text.shellStringCompare:00000000 shellStringCompare
C:\Users\huav\AppData\Local\Temp\cc1GSGvG.s:218    .text.shellGetCommandDesc:00000000 $t
C:\Users\huav\AppData\Local\Temp\cc1GSGvG.s:224    .text.shellGetCommandDesc:00000000 shellGetCommandDesc
C:\Users\huav\AppData\Local\Temp\cc1GSGvG.s:281    .text.shellParserParam:00000000 $t
C:\Users\huav\AppData\Local\Temp\cc1GSGvG.s:287    .text.shellParserParam:00000000 shellParserParam
C:\Users\huav\AppData\Local\Temp\cc1GSGvG.s:472    .text.shellHistoryAdd:00000000 $t
C:\Users\huav\AppData\Local\Temp\cc1GSGvG.s:478    .text.shellHistoryAdd:00000000 shellHistoryAdd
C:\Users\huav\AppData\Local\Temp\cc1GSGvG.s:577    .text.shellRemoveParamQuotes:00000000 $t
C:\Users\huav\AppData\Local\Temp\cc1GSGvG.s:583    .text.shellRemoveParamQuotes:00000000 shellRemoveParamQuotes
C:\Users\huav\AppData\Local\Temp\cc1GSGvG.s:685    .text.shellGetCurrent:00000000 $t
C:\Users\huav\AppData\Local\Temp\cc1GSGvG.s:692    .text.shellGetCurrent:00000000 shellGetCurrent
C:\Users\huav\AppData\Local\Temp\cc1GSGvG.s:743    .text.shellGetCurrent:00000028 $d
C:\Users\huav\AppData\Local\Temp\cc1GSGvG.s:748    .text.shellWriteByte:00000000 $t
C:\Users\huav\AppData\Local\Temp\cc1GSGvG.s:755    .text.shellWriteByte:00000000 shellWriteByte
C:\Users\huav\AppData\Local\Temp\cc1GSGvG.s:783    .text.shellRight:00000000 $t
C:\Users\huav\AppData\Local\Temp\cc1GSGvG.s:790    .text.shellRight:00000000 shellRight
C:\Users\huav\AppData\Local\Temp\cc1GSGvG.s:833    .text.shellLeft:00000000 $t
C:\Users\huav\AppData\Local\Temp\cc1GSGvG.s:840    .text.shellLeft:00000000 shellLeft
C:\Users\huav\AppData\Local\Temp\cc1GSGvG.s:878    .text.shellWriteString:00000000 $t
C:\Users\huav\AppData\Local\Temp\cc1GSGvG.s:885    .text.shellWriteString:00000000 shellWriteString
C:\Users\huav\AppData\Local\Temp\cc1GSGvG.s:949    .rodata.shellSetUser.str1.4:00000000 $d
C:\Users\huav\AppData\Local\Temp\cc1GSGvG.s:965    .text.shellSetUser:00000000 $t
C:\Users\huav\AppData\Local\Temp\cc1GSGvG.s:971    .text.shellSetUser:00000000 shellSetUser
C:\Users\huav\AppData\Local\Temp\cc1GSGvG.s:1062   .text.shellSetUser:00000058 $d
C:\Users\huav\AppData\Local\Temp\cc1GSGvG.s:1068   .rodata.shellWriteCommandLine.str1.4:00000000 $d
C:\Users\huav\AppData\Local\Temp\cc1GSGvG.s:1084   .text.shellWriteCommandLine:00000000 $t
C:\Users\huav\AppData\Local\Temp\cc1GSGvG.s:1090   .text.shellWriteCommandLine:00000000 shellWriteCommandLine
C:\Users\huav\AppData\Local\Temp\cc1GSGvG.s:1173   .text.shellWriteCommandLine:0000004c $d
C:\Users\huav\AppData\Local\Temp\cc1GSGvG.s:1182   .rodata.shellCheckPassword.str1.4:00000000 $d
C:\Users\huav\AppData\Local\Temp\cc1GSGvG.s:1186   .text.shellCheckPassword:00000000 $t
C:\Users\huav\AppData\Local\Temp\cc1GSGvG.s:1192   .text.shellCheckPassword:00000000 shellCheckPassword
C:\Users\huav\AppData\Local\Temp\cc1GSGvG.s:1249   .text.shellCheckPassword:00000038 $d
C:\Users\huav\AppData\Local\Temp\cc1GSGvG.s:1255   .text.shellClear:00000000 $t
C:\Users\huav\AppData\Local\Temp\cc1GSGvG.s:1262   .text.shellClear:00000000 shellClear
C:\Users\huav\AppData\Local\Temp\cc1GSGvG.s:1290   .text.shellClear:00000010 $d
C:\Users\huav\AppData\Local\Temp\cc1GSGvG.s:1295   .text.shellPrint:00000000 $t
C:\Users\huav\AppData\Local\Temp\cc1GSGvG.s:1302   .text.shellPrint:00000000 shellPrint
C:\Users\huav\AppData\Local\Temp\cc1GSGvG.s:1372   .text.shellScan:00000000 $t
C:\Users\huav\AppData\Local\Temp\cc1GSGvG.s:1379   .text.shellScan:00000000 shellScan
C:\Users\huav\AppData\Local\Temp\cc1GSGvG.s:1521   .text.shellScan:00000074 $d
C:\Users\huav\AppData\Local\Temp\cc1GSGvG.s:1526   .text.shellCheckPermission:00000000 $t
C:\Users\huav\AppData\Local\Temp\cc1GSGvG.s:1533   .text.shellCheckPermission:00000000 shellCheckPermission
C:\Users\huav\AppData\Local\Temp\cc1GSGvG.s:1599   .text.shellToHex:00000000 $t
C:\Users\huav\AppData\Local\Temp\cc1GSGvG.s:1606   .text.shellToHex:00000000 shellToHex
C:\Users\huav\AppData\Local\Temp\cc1GSGvG.s:1672   .text.shellGetCommandName:00000000 $t
C:\Users\huav\AppData\Local\Temp\cc1GSGvG.s:1678   .text.shellGetCommandName:00000000 shellGetCommandName
C:\Users\huav\AppData\Local\Temp\cc1GSGvG.s:1776   .text.shellGetCommandName:00000040 $d
C:\Users\huav\AppData\Local\Temp\cc1GSGvG.s:1781   .text.shellToDec:00000000 $t
C:\Users\huav\AppData\Local\Temp\cc1GSGvG.s:1788   .text.shellToDec:00000000 shellToDec
ARM GAS  C:\Users\huav\AppData\Local\Temp\cc1GSGvG.s 			page 162


C:\Users\huav\AppData\Local\Temp\cc1GSGvG.s:1910   .text.shellToDec:0000005c $d
C:\Users\huav\AppData\Local\Temp\cc1GSGvG.s:1915   .rodata.shellWriteReturnValue.str1.4:00000000 $d
C:\Users\huav\AppData\Local\Temp\cc1GSGvG.s:1925   .text.shellWriteReturnValue:00000000 $t
C:\Users\huav\AppData\Local\Temp\cc1GSGvG.s:1931   .text.shellWriteReturnValue:00000000 shellWriteReturnValue
C:\Users\huav\AppData\Local\Temp\cc1GSGvG.s:2036   .text.shellWriteReturnValue:0000006c $d
C:\Users\huav\AppData\Local\Temp\cc1GSGvG.s:2044   .rodata.shellListItem.str1.4:00000000 $d
C:\Users\huav\AppData\Local\Temp\cc1GSGvG.s:2060   .text.shellListItem:00000000 $t
C:\Users\huav\AppData\Local\Temp\cc1GSGvG.s:2067   .text.shellListItem:00000000 shellListItem
C:\Users\huav\AppData\Local\Temp\cc1GSGvG.s:2191   .text.shellListItem:0000007c $d
C:\Users\huav\AppData\Local\Temp\cc1GSGvG.s:2200   .rodata.shellListCommand.str1.4:00000000 $d
C:\Users\huav\AppData\Local\Temp\cc1GSGvG.s:2204   .text.shellListCommand:00000000 $t
C:\Users\huav\AppData\Local\Temp\cc1GSGvG.s:2211   .text.shellListCommand:00000000 shellListCommand
C:\Users\huav\AppData\Local\Temp\cc1GSGvG.s:2293   .text.shellListCommand:00000044 $d
C:\Users\huav\AppData\Local\Temp\cc1GSGvG.s:2298   .text.shellCmds:00000000 $t
C:\Users\huav\AppData\Local\Temp\cc1GSGvG.s:2305   .text.shellCmds:00000000 shellCmds
C:\Users\huav\AppData\Local\Temp\cc1GSGvG.s:2333   .rodata.shellListVar.str1.4:00000000 $d
C:\Users\huav\AppData\Local\Temp\cc1GSGvG.s:2337   .text.shellListVar:00000000 $t
C:\Users\huav\AppData\Local\Temp\cc1GSGvG.s:2344   .text.shellListVar:00000000 shellListVar
C:\Users\huav\AppData\Local\Temp\cc1GSGvG.s:2429   .text.shellListVar:00000048 $d
C:\Users\huav\AppData\Local\Temp\cc1GSGvG.s:2434   .text.shellVars:00000000 $t
C:\Users\huav\AppData\Local\Temp\cc1GSGvG.s:2441   .text.shellVars:00000000 shellVars
C:\Users\huav\AppData\Local\Temp\cc1GSGvG.s:2469   .rodata.shellListUser.str1.4:00000000 $d
C:\Users\huav\AppData\Local\Temp\cc1GSGvG.s:2473   .text.shellListUser:00000000 $t
C:\Users\huav\AppData\Local\Temp\cc1GSGvG.s:2480   .text.shellListUser:00000000 shellListUser
C:\Users\huav\AppData\Local\Temp\cc1GSGvG.s:2562   .text.shellListUser:00000044 $d
C:\Users\huav\AppData\Local\Temp\cc1GSGvG.s:2567   .text.shellUsers:00000000 $t
C:\Users\huav\AppData\Local\Temp\cc1GSGvG.s:2574   .text.shellUsers:00000000 shellUsers
C:\Users\huav\AppData\Local\Temp\cc1GSGvG.s:2602   .rodata.shellListKey.str1.4:00000000 $d
C:\Users\huav\AppData\Local\Temp\cc1GSGvG.s:2606   .text.shellListKey:00000000 $t
C:\Users\huav\AppData\Local\Temp\cc1GSGvG.s:2613   .text.shellListKey:00000000 shellListKey
C:\Users\huav\AppData\Local\Temp\cc1GSGvG.s:2695   .text.shellListKey:00000044 $d
C:\Users\huav\AppData\Local\Temp\cc1GSGvG.s:2700   .text.shellKeys:00000000 $t
C:\Users\huav\AppData\Local\Temp\cc1GSGvG.s:2707   .text.shellKeys:00000000 shellKeys
C:\Users\huav\AppData\Local\Temp\cc1GSGvG.s:2735   .text.shellListAll:00000000 $t
C:\Users\huav\AppData\Local\Temp\cc1GSGvG.s:2742   .text.shellListAll:00000000 shellListAll
C:\Users\huav\AppData\Local\Temp\cc1GSGvG.s:2764   .rodata.shellDeleteCommandLine.str1.4:00000000 $d
C:\Users\huav\AppData\Local\Temp\cc1GSGvG.s:2768   .text.shellDeleteCommandLine:00000000 $t
C:\Users\huav\AppData\Local\Temp\cc1GSGvG.s:2775   .text.shellDeleteCommandLine:00000000 shellDeleteCommandLine
C:\Users\huav\AppData\Local\Temp\cc1GSGvG.s:2820   .text.shellDeleteCommandLine:0000001c $d
C:\Users\huav\AppData\Local\Temp\cc1GSGvG.s:2825   .text.shellClearCommandLine:00000000 $t
C:\Users\huav\AppData\Local\Temp\cc1GSGvG.s:2832   .text.shellClearCommandLine:00000000 shellClearCommandLine
C:\Users\huav\AppData\Local\Temp\cc1GSGvG.s:2895   .text.shellHistory:00000000 $t
C:\Users\huav\AppData\Local\Temp\cc1GSGvG.s:2901   .text.shellHistory:00000000 shellHistory
C:\Users\huav\AppData\Local\Temp\cc1GSGvG.s:3025   .text.shellHistory:00000094 $d
C:\Users\huav\AppData\Local\Temp\cc1GSGvG.s:3030   .text.shellUp:00000000 $t
C:\Users\huav\AppData\Local\Temp\cc1GSGvG.s:3037   .text.shellUp:00000000 shellUp
C:\Users\huav\AppData\Local\Temp\cc1GSGvG.s:3060   .text.shellDown:00000000 $t
C:\Users\huav\AppData\Local\Temp\cc1GSGvG.s:3067   .text.shellDown:00000000 shellDown
C:\Users\huav\AppData\Local\Temp\cc1GSGvG.s:3090   .text.shellTab:00000000 $t
C:\Users\huav\AppData\Local\Temp\cc1GSGvG.s:3097   .text.shellTab:00000000 shellTab
C:\Users\huav\AppData\Local\Temp\cc1GSGvG.s:3359   .text.shellTab:00000110 $d
C:\Users\huav\AppData\Local\Temp\cc1GSGvG.s:3365   .rodata.shellInsertByte.str1.4:00000000 $d
C:\Users\huav\AppData\Local\Temp\cc1GSGvG.s:3369   .text.shellInsertByte:00000000 $t
C:\Users\huav\AppData\Local\Temp\cc1GSGvG.s:3376   .text.shellInsertByte:00000000 shellInsertByte
C:\Users\huav\AppData\Local\Temp\cc1GSGvG.s:3609   .text.shellInsertByte:000000b8 $d
C:\Users\huav\AppData\Local\Temp\cc1GSGvG.s:3614   .text.shellDeleteByte:00000000 $t
C:\Users\huav\AppData\Local\Temp\cc1GSGvG.s:3621   .text.shellDeleteByte:00000000 shellDeleteByte
ARM GAS  C:\Users\huav\AppData\Local\Temp\cc1GSGvG.s 			page 163


C:\Users\huav\AppData\Local\Temp\cc1GSGvG.s:3866   .text.shellBackspace:00000000 $t
C:\Users\huav\AppData\Local\Temp\cc1GSGvG.s:3873   .text.shellBackspace:00000000 shellBackspace
C:\Users\huav\AppData\Local\Temp\cc1GSGvG.s:3896   .text.shellDelete:00000000 $t
C:\Users\huav\AppData\Local\Temp\cc1GSGvG.s:3903   .text.shellDelete:00000000 shellDelete
C:\Users\huav\AppData\Local\Temp\cc1GSGvG.s:3926   .text.shellSeekCommand:00000000 $t
C:\Users\huav\AppData\Local\Temp\cc1GSGvG.s:3933   .text.shellSeekCommand:00000000 shellSeekCommand
C:\Users\huav\AppData\Local\Temp\cc1GSGvG.s:4059   .rodata.shellInit.str1.4:00000000 $d
C:\Users\huav\AppData\Local\Temp\cc1GSGvG.s:4063   .text.shellInit:00000000 $t
C:\Users\huav\AppData\Local\Temp\cc1GSGvG.s:4070   .text.shellInit:00000000 shellInit
C:\Users\huav\AppData\Local\Temp\cc1GSGvG.s:4194   .text.shellInit:00000080 $d
C:\Users\huav\AppData\Local\Temp\cc1GSGvG.s:4202   .rodata.shellHelp.str1.4:00000000 $d
C:\Users\huav\AppData\Local\Temp\cc1GSGvG.s:4209   .text.shellHelp:00000000 $t
C:\Users\huav\AppData\Local\Temp\cc1GSGvG.s:4216   .text.shellHelp:00000000 shellHelp
C:\Users\huav\AppData\Local\Temp\cc1GSGvG.s:4326   .text.shellHelp:00000070 $d
C:\Users\huav\AppData\Local\Temp\cc1GSGvG.s:4334   .text.shellGetVarValue:00000000 $t
C:\Users\huav\AppData\Local\Temp\cc1GSGvG.s:4341   .text.shellGetVarValue:00000000 shellGetVarValue
C:\Users\huav\AppData\Local\Temp\cc1GSGvG.s:4365   .text.shellGetVarValue:00000012 $d
C:\Users\huav\AppData\Local\Temp\cc1GSGvG.s:4371   .text.shellGetVarValue:00000018 $t
C:\Users\huav\AppData\Local\Temp\cc1GSGvG.s:4447   .rodata.shellShowVar.str1.4:00000000 $d
C:\Users\huav\AppData\Local\Temp\cc1GSGvG.s:4454   .text.shellShowVar:00000000 $t
C:\Users\huav\AppData\Local\Temp\cc1GSGvG.s:4460   .text.shellShowVar:00000000 shellShowVar
C:\Users\huav\AppData\Local\Temp\cc1GSGvG.s:4617   .text.shellShowVar:000000a8 $d
C:\Users\huav\AppData\Local\Temp\cc1GSGvG.s:4626   .rodata.shellSetVarValue.str1.4:00000000 $d
C:\Users\huav\AppData\Local\Temp\cc1GSGvG.s:4633   .text.shellSetVarValue:00000000 $t
C:\Users\huav\AppData\Local\Temp\cc1GSGvG.s:4640   .text.shellSetVarValue:00000000 shellSetVarValue
C:\Users\huav\AppData\Local\Temp\cc1GSGvG.s:4673   .text.shellSetVarValue:0000001e $d
C:\Users\huav\AppData\Local\Temp\cc1GSGvG.s:4679   .text.shellSetVarValue:00000024 $t
C:\Users\huav\AppData\Local\Temp\cc1GSGvG.s:4774   .text.shellSetVarValue:00000070 $d
C:\Users\huav\AppData\Local\Temp\cc1GSGvG.s:4780   .rodata.shellSetVar.str1.4:00000000 $d
C:\Users\huav\AppData\Local\Temp\cc1GSGvG.s:4787   .text.shellSetVar:00000000 $t
C:\Users\huav\AppData\Local\Temp\cc1GSGvG.s:4794   .text.shellSetVar:00000000 shellSetVar
C:\Users\huav\AppData\Local\Temp\cc1GSGvG.s:4892   .text.shellSetVar:0000005c $d
C:\Users\huav\AppData\Local\Temp\cc1GSGvG.s:4898   .text.shellRunCommand:00000000 $t
C:\Users\huav\AppData\Local\Temp\cc1GSGvG.s:4905   .text.shellRunCommand:00000000 shellRunCommand
C:\Users\huav\AppData\Local\Temp\cc1GSGvG.s:5042   .text.shellNormalInput:00000000 $t
C:\Users\huav\AppData\Local\Temp\cc1GSGvG.s:5049   .text.shellNormalInput:00000000 shellNormalInput
C:\Users\huav\AppData\Local\Temp\cc1GSGvG.s:5076   .text.shellExec:00000000 $t
C:\Users\huav\AppData\Local\Temp\cc1GSGvG.s:5083   .text.shellExec:00000000 shellExec
C:\Users\huav\AppData\Local\Temp\cc1GSGvG.s:5189   .text.shellExec:00000060 $d
C:\Users\huav\AppData\Local\Temp\cc1GSGvG.s:5195   .text.shellEnter:00000000 $t
C:\Users\huav\AppData\Local\Temp\cc1GSGvG.s:5202   .text.shellEnter:00000000 shellEnter
C:\Users\huav\AppData\Local\Temp\cc1GSGvG.s:5231   .text.shellHandler:00000000 $t
C:\Users\huav\AppData\Local\Temp\cc1GSGvG.s:5238   .text.shellHandler:00000000 shellHandler
C:\Users\huav\AppData\Local\Temp\cc1GSGvG.s:5456   .text.shellHandler:000000d4 $d
C:\Users\huav\AppData\Local\Temp\cc1GSGvG.s:5461   .text.shellTask:00000000 $t
C:\Users\huav\AppData\Local\Temp\cc1GSGvG.s:5468   .text.shellTask:00000000 shellTask
C:\Users\huav\AppData\Local\Temp\cc1GSGvG.s:5531   .text.shellRun:00000000 $t
C:\Users\huav\AppData\Local\Temp\cc1GSGvG.s:5538   .text.shellRun:00000000 shellRun
C:\Users\huav\AppData\Local\Temp\cc1GSGvG.s:5642   .text.shellRun:0000005c $d
C:\Users\huav\AppData\Local\Temp\cc1GSGvG.s:5871   shellCommand:00000000 shellCommandclear
C:\Users\huav\AppData\Local\Temp\cc1GSGvG.s:5823   .rodata.shellDescclear:00000000 shellDescclear
C:\Users\huav\AppData\Local\Temp\cc1GSGvG.s:5715   .rodata.shellCmdclear:00000000 shellCmdclear
C:\Users\huav\AppData\Local\Temp\cc1GSGvG.s:5878   shellCommand:00000010 shellCommandkeys
C:\Users\huav\AppData\Local\Temp\cc1GSGvG.s:5841   .rodata.shellDesckeys:00000000 shellDesckeys
C:\Users\huav\AppData\Local\Temp\cc1GSGvG.s:5733   .rodata.shellCmdkeys:00000000 shellCmdkeys
C:\Users\huav\AppData\Local\Temp\cc1GSGvG.s:5885   shellCommand:00000020 shellCommandvars
C:\Users\huav\AppData\Local\Temp\cc1GSGvG.s:5859   .rodata.shellDescvars:00000000 shellDescvars
ARM GAS  C:\Users\huav\AppData\Local\Temp\cc1GSGvG.s 			page 164


C:\Users\huav\AppData\Local\Temp\cc1GSGvG.s:5751   .rodata.shellCmdvars:00000000 shellCmdvars
C:\Users\huav\AppData\Local\Temp\cc1GSGvG.s:5892   shellCommand:00000030 shellCommandcmds
C:\Users\huav\AppData\Local\Temp\cc1GSGvG.s:5829   .rodata.shellDesccmds:00000000 shellDesccmds
C:\Users\huav\AppData\Local\Temp\cc1GSGvG.s:5721   .rodata.shellCmdcmds:00000000 shellCmdcmds
C:\Users\huav\AppData\Local\Temp\cc1GSGvG.s:5899   shellCommand:00000040 shellCommandusers
C:\Users\huav\AppData\Local\Temp\cc1GSGvG.s:5853   .rodata.shellDescusers:00000000 shellDescusers
C:\Users\huav\AppData\Local\Temp\cc1GSGvG.s:5745   .rodata.shellCmdusers:00000000 shellCmdusers
C:\Users\huav\AppData\Local\Temp\cc1GSGvG.s:5906   shellCommand:00000050 shellCommandhelp
C:\Users\huav\AppData\Local\Temp\cc1GSGvG.s:5835   .rodata.shellDeschelp:00000000 shellDeschelp
C:\Users\huav\AppData\Local\Temp\cc1GSGvG.s:5727   .rodata.shellCmdhelp:00000000 shellCmdhelp
C:\Users\huav\AppData\Local\Temp\cc1GSGvG.s:5913   shellCommand:00000060 shellKey0x0D000000
C:\Users\huav\AppData\Local\Temp\cc1GSGvG.s:5781   .rodata.shellDesc0x0D000000:00000000 shellDesc0x0D000000
C:\Users\huav\AppData\Local\Temp\cc1GSGvG.s:5920   shellCommand:00000070 shellKey0x0A000000
C:\Users\huav\AppData\Local\Temp\cc1GSGvG.s:5775   .rodata.shellDesc0x0A000000:00000000 shellDesc0x0A000000
C:\Users\huav\AppData\Local\Temp\cc1GSGvG.s:5927   shellCommand:00000080 shellKey0x1B5B337E
C:\Users\huav\AppData\Local\Temp\cc1GSGvG.s:5787   .rodata.shellDesc0x1B5B337E:00000000 shellDesc0x1B5B337E
C:\Users\huav\AppData\Local\Temp\cc1GSGvG.s:5934   shellCommand:00000090 shellKey0x7F000000
C:\Users\huav\AppData\Local\Temp\cc1GSGvG.s:5817   .rodata.shellDesc0x7F000000:00000000 shellDesc0x7F000000
C:\Users\huav\AppData\Local\Temp\cc1GSGvG.s:5941   shellCommand:000000a0 shellKey0x08000000
C:\Users\huav\AppData\Local\Temp\cc1GSGvG.s:5763   .rodata.shellDesc0x08000000:00000000 shellDesc0x08000000
C:\Users\huav\AppData\Local\Temp\cc1GSGvG.s:5948   shellCommand:000000b0 shellKey0x09000000
C:\Users\huav\AppData\Local\Temp\cc1GSGvG.s:5769   .rodata.shellDesc0x09000000:00000000 shellDesc0x09000000
C:\Users\huav\AppData\Local\Temp\cc1GSGvG.s:5955   shellCommand:000000c0 shellKey0x1B5B4400
C:\Users\huav\AppData\Local\Temp\cc1GSGvG.s:5811   .rodata.shellDesc0x1B5B4400:00000000 shellDesc0x1B5B4400
C:\Users\huav\AppData\Local\Temp\cc1GSGvG.s:5962   shellCommand:000000d0 shellKey0x1B5B4300
C:\Users\huav\AppData\Local\Temp\cc1GSGvG.s:5805   .rodata.shellDesc0x1B5B4300:00000000 shellDesc0x1B5B4300
C:\Users\huav\AppData\Local\Temp\cc1GSGvG.s:5969   shellCommand:000000e0 shellKey0x1B5B4200
C:\Users\huav\AppData\Local\Temp\cc1GSGvG.s:5799   .rodata.shellDesc0x1B5B4200:00000000 shellDesc0x1B5B4200
C:\Users\huav\AppData\Local\Temp\cc1GSGvG.s:5976   shellCommand:000000f0 shellKey0x1B5B4100
C:\Users\huav\AppData\Local\Temp\cc1GSGvG.s:5793   .rodata.shellDesc0x1B5B4100:00000000 shellDesc0x1B5B4100
C:\Users\huav\AppData\Local\Temp\cc1GSGvG.s:5983   shellCommand:00000100 shellCommandsetVar
C:\Users\huav\AppData\Local\Temp\cc1GSGvG.s:5847   .rodata.shellDescsetVar:00000000 shellDescsetVar
C:\Users\huav\AppData\Local\Temp\cc1GSGvG.s:5739   .rodata.shellCmdsetVar:00000000 shellCmdsetVar
C:\Users\huav\AppData\Local\Temp\cc1GSGvG.s:5990   shellCommand:00000110 shellUserDefault
C:\Users\huav\AppData\Local\Temp\cc1GSGvG.s:5757   .rodata.shellDesDefaultUser:00000000 shellDesDefaultUser
C:\Users\huav\AppData\Local\Temp\cc1GSGvG.s:5865   .rodata.shellPasswordDefaultUser:00000000 shellPasswordDefaultUser
C:\Users\huav\AppData\Local\Temp\cc1GSGvG.s:5709   .rodata.shellCmdDefaultUser:00000000 shellCmdDefaultUser
C:\Users\huav\AppData\Local\Temp\cc1GSGvG.s:5692   .bss.buffer.0:00000000 $d
C:\Users\huav\AppData\Local\Temp\cc1GSGvG.s:5696   .bss.buffer.0:00000000 buffer.0
C:\Users\huav\AppData\Local\Temp\cc1GSGvG.s:5699   .bss.shellList:00000000 $d
C:\Users\huav\AppData\Local\Temp\cc1GSGvG.s:5703   .bss.shellList:00000000 shellList
C:\Users\huav\AppData\Local\Temp\cc1GSGvG.s:5706   .rodata.shellCmdDefaultUser:00000000 $d
C:\Users\huav\AppData\Local\Temp\cc1GSGvG.s:5712   .rodata.shellCmdclear:00000000 $d
C:\Users\huav\AppData\Local\Temp\cc1GSGvG.s:5718   .rodata.shellCmdcmds:00000000 $d
C:\Users\huav\AppData\Local\Temp\cc1GSGvG.s:5724   .rodata.shellCmdhelp:00000000 $d
C:\Users\huav\AppData\Local\Temp\cc1GSGvG.s:5730   .rodata.shellCmdkeys:00000000 $d
C:\Users\huav\AppData\Local\Temp\cc1GSGvG.s:5736   .rodata.shellCmdsetVar:00000000 $d
C:\Users\huav\AppData\Local\Temp\cc1GSGvG.s:5742   .rodata.shellCmdusers:00000000 $d
C:\Users\huav\AppData\Local\Temp\cc1GSGvG.s:5748   .rodata.shellCmdvars:00000000 $d
C:\Users\huav\AppData\Local\Temp\cc1GSGvG.s:5754   .rodata.shellDesDefaultUser:00000000 $d
C:\Users\huav\AppData\Local\Temp\cc1GSGvG.s:5760   .rodata.shellDesc0x08000000:00000000 $d
C:\Users\huav\AppData\Local\Temp\cc1GSGvG.s:5766   .rodata.shellDesc0x09000000:00000000 $d
C:\Users\huav\AppData\Local\Temp\cc1GSGvG.s:5772   .rodata.shellDesc0x0A000000:00000000 $d
C:\Users\huav\AppData\Local\Temp\cc1GSGvG.s:5778   .rodata.shellDesc0x0D000000:00000000 $d
C:\Users\huav\AppData\Local\Temp\cc1GSGvG.s:5784   .rodata.shellDesc0x1B5B337E:00000000 $d
C:\Users\huav\AppData\Local\Temp\cc1GSGvG.s:5790   .rodata.shellDesc0x1B5B4100:00000000 $d
C:\Users\huav\AppData\Local\Temp\cc1GSGvG.s:5796   .rodata.shellDesc0x1B5B4200:00000000 $d
ARM GAS  C:\Users\huav\AppData\Local\Temp\cc1GSGvG.s 			page 165


C:\Users\huav\AppData\Local\Temp\cc1GSGvG.s:5802   .rodata.shellDesc0x1B5B4300:00000000 $d
C:\Users\huav\AppData\Local\Temp\cc1GSGvG.s:5808   .rodata.shellDesc0x1B5B4400:00000000 $d
C:\Users\huav\AppData\Local\Temp\cc1GSGvG.s:5814   .rodata.shellDesc0x7F000000:00000000 $d
C:\Users\huav\AppData\Local\Temp\cc1GSGvG.s:5820   .rodata.shellDescclear:00000000 $d
C:\Users\huav\AppData\Local\Temp\cc1GSGvG.s:5826   .rodata.shellDesccmds:00000000 $d
C:\Users\huav\AppData\Local\Temp\cc1GSGvG.s:5832   .rodata.shellDeschelp:00000000 $d
C:\Users\huav\AppData\Local\Temp\cc1GSGvG.s:5838   .rodata.shellDesckeys:00000000 $d
C:\Users\huav\AppData\Local\Temp\cc1GSGvG.s:5844   .rodata.shellDescsetVar:00000000 $d
C:\Users\huav\AppData\Local\Temp\cc1GSGvG.s:5850   .rodata.shellDescusers:00000000 $d
C:\Users\huav\AppData\Local\Temp\cc1GSGvG.s:5856   .rodata.shellDescvars:00000000 $d
C:\Users\huav\AppData\Local\Temp\cc1GSGvG.s:5862   .rodata.shellPasswordDefaultUser:00000000 $d
C:\Users\huav\AppData\Local\Temp\cc1GSGvG.s:5868   shellCommand:00000000 $d

UNDEFINED SYMBOLS
strcmp
strlen
vsnprintf
vsscanf
strncmp
_shell_command_start
_shell_command_end
shellExtRun
