ARM GAS  /var/folders/lx/hc4sn_b53233_zkc9xbbl97r0000gp/T//ccH6Fmkq.s 			page 1


   1              		.cpu cortex-m4
   2              		.eabi_attribute 27, 1
   3              		.eabi_attribute 28, 1
   4              		.eabi_attribute 20, 1
   5              		.eabi_attribute 21, 1
   6              		.eabi_attribute 23, 3
   7              		.eabi_attribute 24, 1
   8              		.eabi_attribute 25, 1
   9              		.eabi_attribute 26, 1
  10              		.eabi_attribute 30, 1
  11              		.eabi_attribute 34, 1
  12              		.eabi_attribute 18, 4
  13              		.file	"SrvInput.c"
  14              		.text
  15              	.Ltext0:
  16              		.cfi_sections	.debug_frame
  17              		.section	.text.SrvInput_Sample,"ax",%progbits
  18              		.align	1
  19              		.arch armv7e-m
  20              		.syntax unified
  21              		.thumb
  22              		.thumb_func
  23              		.fpu fpv4-sp-d16
  25              	SrvInput_Sample:
  26              	.LFB1:
  27              		.file 1 "App/Task_Input/SrvInput.c"
   1:App/Task_Input/SrvInput.c **** #include "SrvInput.h"
   2:App/Task_Input/SrvInput.c **** #include "drv_adc.h"
   3:App/Task_Input/SrvInput.c **** 
   4:App/Task_Input/SrvInput.c **** /* internal variable */
   5:App/Task_Input/SrvInput.c **** static SrvInput_Data_TypeDef InputData;
   6:App/Task_Input/SrvInput.c **** 
   7:App/Task_Input/SrvInput.c **** /* internal funciton */
   8:App/Task_Input/SrvInput.c **** static void SrvInput_Init(void);
   9:App/Task_Input/SrvInput.c **** static void SrvInput_Sample(void);
  10:App/Task_Input/SrvInput.c **** static SrvInput_Data_TypeDef SrvInput_GetData(void);
  11:App/Task_Input/SrvInput.c **** 
  12:App/Task_Input/SrvInput.c **** /* external variable */
  13:App/Task_Input/SrvInput.c **** SrvInput_TypeDef InputObj = {
  14:App/Task_Input/SrvInput.c ****     .init = SrvInput_Init,
  15:App/Task_Input/SrvInput.c ****     .sample = SrvInput_Sample,
  16:App/Task_Input/SrvInput.c ****     .get_data = SrvInput_GetData,
  17:App/Task_Input/SrvInput.c **** };
  18:App/Task_Input/SrvInput.c **** 
  19:App/Task_Input/SrvInput.c **** static void SrvInput_Init(void)
  20:App/Task_Input/SrvInput.c **** {
  21:App/Task_Input/SrvInput.c ****     memset(&InputData, 0, sizeof(InputData));
  22:App/Task_Input/SrvInput.c **** 
  23:App/Task_Input/SrvInput.c ****     /* analog input init */
  24:App/Task_Input/SrvInput.c ****     /* left gimbal init */
  25:App/Task_Input/SrvInput.c **** 
  26:App/Task_Input/SrvInput.c ****     /* right gimbal init */
  27:App/Task_Input/SrvInput.c **** 
  28:App/Task_Input/SrvInput.c ****     /* pot on both side init */
  29:App/Task_Input/SrvInput.c **** 
  30:App/Task_Input/SrvInput.c ****     /* toggle init */
  31:App/Task_Input/SrvInput.c **** 
ARM GAS  /var/folders/lx/hc4sn_b53233_zkc9xbbl97r0000gp/T//ccH6Fmkq.s 			page 2


  32:App/Task_Input/SrvInput.c ****     /* button init */
  33:App/Task_Input/SrvInput.c **** 
  34:App/Task_Input/SrvInput.c ****     /* encoder init */
  35:App/Task_Input/SrvInput.c **** }
  36:App/Task_Input/SrvInput.c **** 
  37:App/Task_Input/SrvInput.c **** static void SrvInput_Sample(void)
  38:App/Task_Input/SrvInput.c **** {
  28              		.loc 1 38 1 view -0
  29              		.cfi_startproc
  30              		@ args = 0, pretend = 0, frame = 0
  31              		@ frame_needed = 0, uses_anonymous_args = 0
  32              		@ link register save eliminated.
  39:App/Task_Input/SrvInput.c **** }
  33              		.loc 1 39 1 view .LVU1
  34 0000 7047     		bx	lr
  35              		.cfi_endproc
  36              	.LFE1:
  38              		.section	.text.SrvInput_GetData,"ax",%progbits
  39              		.align	1
  40              		.syntax unified
  41              		.thumb
  42              		.thumb_func
  43              		.fpu fpv4-sp-d16
  45              	SrvInput_GetData:
  46              	.LVL0:
  47              	.LFB2:
  40:App/Task_Input/SrvInput.c **** 
  41:App/Task_Input/SrvInput.c **** static SrvInput_Data_TypeDef SrvInput_GetData(void)
  42:App/Task_Input/SrvInput.c **** {
  48              		.loc 1 42 1 view -0
  49              		.cfi_startproc
  50              		@ args = 0, pretend = 0, frame = 0
  51              		@ frame_needed = 0, uses_anonymous_args = 0
  52              		@ link register save eliminated.
  53              		.loc 1 42 1 is_stmt 0 view .LVU3
  54 0000 10B4     		push	{r4}
  55              	.LCFI0:
  56              		.cfi_def_cfa_offset 4
  57              		.cfi_offset 4, -4
  58 0002 8446     		mov	ip, r0
  43:App/Task_Input/SrvInput.c ****     return InputData;
  59              		.loc 1 43 5 is_stmt 1 view .LVU4
  60              		.loc 1 43 12 is_stmt 0 view .LVU5
  61 0004 094C     		ldr	r4, .L4
  62 0006 0FCC     		ldmia	r4!, {r0, r1, r2, r3}
  63              	.LVL1:
  64              		.loc 1 43 12 view .LVU6
  65 0008 CCF80000 		str	r0, [ip]	@ unaligned
  66 000c CCF80410 		str	r1, [ip, #4]	@ unaligned
  67 0010 CCF80820 		str	r2, [ip, #8]	@ unaligned
  68 0014 CCF80C30 		str	r3, [ip, #12]	@ unaligned
  69 0018 2068     		ldr	r0, [r4]
  70 001a CCF81000 		str	r0, [ip, #16]	@ unaligned
  71 001e A388     		ldrh	r3, [r4, #4]	@ unaligned
  72 0020 ACF81430 		strh	r3, [ip, #20]	@ unaligned
  44:App/Task_Input/SrvInput.c **** }
  73              		.loc 1 44 1 view .LVU7
ARM GAS  /var/folders/lx/hc4sn_b53233_zkc9xbbl97r0000gp/T//ccH6Fmkq.s 			page 3


  74 0024 6046     		mov	r0, ip
  75 0026 5DF8044B 		ldr	r4, [sp], #4
  76              	.LCFI1:
  77              		.cfi_restore 4
  78              		.cfi_def_cfa_offset 0
  79 002a 7047     		bx	lr
  80              	.L5:
  81              		.align	2
  82              	.L4:
  83 002c 00000000 		.word	.LANCHOR0
  84              		.cfi_endproc
  85              	.LFE2:
  87              		.section	.text.SrvInput_Init,"ax",%progbits
  88              		.align	1
  89              		.syntax unified
  90              		.thumb
  91              		.thumb_func
  92              		.fpu fpv4-sp-d16
  94              	SrvInput_Init:
  95              	.LFB0:
  20:App/Task_Input/SrvInput.c ****     memset(&InputData, 0, sizeof(InputData));
  96              		.loc 1 20 1 is_stmt 1 view -0
  97              		.cfi_startproc
  98              		@ args = 0, pretend = 0, frame = 0
  99              		@ frame_needed = 0, uses_anonymous_args = 0
 100              		@ link register save eliminated.
  21:App/Task_Input/SrvInput.c **** 
 101              		.loc 1 21 5 view .LVU9
 102 0000 044B     		ldr	r3, .L7
 103 0002 0022     		movs	r2, #0
 104 0004 1A60     		str	r2, [r3]
 105 0006 5A60     		str	r2, [r3, #4]
 106 0008 9A60     		str	r2, [r3, #8]
 107 000a DA60     		str	r2, [r3, #12]
 108 000c 1A61     		str	r2, [r3, #16]
 109 000e 9A82     		strh	r2, [r3, #20]	@ movhi
  35:App/Task_Input/SrvInput.c **** 
 110              		.loc 1 35 1 is_stmt 0 view .LVU10
 111 0010 7047     		bx	lr
 112              	.L8:
 113 0012 00BF     		.align	2
 114              	.L7:
 115 0014 00000000 		.word	.LANCHOR0
 116              		.cfi_endproc
 117              	.LFE0:
 119              		.global	InputObj
 120              		.section	.bss.InputData,"aw",%nobits
 121              		.align	2
 122              		.set	.LANCHOR0,. + 0
 125              	InputData:
 126 0000 00000000 		.space	22
 126      00000000 
 126      00000000 
 126      00000000 
 126      00000000 
 127              		.section	.data.InputObj,"aw"
 128              		.align	2
ARM GAS  /var/folders/lx/hc4sn_b53233_zkc9xbbl97r0000gp/T//ccH6Fmkq.s 			page 4


 131              	InputObj:
 132 0000 00000000 		.word	SrvInput_Init
 133 0004 00000000 		.word	SrvInput_Sample
 134 0008 00000000 		.word	SrvInput_GetData
 135              		.text
 136              	.Letext0:
 137              		.file 2 "/usr/local/arm-none-eabi-gcc/gcc-arm-none-eabi-10-2020-q4-major/arm-none-eabi/include/mac
 138              		.file 3 "/usr/local/arm-none-eabi-gcc/gcc-arm-none-eabi-10-2020-q4-major/arm-none-eabi/include/sys
 139              		.file 4 "App/Task_Input/SrvInput.h"
ARM GAS  /var/folders/lx/hc4sn_b53233_zkc9xbbl97r0000gp/T//ccH6Fmkq.s 			page 5


DEFINED SYMBOLS
                            *ABS*:0000000000000000 SrvInput.c
/var/folders/lx/hc4sn_b53233_zkc9xbbl97r0000gp/T//ccH6Fmkq.s:18     .text.SrvInput_Sample:0000000000000000 $t
/var/folders/lx/hc4sn_b53233_zkc9xbbl97r0000gp/T//ccH6Fmkq.s:25     .text.SrvInput_Sample:0000000000000000 SrvInput_Sample
/var/folders/lx/hc4sn_b53233_zkc9xbbl97r0000gp/T//ccH6Fmkq.s:39     .text.SrvInput_GetData:0000000000000000 $t
/var/folders/lx/hc4sn_b53233_zkc9xbbl97r0000gp/T//ccH6Fmkq.s:45     .text.SrvInput_GetData:0000000000000000 SrvInput_GetData
/var/folders/lx/hc4sn_b53233_zkc9xbbl97r0000gp/T//ccH6Fmkq.s:83     .text.SrvInput_GetData:000000000000002c $d
/var/folders/lx/hc4sn_b53233_zkc9xbbl97r0000gp/T//ccH6Fmkq.s:88     .text.SrvInput_Init:0000000000000000 $t
/var/folders/lx/hc4sn_b53233_zkc9xbbl97r0000gp/T//ccH6Fmkq.s:94     .text.SrvInput_Init:0000000000000000 SrvInput_Init
/var/folders/lx/hc4sn_b53233_zkc9xbbl97r0000gp/T//ccH6Fmkq.s:115    .text.SrvInput_Init:0000000000000014 $d
/var/folders/lx/hc4sn_b53233_zkc9xbbl97r0000gp/T//ccH6Fmkq.s:131    .data.InputObj:0000000000000000 InputObj
/var/folders/lx/hc4sn_b53233_zkc9xbbl97r0000gp/T//ccH6Fmkq.s:121    .bss.InputData:0000000000000000 $d
/var/folders/lx/hc4sn_b53233_zkc9xbbl97r0000gp/T//ccH6Fmkq.s:125    .bss.InputData:0000000000000000 InputData
/var/folders/lx/hc4sn_b53233_zkc9xbbl97r0000gp/T//ccH6Fmkq.s:128    .data.InputObj:0000000000000000 $d

NO UNDEFINED SYMBOLS
