ARM GAS  /var/folders/lx/hc4sn_b53233_zkc9xbbl97r0000gp/T//ccbhAwju.s 			page 1


   1              		.cpu cortex-m4
   2              		.eabi_attribute 27, 1
   3              		.eabi_attribute 28, 1
   4              		.eabi_attribute 20, 1
   5              		.eabi_attribute 21, 1
   6              		.eabi_attribute 23, 3
   7              		.eabi_attribute 24, 1
   8              		.eabi_attribute 25, 1
   9              		.eabi_attribute 26, 1
  10              		.eabi_attribute 30, 1
  11              		.eabi_attribute 34, 1
  12              		.eabi_attribute 18, 4
  13              		.file	"SrvInput.c"
  14              		.text
  15              	.Ltext0:
  16              		.cfi_sections	.debug_frame
  17              		.section	.text.SrvInput_Init,"ax",%progbits
  18              		.align	1
  19              		.arch armv7e-m
  20              		.syntax unified
  21              		.thumb
  22              		.thumb_func
  23              		.fpu fpv4-sp-d16
  25              	SrvInput_Init:
  26              	.LFB123:
  27              		.file 1 "App/Task_Input/SrvInput.c"
   1:App/Task_Input/SrvInput.c **** #include "SrvInput.h"
   2:App/Task_Input/SrvInput.c **** #include "Input_IO_Def.h"
   3:App/Task_Input/SrvInput.c **** 
   4:App/Task_Input/SrvInput.c **** /* internal variable */
   5:App/Task_Input/SrvInput.c **** static SrvInput_Data_TypeDef InputData;
   6:App/Task_Input/SrvInput.c **** 
   7:App/Task_Input/SrvInput.c **** /* input hardware abstract object */
   8:App/Task_Input/SrvInput.c **** static DevEncoder_Obj_TypeDef Encoder_Obj;
   9:App/Task_Input/SrvInput.c **** //static DevGimbal_Obj_TypeDef Gimbal_L_Obj;
  10:App/Task_Input/SrvInput.c **** //static DevGimbal_Obj_TypeDef Gimbal_R_Obj;
  11:App/Task_Input/SrvInput.c **** //static DevButton_TypeDef Btn_LShoulder_Obj;
  12:App/Task_Input/SrvInput.c **** //static DevButton_TypeDef Btn_RShoulder_Obj;
  13:App/Task_Input/SrvInput.c **** //static DirButton_Obj_TypeDef Btn_5Dir_Obj;
  14:App/Task_Input/SrvInput.c **** 
  15:App/Task_Input/SrvInput.c **** /* internal funciton */
  16:App/Task_Input/SrvInput.c **** static SrvInput_Error_List SrvInput_Init(void);
  17:App/Task_Input/SrvInput.c **** static SrvInput_Error_List SrvInput_Update(void);
  18:App/Task_Input/SrvInput.c **** static SrvInput_Data_TypeDef SrvInput_GetData(void);
  19:App/Task_Input/SrvInput.c **** 
  20:App/Task_Input/SrvInput.c **** /* internal function */
  21:App/Task_Input/SrvInput.c **** 
  22:App/Task_Input/SrvInput.c **** /* external variable */
  23:App/Task_Input/SrvInput.c **** SrvInput_TypeDef InputObj = {
  24:App/Task_Input/SrvInput.c ****     .init = SrvInput_Init,
  25:App/Task_Input/SrvInput.c ****     .sample = SrvInput_Update,
  26:App/Task_Input/SrvInput.c ****     .get_data = SrvInput_GetData,
  27:App/Task_Input/SrvInput.c **** };
  28:App/Task_Input/SrvInput.c **** 
  29:App/Task_Input/SrvInput.c **** static SrvInput_Error_List SrvInput_Init(void)
  30:App/Task_Input/SrvInput.c **** {
  28              		.loc 1 30 1 view -0
ARM GAS  /var/folders/lx/hc4sn_b53233_zkc9xbbl97r0000gp/T//ccbhAwju.s 			page 2


  29              		.cfi_startproc
  30              		@ args = 0, pretend = 0, frame = 48
  31              		@ frame_needed = 0, uses_anonymous_args = 0
  32 0000 10B5     		push	{r4, lr}
  33              	.LCFI0:
  34              		.cfi_def_cfa_offset 8
  35              		.cfi_offset 4, -8
  36              		.cfi_offset 14, -4
  37 0002 8CB0     		sub	sp, sp, #48
  38              	.LCFI1:
  39              		.cfi_def_cfa_offset 56
  31:App/Task_Input/SrvInput.c ****     /* encoder pin */
  32:App/Task_Input/SrvInput.c ****     DrvGPIO_Obj_TypeDef EncPin[Encoder_IO_Sum];
  40              		.loc 1 32 5 view .LVU1
  33:App/Task_Input/SrvInput.c **** 
  34:App/Task_Input/SrvInput.c ****     InputData.error = SrvInput_Initial;
  41              		.loc 1 34 5 view .LVU2
  42              		.loc 1 34 21 is_stmt 0 view .LVU3
  43 0004 0124     		movs	r4, #1
  44 0006 124B     		ldr	r3, .L6
  45 0008 DC75     		strb	r4, [r3, #23]
  35:App/Task_Input/SrvInput.c **** 
  36:App/Task_Input/SrvInput.c ****     EncPin[Encoder_IO_A] = Encoder_A_Pin;
  46              		.loc 1 36 5 is_stmt 1 view .LVU4
  47              		.loc 1 36 26 is_stmt 0 view .LVU5
  48 000a 124B     		ldr	r3, .L6+4
  49 000c EC46     		mov	ip, sp
  50 000e 0FCB     		ldm	r3, {r0, r1, r2, r3}
  51 0010 8CE80F00 		stm	ip, {r0, r1, r2, r3}
  37:App/Task_Input/SrvInput.c ****     EncPin[Encoder_IO_B] = Encoder_B_Pin;
  52              		.loc 1 37 5 is_stmt 1 view .LVU6
  53              		.loc 1 37 26 is_stmt 0 view .LVU7
  54 0014 104B     		ldr	r3, .L6+8
  55 0016 0DF1100E 		add	lr, sp, #16
  56 001a 0FCB     		ldm	r3, {r0, r1, r2, r3}
  57 001c 8EE80F00 		stm	lr, {r0, r1, r2, r3}
  38:App/Task_Input/SrvInput.c ****     EncPin[Encoder_IO_Btn] = Encoder_Btn;
  58              		.loc 1 38 5 is_stmt 1 view .LVU8
  59              		.loc 1 38 28 is_stmt 0 view .LVU9
  60 0020 0E4B     		ldr	r3, .L6+12
  61 0022 0FCB     		ldm	r3, {r0, r1, r2, r3}
  62 0024 0DF1300E 		add	lr, sp, #48
  63 0028 0EE90F00 		stmdb	lr, {r0, r1, r2, r3}
  39:App/Task_Input/SrvInput.c **** 
  40:App/Task_Input/SrvInput.c ****     Encoder_Obj.TimerObj.timerx = Timer_3;
  64              		.loc 1 40 5 is_stmt 1 view .LVU10
  65              		.loc 1 40 33 is_stmt 0 view .LVU11
  66 002c 0C48     		ldr	r0, .L6+16
  67 002e 4470     		strb	r4, [r0, #1]
  41:App/Task_Input/SrvInput.c **** 
  42:App/Task_Input/SrvInput.c ****     /* init encoder */
  43:App/Task_Input/SrvInput.c ****     if (!DevEncoder.open(&Encoder_Obj, EncPin, true))
  68              		.loc 1 43 5 is_stmt 1 view .LVU12
  69              		.loc 1 43 20 is_stmt 0 view .LVU13
  70 0030 0C4B     		ldr	r3, .L6+20
  71 0032 1B68     		ldr	r3, [r3]
  72              		.loc 1 43 10 view .LVU14
ARM GAS  /var/folders/lx/hc4sn_b53233_zkc9xbbl97r0000gp/T//ccbhAwju.s 			page 3


  73 0034 2246     		mov	r2, r4
  74 0036 6146     		mov	r1, ip
  75 0038 9847     		blx	r3
  76              	.LVL0:
  77              		.loc 1 43 8 view .LVU15
  78 003a 20B1     		cbz	r0, .L5
  44:App/Task_Input/SrvInput.c ****     {
  45:App/Task_Input/SrvInput.c ****         InputData.error = SrvInput_Encoder_Error;
  46:App/Task_Input/SrvInput.c ****         return SrvInput_Encoder_Error;
  47:App/Task_Input/SrvInput.c ****     }
  48:App/Task_Input/SrvInput.c **** 
  49:App/Task_Input/SrvInput.c ****     /* init gimbal */
  50:App/Task_Input/SrvInput.c **** 
  51:App/Task_Input/SrvInput.c ****     /* init direction button */
  52:App/Task_Input/SrvInput.c **** 
  53:App/Task_Input/SrvInput.c ****     /* init shoulder button */
  54:App/Task_Input/SrvInput.c **** 
  55:App/Task_Input/SrvInput.c ****     /* init shoulder toggle */
  56:App/Task_Input/SrvInput.c **** 
  57:App/Task_Input/SrvInput.c ****     /* init side pot */
  58:App/Task_Input/SrvInput.c **** 
  59:App/Task_Input/SrvInput.c ****     InputData.error = SrvInput_NoError;
  79              		.loc 1 59 5 is_stmt 1 view .LVU16
  80              		.loc 1 59 21 is_stmt 0 view .LVU17
  81 003c 0020     		movs	r0, #0
  82 003e 044B     		ldr	r3, .L6
  83 0040 D875     		strb	r0, [r3, #23]
  60:App/Task_Input/SrvInput.c ****     return SrvInput_NoError;
  84              		.loc 1 60 5 is_stmt 1 view .LVU18
  85              	.L3:
  61:App/Task_Input/SrvInput.c **** }
  86              		.loc 1 61 1 is_stmt 0 view .LVU19
  87 0042 0CB0     		add	sp, sp, #48
  88              	.LCFI2:
  89              		.cfi_remember_state
  90              		.cfi_def_cfa_offset 8
  91              		@ sp needed
  92 0044 10BD     		pop	{r4, pc}
  93              	.L5:
  94              	.LCFI3:
  95              		.cfi_restore_state
  45:App/Task_Input/SrvInput.c ****         return SrvInput_Encoder_Error;
  96              		.loc 1 45 9 is_stmt 1 view .LVU20
  45:App/Task_Input/SrvInput.c ****         return SrvInput_Encoder_Error;
  97              		.loc 1 45 25 is_stmt 0 view .LVU21
  98 0046 0220     		movs	r0, #2
  99 0048 014B     		ldr	r3, .L6
 100 004a D875     		strb	r0, [r3, #23]
  46:App/Task_Input/SrvInput.c ****     }
 101              		.loc 1 46 9 is_stmt 1 view .LVU22
  46:App/Task_Input/SrvInput.c ****     }
 102              		.loc 1 46 16 is_stmt 0 view .LVU23
 103 004c F9E7     		b	.L3
 104              	.L7:
 105 004e 00BF     		.align	2
 106              	.L6:
 107 0050 00000000 		.word	.LANCHOR0
ARM GAS  /var/folders/lx/hc4sn_b53233_zkc9xbbl97r0000gp/T//ccbhAwju.s 			page 4


 108 0054 00000000 		.word	Encoder_A_Pin
 109 0058 00000000 		.word	Encoder_B_Pin
 110 005c 00000000 		.word	Encoder_Btn
 111 0060 00000000 		.word	.LANCHOR1
 112 0064 00000000 		.word	DevEncoder
 113              		.cfi_endproc
 114              	.LFE123:
 116              		.section	.text.SrvInput_Update,"ax",%progbits
 117              		.align	1
 118              		.syntax unified
 119              		.thumb
 120              		.thumb_func
 121              		.fpu fpv4-sp-d16
 123              	SrvInput_Update:
 124              	.LFB124:
  62:App/Task_Input/SrvInput.c **** 
  63:App/Task_Input/SrvInput.c **** static SrvInput_Error_List SrvInput_Update(void)
  64:App/Task_Input/SrvInput.c **** {
 125              		.loc 1 64 1 is_stmt 1 view -0
 126              		.cfi_startproc
 127              		@ args = 0, pretend = 0, frame = 8
 128              		@ frame_needed = 0, uses_anonymous_args = 0
  65:App/Task_Input/SrvInput.c ****     if (InputData.error != SrvInput_NoError)
 129              		.loc 1 65 5 view .LVU25
 130              		.loc 1 65 18 is_stmt 0 view .LVU26
 131 0000 094B     		ldr	r3, .L14
 132 0002 D87D     		ldrb	r0, [r3, #23]	@ zero_extendqisi2
 133              		.loc 1 65 8 view .LVU27
 134 0004 78B9     		cbnz	r0, .L11
  64:App/Task_Input/SrvInput.c ****     if (InputData.error != SrvInput_NoError)
 135              		.loc 1 64 1 view .LVU28
 136 0006 10B5     		push	{r4, lr}
 137              	.LCFI4:
 138              		.cfi_def_cfa_offset 8
 139              		.cfi_offset 4, -8
 140              		.cfi_offset 14, -4
 141 0008 82B0     		sub	sp, sp, #8
 142              	.LCFI5:
 143              		.cfi_def_cfa_offset 16
  66:App/Task_Input/SrvInput.c ****         return InputData.error;
  67:App/Task_Input/SrvInput.c **** 
  68:App/Task_Input/SrvInput.c ****     InputData.Enc_Val = DevEncoder.get(&Encoder_Obj);
 144              		.loc 1 68 5 is_stmt 1 view .LVU29
 145              		.loc 1 68 35 is_stmt 0 view .LVU30
 146 000a 084B     		ldr	r3, .L14+4
 147 000c 9B68     		ldr	r3, [r3, #8]
 148              		.loc 1 68 25 view .LVU31
 149 000e 064C     		ldr	r4, .L14
 150 0010 0749     		ldr	r1, .L14+8
 151 0012 6846     		mov	r0, sp
 152 0014 9847     		blx	r3
 153              	.LVL1:
 154 0016 009B     		ldr	r3, [sp]	@ unaligned
 155 0018 C4F80E30 		str	r3, [r4, #14]	@ unaligned
 156 001c BDF80430 		ldrh	r3, [sp, #4]	@ unaligned
 157 0020 6382     		strh	r3, [r4, #18]	@ unaligned
  69:App/Task_Input/SrvInput.c **** }
ARM GAS  /var/folders/lx/hc4sn_b53233_zkc9xbbl97r0000gp/T//ccbhAwju.s 			page 5


 158              		.loc 1 69 1 view .LVU32
 159 0022 02B0     		add	sp, sp, #8
 160              	.LCFI6:
 161              		.cfi_def_cfa_offset 8
 162              		@ sp needed
 163 0024 10BD     		pop	{r4, pc}
 164              	.L11:
 165              	.LCFI7:
 166              		.cfi_def_cfa_offset 0
 167              		.cfi_restore 4
 168              		.cfi_restore 14
 169 0026 7047     		bx	lr
 170              	.L15:
 171              		.align	2
 172              	.L14:
 173 0028 00000000 		.word	.LANCHOR0
 174 002c 00000000 		.word	DevEncoder
 175 0030 00000000 		.word	.LANCHOR1
 176              		.cfi_endproc
 177              	.LFE124:
 179              		.section	.text.SrvInput_GetData,"ax",%progbits
 180              		.align	1
 181              		.syntax unified
 182              		.thumb
 183              		.thumb_func
 184              		.fpu fpv4-sp-d16
 186              	SrvInput_GetData:
 187              	.LVL2:
 188              	.LFB125:
  70:App/Task_Input/SrvInput.c **** 
  71:App/Task_Input/SrvInput.c **** static SrvInput_Data_TypeDef SrvInput_GetData(void)
  72:App/Task_Input/SrvInput.c **** {
 189              		.loc 1 72 1 is_stmt 1 view -0
 190              		.cfi_startproc
 191              		@ args = 0, pretend = 0, frame = 0
 192              		@ frame_needed = 0, uses_anonymous_args = 0
 193              		@ link register save eliminated.
 194              		.loc 1 72 1 is_stmt 0 view .LVU34
 195 0000 10B4     		push	{r4}
 196              	.LCFI8:
 197              		.cfi_def_cfa_offset 4
 198              		.cfi_offset 4, -4
 199 0002 8446     		mov	ip, r0
  73:App/Task_Input/SrvInput.c ****     return InputData;
 200              		.loc 1 73 5 is_stmt 1 view .LVU35
 201              		.loc 1 73 12 is_stmt 0 view .LVU36
 202 0004 094C     		ldr	r4, .L18
 203 0006 0FCC     		ldmia	r4!, {r0, r1, r2, r3}
 204              	.LVL3:
 205              		.loc 1 73 12 view .LVU37
 206 0008 CCF80000 		str	r0, [ip]	@ unaligned
 207 000c CCF80410 		str	r1, [ip, #4]	@ unaligned
 208 0010 CCF80820 		str	r2, [ip, #8]	@ unaligned
 209 0014 CCF80C30 		str	r3, [ip, #12]	@ unaligned
 210 0018 03CC     		ldmia	r4!, {r0, r1}
 211 001a CCF81000 		str	r0, [ip, #16]	@ unaligned
 212 001e CCF81410 		str	r1, [ip, #20]	@ unaligned
ARM GAS  /var/folders/lx/hc4sn_b53233_zkc9xbbl97r0000gp/T//ccbhAwju.s 			page 6


  74:App/Task_Input/SrvInput.c **** }
 213              		.loc 1 74 1 view .LVU38
 214 0022 6046     		mov	r0, ip
 215 0024 5DF8044B 		ldr	r4, [sp], #4
 216              	.LCFI9:
 217              		.cfi_restore 4
 218              		.cfi_def_cfa_offset 0
 219 0028 7047     		bx	lr
 220              	.L19:
 221 002a 00BF     		.align	2
 222              	.L18:
 223 002c 00000000 		.word	.LANCHOR0
 224              		.cfi_endproc
 225              	.LFE125:
 227              		.global	InputObj
 228              		.section	.bss.Encoder_Obj,"aw",%nobits
 229              		.align	2
 230              		.set	.LANCHOR1,. + 0
 233              	Encoder_Obj:
 234 0000 00000000 		.space	72
 234      00000000 
 234      00000000 
 234      00000000 
 234      00000000 
 235              		.section	.bss.InputData,"aw",%nobits
 236              		.align	2
 237              		.set	.LANCHOR0,. + 0
 240              	InputData:
 241 0000 00000000 		.space	24
 241      00000000 
 241      00000000 
 241      00000000 
 241      00000000 
 242              		.section	.data.InputObj,"aw"
 243              		.align	2
 246              	InputObj:
 247 0000 00000000 		.word	SrvInput_Init
 248 0004 00000000 		.word	SrvInput_Update
 249 0008 00000000 		.word	SrvInput_GetData
 250              		.text
 251              	.Letext0:
 252              		.file 2 "/usr/local/arm-none-eabi-gcc/gcc-arm-none-eabi-10-2020-q4-major/arm-none-eabi/include/mac
 253              		.file 3 "/usr/local/arm-none-eabi-gcc/gcc-arm-none-eabi-10-2020-q4-major/arm-none-eabi/include/sys
 254              		.file 4 "Bsp/periph_gpio.h"
 255              		.file 5 "Dev/Dev_Toggle.h"
 256              		.file 6 "Dev/Dev_5DirButton.h"
 257              		.file 7 "Dev/Dev_Gimbal.h"
 258              		.file 8 "Bsp/periph_timer.h"
 259              		.file 9 "Drv/drv_timer.h"
 260              		.file 10 "Dev/Dev_Encoder.h"
 261              		.file 11 "App/Task_Input/SrvInput.h"
 262              		.file 12 "App/Task_Input/Input_IO_Def.h"
ARM GAS  /var/folders/lx/hc4sn_b53233_zkc9xbbl97r0000gp/T//ccbhAwju.s 			page 7


DEFINED SYMBOLS
                            *ABS*:0000000000000000 SrvInput.c
/var/folders/lx/hc4sn_b53233_zkc9xbbl97r0000gp/T//ccbhAwju.s:18     .text.SrvInput_Init:0000000000000000 $t
/var/folders/lx/hc4sn_b53233_zkc9xbbl97r0000gp/T//ccbhAwju.s:25     .text.SrvInput_Init:0000000000000000 SrvInput_Init
/var/folders/lx/hc4sn_b53233_zkc9xbbl97r0000gp/T//ccbhAwju.s:107    .text.SrvInput_Init:0000000000000050 $d
/var/folders/lx/hc4sn_b53233_zkc9xbbl97r0000gp/T//ccbhAwju.s:117    .text.SrvInput_Update:0000000000000000 $t
/var/folders/lx/hc4sn_b53233_zkc9xbbl97r0000gp/T//ccbhAwju.s:123    .text.SrvInput_Update:0000000000000000 SrvInput_Update
/var/folders/lx/hc4sn_b53233_zkc9xbbl97r0000gp/T//ccbhAwju.s:173    .text.SrvInput_Update:0000000000000028 $d
/var/folders/lx/hc4sn_b53233_zkc9xbbl97r0000gp/T//ccbhAwju.s:180    .text.SrvInput_GetData:0000000000000000 $t
/var/folders/lx/hc4sn_b53233_zkc9xbbl97r0000gp/T//ccbhAwju.s:186    .text.SrvInput_GetData:0000000000000000 SrvInput_GetData
/var/folders/lx/hc4sn_b53233_zkc9xbbl97r0000gp/T//ccbhAwju.s:223    .text.SrvInput_GetData:000000000000002c $d
/var/folders/lx/hc4sn_b53233_zkc9xbbl97r0000gp/T//ccbhAwju.s:246    .data.InputObj:0000000000000000 InputObj
/var/folders/lx/hc4sn_b53233_zkc9xbbl97r0000gp/T//ccbhAwju.s:229    .bss.Encoder_Obj:0000000000000000 $d
/var/folders/lx/hc4sn_b53233_zkc9xbbl97r0000gp/T//ccbhAwju.s:233    .bss.Encoder_Obj:0000000000000000 Encoder_Obj
/var/folders/lx/hc4sn_b53233_zkc9xbbl97r0000gp/T//ccbhAwju.s:236    .bss.InputData:0000000000000000 $d
/var/folders/lx/hc4sn_b53233_zkc9xbbl97r0000gp/T//ccbhAwju.s:240    .bss.InputData:0000000000000000 InputData
/var/folders/lx/hc4sn_b53233_zkc9xbbl97r0000gp/T//ccbhAwju.s:243    .data.InputObj:0000000000000000 $d

UNDEFINED SYMBOLS
Encoder_A_Pin
Encoder_B_Pin
Encoder_Btn
DevEncoder
