ARM GAS  /var/folders/lx/hc4sn_b53233_zkc9xbbl97r0000gp/T//ccZ9yGSm.s 			page 1


   1              		.cpu cortex-m4
   2              		.eabi_attribute 27, 1
   3              		.eabi_attribute 28, 1
   4              		.eabi_attribute 20, 1
   5              		.eabi_attribute 21, 1
   6              		.eabi_attribute 23, 3
   7              		.eabi_attribute 24, 1
   8              		.eabi_attribute 25, 1
   9              		.eabi_attribute 26, 1
  10              		.eabi_attribute 30, 1
  11              		.eabi_attribute 34, 1
  12              		.eabi_attribute 18, 4
  13              		.file	"SrvInput.c"
  14              		.text
  15              	.Ltext0:
  16              		.cfi_sections	.debug_frame
  17              		.section	.text.SrvInput_Sample,"ax",%progbits
  18              		.align	1
  19              		.arch armv7e-m
  20              		.syntax unified
  21              		.thumb
  22              		.thumb_func
  23              		.fpu fpv4-sp-d16
  25              	SrvInput_Sample:
  26              	.LFB1:
  27              		.file 1 "App/Task_Input/SrvInput.c"
   1:App/Task_Input/SrvInput.c **** #include "SrvInput.h"
   2:App/Task_Input/SrvInput.c **** #include "periph_adc.h"
   3:App/Task_Input/SrvInput.c **** 
   4:App/Task_Input/SrvInput.c **** /* internal variable */
   5:App/Task_Input/SrvInput.c **** static SrvInput_Data_TypeDef InputData;
   6:App/Task_Input/SrvInput.c **** 
   7:App/Task_Input/SrvInput.c **** /* internal funciton */
   8:App/Task_Input/SrvInput.c **** static void SrvInput_Init(void);
   9:App/Task_Input/SrvInput.c **** static void SrvInput_Sample(void);
  10:App/Task_Input/SrvInput.c **** static SrvInput_Data_TypeDef SrvInput_GetData(void);
  11:App/Task_Input/SrvInput.c **** 
  12:App/Task_Input/SrvInput.c **** /* external variable */
  13:App/Task_Input/SrvInput.c **** SrvInput_TypeDef InputObj = {
  14:App/Task_Input/SrvInput.c ****     .init = SrvInput_Init,
  15:App/Task_Input/SrvInput.c ****     .sample = SrvInput_Sample,
  16:App/Task_Input/SrvInput.c ****     .get_data = SrvInput_GetData,
  17:App/Task_Input/SrvInput.c **** };
  18:App/Task_Input/SrvInput.c **** 
  19:App/Task_Input/SrvInput.c **** static void SrvInput_Init(void)
  20:App/Task_Input/SrvInput.c **** {
  21:App/Task_Input/SrvInput.c ****     memset(&InputData, 0, sizeof(InputData));
  22:App/Task_Input/SrvInput.c **** 
  23:App/Task_Input/SrvInput.c ****     /* analog pin init */
  24:App/Task_Input/SrvInput.c ****     Periph_ADC_Init(GIMBAL_LEFT_X);
  25:App/Task_Input/SrvInput.c ****     Periph_ADC_Init(GIMBAL_LEFT_Y);
  26:App/Task_Input/SrvInput.c ****     Periph_ADC_Init(GIMBAL_RIGHT_X);
  27:App/Task_Input/SrvInput.c ****     Periph_ADC_Init(GIMBAL_RIGHT_Y);
  28:App/Task_Input/SrvInput.c ****     Periph_ADC_Init(POT_LEFT);
  29:App/Task_Input/SrvInput.c ****     Periph_ADC_Init(POT_RIGHT);
  30:App/Task_Input/SrvInput.c **** 
  31:App/Task_Input/SrvInput.c ****     /* toggle init */
ARM GAS  /var/folders/lx/hc4sn_b53233_zkc9xbbl97r0000gp/T//ccZ9yGSm.s 			page 2


  32:App/Task_Input/SrvInput.c **** 
  33:App/Task_Input/SrvInput.c ****     /* button init */
  34:App/Task_Input/SrvInput.c **** 
  35:App/Task_Input/SrvInput.c ****     /* encoder init */
  36:App/Task_Input/SrvInput.c **** }
  37:App/Task_Input/SrvInput.c **** 
  38:App/Task_Input/SrvInput.c **** static void SrvInput_Sample(void)
  39:App/Task_Input/SrvInput.c **** {
  28              		.loc 1 39 1 view -0
  29              		.cfi_startproc
  30              		@ args = 0, pretend = 0, frame = 0
  31              		@ frame_needed = 0, uses_anonymous_args = 0
  32              		@ link register save eliminated.
  40:App/Task_Input/SrvInput.c **** }
  33              		.loc 1 40 1 view .LVU1
  34 0000 7047     		bx	lr
  35              		.cfi_endproc
  36              	.LFE1:
  38              		.section	.text.SrvInput_GetData,"ax",%progbits
  39              		.align	1
  40              		.syntax unified
  41              		.thumb
  42              		.thumb_func
  43              		.fpu fpv4-sp-d16
  45              	SrvInput_GetData:
  46              	.LVL0:
  47              	.LFB2:
  41:App/Task_Input/SrvInput.c **** 
  42:App/Task_Input/SrvInput.c **** static SrvInput_Data_TypeDef SrvInput_GetData(void)
  43:App/Task_Input/SrvInput.c **** {
  48              		.loc 1 43 1 view -0
  49              		.cfi_startproc
  50              		@ args = 0, pretend = 0, frame = 0
  51              		@ frame_needed = 0, uses_anonymous_args = 0
  52              		@ link register save eliminated.
  53              		.loc 1 43 1 is_stmt 0 view .LVU3
  54 0000 10B4     		push	{r4}
  55              	.LCFI0:
  56              		.cfi_def_cfa_offset 4
  57              		.cfi_offset 4, -4
  58 0002 8446     		mov	ip, r0
  44:App/Task_Input/SrvInput.c ****     return InputData;
  59              		.loc 1 44 5 is_stmt 1 view .LVU4
  60              		.loc 1 44 12 is_stmt 0 view .LVU5
  61 0004 094C     		ldr	r4, .L4
  62 0006 0FCC     		ldmia	r4!, {r0, r1, r2, r3}
  63              	.LVL1:
  64              		.loc 1 44 12 view .LVU6
  65 0008 CCF80000 		str	r0, [ip]	@ unaligned
  66 000c CCF80410 		str	r1, [ip, #4]	@ unaligned
  67 0010 CCF80820 		str	r2, [ip, #8]	@ unaligned
  68 0014 CCF80C30 		str	r3, [ip, #12]	@ unaligned
  69 0018 2068     		ldr	r0, [r4]
  70 001a CCF81000 		str	r0, [ip, #16]	@ unaligned
  71 001e A388     		ldrh	r3, [r4, #4]	@ unaligned
  72 0020 ACF81430 		strh	r3, [ip, #20]	@ unaligned
  45:App/Task_Input/SrvInput.c **** }
ARM GAS  /var/folders/lx/hc4sn_b53233_zkc9xbbl97r0000gp/T//ccZ9yGSm.s 			page 3


  73              		.loc 1 45 1 view .LVU7
  74 0024 6046     		mov	r0, ip
  75 0026 5DF8044B 		ldr	r4, [sp], #4
  76              	.LCFI1:
  77              		.cfi_restore 4
  78              		.cfi_def_cfa_offset 0
  79 002a 7047     		bx	lr
  80              	.L5:
  81              		.align	2
  82              	.L4:
  83 002c 00000000 		.word	.LANCHOR0
  84              		.cfi_endproc
  85              	.LFE2:
  87              		.section	.text.SrvInput_Init,"ax",%progbits
  88              		.align	1
  89              		.syntax unified
  90              		.thumb
  91              		.thumb_func
  92              		.fpu fpv4-sp-d16
  94              	SrvInput_Init:
  95              	.LFB0:
  20:App/Task_Input/SrvInput.c ****     memset(&InputData, 0, sizeof(InputData));
  96              		.loc 1 20 1 is_stmt 1 view -0
  97              		.cfi_startproc
  98              		@ args = 0, pretend = 0, frame = 0
  99              		@ frame_needed = 0, uses_anonymous_args = 0
 100 0000 08B5     		push	{r3, lr}
 101              	.LCFI2:
 102              		.cfi_def_cfa_offset 8
 103              		.cfi_offset 3, -8
 104              		.cfi_offset 14, -4
  21:App/Task_Input/SrvInput.c **** 
 105              		.loc 1 21 5 view .LVU9
 106 0002 0D4B     		ldr	r3, .L8
 107 0004 0020     		movs	r0, #0
 108 0006 1860     		str	r0, [r3]
 109 0008 5860     		str	r0, [r3, #4]
 110 000a 9860     		str	r0, [r3, #8]
 111 000c D860     		str	r0, [r3, #12]
 112 000e 1861     		str	r0, [r3, #16]
 113 0010 9882     		strh	r0, [r3, #20]	@ movhi
  24:App/Task_Input/SrvInput.c ****     Periph_ADC_Init(GIMBAL_LEFT_Y);
 114              		.loc 1 24 5 view .LVU10
 115 0012 FFF7FEFF 		bl	Periph_ADC_Init
 116              	.LVL2:
  25:App/Task_Input/SrvInput.c ****     Periph_ADC_Init(GIMBAL_RIGHT_X);
 117              		.loc 1 25 5 view .LVU11
 118 0016 0120     		movs	r0, #1
 119 0018 FFF7FEFF 		bl	Periph_ADC_Init
 120              	.LVL3:
  26:App/Task_Input/SrvInput.c ****     Periph_ADC_Init(GIMBAL_RIGHT_Y);
 121              		.loc 1 26 5 view .LVU12
 122 001c 0220     		movs	r0, #2
 123 001e FFF7FEFF 		bl	Periph_ADC_Init
 124              	.LVL4:
  27:App/Task_Input/SrvInput.c ****     Periph_ADC_Init(POT_LEFT);
 125              		.loc 1 27 5 view .LVU13
ARM GAS  /var/folders/lx/hc4sn_b53233_zkc9xbbl97r0000gp/T//ccZ9yGSm.s 			page 4


 126 0022 0320     		movs	r0, #3
 127 0024 FFF7FEFF 		bl	Periph_ADC_Init
 128              	.LVL5:
  28:App/Task_Input/SrvInput.c ****     Periph_ADC_Init(POT_RIGHT);
 129              		.loc 1 28 5 view .LVU14
 130 0028 0420     		movs	r0, #4
 131 002a FFF7FEFF 		bl	Periph_ADC_Init
 132              	.LVL6:
  29:App/Task_Input/SrvInput.c **** 
 133              		.loc 1 29 5 view .LVU15
 134 002e 0520     		movs	r0, #5
 135 0030 FFF7FEFF 		bl	Periph_ADC_Init
 136              	.LVL7:
  36:App/Task_Input/SrvInput.c **** 
 137              		.loc 1 36 1 is_stmt 0 view .LVU16
 138 0034 08BD     		pop	{r3, pc}
 139              	.L9:
 140 0036 00BF     		.align	2
 141              	.L8:
 142 0038 00000000 		.word	.LANCHOR0
 143              		.cfi_endproc
 144              	.LFE0:
 146              		.global	InputObj
 147              		.section	.bss.InputData,"aw",%nobits
 148              		.align	2
 149              		.set	.LANCHOR0,. + 0
 152              	InputData:
 153 0000 00000000 		.space	22
 153      00000000 
 153      00000000 
 153      00000000 
 153      00000000 
 154              		.section	.data.InputObj,"aw"
 155              		.align	2
 158              	InputObj:
 159 0000 00000000 		.word	SrvInput_Init
 160 0004 00000000 		.word	SrvInput_Sample
 161 0008 00000000 		.word	SrvInput_GetData
 162              		.text
 163              	.Letext0:
 164              		.file 2 "/usr/local/arm-none-eabi-gcc/gcc-arm-none-eabi-10-2020-q4-major/arm-none-eabi/include/mac
 165              		.file 3 "/usr/local/arm-none-eabi-gcc/gcc-arm-none-eabi-10-2020-q4-major/arm-none-eabi/include/sys
 166              		.file 4 "App/Task_Input/SrvInput.h"
 167              		.file 5 "Bsp/periph_adc.h"
ARM GAS  /var/folders/lx/hc4sn_b53233_zkc9xbbl97r0000gp/T//ccZ9yGSm.s 			page 5


DEFINED SYMBOLS
                            *ABS*:0000000000000000 SrvInput.c
/var/folders/lx/hc4sn_b53233_zkc9xbbl97r0000gp/T//ccZ9yGSm.s:18     .text.SrvInput_Sample:0000000000000000 $t
/var/folders/lx/hc4sn_b53233_zkc9xbbl97r0000gp/T//ccZ9yGSm.s:25     .text.SrvInput_Sample:0000000000000000 SrvInput_Sample
/var/folders/lx/hc4sn_b53233_zkc9xbbl97r0000gp/T//ccZ9yGSm.s:39     .text.SrvInput_GetData:0000000000000000 $t
/var/folders/lx/hc4sn_b53233_zkc9xbbl97r0000gp/T//ccZ9yGSm.s:45     .text.SrvInput_GetData:0000000000000000 SrvInput_GetData
/var/folders/lx/hc4sn_b53233_zkc9xbbl97r0000gp/T//ccZ9yGSm.s:83     .text.SrvInput_GetData:000000000000002c $d
/var/folders/lx/hc4sn_b53233_zkc9xbbl97r0000gp/T//ccZ9yGSm.s:88     .text.SrvInput_Init:0000000000000000 $t
/var/folders/lx/hc4sn_b53233_zkc9xbbl97r0000gp/T//ccZ9yGSm.s:94     .text.SrvInput_Init:0000000000000000 SrvInput_Init
/var/folders/lx/hc4sn_b53233_zkc9xbbl97r0000gp/T//ccZ9yGSm.s:142    .text.SrvInput_Init:0000000000000038 $d
/var/folders/lx/hc4sn_b53233_zkc9xbbl97r0000gp/T//ccZ9yGSm.s:158    .data.InputObj:0000000000000000 InputObj
/var/folders/lx/hc4sn_b53233_zkc9xbbl97r0000gp/T//ccZ9yGSm.s:148    .bss.InputData:0000000000000000 $d
/var/folders/lx/hc4sn_b53233_zkc9xbbl97r0000gp/T//ccZ9yGSm.s:152    .bss.InputData:0000000000000000 InputData
/var/folders/lx/hc4sn_b53233_zkc9xbbl97r0000gp/T//ccZ9yGSm.s:155    .data.InputObj:0000000000000000 $d

UNDEFINED SYMBOLS
Periph_ADC_Init
