ARM GAS  /var/folders/lx/hc4sn_b53233_zkc9xbbl97r0000gp/T//cce5ncpg.s 			page 1


   1              		.cpu cortex-m4
   2              		.eabi_attribute 27, 1
   3              		.eabi_attribute 28, 1
   4              		.eabi_attribute 20, 1
   5              		.eabi_attribute 21, 1
   6              		.eabi_attribute 23, 3
   7              		.eabi_attribute 24, 1
   8              		.eabi_attribute 25, 1
   9              		.eabi_attribute 26, 1
  10              		.eabi_attribute 30, 1
  11              		.eabi_attribute 34, 1
  12              		.eabi_attribute 18, 4
  13              		.file	"SrvInput.c"
  14              		.text
  15              	.Ltext0:
  16              		.cfi_sections	.debug_frame
  17              		.section	.text.SrvInput_Init,"ax",%progbits
  18              		.align	1
  19              		.arch armv7e-m
  20              		.syntax unified
  21              		.thumb
  22              		.thumb_func
  23              		.fpu fpv4-sp-d16
  25              	SrvInput_Init:
  26              	.LFB123:
  27              		.file 1 "App/Task_Input/SrvInput.c"
   1:App/Task_Input/SrvInput.c **** #include "SrvInput.h"
   2:App/Task_Input/SrvInput.c **** #include "Input_IO_Def.h"
   3:App/Task_Input/SrvInput.c **** 
   4:App/Task_Input/SrvInput.c **** /* internal variable */
   5:App/Task_Input/SrvInput.c **** static SrvInput_Data_TypeDef InputData;
   6:App/Task_Input/SrvInput.c **** 
   7:App/Task_Input/SrvInput.c **** /* input hardware abstract object */
   8:App/Task_Input/SrvInput.c **** static DevEncoder_Obj_TypeDef Encoder_Obj;
   9:App/Task_Input/SrvInput.c **** //static DevGimbal_Obj_TypeDef Gimbal_L_Obj;
  10:App/Task_Input/SrvInput.c **** //static DevGimbal_Obj_TypeDef Gimbal_R_Obj;
  11:App/Task_Input/SrvInput.c **** //static DevButton_TypeDef Btn_LShoulder_Obj;
  12:App/Task_Input/SrvInput.c **** //static DevButton_TypeDef Btn_RShoulder_Obj;
  13:App/Task_Input/SrvInput.c **** //static DirButton_Obj_TypeDef Btn_5Dir_Obj;
  14:App/Task_Input/SrvInput.c **** 
  15:App/Task_Input/SrvInput.c **** /* internal funciton */
  16:App/Task_Input/SrvInput.c **** static SrvInput_Error_List SrvInput_Init(void);
  17:App/Task_Input/SrvInput.c **** static SrvInput_Error_List SrvInput_Update(void);
  18:App/Task_Input/SrvInput.c **** static SrvInput_Data_TypeDef SrvInput_GetData(void);
  19:App/Task_Input/SrvInput.c **** 
  20:App/Task_Input/SrvInput.c **** /* internal function */
  21:App/Task_Input/SrvInput.c **** 
  22:App/Task_Input/SrvInput.c **** /* external variable */
  23:App/Task_Input/SrvInput.c **** SrvInput_TypeDef InputObj = {
  24:App/Task_Input/SrvInput.c ****     .init = SrvInput_Init,
  25:App/Task_Input/SrvInput.c ****     .sample = SrvInput_Update,
  26:App/Task_Input/SrvInput.c ****     .get_data = SrvInput_GetData,
  27:App/Task_Input/SrvInput.c **** };
  28:App/Task_Input/SrvInput.c **** 
  29:App/Task_Input/SrvInput.c **** static SrvInput_Error_List SrvInput_Init(void)
  30:App/Task_Input/SrvInput.c **** {
  28              		.loc 1 30 1 view -0
ARM GAS  /var/folders/lx/hc4sn_b53233_zkc9xbbl97r0000gp/T//cce5ncpg.s 			page 2


  29              		.cfi_startproc
  30              		@ args = 0, pretend = 0, frame = 48
  31              		@ frame_needed = 0, uses_anonymous_args = 0
  32 0000 30B5     		push	{r4, r5, lr}
  33              	.LCFI0:
  34              		.cfi_def_cfa_offset 12
  35              		.cfi_offset 4, -12
  36              		.cfi_offset 5, -8
  37              		.cfi_offset 14, -4
  38 0002 8FB0     		sub	sp, sp, #60
  39              	.LCFI1:
  40              		.cfi_def_cfa_offset 72
  31:App/Task_Input/SrvInput.c ****     /* encoder pin */
  32:App/Task_Input/SrvInput.c ****     DrvGPIO_Obj_TypeDef EncPin[Encoder_IO_Sum];
  41              		.loc 1 32 5 view .LVU1
  33:App/Task_Input/SrvInput.c **** 
  34:App/Task_Input/SrvInput.c ****     InputData.error = SrvInput_Initial;
  42              		.loc 1 34 5 view .LVU2
  43              		.loc 1 34 21 is_stmt 0 view .LVU3
  44 0004 0124     		movs	r4, #1
  45 0006 144B     		ldr	r3, .L6
  46 0008 DC75     		strb	r4, [r3, #23]
  35:App/Task_Input/SrvInput.c **** 
  36:App/Task_Input/SrvInput.c ****     EncPin[Encoder_IO_A] = Encoder_A_Pin;
  47              		.loc 1 36 5 is_stmt 1 view .LVU4
  48              		.loc 1 36 26 is_stmt 0 view .LVU5
  49 000a 144B     		ldr	r3, .L6+4
  50 000c 0DF1080C 		add	ip, sp, #8
  51 0010 0FCB     		ldm	r3, {r0, r1, r2, r3}
  52 0012 8CE80F00 		stm	ip, {r0, r1, r2, r3}
  37:App/Task_Input/SrvInput.c ****     EncPin[Encoder_IO_B] = Encoder_B_Pin;
  53              		.loc 1 37 5 is_stmt 1 view .LVU6
  54              		.loc 1 37 26 is_stmt 0 view .LVU7
  55 0016 124B     		ldr	r3, .L6+8
  56 0018 0DF1180E 		add	lr, sp, #24
  57 001c 0FCB     		ldm	r3, {r0, r1, r2, r3}
  58 001e 8EE80F00 		stm	lr, {r0, r1, r2, r3}
  38:App/Task_Input/SrvInput.c ****     EncPin[Encoder_IO_Btn] = Encoder_Btn;
  59              		.loc 1 38 5 is_stmt 1 view .LVU8
  60              		.loc 1 38 28 is_stmt 0 view .LVU9
  61 0022 104B     		ldr	r3, .L6+12
  62 0024 0FCB     		ldm	r3, {r0, r1, r2, r3}
  63 0026 0EAD     		add	r5, sp, #56
  64 0028 05E90F00 		stmdb	r5, {r0, r1, r2, r3}
  39:App/Task_Input/SrvInput.c **** 
  40:App/Task_Input/SrvInput.c ****     /* init encoder */
  41:App/Task_Input/SrvInput.c ****     if (!DevEncoder.open(&Encoder_Obj, EncPin, true, Timer_3, TIM_Channel_1, TIM_Channel_2))
  65              		.loc 1 41 5 is_stmt 1 view .LVU10
  66              		.loc 1 41 20 is_stmt 0 view .LVU11
  67 002c 0E4B     		ldr	r3, .L6+16
  68 002e 1D68     		ldr	r5, [r3]
  69              		.loc 1 41 10 view .LVU12
  70 0030 0423     		movs	r3, #4
  71 0032 0193     		str	r3, [sp, #4]
  72 0034 0023     		movs	r3, #0
  73 0036 0093     		str	r3, [sp]
  74 0038 2346     		mov	r3, r4
ARM GAS  /var/folders/lx/hc4sn_b53233_zkc9xbbl97r0000gp/T//cce5ncpg.s 			page 3


  75 003a 2246     		mov	r2, r4
  76 003c 6146     		mov	r1, ip
  77 003e 0B48     		ldr	r0, .L6+20
  78 0040 A847     		blx	r5
  79              	.LVL0:
  80              		.loc 1 41 8 view .LVU13
  81 0042 20B1     		cbz	r0, .L5
  42:App/Task_Input/SrvInput.c ****     {
  43:App/Task_Input/SrvInput.c ****         InputData.error = SrvInput_Encoder_Error;
  44:App/Task_Input/SrvInput.c ****         return SrvInput_Encoder_Error;
  45:App/Task_Input/SrvInput.c ****     }
  46:App/Task_Input/SrvInput.c **** 
  47:App/Task_Input/SrvInput.c ****     /* init gimbal */
  48:App/Task_Input/SrvInput.c **** 
  49:App/Task_Input/SrvInput.c ****     /* init direction button */
  50:App/Task_Input/SrvInput.c **** 
  51:App/Task_Input/SrvInput.c ****     /* init shoulder button */
  52:App/Task_Input/SrvInput.c **** 
  53:App/Task_Input/SrvInput.c ****     /* init shoulder toggle */
  54:App/Task_Input/SrvInput.c **** 
  55:App/Task_Input/SrvInput.c ****     /* init side pot */
  56:App/Task_Input/SrvInput.c **** 
  57:App/Task_Input/SrvInput.c ****     InputData.error = SrvInput_NoError;
  82              		.loc 1 57 5 is_stmt 1 view .LVU14
  83              		.loc 1 57 21 is_stmt 0 view .LVU15
  84 0044 0020     		movs	r0, #0
  85 0046 044B     		ldr	r3, .L6
  86 0048 D875     		strb	r0, [r3, #23]
  58:App/Task_Input/SrvInput.c ****     return SrvInput_NoError;
  87              		.loc 1 58 5 is_stmt 1 view .LVU16
  88              	.L3:
  59:App/Task_Input/SrvInput.c **** }
  89              		.loc 1 59 1 is_stmt 0 view .LVU17
  90 004a 0FB0     		add	sp, sp, #60
  91              	.LCFI2:
  92              		.cfi_remember_state
  93              		.cfi_def_cfa_offset 12
  94              		@ sp needed
  95 004c 30BD     		pop	{r4, r5, pc}
  96              	.L5:
  97              	.LCFI3:
  98              		.cfi_restore_state
  43:App/Task_Input/SrvInput.c ****         return SrvInput_Encoder_Error;
  99              		.loc 1 43 9 is_stmt 1 view .LVU18
  43:App/Task_Input/SrvInput.c ****         return SrvInput_Encoder_Error;
 100              		.loc 1 43 25 is_stmt 0 view .LVU19
 101 004e 0220     		movs	r0, #2
 102 0050 014B     		ldr	r3, .L6
 103 0052 D875     		strb	r0, [r3, #23]
  44:App/Task_Input/SrvInput.c ****     }
 104              		.loc 1 44 9 is_stmt 1 view .LVU20
  44:App/Task_Input/SrvInput.c ****     }
 105              		.loc 1 44 16 is_stmt 0 view .LVU21
 106 0054 F9E7     		b	.L3
 107              	.L7:
 108 0056 00BF     		.align	2
 109              	.L6:
ARM GAS  /var/folders/lx/hc4sn_b53233_zkc9xbbl97r0000gp/T//cce5ncpg.s 			page 4


 110 0058 00000000 		.word	.LANCHOR0
 111 005c 00000000 		.word	Encoder_A_Pin
 112 0060 00000000 		.word	Encoder_B_Pin
 113 0064 00000000 		.word	Encoder_Btn
 114 0068 00000000 		.word	DevEncoder
 115 006c 00000000 		.word	.LANCHOR1
 116              		.cfi_endproc
 117              	.LFE123:
 119              		.section	.text.SrvInput_Update,"ax",%progbits
 120              		.align	1
 121              		.syntax unified
 122              		.thumb
 123              		.thumb_func
 124              		.fpu fpv4-sp-d16
 126              	SrvInput_Update:
 127              	.LFB124:
  60:App/Task_Input/SrvInput.c **** 
  61:App/Task_Input/SrvInput.c **** static SrvInput_Error_List SrvInput_Update(void)
  62:App/Task_Input/SrvInput.c **** {
 128              		.loc 1 62 1 is_stmt 1 view -0
 129              		.cfi_startproc
 130              		@ args = 0, pretend = 0, frame = 8
 131              		@ frame_needed = 0, uses_anonymous_args = 0
  63:App/Task_Input/SrvInput.c ****     if (InputData.error != SrvInput_NoError)
 132              		.loc 1 63 5 view .LVU23
 133              		.loc 1 63 18 is_stmt 0 view .LVU24
 134 0000 094B     		ldr	r3, .L14
 135 0002 D87D     		ldrb	r0, [r3, #23]	@ zero_extendqisi2
 136              		.loc 1 63 8 view .LVU25
 137 0004 78B9     		cbnz	r0, .L11
  62:App/Task_Input/SrvInput.c ****     if (InputData.error != SrvInput_NoError)
 138              		.loc 1 62 1 view .LVU26
 139 0006 10B5     		push	{r4, lr}
 140              	.LCFI4:
 141              		.cfi_def_cfa_offset 8
 142              		.cfi_offset 4, -8
 143              		.cfi_offset 14, -4
 144 0008 82B0     		sub	sp, sp, #8
 145              	.LCFI5:
 146              		.cfi_def_cfa_offset 16
  64:App/Task_Input/SrvInput.c ****         return InputData.error;
  65:App/Task_Input/SrvInput.c **** 
  66:App/Task_Input/SrvInput.c ****     InputData.Enc_Val = DevEncoder.get(&Encoder_Obj);
 147              		.loc 1 66 5 is_stmt 1 view .LVU27
 148              		.loc 1 66 35 is_stmt 0 view .LVU28
 149 000a 084B     		ldr	r3, .L14+4
 150 000c 9B68     		ldr	r3, [r3, #8]
 151              		.loc 1 66 25 view .LVU29
 152 000e 064C     		ldr	r4, .L14
 153 0010 0749     		ldr	r1, .L14+8
 154 0012 6846     		mov	r0, sp
 155 0014 9847     		blx	r3
 156              	.LVL1:
 157 0016 009B     		ldr	r3, [sp]	@ unaligned
 158 0018 C4F80E30 		str	r3, [r4, #14]	@ unaligned
 159 001c BDF80430 		ldrh	r3, [sp, #4]	@ unaligned
 160 0020 6382     		strh	r3, [r4, #18]	@ unaligned
ARM GAS  /var/folders/lx/hc4sn_b53233_zkc9xbbl97r0000gp/T//cce5ncpg.s 			page 5


  67:App/Task_Input/SrvInput.c **** }
 161              		.loc 1 67 1 view .LVU30
 162 0022 02B0     		add	sp, sp, #8
 163              	.LCFI6:
 164              		.cfi_def_cfa_offset 8
 165              		@ sp needed
 166 0024 10BD     		pop	{r4, pc}
 167              	.L11:
 168              	.LCFI7:
 169              		.cfi_def_cfa_offset 0
 170              		.cfi_restore 4
 171              		.cfi_restore 14
 172 0026 7047     		bx	lr
 173              	.L15:
 174              		.align	2
 175              	.L14:
 176 0028 00000000 		.word	.LANCHOR0
 177 002c 00000000 		.word	DevEncoder
 178 0030 00000000 		.word	.LANCHOR1
 179              		.cfi_endproc
 180              	.LFE124:
 182              		.section	.text.SrvInput_GetData,"ax",%progbits
 183              		.align	1
 184              		.syntax unified
 185              		.thumb
 186              		.thumb_func
 187              		.fpu fpv4-sp-d16
 189              	SrvInput_GetData:
 190              	.LVL2:
 191              	.LFB125:
  68:App/Task_Input/SrvInput.c **** 
  69:App/Task_Input/SrvInput.c **** static SrvInput_Data_TypeDef SrvInput_GetData(void)
  70:App/Task_Input/SrvInput.c **** {
 192              		.loc 1 70 1 is_stmt 1 view -0
 193              		.cfi_startproc
 194              		@ args = 0, pretend = 0, frame = 0
 195              		@ frame_needed = 0, uses_anonymous_args = 0
 196              		@ link register save eliminated.
 197              		.loc 1 70 1 is_stmt 0 view .LVU32
 198 0000 10B4     		push	{r4}
 199              	.LCFI8:
 200              		.cfi_def_cfa_offset 4
 201              		.cfi_offset 4, -4
 202 0002 8446     		mov	ip, r0
  71:App/Task_Input/SrvInput.c ****     return InputData;
 203              		.loc 1 71 5 is_stmt 1 view .LVU33
 204              		.loc 1 71 12 is_stmt 0 view .LVU34
 205 0004 094C     		ldr	r4, .L18
 206 0006 0FCC     		ldmia	r4!, {r0, r1, r2, r3}
 207              	.LVL3:
 208              		.loc 1 71 12 view .LVU35
 209 0008 CCF80000 		str	r0, [ip]	@ unaligned
 210 000c CCF80410 		str	r1, [ip, #4]	@ unaligned
 211 0010 CCF80820 		str	r2, [ip, #8]	@ unaligned
 212 0014 CCF80C30 		str	r3, [ip, #12]	@ unaligned
 213 0018 03CC     		ldmia	r4!, {r0, r1}
 214 001a CCF81000 		str	r0, [ip, #16]	@ unaligned
ARM GAS  /var/folders/lx/hc4sn_b53233_zkc9xbbl97r0000gp/T//cce5ncpg.s 			page 6


 215 001e CCF81410 		str	r1, [ip, #20]	@ unaligned
  72:App/Task_Input/SrvInput.c **** }
 216              		.loc 1 72 1 view .LVU36
 217 0022 6046     		mov	r0, ip
 218 0024 5DF8044B 		ldr	r4, [sp], #4
 219              	.LCFI9:
 220              		.cfi_restore 4
 221              		.cfi_def_cfa_offset 0
 222 0028 7047     		bx	lr
 223              	.L19:
 224 002a 00BF     		.align	2
 225              	.L18:
 226 002c 00000000 		.word	.LANCHOR0
 227              		.cfi_endproc
 228              	.LFE125:
 230              		.global	InputObj
 231              		.section	.bss.Encoder_Obj,"aw",%nobits
 232              		.align	2
 233              		.set	.LANCHOR1,. + 0
 236              	Encoder_Obj:
 237 0000 00000000 		.space	76
 237      00000000 
 237      00000000 
 237      00000000 
 237      00000000 
 238              		.section	.bss.InputData,"aw",%nobits
 239              		.align	2
 240              		.set	.LANCHOR0,. + 0
 243              	InputData:
 244 0000 00000000 		.space	24
 244      00000000 
 244      00000000 
 244      00000000 
 244      00000000 
 245              		.section	.data.InputObj,"aw"
 246              		.align	2
 249              	InputObj:
 250 0000 00000000 		.word	SrvInput_Init
 251 0004 00000000 		.word	SrvInput_Update
 252 0008 00000000 		.word	SrvInput_GetData
 253              		.text
 254              	.Letext0:
 255              		.file 2 "/usr/local/arm-none-eabi-gcc/gcc-arm-none-eabi-10-2020-q4-major/arm-none-eabi/include/mac
 256              		.file 3 "/usr/local/arm-none-eabi-gcc/gcc-arm-none-eabi-10-2020-q4-major/arm-none-eabi/include/sys
 257              		.file 4 "Bsp/periph_gpio.h"
 258              		.file 5 "Dev/Dev_Toggle.h"
 259              		.file 6 "Dev/Dev_5DirButton.h"
 260              		.file 7 "Dev/Dev_Gimbal.h"
 261              		.file 8 "Bsp/periph_timer.h"
 262              		.file 9 "Drv/drv_timer.h"
 263              		.file 10 "Dev/Dev_Encoder.h"
 264              		.file 11 "App/Task_Input/SrvInput.h"
 265              		.file 12 "App/Task_Input/Input_IO_Def.h"
ARM GAS  /var/folders/lx/hc4sn_b53233_zkc9xbbl97r0000gp/T//cce5ncpg.s 			page 7


DEFINED SYMBOLS
                            *ABS*:0000000000000000 SrvInput.c
/var/folders/lx/hc4sn_b53233_zkc9xbbl97r0000gp/T//cce5ncpg.s:18     .text.SrvInput_Init:0000000000000000 $t
/var/folders/lx/hc4sn_b53233_zkc9xbbl97r0000gp/T//cce5ncpg.s:25     .text.SrvInput_Init:0000000000000000 SrvInput_Init
/var/folders/lx/hc4sn_b53233_zkc9xbbl97r0000gp/T//cce5ncpg.s:110    .text.SrvInput_Init:0000000000000058 $d
/var/folders/lx/hc4sn_b53233_zkc9xbbl97r0000gp/T//cce5ncpg.s:120    .text.SrvInput_Update:0000000000000000 $t
/var/folders/lx/hc4sn_b53233_zkc9xbbl97r0000gp/T//cce5ncpg.s:126    .text.SrvInput_Update:0000000000000000 SrvInput_Update
/var/folders/lx/hc4sn_b53233_zkc9xbbl97r0000gp/T//cce5ncpg.s:176    .text.SrvInput_Update:0000000000000028 $d
/var/folders/lx/hc4sn_b53233_zkc9xbbl97r0000gp/T//cce5ncpg.s:183    .text.SrvInput_GetData:0000000000000000 $t
/var/folders/lx/hc4sn_b53233_zkc9xbbl97r0000gp/T//cce5ncpg.s:189    .text.SrvInput_GetData:0000000000000000 SrvInput_GetData
/var/folders/lx/hc4sn_b53233_zkc9xbbl97r0000gp/T//cce5ncpg.s:226    .text.SrvInput_GetData:000000000000002c $d
/var/folders/lx/hc4sn_b53233_zkc9xbbl97r0000gp/T//cce5ncpg.s:249    .data.InputObj:0000000000000000 InputObj
/var/folders/lx/hc4sn_b53233_zkc9xbbl97r0000gp/T//cce5ncpg.s:232    .bss.Encoder_Obj:0000000000000000 $d
/var/folders/lx/hc4sn_b53233_zkc9xbbl97r0000gp/T//cce5ncpg.s:236    .bss.Encoder_Obj:0000000000000000 Encoder_Obj
/var/folders/lx/hc4sn_b53233_zkc9xbbl97r0000gp/T//cce5ncpg.s:239    .bss.InputData:0000000000000000 $d
/var/folders/lx/hc4sn_b53233_zkc9xbbl97r0000gp/T//cce5ncpg.s:243    .bss.InputData:0000000000000000 InputData
/var/folders/lx/hc4sn_b53233_zkc9xbbl97r0000gp/T//cce5ncpg.s:246    .data.InputObj:0000000000000000 $d

UNDEFINED SYMBOLS
Encoder_A_Pin
Encoder_B_Pin
Encoder_Btn
DevEncoder
