ARM GAS  /var/folders/lx/hc4sn_b53233_zkc9xbbl97r0000gp/T//cc2a549X.s 			page 1


   1              		.cpu cortex-m4
   2              		.eabi_attribute 27, 1
   3              		.eabi_attribute 28, 1
   4              		.eabi_attribute 20, 1
   5              		.eabi_attribute 21, 1
   6              		.eabi_attribute 23, 3
   7              		.eabi_attribute 24, 1
   8              		.eabi_attribute 25, 1
   9              		.eabi_attribute 26, 1
  10              		.eabi_attribute 30, 1
  11              		.eabi_attribute 34, 1
  12              		.eabi_attribute 18, 4
  13              		.file	"SrvInput.c"
  14              		.text
  15              	.Ltext0:
  16              		.cfi_sections	.debug_frame
  17              		.section	.text.SrvInput_Init,"ax",%progbits
  18              		.align	1
  19              		.arch armv7e-m
  20              		.syntax unified
  21              		.thumb
  22              		.thumb_func
  23              		.fpu fpv4-sp-d16
  25              	SrvInput_Init:
  26              	.LFB123:
  27              		.file 1 "App/Task_Input/SrvInput.c"
   1:App/Task_Input/SrvInput.c **** #include "SrvInput.h"
   2:App/Task_Input/SrvInput.c **** #include "Input_IO_Def.h"
   3:App/Task_Input/SrvInput.c **** 
   4:App/Task_Input/SrvInput.c **** /* internal variable */
   5:App/Task_Input/SrvInput.c **** static SrvInput_Data_TypeDef InputData;
   6:App/Task_Input/SrvInput.c **** static SrvInput_Error_List init_state = SrvInput_NoError;
   7:App/Task_Input/SrvInput.c **** 
   8:App/Task_Input/SrvInput.c **** /* input hardware abstract object */
   9:App/Task_Input/SrvInput.c **** static DevEncoder_Obj_TypeDef Encoder_Obj;
  10:App/Task_Input/SrvInput.c **** //static DevGimbal_Obj_TypeDef Gimbal_L_Obj;
  11:App/Task_Input/SrvInput.c **** //static DevGimbal_Obj_TypeDef Gimbal_R_Obj;
  12:App/Task_Input/SrvInput.c **** //static DevButton_TypeDef Btn_LShoulder_Obj;
  13:App/Task_Input/SrvInput.c **** //static DevButton_TypeDef Btn_RShoulder_Obj;
  14:App/Task_Input/SrvInput.c **** //static DirButton_Obj_TypeDef Btn_5Dir_Obj;
  15:App/Task_Input/SrvInput.c **** 
  16:App/Task_Input/SrvInput.c **** /* internal funciton */
  17:App/Task_Input/SrvInput.c **** static SrvInput_Error_List SrvInput_Init(void);
  18:App/Task_Input/SrvInput.c **** static SrvInput_Error_List SrvInput_Update(void);
  19:App/Task_Input/SrvInput.c **** static SrvInput_Data_TypeDef SrvInput_GetData(void);
  20:App/Task_Input/SrvInput.c **** 
  21:App/Task_Input/SrvInput.c **** /* internal function */
  22:App/Task_Input/SrvInput.c **** 
  23:App/Task_Input/SrvInput.c **** /* external variable */
  24:App/Task_Input/SrvInput.c **** SrvInput_TypeDef InputObj = {
  25:App/Task_Input/SrvInput.c ****     .init = SrvInput_Init,
  26:App/Task_Input/SrvInput.c ****     .sample = SrvInput_Update,
  27:App/Task_Input/SrvInput.c ****     .get_data = SrvInput_GetData,
  28:App/Task_Input/SrvInput.c **** };
  29:App/Task_Input/SrvInput.c **** 
  30:App/Task_Input/SrvInput.c **** static SrvInput_Error_List SrvInput_Init(void)
  31:App/Task_Input/SrvInput.c **** {
ARM GAS  /var/folders/lx/hc4sn_b53233_zkc9xbbl97r0000gp/T//cc2a549X.s 			page 2


  28              		.loc 1 31 1 view -0
  29              		.cfi_startproc
  30              		@ args = 0, pretend = 0, frame = 48
  31              		@ frame_needed = 0, uses_anonymous_args = 0
  32 0000 00B5     		push	{lr}
  33              	.LCFI0:
  34              		.cfi_def_cfa_offset 4
  35              		.cfi_offset 14, -4
  36 0002 8DB0     		sub	sp, sp, #52
  37              	.LCFI1:
  38              		.cfi_def_cfa_offset 56
  32:App/Task_Input/SrvInput.c ****     /* encoder pin */
  33:App/Task_Input/SrvInput.c ****     DrvGPIO_Obj_TypeDef EncPin[Encoder_IO_Sum];
  39              		.loc 1 33 5 view .LVU1
  34:App/Task_Input/SrvInput.c **** 
  35:App/Task_Input/SrvInput.c ****     EncPin[Encoder_IO_A] = Encoder_A_Pin;
  40              		.loc 1 35 5 view .LVU2
  41              		.loc 1 35 26 is_stmt 0 view .LVU3
  42 0004 0F4B     		ldr	r3, .L6
  43 0006 EC46     		mov	ip, sp
  44 0008 0FCB     		ldm	r3, {r0, r1, r2, r3}
  45 000a 8CE80F00 		stm	ip, {r0, r1, r2, r3}
  36:App/Task_Input/SrvInput.c ****     EncPin[Encoder_IO_B] = Encoder_B_Pin;
  46              		.loc 1 36 5 is_stmt 1 view .LVU4
  47              		.loc 1 36 26 is_stmt 0 view .LVU5
  48 000e 0E4B     		ldr	r3, .L6+4
  49 0010 0DF1100E 		add	lr, sp, #16
  50 0014 0FCB     		ldm	r3, {r0, r1, r2, r3}
  51 0016 8EE80F00 		stm	lr, {r0, r1, r2, r3}
  37:App/Task_Input/SrvInput.c ****     EncPin[Encoder_IO_Btn] = Encoder_Btn;
  52              		.loc 1 37 5 is_stmt 1 view .LVU6
  53              		.loc 1 37 28 is_stmt 0 view .LVU7
  54 001a 0C4B     		ldr	r3, .L6+8
  55 001c 0FCB     		ldm	r3, {r0, r1, r2, r3}
  56 001e 0DF1300E 		add	lr, sp, #48
  57 0022 0EE90F00 		stmdb	lr, {r0, r1, r2, r3}
  38:App/Task_Input/SrvInput.c **** 
  39:App/Task_Input/SrvInput.c ****     if (!DevEncoder.open(&Encoder_Obj, EncPin, true))
  58              		.loc 1 39 5 is_stmt 1 view .LVU8
  59              		.loc 1 39 20 is_stmt 0 view .LVU9
  60 0026 0A4B     		ldr	r3, .L6+12
  61 0028 1B68     		ldr	r3, [r3]
  62              		.loc 1 39 10 view .LVU10
  63 002a 0122     		movs	r2, #1
  64 002c 6146     		mov	r1, ip
  65 002e 0948     		ldr	r0, .L6+16
  66 0030 9847     		blx	r3
  67              	.LVL0:
  68              		.loc 1 39 8 view .LVU11
  69 0032 18B1     		cbz	r0, .L5
  40:App/Task_Input/SrvInput.c ****     {
  41:App/Task_Input/SrvInput.c ****         init_state = SrvInput_Encoder_Error;
  42:App/Task_Input/SrvInput.c ****         return SrvInput_Encoder_Error;
  43:App/Task_Input/SrvInput.c ****     }
  44:App/Task_Input/SrvInput.c **** 
  45:App/Task_Input/SrvInput.c ****     return SrvInput_NoError;
  70              		.loc 1 45 12 view .LVU12
ARM GAS  /var/folders/lx/hc4sn_b53233_zkc9xbbl97r0000gp/T//cc2a549X.s 			page 3


  71 0034 0020     		movs	r0, #0
  72              	.L2:
  46:App/Task_Input/SrvInput.c **** }
  73              		.loc 1 46 1 view .LVU13
  74 0036 0DB0     		add	sp, sp, #52
  75              	.LCFI2:
  76              		.cfi_remember_state
  77              		.cfi_def_cfa_offset 4
  78              		@ sp needed
  79 0038 5DF804FB 		ldr	pc, [sp], #4
  80              	.L5:
  81              	.LCFI3:
  82              		.cfi_restore_state
  41:App/Task_Input/SrvInput.c ****         return SrvInput_Encoder_Error;
  83              		.loc 1 41 9 is_stmt 1 view .LVU14
  41:App/Task_Input/SrvInput.c ****         return SrvInput_Encoder_Error;
  84              		.loc 1 41 20 is_stmt 0 view .LVU15
  85 003c 0120     		movs	r0, #1
  86 003e 064B     		ldr	r3, .L6+20
  87 0040 1870     		strb	r0, [r3]
  42:App/Task_Input/SrvInput.c ****     }
  88              		.loc 1 42 9 is_stmt 1 view .LVU16
  42:App/Task_Input/SrvInput.c ****     }
  89              		.loc 1 42 16 is_stmt 0 view .LVU17
  90 0042 F8E7     		b	.L2
  91              	.L7:
  92              		.align	2
  93              	.L6:
  94 0044 00000000 		.word	Encoder_A_Pin
  95 0048 00000000 		.word	Encoder_B_Pin
  96 004c 00000000 		.word	Encoder_Btn
  97 0050 00000000 		.word	DevEncoder
  98 0054 00000000 		.word	.LANCHOR0
  99 0058 00000000 		.word	.LANCHOR1
 100              		.cfi_endproc
 101              	.LFE123:
 103              		.section	.text.SrvInput_Update,"ax",%progbits
 104              		.align	1
 105              		.syntax unified
 106              		.thumb
 107              		.thumb_func
 108              		.fpu fpv4-sp-d16
 110              	SrvInput_Update:
 111              	.LFB124:
  47:App/Task_Input/SrvInput.c **** 
  48:App/Task_Input/SrvInput.c **** static SrvInput_Error_List SrvInput_Update(void)
  49:App/Task_Input/SrvInput.c **** {
 112              		.loc 1 49 1 is_stmt 1 view -0
 113              		.cfi_startproc
 114              		@ args = 0, pretend = 0, frame = 0
 115              		@ frame_needed = 0, uses_anonymous_args = 0
 116              		@ link register save eliminated.
  50:App/Task_Input/SrvInput.c ****     if (init_state != SrvInput_NoError)
 117              		.loc 1 50 5 view .LVU19
 118              		.loc 1 50 20 is_stmt 0 view .LVU20
 119 0000 014B     		ldr	r3, .L10
 120 0002 1878     		ldrb	r0, [r3]	@ zero_extendqisi2
ARM GAS  /var/folders/lx/hc4sn_b53233_zkc9xbbl97r0000gp/T//cc2a549X.s 			page 4


  51:App/Task_Input/SrvInput.c ****         return init_state;
  52:App/Task_Input/SrvInput.c **** }
 121              		.loc 1 52 1 view .LVU21
 122 0004 7047     		bx	lr
 123              	.L11:
 124 0006 00BF     		.align	2
 125              	.L10:
 126 0008 00000000 		.word	.LANCHOR1
 127              		.cfi_endproc
 128              	.LFE124:
 130              		.section	.text.SrvInput_GetData,"ax",%progbits
 131              		.align	1
 132              		.syntax unified
 133              		.thumb
 134              		.thumb_func
 135              		.fpu fpv4-sp-d16
 137              	SrvInput_GetData:
 138              	.LVL1:
 139              	.LFB125:
  53:App/Task_Input/SrvInput.c **** 
  54:App/Task_Input/SrvInput.c **** static SrvInput_Data_TypeDef SrvInput_GetData(void)
  55:App/Task_Input/SrvInput.c **** {
 140              		.loc 1 55 1 is_stmt 1 view -0
 141              		.cfi_startproc
 142              		@ args = 0, pretend = 0, frame = 0
 143              		@ frame_needed = 0, uses_anonymous_args = 0
 144              		@ link register save eliminated.
 145              		.loc 1 55 1 is_stmt 0 view .LVU23
 146 0000 10B4     		push	{r4}
 147              	.LCFI4:
 148              		.cfi_def_cfa_offset 4
 149              		.cfi_offset 4, -4
 150 0002 8446     		mov	ip, r0
  56:App/Task_Input/SrvInput.c ****     return InputData;
 151              		.loc 1 56 5 is_stmt 1 view .LVU24
 152              		.loc 1 56 12 is_stmt 0 view .LVU25
 153 0004 094C     		ldr	r4, .L14
 154 0006 0FCC     		ldmia	r4!, {r0, r1, r2, r3}
 155              	.LVL2:
 156              		.loc 1 56 12 view .LVU26
 157 0008 CCF80000 		str	r0, [ip]	@ unaligned
 158 000c CCF80410 		str	r1, [ip, #4]	@ unaligned
 159 0010 CCF80820 		str	r2, [ip, #8]	@ unaligned
 160 0014 CCF80C30 		str	r3, [ip, #12]	@ unaligned
 161 0018 03CC     		ldmia	r4!, {r0, r1}
 162 001a CCF81000 		str	r0, [ip, #16]	@ unaligned
 163 001e CCF81410 		str	r1, [ip, #20]	@ unaligned
  57:App/Task_Input/SrvInput.c **** }
 164              		.loc 1 57 1 view .LVU27
 165 0022 6046     		mov	r0, ip
 166 0024 5DF8044B 		ldr	r4, [sp], #4
 167              	.LCFI5:
 168              		.cfi_restore 4
 169              		.cfi_def_cfa_offset 0
 170 0028 7047     		bx	lr
 171              	.L15:
 172 002a 00BF     		.align	2
ARM GAS  /var/folders/lx/hc4sn_b53233_zkc9xbbl97r0000gp/T//cc2a549X.s 			page 5


 173              	.L14:
 174 002c 00000000 		.word	.LANCHOR2
 175              		.cfi_endproc
 176              	.LFE125:
 178              		.global	InputObj
 179              		.section	.bss.Encoder_Obj,"aw",%nobits
 180              		.align	2
 181              		.set	.LANCHOR0,. + 0
 184              	Encoder_Obj:
 185 0000 00000000 		.space	72
 185      00000000 
 185      00000000 
 185      00000000 
 185      00000000 
 186              		.section	.bss.init_state,"aw",%nobits
 187              		.set	.LANCHOR1,. + 0
 190              	init_state:
 191 0000 00       		.space	1
 192              		.section	.data.InputObj,"aw"
 193              		.align	2
 196              	InputObj:
 197 0000 00000000 		.word	SrvInput_Init
 198 0004 00000000 		.word	SrvInput_Update
 199 0008 00000000 		.word	SrvInput_GetData
 200              		.section	.rodata.InputData,"a"
 201              		.align	2
 202              		.set	.LANCHOR2,. + 0
 205              	InputData:
 206 0000 00000000 		.space	24
 206      00000000 
 206      00000000 
 206      00000000 
 206      00000000 
 207              		.text
 208              	.Letext0:
 209              		.file 2 "/usr/local/arm-none-eabi-gcc/gcc-arm-none-eabi-10-2020-q4-major/arm-none-eabi/include/mac
 210              		.file 3 "/usr/local/arm-none-eabi-gcc/gcc-arm-none-eabi-10-2020-q4-major/arm-none-eabi/include/sys
 211              		.file 4 "Bsp/periph_gpio.h"
 212              		.file 5 "Dev/Dev_Toggle.h"
 213              		.file 6 "Dev/Dev_5DirButton.h"
 214              		.file 7 "Dev/Dev_Gimbal.h"
 215              		.file 8 "Bsp/periph_timer.h"
 216              		.file 9 "Drv/drv_timer.h"
 217              		.file 10 "Dev/Dev_Encoder.h"
 218              		.file 11 "App/Task_Input/SrvInput.h"
 219              		.file 12 "App/Task_Input/Input_IO_Def.h"
ARM GAS  /var/folders/lx/hc4sn_b53233_zkc9xbbl97r0000gp/T//cc2a549X.s 			page 6

