ARM GAS  C:\Users\huav\AppData\Local\Temp\cc7TWTbx.s 			page 1


   1              		.cpu cortex-m4
   2              		.eabi_attribute 27, 1
   3              		.eabi_attribute 28, 1
   4              		.eabi_attribute 20, 1
   5              		.eabi_attribute 21, 1
   6              		.eabi_attribute 23, 3
   7              		.eabi_attribute 24, 1
   8              		.eabi_attribute 25, 1
   9              		.eabi_attribute 26, 1
  10              		.eabi_attribute 30, 1
  11              		.eabi_attribute 34, 1
  12              		.eabi_attribute 18, 4
  13              		.file	"SrvInput.c"
  14              		.text
  15              	.Ltext0:
  16              		.cfi_sections	.debug_frame
  17              		.section	.text.SrvInput_Sample,"ax",%progbits
  18              		.align	1
  19              		.arch armv7e-m
  20              		.syntax unified
  21              		.thumb
  22              		.thumb_func
  23              		.fpu fpv4-sp-d16
  25              	SrvInput_Sample:
  26              	.LFB1:
  27              		.file 1 "App/Task_Input/SrvInput.c"
   1:App/Task_Input/SrvInput.c **** #include "SrvInput.h"
   2:App/Task_Input/SrvInput.c **** #include "drv_adc.h"
   3:App/Task_Input/SrvInput.c **** 
   4:App/Task_Input/SrvInput.c **** /* internal variable */
   5:App/Task_Input/SrvInput.c **** static SrvInput_Data_TypeDef InputData;
   6:App/Task_Input/SrvInput.c **** 
   7:App/Task_Input/SrvInput.c **** /* internal funciton */
   8:App/Task_Input/SrvInput.c **** static void SrvInput_Init(void);
   9:App/Task_Input/SrvInput.c **** static void SrvInput_Sample(void);
  10:App/Task_Input/SrvInput.c **** static SrvInput_Data_TypeDef SrvInput_GetData(void);
  11:App/Task_Input/SrvInput.c **** 
  12:App/Task_Input/SrvInput.c **** /* external variable */
  13:App/Task_Input/SrvInput.c **** SrvInput_TypeDef InputObj = {
  14:App/Task_Input/SrvInput.c ****     .init = SrvInput_Init,
  15:App/Task_Input/SrvInput.c ****     .sample = SrvInput_Sample,
  16:App/Task_Input/SrvInput.c ****     .get_data = SrvInput_GetData,
  17:App/Task_Input/SrvInput.c **** };
  18:App/Task_Input/SrvInput.c **** 
  19:App/Task_Input/SrvInput.c **** static void SrvInput_Init(void)
  20:App/Task_Input/SrvInput.c **** {
  21:App/Task_Input/SrvInput.c ****     memset(&InputData, 0, sizeof(InputData));
  22:App/Task_Input/SrvInput.c **** 
  23:App/Task_Input/SrvInput.c ****     /* left gimbal io init */
  24:App/Task_Input/SrvInput.c ****     DrvADC.ctl(ADC_Config_IO, ADC1_Channel0);
  25:App/Task_Input/SrvInput.c ****     DrvADC.ctl(ADC_Config_IO, ADC1_Channel1);
  26:App/Task_Input/SrvInput.c **** 
  27:App/Task_Input/SrvInput.c ****     /* right gimbal io init */
  28:App/Task_Input/SrvInput.c ****     DrvADC.ctl(ADC_Config_IO, ADC1_Channel2);
  29:App/Task_Input/SrvInput.c ****     DrvADC.ctl(ADC_Config_IO, ADC1_Channel3);
  30:App/Task_Input/SrvInput.c **** 
  31:App/Task_Input/SrvInput.c ****     /* pot on both side io init */
ARM GAS  C:\Users\huav\AppData\Local\Temp\cc7TWTbx.s 			page 2


  32:App/Task_Input/SrvInput.c ****     DrvADC.ctl(ADC_Config_IO, ADC1_Channel4);
  33:App/Task_Input/SrvInput.c ****     DrvADC.ctl(ADC_Config_IO, ADC1_Channel5);
  34:App/Task_Input/SrvInput.c **** 
  35:App/Task_Input/SrvInput.c ****     /* toggle io init */
  36:App/Task_Input/SrvInput.c **** 
  37:App/Task_Input/SrvInput.c ****     /* button io init */
  38:App/Task_Input/SrvInput.c **** 
  39:App/Task_Input/SrvInput.c ****     /* encoder io init */
  40:App/Task_Input/SrvInput.c **** 
  41:App/Task_Input/SrvInput.c ****     /* adc init */
  42:App/Task_Input/SrvInput.c ****     DrvADC.ctl(ADC_Open, 0);
  43:App/Task_Input/SrvInput.c **** }
  44:App/Task_Input/SrvInput.c **** 
  45:App/Task_Input/SrvInput.c **** static void SrvInput_Sample(void)
  46:App/Task_Input/SrvInput.c **** {
  28              		.loc 1 46 1 view -0
  29              		.cfi_startproc
  30              		@ args = 0, pretend = 0, frame = 0
  31              		@ frame_needed = 0, uses_anonymous_args = 0
  32              		@ link register save eliminated.
  47:App/Task_Input/SrvInput.c **** }
  33              		.loc 1 47 1 view .LVU1
  34 0000 7047     		bx	lr
  35              		.cfi_endproc
  36              	.LFE1:
  38              		.section	.text.SrvInput_GetData,"ax",%progbits
  39              		.align	1
  40              		.syntax unified
  41              		.thumb
  42              		.thumb_func
  43              		.fpu fpv4-sp-d16
  45              	SrvInput_GetData:
  46              	.LVL0:
  47              	.LFB2:
  48:App/Task_Input/SrvInput.c **** 
  49:App/Task_Input/SrvInput.c **** static SrvInput_Data_TypeDef SrvInput_GetData(void)
  50:App/Task_Input/SrvInput.c **** {
  48              		.loc 1 50 1 view -0
  49              		.cfi_startproc
  50              		@ args = 0, pretend = 0, frame = 0
  51              		@ frame_needed = 0, uses_anonymous_args = 0
  52              		@ link register save eliminated.
  53              		.loc 1 50 1 is_stmt 0 view .LVU3
  54 0000 10B4     		push	{r4}
  55              	.LCFI0:
  56              		.cfi_def_cfa_offset 4
  57              		.cfi_offset 4, -4
  58 0002 8446     		mov	ip, r0
  51:App/Task_Input/SrvInput.c ****     return InputData;
  59              		.loc 1 51 5 is_stmt 1 view .LVU4
  60              		.loc 1 51 12 is_stmt 0 view .LVU5
  61 0004 094C     		ldr	r4, .L4
  62 0006 0FCC     		ldmia	r4!, {r0, r1, r2, r3}
  63              	.LVL1:
  64              		.loc 1 51 12 view .LVU6
  65 0008 CCF80000 		str	r0, [ip]	@ unaligned
  66 000c CCF80410 		str	r1, [ip, #4]	@ unaligned
ARM GAS  C:\Users\huav\AppData\Local\Temp\cc7TWTbx.s 			page 3


  67 0010 CCF80820 		str	r2, [ip, #8]	@ unaligned
  68 0014 CCF80C30 		str	r3, [ip, #12]	@ unaligned
  69 0018 2068     		ldr	r0, [r4]
  70 001a CCF81000 		str	r0, [ip, #16]	@ unaligned
  71 001e A388     		ldrh	r3, [r4, #4]	@ unaligned
  72 0020 ACF81430 		strh	r3, [ip, #20]	@ unaligned
  52:App/Task_Input/SrvInput.c **** }
  73              		.loc 1 52 1 view .LVU7
  74 0024 6046     		mov	r0, ip
  75 0026 5DF8044B 		ldr	r4, [sp], #4
  76              	.LCFI1:
  77              		.cfi_restore 4
  78              		.cfi_def_cfa_offset 0
  79 002a 7047     		bx	lr
  80              	.L5:
  81              		.align	2
  82              	.L4:
  83 002c 00000000 		.word	.LANCHOR0
  84              		.cfi_endproc
  85              	.LFE2:
  87              		.section	.text.SrvInput_Init,"ax",%progbits
  88              		.align	1
  89              		.syntax unified
  90              		.thumb
  91              		.thumb_func
  92              		.fpu fpv4-sp-d16
  94              	SrvInput_Init:
  95              	.LFB0:
  20:App/Task_Input/SrvInput.c ****     memset(&InputData, 0, sizeof(InputData));
  96              		.loc 1 20 1 is_stmt 1 view -0
  97              		.cfi_startproc
  98              		@ args = 0, pretend = 0, frame = 0
  99              		@ frame_needed = 0, uses_anonymous_args = 0
 100 0000 38B5     		push	{r3, r4, r5, lr}
 101              	.LCFI2:
 102              		.cfi_def_cfa_offset 16
 103              		.cfi_offset 3, -16
 104              		.cfi_offset 4, -12
 105              		.cfi_offset 5, -8
 106              		.cfi_offset 14, -4
  21:App/Task_Input/SrvInput.c **** 
 107              		.loc 1 21 5 view .LVU9
 108 0002 134B     		ldr	r3, .L8
 109 0004 0024     		movs	r4, #0
 110 0006 1C60     		str	r4, [r3]
 111 0008 5C60     		str	r4, [r3, #4]
 112 000a 9C60     		str	r4, [r3, #8]
 113 000c DC60     		str	r4, [r3, #12]
 114 000e 1C61     		str	r4, [r3, #16]
 115 0010 9C82     		strh	r4, [r3, #20]	@ movhi
  24:App/Task_Input/SrvInput.c ****     DrvADC.ctl(ADC_Config_IO, ADC1_Channel1);
 116              		.loc 1 24 5 view .LVU10
  24:App/Task_Input/SrvInput.c ****     DrvADC.ctl(ADC_Config_IO, ADC1_Channel1);
 117              		.loc 1 24 11 is_stmt 0 view .LVU11
 118 0012 104D     		ldr	r5, .L8+4
 119 0014 2B68     		ldr	r3, [r5]
  24:App/Task_Input/SrvInput.c ****     DrvADC.ctl(ADC_Config_IO, ADC1_Channel1);
ARM GAS  C:\Users\huav\AppData\Local\Temp\cc7TWTbx.s 			page 4


 120              		.loc 1 24 5 view .LVU12
 121 0016 2146     		mov	r1, r4
 122 0018 2046     		mov	r0, r4
 123 001a 9847     		blx	r3
 124              	.LVL2:
  25:App/Task_Input/SrvInput.c **** 
 125              		.loc 1 25 5 is_stmt 1 view .LVU13
  25:App/Task_Input/SrvInput.c **** 
 126              		.loc 1 25 11 is_stmt 0 view .LVU14
 127 001c 2B68     		ldr	r3, [r5]
  25:App/Task_Input/SrvInput.c **** 
 128              		.loc 1 25 5 view .LVU15
 129 001e 0121     		movs	r1, #1
 130 0020 2046     		mov	r0, r4
 131 0022 9847     		blx	r3
 132              	.LVL3:
  28:App/Task_Input/SrvInput.c ****     DrvADC.ctl(ADC_Config_IO, ADC1_Channel3);
 133              		.loc 1 28 5 is_stmt 1 view .LVU16
  28:App/Task_Input/SrvInput.c ****     DrvADC.ctl(ADC_Config_IO, ADC1_Channel3);
 134              		.loc 1 28 11 is_stmt 0 view .LVU17
 135 0024 2B68     		ldr	r3, [r5]
  28:App/Task_Input/SrvInput.c ****     DrvADC.ctl(ADC_Config_IO, ADC1_Channel3);
 136              		.loc 1 28 5 view .LVU18
 137 0026 0221     		movs	r1, #2
 138 0028 2046     		mov	r0, r4
 139 002a 9847     		blx	r3
 140              	.LVL4:
  29:App/Task_Input/SrvInput.c **** 
 141              		.loc 1 29 5 is_stmt 1 view .LVU19
  29:App/Task_Input/SrvInput.c **** 
 142              		.loc 1 29 11 is_stmt 0 view .LVU20
 143 002c 2B68     		ldr	r3, [r5]
  29:App/Task_Input/SrvInput.c **** 
 144              		.loc 1 29 5 view .LVU21
 145 002e 0321     		movs	r1, #3
 146 0030 2046     		mov	r0, r4
 147 0032 9847     		blx	r3
 148              	.LVL5:
  32:App/Task_Input/SrvInput.c ****     DrvADC.ctl(ADC_Config_IO, ADC1_Channel5);
 149              		.loc 1 32 5 is_stmt 1 view .LVU22
  32:App/Task_Input/SrvInput.c ****     DrvADC.ctl(ADC_Config_IO, ADC1_Channel5);
 150              		.loc 1 32 11 is_stmt 0 view .LVU23
 151 0034 2B68     		ldr	r3, [r5]
  32:App/Task_Input/SrvInput.c ****     DrvADC.ctl(ADC_Config_IO, ADC1_Channel5);
 152              		.loc 1 32 5 view .LVU24
 153 0036 0421     		movs	r1, #4
 154 0038 2046     		mov	r0, r4
 155 003a 9847     		blx	r3
 156              	.LVL6:
  33:App/Task_Input/SrvInput.c **** 
 157              		.loc 1 33 5 is_stmt 1 view .LVU25
  33:App/Task_Input/SrvInput.c **** 
 158              		.loc 1 33 11 is_stmt 0 view .LVU26
 159 003c 2B68     		ldr	r3, [r5]
  33:App/Task_Input/SrvInput.c **** 
 160              		.loc 1 33 5 view .LVU27
 161 003e 0521     		movs	r1, #5
ARM GAS  C:\Users\huav\AppData\Local\Temp\cc7TWTbx.s 			page 5


 162 0040 2046     		mov	r0, r4
 163 0042 9847     		blx	r3
 164              	.LVL7:
  42:App/Task_Input/SrvInput.c **** }
 165              		.loc 1 42 5 is_stmt 1 view .LVU28
  42:App/Task_Input/SrvInput.c **** }
 166              		.loc 1 42 11 is_stmt 0 view .LVU29
 167 0044 2B68     		ldr	r3, [r5]
  42:App/Task_Input/SrvInput.c **** }
 168              		.loc 1 42 5 view .LVU30
 169 0046 2146     		mov	r1, r4
 170 0048 0120     		movs	r0, #1
 171 004a 9847     		blx	r3
 172              	.LVL8:
  43:App/Task_Input/SrvInput.c **** 
 173              		.loc 1 43 1 view .LVU31
 174 004c 38BD     		pop	{r3, r4, r5, pc}
 175              	.L9:
 176 004e 00BF     		.align	2
 177              	.L8:
 178 0050 00000000 		.word	.LANCHOR0
 179 0054 00000000 		.word	DrvADC
 180              		.cfi_endproc
 181              	.LFE0:
 183              		.global	InputObj
 184              		.section	.bss.InputData,"aw",%nobits
 185              		.align	2
 186              		.set	.LANCHOR0,. + 0
 189              	InputData:
 190 0000 00000000 		.space	22
 190      00000000 
 190      00000000 
 190      00000000 
 190      00000000 
 191              		.section	.data.InputObj,"aw"
 192              		.align	2
 195              	InputObj:
 196 0000 00000000 		.word	SrvInput_Init
 197 0004 00000000 		.word	SrvInput_Sample
 198 0008 00000000 		.word	SrvInput_GetData
 199              		.text
 200              	.Letext0:
 201              		.file 2 "c:\\program files (x86)\\gnu arm embedded toolchain\\10 2020-q4-major\\arm-none-eabi\\inc
 202              		.file 3 "c:\\program files (x86)\\gnu arm embedded toolchain\\10 2020-q4-major\\arm-none-eabi\\inc
 203              		.file 4 "App/Task_Input/SrvInput.h"
 204              		.file 5 "Bsp/periph_adc.h"
 205              		.file 6 "Drv/drv_adc.h"
ARM GAS  C:\Users\huav\AppData\Local\Temp\cc7TWTbx.s 			page 6


DEFINED SYMBOLS
                            *ABS*:00000000 SrvInput.c
C:\Users\huav\AppData\Local\Temp\cc7TWTbx.s:18     .text.SrvInput_Sample:00000000 $t
C:\Users\huav\AppData\Local\Temp\cc7TWTbx.s:25     .text.SrvInput_Sample:00000000 SrvInput_Sample
C:\Users\huav\AppData\Local\Temp\cc7TWTbx.s:39     .text.SrvInput_GetData:00000000 $t
C:\Users\huav\AppData\Local\Temp\cc7TWTbx.s:45     .text.SrvInput_GetData:00000000 SrvInput_GetData
C:\Users\huav\AppData\Local\Temp\cc7TWTbx.s:83     .text.SrvInput_GetData:0000002c $d
C:\Users\huav\AppData\Local\Temp\cc7TWTbx.s:88     .text.SrvInput_Init:00000000 $t
C:\Users\huav\AppData\Local\Temp\cc7TWTbx.s:94     .text.SrvInput_Init:00000000 SrvInput_Init
C:\Users\huav\AppData\Local\Temp\cc7TWTbx.s:178    .text.SrvInput_Init:00000050 $d
C:\Users\huav\AppData\Local\Temp\cc7TWTbx.s:195    .data.InputObj:00000000 InputObj
C:\Users\huav\AppData\Local\Temp\cc7TWTbx.s:185    .bss.InputData:00000000 $d
C:\Users\huav\AppData\Local\Temp\cc7TWTbx.s:189    .bss.InputData:00000000 InputData
C:\Users\huav\AppData\Local\Temp\cc7TWTbx.s:192    .data.InputObj:00000000 $d

UNDEFINED SYMBOLS
DrvADC
