ARM GAS  /var/folders/lx/hc4sn_b53233_zkc9xbbl97r0000gp/T//ccGmOI0j.s 			page 1


   1              		.cpu cortex-m4
   2              		.eabi_attribute 27, 1
   3              		.eabi_attribute 28, 1
   4              		.eabi_attribute 20, 1
   5              		.eabi_attribute 21, 1
   6              		.eabi_attribute 23, 3
   7              		.eabi_attribute 24, 1
   8              		.eabi_attribute 25, 1
   9              		.eabi_attribute 26, 1
  10              		.eabi_attribute 30, 1
  11              		.eabi_attribute 34, 1
  12              		.eabi_attribute 18, 4
  13              		.file	"SrvOled.c"
  14              		.text
  15              	.Ltext0:
  16              		.cfi_sections	.debug_frame
  17              		.section	.text.SrvOled_BusInit,"ax",%progbits
  18              		.align	1
  19              		.arch armv7e-m
  20              		.syntax unified
  21              		.thumb
  22              		.thumb_func
  23              		.fpu fpv4-sp-d16
  25              	SrvOled_BusInit:
  26              	.LVL0:
  27              	.LFB123:
  28              		.file 1 "Dsp/screen/service/SrvOled.c"
   1:Dsp/screen/service/SrvOled.c **** #include "oled1306.h"
   2:Dsp/screen/service/SrvOled.c **** #include "drv_spi.h"
   3:Dsp/screen/service/SrvOled.c **** #include "drv_gpio.h"
   4:Dsp/screen/service/SrvOled.c **** #include "OledIO_Def.h"
   5:Dsp/screen/service/SrvOled.c **** #include "SrvOled.h"
   6:Dsp/screen/service/SrvOled.c **** 
   7:Dsp/screen/service/SrvOled.c **** /* internal varible definition */
   8:Dsp/screen/service/SrvOled.c **** static Oled_Obj_TypeDef Oled1306Obj;
   9:Dsp/screen/service/SrvOled.c **** static DrvGPIO_Obj_TypeDef DC_IO_Obj;
  10:Dsp/screen/service/SrvOled.c **** static DrvGPIO_Obj_TypeDef RS_IO_Obj;
  11:Dsp/screen/service/SrvOled.c **** static DrvSpi_Obj_TypeDef BusInit_Structure;
  12:Dsp/screen/service/SrvOled.c **** static bool SrvPerInit_State = false;
  13:Dsp/screen/service/SrvOled.c **** static bool SrvInit_State = false;
  14:Dsp/screen/service/SrvOled.c **** 
  15:Dsp/screen/service/SrvOled.c **** /* internal function definition */
  16:Dsp/screen/service/SrvOled.c **** static bool SrvOled_PreInit(void);
  17:Dsp/screen/service/SrvOled.c **** static void SrvOled_BusInit(SPI_List BusID);
  18:Dsp/screen/service/SrvOled.c **** 
  19:Dsp/screen/service/SrvOled.c **** /* external function definition */
  20:Dsp/screen/service/SrvOled.c **** static bool SrvOled_Init(void);
  21:Dsp/screen/service/SrvOled.c **** static bool SrvOled_Fresh(uint8_t **bit_map);
  22:Dsp/screen/service/SrvOled.c **** static SrvOled_DspRange SrvOled_GetDev_DspRange(void);
  23:Dsp/screen/service/SrvOled.c **** static bool SrvOled_Routate(Oled_Routate_Direction_Def routate_dir);
  24:Dsp/screen/service/SrvOled.c **** static bool SrvOled_Mirror(Oled_Mirror_Direction_Def mirror_dir);
  25:Dsp/screen/service/SrvOled.c **** static bool SrvOled_SetBright(Oled_Bright_Level level);
  26:Dsp/screen/service/SrvOled.c **** static bool SrvOled_SetBright(Oled_Bright_Level level);
  27:Dsp/screen/service/SrvOled.c **** 
  28:Dsp/screen/service/SrvOled.c **** SrvOled_TypeDef SrvOled = {
  29:Dsp/screen/service/SrvOled.c ****     .init = SrvOled_Init,
  30:Dsp/screen/service/SrvOled.c ****     .bright = SrvOled_SetBright,
ARM GAS  /var/folders/lx/hc4sn_b53233_zkc9xbbl97r0000gp/T//ccGmOI0j.s 			page 2


  31:Dsp/screen/service/SrvOled.c ****     .fresh = SrvOled_Fresh,
  32:Dsp/screen/service/SrvOled.c ****     .get_range = SrvOled_GetDev_DspRange,
  33:Dsp/screen/service/SrvOled.c **** };
  34:Dsp/screen/service/SrvOled.c **** 
  35:Dsp/screen/service/SrvOled.c **** /******************************* IO & Bus Init Function Section ***********************************
  36:Dsp/screen/service/SrvOled.c **** 
  37:Dsp/screen/service/SrvOled.c **** static void SrvOled_BusInit(SPI_List BusID)
  38:Dsp/screen/service/SrvOled.c **** {
  29              		.loc 1 38 1 view -0
  30              		.cfi_startproc
  31              		@ args = 0, pretend = 0, frame = 0
  32              		@ frame_needed = 0, uses_anonymous_args = 0
  33              		.loc 1 38 1 is_stmt 0 view .LVU1
  34 0000 08B5     		push	{r3, lr}
  35              	.LCFI0:
  36              		.cfi_def_cfa_offset 8
  37              		.cfi_offset 3, -8
  38              		.cfi_offset 14, -4
  39:Dsp/screen/service/SrvOled.c ****     BusInit_Structure.SPIx = BusID;
  39              		.loc 1 39 5 is_stmt 1 view .LVU2
  40              		.loc 1 39 28 is_stmt 0 view .LVU3
  41 0002 084B     		ldr	r3, .L3
  42 0004 1870     		strb	r0, [r3]
  40:Dsp/screen/service/SrvOled.c ****     BusInit_Structure.speed = SPI_CLOCK_ULTRAFAST;
  43              		.loc 1 40 5 is_stmt 1 view .LVU4
  44              		.loc 1 40 29 is_stmt 0 view .LVU5
  45 0006 0422     		movs	r2, #4
  46 0008 5A70     		strb	r2, [r3, #1]
  41:Dsp/screen/service/SrvOled.c ****     BusInit_Structure.CPOL = SPI_CPOL_High;
  47              		.loc 1 41 5 is_stmt 1 view .LVU6
  48              		.loc 1 41 28 is_stmt 0 view .LVU7
  49 000a 0222     		movs	r2, #2
  50 000c 5A80     		strh	r2, [r3, #2]	@ movhi
  42:Dsp/screen/service/SrvOled.c ****     BusInit_Structure.CPHA = SPI_CPHA_2Edge;
  51              		.loc 1 42 5 is_stmt 1 view .LVU8
  52              		.loc 1 42 28 is_stmt 0 view .LVU9
  53 000e 0122     		movs	r2, #1
  54 0010 9A80     		strh	r2, [r3, #4]	@ movhi
  43:Dsp/screen/service/SrvOled.c **** 
  44:Dsp/screen/service/SrvOled.c ****     Oled1306Obj.BusObj = &BusInit_Structure;
  55              		.loc 1 44 5 is_stmt 1 view .LVU10
  56              		.loc 1 44 24 is_stmt 0 view .LVU11
  57 0012 054A     		ldr	r2, .L3+4
  58 0014 C2F80130 		str	r3, [r2, #1]	@ unaligned
  45:Dsp/screen/service/SrvOled.c **** 
  46:Dsp/screen/service/SrvOled.c ****     GenSPI_Drv.open(&BusInit_Structure);
  59              		.loc 1 46 5 is_stmt 1 view .LVU12
  60              		.loc 1 46 15 is_stmt 0 view .LVU13
  61 0018 044A     		ldr	r2, .L3+8
  62 001a 1268     		ldr	r2, [r2]
  63              		.loc 1 46 5 view .LVU14
  64 001c 1846     		mov	r0, r3
  65              	.LVL1:
  66              		.loc 1 46 5 view .LVU15
  67 001e 9047     		blx	r2
  68              	.LVL2:
  47:Dsp/screen/service/SrvOled.c **** }
ARM GAS  /var/folders/lx/hc4sn_b53233_zkc9xbbl97r0000gp/T//ccGmOI0j.s 			page 3


  69              		.loc 1 47 1 view .LVU16
  70 0020 08BD     		pop	{r3, pc}
  71              	.L4:
  72 0022 00BF     		.align	2
  73              	.L3:
  74 0024 00000000 		.word	.LANCHOR0
  75 0028 00000000 		.word	.LANCHOR1
  76 002c 00000000 		.word	GenSPI_Drv
  77              		.cfi_endproc
  78              	.LFE123:
  80              		.section	.text.SrvOled_BusTransmit,"ax",%progbits
  81              		.align	1
  82              		.syntax unified
  83              		.thumb
  84              		.thumb_func
  85              		.fpu fpv4-sp-d16
  87              	SrvOled_BusTransmit:
  88              	.LVL3:
  89              	.LFB124:
  48:Dsp/screen/service/SrvOled.c **** 
  49:Dsp/screen/service/SrvOled.c **** static void SrvOled_BusTransmit(uint8_t tx)
  50:Dsp/screen/service/SrvOled.c **** {
  90              		.loc 1 50 1 is_stmt 1 view -0
  91              		.cfi_startproc
  92              		@ args = 0, pretend = 0, frame = 0
  93              		@ frame_needed = 0, uses_anonymous_args = 0
  94              		.loc 1 50 1 is_stmt 0 view .LVU18
  95 0000 08B5     		push	{r3, lr}
  96              	.LCFI1:
  97              		.cfi_def_cfa_offset 8
  98              		.cfi_offset 3, -8
  99              		.cfi_offset 14, -4
 100 0002 0146     		mov	r1, r0
  51:Dsp/screen/service/SrvOled.c ****     GenSPI_Drv.transmit((DrvSpi_Obj_TypeDef *)Oled1306Obj.BusObj, tx);
 101              		.loc 1 51 5 is_stmt 1 view .LVU19
 102              		.loc 1 51 15 is_stmt 0 view .LVU20
 103 0004 034B     		ldr	r3, .L7
 104 0006 DB68     		ldr	r3, [r3, #12]
 105              		.loc 1 51 5 view .LVU21
 106 0008 034A     		ldr	r2, .L7+4
 107 000a D2F80100 		ldr	r0, [r2, #1]	@ unaligned
 108              	.LVL4:
 109              		.loc 1 51 5 view .LVU22
 110 000e 9847     		blx	r3
 111              	.LVL5:
  52:Dsp/screen/service/SrvOled.c **** }
 112              		.loc 1 52 1 view .LVU23
 113 0010 08BD     		pop	{r3, pc}
 114              	.L8:
 115 0012 00BF     		.align	2
 116              	.L7:
 117 0014 00000000 		.word	GenSPI_Drv
 118 0018 00000000 		.word	.LANCHOR1
 119              		.cfi_endproc
 120              	.LFE124:
 122              		.section	.text.SrvOled_DCPin_Init,"ax",%progbits
 123              		.align	1
ARM GAS  /var/folders/lx/hc4sn_b53233_zkc9xbbl97r0000gp/T//ccGmOI0j.s 			page 4


 124              		.syntax unified
 125              		.thumb
 126              		.thumb_func
 127              		.fpu fpv4-sp-d16
 129              	SrvOled_DCPin_Init:
 130              	.LFB125:
  53:Dsp/screen/service/SrvOled.c **** 
  54:Dsp/screen/service/SrvOled.c **** static void SrvOled_DCPin_Init(void)
  55:Dsp/screen/service/SrvOled.c **** {
 131              		.loc 1 55 1 is_stmt 1 view -0
 132              		.cfi_startproc
 133              		@ args = 0, pretend = 0, frame = 0
 134              		@ frame_needed = 0, uses_anonymous_args = 0
 135 0000 70B5     		push	{r4, r5, r6, lr}
 136              	.LCFI2:
 137              		.cfi_def_cfa_offset 16
 138              		.cfi_offset 4, -16
 139              		.cfi_offset 5, -12
 140              		.cfi_offset 6, -8
 141              		.cfi_offset 14, -4
  56:Dsp/screen/service/SrvOled.c ****     DC_IO_Obj.CLK = OLED1306_DC_PORT_CLK;
 142              		.loc 1 56 5 view .LVU25
 143              		.loc 1 56 19 is_stmt 0 view .LVU26
 144 0002 0A4C     		ldr	r4, .L11
 145 0004 0823     		movs	r3, #8
 146 0006 2360     		str	r3, [r4]
  57:Dsp/screen/service/SrvOled.c ****     DC_IO_Obj.Port = OLED1306_DC_PORT;
 147              		.loc 1 57 5 is_stmt 1 view .LVU27
 148              		.loc 1 57 20 is_stmt 0 view .LVU28
 149 0008 094B     		ldr	r3, .L11+4
 150 000a A360     		str	r3, [r4, #8]
  58:Dsp/screen/service/SrvOled.c ****     DC_IO_Obj.Pin = OLED1306_DC_PIN;
 151              		.loc 1 58 5 is_stmt 1 view .LVU29
 152              		.loc 1 58 19 is_stmt 0 view .LVU30
 153 000c 0223     		movs	r3, #2
 154 000e A380     		strh	r3, [r4, #4]	@ movhi
  59:Dsp/screen/service/SrvOled.c ****     DC_IO_Obj.IO_Type = GPIO_Output;
 155              		.loc 1 59 5 is_stmt 1 view .LVU31
 156              		.loc 1 59 23 is_stmt 0 view .LVU32
 157 0010 0025     		movs	r5, #0
 158 0012 2573     		strb	r5, [r4, #12]
  60:Dsp/screen/service/SrvOled.c **** 
  61:Dsp/screen/service/SrvOled.c ****     DrvGPIO.open(&DC_IO_Obj, DC_IO_Obj.IO_Type, NULL);
 159              		.loc 1 61 5 is_stmt 1 view .LVU33
 160              		.loc 1 61 12 is_stmt 0 view .LVU34
 161 0014 074E     		ldr	r6, .L11+8
 162 0016 3368     		ldr	r3, [r6]
 163              		.loc 1 61 5 view .LVU35
 164 0018 2A46     		mov	r2, r5
 165 001a 2946     		mov	r1, r5
 166 001c 2046     		mov	r0, r4
 167 001e 9847     		blx	r3
 168              	.LVL6:
  62:Dsp/screen/service/SrvOled.c ****     DrvGPIO.set(&DC_IO_Obj, HI);
 169              		.loc 1 62 5 is_stmt 1 view .LVU36
 170              		.loc 1 62 12 is_stmt 0 view .LVU37
 171 0020 B368     		ldr	r3, [r6, #8]
ARM GAS  /var/folders/lx/hc4sn_b53233_zkc9xbbl97r0000gp/T//ccGmOI0j.s 			page 5


 172              		.loc 1 62 5 view .LVU38
 173 0022 2946     		mov	r1, r5
 174 0024 2046     		mov	r0, r4
 175 0026 9847     		blx	r3
 176              	.LVL7:
  63:Dsp/screen/service/SrvOled.c **** }
 177              		.loc 1 63 1 view .LVU39
 178 0028 70BD     		pop	{r4, r5, r6, pc}
 179              	.L12:
 180 002a 00BF     		.align	2
 181              	.L11:
 182 002c 00000000 		.word	.LANCHOR2
 183 0030 000C0240 		.word	1073875968
 184 0034 00000000 		.word	DrvGPIO
 185              		.cfi_endproc
 186              	.LFE125:
 188              		.section	.text.SrvOled_RSPin_Init,"ax",%progbits
 189              		.align	1
 190              		.syntax unified
 191              		.thumb
 192              		.thumb_func
 193              		.fpu fpv4-sp-d16
 195              	SrvOled_RSPin_Init:
 196              	.LFB126:
  64:Dsp/screen/service/SrvOled.c **** 
  65:Dsp/screen/service/SrvOled.c **** static void SrvOled_RSPin_Init(void)
  66:Dsp/screen/service/SrvOled.c **** {
 197              		.loc 1 66 1 is_stmt 1 view -0
 198              		.cfi_startproc
 199              		@ args = 0, pretend = 0, frame = 0
 200              		@ frame_needed = 0, uses_anonymous_args = 0
 201 0000 70B5     		push	{r4, r5, r6, lr}
 202              	.LCFI3:
 203              		.cfi_def_cfa_offset 16
 204              		.cfi_offset 4, -16
 205              		.cfi_offset 5, -12
 206              		.cfi_offset 6, -8
 207              		.cfi_offset 14, -4
  67:Dsp/screen/service/SrvOled.c ****     RS_IO_Obj.CLK = OLED1306_RS_PORT_CLK;
 208              		.loc 1 67 5 view .LVU41
 209              		.loc 1 67 19 is_stmt 0 view .LVU42
 210 0002 0A4C     		ldr	r4, .L15
 211 0004 0823     		movs	r3, #8
 212 0006 2360     		str	r3, [r4]
  68:Dsp/screen/service/SrvOled.c ****     RS_IO_Obj.Port = OLED1306_RS_PORT;
 213              		.loc 1 68 5 is_stmt 1 view .LVU43
 214              		.loc 1 68 20 is_stmt 0 view .LVU44
 215 0008 094B     		ldr	r3, .L15+4
 216 000a A360     		str	r3, [r4, #8]
  69:Dsp/screen/service/SrvOled.c ****     RS_IO_Obj.Pin = OLED1306_RS_PIN;
 217              		.loc 1 69 5 is_stmt 1 view .LVU45
 218              		.loc 1 69 19 is_stmt 0 view .LVU46
 219 000c 0123     		movs	r3, #1
 220 000e A380     		strh	r3, [r4, #4]	@ movhi
  70:Dsp/screen/service/SrvOled.c ****     RS_IO_Obj.IO_Type = GPIO_Output;
 221              		.loc 1 70 5 is_stmt 1 view .LVU47
 222              		.loc 1 70 23 is_stmt 0 view .LVU48
ARM GAS  /var/folders/lx/hc4sn_b53233_zkc9xbbl97r0000gp/T//ccGmOI0j.s 			page 6


 223 0010 0025     		movs	r5, #0
 224 0012 2573     		strb	r5, [r4, #12]
  71:Dsp/screen/service/SrvOled.c **** 
  72:Dsp/screen/service/SrvOled.c ****     DrvGPIO.open(&RS_IO_Obj, RS_IO_Obj.IO_Type, NULL);
 225              		.loc 1 72 5 is_stmt 1 view .LVU49
 226              		.loc 1 72 12 is_stmt 0 view .LVU50
 227 0014 074E     		ldr	r6, .L15+8
 228 0016 3368     		ldr	r3, [r6]
 229              		.loc 1 72 5 view .LVU51
 230 0018 2A46     		mov	r2, r5
 231 001a 2946     		mov	r1, r5
 232 001c 2046     		mov	r0, r4
 233 001e 9847     		blx	r3
 234              	.LVL8:
  73:Dsp/screen/service/SrvOled.c ****     DrvGPIO.set(&RS_IO_Obj, HI);
 235              		.loc 1 73 5 is_stmt 1 view .LVU52
 236              		.loc 1 73 12 is_stmt 0 view .LVU53
 237 0020 B368     		ldr	r3, [r6, #8]
 238              		.loc 1 73 5 view .LVU54
 239 0022 2946     		mov	r1, r5
 240 0024 2046     		mov	r0, r4
 241 0026 9847     		blx	r3
 242              	.LVL9:
  74:Dsp/screen/service/SrvOled.c **** }
 243              		.loc 1 74 1 view .LVU55
 244 0028 70BD     		pop	{r4, r5, r6, pc}
 245              	.L16:
 246 002a 00BF     		.align	2
 247              	.L15:
 248 002c 00000000 		.word	.LANCHOR3
 249 0030 000C0240 		.word	1073875968
 250 0034 00000000 		.word	DrvGPIO
 251              		.cfi_endproc
 252              	.LFE126:
 254              		.section	.text.SrvOled_DCPin_Ctl,"ax",%progbits
 255              		.align	1
 256              		.syntax unified
 257              		.thumb
 258              		.thumb_func
 259              		.fpu fpv4-sp-d16
 261              	SrvOled_DCPin_Ctl:
 262              	.LVL10:
 263              	.LFB127:
  75:Dsp/screen/service/SrvOled.c **** 
  76:Dsp/screen/service/SrvOled.c **** static void SrvOled_DCPin_Ctl(Oled_DC_State_List state)
  77:Dsp/screen/service/SrvOled.c **** {
 264              		.loc 1 77 1 is_stmt 1 view -0
 265              		.cfi_startproc
 266              		@ args = 0, pretend = 0, frame = 0
 267              		@ frame_needed = 0, uses_anonymous_args = 0
 268              		.loc 1 77 1 is_stmt 0 view .LVU57
 269 0000 08B5     		push	{r3, lr}
 270              	.LCFI4:
 271              		.cfi_def_cfa_offset 8
 272              		.cfi_offset 3, -8
 273              		.cfi_offset 14, -4
  78:Dsp/screen/service/SrvOled.c ****     DrvGPIO_IO_Level_TypeDef level = GPIO_ERR;
ARM GAS  /var/folders/lx/hc4sn_b53233_zkc9xbbl97r0000gp/T//ccGmOI0j.s 			page 7


 274              		.loc 1 78 5 is_stmt 1 view .LVU58
 275              	.LVL11:
  79:Dsp/screen/service/SrvOled.c **** 
  80:Dsp/screen/service/SrvOled.c ****     if (state == Oled_DC_Enable)
 276              		.loc 1 80 5 view .LVU59
 277              		.loc 1 80 8 is_stmt 0 view .LVU60
 278 0002 20B1     		cbz	r0, .L19
 279 0004 0146     		mov	r1, r0
  81:Dsp/screen/service/SrvOled.c ****     {
  82:Dsp/screen/service/SrvOled.c ****         level = GPIO_HIGH;
  83:Dsp/screen/service/SrvOled.c ****     }
  84:Dsp/screen/service/SrvOled.c ****     else if (state == Oled_DC_Disable)
 280              		.loc 1 84 10 is_stmt 1 view .LVU61
 281              		.loc 1 84 13 is_stmt 0 view .LVU62
 282 0006 0128     		cmp	r0, #1
 283 0008 02D0     		beq	.L18
  78:Dsp/screen/service/SrvOled.c **** 
 284              		.loc 1 78 30 view .LVU63
 285 000a 0021     		movs	r1, #0
 286 000c 00E0     		b	.L18
 287              	.L19:
  82:Dsp/screen/service/SrvOled.c ****     }
 288              		.loc 1 82 15 view .LVU64
 289 000e 0221     		movs	r1, #2
 290              	.L18:
 291              	.LVL12:
  85:Dsp/screen/service/SrvOled.c ****         level = GPIO_LOW;
  86:Dsp/screen/service/SrvOled.c **** 
  87:Dsp/screen/service/SrvOled.c ****     DrvGPIO.set(&DC_IO_Obj, level);
 292              		.loc 1 87 5 is_stmt 1 view .LVU65
 293              		.loc 1 87 12 is_stmt 0 view .LVU66
 294 0010 024B     		ldr	r3, .L21
 295 0012 9B68     		ldr	r3, [r3, #8]
 296              		.loc 1 87 5 view .LVU67
 297 0014 0248     		ldr	r0, .L21+4
 298              	.LVL13:
 299              		.loc 1 87 5 view .LVU68
 300 0016 9847     		blx	r3
 301              	.LVL14:
  88:Dsp/screen/service/SrvOled.c **** }
 302              		.loc 1 88 1 view .LVU69
 303 0018 08BD     		pop	{r3, pc}
 304              	.L22:
 305 001a 00BF     		.align	2
 306              	.L21:
 307 001c 00000000 		.word	DrvGPIO
 308 0020 00000000 		.word	.LANCHOR2
 309              		.cfi_endproc
 310              	.LFE127:
 312              		.section	.text.SrvOled_RSPin_Ctl,"ax",%progbits
 313              		.align	1
 314              		.syntax unified
 315              		.thumb
 316              		.thumb_func
 317              		.fpu fpv4-sp-d16
 319              	SrvOled_RSPin_Ctl:
 320              	.LVL15:
ARM GAS  /var/folders/lx/hc4sn_b53233_zkc9xbbl97r0000gp/T//ccGmOI0j.s 			page 8


 321              	.LFB128:
  89:Dsp/screen/service/SrvOled.c **** 
  90:Dsp/screen/service/SrvOled.c **** static void SrvOled_RSPin_Ctl(Oled_RS_State_List state)
  91:Dsp/screen/service/SrvOled.c **** {
 322              		.loc 1 91 1 is_stmt 1 view -0
 323              		.cfi_startproc
 324              		@ args = 0, pretend = 0, frame = 0
 325              		@ frame_needed = 0, uses_anonymous_args = 0
 326              		.loc 1 91 1 is_stmt 0 view .LVU71
 327 0000 08B5     		push	{r3, lr}
 328              	.LCFI5:
 329              		.cfi_def_cfa_offset 8
 330              		.cfi_offset 3, -8
 331              		.cfi_offset 14, -4
  92:Dsp/screen/service/SrvOled.c ****     DrvGPIO_IO_Level_TypeDef level = GPIO_ERR;
 332              		.loc 1 92 5 is_stmt 1 view .LVU72
 333              	.LVL16:
  93:Dsp/screen/service/SrvOled.c **** 
  94:Dsp/screen/service/SrvOled.c ****     if (state == Oled_RS_Enable)
 334              		.loc 1 94 5 view .LVU73
 335              		.loc 1 94 8 is_stmt 0 view .LVU74
 336 0002 20B1     		cbz	r0, .L25
 337 0004 0146     		mov	r1, r0
  95:Dsp/screen/service/SrvOled.c ****     {
  96:Dsp/screen/service/SrvOled.c ****         level = GPIO_HIGH;
  97:Dsp/screen/service/SrvOled.c ****     }
  98:Dsp/screen/service/SrvOled.c ****     else if (state == Oled_RS_Disable)
 338              		.loc 1 98 10 is_stmt 1 view .LVU75
 339              		.loc 1 98 13 is_stmt 0 view .LVU76
 340 0006 0128     		cmp	r0, #1
 341 0008 02D0     		beq	.L24
  92:Dsp/screen/service/SrvOled.c **** 
 342              		.loc 1 92 30 view .LVU77
 343 000a 0021     		movs	r1, #0
 344 000c 00E0     		b	.L24
 345              	.L25:
  96:Dsp/screen/service/SrvOled.c ****     }
 346              		.loc 1 96 15 view .LVU78
 347 000e 0221     		movs	r1, #2
 348              	.L24:
 349              	.LVL17:
  99:Dsp/screen/service/SrvOled.c ****         level = GPIO_LOW;
 100:Dsp/screen/service/SrvOled.c **** 
 101:Dsp/screen/service/SrvOled.c ****     DrvGPIO.set(&RS_IO_Obj, level);
 350              		.loc 1 101 5 is_stmt 1 view .LVU79
 351              		.loc 1 101 12 is_stmt 0 view .LVU80
 352 0010 024B     		ldr	r3, .L27
 353 0012 9B68     		ldr	r3, [r3, #8]
 354              		.loc 1 101 5 view .LVU81
 355 0014 0248     		ldr	r0, .L27+4
 356              	.LVL18:
 357              		.loc 1 101 5 view .LVU82
 358 0016 9847     		blx	r3
 359              	.LVL19:
 102:Dsp/screen/service/SrvOled.c **** }
 360              		.loc 1 102 1 view .LVU83
 361 0018 08BD     		pop	{r3, pc}
ARM GAS  /var/folders/lx/hc4sn_b53233_zkc9xbbl97r0000gp/T//ccGmOI0j.s 			page 9


 362              	.L28:
 363 001a 00BF     		.align	2
 364              	.L27:
 365 001c 00000000 		.word	DrvGPIO
 366 0020 00000000 		.word	.LANCHOR3
 367              		.cfi_endproc
 368              	.LFE128:
 370              		.section	.text.SrvOled_PreInit,"ax",%progbits
 371              		.align	1
 372              		.syntax unified
 373              		.thumb
 374              		.thumb_func
 375              		.fpu fpv4-sp-d16
 377              	SrvOled_PreInit:
 378              	.LFB129:
 103:Dsp/screen/service/SrvOled.c **** 
 104:Dsp/screen/service/SrvOled.c **** /******************************* IO & Bus Init Function Section ***********************************
 105:Dsp/screen/service/SrvOled.c **** 
 106:Dsp/screen/service/SrvOled.c **** static bool SrvOled_PreInit(void)
 107:Dsp/screen/service/SrvOled.c **** {
 379              		.loc 1 107 1 is_stmt 1 view -0
 380              		.cfi_startproc
 381              		@ args = 0, pretend = 0, frame = 0
 382              		@ frame_needed = 0, uses_anonymous_args = 0
 383              		@ link register save eliminated.
 108:Dsp/screen/service/SrvOled.c ****     Oled1306Obj.Bus = Oled_SpiBus;
 384              		.loc 1 108 5 view .LVU85
 385              		.loc 1 108 21 is_stmt 0 view .LVU86
 386 0000 0C4B     		ldr	r3, .L30
 387 0002 0022     		movs	r2, #0
 388 0004 1A70     		strb	r2, [r3]
 109:Dsp/screen/service/SrvOled.c ****     Oled1306Obj.BusID = SPI_1;
 389              		.loc 1 109 5 is_stmt 1 view .LVU87
 390              		.loc 1 109 23 is_stmt 0 view .LVU88
 391 0006 5A71     		strb	r2, [r3, #5]
 110:Dsp/screen/service/SrvOled.c **** 
 111:Dsp/screen/service/SrvOled.c ****     Oled1306Obj.bus_init = SrvOled_BusInit;
 392              		.loc 1 111 5 is_stmt 1 view .LVU89
 393              		.loc 1 111 26 is_stmt 0 view .LVU90
 394 0008 0B4A     		ldr	r2, .L30+4
 395 000a C3F81620 		str	r2, [r3, #22]	@ unaligned
 112:Dsp/screen/service/SrvOled.c ****     Oled1306Obj.bus_transmit = SrvOled_BusTransmit;
 396              		.loc 1 112 5 is_stmt 1 view .LVU91
 397              		.loc 1 112 30 is_stmt 0 view .LVU92
 398 000e 0B4A     		ldr	r2, .L30+8
 399 0010 C3F81A20 		str	r2, [r3, #26]	@ unaligned
 113:Dsp/screen/service/SrvOled.c **** 
 114:Dsp/screen/service/SrvOled.c ****     Oled1306Obj.rs_init = SrvOled_RSPin_Init;
 400              		.loc 1 114 5 is_stmt 1 view .LVU93
 401              		.loc 1 114 25 is_stmt 0 view .LVU94
 402 0014 0A4A     		ldr	r2, .L30+12
 403 0016 C3F80620 		str	r2, [r3, #6]	@ unaligned
 115:Dsp/screen/service/SrvOled.c ****     Oled1306Obj.rs_ctl = SrvOled_RSPin_Ctl;
 404              		.loc 1 115 5 is_stmt 1 view .LVU95
 405              		.loc 1 115 24 is_stmt 0 view .LVU96
 406 001a 0A4A     		ldr	r2, .L30+16
 407 001c C3F80E20 		str	r2, [r3, #14]	@ unaligned
ARM GAS  /var/folders/lx/hc4sn_b53233_zkc9xbbl97r0000gp/T//ccGmOI0j.s 			page 10


 116:Dsp/screen/service/SrvOled.c **** 
 117:Dsp/screen/service/SrvOled.c ****     Oled1306Obj.dc_init = SrvOled_DCPin_Init;
 408              		.loc 1 117 5 is_stmt 1 view .LVU97
 409              		.loc 1 117 25 is_stmt 0 view .LVU98
 410 0020 094A     		ldr	r2, .L30+20
 411 0022 C3F80A20 		str	r2, [r3, #10]	@ unaligned
 118:Dsp/screen/service/SrvOled.c ****     Oled1306Obj.dc_ctl = SrvOled_DCPin_Ctl;
 412              		.loc 1 118 5 is_stmt 1 view .LVU99
 413              		.loc 1 118 24 is_stmt 0 view .LVU100
 414 0026 094A     		ldr	r2, .L30+24
 415 0028 C3F81220 		str	r2, [r3, #18]	@ unaligned
 119:Dsp/screen/service/SrvOled.c **** 
 120:Dsp/screen/service/SrvOled.c ****     SrvPerInit_State = true;
 416              		.loc 1 120 5 is_stmt 1 view .LVU101
 417              		.loc 1 120 22 is_stmt 0 view .LVU102
 418 002c 0120     		movs	r0, #1
 419 002e 084B     		ldr	r3, .L30+28
 420 0030 1870     		strb	r0, [r3]
 121:Dsp/screen/service/SrvOled.c **** 
 122:Dsp/screen/service/SrvOled.c ****     return SrvPerInit_State;
 421              		.loc 1 122 5 is_stmt 1 view .LVU103
 123:Dsp/screen/service/SrvOled.c **** }
 422              		.loc 1 123 1 is_stmt 0 view .LVU104
 423 0032 7047     		bx	lr
 424              	.L31:
 425              		.align	2
 426              	.L30:
 427 0034 00000000 		.word	.LANCHOR1
 428 0038 00000000 		.word	SrvOled_BusInit
 429 003c 00000000 		.word	SrvOled_BusTransmit
 430 0040 00000000 		.word	SrvOled_RSPin_Init
 431 0044 00000000 		.word	SrvOled_RSPin_Ctl
 432 0048 00000000 		.word	SrvOled_DCPin_Init
 433 004c 00000000 		.word	SrvOled_DCPin_Ctl
 434 0050 00000000 		.word	.LANCHOR4
 435              		.cfi_endproc
 436              	.LFE129:
 438              		.section	.text.SrvOled_Init,"ax",%progbits
 439              		.align	1
 440              		.syntax unified
 441              		.thumb
 442              		.thumb_func
 443              		.fpu fpv4-sp-d16
 445              	SrvOled_Init:
 446              	.LFB130:
 124:Dsp/screen/service/SrvOled.c **** 
 125:Dsp/screen/service/SrvOled.c **** static bool SrvOled_Init(void)
 126:Dsp/screen/service/SrvOled.c **** {
 447              		.loc 1 126 1 is_stmt 1 view -0
 448              		.cfi_startproc
 449              		@ args = 0, pretend = 0, frame = 0
 450              		@ frame_needed = 0, uses_anonymous_args = 0
 451 0000 08B5     		push	{r3, lr}
 452              	.LCFI6:
 453              		.cfi_def_cfa_offset 8
 454              		.cfi_offset 3, -8
 455              		.cfi_offset 14, -4
ARM GAS  /var/folders/lx/hc4sn_b53233_zkc9xbbl97r0000gp/T//ccGmOI0j.s 			page 11


 127:Dsp/screen/service/SrvOled.c ****     SrvInit_State = false;
 456              		.loc 1 127 5 view .LVU106
 457              		.loc 1 127 19 is_stmt 0 view .LVU107
 458 0002 084B     		ldr	r3, .L35
 459 0004 0022     		movs	r2, #0
 460 0006 1A70     		strb	r2, [r3]
 128:Dsp/screen/service/SrvOled.c **** 
 129:Dsp/screen/service/SrvOled.c ****     if (SrvOled_PreInit())
 461              		.loc 1 129 5 is_stmt 1 view .LVU108
 462              		.loc 1 129 9 is_stmt 0 view .LVU109
 463 0008 FFF7FEFF 		bl	SrvOled_PreInit
 464              	.LVL20:
 465              		.loc 1 129 8 view .LVU110
 466 000c 38B1     		cbz	r0, .L33
 130:Dsp/screen/service/SrvOled.c ****     {
 131:Dsp/screen/service/SrvOled.c ****         if (DrvOled.init(&Oled1306Obj))
 467              		.loc 1 131 9 is_stmt 1 view .LVU111
 468              		.loc 1 131 20 is_stmt 0 view .LVU112
 469 000e 064B     		ldr	r3, .L35+4
 470 0010 1B68     		ldr	r3, [r3]
 471              		.loc 1 131 13 view .LVU113
 472 0012 0648     		ldr	r0, .L35+8
 473 0014 9847     		blx	r3
 474              	.LVL21:
 475              		.loc 1 131 12 view .LVU114
 476 0016 10B1     		cbz	r0, .L33
 132:Dsp/screen/service/SrvOled.c ****         {
 133:Dsp/screen/service/SrvOled.c ****             SrvInit_State = true;
 477              		.loc 1 133 13 is_stmt 1 view .LVU115
 478              		.loc 1 133 27 is_stmt 0 view .LVU116
 479 0018 024B     		ldr	r3, .L35
 480 001a 0122     		movs	r2, #1
 481 001c 1A70     		strb	r2, [r3]
 482              	.L33:
 134:Dsp/screen/service/SrvOled.c ****         }
 135:Dsp/screen/service/SrvOled.c ****     }
 136:Dsp/screen/service/SrvOled.c **** 
 137:Dsp/screen/service/SrvOled.c ****     return SrvInit_State;
 483              		.loc 1 137 5 is_stmt 1 view .LVU117
 138:Dsp/screen/service/SrvOled.c **** }
 484              		.loc 1 138 1 is_stmt 0 view .LVU118
 485 001e 014B     		ldr	r3, .L35
 486 0020 1878     		ldrb	r0, [r3]	@ zero_extendqisi2
 487 0022 08BD     		pop	{r3, pc}
 488              	.L36:
 489              		.align	2
 490              	.L35:
 491 0024 00000000 		.word	.LANCHOR5
 492 0028 00000000 		.word	DrvOled
 493 002c 00000000 		.word	.LANCHOR1
 494              		.cfi_endproc
 495              	.LFE130:
 497              		.section	.text.SrvOled_Fresh,"ax",%progbits
 498              		.align	1
 499              		.syntax unified
 500              		.thumb
 501              		.thumb_func
ARM GAS  /var/folders/lx/hc4sn_b53233_zkc9xbbl97r0000gp/T//ccGmOI0j.s 			page 12


 502              		.fpu fpv4-sp-d16
 504              	SrvOled_Fresh:
 505              	.LVL22:
 506              	.LFB131:
 139:Dsp/screen/service/SrvOled.c **** 
 140:Dsp/screen/service/SrvOled.c **** static bool SrvOled_Fresh(uint8_t **bit_map)
 141:Dsp/screen/service/SrvOled.c **** {
 507              		.loc 1 141 1 is_stmt 1 view -0
 508              		.cfi_startproc
 509              		@ args = 0, pretend = 0, frame = 0
 510              		@ frame_needed = 0, uses_anonymous_args = 0
 511              		.loc 1 141 1 is_stmt 0 view .LVU120
 512 0000 10B5     		push	{r4, lr}
 513              	.LCFI7:
 514              		.cfi_def_cfa_offset 8
 515              		.cfi_offset 4, -8
 516              		.cfi_offset 14, -4
 142:Dsp/screen/service/SrvOled.c ****     if (!SrvInit_State)
 517              		.loc 1 142 5 is_stmt 1 view .LVU121
 518              		.loc 1 142 9 is_stmt 0 view .LVU122
 519 0002 054B     		ldr	r3, .L40
 520 0004 1C78     		ldrb	r4, [r3]	@ zero_extendqisi2
 521              		.loc 1 142 8 view .LVU123
 522 0006 24B1     		cbz	r4, .L38
 523 0008 0146     		mov	r1, r0
 143:Dsp/screen/service/SrvOled.c ****         return false;
 144:Dsp/screen/service/SrvOled.c **** 
 145:Dsp/screen/service/SrvOled.c ****     DrvOled.fresh(&Oled1306Obj, bit_map);
 524              		.loc 1 145 5 is_stmt 1 view .LVU124
 525              		.loc 1 145 12 is_stmt 0 view .LVU125
 526 000a 044B     		ldr	r3, .L40+4
 527 000c 9B68     		ldr	r3, [r3, #8]
 528              		.loc 1 145 5 view .LVU126
 529 000e 0448     		ldr	r0, .L40+8
 530              	.LVL23:
 531              		.loc 1 145 5 view .LVU127
 532 0010 9847     		blx	r3
 533              	.LVL24:
 146:Dsp/screen/service/SrvOled.c ****     return true;
 534              		.loc 1 146 5 is_stmt 1 view .LVU128
 535              	.L38:
 147:Dsp/screen/service/SrvOled.c **** }
 536              		.loc 1 147 1 is_stmt 0 view .LVU129
 537 0012 2046     		mov	r0, r4
 538 0014 10BD     		pop	{r4, pc}
 539              	.L41:
 540 0016 00BF     		.align	2
 541              	.L40:
 542 0018 00000000 		.word	.LANCHOR5
 543 001c 00000000 		.word	DrvOled
 544 0020 00000000 		.word	.LANCHOR1
 545              		.cfi_endproc
 546              	.LFE131:
 548              		.section	.text.SrvOled_GetDev_DspRange,"ax",%progbits
 549              		.align	1
 550              		.syntax unified
 551              		.thumb
ARM GAS  /var/folders/lx/hc4sn_b53233_zkc9xbbl97r0000gp/T//ccGmOI0j.s 			page 13


 552              		.thumb_func
 553              		.fpu fpv4-sp-d16
 555              	SrvOled_GetDev_DspRange:
 556              	.LFB132:
 148:Dsp/screen/service/SrvOled.c **** 
 149:Dsp/screen/service/SrvOled.c **** static SrvOled_DspRange SrvOled_GetDev_DspRange(void)
 150:Dsp/screen/service/SrvOled.c **** {
 557              		.loc 1 150 1 is_stmt 1 view -0
 558              		.cfi_startproc
 559              		@ args = 0, pretend = 0, frame = 8
 560              		@ frame_needed = 0, uses_anonymous_args = 0
 561 0000 10B5     		push	{r4, lr}
 562              	.LCFI8:
 563              		.cfi_def_cfa_offset 8
 564              		.cfi_offset 4, -8
 565              		.cfi_offset 14, -4
 566 0002 82B0     		sub	sp, sp, #8
 567              	.LCFI9:
 568              		.cfi_def_cfa_offset 16
 151:Dsp/screen/service/SrvOled.c ****     SrvOled_DspRange range;
 569              		.loc 1 151 5 view .LVU131
 152:Dsp/screen/service/SrvOled.c **** 
 153:Dsp/screen/service/SrvOled.c ****     range.width = DrvOled.get_max_width();
 570              		.loc 1 153 5 view .LVU132
 571              		.loc 1 153 26 is_stmt 0 view .LVU133
 572 0004 0B4C     		ldr	r4, .L44
 573 0006 6369     		ldr	r3, [r4, #20]
 574              		.loc 1 153 19 view .LVU134
 575 0008 9847     		blx	r3
 576              	.LVL25:
 577              		.loc 1 153 17 view .LVU135
 578 000a 8DF80000 		strb	r0, [sp]
 154:Dsp/screen/service/SrvOled.c ****     range.height = DrvOled.get_max_height();
 579              		.loc 1 154 5 is_stmt 1 view .LVU136
 580              		.loc 1 154 27 is_stmt 0 view .LVU137
 581 000e A369     		ldr	r3, [r4, #24]
 582              		.loc 1 154 20 view .LVU138
 583 0010 9847     		blx	r3
 584              	.LVL26:
 585              		.loc 1 154 18 view .LVU139
 586 0012 8DF80100 		strb	r0, [sp, #1]
 155:Dsp/screen/service/SrvOled.c **** 
 156:Dsp/screen/service/SrvOled.c ****     return range;
 587              		.loc 1 156 5 is_stmt 1 view .LVU140
 588              		.loc 1 156 12 is_stmt 0 view .LVU141
 589 0016 BDF80030 		ldrh	r3, [sp]
 590 001a ADF80430 		strh	r3, [sp, #4]	@ movhi
 591 001e 0020     		movs	r0, #0
 592 0020 9DF80430 		ldrb	r3, [sp, #4]	@ zero_extendqisi2
 593 0024 63F30700 		bfi	r0, r3, #0, #8
 594 0028 9DF80530 		ldrb	r3, [sp, #5]	@ zero_extendqisi2
 595 002c 63F30F20 		bfi	r0, r3, #8, #8
 157:Dsp/screen/service/SrvOled.c **** }
 596              		.loc 1 157 1 view .LVU142
 597 0030 02B0     		add	sp, sp, #8
 598              	.LCFI10:
 599              		.cfi_def_cfa_offset 8
ARM GAS  /var/folders/lx/hc4sn_b53233_zkc9xbbl97r0000gp/T//ccGmOI0j.s 			page 14


 600              		@ sp needed
 601 0032 10BD     		pop	{r4, pc}
 602              	.L45:
 603              		.align	2
 604              	.L44:
 605 0034 00000000 		.word	DrvOled
 606              		.cfi_endproc
 607              	.LFE132:
 609              		.section	.text.SrvOled_SetBright,"ax",%progbits
 610              		.align	1
 611              		.syntax unified
 612              		.thumb
 613              		.thumb_func
 614              		.fpu fpv4-sp-d16
 616              	SrvOled_SetBright:
 617              	.LVL27:
 618              	.LFB133:
 158:Dsp/screen/service/SrvOled.c **** 
 159:Dsp/screen/service/SrvOled.c **** static bool SrvOled_SetBright(Oled_Bright_Level level)
 160:Dsp/screen/service/SrvOled.c **** {
 619              		.loc 1 160 1 is_stmt 1 view -0
 620              		.cfi_startproc
 621              		@ args = 0, pretend = 0, frame = 0
 622              		@ frame_needed = 0, uses_anonymous_args = 0
 623              		.loc 1 160 1 is_stmt 0 view .LVU144
 624 0000 08B5     		push	{r3, lr}
 625              	.LCFI11:
 626              		.cfi_def_cfa_offset 8
 627              		.cfi_offset 3, -8
 628              		.cfi_offset 14, -4
 161:Dsp/screen/service/SrvOled.c ****     if (SrvOled.bright == NULL)
 629              		.loc 1 161 5 is_stmt 1 view .LVU145
 630              		.loc 1 161 16 is_stmt 0 view .LVU146
 631 0002 034B     		ldr	r3, .L50
 632 0004 9B68     		ldr	r3, [r3, #8]
 633              		.loc 1 161 8 view .LVU147
 634 0006 0BB1     		cbz	r3, .L48
 162:Dsp/screen/service/SrvOled.c ****         return false;
 163:Dsp/screen/service/SrvOled.c **** 
 164:Dsp/screen/service/SrvOled.c ****     return SrvOled.bright(level);
 635              		.loc 1 164 5 is_stmt 1 view .LVU148
 636              		.loc 1 164 12 is_stmt 0 view .LVU149
 637 0008 9847     		blx	r3
 638              	.LVL28:
 639              	.L47:
 165:Dsp/screen/service/SrvOled.c **** }
 640              		.loc 1 165 1 view .LVU150
 641 000a 08BD     		pop	{r3, pc}
 642              	.LVL29:
 643              	.L48:
 162:Dsp/screen/service/SrvOled.c ****         return false;
 644              		.loc 1 162 16 view .LVU151
 645 000c 0020     		movs	r0, #0
 646              	.LVL30:
 162:Dsp/screen/service/SrvOled.c ****         return false;
 647              		.loc 1 162 16 view .LVU152
 648 000e FCE7     		b	.L47
ARM GAS  /var/folders/lx/hc4sn_b53233_zkc9xbbl97r0000gp/T//ccGmOI0j.s 			page 15


 649              	.L51:
 650              		.align	2
 651              	.L50:
 652 0010 00000000 		.word	.LANCHOR6
 653              		.cfi_endproc
 654              	.LFE133:
 656              		.global	SrvOled
 657              		.section	.bss.BusInit_Structure,"aw",%nobits
 658              		.align	2
 659              		.set	.LANCHOR0,. + 0
 662              	BusInit_Structure:
 663 0000 00000000 		.space	6
 663      0000
 664              		.section	.bss.DC_IO_Obj,"aw",%nobits
 665              		.align	2
 666              		.set	.LANCHOR2,. + 0
 669              	DC_IO_Obj:
 670 0000 00000000 		.space	16
 670      00000000 
 670      00000000 
 670      00000000 
 671              		.section	.bss.Oled1306Obj,"aw",%nobits
 672              		.align	2
 673              		.set	.LANCHOR1,. + 0
 676              	Oled1306Obj:
 677 0000 00000000 		.space	30
 677      00000000 
 677      00000000 
 677      00000000 
 677      00000000 
 678              		.section	.bss.RS_IO_Obj,"aw",%nobits
 679              		.align	2
 680              		.set	.LANCHOR3,. + 0
 683              	RS_IO_Obj:
 684 0000 00000000 		.space	16
 684      00000000 
 684      00000000 
 684      00000000 
 685              		.section	.bss.SrvInit_State,"aw",%nobits
 686              		.set	.LANCHOR5,. + 0
 689              	SrvInit_State:
 690 0000 00       		.space	1
 691              		.section	.bss.SrvPerInit_State,"aw",%nobits
 692              		.set	.LANCHOR4,. + 0
 695              	SrvPerInit_State:
 696 0000 00       		.space	1
 697              		.section	.data.SrvOled,"aw"
 698              		.align	2
 699              		.set	.LANCHOR6,. + 0
 702              	SrvOled:
 703 0000 00000000 		.word	SrvOled_Init
 704 0004 00000000 		.word	SrvOled_Fresh
 705 0008 00000000 		.word	SrvOled_SetBright
 706 000c 00000000 		.word	SrvOled_GetDev_DspRange
 707              		.text
 708              	.Letext0:
 709              		.file 2 "/usr/local/arm-none-eabi-gcc/gcc-arm-none-eabi-10-2020-q4-major/arm-none-eabi/include/mac
ARM GAS  /var/folders/lx/hc4sn_b53233_zkc9xbbl97r0000gp/T//ccGmOI0j.s 			page 16


 710              		.file 3 "/usr/local/arm-none-eabi-gcc/gcc-arm-none-eabi-10-2020-q4-major/arm-none-eabi/include/sys
 711              		.file 4 "Dsp/screen/OledIO_Definition/Oled_DspProp_Def.h"
 712              		.file 5 "Dsp/screen/device/oled1306.h"
 713              		.file 6 "USER/stm32f4xx.h"
 714              		.file 7 "Bsp/periph_spi.h"
 715              		.file 8 "SYS/data_structure/queue.h"
 716              		.file 9 "Drv/drv_spi.h"
 717              		.file 10 "Bsp/periph_gpio.h"
 718              		.file 11 "Drv/drv_gpio.h"
 719              		.file 12 "Dsp/screen/service/SrvOled.h"
ARM GAS  /var/folders/lx/hc4sn_b53233_zkc9xbbl97r0000gp/T//ccGmOI0j.s 			page 17


DEFINED SYMBOLS
                            *ABS*:0000000000000000 SrvOled.c
/var/folders/lx/hc4sn_b53233_zkc9xbbl97r0000gp/T//ccGmOI0j.s:18     .text.SrvOled_BusInit:0000000000000000 $t
/var/folders/lx/hc4sn_b53233_zkc9xbbl97r0000gp/T//ccGmOI0j.s:25     .text.SrvOled_BusInit:0000000000000000 SrvOled_BusInit
/var/folders/lx/hc4sn_b53233_zkc9xbbl97r0000gp/T//ccGmOI0j.s:74     .text.SrvOled_BusInit:0000000000000024 $d
/var/folders/lx/hc4sn_b53233_zkc9xbbl97r0000gp/T//ccGmOI0j.s:81     .text.SrvOled_BusTransmit:0000000000000000 $t
/var/folders/lx/hc4sn_b53233_zkc9xbbl97r0000gp/T//ccGmOI0j.s:87     .text.SrvOled_BusTransmit:0000000000000000 SrvOled_BusTransmit
/var/folders/lx/hc4sn_b53233_zkc9xbbl97r0000gp/T//ccGmOI0j.s:117    .text.SrvOled_BusTransmit:0000000000000014 $d
/var/folders/lx/hc4sn_b53233_zkc9xbbl97r0000gp/T//ccGmOI0j.s:123    .text.SrvOled_DCPin_Init:0000000000000000 $t
/var/folders/lx/hc4sn_b53233_zkc9xbbl97r0000gp/T//ccGmOI0j.s:129    .text.SrvOled_DCPin_Init:0000000000000000 SrvOled_DCPin_Init
/var/folders/lx/hc4sn_b53233_zkc9xbbl97r0000gp/T//ccGmOI0j.s:182    .text.SrvOled_DCPin_Init:000000000000002c $d
/var/folders/lx/hc4sn_b53233_zkc9xbbl97r0000gp/T//ccGmOI0j.s:189    .text.SrvOled_RSPin_Init:0000000000000000 $t
/var/folders/lx/hc4sn_b53233_zkc9xbbl97r0000gp/T//ccGmOI0j.s:195    .text.SrvOled_RSPin_Init:0000000000000000 SrvOled_RSPin_Init
/var/folders/lx/hc4sn_b53233_zkc9xbbl97r0000gp/T//ccGmOI0j.s:248    .text.SrvOled_RSPin_Init:000000000000002c $d
/var/folders/lx/hc4sn_b53233_zkc9xbbl97r0000gp/T//ccGmOI0j.s:255    .text.SrvOled_DCPin_Ctl:0000000000000000 $t
/var/folders/lx/hc4sn_b53233_zkc9xbbl97r0000gp/T//ccGmOI0j.s:261    .text.SrvOled_DCPin_Ctl:0000000000000000 SrvOled_DCPin_Ctl
/var/folders/lx/hc4sn_b53233_zkc9xbbl97r0000gp/T//ccGmOI0j.s:307    .text.SrvOled_DCPin_Ctl:000000000000001c $d
/var/folders/lx/hc4sn_b53233_zkc9xbbl97r0000gp/T//ccGmOI0j.s:313    .text.SrvOled_RSPin_Ctl:0000000000000000 $t
/var/folders/lx/hc4sn_b53233_zkc9xbbl97r0000gp/T//ccGmOI0j.s:319    .text.SrvOled_RSPin_Ctl:0000000000000000 SrvOled_RSPin_Ctl
/var/folders/lx/hc4sn_b53233_zkc9xbbl97r0000gp/T//ccGmOI0j.s:365    .text.SrvOled_RSPin_Ctl:000000000000001c $d
/var/folders/lx/hc4sn_b53233_zkc9xbbl97r0000gp/T//ccGmOI0j.s:371    .text.SrvOled_PreInit:0000000000000000 $t
/var/folders/lx/hc4sn_b53233_zkc9xbbl97r0000gp/T//ccGmOI0j.s:377    .text.SrvOled_PreInit:0000000000000000 SrvOled_PreInit
/var/folders/lx/hc4sn_b53233_zkc9xbbl97r0000gp/T//ccGmOI0j.s:427    .text.SrvOled_PreInit:0000000000000034 $d
/var/folders/lx/hc4sn_b53233_zkc9xbbl97r0000gp/T//ccGmOI0j.s:439    .text.SrvOled_Init:0000000000000000 $t
/var/folders/lx/hc4sn_b53233_zkc9xbbl97r0000gp/T//ccGmOI0j.s:445    .text.SrvOled_Init:0000000000000000 SrvOled_Init
/var/folders/lx/hc4sn_b53233_zkc9xbbl97r0000gp/T//ccGmOI0j.s:491    .text.SrvOled_Init:0000000000000024 $d
/var/folders/lx/hc4sn_b53233_zkc9xbbl97r0000gp/T//ccGmOI0j.s:498    .text.SrvOled_Fresh:0000000000000000 $t
/var/folders/lx/hc4sn_b53233_zkc9xbbl97r0000gp/T//ccGmOI0j.s:504    .text.SrvOled_Fresh:0000000000000000 SrvOled_Fresh
/var/folders/lx/hc4sn_b53233_zkc9xbbl97r0000gp/T//ccGmOI0j.s:542    .text.SrvOled_Fresh:0000000000000018 $d
/var/folders/lx/hc4sn_b53233_zkc9xbbl97r0000gp/T//ccGmOI0j.s:549    .text.SrvOled_GetDev_DspRange:0000000000000000 $t
/var/folders/lx/hc4sn_b53233_zkc9xbbl97r0000gp/T//ccGmOI0j.s:555    .text.SrvOled_GetDev_DspRange:0000000000000000 SrvOled_GetDev_DspRange
/var/folders/lx/hc4sn_b53233_zkc9xbbl97r0000gp/T//ccGmOI0j.s:605    .text.SrvOled_GetDev_DspRange:0000000000000034 $d
/var/folders/lx/hc4sn_b53233_zkc9xbbl97r0000gp/T//ccGmOI0j.s:610    .text.SrvOled_SetBright:0000000000000000 $t
/var/folders/lx/hc4sn_b53233_zkc9xbbl97r0000gp/T//ccGmOI0j.s:616    .text.SrvOled_SetBright:0000000000000000 SrvOled_SetBright
/var/folders/lx/hc4sn_b53233_zkc9xbbl97r0000gp/T//ccGmOI0j.s:652    .text.SrvOled_SetBright:0000000000000010 $d
/var/folders/lx/hc4sn_b53233_zkc9xbbl97r0000gp/T//ccGmOI0j.s:702    .data.SrvOled:0000000000000000 SrvOled
/var/folders/lx/hc4sn_b53233_zkc9xbbl97r0000gp/T//ccGmOI0j.s:658    .bss.BusInit_Structure:0000000000000000 $d
/var/folders/lx/hc4sn_b53233_zkc9xbbl97r0000gp/T//ccGmOI0j.s:662    .bss.BusInit_Structure:0000000000000000 BusInit_Structure
/var/folders/lx/hc4sn_b53233_zkc9xbbl97r0000gp/T//ccGmOI0j.s:665    .bss.DC_IO_Obj:0000000000000000 $d
/var/folders/lx/hc4sn_b53233_zkc9xbbl97r0000gp/T//ccGmOI0j.s:669    .bss.DC_IO_Obj:0000000000000000 DC_IO_Obj
/var/folders/lx/hc4sn_b53233_zkc9xbbl97r0000gp/T//ccGmOI0j.s:672    .bss.Oled1306Obj:0000000000000000 $d
/var/folders/lx/hc4sn_b53233_zkc9xbbl97r0000gp/T//ccGmOI0j.s:676    .bss.Oled1306Obj:0000000000000000 Oled1306Obj
/var/folders/lx/hc4sn_b53233_zkc9xbbl97r0000gp/T//ccGmOI0j.s:679    .bss.RS_IO_Obj:0000000000000000 $d
/var/folders/lx/hc4sn_b53233_zkc9xbbl97r0000gp/T//ccGmOI0j.s:683    .bss.RS_IO_Obj:0000000000000000 RS_IO_Obj
/var/folders/lx/hc4sn_b53233_zkc9xbbl97r0000gp/T//ccGmOI0j.s:689    .bss.SrvInit_State:0000000000000000 SrvInit_State
/var/folders/lx/hc4sn_b53233_zkc9xbbl97r0000gp/T//ccGmOI0j.s:690    .bss.SrvInit_State:0000000000000000 $d
/var/folders/lx/hc4sn_b53233_zkc9xbbl97r0000gp/T//ccGmOI0j.s:695    .bss.SrvPerInit_State:0000000000000000 SrvPerInit_State
/var/folders/lx/hc4sn_b53233_zkc9xbbl97r0000gp/T//ccGmOI0j.s:696    .bss.SrvPerInit_State:0000000000000000 $d
/var/folders/lx/hc4sn_b53233_zkc9xbbl97r0000gp/T//ccGmOI0j.s:698    .data.SrvOled:0000000000000000 $d

UNDEFINED SYMBOLS
GenSPI_Drv
DrvGPIO
DrvOled
