ARM GAS  C:\Users\huav\AppData\Local\Temp\ccZibAPv.s 			page 1


   1              		.cpu cortex-m4
   2              		.eabi_attribute 27, 1
   3              		.eabi_attribute 28, 1
   4              		.eabi_attribute 20, 1
   5              		.eabi_attribute 21, 1
   6              		.eabi_attribute 23, 3
   7              		.eabi_attribute 24, 1
   8              		.eabi_attribute 25, 1
   9              		.eabi_attribute 26, 1
  10              		.eabi_attribute 30, 1
  11              		.eabi_attribute 34, 1
  12              		.eabi_attribute 18, 4
  13              		.file	"SrvOled.c"
  14              		.text
  15              	.Ltext0:
  16              		.cfi_sections	.debug_frame
  17              		.section	.text.SrvOled_BusInit,"ax",%progbits
  18              		.align	1
  19              		.arch armv7e-m
  20              		.syntax unified
  21              		.thumb
  22              		.thumb_func
  23              		.fpu fpv4-sp-d16
  25              	SrvOled_BusInit:
  26              	.LVL0:
  27              	.LFB123:
  28              		.file 1 "Dsp/screen/service/SrvOled.c"
   1:Dsp/screen/service/SrvOled.c **** #include "oled1306.h"
   2:Dsp/screen/service/SrvOled.c **** #include "drv_spi.h"
   3:Dsp/screen/service/SrvOled.c **** #include "drv_gpio.h"
   4:Dsp/screen/service/SrvOled.c **** #include "OledIO_Def.h"
   5:Dsp/screen/service/SrvOled.c **** #include "SrvOled.h"
   6:Dsp/screen/service/SrvOled.c **** 
   7:Dsp/screen/service/SrvOled.c **** /* internal varible definition */
   8:Dsp/screen/service/SrvOled.c **** static Oled_Obj_TypeDef Oled1306Obj;
   9:Dsp/screen/service/SrvOled.c **** static DrvGPIO_Obj_TypeDef DC_IO_Obj;
  10:Dsp/screen/service/SrvOled.c **** static DrvGPIO_Obj_TypeDef RS_IO_Obj;
  11:Dsp/screen/service/SrvOled.c **** static bool SrvPerInit_State = false;
  12:Dsp/screen/service/SrvOled.c **** static bool SrvInit_State = false;
  13:Dsp/screen/service/SrvOled.c **** 
  14:Dsp/screen/service/SrvOled.c **** /* internal function definition */
  15:Dsp/screen/service/SrvOled.c **** static bool SrvOled_PreInit(void);
  16:Dsp/screen/service/SrvOled.c **** static void SrvOled_BusInit(SPI_List BusID);
  17:Dsp/screen/service/SrvOled.c **** 
  18:Dsp/screen/service/SrvOled.c **** /* external function definition */
  19:Dsp/screen/service/SrvOled.c **** static bool SrvOled_Init(void);
  20:Dsp/screen/service/SrvOled.c **** static bool SrvOled_Fresh(uint8_t **bit_map);
  21:Dsp/screen/service/SrvOled.c **** static SrvOled_DspRange SrvOled_GetDev_DspRange(void);
  22:Dsp/screen/service/SrvOled.c **** 
  23:Dsp/screen/service/SrvOled.c **** SrvOled_TypeDef SrvOled = {
  24:Dsp/screen/service/SrvOled.c ****     .init = SrvOled_Init,
  25:Dsp/screen/service/SrvOled.c ****     .fresh = SrvOled_Fresh,
  26:Dsp/screen/service/SrvOled.c ****     .get_range = SrvOled_GetDev_DspRange,
  27:Dsp/screen/service/SrvOled.c **** };
  28:Dsp/screen/service/SrvOled.c **** 
  29:Dsp/screen/service/SrvOled.c **** /******************************* IO & Bus Init Function Section ***********************************
  30:Dsp/screen/service/SrvOled.c **** 
ARM GAS  C:\Users\huav\AppData\Local\Temp\ccZibAPv.s 			page 2


  31:Dsp/screen/service/SrvOled.c **** static void SrvOled_BusInit(SPI_List BusID)
  32:Dsp/screen/service/SrvOled.c **** {
  29              		.loc 1 32 1 view -0
  30              		.cfi_startproc
  31              		@ args = 0, pretend = 0, frame = 0
  32              		@ frame_needed = 0, uses_anonymous_args = 0
  33              		.loc 1 32 1 is_stmt 0 view .LVU1
  34 0000 08B5     		push	{r3, lr}
  35              	.LCFI0:
  36              		.cfi_def_cfa_offset 8
  37              		.cfi_offset 3, -8
  38              		.cfi_offset 14, -4
  33:Dsp/screen/service/SrvOled.c ****     static DrvSpi_Obj_TypeDef BusInit_Structure;
  39              		.loc 1 33 5 is_stmt 1 view .LVU2
  34:Dsp/screen/service/SrvOled.c **** 
  35:Dsp/screen/service/SrvOled.c ****     BusInit_Structure.SPIx = BusID;
  40              		.loc 1 35 5 view .LVU3
  41              		.loc 1 35 28 is_stmt 0 view .LVU4
  42 0002 084B     		ldr	r3, .L3
  43 0004 1870     		strb	r0, [r3]
  36:Dsp/screen/service/SrvOled.c ****     BusInit_Structure.speed = SPI_CLOCK_INITIALIZATON;
  44              		.loc 1 36 5 is_stmt 1 view .LVU5
  45              		.loc 1 36 29 is_stmt 0 view .LVU6
  46 0006 0022     		movs	r2, #0
  47 0008 5A70     		strb	r2, [r3, #1]
  37:Dsp/screen/service/SrvOled.c ****     BusInit_Structure.CPOL = SPI_CPOL_High;
  48              		.loc 1 37 5 is_stmt 1 view .LVU7
  49              		.loc 1 37 28 is_stmt 0 view .LVU8
  50 000a 0222     		movs	r2, #2
  51 000c 5A80     		strh	r2, [r3, #2]	@ movhi
  38:Dsp/screen/service/SrvOled.c ****     BusInit_Structure.CPHA = SPI_CPHA_2Edge;
  52              		.loc 1 38 5 is_stmt 1 view .LVU9
  53              		.loc 1 38 28 is_stmt 0 view .LVU10
  54 000e 0122     		movs	r2, #1
  55 0010 9A80     		strh	r2, [r3, #4]	@ movhi
  39:Dsp/screen/service/SrvOled.c **** 
  40:Dsp/screen/service/SrvOled.c ****     Oled1306Obj.BusObj = &BusInit_Structure;
  56              		.loc 1 40 5 is_stmt 1 view .LVU11
  57              		.loc 1 40 24 is_stmt 0 view .LVU12
  58 0012 054A     		ldr	r2, .L3+4
  59 0014 C2F80130 		str	r3, [r2, #1]	@ unaligned
  41:Dsp/screen/service/SrvOled.c **** 
  42:Dsp/screen/service/SrvOled.c ****     GenSPI_Drv.open(&BusInit_Structure);
  60              		.loc 1 42 5 is_stmt 1 view .LVU13
  61              		.loc 1 42 15 is_stmt 0 view .LVU14
  62 0018 044A     		ldr	r2, .L3+8
  63 001a 1268     		ldr	r2, [r2]
  64              		.loc 1 42 5 view .LVU15
  65 001c 1846     		mov	r0, r3
  66              	.LVL1:
  67              		.loc 1 42 5 view .LVU16
  68 001e 9047     		blx	r2
  69              	.LVL2:
  43:Dsp/screen/service/SrvOled.c **** }
  70              		.loc 1 43 1 view .LVU17
  71 0020 08BD     		pop	{r3, pc}
  72              	.L4:
ARM GAS  C:\Users\huav\AppData\Local\Temp\ccZibAPv.s 			page 3


  73 0022 00BF     		.align	2
  74              	.L3:
  75 0024 00000000 		.word	.LANCHOR0
  76 0028 00000000 		.word	.LANCHOR1
  77 002c 00000000 		.word	GenSPI_Drv
  78              		.cfi_endproc
  79              	.LFE123:
  81              		.section	.text.SrvOled_BusTransmit,"ax",%progbits
  82              		.align	1
  83              		.syntax unified
  84              		.thumb
  85              		.thumb_func
  86              		.fpu fpv4-sp-d16
  88              	SrvOled_BusTransmit:
  89              	.LVL3:
  90              	.LFB124:
  44:Dsp/screen/service/SrvOled.c **** 
  45:Dsp/screen/service/SrvOled.c **** static void SrvOled_BusTransmit(uint8_t tx)
  46:Dsp/screen/service/SrvOled.c **** {
  91              		.loc 1 46 1 is_stmt 1 view -0
  92              		.cfi_startproc
  93              		@ args = 0, pretend = 0, frame = 0
  94              		@ frame_needed = 0, uses_anonymous_args = 0
  95              		.loc 1 46 1 is_stmt 0 view .LVU19
  96 0000 08B5     		push	{r3, lr}
  97              	.LCFI1:
  98              		.cfi_def_cfa_offset 8
  99              		.cfi_offset 3, -8
 100              		.cfi_offset 14, -4
 101 0002 0146     		mov	r1, r0
  47:Dsp/screen/service/SrvOled.c ****     GenSPI_Drv.transmit((DrvSpi_Obj_TypeDef *)Oled1306Obj.BusObj, tx);
 102              		.loc 1 47 5 is_stmt 1 view .LVU20
 103              		.loc 1 47 15 is_stmt 0 view .LVU21
 104 0004 034B     		ldr	r3, .L7
 105 0006 DB68     		ldr	r3, [r3, #12]
 106              		.loc 1 47 5 view .LVU22
 107 0008 034A     		ldr	r2, .L7+4
 108 000a D2F80100 		ldr	r0, [r2, #1]	@ unaligned
 109              	.LVL4:
 110              		.loc 1 47 5 view .LVU23
 111 000e 9847     		blx	r3
 112              	.LVL5:
  48:Dsp/screen/service/SrvOled.c **** }
 113              		.loc 1 48 1 view .LVU24
 114 0010 08BD     		pop	{r3, pc}
 115              	.L8:
 116 0012 00BF     		.align	2
 117              	.L7:
 118 0014 00000000 		.word	GenSPI_Drv
 119 0018 00000000 		.word	.LANCHOR1
 120              		.cfi_endproc
 121              	.LFE124:
 123              		.section	.text.SrvOled_DCPin_Init,"ax",%progbits
 124              		.align	1
 125              		.syntax unified
 126              		.thumb
 127              		.thumb_func
ARM GAS  C:\Users\huav\AppData\Local\Temp\ccZibAPv.s 			page 4


 128              		.fpu fpv4-sp-d16
 130              	SrvOled_DCPin_Init:
 131              	.LFB125:
  49:Dsp/screen/service/SrvOled.c **** 
  50:Dsp/screen/service/SrvOled.c **** static void SrvOled_DCPin_Init(void)
  51:Dsp/screen/service/SrvOled.c **** {
 132              		.loc 1 51 1 is_stmt 1 view -0
 133              		.cfi_startproc
 134              		@ args = 0, pretend = 0, frame = 0
 135              		@ frame_needed = 0, uses_anonymous_args = 0
 136 0000 08B5     		push	{r3, lr}
 137              	.LCFI2:
 138              		.cfi_def_cfa_offset 8
 139              		.cfi_offset 3, -8
 140              		.cfi_offset 14, -4
  52:Dsp/screen/service/SrvOled.c ****     DC_IO_Obj.CLK = OLED1306_DC_PORT_CLK;
 141              		.loc 1 52 5 view .LVU26
 142              		.loc 1 52 19 is_stmt 0 view .LVU27
 143 0002 0648     		ldr	r0, .L11
 144 0004 0823     		movs	r3, #8
 145 0006 0360     		str	r3, [r0]
  53:Dsp/screen/service/SrvOled.c ****     DC_IO_Obj.Port = OLED1306_DC_PORT;
 146              		.loc 1 53 5 is_stmt 1 view .LVU28
 147              		.loc 1 53 20 is_stmt 0 view .LVU29
 148 0008 054B     		ldr	r3, .L11+4
 149 000a 8360     		str	r3, [r0, #8]
  54:Dsp/screen/service/SrvOled.c ****     DC_IO_Obj.Pin = OLED1306_DC_PIN;
 150              		.loc 1 54 5 is_stmt 1 view .LVU30
 151              		.loc 1 54 19 is_stmt 0 view .LVU31
 152 000c 0223     		movs	r3, #2
 153 000e 8380     		strh	r3, [r0, #4]	@ movhi
  55:Dsp/screen/service/SrvOled.c ****     DC_IO_Obj.IO_Type = GPIO_Output;
 154              		.loc 1 55 5 is_stmt 1 view .LVU32
 155              		.loc 1 55 23 is_stmt 0 view .LVU33
 156 0010 0021     		movs	r1, #0
 157 0012 0173     		strb	r1, [r0, #12]
  56:Dsp/screen/service/SrvOled.c **** 
  57:Dsp/screen/service/SrvOled.c ****     GenGPIO_Drv.open(&DC_IO_Obj, DC_IO_Obj.IO_Type);
 158              		.loc 1 57 5 is_stmt 1 view .LVU34
 159              		.loc 1 57 16 is_stmt 0 view .LVU35
 160 0014 034B     		ldr	r3, .L11+8
 161 0016 1B68     		ldr	r3, [r3]
 162              		.loc 1 57 5 view .LVU36
 163 0018 9847     		blx	r3
 164              	.LVL6:
  58:Dsp/screen/service/SrvOled.c **** }
 165              		.loc 1 58 1 view .LVU37
 166 001a 08BD     		pop	{r3, pc}
 167              	.L12:
 168              		.align	2
 169              	.L11:
 170 001c 00000000 		.word	.LANCHOR2
 171 0020 000C0240 		.word	1073875968
 172 0024 00000000 		.word	GenGPIO_Drv
 173              		.cfi_endproc
 174              	.LFE125:
 176              		.section	.text.SrvOled_RSPin_Init,"ax",%progbits
ARM GAS  C:\Users\huav\AppData\Local\Temp\ccZibAPv.s 			page 5


 177              		.align	1
 178              		.syntax unified
 179              		.thumb
 180              		.thumb_func
 181              		.fpu fpv4-sp-d16
 183              	SrvOled_RSPin_Init:
 184              	.LFB126:
  59:Dsp/screen/service/SrvOled.c **** 
  60:Dsp/screen/service/SrvOled.c **** static void SrvOled_RSPin_Init(void)
  61:Dsp/screen/service/SrvOled.c **** {
 185              		.loc 1 61 1 is_stmt 1 view -0
 186              		.cfi_startproc
 187              		@ args = 0, pretend = 0, frame = 0
 188              		@ frame_needed = 0, uses_anonymous_args = 0
 189 0000 08B5     		push	{r3, lr}
 190              	.LCFI3:
 191              		.cfi_def_cfa_offset 8
 192              		.cfi_offset 3, -8
 193              		.cfi_offset 14, -4
  62:Dsp/screen/service/SrvOled.c ****     RS_IO_Obj.CLK = OLED1306_RS_PORT_CLK;
 194              		.loc 1 62 5 view .LVU39
 195              		.loc 1 62 19 is_stmt 0 view .LVU40
 196 0002 0648     		ldr	r0, .L15
 197 0004 0823     		movs	r3, #8
 198 0006 0360     		str	r3, [r0]
  63:Dsp/screen/service/SrvOled.c ****     RS_IO_Obj.Port = OLED1306_RS_PORT;
 199              		.loc 1 63 5 is_stmt 1 view .LVU41
 200              		.loc 1 63 20 is_stmt 0 view .LVU42
 201 0008 054B     		ldr	r3, .L15+4
 202 000a 8360     		str	r3, [r0, #8]
  64:Dsp/screen/service/SrvOled.c ****     RS_IO_Obj.Pin = OLED1306_RS_PIN;
 203              		.loc 1 64 5 is_stmt 1 view .LVU43
 204              		.loc 1 64 19 is_stmt 0 view .LVU44
 205 000c 0123     		movs	r3, #1
 206 000e 8380     		strh	r3, [r0, #4]	@ movhi
  65:Dsp/screen/service/SrvOled.c ****     RS_IO_Obj.IO_Type = GPIO_Output;
 207              		.loc 1 65 5 is_stmt 1 view .LVU45
 208              		.loc 1 65 23 is_stmt 0 view .LVU46
 209 0010 0021     		movs	r1, #0
 210 0012 0173     		strb	r1, [r0, #12]
  66:Dsp/screen/service/SrvOled.c **** 
  67:Dsp/screen/service/SrvOled.c ****     GenGPIO_Drv.open(&RS_IO_Obj, RS_IO_Obj.IO_Type);
 211              		.loc 1 67 5 is_stmt 1 view .LVU47
 212              		.loc 1 67 16 is_stmt 0 view .LVU48
 213 0014 034B     		ldr	r3, .L15+8
 214 0016 1B68     		ldr	r3, [r3]
 215              		.loc 1 67 5 view .LVU49
 216 0018 9847     		blx	r3
 217              	.LVL7:
  68:Dsp/screen/service/SrvOled.c **** }
 218              		.loc 1 68 1 view .LVU50
 219 001a 08BD     		pop	{r3, pc}
 220              	.L16:
 221              		.align	2
 222              	.L15:
 223 001c 00000000 		.word	.LANCHOR3
 224 0020 000C0240 		.word	1073875968
ARM GAS  C:\Users\huav\AppData\Local\Temp\ccZibAPv.s 			page 6


 225 0024 00000000 		.word	GenGPIO_Drv
 226              		.cfi_endproc
 227              	.LFE126:
 229              		.section	.text.SrvOled_DCPin_Ctl,"ax",%progbits
 230              		.align	1
 231              		.syntax unified
 232              		.thumb
 233              		.thumb_func
 234              		.fpu fpv4-sp-d16
 236              	SrvOled_DCPin_Ctl:
 237              	.LVL8:
 238              	.LFB127:
  69:Dsp/screen/service/SrvOled.c **** 
  70:Dsp/screen/service/SrvOled.c **** static void SrvOled_DCPin_Ctl(Oled_DC_State_List state)
  71:Dsp/screen/service/SrvOled.c **** {
 239              		.loc 1 71 1 is_stmt 1 view -0
 240              		.cfi_startproc
 241              		@ args = 0, pretend = 0, frame = 0
 242              		@ frame_needed = 0, uses_anonymous_args = 0
 243              		.loc 1 71 1 is_stmt 0 view .LVU52
 244 0000 08B5     		push	{r3, lr}
 245              	.LCFI4:
 246              		.cfi_def_cfa_offset 8
 247              		.cfi_offset 3, -8
 248              		.cfi_offset 14, -4
  72:Dsp/screen/service/SrvOled.c ****     DrvGPIO_IO_Level_TypeDef level = GPIO_ERR;
 249              		.loc 1 72 5 is_stmt 1 view .LVU53
 250              	.LVL9:
  73:Dsp/screen/service/SrvOled.c **** 
  74:Dsp/screen/service/SrvOled.c ****     if (state == Oled_DC_Enable)
 251              		.loc 1 74 5 view .LVU54
 252              		.loc 1 74 8 is_stmt 0 view .LVU55
 253 0002 18B1     		cbz	r0, .L19
  75:Dsp/screen/service/SrvOled.c ****     {
  76:Dsp/screen/service/SrvOled.c ****         level = GPIO_LOW;
  77:Dsp/screen/service/SrvOled.c ****     }
  78:Dsp/screen/service/SrvOled.c ****     else if (state == Oled_DC_Disable)
 254              		.loc 1 78 10 is_stmt 1 view .LVU56
 255              		.loc 1 78 13 is_stmt 0 view .LVU57
 256 0004 0128     		cmp	r0, #1
 257 0006 07D0     		beq	.L20
  72:Dsp/screen/service/SrvOled.c **** 
 258              		.loc 1 72 30 view .LVU58
 259 0008 0021     		movs	r1, #0
 260 000a 00E0     		b	.L18
 261              	.L19:
  76:Dsp/screen/service/SrvOled.c ****     }
 262              		.loc 1 76 15 view .LVU59
 263 000c 0121     		movs	r1, #1
 264              	.L18:
 265              	.LVL10:
  79:Dsp/screen/service/SrvOled.c ****         level = GPIO_HIGH;
  80:Dsp/screen/service/SrvOled.c **** 
  81:Dsp/screen/service/SrvOled.c ****     GenGPIO_Drv.set(&DC_IO_Obj, level);
 266              		.loc 1 81 5 is_stmt 1 view .LVU60
 267              		.loc 1 81 16 is_stmt 0 view .LVU61
 268 000e 034B     		ldr	r3, .L22
ARM GAS  C:\Users\huav\AppData\Local\Temp\ccZibAPv.s 			page 7


 269 0010 9B68     		ldr	r3, [r3, #8]
 270              		.loc 1 81 5 view .LVU62
 271 0012 0348     		ldr	r0, .L22+4
 272              	.LVL11:
 273              		.loc 1 81 5 view .LVU63
 274 0014 9847     		blx	r3
 275              	.LVL12:
  82:Dsp/screen/service/SrvOled.c **** }
 276              		.loc 1 82 1 view .LVU64
 277 0016 08BD     		pop	{r3, pc}
 278              	.LVL13:
 279              	.L20:
  79:Dsp/screen/service/SrvOled.c ****         level = GPIO_HIGH;
 280              		.loc 1 79 15 view .LVU65
 281 0018 0221     		movs	r1, #2
 282 001a F8E7     		b	.L18
 283              	.L23:
 284              		.align	2
 285              	.L22:
 286 001c 00000000 		.word	GenGPIO_Drv
 287 0020 00000000 		.word	.LANCHOR2
 288              		.cfi_endproc
 289              	.LFE127:
 291              		.section	.text.SrvOled_RSPin_Ctl,"ax",%progbits
 292              		.align	1
 293              		.syntax unified
 294              		.thumb
 295              		.thumb_func
 296              		.fpu fpv4-sp-d16
 298              	SrvOled_RSPin_Ctl:
 299              	.LVL14:
 300              	.LFB128:
  83:Dsp/screen/service/SrvOled.c **** 
  84:Dsp/screen/service/SrvOled.c **** static void SrvOled_RSPin_Ctl(Oled_RS_State_List state)
  85:Dsp/screen/service/SrvOled.c **** {
 301              		.loc 1 85 1 is_stmt 1 view -0
 302              		.cfi_startproc
 303              		@ args = 0, pretend = 0, frame = 0
 304              		@ frame_needed = 0, uses_anonymous_args = 0
 305              		.loc 1 85 1 is_stmt 0 view .LVU67
 306 0000 08B5     		push	{r3, lr}
 307              	.LCFI5:
 308              		.cfi_def_cfa_offset 8
 309              		.cfi_offset 3, -8
 310              		.cfi_offset 14, -4
  86:Dsp/screen/service/SrvOled.c ****     DrvGPIO_IO_Level_TypeDef level = GPIO_ERR;
 311              		.loc 1 86 5 is_stmt 1 view .LVU68
 312              	.LVL15:
  87:Dsp/screen/service/SrvOled.c **** 
  88:Dsp/screen/service/SrvOled.c ****     if (state == Oled_RS_Enable)
 313              		.loc 1 88 5 view .LVU69
 314              		.loc 1 88 8 is_stmt 0 view .LVU70
 315 0002 18B1     		cbz	r0, .L26
  89:Dsp/screen/service/SrvOled.c ****     {
  90:Dsp/screen/service/SrvOled.c ****         level = GPIO_LOW;
  91:Dsp/screen/service/SrvOled.c ****     }
  92:Dsp/screen/service/SrvOled.c ****     else if (state == Oled_RS_Disable)
ARM GAS  C:\Users\huav\AppData\Local\Temp\ccZibAPv.s 			page 8


 316              		.loc 1 92 10 is_stmt 1 view .LVU71
 317              		.loc 1 92 13 is_stmt 0 view .LVU72
 318 0004 0128     		cmp	r0, #1
 319 0006 07D0     		beq	.L27
  86:Dsp/screen/service/SrvOled.c **** 
 320              		.loc 1 86 30 view .LVU73
 321 0008 0021     		movs	r1, #0
 322 000a 00E0     		b	.L25
 323              	.L26:
  90:Dsp/screen/service/SrvOled.c ****     }
 324              		.loc 1 90 15 view .LVU74
 325 000c 0121     		movs	r1, #1
 326              	.L25:
 327              	.LVL16:
  93:Dsp/screen/service/SrvOled.c ****         level = GPIO_HIGH;
  94:Dsp/screen/service/SrvOled.c **** 
  95:Dsp/screen/service/SrvOled.c ****     GenGPIO_Drv.set(&RS_IO_Obj, level);
 328              		.loc 1 95 5 is_stmt 1 view .LVU75
 329              		.loc 1 95 16 is_stmt 0 view .LVU76
 330 000e 034B     		ldr	r3, .L29
 331 0010 9B68     		ldr	r3, [r3, #8]
 332              		.loc 1 95 5 view .LVU77
 333 0012 0348     		ldr	r0, .L29+4
 334              	.LVL17:
 335              		.loc 1 95 5 view .LVU78
 336 0014 9847     		blx	r3
 337              	.LVL18:
  96:Dsp/screen/service/SrvOled.c **** }
 338              		.loc 1 96 1 view .LVU79
 339 0016 08BD     		pop	{r3, pc}
 340              	.LVL19:
 341              	.L27:
  93:Dsp/screen/service/SrvOled.c ****         level = GPIO_HIGH;
 342              		.loc 1 93 15 view .LVU80
 343 0018 0221     		movs	r1, #2
 344 001a F8E7     		b	.L25
 345              	.L30:
 346              		.align	2
 347              	.L29:
 348 001c 00000000 		.word	GenGPIO_Drv
 349 0020 00000000 		.word	.LANCHOR3
 350              		.cfi_endproc
 351              	.LFE128:
 353              		.section	.text.SrvOled_PreInit,"ax",%progbits
 354              		.align	1
 355              		.syntax unified
 356              		.thumb
 357              		.thumb_func
 358              		.fpu fpv4-sp-d16
 360              	SrvOled_PreInit:
 361              	.LFB129:
  97:Dsp/screen/service/SrvOled.c **** 
  98:Dsp/screen/service/SrvOled.c **** /******************************* IO & Bus Init Function Section ***********************************
  99:Dsp/screen/service/SrvOled.c **** 
 100:Dsp/screen/service/SrvOled.c **** static bool SrvOled_PreInit(void)
 101:Dsp/screen/service/SrvOled.c **** {
 362              		.loc 1 101 1 is_stmt 1 view -0
ARM GAS  C:\Users\huav\AppData\Local\Temp\ccZibAPv.s 			page 9


 363              		.cfi_startproc
 364              		@ args = 0, pretend = 0, frame = 0
 365              		@ frame_needed = 0, uses_anonymous_args = 0
 366              		@ link register save eliminated.
 102:Dsp/screen/service/SrvOled.c ****     Oled1306Obj.Bus = Oled_SpiBus;
 367              		.loc 1 102 5 view .LVU82
 368              		.loc 1 102 21 is_stmt 0 view .LVU83
 369 0000 0C4B     		ldr	r3, .L32
 370 0002 0022     		movs	r2, #0
 371 0004 1A70     		strb	r2, [r3]
 103:Dsp/screen/service/SrvOled.c ****     Oled1306Obj.BusID = SPI_1;
 372              		.loc 1 103 5 is_stmt 1 view .LVU84
 373              		.loc 1 103 23 is_stmt 0 view .LVU85
 374 0006 5A71     		strb	r2, [r3, #5]
 104:Dsp/screen/service/SrvOled.c **** 
 105:Dsp/screen/service/SrvOled.c ****     Oled1306Obj.bus_init = SrvOled_BusInit;
 375              		.loc 1 105 5 is_stmt 1 view .LVU86
 376              		.loc 1 105 26 is_stmt 0 view .LVU87
 377 0008 0B4A     		ldr	r2, .L32+4
 378 000a C3F81620 		str	r2, [r3, #22]	@ unaligned
 106:Dsp/screen/service/SrvOled.c ****     Oled1306Obj.bus_transmit = SrvOled_BusTransmit;
 379              		.loc 1 106 5 is_stmt 1 view .LVU88
 380              		.loc 1 106 30 is_stmt 0 view .LVU89
 381 000e 0B4A     		ldr	r2, .L32+8
 382 0010 C3F81A20 		str	r2, [r3, #26]	@ unaligned
 107:Dsp/screen/service/SrvOled.c **** 
 108:Dsp/screen/service/SrvOled.c ****     Oled1306Obj.rs_init = SrvOled_RSPin_Init;
 383              		.loc 1 108 5 is_stmt 1 view .LVU90
 384              		.loc 1 108 25 is_stmt 0 view .LVU91
 385 0014 0A4A     		ldr	r2, .L32+12
 386 0016 C3F80620 		str	r2, [r3, #6]	@ unaligned
 109:Dsp/screen/service/SrvOled.c ****     Oled1306Obj.rs_ctl = SrvOled_RSPin_Ctl;
 387              		.loc 1 109 5 is_stmt 1 view .LVU92
 388              		.loc 1 109 24 is_stmt 0 view .LVU93
 389 001a 0A4A     		ldr	r2, .L32+16
 390 001c C3F80E20 		str	r2, [r3, #14]	@ unaligned
 110:Dsp/screen/service/SrvOled.c **** 
 111:Dsp/screen/service/SrvOled.c ****     Oled1306Obj.dc_init = SrvOled_DCPin_Init;
 391              		.loc 1 111 5 is_stmt 1 view .LVU94
 392              		.loc 1 111 25 is_stmt 0 view .LVU95
 393 0020 094A     		ldr	r2, .L32+20
 394 0022 C3F80A20 		str	r2, [r3, #10]	@ unaligned
 112:Dsp/screen/service/SrvOled.c ****     Oled1306Obj.dc_ctl = SrvOled_DCPin_Ctl;
 395              		.loc 1 112 5 is_stmt 1 view .LVU96
 396              		.loc 1 112 24 is_stmt 0 view .LVU97
 397 0026 094A     		ldr	r2, .L32+24
 398 0028 C3F81220 		str	r2, [r3, #18]	@ unaligned
 113:Dsp/screen/service/SrvOled.c **** 
 114:Dsp/screen/service/SrvOled.c ****     SrvPerInit_State = true;
 399              		.loc 1 114 5 is_stmt 1 view .LVU98
 400              		.loc 1 114 22 is_stmt 0 view .LVU99
 401 002c 0120     		movs	r0, #1
 402 002e 084B     		ldr	r3, .L32+28
 403 0030 1870     		strb	r0, [r3]
 115:Dsp/screen/service/SrvOled.c **** 
 116:Dsp/screen/service/SrvOled.c ****     return SrvPerInit_State;
 404              		.loc 1 116 5 is_stmt 1 view .LVU100
ARM GAS  C:\Users\huav\AppData\Local\Temp\ccZibAPv.s 			page 10


 117:Dsp/screen/service/SrvOled.c **** }
 405              		.loc 1 117 1 is_stmt 0 view .LVU101
 406 0032 7047     		bx	lr
 407              	.L33:
 408              		.align	2
 409              	.L32:
 410 0034 00000000 		.word	.LANCHOR1
 411 0038 00000000 		.word	SrvOled_BusInit
 412 003c 00000000 		.word	SrvOled_BusTransmit
 413 0040 00000000 		.word	SrvOled_RSPin_Init
 414 0044 00000000 		.word	SrvOled_RSPin_Ctl
 415 0048 00000000 		.word	SrvOled_DCPin_Init
 416 004c 00000000 		.word	SrvOled_DCPin_Ctl
 417 0050 00000000 		.word	.LANCHOR4
 418              		.cfi_endproc
 419              	.LFE129:
 421              		.section	.text.SrvOled_Init,"ax",%progbits
 422              		.align	1
 423              		.syntax unified
 424              		.thumb
 425              		.thumb_func
 426              		.fpu fpv4-sp-d16
 428              	SrvOled_Init:
 429              	.LFB130:
 118:Dsp/screen/service/SrvOled.c **** 
 119:Dsp/screen/service/SrvOled.c **** static bool SrvOled_Init(void)
 120:Dsp/screen/service/SrvOled.c **** {
 430              		.loc 1 120 1 is_stmt 1 view -0
 431              		.cfi_startproc
 432              		@ args = 0, pretend = 0, frame = 0
 433              		@ frame_needed = 0, uses_anonymous_args = 0
 434 0000 08B5     		push	{r3, lr}
 435              	.LCFI6:
 436              		.cfi_def_cfa_offset 8
 437              		.cfi_offset 3, -8
 438              		.cfi_offset 14, -4
 121:Dsp/screen/service/SrvOled.c ****     SrvInit_State = false;
 439              		.loc 1 121 5 view .LVU103
 440              		.loc 1 121 19 is_stmt 0 view .LVU104
 441 0002 084B     		ldr	r3, .L37
 442 0004 0022     		movs	r2, #0
 443 0006 1A70     		strb	r2, [r3]
 122:Dsp/screen/service/SrvOled.c **** 
 123:Dsp/screen/service/SrvOled.c ****     if (SrvOled_PreInit())
 444              		.loc 1 123 5 is_stmt 1 view .LVU105
 445              		.loc 1 123 9 is_stmt 0 view .LVU106
 446 0008 FFF7FEFF 		bl	SrvOled_PreInit
 447              	.LVL20:
 448              		.loc 1 123 8 view .LVU107
 449 000c 38B1     		cbz	r0, .L35
 124:Dsp/screen/service/SrvOled.c ****     {
 125:Dsp/screen/service/SrvOled.c ****         if (DrvOled.init(&Oled1306Obj))
 450              		.loc 1 125 9 is_stmt 1 view .LVU108
 451              		.loc 1 125 20 is_stmt 0 view .LVU109
 452 000e 064B     		ldr	r3, .L37+4
 453 0010 1B68     		ldr	r3, [r3]
 454              		.loc 1 125 13 view .LVU110
ARM GAS  C:\Users\huav\AppData\Local\Temp\ccZibAPv.s 			page 11


 455 0012 0648     		ldr	r0, .L37+8
 456 0014 9847     		blx	r3
 457              	.LVL21:
 458              		.loc 1 125 12 view .LVU111
 459 0016 10B1     		cbz	r0, .L35
 126:Dsp/screen/service/SrvOled.c ****         {
 127:Dsp/screen/service/SrvOled.c ****             SrvInit_State = true;
 460              		.loc 1 127 13 is_stmt 1 view .LVU112
 461              		.loc 1 127 27 is_stmt 0 view .LVU113
 462 0018 024B     		ldr	r3, .L37
 463 001a 0122     		movs	r2, #1
 464 001c 1A70     		strb	r2, [r3]
 465              	.L35:
 128:Dsp/screen/service/SrvOled.c ****         }
 129:Dsp/screen/service/SrvOled.c ****     }
 130:Dsp/screen/service/SrvOled.c **** 
 131:Dsp/screen/service/SrvOled.c ****     return SrvInit_State;
 466              		.loc 1 131 5 is_stmt 1 view .LVU114
 132:Dsp/screen/service/SrvOled.c **** }
 467              		.loc 1 132 1 is_stmt 0 view .LVU115
 468 001e 014B     		ldr	r3, .L37
 469 0020 1878     		ldrb	r0, [r3]	@ zero_extendqisi2
 470 0022 08BD     		pop	{r3, pc}
 471              	.L38:
 472              		.align	2
 473              	.L37:
 474 0024 00000000 		.word	.LANCHOR5
 475 0028 00000000 		.word	DrvOled
 476 002c 00000000 		.word	.LANCHOR1
 477              		.cfi_endproc
 478              	.LFE130:
 480              		.section	.text.SrvOled_Fresh,"ax",%progbits
 481              		.align	1
 482              		.syntax unified
 483              		.thumb
 484              		.thumb_func
 485              		.fpu fpv4-sp-d16
 487              	SrvOled_Fresh:
 488              	.LVL22:
 489              	.LFB131:
 133:Dsp/screen/service/SrvOled.c **** 
 134:Dsp/screen/service/SrvOled.c **** static bool SrvOled_Fresh(uint8_t **bit_map)
 135:Dsp/screen/service/SrvOled.c **** {
 490              		.loc 1 135 1 is_stmt 1 view -0
 491              		.cfi_startproc
 492              		@ args = 0, pretend = 0, frame = 0
 493              		@ frame_needed = 0, uses_anonymous_args = 0
 494              		.loc 1 135 1 is_stmt 0 view .LVU117
 495 0000 10B5     		push	{r4, lr}
 496              	.LCFI7:
 497              		.cfi_def_cfa_offset 8
 498              		.cfi_offset 4, -8
 499              		.cfi_offset 14, -4
 136:Dsp/screen/service/SrvOled.c ****     if (!SrvInit_State)
 500              		.loc 1 136 5 is_stmt 1 view .LVU118
 501              		.loc 1 136 9 is_stmt 0 view .LVU119
 502 0002 054B     		ldr	r3, .L42
ARM GAS  C:\Users\huav\AppData\Local\Temp\ccZibAPv.s 			page 12


 503 0004 1C78     		ldrb	r4, [r3]	@ zero_extendqisi2
 504              		.loc 1 136 8 view .LVU120
 505 0006 24B1     		cbz	r4, .L40
 506 0008 0146     		mov	r1, r0
 137:Dsp/screen/service/SrvOled.c ****         return false;
 138:Dsp/screen/service/SrvOled.c **** 
 139:Dsp/screen/service/SrvOled.c ****     //hardfault triggerd
 140:Dsp/screen/service/SrvOled.c ****     DrvOled.fresh(&Oled1306Obj, bit_map);
 507              		.loc 1 140 5 is_stmt 1 view .LVU121
 508              		.loc 1 140 12 is_stmt 0 view .LVU122
 509 000a 044B     		ldr	r3, .L42+4
 510 000c 9B68     		ldr	r3, [r3, #8]
 511              		.loc 1 140 5 view .LVU123
 512 000e 0448     		ldr	r0, .L42+8
 513              	.LVL23:
 514              		.loc 1 140 5 view .LVU124
 515 0010 9847     		blx	r3
 516              	.LVL24:
 141:Dsp/screen/service/SrvOled.c ****     return true;
 517              		.loc 1 141 5 is_stmt 1 view .LVU125
 518              	.L40:
 142:Dsp/screen/service/SrvOled.c **** }
 519              		.loc 1 142 1 is_stmt 0 view .LVU126
 520 0012 2046     		mov	r0, r4
 521 0014 10BD     		pop	{r4, pc}
 522              	.L43:
 523 0016 00BF     		.align	2
 524              	.L42:
 525 0018 00000000 		.word	.LANCHOR5
 526 001c 00000000 		.word	DrvOled
 527 0020 00000000 		.word	.LANCHOR1
 528              		.cfi_endproc
 529              	.LFE131:
 531              		.section	.text.SrvOled_GetDev_DspRange,"ax",%progbits
 532              		.align	1
 533              		.syntax unified
 534              		.thumb
 535              		.thumb_func
 536              		.fpu fpv4-sp-d16
 538              	SrvOled_GetDev_DspRange:
 539              	.LFB132:
 143:Dsp/screen/service/SrvOled.c **** 
 144:Dsp/screen/service/SrvOled.c **** static SrvOled_DspRange SrvOled_GetDev_DspRange(void)
 145:Dsp/screen/service/SrvOled.c **** {
 540              		.loc 1 145 1 is_stmt 1 view -0
 541              		.cfi_startproc
 542              		@ args = 0, pretend = 0, frame = 8
 543              		@ frame_needed = 0, uses_anonymous_args = 0
 544 0000 10B5     		push	{r4, lr}
 545              	.LCFI8:
 546              		.cfi_def_cfa_offset 8
 547              		.cfi_offset 4, -8
 548              		.cfi_offset 14, -4
 549 0002 82B0     		sub	sp, sp, #8
 550              	.LCFI9:
 551              		.cfi_def_cfa_offset 16
 146:Dsp/screen/service/SrvOled.c ****     SrvOled_DspRange range;
ARM GAS  C:\Users\huav\AppData\Local\Temp\ccZibAPv.s 			page 13


 552              		.loc 1 146 5 view .LVU128
 147:Dsp/screen/service/SrvOled.c **** 
 148:Dsp/screen/service/SrvOled.c ****     range.width = DrvOled.get_max_width();
 553              		.loc 1 148 5 view .LVU129
 554              		.loc 1 148 26 is_stmt 0 view .LVU130
 555 0004 0B4C     		ldr	r4, .L46
 556 0006 2369     		ldr	r3, [r4, #16]
 557              		.loc 1 148 19 view .LVU131
 558 0008 9847     		blx	r3
 559              	.LVL25:
 560              		.loc 1 148 17 view .LVU132
 561 000a 8DF80000 		strb	r0, [sp]
 149:Dsp/screen/service/SrvOled.c ****     range.height = DrvOled.get_max_height();
 562              		.loc 1 149 5 is_stmt 1 view .LVU133
 563              		.loc 1 149 27 is_stmt 0 view .LVU134
 564 000e 6369     		ldr	r3, [r4, #20]
 565              		.loc 1 149 20 view .LVU135
 566 0010 9847     		blx	r3
 567              	.LVL26:
 568              		.loc 1 149 18 view .LVU136
 569 0012 8DF80100 		strb	r0, [sp, #1]
 150:Dsp/screen/service/SrvOled.c **** 
 151:Dsp/screen/service/SrvOled.c ****     return range;
 570              		.loc 1 151 5 is_stmt 1 view .LVU137
 571              		.loc 1 151 12 is_stmt 0 view .LVU138
 572 0016 BDF80030 		ldrh	r3, [sp]
 573 001a ADF80430 		strh	r3, [sp, #4]	@ movhi
 574 001e 0020     		movs	r0, #0
 575 0020 9DF80430 		ldrb	r3, [sp, #4]	@ zero_extendqisi2
 576 0024 63F30700 		bfi	r0, r3, #0, #8
 577 0028 9DF80530 		ldrb	r3, [sp, #5]	@ zero_extendqisi2
 578 002c 63F30F20 		bfi	r0, r3, #8, #8
 152:Dsp/screen/service/SrvOled.c **** }
 579              		.loc 1 152 1 view .LVU139
 580 0030 02B0     		add	sp, sp, #8
 581              	.LCFI10:
 582              		.cfi_def_cfa_offset 8
 583              		@ sp needed
 584 0032 10BD     		pop	{r4, pc}
 585              	.L47:
 586              		.align	2
 587              	.L46:
 588 0034 00000000 		.word	DrvOled
 589              		.cfi_endproc
 590              	.LFE132:
 592              		.global	SrvOled
 593              		.section	.bss.BusInit_Structure.0,"aw",%nobits
 594              		.align	2
 595              		.set	.LANCHOR0,. + 0
 598              	BusInit_Structure.0:
 599 0000 00000000 		.space	6
 599      0000
 600              		.section	.bss.DC_IO_Obj,"aw",%nobits
 601              		.align	2
 602              		.set	.LANCHOR2,. + 0
 605              	DC_IO_Obj:
 606 0000 00000000 		.space	16
ARM GAS  C:\Users\huav\AppData\Local\Temp\ccZibAPv.s 			page 14


 606      00000000 
 606      00000000 
 606      00000000 
 607              		.section	.bss.Oled1306Obj,"aw",%nobits
 608              		.align	2
 609              		.set	.LANCHOR1,. + 0
 612              	Oled1306Obj:
 613 0000 00000000 		.space	30
 613      00000000 
 613      00000000 
 613      00000000 
 613      00000000 
 614              		.section	.bss.RS_IO_Obj,"aw",%nobits
 615              		.align	2
 616              		.set	.LANCHOR3,. + 0
 619              	RS_IO_Obj:
 620 0000 00000000 		.space	16
 620      00000000 
 620      00000000 
 620      00000000 
 621              		.section	.bss.SrvInit_State,"aw",%nobits
 622              		.set	.LANCHOR5,. + 0
 625              	SrvInit_State:
 626 0000 00       		.space	1
 627              		.section	.bss.SrvPerInit_State,"aw",%nobits
 628              		.set	.LANCHOR4,. + 0
 631              	SrvPerInit_State:
 632 0000 00       		.space	1
 633              		.section	.data.SrvOled,"aw"
 634              		.align	2
 637              	SrvOled:
 638 0000 00000000 		.word	SrvOled_Init
 639 0004 00000000 		.word	SrvOled_Fresh
 640 0008 00000000 		.word	SrvOled_GetDev_DspRange
 641              		.text
 642              	.Letext0:
 643              		.file 2 "c:\\program files (x86)\\gnu arm embedded toolchain\\10 2020-q4-major\\arm-none-eabi\\inc
 644              		.file 3 "c:\\program files (x86)\\gnu arm embedded toolchain\\10 2020-q4-major\\arm-none-eabi\\inc
 645              		.file 4 "Dsp/screen/device/oled1306.h"
 646              		.file 5 "USER/stm32f4xx.h"
 647              		.file 6 "Bsp/periph_spi.h"
 648              		.file 7 "SYS/data_structure/queue.h"
 649              		.file 8 "Drv/drv_spi.h"
 650              		.file 9 "Drv/drv_gpio.h"
 651              		.file 10 "Dsp/screen/service/SrvOled.h"
ARM GAS  C:\Users\huav\AppData\Local\Temp\ccZibAPv.s 			page 15

