ARM GAS  /var/folders/lx/hc4sn_b53233_zkc9xbbl97r0000gp/T//ccsFGPHN.s 			page 1


   1              		.cpu cortex-m4
   2              		.eabi_attribute 27, 1
   3              		.eabi_attribute 28, 1
   4              		.eabi_attribute 20, 1
   5              		.eabi_attribute 21, 1
   6              		.eabi_attribute 23, 3
   7              		.eabi_attribute 24, 1
   8              		.eabi_attribute 25, 1
   9              		.eabi_attribute 26, 1
  10              		.eabi_attribute 30, 1
  11              		.eabi_attribute 34, 1
  12              		.eabi_attribute 18, 4
  13              		.file	"stm32f4xx_syscfg.c"
  14              		.text
  15              	.Ltext0:
  16              		.cfi_sections	.debug_frame
  17              		.section	.text.SYSCFG_DeInit,"ax",%progbits
  18              		.align	1
  19              		.global	SYSCFG_DeInit
  20              		.arch armv7e-m
  21              		.syntax unified
  22              		.thumb
  23              		.thumb_func
  24              		.fpu fpv4-sp-d16
  26              	SYSCFG_DeInit:
  27              	.LFB123:
  28              		.file 1 "FWLIB/src/stm32f4xx_syscfg.c"
   1:FWLIB/src/stm32f4xx_syscfg.c **** /**
   2:FWLIB/src/stm32f4xx_syscfg.c ****   ******************************************************************************
   3:FWLIB/src/stm32f4xx_syscfg.c ****   * @file    stm32f4xx_syscfg.c
   4:FWLIB/src/stm32f4xx_syscfg.c ****   * @author  MCD Application Team
   5:FWLIB/src/stm32f4xx_syscfg.c ****   * @version V1.8.0
   6:FWLIB/src/stm32f4xx_syscfg.c ****   * @date    04-November-2016
   7:FWLIB/src/stm32f4xx_syscfg.c ****   * @brief   This file provides firmware functions to manage the SYSCFG peripheral.
   8:FWLIB/src/stm32f4xx_syscfg.c ****   *
   9:FWLIB/src/stm32f4xx_syscfg.c ****  @verbatim
  10:FWLIB/src/stm32f4xx_syscfg.c ****     
  11:FWLIB/src/stm32f4xx_syscfg.c ****  ===============================================================================
  12:FWLIB/src/stm32f4xx_syscfg.c ****                      ##### How to use this driver #####
  13:FWLIB/src/stm32f4xx_syscfg.c ****  ===============================================================================
  14:FWLIB/src/stm32f4xx_syscfg.c ****     [..] This driver provides functions for:
  15:FWLIB/src/stm32f4xx_syscfg.c ****             
  16:FWLIB/src/stm32f4xx_syscfg.c ****        (#) Remapping the memory accessible in the code area using SYSCFG_MemoryRemapConfig()
  17:FWLIB/src/stm32f4xx_syscfg.c ****             
  18:FWLIB/src/stm32f4xx_syscfg.c ****        (#) Swapping the internal flash Bank1 and Bank2 this features is only visible for 
  19:FWLIB/src/stm32f4xx_syscfg.c ****            STM32F42xxx/43xxx devices Devices. 
  20:FWLIB/src/stm32f4xx_syscfg.c ****                 
  21:FWLIB/src/stm32f4xx_syscfg.c ****        (#) Manage the EXTI lines connection to the GPIOs using SYSCFG_EXTILineConfig()
  22:FWLIB/src/stm32f4xx_syscfg.c ****               
  23:FWLIB/src/stm32f4xx_syscfg.c ****        (#) Select the ETHERNET media interface (RMII/RII) using SYSCFG_ETH_MediaInterfaceConfig()
  24:FWLIB/src/stm32f4xx_syscfg.c ****   
  25:FWLIB/src/stm32f4xx_syscfg.c ****        -@- SYSCFG APB clock must be enabled to get write access to SYSCFG registers,
  26:FWLIB/src/stm32f4xx_syscfg.c ****            using RCC_APB2PeriphClockCmd(RCC_APB2Periph_SYSCFG, ENABLE);
  27:FWLIB/src/stm32f4xx_syscfg.c ****                    
  28:FWLIB/src/stm32f4xx_syscfg.c ****  @endverbatim      
  29:FWLIB/src/stm32f4xx_syscfg.c ****   ******************************************************************************
  30:FWLIB/src/stm32f4xx_syscfg.c ****   * @attention
ARM GAS  /var/folders/lx/hc4sn_b53233_zkc9xbbl97r0000gp/T//ccsFGPHN.s 			page 2


  31:FWLIB/src/stm32f4xx_syscfg.c ****   *
  32:FWLIB/src/stm32f4xx_syscfg.c ****   * <h2><center>&copy; COPYRIGHT 2016 STMicroelectronics</center></h2>
  33:FWLIB/src/stm32f4xx_syscfg.c ****   *
  34:FWLIB/src/stm32f4xx_syscfg.c ****   * Licensed under MCD-ST Liberty SW License Agreement V2, (the "License");
  35:FWLIB/src/stm32f4xx_syscfg.c ****   * You may not use this file except in compliance with the License.
  36:FWLIB/src/stm32f4xx_syscfg.c ****   * You may obtain a copy of the License at:
  37:FWLIB/src/stm32f4xx_syscfg.c ****   *
  38:FWLIB/src/stm32f4xx_syscfg.c ****   *        http://www.st.com/software_license_agreement_liberty_v2
  39:FWLIB/src/stm32f4xx_syscfg.c ****   *
  40:FWLIB/src/stm32f4xx_syscfg.c ****   * Unless required by applicable law or agreed to in writing, software 
  41:FWLIB/src/stm32f4xx_syscfg.c ****   * distributed under the License is distributed on an "AS IS" BASIS, 
  42:FWLIB/src/stm32f4xx_syscfg.c ****   * WITHOUT WARRANTIES OR CONDITIONS OF ANY KIND, either express or implied.
  43:FWLIB/src/stm32f4xx_syscfg.c ****   * See the License for the specific language governing permissions and
  44:FWLIB/src/stm32f4xx_syscfg.c ****   * limitations under the License.
  45:FWLIB/src/stm32f4xx_syscfg.c ****   *
  46:FWLIB/src/stm32f4xx_syscfg.c ****   ******************************************************************************
  47:FWLIB/src/stm32f4xx_syscfg.c ****   */
  48:FWLIB/src/stm32f4xx_syscfg.c **** 
  49:FWLIB/src/stm32f4xx_syscfg.c **** /* Includes ------------------------------------------------------------------*/
  50:FWLIB/src/stm32f4xx_syscfg.c **** #include "stm32f4xx_syscfg.h"
  51:FWLIB/src/stm32f4xx_syscfg.c **** #include "stm32f4xx_rcc.h"
  52:FWLIB/src/stm32f4xx_syscfg.c **** 
  53:FWLIB/src/stm32f4xx_syscfg.c **** /** @addtogroup STM32F4xx_StdPeriph_Driver
  54:FWLIB/src/stm32f4xx_syscfg.c ****   * @{
  55:FWLIB/src/stm32f4xx_syscfg.c ****   */
  56:FWLIB/src/stm32f4xx_syscfg.c **** 
  57:FWLIB/src/stm32f4xx_syscfg.c **** /** @defgroup SYSCFG 
  58:FWLIB/src/stm32f4xx_syscfg.c ****   * @brief SYSCFG driver modules
  59:FWLIB/src/stm32f4xx_syscfg.c ****   * @{
  60:FWLIB/src/stm32f4xx_syscfg.c ****   */ 
  61:FWLIB/src/stm32f4xx_syscfg.c **** 
  62:FWLIB/src/stm32f4xx_syscfg.c **** /* Private typedef -----------------------------------------------------------*/
  63:FWLIB/src/stm32f4xx_syscfg.c **** /* Private define ------------------------------------------------------------*/
  64:FWLIB/src/stm32f4xx_syscfg.c **** /* ------------ RCC registers bit address in the alias region ----------- */
  65:FWLIB/src/stm32f4xx_syscfg.c **** #define SYSCFG_OFFSET             (SYSCFG_BASE - PERIPH_BASE)
  66:FWLIB/src/stm32f4xx_syscfg.c **** /* ---  MEMRMP Register ---*/ 
  67:FWLIB/src/stm32f4xx_syscfg.c **** /* Alias word address of UFB_MODE bit */ 
  68:FWLIB/src/stm32f4xx_syscfg.c **** #define MEMRMP_OFFSET             SYSCFG_OFFSET 
  69:FWLIB/src/stm32f4xx_syscfg.c **** #define UFB_MODE_BitNumber        ((uint8_t)0x8) 
  70:FWLIB/src/stm32f4xx_syscfg.c **** #define UFB_MODE_BB               (PERIPH_BB_BASE + (MEMRMP_OFFSET * 32) + (UFB_MODE_BitNumber * 4)
  71:FWLIB/src/stm32f4xx_syscfg.c ****     
  72:FWLIB/src/stm32f4xx_syscfg.c **** /* ---  PMC Register ---*/ 
  73:FWLIB/src/stm32f4xx_syscfg.c **** /* Alias word address of MII_RMII_SEL bit */ 
  74:FWLIB/src/stm32f4xx_syscfg.c **** #define PMC_OFFSET                (SYSCFG_OFFSET + 0x04) 
  75:FWLIB/src/stm32f4xx_syscfg.c **** #define MII_RMII_SEL_BitNumber    ((uint8_t)0x17) 
  76:FWLIB/src/stm32f4xx_syscfg.c **** #define PMC_MII_RMII_SEL_BB       (PERIPH_BB_BASE + (PMC_OFFSET * 32) + (MII_RMII_SEL_BitNumber * 4
  77:FWLIB/src/stm32f4xx_syscfg.c ****     
  78:FWLIB/src/stm32f4xx_syscfg.c **** /* ---  CMPCR Register ---*/ 
  79:FWLIB/src/stm32f4xx_syscfg.c **** /* Alias word address of CMP_PD bit */ 
  80:FWLIB/src/stm32f4xx_syscfg.c **** #define CMPCR_OFFSET              (SYSCFG_OFFSET + 0x20) 
  81:FWLIB/src/stm32f4xx_syscfg.c **** #define CMP_PD_BitNumber          ((uint8_t)0x00) 
  82:FWLIB/src/stm32f4xx_syscfg.c **** #define CMPCR_CMP_PD_BB           (PERIPH_BB_BASE + (CMPCR_OFFSET * 32) + (CMP_PD_BitNumber * 4)) 
  83:FWLIB/src/stm32f4xx_syscfg.c **** 
  84:FWLIB/src/stm32f4xx_syscfg.c **** /* ---  MCHDLYCR Register ---*/ 
  85:FWLIB/src/stm32f4xx_syscfg.c **** /* Alias word address of BSCKSEL bit */ 
  86:FWLIB/src/stm32f4xx_syscfg.c **** #define MCHDLYCR_OFFSET            (SYSCFG_OFFSET + 0x30) 
  87:FWLIB/src/stm32f4xx_syscfg.c **** #define BSCKSEL_BIT_NUMBER         POSITION_VAL(SYSCFG_MCHDLYCR_BSCKSEL)
ARM GAS  /var/folders/lx/hc4sn_b53233_zkc9xbbl97r0000gp/T//ccsFGPHN.s 			page 3


  88:FWLIB/src/stm32f4xx_syscfg.c **** #define MCHDLYCR_BSCKSEL_BB        (uint32_t)(PERIPH_BB_BASE + (MCHDLYCR_OFFSET * 32) + (BSCKSEL_BI
  89:FWLIB/src/stm32f4xx_syscfg.c **** 
  90:FWLIB/src/stm32f4xx_syscfg.c **** /* Private macro -------------------------------------------------------------*/
  91:FWLIB/src/stm32f4xx_syscfg.c **** /* Private variables ---------------------------------------------------------*/
  92:FWLIB/src/stm32f4xx_syscfg.c **** /* Private function prototypes -----------------------------------------------*/
  93:FWLIB/src/stm32f4xx_syscfg.c **** /* Private functions ---------------------------------------------------------*/
  94:FWLIB/src/stm32f4xx_syscfg.c **** 
  95:FWLIB/src/stm32f4xx_syscfg.c **** /** @defgroup SYSCFG_Private_Functions
  96:FWLIB/src/stm32f4xx_syscfg.c ****   * @{
  97:FWLIB/src/stm32f4xx_syscfg.c ****   */ 
  98:FWLIB/src/stm32f4xx_syscfg.c **** 
  99:FWLIB/src/stm32f4xx_syscfg.c **** /**
 100:FWLIB/src/stm32f4xx_syscfg.c ****   * @brief  Deinitializes the Alternate Functions (remap and EXTI configuration)
 101:FWLIB/src/stm32f4xx_syscfg.c ****   *   registers to their default reset values.
 102:FWLIB/src/stm32f4xx_syscfg.c ****   * @param  None
 103:FWLIB/src/stm32f4xx_syscfg.c ****   * @retval None
 104:FWLIB/src/stm32f4xx_syscfg.c ****   */
 105:FWLIB/src/stm32f4xx_syscfg.c **** void SYSCFG_DeInit(void)
 106:FWLIB/src/stm32f4xx_syscfg.c **** {
  29              		.loc 1 106 1 view -0
  30              		.cfi_startproc
  31              		@ args = 0, pretend = 0, frame = 0
  32              		@ frame_needed = 0, uses_anonymous_args = 0
  33 0000 08B5     		push	{r3, lr}
  34              	.LCFI0:
  35              		.cfi_def_cfa_offset 8
  36              		.cfi_offset 3, -8
  37              		.cfi_offset 14, -4
 107:FWLIB/src/stm32f4xx_syscfg.c ****    RCC_APB2PeriphResetCmd(RCC_APB2Periph_SYSCFG, ENABLE);
  38              		.loc 1 107 4 view .LVU1
  39 0002 0121     		movs	r1, #1
  40 0004 4FF48040 		mov	r0, #16384
  41 0008 FFF7FEFF 		bl	RCC_APB2PeriphResetCmd
  42              	.LVL0:
 108:FWLIB/src/stm32f4xx_syscfg.c ****    RCC_APB2PeriphResetCmd(RCC_APB2Periph_SYSCFG, DISABLE);
  43              		.loc 1 108 4 view .LVU2
  44 000c 0021     		movs	r1, #0
  45 000e 4FF48040 		mov	r0, #16384
  46 0012 FFF7FEFF 		bl	RCC_APB2PeriphResetCmd
  47              	.LVL1:
 109:FWLIB/src/stm32f4xx_syscfg.c **** }
  48              		.loc 1 109 1 is_stmt 0 view .LVU3
  49 0016 08BD     		pop	{r3, pc}
  50              		.cfi_endproc
  51              	.LFE123:
  53              		.section	.text.SYSCFG_MemoryRemapConfig,"ax",%progbits
  54              		.align	1
  55              		.global	SYSCFG_MemoryRemapConfig
  56              		.syntax unified
  57              		.thumb
  58              		.thumb_func
  59              		.fpu fpv4-sp-d16
  61              	SYSCFG_MemoryRemapConfig:
  62              	.LVL2:
  63              	.LFB124:
 110:FWLIB/src/stm32f4xx_syscfg.c **** 
 111:FWLIB/src/stm32f4xx_syscfg.c **** /**
ARM GAS  /var/folders/lx/hc4sn_b53233_zkc9xbbl97r0000gp/T//ccsFGPHN.s 			page 4


 112:FWLIB/src/stm32f4xx_syscfg.c ****   * @brief  Changes the mapping of the specified pin.
 113:FWLIB/src/stm32f4xx_syscfg.c ****   * @param  SYSCFG_Memory: selects the memory remapping.
 114:FWLIB/src/stm32f4xx_syscfg.c ****   *         This parameter can be one of the following values:
 115:FWLIB/src/stm32f4xx_syscfg.c ****   *            @arg SYSCFG_MemoryRemap_Flash:       Main Flash memory mapped at 0x00000000  
 116:FWLIB/src/stm32f4xx_syscfg.c ****   *            @arg SYSCFG_MemoryRemap_SystemFlash: System Flash memory mapped at 0x00000000
 117:FWLIB/src/stm32f4xx_syscfg.c ****   *            @arg SYSCFG_MemoryRemap_FSMC:        FSMC (Bank1 (NOR/PSRAM 1 and 2) mapped at 0x000
 118:FWLIB/src/stm32f4xx_syscfg.c ****   *            @arg SYSCFG_MemoryRemap_FMC:         FMC (Bank1 (NOR/PSRAM 1 and 2) mapped at 0x0000
 119:FWLIB/src/stm32f4xx_syscfg.c ****   *            @arg SYSCFG_MemoryRemap_ExtMEM:      External Memory mapped at 0x00000000 for STM32F
 120:FWLIB/src/stm32f4xx_syscfg.c ****   *            @arg SYSCFG_MemoryRemap_SRAM:        Embedded SRAM (112kB) mapped at 0x00000000
 121:FWLIB/src/stm32f4xx_syscfg.c ****   *            @arg SYSCFG_MemoryRemap_SDRAM:       FMC (External SDRAM)  mapped at 0x00000000 for 
 122:FWLIB/src/stm32f4xx_syscfg.c ****   * @retval None
 123:FWLIB/src/stm32f4xx_syscfg.c ****   */
 124:FWLIB/src/stm32f4xx_syscfg.c **** void SYSCFG_MemoryRemapConfig(uint8_t SYSCFG_MemoryRemap)
 125:FWLIB/src/stm32f4xx_syscfg.c **** {
  64              		.loc 1 125 1 is_stmt 1 view -0
  65              		.cfi_startproc
  66              		@ args = 0, pretend = 0, frame = 0
  67              		@ frame_needed = 0, uses_anonymous_args = 0
  68              		@ link register save eliminated.
 126:FWLIB/src/stm32f4xx_syscfg.c ****   /* Check the parameters */
 127:FWLIB/src/stm32f4xx_syscfg.c ****   assert_param(IS_SYSCFG_MEMORY_REMAP_CONFING(SYSCFG_MemoryRemap));
  69              		.loc 1 127 3 view .LVU5
 128:FWLIB/src/stm32f4xx_syscfg.c **** 
 129:FWLIB/src/stm32f4xx_syscfg.c ****   SYSCFG->MEMRMP = SYSCFG_MemoryRemap;
  70              		.loc 1 129 3 view .LVU6
  71              		.loc 1 129 18 is_stmt 0 view .LVU7
  72 0000 014B     		ldr	r3, .L4
  73 0002 1860     		str	r0, [r3]
 130:FWLIB/src/stm32f4xx_syscfg.c **** }
  74              		.loc 1 130 1 view .LVU8
  75 0004 7047     		bx	lr
  76              	.L5:
  77 0006 00BF     		.align	2
  78              	.L4:
  79 0008 00380140 		.word	1073821696
  80              		.cfi_endproc
  81              	.LFE124:
  83              		.section	.text.SYSCFG_MemorySwappingBank,"ax",%progbits
  84              		.align	1
  85              		.global	SYSCFG_MemorySwappingBank
  86              		.syntax unified
  87              		.thumb
  88              		.thumb_func
  89              		.fpu fpv4-sp-d16
  91              	SYSCFG_MemorySwappingBank:
  92              	.LVL3:
  93              	.LFB125:
 131:FWLIB/src/stm32f4xx_syscfg.c **** 
 132:FWLIB/src/stm32f4xx_syscfg.c **** /**
 133:FWLIB/src/stm32f4xx_syscfg.c ****   * @brief  Enables or disables the Internal FLASH Bank Swapping.
 134:FWLIB/src/stm32f4xx_syscfg.c ****   *   
 135:FWLIB/src/stm32f4xx_syscfg.c ****   * @note   This function can be used only for STM32F42xxx/43xxx devices. 
 136:FWLIB/src/stm32f4xx_syscfg.c ****   *
 137:FWLIB/src/stm32f4xx_syscfg.c ****   * @param  NewState: new state of Internal FLASH Bank swapping.
 138:FWLIB/src/stm32f4xx_syscfg.c ****   *          This parameter can be one of the following values:
 139:FWLIB/src/stm32f4xx_syscfg.c ****   *            @arg ENABLE: Flash Bank2 mapped at 0x08000000 (and aliased @0x00000000) 
 140:FWLIB/src/stm32f4xx_syscfg.c ****   *                         and Flash Bank1 mapped at 0x08100000 (and aliased at 0x00100000)   
ARM GAS  /var/folders/lx/hc4sn_b53233_zkc9xbbl97r0000gp/T//ccsFGPHN.s 			page 5


 141:FWLIB/src/stm32f4xx_syscfg.c ****   *            @arg DISABLE:(the default state) Flash Bank1 mapped at 0x08000000 (and aliased @0x00
 142:FWLIB/src/stm32f4xx_syscfg.c ****                             and Flash Bank2 mapped at 0x08100000 (and aliased at 0x00100000)  
 143:FWLIB/src/stm32f4xx_syscfg.c ****   * @retval None
 144:FWLIB/src/stm32f4xx_syscfg.c ****   */
 145:FWLIB/src/stm32f4xx_syscfg.c **** void SYSCFG_MemorySwappingBank(FunctionalState NewState)
 146:FWLIB/src/stm32f4xx_syscfg.c **** {
  94              		.loc 1 146 1 is_stmt 1 view -0
  95              		.cfi_startproc
  96              		@ args = 0, pretend = 0, frame = 0
  97              		@ frame_needed = 0, uses_anonymous_args = 0
  98              		@ link register save eliminated.
 147:FWLIB/src/stm32f4xx_syscfg.c ****   /* Check the parameters */
 148:FWLIB/src/stm32f4xx_syscfg.c ****   assert_param(IS_FUNCTIONAL_STATE(NewState));
  99              		.loc 1 148 3 view .LVU10
 149:FWLIB/src/stm32f4xx_syscfg.c **** 
 150:FWLIB/src/stm32f4xx_syscfg.c ****   *(__IO uint32_t *) UFB_MODE_BB = (uint32_t)NewState;
 100              		.loc 1 150 3 view .LVU11
 101              		.loc 1 150 34 is_stmt 0 view .LVU12
 102 0000 014B     		ldr	r3, .L7
 103 0002 1862     		str	r0, [r3, #32]
 151:FWLIB/src/stm32f4xx_syscfg.c **** }
 104              		.loc 1 151 1 view .LVU13
 105 0004 7047     		bx	lr
 106              	.L8:
 107 0006 00BF     		.align	2
 108              	.L7:
 109 0008 00002742 		.word	1109852160
 110              		.cfi_endproc
 111              	.LFE125:
 113              		.section	.text.SYSCFG_EXTILineConfig,"ax",%progbits
 114              		.align	1
 115              		.global	SYSCFG_EXTILineConfig
 116              		.syntax unified
 117              		.thumb
 118              		.thumb_func
 119              		.fpu fpv4-sp-d16
 121              	SYSCFG_EXTILineConfig:
 122              	.LVL4:
 123              	.LFB126:
 152:FWLIB/src/stm32f4xx_syscfg.c **** 
 153:FWLIB/src/stm32f4xx_syscfg.c **** /**
 154:FWLIB/src/stm32f4xx_syscfg.c ****   * @brief  Selects the GPIO pin used as EXTI Line.
 155:FWLIB/src/stm32f4xx_syscfg.c ****   * @param  EXTI_PortSourceGPIOx : selects the GPIO port to be used as source for
 156:FWLIB/src/stm32f4xx_syscfg.c ****   *          EXTI lines where x can be (A..K) for STM32F42xxx/43xxx devices, (A..I) 
 157:FWLIB/src/stm32f4xx_syscfg.c ****   *          for STM32F405xx/407xx and STM32F415xx/417xx devices or (A, B, C, D and H)
 158:FWLIB/src/stm32f4xx_syscfg.c ****   *          for STM32401xx devices.  
 159:FWLIB/src/stm32f4xx_syscfg.c ****   *            
 160:FWLIB/src/stm32f4xx_syscfg.c ****   * @param  EXTI_PinSourcex: specifies the EXTI line to be configured.
 161:FWLIB/src/stm32f4xx_syscfg.c ****   *           This parameter can be EXTI_PinSourcex where x can be (0..15, except
 162:FWLIB/src/stm32f4xx_syscfg.c ****   *           for EXTI_PortSourceGPIOI x can be (0..11) for STM32F405xx/407xx
 163:FWLIB/src/stm32f4xx_syscfg.c ****   *           and STM32F405xx/407xx devices and for EXTI_PortSourceGPIOK x can   
 164:FWLIB/src/stm32f4xx_syscfg.c ****   *           be (0..7) for STM32F42xxx/43xxx devices. 
 165:FWLIB/src/stm32f4xx_syscfg.c ****   *             
 166:FWLIB/src/stm32f4xx_syscfg.c ****   * @retval None
 167:FWLIB/src/stm32f4xx_syscfg.c ****   */
 168:FWLIB/src/stm32f4xx_syscfg.c **** void SYSCFG_EXTILineConfig(uint8_t EXTI_PortSourceGPIOx, uint8_t EXTI_PinSourcex)
 169:FWLIB/src/stm32f4xx_syscfg.c **** {
ARM GAS  /var/folders/lx/hc4sn_b53233_zkc9xbbl97r0000gp/T//ccsFGPHN.s 			page 6


 124              		.loc 1 169 1 is_stmt 1 view -0
 125              		.cfi_startproc
 126              		@ args = 0, pretend = 0, frame = 0
 127              		@ frame_needed = 0, uses_anonymous_args = 0
 128              		@ link register save eliminated.
 129              		.loc 1 169 1 is_stmt 0 view .LVU15
 130 0000 10B4     		push	{r4}
 131              	.LCFI1:
 132              		.cfi_def_cfa_offset 4
 133              		.cfi_offset 4, -4
 170:FWLIB/src/stm32f4xx_syscfg.c ****   uint32_t tmp = 0x00;
 134              		.loc 1 170 3 is_stmt 1 view .LVU16
 135              	.LVL5:
 171:FWLIB/src/stm32f4xx_syscfg.c **** 
 172:FWLIB/src/stm32f4xx_syscfg.c ****   /* Check the parameters */
 173:FWLIB/src/stm32f4xx_syscfg.c ****   assert_param(IS_EXTI_PORT_SOURCE(EXTI_PortSourceGPIOx));
 136              		.loc 1 173 3 view .LVU17
 174:FWLIB/src/stm32f4xx_syscfg.c ****   assert_param(IS_EXTI_PIN_SOURCE(EXTI_PinSourcex));
 137              		.loc 1 174 3 view .LVU18
 175:FWLIB/src/stm32f4xx_syscfg.c **** 
 176:FWLIB/src/stm32f4xx_syscfg.c ****   tmp = ((uint32_t)0x0F) << (0x04 * (EXTI_PinSourcex & (uint8_t)0x03));
 138              		.loc 1 176 3 view .LVU19
 139              		.loc 1 176 54 is_stmt 0 view .LVU20
 140 0002 01F00302 		and	r2, r1, #3
 141              		.loc 1 176 35 view .LVU21
 142 0006 9200     		lsls	r2, r2, #2
 143              		.loc 1 176 7 view .LVU22
 144 0008 0F24     		movs	r4, #15
 145 000a 04FA02FC 		lsl	ip, r4, r2
 146              	.LVL6:
 177:FWLIB/src/stm32f4xx_syscfg.c ****   SYSCFG->EXTICR[EXTI_PinSourcex >> 0x02] &= ~tmp;
 147              		.loc 1 177 3 is_stmt 1 view .LVU23
 148              		.loc 1 177 43 is_stmt 0 view .LVU24
 149 000e 8908     		lsrs	r1, r1, #2
 150              	.LVL7:
 151              		.loc 1 177 43 view .LVU25
 152 0010 084B     		ldr	r3, .L11
 153 0012 0231     		adds	r1, r1, #2
 154 0014 53F82140 		ldr	r4, [r3, r1, lsl #2]
 155 0018 24EA0C04 		bic	r4, r4, ip
 156 001c 43F82140 		str	r4, [r3, r1, lsl #2]
 178:FWLIB/src/stm32f4xx_syscfg.c ****   SYSCFG->EXTICR[EXTI_PinSourcex >> 0x02] |= (((uint32_t)EXTI_PortSourceGPIOx) << (0x04 * (EXTI_Pin
 157              		.loc 1 178 3 is_stmt 1 view .LVU26
 158              		.loc 1 178 43 is_stmt 0 view .LVU27
 159 0020 53F82140 		ldr	r4, [r3, r1, lsl #2]
 160              		.loc 1 178 80 view .LVU28
 161 0024 9040     		lsls	r0, r0, r2
 162              	.LVL8:
 163              		.loc 1 178 43 view .LVU29
 164 0026 0443     		orrs	r4, r4, r0
 165 0028 43F82140 		str	r4, [r3, r1, lsl #2]
 179:FWLIB/src/stm32f4xx_syscfg.c **** }
 166              		.loc 1 179 1 view .LVU30
 167 002c 5DF8044B 		ldr	r4, [sp], #4
 168              	.LCFI2:
 169              		.cfi_restore 4
 170              		.cfi_def_cfa_offset 0
ARM GAS  /var/folders/lx/hc4sn_b53233_zkc9xbbl97r0000gp/T//ccsFGPHN.s 			page 7


 171 0030 7047     		bx	lr
 172              	.L12:
 173 0032 00BF     		.align	2
 174              	.L11:
 175 0034 00380140 		.word	1073821696
 176              		.cfi_endproc
 177              	.LFE126:
 179              		.section	.text.SYSCFG_ETH_MediaInterfaceConfig,"ax",%progbits
 180              		.align	1
 181              		.global	SYSCFG_ETH_MediaInterfaceConfig
 182              		.syntax unified
 183              		.thumb
 184              		.thumb_func
 185              		.fpu fpv4-sp-d16
 187              	SYSCFG_ETH_MediaInterfaceConfig:
 188              	.LVL9:
 189              	.LFB127:
 180:FWLIB/src/stm32f4xx_syscfg.c **** 
 181:FWLIB/src/stm32f4xx_syscfg.c **** /**
 182:FWLIB/src/stm32f4xx_syscfg.c ****   * @brief  Selects the ETHERNET media interface 
 183:FWLIB/src/stm32f4xx_syscfg.c ****   * @param  SYSCFG_ETH_MediaInterface: specifies the Media Interface mode. 
 184:FWLIB/src/stm32f4xx_syscfg.c ****   *          This parameter can be one of the following values: 
 185:FWLIB/src/stm32f4xx_syscfg.c ****   *            @arg SYSCFG_ETH_MediaInterface_MII: MII mode selected
 186:FWLIB/src/stm32f4xx_syscfg.c ****   *            @arg SYSCFG_ETH_MediaInterface_RMII: RMII mode selected 
 187:FWLIB/src/stm32f4xx_syscfg.c ****   * @retval None 
 188:FWLIB/src/stm32f4xx_syscfg.c ****   */
 189:FWLIB/src/stm32f4xx_syscfg.c **** void SYSCFG_ETH_MediaInterfaceConfig(uint32_t SYSCFG_ETH_MediaInterface) 
 190:FWLIB/src/stm32f4xx_syscfg.c **** { 
 190              		.loc 1 190 1 is_stmt 1 view -0
 191              		.cfi_startproc
 192              		@ args = 0, pretend = 0, frame = 0
 193              		@ frame_needed = 0, uses_anonymous_args = 0
 194              		@ link register save eliminated.
 191:FWLIB/src/stm32f4xx_syscfg.c ****   assert_param(IS_SYSCFG_ETH_MEDIA_INTERFACE(SYSCFG_ETH_MediaInterface)); 
 195              		.loc 1 191 3 view .LVU32
 192:FWLIB/src/stm32f4xx_syscfg.c ****   /* Configure MII_RMII selection bit */ 
 193:FWLIB/src/stm32f4xx_syscfg.c ****   *(__IO uint32_t *) PMC_MII_RMII_SEL_BB = SYSCFG_ETH_MediaInterface; 
 196              		.loc 1 193 3 view .LVU33
 197              		.loc 1 193 42 is_stmt 0 view .LVU34
 198 0000 014B     		ldr	r3, .L14
 199 0002 C3F8DC00 		str	r0, [r3, #220]
 194:FWLIB/src/stm32f4xx_syscfg.c **** }
 200              		.loc 1 194 1 view .LVU35
 201 0006 7047     		bx	lr
 202              	.L15:
 203              		.align	2
 204              	.L14:
 205 0008 00002742 		.word	1109852160
 206              		.cfi_endproc
 207              	.LFE127:
 209              		.section	.text.SYSCFG_CompensationCellCmd,"ax",%progbits
 210              		.align	1
 211              		.global	SYSCFG_CompensationCellCmd
 212              		.syntax unified
 213              		.thumb
 214              		.thumb_func
 215              		.fpu fpv4-sp-d16
ARM GAS  /var/folders/lx/hc4sn_b53233_zkc9xbbl97r0000gp/T//ccsFGPHN.s 			page 8


 217              	SYSCFG_CompensationCellCmd:
 218              	.LVL10:
 219              	.LFB128:
 195:FWLIB/src/stm32f4xx_syscfg.c **** 
 196:FWLIB/src/stm32f4xx_syscfg.c **** /**
 197:FWLIB/src/stm32f4xx_syscfg.c ****   * @brief  Enables or disables the I/O Compensation Cell.
 198:FWLIB/src/stm32f4xx_syscfg.c ****   * @note   The I/O compensation cell can be used only when the device supply
 199:FWLIB/src/stm32f4xx_syscfg.c ****   *         voltage ranges from 2.4 to 3.6 V.  
 200:FWLIB/src/stm32f4xx_syscfg.c ****   * @param  NewState: new state of the I/O Compensation Cell.
 201:FWLIB/src/stm32f4xx_syscfg.c ****   *          This parameter can be one of the following values:
 202:FWLIB/src/stm32f4xx_syscfg.c ****   *            @arg ENABLE: I/O compensation cell enabled  
 203:FWLIB/src/stm32f4xx_syscfg.c ****   *            @arg DISABLE: I/O compensation cell power-down mode  
 204:FWLIB/src/stm32f4xx_syscfg.c ****   * @retval None
 205:FWLIB/src/stm32f4xx_syscfg.c ****   */
 206:FWLIB/src/stm32f4xx_syscfg.c **** void SYSCFG_CompensationCellCmd(FunctionalState NewState)
 207:FWLIB/src/stm32f4xx_syscfg.c **** {
 220              		.loc 1 207 1 is_stmt 1 view -0
 221              		.cfi_startproc
 222              		@ args = 0, pretend = 0, frame = 0
 223              		@ frame_needed = 0, uses_anonymous_args = 0
 224              		@ link register save eliminated.
 208:FWLIB/src/stm32f4xx_syscfg.c ****   /* Check the parameters */
 209:FWLIB/src/stm32f4xx_syscfg.c ****   assert_param(IS_FUNCTIONAL_STATE(NewState));
 225              		.loc 1 209 3 view .LVU37
 210:FWLIB/src/stm32f4xx_syscfg.c **** 
 211:FWLIB/src/stm32f4xx_syscfg.c ****   *(__IO uint32_t *) CMPCR_CMP_PD_BB = (uint32_t)NewState;
 226              		.loc 1 211 3 view .LVU38
 227              		.loc 1 211 38 is_stmt 0 view .LVU39
 228 0000 014B     		ldr	r3, .L17
 229 0002 C3F80004 		str	r0, [r3, #1024]
 212:FWLIB/src/stm32f4xx_syscfg.c **** }
 230              		.loc 1 212 1 view .LVU40
 231 0006 7047     		bx	lr
 232              	.L18:
 233              		.align	2
 234              	.L17:
 235 0008 00002742 		.word	1109852160
 236              		.cfi_endproc
 237              	.LFE128:
 239              		.section	.text.SYSCFG_GetCompensationCellStatus,"ax",%progbits
 240              		.align	1
 241              		.global	SYSCFG_GetCompensationCellStatus
 242              		.syntax unified
 243              		.thumb
 244              		.thumb_func
 245              		.fpu fpv4-sp-d16
 247              	SYSCFG_GetCompensationCellStatus:
 248              	.LFB129:
 213:FWLIB/src/stm32f4xx_syscfg.c **** 
 214:FWLIB/src/stm32f4xx_syscfg.c **** /**
 215:FWLIB/src/stm32f4xx_syscfg.c ****   * @brief  Checks whether the I/O Compensation Cell ready flag is set or not.
 216:FWLIB/src/stm32f4xx_syscfg.c ****   * @param  None
 217:FWLIB/src/stm32f4xx_syscfg.c ****   * @retval The new state of the I/O Compensation Cell ready flag (SET or RESET)
 218:FWLIB/src/stm32f4xx_syscfg.c ****   */
 219:FWLIB/src/stm32f4xx_syscfg.c **** FlagStatus SYSCFG_GetCompensationCellStatus(void)
 220:FWLIB/src/stm32f4xx_syscfg.c **** {
 249              		.loc 1 220 1 is_stmt 1 view -0
ARM GAS  /var/folders/lx/hc4sn_b53233_zkc9xbbl97r0000gp/T//ccsFGPHN.s 			page 9


 250              		.cfi_startproc
 251              		@ args = 0, pretend = 0, frame = 0
 252              		@ frame_needed = 0, uses_anonymous_args = 0
 253              		@ link register save eliminated.
 221:FWLIB/src/stm32f4xx_syscfg.c ****   FlagStatus bitstatus = RESET;
 254              		.loc 1 221 3 view .LVU42
 255              	.LVL11:
 222:FWLIB/src/stm32f4xx_syscfg.c ****     
 223:FWLIB/src/stm32f4xx_syscfg.c ****   if ((SYSCFG->CMPCR & SYSCFG_CMPCR_READY ) != (uint32_t)RESET)
 256              		.loc 1 223 3 view .LVU43
 257              		.loc 1 223 14 is_stmt 0 view .LVU44
 258 0000 044B     		ldr	r3, .L22
 259 0002 1B6A     		ldr	r3, [r3, #32]
 260              		.loc 1 223 6 view .LVU45
 261 0004 13F4807F 		tst	r3, #256
 262 0008 01D0     		beq	.L21
 224:FWLIB/src/stm32f4xx_syscfg.c ****   {
 225:FWLIB/src/stm32f4xx_syscfg.c ****     bitstatus = SET;
 263              		.loc 1 225 15 view .LVU46
 264 000a 0120     		movs	r0, #1
 265 000c 7047     		bx	lr
 266              	.L21:
 226:FWLIB/src/stm32f4xx_syscfg.c ****   }
 227:FWLIB/src/stm32f4xx_syscfg.c ****   else
 228:FWLIB/src/stm32f4xx_syscfg.c ****   {
 229:FWLIB/src/stm32f4xx_syscfg.c ****     bitstatus = RESET;
 267              		.loc 1 229 15 view .LVU47
 268 000e 0020     		movs	r0, #0
 269              	.LVL12:
 230:FWLIB/src/stm32f4xx_syscfg.c ****   }
 231:FWLIB/src/stm32f4xx_syscfg.c ****   return bitstatus;
 270              		.loc 1 231 3 is_stmt 1 view .LVU48
 232:FWLIB/src/stm32f4xx_syscfg.c **** }
 271              		.loc 1 232 1 is_stmt 0 view .LVU49
 272 0010 7047     		bx	lr
 273              	.L23:
 274 0012 00BF     		.align	2
 275              	.L22:
 276 0014 00380140 		.word	1073821696
 277              		.cfi_endproc
 278              	.LFE129:
 280              		.text
 281              	.Letext0:
 282              		.file 2 "/usr/local/arm-none-eabi-gcc/gcc-arm-none-eabi-10-2020-q4-major/arm-none-eabi/include/mac
 283              		.file 3 "/usr/local/arm-none-eabi-gcc/gcc-arm-none-eabi-10-2020-q4-major/arm-none-eabi/include/sys
 284              		.file 4 "USER/stm32f4xx.h"
 285              		.file 5 "FWLIB/inc/stm32f4xx_rcc.h"
ARM GAS  /var/folders/lx/hc4sn_b53233_zkc9xbbl97r0000gp/T//ccsFGPHN.s 			page 10

