ARM GAS  /var/folders/lx/hc4sn_b53233_zkc9xbbl97r0000gp/T//ccn6k0bD.s 			page 1


   1              		.cpu cortex-m4
   2              		.eabi_attribute 27, 1
   3              		.eabi_attribute 28, 1
   4              		.eabi_attribute 20, 1
   5              		.eabi_attribute 21, 1
   6              		.eabi_attribute 23, 3
   7              		.eabi_attribute 24, 1
   8              		.eabi_attribute 25, 1
   9              		.eabi_attribute 26, 1
  10              		.eabi_attribute 30, 1
  11              		.eabi_attribute 34, 1
  12              		.eabi_attribute 18, 4
  13              		.file	"stm32f4xx_crc.c"
  14              		.text
  15              	.Ltext0:
  16              		.cfi_sections	.debug_frame
  17              		.section	.text.CRC_ResetDR,"ax",%progbits
  18              		.align	1
  19              		.global	CRC_ResetDR
  20              		.arch armv7e-m
  21              		.syntax unified
  22              		.thumb
  23              		.thumb_func
  24              		.fpu fpv4-sp-d16
  26              	CRC_ResetDR:
  27              	.LFB123:
  28              		.file 1 "FWLIB/src/stm32f4xx_crc.c"
   1:FWLIB/src/stm32f4xx_crc.c **** /**
   2:FWLIB/src/stm32f4xx_crc.c ****   ******************************************************************************
   3:FWLIB/src/stm32f4xx_crc.c ****   * @file    stm32f4xx_crc.c
   4:FWLIB/src/stm32f4xx_crc.c ****   * @author  MCD Application Team
   5:FWLIB/src/stm32f4xx_crc.c ****   * @version V1.8.0
   6:FWLIB/src/stm32f4xx_crc.c ****   * @date    04-November-2016
   7:FWLIB/src/stm32f4xx_crc.c ****   * @brief   This file provides all the CRC firmware functions.
   8:FWLIB/src/stm32f4xx_crc.c ****   ******************************************************************************
   9:FWLIB/src/stm32f4xx_crc.c ****   * @attention
  10:FWLIB/src/stm32f4xx_crc.c ****   *
  11:FWLIB/src/stm32f4xx_crc.c ****   * <h2><center>&copy; COPYRIGHT 2016 STMicroelectronics</center></h2>
  12:FWLIB/src/stm32f4xx_crc.c ****   *
  13:FWLIB/src/stm32f4xx_crc.c ****   * Licensed under MCD-ST Liberty SW License Agreement V2, (the "License");
  14:FWLIB/src/stm32f4xx_crc.c ****   * You may not use this file except in compliance with the License.
  15:FWLIB/src/stm32f4xx_crc.c ****   * You may obtain a copy of the License at:
  16:FWLIB/src/stm32f4xx_crc.c ****   *
  17:FWLIB/src/stm32f4xx_crc.c ****   *        http://www.st.com/software_license_agreement_liberty_v2
  18:FWLIB/src/stm32f4xx_crc.c ****   *
  19:FWLIB/src/stm32f4xx_crc.c ****   * Unless required by applicable law or agreed to in writing, software 
  20:FWLIB/src/stm32f4xx_crc.c ****   * distributed under the License is distributed on an "AS IS" BASIS, 
  21:FWLIB/src/stm32f4xx_crc.c ****   * WITHOUT WARRANTIES OR CONDITIONS OF ANY KIND, either express or implied.
  22:FWLIB/src/stm32f4xx_crc.c ****   * See the License for the specific language governing permissions and
  23:FWLIB/src/stm32f4xx_crc.c ****   * limitations under the License.
  24:FWLIB/src/stm32f4xx_crc.c ****   *
  25:FWLIB/src/stm32f4xx_crc.c ****   ******************************************************************************
  26:FWLIB/src/stm32f4xx_crc.c ****   */
  27:FWLIB/src/stm32f4xx_crc.c **** 
  28:FWLIB/src/stm32f4xx_crc.c **** /* Includes ------------------------------------------------------------------*/
  29:FWLIB/src/stm32f4xx_crc.c **** #include "stm32f4xx_crc.h"
  30:FWLIB/src/stm32f4xx_crc.c **** 
ARM GAS  /var/folders/lx/hc4sn_b53233_zkc9xbbl97r0000gp/T//ccn6k0bD.s 			page 2


  31:FWLIB/src/stm32f4xx_crc.c **** /** @addtogroup STM32F4xx_StdPeriph_Driver
  32:FWLIB/src/stm32f4xx_crc.c ****   * @{
  33:FWLIB/src/stm32f4xx_crc.c ****   */
  34:FWLIB/src/stm32f4xx_crc.c **** 
  35:FWLIB/src/stm32f4xx_crc.c **** /** @defgroup CRC 
  36:FWLIB/src/stm32f4xx_crc.c ****   * @brief CRC driver modules
  37:FWLIB/src/stm32f4xx_crc.c ****   * @{
  38:FWLIB/src/stm32f4xx_crc.c ****   */
  39:FWLIB/src/stm32f4xx_crc.c **** 
  40:FWLIB/src/stm32f4xx_crc.c **** /* Private typedef -----------------------------------------------------------*/
  41:FWLIB/src/stm32f4xx_crc.c **** /* Private define ------------------------------------------------------------*/
  42:FWLIB/src/stm32f4xx_crc.c **** /* Private macro -------------------------------------------------------------*/
  43:FWLIB/src/stm32f4xx_crc.c **** /* Private variables ---------------------------------------------------------*/
  44:FWLIB/src/stm32f4xx_crc.c **** /* Private function prototypes -----------------------------------------------*/
  45:FWLIB/src/stm32f4xx_crc.c **** /* Private functions ---------------------------------------------------------*/
  46:FWLIB/src/stm32f4xx_crc.c **** 
  47:FWLIB/src/stm32f4xx_crc.c **** /** @defgroup CRC_Private_Functions
  48:FWLIB/src/stm32f4xx_crc.c ****   * @{
  49:FWLIB/src/stm32f4xx_crc.c ****   */
  50:FWLIB/src/stm32f4xx_crc.c **** 
  51:FWLIB/src/stm32f4xx_crc.c **** /**
  52:FWLIB/src/stm32f4xx_crc.c ****   * @brief  Resets the CRC Data register (DR).
  53:FWLIB/src/stm32f4xx_crc.c ****   * @param  None
  54:FWLIB/src/stm32f4xx_crc.c ****   * @retval None
  55:FWLIB/src/stm32f4xx_crc.c ****   */
  56:FWLIB/src/stm32f4xx_crc.c **** void CRC_ResetDR(void)
  57:FWLIB/src/stm32f4xx_crc.c **** {
  29              		.loc 1 57 1 view -0
  30              		.cfi_startproc
  31              		@ args = 0, pretend = 0, frame = 0
  32              		@ frame_needed = 0, uses_anonymous_args = 0
  33              		@ link register save eliminated.
  58:FWLIB/src/stm32f4xx_crc.c ****   /* Reset CRC generator */
  59:FWLIB/src/stm32f4xx_crc.c ****   CRC->CR = CRC_CR_RESET;
  34              		.loc 1 59 3 view .LVU1
  35              		.loc 1 59 11 is_stmt 0 view .LVU2
  36 0000 014B     		ldr	r3, .L2
  37 0002 0122     		movs	r2, #1
  38 0004 9A60     		str	r2, [r3, #8]
  60:FWLIB/src/stm32f4xx_crc.c **** }
  39              		.loc 1 60 1 view .LVU3
  40 0006 7047     		bx	lr
  41              	.L3:
  42              		.align	2
  43              	.L2:
  44 0008 00300240 		.word	1073885184
  45              		.cfi_endproc
  46              	.LFE123:
  48              		.section	.text.CRC_CalcCRC,"ax",%progbits
  49              		.align	1
  50              		.global	CRC_CalcCRC
  51              		.syntax unified
  52              		.thumb
  53              		.thumb_func
  54              		.fpu fpv4-sp-d16
  56              	CRC_CalcCRC:
  57              	.LVL0:
ARM GAS  /var/folders/lx/hc4sn_b53233_zkc9xbbl97r0000gp/T//ccn6k0bD.s 			page 3


  58              	.LFB124:
  61:FWLIB/src/stm32f4xx_crc.c **** 
  62:FWLIB/src/stm32f4xx_crc.c **** /**
  63:FWLIB/src/stm32f4xx_crc.c ****   * @brief  Computes the 32-bit CRC of a given data word(32-bit).
  64:FWLIB/src/stm32f4xx_crc.c ****   * @param  Data: data word(32-bit) to compute its CRC
  65:FWLIB/src/stm32f4xx_crc.c ****   * @retval 32-bit CRC
  66:FWLIB/src/stm32f4xx_crc.c ****   */
  67:FWLIB/src/stm32f4xx_crc.c **** uint32_t CRC_CalcCRC(uint32_t Data)
  68:FWLIB/src/stm32f4xx_crc.c **** {
  59              		.loc 1 68 1 is_stmt 1 view -0
  60              		.cfi_startproc
  61              		@ args = 0, pretend = 0, frame = 0
  62              		@ frame_needed = 0, uses_anonymous_args = 0
  63              		@ link register save eliminated.
  69:FWLIB/src/stm32f4xx_crc.c ****   CRC->DR = Data;
  64              		.loc 1 69 3 view .LVU5
  65              		.loc 1 69 11 is_stmt 0 view .LVU6
  66 0000 014B     		ldr	r3, .L5
  67 0002 1860     		str	r0, [r3]
  70:FWLIB/src/stm32f4xx_crc.c ****   
  71:FWLIB/src/stm32f4xx_crc.c ****   return (CRC->DR);
  68              		.loc 1 71 3 is_stmt 1 view .LVU7
  69              		.loc 1 71 14 is_stmt 0 view .LVU8
  70 0004 1868     		ldr	r0, [r3]
  71              	.LVL1:
  72:FWLIB/src/stm32f4xx_crc.c **** }
  72              		.loc 1 72 1 view .LVU9
  73 0006 7047     		bx	lr
  74              	.L6:
  75              		.align	2
  76              	.L5:
  77 0008 00300240 		.word	1073885184
  78              		.cfi_endproc
  79              	.LFE124:
  81              		.section	.text.CRC_CalcBlockCRC,"ax",%progbits
  82              		.align	1
  83              		.global	CRC_CalcBlockCRC
  84              		.syntax unified
  85              		.thumb
  86              		.thumb_func
  87              		.fpu fpv4-sp-d16
  89              	CRC_CalcBlockCRC:
  90              	.LVL2:
  91              	.LFB125:
  73:FWLIB/src/stm32f4xx_crc.c **** 
  74:FWLIB/src/stm32f4xx_crc.c **** /**
  75:FWLIB/src/stm32f4xx_crc.c ****   * @brief  Computes the 32-bit CRC of a given buffer of data word(32-bit).
  76:FWLIB/src/stm32f4xx_crc.c ****   * @param  pBuffer: pointer to the buffer containing the data to be computed
  77:FWLIB/src/stm32f4xx_crc.c ****   * @param  BufferLength: length of the buffer to be computed					
  78:FWLIB/src/stm32f4xx_crc.c ****   * @retval 32-bit CRC
  79:FWLIB/src/stm32f4xx_crc.c ****   */
  80:FWLIB/src/stm32f4xx_crc.c **** uint32_t CRC_CalcBlockCRC(uint32_t pBuffer[], uint32_t BufferLength)
  81:FWLIB/src/stm32f4xx_crc.c **** {
  92              		.loc 1 81 1 is_stmt 1 view -0
  93              		.cfi_startproc
  94              		@ args = 0, pretend = 0, frame = 0
  95              		@ frame_needed = 0, uses_anonymous_args = 0
ARM GAS  /var/folders/lx/hc4sn_b53233_zkc9xbbl97r0000gp/T//ccn6k0bD.s 			page 4


  96              		@ link register save eliminated.
  82:FWLIB/src/stm32f4xx_crc.c ****   uint32_t index = 0;
  97              		.loc 1 82 3 view .LVU11
  83:FWLIB/src/stm32f4xx_crc.c ****   
  84:FWLIB/src/stm32f4xx_crc.c ****   for(index = 0; index < BufferLength; index++)
  98              		.loc 1 84 3 view .LVU12
  99              		.loc 1 84 13 is_stmt 0 view .LVU13
 100 0000 0023     		movs	r3, #0
 101              	.LVL3:
 102              		.loc 1 84 18 is_stmt 1 view .LVU14
 103              		.loc 1 84 3 is_stmt 0 view .LVU15
 104 0002 8B42     		cmp	r3, r1
 105 0004 0CD2     		bcs	.L14
  81:FWLIB/src/stm32f4xx_crc.c ****   uint32_t index = 0;
 106              		.loc 1 81 1 view .LVU16
 107 0006 10B4     		push	{r4}
 108              	.LCFI0:
 109              		.cfi_def_cfa_offset 4
 110              		.cfi_offset 4, -4
 111              	.L9:
  85:FWLIB/src/stm32f4xx_crc.c ****   {
  86:FWLIB/src/stm32f4xx_crc.c ****     CRC->DR = pBuffer[index];
 112              		.loc 1 86 5 is_stmt 1 discriminator 3 view .LVU17
 113              		.loc 1 86 13 is_stmt 0 discriminator 3 view .LVU18
 114 0008 074A     		ldr	r2, .L15
 115 000a 50F82340 		ldr	r4, [r0, r3, lsl #2]
 116 000e 1460     		str	r4, [r2]
  84:FWLIB/src/stm32f4xx_crc.c ****   {
 117              		.loc 1 84 40 is_stmt 1 discriminator 3 view .LVU19
  84:FWLIB/src/stm32f4xx_crc.c ****   {
 118              		.loc 1 84 45 is_stmt 0 discriminator 3 view .LVU20
 119 0010 0133     		adds	r3, r3, #1
 120              	.LVL4:
  84:FWLIB/src/stm32f4xx_crc.c ****   {
 121              		.loc 1 84 18 is_stmt 1 discriminator 3 view .LVU21
  84:FWLIB/src/stm32f4xx_crc.c ****   {
 122              		.loc 1 84 3 is_stmt 0 discriminator 3 view .LVU22
 123 0012 8B42     		cmp	r3, r1
 124 0014 F8D3     		bcc	.L9
  87:FWLIB/src/stm32f4xx_crc.c ****   }
  88:FWLIB/src/stm32f4xx_crc.c ****   return (CRC->DR);
 125              		.loc 1 88 3 is_stmt 1 view .LVU23
 126              		.loc 1 88 14 is_stmt 0 view .LVU24
 127 0016 044B     		ldr	r3, .L15
 128              	.LVL5:
 129              		.loc 1 88 14 view .LVU25
 130 0018 1868     		ldr	r0, [r3]
 131              	.LVL6:
  89:FWLIB/src/stm32f4xx_crc.c **** }
 132              		.loc 1 89 1 view .LVU26
 133 001a 5DF8044B 		ldr	r4, [sp], #4
 134              	.LCFI1:
 135              		.cfi_restore 4
 136              		.cfi_def_cfa_offset 0
 137 001e 7047     		bx	lr
 138              	.LVL7:
 139              	.L14:
ARM GAS  /var/folders/lx/hc4sn_b53233_zkc9xbbl97r0000gp/T//ccn6k0bD.s 			page 5


  88:FWLIB/src/stm32f4xx_crc.c **** }
 140              		.loc 1 88 3 is_stmt 1 view .LVU27
  88:FWLIB/src/stm32f4xx_crc.c **** }
 141              		.loc 1 88 14 is_stmt 0 view .LVU28
 142 0020 014B     		ldr	r3, .L15
 143              	.LVL8:
  88:FWLIB/src/stm32f4xx_crc.c **** }
 144              		.loc 1 88 14 view .LVU29
 145 0022 1868     		ldr	r0, [r3]
 146              	.LVL9:
 147              		.loc 1 89 1 view .LVU30
 148 0024 7047     		bx	lr
 149              	.L16:
 150 0026 00BF     		.align	2
 151              	.L15:
 152 0028 00300240 		.word	1073885184
 153              		.cfi_endproc
 154              	.LFE125:
 156              		.section	.text.CRC_GetCRC,"ax",%progbits
 157              		.align	1
 158              		.global	CRC_GetCRC
 159              		.syntax unified
 160              		.thumb
 161              		.thumb_func
 162              		.fpu fpv4-sp-d16
 164              	CRC_GetCRC:
 165              	.LFB126:
  90:FWLIB/src/stm32f4xx_crc.c **** 
  91:FWLIB/src/stm32f4xx_crc.c **** /**
  92:FWLIB/src/stm32f4xx_crc.c ****   * @brief  Returns the current CRC value.
  93:FWLIB/src/stm32f4xx_crc.c ****   * @param  None
  94:FWLIB/src/stm32f4xx_crc.c ****   * @retval 32-bit CRC
  95:FWLIB/src/stm32f4xx_crc.c ****   */
  96:FWLIB/src/stm32f4xx_crc.c **** uint32_t CRC_GetCRC(void)
  97:FWLIB/src/stm32f4xx_crc.c **** {
 166              		.loc 1 97 1 is_stmt 1 view -0
 167              		.cfi_startproc
 168              		@ args = 0, pretend = 0, frame = 0
 169              		@ frame_needed = 0, uses_anonymous_args = 0
 170              		@ link register save eliminated.
  98:FWLIB/src/stm32f4xx_crc.c ****   return (CRC->DR);
 171              		.loc 1 98 3 view .LVU32
 172              		.loc 1 98 14 is_stmt 0 view .LVU33
 173 0000 014B     		ldr	r3, .L18
 174 0002 1868     		ldr	r0, [r3]
  99:FWLIB/src/stm32f4xx_crc.c **** }
 175              		.loc 1 99 1 view .LVU34
 176 0004 7047     		bx	lr
 177              	.L19:
 178 0006 00BF     		.align	2
 179              	.L18:
 180 0008 00300240 		.word	1073885184
 181              		.cfi_endproc
 182              	.LFE126:
 184              		.section	.text.CRC_SetIDRegister,"ax",%progbits
 185              		.align	1
 186              		.global	CRC_SetIDRegister
ARM GAS  /var/folders/lx/hc4sn_b53233_zkc9xbbl97r0000gp/T//ccn6k0bD.s 			page 6


 187              		.syntax unified
 188              		.thumb
 189              		.thumb_func
 190              		.fpu fpv4-sp-d16
 192              	CRC_SetIDRegister:
 193              	.LVL10:
 194              	.LFB127:
 100:FWLIB/src/stm32f4xx_crc.c **** 
 101:FWLIB/src/stm32f4xx_crc.c **** /**
 102:FWLIB/src/stm32f4xx_crc.c ****   * @brief  Stores a 8-bit data in the Independent Data(ID) register.
 103:FWLIB/src/stm32f4xx_crc.c ****   * @param  IDValue: 8-bit value to be stored in the ID register 					
 104:FWLIB/src/stm32f4xx_crc.c ****   * @retval None
 105:FWLIB/src/stm32f4xx_crc.c ****   */
 106:FWLIB/src/stm32f4xx_crc.c **** void CRC_SetIDRegister(uint8_t IDValue)
 107:FWLIB/src/stm32f4xx_crc.c **** {
 195              		.loc 1 107 1 is_stmt 1 view -0
 196              		.cfi_startproc
 197              		@ args = 0, pretend = 0, frame = 0
 198              		@ frame_needed = 0, uses_anonymous_args = 0
 199              		@ link register save eliminated.
 108:FWLIB/src/stm32f4xx_crc.c ****   CRC->IDR = IDValue;
 200              		.loc 1 108 3 view .LVU36
 201              		.loc 1 108 12 is_stmt 0 view .LVU37
 202 0000 014B     		ldr	r3, .L21
 203 0002 1871     		strb	r0, [r3, #4]
 109:FWLIB/src/stm32f4xx_crc.c **** }
 204              		.loc 1 109 1 view .LVU38
 205 0004 7047     		bx	lr
 206              	.L22:
 207 0006 00BF     		.align	2
 208              	.L21:
 209 0008 00300240 		.word	1073885184
 210              		.cfi_endproc
 211              	.LFE127:
 213              		.section	.text.CRC_GetIDRegister,"ax",%progbits
 214              		.align	1
 215              		.global	CRC_GetIDRegister
 216              		.syntax unified
 217              		.thumb
 218              		.thumb_func
 219              		.fpu fpv4-sp-d16
 221              	CRC_GetIDRegister:
 222              	.LFB128:
 110:FWLIB/src/stm32f4xx_crc.c **** 
 111:FWLIB/src/stm32f4xx_crc.c **** /**
 112:FWLIB/src/stm32f4xx_crc.c ****   * @brief  Returns the 8-bit data stored in the Independent Data(ID) register
 113:FWLIB/src/stm32f4xx_crc.c ****   * @param  None
 114:FWLIB/src/stm32f4xx_crc.c ****   * @retval 8-bit value of the ID register 
 115:FWLIB/src/stm32f4xx_crc.c ****   */
 116:FWLIB/src/stm32f4xx_crc.c **** uint8_t CRC_GetIDRegister(void)
 117:FWLIB/src/stm32f4xx_crc.c **** {
 223              		.loc 1 117 1 is_stmt 1 view -0
 224              		.cfi_startproc
 225              		@ args = 0, pretend = 0, frame = 0
 226              		@ frame_needed = 0, uses_anonymous_args = 0
 227              		@ link register save eliminated.
 118:FWLIB/src/stm32f4xx_crc.c ****   return (CRC->IDR);
ARM GAS  /var/folders/lx/hc4sn_b53233_zkc9xbbl97r0000gp/T//ccn6k0bD.s 			page 7


 228              		.loc 1 118 3 view .LVU40
 229              		.loc 1 118 14 is_stmt 0 view .LVU41
 230 0000 014B     		ldr	r3, .L24
 231 0002 1879     		ldrb	r0, [r3, #4]	@ zero_extendqisi2
 119:FWLIB/src/stm32f4xx_crc.c **** }
 232              		.loc 1 119 1 view .LVU42
 233 0004 7047     		bx	lr
 234              	.L25:
 235 0006 00BF     		.align	2
 236              	.L24:
 237 0008 00300240 		.word	1073885184
 238              		.cfi_endproc
 239              	.LFE128:
 241              		.text
 242              	.Letext0:
 243              		.file 2 "/usr/local/arm-none-eabi-gcc/gcc-arm-none-eabi-10-2020-q4-major/arm-none-eabi/include/mac
 244              		.file 3 "/usr/local/arm-none-eabi-gcc/gcc-arm-none-eabi-10-2020-q4-major/arm-none-eabi/include/sys
 245              		.file 4 "USER/stm32f4xx.h"
ARM GAS  /var/folders/lx/hc4sn_b53233_zkc9xbbl97r0000gp/T//ccn6k0bD.s 			page 8

