ARM GAS  /tmp/ccUlubpu.s 			page 1


   1              		.cpu cortex-m4
   2              		.eabi_attribute 27, 1
   3              		.eabi_attribute 28, 1
   4              		.eabi_attribute 20, 1
   5              		.eabi_attribute 21, 1
   6              		.eabi_attribute 23, 3
   7              		.eabi_attribute 24, 1
   8              		.eabi_attribute 25, 1
   9              		.eabi_attribute 26, 1
  10              		.eabi_attribute 30, 1
  11              		.eabi_attribute 34, 1
  12              		.eabi_attribute 18, 4
  13              		.file	"stm32f4xx_exti.c"
  14              		.text
  15              	.Ltext0:
  16              		.cfi_sections	.debug_frame
  17              		.section	.text.EXTI_DeInit,"ax",%progbits
  18              		.align	1
  19              		.global	EXTI_DeInit
  20              		.arch armv7e-m
  21              		.syntax unified
  22              		.thumb
  23              		.thumb_func
  24              		.fpu fpv4-sp-d16
  26              	EXTI_DeInit:
  27              	.LFB123:
  28              		.file 1 "FWLIB/src/stm32f4xx_exti.c"
   1:FWLIB/src/stm32f4xx_exti.c **** /**
   2:FWLIB/src/stm32f4xx_exti.c ****   ******************************************************************************
   3:FWLIB/src/stm32f4xx_exti.c ****   * @file    stm32f4xx_exti.c
   4:FWLIB/src/stm32f4xx_exti.c ****   * @author  MCD Application Team
   5:FWLIB/src/stm32f4xx_exti.c ****   * @version V1.8.0
   6:FWLIB/src/stm32f4xx_exti.c ****   * @date    04-November-2016
   7:FWLIB/src/stm32f4xx_exti.c ****   * @brief   This file provides firmware functions to manage the following 
   8:FWLIB/src/stm32f4xx_exti.c ****   *          functionalities of the EXTI peripheral:
   9:FWLIB/src/stm32f4xx_exti.c ****   *           + Initialization and Configuration
  10:FWLIB/src/stm32f4xx_exti.c ****   *           + Interrupts and flags management
  11:FWLIB/src/stm32f4xx_exti.c ****   *
  12:FWLIB/src/stm32f4xx_exti.c **** @verbatim  
  13:FWLIB/src/stm32f4xx_exti.c **** 
  14:FWLIB/src/stm32f4xx_exti.c ****  ===============================================================================
  15:FWLIB/src/stm32f4xx_exti.c ****                               ##### EXTI features #####
  16:FWLIB/src/stm32f4xx_exti.c ****  ===============================================================================
  17:FWLIB/src/stm32f4xx_exti.c **** 
  18:FWLIB/src/stm32f4xx_exti.c ****  [..] External interrupt/event lines are mapped as following:
  19:FWLIB/src/stm32f4xx_exti.c ****    (#) All available GPIO pins are connected to the 16 external 
  20:FWLIB/src/stm32f4xx_exti.c ****        interrupt/event lines from EXTI0 to EXTI15.
  21:FWLIB/src/stm32f4xx_exti.c ****    (#) EXTI line 16 is connected to the PVD Output
  22:FWLIB/src/stm32f4xx_exti.c ****    (#) EXTI line 17 is connected to the RTC Alarm event
  23:FWLIB/src/stm32f4xx_exti.c ****    (#) EXTI line 18 is connected to the USB OTG FS Wakeup from suspend event
  24:FWLIB/src/stm32f4xx_exti.c ****    (#) EXTI line 19 is connected to the Ethernet Wakeup event
  25:FWLIB/src/stm32f4xx_exti.c ****    (#) EXTI line 20 is connected to the USB OTG HS (configured in FS) Wakeup event 
  26:FWLIB/src/stm32f4xx_exti.c ****    (#) EXTI line 21 is connected to the RTC Tamper and Time Stamp events
  27:FWLIB/src/stm32f4xx_exti.c ****    (#) EXTI line 22 is connected to the RTC Wakeup event
  28:FWLIB/src/stm32f4xx_exti.c ****    (#) EXTI line 23 is connected to the LPTIM Wakeup event 
  29:FWLIB/src/stm32f4xx_exti.c **** 
  30:FWLIB/src/stm32f4xx_exti.c ****                        ##### How to use this driver #####
ARM GAS  /tmp/ccUlubpu.s 			page 2


  31:FWLIB/src/stm32f4xx_exti.c ****  ===============================================================================
  32:FWLIB/src/stm32f4xx_exti.c ****  
  33:FWLIB/src/stm32f4xx_exti.c ****  [..] In order to use an I/O pin as an external interrupt source, follow steps 
  34:FWLIB/src/stm32f4xx_exti.c ****       below:
  35:FWLIB/src/stm32f4xx_exti.c ****    (#) Configure the I/O in input mode using GPIO_Init()
  36:FWLIB/src/stm32f4xx_exti.c ****    (#) Select the input source pin for the EXTI line using SYSCFG_EXTILineConfig()
  37:FWLIB/src/stm32f4xx_exti.c ****    (#) Select the mode(interrupt, event) and configure the trigger 
  38:FWLIB/src/stm32f4xx_exti.c ****        selection (Rising, falling or both) using EXTI_Init()
  39:FWLIB/src/stm32f4xx_exti.c ****    (#) Configure NVIC IRQ channel mapped to the EXTI line using NVIC_Init()
  40:FWLIB/src/stm32f4xx_exti.c **** 
  41:FWLIB/src/stm32f4xx_exti.c ****  [..]     
  42:FWLIB/src/stm32f4xx_exti.c ****    (@) SYSCFG APB clock must be enabled to get write access to SYSCFG_EXTICRx
  43:FWLIB/src/stm32f4xx_exti.c ****        registers using RCC_APB2PeriphClockCmd(RCC_APB2Periph_SYSCFG, ENABLE);
  44:FWLIB/src/stm32f4xx_exti.c **** 
  45:FWLIB/src/stm32f4xx_exti.c **** @endverbatim
  46:FWLIB/src/stm32f4xx_exti.c ****   *
  47:FWLIB/src/stm32f4xx_exti.c ****   ******************************************************************************
  48:FWLIB/src/stm32f4xx_exti.c ****   * @attention
  49:FWLIB/src/stm32f4xx_exti.c ****   *
  50:FWLIB/src/stm32f4xx_exti.c ****   * <h2><center>&copy; COPYRIGHT 2016 STMicroelectronics</center></h2>
  51:FWLIB/src/stm32f4xx_exti.c ****   *
  52:FWLIB/src/stm32f4xx_exti.c ****   * Licensed under MCD-ST Liberty SW License Agreement V2, (the "License");
  53:FWLIB/src/stm32f4xx_exti.c ****   * You may not use this file except in compliance with the License.
  54:FWLIB/src/stm32f4xx_exti.c ****   * You may obtain a copy of the License at:
  55:FWLIB/src/stm32f4xx_exti.c ****   *
  56:FWLIB/src/stm32f4xx_exti.c ****   *        http://www.st.com/software_license_agreement_liberty_v2
  57:FWLIB/src/stm32f4xx_exti.c ****   *
  58:FWLIB/src/stm32f4xx_exti.c ****   * Unless required by applicable law or agreed to in writing, software 
  59:FWLIB/src/stm32f4xx_exti.c ****   * distributed under the License is distributed on an "AS IS" BASIS, 
  60:FWLIB/src/stm32f4xx_exti.c ****   * WITHOUT WARRANTIES OR CONDITIONS OF ANY KIND, either express or implied.
  61:FWLIB/src/stm32f4xx_exti.c ****   * See the License for the specific language governing permissions and
  62:FWLIB/src/stm32f4xx_exti.c ****   * limitations under the License.
  63:FWLIB/src/stm32f4xx_exti.c ****   *
  64:FWLIB/src/stm32f4xx_exti.c ****   ******************************************************************************
  65:FWLIB/src/stm32f4xx_exti.c ****   */
  66:FWLIB/src/stm32f4xx_exti.c **** 
  67:FWLIB/src/stm32f4xx_exti.c **** /* Includes ------------------------------------------------------------------*/
  68:FWLIB/src/stm32f4xx_exti.c **** #include "stm32f4xx_exti.h"
  69:FWLIB/src/stm32f4xx_exti.c **** 
  70:FWLIB/src/stm32f4xx_exti.c **** /** @addtogroup STM32F4xx_StdPeriph_Driver
  71:FWLIB/src/stm32f4xx_exti.c ****   * @{
  72:FWLIB/src/stm32f4xx_exti.c ****   */
  73:FWLIB/src/stm32f4xx_exti.c **** 
  74:FWLIB/src/stm32f4xx_exti.c **** /** @defgroup EXTI 
  75:FWLIB/src/stm32f4xx_exti.c ****   * @brief EXTI driver modules
  76:FWLIB/src/stm32f4xx_exti.c ****   * @{
  77:FWLIB/src/stm32f4xx_exti.c ****   */
  78:FWLIB/src/stm32f4xx_exti.c **** 
  79:FWLIB/src/stm32f4xx_exti.c **** /* Private typedef -----------------------------------------------------------*/
  80:FWLIB/src/stm32f4xx_exti.c **** /* Private define ------------------------------------------------------------*/
  81:FWLIB/src/stm32f4xx_exti.c **** 
  82:FWLIB/src/stm32f4xx_exti.c **** #define EXTI_LINENONE    ((uint32_t)0x00000)  /* No interrupt selected */
  83:FWLIB/src/stm32f4xx_exti.c **** 
  84:FWLIB/src/stm32f4xx_exti.c **** /* Private macro -------------------------------------------------------------*/
  85:FWLIB/src/stm32f4xx_exti.c **** /* Private variables ---------------------------------------------------------*/
  86:FWLIB/src/stm32f4xx_exti.c **** /* Private function prototypes -----------------------------------------------*/
  87:FWLIB/src/stm32f4xx_exti.c **** /* Private functions ---------------------------------------------------------*/
ARM GAS  /tmp/ccUlubpu.s 			page 3


  88:FWLIB/src/stm32f4xx_exti.c **** 
  89:FWLIB/src/stm32f4xx_exti.c **** /** @defgroup EXTI_Private_Functions
  90:FWLIB/src/stm32f4xx_exti.c ****   * @{
  91:FWLIB/src/stm32f4xx_exti.c ****   */
  92:FWLIB/src/stm32f4xx_exti.c **** 
  93:FWLIB/src/stm32f4xx_exti.c **** /** @defgroup EXTI_Group1 Initialization and Configuration functions
  94:FWLIB/src/stm32f4xx_exti.c ****  *  @brief   Initialization and Configuration functions 
  95:FWLIB/src/stm32f4xx_exti.c ****  *
  96:FWLIB/src/stm32f4xx_exti.c **** @verbatim   
  97:FWLIB/src/stm32f4xx_exti.c ****  ===============================================================================
  98:FWLIB/src/stm32f4xx_exti.c ****              ##### Initialization and Configuration functions #####
  99:FWLIB/src/stm32f4xx_exti.c ****  ===============================================================================
 100:FWLIB/src/stm32f4xx_exti.c **** 
 101:FWLIB/src/stm32f4xx_exti.c **** @endverbatim
 102:FWLIB/src/stm32f4xx_exti.c ****   * @{
 103:FWLIB/src/stm32f4xx_exti.c ****   */
 104:FWLIB/src/stm32f4xx_exti.c **** 
 105:FWLIB/src/stm32f4xx_exti.c **** /**
 106:FWLIB/src/stm32f4xx_exti.c ****   * @brief  Deinitializes the EXTI peripheral registers to their default reset values.
 107:FWLIB/src/stm32f4xx_exti.c ****   * @param  None
 108:FWLIB/src/stm32f4xx_exti.c ****   * @retval None
 109:FWLIB/src/stm32f4xx_exti.c ****   */
 110:FWLIB/src/stm32f4xx_exti.c **** void EXTI_DeInit(void)
 111:FWLIB/src/stm32f4xx_exti.c **** {
  29              		.loc 1 111 1 view -0
  30              		.cfi_startproc
  31              		@ args = 0, pretend = 0, frame = 0
  32              		@ frame_needed = 0, uses_anonymous_args = 0
  33              		@ link register save eliminated.
 112:FWLIB/src/stm32f4xx_exti.c ****   EXTI->IMR = 0x00000000;
  34              		.loc 1 112 3 view .LVU1
  35              		.loc 1 112 13 is_stmt 0 view .LVU2
  36 0000 044B     		ldr	r3, .L2
  37 0002 0022     		movs	r2, #0
  38 0004 1A60     		str	r2, [r3]
 113:FWLIB/src/stm32f4xx_exti.c ****   EXTI->EMR = 0x00000000;
  39              		.loc 1 113 3 is_stmt 1 view .LVU3
  40              		.loc 1 113 13 is_stmt 0 view .LVU4
  41 0006 5A60     		str	r2, [r3, #4]
 114:FWLIB/src/stm32f4xx_exti.c ****   EXTI->RTSR = 0x00000000;
  42              		.loc 1 114 3 is_stmt 1 view .LVU5
  43              		.loc 1 114 14 is_stmt 0 view .LVU6
  44 0008 9A60     		str	r2, [r3, #8]
 115:FWLIB/src/stm32f4xx_exti.c ****   EXTI->FTSR = 0x00000000;
  45              		.loc 1 115 3 is_stmt 1 view .LVU7
  46              		.loc 1 115 14 is_stmt 0 view .LVU8
  47 000a DA60     		str	r2, [r3, #12]
 116:FWLIB/src/stm32f4xx_exti.c ****   EXTI->PR = 0x007FFFFF;
  48              		.loc 1 116 3 is_stmt 1 view .LVU9
  49              		.loc 1 116 12 is_stmt 0 view .LVU10
  50 000c 024A     		ldr	r2, .L2+4
  51 000e 5A61     		str	r2, [r3, #20]
 117:FWLIB/src/stm32f4xx_exti.c **** }
  52              		.loc 1 117 1 view .LVU11
  53 0010 7047     		bx	lr
  54              	.L3:
  55 0012 00BF     		.align	2
ARM GAS  /tmp/ccUlubpu.s 			page 4


  56              	.L2:
  57 0014 003C0140 		.word	1073822720
  58 0018 FFFF7F00 		.word	8388607
  59              		.cfi_endproc
  60              	.LFE123:
  62              		.section	.text.EXTI_Init,"ax",%progbits
  63              		.align	1
  64              		.global	EXTI_Init
  65              		.syntax unified
  66              		.thumb
  67              		.thumb_func
  68              		.fpu fpv4-sp-d16
  70              	EXTI_Init:
  71              	.LVL0:
  72              	.LFB124:
 118:FWLIB/src/stm32f4xx_exti.c **** 
 119:FWLIB/src/stm32f4xx_exti.c **** /**
 120:FWLIB/src/stm32f4xx_exti.c ****   * @brief  Initializes the EXTI peripheral according to the specified
 121:FWLIB/src/stm32f4xx_exti.c ****   *         parameters in the EXTI_InitStruct.
 122:FWLIB/src/stm32f4xx_exti.c ****   * @param  EXTI_InitStruct: pointer to a EXTI_InitTypeDef structure
 123:FWLIB/src/stm32f4xx_exti.c ****   *         that contains the configuration information for the EXTI peripheral.
 124:FWLIB/src/stm32f4xx_exti.c ****   * @retval None
 125:FWLIB/src/stm32f4xx_exti.c ****   */
 126:FWLIB/src/stm32f4xx_exti.c **** void EXTI_Init(EXTI_InitTypeDef* EXTI_InitStruct)
 127:FWLIB/src/stm32f4xx_exti.c **** {
  73              		.loc 1 127 1 is_stmt 1 view -0
  74              		.cfi_startproc
  75              		@ args = 0, pretend = 0, frame = 0
  76              		@ frame_needed = 0, uses_anonymous_args = 0
  77              		@ link register save eliminated.
 128:FWLIB/src/stm32f4xx_exti.c ****   uint32_t tmp = 0;
  78              		.loc 1 128 3 view .LVU13
 129:FWLIB/src/stm32f4xx_exti.c **** 
 130:FWLIB/src/stm32f4xx_exti.c ****   /* Check the parameters */
 131:FWLIB/src/stm32f4xx_exti.c ****   assert_param(IS_EXTI_MODE(EXTI_InitStruct->EXTI_Mode));
  79              		.loc 1 131 3 view .LVU14
 132:FWLIB/src/stm32f4xx_exti.c ****   assert_param(IS_EXTI_TRIGGER(EXTI_InitStruct->EXTI_Trigger));
  80              		.loc 1 132 3 view .LVU15
 133:FWLIB/src/stm32f4xx_exti.c ****   assert_param(IS_EXTI_LINE(EXTI_InitStruct->EXTI_Line));  
  81              		.loc 1 133 3 view .LVU16
 134:FWLIB/src/stm32f4xx_exti.c ****   assert_param(IS_FUNCTIONAL_STATE(EXTI_InitStruct->EXTI_LineCmd));
  82              		.loc 1 134 3 view .LVU17
 135:FWLIB/src/stm32f4xx_exti.c **** 
 136:FWLIB/src/stm32f4xx_exti.c ****   tmp = (uint32_t)EXTI_BASE;
  83              		.loc 1 136 3 view .LVU18
 137:FWLIB/src/stm32f4xx_exti.c ****      
 138:FWLIB/src/stm32f4xx_exti.c ****   if (EXTI_InitStruct->EXTI_LineCmd != DISABLE)
  84              		.loc 1 138 3 view .LVU19
  85              		.loc 1 138 22 is_stmt 0 view .LVU20
  86 0000 8379     		ldrb	r3, [r0, #6]	@ zero_extendqisi2
  87              		.loc 1 138 6 view .LVU21
  88 0002 002B     		cmp	r3, #0
  89 0004 36D0     		beq	.L5
 127:FWLIB/src/stm32f4xx_exti.c ****   uint32_t tmp = 0;
  90              		.loc 1 127 1 view .LVU22
  91 0006 10B4     		push	{r4}
  92              	.LCFI0:
ARM GAS  /tmp/ccUlubpu.s 			page 5


  93              		.cfi_def_cfa_offset 4
  94              		.cfi_offset 4, -4
 139:FWLIB/src/stm32f4xx_exti.c ****   {
 140:FWLIB/src/stm32f4xx_exti.c ****     /* Clear EXTI line configuration */
 141:FWLIB/src/stm32f4xx_exti.c ****     EXTI->IMR &= ~EXTI_InitStruct->EXTI_Line;
  95              		.loc 1 141 5 is_stmt 1 view .LVU23
  96              		.loc 1 141 15 is_stmt 0 view .LVU24
  97 0008 204B     		ldr	r3, .L13
  98 000a 1A68     		ldr	r2, [r3]
  99              		.loc 1 141 34 view .LVU25
 100 000c 0168     		ldr	r1, [r0]
 101              		.loc 1 141 15 view .LVU26
 102 000e 22EA0102 		bic	r2, r2, r1
 103 0012 1A60     		str	r2, [r3]
 142:FWLIB/src/stm32f4xx_exti.c ****     EXTI->EMR &= ~EXTI_InitStruct->EXTI_Line;
 104              		.loc 1 142 5 is_stmt 1 view .LVU27
 105              		.loc 1 142 15 is_stmt 0 view .LVU28
 106 0014 5A68     		ldr	r2, [r3, #4]
 107              		.loc 1 142 34 view .LVU29
 108 0016 0168     		ldr	r1, [r0]
 109              		.loc 1 142 15 view .LVU30
 110 0018 22EA0102 		bic	r2, r2, r1
 111 001c 5A60     		str	r2, [r3, #4]
 143:FWLIB/src/stm32f4xx_exti.c ****     
 144:FWLIB/src/stm32f4xx_exti.c ****     tmp += EXTI_InitStruct->EXTI_Mode;
 112              		.loc 1 144 5 is_stmt 1 view .LVU31
 113              		.loc 1 144 27 is_stmt 0 view .LVU32
 114 001e 0279     		ldrb	r2, [r0, #4]	@ zero_extendqisi2
 115              		.loc 1 144 9 view .LVU33
 116 0020 02F18042 		add	r2, r2, #1073741824
 117 0024 02F59E32 		add	r2, r2, #80896
 118              	.LVL1:
 145:FWLIB/src/stm32f4xx_exti.c **** 
 146:FWLIB/src/stm32f4xx_exti.c ****     *(__IO uint32_t *) tmp |= EXTI_InitStruct->EXTI_Line;
 119              		.loc 1 146 5 is_stmt 1 view .LVU34
 120              		.loc 1 146 28 is_stmt 0 view .LVU35
 121 0028 1168     		ldr	r1, [r2]
 122              		.loc 1 146 46 view .LVU36
 123 002a 0468     		ldr	r4, [r0]
 124              		.loc 1 146 28 view .LVU37
 125 002c 2143     		orrs	r1, r1, r4
 126 002e 1160     		str	r1, [r2]
 147:FWLIB/src/stm32f4xx_exti.c **** 
 148:FWLIB/src/stm32f4xx_exti.c ****     /* Clear Rising Falling edge configuration */
 149:FWLIB/src/stm32f4xx_exti.c ****     EXTI->RTSR &= ~EXTI_InitStruct->EXTI_Line;
 127              		.loc 1 149 5 is_stmt 1 view .LVU38
 128              		.loc 1 149 16 is_stmt 0 view .LVU39
 129 0030 9A68     		ldr	r2, [r3, #8]
 130              	.LVL2:
 131              		.loc 1 149 35 view .LVU40
 132 0032 0168     		ldr	r1, [r0]
 133              		.loc 1 149 16 view .LVU41
 134 0034 22EA0102 		bic	r2, r2, r1
 135 0038 9A60     		str	r2, [r3, #8]
 150:FWLIB/src/stm32f4xx_exti.c ****     EXTI->FTSR &= ~EXTI_InitStruct->EXTI_Line;
 136              		.loc 1 150 5 is_stmt 1 view .LVU42
 137              		.loc 1 150 16 is_stmt 0 view .LVU43
ARM GAS  /tmp/ccUlubpu.s 			page 6


 138 003a DA68     		ldr	r2, [r3, #12]
 139              		.loc 1 150 35 view .LVU44
 140 003c 0168     		ldr	r1, [r0]
 141              		.loc 1 150 16 view .LVU45
 142 003e 22EA0102 		bic	r2, r2, r1
 143 0042 DA60     		str	r2, [r3, #12]
 151:FWLIB/src/stm32f4xx_exti.c ****     
 152:FWLIB/src/stm32f4xx_exti.c ****     /* Select the trigger for the selected external interrupts */
 153:FWLIB/src/stm32f4xx_exti.c ****     if (EXTI_InitStruct->EXTI_Trigger == EXTI_Trigger_Rising_Falling)
 144              		.loc 1 153 5 is_stmt 1 view .LVU46
 145              		.loc 1 153 24 is_stmt 0 view .LVU47
 146 0044 4379     		ldrb	r3, [r0, #5]	@ zero_extendqisi2
 147              		.loc 1 153 8 view .LVU48
 148 0046 102B     		cmp	r3, #16
 149 0048 0AD0     		beq	.L12
 154:FWLIB/src/stm32f4xx_exti.c ****     {
 155:FWLIB/src/stm32f4xx_exti.c ****       /* Rising Falling edge */
 156:FWLIB/src/stm32f4xx_exti.c ****       EXTI->RTSR |= EXTI_InitStruct->EXTI_Line;
 157:FWLIB/src/stm32f4xx_exti.c ****       EXTI->FTSR |= EXTI_InitStruct->EXTI_Line;
 158:FWLIB/src/stm32f4xx_exti.c ****     }
 159:FWLIB/src/stm32f4xx_exti.c ****     else
 160:FWLIB/src/stm32f4xx_exti.c ****     {
 161:FWLIB/src/stm32f4xx_exti.c ****       tmp = (uint32_t)EXTI_BASE;
 150              		.loc 1 161 7 is_stmt 1 view .LVU49
 151              	.LVL3:
 162:FWLIB/src/stm32f4xx_exti.c ****       tmp += EXTI_InitStruct->EXTI_Trigger;
 152              		.loc 1 162 7 view .LVU50
 153              		.loc 1 162 11 is_stmt 0 view .LVU51
 154 004a 03F18043 		add	r3, r3, #1073741824
 155 004e 03F59E33 		add	r3, r3, #80896
 156              	.LVL4:
 163:FWLIB/src/stm32f4xx_exti.c **** 
 164:FWLIB/src/stm32f4xx_exti.c ****       *(__IO uint32_t *) tmp |= EXTI_InitStruct->EXTI_Line;
 157              		.loc 1 164 7 is_stmt 1 view .LVU52
 158              		.loc 1 164 30 is_stmt 0 view .LVU53
 159 0052 1A68     		ldr	r2, [r3]
 160              		.loc 1 164 48 view .LVU54
 161 0054 0168     		ldr	r1, [r0]
 162              		.loc 1 164 30 view .LVU55
 163 0056 0A43     		orrs	r2, r2, r1
 164 0058 1A60     		str	r2, [r3]
 165              	.LVL5:
 166              	.L4:
 165:FWLIB/src/stm32f4xx_exti.c ****     }
 166:FWLIB/src/stm32f4xx_exti.c ****   }
 167:FWLIB/src/stm32f4xx_exti.c ****   else
 168:FWLIB/src/stm32f4xx_exti.c ****   {
 169:FWLIB/src/stm32f4xx_exti.c ****     tmp += EXTI_InitStruct->EXTI_Mode;
 170:FWLIB/src/stm32f4xx_exti.c **** 
 171:FWLIB/src/stm32f4xx_exti.c ****     /* Disable the selected external lines */
 172:FWLIB/src/stm32f4xx_exti.c ****     *(__IO uint32_t *) tmp &= ~EXTI_InitStruct->EXTI_Line;
 173:FWLIB/src/stm32f4xx_exti.c ****   }
 174:FWLIB/src/stm32f4xx_exti.c **** }
 167              		.loc 1 174 1 view .LVU56
 168 005a 5DF8044B 		ldr	r4, [sp], #4
 169              	.LCFI1:
 170              		.cfi_remember_state
ARM GAS  /tmp/ccUlubpu.s 			page 7


 171              		.cfi_restore 4
 172              		.cfi_def_cfa_offset 0
 173 005e 7047     		bx	lr
 174              	.L12:
 175              	.LCFI2:
 176              		.cfi_restore_state
 156:FWLIB/src/stm32f4xx_exti.c ****       EXTI->FTSR |= EXTI_InitStruct->EXTI_Line;
 177              		.loc 1 156 7 is_stmt 1 view .LVU57
 156:FWLIB/src/stm32f4xx_exti.c ****       EXTI->FTSR |= EXTI_InitStruct->EXTI_Line;
 178              		.loc 1 156 18 is_stmt 0 view .LVU58
 179 0060 0A4B     		ldr	r3, .L13
 180 0062 9A68     		ldr	r2, [r3, #8]
 156:FWLIB/src/stm32f4xx_exti.c ****       EXTI->FTSR |= EXTI_InitStruct->EXTI_Line;
 181              		.loc 1 156 36 view .LVU59
 182 0064 0168     		ldr	r1, [r0]
 156:FWLIB/src/stm32f4xx_exti.c ****       EXTI->FTSR |= EXTI_InitStruct->EXTI_Line;
 183              		.loc 1 156 18 view .LVU60
 184 0066 0A43     		orrs	r2, r2, r1
 185 0068 9A60     		str	r2, [r3, #8]
 157:FWLIB/src/stm32f4xx_exti.c ****     }
 186              		.loc 1 157 7 is_stmt 1 view .LVU61
 157:FWLIB/src/stm32f4xx_exti.c ****     }
 187              		.loc 1 157 18 is_stmt 0 view .LVU62
 188 006a DA68     		ldr	r2, [r3, #12]
 157:FWLIB/src/stm32f4xx_exti.c ****     }
 189              		.loc 1 157 36 view .LVU63
 190 006c 0168     		ldr	r1, [r0]
 157:FWLIB/src/stm32f4xx_exti.c ****     }
 191              		.loc 1 157 18 view .LVU64
 192 006e 0A43     		orrs	r2, r2, r1
 193 0070 DA60     		str	r2, [r3, #12]
 194 0072 F2E7     		b	.L4
 195              	.LVL6:
 196              	.L5:
 197              	.LCFI3:
 198              		.cfi_def_cfa_offset 0
 199              		.cfi_restore 4
 169:FWLIB/src/stm32f4xx_exti.c **** 
 200              		.loc 1 169 5 is_stmt 1 view .LVU65
 169:FWLIB/src/stm32f4xx_exti.c **** 
 201              		.loc 1 169 27 is_stmt 0 view .LVU66
 202 0074 0379     		ldrb	r3, [r0, #4]	@ zero_extendqisi2
 169:FWLIB/src/stm32f4xx_exti.c **** 
 203              		.loc 1 169 9 view .LVU67
 204 0076 03F18043 		add	r3, r3, #1073741824
 205 007a 03F59E33 		add	r3, r3, #80896
 206              	.LVL7:
 172:FWLIB/src/stm32f4xx_exti.c ****   }
 207              		.loc 1 172 5 is_stmt 1 view .LVU68
 172:FWLIB/src/stm32f4xx_exti.c ****   }
 208              		.loc 1 172 28 is_stmt 0 view .LVU69
 209 007e 1A68     		ldr	r2, [r3]
 172:FWLIB/src/stm32f4xx_exti.c ****   }
 210              		.loc 1 172 47 view .LVU70
 211 0080 0168     		ldr	r1, [r0]
 172:FWLIB/src/stm32f4xx_exti.c ****   }
 212              		.loc 1 172 28 view .LVU71
ARM GAS  /tmp/ccUlubpu.s 			page 8


 213 0082 22EA0102 		bic	r2, r2, r1
 214 0086 1A60     		str	r2, [r3]
 215 0088 7047     		bx	lr
 216              	.L14:
 217 008a 00BF     		.align	2
 218              	.L13:
 219 008c 003C0140 		.word	1073822720
 220              		.cfi_endproc
 221              	.LFE124:
 223              		.section	.text.EXTI_StructInit,"ax",%progbits
 224              		.align	1
 225              		.global	EXTI_StructInit
 226              		.syntax unified
 227              		.thumb
 228              		.thumb_func
 229              		.fpu fpv4-sp-d16
 231              	EXTI_StructInit:
 232              	.LVL8:
 233              	.LFB125:
 175:FWLIB/src/stm32f4xx_exti.c **** 
 176:FWLIB/src/stm32f4xx_exti.c **** /**
 177:FWLIB/src/stm32f4xx_exti.c ****   * @brief  Fills each EXTI_InitStruct member with its reset value.
 178:FWLIB/src/stm32f4xx_exti.c ****   * @param  EXTI_InitStruct: pointer to a EXTI_InitTypeDef structure which will
 179:FWLIB/src/stm32f4xx_exti.c ****   *         be initialized.
 180:FWLIB/src/stm32f4xx_exti.c ****   * @retval None
 181:FWLIB/src/stm32f4xx_exti.c ****   */
 182:FWLIB/src/stm32f4xx_exti.c **** void EXTI_StructInit(EXTI_InitTypeDef* EXTI_InitStruct)
 183:FWLIB/src/stm32f4xx_exti.c **** {
 234              		.loc 1 183 1 is_stmt 1 view -0
 235              		.cfi_startproc
 236              		@ args = 0, pretend = 0, frame = 0
 237              		@ frame_needed = 0, uses_anonymous_args = 0
 238              		@ link register save eliminated.
 184:FWLIB/src/stm32f4xx_exti.c ****   EXTI_InitStruct->EXTI_Line = EXTI_LINENONE;
 239              		.loc 1 184 3 view .LVU73
 240              		.loc 1 184 30 is_stmt 0 view .LVU74
 241 0000 0023     		movs	r3, #0
 242 0002 0360     		str	r3, [r0]
 185:FWLIB/src/stm32f4xx_exti.c ****   EXTI_InitStruct->EXTI_Mode = EXTI_Mode_Interrupt;
 243              		.loc 1 185 3 is_stmt 1 view .LVU75
 244              		.loc 1 185 30 is_stmt 0 view .LVU76
 245 0004 0371     		strb	r3, [r0, #4]
 186:FWLIB/src/stm32f4xx_exti.c ****   EXTI_InitStruct->EXTI_Trigger = EXTI_Trigger_Falling;
 246              		.loc 1 186 3 is_stmt 1 view .LVU77
 247              		.loc 1 186 33 is_stmt 0 view .LVU78
 248 0006 0C22     		movs	r2, #12
 249 0008 4271     		strb	r2, [r0, #5]
 187:FWLIB/src/stm32f4xx_exti.c ****   EXTI_InitStruct->EXTI_LineCmd = DISABLE;
 250              		.loc 1 187 3 is_stmt 1 view .LVU79
 251              		.loc 1 187 33 is_stmt 0 view .LVU80
 252 000a 8371     		strb	r3, [r0, #6]
 188:FWLIB/src/stm32f4xx_exti.c **** }
 253              		.loc 1 188 1 view .LVU81
 254 000c 7047     		bx	lr
 255              		.cfi_endproc
 256              	.LFE125:
 258              		.section	.text.EXTI_GenerateSWInterrupt,"ax",%progbits
ARM GAS  /tmp/ccUlubpu.s 			page 9


 259              		.align	1
 260              		.global	EXTI_GenerateSWInterrupt
 261              		.syntax unified
 262              		.thumb
 263              		.thumb_func
 264              		.fpu fpv4-sp-d16
 266              	EXTI_GenerateSWInterrupt:
 267              	.LVL9:
 268              	.LFB126:
 189:FWLIB/src/stm32f4xx_exti.c **** 
 190:FWLIB/src/stm32f4xx_exti.c **** /**
 191:FWLIB/src/stm32f4xx_exti.c ****   * @brief  Generates a Software interrupt on selected EXTI line.
 192:FWLIB/src/stm32f4xx_exti.c ****   * @param  EXTI_Line: specifies the EXTI line on which the software interrupt
 193:FWLIB/src/stm32f4xx_exti.c ****   *         will be generated.
 194:FWLIB/src/stm32f4xx_exti.c ****   *         This parameter can be any combination of EXTI_Linex where x can be (0..22)
 195:FWLIB/src/stm32f4xx_exti.c ****   * @retval None
 196:FWLIB/src/stm32f4xx_exti.c ****   */
 197:FWLIB/src/stm32f4xx_exti.c **** void EXTI_GenerateSWInterrupt(uint32_t EXTI_Line)
 198:FWLIB/src/stm32f4xx_exti.c **** {
 269              		.loc 1 198 1 is_stmt 1 view -0
 270              		.cfi_startproc
 271              		@ args = 0, pretend = 0, frame = 0
 272              		@ frame_needed = 0, uses_anonymous_args = 0
 273              		@ link register save eliminated.
 199:FWLIB/src/stm32f4xx_exti.c ****   /* Check the parameters */
 200:FWLIB/src/stm32f4xx_exti.c ****   assert_param(IS_EXTI_LINE(EXTI_Line));
 274              		.loc 1 200 3 view .LVU83
 201:FWLIB/src/stm32f4xx_exti.c ****   
 202:FWLIB/src/stm32f4xx_exti.c ****   EXTI->SWIER |= EXTI_Line;
 275              		.loc 1 202 3 view .LVU84
 276              		.loc 1 202 15 is_stmt 0 view .LVU85
 277 0000 024A     		ldr	r2, .L17
 278 0002 1369     		ldr	r3, [r2, #16]
 279 0004 1843     		orrs	r0, r0, r3
 280              	.LVL10:
 281              		.loc 1 202 15 view .LVU86
 282 0006 1061     		str	r0, [r2, #16]
 203:FWLIB/src/stm32f4xx_exti.c **** }
 283              		.loc 1 203 1 view .LVU87
 284 0008 7047     		bx	lr
 285              	.L18:
 286 000a 00BF     		.align	2
 287              	.L17:
 288 000c 003C0140 		.word	1073822720
 289              		.cfi_endproc
 290              	.LFE126:
 292              		.section	.text.EXTI_GetFlagStatus,"ax",%progbits
 293              		.align	1
 294              		.global	EXTI_GetFlagStatus
 295              		.syntax unified
 296              		.thumb
 297              		.thumb_func
 298              		.fpu fpv4-sp-d16
 300              	EXTI_GetFlagStatus:
 301              	.LVL11:
 302              	.LFB127:
 204:FWLIB/src/stm32f4xx_exti.c **** 
ARM GAS  /tmp/ccUlubpu.s 			page 10


 205:FWLIB/src/stm32f4xx_exti.c **** /**
 206:FWLIB/src/stm32f4xx_exti.c ****   * @}
 207:FWLIB/src/stm32f4xx_exti.c ****   */
 208:FWLIB/src/stm32f4xx_exti.c **** 
 209:FWLIB/src/stm32f4xx_exti.c **** /** @defgroup EXTI_Group2 Interrupts and flags management functions
 210:FWLIB/src/stm32f4xx_exti.c ****  *  @brief   Interrupts and flags management functions 
 211:FWLIB/src/stm32f4xx_exti.c ****  *
 212:FWLIB/src/stm32f4xx_exti.c **** @verbatim   
 213:FWLIB/src/stm32f4xx_exti.c ****  ===============================================================================
 214:FWLIB/src/stm32f4xx_exti.c ****              ##### Interrupts and flags management functions #####
 215:FWLIB/src/stm32f4xx_exti.c ****  ===============================================================================
 216:FWLIB/src/stm32f4xx_exti.c **** 
 217:FWLIB/src/stm32f4xx_exti.c **** @endverbatim
 218:FWLIB/src/stm32f4xx_exti.c ****   * @{
 219:FWLIB/src/stm32f4xx_exti.c ****   */
 220:FWLIB/src/stm32f4xx_exti.c **** 
 221:FWLIB/src/stm32f4xx_exti.c **** /**
 222:FWLIB/src/stm32f4xx_exti.c ****   * @brief  Checks whether the specified EXTI line flag is set or not.
 223:FWLIB/src/stm32f4xx_exti.c ****   * @param  EXTI_Line: specifies the EXTI line flag to check.
 224:FWLIB/src/stm32f4xx_exti.c ****   *          This parameter can be EXTI_Linex where x can be(0..22)
 225:FWLIB/src/stm32f4xx_exti.c ****   * @retval The new state of EXTI_Line (SET or RESET).
 226:FWLIB/src/stm32f4xx_exti.c ****   */
 227:FWLIB/src/stm32f4xx_exti.c **** FlagStatus EXTI_GetFlagStatus(uint32_t EXTI_Line)
 228:FWLIB/src/stm32f4xx_exti.c **** {
 303              		.loc 1 228 1 is_stmt 1 view -0
 304              		.cfi_startproc
 305              		@ args = 0, pretend = 0, frame = 0
 306              		@ frame_needed = 0, uses_anonymous_args = 0
 307              		@ link register save eliminated.
 229:FWLIB/src/stm32f4xx_exti.c ****   FlagStatus bitstatus = RESET;
 308              		.loc 1 229 3 view .LVU89
 230:FWLIB/src/stm32f4xx_exti.c ****   /* Check the parameters */
 231:FWLIB/src/stm32f4xx_exti.c ****   assert_param(IS_GET_EXTI_LINE(EXTI_Line));
 309              		.loc 1 231 3 view .LVU90
 232:FWLIB/src/stm32f4xx_exti.c ****   
 233:FWLIB/src/stm32f4xx_exti.c ****   if ((EXTI->PR & EXTI_Line) != (uint32_t)RESET)
 310              		.loc 1 233 3 view .LVU91
 311              		.loc 1 233 12 is_stmt 0 view .LVU92
 312 0000 034B     		ldr	r3, .L22
 313 0002 5B69     		ldr	r3, [r3, #20]
 314              		.loc 1 233 6 view .LVU93
 315 0004 0342     		tst	r3, r0
 316 0006 01D0     		beq	.L21
 234:FWLIB/src/stm32f4xx_exti.c ****   {
 235:FWLIB/src/stm32f4xx_exti.c ****     bitstatus = SET;
 317              		.loc 1 235 15 view .LVU94
 318 0008 0120     		movs	r0, #1
 319              	.LVL12:
 320              		.loc 1 235 15 view .LVU95
 321 000a 7047     		bx	lr
 322              	.LVL13:
 323              	.L21:
 236:FWLIB/src/stm32f4xx_exti.c ****   }
 237:FWLIB/src/stm32f4xx_exti.c ****   else
 238:FWLIB/src/stm32f4xx_exti.c ****   {
 239:FWLIB/src/stm32f4xx_exti.c ****     bitstatus = RESET;
 324              		.loc 1 239 15 view .LVU96
ARM GAS  /tmp/ccUlubpu.s 			page 11


 325 000c 0020     		movs	r0, #0
 326              	.LVL14:
 240:FWLIB/src/stm32f4xx_exti.c ****   }
 241:FWLIB/src/stm32f4xx_exti.c ****   return bitstatus;
 327              		.loc 1 241 3 is_stmt 1 view .LVU97
 242:FWLIB/src/stm32f4xx_exti.c **** }
 328              		.loc 1 242 1 is_stmt 0 view .LVU98
 329 000e 7047     		bx	lr
 330              	.L23:
 331              		.align	2
 332              	.L22:
 333 0010 003C0140 		.word	1073822720
 334              		.cfi_endproc
 335              	.LFE127:
 337              		.section	.text.EXTI_ClearFlag,"ax",%progbits
 338              		.align	1
 339              		.global	EXTI_ClearFlag
 340              		.syntax unified
 341              		.thumb
 342              		.thumb_func
 343              		.fpu fpv4-sp-d16
 345              	EXTI_ClearFlag:
 346              	.LVL15:
 347              	.LFB128:
 243:FWLIB/src/stm32f4xx_exti.c **** 
 244:FWLIB/src/stm32f4xx_exti.c **** /**
 245:FWLIB/src/stm32f4xx_exti.c ****   * @brief  Clears the EXTI's line pending flags.
 246:FWLIB/src/stm32f4xx_exti.c ****   * @param  EXTI_Line: specifies the EXTI lines flags to clear.
 247:FWLIB/src/stm32f4xx_exti.c ****   *          This parameter can be any combination of EXTI_Linex where x can be (0..22)
 248:FWLIB/src/stm32f4xx_exti.c ****   * @retval None
 249:FWLIB/src/stm32f4xx_exti.c ****   */
 250:FWLIB/src/stm32f4xx_exti.c **** void EXTI_ClearFlag(uint32_t EXTI_Line)
 251:FWLIB/src/stm32f4xx_exti.c **** {
 348              		.loc 1 251 1 is_stmt 1 view -0
 349              		.cfi_startproc
 350              		@ args = 0, pretend = 0, frame = 0
 351              		@ frame_needed = 0, uses_anonymous_args = 0
 352              		@ link register save eliminated.
 252:FWLIB/src/stm32f4xx_exti.c ****   /* Check the parameters */
 253:FWLIB/src/stm32f4xx_exti.c ****   assert_param(IS_EXTI_LINE(EXTI_Line));
 353              		.loc 1 253 3 view .LVU100
 254:FWLIB/src/stm32f4xx_exti.c ****   
 255:FWLIB/src/stm32f4xx_exti.c ****   EXTI->PR = EXTI_Line;
 354              		.loc 1 255 3 view .LVU101
 355              		.loc 1 255 12 is_stmt 0 view .LVU102
 356 0000 014B     		ldr	r3, .L25
 357 0002 5861     		str	r0, [r3, #20]
 256:FWLIB/src/stm32f4xx_exti.c **** }
 358              		.loc 1 256 1 view .LVU103
 359 0004 7047     		bx	lr
 360              	.L26:
 361 0006 00BF     		.align	2
 362              	.L25:
 363 0008 003C0140 		.word	1073822720
 364              		.cfi_endproc
 365              	.LFE128:
 367              		.section	.text.EXTI_GetITStatus,"ax",%progbits
ARM GAS  /tmp/ccUlubpu.s 			page 12


 368              		.align	1
 369              		.global	EXTI_GetITStatus
 370              		.syntax unified
 371              		.thumb
 372              		.thumb_func
 373              		.fpu fpv4-sp-d16
 375              	EXTI_GetITStatus:
 376              	.LVL16:
 377              	.LFB129:
 257:FWLIB/src/stm32f4xx_exti.c **** 
 258:FWLIB/src/stm32f4xx_exti.c **** /**
 259:FWLIB/src/stm32f4xx_exti.c ****   * @brief  Checks whether the specified EXTI line is asserted or not.
 260:FWLIB/src/stm32f4xx_exti.c ****   * @param  EXTI_Line: specifies the EXTI line to check.
 261:FWLIB/src/stm32f4xx_exti.c ****   *          This parameter can be EXTI_Linex where x can be(0..22)
 262:FWLIB/src/stm32f4xx_exti.c ****   * @retval The new state of EXTI_Line (SET or RESET).
 263:FWLIB/src/stm32f4xx_exti.c ****   */
 264:FWLIB/src/stm32f4xx_exti.c **** ITStatus EXTI_GetITStatus(uint32_t EXTI_Line)
 265:FWLIB/src/stm32f4xx_exti.c **** {
 378              		.loc 1 265 1 is_stmt 1 view -0
 379              		.cfi_startproc
 380              		@ args = 0, pretend = 0, frame = 0
 381              		@ frame_needed = 0, uses_anonymous_args = 0
 382              		@ link register save eliminated.
 266:FWLIB/src/stm32f4xx_exti.c ****   FlagStatus bitstatus = RESET;
 383              		.loc 1 266 3 view .LVU105
 267:FWLIB/src/stm32f4xx_exti.c ****   /* Check the parameters */
 268:FWLIB/src/stm32f4xx_exti.c ****   assert_param(IS_GET_EXTI_LINE(EXTI_Line));
 384              		.loc 1 268 3 view .LVU106
 269:FWLIB/src/stm32f4xx_exti.c ****   
 270:FWLIB/src/stm32f4xx_exti.c ****   if ((EXTI->PR & EXTI_Line) != (uint32_t)RESET)
 385              		.loc 1 270 3 view .LVU107
 386              		.loc 1 270 12 is_stmt 0 view .LVU108
 387 0000 034B     		ldr	r3, .L30
 388 0002 5B69     		ldr	r3, [r3, #20]
 389              		.loc 1 270 6 view .LVU109
 390 0004 0342     		tst	r3, r0
 391 0006 01D0     		beq	.L29
 271:FWLIB/src/stm32f4xx_exti.c ****   {
 272:FWLIB/src/stm32f4xx_exti.c ****     bitstatus = SET;
 392              		.loc 1 272 15 view .LVU110
 393 0008 0120     		movs	r0, #1
 394              	.LVL17:
 395              		.loc 1 272 15 view .LVU111
 396 000a 7047     		bx	lr
 397              	.LVL18:
 398              	.L29:
 273:FWLIB/src/stm32f4xx_exti.c ****   }
 274:FWLIB/src/stm32f4xx_exti.c ****   else
 275:FWLIB/src/stm32f4xx_exti.c ****   {
 276:FWLIB/src/stm32f4xx_exti.c ****     bitstatus = RESET;
 399              		.loc 1 276 15 view .LVU112
 400 000c 0020     		movs	r0, #0
 401              	.LVL19:
 277:FWLIB/src/stm32f4xx_exti.c ****   }
 278:FWLIB/src/stm32f4xx_exti.c ****   return bitstatus;
 402              		.loc 1 278 3 is_stmt 1 view .LVU113
 279:FWLIB/src/stm32f4xx_exti.c ****   
ARM GAS  /tmp/ccUlubpu.s 			page 13


 280:FWLIB/src/stm32f4xx_exti.c **** }
 403              		.loc 1 280 1 is_stmt 0 view .LVU114
 404 000e 7047     		bx	lr
 405              	.L31:
 406              		.align	2
 407              	.L30:
 408 0010 003C0140 		.word	1073822720
 409              		.cfi_endproc
 410              	.LFE129:
 412              		.section	.text.EXTI_ClearITPendingBit,"ax",%progbits
 413              		.align	1
 414              		.global	EXTI_ClearITPendingBit
 415              		.syntax unified
 416              		.thumb
 417              		.thumb_func
 418              		.fpu fpv4-sp-d16
 420              	EXTI_ClearITPendingBit:
 421              	.LVL20:
 422              	.LFB130:
 281:FWLIB/src/stm32f4xx_exti.c **** 
 282:FWLIB/src/stm32f4xx_exti.c **** /**
 283:FWLIB/src/stm32f4xx_exti.c ****   * @brief  Clears the EXTI's line pending bits.
 284:FWLIB/src/stm32f4xx_exti.c ****   * @param  EXTI_Line: specifies the EXTI lines to clear.
 285:FWLIB/src/stm32f4xx_exti.c ****   *          This parameter can be any combination of EXTI_Linex where x can be (0..22)
 286:FWLIB/src/stm32f4xx_exti.c ****   * @retval None
 287:FWLIB/src/stm32f4xx_exti.c ****   */
 288:FWLIB/src/stm32f4xx_exti.c **** void EXTI_ClearITPendingBit(uint32_t EXTI_Line)
 289:FWLIB/src/stm32f4xx_exti.c **** {
 423              		.loc 1 289 1 is_stmt 1 view -0
 424              		.cfi_startproc
 425              		@ args = 0, pretend = 0, frame = 0
 426              		@ frame_needed = 0, uses_anonymous_args = 0
 427              		@ link register save eliminated.
 290:FWLIB/src/stm32f4xx_exti.c ****   /* Check the parameters */
 291:FWLIB/src/stm32f4xx_exti.c ****   assert_param(IS_EXTI_LINE(EXTI_Line));
 428              		.loc 1 291 3 view .LVU116
 292:FWLIB/src/stm32f4xx_exti.c ****   
 293:FWLIB/src/stm32f4xx_exti.c ****   EXTI->PR = EXTI_Line;
 429              		.loc 1 293 3 view .LVU117
 430              		.loc 1 293 12 is_stmt 0 view .LVU118
 431 0000 014B     		ldr	r3, .L33
 432 0002 5861     		str	r0, [r3, #20]
 294:FWLIB/src/stm32f4xx_exti.c **** }
 433              		.loc 1 294 1 view .LVU119
 434 0004 7047     		bx	lr
 435              	.L34:
 436 0006 00BF     		.align	2
 437              	.L33:
 438 0008 003C0140 		.word	1073822720
 439              		.cfi_endproc
 440              	.LFE130:
 442              		.text
 443              	.Letext0:
 444              		.file 2 "/home/bt0/stm32/compile-tool/gcc-arm-none-eabi-8-2018-q4-major-linux/gcc-arm-none-eabi-8-
 445              		.file 3 "/home/bt0/stm32/compile-tool/gcc-arm-none-eabi-8-2018-q4-major-linux/gcc-arm-none-eabi-8-
 446              		.file 4 "F4_CORE/core_cm4.h"
 447              		.file 5 "USER/system_stm32f4xx.h"
ARM GAS  /tmp/ccUlubpu.s 			page 14


 448              		.file 6 "USER/stm32f4xx.h"
 449              		.file 7 "FWLIB/inc/stm32f4xx_exti.h"
ARM GAS  /tmp/ccUlubpu.s 			page 15

