ARM GAS  /tmp/ccMQ2N6i.s 			page 1


   1              		.cpu cortex-m4
   2              		.eabi_attribute 27, 1
   3              		.eabi_attribute 28, 1
   4              		.eabi_attribute 20, 1
   5              		.eabi_attribute 21, 1
   6              		.eabi_attribute 23, 3
   7              		.eabi_attribute 24, 1
   8              		.eabi_attribute 25, 1
   9              		.eabi_attribute 26, 1
  10              		.eabi_attribute 30, 1
  11              		.eabi_attribute 34, 1
  12              		.eabi_attribute 18, 4
  13              		.file	"stm32f4xx_dbgmcu.c"
  14              		.text
  15              	.Ltext0:
  16              		.cfi_sections	.debug_frame
  17              		.section	.text.DBGMCU_GetREVID,"ax",%progbits
  18              		.align	1
  19              		.global	DBGMCU_GetREVID
  20              		.syntax unified
  21              		.thumb
  22              		.thumb_func
  23              		.fpu fpv4-sp-d16
  25              	DBGMCU_GetREVID:
  26              	.LFB123:
  27              		.file 1 "FWLIB/src/stm32f4xx_dbgmcu.c"
   1:FWLIB/src/stm32f4xx_dbgmcu.c **** /**
   2:FWLIB/src/stm32f4xx_dbgmcu.c ****   ******************************************************************************
   3:FWLIB/src/stm32f4xx_dbgmcu.c ****   * @file    stm32f4xx_dbgmcu.c
   4:FWLIB/src/stm32f4xx_dbgmcu.c ****   * @author  MCD Application Team
   5:FWLIB/src/stm32f4xx_dbgmcu.c ****   * @version V1.8.0
   6:FWLIB/src/stm32f4xx_dbgmcu.c ****   * @date    04-November-2016
   7:FWLIB/src/stm32f4xx_dbgmcu.c ****   * @brief   This file provides all the DBGMCU firmware functions.
   8:FWLIB/src/stm32f4xx_dbgmcu.c ****   ******************************************************************************
   9:FWLIB/src/stm32f4xx_dbgmcu.c ****   * @attention
  10:FWLIB/src/stm32f4xx_dbgmcu.c ****   *
  11:FWLIB/src/stm32f4xx_dbgmcu.c ****   * <h2><center>&copy; COPYRIGHT 2016 STMicroelectronics</center></h2>
  12:FWLIB/src/stm32f4xx_dbgmcu.c ****   *
  13:FWLIB/src/stm32f4xx_dbgmcu.c ****   * Licensed under MCD-ST Liberty SW License Agreement V2, (the "License");
  14:FWLIB/src/stm32f4xx_dbgmcu.c ****   * You may not use this file except in compliance with the License.
  15:FWLIB/src/stm32f4xx_dbgmcu.c ****   * You may obtain a copy of the License at:
  16:FWLIB/src/stm32f4xx_dbgmcu.c ****   *
  17:FWLIB/src/stm32f4xx_dbgmcu.c ****   *        http://www.st.com/software_license_agreement_liberty_v2
  18:FWLIB/src/stm32f4xx_dbgmcu.c ****   *
  19:FWLIB/src/stm32f4xx_dbgmcu.c ****   * Unless required by applicable law or agreed to in writing, software 
  20:FWLIB/src/stm32f4xx_dbgmcu.c ****   * distributed under the License is distributed on an "AS IS" BASIS, 
  21:FWLIB/src/stm32f4xx_dbgmcu.c ****   * WITHOUT WARRANTIES OR CONDITIONS OF ANY KIND, either express or implied.
  22:FWLIB/src/stm32f4xx_dbgmcu.c ****   * See the License for the specific language governing permissions and
  23:FWLIB/src/stm32f4xx_dbgmcu.c ****   * limitations under the License.
  24:FWLIB/src/stm32f4xx_dbgmcu.c ****   *
  25:FWLIB/src/stm32f4xx_dbgmcu.c ****   ******************************************************************************
  26:FWLIB/src/stm32f4xx_dbgmcu.c ****   */
  27:FWLIB/src/stm32f4xx_dbgmcu.c **** 
  28:FWLIB/src/stm32f4xx_dbgmcu.c **** /* Includes ------------------------------------------------------------------*/
  29:FWLIB/src/stm32f4xx_dbgmcu.c **** #include "stm32f4xx_dbgmcu.h"
  30:FWLIB/src/stm32f4xx_dbgmcu.c **** 
  31:FWLIB/src/stm32f4xx_dbgmcu.c **** /** @addtogroup STM32F4xx_StdPeriph_Driver
ARM GAS  /tmp/ccMQ2N6i.s 			page 2


  32:FWLIB/src/stm32f4xx_dbgmcu.c ****   * @{
  33:FWLIB/src/stm32f4xx_dbgmcu.c ****   */
  34:FWLIB/src/stm32f4xx_dbgmcu.c **** 
  35:FWLIB/src/stm32f4xx_dbgmcu.c **** /** @defgroup DBGMCU 
  36:FWLIB/src/stm32f4xx_dbgmcu.c ****   * @brief DBGMCU driver modules
  37:FWLIB/src/stm32f4xx_dbgmcu.c ****   * @{
  38:FWLIB/src/stm32f4xx_dbgmcu.c ****   */ 
  39:FWLIB/src/stm32f4xx_dbgmcu.c **** 
  40:FWLIB/src/stm32f4xx_dbgmcu.c **** /* Private typedef -----------------------------------------------------------*/
  41:FWLIB/src/stm32f4xx_dbgmcu.c **** /* Private define ------------------------------------------------------------*/
  42:FWLIB/src/stm32f4xx_dbgmcu.c **** #define IDCODE_DEVID_MASK    ((uint32_t)0x00000FFF)
  43:FWLIB/src/stm32f4xx_dbgmcu.c **** 
  44:FWLIB/src/stm32f4xx_dbgmcu.c **** /* Private macro -------------------------------------------------------------*/
  45:FWLIB/src/stm32f4xx_dbgmcu.c **** /* Private variables ---------------------------------------------------------*/
  46:FWLIB/src/stm32f4xx_dbgmcu.c **** /* Private function prototypes -----------------------------------------------*/
  47:FWLIB/src/stm32f4xx_dbgmcu.c **** /* Private functions ---------------------------------------------------------*/
  48:FWLIB/src/stm32f4xx_dbgmcu.c **** 
  49:FWLIB/src/stm32f4xx_dbgmcu.c **** /** @defgroup DBGMCU_Private_Functions
  50:FWLIB/src/stm32f4xx_dbgmcu.c ****   * @{
  51:FWLIB/src/stm32f4xx_dbgmcu.c ****   */ 
  52:FWLIB/src/stm32f4xx_dbgmcu.c **** 
  53:FWLIB/src/stm32f4xx_dbgmcu.c **** /**
  54:FWLIB/src/stm32f4xx_dbgmcu.c ****   * @brief  Returns the device revision identifier.
  55:FWLIB/src/stm32f4xx_dbgmcu.c ****   * @param  None
  56:FWLIB/src/stm32f4xx_dbgmcu.c ****   * @retval Device revision identifier
  57:FWLIB/src/stm32f4xx_dbgmcu.c ****   */
  58:FWLIB/src/stm32f4xx_dbgmcu.c **** uint32_t DBGMCU_GetREVID(void)
  59:FWLIB/src/stm32f4xx_dbgmcu.c **** {
  28              		.loc 1 59 0
  29              		.cfi_startproc
  30              		@ args = 0, pretend = 0, frame = 0
  31              		@ frame_needed = 0, uses_anonymous_args = 0
  32              		@ link register save eliminated.
  60:FWLIB/src/stm32f4xx_dbgmcu.c ****    return(DBGMCU->IDCODE >> 16);
  33              		.loc 1 60 0
  34 0000 014B     		ldr	r3, .L2
  35 0002 1868     		ldr	r0, [r3]
  61:FWLIB/src/stm32f4xx_dbgmcu.c **** }
  36              		.loc 1 61 0
  37 0004 000C     		lsrs	r0, r0, #16
  38 0006 7047     		bx	lr
  39              	.L3:
  40              		.align	2
  41              	.L2:
  42 0008 002004E0 		.word	-536600576
  43              		.cfi_endproc
  44              	.LFE123:
  46              		.section	.text.DBGMCU_GetDEVID,"ax",%progbits
  47              		.align	1
  48              		.global	DBGMCU_GetDEVID
  49              		.syntax unified
  50              		.thumb
  51              		.thumb_func
  52              		.fpu fpv4-sp-d16
  54              	DBGMCU_GetDEVID:
  55              	.LFB124:
  62:FWLIB/src/stm32f4xx_dbgmcu.c **** 
ARM GAS  /tmp/ccMQ2N6i.s 			page 3


  63:FWLIB/src/stm32f4xx_dbgmcu.c **** /**
  64:FWLIB/src/stm32f4xx_dbgmcu.c ****   * @brief  Returns the device identifier.
  65:FWLIB/src/stm32f4xx_dbgmcu.c ****   * @param  None
  66:FWLIB/src/stm32f4xx_dbgmcu.c ****   * @retval Device identifier
  67:FWLIB/src/stm32f4xx_dbgmcu.c ****   */
  68:FWLIB/src/stm32f4xx_dbgmcu.c **** uint32_t DBGMCU_GetDEVID(void)
  69:FWLIB/src/stm32f4xx_dbgmcu.c **** {
  56              		.loc 1 69 0
  57              		.cfi_startproc
  58              		@ args = 0, pretend = 0, frame = 0
  59              		@ frame_needed = 0, uses_anonymous_args = 0
  60              		@ link register save eliminated.
  70:FWLIB/src/stm32f4xx_dbgmcu.c ****    return(DBGMCU->IDCODE & IDCODE_DEVID_MASK);
  61              		.loc 1 70 0
  62 0000 024B     		ldr	r3, .L5
  63 0002 1868     		ldr	r0, [r3]
  71:FWLIB/src/stm32f4xx_dbgmcu.c **** }
  64              		.loc 1 71 0
  65 0004 C0F30B00 		ubfx	r0, r0, #0, #12
  66 0008 7047     		bx	lr
  67              	.L6:
  68 000a 00BF     		.align	2
  69              	.L5:
  70 000c 002004E0 		.word	-536600576
  71              		.cfi_endproc
  72              	.LFE124:
  74              		.section	.text.DBGMCU_Config,"ax",%progbits
  75              		.align	1
  76              		.global	DBGMCU_Config
  77              		.syntax unified
  78              		.thumb
  79              		.thumb_func
  80              		.fpu fpv4-sp-d16
  82              	DBGMCU_Config:
  83              	.LFB125:
  72:FWLIB/src/stm32f4xx_dbgmcu.c **** 
  73:FWLIB/src/stm32f4xx_dbgmcu.c **** /**
  74:FWLIB/src/stm32f4xx_dbgmcu.c ****   * @brief  Configures low power mode behavior when the MCU is in Debug mode.
  75:FWLIB/src/stm32f4xx_dbgmcu.c ****   * @param  DBGMCU_Periph: specifies the low power mode.
  76:FWLIB/src/stm32f4xx_dbgmcu.c ****   *   This parameter can be any combination of the following values:
  77:FWLIB/src/stm32f4xx_dbgmcu.c ****   *     @arg DBGMCU_SLEEP: Keep debugger connection during SLEEP mode              
  78:FWLIB/src/stm32f4xx_dbgmcu.c ****   *     @arg DBGMCU_STOP: Keep debugger connection during STOP mode               
  79:FWLIB/src/stm32f4xx_dbgmcu.c ****   *     @arg DBGMCU_STANDBY: Keep debugger connection during STANDBY mode        
  80:FWLIB/src/stm32f4xx_dbgmcu.c ****   * @param  NewState: new state of the specified low power mode in Debug mode.
  81:FWLIB/src/stm32f4xx_dbgmcu.c ****   *   This parameter can be: ENABLE or DISABLE.
  82:FWLIB/src/stm32f4xx_dbgmcu.c ****   * @retval None
  83:FWLIB/src/stm32f4xx_dbgmcu.c ****   */
  84:FWLIB/src/stm32f4xx_dbgmcu.c **** void DBGMCU_Config(uint32_t DBGMCU_Periph, FunctionalState NewState)
  85:FWLIB/src/stm32f4xx_dbgmcu.c **** {
  84              		.loc 1 85 0
  85              		.cfi_startproc
  86              		@ args = 0, pretend = 0, frame = 0
  87              		@ frame_needed = 0, uses_anonymous_args = 0
  88              		@ link register save eliminated.
  89              	.LVL0:
  86:FWLIB/src/stm32f4xx_dbgmcu.c ****   /* Check the parameters */
  87:FWLIB/src/stm32f4xx_dbgmcu.c ****   assert_param(IS_DBGMCU_PERIPH(DBGMCU_Periph));
ARM GAS  /tmp/ccMQ2N6i.s 			page 4


  88:FWLIB/src/stm32f4xx_dbgmcu.c ****   assert_param(IS_FUNCTIONAL_STATE(NewState));
  89:FWLIB/src/stm32f4xx_dbgmcu.c ****   if (NewState != DISABLE)
  90              		.loc 1 89 0
  91 0000 29B9     		cbnz	r1, .L10
  90:FWLIB/src/stm32f4xx_dbgmcu.c ****   {
  91:FWLIB/src/stm32f4xx_dbgmcu.c ****     DBGMCU->CR |= DBGMCU_Periph;
  92:FWLIB/src/stm32f4xx_dbgmcu.c ****   }
  93:FWLIB/src/stm32f4xx_dbgmcu.c ****   else
  94:FWLIB/src/stm32f4xx_dbgmcu.c ****   {
  95:FWLIB/src/stm32f4xx_dbgmcu.c ****     DBGMCU->CR &= ~DBGMCU_Periph;
  92              		.loc 1 95 0
  93 0002 054A     		ldr	r2, .L11
  94 0004 5368     		ldr	r3, [r2, #4]
  95 0006 23EA0000 		bic	r0, r3, r0
  96              	.LVL1:
  97 000a 5060     		str	r0, [r2, #4]
  98 000c 7047     		bx	lr
  99              	.LVL2:
 100              	.L10:
  91:FWLIB/src/stm32f4xx_dbgmcu.c ****   }
 101              		.loc 1 91 0
 102 000e 024A     		ldr	r2, .L11
 103 0010 5368     		ldr	r3, [r2, #4]
 104 0012 1843     		orrs	r0, r0, r3
 105              	.LVL3:
 106 0014 5060     		str	r0, [r2, #4]
 107 0016 7047     		bx	lr
 108              	.L12:
 109              		.align	2
 110              	.L11:
 111 0018 002004E0 		.word	-536600576
 112              		.cfi_endproc
 113              	.LFE125:
 115              		.section	.text.DBGMCU_APB1PeriphConfig,"ax",%progbits
 116              		.align	1
 117              		.global	DBGMCU_APB1PeriphConfig
 118              		.syntax unified
 119              		.thumb
 120              		.thumb_func
 121              		.fpu fpv4-sp-d16
 123              	DBGMCU_APB1PeriphConfig:
 124              	.LFB126:
  96:FWLIB/src/stm32f4xx_dbgmcu.c ****   }
  97:FWLIB/src/stm32f4xx_dbgmcu.c **** }
  98:FWLIB/src/stm32f4xx_dbgmcu.c **** 
  99:FWLIB/src/stm32f4xx_dbgmcu.c **** /**
 100:FWLIB/src/stm32f4xx_dbgmcu.c ****   * @brief  Configures APB1 peripheral behavior when the MCU is in Debug mode.
 101:FWLIB/src/stm32f4xx_dbgmcu.c ****   * @param  DBGMCU_Periph: specifies the APB1 peripheral.
 102:FWLIB/src/stm32f4xx_dbgmcu.c ****   *   This parameter can be any combination of the following values:        
 103:FWLIB/src/stm32f4xx_dbgmcu.c ****   *     @arg DBGMCU_TIM2_STOP: TIM2 counter stopped when Core is halted          
 104:FWLIB/src/stm32f4xx_dbgmcu.c ****   *     @arg DBGMCU_TIM3_STOP: TIM3 counter stopped when Core is halted          
 105:FWLIB/src/stm32f4xx_dbgmcu.c ****   *     @arg DBGMCU_TIM4_STOP: TIM4 counter stopped when Core is halted
 106:FWLIB/src/stm32f4xx_dbgmcu.c ****   *     @arg DBGMCU_TIM5_STOP: TIM5 counter stopped when Core is halted          
 107:FWLIB/src/stm32f4xx_dbgmcu.c ****   *     @arg DBGMCU_TIM6_STOP: TIM6 counter stopped when Core is halted          
 108:FWLIB/src/stm32f4xx_dbgmcu.c ****   *     @arg DBGMCU_TIM7_STOP: TIM7 counter stopped when Core is halted
 109:FWLIB/src/stm32f4xx_dbgmcu.c ****   *     @arg DBGMCU_TIM12_STOP: TIM12 counter stopped when Core is halted  
 110:FWLIB/src/stm32f4xx_dbgmcu.c ****   *     @arg DBGMCU_TIM13_STOP: TIM13 counter stopped when Core is halted  
ARM GAS  /tmp/ccMQ2N6i.s 			page 5


 111:FWLIB/src/stm32f4xx_dbgmcu.c ****   *     @arg DBGMCU_TIM14_STOP: TIM14 counter stopped when Core is halted 
 112:FWLIB/src/stm32f4xx_dbgmcu.c ****   *     @arg DBGMCU_RTC_STOP: RTC Calendar and Wakeup counter stopped when Core is halted.         
 113:FWLIB/src/stm32f4xx_dbgmcu.c ****   *     @arg DBGMCU_WWDG_STOP: Debug WWDG stopped when Core is halted
 114:FWLIB/src/stm32f4xx_dbgmcu.c ****   *     @arg DBGMCU_IWDG_STOP: Debug IWDG stopped when Core is halted        
 115:FWLIB/src/stm32f4xx_dbgmcu.c ****   *     @arg DBGMCU_I2C1_SMBUS_TIMEOUT: I2C1 SMBUS timeout mode stopped when Core is halted
 116:FWLIB/src/stm32f4xx_dbgmcu.c ****   *     @arg DBGMCU_I2C2_SMBUS_TIMEOUT: I2C2 SMBUS timeout mode stopped when Core is halted
 117:FWLIB/src/stm32f4xx_dbgmcu.c ****   *     @arg DBGMCU_I2C3_SMBUS_TIMEOUT: I2C3 SMBUS timeout mode stopped when Core is halted
 118:FWLIB/src/stm32f4xx_dbgmcu.c ****   *     @arg DBGMCU_CAN2_STOP: Debug CAN1 stopped when Core is halted           
 119:FWLIB/src/stm32f4xx_dbgmcu.c ****   *     @arg DBGMCU_CAN1_STOP: Debug CAN2 stopped when Core is halted        
 120:FWLIB/src/stm32f4xx_dbgmcu.c ****   *   This parameter can be: ENABLE or DISABLE.
 121:FWLIB/src/stm32f4xx_dbgmcu.c ****   * @retval None
 122:FWLIB/src/stm32f4xx_dbgmcu.c ****   */
 123:FWLIB/src/stm32f4xx_dbgmcu.c **** void DBGMCU_APB1PeriphConfig(uint32_t DBGMCU_Periph, FunctionalState NewState)
 124:FWLIB/src/stm32f4xx_dbgmcu.c **** {
 125              		.loc 1 124 0
 126              		.cfi_startproc
 127              		@ args = 0, pretend = 0, frame = 0
 128              		@ frame_needed = 0, uses_anonymous_args = 0
 129              		@ link register save eliminated.
 130              	.LVL4:
 125:FWLIB/src/stm32f4xx_dbgmcu.c ****   /* Check the parameters */
 126:FWLIB/src/stm32f4xx_dbgmcu.c ****   assert_param(IS_DBGMCU_APB1PERIPH(DBGMCU_Periph));
 127:FWLIB/src/stm32f4xx_dbgmcu.c ****   assert_param(IS_FUNCTIONAL_STATE(NewState));
 128:FWLIB/src/stm32f4xx_dbgmcu.c **** 
 129:FWLIB/src/stm32f4xx_dbgmcu.c ****   if (NewState != DISABLE)
 131              		.loc 1 129 0
 132 0000 29B9     		cbnz	r1, .L16
 130:FWLIB/src/stm32f4xx_dbgmcu.c ****   {
 131:FWLIB/src/stm32f4xx_dbgmcu.c ****     DBGMCU->APB1FZ |= DBGMCU_Periph;
 132:FWLIB/src/stm32f4xx_dbgmcu.c ****   }
 133:FWLIB/src/stm32f4xx_dbgmcu.c ****   else
 134:FWLIB/src/stm32f4xx_dbgmcu.c ****   {
 135:FWLIB/src/stm32f4xx_dbgmcu.c ****     DBGMCU->APB1FZ &= ~DBGMCU_Periph;
 133              		.loc 1 135 0
 134 0002 054A     		ldr	r2, .L17
 135 0004 9368     		ldr	r3, [r2, #8]
 136 0006 23EA0000 		bic	r0, r3, r0
 137              	.LVL5:
 138 000a 9060     		str	r0, [r2, #8]
 139 000c 7047     		bx	lr
 140              	.LVL6:
 141              	.L16:
 131:FWLIB/src/stm32f4xx_dbgmcu.c ****   }
 142              		.loc 1 131 0
 143 000e 024A     		ldr	r2, .L17
 144 0010 9368     		ldr	r3, [r2, #8]
 145 0012 1843     		orrs	r0, r0, r3
 146              	.LVL7:
 147 0014 9060     		str	r0, [r2, #8]
 148 0016 7047     		bx	lr
 149              	.L18:
 150              		.align	2
 151              	.L17:
 152 0018 002004E0 		.word	-536600576
 153              		.cfi_endproc
 154              	.LFE126:
 156              		.section	.text.DBGMCU_APB2PeriphConfig,"ax",%progbits
ARM GAS  /tmp/ccMQ2N6i.s 			page 6


 157              		.align	1
 158              		.global	DBGMCU_APB2PeriphConfig
 159              		.syntax unified
 160              		.thumb
 161              		.thumb_func
 162              		.fpu fpv4-sp-d16
 164              	DBGMCU_APB2PeriphConfig:
 165              	.LFB127:
 136:FWLIB/src/stm32f4xx_dbgmcu.c ****   }
 137:FWLIB/src/stm32f4xx_dbgmcu.c **** }
 138:FWLIB/src/stm32f4xx_dbgmcu.c **** 
 139:FWLIB/src/stm32f4xx_dbgmcu.c **** /**
 140:FWLIB/src/stm32f4xx_dbgmcu.c ****   * @brief  Configures APB2 peripheral behavior when the MCU is in Debug mode.
 141:FWLIB/src/stm32f4xx_dbgmcu.c ****   * @param  DBGMCU_Periph: specifies the APB2 peripheral.
 142:FWLIB/src/stm32f4xx_dbgmcu.c ****   *   This parameter can be any combination of the following values:       
 143:FWLIB/src/stm32f4xx_dbgmcu.c ****   *     @arg DBGMCU_TIM1_STOP: TIM1 counter stopped when Core is halted                
 144:FWLIB/src/stm32f4xx_dbgmcu.c ****   *     @arg DBGMCU_TIM8_STOP: TIM8 counter stopped when Core is halted
 145:FWLIB/src/stm32f4xx_dbgmcu.c ****   *     @arg DBGMCU_TIM9_STOP: TIM9 counter stopped when Core is halted   
 146:FWLIB/src/stm32f4xx_dbgmcu.c ****   *     @arg DBGMCU_TIM10_STOP: TIM10 counter stopped when Core is halted   
 147:FWLIB/src/stm32f4xx_dbgmcu.c ****   *     @arg DBGMCU_TIM11_STOP: TIM11 counter stopped when Core is halted                          
 148:FWLIB/src/stm32f4xx_dbgmcu.c ****   * @param  NewState: new state of the specified peripheral in Debug mode.
 149:FWLIB/src/stm32f4xx_dbgmcu.c ****   *   This parameter can be: ENABLE or DISABLE.
 150:FWLIB/src/stm32f4xx_dbgmcu.c ****   * @retval None
 151:FWLIB/src/stm32f4xx_dbgmcu.c ****   */
 152:FWLIB/src/stm32f4xx_dbgmcu.c **** void DBGMCU_APB2PeriphConfig(uint32_t DBGMCU_Periph, FunctionalState NewState)
 153:FWLIB/src/stm32f4xx_dbgmcu.c **** {
 166              		.loc 1 153 0
 167              		.cfi_startproc
 168              		@ args = 0, pretend = 0, frame = 0
 169              		@ frame_needed = 0, uses_anonymous_args = 0
 170              		@ link register save eliminated.
 171              	.LVL8:
 154:FWLIB/src/stm32f4xx_dbgmcu.c ****   /* Check the parameters */
 155:FWLIB/src/stm32f4xx_dbgmcu.c ****   assert_param(IS_DBGMCU_APB2PERIPH(DBGMCU_Periph));
 156:FWLIB/src/stm32f4xx_dbgmcu.c ****   assert_param(IS_FUNCTIONAL_STATE(NewState));
 157:FWLIB/src/stm32f4xx_dbgmcu.c **** 
 158:FWLIB/src/stm32f4xx_dbgmcu.c ****   if (NewState != DISABLE)
 172              		.loc 1 158 0
 173 0000 29B9     		cbnz	r1, .L22
 159:FWLIB/src/stm32f4xx_dbgmcu.c ****   {
 160:FWLIB/src/stm32f4xx_dbgmcu.c ****     DBGMCU->APB2FZ |= DBGMCU_Periph;
 161:FWLIB/src/stm32f4xx_dbgmcu.c ****   }
 162:FWLIB/src/stm32f4xx_dbgmcu.c ****   else
 163:FWLIB/src/stm32f4xx_dbgmcu.c ****   {
 164:FWLIB/src/stm32f4xx_dbgmcu.c ****     DBGMCU->APB2FZ &= ~DBGMCU_Periph;
 174              		.loc 1 164 0
 175 0002 054A     		ldr	r2, .L23
 176 0004 D368     		ldr	r3, [r2, #12]
 177 0006 23EA0000 		bic	r0, r3, r0
 178              	.LVL9:
 179 000a D060     		str	r0, [r2, #12]
 180 000c 7047     		bx	lr
 181              	.LVL10:
 182              	.L22:
 160:FWLIB/src/stm32f4xx_dbgmcu.c ****   }
 183              		.loc 1 160 0
 184 000e 024A     		ldr	r2, .L23
ARM GAS  /tmp/ccMQ2N6i.s 			page 7


 185 0010 D368     		ldr	r3, [r2, #12]
 186 0012 1843     		orrs	r0, r0, r3
 187              	.LVL11:
 188 0014 D060     		str	r0, [r2, #12]
 189 0016 7047     		bx	lr
 190              	.L24:
 191              		.align	2
 192              	.L23:
 193 0018 002004E0 		.word	-536600576
 194              		.cfi_endproc
 195              	.LFE127:
 197              		.text
 198              	.Letext0:
 199              		.file 2 "/usr/include/newlib/machine/_default_types.h"
 200              		.file 3 "/usr/include/newlib/sys/_stdint.h"
 201              		.file 4 "F4_CORE/core_cm4.h"
 202              		.file 5 "USER/system_stm32f4xx.h"
 203              		.file 6 "USER/stm32f4xx.h"
ARM GAS  /tmp/ccMQ2N6i.s 			page 8

