ARM GAS  /tmp/ccK7UXQb.s 			page 1


   1              		.cpu cortex-m4
   2              		.eabi_attribute 27, 1
   3              		.eabi_attribute 28, 1
   4              		.eabi_attribute 20, 1
   5              		.eabi_attribute 21, 1
   6              		.eabi_attribute 23, 3
   7              		.eabi_attribute 24, 1
   8              		.eabi_attribute 25, 1
   9              		.eabi_attribute 26, 1
  10              		.eabi_attribute 30, 1
  11              		.eabi_attribute 34, 1
  12              		.eabi_attribute 18, 4
  13              		.file	"sys.c"
  14              		.text
  15              	.Ltext0:
  16              		.cfi_sections	.debug_frame
  17              		.section	.text.WFI_SET,"ax",%progbits
  18              		.align	1
  19              		.global	WFI_SET
  20              		.syntax unified
  21              		.thumb
  22              		.thumb_func
  23              		.fpu fpv4-sp-d16
  25              	WFI_SET:
  26              	.LFB123:
  27              		.file 1 "SYS/common/sys.c"
   1:SYS/common/sys.c **** #include "sys.h"
   2:SYS/common/sys.c **** 
   3:SYS/common/sys.c **** void WFI_SET(void)
   4:SYS/common/sys.c **** {
  28              		.loc 1 4 0
  29              		.cfi_startproc
  30              		@ args = 0, pretend = 0, frame = 0
  31              		@ frame_needed = 0, uses_anonymous_args = 0
  32              		@ link register save eliminated.
   5:SYS/common/sys.c **** 	__ASM(
  33              		.loc 1 5 0
  34              		.syntax unified
  35              	@ 5 "SYS/common/sys.c" 1
  36 0000 30BF     		WFI
  37              	@ 0 "" 2
  38              		.thumb
  39              		.syntax unified
  40 0002 7047     		bx	lr
  41              		.cfi_endproc
  42              	.LFE123:
  44              		.section	.text.INTX_DISABLE,"ax",%progbits
  45              		.align	1
  46              		.global	INTX_DISABLE
  47              		.syntax unified
  48              		.thumb
  49              		.thumb_func
  50              		.fpu fpv4-sp-d16
  52              	INTX_DISABLE:
  53              	.LFB124:
   6:SYS/common/sys.c **** 		"WFI");
   7:SYS/common/sys.c **** }
ARM GAS  /tmp/ccK7UXQb.s 			page 2


   8:SYS/common/sys.c **** 
   9:SYS/common/sys.c **** void INTX_DISABLE(void)
  10:SYS/common/sys.c **** {
  54              		.loc 1 10 0
  55              		.cfi_startproc
  56              		@ args = 0, pretend = 0, frame = 0
  57              		@ frame_needed = 0, uses_anonymous_args = 0
  58              		@ link register save eliminated.
  11:SYS/common/sys.c **** 	__ASM("CPSID I");
  59              		.loc 1 11 0
  60              		.syntax unified
  61              	@ 11 "SYS/common/sys.c" 1
  62 0000 72B6     		CPSID I
  63              	@ 0 "" 2
  12:SYS/common/sys.c **** 	__ASM("BX LR");
  64              		.loc 1 12 0
  65              	@ 12 "SYS/common/sys.c" 1
  66 0002 7047     		BX LR
  67              	@ 0 "" 2
  68              		.thumb
  69              		.syntax unified
  70 0004 7047     		bx	lr
  71              		.cfi_endproc
  72              	.LFE124:
  74              		.section	.text.INTX_ENABLE,"ax",%progbits
  75              		.align	1
  76              		.global	INTX_ENABLE
  77              		.syntax unified
  78              		.thumb
  79              		.thumb_func
  80              		.fpu fpv4-sp-d16
  82              	INTX_ENABLE:
  83              	.LFB125:
  13:SYS/common/sys.c **** }
  14:SYS/common/sys.c **** 
  15:SYS/common/sys.c **** void INTX_ENABLE(void)
  16:SYS/common/sys.c **** {
  84              		.loc 1 16 0
  85              		.cfi_startproc
  86              		@ args = 0, pretend = 0, frame = 0
  87              		@ frame_needed = 0, uses_anonymous_args = 0
  88              		@ link register save eliminated.
  17:SYS/common/sys.c **** 	__ASM("CPSIE I");
  89              		.loc 1 17 0
  90              		.syntax unified
  91              	@ 17 "SYS/common/sys.c" 1
  92 0000 62B6     		CPSIE I
  93              	@ 0 "" 2
  18:SYS/common/sys.c **** 	__ASM("BX LR");
  94              		.loc 1 18 0
  95              	@ 18 "SYS/common/sys.c" 1
  96 0002 7047     		BX LR
  97              	@ 0 "" 2
  98              		.thumb
  99              		.syntax unified
 100 0004 7047     		bx	lr
 101              		.cfi_endproc
ARM GAS  /tmp/ccK7UXQb.s 			page 3


 102              	.LFE125:
 104              		.section	.text.MSR_MSP,"ax",%progbits
 105              		.align	1
 106              		.global	MSR_MSP
 107              		.syntax unified
 108              		.thumb
 109              		.thumb_func
 110              		.fpu fpv4-sp-d16
 112              	MSR_MSP:
 113              	.LFB126:
  19:SYS/common/sys.c **** }
  20:SYS/common/sys.c **** 
  21:SYS/common/sys.c **** void MSR_MSP(u32 addr)
  22:SYS/common/sys.c **** {
 114              		.loc 1 22 0
 115              		.cfi_startproc
 116              		@ args = 0, pretend = 0, frame = 0
 117              		@ frame_needed = 0, uses_anonymous_args = 0
 118              		@ link register save eliminated.
 119              	.LVL0:
  23:SYS/common/sys.c **** 	__ASM("MSR MSP, r0");
 120              		.loc 1 23 0
 121              		.syntax unified
 122              	@ 23 "SYS/common/sys.c" 1
 123 0000 80F30888 		MSR MSP, r0
 124              	@ 0 "" 2
  24:SYS/common/sys.c **** 	__ASM("BX r14");
 125              		.loc 1 24 0
 126              	@ 24 "SYS/common/sys.c" 1
 127 0004 7047     		BX r14
 128              	@ 0 "" 2
 129              		.thumb
 130              		.syntax unified
 131 0006 7047     		bx	lr
 132              		.cfi_endproc
 133              	.LFE126:
 135              		.text
 136              	.Letext0:
 137              		.file 2 "/usr/include/newlib/machine/_default_types.h"
 138              		.file 3 "/usr/include/newlib/sys/_stdint.h"
 139              		.file 4 "F4_CORE/core_cm4.h"
 140              		.file 5 "USER/system_stm32f4xx.h"
 141              		.file 6 "USER/stm32f4xx.h"
ARM GAS  /tmp/ccK7UXQb.s 			page 4

