ARM GAS  /tmp/ccZFiM0R.s 			page 1


   1              		.cpu cortex-m4
   2              		.eabi_attribute 27, 1
   3              		.eabi_attribute 28, 1
   4              		.eabi_attribute 20, 1
   5              		.eabi_attribute 21, 1
   6              		.eabi_attribute 23, 3
   7              		.eabi_attribute 24, 1
   8              		.eabi_attribute 25, 1
   9              		.eabi_attribute 26, 1
  10              		.eabi_attribute 30, 1
  11              		.eabi_attribute 34, 1
  12              		.eabi_attribute 18, 4
  13              		.file	"Task_Shell.c"
  14              		.text
  15              	.Ltext0:
  16              		.cfi_sections	.debug_frame
  17              		.section	.text.Shell_Write,"ax",%progbits
  18              		.align	1
  19              		.syntax unified
  20              		.thumb
  21              		.thumb_func
  22              		.fpu fpv4-sp-d16
  24              	Shell_Write:
  25              	.LFB125:
  26              		.file 1 "App/Task_Shell/Task_Shell.c"
   1:App/Task_Shell/Task_Shell.c **** #include "Task_Shell.h"
   2:App/Task_Shell/Task_Shell.c **** #include "drv_serial.h"
   3:App/Task_Shell/Task_Shell.c **** #include "shell_port.h"
   4:App/Task_Shell/Task_Shell.c **** 
   5:App/Task_Shell/Task_Shell.c **** Task_Handler Shell_Tsk_Hdl;
   6:App/Task_Shell/Task_Shell.c **** 
   7:App/Task_Shell/Task_Shell.c **** #define SHELL_SERIAL_PORT DrvSerial_1
   8:App/Task_Shell/Task_Shell.c **** 
   9:App/Task_Shell/Task_Shell.c **** /* internal variable */
  10:App/Task_Shell/Task_Shell.c **** TaskShell_State_List TaskState = Shell_State_Init;
  11:App/Task_Shell/Task_Shell.c **** 
  12:App/Task_Shell/Task_Shell.c **** static void Shell_RecCallback(uint8_t *data, uint16_t len)
  13:App/Task_Shell/Task_Shell.c **** {
  14:App/Task_Shell/Task_Shell.c ****     for (uint16_t i = 0; i < len; i++)
  15:App/Task_Shell/Task_Shell.c ****     {
  16:App/Task_Shell/Task_Shell.c ****         shellHandler(Shell_GetInstence(), data[i]);
  17:App/Task_Shell/Task_Shell.c ****     }
  18:App/Task_Shell/Task_Shell.c **** }
  19:App/Task_Shell/Task_Shell.c **** 
  20:App/Task_Shell/Task_Shell.c **** static int Shell_Write(const uint8_t *ch, uint16_t len)
  21:App/Task_Shell/Task_Shell.c **** {
  27              		.loc 1 21 0
  28              		.cfi_startproc
  29              		@ args = 0, pretend = 0, frame = 0
  30              		@ frame_needed = 0, uses_anonymous_args = 0
  31              	.LVL0:
  32 0000 08B5     		push	{r3, lr}
  33              	.LCFI0:
  34              		.cfi_def_cfa_offset 8
  35              		.cfi_offset 3, -8
  36              		.cfi_offset 14, -4
  22:App/Task_Shell/Task_Shell.c ****     DrvSerial.write(SHELL_SERIAL_PORT, ch, len);
ARM GAS  /tmp/ccZFiM0R.s 			page 2


  37              		.loc 1 22 0
  38 0002 034B     		ldr	r3, .L3
  39 0004 9B68     		ldr	r3, [r3, #8]
  40 0006 0A46     		mov	r2, r1
  41 0008 0146     		mov	r1, r0
  42              	.LVL1:
  43 000a 0020     		movs	r0, #0
  44              	.LVL2:
  45 000c 9847     		blx	r3
  46              	.LVL3:
  23:App/Task_Shell/Task_Shell.c **** }
  47              		.loc 1 23 0
  48 000e 08BD     		pop	{r3, pc}
  49              	.L4:
  50              		.align	2
  51              	.L3:
  52 0010 00000000 		.word	DrvSerial
  53              		.cfi_endproc
  54              	.LFE125:
  56              		.section	.text.TaskShell_Init,"ax",%progbits
  57              		.align	1
  58              		.syntax unified
  59              		.thumb
  60              		.thumb_func
  61              		.fpu fpv4-sp-d16
  63              	TaskShell_Init:
  64              	.LFB126:
  24:App/Task_Shell/Task_Shell.c **** 
  25:App/Task_Shell/Task_Shell.c **** static bool TaskShell_Init(void)
  26:App/Task_Shell/Task_Shell.c **** {
  65              		.loc 1 26 0
  66              		.cfi_startproc
  67              		@ args = 0, pretend = 0, frame = 16
  68              		@ frame_needed = 0, uses_anonymous_args = 0
  69 0000 10B5     		push	{r4, lr}
  70              	.LCFI1:
  71              		.cfi_def_cfa_offset 8
  72              		.cfi_offset 4, -8
  73              		.cfi_offset 14, -4
  74 0002 84B0     		sub	sp, sp, #16
  75              	.LCFI2:
  76              		.cfi_def_cfa_offset 24
  27:App/Task_Shell/Task_Shell.c ****     static TaskShell_State_List TaskState = Shell_State_Init;
  28:App/Task_Shell/Task_Shell.c **** 
  29:App/Task_Shell/Task_Shell.c ****     DrvSerial_Config_Typedef Serial1_Cfg;
  30:App/Task_Shell/Task_Shell.c **** 
  31:App/Task_Shell/Task_Shell.c ****     Serial1_Cfg.baudrate = Serial_115200;
  77              		.loc 1 31 0
  78 0004 4FF4E133 		mov	r3, #115200
  79 0008 0093     		str	r3, [sp]
  32:App/Task_Shell/Task_Shell.c ****     Serial1_Cfg.PreemptionPriority = 3;
  80              		.loc 1 32 0
  81 000a 0323     		movs	r3, #3
  82 000c 8DF80430 		strb	r3, [sp, #4]
  33:App/Task_Shell/Task_Shell.c ****     Serial1_Cfg.SubPriority = 0;
  83              		.loc 1 33 0
  84 0010 0020     		movs	r0, #0
ARM GAS  /tmp/ccZFiM0R.s 			page 3


  85 0012 8DF80500 		strb	r0, [sp, #5]
  34:App/Task_Shell/Task_Shell.c ****     Serial1_Cfg.mode = DrvSerial_MODE_DMA_TxRx;
  86              		.loc 1 34 0
  87 0016 0223     		movs	r3, #2
  88 0018 8DF80630 		strb	r3, [sp, #6]
  35:App/Task_Shell/Task_Shell.c ****     Serial1_Cfg.Irq_Callback = Shell_RecCallback;
  89              		.loc 1 35 0
  90 001c 094B     		ldr	r3, .L9
  91 001e 0293     		str	r3, [sp, #8]
  36:App/Task_Shell/Task_Shell.c ****     Serial1_Cfg.send_mode = DrvSerial_Send_Async;
  92              		.loc 1 36 0
  93 0020 8DF80C00 		strb	r0, [sp, #12]
  37:App/Task_Shell/Task_Shell.c **** 
  38:App/Task_Shell/Task_Shell.c ****     if (DrvSerial.ctl(SHELL_SERIAL_PORT, DrvSerial_Open, (uint32_t)&Serial1_Cfg, sizeof(Serial1_Cfg
  94              		.loc 1 38 0
  95 0024 084B     		ldr	r3, .L9+4
  96 0026 1C68     		ldr	r4, [r3]
  97 0028 1023     		movs	r3, #16
  98 002a 6A46     		mov	r2, sp
  99 002c 0146     		mov	r1, r0
 100 002e A047     		blx	r4
 101              	.LVL4:
 102 0030 0446     		mov	r4, r0
 103 0032 10B9     		cbnz	r0, .L8
 104              	.L6:
  39:App/Task_Shell/Task_Shell.c ****     {
  40:App/Task_Shell/Task_Shell.c ****         Shell_Init(Shell_Write);
  41:App/Task_Shell/Task_Shell.c ****         return true;
  42:App/Task_Shell/Task_Shell.c ****     }
  43:App/Task_Shell/Task_Shell.c **** 
  44:App/Task_Shell/Task_Shell.c ****     return false;
  45:App/Task_Shell/Task_Shell.c **** }
 105              		.loc 1 45 0
 106 0034 2046     		mov	r0, r4
 107 0036 04B0     		add	sp, sp, #16
 108              	.LCFI3:
 109              		.cfi_remember_state
 110              		.cfi_def_cfa_offset 8
 111              		@ sp needed
 112 0038 10BD     		pop	{r4, pc}
 113              	.L8:
 114              	.LCFI4:
 115              		.cfi_restore_state
  40:App/Task_Shell/Task_Shell.c ****         return true;
 116              		.loc 1 40 0
 117 003a 0448     		ldr	r0, .L9+8
 118 003c FFF7FEFF 		bl	Shell_Init
 119              	.LVL5:
  41:App/Task_Shell/Task_Shell.c ****     }
 120              		.loc 1 41 0
 121 0040 F8E7     		b	.L6
 122              	.L10:
 123 0042 00BF     		.align	2
 124              	.L9:
 125 0044 00000000 		.word	Shell_RecCallback
 126 0048 00000000 		.word	DrvSerial
 127 004c 00000000 		.word	Shell_Write
ARM GAS  /tmp/ccZFiM0R.s 			page 4


 128              		.cfi_endproc
 129              	.LFE126:
 131              		.section	.text.Shell_RecCallback,"ax",%progbits
 132              		.align	1
 133              		.syntax unified
 134              		.thumb
 135              		.thumb_func
 136              		.fpu fpv4-sp-d16
 138              	Shell_RecCallback:
 139              	.LFB124:
  13:App/Task_Shell/Task_Shell.c ****     for (uint16_t i = 0; i < len; i++)
 140              		.loc 1 13 0
 141              		.cfi_startproc
 142              		@ args = 0, pretend = 0, frame = 0
 143              		@ frame_needed = 0, uses_anonymous_args = 0
 144              	.LVL6:
 145 0000 70B5     		push	{r4, r5, r6, lr}
 146              	.LCFI5:
 147              		.cfi_def_cfa_offset 16
 148              		.cfi_offset 4, -16
 149              		.cfi_offset 5, -12
 150              		.cfi_offset 6, -8
 151              		.cfi_offset 14, -4
 152 0002 0646     		mov	r6, r0
 153 0004 0D46     		mov	r5, r1
 154              	.LVL7:
 155              	.LBB2:
  14:App/Task_Shell/Task_Shell.c ****     {
 156              		.loc 1 14 0
 157 0006 0024     		movs	r4, #0
 158 0008 06E0     		b	.L12
 159              	.LVL8:
 160              	.L13:
  16:App/Task_Shell/Task_Shell.c ****     }
 161              		.loc 1 16 0 discriminator 3
 162 000a FFF7FEFF 		bl	Shell_GetInstence
 163              	.LVL9:
 164 000e 315D     		ldrb	r1, [r6, r4]	@ zero_extendqisi2
 165 0010 FFF7FEFF 		bl	shellHandler
 166              	.LVL10:
  14:App/Task_Shell/Task_Shell.c ****     {
 167              		.loc 1 14 0 discriminator 3
 168 0014 0134     		adds	r4, r4, #1
 169              	.LVL11:
 170 0016 A4B2     		uxth	r4, r4
 171              	.LVL12:
 172              	.L12:
  14:App/Task_Shell/Task_Shell.c ****     {
 173              		.loc 1 14 0 is_stmt 0 discriminator 1
 174 0018 AC42     		cmp	r4, r5
 175 001a F6D3     		bcc	.L13
 176              	.LBE2:
  18:App/Task_Shell/Task_Shell.c **** 
 177              		.loc 1 18 0 is_stmt 1
 178 001c 70BD     		pop	{r4, r5, r6, pc}
 179              		.cfi_endproc
 180              	.LFE124:
ARM GAS  /tmp/ccZFiM0R.s 			page 5


 182              		.section	.text.TaskShell_Core,"ax",%progbits
 183              		.align	1
 184              		.global	TaskShell_Core
 185              		.syntax unified
 186              		.thumb
 187              		.thumb_func
 188              		.fpu fpv4-sp-d16
 190              	TaskShell_Core:
 191              	.LFB127:
  46:App/Task_Shell/Task_Shell.c **** 
  47:App/Task_Shell/Task_Shell.c **** void TaskShell_Core(Task_Handler self)
  48:App/Task_Shell/Task_Shell.c **** {
 192              		.loc 1 48 0
 193              		.cfi_startproc
 194              		@ args = 0, pretend = 0, frame = 0
 195              		@ frame_needed = 0, uses_anonymous_args = 0
 196              	.LVL13:
 197 0000 08B5     		push	{r3, lr}
 198              	.LCFI6:
 199              		.cfi_def_cfa_offset 8
 200              		.cfi_offset 3, -8
 201              		.cfi_offset 14, -4
  49:App/Task_Shell/Task_Shell.c ****     switch ((uint8_t)TaskState)
 202              		.loc 1 49 0
 203 0002 054B     		ldr	r3, .L20
 204 0004 1B78     		ldrb	r3, [r3]	@ zero_extendqisi2
 205 0006 03B1     		cbz	r3, .L19
 206              	.LVL14:
 207              	.L15:
 208 0008 08BD     		pop	{r3, pc}
 209              	.LVL15:
 210              	.L19:
  50:App/Task_Shell/Task_Shell.c ****     {
  51:App/Task_Shell/Task_Shell.c ****     case Shell_State_Init:
  52:App/Task_Shell/Task_Shell.c ****         TaskShell_Init();
 211              		.loc 1 52 0
 212 000a FFF7FEFF 		bl	TaskShell_Init
 213              	.LVL16:
  53:App/Task_Shell/Task_Shell.c ****         TaskState = Shell_State_Polling;
 214              		.loc 1 53 0
 215 000e 0122     		movs	r2, #1
 216 0010 014B     		ldr	r3, .L20
 217 0012 1A70     		strb	r2, [r3]
  54:App/Task_Shell/Task_Shell.c ****         break;
  55:App/Task_Shell/Task_Shell.c **** 
  56:App/Task_Shell/Task_Shell.c ****     case Shell_State_Polling:
  57:App/Task_Shell/Task_Shell.c ****         break;
  58:App/Task_Shell/Task_Shell.c **** 
  59:App/Task_Shell/Task_Shell.c ****     default:
  60:App/Task_Shell/Task_Shell.c ****         break;
  61:App/Task_Shell/Task_Shell.c ****     }
  62:App/Task_Shell/Task_Shell.c **** }
 218              		.loc 1 62 0
 219 0014 F8E7     		b	.L15
 220              	.L21:
 221 0016 00BF     		.align	2
 222              	.L20:
ARM GAS  /tmp/ccZFiM0R.s 			page 6


 223 0018 00000000 		.word	.LANCHOR0
 224              		.cfi_endproc
 225              	.LFE127:
 227              		.global	TaskState
 228              		.comm	Shell_Tsk_Hdl,4,4
 229              		.section	.bss.TaskState,"aw",%nobits
 230              		.set	.LANCHOR0,. + 0
 233              	TaskState:
 234 0000 00       		.space	1
 235              		.text
 236              	.Letext0:
 237              		.file 2 "/usr/include/newlib/machine/_default_types.h"
 238              		.file 3 "/usr/include/newlib/sys/lock.h"
 239              		.file 4 "/usr/include/newlib/sys/_types.h"
 240              		.file 5 "/usr/lib/gcc/arm-none-eabi/6.3.1/include/stddef.h"
 241              		.file 6 "/usr/include/newlib/sys/reent.h"
 242              		.file 7 "/usr/include/newlib/sys/_stdint.h"
 243              		.file 8 "/usr/include/newlib/stdlib.h"
 244              		.file 9 "SYS/task_manager/task_manager.h"
 245              		.file 10 "App/Task_Shell/Task_Shell.h"
 246              		.file 11 "F4_CORE/core_cm4.h"
 247              		.file 12 "USER/system_stm32f4xx.h"
 248              		.file 13 "Bsp/periph_serial.h"
 249              		.file 14 "Drv/drv_serial.h"
 250              		.file 15 "SYS/shell/shell_port.h"
 251              		.file 16 "SYS/shell/shell.h"
ARM GAS  /tmp/ccZFiM0R.s 			page 7

