ARM GAS  /tmp/ccMrs0Mo.s 			page 1


   1              		.cpu cortex-m4
   2              		.eabi_attribute 27, 1
   3              		.eabi_attribute 28, 1
   4              		.eabi_attribute 20, 1
   5              		.eabi_attribute 21, 1
   6              		.eabi_attribute 23, 3
   7              		.eabi_attribute 24, 1
   8              		.eabi_attribute 25, 1
   9              		.eabi_attribute 26, 1
  10              		.eabi_attribute 30, 1
  11              		.eabi_attribute 34, 1
  12              		.eabi_attribute 18, 4
  13              		.file	"task_manager.c"
  14              		.text
  15              	.Ltext0:
  16              		.cfi_sections	.debug_frame
  17              		.section	.text.Task_Exit,"ax",%progbits
  18              		.align	1
  19              		.arch armv7e-m
  20              		.syntax unified
  21              		.thumb
  22              		.thumb_func
  23              		.fpu fpv4-sp-d16
  25              	Task_Exit:
  26              	.LFB129:
  27              		.file 1 "SYS/task_manager/task_manager.c"
   1:SYS/task_manager/task_manager.c **** #include "task_manager.h"
   2:SYS/task_manager/task_manager.c **** #include "runtime.h"
   3:SYS/task_manager/task_manager.c **** #include "string.h"
   4:SYS/task_manager/task_manager.c **** #include "stddef.h"
   5:SYS/task_manager/task_manager.c **** #include "periph_gpio.h"
   6:SYS/task_manager/task_manager.c **** #include "periph_timer.h"
   7:SYS/task_manager/task_manager.c **** #include <stdio.h>
   8:SYS/task_manager/task_manager.c **** #include "task_manager_cfg.h"
   9:SYS/task_manager/task_manager.c **** #include "binary_tree.h"
  10:SYS/task_manager/task_manager.c **** #include "linked_list.h"
  11:SYS/task_manager/task_manager.c **** 
  12:SYS/task_manager/task_manager.c **** //coder: 8_B!T0
  13:SYS/task_manager/task_manager.c **** //bref:
  14:SYS/task_manager/task_manager.c **** //estabishment a task running system with priority calling functional
  15:SYS/task_manager/task_manager.c **** //alway calling the highest priority function in all function under the ready table
  16:SYS/task_manager/task_manager.c **** //reference to ucos (version earler than v8.6)
  17:SYS/task_manager/task_manager.c **** 
  18:SYS/task_manager/task_manager.c **** /*
  19:SYS/task_manager/task_manager.c **** *******************************   TASK Handle    *******************************
  20:SYS/task_manager/task_manager.c **** 
  21:SYS/task_manager/task_manager.c ****              task0   task1   task2   task3   task4   task5   task6   task7
  22:SYS/task_manager/task_manager.c **** group0     |_______|_______|_______|_______|_______|_______|_______|_______|
  23:SYS/task_manager/task_manager.c **** group1     |_______|_______|_______|_______|_______|_______|_______|_______|
  24:SYS/task_manager/task_manager.c **** group2     |_______|_______|_______|_______|_______|_______|_______|_______|
  25:SYS/task_manager/task_manager.c **** group3     |_______|_______|_______|_______|_______|_______|_______|_______|
  26:SYS/task_manager/task_manager.c **** group4     |_______|_______|_______|_______|_______|_______|_______|_______|
  27:SYS/task_manager/task_manager.c **** group5     |_______|_______|_______|_______|_______|_______|_______|_______|
  28:SYS/task_manager/task_manager.c **** group6     |_______|_______|_______|_______|_______|_______|_______|_______|
  29:SYS/task_manager/task_manager.c **** group7     |_______|_______|_______|_______|_______|_______|_______|_______|
  30:SYS/task_manager/task_manager.c **** 
  31:SYS/task_manager/task_manager.c **** */
ARM GAS  /tmp/ccMrs0Mo.s 			page 2


  32:SYS/task_manager/task_manager.c **** 
  33:SYS/task_manager/task_manager.c **** #define GET_TASKGROUP_PRIORITY(x) x >> 3
  34:SYS/task_manager/task_manager.c **** #define GET_TASKINGROUP_PRIORITY(y) y & 0X07
  35:SYS/task_manager/task_manager.c **** 
  36:SYS/task_manager/task_manager.c **** static const uint8_t Tsk_Handle[256] = {0, 0, 1, 0, 2, 0, 1, 0, 3, 0, 1, 0, 2, 0, 1, 0,  //0x00 ~ 0
  37:SYS/task_manager/task_manager.c ****                                         4, 0, 1, 0, 2, 0, 1, 0, 3, 0, 1, 0, 2, 0, 1, 0,  //0x10 ~ 0
  38:SYS/task_manager/task_manager.c ****                                         5, 0, 1, 0, 2, 0, 1, 0, 3, 0, 1, 0, 2, 0, 1, 0,  //0x20 ~ 0
  39:SYS/task_manager/task_manager.c ****                                         4, 0, 1, 0, 2, 0, 1, 0, 3, 0, 1, 0, 2, 0, 1, 0,  //0x30 ~ 0
  40:SYS/task_manager/task_manager.c ****                                         6, 0, 1, 0, 2, 0, 1, 0, 3, 0, 1, 0, 2, 0, 1, 0,  //0x40 ~ 0
  41:SYS/task_manager/task_manager.c ****                                         4, 0, 1, 0, 2, 0, 1, 0, 3, 0, 1, 0, 2, 0, 1, 0,  //0x50 ~ 0
  42:SYS/task_manager/task_manager.c ****                                         5, 0, 1, 0, 2, 0, 1, 0, 3, 0, 1, 0, 2, 0, 1, 0,  //0x60 ~ 0
  43:SYS/task_manager/task_manager.c ****                                         4, 0, 1, 0, 2, 0, 1, 0, 3, 0, 1, 0, 2, 0, 1, 0,  //0x70 ~ 0
  44:SYS/task_manager/task_manager.c ****                                         7, 0, 1, 0, 2, 0, 1, 0, 3, 0, 1, 0, 2, 0, 1, 0,  //0x80 ~ 0
  45:SYS/task_manager/task_manager.c ****                                         4, 0, 1, 0, 2, 0, 1, 0, 3, 0, 1, 0, 2, 0, 1, 0,  //0x90 ~ 0
  46:SYS/task_manager/task_manager.c ****                                         5, 0, 1, 0, 2, 0, 1, 0, 3, 0, 1, 0, 2, 0, 1, 0,  //0xA0 ~ 0
  47:SYS/task_manager/task_manager.c ****                                         4, 0, 1, 0, 2, 0, 1, 0, 3, 0, 1, 0, 2, 0, 1, 0,  //0xB0 ~ 0
  48:SYS/task_manager/task_manager.c ****                                         6, 0, 1, 0, 2, 0, 1, 0, 3, 0, 1, 0, 2, 0, 1, 0,  //0xC0 ~ 0
  49:SYS/task_manager/task_manager.c ****                                         4, 0, 1, 0, 2, 0, 1, 0, 3, 0, 1, 0, 2, 0, 1, 0,  //0xD0 ~ 0
  50:SYS/task_manager/task_manager.c ****                                         5, 0, 1, 0, 2, 0, 1, 0, 3, 0, 1, 0, 2, 0, 1, 0,  //0xE0 ~ 0
  51:SYS/task_manager/task_manager.c ****                                         4, 0, 1, 0, 2, 0, 1, 0, 3, 0, 1, 0, 2, 0, 1, 0}; //0xF0 ~ 0
  52:SYS/task_manager/task_manager.c **** 
  53:SYS/task_manager/task_manager.c **** Task *Task_Ptr[Group_Sum][Task_Priority_Sum];
  54:SYS/task_manager/task_manager.c **** volatile Task *CurRunTsk_Ptr = NULL;
  55:SYS/task_manager/task_manager.c **** volatile Task *NxtRunTsk_Ptr = NULL;
  56:SYS/task_manager/task_manager.c **** 
  57:SYS/task_manager/task_manager.c **** static volatile TskMap_State TskHdl_RdyMap = {.Grp = 0, .TskInGrp[0] = 0, .TskInGrp[1] = 0, .TskInG
  58:SYS/task_manager/task_manager.c **** static volatile TskMap_State TskHdl_PndMap = {.Grp = 0, .TskInGrp[0] = 0, .TskInGrp[1] = 0, .TskInG
  59:SYS/task_manager/task_manager.c **** static volatile TskMap_State TskHdl_BlkMap = {.Grp = 0, .TskInGrp[0] = 0, .TskInGrp[1] = 0, .TskInG
  60:SYS/task_manager/task_manager.c **** 
  61:SYS/task_manager/task_manager.c **** static Task_Create_RegList_s TskCrt_RegList = {.num = 0,
  62:SYS/task_manager/task_manager.c ****                                                .list = {.prv = NULL, .nxt = NULL, .data = NULL}};
  63:SYS/task_manager/task_manager.c **** static volatile TaskSys_State TskSys_state = TaskSys_Initial;
  64:SYS/task_manager/task_manager.c **** static uint32_t TaskSys_Idle_US = 0;
  65:SYS/task_manager/task_manager.c **** static float TaskSys_Idle_Ocupy = 0.0f;
  66:SYS/task_manager/task_manager.c **** static SYSTEM_RunTime TaskSys_StartTime;
  67:SYS/task_manager/task_manager.c **** 
  68:SYS/task_manager/task_manager.c **** static void Task_SetReady(Task *tsk);
  69:SYS/task_manager/task_manager.c **** static void Task_ClearReady(Task *tsk);
  70:SYS/task_manager/task_manager.c **** static void Task_StopCountTargetFunc_Cast(Task *tsk_ptr);
  71:SYS/task_manager/task_manager.c **** 
  72:SYS/task_manager/task_manager.c **** #if (TASK_SCHEDULER_TYPE == PREEMPTIVE_SCHDULER)
  73:SYS/task_manager/task_manager.c **** volatile Task *PndHstTsk_Ptr = NULL;
  74:SYS/task_manager/task_manager.c **** 
  75:SYS/task_manager/task_manager.c **** volatile TaskStack_ControlBlock CurTsk_TCB;
  76:SYS/task_manager/task_manager.c **** volatile TaskStack_ControlBlock NxtTsk_TCB;
  77:SYS/task_manager/task_manager.c **** 
  78:SYS/task_manager/task_manager.c **** static uint32_t Task_OS_StkMem[MSP_MEM_SPACE_SIZE];
  79:SYS/task_manager/task_manager.c **** uint32_t *Task_OS_ExpStkBase;
  80:SYS/task_manager/task_manager.c **** 
  81:SYS/task_manager/task_manager.c **** static void Task_SetStkPtr_Val(Task *tsk);
  82:SYS/task_manager/task_manager.c **** static void Task_Set_CountRunnigTime_State(Task *tsk_ptr, uint8_t enable_state);
  83:SYS/task_manager/task_manager.c **** static void Task_ClearPending(Task *tsk);
  84:SYS/task_manager/task_manager.c **** static void Task_ClearBlock(Task *tsk);
  85:SYS/task_manager/task_manager.c **** static void Task_SetBASEPRI(uint32_t ulBASEPRI);
  86:SYS/task_manager/task_manager.c **** 
  87:SYS/task_manager/task_manager.c **** void Task_SetPending(Task *tsk);
  88:SYS/task_manager/task_manager.c **** #endif
ARM GAS  /tmp/ccMrs0Mo.s 			page 3


  89:SYS/task_manager/task_manager.c **** 
  90:SYS/task_manager/task_manager.c **** static void Task_Exec(Task *tsk_ptr);
  91:SYS/task_manager/task_manager.c **** static void Task_SetPendSVPro(void);
  92:SYS/task_manager/task_manager.c **** void Task_TriggerPendSV(void);
  93:SYS/task_manager/task_manager.c **** 
  94:SYS/task_manager/task_manager.c **** static void ReSet_Task_Data(Task *task)
  95:SYS/task_manager/task_manager.c **** {
  96:SYS/task_manager/task_manager.c ****     task->priority.Suction.Group_Level = 0;
  97:SYS/task_manager/task_manager.c ****     task->priority.Suction.Task_Level = 0;
  98:SYS/task_manager/task_manager.c ****     task->Task_name = NULL;
  99:SYS/task_manager/task_manager.c ****     task->exec_frq = 0;
 100:SYS/task_manager/task_manager.c ****     task->exec_interval_us = 0;
 101:SYS/task_manager/task_manager.c ****     task->Exec_Func = NULL;
 102:SYS/task_manager/task_manager.c **** 
 103:SYS/task_manager/task_manager.c ****     task->Exec_status.detect_exec_frq = 0;
 104:SYS/task_manager/task_manager.c ****     task->Exec_status.detect_exec_time_arv = 0;
 105:SYS/task_manager/task_manager.c ****     task->Exec_status.detect_exec_time_max = 0;
 106:SYS/task_manager/task_manager.c ****     task->Exec_status.Exec_Times = 0;
 107:SYS/task_manager/task_manager.c ****     task->Exec_status.cpu_opy = 0;
 108:SYS/task_manager/task_manager.c ****     task->Exec_status.totlal_running_time = 0;
 109:SYS/task_manager/task_manager.c **** 
 110:SYS/task_manager/task_manager.c ****     task->delay_info.on_delay = false;
 111:SYS/task_manager/task_manager.c ****     task->delay_info.tsk_hdl = 0;
 112:SYS/task_manager/task_manager.c ****     task->delay_info.time_unit = 0;
 113:SYS/task_manager/task_manager.c **** 
 114:SYS/task_manager/task_manager.c ****     List_ItemInit(&task->delay_item, &task->delay_info);
 115:SYS/task_manager/task_manager.c **** 
 116:SYS/task_manager/task_manager.c ****     RuntimeObj_Reset(&(task->Exec_status.Exec_Time));
 117:SYS/task_manager/task_manager.c ****     RuntimeObj_Reset(&(task->Exec_status.Init_Time));
 118:SYS/task_manager/task_manager.c ****     RuntimeObj_Reset(&(task->Exec_status.Start_Time));
 119:SYS/task_manager/task_manager.c **** 
 120:SYS/task_manager/task_manager.c ****     task->Exec_status.State = Task_Done;
 121:SYS/task_manager/task_manager.c **** }
 122:SYS/task_manager/task_manager.c **** 
 123:SYS/task_manager/task_manager.c **** static void Task_ReSet_BaseInfo(Task_Base_Info *info)
 124:SYS/task_manager/task_manager.c **** {
 125:SYS/task_manager/task_manager.c ****     info->avg_exec_us = 0;
 126:SYS/task_manager/task_manager.c ****     info->cpu_opy = 0;
 127:SYS/task_manager/task_manager.c ****     info->exec_frq = 0;
 128:SYS/task_manager/task_manager.c ****     info->exec_times = 0;
 129:SYS/task_manager/task_manager.c ****     info->group = 0;
 130:SYS/task_manager/task_manager.c ****     info->max_exec_us = 0;
 131:SYS/task_manager/task_manager.c ****     info->priority = 0;
 132:SYS/task_manager/task_manager.c **** 
 133:SYS/task_manager/task_manager.c ****     memset(info->name, NULL, TASK_NAME_MAXLEN);
 134:SYS/task_manager/task_manager.c **** }
 135:SYS/task_manager/task_manager.c **** 
 136:SYS/task_manager/task_manager.c **** static bool TaskSys_Init(void)
 137:SYS/task_manager/task_manager.c **** {
 138:SYS/task_manager/task_manager.c **** #if (TASK_SCHEDULER_TYPE == PREEMPTIVE_SCHDULER)
 139:SYS/task_manager/task_manager.c ****     //init OS Stack Memory Space
 140:SYS/task_manager/task_manager.c ****     memset(Task_OS_StkMem, NULL, MSP_MEM_SPACE_SIZE);
 141:SYS/task_manager/task_manager.c **** 
 142:SYS/task_manager/task_manager.c ****     Task_OS_ExpStkBase = Task_OS_StkMem + MSP_MEM_SPACE_SIZE - 1;
 143:SYS/task_manager/task_manager.c **** #endif
 144:SYS/task_manager/task_manager.c **** 
 145:SYS/task_manager/task_manager.c ****     //periph_Timer_CounterMode_Init(Timer_4, TimerCounter_1M_Prescaler, TimerCounter_1us_Period, 0,
ARM GAS  /tmp/ccMrs0Mo.s 			page 4


 146:SYS/task_manager/task_manager.c ****     //periph_Timer_Counter_SetEnable(Timer_4, DISABLE);
 147:SYS/task_manager/task_manager.c **** 
 148:SYS/task_manager/task_manager.c ****     uint8_t index = 0;
 149:SYS/task_manager/task_manager.c **** 
 150:SYS/task_manager/task_manager.c ****     for (uint8_t group_index = Group_0; group_index < Group_Sum; group_index++)
 151:SYS/task_manager/task_manager.c ****     {
 152:SYS/task_manager/task_manager.c ****         for (uint8_t task_priority = Task_Priority_0; task_priority < Task_Priority_Sum; task_prior
 153:SYS/task_manager/task_manager.c ****         {
 154:SYS/task_manager/task_manager.c ****             ReSet_Task_Data(Task_Ptr[group_index][task_priority]);
 155:SYS/task_manager/task_manager.c **** 
 156:SYS/task_manager/task_manager.c **** #if (TASK_SCHEDULER_TYPE == PREEMPTIVE_SCHDULER)
 157:SYS/task_manager/task_manager.c ****             Task_Ptr[group_index][task_priority]->Stack_Depth = 0;
 158:SYS/task_manager/task_manager.c ****             Task_Ptr[group_index][task_priority]->TCB.Stack = NULL;
 159:SYS/task_manager/task_manager.c ****             Task_Ptr[group_index][task_priority]->TCB.Top_Stk_Ptr = NULL;
 160:SYS/task_manager/task_manager.c **** #endif
 161:SYS/task_manager/task_manager.c ****             Task_Ptr[group_index][task_priority] = NULL;
 162:SYS/task_manager/task_manager.c **** 
 163:SYS/task_manager/task_manager.c ****             index++;
 164:SYS/task_manager/task_manager.c ****         }
 165:SYS/task_manager/task_manager.c ****     }
 166:SYS/task_manager/task_manager.c **** 
 167:SYS/task_manager/task_manager.c ****     TskCrt_RegList.num = 0;
 168:SYS/task_manager/task_manager.c ****     TskCrt_RegList.list.data = NULL;
 169:SYS/task_manager/task_manager.c ****     TskCrt_RegList.list.nxt = NULL;
 170:SYS/task_manager/task_manager.c ****     TskCrt_RegList.list.prv = NULL;
 171:SYS/task_manager/task_manager.c **** 
 172:SYS/task_manager/task_manager.c ****     ReSet_Task_Data(CurRunTsk_Ptr);
 173:SYS/task_manager/task_manager.c ****     TskSys_state = TaskSys_Prepare;
 174:SYS/task_manager/task_manager.c **** }
 175:SYS/task_manager/task_manager.c **** 
 176:SYS/task_manager/task_manager.c **** static void Task_Exit(void)
 177:SYS/task_manager/task_manager.c **** {
  28              		.loc 1 177 1 view -0
  29              		.cfi_startproc
  30              		@ Volatile: function does not return.
  31              		@ args = 0, pretend = 0, frame = 0
  32              		@ frame_needed = 0, uses_anonymous_args = 0
  33              		@ link register save eliminated.
  34              	.L2:
 178:SYS/task_manager/task_manager.c ****     //task caller will not exit
 179:SYS/task_manager/task_manager.c ****     while (true)
  35              		.loc 1 179 5 discriminator 1 view .LVU1
 180:SYS/task_manager/task_manager.c ****     {
 181:SYS/task_manager/task_manager.c ****     }
  36              		.loc 1 181 5 discriminator 1 view .LVU2
  37 0000 FEE7     		b	.L2
  38              		.cfi_endproc
  39              	.LFE129:
  41              		.section	.text.Task_SetBASEPRI,"ax",%progbits
  42              		.align	1
  43              		.syntax unified
  44              		.thumb
  45              		.thumb_func
  46              		.fpu fpv4-sp-d16
  48              	Task_SetBASEPRI:
  49              	.LVL0:
  50              	.LFB137:
ARM GAS  /tmp/ccMrs0Mo.s 			page 5


 182:SYS/task_manager/task_manager.c **** }
 183:SYS/task_manager/task_manager.c **** 
 184:SYS/task_manager/task_manager.c **** static void Task_Idle(void)
 185:SYS/task_manager/task_manager.c **** {
 186:SYS/task_manager/task_manager.c ****     SYSTEM_RunTime cur_time;
 187:SYS/task_manager/task_manager.c ****     SYSTEM_RunTime time_diff;
 188:SYS/task_manager/task_manager.c **** 
 189:SYS/task_manager/task_manager.c ****     RuntimeObj_Reset(&time_diff);
 190:SYS/task_manager/task_manager.c ****     RuntimeObj_Reset(&cur_time);
 191:SYS/task_manager/task_manager.c **** 
 192:SYS/task_manager/task_manager.c ****     cur_time = Get_CurrentRunningUs();
 193:SYS/task_manager/task_manager.c ****     time_diff = Get_TimeDifference_Between(TaskSys_StartTime, cur_time);
 194:SYS/task_manager/task_manager.c **** 
 195:SYS/task_manager/task_manager.c ****     TaskSys_Idle_US++;
 196:SYS/task_manager/task_manager.c ****     TaskSys_Idle_Ocupy = (TaskSys_Idle_US / (float)time_diff);
 197:SYS/task_manager/task_manager.c **** }
 198:SYS/task_manager/task_manager.c **** 
 199:SYS/task_manager/task_manager.c **** #if (TASK_SCHEDULER_TYPE == PREEMPTIVE_SCHDULER)
 200:SYS/task_manager/task_manager.c **** 
 201:SYS/task_manager/task_manager.c **** void Task_Resume_FromBlock(Task *tsk)
 202:SYS/task_manager/task_manager.c **** {
 203:SYS/task_manager/task_manager.c ****     Task_ClearBlock(tsk);
 204:SYS/task_manager/task_manager.c ****     Task_SetReady(tsk);
 205:SYS/task_manager/task_manager.c ****     //Task_Set_CountRunnigTime_State(tsk, ENABLE);
 206:SYS/task_manager/task_manager.c **** 
 207:SYS/task_manager/task_manager.c ****     tsk->Exec_status.State = Task_Running;
 208:SYS/task_manager/task_manager.c ****     NxtTsk_TCB.Top_Stk_Ptr = &tsk->TCB.Top_Stk_Ptr;
 209:SYS/task_manager/task_manager.c ****     NxtTsk_TCB.Stack = tsk->TCB.Stack;
 210:SYS/task_manager/task_manager.c ****     CurRunTsk_Ptr = tsk;
 211:SYS/task_manager/task_manager.c **** }
 212:SYS/task_manager/task_manager.c **** 
 213:SYS/task_manager/task_manager.c **** void Task_SetBlock(Task *tsk)
 214:SYS/task_manager/task_manager.c **** {
 215:SYS/task_manager/task_manager.c ****     uint8_t grp_id = GET_TASKGROUP_PRIORITY(tsk->priority.Priority);
 216:SYS/task_manager/task_manager.c ****     uint8_t tsk_id = GET_TASKINGROUP_PRIORITY(tsk->priority.Priority);
 217:SYS/task_manager/task_manager.c **** 
 218:SYS/task_manager/task_manager.c ****     //set current group block
 219:SYS/task_manager/task_manager.c ****     TskHdl_BlkMap.Grp.Flg |= 1 << grp_id;
 220:SYS/task_manager/task_manager.c ****     //set current task under this group flag to block
 221:SYS/task_manager/task_manager.c ****     TskHdl_BlkMap.TskInGrp[grp_id].Flg |= 1 << tsk_id;
 222:SYS/task_manager/task_manager.c **** 
 223:SYS/task_manager/task_manager.c ****     //reset task in ready reg group
 224:SYS/task_manager/task_manager.c ****     TskHdl_RdyMap.TskInGrp[grp_id].Flg &= ~(1 << tsk_id);
 225:SYS/task_manager/task_manager.c ****     //if no task ready then clear group reg
 226:SYS/task_manager/task_manager.c ****     if (TskHdl_RdyMap.TskInGrp[grp_id].Flg == 0)
 227:SYS/task_manager/task_manager.c ****     {
 228:SYS/task_manager/task_manager.c ****         TskHdl_RdyMap.Grp.Flg &= ~(1 << grp_id);
 229:SYS/task_manager/task_manager.c ****     }
 230:SYS/task_manager/task_manager.c **** 
 231:SYS/task_manager/task_manager.c ****     //set task state
 232:SYS/task_manager/task_manager.c ****     tsk->Exec_status.State = Task_Block;
 233:SYS/task_manager/task_manager.c **** 
 234:SYS/task_manager/task_manager.c ****     //Task_StopCountTargetFunc_Cast(tsk);
 235:SYS/task_manager/task_manager.c ****     //Task_Set_CountRunnigTime_State(tsk, DISABLE);
 236:SYS/task_manager/task_manager.c **** 
 237:SYS/task_manager/task_manager.c ****     CurRunTsk_Ptr = NULL;
 238:SYS/task_manager/task_manager.c **** 
ARM GAS  /tmp/ccMrs0Mo.s 			page 6


 239:SYS/task_manager/task_manager.c ****     Task_SetBASEPRI(0);
 240:SYS/task_manager/task_manager.c **** }
 241:SYS/task_manager/task_manager.c **** 
 242:SYS/task_manager/task_manager.c **** void Task_SetPending(Task *tsk)
 243:SYS/task_manager/task_manager.c **** {
 244:SYS/task_manager/task_manager.c ****     uint8_t grp_id = GET_TASKGROUP_PRIORITY(tsk->priority.Priority);
 245:SYS/task_manager/task_manager.c ****     uint8_t tsk_id = GET_TASKINGROUP_PRIORITY(tsk->priority.Priority);
 246:SYS/task_manager/task_manager.c **** 
 247:SYS/task_manager/task_manager.c ****     //set current group pending
 248:SYS/task_manager/task_manager.c ****     TskHdl_PndMap.Grp.Flg |= 1 << grp_id;
 249:SYS/task_manager/task_manager.c ****     //set current task under this group flag to ready
 250:SYS/task_manager/task_manager.c ****     TskHdl_PndMap.TskInGrp[grp_id].Flg |= 1 << tsk_id;
 251:SYS/task_manager/task_manager.c **** 
 252:SYS/task_manager/task_manager.c ****     //set task state
 253:SYS/task_manager/task_manager.c ****     tsk->Exec_status.State = Task_Pending;
 254:SYS/task_manager/task_manager.c **** }
 255:SYS/task_manager/task_manager.c **** 
 256:SYS/task_manager/task_manager.c **** void Task_SwitchStack(void)
 257:SYS/task_manager/task_manager.c **** {
 258:SYS/task_manager/task_manager.c ****     CurTsk_TCB = NxtTsk_TCB;
 259:SYS/task_manager/task_manager.c **** }
 260:SYS/task_manager/task_manager.c **** 
 261:SYS/task_manager/task_manager.c **** Task *Task_Get_HighestRank_PndTask(void)
 262:SYS/task_manager/task_manager.c **** {
 263:SYS/task_manager/task_manager.c ****     uint8_t grp_id;
 264:SYS/task_manager/task_manager.c ****     uint8_t tsk_id;
 265:SYS/task_manager/task_manager.c **** 
 266:SYS/task_manager/task_manager.c ****     if (TskHdl_PndMap.Grp.Flg)
 267:SYS/task_manager/task_manager.c ****     {
 268:SYS/task_manager/task_manager.c ****         //find group
 269:SYS/task_manager/task_manager.c ****         grp_id = Tsk_Handle[TskHdl_PndMap.Grp.Flg];
 270:SYS/task_manager/task_manager.c ****         //find task in group
 271:SYS/task_manager/task_manager.c ****         tsk_id = Tsk_Handle[TskHdl_PndMap.TskInGrp[grp_id].Flg];
 272:SYS/task_manager/task_manager.c ****     }
 273:SYS/task_manager/task_manager.c ****     else
 274:SYS/task_manager/task_manager.c ****         return NULL;
 275:SYS/task_manager/task_manager.c **** 
 276:SYS/task_manager/task_manager.c ****     if (Task_Ptr[grp_id][tsk_id] != NULL)
 277:SYS/task_manager/task_manager.c ****     {
 278:SYS/task_manager/task_manager.c ****         return Task_Ptr[grp_id][tsk_id];
 279:SYS/task_manager/task_manager.c ****     }
 280:SYS/task_manager/task_manager.c ****     else
 281:SYS/task_manager/task_manager.c ****     {
 282:SYS/task_manager/task_manager.c ****         TskHdl_PndMap.Grp.Flg &= ~(1 << grp_id);
 283:SYS/task_manager/task_manager.c ****         TskHdl_PndMap.TskInGrp[grp_id].Flg &= ~(1 << tsk_id);
 284:SYS/task_manager/task_manager.c ****         return NULL;
 285:SYS/task_manager/task_manager.c ****     }
 286:SYS/task_manager/task_manager.c **** }
 287:SYS/task_manager/task_manager.c **** 
 288:SYS/task_manager/task_manager.c **** static uint32_t Task_EnterCritical(void)
 289:SYS/task_manager/task_manager.c **** {
 290:SYS/task_manager/task_manager.c ****     /* Set BASEPRI to the max syscall priority to effect a critical
 291:SYS/task_manager/task_manager.c **** 	section. */
 292:SYS/task_manager/task_manager.c ****     uint32_t ulOriginalBASEPRI, ulNewBASEPRI;
 293:SYS/task_manager/task_manager.c **** 
 294:SYS/task_manager/task_manager.c ****     __asm volatile(
 295:SYS/task_manager/task_manager.c ****         "	mrs %0, basepri											\n"
ARM GAS  /tmp/ccMrs0Mo.s 			page 7


 296:SYS/task_manager/task_manager.c ****         "	mov %1, %2												\n"
 297:SYS/task_manager/task_manager.c ****         "	msr basepri, %1											\n"
 298:SYS/task_manager/task_manager.c ****         "	isb														\n"
 299:SYS/task_manager/task_manager.c ****         "	dsb														\n"
 300:SYS/task_manager/task_manager.c ****         : "=r"(ulOriginalBASEPRI), "=r"(ulNewBASEPRI)
 301:SYS/task_manager/task_manager.c ****         : "i"(80)
 302:SYS/task_manager/task_manager.c ****         : "memory");
 303:SYS/task_manager/task_manager.c **** 
 304:SYS/task_manager/task_manager.c ****     /* This return will not be reached but is necessary to prevent compiler
 305:SYS/task_manager/task_manager.c **** 	warnings. */
 306:SYS/task_manager/task_manager.c ****     return ulOriginalBASEPRI;
 307:SYS/task_manager/task_manager.c **** }
 308:SYS/task_manager/task_manager.c **** 
 309:SYS/task_manager/task_manager.c **** __attribute__((nake)) static void Task_SetBASEPRI(uint32_t ulBASEPRI)
 310:SYS/task_manager/task_manager.c **** {
  51              		.loc 1 310 1 view -0
  52              		.cfi_startproc
  53              		@ args = 0, pretend = 0, frame = 0
  54              		@ frame_needed = 0, uses_anonymous_args = 0
  55              		@ link register save eliminated.
 311:SYS/task_manager/task_manager.c ****     __ASM("	msr basepri, %0	" ::"r"(ulBASEPRI)
  56              		.loc 1 311 5 view .LVU4
  57              		.syntax unified
  58              	@ 311 "SYS/task_manager/task_manager.c" 1
  59 0000 80F31188 			msr basepri, r0	
  60              	@ 0 "" 2
 312:SYS/task_manager/task_manager.c ****           : "memory");
 313:SYS/task_manager/task_manager.c **** }
  61              		.loc 1 313 1 is_stmt 0 view .LVU5
  62              		.thumb
  63              		.syntax unified
  64 0004 7047     		bx	lr
  65              		.cfi_endproc
  66              	.LFE137:
  68              		.section	.text.Task_SetReady,"ax",%progbits
  69              		.align	1
  70              		.syntax unified
  71              		.thumb
  72              		.thumb_func
  73              		.fpu fpv4-sp-d16
  75              	Task_SetReady:
  76              	.LVL1:
  77              	.LFB145:
 314:SYS/task_manager/task_manager.c **** 
 315:SYS/task_manager/task_manager.c **** static void Task_ExitCritical(void)
 316:SYS/task_manager/task_manager.c **** {
 317:SYS/task_manager/task_manager.c ****     /* Barrier instructions are not used as this function is only used to
 318:SYS/task_manager/task_manager.c **** 	lower the BASEPRI value. */
 319:SYS/task_manager/task_manager.c ****     __ASM("	msr basepri, %0	" ::"r"(0)
 320:SYS/task_manager/task_manager.c ****           : "memory");
 321:SYS/task_manager/task_manager.c **** }
 322:SYS/task_manager/task_manager.c **** 
 323:SYS/task_manager/task_manager.c **** static void Task_Recover(void)
 324:SYS/task_manager/task_manager.c **** {
 325:SYS/task_manager/task_manager.c ****     __ASM("LDR	  R3, CurrentTCBConst_Tmp2");
 326:SYS/task_manager/task_manager.c ****     __ASM("LDR    R1, [R3]");
 327:SYS/task_manager/task_manager.c ****     __ASM("LDR    R0, [R1]");
ARM GAS  /tmp/ccMrs0Mo.s 			page 8


 328:SYS/task_manager/task_manager.c **** 
 329:SYS/task_manager/task_manager.c ****     __ASM("LDMIA  R0!, {R4-R11, R14}");
 330:SYS/task_manager/task_manager.c **** 
 331:SYS/task_manager/task_manager.c ****     __ASM("MSR    PSP, R0");
 332:SYS/task_manager/task_manager.c ****     __ASM("ISB");
 333:SYS/task_manager/task_manager.c ****     __ASM("BX     R14");
 334:SYS/task_manager/task_manager.c ****     __ASM(".ALIGN 4");
 335:SYS/task_manager/task_manager.c ****     __ASM("CurrentTCBConst_Tmp2: .word CurTsk_TCB");
 336:SYS/task_manager/task_manager.c **** }
 337:SYS/task_manager/task_manager.c **** 
 338:SYS/task_manager/task_manager.c **** void Task_SaveCurProc(void)
 339:SYS/task_manager/task_manager.c **** {
 340:SYS/task_manager/task_manager.c ****     __ASM("MRS    R0, PSP");
 341:SYS/task_manager/task_manager.c ****     __ASM("LDR	  R3, CurrentTCBConst_Tmp3");
 342:SYS/task_manager/task_manager.c ****     __ASM("LDR    R2, [R3]");
 343:SYS/task_manager/task_manager.c **** 
 344:SYS/task_manager/task_manager.c ****     __ASM("ISB");
 345:SYS/task_manager/task_manager.c **** 
 346:SYS/task_manager/task_manager.c ****     __ASM("STMDB    R0!, {R4-R11, R14}");
 347:SYS/task_manager/task_manager.c ****     __ASM("STR      R0, [R2]");
 348:SYS/task_manager/task_manager.c **** 
 349:SYS/task_manager/task_manager.c ****     /******************************  FPU SECTION  *********************************/
 350:SYS/task_manager/task_manager.c ****     __ASM("TST      R14, #0x10");
 351:SYS/task_manager/task_manager.c ****     __ASM("IT       EQ");
 352:SYS/task_manager/task_manager.c ****     __ASM("VSTMDBEQ R0!, {s16-s31}");
 353:SYS/task_manager/task_manager.c ****     /******************************  FPU SECTION  *********************************/
 354:SYS/task_manager/task_manager.c **** 
 355:SYS/task_manager/task_manager.c ****     __ASM("ISB");
 356:SYS/task_manager/task_manager.c ****     __ASM("BX       R14");
 357:SYS/task_manager/task_manager.c **** 
 358:SYS/task_manager/task_manager.c ****     __ASM("CurrentTCBConst_Tmp3: .word CurTsk_TCB");
 359:SYS/task_manager/task_manager.c **** }
 360:SYS/task_manager/task_manager.c **** 
 361:SYS/task_manager/task_manager.c **** void Task_Load(void)
 362:SYS/task_manager/task_manager.c **** {
 363:SYS/task_manager/task_manager.c ****     __ASM("LDR	  R3, =CurTsk_TCB");
 364:SYS/task_manager/task_manager.c ****     __ASM("LDR    R1, [R3]");
 365:SYS/task_manager/task_manager.c ****     __ASM("LDR    R0, [R1]");
 366:SYS/task_manager/task_manager.c **** 
 367:SYS/task_manager/task_manager.c ****     __ASM("LDMIA  R0!, {R4-R11, R14}");
 368:SYS/task_manager/task_manager.c **** 
 369:SYS/task_manager/task_manager.c ****     /******************************  FPU SECTION  *********************************/
 370:SYS/task_manager/task_manager.c ****     __ASM("TST      R14, #0x10");
 371:SYS/task_manager/task_manager.c ****     __ASM("IT       EQ");
 372:SYS/task_manager/task_manager.c ****     __ASM("VLDMIAEQ R0!, {s16-s31}");
 373:SYS/task_manager/task_manager.c ****     /******************************  FPU SECTION  *********************************/
 374:SYS/task_manager/task_manager.c **** 
 375:SYS/task_manager/task_manager.c ****     __ASM("MSR    PSP, R0");
 376:SYS/task_manager/task_manager.c ****     __ASM("ISB");
 377:SYS/task_manager/task_manager.c ****     //__ASM("MOV    R0, #240");
 378:SYS/task_manager/task_manager.c ****     //__ASM("MSR	  BASEPRI, R0");
 379:SYS/task_manager/task_manager.c ****     __ASM("BX     R14");
 380:SYS/task_manager/task_manager.c ****     __ASM(".ALIGN 4");
 381:SYS/task_manager/task_manager.c **** }
 382:SYS/task_manager/task_manager.c **** 
 383:SYS/task_manager/task_manager.c **** void Load_FirstTask(void)
 384:SYS/task_manager/task_manager.c **** {
ARM GAS  /tmp/ccMrs0Mo.s 			page 9


 385:SYS/task_manager/task_manager.c ****     Task_Load();
 386:SYS/task_manager/task_manager.c **** }
 387:SYS/task_manager/task_manager.c **** 
 388:SYS/task_manager/task_manager.c **** void Task_SwitchContext(void)
 389:SYS/task_manager/task_manager.c **** {
 390:SYS/task_manager/task_manager.c ****     __ASM("MRS      R0, PSP");
 391:SYS/task_manager/task_manager.c ****     __ASM("ISB");
 392:SYS/task_manager/task_manager.c **** 
 393:SYS/task_manager/task_manager.c ****     __ASM("LDR      R3, CurrentTCBConst_Tmp");
 394:SYS/task_manager/task_manager.c ****     __ASM("LDR      R2, [R3]");
 395:SYS/task_manager/task_manager.c **** 
 396:SYS/task_manager/task_manager.c ****     /******************************  FPU SECTION  *********************************/
 397:SYS/task_manager/task_manager.c ****     __ASM("TST      R14, #0x10");
 398:SYS/task_manager/task_manager.c ****     __ASM("IT       EQ");
 399:SYS/task_manager/task_manager.c ****     __ASM("VSTMDBEQ R0!, {s16-s31}");
 400:SYS/task_manager/task_manager.c ****     /******************************  FPU SECTION  *********************************/
 401:SYS/task_manager/task_manager.c **** 
 402:SYS/task_manager/task_manager.c ****     __ASM("STMDB    R0!, {R4-R11, R14}");
 403:SYS/task_manager/task_manager.c ****     __ASM("STR      R0, [R2]");
 404:SYS/task_manager/task_manager.c **** 
 405:SYS/task_manager/task_manager.c ****     __ASM("STMDB    SP!, {R0, R3}");
 406:SYS/task_manager/task_manager.c ****     __ASM("MOV      R0, %0" ::"i"(0x50));
 407:SYS/task_manager/task_manager.c ****     __ASM("MSR      BASEPRI, R0");
 408:SYS/task_manager/task_manager.c **** 
 409:SYS/task_manager/task_manager.c ****     __ASM("DSB");
 410:SYS/task_manager/task_manager.c ****     __ASM("ISB");
 411:SYS/task_manager/task_manager.c **** 
 412:SYS/task_manager/task_manager.c ****     __ASM("BL       Task_SwitchStack");
 413:SYS/task_manager/task_manager.c **** 
 414:SYS/task_manager/task_manager.c ****     __ASM("MOV      R0, #0");
 415:SYS/task_manager/task_manager.c ****     __ASM("MSR      BASEPRI, R0");
 416:SYS/task_manager/task_manager.c ****     __ASM("LDMIA    SP!, {R0, R3}");
 417:SYS/task_manager/task_manager.c **** 
 418:SYS/task_manager/task_manager.c ****     __ASM("LDR      R1, [R3]");
 419:SYS/task_manager/task_manager.c ****     __ASM("LDR      R0, [R1]");
 420:SYS/task_manager/task_manager.c **** 
 421:SYS/task_manager/task_manager.c ****     __ASM("LDMIA    R0!, {R4-R11, R14}");
 422:SYS/task_manager/task_manager.c **** 
 423:SYS/task_manager/task_manager.c ****     /******************************  FPU SECTION  *********************************/
 424:SYS/task_manager/task_manager.c ****     __ASM("TST      R14, #0x10");
 425:SYS/task_manager/task_manager.c ****     __ASM("IT       EQ");
 426:SYS/task_manager/task_manager.c ****     __ASM("VLDMIAEQ R0!, {s16-s31}");
 427:SYS/task_manager/task_manager.c ****     /******************************  FPU SECTION  *********************************/
 428:SYS/task_manager/task_manager.c **** 
 429:SYS/task_manager/task_manager.c ****     __ASM("MSR      PSP,R0");
 430:SYS/task_manager/task_manager.c ****     __ASM("ISB");
 431:SYS/task_manager/task_manager.c ****     //__ASM("MOV      R0, #240");
 432:SYS/task_manager/task_manager.c ****     //__ASM("MSR	    BASEPRI, R0");
 433:SYS/task_manager/task_manager.c ****     __ASM("BX       R14");
 434:SYS/task_manager/task_manager.c **** 
 435:SYS/task_manager/task_manager.c ****     __ASM("CurrentTCBConst_Tmp: .word CurTsk_TCB");
 436:SYS/task_manager/task_manager.c ****     __ASM(".ALIGN 4");
 437:SYS/task_manager/task_manager.c **** }
 438:SYS/task_manager/task_manager.c **** 
 439:SYS/task_manager/task_manager.c **** static void Task_SetStkPtr_Val(Task *tsk)
 440:SYS/task_manager/task_manager.c **** {
 441:SYS/task_manager/task_manager.c ****     uint32_t *Tsk_Ptr_tmp = NULL;
ARM GAS  /tmp/ccMrs0Mo.s 			page 10


 442:SYS/task_manager/task_manager.c **** 
 443:SYS/task_manager/task_manager.c ****     memset(tsk->TCB.Stack, NULL, tsk->Stack_Depth);
 444:SYS/task_manager/task_manager.c **** 
 445:SYS/task_manager/task_manager.c ****     Tsk_Ptr_tmp = &tsk->TCB.Stack + (tsk->Stack_Depth - (uint32_t)1);
 446:SYS/task_manager/task_manager.c ****     Tsk_Ptr_tmp = (uint32_t *)((uint32_t)(Tsk_Ptr_tmp)&0XFFFFFFF8ul);
 447:SYS/task_manager/task_manager.c **** 
 448:SYS/task_manager/task_manager.c ****     Tsk_Ptr_tmp--;
 449:SYS/task_manager/task_manager.c ****     *Tsk_Ptr_tmp = 0x01000000uL; /* xPSR */
 450:SYS/task_manager/task_manager.c **** 
 451:SYS/task_manager/task_manager.c ****     Tsk_Ptr_tmp--;
 452:SYS/task_manager/task_manager.c ****     *Tsk_Ptr_tmp = ((uint32_t)Task_Caller) & 0xfffffffeUL; /* PC */
 453:SYS/task_manager/task_manager.c **** 
 454:SYS/task_manager/task_manager.c ****     Tsk_Ptr_tmp--;
 455:SYS/task_manager/task_manager.c ****     *Tsk_Ptr_tmp = (uint32_t)Task_Exit; /* LR */
 456:SYS/task_manager/task_manager.c **** 
 457:SYS/task_manager/task_manager.c ****     /* Save code space by skipping register initialisation. */
 458:SYS/task_manager/task_manager.c ****     Tsk_Ptr_tmp -= 5;              /* R12, R3, R2 and R1. */
 459:SYS/task_manager/task_manager.c ****     *Tsk_Ptr_tmp = (uint32_t)NULL; /* R0 */
 460:SYS/task_manager/task_manager.c **** 
 461:SYS/task_manager/task_manager.c ****     /* A save method is being used that requires each task to maintain its
 462:SYS/task_manager/task_manager.c **** 	    own exec return value. */
 463:SYS/task_manager/task_manager.c ****     Tsk_Ptr_tmp--;
 464:SYS/task_manager/task_manager.c ****     *Tsk_Ptr_tmp = 0xfffffffd;
 465:SYS/task_manager/task_manager.c **** 
 466:SYS/task_manager/task_manager.c ****     Tsk_Ptr_tmp -= 8; /* R11, R10, R9, R8, R7, R6, R5 and R4. */
 467:SYS/task_manager/task_manager.c **** 
 468:SYS/task_manager/task_manager.c ****     //set task stack top pointer
 469:SYS/task_manager/task_manager.c ****     tsk->TCB.Top_Stk_Ptr = Tsk_Ptr_tmp; //&Tsk_Ptr_tmp
 470:SYS/task_manager/task_manager.c **** }
 471:SYS/task_manager/task_manager.c **** 
 472:SYS/task_manager/task_manager.c **** #endif
 473:SYS/task_manager/task_manager.c **** 
 474:SYS/task_manager/task_manager.c **** static void Task_SetReady(Task *tsk)
 475:SYS/task_manager/task_manager.c **** {
  78              		.loc 1 475 1 is_stmt 1 view -0
  79              		.cfi_startproc
  80              		@ args = 0, pretend = 0, frame = 0
  81              		@ frame_needed = 0, uses_anonymous_args = 0
  82              		@ link register save eliminated.
  83              		.loc 1 475 1 is_stmt 0 view .LVU7
  84 0000 70B4     		push	{r4, r5, r6}
  85              	.LCFI0:
  86              		.cfi_def_cfa_offset 12
  87              		.cfi_offset 4, -12
  88              		.cfi_offset 5, -8
  89              		.cfi_offset 6, -4
 476:SYS/task_manager/task_manager.c ****     uint8_t grp_id = GET_TASKGROUP_PRIORITY(tsk->priority.Priority);
  90              		.loc 1 476 5 is_stmt 1 view .LVU8
  91              		.loc 1 476 22 is_stmt 0 view .LVU9
  92 0002 0478     		ldrb	r4, [r0]	@ zero_extendqisi2
  93              		.loc 1 476 13 view .LVU10
  94 0004 E208     		lsrs	r2, r4, #3
  95              	.LVL2:
 477:SYS/task_manager/task_manager.c ****     uint8_t tsk_id = GET_TASKINGROUP_PRIORITY(tsk->priority.Priority);
  96              		.loc 1 477 5 is_stmt 1 view .LVU11
  97              		.loc 1 477 13 is_stmt 0 view .LVU12
  98 0006 04F00705 		and	r5, r4, #7
ARM GAS  /tmp/ccMrs0Mo.s 			page 11


  99              	.LVL3:
 478:SYS/task_manager/task_manager.c **** 
 479:SYS/task_manager/task_manager.c ****     //set current group flag to ready
 480:SYS/task_manager/task_manager.c ****     TskHdl_RdyMap.Grp.Flg |= 1 << grp_id;
 100              		.loc 1 480 5 is_stmt 1 view .LVU13
 101              		.loc 1 480 27 is_stmt 0 view .LVU14
 102 000a 094B     		ldr	r3, .L6
 103 000c 1978     		ldrb	r1, [r3]	@ zero_extendqisi2
 104              		.loc 1 480 32 view .LVU15
 105 000e 0124     		movs	r4, #1
 106 0010 04FA02F6 		lsl	r6, r4, r2
 107              		.loc 1 480 27 view .LVU16
 108 0014 3143     		orrs	r1, r1, r6
 109 0016 C9B2     		uxtb	r1, r1
 110 0018 1970     		strb	r1, [r3]
 481:SYS/task_manager/task_manager.c ****     //set current task under this group flag to ready
 482:SYS/task_manager/task_manager.c ****     TskHdl_RdyMap.TskInGrp[grp_id].Flg |= 1 << tsk_id;
 111              		.loc 1 482 5 is_stmt 1 view .LVU17
 112              		.loc 1 482 40 is_stmt 0 view .LVU18
 113 001a 1344     		add	r3, r3, r2
 114 001c 5A78     		ldrb	r2, [r3, #1]	@ zero_extendqisi2
 115              	.LVL4:
 116              		.loc 1 482 45 view .LVU19
 117 001e AC40     		lsls	r4, r4, r5
 118              		.loc 1 482 40 view .LVU20
 119 0020 2243     		orrs	r2, r2, r4
 120 0022 D2B2     		uxtb	r2, r2
 121 0024 5A70     		strb	r2, [r3, #1]
 483:SYS/task_manager/task_manager.c **** 
 484:SYS/task_manager/task_manager.c ****     tsk->Exec_status.State = Task_Ready;
 122              		.loc 1 484 5 is_stmt 1 view .LVU21
 123              		.loc 1 484 28 is_stmt 0 view .LVU22
 124 0026 0023     		movs	r3, #0
 125 0028 80F84830 		strb	r3, [r0, #72]
 485:SYS/task_manager/task_manager.c **** }
 126              		.loc 1 485 1 view .LVU23
 127 002c 70BC     		pop	{r4, r5, r6}
 128              	.LCFI1:
 129              		.cfi_restore 6
 130              		.cfi_restore 5
 131              		.cfi_restore 4
 132              		.cfi_def_cfa_offset 0
 133              	.LVL5:
 134              		.loc 1 485 1 view .LVU24
 135 002e 7047     		bx	lr
 136              	.L7:
 137              		.align	2
 138              	.L6:
 139 0030 00000000 		.word	.LANCHOR0
 140              		.cfi_endproc
 141              	.LFE145:
 143              		.section	.text.Task_ClearBlock,"ax",%progbits
 144              		.align	1
 145              		.syntax unified
 146              		.thumb
 147              		.thumb_func
 148              		.fpu fpv4-sp-d16
ARM GAS  /tmp/ccMrs0Mo.s 			page 12


 150              	Task_ClearBlock:
 151              	.LVL6:
 152              	.LFB146:
 486:SYS/task_manager/task_manager.c **** 
 487:SYS/task_manager/task_manager.c **** static void Task_ClearBlock(Task *tsk)
 488:SYS/task_manager/task_manager.c **** {
 153              		.loc 1 488 1 is_stmt 1 view -0
 154              		.cfi_startproc
 155              		@ args = 0, pretend = 0, frame = 0
 156              		@ frame_needed = 0, uses_anonymous_args = 0
 157              		@ link register save eliminated.
 158              		.loc 1 488 1 is_stmt 0 view .LVU26
 159 0000 10B4     		push	{r4}
 160              	.LCFI2:
 161              		.cfi_def_cfa_offset 4
 162              		.cfi_offset 4, -4
 489:SYS/task_manager/task_manager.c ****     uint8_t grp_id = GET_TASKGROUP_PRIORITY(tsk->priority.Priority);
 163              		.loc 1 489 5 is_stmt 1 view .LVU27
 164              		.loc 1 489 22 is_stmt 0 view .LVU28
 165 0002 0378     		ldrb	r3, [r0]	@ zero_extendqisi2
 166              		.loc 1 489 13 view .LVU29
 167 0004 DC08     		lsrs	r4, r3, #3
 168              	.LVL7:
 490:SYS/task_manager/task_manager.c ****     uint8_t tsk_id = GET_TASKINGROUP_PRIORITY(tsk->priority.Priority);
 169              		.loc 1 490 5 is_stmt 1 view .LVU30
 170              		.loc 1 490 13 is_stmt 0 view .LVU31
 171 0006 03F00702 		and	r2, r3, #7
 172              	.LVL8:
 491:SYS/task_manager/task_manager.c **** 
 492:SYS/task_manager/task_manager.c ****     TskHdl_BlkMap.TskInGrp[grp_id].Flg &= ~(1 << tsk_id);
 173              		.loc 1 492 5 is_stmt 1 view .LVU32
 174              		.loc 1 492 40 is_stmt 0 view .LVU33
 175 000a 0A4B     		ldr	r3, .L11
 176 000c 2344     		add	r3, r3, r4
 177 000e 5978     		ldrb	r1, [r3, #1]	@ zero_extendqisi2
 178              		.loc 1 492 47 view .LVU34
 179 0010 0120     		movs	r0, #1
 180              	.LVL9:
 181              		.loc 1 492 47 view .LVU35
 182 0012 00FA02F2 		lsl	r2, r0, r2
 183              	.LVL10:
 184              		.loc 1 492 40 view .LVU36
 185 0016 21EA0202 		bic	r2, r1, r2
 186 001a 5A70     		strb	r2, [r3, #1]
 187              	.LVL11:
 493:SYS/task_manager/task_manager.c ****     if (TskHdl_BlkMap.TskInGrp[grp_id].Flg == 0)
 188              		.loc 1 493 5 is_stmt 1 view .LVU37
 189              		.loc 1 493 39 is_stmt 0 view .LVU38
 190 001c 5B78     		ldrb	r3, [r3, #1]	@ zero_extendqisi2
 191              		.loc 1 493 8 view .LVU39
 192 001e 33B9     		cbnz	r3, .L8
 494:SYS/task_manager/task_manager.c ****     {
 495:SYS/task_manager/task_manager.c ****         TskHdl_BlkMap.Grp.Flg &= ~(1 << grp_id);
 193              		.loc 1 495 9 is_stmt 1 view .LVU40
 194              		.loc 1 495 31 is_stmt 0 view .LVU41
 195 0020 0449     		ldr	r1, .L11
 196 0022 0B78     		ldrb	r3, [r1]	@ zero_extendqisi2
ARM GAS  /tmp/ccMrs0Mo.s 			page 13


 197              		.loc 1 495 38 view .LVU42
 198 0024 00FA04F4 		lsl	r4, r0, r4
 199              	.LVL12:
 200              		.loc 1 495 31 view .LVU43
 201 0028 23EA0404 		bic	r4, r3, r4
 202 002c 0C70     		strb	r4, [r1]
 203              	.L8:
 496:SYS/task_manager/task_manager.c ****     }
 497:SYS/task_manager/task_manager.c **** }
 204              		.loc 1 497 1 view .LVU44
 205 002e 5DF8044B 		ldr	r4, [sp], #4
 206              	.LCFI3:
 207              		.cfi_restore 4
 208              		.cfi_def_cfa_offset 0
 209 0032 7047     		bx	lr
 210              	.L12:
 211              		.align	2
 212              	.L11:
 213 0034 00000000 		.word	.LANCHOR1
 214              		.cfi_endproc
 215              	.LFE146:
 217              		.section	.text.Task_ClearPending,"ax",%progbits
 218              		.align	1
 219              		.syntax unified
 220              		.thumb
 221              		.thumb_func
 222              		.fpu fpv4-sp-d16
 224              	Task_ClearPending:
 225              	.LVL13:
 226              	.LFB147:
 498:SYS/task_manager/task_manager.c **** 
 499:SYS/task_manager/task_manager.c **** static void Task_ClearPending(Task *tsk)
 500:SYS/task_manager/task_manager.c **** {
 227              		.loc 1 500 1 is_stmt 1 view -0
 228              		.cfi_startproc
 229              		@ args = 0, pretend = 0, frame = 0
 230              		@ frame_needed = 0, uses_anonymous_args = 0
 231              		@ link register save eliminated.
 232              		.loc 1 500 1 is_stmt 0 view .LVU46
 233 0000 10B4     		push	{r4}
 234              	.LCFI4:
 235              		.cfi_def_cfa_offset 4
 236              		.cfi_offset 4, -4
 501:SYS/task_manager/task_manager.c ****     uint8_t grp_id = GET_TASKGROUP_PRIORITY(tsk->priority.Priority);
 237              		.loc 1 501 5 is_stmt 1 view .LVU47
 238              		.loc 1 501 22 is_stmt 0 view .LVU48
 239 0002 0378     		ldrb	r3, [r0]	@ zero_extendqisi2
 240              		.loc 1 501 13 view .LVU49
 241 0004 DC08     		lsrs	r4, r3, #3
 242              	.LVL14:
 502:SYS/task_manager/task_manager.c ****     uint8_t tsk_id = GET_TASKINGROUP_PRIORITY(tsk->priority.Priority);
 243              		.loc 1 502 5 is_stmt 1 view .LVU50
 244              		.loc 1 502 13 is_stmt 0 view .LVU51
 245 0006 03F00702 		and	r2, r3, #7
 246              	.LVL15:
 503:SYS/task_manager/task_manager.c **** 
 504:SYS/task_manager/task_manager.c ****     TskHdl_PndMap.TskInGrp[grp_id].Flg &= ~(1 << tsk_id);
ARM GAS  /tmp/ccMrs0Mo.s 			page 14


 247              		.loc 1 504 5 is_stmt 1 view .LVU52
 248              		.loc 1 504 40 is_stmt 0 view .LVU53
 249 000a 0A4B     		ldr	r3, .L16
 250 000c 2344     		add	r3, r3, r4
 251 000e 5978     		ldrb	r1, [r3, #1]	@ zero_extendqisi2
 252              		.loc 1 504 47 view .LVU54
 253 0010 0120     		movs	r0, #1
 254              	.LVL16:
 255              		.loc 1 504 47 view .LVU55
 256 0012 00FA02F2 		lsl	r2, r0, r2
 257              	.LVL17:
 258              		.loc 1 504 40 view .LVU56
 259 0016 21EA0202 		bic	r2, r1, r2
 260 001a 5A70     		strb	r2, [r3, #1]
 261              	.LVL18:
 505:SYS/task_manager/task_manager.c ****     if (TskHdl_PndMap.TskInGrp[grp_id].Flg == 0)
 262              		.loc 1 505 5 is_stmt 1 view .LVU57
 263              		.loc 1 505 39 is_stmt 0 view .LVU58
 264 001c 5B78     		ldrb	r3, [r3, #1]	@ zero_extendqisi2
 265              		.loc 1 505 8 view .LVU59
 266 001e 33B9     		cbnz	r3, .L13
 506:SYS/task_manager/task_manager.c ****     {
 507:SYS/task_manager/task_manager.c ****         TskHdl_PndMap.Grp.Flg &= ~(1 << grp_id);
 267              		.loc 1 507 9 is_stmt 1 view .LVU60
 268              		.loc 1 507 31 is_stmt 0 view .LVU61
 269 0020 0449     		ldr	r1, .L16
 270 0022 0B78     		ldrb	r3, [r1]	@ zero_extendqisi2
 271              		.loc 1 507 38 view .LVU62
 272 0024 00FA04F4 		lsl	r4, r0, r4
 273              	.LVL19:
 274              		.loc 1 507 31 view .LVU63
 275 0028 23EA0404 		bic	r4, r3, r4
 276 002c 0C70     		strb	r4, [r1]
 277              	.L13:
 508:SYS/task_manager/task_manager.c ****     }
 509:SYS/task_manager/task_manager.c **** }
 278              		.loc 1 509 1 view .LVU64
 279 002e 5DF8044B 		ldr	r4, [sp], #4
 280              	.LCFI5:
 281              		.cfi_restore 4
 282              		.cfi_def_cfa_offset 0
 283 0032 7047     		bx	lr
 284              	.L17:
 285              		.align	2
 286              	.L16:
 287 0034 00000000 		.word	.LANCHOR2
 288              		.cfi_endproc
 289              	.LFE147:
 291              		.section	.text.Task_ClearReady,"ax",%progbits
 292              		.align	1
 293              		.syntax unified
 294              		.thumb
 295              		.thumb_func
 296              		.fpu fpv4-sp-d16
 298              	Task_ClearReady:
 299              	.LVL20:
 300              	.LFB148:
ARM GAS  /tmp/ccMrs0Mo.s 			page 15


 510:SYS/task_manager/task_manager.c **** 
 511:SYS/task_manager/task_manager.c **** static void Task_ClearReady(Task *tsk)
 512:SYS/task_manager/task_manager.c **** {
 301              		.loc 1 512 1 is_stmt 1 view -0
 302              		.cfi_startproc
 303              		@ args = 0, pretend = 0, frame = 0
 304              		@ frame_needed = 0, uses_anonymous_args = 0
 305              		@ link register save eliminated.
 306              		.loc 1 512 1 is_stmt 0 view .LVU66
 307 0000 10B4     		push	{r4}
 308              	.LCFI6:
 309              		.cfi_def_cfa_offset 4
 310              		.cfi_offset 4, -4
 513:SYS/task_manager/task_manager.c ****     uint8_t grp_id = GET_TASKGROUP_PRIORITY(tsk->priority.Priority);
 311              		.loc 1 513 5 is_stmt 1 view .LVU67
 312              		.loc 1 513 22 is_stmt 0 view .LVU68
 313 0002 0378     		ldrb	r3, [r0]	@ zero_extendqisi2
 314              		.loc 1 513 13 view .LVU69
 315 0004 DC08     		lsrs	r4, r3, #3
 316              	.LVL21:
 514:SYS/task_manager/task_manager.c ****     uint8_t tsk_id = GET_TASKINGROUP_PRIORITY(tsk->priority.Priority);
 317              		.loc 1 514 5 is_stmt 1 view .LVU70
 318              		.loc 1 514 13 is_stmt 0 view .LVU71
 319 0006 03F00702 		and	r2, r3, #7
 320              	.LVL22:
 515:SYS/task_manager/task_manager.c **** 
 516:SYS/task_manager/task_manager.c ****     TskHdl_RdyMap.TskInGrp[grp_id].Flg &= ~(1 << tsk_id);
 321              		.loc 1 516 5 is_stmt 1 view .LVU72
 322              		.loc 1 516 40 is_stmt 0 view .LVU73
 323 000a 0A4B     		ldr	r3, .L21
 324 000c 2344     		add	r3, r3, r4
 325 000e 5978     		ldrb	r1, [r3, #1]	@ zero_extendqisi2
 326              		.loc 1 516 47 view .LVU74
 327 0010 0120     		movs	r0, #1
 328              	.LVL23:
 329              		.loc 1 516 47 view .LVU75
 330 0012 00FA02F2 		lsl	r2, r0, r2
 331              	.LVL24:
 332              		.loc 1 516 40 view .LVU76
 333 0016 21EA0202 		bic	r2, r1, r2
 334 001a 5A70     		strb	r2, [r3, #1]
 335              	.LVL25:
 517:SYS/task_manager/task_manager.c ****     if (TskHdl_RdyMap.TskInGrp[grp_id].Flg == 0)
 336              		.loc 1 517 5 is_stmt 1 view .LVU77
 337              		.loc 1 517 39 is_stmt 0 view .LVU78
 338 001c 5B78     		ldrb	r3, [r3, #1]	@ zero_extendqisi2
 339              		.loc 1 517 8 view .LVU79
 340 001e 33B9     		cbnz	r3, .L18
 518:SYS/task_manager/task_manager.c ****     {
 519:SYS/task_manager/task_manager.c ****         TskHdl_RdyMap.Grp.Flg &= ~(1 << grp_id);
 341              		.loc 1 519 9 is_stmt 1 view .LVU80
 342              		.loc 1 519 31 is_stmt 0 view .LVU81
 343 0020 0449     		ldr	r1, .L21
 344 0022 0B78     		ldrb	r3, [r1]	@ zero_extendqisi2
 345              		.loc 1 519 38 view .LVU82
 346 0024 00FA04F4 		lsl	r4, r0, r4
 347              	.LVL26:
ARM GAS  /tmp/ccMrs0Mo.s 			page 16


 348              		.loc 1 519 31 view .LVU83
 349 0028 23EA0404 		bic	r4, r3, r4
 350 002c 0C70     		strb	r4, [r1]
 351              	.L18:
 520:SYS/task_manager/task_manager.c ****     }
 521:SYS/task_manager/task_manager.c **** }
 352              		.loc 1 521 1 view .LVU84
 353 002e 5DF8044B 		ldr	r4, [sp], #4
 354              	.LCFI7:
 355              		.cfi_restore 4
 356              		.cfi_def_cfa_offset 0
 357 0032 7047     		bx	lr
 358              	.L22:
 359              		.align	2
 360              	.L21:
 361 0034 00000000 		.word	.LANCHOR0
 362              		.cfi_endproc
 363              	.LFE148:
 365              		.section	.text.Task_SetPendSVPro,"ax",%progbits
 366              		.align	1
 367              		.syntax unified
 368              		.thumb
 369              		.thumb_func
 370              		.fpu fpv4-sp-d16
 372              	Task_SetPendSVPro:
 373              	.LFB151:
 522:SYS/task_manager/task_manager.c **** 
 523:SYS/task_manager/task_manager.c **** Task *Task_Get_HighestRank_RdyTask(void)
 524:SYS/task_manager/task_manager.c **** {
 525:SYS/task_manager/task_manager.c ****     uint8_t grp_id = 0;
 526:SYS/task_manager/task_manager.c ****     uint8_t tsk_id = 0;
 527:SYS/task_manager/task_manager.c **** 
 528:SYS/task_manager/task_manager.c ****     if (TskHdl_RdyMap.Grp.Flg)
 529:SYS/task_manager/task_manager.c ****     {
 530:SYS/task_manager/task_manager.c ****         //find group
 531:SYS/task_manager/task_manager.c ****         grp_id = Tsk_Handle[TskHdl_RdyMap.Grp.Flg];
 532:SYS/task_manager/task_manager.c ****         //find task in group
 533:SYS/task_manager/task_manager.c ****         tsk_id = Tsk_Handle[TskHdl_RdyMap.TskInGrp[grp_id].Flg];
 534:SYS/task_manager/task_manager.c ****     }
 535:SYS/task_manager/task_manager.c ****     else
 536:SYS/task_manager/task_manager.c ****         return NULL;
 537:SYS/task_manager/task_manager.c **** 
 538:SYS/task_manager/task_manager.c ****     if (Task_Ptr[grp_id][tsk_id] != NULL)
 539:SYS/task_manager/task_manager.c ****     {
 540:SYS/task_manager/task_manager.c ****         return Task_Ptr[grp_id][tsk_id];
 541:SYS/task_manager/task_manager.c ****     }
 542:SYS/task_manager/task_manager.c ****     else
 543:SYS/task_manager/task_manager.c ****     {
 544:SYS/task_manager/task_manager.c ****         TskHdl_RdyMap.Grp.Flg &= ~(1 << grp_id);
 545:SYS/task_manager/task_manager.c ****         TskHdl_RdyMap.TskInGrp[grp_id].Flg &= ~(1 << tsk_id);
 546:SYS/task_manager/task_manager.c ****         return NULL;
 547:SYS/task_manager/task_manager.c ****     }
 548:SYS/task_manager/task_manager.c **** }
 549:SYS/task_manager/task_manager.c **** 
 550:SYS/task_manager/task_manager.c **** void Task_SetNextTask_Ptr(const Task *nxt)
 551:SYS/task_manager/task_manager.c **** {
 552:SYS/task_manager/task_manager.c ****     if (nxt != NULL)
ARM GAS  /tmp/ccMrs0Mo.s 			page 17


 553:SYS/task_manager/task_manager.c ****     {
 554:SYS/task_manager/task_manager.c ****         NxtRunTsk_Ptr = nxt;
 555:SYS/task_manager/task_manager.c ****         NxtTsk_TCB.Top_Stk_Ptr = &NxtRunTsk_Ptr->TCB.Top_Stk_Ptr;
 556:SYS/task_manager/task_manager.c ****         NxtTsk_TCB.Stack = NxtRunTsk_Ptr->TCB.Stack;
 557:SYS/task_manager/task_manager.c ****     }
 558:SYS/task_manager/task_manager.c **** }
 559:SYS/task_manager/task_manager.c **** 
 560:SYS/task_manager/task_manager.c **** //first need to know is linux support AT&T formate ASM code
 561:SYS/task_manager/task_manager.c **** static __attribute__((naked)) void Task_SetPendSVPro(void)
 562:SYS/task_manager/task_manager.c **** {
 374              		.loc 1 562 1 is_stmt 1 view -0
 375              		.cfi_startproc
 376              		@ Naked Function: prologue and epilogue provided by programmer.
 377              		@ args = 0, pretend = 0, frame = 0
 378              		@ frame_needed = 0, uses_anonymous_args = 0
 563:SYS/task_manager/task_manager.c ****     //set pendsv interrupt
 564:SYS/task_manager/task_manager.c ****     __ASM(".equ NVIC_SYSPRI14, 0xE000ED22");
 379              		.loc 1 564 5 view .LVU86
 380              		.syntax unified
 381              	@ 564 "SYS/task_manager/task_manager.c" 1
 382              		.equ NVIC_SYSPRI14, 0xE000ED22
 383              	@ 0 "" 2
 565:SYS/task_manager/task_manager.c ****     __ASM(".equ NVIC_PENDSV_PRI, 0xFF");
 384              		.loc 1 565 5 view .LVU87
 385              	@ 565 "SYS/task_manager/task_manager.c" 1
 386              		.equ NVIC_PENDSV_PRI, 0xFF
 387              	@ 0 "" 2
 566:SYS/task_manager/task_manager.c **** 
 567:SYS/task_manager/task_manager.c ****     __ASM("LDR      R0, =NVIC_SYSPRI14");
 388              		.loc 1 567 5 view .LVU88
 389              	@ 567 "SYS/task_manager/task_manager.c" 1
 390 0000 0548     		LDR      R0, =NVIC_SYSPRI14
 391              	@ 0 "" 2
 568:SYS/task_manager/task_manager.c ****     __ASM("LDR      R1, =NVIC_PENDSV_PRI");
 392              		.loc 1 568 5 view .LVU89
 393              	@ 568 "SYS/task_manager/task_manager.c" 1
 394 0002 4FF0FF01 		LDR      R1, =NVIC_PENDSV_PRI
 395              	@ 0 "" 2
 569:SYS/task_manager/task_manager.c ****     __ASM("STRB     R1, [R0]");
 396              		.loc 1 569 5 view .LVU90
 397              	@ 569 "SYS/task_manager/task_manager.c" 1
 398 0006 0170     		STRB     R1, [R0]
 399              	@ 0 "" 2
 570:SYS/task_manager/task_manager.c **** 
 571:SYS/task_manager/task_manager.c **** #if (TASK_SCHEDULER_TYPE == PREEMPTIVE_SCHDULER)
 572:SYS/task_manager/task_manager.c ****     //set PSP to 0 to initial context switch call
 573:SYS/task_manager/task_manager.c ****     __ASM("MOVS     R0, #0");
 400              		.loc 1 573 5 view .LVU91
 401              	@ 573 "SYS/task_manager/task_manager.c" 1
 402 0008 0020     		MOVS     R0, #0
 403              	@ 0 "" 2
 574:SYS/task_manager/task_manager.c ****     __ASM("MSR      PSP, R0");
 404              		.loc 1 574 5 view .LVU92
 405              	@ 574 "SYS/task_manager/task_manager.c" 1
 406 000a 80F30988 		MSR      PSP, R0
 407              	@ 0 "" 2
 575:SYS/task_manager/task_manager.c **** 
ARM GAS  /tmp/ccMrs0Mo.s 			page 18


 576:SYS/task_manager/task_manager.c ****     //initial MSP to Task_OS_ExpStkBase
 577:SYS/task_manager/task_manager.c ****     __ASM("LDR      R0, =Task_OS_ExpStkBase");
 408              		.loc 1 577 5 view .LVU93
 409              	@ 577 "SYS/task_manager/task_manager.c" 1
 410 000e 0348     		LDR      R0, =Task_OS_ExpStkBase
 411              	@ 0 "" 2
 578:SYS/task_manager/task_manager.c ****     __ASM("LDR      R1, [R0]");
 412              		.loc 1 578 5 view .LVU94
 413              	@ 578 "SYS/task_manager/task_manager.c" 1
 414 0010 0168     		LDR      R1, [R0]
 415              	@ 0 "" 2
 579:SYS/task_manager/task_manager.c ****     __ASM("MSR      MSP, R1");
 416              		.loc 1 579 5 view .LVU95
 417              	@ 579 "SYS/task_manager/task_manager.c" 1
 418 0012 81F30888 		MSR      MSP, R1
 419              	@ 0 "" 2
 580:SYS/task_manager/task_manager.c **** #endif
 581:SYS/task_manager/task_manager.c **** 
 582:SYS/task_manager/task_manager.c ****     __ASM("BX       LR");
 420              		.loc 1 582 5 view .LVU96
 421              	@ 582 "SYS/task_manager/task_manager.c" 1
 422 0016 7047     		BX       LR
 423              	@ 0 "" 2
 583:SYS/task_manager/task_manager.c **** }
 424              		.loc 1 583 1 is_stmt 0 view .LVU97
 425              		.thumb
 426              		.syntax unified
 427              		.cfi_endproc
 428              	.LFE151:
 430              		.section	.text.Task_PriorityCompare,"ax",%progbits
 431              		.align	1
 432              		.global	Task_PriorityCompare
 433              		.syntax unified
 434              		.thumb
 435              		.thumb_func
 436              		.fpu fpv4-sp-d16
 438              	Task_PriorityCompare:
 439              	.LVL27:
 440              	.LFB155:
 584:SYS/task_manager/task_manager.c **** 
 585:SYS/task_manager/task_manager.c **** __attribute__((naked)) void Task_TriggerPendSV(void)
 586:SYS/task_manager/task_manager.c **** {
 587:SYS/task_manager/task_manager.c ****     __ASM(".equ NVIC_INT_CTRL, 0xE000ED04");
 588:SYS/task_manager/task_manager.c ****     __ASM(".equ NVIC_PENDSVSET, 0x10000000");
 589:SYS/task_manager/task_manager.c **** 
 590:SYS/task_manager/task_manager.c ****     __ASM("LDR      R0, =NVIC_INT_CTRL");
 591:SYS/task_manager/task_manager.c ****     __ASM("LDR      R1, =NVIC_PENDSVSET");
 592:SYS/task_manager/task_manager.c ****     __ASM("STR      R1, [R0]");
 593:SYS/task_manager/task_manager.c ****     __ASM("BX       LR");
 594:SYS/task_manager/task_manager.c **** }
 595:SYS/task_manager/task_manager.c **** 
 596:SYS/task_manager/task_manager.c **** void Task_Force_TriggerPendSV(void)
 597:SYS/task_manager/task_manager.c **** {
 598:SYS/task_manager/task_manager.c ****     /* Barriers are normally not required but do ensure the code is completely \
 599:SYS/task_manager/task_manager.c ****         within the specified behaviour for the architecture. */
 600:SYS/task_manager/task_manager.c ****     __ASM volatile("dsb" ::
 601:SYS/task_manager/task_manager.c ****                        : "memory");
ARM GAS  /tmp/ccMrs0Mo.s 			page 19


 602:SYS/task_manager/task_manager.c ****     __ASM volatile("isb");
 603:SYS/task_manager/task_manager.c ****     Task_TriggerPendSV();
 604:SYS/task_manager/task_manager.c **** }
 605:SYS/task_manager/task_manager.c **** 
 606:SYS/task_manager/task_manager.c **** uint8_t Task_Get_TaskNum(void)
 607:SYS/task_manager/task_manager.c **** {
 608:SYS/task_manager/task_manager.c ****     return TskCrt_RegList.num;
 609:SYS/task_manager/task_manager.c **** }
 610:SYS/task_manager/task_manager.c **** 
 611:SYS/task_manager/task_manager.c **** //return high priority task pointer
 612:SYS/task_manager/task_manager.c **** Task *Task_PriorityCompare(const Task *tsk_l, const Task *tsk_r)
 613:SYS/task_manager/task_manager.c **** {
 441              		.loc 1 613 1 is_stmt 1 view -0
 442              		.cfi_startproc
 443              		@ args = 0, pretend = 0, frame = 0
 444              		@ frame_needed = 0, uses_anonymous_args = 0
 445              		@ link register save eliminated.
 614:SYS/task_manager/task_manager.c ****     if ((tsk_l == NULL) && (tsk_r == NULL))
 446              		.loc 1 614 5 view .LVU99
 447              		.loc 1 614 8 is_stmt 0 view .LVU100
 448 0000 0346     		mov	r3, r0
 449 0002 78B1     		cbz	r0, .L40
 450              	.L25:
 615:SYS/task_manager/task_manager.c ****     {
 616:SYS/task_manager/task_manager.c ****         return NULL;
 617:SYS/task_manager/task_manager.c ****     }
 618:SYS/task_manager/task_manager.c **** 
 619:SYS/task_manager/task_manager.c ****     if ((tsk_l == NULL) && (tsk_r != NULL))
 451              		.loc 1 619 5 is_stmt 1 view .LVU101
 452              		.loc 1 619 8 is_stmt 0 view .LVU102
 453 0004 93B1     		cbz	r3, .L41
 454              	.L27:
 620:SYS/task_manager/task_manager.c ****     {
 621:SYS/task_manager/task_manager.c ****         return tsk_r;
 622:SYS/task_manager/task_manager.c ****     }
 623:SYS/task_manager/task_manager.c **** 
 624:SYS/task_manager/task_manager.c ****     if ((tsk_l != NULL) && (tsk_r == NULL))
 455              		.loc 1 624 5 is_stmt 1 view .LVU103
 456              		.loc 1 624 8 is_stmt 0 view .LVU104
 457 0006 03B1     		cbz	r3, .L28
 458              		.loc 1 624 25 discriminator 1 view .LVU105
 459 0008 C9B1     		cbz	r1, .L32
 460              	.L28:
 613:SYS/task_manager/task_manager.c ****     if ((tsk_l == NULL) && (tsk_r == NULL))
 461              		.loc 1 613 1 view .LVU106
 462 000a 30B4     		push	{r4, r5}
 463              	.LCFI8:
 464              		.cfi_def_cfa_offset 8
 465              		.cfi_offset 4, -8
 466              		.cfi_offset 5, -4
 625:SYS/task_manager/task_manager.c ****     {
 626:SYS/task_manager/task_manager.c ****         return tsk_l;
 627:SYS/task_manager/task_manager.c ****     }
 628:SYS/task_manager/task_manager.c **** 
 629:SYS/task_manager/task_manager.c ****     uint8_t L_Grp_level = GET_TASKGROUP_PRIORITY(tsk_l->priority.Suction.Group_Level);
 467              		.loc 1 629 5 is_stmt 1 view .LVU107
 468              		.loc 1 629 27 is_stmt 0 view .LVU108
ARM GAS  /tmp/ccMrs0Mo.s 			page 20


 469 000c 1878     		ldrb	r0, [r3]	@ zero_extendqisi2
 470              	.LVL28:
 471              		.loc 1 629 13 view .LVU109
 472 000e 0025     		movs	r5, #0
 473              	.LVL29:
 630:SYS/task_manager/task_manager.c ****     uint8_t R_Grp_level = GET_TASKGROUP_PRIORITY(tsk_r->priority.Suction.Group_Level);
 474              		.loc 1 630 5 is_stmt 1 view .LVU110
 475              		.loc 1 630 27 is_stmt 0 view .LVU111
 476 0010 0A78     		ldrb	r2, [r1]	@ zero_extendqisi2
 477              	.LVL30:
 631:SYS/task_manager/task_manager.c ****     uint8_t L_TskPri_level = GET_TASKINGROUP_PRIORITY(tsk_l->priority.Suction.Task_Level);
 478              		.loc 1 631 5 is_stmt 1 view .LVU112
 479              		.loc 1 631 30 is_stmt 0 view .LVU113
 480 0012 00F00700 		and	r0, r0, #7
 481              	.LVL31:
 632:SYS/task_manager/task_manager.c ****     uint8_t R_TskPri_level = GET_TASKINGROUP_PRIORITY(tsk_r->priority.Suction.Task_Level);
 482              		.loc 1 632 5 is_stmt 1 view .LVU114
 483              		.loc 1 632 30 is_stmt 0 view .LVU115
 484 0016 02F00702 		and	r2, r2, #7
 485              	.LVL32:
 633:SYS/task_manager/task_manager.c **** 
 634:SYS/task_manager/task_manager.c ****     if (L_Grp_level < R_Grp_level)
 486              		.loc 1 634 5 is_stmt 1 view .LVU116
 635:SYS/task_manager/task_manager.c ****     {
 636:SYS/task_manager/task_manager.c ****         return tsk_l;
 637:SYS/task_manager/task_manager.c ****     }
 638:SYS/task_manager/task_manager.c ****     else if (L_Grp_level > R_Grp_level)
 487              		.loc 1 638 10 view .LVU117
 488              		.loc 1 638 13 is_stmt 0 view .LVU118
 489 001a AD42     		cmp	r5, r5
 490 001c 11D8     		bhi	.L34
 639:SYS/task_manager/task_manager.c ****     {
 640:SYS/task_manager/task_manager.c ****         return tsk_r;
 641:SYS/task_manager/task_manager.c ****     }
 642:SYS/task_manager/task_manager.c ****     else if (L_Grp_level == R_Grp_level)
 491              		.loc 1 642 10 is_stmt 1 view .LVU119
 492              		.loc 1 642 13 is_stmt 0 view .LVU120
 493 001e 09D0     		beq	.L42
 494              	.L24:
 643:SYS/task_manager/task_manager.c ****     {
 644:SYS/task_manager/task_manager.c ****         if (L_TskPri_level < R_TskPri_level)
 645:SYS/task_manager/task_manager.c ****         {
 646:SYS/task_manager/task_manager.c ****             return tsk_l;
 647:SYS/task_manager/task_manager.c ****         }
 648:SYS/task_manager/task_manager.c ****         else if (L_TskPri_level > R_TskPri_level)
 649:SYS/task_manager/task_manager.c ****         {
 650:SYS/task_manager/task_manager.c ****             return tsk_r;
 651:SYS/task_manager/task_manager.c ****         }
 652:SYS/task_manager/task_manager.c ****     }
 653:SYS/task_manager/task_manager.c **** }
 495              		.loc 1 653 1 view .LVU121
 496 0020 30BC     		pop	{r4, r5}
 497              	.LCFI9:
 498              		.cfi_restore 5
 499              		.cfi_restore 4
 500              		.cfi_def_cfa_offset 0
 501              	.LVL33:
ARM GAS  /tmp/ccMrs0Mo.s 			page 21


 502              		.loc 1 653 1 view .LVU122
 503 0022 7047     		bx	lr
 504              	.LVL34:
 505              	.L40:
 614:SYS/task_manager/task_manager.c ****     {
 506              		.loc 1 614 25 discriminator 1 view .LVU123
 507 0024 0029     		cmp	r1, #0
 508 0026 EDD1     		bne	.L25
 616:SYS/task_manager/task_manager.c ****     }
 509              		.loc 1 616 16 view .LVU124
 510 0028 0020     		movs	r0, #0
 511              	.LVL35:
 616:SYS/task_manager/task_manager.c ****     }
 512              		.loc 1 616 16 view .LVU125
 513 002a 7047     		bx	lr
 514              	.LVL36:
 515              	.L41:
 619:SYS/task_manager/task_manager.c ****     {
 516              		.loc 1 619 25 discriminator 1 view .LVU126
 517 002c 0029     		cmp	r1, #0
 518 002e EAD0     		beq	.L27
 621:SYS/task_manager/task_manager.c ****     }
 519              		.loc 1 621 16 view .LVU127
 520 0030 0846     		mov	r0, r1
 521              	.LVL37:
 621:SYS/task_manager/task_manager.c ****     }
 522              		.loc 1 621 16 view .LVU128
 523 0032 7047     		bx	lr
 524              	.LVL38:
 525              	.L42:
 526              	.LCFI10:
 527              		.cfi_def_cfa_offset 8
 528              		.cfi_offset 4, -8
 529              		.cfi_offset 5, -4
 644:SYS/task_manager/task_manager.c ****         {
 530              		.loc 1 644 9 is_stmt 1 view .LVU129
 644:SYS/task_manager/task_manager.c ****         {
 531              		.loc 1 644 12 is_stmt 0 view .LVU130
 532 0034 9042     		cmp	r0, r2
 533 0036 06D3     		bcc	.L35
 648:SYS/task_manager/task_manager.c ****         {
 534              		.loc 1 648 14 is_stmt 1 view .LVU131
 648:SYS/task_manager/task_manager.c ****         {
 535              		.loc 1 648 17 is_stmt 0 view .LVU132
 536 0038 F2D9     		bls	.L24
 650:SYS/task_manager/task_manager.c ****         }
 537              		.loc 1 650 20 view .LVU133
 538 003a 0846     		mov	r0, r1
 539 003c F0E7     		b	.L24
 540              	.LVL39:
 541              	.L32:
 542              	.LCFI11:
 543              		.cfi_def_cfa_offset 0
 544              		.cfi_restore 4
 545              		.cfi_restore 5
 626:SYS/task_manager/task_manager.c ****     }
 546              		.loc 1 626 16 view .LVU134
ARM GAS  /tmp/ccMrs0Mo.s 			page 22


 547 003e 1846     		mov	r0, r3
 548              	.LVL40:
 549              		.loc 1 653 1 view .LVU135
 550 0040 7047     		bx	lr
 551              	.LVL41:
 552              	.L34:
 553              	.LCFI12:
 554              		.cfi_def_cfa_offset 8
 555              		.cfi_offset 4, -8
 556              		.cfi_offset 5, -4
 640:SYS/task_manager/task_manager.c ****     }
 557              		.loc 1 640 16 view .LVU136
 558 0042 0846     		mov	r0, r1
 559 0044 ECE7     		b	.L24
 560              	.L35:
 646:SYS/task_manager/task_manager.c ****         }
 561              		.loc 1 646 20 view .LVU137
 562 0046 1846     		mov	r0, r3
 563 0048 EAE7     		b	.L24
 564              		.cfi_endproc
 565              	.LFE155:
 567              		.section	.text.ReSet_Task_Data,"ax",%progbits
 568              		.align	1
 569              		.syntax unified
 570              		.thumb
 571              		.thumb_func
 572              		.fpu fpv4-sp-d16
 574              	ReSet_Task_Data:
 575              	.LVL42:
 576              	.LFB126:
  95:SYS/task_manager/task_manager.c ****     task->priority.Suction.Group_Level = 0;
 577              		.loc 1 95 1 is_stmt 1 view -0
 578              		.cfi_startproc
 579              		@ args = 0, pretend = 0, frame = 0
 580              		@ frame_needed = 0, uses_anonymous_args = 0
  95:SYS/task_manager/task_manager.c ****     task->priority.Suction.Group_Level = 0;
 581              		.loc 1 95 1 is_stmt 0 view .LVU139
 582 0000 10B5     		push	{r4, lr}
 583              	.LCFI13:
 584              		.cfi_def_cfa_offset 8
 585              		.cfi_offset 4, -8
 586              		.cfi_offset 14, -4
 587 0002 0446     		mov	r4, r0
  96:SYS/task_manager/task_manager.c ****     task->priority.Suction.Task_Level = 0;
 588              		.loc 1 96 5 is_stmt 1 view .LVU140
  96:SYS/task_manager/task_manager.c ****     task->priority.Suction.Task_Level = 0;
 589              		.loc 1 96 40 is_stmt 0 view .LVU141
 590 0004 0378     		ldrb	r3, [r0]	@ zero_extendqisi2
  97:SYS/task_manager/task_manager.c ****     task->Task_name = NULL;
 591              		.loc 1 97 5 is_stmt 1 view .LVU142
  97:SYS/task_manager/task_manager.c ****     task->Task_name = NULL;
 592              		.loc 1 97 39 is_stmt 0 view .LVU143
 593 0006 03F0C703 		and	r3, r3, #199
 594 000a 6FF30203 		bfc	r3, #0, #3
 595 000e 0370     		strb	r3, [r0]
  98:SYS/task_manager/task_manager.c ****     task->exec_frq = 0;
 596              		.loc 1 98 5 is_stmt 1 view .LVU144
ARM GAS  /tmp/ccMrs0Mo.s 			page 23


  98:SYS/task_manager/task_manager.c ****     task->exec_frq = 0;
 597              		.loc 1 98 21 is_stmt 0 view .LVU145
 598 0010 0023     		movs	r3, #0
 599 0012 4360     		str	r3, [r0, #4]
  99:SYS/task_manager/task_manager.c ****     task->exec_interval_us = 0;
 600              		.loc 1 99 5 is_stmt 1 view .LVU146
  99:SYS/task_manager/task_manager.c ****     task->exec_interval_us = 0;
 601              		.loc 1 99 20 is_stmt 0 view .LVU147
 602 0014 8360     		str	r3, [r0, #8]
 100:SYS/task_manager/task_manager.c ****     task->Exec_Func = NULL;
 603              		.loc 1 100 5 is_stmt 1 view .LVU148
 100:SYS/task_manager/task_manager.c ****     task->Exec_Func = NULL;
 604              		.loc 1 100 28 is_stmt 0 view .LVU149
 605 0016 8381     		strh	r3, [r0, #12]	@ movhi
 101:SYS/task_manager/task_manager.c **** 
 606              		.loc 1 101 5 is_stmt 1 view .LVU150
 101:SYS/task_manager/task_manager.c **** 
 607              		.loc 1 101 21 is_stmt 0 view .LVU151
 608 0018 0361     		str	r3, [r0, #16]
 103:SYS/task_manager/task_manager.c ****     task->Exec_status.detect_exec_time_arv = 0;
 609              		.loc 1 103 5 is_stmt 1 view .LVU152
 103:SYS/task_manager/task_manager.c ****     task->Exec_status.detect_exec_time_arv = 0;
 610              		.loc 1 103 39 is_stmt 0 view .LVU153
 611 001a C362     		str	r3, [r0, #44]
 104:SYS/task_manager/task_manager.c ****     task->Exec_status.detect_exec_time_max = 0;
 612              		.loc 1 104 5 is_stmt 1 view .LVU154
 104:SYS/task_manager/task_manager.c ****     task->Exec_status.detect_exec_time_max = 0;
 613              		.loc 1 104 44 is_stmt 0 view .LVU155
 614 001c 0363     		str	r3, [r0, #48]
 105:SYS/task_manager/task_manager.c ****     task->Exec_status.Exec_Times = 0;
 615              		.loc 1 105 5 is_stmt 1 view .LVU156
 105:SYS/task_manager/task_manager.c ****     task->Exec_status.Exec_Times = 0;
 616              		.loc 1 105 44 is_stmt 0 view .LVU157
 617 001e 4363     		str	r3, [r0, #52]
 106:SYS/task_manager/task_manager.c ****     task->Exec_status.cpu_opy = 0;
 618              		.loc 1 106 5 is_stmt 1 view .LVU158
 106:SYS/task_manager/task_manager.c ****     task->Exec_status.cpu_opy = 0;
 619              		.loc 1 106 34 is_stmt 0 view .LVU159
 620 0020 8363     		str	r3, [r0, #56]
 107:SYS/task_manager/task_manager.c ****     task->Exec_status.totlal_running_time = 0;
 621              		.loc 1 107 5 is_stmt 1 view .LVU160
 107:SYS/task_manager/task_manager.c ****     task->Exec_status.totlal_running_time = 0;
 622              		.loc 1 107 31 is_stmt 0 view .LVU161
 623 0022 0022     		movs	r2, #0
 624 0024 4264     		str	r2, [r0, #68]	@ float
 108:SYS/task_manager/task_manager.c **** 
 625              		.loc 1 108 5 is_stmt 1 view .LVU162
 108:SYS/task_manager/task_manager.c **** 
 626              		.loc 1 108 43 is_stmt 0 view .LVU163
 627 0026 0364     		str	r3, [r0, #64]
 110:SYS/task_manager/task_manager.c ****     task->delay_info.tsk_hdl = 0;
 628              		.loc 1 110 5 is_stmt 1 view .LVU164
 110:SYS/task_manager/task_manager.c ****     task->delay_info.tsk_hdl = 0;
 629              		.loc 1 110 31 is_stmt 0 view .LVU165
 630 0028 80F86430 		strb	r3, [r0, #100]
 111:SYS/task_manager/task_manager.c ****     task->delay_info.time_unit = 0;
 631              		.loc 1 111 5 is_stmt 1 view .LVU166
ARM GAS  /tmp/ccMrs0Mo.s 			page 24


 111:SYS/task_manager/task_manager.c ****     task->delay_info.time_unit = 0;
 632              		.loc 1 111 30 is_stmt 0 view .LVU167
 633 002c 8366     		str	r3, [r0, #104]
 112:SYS/task_manager/task_manager.c **** 
 634              		.loc 1 112 5 is_stmt 1 view .LVU168
 112:SYS/task_manager/task_manager.c **** 
 635              		.loc 1 112 32 is_stmt 0 view .LVU169
 636 002e C366     		str	r3, [r0, #108]
 114:SYS/task_manager/task_manager.c **** 
 637              		.loc 1 114 5 is_stmt 1 view .LVU170
 638 0030 00F16401 		add	r1, r0, #100
 639 0034 7C30     		adds	r0, r0, #124
 640              	.LVL43:
 114:SYS/task_manager/task_manager.c **** 
 641              		.loc 1 114 5 is_stmt 0 view .LVU171
 642 0036 FFF7FEFF 		bl	List_ItemInit
 643              	.LVL44:
 116:SYS/task_manager/task_manager.c ****     RuntimeObj_Reset(&(task->Exec_status.Init_Time));
 644              		.loc 1 116 5 is_stmt 1 view .LVU172
 645 003a 04F12400 		add	r0, r4, #36
 646 003e FFF7FEFF 		bl	RuntimeObj_Reset
 647              	.LVL45:
 117:SYS/task_manager/task_manager.c ****     RuntimeObj_Reset(&(task->Exec_status.Start_Time));
 648              		.loc 1 117 5 view .LVU173
 649 0042 04F11400 		add	r0, r4, #20
 650 0046 FFF7FEFF 		bl	RuntimeObj_Reset
 651              	.LVL46:
 118:SYS/task_manager/task_manager.c **** 
 652              		.loc 1 118 5 view .LVU174
 653 004a 04F11C00 		add	r0, r4, #28
 654 004e FFF7FEFF 		bl	RuntimeObj_Reset
 655              	.LVL47:
 120:SYS/task_manager/task_manager.c **** }
 656              		.loc 1 120 5 view .LVU175
 120:SYS/task_manager/task_manager.c **** }
 657              		.loc 1 120 29 is_stmt 0 view .LVU176
 658 0052 0523     		movs	r3, #5
 659 0054 84F84830 		strb	r3, [r4, #72]
 121:SYS/task_manager/task_manager.c **** 
 660              		.loc 1 121 1 view .LVU177
 661 0058 10BD     		pop	{r4, pc}
 121:SYS/task_manager/task_manager.c **** 
 662              		.loc 1 121 1 view .LVU178
 663              		.cfi_endproc
 664              	.LFE126:
 666              		.section	.text.TaskSys_Init,"ax",%progbits
 667              		.align	1
 668              		.syntax unified
 669              		.thumb
 670              		.thumb_func
 671              		.fpu fpv4-sp-d16
 673              	TaskSys_Init:
 674              	.LFB128:
 137:SYS/task_manager/task_manager.c **** #if (TASK_SCHEDULER_TYPE == PREEMPTIVE_SCHDULER)
 675              		.loc 1 137 1 is_stmt 1 view -0
 676              		.cfi_startproc
 677              		@ args = 0, pretend = 0, frame = 0
ARM GAS  /tmp/ccMrs0Mo.s 			page 25


 678              		@ frame_needed = 0, uses_anonymous_args = 0
 679 0000 F8B5     		push	{r3, r4, r5, r6, r7, lr}
 680              	.LCFI14:
 681              		.cfi_def_cfa_offset 24
 682              		.cfi_offset 3, -24
 683              		.cfi_offset 4, -20
 684              		.cfi_offset 5, -16
 685              		.cfi_offset 6, -12
 686              		.cfi_offset 7, -8
 687              		.cfi_offset 14, -4
 140:SYS/task_manager/task_manager.c **** 
 688              		.loc 1 140 5 view .LVU180
 689 0002 4FF42052 		mov	r2, #10240
 690 0006 0021     		movs	r1, #0
 691 0008 1948     		ldr	r0, .L52
 692 000a FFF7FEFF 		bl	memset
 693              	.LVL48:
 142:SYS/task_manager/task_manager.c **** #endif
 694              		.loc 1 142 5 view .LVU181
 142:SYS/task_manager/task_manager.c **** #endif
 695              		.loc 1 142 24 is_stmt 0 view .LVU182
 696 000e 194B     		ldr	r3, .L52+4
 697 0010 194A     		ldr	r2, .L52+8
 698 0012 1A60     		str	r2, [r3]
 148:SYS/task_manager/task_manager.c **** 
 699              		.loc 1 148 5 is_stmt 1 view .LVU183
 700              	.LVL49:
 150:SYS/task_manager/task_manager.c ****     {
 701              		.loc 1 150 5 view .LVU184
 702              	.LBB2:
 150:SYS/task_manager/task_manager.c ****     {
 703              		.loc 1 150 10 view .LVU185
 150:SYS/task_manager/task_manager.c ****     {
 704              		.loc 1 150 18 is_stmt 0 view .LVU186
 705 0014 0027     		movs	r7, #0
 150:SYS/task_manager/task_manager.c ****     {
 706              		.loc 1 150 5 view .LVU187
 707 0016 18E0     		b	.L46
 708              	.LVL50:
 709              	.L47:
 710              	.LBB3:
 154:SYS/task_manager/task_manager.c **** 
 711              		.loc 1 154 13 is_stmt 1 discriminator 3 view .LVU188
 712 0018 184D     		ldr	r5, .L52+12
 713 001a 04EBC706 		add	r6, r4, r7, lsl #3
 714 001e 55F82600 		ldr	r0, [r5, r6, lsl #2]
 715 0022 FFF7FEFF 		bl	ReSet_Task_Data
 716              	.LVL51:
 157:SYS/task_manager/task_manager.c ****             Task_Ptr[group_index][task_priority]->TCB.Stack = NULL;
 717              		.loc 1 157 13 discriminator 3 view .LVU189
 157:SYS/task_manager/task_manager.c ****             Task_Ptr[group_index][task_priority]->TCB.Stack = NULL;
 718              		.loc 1 157 34 is_stmt 0 discriminator 3 view .LVU190
 719 0026 55F82620 		ldr	r2, [r5, r6, lsl #2]
 157:SYS/task_manager/task_manager.c ****             Task_Ptr[group_index][task_priority]->TCB.Stack = NULL;
 720              		.loc 1 157 63 discriminator 3 view .LVU191
 721 002a 0023     		movs	r3, #0
 722 002c D364     		str	r3, [r2, #76]
ARM GAS  /tmp/ccMrs0Mo.s 			page 26


 158:SYS/task_manager/task_manager.c ****             Task_Ptr[group_index][task_priority]->TCB.Top_Stk_Ptr = NULL;
 723              		.loc 1 158 13 is_stmt 1 discriminator 3 view .LVU192
 158:SYS/task_manager/task_manager.c ****             Task_Ptr[group_index][task_priority]->TCB.Top_Stk_Ptr = NULL;
 724              		.loc 1 158 34 is_stmt 0 discriminator 3 view .LVU193
 725 002e 55F82620 		ldr	r2, [r5, r6, lsl #2]
 158:SYS/task_manager/task_manager.c ****             Task_Ptr[group_index][task_priority]->TCB.Top_Stk_Ptr = NULL;
 726              		.loc 1 158 61 discriminator 3 view .LVU194
 727 0032 5365     		str	r3, [r2, #84]
 159:SYS/task_manager/task_manager.c **** #endif
 728              		.loc 1 159 13 is_stmt 1 discriminator 3 view .LVU195
 159:SYS/task_manager/task_manager.c **** #endif
 729              		.loc 1 159 34 is_stmt 0 discriminator 3 view .LVU196
 730 0034 55F82620 		ldr	r2, [r5, r6, lsl #2]
 159:SYS/task_manager/task_manager.c **** #endif
 731              		.loc 1 159 67 discriminator 3 view .LVU197
 732 0038 1365     		str	r3, [r2, #80]
 161:SYS/task_manager/task_manager.c **** 
 733              		.loc 1 161 13 is_stmt 1 discriminator 3 view .LVU198
 161:SYS/task_manager/task_manager.c **** 
 734              		.loc 1 161 50 is_stmt 0 discriminator 3 view .LVU199
 735 003a 45F82630 		str	r3, [r5, r6, lsl #2]
 163:SYS/task_manager/task_manager.c ****         }
 736              		.loc 1 163 13 is_stmt 1 discriminator 3 view .LVU200
 152:SYS/task_manager/task_manager.c ****         {
 737              		.loc 1 152 103 is_stmt 0 discriminator 3 view .LVU201
 738 003e 0134     		adds	r4, r4, #1
 739              	.LVL52:
 152:SYS/task_manager/task_manager.c ****         {
 740              		.loc 1 152 103 discriminator 3 view .LVU202
 741 0040 E4B2     		uxtb	r4, r4
 742              	.LVL53:
 743              	.L48:
 152:SYS/task_manager/task_manager.c ****         {
 744              		.loc 1 152 9 discriminator 1 view .LVU203
 745 0042 072C     		cmp	r4, #7
 746 0044 E8D9     		bls	.L47
 747              	.LBE3:
 150:SYS/task_manager/task_manager.c ****     {
 748              		.loc 1 150 77 discriminator 2 view .LVU204
 749 0046 0137     		adds	r7, r7, #1
 750              	.LVL54:
 150:SYS/task_manager/task_manager.c ****     {
 751              		.loc 1 150 77 discriminator 2 view .LVU205
 752 0048 FFB2     		uxtb	r7, r7
 753              	.LVL55:
 754              	.L46:
 150:SYS/task_manager/task_manager.c ****     {
 755              		.loc 1 150 5 discriminator 1 view .LVU206
 756 004a 072F     		cmp	r7, #7
 757 004c 01D8     		bhi	.L51
 758              	.LBB4:
 152:SYS/task_manager/task_manager.c ****         {
 759              		.loc 1 152 22 view .LVU207
 760 004e 0024     		movs	r4, #0
 761 0050 F7E7     		b	.L48
 762              	.L51:
 763              	.LBE4:
ARM GAS  /tmp/ccMrs0Mo.s 			page 27


 764              	.LBE2:
 167:SYS/task_manager/task_manager.c ****     TskCrt_RegList.list.data = NULL;
 765              		.loc 1 167 5 is_stmt 1 view .LVU208
 167:SYS/task_manager/task_manager.c ****     TskCrt_RegList.list.data = NULL;
 766              		.loc 1 167 24 is_stmt 0 view .LVU209
 767 0052 0B4B     		ldr	r3, .L52+16
 768 0054 0022     		movs	r2, #0
 769 0056 1A70     		strb	r2, [r3]
 168:SYS/task_manager/task_manager.c ****     TskCrt_RegList.list.nxt = NULL;
 770              		.loc 1 168 5 is_stmt 1 view .LVU210
 168:SYS/task_manager/task_manager.c ****     TskCrt_RegList.list.nxt = NULL;
 771              		.loc 1 168 30 is_stmt 0 view .LVU211
 772 0058 5A61     		str	r2, [r3, #20]
 169:SYS/task_manager/task_manager.c ****     TskCrt_RegList.list.prv = NULL;
 773              		.loc 1 169 5 is_stmt 1 view .LVU212
 169:SYS/task_manager/task_manager.c ****     TskCrt_RegList.list.prv = NULL;
 774              		.loc 1 169 29 is_stmt 0 view .LVU213
 775 005a 1A61     		str	r2, [r3, #16]
 170:SYS/task_manager/task_manager.c **** 
 776              		.loc 1 170 5 is_stmt 1 view .LVU214
 170:SYS/task_manager/task_manager.c **** 
 777              		.loc 1 170 29 is_stmt 0 view .LVU215
 778 005c DA60     		str	r2, [r3, #12]
 172:SYS/task_manager/task_manager.c ****     TskSys_state = TaskSys_Prepare;
 779              		.loc 1 172 5 is_stmt 1 view .LVU216
 780 005e 094B     		ldr	r3, .L52+20
 781 0060 1868     		ldr	r0, [r3]
 782 0062 FFF7FEFF 		bl	ReSet_Task_Data
 783              	.LVL56:
 173:SYS/task_manager/task_manager.c **** }
 784              		.loc 1 173 5 view .LVU217
 173:SYS/task_manager/task_manager.c **** }
 785              		.loc 1 173 18 is_stmt 0 view .LVU218
 786 0066 084B     		ldr	r3, .L52+24
 787 0068 0122     		movs	r2, #1
 788 006a 1A70     		strb	r2, [r3]
 174:SYS/task_manager/task_manager.c **** 
 789              		.loc 1 174 1 view .LVU219
 790 006c F8BD     		pop	{r3, r4, r5, r6, r7, pc}
 791              	.LVL57:
 792              	.L53:
 174:SYS/task_manager/task_manager.c **** 
 793              		.loc 1 174 1 view .LVU220
 794 006e 00BF     		.align	2
 795              	.L52:
 796 0070 00000000 		.word	Task_OS_StkMem
 797 0074 00000000 		.word	Task_OS_ExpStkBase
 798 0078 FC9F0000 		.word	Task_OS_StkMem+40956
 799 007c 00000000 		.word	Task_Ptr
 800 0080 00000000 		.word	.LANCHOR3
 801 0084 00000000 		.word	.LANCHOR4
 802 0088 00000000 		.word	.LANCHOR5
 803              		.cfi_endproc
 804              	.LFE128:
 806              		.section	.text.Task_SetStkPtr_Val,"ax",%progbits
 807              		.align	1
 808              		.syntax unified
ARM GAS  /tmp/ccMrs0Mo.s 			page 28


 809              		.thumb
 810              		.thumb_func
 811              		.fpu fpv4-sp-d16
 813              	Task_SetStkPtr_Val:
 814              	.LVL58:
 815              	.LFB144:
 440:SYS/task_manager/task_manager.c ****     uint32_t *Tsk_Ptr_tmp = NULL;
 816              		.loc 1 440 1 is_stmt 1 view -0
 817              		.cfi_startproc
 818              		@ args = 0, pretend = 0, frame = 0
 819              		@ frame_needed = 0, uses_anonymous_args = 0
 440:SYS/task_manager/task_manager.c ****     uint32_t *Tsk_Ptr_tmp = NULL;
 820              		.loc 1 440 1 is_stmt 0 view .LVU222
 821 0000 10B5     		push	{r4, lr}
 822              	.LCFI15:
 823              		.cfi_def_cfa_offset 8
 824              		.cfi_offset 4, -8
 825              		.cfi_offset 14, -4
 826 0002 0446     		mov	r4, r0
 441:SYS/task_manager/task_manager.c **** 
 827              		.loc 1 441 5 is_stmt 1 view .LVU223
 828              	.LVL59:
 443:SYS/task_manager/task_manager.c **** 
 829              		.loc 1 443 5 view .LVU224
 830 0004 C26C     		ldr	r2, [r0, #76]
 831 0006 0021     		movs	r1, #0
 832 0008 406D     		ldr	r0, [r0, #84]
 833              	.LVL60:
 443:SYS/task_manager/task_manager.c **** 
 834              		.loc 1 443 5 is_stmt 0 view .LVU225
 835 000a FFF7FEFF 		bl	memset
 836              	.LVL61:
 445:SYS/task_manager/task_manager.c ****     Tsk_Ptr_tmp = (uint32_t *)((uint32_t)(Tsk_Ptr_tmp)&0XFFFFFFF8ul);
 837              		.loc 1 445 5 is_stmt 1 view .LVU226
 445:SYS/task_manager/task_manager.c ****     Tsk_Ptr_tmp = (uint32_t *)((uint32_t)(Tsk_Ptr_tmp)&0XFFFFFFF8ul);
 838              		.loc 1 445 19 is_stmt 0 view .LVU227
 839 000e 04F15403 		add	r3, r4, #84
 445:SYS/task_manager/task_manager.c ****     Tsk_Ptr_tmp = (uint32_t *)((uint32_t)(Tsk_Ptr_tmp)&0XFFFFFFF8ul);
 840              		.loc 1 445 41 view .LVU228
 841 0012 E26C     		ldr	r2, [r4, #76]
 445:SYS/task_manager/task_manager.c ****     Tsk_Ptr_tmp = (uint32_t *)((uint32_t)(Tsk_Ptr_tmp)&0XFFFFFFF8ul);
 842              		.loc 1 445 35 view .LVU229
 843 0014 02F18042 		add	r2, r2, #1073741824
 844 0018 013A     		subs	r2, r2, #1
 445:SYS/task_manager/task_manager.c ****     Tsk_Ptr_tmp = (uint32_t *)((uint32_t)(Tsk_Ptr_tmp)&0XFFFFFFF8ul);
 845              		.loc 1 445 17 view .LVU230
 846 001a 03EB8203 		add	r3, r3, r2, lsl #2
 847              	.LVL62:
 446:SYS/task_manager/task_manager.c **** 
 848              		.loc 1 446 5 is_stmt 1 view .LVU231
 446:SYS/task_manager/task_manager.c **** 
 849              		.loc 1 446 55 is_stmt 0 view .LVU232
 850 001e 23F00703 		bic	r3, r3, #7
 851              	.LVL63:
 448:SYS/task_manager/task_manager.c ****     *Tsk_Ptr_tmp = 0x01000000uL; /* xPSR */
 852              		.loc 1 448 5 is_stmt 1 view .LVU233
 449:SYS/task_manager/task_manager.c **** 
ARM GAS  /tmp/ccMrs0Mo.s 			page 29


 853              		.loc 1 449 5 view .LVU234
 449:SYS/task_manager/task_manager.c **** 
 854              		.loc 1 449 18 is_stmt 0 view .LVU235
 855 0022 4FF08072 		mov	r2, #16777216
 856 0026 43F8042C 		str	r2, [r3, #-4]
 451:SYS/task_manager/task_manager.c ****     *Tsk_Ptr_tmp = ((uint32_t)Task_Caller) & 0xfffffffeUL; /* PC */
 857              		.loc 1 451 5 is_stmt 1 view .LVU236
 858              	.LVL64:
 452:SYS/task_manager/task_manager.c **** 
 859              		.loc 1 452 5 view .LVU237
 452:SYS/task_manager/task_manager.c **** 
 860              		.loc 1 452 21 is_stmt 0 view .LVU238
 861 002a 094A     		ldr	r2, .L56
 452:SYS/task_manager/task_manager.c **** 
 862              		.loc 1 452 44 view .LVU239
 863 002c 22F00102 		bic	r2, r2, #1
 452:SYS/task_manager/task_manager.c **** 
 864              		.loc 1 452 18 view .LVU240
 865 0030 43F8082C 		str	r2, [r3, #-8]
 454:SYS/task_manager/task_manager.c ****     *Tsk_Ptr_tmp = (uint32_t)Task_Exit; /* LR */
 866              		.loc 1 454 5 is_stmt 1 view .LVU241
 867              	.LVL65:
 455:SYS/task_manager/task_manager.c **** 
 868              		.loc 1 455 5 view .LVU242
 455:SYS/task_manager/task_manager.c **** 
 869              		.loc 1 455 20 is_stmt 0 view .LVU243
 870 0034 074A     		ldr	r2, .L56+4
 455:SYS/task_manager/task_manager.c **** 
 871              		.loc 1 455 18 view .LVU244
 872 0036 43F80C2C 		str	r2, [r3, #-12]
 458:SYS/task_manager/task_manager.c ****     *Tsk_Ptr_tmp = (uint32_t)NULL; /* R0 */
 873              		.loc 1 458 5 is_stmt 1 view .LVU245
 874              	.LVL66:
 459:SYS/task_manager/task_manager.c **** 
 875              		.loc 1 459 5 view .LVU246
 459:SYS/task_manager/task_manager.c **** 
 876              		.loc 1 459 18 is_stmt 0 view .LVU247
 877 003a 0022     		movs	r2, #0
 878 003c 43F8202C 		str	r2, [r3, #-32]
 463:SYS/task_manager/task_manager.c ****     *Tsk_Ptr_tmp = 0xfffffffd;
 879              		.loc 1 463 5 is_stmt 1 view .LVU248
 880              	.LVL67:
 464:SYS/task_manager/task_manager.c **** 
 881              		.loc 1 464 5 view .LVU249
 464:SYS/task_manager/task_manager.c **** 
 882              		.loc 1 464 18 is_stmt 0 view .LVU250
 883 0040 6FF00202 		mvn	r2, #2
 884 0044 43F8242C 		str	r2, [r3, #-36]
 466:SYS/task_manager/task_manager.c **** 
 885              		.loc 1 466 5 is_stmt 1 view .LVU251
 466:SYS/task_manager/task_manager.c **** 
 886              		.loc 1 466 17 is_stmt 0 view .LVU252
 887 0048 443B     		subs	r3, r3, #68
 888              	.LVL68:
 469:SYS/task_manager/task_manager.c **** }
 889              		.loc 1 469 5 is_stmt 1 view .LVU253
 469:SYS/task_manager/task_manager.c **** }
ARM GAS  /tmp/ccMrs0Mo.s 			page 30


 890              		.loc 1 469 26 is_stmt 0 view .LVU254
 891 004a 2365     		str	r3, [r4, #80]
 470:SYS/task_manager/task_manager.c **** 
 892              		.loc 1 470 1 view .LVU255
 893 004c 10BD     		pop	{r4, pc}
 894              	.LVL69:
 895              	.L57:
 470:SYS/task_manager/task_manager.c **** 
 896              		.loc 1 470 1 view .LVU256
 897 004e 00BF     		.align	2
 898              	.L56:
 899 0050 00000000 		.word	Task_Caller
 900 0054 00000000 		.word	Task_Exit
 901              		.cfi_endproc
 902              	.LFE144:
 904              		.global	__aeabi_ul2f
 905              		.section	.text.Task_Idle,"ax",%progbits
 906              		.align	1
 907              		.syntax unified
 908              		.thumb
 909              		.thumb_func
 910              		.fpu fpv4-sp-d16
 912              	Task_Idle:
 913              	.LFB130:
 185:SYS/task_manager/task_manager.c ****     SYSTEM_RunTime cur_time;
 914              		.loc 1 185 1 is_stmt 1 view -0
 915              		.cfi_startproc
 916              		@ args = 0, pretend = 0, frame = 16
 917              		@ frame_needed = 0, uses_anonymous_args = 0
 918 0000 10B5     		push	{r4, lr}
 919              	.LCFI16:
 920              		.cfi_def_cfa_offset 8
 921              		.cfi_offset 4, -8
 922              		.cfi_offset 14, -4
 923 0002 84B0     		sub	sp, sp, #16
 924              	.LCFI17:
 925              		.cfi_def_cfa_offset 24
 186:SYS/task_manager/task_manager.c ****     SYSTEM_RunTime time_diff;
 926              		.loc 1 186 5 view .LVU258
 187:SYS/task_manager/task_manager.c **** 
 927              		.loc 1 187 5 view .LVU259
 189:SYS/task_manager/task_manager.c ****     RuntimeObj_Reset(&cur_time);
 928              		.loc 1 189 5 view .LVU260
 929 0004 6846     		mov	r0, sp
 930 0006 FFF7FEFF 		bl	RuntimeObj_Reset
 931              	.LVL70:
 190:SYS/task_manager/task_manager.c **** 
 932              		.loc 1 190 5 view .LVU261
 933 000a 02A8     		add	r0, sp, #8
 934 000c FFF7FEFF 		bl	RuntimeObj_Reset
 935              	.LVL71:
 192:SYS/task_manager/task_manager.c ****     time_diff = Get_TimeDifference_Between(TaskSys_StartTime, cur_time);
 936              		.loc 1 192 5 view .LVU262
 192:SYS/task_manager/task_manager.c ****     time_diff = Get_TimeDifference_Between(TaskSys_StartTime, cur_time);
 937              		.loc 1 192 16 is_stmt 0 view .LVU263
 938 0010 FFF7FEFF 		bl	Get_CurrentRunningUs
 939              	.LVL72:
ARM GAS  /tmp/ccMrs0Mo.s 			page 31


 940 0014 0246     		mov	r2, r0
 941 0016 0B46     		mov	r3, r1
 192:SYS/task_manager/task_manager.c ****     time_diff = Get_TimeDifference_Between(TaskSys_StartTime, cur_time);
 942              		.loc 1 192 14 view .LVU264
 943 0018 CDE90223 		strd	r2, [sp, #8]
 193:SYS/task_manager/task_manager.c **** 
 944              		.loc 1 193 5 is_stmt 1 view .LVU265
 193:SYS/task_manager/task_manager.c **** 
 945              		.loc 1 193 17 is_stmt 0 view .LVU266
 946 001c 0B49     		ldr	r1, .L60
 947 001e D1E90001 		ldrd	r0, [r1]
 948 0022 FFF7FEFF 		bl	Get_TimeDifference_Between
 949              	.LVL73:
 195:SYS/task_manager/task_manager.c ****     TaskSys_Idle_Ocupy = (TaskSys_Idle_US / (float)time_diff);
 950              		.loc 1 195 5 is_stmt 1 view .LVU267
 195:SYS/task_manager/task_manager.c ****     TaskSys_Idle_Ocupy = (TaskSys_Idle_US / (float)time_diff);
 951              		.loc 1 195 20 is_stmt 0 view .LVU268
 952 0026 0A4B     		ldr	r3, .L60+4
 953 0028 1C68     		ldr	r4, [r3]
 954 002a 0134     		adds	r4, r4, #1
 955 002c 1C60     		str	r4, [r3]
 196:SYS/task_manager/task_manager.c **** }
 956              		.loc 1 196 5 is_stmt 1 view .LVU269
 196:SYS/task_manager/task_manager.c **** }
 957              		.loc 1 196 45 is_stmt 0 view .LVU270
 958 002e FFF7FEFF 		bl	__aeabi_ul2f
 959              	.LVL74:
 196:SYS/task_manager/task_manager.c **** }
 960              		.loc 1 196 43 view .LVU271
 961 0032 07EE904A 		vmov	s15, r4	@ int
 962 0036 F8EE677A 		vcvt.f32.u32	s15, s15
 963 003a 07EE100A 		vmov	s14, r0
 964 003e 87EE877A 		vdiv.f32	s14, s15, s14
 196:SYS/task_manager/task_manager.c **** }
 965              		.loc 1 196 24 view .LVU272
 966 0042 044B     		ldr	r3, .L60+8
 967 0044 83ED007A 		vstr.32	s14, [r3]
 197:SYS/task_manager/task_manager.c **** 
 968              		.loc 1 197 1 view .LVU273
 969 0048 04B0     		add	sp, sp, #16
 970              	.LCFI18:
 971              		.cfi_def_cfa_offset 8
 972              		@ sp needed
 973 004a 10BD     		pop	{r4, pc}
 974              	.L61:
 975              		.align	2
 976              	.L60:
 977 004c 00000000 		.word	.LANCHOR6
 978 0050 00000000 		.word	.LANCHOR7
 979 0054 00000000 		.word	.LANCHOR8
 980              		.cfi_endproc
 981              	.LFE130:
 983              		.section	.text.Task_Exec,"ax",%progbits
 984              		.align	1
 985              		.syntax unified
 986              		.thumb
 987              		.thumb_func
ARM GAS  /tmp/ccMrs0Mo.s 			page 32


 988              		.fpu fpv4-sp-d16
 990              	Task_Exec:
 991              	.LVL75:
 992              	.LFB165:
 654:SYS/task_manager/task_manager.c **** 
 655:SYS/task_manager/task_manager.c **** Task_Handler Task_Create(const char *name, uint32_t frq, Priority_Group group, TASK_Priority priori
 656:SYS/task_manager/task_manager.c **** {
 657:SYS/task_manager/task_manager.c ****     Task_Handler handle;
 658:SYS/task_manager/task_manager.c ****     uint16_t task_name_len = strlen(name);
 659:SYS/task_manager/task_manager.c ****     uint32_t *Tsk_Ptr_tmp = NULL;
 660:SYS/task_manager/task_manager.c ****     static bool taskOs_InitState = false;
 661:SYS/task_manager/task_manager.c **** 
 662:SYS/task_manager/task_manager.c ****     if (!taskOs_InitState)
 663:SYS/task_manager/task_manager.c ****     {
 664:SYS/task_manager/task_manager.c ****         TaskSys_Init();
 665:SYS/task_manager/task_manager.c ****         taskOs_InitState = true;
 666:SYS/task_manager/task_manager.c ****     }
 667:SYS/task_manager/task_manager.c **** 
 668:SYS/task_manager/task_manager.c ****     //already have task in current group and priority in task pointer matrix
 669:SYS/task_manager/task_manager.c ****     if (Task_Ptr[group][priority] != NULL)
 670:SYS/task_manager/task_manager.c ****     {
 671:SYS/task_manager/task_manager.c ****         return TASK_REGISTED;
 672:SYS/task_manager/task_manager.c ****     }
 673:SYS/task_manager/task_manager.c **** 
 674:SYS/task_manager/task_manager.c ****     //request a memory space for Task_Ptr contain
 675:SYS/task_manager/task_manager.c ****     Task_Ptr[group][priority] = (Task *)malloc(sizeof(Task));
 676:SYS/task_manager/task_manager.c **** 
 677:SYS/task_manager/task_manager.c ****     //record Task_Ptr poiner`s address
 678:SYS/task_manager/task_manager.c ****     handle = *&Task_Ptr[group][priority];
 679:SYS/task_manager/task_manager.c **** 
 680:SYS/task_manager/task_manager.c ****     Task_Ptr[group][priority]->Task_name = name;
 681:SYS/task_manager/task_manager.c **** 
 682:SYS/task_manager/task_manager.c ****     Task_Ptr[group][priority]->exec_frq = frq;
 683:SYS/task_manager/task_manager.c ****     Task_Ptr[group][priority]->exec_interval_us = RUNTIEM_MAX_TICK_FRQ / frq;
 684:SYS/task_manager/task_manager.c ****     Task_Ptr[group][priority]->Exec_Func = func;
 685:SYS/task_manager/task_manager.c **** 
 686:SYS/task_manager/task_manager.c ****     Task_Ptr[group][priority]->priority.Priority = (group << 3) | priority;
 687:SYS/task_manager/task_manager.c **** 
 688:SYS/task_manager/task_manager.c **** #if (TASK_SCHEDULER_TYPE == PREEMPTIVE_SCHDULER)
 689:SYS/task_manager/task_manager.c ****     //init delay tag
 690:SYS/task_manager/task_manager.c ****     Task_Ptr[group][priority]->delay_info.on_delay = false;
 691:SYS/task_manager/task_manager.c ****     Task_Ptr[group][priority]->delay_info.tsk_hdl = handle;
 692:SYS/task_manager/task_manager.c ****     Task_Ptr[group][priority]->delay_info.time_unit = 0;
 693:SYS/task_manager/task_manager.c **** 
 694:SYS/task_manager/task_manager.c ****     //request memory space for task stack
 695:SYS/task_manager/task_manager.c ****     Task_Ptr[group][priority]->Stack_Depth = StackDepth;
 696:SYS/task_manager/task_manager.c ****     Task_Ptr[group][priority]->TCB.Stack = (uint32_t *)malloc(StackDepth * sizeof(uint32_t));
 697:SYS/task_manager/task_manager.c **** 
 698:SYS/task_manager/task_manager.c ****     if (Task_Ptr[group][priority]->TCB.Stack != NULL)
 699:SYS/task_manager/task_manager.c ****     {
 700:SYS/task_manager/task_manager.c ****         Task_SetStkPtr_Val(Task_Ptr[group][priority]);
 701:SYS/task_manager/task_manager.c ****     }
 702:SYS/task_manager/task_manager.c ****     else
 703:SYS/task_manager/task_manager.c ****     {
 704:SYS/task_manager/task_manager.c ****         return TASK_BAD_MEMSPC_REQ;
 705:SYS/task_manager/task_manager.c ****     }
 706:SYS/task_manager/task_manager.c **** #endif
ARM GAS  /tmp/ccMrs0Mo.s 			page 33


 707:SYS/task_manager/task_manager.c ****     //reset task running statistics reg
 708:SYS/task_manager/task_manager.c ****     Task_Ptr[group][priority]->statistics_reg.Reg.Caller_Statistics_REG = stop_statistics;
 709:SYS/task_manager/task_manager.c ****     Task_Ptr[group][priority]->statistics_reg.Reg.TskFun_Statistics_REG = stop_statistics;
 710:SYS/task_manager/task_manager.c **** 
 711:SYS/task_manager/task_manager.c ****     //reset single loop running us
 712:SYS/task_manager/task_manager.c ****     Task_Ptr[group][priority]->TskFuncUing_US = 0;
 713:SYS/task_manager/task_manager.c ****     Task_Ptr[group][priority]->CallerUsing_US = 0;
 714:SYS/task_manager/task_manager.c **** 
 715:SYS/task_manager/task_manager.c ****     //reset task cpu occupy data
 716:SYS/task_manager/task_manager.c ****     Task_Ptr[group][priority]->Exec_status.cpu_opy = 0;
 717:SYS/task_manager/task_manager.c ****     Task_Ptr[group][priority]->Exec_status.totlal_running_time = 0;
 718:SYS/task_manager/task_manager.c **** 
 719:SYS/task_manager/task_manager.c ****     //set current group flag to ready
 720:SYS/task_manager/task_manager.c ****     TskHdl_RdyMap.Grp.Flg |= 1 << GET_TASKGROUP_PRIORITY(Task_Ptr[group][priority]->priority.Priori
 721:SYS/task_manager/task_manager.c ****     //set current task under this group flag to ready
 722:SYS/task_manager/task_manager.c ****     TskHdl_RdyMap.TskInGrp[GET_TASKGROUP_PRIORITY(Task_Ptr[group][priority]->priority.Priority)].Fl
 723:SYS/task_manager/task_manager.c **** 
 724:SYS/task_manager/task_manager.c ****     Task_Ptr[group][priority]->Exec_status.detect_exec_frq = 0;
 725:SYS/task_manager/task_manager.c ****     Task_Ptr[group][priority]->Exec_status.detect_exec_time_arv = 0;
 726:SYS/task_manager/task_manager.c ****     Task_Ptr[group][priority]->Exec_status.detect_exec_time_max = 0;
 727:SYS/task_manager/task_manager.c **** 
 728:SYS/task_manager/task_manager.c ****     RuntimeObj_Reset(&(Task_Ptr[group][priority]->Exec_status.Exec_Time));
 729:SYS/task_manager/task_manager.c ****     RuntimeObj_Reset(&(Task_Ptr[group][priority]->Exec_status.Init_Time));
 730:SYS/task_manager/task_manager.c ****     RuntimeObj_Reset(&(Task_Ptr[group][priority]->Exec_status.Start_Time));
 731:SYS/task_manager/task_manager.c **** 
 732:SYS/task_manager/task_manager.c ****     Task_Ptr[group][priority]->Exec_status.Init_Time = Get_CurrentRunningUs();
 733:SYS/task_manager/task_manager.c **** 
 734:SYS/task_manager/task_manager.c ****     Task_Ptr[group][priority]->Exec_status.Exec_Times = 0;
 735:SYS/task_manager/task_manager.c ****     Task_Ptr[group][priority]->Exec_status.error_code = NOERROR;
 736:SYS/task_manager/task_manager.c **** 
 737:SYS/task_manager/task_manager.c ****     Task_SetReady(Task_Ptr[group][priority]);
 738:SYS/task_manager/task_manager.c **** 
 739:SYS/task_manager/task_manager.c **** #if DEBUG
 740:SYS/task_manager/task_manager.c ****     Debug_Output("create %s done\r\n\r\n", name);
 741:SYS/task_manager/task_manager.c **** #endif
 742:SYS/task_manager/task_manager.c **** 
 743:SYS/task_manager/task_manager.c ****     Task_Ptr[group][priority]->item_ptr = (item_obj *)malloc(sizeof(item_obj));
 744:SYS/task_manager/task_manager.c ****     if (Task_Ptr[group][priority]->item_ptr == NULL)
 745:SYS/task_manager/task_manager.c ****     {
 746:SYS/task_manager/task_manager.c ****         return TASK_BAD_MEMSPC_REQ;
 747:SYS/task_manager/task_manager.c ****     }
 748:SYS/task_manager/task_manager.c **** 
 749:SYS/task_manager/task_manager.c ****     List_ItemInit(Task_Ptr[group][priority]->item_ptr, Task_Ptr[group][priority]);
 750:SYS/task_manager/task_manager.c ****     if (TskCrt_RegList.num == 0)
 751:SYS/task_manager/task_manager.c ****     {
 752:SYS/task_manager/task_manager.c ****         List_Init(&TskCrt_RegList.list, Task_Ptr[group][priority]->item_ptr, by_condition, Task_Pri
 753:SYS/task_manager/task_manager.c ****     }
 754:SYS/task_manager/task_manager.c ****     else
 755:SYS/task_manager/task_manager.c ****     {
 756:SYS/task_manager/task_manager.c ****         List_Insert_Item(&TskCrt_RegList.list, Task_Ptr[group][priority]->item_ptr);
 757:SYS/task_manager/task_manager.c ****     }
 758:SYS/task_manager/task_manager.c **** 
 759:SYS/task_manager/task_manager.c ****     List_ItemInit(&Task_Ptr[group][priority]->delay_item, &Task_Ptr[group][priority]->delay_info);
 760:SYS/task_manager/task_manager.c **** 
 761:SYS/task_manager/task_manager.c ****     TskCrt_RegList.num++;
 762:SYS/task_manager/task_manager.c **** 
 763:SYS/task_manager/task_manager.c ****     return handle;
ARM GAS  /tmp/ccMrs0Mo.s 			page 34


 764:SYS/task_manager/task_manager.c **** }
 765:SYS/task_manager/task_manager.c **** 
 766:SYS/task_manager/task_manager.c **** static void Task_Set_CountRunnigTime_State(Task *tsk_ptr, uint8_t enable_state)
 767:SYS/task_manager/task_manager.c **** {
 768:SYS/task_manager/task_manager.c ****     if (enable_state)
 769:SYS/task_manager/task_manager.c ****     {
 770:SYS/task_manager/task_manager.c ****         tsk_ptr->statistics_reg.Reg.Caller_Statistics_REG = start_statistics;
 771:SYS/task_manager/task_manager.c ****     }
 772:SYS/task_manager/task_manager.c ****     else
 773:SYS/task_manager/task_manager.c ****     {
 774:SYS/task_manager/task_manager.c ****         tsk_ptr->statistics_reg.Reg.Caller_Statistics_REG = stop_statistics;
 775:SYS/task_manager/task_manager.c ****         tsk_ptr->statistics_reg.Reg.TskFun_Statistics_REG = stop_statistics;
 776:SYS/task_manager/task_manager.c ****     }
 777:SYS/task_manager/task_manager.c **** 
 778:SYS/task_manager/task_manager.c ****     periph_Timer_Counter_SetEnable(Timer_4, enable_state);
 779:SYS/task_manager/task_manager.c **** }
 780:SYS/task_manager/task_manager.c **** 
 781:SYS/task_manager/task_manager.c **** static void Task_StartCountTargetFunc_Cast(Task *tsk_ptr)
 782:SYS/task_manager/task_manager.c **** {
 783:SYS/task_manager/task_manager.c ****     tsk_ptr->statistics_reg.Reg.TskFun_Statistics_REG = start_statistics;
 784:SYS/task_manager/task_manager.c **** }
 785:SYS/task_manager/task_manager.c **** 
 786:SYS/task_manager/task_manager.c **** static void Task_StopCountTargetFunc_Cast(Task *tsk_ptr)
 787:SYS/task_manager/task_manager.c **** {
 788:SYS/task_manager/task_manager.c ****     tsk_ptr->statistics_reg.Reg.TskFun_Statistics_REG = stop_statistics;
 789:SYS/task_manager/task_manager.c **** }
 790:SYS/task_manager/task_manager.c **** 
 791:SYS/task_manager/task_manager.c **** //Remove func untest
 792:SYS/task_manager/task_manager.c **** void Task_Remove(Task_Handler Tsk_Hdl)
 793:SYS/task_manager/task_manager.c **** {
 794:SYS/task_manager/task_manager.c ****     //convert Tsk_Hdl from uint32_t var to Task Address which we need to delete
 795:SYS/task_manager/task_manager.c ****     //free that memory space
 796:SYS/task_manager/task_manager.c ****     //erase all data in specificly memory space
 797:SYS/task_manager/task_manager.c ****     //set Task pointer to Null which we wanted to be delete
 798:SYS/task_manager/task_manager.c **** 
 799:SYS/task_manager/task_manager.c ****     uint8_t remove_group = GET_TASKGROUP_PRIORITY(((Task *)Tsk_Hdl)->priority.Priority);
 800:SYS/task_manager/task_manager.c ****     uint8_t remove_task = GET_TASKINGROUP_PRIORITY(((Task *)Tsk_Hdl)->priority.Priority);
 801:SYS/task_manager/task_manager.c **** 
 802:SYS/task_manager/task_manager.c ****     ReSet_Task_Data((Task *)Tsk_Hdl);
 803:SYS/task_manager/task_manager.c **** 
 804:SYS/task_manager/task_manager.c **** #if (TASK_SCHEDULER_TYPE == PREEMPTIVE_SCHDULER)
 805:SYS/task_manager/task_manager.c ****     free((uint32_t *)((Task *)Tsk_Hdl)->TCB.Stack);
 806:SYS/task_manager/task_manager.c ****     free((uint32_t *)((Task *)Tsk_Hdl)->TCB.Top_Stk_Ptr);
 807:SYS/task_manager/task_manager.c **** #endif
 808:SYS/task_manager/task_manager.c **** 
 809:SYS/task_manager/task_manager.c ****     free((Task *)Tsk_Hdl);
 810:SYS/task_manager/task_manager.c ****     Task_Ptr[remove_group][remove_task] = NULL;
 811:SYS/task_manager/task_manager.c **** }
 812:SYS/task_manager/task_manager.c **** 
 813:SYS/task_manager/task_manager.c **** void TaskSystem_Start(void)
 814:SYS/task_manager/task_manager.c **** {
 815:SYS/task_manager/task_manager.c ****     Runtime_Config(RUNTIME_TICK_FRQ_40K);
 816:SYS/task_manager/task_manager.c ****     Runtime_Set_start_Callback(NULL);
 817:SYS/task_manager/task_manager.c ****     Runtime_Set_stop_Callback(NULL);
 818:SYS/task_manager/task_manager.c ****     Runtime_Set_tick_Callback(Task_Scheduler); /* 5us cast by calling the scheduler */
 819:SYS/task_manager/task_manager.c ****     Runtime_Start();
 820:SYS/task_manager/task_manager.c **** 
ARM GAS  /tmp/ccMrs0Mo.s 			page 35


 821:SYS/task_manager/task_manager.c ****     RuntimeObj_Reset(&TaskSys_StartTime);
 822:SYS/task_manager/task_manager.c **** 
 823:SYS/task_manager/task_manager.c ****     TaskSys_StartTime = Get_CurrentRunningUs();
 824:SYS/task_manager/task_manager.c **** 
 825:SYS/task_manager/task_manager.c **** #if (TASK_SCHEDULER_TYPE == PREEMPTIVE_SCHDULER)
 826:SYS/task_manager/task_manager.c ****     NxtRunTsk_Ptr = Task_Get_HighestRank_RdyTask();
 827:SYS/task_manager/task_manager.c **** 
 828:SYS/task_manager/task_manager.c ****     if (NxtRunTsk_Ptr != NULL)
 829:SYS/task_manager/task_manager.c ****     {
 830:SYS/task_manager/task_manager.c ****         NxtTsk_TCB.Top_Stk_Ptr = &NxtRunTsk_Ptr->TCB.Top_Stk_Ptr;
 831:SYS/task_manager/task_manager.c ****         NxtTsk_TCB.Stack = NxtRunTsk_Ptr->TCB.Stack;
 832:SYS/task_manager/task_manager.c **** 
 833:SYS/task_manager/task_manager.c ****         CurTsk_TCB = NxtTsk_TCB;
 834:SYS/task_manager/task_manager.c ****     }
 835:SYS/task_manager/task_manager.c **** #endif
 836:SYS/task_manager/task_manager.c **** 
 837:SYS/task_manager/task_manager.c ****     Task_SetPendSVPro();
 838:SYS/task_manager/task_manager.c ****     Task_TriggerPendSV();
 839:SYS/task_manager/task_manager.c **** 
 840:SYS/task_manager/task_manager.c ****     return true;
 841:SYS/task_manager/task_manager.c **** }
 842:SYS/task_manager/task_manager.c **** 
 843:SYS/task_manager/task_manager.c **** void Task_SetRunState(Task_Handler Tsk_Handle, TASK_STATE state)
 844:SYS/task_manager/task_manager.c **** {
 845:SYS/task_manager/task_manager.c ****     ((Task *)Tsk_Handle)->Exec_status.State = state;
 846:SYS/task_manager/task_manager.c **** }
 847:SYS/task_manager/task_manager.c **** 
 848:SYS/task_manager/task_manager.c **** void Task_CountRunningTime(void)
 849:SYS/task_manager/task_manager.c **** {
 850:SYS/task_manager/task_manager.c ****     if (CurRunTsk_Ptr != NULL)
 851:SYS/task_manager/task_manager.c ****     {
 852:SYS/task_manager/task_manager.c ****         RunTime_Tick();
 853:SYS/task_manager/task_manager.c **** 
 854:SYS/task_manager/task_manager.c ****         if (CurRunTsk_Ptr->statistics_reg.Reg.TskFun_Statistics_REG == start_statistics)
 855:SYS/task_manager/task_manager.c ****         {
 856:SYS/task_manager/task_manager.c ****             CurRunTsk_Ptr->TskFuncUing_US++;
 857:SYS/task_manager/task_manager.c ****         }
 858:SYS/task_manager/task_manager.c **** 
 859:SYS/task_manager/task_manager.c ****         if (CurRunTsk_Ptr->statistics_reg.Reg.TskFun_Statistics_REG == start_statistics)
 860:SYS/task_manager/task_manager.c ****         {
 861:SYS/task_manager/task_manager.c ****             CurRunTsk_Ptr->CallerUsing_US++;
 862:SYS/task_manager/task_manager.c ****         }
 863:SYS/task_manager/task_manager.c ****     }
 864:SYS/task_manager/task_manager.c **** }
 865:SYS/task_manager/task_manager.c **** 
 866:SYS/task_manager/task_manager.c **** static Task *Get_TaskInstance(uint8_t group, uint8_t priority)
 867:SYS/task_manager/task_manager.c **** {
 868:SYS/task_manager/task_manager.c ****     return Task_Ptr[group][priority];
 869:SYS/task_manager/task_manager.c **** }
 870:SYS/task_manager/task_manager.c **** 
 871:SYS/task_manager/task_manager.c **** static void Task_Exec(Task *tsk_ptr)
 872:SYS/task_manager/task_manager.c **** {
 993              		.loc 1 872 1 is_stmt 1 view -0
 994              		.cfi_startproc
 995              		@ Volatile: function does not return.
 996              		@ args = 0, pretend = 0, frame = 8
 997              		@ frame_needed = 0, uses_anonymous_args = 0
ARM GAS  /tmp/ccMrs0Mo.s 			page 36


 998              		.loc 1 872 1 is_stmt 0 view .LVU275
 999 0000 00B5     		push	{lr}
 1000              	.LCFI19:
 1001              		.cfi_def_cfa_offset 4
 1002              		.cfi_offset 14, -4
 1003 0002 83B0     		sub	sp, sp, #12
 1004              	.LCFI20:
 1005              		.cfi_def_cfa_offset 16
 1006 0004 0446     		mov	r4, r0
 873:SYS/task_manager/task_manager.c ****     SYSTEM_RunTime time_diff;
 1007              		.loc 1 873 5 is_stmt 1 view .LVU276
 874:SYS/task_manager/task_manager.c ****     RuntimeObj_Reset(&time_diff);
 1008              		.loc 1 874 5 view .LVU277
 1009 0006 6846     		mov	r0, sp
 1010              	.LVL76:
 1011              		.loc 1 874 5 is_stmt 0 view .LVU278
 1012 0008 FFF7FEFF 		bl	RuntimeObj_Reset
 1013              	.LVL77:
 1014 000c 3EE0     		b	.L68
 1015              	.L70:
 875:SYS/task_manager/task_manager.c **** 
 876:SYS/task_manager/task_manager.c ****     while (true)
 877:SYS/task_manager/task_manager.c ****     {
 878:SYS/task_manager/task_manager.c ****         if (tsk_ptr->Exec_status.State == Task_Ready)
 879:SYS/task_manager/task_manager.c ****         {
 880:SYS/task_manager/task_manager.c ****             //Task_Set_CountRunnigTime_State(tsk_ptr, ENABLE);
 881:SYS/task_manager/task_manager.c **** 
 882:SYS/task_manager/task_manager.c ****             //set current running task
 883:SYS/task_manager/task_manager.c ****             CurRunTsk_Ptr = tsk_ptr;
 884:SYS/task_manager/task_manager.c **** 
 885:SYS/task_manager/task_manager.c ****             if (tsk_ptr->Exec_status.Exec_Times == 0)
 886:SYS/task_manager/task_manager.c ****             {
 887:SYS/task_manager/task_manager.c ****                 tsk_ptr->Exec_status.Start_Time = Get_CurrentRunningUs();
 1016              		.loc 1 887 17 is_stmt 1 view .LVU279
 1017              		.loc 1 887 51 is_stmt 0 view .LVU280
 1018 000e FFF7FEFF 		bl	Get_CurrentRunningUs
 1019              	.LVL78:
 1020              		.loc 1 887 49 view .LVU281
 1021 0012 E061     		str	r0, [r4, #28]
 1022 0014 2162     		str	r1, [r4, #32]
 888:SYS/task_manager/task_manager.c ****                 tsk_ptr->Exec_status.Exec_Time = tsk_ptr->Exec_status.Start_Time;
 1023              		.loc 1 888 17 is_stmt 1 view .LVU282
 1024              		.loc 1 888 48 is_stmt 0 view .LVU283
 1025 0016 6062     		str	r0, [r4, #36]
 1026 0018 A162     		str	r1, [r4, #40]
 1027 001a 40E0     		b	.L64
 1028              	.L71:
 889:SYS/task_manager/task_manager.c ****             }
 890:SYS/task_manager/task_manager.c **** 
 891:SYS/task_manager/task_manager.c ****             tsk_ptr->Exec_status.State = Task_Running;
 892:SYS/task_manager/task_manager.c ****             //Task_StartCountTargetFunc_Cast(tsk_ptr);
 893:SYS/task_manager/task_manager.c **** 
 894:SYS/task_manager/task_manager.c ****             //execute task funtion
 895:SYS/task_manager/task_manager.c ****             tsk_ptr->Exec_Func(*&tsk_ptr);
 896:SYS/task_manager/task_manager.c **** 
 897:SYS/task_manager/task_manager.c ****             //get current task execut time
 898:SYS/task_manager/task_manager.c ****             //Task_StopCountTargetFunc_Cast(tsk_ptr);
ARM GAS  /tmp/ccMrs0Mo.s 			page 37


 899:SYS/task_manager/task_manager.c **** 
 900:SYS/task_manager/task_manager.c ****             if (tsk_ptr->Exec_status.State == Task_Running)
 901:SYS/task_manager/task_manager.c ****             {
 902:SYS/task_manager/task_manager.c ****                 //when task function execute finish reset ready flag of current task in group
 903:SYS/task_manager/task_manager.c ****                 //code down below
 904:SYS/task_manager/task_manager.c ****                 Task_ClearReady(tsk_ptr);
 1029              		.loc 1 904 17 is_stmt 1 view .LVU284
 1030 001c 2046     		mov	r0, r4
 1031 001e FFF7FEFF 		bl	Task_ClearReady
 1032              	.LVL79:
 905:SYS/task_manager/task_manager.c **** 
 906:SYS/task_manager/task_manager.c ****                 tsk_ptr->Exec_status.State = Task_Stop;
 1033              		.loc 1 906 17 view .LVU285
 1034              		.loc 1 906 44 is_stmt 0 view .LVU286
 1035 0022 0223     		movs	r3, #2
 1036 0024 84F84830 		strb	r3, [r4, #72]
 907:SYS/task_manager/task_manager.c **** 
 908:SYS/task_manager/task_manager.c ****                 //record task running times
 909:SYS/task_manager/task_manager.c ****                 tsk_ptr->Exec_status.Exec_Times++;
 1037              		.loc 1 909 17 is_stmt 1 view .LVU287
 1038              		.loc 1 909 37 is_stmt 0 view .LVU288
 1039 0028 A36B     		ldr	r3, [r4, #56]
 1040              		.loc 1 909 48 view .LVU289
 1041 002a 0133     		adds	r3, r3, #1
 1042 002c A363     		str	r3, [r4, #56]
 910:SYS/task_manager/task_manager.c **** 
 911:SYS/task_manager/task_manager.c ****                 //get max task execut time
 912:SYS/task_manager/task_manager.c ****                 if (tsk_ptr->TskFuncUing_US > tsk_ptr->Exec_status.detect_exec_time_max)
 1043              		.loc 1 912 17 is_stmt 1 view .LVU290
 1044              		.loc 1 912 28 is_stmt 0 view .LVU291
 1045 002e E26D     		ldr	r2, [r4, #92]
 1046              		.loc 1 912 67 view .LVU292
 1047 0030 636B     		ldr	r3, [r4, #52]
 1048              		.loc 1 912 20 view .LVU293
 1049 0032 9A42     		cmp	r2, r3
 1050 0034 00D9     		bls	.L66
 913:SYS/task_manager/task_manager.c ****                 {
 914:SYS/task_manager/task_manager.c ****                     tsk_ptr->Exec_status.detect_exec_time_max = tsk_ptr->TskFuncUing_US;
 1051              		.loc 1 914 21 is_stmt 1 view .LVU294
 1052              		.loc 1 914 63 is_stmt 0 view .LVU295
 1053 0036 6263     		str	r2, [r4, #52]
 1054              	.L66:
 915:SYS/task_manager/task_manager.c ****                 }
 916:SYS/task_manager/task_manager.c **** 
 917:SYS/task_manager/task_manager.c ****                 //get task total execute time unit in us
 918:SYS/task_manager/task_manager.c ****                 tsk_ptr->Exec_status.totlal_running_time += tsk_ptr->TskFuncUing_US;
 1055              		.loc 1 918 17 is_stmt 1 view .LVU296
 1056              		.loc 1 918 58 is_stmt 0 view .LVU297
 1057 0038 236C     		ldr	r3, [r4, #64]
 1058 003a 1344     		add	r3, r3, r2
 1059 003c 2364     		str	r3, [r4, #64]
 919:SYS/task_manager/task_manager.c ****                 time_diff = Get_TimeDifference_Between(tsk_ptr->Exec_status.Start_Time, tsk_ptr->Ex
 1060              		.loc 1 919 17 is_stmt 1 view .LVU298
 1061              		.loc 1 919 29 is_stmt 0 view .LVU299
 1062 003e 626A     		ldr	r2, [r4, #36]
 1063 0040 A36A     		ldr	r3, [r4, #40]
 1064 0042 E069     		ldr	r0, [r4, #28]
ARM GAS  /tmp/ccMrs0Mo.s 			page 38


 1065 0044 216A     		ldr	r1, [r4, #32]
 1066 0046 FFF7FEFF 		bl	Get_TimeDifference_Between
 1067              	.LVL80:
 1068              		.loc 1 919 27 view .LVU300
 1069 004a CDE90001 		strd	r0, [sp]
 920:SYS/task_manager/task_manager.c **** 
 921:SYS/task_manager/task_manager.c ****                 tsk_ptr->Exec_status.cpu_opy = tsk_ptr->Exec_status.totlal_running_time / (float)ti
 1070              		.loc 1 921 17 is_stmt 1 view .LVU301
 1071              		.loc 1 921 68 is_stmt 0 view .LVU302
 1072 004e 256C     		ldr	r5, [r4, #64]
 1073              		.loc 1 921 91 view .LVU303
 1074 0050 FFF7FEFF 		bl	__aeabi_ul2f
 1075              	.LVL81:
 1076              		.loc 1 921 89 view .LVU304
 1077 0054 07EE905A 		vmov	s15, r5	@ int
 1078 0058 F8EE677A 		vcvt.f32.u32	s15, s15
 1079 005c 07EE100A 		vmov	s14, r0
 1080 0060 87EE877A 		vdiv.f32	s14, s15, s14
 1081              		.loc 1 921 46 view .LVU305
 1082 0064 84ED117A 		vstr.32	s14, [r4, #68]
 922:SYS/task_manager/task_manager.c **** 
 923:SYS/task_manager/task_manager.c ****                 //get average task running time
 924:SYS/task_manager/task_manager.c ****                 tsk_ptr->Exec_status.detect_exec_time_arv += tsk_ptr->TskFuncUing_US;
 1083              		.loc 1 924 17 is_stmt 1 view .LVU306
 1084              		.loc 1 924 69 is_stmt 0 view .LVU307
 1085 0068 E36D     		ldr	r3, [r4, #92]
 1086              		.loc 1 924 59 view .LVU308
 1087 006a 226B     		ldr	r2, [r4, #48]
 1088 006c 1344     		add	r3, r3, r2
 1089 006e 2363     		str	r3, [r4, #48]
 925:SYS/task_manager/task_manager.c ****                 if (tsk_ptr->Exec_status.Exec_Times > 1)
 1090              		.loc 1 925 17 is_stmt 1 view .LVU309
 1091              		.loc 1 925 41 is_stmt 0 view .LVU310
 1092 0070 A26B     		ldr	r2, [r4, #56]
 1093              		.loc 1 925 20 view .LVU311
 1094 0072 012A     		cmp	r2, #1
 1095 0074 01D9     		bls	.L67
 926:SYS/task_manager/task_manager.c ****                 {
 927:SYS/task_manager/task_manager.c ****                     tsk_ptr->Exec_status.detect_exec_time_arv /= 2;
 1096              		.loc 1 927 21 is_stmt 1 view .LVU312
 1097              		.loc 1 927 63 is_stmt 0 view .LVU313
 1098 0076 5B08     		lsrs	r3, r3, #1
 1099 0078 2363     		str	r3, [r4, #48]
 1100              	.L67:
 928:SYS/task_manager/task_manager.c ****                 }
 929:SYS/task_manager/task_manager.c **** 
 930:SYS/task_manager/task_manager.c ****                 tsk_ptr->Exec_status.Exec_Time = Get_TargetRunTime(tsk_ptr->exec_interval_us);
 1101              		.loc 1 930 17 is_stmt 1 view .LVU314
 1102              		.loc 1 930 50 is_stmt 0 view .LVU315
 1103 007a A089     		ldrh	r0, [r4, #12]
 1104 007c FFF7FEFF 		bl	Get_TargetRunTime
 1105              	.LVL82:
 1106              		.loc 1 930 48 view .LVU316
 1107 0080 6062     		str	r0, [r4, #36]
 1108 0082 A162     		str	r1, [r4, #40]
 1109 0084 15E0     		b	.L65
 1110              	.L63:
ARM GAS  /tmp/ccMrs0Mo.s 			page 39


 931:SYS/task_manager/task_manager.c ****             }
 932:SYS/task_manager/task_manager.c **** 
 933:SYS/task_manager/task_manager.c ****             //get task execute frequence
 934:SYS/task_manager/task_manager.c ****             if (tsk_ptr->Exec_status.Exec_Times)
 935:SYS/task_manager/task_manager.c ****             {
 936:SYS/task_manager/task_manager.c ****                 tsk_ptr->Exec_status.detect_exec_frq = (uint32_t)(tsk_ptr->Exec_status.Exec_Times /
 937:SYS/task_manager/task_manager.c ****             }
 938:SYS/task_manager/task_manager.c **** 
 939:SYS/task_manager/task_manager.c ****             //stop counting caller using us time
 940:SYS/task_manager/task_manager.c ****             //Task_Set_CountRunnigTime_State(tsk_ptr, DISABLE);
 941:SYS/task_manager/task_manager.c ****         }
 942:SYS/task_manager/task_manager.c ****         //erase currnet runnint task pointer
 943:SYS/task_manager/task_manager.c ****         CurRunTsk_Ptr = NULL;
 1111              		.loc 1 943 9 is_stmt 1 view .LVU317
 1112              		.loc 1 943 23 is_stmt 0 view .LVU318
 1113 0086 154B     		ldr	r3, .L72
 1114 0088 0022     		movs	r2, #0
 1115 008a 1A60     		str	r2, [r3]
 1116              	.L68:
 876:SYS/task_manager/task_manager.c ****     {
 1117              		.loc 1 876 5 is_stmt 1 view .LVU319
 878:SYS/task_manager/task_manager.c ****         {
 1118              		.loc 1 878 9 view .LVU320
 878:SYS/task_manager/task_manager.c ****         {
 1119              		.loc 1 878 33 is_stmt 0 view .LVU321
 1120 008c 94F84830 		ldrb	r3, [r4, #72]	@ zero_extendqisi2
 878:SYS/task_manager/task_manager.c ****         {
 1121              		.loc 1 878 12 view .LVU322
 1122 0090 002B     		cmp	r3, #0
 1123 0092 F8D1     		bne	.L63
 883:SYS/task_manager/task_manager.c **** 
 1124              		.loc 1 883 13 is_stmt 1 view .LVU323
 883:SYS/task_manager/task_manager.c **** 
 1125              		.loc 1 883 27 is_stmt 0 view .LVU324
 1126 0094 114B     		ldr	r3, .L72
 1127 0096 1C60     		str	r4, [r3]
 885:SYS/task_manager/task_manager.c ****             {
 1128              		.loc 1 885 13 is_stmt 1 view .LVU325
 885:SYS/task_manager/task_manager.c ****             {
 1129              		.loc 1 885 37 is_stmt 0 view .LVU326
 1130 0098 A36B     		ldr	r3, [r4, #56]
 885:SYS/task_manager/task_manager.c ****             {
 1131              		.loc 1 885 16 view .LVU327
 1132 009a 002B     		cmp	r3, #0
 1133 009c B7D0     		beq	.L70
 1134              	.L64:
 891:SYS/task_manager/task_manager.c ****             //Task_StartCountTargetFunc_Cast(tsk_ptr);
 1135              		.loc 1 891 13 is_stmt 1 view .LVU328
 891:SYS/task_manager/task_manager.c ****             //Task_StartCountTargetFunc_Cast(tsk_ptr);
 1136              		.loc 1 891 40 is_stmt 0 view .LVU329
 1137 009e 0123     		movs	r3, #1
 1138 00a0 84F84830 		strb	r3, [r4, #72]
 895:SYS/task_manager/task_manager.c **** 
 1139              		.loc 1 895 13 is_stmt 1 view .LVU330
 895:SYS/task_manager/task_manager.c **** 
 1140              		.loc 1 895 20 is_stmt 0 view .LVU331
 1141 00a4 2369     		ldr	r3, [r4, #16]
ARM GAS  /tmp/ccMrs0Mo.s 			page 40


 895:SYS/task_manager/task_manager.c **** 
 1142              		.loc 1 895 13 view .LVU332
 1143 00a6 2046     		mov	r0, r4
 1144 00a8 9847     		blx	r3
 1145              	.LVL83:
 900:SYS/task_manager/task_manager.c ****             {
 1146              		.loc 1 900 13 is_stmt 1 view .LVU333
 900:SYS/task_manager/task_manager.c ****             {
 1147              		.loc 1 900 37 is_stmt 0 view .LVU334
 1148 00aa 94F84830 		ldrb	r3, [r4, #72]	@ zero_extendqisi2
 900:SYS/task_manager/task_manager.c ****             {
 1149              		.loc 1 900 16 view .LVU335
 1150 00ae 012B     		cmp	r3, #1
 1151 00b0 B4D0     		beq	.L71
 1152              	.L65:
 934:SYS/task_manager/task_manager.c ****             {
 1153              		.loc 1 934 13 is_stmt 1 view .LVU336
 934:SYS/task_manager/task_manager.c ****             {
 1154              		.loc 1 934 37 is_stmt 0 view .LVU337
 1155 00b2 A56B     		ldr	r5, [r4, #56]
 934:SYS/task_manager/task_manager.c ****             {
 1156              		.loc 1 934 16 view .LVU338
 1157 00b4 002D     		cmp	r5, #0
 1158 00b6 E6D0     		beq	.L63
 936:SYS/task_manager/task_manager.c ****             }
 1159              		.loc 1 936 17 is_stmt 1 view .LVU339
 936:SYS/task_manager/task_manager.c ****             }
 1160              		.loc 1 936 101 is_stmt 0 view .LVU340
 1161 00b8 606A     		ldr	r0, [r4, #36]
 1162 00ba A16A     		ldr	r1, [r4, #40]
 1163 00bc FFF7FEFF 		bl	__aeabi_ul2f
 1164              	.LVL84:
 936:SYS/task_manager/task_manager.c ****             }
 1165              		.loc 1 936 99 view .LVU341
 1166 00c0 07EE905A 		vmov	s15, r5	@ int
 1167 00c4 F8EE677A 		vcvt.f32.u32	s15, s15
 1168 00c8 07EE100A 		vmov	s14, r0
 1169 00cc 87EE877A 		vdiv.f32	s14, s15, s14
 936:SYS/task_manager/task_manager.c ****             }
 1170              		.loc 1 936 56 view .LVU342
 1171 00d0 BCEEC77A 		vcvt.u32.f32	s14, s14
 936:SYS/task_manager/task_manager.c ****             }
 1172              		.loc 1 936 54 view .LVU343
 1173 00d4 84ED0B7A 		vstr.32	s14, [r4, #44]	@ int
 1174 00d8 D5E7     		b	.L63
 1175              	.L73:
 1176 00da 00BF     		.align	2
 1177              	.L72:
 1178 00dc 00000000 		.word	.LANCHOR4
 1179              		.cfi_endproc
 1180              	.LFE165:
 1182              		.section	.text.Task_Caller,"ax",%progbits
 1183              		.align	1
 1184              		.global	Task_Caller
 1185              		.syntax unified
 1186              		.thumb
 1187              		.thumb_func
ARM GAS  /tmp/ccMrs0Mo.s 			page 41


 1188              		.fpu fpv4-sp-d16
 1190              	Task_Caller:
 1191              	.LFB168:
 944:SYS/task_manager/task_manager.c **** 
 945:SYS/task_manager/task_manager.c ****         //enable systick handler
 946:SYS/task_manager/task_manager.c ****         //Task_SetBASEPRI(0);
 947:SYS/task_manager/task_manager.c ****     }
 948:SYS/task_manager/task_manager.c **** }
 949:SYS/task_manager/task_manager.c **** 
 950:SYS/task_manager/task_manager.c **** uint32_t Task_Get_IdleUS(void)
 951:SYS/task_manager/task_manager.c **** {
 952:SYS/task_manager/task_manager.c ****     return TaskSys_Idle_US;
 953:SYS/task_manager/task_manager.c **** }
 954:SYS/task_manager/task_manager.c **** 
 955:SYS/task_manager/task_manager.c **** float Task_Get_IdleOcupy(void)
 956:SYS/task_manager/task_manager.c **** {
 957:SYS/task_manager/task_manager.c ****     return TaskSys_Idle_Ocupy;
 958:SYS/task_manager/task_manager.c **** }
 959:SYS/task_manager/task_manager.c **** 
 960:SYS/task_manager/task_manager.c **** void Task_Caller(void)
 961:SYS/task_manager/task_manager.c **** {
 1192              		.loc 1 961 1 is_stmt 1 view -0
 1193              		.cfi_startproc
 1194              		@ args = 0, pretend = 0, frame = 0
 1195              		@ frame_needed = 0, uses_anonymous_args = 0
 1196 0000 08B5     		push	{r3, lr}
 1197              	.LCFI21:
 1198              		.cfi_def_cfa_offset 8
 1199              		.cfi_offset 3, -8
 1200              		.cfi_offset 14, -4
 962:SYS/task_manager/task_manager.c ****     //if any task in any group is under ready state
 963:SYS/task_manager/task_manager.c ****     if (NxtRunTsk_Ptr != NULL)
 1201              		.loc 1 963 5 view .LVU345
 1202              		.loc 1 963 23 is_stmt 0 view .LVU346
 1203 0002 034B     		ldr	r3, .L78
 1204 0004 1868     		ldr	r0, [r3]
 1205              		.loc 1 963 8 view .LVU347
 1206 0006 00B9     		cbnz	r0, .L77
 964:SYS/task_manager/task_manager.c ****     {
 965:SYS/task_manager/task_manager.c ****         //execute task function in function matrix
 966:SYS/task_manager/task_manager.c ****         Task_Exec(NxtRunTsk_Ptr);
 967:SYS/task_manager/task_manager.c ****     }
 968:SYS/task_manager/task_manager.c **** }
 1207              		.loc 1 968 1 view .LVU348
 1208 0008 08BD     		pop	{r3, pc}
 1209              	.L77:
 966:SYS/task_manager/task_manager.c ****     }
 1210              		.loc 1 966 9 is_stmt 1 view .LVU349
 1211 000a FFF7FEFF 		bl	Task_Exec
 1212              	.LVL85:
 1213              	.L79:
 1214 000e 00BF     		.align	2
 1215              	.L78:
 1216 0010 00000000 		.word	.LANCHOR9
 1217              		.cfi_endproc
 1218              	.LFE168:
 1220              		.section	.text.Task_CrtList_TraversePoll_callback,"ax",%progbits
ARM GAS  /tmp/ccMrs0Mo.s 			page 42


 1221              		.align	1
 1222              		.syntax unified
 1223              		.thumb
 1224              		.thumb_func
 1225              		.fpu fpv4-sp-d16
 1227              	Task_CrtList_TraversePoll_callback:
 1228              	.LVL86:
 1229              	.LFB171:
 969:SYS/task_manager/task_manager.c **** 
 970:SYS/task_manager/task_manager.c **** void TaskSys_Set_State(TaskSys_State state)
 971:SYS/task_manager/task_manager.c **** {
 972:SYS/task_manager/task_manager.c ****     TskSys_state = state;
 973:SYS/task_manager/task_manager.c **** }
 974:SYS/task_manager/task_manager.c **** 
 975:SYS/task_manager/task_manager.c **** TaskSys_State TaskSys_Get_State(void)
 976:SYS/task_manager/task_manager.c **** {
 977:SYS/task_manager/task_manager.c ****     return TskSys_state;
 978:SYS/task_manager/task_manager.c **** }
 979:SYS/task_manager/task_manager.c **** 
 980:SYS/task_manager/task_manager.c **** static void Task_CrtList_TraversePoll_callback(item_obj *item, void *data, void *arg)
 981:SYS/task_manager/task_manager.c **** {
 1230              		.loc 1 981 1 view -0
 1231              		.cfi_startproc
 1232              		@ args = 0, pretend = 0, frame = 0
 1233              		@ frame_needed = 0, uses_anonymous_args = 0
 982:SYS/task_manager/task_manager.c ****     Task *tmp = NULL;
 1234              		.loc 1 982 5 view .LVU351
 983:SYS/task_manager/task_manager.c **** 
 984:SYS/task_manager/task_manager.c ****     if (data != NULL)
 1235              		.loc 1 984 5 view .LVU352
 1236              		.loc 1 984 8 is_stmt 0 view .LVU353
 1237 0000 A9B1     		cbz	r1, .L83
 981:SYS/task_manager/task_manager.c ****     Task *tmp = NULL;
 1238              		.loc 1 981 1 view .LVU354
 1239 0002 10B5     		push	{r4, lr}
 1240              	.LCFI22:
 1241              		.cfi_def_cfa_offset 8
 1242              		.cfi_offset 4, -8
 1243              		.cfi_offset 14, -4
 1244 0004 0C46     		mov	r4, r1
 985:SYS/task_manager/task_manager.c ****     {
 986:SYS/task_manager/task_manager.c ****         tmp = (Task *)data;
 1245              		.loc 1 986 9 is_stmt 1 view .LVU355
 1246              	.LVL87:
 987:SYS/task_manager/task_manager.c **** 
 988:SYS/task_manager/task_manager.c ****         //get current highest priority task handler AKA NxtRunTsk_Ptr
 989:SYS/task_manager/task_manager.c ****         if (TskSys_state == TaskSys_Start)
 1247              		.loc 1 989 9 view .LVU356
 1248              		.loc 1 989 26 is_stmt 0 view .LVU357
 1249 0006 0A4B     		ldr	r3, .L87
 1250 0008 1B78     		ldrb	r3, [r3]	@ zero_extendqisi2
 1251 000a DBB2     		uxtb	r3, r3
 1252              		.loc 1 989 12 view .LVU358
 1253 000c 022B     		cmp	r3, #2
 1254 000e 00D0     		beq	.L86
 1255              	.LVL88:
 1256              	.L80:
ARM GAS  /tmp/ccMrs0Mo.s 			page 43


 990:SYS/task_manager/task_manager.c ****         {
 991:SYS/task_manager/task_manager.c ****             if ((tmp->Exec_status.State == Task_Stop) && (!RuntimeObj_CompareWithCurrent(tmp->Exec_
 992:SYS/task_manager/task_manager.c ****             {
 993:SYS/task_manager/task_manager.c ****                 Task_SetReady(tmp);
 994:SYS/task_manager/task_manager.c ****             }
 995:SYS/task_manager/task_manager.c ****         }
 996:SYS/task_manager/task_manager.c ****     }
 997:SYS/task_manager/task_manager.c **** }
 1257              		.loc 1 997 1 view .LVU359
 1258 0010 10BD     		pop	{r4, pc}
 1259              	.LVL89:
 1260              	.L86:
 991:SYS/task_manager/task_manager.c ****             {
 1261              		.loc 1 991 13 is_stmt 1 view .LVU360
 991:SYS/task_manager/task_manager.c ****             {
 1262              		.loc 1 991 34 is_stmt 0 view .LVU361
 1263 0012 91F84830 		ldrb	r3, [r1, #72]	@ zero_extendqisi2
 991:SYS/task_manager/task_manager.c ****             {
 1264              		.loc 1 991 16 view .LVU362
 1265 0016 022B     		cmp	r3, #2
 1266 0018 FAD1     		bne	.L80
 991:SYS/task_manager/task_manager.c ****             {
 1267              		.loc 1 991 60 discriminator 1 view .LVU363
 1268 001a 486A     		ldr	r0, [r1, #36]
 1269              	.LVL90:
 991:SYS/task_manager/task_manager.c ****             {
 1270              		.loc 1 991 60 discriminator 1 view .LVU364
 1271 001c 896A     		ldr	r1, [r1, #40]
 1272              	.LVL91:
 991:SYS/task_manager/task_manager.c ****             {
 1273              		.loc 1 991 60 discriminator 1 view .LVU365
 1274 001e FFF7FEFF 		bl	RuntimeObj_CompareWithCurrent
 1275              	.LVL92:
 991:SYS/task_manager/task_manager.c ****             {
 1276              		.loc 1 991 55 discriminator 1 view .LVU366
 1277 0022 0028     		cmp	r0, #0
 1278 0024 F4D1     		bne	.L80
 993:SYS/task_manager/task_manager.c ****             }
 1279              		.loc 1 993 17 is_stmt 1 view .LVU367
 1280 0026 2046     		mov	r0, r4
 1281 0028 FFF7FEFF 		bl	Task_SetReady
 1282              	.LVL93:
 1283              		.loc 1 997 1 is_stmt 0 view .LVU368
 1284 002c F0E7     		b	.L80
 1285              	.LVL94:
 1286              	.L83:
 1287              	.LCFI23:
 1288              		.cfi_def_cfa_offset 0
 1289              		.cfi_restore 4
 1290              		.cfi_restore 14
 1291              		.loc 1 997 1 view .LVU369
 1292 002e 7047     		bx	lr
 1293              	.L88:
 1294              		.align	2
 1295              	.L87:
 1296 0030 00000000 		.word	.LANCHOR5
 1297              		.cfi_endproc
ARM GAS  /tmp/ccMrs0Mo.s 			page 44


 1298              	.LFE171:
 1300              		.section	.text.Task_Resume_FromBlock,"ax",%progbits
 1301              		.align	1
 1302              		.global	Task_Resume_FromBlock
 1303              		.syntax unified
 1304              		.thumb
 1305              		.thumb_func
 1306              		.fpu fpv4-sp-d16
 1308              	Task_Resume_FromBlock:
 1309              	.LVL95:
 1310              	.LFB131:
 202:SYS/task_manager/task_manager.c ****     Task_ClearBlock(tsk);
 1311              		.loc 1 202 1 is_stmt 1 view -0
 1312              		.cfi_startproc
 1313              		@ args = 0, pretend = 0, frame = 0
 1314              		@ frame_needed = 0, uses_anonymous_args = 0
 202:SYS/task_manager/task_manager.c ****     Task_ClearBlock(tsk);
 1315              		.loc 1 202 1 is_stmt 0 view .LVU371
 1316 0000 10B5     		push	{r4, lr}
 1317              	.LCFI24:
 1318              		.cfi_def_cfa_offset 8
 1319              		.cfi_offset 4, -8
 1320              		.cfi_offset 14, -4
 1321 0002 0446     		mov	r4, r0
 203:SYS/task_manager/task_manager.c ****     Task_SetReady(tsk);
 1322              		.loc 1 203 5 is_stmt 1 view .LVU372
 1323 0004 FFF7FEFF 		bl	Task_ClearBlock
 1324              	.LVL96:
 204:SYS/task_manager/task_manager.c ****     //Task_Set_CountRunnigTime_State(tsk, ENABLE);
 1325              		.loc 1 204 5 view .LVU373
 1326 0008 2046     		mov	r0, r4
 1327 000a FFF7FEFF 		bl	Task_SetReady
 1328              	.LVL97:
 207:SYS/task_manager/task_manager.c ****     NxtTsk_TCB.Top_Stk_Ptr = &tsk->TCB.Top_Stk_Ptr;
 1329              		.loc 1 207 5 view .LVU374
 207:SYS/task_manager/task_manager.c ****     NxtTsk_TCB.Top_Stk_Ptr = &tsk->TCB.Top_Stk_Ptr;
 1330              		.loc 1 207 28 is_stmt 0 view .LVU375
 1331 000e 0123     		movs	r3, #1
 1332 0010 84F84830 		strb	r3, [r4, #72]
 208:SYS/task_manager/task_manager.c ****     NxtTsk_TCB.Stack = tsk->TCB.Stack;
 1333              		.loc 1 208 5 is_stmt 1 view .LVU376
 208:SYS/task_manager/task_manager.c ****     NxtTsk_TCB.Stack = tsk->TCB.Stack;
 1334              		.loc 1 208 30 is_stmt 0 view .LVU377
 1335 0014 04F15002 		add	r2, r4, #80
 208:SYS/task_manager/task_manager.c ****     NxtTsk_TCB.Stack = tsk->TCB.Stack;
 1336              		.loc 1 208 28 view .LVU378
 1337 0018 034B     		ldr	r3, .L91
 1338 001a 1A60     		str	r2, [r3]
 209:SYS/task_manager/task_manager.c ****     CurRunTsk_Ptr = tsk;
 1339              		.loc 1 209 5 is_stmt 1 view .LVU379
 209:SYS/task_manager/task_manager.c ****     CurRunTsk_Ptr = tsk;
 1340              		.loc 1 209 32 is_stmt 0 view .LVU380
 1341 001c 626D     		ldr	r2, [r4, #84]
 209:SYS/task_manager/task_manager.c ****     CurRunTsk_Ptr = tsk;
 1342              		.loc 1 209 22 view .LVU381
 1343 001e 5A60     		str	r2, [r3, #4]
 210:SYS/task_manager/task_manager.c **** }
ARM GAS  /tmp/ccMrs0Mo.s 			page 45


 1344              		.loc 1 210 5 is_stmt 1 view .LVU382
 210:SYS/task_manager/task_manager.c **** }
 1345              		.loc 1 210 19 is_stmt 0 view .LVU383
 1346 0020 024B     		ldr	r3, .L91+4
 1347 0022 1C60     		str	r4, [r3]
 211:SYS/task_manager/task_manager.c **** 
 1348              		.loc 1 211 1 view .LVU384
 1349 0024 10BD     		pop	{r4, pc}
 1350              	.LVL98:
 1351              	.L92:
 211:SYS/task_manager/task_manager.c **** 
 1352              		.loc 1 211 1 view .LVU385
 1353 0026 00BF     		.align	2
 1354              	.L91:
 1355 0028 00000000 		.word	NxtTsk_TCB
 1356 002c 00000000 		.word	.LANCHOR4
 1357              		.cfi_endproc
 1358              	.LFE131:
 1360              		.section	.text.Task_SetBlock,"ax",%progbits
 1361              		.align	1
 1362              		.global	Task_SetBlock
 1363              		.syntax unified
 1364              		.thumb
 1365              		.thumb_func
 1366              		.fpu fpv4-sp-d16
 1368              	Task_SetBlock:
 1369              	.LVL99:
 1370              	.LFB132:
 214:SYS/task_manager/task_manager.c ****     uint8_t grp_id = GET_TASKGROUP_PRIORITY(tsk->priority.Priority);
 1371              		.loc 1 214 1 is_stmt 1 view -0
 1372              		.cfi_startproc
 1373              		@ args = 0, pretend = 0, frame = 0
 1374              		@ frame_needed = 0, uses_anonymous_args = 0
 214:SYS/task_manager/task_manager.c ****     uint8_t grp_id = GET_TASKGROUP_PRIORITY(tsk->priority.Priority);
 1375              		.loc 1 214 1 is_stmt 0 view .LVU387
 1376 0000 70B5     		push	{r4, r5, r6, lr}
 1377              	.LCFI25:
 1378              		.cfi_def_cfa_offset 16
 1379              		.cfi_offset 4, -16
 1380              		.cfi_offset 5, -12
 1381              		.cfi_offset 6, -8
 1382              		.cfi_offset 14, -4
 215:SYS/task_manager/task_manager.c ****     uint8_t tsk_id = GET_TASKINGROUP_PRIORITY(tsk->priority.Priority);
 1383              		.loc 1 215 5 is_stmt 1 view .LVU388
 215:SYS/task_manager/task_manager.c ****     uint8_t tsk_id = GET_TASKINGROUP_PRIORITY(tsk->priority.Priority);
 1384              		.loc 1 215 22 is_stmt 0 view .LVU389
 1385 0002 0378     		ldrb	r3, [r0]	@ zero_extendqisi2
 215:SYS/task_manager/task_manager.c ****     uint8_t tsk_id = GET_TASKINGROUP_PRIORITY(tsk->priority.Priority);
 1386              		.loc 1 215 13 view .LVU390
 1387 0004 DD08     		lsrs	r5, r3, #3
 1388              	.LVL100:
 216:SYS/task_manager/task_manager.c **** 
 1389              		.loc 1 216 5 is_stmt 1 view .LVU391
 216:SYS/task_manager/task_manager.c **** 
 1390              		.loc 1 216 13 is_stmt 0 view .LVU392
 1391 0006 03F00706 		and	r6, r3, #7
 1392              	.LVL101:
ARM GAS  /tmp/ccMrs0Mo.s 			page 46


 219:SYS/task_manager/task_manager.c ****     //set current task under this group flag to block
 1393              		.loc 1 219 5 is_stmt 1 view .LVU393
 219:SYS/task_manager/task_manager.c ****     //set current task under this group flag to block
 1394              		.loc 1 219 27 is_stmt 0 view .LVU394
 1395 000a 134A     		ldr	r2, .L96
 1396 000c 1178     		ldrb	r1, [r2]	@ zero_extendqisi2
 219:SYS/task_manager/task_manager.c ****     //set current task under this group flag to block
 1397              		.loc 1 219 32 view .LVU395
 1398 000e 0123     		movs	r3, #1
 1399 0010 03FA05F4 		lsl	r4, r3, r5
 219:SYS/task_manager/task_manager.c ****     //set current task under this group flag to block
 1400              		.loc 1 219 27 view .LVU396
 1401 0014 64B2     		sxtb	r4, r4
 1402 0016 2143     		orrs	r1, r1, r4
 1403 0018 C9B2     		uxtb	r1, r1
 1404 001a 1170     		strb	r1, [r2]
 221:SYS/task_manager/task_manager.c **** 
 1405              		.loc 1 221 5 is_stmt 1 view .LVU397
 221:SYS/task_manager/task_manager.c **** 
 1406              		.loc 1 221 40 is_stmt 0 view .LVU398
 1407 001c 2A44     		add	r2, r2, r5
 1408 001e 5178     		ldrb	r1, [r2, #1]	@ zero_extendqisi2
 221:SYS/task_manager/task_manager.c **** 
 1409              		.loc 1 221 45 view .LVU399
 1410 0020 B340     		lsls	r3, r3, r6
 221:SYS/task_manager/task_manager.c **** 
 1411              		.loc 1 221 40 view .LVU400
 1412 0022 5BB2     		sxtb	r3, r3
 1413 0024 1943     		orrs	r1, r1, r3
 1414 0026 C9B2     		uxtb	r1, r1
 1415 0028 5170     		strb	r1, [r2, #1]
 224:SYS/task_manager/task_manager.c ****     //if no task ready then clear group reg
 1416              		.loc 1 224 5 is_stmt 1 view .LVU401
 224:SYS/task_manager/task_manager.c ****     //if no task ready then clear group reg
 1417              		.loc 1 224 40 is_stmt 0 view .LVU402
 1418 002a 0C4A     		ldr	r2, .L96+4
 1419 002c 2A44     		add	r2, r2, r5
 1420 002e 5178     		ldrb	r1, [r2, #1]	@ zero_extendqisi2
 1421 0030 21EA0303 		bic	r3, r1, r3
 1422 0034 5370     		strb	r3, [r2, #1]
 226:SYS/task_manager/task_manager.c ****     {
 1423              		.loc 1 226 5 is_stmt 1 view .LVU403
 226:SYS/task_manager/task_manager.c ****     {
 1424              		.loc 1 226 39 is_stmt 0 view .LVU404
 1425 0036 5378     		ldrb	r3, [r2, #1]	@ zero_extendqisi2
 226:SYS/task_manager/task_manager.c ****     {
 1426              		.loc 1 226 8 view .LVU405
 1427 0038 23B9     		cbnz	r3, .L94
 228:SYS/task_manager/task_manager.c ****     }
 1428              		.loc 1 228 9 is_stmt 1 view .LVU406
 228:SYS/task_manager/task_manager.c ****     }
 1429              		.loc 1 228 31 is_stmt 0 view .LVU407
 1430 003a 084A     		ldr	r2, .L96+4
 1431 003c 1378     		ldrb	r3, [r2]	@ zero_extendqisi2
 1432 003e 23EA0404 		bic	r4, r3, r4
 1433 0042 1470     		strb	r4, [r2]
 1434              	.L94:
ARM GAS  /tmp/ccMrs0Mo.s 			page 47


 232:SYS/task_manager/task_manager.c **** 
 1435              		.loc 1 232 5 is_stmt 1 view .LVU408
 232:SYS/task_manager/task_manager.c **** 
 1436              		.loc 1 232 28 is_stmt 0 view .LVU409
 1437 0044 0323     		movs	r3, #3
 1438 0046 80F84830 		strb	r3, [r0, #72]
 237:SYS/task_manager/task_manager.c **** 
 1439              		.loc 1 237 5 is_stmt 1 view .LVU410
 237:SYS/task_manager/task_manager.c **** 
 1440              		.loc 1 237 19 is_stmt 0 view .LVU411
 1441 004a 0020     		movs	r0, #0
 1442              	.LVL102:
 237:SYS/task_manager/task_manager.c **** 
 1443              		.loc 1 237 19 view .LVU412
 1444 004c 044B     		ldr	r3, .L96+8
 1445 004e 1860     		str	r0, [r3]
 239:SYS/task_manager/task_manager.c **** }
 1446              		.loc 1 239 5 is_stmt 1 view .LVU413
 1447 0050 FFF7FEFF 		bl	Task_SetBASEPRI
 1448              	.LVL103:
 240:SYS/task_manager/task_manager.c **** 
 1449              		.loc 1 240 1 is_stmt 0 view .LVU414
 1450 0054 70BD     		pop	{r4, r5, r6, pc}
 1451              	.LVL104:
 1452              	.L97:
 240:SYS/task_manager/task_manager.c **** 
 1453              		.loc 1 240 1 view .LVU415
 1454 0056 00BF     		.align	2
 1455              	.L96:
 1456 0058 00000000 		.word	.LANCHOR1
 1457 005c 00000000 		.word	.LANCHOR0
 1458 0060 00000000 		.word	.LANCHOR4
 1459              		.cfi_endproc
 1460              	.LFE132:
 1462              		.section	.text.Task_SetPending,"ax",%progbits
 1463              		.align	1
 1464              		.global	Task_SetPending
 1465              		.syntax unified
 1466              		.thumb
 1467              		.thumb_func
 1468              		.fpu fpv4-sp-d16
 1470              	Task_SetPending:
 1471              	.LVL105:
 1472              	.LFB133:
 243:SYS/task_manager/task_manager.c ****     uint8_t grp_id = GET_TASKGROUP_PRIORITY(tsk->priority.Priority);
 1473              		.loc 1 243 1 is_stmt 1 view -0
 1474              		.cfi_startproc
 1475              		@ args = 0, pretend = 0, frame = 0
 1476              		@ frame_needed = 0, uses_anonymous_args = 0
 1477              		@ link register save eliminated.
 243:SYS/task_manager/task_manager.c ****     uint8_t grp_id = GET_TASKGROUP_PRIORITY(tsk->priority.Priority);
 1478              		.loc 1 243 1 is_stmt 0 view .LVU417
 1479 0000 70B4     		push	{r4, r5, r6}
 1480              	.LCFI26:
 1481              		.cfi_def_cfa_offset 12
 1482              		.cfi_offset 4, -12
 1483              		.cfi_offset 5, -8
ARM GAS  /tmp/ccMrs0Mo.s 			page 48


 1484              		.cfi_offset 6, -4
 244:SYS/task_manager/task_manager.c ****     uint8_t tsk_id = GET_TASKINGROUP_PRIORITY(tsk->priority.Priority);
 1485              		.loc 1 244 5 is_stmt 1 view .LVU418
 244:SYS/task_manager/task_manager.c ****     uint8_t tsk_id = GET_TASKINGROUP_PRIORITY(tsk->priority.Priority);
 1486              		.loc 1 244 22 is_stmt 0 view .LVU419
 1487 0002 0478     		ldrb	r4, [r0]	@ zero_extendqisi2
 244:SYS/task_manager/task_manager.c ****     uint8_t tsk_id = GET_TASKINGROUP_PRIORITY(tsk->priority.Priority);
 1488              		.loc 1 244 13 view .LVU420
 1489 0004 E208     		lsrs	r2, r4, #3
 1490              	.LVL106:
 245:SYS/task_manager/task_manager.c **** 
 1491              		.loc 1 245 5 is_stmt 1 view .LVU421
 245:SYS/task_manager/task_manager.c **** 
 1492              		.loc 1 245 13 is_stmt 0 view .LVU422
 1493 0006 04F00705 		and	r5, r4, #7
 1494              	.LVL107:
 248:SYS/task_manager/task_manager.c ****     //set current task under this group flag to ready
 1495              		.loc 1 248 5 is_stmt 1 view .LVU423
 248:SYS/task_manager/task_manager.c ****     //set current task under this group flag to ready
 1496              		.loc 1 248 27 is_stmt 0 view .LVU424
 1497 000a 094B     		ldr	r3, .L100
 1498 000c 1978     		ldrb	r1, [r3]	@ zero_extendqisi2
 248:SYS/task_manager/task_manager.c ****     //set current task under this group flag to ready
 1499              		.loc 1 248 32 view .LVU425
 1500 000e 0124     		movs	r4, #1
 1501 0010 04FA02F6 		lsl	r6, r4, r2
 248:SYS/task_manager/task_manager.c ****     //set current task under this group flag to ready
 1502              		.loc 1 248 27 view .LVU426
 1503 0014 3143     		orrs	r1, r1, r6
 1504 0016 C9B2     		uxtb	r1, r1
 1505 0018 1970     		strb	r1, [r3]
 250:SYS/task_manager/task_manager.c **** 
 1506              		.loc 1 250 5 is_stmt 1 view .LVU427
 250:SYS/task_manager/task_manager.c **** 
 1507              		.loc 1 250 40 is_stmt 0 view .LVU428
 1508 001a 1344     		add	r3, r3, r2
 1509 001c 5A78     		ldrb	r2, [r3, #1]	@ zero_extendqisi2
 1510              	.LVL108:
 250:SYS/task_manager/task_manager.c **** 
 1511              		.loc 1 250 45 view .LVU429
 1512 001e AC40     		lsls	r4, r4, r5
 250:SYS/task_manager/task_manager.c **** 
 1513              		.loc 1 250 40 view .LVU430
 1514 0020 2243     		orrs	r2, r2, r4
 1515 0022 D2B2     		uxtb	r2, r2
 1516 0024 5A70     		strb	r2, [r3, #1]
 253:SYS/task_manager/task_manager.c **** }
 1517              		.loc 1 253 5 is_stmt 1 view .LVU431
 253:SYS/task_manager/task_manager.c **** }
 1518              		.loc 1 253 28 is_stmt 0 view .LVU432
 1519 0026 0423     		movs	r3, #4
 1520 0028 80F84830 		strb	r3, [r0, #72]
 254:SYS/task_manager/task_manager.c **** 
 1521              		.loc 1 254 1 view .LVU433
 1522 002c 70BC     		pop	{r4, r5, r6}
 1523              	.LCFI27:
 1524              		.cfi_restore 6
ARM GAS  /tmp/ccMrs0Mo.s 			page 49


 1525              		.cfi_restore 5
 1526              		.cfi_restore 4
 1527              		.cfi_def_cfa_offset 0
 1528              	.LVL109:
 254:SYS/task_manager/task_manager.c **** 
 1529              		.loc 1 254 1 view .LVU434
 1530 002e 7047     		bx	lr
 1531              	.L101:
 1532              		.align	2
 1533              	.L100:
 1534 0030 00000000 		.word	.LANCHOR2
 1535              		.cfi_endproc
 1536              	.LFE133:
 1538              		.section	.text.Task_SwitchStack,"ax",%progbits
 1539              		.align	1
 1540              		.global	Task_SwitchStack
 1541              		.syntax unified
 1542              		.thumb
 1543              		.thumb_func
 1544              		.fpu fpv4-sp-d16
 1546              	Task_SwitchStack:
 1547              	.LFB134:
 257:SYS/task_manager/task_manager.c ****     CurTsk_TCB = NxtTsk_TCB;
 1548              		.loc 1 257 1 is_stmt 1 view -0
 1549              		.cfi_startproc
 1550              		@ args = 0, pretend = 0, frame = 0
 1551              		@ frame_needed = 0, uses_anonymous_args = 0
 1552              		@ link register save eliminated.
 258:SYS/task_manager/task_manager.c **** }
 1553              		.loc 1 258 5 view .LVU436
 258:SYS/task_manager/task_manager.c **** }
 1554              		.loc 1 258 16 is_stmt 0 view .LVU437
 1555 0000 034B     		ldr	r3, .L103
 1556 0002 044A     		ldr	r2, .L103+4
 1557 0004 92E80300 		ldm	r2, {r0, r1}
 1558 0008 83E80300 		stm	r3, {r0, r1}
 259:SYS/task_manager/task_manager.c **** 
 1559              		.loc 1 259 1 view .LVU438
 1560 000c 7047     		bx	lr
 1561              	.L104:
 1562 000e 00BF     		.align	2
 1563              	.L103:
 1564 0010 00000000 		.word	CurTsk_TCB
 1565 0014 00000000 		.word	NxtTsk_TCB
 1566              		.cfi_endproc
 1567              	.LFE134:
 1569              		.section	.text.Task_Get_HighestRank_PndTask,"ax",%progbits
 1570              		.align	1
 1571              		.global	Task_Get_HighestRank_PndTask
 1572              		.syntax unified
 1573              		.thumb
 1574              		.thumb_func
 1575              		.fpu fpv4-sp-d16
 1577              	Task_Get_HighestRank_PndTask:
 1578              	.LFB135:
 262:SYS/task_manager/task_manager.c ****     uint8_t grp_id;
 1579              		.loc 1 262 1 is_stmt 1 view -0
ARM GAS  /tmp/ccMrs0Mo.s 			page 50


 1580              		.cfi_startproc
 1581              		@ args = 0, pretend = 0, frame = 0
 1582              		@ frame_needed = 0, uses_anonymous_args = 0
 1583              		@ link register save eliminated.
 263:SYS/task_manager/task_manager.c ****     uint8_t tsk_id;
 1584              		.loc 1 263 5 view .LVU440
 264:SYS/task_manager/task_manager.c **** 
 1585              		.loc 1 264 5 view .LVU441
 266:SYS/task_manager/task_manager.c ****     {
 1586              		.loc 1 266 5 view .LVU442
 266:SYS/task_manager/task_manager.c ****     {
 1587              		.loc 1 266 26 is_stmt 0 view .LVU443
 1588 0000 134B     		ldr	r3, .L113
 1589 0002 1B78     		ldrb	r3, [r3]	@ zero_extendqisi2
 266:SYS/task_manager/task_manager.c ****     {
 1590              		.loc 1 266 8 view .LVU444
 1591 0004 0BB3     		cbz	r3, .L107
 269:SYS/task_manager/task_manager.c ****         //find task in group
 1592              		.loc 1 269 9 is_stmt 1 view .LVU445
 269:SYS/task_manager/task_manager.c ****         //find task in group
 1593              		.loc 1 269 46 is_stmt 0 view .LVU446
 1594 0006 124B     		ldr	r3, .L113
 1595 0008 1A78     		ldrb	r2, [r3]	@ zero_extendqisi2
 1596 000a D2B2     		uxtb	r2, r2
 269:SYS/task_manager/task_manager.c ****         //find task in group
 1597              		.loc 1 269 16 view .LVU447
 1598 000c 1149     		ldr	r1, .L113+4
 1599 000e 8A5C     		ldrb	r2, [r1, r2]	@ zero_extendqisi2
 271:SYS/task_manager/task_manager.c ****     }
 1600              		.loc 1 271 9 is_stmt 1 view .LVU448
 271:SYS/task_manager/task_manager.c ****     }
 1601              		.loc 1 271 59 is_stmt 0 view .LVU449
 1602 0010 1344     		add	r3, r3, r2
 1603 0012 5B78     		ldrb	r3, [r3, #1]	@ zero_extendqisi2
 1604 0014 DBB2     		uxtb	r3, r3
 271:SYS/task_manager/task_manager.c ****     }
 1605              		.loc 1 271 16 view .LVU450
 1606 0016 CB5C     		ldrb	r3, [r1, r3]	@ zero_extendqisi2
 276:SYS/task_manager/task_manager.c ****     {
 1607              		.loc 1 276 5 is_stmt 1 view .LVU451
 276:SYS/task_manager/task_manager.c ****     {
 1608              		.loc 1 276 25 is_stmt 0 view .LVU452
 1609 0018 03EBC200 		add	r0, r3, r2, lsl #3
 1610 001c 0E49     		ldr	r1, .L113+8
 1611 001e 51F82000 		ldr	r0, [r1, r0, lsl #2]
 276:SYS/task_manager/task_manager.c ****     {
 1612              		.loc 1 276 8 view .LVU453
 1613 0022 00B1     		cbz	r0, .L112
 286:SYS/task_manager/task_manager.c **** 
 1614              		.loc 1 286 1 view .LVU454
 1615 0024 7047     		bx	lr
 1616              	.L112:
 262:SYS/task_manager/task_manager.c ****     uint8_t grp_id;
 1617              		.loc 1 262 1 view .LVU455
 1618 0026 70B4     		push	{r4, r5, r6}
 1619              	.LCFI28:
 1620              		.cfi_def_cfa_offset 12
ARM GAS  /tmp/ccMrs0Mo.s 			page 51


 1621              		.cfi_offset 4, -12
 1622              		.cfi_offset 5, -8
 1623              		.cfi_offset 6, -4
 282:SYS/task_manager/task_manager.c ****         TskHdl_PndMap.TskInGrp[grp_id].Flg &= ~(1 << tsk_id);
 1624              		.loc 1 282 9 is_stmt 1 view .LVU456
 282:SYS/task_manager/task_manager.c ****         TskHdl_PndMap.TskInGrp[grp_id].Flg &= ~(1 << tsk_id);
 1625              		.loc 1 282 31 is_stmt 0 view .LVU457
 1626 0028 0949     		ldr	r1, .L113
 1627 002a 0D78     		ldrb	r5, [r1]	@ zero_extendqisi2
 282:SYS/task_manager/task_manager.c ****         TskHdl_PndMap.TskInGrp[grp_id].Flg &= ~(1 << tsk_id);
 1628              		.loc 1 282 38 view .LVU458
 1629 002c 0124     		movs	r4, #1
 1630 002e 04FA02F6 		lsl	r6, r4, r2
 282:SYS/task_manager/task_manager.c ****         TskHdl_PndMap.TskInGrp[grp_id].Flg &= ~(1 << tsk_id);
 1631              		.loc 1 282 31 view .LVU459
 1632 0032 25EA0605 		bic	r5, r5, r6
 1633 0036 0D70     		strb	r5, [r1]
 283:SYS/task_manager/task_manager.c ****         return NULL;
 1634              		.loc 1 283 9 is_stmt 1 view .LVU460
 283:SYS/task_manager/task_manager.c ****         return NULL;
 1635              		.loc 1 283 44 is_stmt 0 view .LVU461
 1636 0038 0A44     		add	r2, r2, r1
 1637 003a 5178     		ldrb	r1, [r2, #1]	@ zero_extendqisi2
 283:SYS/task_manager/task_manager.c ****         return NULL;
 1638              		.loc 1 283 51 view .LVU462
 1639 003c 04FA03F3 		lsl	r3, r4, r3
 283:SYS/task_manager/task_manager.c ****         return NULL;
 1640              		.loc 1 283 44 view .LVU463
 1641 0040 21EA0303 		bic	r3, r1, r3
 1642 0044 5370     		strb	r3, [r2, #1]
 284:SYS/task_manager/task_manager.c ****     }
 1643              		.loc 1 284 9 is_stmt 1 view .LVU464
 286:SYS/task_manager/task_manager.c **** 
 1644              		.loc 1 286 1 is_stmt 0 view .LVU465
 1645 0046 70BC     		pop	{r4, r5, r6}
 1646              	.LCFI29:
 1647              		.cfi_restore 6
 1648              		.cfi_restore 5
 1649              		.cfi_restore 4
 1650              		.cfi_def_cfa_offset 0
 1651 0048 7047     		bx	lr
 1652              	.L107:
 274:SYS/task_manager/task_manager.c **** 
 1653              		.loc 1 274 16 view .LVU466
 1654 004a 0020     		movs	r0, #0
 1655 004c 7047     		bx	lr
 1656              	.L114:
 1657 004e 00BF     		.align	2
 1658              	.L113:
 1659 0050 00000000 		.word	.LANCHOR2
 1660 0054 00000000 		.word	.LANCHOR10
 1661 0058 00000000 		.word	Task_Ptr
 1662              		.cfi_endproc
 1663              	.LFE135:
 1665              		.section	.text.Task_SaveCurProc,"ax",%progbits
 1666              		.align	1
 1667              		.global	Task_SaveCurProc
ARM GAS  /tmp/ccMrs0Mo.s 			page 52


 1668              		.syntax unified
 1669              		.thumb
 1670              		.thumb_func
 1671              		.fpu fpv4-sp-d16
 1673              	Task_SaveCurProc:
 1674              	.LFB140:
 339:SYS/task_manager/task_manager.c ****     __ASM("MRS    R0, PSP");
 1675              		.loc 1 339 1 is_stmt 1 view -0
 1676              		.cfi_startproc
 1677              		@ args = 0, pretend = 0, frame = 0
 1678              		@ frame_needed = 0, uses_anonymous_args = 0
 1679              		@ link register save eliminated.
 340:SYS/task_manager/task_manager.c ****     __ASM("LDR	  R3, CurrentTCBConst_Tmp3");
 1680              		.loc 1 340 5 view .LVU468
 1681              		.syntax unified
 1682              	@ 340 "SYS/task_manager/task_manager.c" 1
 1683 0000 EFF30980 		MRS    R0, PSP
 1684              	@ 0 "" 2
 341:SYS/task_manager/task_manager.c ****     __ASM("LDR    R2, [R3]");
 1685              		.loc 1 341 5 view .LVU469
 1686              	@ 341 "SYS/task_manager/task_manager.c" 1
 1687 0004 DFF81C30 		LDR	  R3, CurrentTCBConst_Tmp3
 1688              	@ 0 "" 2
 342:SYS/task_manager/task_manager.c **** 
 1689              		.loc 1 342 5 view .LVU470
 1690              	@ 342 "SYS/task_manager/task_manager.c" 1
 1691 0008 1A68     		LDR    R2, [R3]
 1692              	@ 0 "" 2
 344:SYS/task_manager/task_manager.c **** 
 1693              		.loc 1 344 5 view .LVU471
 1694              	@ 344 "SYS/task_manager/task_manager.c" 1
 1695 000a BFF36F8F 		ISB
 1696              	@ 0 "" 2
 346:SYS/task_manager/task_manager.c ****     __ASM("STR      R0, [R2]");
 1697              		.loc 1 346 5 view .LVU472
 1698              	@ 346 "SYS/task_manager/task_manager.c" 1
 1699 000e 20E9F04F 		STMDB    R0!, {R4-R11, R14}
 1700              	@ 0 "" 2
 347:SYS/task_manager/task_manager.c **** 
 1701              		.loc 1 347 5 view .LVU473
 1702              	@ 347 "SYS/task_manager/task_manager.c" 1
 1703 0012 1060     		STR      R0, [R2]
 1704              	@ 0 "" 2
 350:SYS/task_manager/task_manager.c ****     __ASM("IT       EQ");
 1705              		.loc 1 350 5 view .LVU474
 1706              	@ 350 "SYS/task_manager/task_manager.c" 1
 1707 0014 1EF0100F 		TST      R14, #0x10
 1708              	@ 0 "" 2
 351:SYS/task_manager/task_manager.c ****     __ASM("VSTMDBEQ R0!, {s16-s31}");
 1709              		.loc 1 351 5 view .LVU475
 1710              	@ 351 "SYS/task_manager/task_manager.c" 1
 1711 0018 08BF     		IT       EQ
 1712              	@ 0 "" 2
 352:SYS/task_manager/task_manager.c ****     /******************************  FPU SECTION  *********************************/
 1713              		.loc 1 352 5 view .LVU476
 1714              	@ 352 "SYS/task_manager/task_manager.c" 1
 1715 001a 20ED108A 		VSTMDBEQ R0!, {s16-s31}
ARM GAS  /tmp/ccMrs0Mo.s 			page 53


 1716              	@ 0 "" 2
 355:SYS/task_manager/task_manager.c ****     __ASM("BX       R14");
 1717              		.loc 1 355 5 view .LVU477
 1718              	@ 355 "SYS/task_manager/task_manager.c" 1
 1719 001e BFF36F8F 		ISB
 1720              	@ 0 "" 2
 356:SYS/task_manager/task_manager.c **** 
 1721              		.loc 1 356 5 view .LVU478
 1722              	@ 356 "SYS/task_manager/task_manager.c" 1
 1723 0022 7047     		BX       R14
 1724              	@ 0 "" 2
 358:SYS/task_manager/task_manager.c **** }
 1725              		.loc 1 358 5 view .LVU479
 1726              	@ 358 "SYS/task_manager/task_manager.c" 1
 1727 0024 00000000 		CurrentTCBConst_Tmp3: .word CurTsk_TCB
 1728              	@ 0 "" 2
 359:SYS/task_manager/task_manager.c **** 
 1729              		.loc 1 359 1 is_stmt 0 view .LVU480
 1730              		.thumb
 1731              		.syntax unified
 1732 0028 7047     		bx	lr
 1733              		.cfi_endproc
 1734              	.LFE140:
 1736              		.section	.text.Task_Load,"ax",%progbits
 1737              		.align	1
 1738              		.global	Task_Load
 1739              		.syntax unified
 1740              		.thumb
 1741              		.thumb_func
 1742              		.fpu fpv4-sp-d16
 1744              	Task_Load:
 1745              	.LFB141:
 362:SYS/task_manager/task_manager.c ****     __ASM("LDR	  R3, =CurTsk_TCB");
 1746              		.loc 1 362 1 is_stmt 1 view -0
 1747              		.cfi_startproc
 1748              		@ args = 0, pretend = 0, frame = 0
 1749              		@ frame_needed = 0, uses_anonymous_args = 0
 1750              		@ link register save eliminated.
 363:SYS/task_manager/task_manager.c ****     __ASM("LDR    R1, [R3]");
 1751              		.loc 1 363 5 view .LVU482
 1752              		.syntax unified
 1753              	@ 363 "SYS/task_manager/task_manager.c" 1
 1754 0000 084B     		LDR	  R3, =CurTsk_TCB
 1755              	@ 0 "" 2
 364:SYS/task_manager/task_manager.c ****     __ASM("LDR    R0, [R1]");
 1756              		.loc 1 364 5 view .LVU483
 1757              	@ 364 "SYS/task_manager/task_manager.c" 1
 1758 0002 1968     		LDR    R1, [R3]
 1759              	@ 0 "" 2
 365:SYS/task_manager/task_manager.c **** 
 1760              		.loc 1 365 5 view .LVU484
 1761              	@ 365 "SYS/task_manager/task_manager.c" 1
 1762 0004 0868     		LDR    R0, [R1]
 1763              	@ 0 "" 2
 367:SYS/task_manager/task_manager.c **** 
 1764              		.loc 1 367 5 view .LVU485
 1765              	@ 367 "SYS/task_manager/task_manager.c" 1
ARM GAS  /tmp/ccMrs0Mo.s 			page 54


 1766 0006 B0E8F04F 		LDMIA  R0!, {R4-R11, R14}
 1767              	@ 0 "" 2
 370:SYS/task_manager/task_manager.c ****     __ASM("IT       EQ");
 1768              		.loc 1 370 5 view .LVU486
 1769              	@ 370 "SYS/task_manager/task_manager.c" 1
 1770 000a 1EF0100F 		TST      R14, #0x10
 1771              	@ 0 "" 2
 371:SYS/task_manager/task_manager.c ****     __ASM("VLDMIAEQ R0!, {s16-s31}");
 1772              		.loc 1 371 5 view .LVU487
 1773              	@ 371 "SYS/task_manager/task_manager.c" 1
 1774 000e 08BF     		IT       EQ
 1775              	@ 0 "" 2
 372:SYS/task_manager/task_manager.c ****     /******************************  FPU SECTION  *********************************/
 1776              		.loc 1 372 5 view .LVU488
 1777              	@ 372 "SYS/task_manager/task_manager.c" 1
 1778 0010 B0EC108A 		VLDMIAEQ R0!, {s16-s31}
 1779              	@ 0 "" 2
 375:SYS/task_manager/task_manager.c ****     __ASM("ISB");
 1780              		.loc 1 375 5 view .LVU489
 1781              	@ 375 "SYS/task_manager/task_manager.c" 1
 1782 0014 80F30988 		MSR    PSP, R0
 1783              	@ 0 "" 2
 376:SYS/task_manager/task_manager.c ****     //__ASM("MOV    R0, #240");
 1784              		.loc 1 376 5 view .LVU490
 1785              	@ 376 "SYS/task_manager/task_manager.c" 1
 1786 0018 BFF36F8F 		ISB
 1787              	@ 0 "" 2
 379:SYS/task_manager/task_manager.c ****     __ASM(".ALIGN 4");
 1788              		.loc 1 379 5 view .LVU491
 1789              	@ 379 "SYS/task_manager/task_manager.c" 1
 1790 001c 7047     		BX     R14
 1791              	@ 0 "" 2
 380:SYS/task_manager/task_manager.c **** }
 1792              		.loc 1 380 5 view .LVU492
 1793              	@ 380 "SYS/task_manager/task_manager.c" 1
 1794 001e 00BF     		.ALIGN 4
 1795              	@ 0 "" 2
 381:SYS/task_manager/task_manager.c **** 
 1796              		.loc 1 381 1 is_stmt 0 view .LVU493
 1797              		.thumb
 1798              		.syntax unified
 1799 0020 7047     		bx	lr
 1800              		.cfi_endproc
 1801              	.LFE141:
 1803 0022 0000     		.section	.text.Load_FirstTask,"ax",%progbits
 1804              		.align	1
 1805              		.global	Load_FirstTask
 1806              		.syntax unified
 1807              		.thumb
 1808              		.thumb_func
 1809              		.fpu fpv4-sp-d16
 1811              	Load_FirstTask:
 1812              	.LFB142:
 384:SYS/task_manager/task_manager.c ****     Task_Load();
 1813              		.loc 1 384 1 is_stmt 1 view -0
 1814              		.cfi_startproc
 1815              		@ args = 0, pretend = 0, frame = 0
ARM GAS  /tmp/ccMrs0Mo.s 			page 55


 1816              		@ frame_needed = 0, uses_anonymous_args = 0
 1817 0000 08B5     		push	{r3, lr}
 1818              	.LCFI30:
 1819              		.cfi_def_cfa_offset 8
 1820              		.cfi_offset 3, -8
 1821              		.cfi_offset 14, -4
 385:SYS/task_manager/task_manager.c **** }
 1822              		.loc 1 385 5 view .LVU495
 1823 0002 FFF7FEFF 		bl	Task_Load
 1824              	.LVL110:
 386:SYS/task_manager/task_manager.c **** 
 1825              		.loc 1 386 1 is_stmt 0 view .LVU496
 1826 0006 08BD     		pop	{r3, pc}
 1827              		.cfi_endproc
 1828              	.LFE142:
 1830              		.section	.text.Task_SwitchContext,"ax",%progbits
 1831              		.align	1
 1832              		.global	Task_SwitchContext
 1833              		.syntax unified
 1834              		.thumb
 1835              		.thumb_func
 1836              		.fpu fpv4-sp-d16
 1838              	Task_SwitchContext:
 1839              	.LFB143:
 389:SYS/task_manager/task_manager.c ****     __ASM("MRS      R0, PSP");
 1840              		.loc 1 389 1 is_stmt 1 view -0
 1841              		.cfi_startproc
 1842              		@ args = 0, pretend = 0, frame = 0
 1843              		@ frame_needed = 0, uses_anonymous_args = 0
 1844              		@ link register save eliminated.
 390:SYS/task_manager/task_manager.c ****     __ASM("ISB");
 1845              		.loc 1 390 5 view .LVU498
 1846              		.syntax unified
 1847              	@ 390 "SYS/task_manager/task_manager.c" 1
 1848 0000 EFF30980 		MRS      R0, PSP
 1849              	@ 0 "" 2
 391:SYS/task_manager/task_manager.c **** 
 1850              		.loc 1 391 5 view .LVU499
 1851              	@ 391 "SYS/task_manager/task_manager.c" 1
 1852 0004 BFF36F8F 		ISB
 1853              	@ 0 "" 2
 393:SYS/task_manager/task_manager.c ****     __ASM("LDR      R2, [R3]");
 1854              		.loc 1 393 5 view .LVU500
 1855              	@ 393 "SYS/task_manager/task_manager.c" 1
 1856 0008 DFF85030 		LDR      R3, CurrentTCBConst_Tmp
 1857              	@ 0 "" 2
 394:SYS/task_manager/task_manager.c **** 
 1858              		.loc 1 394 5 view .LVU501
 1859              	@ 394 "SYS/task_manager/task_manager.c" 1
 1860 000c 1A68     		LDR      R2, [R3]
 1861              	@ 0 "" 2
 397:SYS/task_manager/task_manager.c ****     __ASM("IT       EQ");
 1862              		.loc 1 397 5 view .LVU502
 1863              	@ 397 "SYS/task_manager/task_manager.c" 1
 1864 000e 1EF0100F 		TST      R14, #0x10
 1865              	@ 0 "" 2
 398:SYS/task_manager/task_manager.c ****     __ASM("VSTMDBEQ R0!, {s16-s31}");
ARM GAS  /tmp/ccMrs0Mo.s 			page 56


 1866              		.loc 1 398 5 view .LVU503
 1867              	@ 398 "SYS/task_manager/task_manager.c" 1
 1868 0012 08BF     		IT       EQ
 1869              	@ 0 "" 2
 399:SYS/task_manager/task_manager.c ****     /******************************  FPU SECTION  *********************************/
 1870              		.loc 1 399 5 view .LVU504
 1871              	@ 399 "SYS/task_manager/task_manager.c" 1
 1872 0014 20ED108A 		VSTMDBEQ R0!, {s16-s31}
 1873              	@ 0 "" 2
 402:SYS/task_manager/task_manager.c ****     __ASM("STR      R0, [R2]");
 1874              		.loc 1 402 5 view .LVU505
 1875              	@ 402 "SYS/task_manager/task_manager.c" 1
 1876 0018 20E9F04F 		STMDB    R0!, {R4-R11, R14}
 1877              	@ 0 "" 2
 403:SYS/task_manager/task_manager.c **** 
 1878              		.loc 1 403 5 view .LVU506
 1879              	@ 403 "SYS/task_manager/task_manager.c" 1
 1880 001c 1060     		STR      R0, [R2]
 1881              	@ 0 "" 2
 405:SYS/task_manager/task_manager.c ****     __ASM("MOV      R0, %0" ::"i"(0x50));
 1882              		.loc 1 405 5 view .LVU507
 1883              	@ 405 "SYS/task_manager/task_manager.c" 1
 1884 001e 2DE90900 		STMDB    SP!, {R0, R3}
 1885              	@ 0 "" 2
 406:SYS/task_manager/task_manager.c ****     __ASM("MSR      BASEPRI, R0");
 1886              		.loc 1 406 5 view .LVU508
 1887              	@ 406 "SYS/task_manager/task_manager.c" 1
 1888 0022 4FF05000 		MOV      R0, #80
 1889              	@ 0 "" 2
 407:SYS/task_manager/task_manager.c **** 
 1890              		.loc 1 407 5 view .LVU509
 1891              	@ 407 "SYS/task_manager/task_manager.c" 1
 1892 0026 80F31188 		MSR      BASEPRI, R0
 1893              	@ 0 "" 2
 409:SYS/task_manager/task_manager.c ****     __ASM("ISB");
 1894              		.loc 1 409 5 view .LVU510
 1895              	@ 409 "SYS/task_manager/task_manager.c" 1
 1896 002a BFF34F8F 		DSB
 1897              	@ 0 "" 2
 410:SYS/task_manager/task_manager.c **** 
 1898              		.loc 1 410 5 view .LVU511
 1899              	@ 410 "SYS/task_manager/task_manager.c" 1
 1900 002e BFF36F8F 		ISB
 1901              	@ 0 "" 2
 412:SYS/task_manager/task_manager.c **** 
 1902              		.loc 1 412 5 view .LVU512
 1903              	@ 412 "SYS/task_manager/task_manager.c" 1
 1904 0032 FFF7FEFF 		BL       Task_SwitchStack
 1905              	@ 0 "" 2
 414:SYS/task_manager/task_manager.c ****     __ASM("MSR      BASEPRI, R0");
 1906              		.loc 1 414 5 view .LVU513
 1907              	@ 414 "SYS/task_manager/task_manager.c" 1
 1908 0036 4FF00000 		MOV      R0, #0
 1909              	@ 0 "" 2
 415:SYS/task_manager/task_manager.c ****     __ASM("LDMIA    SP!, {R0, R3}");
 1910              		.loc 1 415 5 view .LVU514
 1911              	@ 415 "SYS/task_manager/task_manager.c" 1
ARM GAS  /tmp/ccMrs0Mo.s 			page 57


 1912 003a 80F31188 		MSR      BASEPRI, R0
 1913              	@ 0 "" 2
 416:SYS/task_manager/task_manager.c **** 
 1914              		.loc 1 416 5 view .LVU515
 1915              	@ 416 "SYS/task_manager/task_manager.c" 1
 1916 003e 09BC     		LDMIA    SP!, {R0, R3}
 1917              	@ 0 "" 2
 418:SYS/task_manager/task_manager.c ****     __ASM("LDR      R0, [R1]");
 1918              		.loc 1 418 5 view .LVU516
 1919              	@ 418 "SYS/task_manager/task_manager.c" 1
 1920 0040 1968     		LDR      R1, [R3]
 1921              	@ 0 "" 2
 419:SYS/task_manager/task_manager.c **** 
 1922              		.loc 1 419 5 view .LVU517
 1923              	@ 419 "SYS/task_manager/task_manager.c" 1
 1924 0042 0868     		LDR      R0, [R1]
 1925              	@ 0 "" 2
 421:SYS/task_manager/task_manager.c **** 
 1926              		.loc 1 421 5 view .LVU518
 1927              	@ 421 "SYS/task_manager/task_manager.c" 1
 1928 0044 B0E8F04F 		LDMIA    R0!, {R4-R11, R14}
 1929              	@ 0 "" 2
 424:SYS/task_manager/task_manager.c ****     __ASM("IT       EQ");
 1930              		.loc 1 424 5 view .LVU519
 1931              	@ 424 "SYS/task_manager/task_manager.c" 1
 1932 0048 1EF0100F 		TST      R14, #0x10
 1933              	@ 0 "" 2
 425:SYS/task_manager/task_manager.c ****     __ASM("VLDMIAEQ R0!, {s16-s31}");
 1934              		.loc 1 425 5 view .LVU520
 1935              	@ 425 "SYS/task_manager/task_manager.c" 1
 1936 004c 08BF     		IT       EQ
 1937              	@ 0 "" 2
 426:SYS/task_manager/task_manager.c ****     /******************************  FPU SECTION  *********************************/
 1938              		.loc 1 426 5 view .LVU521
 1939              	@ 426 "SYS/task_manager/task_manager.c" 1
 1940 004e B0EC108A 		VLDMIAEQ R0!, {s16-s31}
 1941              	@ 0 "" 2
 429:SYS/task_manager/task_manager.c ****     __ASM("ISB");
 1942              		.loc 1 429 5 view .LVU522
 1943              	@ 429 "SYS/task_manager/task_manager.c" 1
 1944 0052 80F30988 		MSR      PSP,R0
 1945              	@ 0 "" 2
 430:SYS/task_manager/task_manager.c ****     //__ASM("MOV      R0, #240");
 1946              		.loc 1 430 5 view .LVU523
 1947              	@ 430 "SYS/task_manager/task_manager.c" 1
 1948 0056 BFF36F8F 		ISB
 1949              	@ 0 "" 2
 433:SYS/task_manager/task_manager.c **** 
 1950              		.loc 1 433 5 view .LVU524
 1951              	@ 433 "SYS/task_manager/task_manager.c" 1
 1952 005a 7047     		BX       R14
 1953              	@ 0 "" 2
 435:SYS/task_manager/task_manager.c ****     __ASM(".ALIGN 4");
 1954              		.loc 1 435 5 view .LVU525
 1955              	@ 435 "SYS/task_manager/task_manager.c" 1
 1956 005c 00000000 		CurrentTCBConst_Tmp: .word CurTsk_TCB
 1957              	@ 0 "" 2
ARM GAS  /tmp/ccMrs0Mo.s 			page 58


 436:SYS/task_manager/task_manager.c **** }
 1958              		.loc 1 436 5 view .LVU526
 1959              	@ 436 "SYS/task_manager/task_manager.c" 1
 1960              		.ALIGN 4
 1961              	@ 0 "" 2
 437:SYS/task_manager/task_manager.c **** 
 1962              		.loc 1 437 1 is_stmt 0 view .LVU527
 1963              		.thumb
 1964              		.syntax unified
 1965 0060 7047     		bx	lr
 1966              		.cfi_endproc
 1967              	.LFE143:
 1969 0062 00BF     		.section	.text.Task_Get_HighestRank_RdyTask,"ax",%progbits
 1970              		.align	1
 1971              		.global	Task_Get_HighestRank_RdyTask
 1972              		.syntax unified
 1973              		.thumb
 1974              		.thumb_func
 1975              		.fpu fpv4-sp-d16
 1977              	Task_Get_HighestRank_RdyTask:
 1978              	.LFB149:
 524:SYS/task_manager/task_manager.c ****     uint8_t grp_id = 0;
 1979              		.loc 1 524 1 is_stmt 1 view -0
 1980              		.cfi_startproc
 1981              		@ args = 0, pretend = 0, frame = 0
 1982              		@ frame_needed = 0, uses_anonymous_args = 0
 1983              		@ link register save eliminated.
 525:SYS/task_manager/task_manager.c ****     uint8_t tsk_id = 0;
 1984              		.loc 1 525 5 view .LVU529
 1985              	.LVL111:
 526:SYS/task_manager/task_manager.c **** 
 1986              		.loc 1 526 5 view .LVU530
 528:SYS/task_manager/task_manager.c ****     {
 1987              		.loc 1 528 5 view .LVU531
 528:SYS/task_manager/task_manager.c ****     {
 1988              		.loc 1 528 26 is_stmt 0 view .LVU532
 1989 0000 134B     		ldr	r3, .L128
 1990 0002 1B78     		ldrb	r3, [r3]	@ zero_extendqisi2
 528:SYS/task_manager/task_manager.c ****     {
 1991              		.loc 1 528 8 view .LVU533
 1992 0004 0BB3     		cbz	r3, .L122
 531:SYS/task_manager/task_manager.c ****         //find task in group
 1993              		.loc 1 531 9 is_stmt 1 view .LVU534
 531:SYS/task_manager/task_manager.c ****         //find task in group
 1994              		.loc 1 531 46 is_stmt 0 view .LVU535
 1995 0006 124B     		ldr	r3, .L128
 1996 0008 1A78     		ldrb	r2, [r3]	@ zero_extendqisi2
 1997 000a D2B2     		uxtb	r2, r2
 531:SYS/task_manager/task_manager.c ****         //find task in group
 1998              		.loc 1 531 16 view .LVU536
 1999 000c 1149     		ldr	r1, .L128+4
 2000 000e 8A5C     		ldrb	r2, [r1, r2]	@ zero_extendqisi2
 2001              	.LVL112:
 533:SYS/task_manager/task_manager.c ****     }
 2002              		.loc 1 533 9 is_stmt 1 view .LVU537
 533:SYS/task_manager/task_manager.c ****     }
 2003              		.loc 1 533 59 is_stmt 0 view .LVU538
ARM GAS  /tmp/ccMrs0Mo.s 			page 59


 2004 0010 1344     		add	r3, r3, r2
 2005 0012 5B78     		ldrb	r3, [r3, #1]	@ zero_extendqisi2
 2006 0014 DBB2     		uxtb	r3, r3
 533:SYS/task_manager/task_manager.c ****     }
 2007              		.loc 1 533 16 view .LVU539
 2008 0016 CB5C     		ldrb	r3, [r1, r3]	@ zero_extendqisi2
 2009              	.LVL113:
 538:SYS/task_manager/task_manager.c ****     {
 2010              		.loc 1 538 5 is_stmt 1 view .LVU540
 538:SYS/task_manager/task_manager.c ****     {
 2011              		.loc 1 538 25 is_stmt 0 view .LVU541
 2012 0018 03EBC200 		add	r0, r3, r2, lsl #3
 2013 001c 0E49     		ldr	r1, .L128+8
 2014 001e 51F82000 		ldr	r0, [r1, r0, lsl #2]
 538:SYS/task_manager/task_manager.c ****     {
 2015              		.loc 1 538 8 view .LVU542
 2016 0022 00B1     		cbz	r0, .L127
 548:SYS/task_manager/task_manager.c **** 
 2017              		.loc 1 548 1 view .LVU543
 2018 0024 7047     		bx	lr
 2019              	.L127:
 524:SYS/task_manager/task_manager.c ****     uint8_t grp_id = 0;
 2020              		.loc 1 524 1 view .LVU544
 2021 0026 70B4     		push	{r4, r5, r6}
 2022              	.LCFI31:
 2023              		.cfi_def_cfa_offset 12
 2024              		.cfi_offset 4, -12
 2025              		.cfi_offset 5, -8
 2026              		.cfi_offset 6, -4
 544:SYS/task_manager/task_manager.c ****         TskHdl_RdyMap.TskInGrp[grp_id].Flg &= ~(1 << tsk_id);
 2027              		.loc 1 544 9 is_stmt 1 view .LVU545
 544:SYS/task_manager/task_manager.c ****         TskHdl_RdyMap.TskInGrp[grp_id].Flg &= ~(1 << tsk_id);
 2028              		.loc 1 544 31 is_stmt 0 view .LVU546
 2029 0028 0949     		ldr	r1, .L128
 2030 002a 0D78     		ldrb	r5, [r1]	@ zero_extendqisi2
 544:SYS/task_manager/task_manager.c ****         TskHdl_RdyMap.TskInGrp[grp_id].Flg &= ~(1 << tsk_id);
 2031              		.loc 1 544 38 view .LVU547
 2032 002c 0124     		movs	r4, #1
 2033 002e 04FA02F6 		lsl	r6, r4, r2
 544:SYS/task_manager/task_manager.c ****         TskHdl_RdyMap.TskInGrp[grp_id].Flg &= ~(1 << tsk_id);
 2034              		.loc 1 544 31 view .LVU548
 2035 0032 25EA0605 		bic	r5, r5, r6
 2036 0036 0D70     		strb	r5, [r1]
 545:SYS/task_manager/task_manager.c ****         return NULL;
 2037              		.loc 1 545 9 is_stmt 1 view .LVU549
 545:SYS/task_manager/task_manager.c ****         return NULL;
 2038              		.loc 1 545 44 is_stmt 0 view .LVU550
 2039 0038 0A44     		add	r2, r2, r1
 2040 003a 5178     		ldrb	r1, [r2, #1]	@ zero_extendqisi2
 545:SYS/task_manager/task_manager.c ****         return NULL;
 2041              		.loc 1 545 51 view .LVU551
 2042 003c 04FA03F3 		lsl	r3, r4, r3
 545:SYS/task_manager/task_manager.c ****         return NULL;
 2043              		.loc 1 545 44 view .LVU552
 2044 0040 21EA0303 		bic	r3, r1, r3
 2045 0044 5370     		strb	r3, [r2, #1]
 546:SYS/task_manager/task_manager.c ****     }
ARM GAS  /tmp/ccMrs0Mo.s 			page 60


 2046              		.loc 1 546 9 is_stmt 1 view .LVU553
 548:SYS/task_manager/task_manager.c **** 
 2047              		.loc 1 548 1 is_stmt 0 view .LVU554
 2048 0046 70BC     		pop	{r4, r5, r6}
 2049              	.LCFI32:
 2050              		.cfi_restore 6
 2051              		.cfi_restore 5
 2052              		.cfi_restore 4
 2053              		.cfi_def_cfa_offset 0
 2054 0048 7047     		bx	lr
 2055              	.LVL114:
 2056              	.L122:
 536:SYS/task_manager/task_manager.c **** 
 2057              		.loc 1 536 16 view .LVU555
 2058 004a 0020     		movs	r0, #0
 2059 004c 7047     		bx	lr
 2060              	.L129:
 2061 004e 00BF     		.align	2
 2062              	.L128:
 2063 0050 00000000 		.word	.LANCHOR0
 2064 0054 00000000 		.word	.LANCHOR10
 2065 0058 00000000 		.word	Task_Ptr
 2066              		.cfi_endproc
 2067              	.LFE149:
 2069              		.section	.text.Task_SetNextTask_Ptr,"ax",%progbits
 2070              		.align	1
 2071              		.global	Task_SetNextTask_Ptr
 2072              		.syntax unified
 2073              		.thumb
 2074              		.thumb_func
 2075              		.fpu fpv4-sp-d16
 2077              	Task_SetNextTask_Ptr:
 2078              	.LVL115:
 2079              	.LFB150:
 551:SYS/task_manager/task_manager.c ****     if (nxt != NULL)
 2080              		.loc 1 551 1 is_stmt 1 view -0
 2081              		.cfi_startproc
 2082              		@ args = 0, pretend = 0, frame = 0
 2083              		@ frame_needed = 0, uses_anonymous_args = 0
 2084              		@ link register save eliminated.
 552:SYS/task_manager/task_manager.c ****     {
 2085              		.loc 1 552 5 view .LVU557
 552:SYS/task_manager/task_manager.c ****     {
 2086              		.loc 1 552 8 is_stmt 0 view .LVU558
 2087 0000 38B1     		cbz	r0, .L130
 554:SYS/task_manager/task_manager.c ****         NxtTsk_TCB.Top_Stk_Ptr = &NxtRunTsk_Ptr->TCB.Top_Stk_Ptr;
 2088              		.loc 1 554 9 is_stmt 1 view .LVU559
 554:SYS/task_manager/task_manager.c ****         NxtTsk_TCB.Top_Stk_Ptr = &NxtRunTsk_Ptr->TCB.Top_Stk_Ptr;
 2089              		.loc 1 554 23 is_stmt 0 view .LVU560
 2090 0002 044A     		ldr	r2, .L132
 2091 0004 1060     		str	r0, [r2]
 555:SYS/task_manager/task_manager.c ****         NxtTsk_TCB.Stack = NxtRunTsk_Ptr->TCB.Stack;
 2092              		.loc 1 555 9 is_stmt 1 view .LVU561
 555:SYS/task_manager/task_manager.c ****         NxtTsk_TCB.Stack = NxtRunTsk_Ptr->TCB.Stack;
 2093              		.loc 1 555 34 is_stmt 0 view .LVU562
 2094 0006 00F15001 		add	r1, r0, #80
 555:SYS/task_manager/task_manager.c ****         NxtTsk_TCB.Stack = NxtRunTsk_Ptr->TCB.Stack;
ARM GAS  /tmp/ccMrs0Mo.s 			page 61


 2095              		.loc 1 555 32 view .LVU563
 2096 000a 034A     		ldr	r2, .L132+4
 2097 000c 1160     		str	r1, [r2]
 556:SYS/task_manager/task_manager.c ****     }
 2098              		.loc 1 556 9 is_stmt 1 view .LVU564
 556:SYS/task_manager/task_manager.c ****     }
 2099              		.loc 1 556 46 is_stmt 0 view .LVU565
 2100 000e 436D     		ldr	r3, [r0, #84]
 556:SYS/task_manager/task_manager.c ****     }
 2101              		.loc 1 556 26 view .LVU566
 2102 0010 5360     		str	r3, [r2, #4]
 2103              	.L130:
 558:SYS/task_manager/task_manager.c **** 
 2104              		.loc 1 558 1 view .LVU567
 2105 0012 7047     		bx	lr
 2106              	.L133:
 2107              		.align	2
 2108              	.L132:
 2109 0014 00000000 		.word	.LANCHOR9
 2110 0018 00000000 		.word	NxtTsk_TCB
 2111              		.cfi_endproc
 2112              	.LFE150:
 2114              		.section	.text.Task_TriggerPendSV,"ax",%progbits
 2115              		.align	1
 2116              		.global	Task_TriggerPendSV
 2117              		.syntax unified
 2118              		.thumb
 2119              		.thumb_func
 2120              		.fpu fpv4-sp-d16
 2122              	Task_TriggerPendSV:
 2123              	.LFB152:
 586:SYS/task_manager/task_manager.c ****     __ASM(".equ NVIC_INT_CTRL, 0xE000ED04");
 2124              		.loc 1 586 1 is_stmt 1 view -0
 2125              		.cfi_startproc
 2126              		@ Naked Function: prologue and epilogue provided by programmer.
 2127              		@ args = 0, pretend = 0, frame = 0
 2128              		@ frame_needed = 0, uses_anonymous_args = 0
 587:SYS/task_manager/task_manager.c ****     __ASM(".equ NVIC_PENDSVSET, 0x10000000");
 2129              		.loc 1 587 5 view .LVU569
 2130              		.syntax unified
 2131              	@ 587 "SYS/task_manager/task_manager.c" 1
 2132              		.equ NVIC_INT_CTRL, 0xE000ED04
 2133              	@ 0 "" 2
 588:SYS/task_manager/task_manager.c **** 
 2134              		.loc 1 588 5 view .LVU570
 2135              	@ 588 "SYS/task_manager/task_manager.c" 1
 2136              		.equ NVIC_PENDSVSET, 0x10000000
 2137              	@ 0 "" 2
 590:SYS/task_manager/task_manager.c ****     __ASM("LDR      R1, =NVIC_PENDSVSET");
 2138              		.loc 1 590 5 view .LVU571
 2139              	@ 590 "SYS/task_manager/task_manager.c" 1
 2140 0000 0248     		LDR      R0, =NVIC_INT_CTRL
 2141              	@ 0 "" 2
 591:SYS/task_manager/task_manager.c ****     __ASM("STR      R1, [R0]");
 2142              		.loc 1 591 5 view .LVU572
 2143              	@ 591 "SYS/task_manager/task_manager.c" 1
 2144 0002 4FF08051 		LDR      R1, =NVIC_PENDSVSET
ARM GAS  /tmp/ccMrs0Mo.s 			page 62


 2145              	@ 0 "" 2
 592:SYS/task_manager/task_manager.c ****     __ASM("BX       LR");
 2146              		.loc 1 592 5 view .LVU573
 2147              	@ 592 "SYS/task_manager/task_manager.c" 1
 2148 0006 0160     		STR      R1, [R0]
 2149              	@ 0 "" 2
 593:SYS/task_manager/task_manager.c **** }
 2150              		.loc 1 593 5 view .LVU574
 2151              	@ 593 "SYS/task_manager/task_manager.c" 1
 2152 0008 7047     		BX       LR
 2153              	@ 0 "" 2
 594:SYS/task_manager/task_manager.c **** 
 2154              		.loc 1 594 1 is_stmt 0 view .LVU575
 2155              		.thumb
 2156              		.syntax unified
 2157              		.cfi_endproc
 2158              	.LFE152:
 2160 000a 0000     		.section	.text.Task_Scheduler,"ax",%progbits
 2161              		.align	1
 2162              		.global	Task_Scheduler
 2163              		.syntax unified
 2164              		.thumb
 2165              		.thumb_func
 2166              		.fpu fpv4-sp-d16
 2168              	Task_Scheduler:
 2169              	.LFB172:
 998:SYS/task_manager/task_manager.c **** 
 999:SYS/task_manager/task_manager.c **** void Task_Scheduler(void)
1000:SYS/task_manager/task_manager.c **** {
 2170              		.loc 1 1000 1 is_stmt 1 view -0
 2171              		.cfi_startproc
 2172              		@ args = 0, pretend = 0, frame = 0
 2173              		@ frame_needed = 0, uses_anonymous_args = 0
1001:SYS/task_manager/task_manager.c ****     if (TskSys_state != TaskSys_Start)
 2174              		.loc 1 1001 5 view .LVU577
 2175              		.loc 1 1001 22 is_stmt 0 view .LVU578
 2176 0000 4A4B     		ldr	r3, .L154
 2177 0002 1B78     		ldrb	r3, [r3]	@ zero_extendqisi2
 2178 0004 DBB2     		uxtb	r3, r3
 2179              		.loc 1 1001 8 view .LVU579
 2180 0006 022B     		cmp	r3, #2
 2181 0008 00D0     		beq	.L148
 2182 000a 7047     		bx	lr
 2183              	.L148:
1000:SYS/task_manager/task_manager.c ****     if (TskSys_state != TaskSys_Start)
 2184              		.loc 1 1000 1 view .LVU580
 2185 000c 70B5     		push	{r4, r5, r6, lr}
 2186              	.LCFI33:
 2187              		.cfi_def_cfa_offset 16
 2188              		.cfi_offset 4, -16
 2189              		.cfi_offset 5, -12
 2190              		.cfi_offset 6, -8
 2191              		.cfi_offset 14, -4
1002:SYS/task_manager/task_manager.c ****         return;
1003:SYS/task_manager/task_manager.c **** 
1004:SYS/task_manager/task_manager.c ****     List_traverse(&TskCrt_RegList.list, Task_CrtList_TraversePoll_callback, NULL);
 2192              		.loc 1 1004 5 is_stmt 1 view .LVU581
ARM GAS  /tmp/ccMrs0Mo.s 			page 63


 2193 000e 0022     		movs	r2, #0
 2194 0010 4749     		ldr	r1, .L154+4
 2195 0012 4848     		ldr	r0, .L154+8
 2196 0014 FFF7FEFF 		bl	List_traverse
 2197              	.LVL116:
1005:SYS/task_manager/task_manager.c **** 
1006:SYS/task_manager/task_manager.c ****     NxtRunTsk_Ptr = Task_Get_HighestRank_RdyTask();
 2198              		.loc 1 1006 5 view .LVU582
 2199              		.loc 1 1006 21 is_stmt 0 view .LVU583
 2200 0018 FFF7FEFF 		bl	Task_Get_HighestRank_RdyTask
 2201              	.LVL117:
 2202              		.loc 1 1006 19 view .LVU584
 2203 001c 464B     		ldr	r3, .L154+12
 2204 001e 1860     		str	r0, [r3]
1007:SYS/task_manager/task_manager.c **** 
1008:SYS/task_manager/task_manager.c **** #if (TASK_SCHEDULER_TYPE == PREEMPTIVE_SCHDULER)
1009:SYS/task_manager/task_manager.c **** 
1010:SYS/task_manager/task_manager.c ****     PndHstTsk_Ptr = Task_Get_HighestRank_PndTask();
 2205              		.loc 1 1010 5 is_stmt 1 view .LVU585
 2206              		.loc 1 1010 21 is_stmt 0 view .LVU586
 2207 0020 FFF7FEFF 		bl	Task_Get_HighestRank_PndTask
 2208              	.LVL118:
 2209 0024 0546     		mov	r5, r0
 2210              		.loc 1 1010 19 view .LVU587
 2211 0026 454B     		ldr	r3, .L154+16
 2212 0028 1860     		str	r0, [r3]
1011:SYS/task_manager/task_manager.c **** 
1012:SYS/task_manager/task_manager.c ****     if (CurRunTsk_Ptr == NULL)
 2213              		.loc 1 1012 5 is_stmt 1 view .LVU588
 2214              		.loc 1 1012 23 is_stmt 0 view .LVU589
 2215 002a 454B     		ldr	r3, .L154+20
 2216 002c 1C68     		ldr	r4, [r3]
 2217              		.loc 1 1012 8 view .LVU590
 2218 002e 5CB1     		cbz	r4, .L149
1013:SYS/task_manager/task_manager.c ****     {
1014:SYS/task_manager/task_manager.c ****         if (PndHstTsk_Ptr == NULL)
1015:SYS/task_manager/task_manager.c ****         {
1016:SYS/task_manager/task_manager.c ****             //Current Run task Pointer is Null also no task In pending mode
1017:SYS/task_manager/task_manager.c ****             //set CurRunTsk_Ptr to NxtRunTsk_Ptr
1018:SYS/task_manager/task_manager.c ****             if (NxtRunTsk_Ptr != NULL)
1019:SYS/task_manager/task_manager.c ****             {
1020:SYS/task_manager/task_manager.c ****                 NxtTsk_TCB.Top_Stk_Ptr = &NxtRunTsk_Ptr->TCB.Top_Stk_Ptr;
1021:SYS/task_manager/task_manager.c ****                 NxtTsk_TCB.Stack = NxtRunTsk_Ptr->TCB.Stack;
1022:SYS/task_manager/task_manager.c **** 
1023:SYS/task_manager/task_manager.c ****                 Task_TriggerPendSV();
1024:SYS/task_manager/task_manager.c ****                 return;
1025:SYS/task_manager/task_manager.c ****             }
1026:SYS/task_manager/task_manager.c ****             else
1027:SYS/task_manager/task_manager.c ****             {
1028:SYS/task_manager/task_manager.c ****                 //doing idle function
1029:SYS/task_manager/task_manager.c ****                 Task_Idle();
1030:SYS/task_manager/task_manager.c ****             }
1031:SYS/task_manager/task_manager.c ****         }
1032:SYS/task_manager/task_manager.c ****         else
1033:SYS/task_manager/task_manager.c ****         {
1034:SYS/task_manager/task_manager.c ****             if (NxtRunTsk_Ptr != NULL)
1035:SYS/task_manager/task_manager.c ****             {
ARM GAS  /tmp/ccMrs0Mo.s 			page 64


1036:SYS/task_manager/task_manager.c ****                 //if has NxtRunTsk_Ptr is not NULL also have task in pending state
1037:SYS/task_manager/task_manager.c ****                 //then get the highest priority task in pend list
1038:SYS/task_manager/task_manager.c ****                 //compare with NxtRunTsk_Ptr
1039:SYS/task_manager/task_manager.c ****                 if (Task_PriorityCompare(NxtRunTsk_Ptr, PndHstTsk_Ptr) == PndHstTsk_Ptr)
1040:SYS/task_manager/task_manager.c ****                 {
1041:SYS/task_manager/task_manager.c ****                     PndHstTsk_Ptr->Exec_status.State = Task_Running;
1042:SYS/task_manager/task_manager.c ****                     NxtRunTsk_Ptr = PndHstTsk_Ptr;
1043:SYS/task_manager/task_manager.c **** 
1044:SYS/task_manager/task_manager.c ****                     Task_ClearPending(NxtRunTsk_Ptr);
1045:SYS/task_manager/task_manager.c ****                 }
1046:SYS/task_manager/task_manager.c ****             }
1047:SYS/task_manager/task_manager.c ****             else
1048:SYS/task_manager/task_manager.c ****             {
1049:SYS/task_manager/task_manager.c ****                 //if NxtRunTsk_Ptr is NULL
1050:SYS/task_manager/task_manager.c ****                 //then set NxtRunTsk_Ptr PndHstTsk_Ptr
1051:SYS/task_manager/task_manager.c ****                 PndHstTsk_Ptr->Exec_status.State = Task_Running;
1052:SYS/task_manager/task_manager.c ****                 NxtRunTsk_Ptr = PndHstTsk_Ptr;
1053:SYS/task_manager/task_manager.c **** 
1054:SYS/task_manager/task_manager.c ****                 Task_ClearPending(NxtRunTsk_Ptr);
1055:SYS/task_manager/task_manager.c ****             }
1056:SYS/task_manager/task_manager.c **** 
1057:SYS/task_manager/task_manager.c ****             NxtTsk_TCB.Top_Stk_Ptr = &NxtRunTsk_Ptr->TCB.Top_Stk_Ptr;
1058:SYS/task_manager/task_manager.c ****             NxtTsk_TCB.Stack = NxtRunTsk_Ptr->TCB.Stack;
1059:SYS/task_manager/task_manager.c **** 
1060:SYS/task_manager/task_manager.c ****             Task_TriggerPendSV();
1061:SYS/task_manager/task_manager.c ****             return;
1062:SYS/task_manager/task_manager.c ****         }
1063:SYS/task_manager/task_manager.c ****     }
1064:SYS/task_manager/task_manager.c ****     else
1065:SYS/task_manager/task_manager.c ****     {
1066:SYS/task_manager/task_manager.c ****         if (CurRunTsk_Ptr != NxtRunTsk_Ptr)
 2219              		.loc 1 1066 9 is_stmt 1 view .LVU591
 2220              		.loc 1 1066 27 is_stmt 0 view .LVU592
 2221 0030 414B     		ldr	r3, .L154+12
 2222 0032 1E68     		ldr	r6, [r3]
 2223              		.loc 1 1066 12 view .LVU593
 2224 0034 B442     		cmp	r4, r6
 2225 0036 5ED0     		beq	.L142
1067:SYS/task_manager/task_manager.c ****         {
1068:SYS/task_manager/task_manager.c ****             if ((NxtRunTsk_Ptr != NULL) && (Task_PriorityCompare(CurRunTsk_Ptr, NxtRunTsk_Ptr) == N
 2226              		.loc 1 1068 13 is_stmt 1 view .LVU594
 2227              		.loc 1 1068 16 is_stmt 0 view .LVU595
 2228 0038 2EB1     		cbz	r6, .L135
 2229              		.loc 1 1068 45 discriminator 1 view .LVU596
 2230 003a 3146     		mov	r1, r6
 2231 003c 2046     		mov	r0, r4
 2232 003e FFF7FEFF 		bl	Task_PriorityCompare
 2233              	.LVL119:
 2234              		.loc 1 1068 41 discriminator 1 view .LVU597
 2235 0042 8642     		cmp	r6, r0
 2236 0044 35D0     		beq	.L150
 2237              	.L135:
1069:SYS/task_manager/task_manager.c ****             {
1070:SYS/task_manager/task_manager.c ****                 //if NxtRunTsk_Ptr group priority is higher then CurRunTsk_Ptr also PndHstTsk_Ptr
1071:SYS/task_manager/task_manager.c ****                 //set current run task as pending state first
1072:SYS/task_manager/task_manager.c ****                 Task_SetPending(CurRunTsk_Ptr);
1073:SYS/task_manager/task_manager.c ****                 Task_ClearReady(CurRunTsk_Ptr);
ARM GAS  /tmp/ccMrs0Mo.s 			page 65


1074:SYS/task_manager/task_manager.c **** 
1075:SYS/task_manager/task_manager.c ****                 //get the highset priority task in pending list
1076:SYS/task_manager/task_manager.c ****                 //if PndHstTsk_Ptr is not NULL
1077:SYS/task_manager/task_manager.c ****                 //then compare the priority between the NxtRunTsk_Ptr and PndHstTsk_Ptr
1078:SYS/task_manager/task_manager.c ****                 if (PndHstTsk_Ptr != NULL)
1079:SYS/task_manager/task_manager.c ****                 {
1080:SYS/task_manager/task_manager.c ****                     if (Task_PriorityCompare(PndHstTsk_Ptr, NxtRunTsk_Ptr) == PndHstTsk_Ptr)
1081:SYS/task_manager/task_manager.c ****                     {
1082:SYS/task_manager/task_manager.c ****                         NxtRunTsk_Ptr = PndHstTsk_Ptr;
1083:SYS/task_manager/task_manager.c ****                     }
1084:SYS/task_manager/task_manager.c ****                 }
1085:SYS/task_manager/task_manager.c **** 
1086:SYS/task_manager/task_manager.c ****                 Task_SetReady(NxtRunTsk_Ptr);
1087:SYS/task_manager/task_manager.c ****                 NxtTsk_TCB.Top_Stk_Ptr = &NxtRunTsk_Ptr->TCB.Top_Stk_Ptr;
1088:SYS/task_manager/task_manager.c ****                 NxtTsk_TCB.Stack = NxtRunTsk_Ptr->TCB.Stack;
1089:SYS/task_manager/task_manager.c **** 
1090:SYS/task_manager/task_manager.c ****                 Task_TriggerPendSV();
1091:SYS/task_manager/task_manager.c ****                 return;
1092:SYS/task_manager/task_manager.c ****             }
1093:SYS/task_manager/task_manager.c ****         }
1094:SYS/task_manager/task_manager.c ****         else
1095:SYS/task_manager/task_manager.c ****         {
1096:SYS/task_manager/task_manager.c ****             //compare with the highest priority pending task
1097:SYS/task_manager/task_manager.c ****             if ((PndHstTsk_Ptr != NULL) && (Task_PriorityCompare(CurRunTsk_Ptr, NxtRunTsk_Ptr) == P
1098:SYS/task_manager/task_manager.c ****             {
1099:SYS/task_manager/task_manager.c ****                 //if PndHstTsk_Ptr group priority is higher then CurRunTsk_Ptr
1100:SYS/task_manager/task_manager.c ****                 //set current run task as pending state first
1101:SYS/task_manager/task_manager.c ****                 Task_SetPending(CurRunTsk_Ptr);
1102:SYS/task_manager/task_manager.c ****                 Task_SetReady(PndHstTsk_Ptr);
1103:SYS/task_manager/task_manager.c **** 
1104:SYS/task_manager/task_manager.c ****                 NxtRunTsk_Ptr = PndHstTsk_Ptr;
1105:SYS/task_manager/task_manager.c ****                 NxtTsk_TCB.Top_Stk_Ptr = &NxtRunTsk_Ptr->TCB.Top_Stk_Ptr;
1106:SYS/task_manager/task_manager.c ****                 NxtTsk_TCB.Stack = NxtRunTsk_Ptr->TCB.Stack;
1107:SYS/task_manager/task_manager.c **** 
1108:SYS/task_manager/task_manager.c ****                 Task_TriggerPendSV();
1109:SYS/task_manager/task_manager.c ****                 return;
1110:SYS/task_manager/task_manager.c ****             }
1111:SYS/task_manager/task_manager.c ****         }
1112:SYS/task_manager/task_manager.c ****     }
1113:SYS/task_manager/task_manager.c **** #else
1114:SYS/task_manager/task_manager.c ****     Task_TriggerPendSV();
1115:SYS/task_manager/task_manager.c **** #endif
1116:SYS/task_manager/task_manager.c **** }
 2238              		.loc 1 1116 1 view .LVU598
 2239 0046 70BD     		pop	{r4, r5, r6, pc}
 2240              	.L149:
1014:SYS/task_manager/task_manager.c ****         {
 2241              		.loc 1 1014 9 is_stmt 1 view .LVU599
1014:SYS/task_manager/task_manager.c ****         {
 2242              		.loc 1 1014 12 is_stmt 0 view .LVU600
 2243 0048 90B1     		cbz	r0, .L151
1034:SYS/task_manager/task_manager.c ****             {
 2244              		.loc 1 1034 13 is_stmt 1 view .LVU601
1034:SYS/task_manager/task_manager.c ****             {
 2245              		.loc 1 1034 31 is_stmt 0 view .LVU602
 2246 004a 3B4B     		ldr	r3, .L154+12
 2247 004c 1868     		ldr	r0, [r3]
ARM GAS  /tmp/ccMrs0Mo.s 			page 66


1034:SYS/task_manager/task_manager.c ****             {
 2248              		.loc 1 1034 16 view .LVU603
 2249 004e 38B3     		cbz	r0, .L140
1039:SYS/task_manager/task_manager.c ****                 {
 2250              		.loc 1 1039 17 is_stmt 1 view .LVU604
1039:SYS/task_manager/task_manager.c ****                 {
 2251              		.loc 1 1039 21 is_stmt 0 view .LVU605
 2252 0050 2946     		mov	r1, r5
 2253 0052 FFF7FEFF 		bl	Task_PriorityCompare
 2254              	.LVL120:
1039:SYS/task_manager/task_manager.c ****                 {
 2255              		.loc 1 1039 20 view .LVU606
 2256 0056 8542     		cmp	r5, r0
 2257 0058 19D0     		beq	.L152
 2258              	.L141:
1057:SYS/task_manager/task_manager.c ****             NxtTsk_TCB.Stack = NxtRunTsk_Ptr->TCB.Stack;
 2259              		.loc 1 1057 13 is_stmt 1 view .LVU607
1057:SYS/task_manager/task_manager.c ****             NxtTsk_TCB.Stack = NxtRunTsk_Ptr->TCB.Stack;
 2260              		.loc 1 1057 52 is_stmt 0 view .LVU608
 2261 005a 374B     		ldr	r3, .L154+12
 2262 005c 1A68     		ldr	r2, [r3]
1057:SYS/task_manager/task_manager.c ****             NxtTsk_TCB.Stack = NxtRunTsk_Ptr->TCB.Stack;
 2263              		.loc 1 1057 38 view .LVU609
 2264 005e 02F15001 		add	r1, r2, #80
1057:SYS/task_manager/task_manager.c ****             NxtTsk_TCB.Stack = NxtRunTsk_Ptr->TCB.Stack;
 2265              		.loc 1 1057 36 view .LVU610
 2266 0062 384B     		ldr	r3, .L154+24
 2267 0064 1960     		str	r1, [r3]
1058:SYS/task_manager/task_manager.c **** 
 2268              		.loc 1 1058 13 is_stmt 1 view .LVU611
1058:SYS/task_manager/task_manager.c **** 
 2269              		.loc 1 1058 50 is_stmt 0 view .LVU612
 2270 0066 526D     		ldr	r2, [r2, #84]
1058:SYS/task_manager/task_manager.c **** 
 2271              		.loc 1 1058 30 view .LVU613
 2272 0068 5A60     		str	r2, [r3, #4]
1060:SYS/task_manager/task_manager.c ****             return;
 2273              		.loc 1 1060 13 is_stmt 1 view .LVU614
 2274 006a FFF7FEFF 		bl	Task_TriggerPendSV
 2275              	.LVL121:
1061:SYS/task_manager/task_manager.c ****         }
 2276              		.loc 1 1061 13 view .LVU615
 2277 006e EAE7     		b	.L135
 2278              	.L151:
1018:SYS/task_manager/task_manager.c ****             {
 2279              		.loc 1 1018 13 view .LVU616
1018:SYS/task_manager/task_manager.c ****             {
 2280              		.loc 1 1018 31 is_stmt 0 view .LVU617
 2281 0070 314B     		ldr	r3, .L154+12
 2282 0072 1B68     		ldr	r3, [r3]
1018:SYS/task_manager/task_manager.c ****             {
 2283              		.loc 1 1018 16 view .LVU618
 2284 0074 43B1     		cbz	r3, .L139
1020:SYS/task_manager/task_manager.c ****                 NxtTsk_TCB.Stack = NxtRunTsk_Ptr->TCB.Stack;
 2285              		.loc 1 1020 17 is_stmt 1 view .LVU619
1020:SYS/task_manager/task_manager.c ****                 NxtTsk_TCB.Stack = NxtRunTsk_Ptr->TCB.Stack;
 2286              		.loc 1 1020 42 is_stmt 0 view .LVU620
ARM GAS  /tmp/ccMrs0Mo.s 			page 67


 2287 0076 03F15001 		add	r1, r3, #80
1020:SYS/task_manager/task_manager.c ****                 NxtTsk_TCB.Stack = NxtRunTsk_Ptr->TCB.Stack;
 2288              		.loc 1 1020 40 view .LVU621
 2289 007a 324A     		ldr	r2, .L154+24
 2290 007c 1160     		str	r1, [r2]
1021:SYS/task_manager/task_manager.c **** 
 2291              		.loc 1 1021 17 is_stmt 1 view .LVU622
1021:SYS/task_manager/task_manager.c **** 
 2292              		.loc 1 1021 54 is_stmt 0 view .LVU623
 2293 007e 5B6D     		ldr	r3, [r3, #84]
1021:SYS/task_manager/task_manager.c **** 
 2294              		.loc 1 1021 34 view .LVU624
 2295 0080 5360     		str	r3, [r2, #4]
1023:SYS/task_manager/task_manager.c ****                 return;
 2296              		.loc 1 1023 17 is_stmt 1 view .LVU625
 2297 0082 FFF7FEFF 		bl	Task_TriggerPendSV
 2298              	.LVL122:
1024:SYS/task_manager/task_manager.c ****             }
 2299              		.loc 1 1024 17 view .LVU626
 2300 0086 DEE7     		b	.L135
 2301              	.L139:
1029:SYS/task_manager/task_manager.c ****             }
 2302              		.loc 1 1029 17 view .LVU627
 2303 0088 FFF7FEFF 		bl	Task_Idle
 2304              	.LVL123:
 2305 008c DBE7     		b	.L135
 2306              	.L152:
1041:SYS/task_manager/task_manager.c ****                     NxtRunTsk_Ptr = PndHstTsk_Ptr;
 2307              		.loc 1 1041 21 view .LVU628
1041:SYS/task_manager/task_manager.c ****                     NxtRunTsk_Ptr = PndHstTsk_Ptr;
 2308              		.loc 1 1041 54 is_stmt 0 view .LVU629
 2309 008e 0123     		movs	r3, #1
 2310 0090 85F84830 		strb	r3, [r5, #72]
1042:SYS/task_manager/task_manager.c **** 
 2311              		.loc 1 1042 21 is_stmt 1 view .LVU630
1042:SYS/task_manager/task_manager.c **** 
 2312              		.loc 1 1042 35 is_stmt 0 view .LVU631
 2313 0094 284B     		ldr	r3, .L154+12
 2314 0096 1D60     		str	r5, [r3]
1044:SYS/task_manager/task_manager.c ****                 }
 2315              		.loc 1 1044 21 is_stmt 1 view .LVU632
 2316 0098 2846     		mov	r0, r5
 2317 009a FFF7FEFF 		bl	Task_ClearPending
 2318              	.LVL124:
 2319 009e DCE7     		b	.L141
 2320              	.L140:
1051:SYS/task_manager/task_manager.c ****                 NxtRunTsk_Ptr = PndHstTsk_Ptr;
 2321              		.loc 1 1051 17 view .LVU633
1051:SYS/task_manager/task_manager.c ****                 NxtRunTsk_Ptr = PndHstTsk_Ptr;
 2322              		.loc 1 1051 50 is_stmt 0 view .LVU634
 2323 00a0 0123     		movs	r3, #1
 2324 00a2 85F84830 		strb	r3, [r5, #72]
1052:SYS/task_manager/task_manager.c **** 
 2325              		.loc 1 1052 17 is_stmt 1 view .LVU635
1052:SYS/task_manager/task_manager.c **** 
 2326              		.loc 1 1052 31 is_stmt 0 view .LVU636
 2327 00a6 244B     		ldr	r3, .L154+12
ARM GAS  /tmp/ccMrs0Mo.s 			page 68


 2328 00a8 1D60     		str	r5, [r3]
1054:SYS/task_manager/task_manager.c ****             }
 2329              		.loc 1 1054 17 is_stmt 1 view .LVU637
 2330 00aa 2846     		mov	r0, r5
 2331 00ac FFF7FEFF 		bl	Task_ClearPending
 2332              	.LVL125:
 2333 00b0 D3E7     		b	.L141
 2334              	.L150:
1072:SYS/task_manager/task_manager.c ****                 Task_ClearReady(CurRunTsk_Ptr);
 2335              		.loc 1 1072 17 view .LVU638
 2336 00b2 2046     		mov	r0, r4
 2337 00b4 FFF7FEFF 		bl	Task_SetPending
 2338              	.LVL126:
1073:SYS/task_manager/task_manager.c **** 
 2339              		.loc 1 1073 17 view .LVU639
 2340 00b8 214B     		ldr	r3, .L154+20
 2341 00ba 1868     		ldr	r0, [r3]
 2342 00bc FFF7FEFF 		bl	Task_ClearReady
 2343              	.LVL127:
1078:SYS/task_manager/task_manager.c ****                 {
 2344              		.loc 1 1078 17 view .LVU640
1078:SYS/task_manager/task_manager.c ****                 {
 2345              		.loc 1 1078 35 is_stmt 0 view .LVU641
 2346 00c0 1E4B     		ldr	r3, .L154+16
 2347 00c2 1C68     		ldr	r4, [r3]
1078:SYS/task_manager/task_manager.c ****                 {
 2348              		.loc 1 1078 20 view .LVU642
 2349 00c4 34B1     		cbz	r4, .L143
1080:SYS/task_manager/task_manager.c ****                     {
 2350              		.loc 1 1080 21 is_stmt 1 view .LVU643
1080:SYS/task_manager/task_manager.c ****                     {
 2351              		.loc 1 1080 25 is_stmt 0 view .LVU644
 2352 00c6 1C4B     		ldr	r3, .L154+12
 2353 00c8 1968     		ldr	r1, [r3]
 2354 00ca 2046     		mov	r0, r4
 2355 00cc FFF7FEFF 		bl	Task_PriorityCompare
 2356              	.LVL128:
1080:SYS/task_manager/task_manager.c ****                     {
 2357              		.loc 1 1080 24 view .LVU645
 2358 00d0 8442     		cmp	r4, r0
 2359 00d2 0DD0     		beq	.L153
 2360              	.L143:
1086:SYS/task_manager/task_manager.c ****                 NxtTsk_TCB.Top_Stk_Ptr = &NxtRunTsk_Ptr->TCB.Top_Stk_Ptr;
 2361              		.loc 1 1086 17 is_stmt 1 view .LVU646
 2362 00d4 184C     		ldr	r4, .L154+12
 2363 00d6 2068     		ldr	r0, [r4]
 2364 00d8 FFF7FEFF 		bl	Task_SetReady
 2365              	.LVL129:
1087:SYS/task_manager/task_manager.c ****                 NxtTsk_TCB.Stack = NxtRunTsk_Ptr->TCB.Stack;
 2366              		.loc 1 1087 17 view .LVU647
1087:SYS/task_manager/task_manager.c ****                 NxtTsk_TCB.Stack = NxtRunTsk_Ptr->TCB.Stack;
 2367              		.loc 1 1087 56 is_stmt 0 view .LVU648
 2368 00dc 2268     		ldr	r2, [r4]
1087:SYS/task_manager/task_manager.c ****                 NxtTsk_TCB.Stack = NxtRunTsk_Ptr->TCB.Stack;
 2369              		.loc 1 1087 42 view .LVU649
 2370 00de 02F15001 		add	r1, r2, #80
1087:SYS/task_manager/task_manager.c ****                 NxtTsk_TCB.Stack = NxtRunTsk_Ptr->TCB.Stack;
ARM GAS  /tmp/ccMrs0Mo.s 			page 69


 2371              		.loc 1 1087 40 view .LVU650
 2372 00e2 184B     		ldr	r3, .L154+24
 2373 00e4 1960     		str	r1, [r3]
1088:SYS/task_manager/task_manager.c **** 
 2374              		.loc 1 1088 17 is_stmt 1 view .LVU651
1088:SYS/task_manager/task_manager.c **** 
 2375              		.loc 1 1088 54 is_stmt 0 view .LVU652
 2376 00e6 526D     		ldr	r2, [r2, #84]
1088:SYS/task_manager/task_manager.c **** 
 2377              		.loc 1 1088 34 view .LVU653
 2378 00e8 5A60     		str	r2, [r3, #4]
1090:SYS/task_manager/task_manager.c ****                 return;
 2379              		.loc 1 1090 17 is_stmt 1 view .LVU654
 2380 00ea FFF7FEFF 		bl	Task_TriggerPendSV
 2381              	.LVL130:
1091:SYS/task_manager/task_manager.c ****             }
 2382              		.loc 1 1091 17 view .LVU655
 2383 00ee AAE7     		b	.L135
 2384              	.L153:
1082:SYS/task_manager/task_manager.c ****                     }
 2385              		.loc 1 1082 25 view .LVU656
1082:SYS/task_manager/task_manager.c ****                     }
 2386              		.loc 1 1082 39 is_stmt 0 view .LVU657
 2387 00f0 114B     		ldr	r3, .L154+12
 2388 00f2 1C60     		str	r4, [r3]
 2389 00f4 EEE7     		b	.L143
 2390              	.L142:
1097:SYS/task_manager/task_manager.c ****             {
 2391              		.loc 1 1097 13 is_stmt 1 view .LVU658
1097:SYS/task_manager/task_manager.c ****             {
 2392              		.loc 1 1097 16 is_stmt 0 view .LVU659
 2393 00f6 0028     		cmp	r0, #0
 2394 00f8 A5D0     		beq	.L135
1097:SYS/task_manager/task_manager.c ****             {
 2395              		.loc 1 1097 45 discriminator 1 view .LVU660
 2396 00fa 3146     		mov	r1, r6
 2397 00fc 2046     		mov	r0, r4
 2398 00fe FFF7FEFF 		bl	Task_PriorityCompare
 2399              	.LVL131:
1097:SYS/task_manager/task_manager.c ****             {
 2400              		.loc 1 1097 41 discriminator 1 view .LVU661
 2401 0102 8542     		cmp	r5, r0
 2402 0104 9FD1     		bne	.L135
1101:SYS/task_manager/task_manager.c ****                 Task_SetReady(PndHstTsk_Ptr);
 2403              		.loc 1 1101 17 is_stmt 1 view .LVU662
 2404 0106 2046     		mov	r0, r4
 2405 0108 FFF7FEFF 		bl	Task_SetPending
 2406              	.LVL132:
1102:SYS/task_manager/task_manager.c **** 
 2407              		.loc 1 1102 17 view .LVU663
 2408 010c 0B4C     		ldr	r4, .L154+16
 2409 010e 2068     		ldr	r0, [r4]
 2410 0110 FFF7FEFF 		bl	Task_SetReady
 2411              	.LVL133:
1104:SYS/task_manager/task_manager.c ****                 NxtTsk_TCB.Top_Stk_Ptr = &NxtRunTsk_Ptr->TCB.Top_Stk_Ptr;
 2412              		.loc 1 1104 17 view .LVU664
1104:SYS/task_manager/task_manager.c ****                 NxtTsk_TCB.Top_Stk_Ptr = &NxtRunTsk_Ptr->TCB.Top_Stk_Ptr;
ARM GAS  /tmp/ccMrs0Mo.s 			page 70


 2413              		.loc 1 1104 31 is_stmt 0 view .LVU665
 2414 0114 2368     		ldr	r3, [r4]
 2415 0116 084A     		ldr	r2, .L154+12
 2416 0118 1360     		str	r3, [r2]
1105:SYS/task_manager/task_manager.c ****                 NxtTsk_TCB.Stack = NxtRunTsk_Ptr->TCB.Stack;
 2417              		.loc 1 1105 17 is_stmt 1 view .LVU666
1105:SYS/task_manager/task_manager.c ****                 NxtTsk_TCB.Stack = NxtRunTsk_Ptr->TCB.Stack;
 2418              		.loc 1 1105 42 is_stmt 0 view .LVU667
 2419 011a 03F15001 		add	r1, r3, #80
1105:SYS/task_manager/task_manager.c ****                 NxtTsk_TCB.Stack = NxtRunTsk_Ptr->TCB.Stack;
 2420              		.loc 1 1105 40 view .LVU668
 2421 011e 094A     		ldr	r2, .L154+24
 2422 0120 1160     		str	r1, [r2]
1106:SYS/task_manager/task_manager.c **** 
 2423              		.loc 1 1106 17 is_stmt 1 view .LVU669
1106:SYS/task_manager/task_manager.c **** 
 2424              		.loc 1 1106 54 is_stmt 0 view .LVU670
 2425 0122 5B6D     		ldr	r3, [r3, #84]
1106:SYS/task_manager/task_manager.c **** 
 2426              		.loc 1 1106 34 view .LVU671
 2427 0124 5360     		str	r3, [r2, #4]
1108:SYS/task_manager/task_manager.c ****                 return;
 2428              		.loc 1 1108 17 is_stmt 1 view .LVU672
 2429 0126 FFF7FEFF 		bl	Task_TriggerPendSV
 2430              	.LVL134:
1109:SYS/task_manager/task_manager.c ****             }
 2431              		.loc 1 1109 17 view .LVU673
 2432 012a 8CE7     		b	.L135
 2433              	.L155:
 2434              		.align	2
 2435              	.L154:
 2436 012c 00000000 		.word	.LANCHOR5
 2437 0130 00000000 		.word	Task_CrtList_TraversePoll_callback
 2438 0134 04000000 		.word	.LANCHOR3+4
 2439 0138 00000000 		.word	.LANCHOR9
 2440 013c 00000000 		.word	.LANCHOR11
 2441 0140 00000000 		.word	.LANCHOR4
 2442 0144 00000000 		.word	NxtTsk_TCB
 2443              		.cfi_endproc
 2444              	.LFE172:
 2446              		.section	.text.Task_Force_TriggerPendSV,"ax",%progbits
 2447              		.align	1
 2448              		.global	Task_Force_TriggerPendSV
 2449              		.syntax unified
 2450              		.thumb
 2451              		.thumb_func
 2452              		.fpu fpv4-sp-d16
 2454              	Task_Force_TriggerPendSV:
 2455              	.LFB153:
 597:SYS/task_manager/task_manager.c ****     /* Barriers are normally not required but do ensure the code is completely \
 2456              		.loc 1 597 1 view -0
 2457              		.cfi_startproc
 2458              		@ args = 0, pretend = 0, frame = 0
 2459              		@ frame_needed = 0, uses_anonymous_args = 0
 2460 0000 08B5     		push	{r3, lr}
 2461              	.LCFI34:
 2462              		.cfi_def_cfa_offset 8
ARM GAS  /tmp/ccMrs0Mo.s 			page 71


 2463              		.cfi_offset 3, -8
 2464              		.cfi_offset 14, -4
 600:SYS/task_manager/task_manager.c ****                        : "memory");
 2465              		.loc 1 600 5 view .LVU675
 2466              		.syntax unified
 2467              	@ 600 "SYS/task_manager/task_manager.c" 1
 2468 0002 BFF34F8F 		dsb
 2469              	@ 0 "" 2
 602:SYS/task_manager/task_manager.c ****     Task_TriggerPendSV();
 2470              		.loc 1 602 5 view .LVU676
 2471              	@ 602 "SYS/task_manager/task_manager.c" 1
 2472 0006 BFF36F8F 		isb
 2473              	@ 0 "" 2
 603:SYS/task_manager/task_manager.c **** }
 2474              		.loc 1 603 5 view .LVU677
 2475              		.thumb
 2476              		.syntax unified
 2477 000a FFF7FEFF 		bl	Task_TriggerPendSV
 2478              	.LVL135:
 604:SYS/task_manager/task_manager.c **** 
 2479              		.loc 1 604 1 is_stmt 0 view .LVU678
 2480 000e 08BD     		pop	{r3, pc}
 2481              		.cfi_endproc
 2482              	.LFE153:
 2484              		.section	.text.Task_Get_TaskNum,"ax",%progbits
 2485              		.align	1
 2486              		.global	Task_Get_TaskNum
 2487              		.syntax unified
 2488              		.thumb
 2489              		.thumb_func
 2490              		.fpu fpv4-sp-d16
 2492              	Task_Get_TaskNum:
 2493              	.LFB154:
 607:SYS/task_manager/task_manager.c ****     return TskCrt_RegList.num;
 2494              		.loc 1 607 1 is_stmt 1 view -0
 2495              		.cfi_startproc
 2496              		@ args = 0, pretend = 0, frame = 0
 2497              		@ frame_needed = 0, uses_anonymous_args = 0
 2498              		@ link register save eliminated.
 608:SYS/task_manager/task_manager.c **** }
 2499              		.loc 1 608 5 view .LVU680
 609:SYS/task_manager/task_manager.c **** 
 2500              		.loc 1 609 1 is_stmt 0 view .LVU681
 2501 0000 014B     		ldr	r3, .L159
 2502 0002 1878     		ldrb	r0, [r3]	@ zero_extendqisi2
 2503 0004 7047     		bx	lr
 2504              	.L160:
 2505 0006 00BF     		.align	2
 2506              	.L159:
 2507 0008 00000000 		.word	.LANCHOR3
 2508              		.cfi_endproc
 2509              	.LFE154:
 2511              		.global	__aeabi_ui2d
 2512              		.global	__aeabi_ddiv
 2513              		.global	__aeabi_d2uiz
 2514              		.section	.text.Task_Create,"ax",%progbits
 2515              		.align	1
ARM GAS  /tmp/ccMrs0Mo.s 			page 72


 2516              		.global	Task_Create
 2517              		.syntax unified
 2518              		.thumb
 2519              		.thumb_func
 2520              		.fpu fpv4-sp-d16
 2522              	Task_Create:
 2523              	.LVL136:
 2524              	.LFB156:
 656:SYS/task_manager/task_manager.c ****     Task_Handler handle;
 2525              		.loc 1 656 1 is_stmt 1 view -0
 2526              		.cfi_startproc
 2527              		@ args = 8, pretend = 0, frame = 8
 2528              		@ frame_needed = 0, uses_anonymous_args = 0
 656:SYS/task_manager/task_manager.c ****     Task_Handler handle;
 2529              		.loc 1 656 1 is_stmt 0 view .LVU683
 2530 0000 2DE9F04F 		push	{r4, r5, r6, r7, r8, r9, r10, fp, lr}
 2531              	.LCFI35:
 2532              		.cfi_def_cfa_offset 36
 2533              		.cfi_offset 4, -36
 2534              		.cfi_offset 5, -32
 2535              		.cfi_offset 6, -28
 2536              		.cfi_offset 7, -24
 2537              		.cfi_offset 8, -20
 2538              		.cfi_offset 9, -16
 2539              		.cfi_offset 10, -12
 2540              		.cfi_offset 11, -8
 2541              		.cfi_offset 14, -4
 2542 0004 83B0     		sub	sp, sp, #12
 2543              	.LCFI36:
 2544              		.cfi_def_cfa_offset 48
 2545 0006 0190     		str	r0, [sp, #4]
 2546 0008 8B46     		mov	fp, r1
 2547 000a 1746     		mov	r7, r2
 2548 000c 1E46     		mov	r6, r3
 657:SYS/task_manager/task_manager.c ****     uint16_t task_name_len = strlen(name);
 2549              		.loc 1 657 5 is_stmt 1 view .LVU684
 658:SYS/task_manager/task_manager.c ****     uint32_t *Tsk_Ptr_tmp = NULL;
 2550              		.loc 1 658 5 view .LVU685
 659:SYS/task_manager/task_manager.c ****     static bool taskOs_InitState = false;
 2551              		.loc 1 659 5 view .LVU686
 2552              	.LVL137:
 660:SYS/task_manager/task_manager.c **** 
 2553              		.loc 1 660 5 view .LVU687
 662:SYS/task_manager/task_manager.c ****     {
 2554              		.loc 1 662 5 view .LVU688
 662:SYS/task_manager/task_manager.c ****     {
 2555              		.loc 1 662 9 is_stmt 0 view .LVU689
 2556 000e 824B     		ldr	r3, .L172+8
 2557              	.LVL138:
 662:SYS/task_manager/task_manager.c ****     {
 2558              		.loc 1 662 9 view .LVU690
 2559 0010 1B78     		ldrb	r3, [r3]	@ zero_extendqisi2
 662:SYS/task_manager/task_manager.c ****     {
 2560              		.loc 1 662 8 view .LVU691
 2561 0012 5BB1     		cbz	r3, .L170
 2562              	.LVL139:
 2563              	.L162:
ARM GAS  /tmp/ccMrs0Mo.s 			page 73


 669:SYS/task_manager/task_manager.c ****     {
 2564              		.loc 1 669 5 is_stmt 1 view .LVU692
 669:SYS/task_manager/task_manager.c ****     {
 2565              		.loc 1 669 24 is_stmt 0 view .LVU693
 2566 0014 06EBC703 		add	r3, r6, r7, lsl #3
 2567 0018 804A     		ldr	r2, .L172+12
 2568 001a 52F82330 		ldr	r3, [r2, r3, lsl #2]
 669:SYS/task_manager/task_manager.c ****     {
 2569              		.loc 1 669 8 view .LVU694
 2570 001e 5BB1     		cbz	r3, .L171
 671:SYS/task_manager/task_manager.c ****     }
 2571              		.loc 1 671 16 view .LVU695
 2572 0020 4FF00108 		mov	r8, #1
 2573              	.LVL140:
 2574              	.L161:
 764:SYS/task_manager/task_manager.c **** 
 2575              		.loc 1 764 1 view .LVU696
 2576 0024 4046     		mov	r0, r8
 2577 0026 03B0     		add	sp, sp, #12
 2578              	.LCFI37:
 2579              		.cfi_remember_state
 2580              		.cfi_def_cfa_offset 36
 2581              		@ sp needed
 2582 0028 BDE8F08F 		pop	{r4, r5, r6, r7, r8, r9, r10, fp, pc}
 2583              	.LVL141:
 2584              	.L170:
 2585              	.LCFI38:
 2586              		.cfi_restore_state
 664:SYS/task_manager/task_manager.c ****         taskOs_InitState = true;
 2587              		.loc 1 664 9 is_stmt 1 view .LVU697
 2588 002c FFF7FEFF 		bl	TaskSys_Init
 2589              	.LVL142:
 665:SYS/task_manager/task_manager.c ****     }
 2590              		.loc 1 665 9 view .LVU698
 665:SYS/task_manager/task_manager.c ****     }
 2591              		.loc 1 665 26 is_stmt 0 view .LVU699
 2592 0030 794B     		ldr	r3, .L172+8
 2593 0032 0122     		movs	r2, #1
 2594 0034 1A70     		strb	r2, [r3]
 2595 0036 EDE7     		b	.L162
 2596              	.L171:
 675:SYS/task_manager/task_manager.c **** 
 2597              		.loc 1 675 5 is_stmt 1 view .LVU700
 675:SYS/task_manager/task_manager.c **** 
 2598              		.loc 1 675 41 is_stmt 0 view .LVU701
 2599 0038 9020     		movs	r0, #144
 2600 003a FFF7FEFF 		bl	malloc
 2601              	.LVL143:
 2602 003e 8146     		mov	r9, r0
 675:SYS/task_manager/task_manager.c **** 
 2603              		.loc 1 675 31 view .LVU702
 2604 0040 764C     		ldr	r4, .L172+12
 2605 0042 4FEAC70A 		lsl	r10, r7, #3
 2606 0046 0AEB0605 		add	r5, r10, r6
 2607 004a 44F82500 		str	r0, [r4, r5, lsl #2]
 678:SYS/task_manager/task_manager.c **** 
 2608              		.loc 1 678 5 is_stmt 1 view .LVU703
ARM GAS  /tmp/ccMrs0Mo.s 			page 74


 678:SYS/task_manager/task_manager.c **** 
 2609              		.loc 1 678 12 is_stmt 0 view .LVU704
 2610 004e 8046     		mov	r8, r0
 2611              	.LVL144:
 680:SYS/task_manager/task_manager.c **** 
 2612              		.loc 1 680 5 is_stmt 1 view .LVU705
 680:SYS/task_manager/task_manager.c **** 
 2613              		.loc 1 680 42 is_stmt 0 view .LVU706
 2614 0050 019B     		ldr	r3, [sp, #4]
 2615 0052 4360     		str	r3, [r0, #4]
 682:SYS/task_manager/task_manager.c ****     Task_Ptr[group][priority]->exec_interval_us = RUNTIEM_MAX_TICK_FRQ / frq;
 2616              		.loc 1 682 5 is_stmt 1 view .LVU707
 682:SYS/task_manager/task_manager.c ****     Task_Ptr[group][priority]->exec_interval_us = RUNTIEM_MAX_TICK_FRQ / frq;
 2617              		.loc 1 682 20 is_stmt 0 view .LVU708
 2618 0054 54F82530 		ldr	r3, [r4, r5, lsl #2]
 682:SYS/task_manager/task_manager.c ****     Task_Ptr[group][priority]->exec_interval_us = RUNTIEM_MAX_TICK_FRQ / frq;
 2619              		.loc 1 682 41 view .LVU709
 2620 0058 C3F808B0 		str	fp, [r3, #8]
 683:SYS/task_manager/task_manager.c ****     Task_Ptr[group][priority]->Exec_Func = func;
 2621              		.loc 1 683 5 is_stmt 1 view .LVU710
 683:SYS/task_manager/task_manager.c ****     Task_Ptr[group][priority]->Exec_Func = func;
 2622              		.loc 1 683 72 is_stmt 0 view .LVU711
 2623 005c 5846     		mov	r0, fp
 2624              	.LVL145:
 683:SYS/task_manager/task_manager.c ****     Task_Ptr[group][priority]->Exec_Func = func;
 2625              		.loc 1 683 72 view .LVU712
 2626 005e FFF7FEFF 		bl	__aeabi_ui2d
 2627              	.LVL146:
 2628 0062 0246     		mov	r2, r0
 2629 0064 0B46     		mov	r3, r1
 2630 0066 6AA1     		adr	r1, .L172
 2631 0068 D1E90001 		ldrd	r0, [r1]
 2632 006c FFF7FEFF 		bl	__aeabi_ddiv
 2633              	.LVL147:
 683:SYS/task_manager/task_manager.c ****     Task_Ptr[group][priority]->Exec_Func = func;
 2634              		.loc 1 683 20 view .LVU713
 2635 0070 54F825B0 		ldr	fp, [r4, r5, lsl #2]
 2636              	.LVL148:
 683:SYS/task_manager/task_manager.c ****     Task_Ptr[group][priority]->Exec_Func = func;
 2637              		.loc 1 683 49 view .LVU714
 2638 0074 FFF7FEFF 		bl	__aeabi_d2uiz
 2639              	.LVL149:
 2640 0078 ABF80C00 		strh	r0, [fp, #12]	@ movhi
 684:SYS/task_manager/task_manager.c **** 
 2641              		.loc 1 684 5 is_stmt 1 view .LVU715
 684:SYS/task_manager/task_manager.c **** 
 2642              		.loc 1 684 20 is_stmt 0 view .LVU716
 2643 007c 54F82530 		ldr	r3, [r4, r5, lsl #2]
 684:SYS/task_manager/task_manager.c **** 
 2644              		.loc 1 684 42 view .LVU717
 2645 0080 0C9A     		ldr	r2, [sp, #48]
 2646 0082 1A61     		str	r2, [r3, #16]
 686:SYS/task_manager/task_manager.c **** 
 2647              		.loc 1 686 5 is_stmt 1 view .LVU718
 686:SYS/task_manager/task_manager.c **** 
 2648              		.loc 1 686 20 is_stmt 0 view .LVU719
 2649 0084 54F82530 		ldr	r3, [r4, r5, lsl #2]
ARM GAS  /tmp/ccMrs0Mo.s 			page 75


 686:SYS/task_manager/task_manager.c **** 
 2650              		.loc 1 686 65 view .LVU720
 2651 0088 4AEA060A 		orr	r10, r10, r6
 686:SYS/task_manager/task_manager.c **** 
 2652              		.loc 1 686 50 view .LVU721
 2653 008c 83F800A0 		strb	r10, [r3]
 690:SYS/task_manager/task_manager.c ****     Task_Ptr[group][priority]->delay_info.tsk_hdl = handle;
 2654              		.loc 1 690 5 is_stmt 1 view .LVU722
 690:SYS/task_manager/task_manager.c ****     Task_Ptr[group][priority]->delay_info.tsk_hdl = handle;
 2655              		.loc 1 690 20 is_stmt 0 view .LVU723
 2656 0090 54F82520 		ldr	r2, [r4, r5, lsl #2]
 690:SYS/task_manager/task_manager.c ****     Task_Ptr[group][priority]->delay_info.tsk_hdl = handle;
 2657              		.loc 1 690 52 view .LVU724
 2658 0094 0023     		movs	r3, #0
 2659 0096 82F86430 		strb	r3, [r2, #100]
 691:SYS/task_manager/task_manager.c ****     Task_Ptr[group][priority]->delay_info.time_unit = 0;
 2660              		.loc 1 691 5 is_stmt 1 view .LVU725
 691:SYS/task_manager/task_manager.c ****     Task_Ptr[group][priority]->delay_info.time_unit = 0;
 2661              		.loc 1 691 20 is_stmt 0 view .LVU726
 2662 009a 54F82520 		ldr	r2, [r4, r5, lsl #2]
 691:SYS/task_manager/task_manager.c ****     Task_Ptr[group][priority]->delay_info.time_unit = 0;
 2663              		.loc 1 691 51 view .LVU727
 2664 009e C2F86890 		str	r9, [r2, #104]
 692:SYS/task_manager/task_manager.c **** 
 2665              		.loc 1 692 5 is_stmt 1 view .LVU728
 692:SYS/task_manager/task_manager.c **** 
 2666              		.loc 1 692 20 is_stmt 0 view .LVU729
 2667 00a2 54F82520 		ldr	r2, [r4, r5, lsl #2]
 692:SYS/task_manager/task_manager.c **** 
 2668              		.loc 1 692 53 view .LVU730
 2669 00a6 D366     		str	r3, [r2, #108]
 695:SYS/task_manager/task_manager.c ****     Task_Ptr[group][priority]->TCB.Stack = (uint32_t *)malloc(StackDepth * sizeof(uint32_t));
 2670              		.loc 1 695 5 is_stmt 1 view .LVU731
 695:SYS/task_manager/task_manager.c ****     Task_Ptr[group][priority]->TCB.Stack = (uint32_t *)malloc(StackDepth * sizeof(uint32_t));
 2671              		.loc 1 695 20 is_stmt 0 view .LVU732
 2672 00a8 54F82530 		ldr	r3, [r4, r5, lsl #2]
 695:SYS/task_manager/task_manager.c ****     Task_Ptr[group][priority]->TCB.Stack = (uint32_t *)malloc(StackDepth * sizeof(uint32_t));
 2673              		.loc 1 695 44 view .LVU733
 2674 00ac 0D9A     		ldr	r2, [sp, #52]
 2675 00ae DA64     		str	r2, [r3, #76]
 696:SYS/task_manager/task_manager.c **** 
 2676              		.loc 1 696 5 is_stmt 1 view .LVU734
 696:SYS/task_manager/task_manager.c **** 
 2677              		.loc 1 696 20 is_stmt 0 view .LVU735
 2678 00b0 54F82590 		ldr	r9, [r4, r5, lsl #2]
 696:SYS/task_manager/task_manager.c **** 
 2679              		.loc 1 696 56 view .LVU736
 2680 00b4 9000     		lsls	r0, r2, #2
 2681 00b6 FFF7FEFF 		bl	malloc
 2682              	.LVL150:
 696:SYS/task_manager/task_manager.c **** 
 2683              		.loc 1 696 42 view .LVU737
 2684 00ba C9F85400 		str	r0, [r9, #84]
 698:SYS/task_manager/task_manager.c ****     {
 2685              		.loc 1 698 5 is_stmt 1 view .LVU738
 698:SYS/task_manager/task_manager.c ****     {
 2686              		.loc 1 698 24 is_stmt 0 view .LVU739
ARM GAS  /tmp/ccMrs0Mo.s 			page 76


 2687 00be 54F82500 		ldr	r0, [r4, r5, lsl #2]
 698:SYS/task_manager/task_manager.c ****     {
 2688              		.loc 1 698 39 view .LVU740
 2689 00c2 436D     		ldr	r3, [r0, #84]
 698:SYS/task_manager/task_manager.c ****     {
 2690              		.loc 1 698 8 view .LVU741
 2691 00c4 002B     		cmp	r3, #0
 2692 00c6 00F09A80 		beq	.L167
 700:SYS/task_manager/task_manager.c ****     }
 2693              		.loc 1 700 9 is_stmt 1 view .LVU742
 2694 00ca FFF7FEFF 		bl	Task_SetStkPtr_Val
 2695              	.LVL151:
 708:SYS/task_manager/task_manager.c ****     Task_Ptr[group][priority]->statistics_reg.Reg.TskFun_Statistics_REG = stop_statistics;
 2696              		.loc 1 708 5 view .LVU743
 708:SYS/task_manager/task_manager.c ****     Task_Ptr[group][priority]->statistics_reg.Reg.TskFun_Statistics_REG = stop_statistics;
 2697              		.loc 1 708 20 is_stmt 0 view .LVU744
 2698 00ce 54F82530 		ldr	r3, [r4, r5, lsl #2]
 708:SYS/task_manager/task_manager.c ****     Task_Ptr[group][priority]->statistics_reg.Reg.TskFun_Statistics_REG = stop_statistics;
 2699              		.loc 1 708 73 view .LVU745
 2700 00d2 93F85820 		ldrb	r2, [r3, #88]	@ zero_extendqisi2
 2701 00d6 6FF30302 		bfc	r2, #0, #4
 2702 00da 83F85820 		strb	r2, [r3, #88]
 709:SYS/task_manager/task_manager.c **** 
 2703              		.loc 1 709 5 is_stmt 1 view .LVU746
 709:SYS/task_manager/task_manager.c **** 
 2704              		.loc 1 709 20 is_stmt 0 view .LVU747
 2705 00de 54F82530 		ldr	r3, [r4, r5, lsl #2]
 709:SYS/task_manager/task_manager.c **** 
 2706              		.loc 1 709 73 view .LVU748
 2707 00e2 93F85820 		ldrb	r2, [r3, #88]	@ zero_extendqisi2
 2708 00e6 6FF30712 		bfc	r2, #4, #4
 2709 00ea 83F85820 		strb	r2, [r3, #88]
 712:SYS/task_manager/task_manager.c ****     Task_Ptr[group][priority]->CallerUsing_US = 0;
 2710              		.loc 1 712 5 is_stmt 1 view .LVU749
 712:SYS/task_manager/task_manager.c ****     Task_Ptr[group][priority]->CallerUsing_US = 0;
 2711              		.loc 1 712 20 is_stmt 0 view .LVU750
 2712 00ee 54F82530 		ldr	r3, [r4, r5, lsl #2]
 712:SYS/task_manager/task_manager.c ****     Task_Ptr[group][priority]->CallerUsing_US = 0;
 2713              		.loc 1 712 47 view .LVU751
 2714 00f2 4FF00009 		mov	r9, #0
 2715 00f6 C3F85C90 		str	r9, [r3, #92]
 713:SYS/task_manager/task_manager.c **** 
 2716              		.loc 1 713 5 is_stmt 1 view .LVU752
 713:SYS/task_manager/task_manager.c **** 
 2717              		.loc 1 713 20 is_stmt 0 view .LVU753
 2718 00fa 54F82530 		ldr	r3, [r4, r5, lsl #2]
 713:SYS/task_manager/task_manager.c **** 
 2719              		.loc 1 713 47 view .LVU754
 2720 00fe C3F86090 		str	r9, [r3, #96]
 716:SYS/task_manager/task_manager.c ****     Task_Ptr[group][priority]->Exec_status.totlal_running_time = 0;
 2721              		.loc 1 716 5 is_stmt 1 view .LVU755
 716:SYS/task_manager/task_manager.c ****     Task_Ptr[group][priority]->Exec_status.totlal_running_time = 0;
 2722              		.loc 1 716 20 is_stmt 0 view .LVU756
 2723 0102 54F82530 		ldr	r3, [r4, r5, lsl #2]
 716:SYS/task_manager/task_manager.c ****     Task_Ptr[group][priority]->Exec_status.totlal_running_time = 0;
 2724              		.loc 1 716 52 view .LVU757
 2725 0106 0022     		movs	r2, #0
ARM GAS  /tmp/ccMrs0Mo.s 			page 77


 2726 0108 5A64     		str	r2, [r3, #68]	@ float
 717:SYS/task_manager/task_manager.c **** 
 2727              		.loc 1 717 5 is_stmt 1 view .LVU758
 717:SYS/task_manager/task_manager.c **** 
 2728              		.loc 1 717 20 is_stmt 0 view .LVU759
 2729 010a 54F82530 		ldr	r3, [r4, r5, lsl #2]
 717:SYS/task_manager/task_manager.c **** 
 2730              		.loc 1 717 64 view .LVU760
 2731 010e C3F84090 		str	r9, [r3, #64]
 720:SYS/task_manager/task_manager.c ****     //set current task under this group flag to ready
 2732              		.loc 1 720 5 is_stmt 1 view .LVU761
 720:SYS/task_manager/task_manager.c ****     //set current task under this group flag to ready
 2733              		.loc 1 720 27 is_stmt 0 view .LVU762
 2734 0112 434B     		ldr	r3, .L172+16
 2735 0114 1978     		ldrb	r1, [r3]	@ zero_extendqisi2
 720:SYS/task_manager/task_manager.c ****     //set current task under this group flag to ready
 2736              		.loc 1 720 35 view .LVU763
 2737 0116 54F82500 		ldr	r0, [r4, r5, lsl #2]
 2738 011a 90F800C0 		ldrb	ip, [r0]	@ zero_extendqisi2
 720:SYS/task_manager/task_manager.c ****     //set current task under this group flag to ready
 2739              		.loc 1 720 32 view .LVU764
 2740 011e 0122     		movs	r2, #1
 2741 0120 02FA0CFC 		lsl	ip, r2, ip
 720:SYS/task_manager/task_manager.c ****     //set current task under this group flag to ready
 2742              		.loc 1 720 27 view .LVU765
 2743 0124 41EAEC01 		orr	r1, r1, ip, asr #3
 2744 0128 C9B2     		uxtb	r1, r1
 2745 012a 1970     		strb	r1, [r3]
 722:SYS/task_manager/task_manager.c **** 
 2746              		.loc 1 722 5 is_stmt 1 view .LVU766
 722:SYS/task_manager/task_manager.c **** 
 2747              		.loc 1 722 28 is_stmt 0 view .LVU767
 2748 012c 90F800C0 		ldrb	ip, [r0]	@ zero_extendqisi2
 722:SYS/task_manager/task_manager.c **** 
 2749              		.loc 1 722 102 view .LVU768
 2750 0130 03EBDC03 		add	r3, r3, ip, lsr #3
 2751 0134 5978     		ldrb	r1, [r3, #1]	@ zero_extendqisi2
 722:SYS/task_manager/task_manager.c **** 
 2752              		.loc 1 722 107 view .LVU769
 2753 0136 02FA0CF2 		lsl	r2, r2, ip
 722:SYS/task_manager/task_manager.c **** 
 2754              		.loc 1 722 110 view .LVU770
 2755 013a 02F00702 		and	r2, r2, #7
 722:SYS/task_manager/task_manager.c **** 
 2756              		.loc 1 722 102 view .LVU771
 2757 013e 0A43     		orrs	r2, r2, r1
 2758 0140 5A70     		strb	r2, [r3, #1]
 724:SYS/task_manager/task_manager.c ****     Task_Ptr[group][priority]->Exec_status.detect_exec_time_arv = 0;
 2759              		.loc 1 724 5 is_stmt 1 view .LVU772
 724:SYS/task_manager/task_manager.c ****     Task_Ptr[group][priority]->Exec_status.detect_exec_time_arv = 0;
 2760              		.loc 1 724 60 is_stmt 0 view .LVU773
 2761 0142 C0F82C90 		str	r9, [r0, #44]
 725:SYS/task_manager/task_manager.c ****     Task_Ptr[group][priority]->Exec_status.detect_exec_time_max = 0;
 2762              		.loc 1 725 5 is_stmt 1 view .LVU774
 725:SYS/task_manager/task_manager.c ****     Task_Ptr[group][priority]->Exec_status.detect_exec_time_max = 0;
 2763              		.loc 1 725 20 is_stmt 0 view .LVU775
 2764 0146 54F82530 		ldr	r3, [r4, r5, lsl #2]
ARM GAS  /tmp/ccMrs0Mo.s 			page 78


 725:SYS/task_manager/task_manager.c ****     Task_Ptr[group][priority]->Exec_status.detect_exec_time_max = 0;
 2765              		.loc 1 725 65 view .LVU776
 2766 014a C3F83090 		str	r9, [r3, #48]
 726:SYS/task_manager/task_manager.c **** 
 2767              		.loc 1 726 5 is_stmt 1 view .LVU777
 726:SYS/task_manager/task_manager.c **** 
 2768              		.loc 1 726 20 is_stmt 0 view .LVU778
 2769 014e 54F82530 		ldr	r3, [r4, r5, lsl #2]
 726:SYS/task_manager/task_manager.c **** 
 2770              		.loc 1 726 65 view .LVU779
 2771 0152 C3F83490 		str	r9, [r3, #52]
 728:SYS/task_manager/task_manager.c ****     RuntimeObj_Reset(&(Task_Ptr[group][priority]->Exec_status.Init_Time));
 2772              		.loc 1 728 5 is_stmt 1 view .LVU780
 728:SYS/task_manager/task_manager.c ****     RuntimeObj_Reset(&(Task_Ptr[group][priority]->Exec_status.Init_Time));
 2773              		.loc 1 728 39 is_stmt 0 view .LVU781
 2774 0156 54F82500 		ldr	r0, [r4, r5, lsl #2]
 728:SYS/task_manager/task_manager.c ****     RuntimeObj_Reset(&(Task_Ptr[group][priority]->Exec_status.Init_Time));
 2775              		.loc 1 728 5 view .LVU782
 2776 015a 2430     		adds	r0, r0, #36
 2777 015c FFF7FEFF 		bl	RuntimeObj_Reset
 2778              	.LVL152:
 729:SYS/task_manager/task_manager.c ****     RuntimeObj_Reset(&(Task_Ptr[group][priority]->Exec_status.Start_Time));
 2779              		.loc 1 729 5 is_stmt 1 view .LVU783
 729:SYS/task_manager/task_manager.c ****     RuntimeObj_Reset(&(Task_Ptr[group][priority]->Exec_status.Start_Time));
 2780              		.loc 1 729 39 is_stmt 0 view .LVU784
 2781 0160 54F82500 		ldr	r0, [r4, r5, lsl #2]
 729:SYS/task_manager/task_manager.c ****     RuntimeObj_Reset(&(Task_Ptr[group][priority]->Exec_status.Start_Time));
 2782              		.loc 1 729 5 view .LVU785
 2783 0164 1430     		adds	r0, r0, #20
 2784 0166 FFF7FEFF 		bl	RuntimeObj_Reset
 2785              	.LVL153:
 730:SYS/task_manager/task_manager.c **** 
 2786              		.loc 1 730 5 is_stmt 1 view .LVU786
 730:SYS/task_manager/task_manager.c **** 
 2787              		.loc 1 730 39 is_stmt 0 view .LVU787
 2788 016a 54F82500 		ldr	r0, [r4, r5, lsl #2]
 730:SYS/task_manager/task_manager.c **** 
 2789              		.loc 1 730 5 view .LVU788
 2790 016e 1C30     		adds	r0, r0, #28
 2791 0170 FFF7FEFF 		bl	RuntimeObj_Reset
 2792              	.LVL154:
 732:SYS/task_manager/task_manager.c **** 
 2793              		.loc 1 732 5 is_stmt 1 view .LVU789
 732:SYS/task_manager/task_manager.c **** 
 2794              		.loc 1 732 20 is_stmt 0 view .LVU790
 2795 0174 54F825A0 		ldr	r10, [r4, r5, lsl #2]
 732:SYS/task_manager/task_manager.c **** 
 2796              		.loc 1 732 56 view .LVU791
 2797 0178 FFF7FEFF 		bl	Get_CurrentRunningUs
 2798              	.LVL155:
 732:SYS/task_manager/task_manager.c **** 
 2799              		.loc 1 732 54 view .LVU792
 2800 017c CAF81400 		str	r0, [r10, #20]
 2801 0180 CAF81810 		str	r1, [r10, #24]
 734:SYS/task_manager/task_manager.c ****     Task_Ptr[group][priority]->Exec_status.error_code = NOERROR;
 2802              		.loc 1 734 5 is_stmt 1 view .LVU793
 734:SYS/task_manager/task_manager.c ****     Task_Ptr[group][priority]->Exec_status.error_code = NOERROR;
ARM GAS  /tmp/ccMrs0Mo.s 			page 79


 2803              		.loc 1 734 20 is_stmt 0 view .LVU794
 2804 0184 54F82530 		ldr	r3, [r4, r5, lsl #2]
 734:SYS/task_manager/task_manager.c ****     Task_Ptr[group][priority]->Exec_status.error_code = NOERROR;
 2805              		.loc 1 734 55 view .LVU795
 2806 0188 C3F83890 		str	r9, [r3, #56]
 735:SYS/task_manager/task_manager.c **** 
 2807              		.loc 1 735 5 is_stmt 1 view .LVU796
 735:SYS/task_manager/task_manager.c **** 
 2808              		.loc 1 735 20 is_stmt 0 view .LVU797
 2809 018c 54F82530 		ldr	r3, [r4, r5, lsl #2]
 735:SYS/task_manager/task_manager.c **** 
 2810              		.loc 1 735 55 view .LVU798
 2811 0190 83F83C90 		strb	r9, [r3, #60]
 737:SYS/task_manager/task_manager.c **** 
 2812              		.loc 1 737 5 is_stmt 1 view .LVU799
 2813 0194 54F82500 		ldr	r0, [r4, r5, lsl #2]
 2814 0198 FFF7FEFF 		bl	Task_SetReady
 2815              	.LVL156:
 743:SYS/task_manager/task_manager.c ****     if (Task_Ptr[group][priority]->item_ptr == NULL)
 2816              		.loc 1 743 5 view .LVU800
 743:SYS/task_manager/task_manager.c ****     if (Task_Ptr[group][priority]->item_ptr == NULL)
 2817              		.loc 1 743 20 is_stmt 0 view .LVU801
 2818 019c 54F82590 		ldr	r9, [r4, r5, lsl #2]
 743:SYS/task_manager/task_manager.c ****     if (Task_Ptr[group][priority]->item_ptr == NULL)
 2819              		.loc 1 743 55 view .LVU802
 2820 01a0 1420     		movs	r0, #20
 2821 01a2 FFF7FEFF 		bl	malloc
 2822              	.LVL157:
 743:SYS/task_manager/task_manager.c ****     if (Task_Ptr[group][priority]->item_ptr == NULL)
 2823              		.loc 1 743 41 view .LVU803
 2824 01a6 C9F87800 		str	r0, [r9, #120]
 744:SYS/task_manager/task_manager.c ****     {
 2825              		.loc 1 744 5 is_stmt 1 view .LVU804
 744:SYS/task_manager/task_manager.c ****     {
 2826              		.loc 1 744 24 is_stmt 0 view .LVU805
 2827 01aa 54F82510 		ldr	r1, [r4, r5, lsl #2]
 744:SYS/task_manager/task_manager.c ****     {
 2828              		.loc 1 744 34 view .LVU806
 2829 01ae 886F     		ldr	r0, [r1, #120]
 744:SYS/task_manager/task_manager.c ****     {
 2830              		.loc 1 744 8 view .LVU807
 2831 01b0 40B3     		cbz	r0, .L168
 749:SYS/task_manager/task_manager.c ****     if (TskCrt_RegList.num == 0)
 2832              		.loc 1 749 5 is_stmt 1 view .LVU808
 2833 01b2 FFF7FEFF 		bl	List_ItemInit
 2834              	.LVL158:
 750:SYS/task_manager/task_manager.c ****     {
 2835              		.loc 1 750 5 view .LVU809
 750:SYS/task_manager/task_manager.c ****     {
 2836              		.loc 1 750 23 is_stmt 0 view .LVU810
 2837 01b6 1B4B     		ldr	r3, .L172+20
 2838 01b8 1B78     		ldrb	r3, [r3]	@ zero_extendqisi2
 750:SYS/task_manager/task_manager.c ****     {
 2839              		.loc 1 750 8 view .LVU811
 2840 01ba B3B9     		cbnz	r3, .L164
 752:SYS/task_manager/task_manager.c ****     }
 2841              		.loc 1 752 9 is_stmt 1 view .LVU812
ARM GAS  /tmp/ccMrs0Mo.s 			page 80


 752:SYS/task_manager/task_manager.c ****     }
 2842              		.loc 1 752 56 is_stmt 0 view .LVU813
 2843 01bc 54F82510 		ldr	r1, [r4, r5, lsl #2]
 752:SYS/task_manager/task_manager.c ****     }
 2844              		.loc 1 752 9 view .LVU814
 2845 01c0 194B     		ldr	r3, .L172+24
 2846 01c2 0122     		movs	r2, #1
 2847 01c4 896F     		ldr	r1, [r1, #120]
 2848 01c6 1948     		ldr	r0, .L172+28
 2849 01c8 FFF7FEFF 		bl	List_Init
 2850              	.LVL159:
 2851              	.L165:
 759:SYS/task_manager/task_manager.c **** 
 2852              		.loc 1 759 5 is_stmt 1 view .LVU815
 759:SYS/task_manager/task_manager.c **** 
 2853              		.loc 1 759 35 is_stmt 0 view .LVU816
 2854 01cc 06EBC706 		add	r6, r6, r7, lsl #3
 2855 01d0 124B     		ldr	r3, .L172+12
 2856 01d2 53F82600 		ldr	r0, [r3, r6, lsl #2]
 759:SYS/task_manager/task_manager.c **** 
 2857              		.loc 1 759 5 view .LVU817
 2858 01d6 00F16401 		add	r1, r0, #100
 2859 01da 7C30     		adds	r0, r0, #124
 2860 01dc FFF7FEFF 		bl	List_ItemInit
 2861              	.LVL160:
 761:SYS/task_manager/task_manager.c **** 
 2862              		.loc 1 761 5 is_stmt 1 view .LVU818
 761:SYS/task_manager/task_manager.c **** 
 2863              		.loc 1 761 19 is_stmt 0 view .LVU819
 2864 01e0 104A     		ldr	r2, .L172+20
 2865 01e2 1378     		ldrb	r3, [r2]	@ zero_extendqisi2
 761:SYS/task_manager/task_manager.c **** 
 2866              		.loc 1 761 23 view .LVU820
 2867 01e4 0133     		adds	r3, r3, #1
 2868 01e6 1370     		strb	r3, [r2]
 763:SYS/task_manager/task_manager.c **** }
 2869              		.loc 1 763 5 is_stmt 1 view .LVU821
 763:SYS/task_manager/task_manager.c **** }
 2870              		.loc 1 763 12 is_stmt 0 view .LVU822
 2871 01e8 1CE7     		b	.L161
 2872              	.L164:
 756:SYS/task_manager/task_manager.c ****     }
 2873              		.loc 1 756 9 is_stmt 1 view .LVU823
 756:SYS/task_manager/task_manager.c ****     }
 2874              		.loc 1 756 63 is_stmt 0 view .LVU824
 2875 01ea 06EBC703 		add	r3, r6, r7, lsl #3
 2876 01ee 0B4A     		ldr	r2, .L172+12
 2877 01f0 52F82330 		ldr	r3, [r2, r3, lsl #2]
 756:SYS/task_manager/task_manager.c ****     }
 2878              		.loc 1 756 9 view .LVU825
 2879 01f4 996F     		ldr	r1, [r3, #120]
 2880 01f6 0D48     		ldr	r0, .L172+28
 2881 01f8 FFF7FEFF 		bl	List_Insert_Item
 2882              	.LVL161:
 2883 01fc E6E7     		b	.L165
 2884              	.L167:
 704:SYS/task_manager/task_manager.c ****     }
ARM GAS  /tmp/ccMrs0Mo.s 			page 81


 2885              		.loc 1 704 16 view .LVU826
 2886 01fe 4FF00008 		mov	r8, #0
 2887              	.LVL162:
 704:SYS/task_manager/task_manager.c ****     }
 2888              		.loc 1 704 16 view .LVU827
 2889 0202 0FE7     		b	.L161
 2890              	.LVL163:
 2891              	.L168:
 746:SYS/task_manager/task_manager.c ****     }
 2892              		.loc 1 746 16 view .LVU828
 2893 0204 4FF00008 		mov	r8, #0
 2894              	.LVL164:
 746:SYS/task_manager/task_manager.c ****     }
 2895              		.loc 1 746 16 view .LVU829
 2896 0208 0CE7     		b	.L161
 2897              	.L173:
 2898 020a 00BFAFF3 		.align	3
 2898      0080
 2899              	.L172:
 2900 0210 00000000 		.word	0
 2901 0214 80842E41 		.word	1093567616
 2902 0218 00000000 		.word	.LANCHOR12
 2903 021c 00000000 		.word	Task_Ptr
 2904 0220 00000000 		.word	.LANCHOR0
 2905 0224 00000000 		.word	.LANCHOR3
 2906 0228 00000000 		.word	Task_PriorityCompare
 2907 022c 04000000 		.word	.LANCHOR3+4
 2908              		.cfi_endproc
 2909              	.LFE156:
 2911              		.section	.text.Task_Remove,"ax",%progbits
 2912              		.align	1
 2913              		.global	Task_Remove
 2914              		.syntax unified
 2915              		.thumb
 2916              		.thumb_func
 2917              		.fpu fpv4-sp-d16
 2919              	Task_Remove:
 2920              	.LVL165:
 2921              	.LFB160:
 793:SYS/task_manager/task_manager.c ****     //convert Tsk_Hdl from uint32_t var to Task Address which we need to delete
 2922              		.loc 1 793 1 is_stmt 1 view -0
 2923              		.cfi_startproc
 2924              		@ args = 0, pretend = 0, frame = 0
 2925              		@ frame_needed = 0, uses_anonymous_args = 0
 793:SYS/task_manager/task_manager.c ****     //convert Tsk_Hdl from uint32_t var to Task Address which we need to delete
 2926              		.loc 1 793 1 is_stmt 0 view .LVU831
 2927 0000 70B5     		push	{r4, r5, r6, lr}
 2928              	.LCFI39:
 2929              		.cfi_def_cfa_offset 16
 2930              		.cfi_offset 4, -16
 2931              		.cfi_offset 5, -12
 2932              		.cfi_offset 6, -8
 2933              		.cfi_offset 14, -4
 2934 0002 0546     		mov	r5, r0
 799:SYS/task_manager/task_manager.c ****     uint8_t remove_task = GET_TASKINGROUP_PRIORITY(((Task *)Tsk_Hdl)->priority.Priority);
 2935              		.loc 1 799 5 is_stmt 1 view .LVU832
 799:SYS/task_manager/task_manager.c ****     uint8_t remove_task = GET_TASKINGROUP_PRIORITY(((Task *)Tsk_Hdl)->priority.Priority);
ARM GAS  /tmp/ccMrs0Mo.s 			page 82


 2936              		.loc 1 799 28 is_stmt 0 view .LVU833
 2937 0004 0378     		ldrb	r3, [r0]	@ zero_extendqisi2
 799:SYS/task_manager/task_manager.c ****     uint8_t remove_task = GET_TASKINGROUP_PRIORITY(((Task *)Tsk_Hdl)->priority.Priority);
 2938              		.loc 1 799 13 view .LVU834
 2939 0006 DE08     		lsrs	r6, r3, #3
 2940              	.LVL166:
 800:SYS/task_manager/task_manager.c **** 
 2941              		.loc 1 800 5 is_stmt 1 view .LVU835
 800:SYS/task_manager/task_manager.c **** 
 2942              		.loc 1 800 13 is_stmt 0 view .LVU836
 2943 0008 03F00704 		and	r4, r3, #7
 2944              	.LVL167:
 802:SYS/task_manager/task_manager.c **** 
 2945              		.loc 1 802 5 is_stmt 1 view .LVU837
 2946 000c FFF7FEFF 		bl	ReSet_Task_Data
 2947              	.LVL168:
 805:SYS/task_manager/task_manager.c ****     free((uint32_t *)((Task *)Tsk_Hdl)->TCB.Top_Stk_Ptr);
 2948              		.loc 1 805 5 view .LVU838
 2949 0010 686D     		ldr	r0, [r5, #84]
 2950 0012 FFF7FEFF 		bl	free
 2951              	.LVL169:
 806:SYS/task_manager/task_manager.c **** #endif
 2952              		.loc 1 806 5 view .LVU839
 806:SYS/task_manager/task_manager.c **** #endif
 2953              		.loc 1 806 44 is_stmt 0 view .LVU840
 2954 0016 286D     		ldr	r0, [r5, #80]
 806:SYS/task_manager/task_manager.c **** #endif
 2955              		.loc 1 806 5 view .LVU841
 2956 0018 FFF7FEFF 		bl	free
 2957              	.LVL170:
 809:SYS/task_manager/task_manager.c ****     Task_Ptr[remove_group][remove_task] = NULL;
 2958              		.loc 1 809 5 is_stmt 1 view .LVU842
 2959 001c 2846     		mov	r0, r5
 2960 001e FFF7FEFF 		bl	free
 2961              	.LVL171:
 810:SYS/task_manager/task_manager.c **** }
 2962              		.loc 1 810 5 view .LVU843
 810:SYS/task_manager/task_manager.c **** }
 2963              		.loc 1 810 41 is_stmt 0 view .LVU844
 2964 0022 04EBC603 		add	r3, r4, r6, lsl #3
 2965 0026 024A     		ldr	r2, .L176
 2966 0028 0021     		movs	r1, #0
 2967 002a 42F82310 		str	r1, [r2, r3, lsl #2]
 811:SYS/task_manager/task_manager.c **** 
 2968              		.loc 1 811 1 view .LVU845
 2969 002e 70BD     		pop	{r4, r5, r6, pc}
 2970              	.LVL172:
 2971              	.L177:
 811:SYS/task_manager/task_manager.c **** 
 2972              		.loc 1 811 1 view .LVU846
 2973              		.align	2
 2974              	.L176:
 2975 0030 00000000 		.word	Task_Ptr
 2976              		.cfi_endproc
 2977              	.LFE160:
 2979              		.section	.text.TaskSystem_Start,"ax",%progbits
 2980              		.align	1
ARM GAS  /tmp/ccMrs0Mo.s 			page 83


 2981              		.global	TaskSystem_Start
 2982              		.syntax unified
 2983              		.thumb
 2984              		.thumb_func
 2985              		.fpu fpv4-sp-d16
 2987              	TaskSystem_Start:
 2988              	.LFB161:
 814:SYS/task_manager/task_manager.c ****     Runtime_Config(RUNTIME_TICK_FRQ_40K);
 2989              		.loc 1 814 1 is_stmt 1 view -0
 2990              		.cfi_startproc
 2991              		@ args = 0, pretend = 0, frame = 0
 2992              		@ frame_needed = 0, uses_anonymous_args = 0
 2993 0000 10B5     		push	{r4, lr}
 2994              	.LCFI40:
 2995              		.cfi_def_cfa_offset 8
 2996              		.cfi_offset 4, -8
 2997              		.cfi_offset 14, -4
 815:SYS/task_manager/task_manager.c ****     Runtime_Set_start_Callback(NULL);
 2998              		.loc 1 815 5 view .LVU848
 2999 0002 49F64040 		movw	r0, #40000
 3000 0006 FFF7FEFF 		bl	Runtime_Config
 3001              	.LVL173:
 816:SYS/task_manager/task_manager.c ****     Runtime_Set_stop_Callback(NULL);
 3002              		.loc 1 816 5 view .LVU849
 3003 000a 0020     		movs	r0, #0
 3004 000c FFF7FEFF 		bl	Runtime_Set_start_Callback
 3005              	.LVL174:
 817:SYS/task_manager/task_manager.c ****     Runtime_Set_tick_Callback(Task_Scheduler); /* 5us cast by calling the scheduler */
 3006              		.loc 1 817 5 view .LVU850
 3007 0010 0020     		movs	r0, #0
 3008 0012 FFF7FEFF 		bl	Runtime_Set_stop_Callback
 3009              	.LVL175:
 818:SYS/task_manager/task_manager.c ****     Runtime_Start();
 3010              		.loc 1 818 5 view .LVU851
 3011 0016 1148     		ldr	r0, .L181
 3012 0018 FFF7FEFF 		bl	Runtime_Set_tick_Callback
 3013              	.LVL176:
 819:SYS/task_manager/task_manager.c **** 
 3014              		.loc 1 819 5 view .LVU852
 3015 001c FFF7FEFF 		bl	Runtime_Start
 3016              	.LVL177:
 821:SYS/task_manager/task_manager.c **** 
 3017              		.loc 1 821 5 view .LVU853
 3018 0020 0F4C     		ldr	r4, .L181+4
 3019 0022 2046     		mov	r0, r4
 3020 0024 FFF7FEFF 		bl	RuntimeObj_Reset
 3021              	.LVL178:
 823:SYS/task_manager/task_manager.c **** 
 3022              		.loc 1 823 5 view .LVU854
 823:SYS/task_manager/task_manager.c **** 
 3023              		.loc 1 823 25 is_stmt 0 view .LVU855
 3024 0028 FFF7FEFF 		bl	Get_CurrentRunningUs
 3025              	.LVL179:
 823:SYS/task_manager/task_manager.c **** 
 3026              		.loc 1 823 23 view .LVU856
 3027 002c C4E90001 		strd	r0, [r4]
 826:SYS/task_manager/task_manager.c **** 
ARM GAS  /tmp/ccMrs0Mo.s 			page 84


 3028              		.loc 1 826 5 is_stmt 1 view .LVU857
 826:SYS/task_manager/task_manager.c **** 
 3029              		.loc 1 826 21 is_stmt 0 view .LVU858
 3030 0030 FFF7FEFF 		bl	Task_Get_HighestRank_RdyTask
 3031              	.LVL180:
 826:SYS/task_manager/task_manager.c **** 
 3032              		.loc 1 826 19 view .LVU859
 3033 0034 0B4B     		ldr	r3, .L181+8
 3034 0036 1860     		str	r0, [r3]
 828:SYS/task_manager/task_manager.c ****     {
 3035              		.loc 1 828 5 is_stmt 1 view .LVU860
 828:SYS/task_manager/task_manager.c ****     {
 3036              		.loc 1 828 8 is_stmt 0 view .LVU861
 3037 0038 50B1     		cbz	r0, .L179
 830:SYS/task_manager/task_manager.c ****         NxtTsk_TCB.Stack = NxtRunTsk_Ptr->TCB.Stack;
 3038              		.loc 1 830 9 is_stmt 1 view .LVU862
 830:SYS/task_manager/task_manager.c ****         NxtTsk_TCB.Stack = NxtRunTsk_Ptr->TCB.Stack;
 3039              		.loc 1 830 34 is_stmt 0 view .LVU863
 3040 003a 00F15002 		add	r2, r0, #80
 830:SYS/task_manager/task_manager.c ****         NxtTsk_TCB.Stack = NxtRunTsk_Ptr->TCB.Stack;
 3041              		.loc 1 830 32 view .LVU864
 3042 003e 0A4B     		ldr	r3, .L181+12
 3043 0040 1A60     		str	r2, [r3]
 831:SYS/task_manager/task_manager.c **** 
 3044              		.loc 1 831 9 is_stmt 1 view .LVU865
 831:SYS/task_manager/task_manager.c **** 
 3045              		.loc 1 831 46 is_stmt 0 view .LVU866
 3046 0042 426D     		ldr	r2, [r0, #84]
 831:SYS/task_manager/task_manager.c **** 
 3047              		.loc 1 831 26 view .LVU867
 3048 0044 5A60     		str	r2, [r3, #4]
 833:SYS/task_manager/task_manager.c ****     }
 3049              		.loc 1 833 9 is_stmt 1 view .LVU868
 833:SYS/task_manager/task_manager.c ****     }
 3050              		.loc 1 833 20 is_stmt 0 view .LVU869
 3051 0046 094A     		ldr	r2, .L181+16
 3052 0048 93E80300 		ldm	r3, {r0, r1}
 3053 004c 82E80300 		stm	r2, {r0, r1}
 3054              	.L179:
 837:SYS/task_manager/task_manager.c ****     Task_TriggerPendSV();
 3055              		.loc 1 837 5 is_stmt 1 view .LVU870
 3056 0050 FFF7FEFF 		bl	Task_SetPendSVPro
 3057              	.LVL181:
 838:SYS/task_manager/task_manager.c **** 
 3058              		.loc 1 838 5 view .LVU871
 3059 0054 FFF7FEFF 		bl	Task_TriggerPendSV
 3060              	.LVL182:
 840:SYS/task_manager/task_manager.c **** }
 3061              		.loc 1 840 5 view .LVU872
 841:SYS/task_manager/task_manager.c **** 
 3062              		.loc 1 841 1 is_stmt 0 view .LVU873
 3063 0058 10BD     		pop	{r4, pc}
 3064              	.L182:
 3065 005a 00BF     		.align	2
 3066              	.L181:
 3067 005c 00000000 		.word	Task_Scheduler
 3068 0060 00000000 		.word	.LANCHOR6
ARM GAS  /tmp/ccMrs0Mo.s 			page 85


 3069 0064 00000000 		.word	.LANCHOR9
 3070 0068 00000000 		.word	NxtTsk_TCB
 3071 006c 00000000 		.word	CurTsk_TCB
 3072              		.cfi_endproc
 3073              	.LFE161:
 3075              		.section	.text.Task_SetRunState,"ax",%progbits
 3076              		.align	1
 3077              		.global	Task_SetRunState
 3078              		.syntax unified
 3079              		.thumb
 3080              		.thumb_func
 3081              		.fpu fpv4-sp-d16
 3083              	Task_SetRunState:
 3084              	.LVL183:
 3085              	.LFB162:
 844:SYS/task_manager/task_manager.c ****     ((Task *)Tsk_Handle)->Exec_status.State = state;
 3086              		.loc 1 844 1 is_stmt 1 view -0
 3087              		.cfi_startproc
 3088              		@ args = 0, pretend = 0, frame = 0
 3089              		@ frame_needed = 0, uses_anonymous_args = 0
 3090              		@ link register save eliminated.
 845:SYS/task_manager/task_manager.c **** }
 3091              		.loc 1 845 5 view .LVU875
 845:SYS/task_manager/task_manager.c **** }
 3092              		.loc 1 845 45 is_stmt 0 view .LVU876
 3093 0000 80F84810 		strb	r1, [r0, #72]
 846:SYS/task_manager/task_manager.c **** 
 3094              		.loc 1 846 1 view .LVU877
 3095 0004 7047     		bx	lr
 3096              		.cfi_endproc
 3097              	.LFE162:
 3099              		.section	.text.Task_CountRunningTime,"ax",%progbits
 3100              		.align	1
 3101              		.global	Task_CountRunningTime
 3102              		.syntax unified
 3103              		.thumb
 3104              		.thumb_func
 3105              		.fpu fpv4-sp-d16
 3107              	Task_CountRunningTime:
 3108              	.LFB163:
 849:SYS/task_manager/task_manager.c ****     if (CurRunTsk_Ptr != NULL)
 3109              		.loc 1 849 1 is_stmt 1 view -0
 3110              		.cfi_startproc
 3111              		@ args = 0, pretend = 0, frame = 0
 3112              		@ frame_needed = 0, uses_anonymous_args = 0
 3113 0000 08B5     		push	{r3, lr}
 3114              	.LCFI41:
 3115              		.cfi_def_cfa_offset 8
 3116              		.cfi_offset 3, -8
 3117              		.cfi_offset 14, -4
 850:SYS/task_manager/task_manager.c ****     {
 3118              		.loc 1 850 5 view .LVU879
 850:SYS/task_manager/task_manager.c ****     {
 3119              		.loc 1 850 23 is_stmt 0 view .LVU880
 3120 0002 0D4B     		ldr	r3, .L190
 3121 0004 1B68     		ldr	r3, [r3]
 850:SYS/task_manager/task_manager.c ****     {
ARM GAS  /tmp/ccMrs0Mo.s 			page 86


 3122              		.loc 1 850 8 view .LVU881
 3123 0006 6BB1     		cbz	r3, .L184
 3124              	.LBB5:
 852:SYS/task_manager/task_manager.c **** 
 3125              		.loc 1 852 9 is_stmt 1 view .LVU882
 3126 0008 FFF7FEFF 		bl	RunTime_Tick
 3127              	.LVL184:
 854:SYS/task_manager/task_manager.c ****         {
 3128              		.loc 1 854 9 view .LVU883
 854:SYS/task_manager/task_manager.c ****         {
 3129              		.loc 1 854 26 is_stmt 0 view .LVU884
 3130 000c 0A4B     		ldr	r3, .L190
 3131 000e 1B68     		ldr	r3, [r3]
 854:SYS/task_manager/task_manager.c ****         {
 3132              		.loc 1 854 46 view .LVU885
 3133 0010 93F85820 		ldrb	r2, [r3, #88]	@ zero_extendqisi2
 3134 0014 1209     		lsrs	r2, r2, #4
 854:SYS/task_manager/task_manager.c ****         {
 3135              		.loc 1 854 12 view .LVU886
 3136 0016 012A     		cmp	r2, #1
 3137 0018 05D0     		beq	.L188
 3138              	.L186:
 859:SYS/task_manager/task_manager.c ****         {
 3139              		.loc 1 859 9 is_stmt 1 view .LVU887
 859:SYS/task_manager/task_manager.c ****         {
 3140              		.loc 1 859 46 is_stmt 0 view .LVU888
 3141 001a 93F85820 		ldrb	r2, [r3, #88]	@ zero_extendqisi2
 3142 001e 1209     		lsrs	r2, r2, #4
 859:SYS/task_manager/task_manager.c ****         {
 3143              		.loc 1 859 12 view .LVU889
 3144 0020 012A     		cmp	r2, #1
 3145 0022 04D0     		beq	.L189
 3146              	.L184:
 3147              	.LBE5:
 864:SYS/task_manager/task_manager.c **** 
 3148              		.loc 1 864 1 view .LVU890
 3149 0024 08BD     		pop	{r3, pc}
 3150              	.L188:
 3151              	.LBB6:
 856:SYS/task_manager/task_manager.c ****         }
 3152              		.loc 1 856 13 is_stmt 1 view .LVU891
 856:SYS/task_manager/task_manager.c ****         }
 3153              		.loc 1 856 26 is_stmt 0 view .LVU892
 3154 0026 DA6D     		ldr	r2, [r3, #92]
 856:SYS/task_manager/task_manager.c ****         }
 3155              		.loc 1 856 42 view .LVU893
 3156 0028 0132     		adds	r2, r2, #1
 3157 002a DA65     		str	r2, [r3, #92]
 3158 002c F5E7     		b	.L186
 3159              	.L189:
 861:SYS/task_manager/task_manager.c ****         }
 3160              		.loc 1 861 13 is_stmt 1 view .LVU894
 861:SYS/task_manager/task_manager.c ****         }
 3161              		.loc 1 861 26 is_stmt 0 view .LVU895
 3162 002e 1A6E     		ldr	r2, [r3, #96]
 861:SYS/task_manager/task_manager.c ****         }
 3163              		.loc 1 861 42 view .LVU896
ARM GAS  /tmp/ccMrs0Mo.s 			page 87


 3164 0030 0132     		adds	r2, r2, #1
 3165 0032 1A66     		str	r2, [r3, #96]
 3166              	.LBE6:
 864:SYS/task_manager/task_manager.c **** 
 3167              		.loc 1 864 1 view .LVU897
 3168 0034 F6E7     		b	.L184
 3169              	.L191:
 3170 0036 00BF     		.align	2
 3171              	.L190:
 3172 0038 00000000 		.word	.LANCHOR4
 3173              		.cfi_endproc
 3174              	.LFE163:
 3176              		.section	.text.Task_Get_IdleUS,"ax",%progbits
 3177              		.align	1
 3178              		.global	Task_Get_IdleUS
 3179              		.syntax unified
 3180              		.thumb
 3181              		.thumb_func
 3182              		.fpu fpv4-sp-d16
 3184              	Task_Get_IdleUS:
 3185              	.LFB166:
 951:SYS/task_manager/task_manager.c ****     return TaskSys_Idle_US;
 3186              		.loc 1 951 1 is_stmt 1 view -0
 3187              		.cfi_startproc
 3188              		@ args = 0, pretend = 0, frame = 0
 3189              		@ frame_needed = 0, uses_anonymous_args = 0
 3190              		@ link register save eliminated.
 952:SYS/task_manager/task_manager.c **** }
 3191              		.loc 1 952 5 view .LVU899
 953:SYS/task_manager/task_manager.c **** 
 3192              		.loc 1 953 1 is_stmt 0 view .LVU900
 3193 0000 014B     		ldr	r3, .L193
 3194 0002 1868     		ldr	r0, [r3]
 3195 0004 7047     		bx	lr
 3196              	.L194:
 3197 0006 00BF     		.align	2
 3198              	.L193:
 3199 0008 00000000 		.word	.LANCHOR7
 3200              		.cfi_endproc
 3201              	.LFE166:
 3203              		.section	.text.Task_Get_IdleOcupy,"ax",%progbits
 3204              		.align	1
 3205              		.global	Task_Get_IdleOcupy
 3206              		.syntax unified
 3207              		.thumb
 3208              		.thumb_func
 3209              		.fpu fpv4-sp-d16
 3211              	Task_Get_IdleOcupy:
 3212              	.LFB167:
 956:SYS/task_manager/task_manager.c ****     return TaskSys_Idle_Ocupy;
 3213              		.loc 1 956 1 is_stmt 1 view -0
 3214              		.cfi_startproc
 3215              		@ args = 0, pretend = 0, frame = 0
 3216              		@ frame_needed = 0, uses_anonymous_args = 0
 3217              		@ link register save eliminated.
 957:SYS/task_manager/task_manager.c **** }
 3218              		.loc 1 957 5 view .LVU902
ARM GAS  /tmp/ccMrs0Mo.s 			page 88


 958:SYS/task_manager/task_manager.c **** 
 3219              		.loc 1 958 1 is_stmt 0 view .LVU903
 3220 0000 014B     		ldr	r3, .L196
 3221 0002 93ED000A 		vldr.32	s0, [r3]
 3222 0006 7047     		bx	lr
 3223              	.L197:
 3224              		.align	2
 3225              	.L196:
 3226 0008 00000000 		.word	.LANCHOR8
 3227              		.cfi_endproc
 3228              	.LFE167:
 3230              		.section	.text.TaskSys_Set_State,"ax",%progbits
 3231              		.align	1
 3232              		.global	TaskSys_Set_State
 3233              		.syntax unified
 3234              		.thumb
 3235              		.thumb_func
 3236              		.fpu fpv4-sp-d16
 3238              	TaskSys_Set_State:
 3239              	.LVL185:
 3240              	.LFB169:
 971:SYS/task_manager/task_manager.c ****     TskSys_state = state;
 3241              		.loc 1 971 1 is_stmt 1 view -0
 3242              		.cfi_startproc
 3243              		@ args = 0, pretend = 0, frame = 0
 3244              		@ frame_needed = 0, uses_anonymous_args = 0
 3245              		@ link register save eliminated.
 972:SYS/task_manager/task_manager.c **** }
 3246              		.loc 1 972 5 view .LVU905
 972:SYS/task_manager/task_manager.c **** }
 3247              		.loc 1 972 18 is_stmt 0 view .LVU906
 3248 0000 014B     		ldr	r3, .L199
 3249 0002 1870     		strb	r0, [r3]
 973:SYS/task_manager/task_manager.c **** 
 3250              		.loc 1 973 1 view .LVU907
 3251 0004 7047     		bx	lr
 3252              	.L200:
 3253 0006 00BF     		.align	2
 3254              	.L199:
 3255 0008 00000000 		.word	.LANCHOR5
 3256              		.cfi_endproc
 3257              	.LFE169:
 3259              		.section	.text.TaskSys_Get_State,"ax",%progbits
 3260              		.align	1
 3261              		.global	TaskSys_Get_State
 3262              		.syntax unified
 3263              		.thumb
 3264              		.thumb_func
 3265              		.fpu fpv4-sp-d16
 3267              	TaskSys_Get_State:
 3268              	.LFB170:
 976:SYS/task_manager/task_manager.c ****     return TskSys_state;
 3269              		.loc 1 976 1 is_stmt 1 view -0
 3270              		.cfi_startproc
 3271              		@ args = 0, pretend = 0, frame = 0
 3272              		@ frame_needed = 0, uses_anonymous_args = 0
 3273              		@ link register save eliminated.
ARM GAS  /tmp/ccMrs0Mo.s 			page 89


 977:SYS/task_manager/task_manager.c **** }
 3274              		.loc 1 977 5 view .LVU909
 977:SYS/task_manager/task_manager.c **** }
 3275              		.loc 1 977 12 is_stmt 0 view .LVU910
 3276 0000 014B     		ldr	r3, .L202
 3277 0002 1878     		ldrb	r0, [r3]	@ zero_extendqisi2
 978:SYS/task_manager/task_manager.c **** 
 3278              		.loc 1 978 1 view .LVU911
 3279 0004 7047     		bx	lr
 3280              	.L203:
 3281 0006 00BF     		.align	2
 3282              	.L202:
 3283 0008 00000000 		.word	.LANCHOR5
 3284              		.cfi_endproc
 3285              	.LFE170:
 3287              		.section	.text.Task_GetInfo_ByIndex,"ax",%progbits
 3288              		.align	1
 3289              		.global	Task_GetInfo_ByIndex
 3290              		.syntax unified
 3291              		.thumb
 3292              		.thumb_func
 3293              		.fpu fpv4-sp-d16
 3295              	Task_GetInfo_ByIndex:
 3296              	.LVL186:
 3297              	.LFB173:
1117:SYS/task_manager/task_manager.c **** 
1118:SYS/task_manager/task_manager.c **** Task_Base_Info Task_GetInfo_ByIndex(uint8_t index)
1119:SYS/task_manager/task_manager.c **** {
 3298              		.loc 1 1119 1 is_stmt 1 view -0
 3299              		.cfi_startproc
 3300              		@ args = 0, pretend = 0, frame = 0
 3301              		@ frame_needed = 0, uses_anonymous_args = 0
 3302              		@ link register save eliminated.
1120:SYS/task_manager/task_manager.c ****     Task_Base_Info task_info;
 3303              		.loc 1 1120 5 view .LVU913
1121:SYS/task_manager/task_manager.c **** 
1122:SYS/task_manager/task_manager.c ****     return task_info;
 3304              		.loc 1 1122 5 view .LVU914
1123:SYS/task_manager/task_manager.c **** }
 3305              		.loc 1 1123 1 is_stmt 0 view .LVU915
 3306 0000 7047     		bx	lr
 3307              		.cfi_endproc
 3308              	.LFE173:
 3310              		.section	.text.Task_GetCurrentRunTask,"ax",%progbits
 3311              		.align	1
 3312              		.global	Task_GetCurrentRunTask
 3313              		.syntax unified
 3314              		.thumb
 3315              		.thumb_func
 3316              		.fpu fpv4-sp-d16
 3318              	Task_GetCurrentRunTask:
 3319              	.LFB174:
1124:SYS/task_manager/task_manager.c **** 
1125:SYS/task_manager/task_manager.c **** Task *Task_GetCurrentRunTask(void)
1126:SYS/task_manager/task_manager.c **** {
 3320              		.loc 1 1126 1 is_stmt 1 view -0
 3321              		.cfi_startproc
ARM GAS  /tmp/ccMrs0Mo.s 			page 90


 3322              		@ args = 0, pretend = 0, frame = 0
 3323              		@ frame_needed = 0, uses_anonymous_args = 0
 3324              		@ link register save eliminated.
1127:SYS/task_manager/task_manager.c ****     return CurRunTsk_Ptr;
 3325              		.loc 1 1127 5 view .LVU917
1128:SYS/task_manager/task_manager.c **** }
 3326              		.loc 1 1128 1 is_stmt 0 view .LVU918
 3327 0000 014B     		ldr	r3, .L206
 3328 0002 1868     		ldr	r0, [r3]
 3329 0004 7047     		bx	lr
 3330              	.L207:
 3331 0006 00BF     		.align	2
 3332              	.L206:
 3333 0008 00000000 		.word	.LANCHOR4
 3334              		.cfi_endproc
 3335              	.LFE174:
 3337              		.comm	Task_OS_ExpStkBase,4,4
 3338              		.comm	NxtTsk_TCB,8,4
 3339              		.comm	CurTsk_TCB,8,4
 3340              		.global	PndHstTsk_Ptr
 3341              		.global	NxtRunTsk_Ptr
 3342              		.global	CurRunTsk_Ptr
 3343              		.comm	Task_Ptr,256,4
 3344              		.section	.bss.CurRunTsk_Ptr,"aw",%nobits
 3345              		.align	2
 3346              		.set	.LANCHOR4,. + 0
 3349              	CurRunTsk_Ptr:
 3350 0000 00000000 		.space	4
 3351              		.section	.bss.NxtRunTsk_Ptr,"aw",%nobits
 3352              		.align	2
 3353              		.set	.LANCHOR9,. + 0
 3356              	NxtRunTsk_Ptr:
 3357 0000 00000000 		.space	4
 3358              		.section	.bss.PndHstTsk_Ptr,"aw",%nobits
 3359              		.align	2
 3360              		.set	.LANCHOR11,. + 0
 3363              	PndHstTsk_Ptr:
 3364 0000 00000000 		.space	4
 3365              		.section	.bss.TaskSys_Idle_Ocupy,"aw",%nobits
 3366              		.align	2
 3367              		.set	.LANCHOR8,. + 0
 3370              	TaskSys_Idle_Ocupy:
 3371 0000 00000000 		.space	4
 3372              		.section	.bss.TaskSys_Idle_US,"aw",%nobits
 3373              		.align	2
 3374              		.set	.LANCHOR7,. + 0
 3377              	TaskSys_Idle_US:
 3378 0000 00000000 		.space	4
 3379              		.section	.bss.TaskSys_StartTime,"aw",%nobits
 3380              		.align	3
 3381              		.set	.LANCHOR6,. + 0
 3384              	TaskSys_StartTime:
 3385 0000 00000000 		.space	8
 3385      00000000 
 3386              		.section	.bss.Task_OS_StkMem,"aw",%nobits
 3387              		.align	2
 3390              	Task_OS_StkMem:
ARM GAS  /tmp/ccMrs0Mo.s 			page 91


 3391 0000 00000000 		.space	40960
 3391      00000000 
 3391      00000000 
 3391      00000000 
 3391      00000000 
 3392              		.section	.bss.TskCrt_RegList,"aw",%nobits
 3393              		.align	2
 3394              		.set	.LANCHOR3,. + 0
 3397              	TskCrt_RegList:
 3398 0000 00000000 		.space	24
 3398      00000000 
 3398      00000000 
 3398      00000000 
 3398      00000000 
 3399              		.section	.bss.TskHdl_BlkMap,"aw",%nobits
 3400              		.align	2
 3401              		.set	.LANCHOR1,. + 0
 3404              	TskHdl_BlkMap:
 3405 0000 00000000 		.space	9
 3405      00000000 
 3405      00
 3406              		.section	.bss.TskHdl_PndMap,"aw",%nobits
 3407              		.align	2
 3408              		.set	.LANCHOR2,. + 0
 3411              	TskHdl_PndMap:
 3412 0000 00000000 		.space	9
 3412      00000000 
 3412      00
 3413              		.section	.bss.TskHdl_RdyMap,"aw",%nobits
 3414              		.align	2
 3415              		.set	.LANCHOR0,. + 0
 3418              	TskHdl_RdyMap:
 3419 0000 00000000 		.space	9
 3419      00000000 
 3419      00
 3420              		.section	.bss.TskSys_state,"aw",%nobits
 3421              		.set	.LANCHOR5,. + 0
 3424              	TskSys_state:
 3425 0000 00       		.space	1
 3426              		.section	.bss.taskOs_InitState.11474,"aw",%nobits
 3427              		.set	.LANCHOR12,. + 0
 3430              	taskOs_InitState.11474:
 3431 0000 00       		.space	1
 3432              		.section	.rodata.Tsk_Handle,"a"
 3433              		.align	2
 3434              		.set	.LANCHOR10,. + 0
 3437              	Tsk_Handle:
 3438 0000 00       		.byte	0
 3439 0001 00       		.byte	0
 3440 0002 01       		.byte	1
 3441 0003 00       		.byte	0
 3442 0004 02       		.byte	2
 3443 0005 00       		.byte	0
 3444 0006 01       		.byte	1
 3445 0007 00       		.byte	0
 3446 0008 03       		.byte	3
 3447 0009 00       		.byte	0
ARM GAS  /tmp/ccMrs0Mo.s 			page 92


 3448 000a 01       		.byte	1
 3449 000b 00       		.byte	0
 3450 000c 02       		.byte	2
 3451 000d 00       		.byte	0
 3452 000e 01       		.byte	1
 3453 000f 00       		.byte	0
 3454 0010 04       		.byte	4
 3455 0011 00       		.byte	0
 3456 0012 01       		.byte	1
 3457 0013 00       		.byte	0
 3458 0014 02       		.byte	2
 3459 0015 00       		.byte	0
 3460 0016 01       		.byte	1
 3461 0017 00       		.byte	0
 3462 0018 03       		.byte	3
 3463 0019 00       		.byte	0
 3464 001a 01       		.byte	1
 3465 001b 00       		.byte	0
 3466 001c 02       		.byte	2
 3467 001d 00       		.byte	0
 3468 001e 01       		.byte	1
 3469 001f 00       		.byte	0
 3470 0020 05       		.byte	5
 3471 0021 00       		.byte	0
 3472 0022 01       		.byte	1
 3473 0023 00       		.byte	0
 3474 0024 02       		.byte	2
 3475 0025 00       		.byte	0
 3476 0026 01       		.byte	1
 3477 0027 00       		.byte	0
 3478 0028 03       		.byte	3
 3479 0029 00       		.byte	0
 3480 002a 01       		.byte	1
 3481 002b 00       		.byte	0
 3482 002c 02       		.byte	2
 3483 002d 00       		.byte	0
 3484 002e 01       		.byte	1
 3485 002f 00       		.byte	0
 3486 0030 04       		.byte	4
 3487 0031 00       		.byte	0
 3488 0032 01       		.byte	1
 3489 0033 00       		.byte	0
 3490 0034 02       		.byte	2
 3491 0035 00       		.byte	0
 3492 0036 01       		.byte	1
 3493 0037 00       		.byte	0
 3494 0038 03       		.byte	3
 3495 0039 00       		.byte	0
 3496 003a 01       		.byte	1
 3497 003b 00       		.byte	0
 3498 003c 02       		.byte	2
 3499 003d 00       		.byte	0
 3500 003e 01       		.byte	1
 3501 003f 00       		.byte	0
 3502 0040 06       		.byte	6
 3503 0041 00       		.byte	0
 3504 0042 01       		.byte	1
ARM GAS  /tmp/ccMrs0Mo.s 			page 93


 3505 0043 00       		.byte	0
 3506 0044 02       		.byte	2
 3507 0045 00       		.byte	0
 3508 0046 01       		.byte	1
 3509 0047 00       		.byte	0
 3510 0048 03       		.byte	3
 3511 0049 00       		.byte	0
 3512 004a 01       		.byte	1
 3513 004b 00       		.byte	0
 3514 004c 02       		.byte	2
 3515 004d 00       		.byte	0
 3516 004e 01       		.byte	1
 3517 004f 00       		.byte	0
 3518 0050 04       		.byte	4
 3519 0051 00       		.byte	0
 3520 0052 01       		.byte	1
 3521 0053 00       		.byte	0
 3522 0054 02       		.byte	2
 3523 0055 00       		.byte	0
 3524 0056 01       		.byte	1
 3525 0057 00       		.byte	0
 3526 0058 03       		.byte	3
 3527 0059 00       		.byte	0
 3528 005a 01       		.byte	1
 3529 005b 00       		.byte	0
 3530 005c 02       		.byte	2
 3531 005d 00       		.byte	0
 3532 005e 01       		.byte	1
 3533 005f 00       		.byte	0
 3534 0060 05       		.byte	5
 3535 0061 00       		.byte	0
 3536 0062 01       		.byte	1
 3537 0063 00       		.byte	0
 3538 0064 02       		.byte	2
 3539 0065 00       		.byte	0
 3540 0066 01       		.byte	1
 3541 0067 00       		.byte	0
 3542 0068 03       		.byte	3
 3543 0069 00       		.byte	0
 3544 006a 01       		.byte	1
 3545 006b 00       		.byte	0
 3546 006c 02       		.byte	2
 3547 006d 00       		.byte	0
 3548 006e 01       		.byte	1
 3549 006f 00       		.byte	0
 3550 0070 04       		.byte	4
 3551 0071 00       		.byte	0
 3552 0072 01       		.byte	1
 3553 0073 00       		.byte	0
 3554 0074 02       		.byte	2
 3555 0075 00       		.byte	0
 3556 0076 01       		.byte	1
 3557 0077 00       		.byte	0
 3558 0078 03       		.byte	3
 3559 0079 00       		.byte	0
 3560 007a 01       		.byte	1
 3561 007b 00       		.byte	0
ARM GAS  /tmp/ccMrs0Mo.s 			page 94


 3562 007c 02       		.byte	2
 3563 007d 00       		.byte	0
 3564 007e 01       		.byte	1
 3565 007f 00       		.byte	0
 3566 0080 07       		.byte	7
 3567 0081 00       		.byte	0
 3568 0082 01       		.byte	1
 3569 0083 00       		.byte	0
 3570 0084 02       		.byte	2
 3571 0085 00       		.byte	0
 3572 0086 01       		.byte	1
 3573 0087 00       		.byte	0
 3574 0088 03       		.byte	3
 3575 0089 00       		.byte	0
 3576 008a 01       		.byte	1
 3577 008b 00       		.byte	0
 3578 008c 02       		.byte	2
 3579 008d 00       		.byte	0
 3580 008e 01       		.byte	1
 3581 008f 00       		.byte	0
 3582 0090 04       		.byte	4
 3583 0091 00       		.byte	0
 3584 0092 01       		.byte	1
 3585 0093 00       		.byte	0
 3586 0094 02       		.byte	2
 3587 0095 00       		.byte	0
 3588 0096 01       		.byte	1
 3589 0097 00       		.byte	0
 3590 0098 03       		.byte	3
 3591 0099 00       		.byte	0
 3592 009a 01       		.byte	1
 3593 009b 00       		.byte	0
 3594 009c 02       		.byte	2
 3595 009d 00       		.byte	0
 3596 009e 01       		.byte	1
 3597 009f 00       		.byte	0
 3598 00a0 05       		.byte	5
 3599 00a1 00       		.byte	0
 3600 00a2 01       		.byte	1
 3601 00a3 00       		.byte	0
 3602 00a4 02       		.byte	2
 3603 00a5 00       		.byte	0
 3604 00a6 01       		.byte	1
 3605 00a7 00       		.byte	0
 3606 00a8 03       		.byte	3
 3607 00a9 00       		.byte	0
 3608 00aa 01       		.byte	1
 3609 00ab 00       		.byte	0
 3610 00ac 02       		.byte	2
 3611 00ad 00       		.byte	0
 3612 00ae 01       		.byte	1
 3613 00af 00       		.byte	0
 3614 00b0 04       		.byte	4
 3615 00b1 00       		.byte	0
 3616 00b2 01       		.byte	1
 3617 00b3 00       		.byte	0
 3618 00b4 02       		.byte	2
ARM GAS  /tmp/ccMrs0Mo.s 			page 95


 3619 00b5 00       		.byte	0
 3620 00b6 01       		.byte	1
 3621 00b7 00       		.byte	0
 3622 00b8 03       		.byte	3
 3623 00b9 00       		.byte	0
 3624 00ba 01       		.byte	1
 3625 00bb 00       		.byte	0
 3626 00bc 02       		.byte	2
 3627 00bd 00       		.byte	0
 3628 00be 01       		.byte	1
 3629 00bf 00       		.byte	0
 3630 00c0 06       		.byte	6
 3631 00c1 00       		.byte	0
 3632 00c2 01       		.byte	1
 3633 00c3 00       		.byte	0
 3634 00c4 02       		.byte	2
 3635 00c5 00       		.byte	0
 3636 00c6 01       		.byte	1
 3637 00c7 00       		.byte	0
 3638 00c8 03       		.byte	3
 3639 00c9 00       		.byte	0
 3640 00ca 01       		.byte	1
 3641 00cb 00       		.byte	0
 3642 00cc 02       		.byte	2
 3643 00cd 00       		.byte	0
 3644 00ce 01       		.byte	1
 3645 00cf 00       		.byte	0
 3646 00d0 04       		.byte	4
 3647 00d1 00       		.byte	0
 3648 00d2 01       		.byte	1
 3649 00d3 00       		.byte	0
 3650 00d4 02       		.byte	2
 3651 00d5 00       		.byte	0
 3652 00d6 01       		.byte	1
 3653 00d7 00       		.byte	0
 3654 00d8 03       		.byte	3
 3655 00d9 00       		.byte	0
 3656 00da 01       		.byte	1
 3657 00db 00       		.byte	0
 3658 00dc 02       		.byte	2
 3659 00dd 00       		.byte	0
 3660 00de 01       		.byte	1
 3661 00df 00       		.byte	0
 3662 00e0 05       		.byte	5
 3663 00e1 00       		.byte	0
 3664 00e2 01       		.byte	1
 3665 00e3 00       		.byte	0
 3666 00e4 02       		.byte	2
 3667 00e5 00       		.byte	0
 3668 00e6 01       		.byte	1
 3669 00e7 00       		.byte	0
 3670 00e8 03       		.byte	3
 3671 00e9 00       		.byte	0
 3672 00ea 01       		.byte	1
 3673 00eb 00       		.byte	0
 3674 00ec 02       		.byte	2
 3675 00ed 00       		.byte	0
ARM GAS  /tmp/ccMrs0Mo.s 			page 96


 3676 00ee 01       		.byte	1
 3677 00ef 00       		.byte	0
 3678 00f0 04       		.byte	4
 3679 00f1 00       		.byte	0
 3680 00f2 01       		.byte	1
 3681 00f3 00       		.byte	0
 3682 00f4 02       		.byte	2
 3683 00f5 00       		.byte	0
 3684 00f6 01       		.byte	1
 3685 00f7 00       		.byte	0
 3686 00f8 03       		.byte	3
 3687 00f9 00       		.byte	0
 3688 00fa 01       		.byte	1
 3689 00fb 00       		.byte	0
 3690 00fc 02       		.byte	2
 3691 00fd 00       		.byte	0
 3692 00fe 01       		.byte	1
 3693 00ff 00       		.byte	0
 3694              		.text
 3695              	.Letext0:
 3696              		.file 2 "/home/bt0/stm32/compile-tool/gcc-arm-none-eabi-8-2018-q4-major-linux/gcc-arm-none-eabi-8-
 3697              		.file 3 "/home/bt0/stm32/compile-tool/gcc-arm-none-eabi-8-2018-q4-major-linux/gcc-arm-none-eabi-8-
 3698              		.file 4 "/home/bt0/stm32/compile-tool/gcc-arm-none-eabi-8-2018-q4-major-linux/gcc-arm-none-eabi-8-
 3699              		.file 5 "/home/bt0/stm32/compile-tool/gcc-arm-none-eabi-8-2018-q4-major-linux/gcc-arm-none-eabi-8-
 3700              		.file 6 "/home/bt0/stm32/compile-tool/gcc-arm-none-eabi-8-2018-q4-major-linux/gcc-arm-none-eabi-8-
 3701              		.file 7 "/home/bt0/stm32/compile-tool/gcc-arm-none-eabi-8-2018-q4-major-linux/gcc-arm-none-eabi-8-
 3702              		.file 8 "SYS/runtime/runtime.h"
 3703              		.file 9 "/home/bt0/stm32/compile-tool/gcc-arm-none-eabi-8-2018-q4-major-linux/gcc-arm-none-eabi-8-
 3704              		.file 10 "SYS/data_structure/linked_list.h"
 3705              		.file 11 "SYS/task_manager/task_manager.h"
 3706              		.file 12 "F4_CORE/core_cm4.h"
 3707              		.file 13 "USER/system_stm32f4xx.h"
 3708              		.file 14 "USER/stm32f4xx.h"
 3709              		.file 15 "Bsp/periph_timer.h"
 3710              		.file 16 "<built-in>"
ARM GAS  /tmp/ccMrs0Mo.s 			page 97


DEFINED SYMBOLS
                            *ABS*:0000000000000000 task_manager.c
     /tmp/ccMrs0Mo.s:18     .text.Task_Exit:0000000000000000 $t
     /tmp/ccMrs0Mo.s:25     .text.Task_Exit:0000000000000000 Task_Exit
     /tmp/ccMrs0Mo.s:42     .text.Task_SetBASEPRI:0000000000000000 $t
     /tmp/ccMrs0Mo.s:48     .text.Task_SetBASEPRI:0000000000000000 Task_SetBASEPRI
     /tmp/ccMrs0Mo.s:69     .text.Task_SetReady:0000000000000000 $t
     /tmp/ccMrs0Mo.s:75     .text.Task_SetReady:0000000000000000 Task_SetReady
     /tmp/ccMrs0Mo.s:139    .text.Task_SetReady:0000000000000030 $d
     /tmp/ccMrs0Mo.s:144    .text.Task_ClearBlock:0000000000000000 $t
     /tmp/ccMrs0Mo.s:150    .text.Task_ClearBlock:0000000000000000 Task_ClearBlock
     /tmp/ccMrs0Mo.s:213    .text.Task_ClearBlock:0000000000000034 $d
     /tmp/ccMrs0Mo.s:218    .text.Task_ClearPending:0000000000000000 $t
     /tmp/ccMrs0Mo.s:224    .text.Task_ClearPending:0000000000000000 Task_ClearPending
     /tmp/ccMrs0Mo.s:287    .text.Task_ClearPending:0000000000000034 $d
     /tmp/ccMrs0Mo.s:292    .text.Task_ClearReady:0000000000000000 $t
     /tmp/ccMrs0Mo.s:298    .text.Task_ClearReady:0000000000000000 Task_ClearReady
     /tmp/ccMrs0Mo.s:361    .text.Task_ClearReady:0000000000000034 $d
     /tmp/ccMrs0Mo.s:366    .text.Task_SetPendSVPro:0000000000000000 $t
     /tmp/ccMrs0Mo.s:372    .text.Task_SetPendSVPro:0000000000000000 Task_SetPendSVPro
     /tmp/ccMrs0Mo.s:382    *ABS*:00000000e000ed22 NVIC_SYSPRI14
     /tmp/ccMrs0Mo.s:386    *ABS*:00000000000000ff NVIC_PENDSV_PRI
                            *COM*:0000000000000004 Task_OS_ExpStkBase
     /tmp/ccMrs0Mo.s:431    .text.Task_PriorityCompare:0000000000000000 $t
     /tmp/ccMrs0Mo.s:438    .text.Task_PriorityCompare:0000000000000000 Task_PriorityCompare
     /tmp/ccMrs0Mo.s:568    .text.ReSet_Task_Data:0000000000000000 $t
     /tmp/ccMrs0Mo.s:574    .text.ReSet_Task_Data:0000000000000000 ReSet_Task_Data
     /tmp/ccMrs0Mo.s:667    .text.TaskSys_Init:0000000000000000 $t
     /tmp/ccMrs0Mo.s:673    .text.TaskSys_Init:0000000000000000 TaskSys_Init
     /tmp/ccMrs0Mo.s:796    .text.TaskSys_Init:0000000000000070 $d
     /tmp/ccMrs0Mo.s:3390   .bss.Task_OS_StkMem:0000000000000000 Task_OS_StkMem
                            *COM*:0000000000000100 Task_Ptr
     /tmp/ccMrs0Mo.s:807    .text.Task_SetStkPtr_Val:0000000000000000 $t
     /tmp/ccMrs0Mo.s:813    .text.Task_SetStkPtr_Val:0000000000000000 Task_SetStkPtr_Val
     /tmp/ccMrs0Mo.s:899    .text.Task_SetStkPtr_Val:0000000000000050 $d
     /tmp/ccMrs0Mo.s:1190   .text.Task_Caller:0000000000000000 Task_Caller
     /tmp/ccMrs0Mo.s:906    .text.Task_Idle:0000000000000000 $t
     /tmp/ccMrs0Mo.s:912    .text.Task_Idle:0000000000000000 Task_Idle
     /tmp/ccMrs0Mo.s:977    .text.Task_Idle:000000000000004c $d
     /tmp/ccMrs0Mo.s:984    .text.Task_Exec:0000000000000000 $t
     /tmp/ccMrs0Mo.s:990    .text.Task_Exec:0000000000000000 Task_Exec
     /tmp/ccMrs0Mo.s:1178   .text.Task_Exec:00000000000000dc $d
     /tmp/ccMrs0Mo.s:1183   .text.Task_Caller:0000000000000000 $t
     /tmp/ccMrs0Mo.s:1216   .text.Task_Caller:0000000000000010 $d
     /tmp/ccMrs0Mo.s:1221   .text.Task_CrtList_TraversePoll_callback:0000000000000000 $t
     /tmp/ccMrs0Mo.s:1227   .text.Task_CrtList_TraversePoll_callback:0000000000000000 Task_CrtList_TraversePoll_callback
     /tmp/ccMrs0Mo.s:1296   .text.Task_CrtList_TraversePoll_callback:0000000000000030 $d
     /tmp/ccMrs0Mo.s:1301   .text.Task_Resume_FromBlock:0000000000000000 $t
     /tmp/ccMrs0Mo.s:1308   .text.Task_Resume_FromBlock:0000000000000000 Task_Resume_FromBlock
     /tmp/ccMrs0Mo.s:1355   .text.Task_Resume_FromBlock:0000000000000028 $d
                            *COM*:0000000000000008 NxtTsk_TCB
     /tmp/ccMrs0Mo.s:1361   .text.Task_SetBlock:0000000000000000 $t
     /tmp/ccMrs0Mo.s:1368   .text.Task_SetBlock:0000000000000000 Task_SetBlock
     /tmp/ccMrs0Mo.s:1456   .text.Task_SetBlock:0000000000000058 $d
     /tmp/ccMrs0Mo.s:1463   .text.Task_SetPending:0000000000000000 $t
     /tmp/ccMrs0Mo.s:1470   .text.Task_SetPending:0000000000000000 Task_SetPending
     /tmp/ccMrs0Mo.s:1534   .text.Task_SetPending:0000000000000030 $d
ARM GAS  /tmp/ccMrs0Mo.s 			page 98


     /tmp/ccMrs0Mo.s:1539   .text.Task_SwitchStack:0000000000000000 $t
     /tmp/ccMrs0Mo.s:1546   .text.Task_SwitchStack:0000000000000000 Task_SwitchStack
     /tmp/ccMrs0Mo.s:1564   .text.Task_SwitchStack:0000000000000010 $d
                            *COM*:0000000000000008 CurTsk_TCB
     /tmp/ccMrs0Mo.s:1570   .text.Task_Get_HighestRank_PndTask:0000000000000000 $t
     /tmp/ccMrs0Mo.s:1577   .text.Task_Get_HighestRank_PndTask:0000000000000000 Task_Get_HighestRank_PndTask
     /tmp/ccMrs0Mo.s:1659   .text.Task_Get_HighestRank_PndTask:0000000000000050 $d
     /tmp/ccMrs0Mo.s:1666   .text.Task_SaveCurProc:0000000000000000 $t
     /tmp/ccMrs0Mo.s:1673   .text.Task_SaveCurProc:0000000000000000 Task_SaveCurProc
     /tmp/ccMrs0Mo.s:1727   .text.Task_SaveCurProc:0000000000000024 CurrentTCBConst_Tmp3
     /tmp/ccMrs0Mo.s:1727   .text.Task_SaveCurProc:0000000000000024 $d
     /tmp/ccMrs0Mo.s:1732   .text.Task_SaveCurProc:0000000000000028 $t
     /tmp/ccMrs0Mo.s:1737   .text.Task_Load:0000000000000000 $t
     /tmp/ccMrs0Mo.s:1744   .text.Task_Load:0000000000000000 Task_Load
     /tmp/ccMrs0Mo.s:1804   .text.Load_FirstTask:0000000000000000 $t
     /tmp/ccMrs0Mo.s:1811   .text.Load_FirstTask:0000000000000000 Load_FirstTask
     /tmp/ccMrs0Mo.s:1831   .text.Task_SwitchContext:0000000000000000 $t
     /tmp/ccMrs0Mo.s:1838   .text.Task_SwitchContext:0000000000000000 Task_SwitchContext
     /tmp/ccMrs0Mo.s:1956   .text.Task_SwitchContext:000000000000005c CurrentTCBConst_Tmp
     /tmp/ccMrs0Mo.s:1956   .text.Task_SwitchContext:000000000000005c $d
     /tmp/ccMrs0Mo.s:1960   .text.Task_SwitchContext:0000000000000060 $t
     /tmp/ccMrs0Mo.s:1970   .text.Task_Get_HighestRank_RdyTask:0000000000000000 $t
     /tmp/ccMrs0Mo.s:1977   .text.Task_Get_HighestRank_RdyTask:0000000000000000 Task_Get_HighestRank_RdyTask
     /tmp/ccMrs0Mo.s:2063   .text.Task_Get_HighestRank_RdyTask:0000000000000050 $d
     /tmp/ccMrs0Mo.s:2070   .text.Task_SetNextTask_Ptr:0000000000000000 $t
     /tmp/ccMrs0Mo.s:2077   .text.Task_SetNextTask_Ptr:0000000000000000 Task_SetNextTask_Ptr
     /tmp/ccMrs0Mo.s:2109   .text.Task_SetNextTask_Ptr:0000000000000014 $d
     /tmp/ccMrs0Mo.s:2115   .text.Task_TriggerPendSV:0000000000000000 $t
     /tmp/ccMrs0Mo.s:2122   .text.Task_TriggerPendSV:0000000000000000 Task_TriggerPendSV
     /tmp/ccMrs0Mo.s:2132   *ABS*:00000000e000ed04 NVIC_INT_CTRL
     /tmp/ccMrs0Mo.s:2136   *ABS*:0000000010000000 NVIC_PENDSVSET
     /tmp/ccMrs0Mo.s:2161   .text.Task_Scheduler:0000000000000000 $t
     /tmp/ccMrs0Mo.s:2168   .text.Task_Scheduler:0000000000000000 Task_Scheduler
     /tmp/ccMrs0Mo.s:2436   .text.Task_Scheduler:000000000000012c $d
     /tmp/ccMrs0Mo.s:2447   .text.Task_Force_TriggerPendSV:0000000000000000 $t
     /tmp/ccMrs0Mo.s:2454   .text.Task_Force_TriggerPendSV:0000000000000000 Task_Force_TriggerPendSV
     /tmp/ccMrs0Mo.s:2485   .text.Task_Get_TaskNum:0000000000000000 $t
     /tmp/ccMrs0Mo.s:2492   .text.Task_Get_TaskNum:0000000000000000 Task_Get_TaskNum
     /tmp/ccMrs0Mo.s:2507   .text.Task_Get_TaskNum:0000000000000008 $d
     /tmp/ccMrs0Mo.s:2515   .text.Task_Create:0000000000000000 $t
     /tmp/ccMrs0Mo.s:2522   .text.Task_Create:0000000000000000 Task_Create
     /tmp/ccMrs0Mo.s:2900   .text.Task_Create:0000000000000210 $d
     /tmp/ccMrs0Mo.s:2912   .text.Task_Remove:0000000000000000 $t
     /tmp/ccMrs0Mo.s:2919   .text.Task_Remove:0000000000000000 Task_Remove
     /tmp/ccMrs0Mo.s:2975   .text.Task_Remove:0000000000000030 $d
     /tmp/ccMrs0Mo.s:2980   .text.TaskSystem_Start:0000000000000000 $t
     /tmp/ccMrs0Mo.s:2987   .text.TaskSystem_Start:0000000000000000 TaskSystem_Start
     /tmp/ccMrs0Mo.s:3067   .text.TaskSystem_Start:000000000000005c $d
     /tmp/ccMrs0Mo.s:3076   .text.Task_SetRunState:0000000000000000 $t
     /tmp/ccMrs0Mo.s:3083   .text.Task_SetRunState:0000000000000000 Task_SetRunState
     /tmp/ccMrs0Mo.s:3100   .text.Task_CountRunningTime:0000000000000000 $t
     /tmp/ccMrs0Mo.s:3107   .text.Task_CountRunningTime:0000000000000000 Task_CountRunningTime
     /tmp/ccMrs0Mo.s:3172   .text.Task_CountRunningTime:0000000000000038 $d
     /tmp/ccMrs0Mo.s:3177   .text.Task_Get_IdleUS:0000000000000000 $t
     /tmp/ccMrs0Mo.s:3184   .text.Task_Get_IdleUS:0000000000000000 Task_Get_IdleUS
     /tmp/ccMrs0Mo.s:3199   .text.Task_Get_IdleUS:0000000000000008 $d
     /tmp/ccMrs0Mo.s:3204   .text.Task_Get_IdleOcupy:0000000000000000 $t
ARM GAS  /tmp/ccMrs0Mo.s 			page 99


     /tmp/ccMrs0Mo.s:3211   .text.Task_Get_IdleOcupy:0000000000000000 Task_Get_IdleOcupy
     /tmp/ccMrs0Mo.s:3226   .text.Task_Get_IdleOcupy:0000000000000008 $d
     /tmp/ccMrs0Mo.s:3231   .text.TaskSys_Set_State:0000000000000000 $t
     /tmp/ccMrs0Mo.s:3238   .text.TaskSys_Set_State:0000000000000000 TaskSys_Set_State
     /tmp/ccMrs0Mo.s:3255   .text.TaskSys_Set_State:0000000000000008 $d
     /tmp/ccMrs0Mo.s:3260   .text.TaskSys_Get_State:0000000000000000 $t
     /tmp/ccMrs0Mo.s:3267   .text.TaskSys_Get_State:0000000000000000 TaskSys_Get_State
     /tmp/ccMrs0Mo.s:3283   .text.TaskSys_Get_State:0000000000000008 $d
     /tmp/ccMrs0Mo.s:3288   .text.Task_GetInfo_ByIndex:0000000000000000 $t
     /tmp/ccMrs0Mo.s:3295   .text.Task_GetInfo_ByIndex:0000000000000000 Task_GetInfo_ByIndex
     /tmp/ccMrs0Mo.s:3311   .text.Task_GetCurrentRunTask:0000000000000000 $t
     /tmp/ccMrs0Mo.s:3318   .text.Task_GetCurrentRunTask:0000000000000000 Task_GetCurrentRunTask
     /tmp/ccMrs0Mo.s:3333   .text.Task_GetCurrentRunTask:0000000000000008 $d
     /tmp/ccMrs0Mo.s:3363   .bss.PndHstTsk_Ptr:0000000000000000 PndHstTsk_Ptr
     /tmp/ccMrs0Mo.s:3356   .bss.NxtRunTsk_Ptr:0000000000000000 NxtRunTsk_Ptr
     /tmp/ccMrs0Mo.s:3349   .bss.CurRunTsk_Ptr:0000000000000000 CurRunTsk_Ptr
     /tmp/ccMrs0Mo.s:3345   .bss.CurRunTsk_Ptr:0000000000000000 $d
     /tmp/ccMrs0Mo.s:3352   .bss.NxtRunTsk_Ptr:0000000000000000 $d
     /tmp/ccMrs0Mo.s:3359   .bss.PndHstTsk_Ptr:0000000000000000 $d
     /tmp/ccMrs0Mo.s:3366   .bss.TaskSys_Idle_Ocupy:0000000000000000 $d
     /tmp/ccMrs0Mo.s:3370   .bss.TaskSys_Idle_Ocupy:0000000000000000 TaskSys_Idle_Ocupy
     /tmp/ccMrs0Mo.s:3373   .bss.TaskSys_Idle_US:0000000000000000 $d
     /tmp/ccMrs0Mo.s:3377   .bss.TaskSys_Idle_US:0000000000000000 TaskSys_Idle_US
     /tmp/ccMrs0Mo.s:3380   .bss.TaskSys_StartTime:0000000000000000 $d
     /tmp/ccMrs0Mo.s:3384   .bss.TaskSys_StartTime:0000000000000000 TaskSys_StartTime
     /tmp/ccMrs0Mo.s:3387   .bss.Task_OS_StkMem:0000000000000000 $d
     /tmp/ccMrs0Mo.s:3393   .bss.TskCrt_RegList:0000000000000000 $d
     /tmp/ccMrs0Mo.s:3397   .bss.TskCrt_RegList:0000000000000000 TskCrt_RegList
     /tmp/ccMrs0Mo.s:3400   .bss.TskHdl_BlkMap:0000000000000000 $d
     /tmp/ccMrs0Mo.s:3404   .bss.TskHdl_BlkMap:0000000000000000 TskHdl_BlkMap
     /tmp/ccMrs0Mo.s:3407   .bss.TskHdl_PndMap:0000000000000000 $d
     /tmp/ccMrs0Mo.s:3411   .bss.TskHdl_PndMap:0000000000000000 TskHdl_PndMap
     /tmp/ccMrs0Mo.s:3414   .bss.TskHdl_RdyMap:0000000000000000 $d
     /tmp/ccMrs0Mo.s:3418   .bss.TskHdl_RdyMap:0000000000000000 TskHdl_RdyMap
     /tmp/ccMrs0Mo.s:3424   .bss.TskSys_state:0000000000000000 TskSys_state
     /tmp/ccMrs0Mo.s:3425   .bss.TskSys_state:0000000000000000 $d
     /tmp/ccMrs0Mo.s:3430   .bss.taskOs_InitState.11474:0000000000000000 taskOs_InitState.11474
     /tmp/ccMrs0Mo.s:3431   .bss.taskOs_InitState.11474:0000000000000000 $d
     /tmp/ccMrs0Mo.s:3433   .rodata.Tsk_Handle:0000000000000000 $d
     /tmp/ccMrs0Mo.s:3437   .rodata.Tsk_Handle:0000000000000000 Tsk_Handle
     /tmp/ccMrs0Mo.s:2160   .text.Task_TriggerPendSV:000000000000000a $d
     /tmp/ccMrs0Mo.s:12335  .text.Task_TriggerPendSV:000000000000000c $d
     /tmp/ccMrs0Mo.s:1803   .text.Task_Load:0000000000000022 $d
     /tmp/ccMrs0Mo.s:12335  .text.Task_Load:0000000000000024 $d
     /tmp/ccMrs0Mo.s:12335  .text.Task_SetPendSVPro:0000000000000018 $d

UNDEFINED SYMBOLS
List_ItemInit
RuntimeObj_Reset
memset
__aeabi_ul2f
Get_CurrentRunningUs
Get_TimeDifference_Between
Get_TargetRunTime
RuntimeObj_CompareWithCurrent
List_traverse
__aeabi_ui2d
ARM GAS  /tmp/ccMrs0Mo.s 			page 100


__aeabi_ddiv
__aeabi_d2uiz
malloc
List_Init
List_Insert_Item
free
Runtime_Config
Runtime_Set_start_Callback
Runtime_Set_stop_Callback
Runtime_Set_tick_Callback
Runtime_Start
RunTime_Tick
