ARM GAS  C:\Users\huav\AppData\Local\Temp\ccWoDScA.s 			page 1


   1              		.cpu cortex-m4
   2              		.eabi_attribute 27, 1
   3              		.eabi_attribute 28, 1
   4              		.eabi_attribute 20, 1
   5              		.eabi_attribute 21, 1
   6              		.eabi_attribute 23, 3
   7              		.eabi_attribute 24, 1
   8              		.eabi_attribute 25, 1
   9              		.eabi_attribute 26, 1
  10              		.eabi_attribute 30, 1
  11              		.eabi_attribute 34, 1
  12              		.eabi_attribute 18, 4
  13              		.file	"Task_Input.c"
  14              		.text
  15              	.Ltext0:
  16              		.cfi_sections	.debug_frame
  17              		.section	.text.TaskInput_Init,"ax",%progbits
  18              		.align	1
  19              		.arch armv7e-m
  20              		.syntax unified
  21              		.thumb
  22              		.thumb_func
  23              		.fpu fpv4-sp-d16
  25              	TaskInput_Init:
  26              	.LFB126:
  27              		.file 1 "App/Task_Input/Task_Input.c"
   1:App/Task_Input/Task_Input.c **** #include "task_manager.h"
   2:App/Task_Input/Task_Input.c **** #include "Task_Input.h"
   3:App/Task_Input/Task_Input.c **** #include "Input_IO_Def.h"
   4:App/Task_Input/Task_Input.c **** 
   5:App/Task_Input/Task_Input.c **** Task_Handler SigInput_Tsk_Hdl;
   6:App/Task_Input/Task_Input.c **** 
   7:App/Task_Input/Task_Input.c **** /* internal variable */
   8:App/Task_Input/Task_Input.c **** static Input_Data_TypeDef InputData;
   9:App/Task_Input/Task_Input.c **** static TaskInput_Stage_List Task_Stage = TaskInput_Initialize;
  10:App/Task_Input/Task_Input.c **** 
  11:App/Task_Input/Task_Input.c **** static Gimbal_Proc_TypeDef Gimbal_L_ProcObj;
  12:App/Task_Input/Task_Input.c **** static Gimbal_Proc_TypeDef Gimbal_R_ProcObj;
  13:App/Task_Input/Task_Input.c **** 
  14:App/Task_Input/Task_Input.c **** static AnalogProc_Obj_TypeDef L_Pot_ProcObj;
  15:App/Task_Input/Task_Input.c **** static AnalogProc_Obj_TypeDef R_Pot_ProcObj;
  16:App/Task_Input/Task_Input.c **** 
  17:App/Task_Input/Task_Input.c **** /* input hardware abstract object */
  18:App/Task_Input/Task_Input.c **** static DevEncoder_Obj_TypeDef Encoder_Obj;
  19:App/Task_Input/Task_Input.c **** //static DevGimbal_Obj_TypeDef Gimbal_L_Obj;
  20:App/Task_Input/Task_Input.c **** //static DevGimbal_Obj_TypeDef Gimbal_R_Obj;
  21:App/Task_Input/Task_Input.c **** //static DevButton_TypeDef Btn_LShoulder_Obj;
  22:App/Task_Input/Task_Input.c **** //static DevButton_TypeDef Btn_RShoulder_Obj;
  23:App/Task_Input/Task_Input.c **** //static DirButton_Obj_TypeDef Btn_5Dir_Obj;
  24:App/Task_Input/Task_Input.c **** 
  25:App/Task_Input/Task_Input.c **** /* internal funciton */
  26:App/Task_Input/Task_Input.c **** static Input_Error_List TaskInput_Init(void);
  27:App/Task_Input/Task_Input.c **** static Input_Error_List TaskInput_Update(void);
  28:App/Task_Input/Task_Input.c **** Input_Data_TypeDef *TaskInput_GetData(void);
  29:App/Task_Input/Task_Input.c **** 
  30:App/Task_Input/Task_Input.c **** /* internal function */
  31:App/Task_Input/Task_Input.c **** 
ARM GAS  C:\Users\huav\AppData\Local\Temp\ccWoDScA.s 			page 2


  32:App/Task_Input/Task_Input.c **** /* external variable */
  33:App/Task_Input/Task_Input.c **** 
  34:App/Task_Input/Task_Input.c **** static Input_Error_List TaskInput_Init(void)
  35:App/Task_Input/Task_Input.c **** {
  28              		.loc 1 35 1 view -0
  29              		.cfi_startproc
  30              		@ args = 0, pretend = 0, frame = 48
  31              		@ frame_needed = 0, uses_anonymous_args = 0
  32 0000 30B5     		push	{r4, r5, lr}
  33              	.LCFI0:
  34              		.cfi_def_cfa_offset 12
  35              		.cfi_offset 4, -12
  36              		.cfi_offset 5, -8
  37              		.cfi_offset 14, -4
  38 0002 8FB0     		sub	sp, sp, #60
  39              	.LCFI1:
  40              		.cfi_def_cfa_offset 72
  36:App/Task_Input/Task_Input.c ****     /* encoder pin */
  37:App/Task_Input/Task_Input.c ****     DrvGPIO_Obj_TypeDef EncPin[Encoder_IO_Sum];
  41              		.loc 1 37 5 view .LVU1
  38:App/Task_Input/Task_Input.c **** 
  39:App/Task_Input/Task_Input.c ****     InputData.error = Input_Initial;
  42              		.loc 1 39 5 view .LVU2
  43              		.loc 1 39 21 is_stmt 0 view .LVU3
  44 0004 0124     		movs	r4, #1
  45 0006 164B     		ldr	r3, .L6
  46 0008 DC75     		strb	r4, [r3, #23]
  40:App/Task_Input/Task_Input.c **** 
  41:App/Task_Input/Task_Input.c ****     EncPin[Encoder_IO_A] = Encoder_A_Pin;
  47              		.loc 1 41 5 is_stmt 1 view .LVU4
  48              		.loc 1 41 26 is_stmt 0 view .LVU5
  49 000a 164B     		ldr	r3, .L6+4
  50 000c 0DF1080C 		add	ip, sp, #8
  51 0010 0FCB     		ldm	r3, {r0, r1, r2, r3}
  52 0012 8CE80F00 		stm	ip, {r0, r1, r2, r3}
  42:App/Task_Input/Task_Input.c ****     EncPin[Encoder_IO_B] = Encoder_B_Pin;
  53              		.loc 1 42 5 is_stmt 1 view .LVU6
  54              		.loc 1 42 26 is_stmt 0 view .LVU7
  55 0016 144B     		ldr	r3, .L6+8
  56 0018 0DF1180E 		add	lr, sp, #24
  57 001c 0FCB     		ldm	r3, {r0, r1, r2, r3}
  58 001e 8EE80F00 		stm	lr, {r0, r1, r2, r3}
  43:App/Task_Input/Task_Input.c ****     EncPin[Encoder_IO_Btn] = Encoder_Btn;
  59              		.loc 1 43 5 is_stmt 1 view .LVU8
  60              		.loc 1 43 28 is_stmt 0 view .LVU9
  61 0022 124B     		ldr	r3, .L6+12
  62 0024 0FCB     		ldm	r3, {r0, r1, r2, r3}
  63 0026 0EAD     		add	r5, sp, #56
  64 0028 05E90F00 		stmdb	r5, {r0, r1, r2, r3}
  44:App/Task_Input/Task_Input.c **** 
  45:App/Task_Input/Task_Input.c ****     /* init encoder */
  46:App/Task_Input/Task_Input.c ****     if (!DevEncoder.open(&Encoder_Obj, EncPin, true, Timer_8, TIM_Channel_1, TIM_Channel_2))
  65              		.loc 1 46 5 is_stmt 1 view .LVU10
  66              		.loc 1 46 20 is_stmt 0 view .LVU11
  67 002c 104B     		ldr	r3, .L6+16
  68 002e 1D68     		ldr	r5, [r3]
  69              		.loc 1 46 10 view .LVU12
ARM GAS  C:\Users\huav\AppData\Local\Temp\ccWoDScA.s 			page 3


  70 0030 0423     		movs	r3, #4
  71 0032 0193     		str	r3, [sp, #4]
  72 0034 0023     		movs	r3, #0
  73 0036 0093     		str	r3, [sp]
  74 0038 0323     		movs	r3, #3
  75 003a 2246     		mov	r2, r4
  76 003c 6146     		mov	r1, ip
  77 003e 0D48     		ldr	r0, .L6+20
  78 0040 A847     		blx	r5
  79              	.LVL0:
  80              		.loc 1 46 8 view .LVU13
  81 0042 48B1     		cbz	r0, .L5
  47:App/Task_Input/Task_Input.c ****     {
  48:App/Task_Input/Task_Input.c ****         InputData.error = Input_Encoder_Error;
  49:App/Task_Input/Task_Input.c ****         return Input_Encoder_Error;
  50:App/Task_Input/Task_Input.c ****     }
  51:App/Task_Input/Task_Input.c **** 
  52:App/Task_Input/Task_Input.c ****     DevEncoder.invert(&Encoder_Obj, Encoder_Dir_Invert);
  82              		.loc 1 52 5 is_stmt 1 view .LVU14
  83              		.loc 1 52 15 is_stmt 0 view .LVU15
  84 0044 0A4B     		ldr	r3, .L6+16
  85 0046 5B68     		ldr	r3, [r3, #4]
  86              		.loc 1 52 5 view .LVU16
  87 0048 0121     		movs	r1, #1
  88 004a 0A48     		ldr	r0, .L6+20
  89 004c 9847     		blx	r3
  90              	.LVL1:
  53:App/Task_Input/Task_Input.c **** 
  54:App/Task_Input/Task_Input.c ****     /* init gimbal */
  55:App/Task_Input/Task_Input.c **** 
  56:App/Task_Input/Task_Input.c ****     /* init direction button */
  57:App/Task_Input/Task_Input.c **** 
  58:App/Task_Input/Task_Input.c ****     /* init shoulder button */
  59:App/Task_Input/Task_Input.c **** 
  60:App/Task_Input/Task_Input.c ****     /* init shoulder toggle */
  61:App/Task_Input/Task_Input.c **** 
  62:App/Task_Input/Task_Input.c ****     /* init side pot */
  63:App/Task_Input/Task_Input.c **** 
  64:App/Task_Input/Task_Input.c ****     InputData.error = Input_NoError;
  91              		.loc 1 64 5 is_stmt 1 view .LVU17
  92              		.loc 1 64 21 is_stmt 0 view .LVU18
  93 004e 0020     		movs	r0, #0
  94 0050 034B     		ldr	r3, .L6
  95 0052 D875     		strb	r0, [r3, #23]
  65:App/Task_Input/Task_Input.c ****     return Input_NoError;
  96              		.loc 1 65 5 is_stmt 1 view .LVU19
  97              	.L3:
  66:App/Task_Input/Task_Input.c **** }
  98              		.loc 1 66 1 is_stmt 0 view .LVU20
  99 0054 0FB0     		add	sp, sp, #60
 100              	.LCFI2:
 101              		.cfi_remember_state
 102              		.cfi_def_cfa_offset 12
 103              		@ sp needed
 104 0056 30BD     		pop	{r4, r5, pc}
 105              	.L5:
 106              	.LCFI3:
ARM GAS  C:\Users\huav\AppData\Local\Temp\ccWoDScA.s 			page 4


 107              		.cfi_restore_state
  48:App/Task_Input/Task_Input.c ****         return Input_Encoder_Error;
 108              		.loc 1 48 9 is_stmt 1 view .LVU21
  48:App/Task_Input/Task_Input.c ****         return Input_Encoder_Error;
 109              		.loc 1 48 25 is_stmt 0 view .LVU22
 110 0058 0220     		movs	r0, #2
 111 005a 014B     		ldr	r3, .L6
 112 005c D875     		strb	r0, [r3, #23]
  49:App/Task_Input/Task_Input.c ****     }
 113              		.loc 1 49 9 is_stmt 1 view .LVU23
  49:App/Task_Input/Task_Input.c ****     }
 114              		.loc 1 49 16 is_stmt 0 view .LVU24
 115 005e F9E7     		b	.L3
 116              	.L7:
 117              		.align	2
 118              	.L6:
 119 0060 00000000 		.word	.LANCHOR0
 120 0064 00000000 		.word	Encoder_A_Pin
 121 0068 00000000 		.word	Encoder_B_Pin
 122 006c 00000000 		.word	Encoder_Btn
 123 0070 00000000 		.word	DevEncoder
 124 0074 00000000 		.word	.LANCHOR1
 125              		.cfi_endproc
 126              	.LFE126:
 128              		.section	.text.TaskInput_Update,"ax",%progbits
 129              		.align	1
 130              		.syntax unified
 131              		.thumb
 132              		.thumb_func
 133              		.fpu fpv4-sp-d16
 135              	TaskInput_Update:
 136              	.LFB129:
  67:App/Task_Input/Task_Input.c **** 
  68:App/Task_Input/Task_Input.c **** static int16_t TaskInput_Analog_Filter(int16_t in)
  69:App/Task_Input/Task_Input.c **** {
  70:App/Task_Input/Task_Input.c ****     int16_t flt_val = 0;
  71:App/Task_Input/Task_Input.c **** 
  72:App/Task_Input/Task_Input.c ****     /* filter the input analog value */
  73:App/Task_Input/Task_Input.c **** 
  74:App/Task_Input/Task_Input.c ****     return flt_val;
  75:App/Task_Input/Task_Input.c **** }
  76:App/Task_Input/Task_Input.c **** 
  77:App/Task_Input/Task_Input.c **** static int16_t TaskInput_AnalogValue_Map(int16_t in)
  78:App/Task_Input/Task_Input.c **** {
  79:App/Task_Input/Task_Input.c ****     int16_t map_val = 0;
  80:App/Task_Input/Task_Input.c ****     double gain = 0.0;
  81:App/Task_Input/Task_Input.c **** 
  82:App/Task_Input/Task_Input.c ****     /* include analog input liner and none liner condition map */
  83:App/Task_Input/Task_Input.c **** 
  84:App/Task_Input/Task_Input.c ****     return map_val;
  85:App/Task_Input/Task_Input.c **** }
  86:App/Task_Input/Task_Input.c **** 
  87:App/Task_Input/Task_Input.c **** static Input_Error_List TaskInput_Update(void)
  88:App/Task_Input/Task_Input.c **** {
 137              		.loc 1 88 1 is_stmt 1 view -0
 138              		.cfi_startproc
 139              		@ args = 0, pretend = 0, frame = 8
ARM GAS  C:\Users\huav\AppData\Local\Temp\ccWoDScA.s 			page 5


 140              		@ frame_needed = 0, uses_anonymous_args = 0
  89:App/Task_Input/Task_Input.c ****     if (InputData.error != Input_NoError)
 141              		.loc 1 89 5 view .LVU26
 142              		.loc 1 89 18 is_stmt 0 view .LVU27
 143 0000 094B     		ldr	r3, .L14
 144 0002 D87D     		ldrb	r0, [r3, #23]	@ zero_extendqisi2
 145              		.loc 1 89 8 view .LVU28
 146 0004 78B9     		cbnz	r0, .L11
  88:App/Task_Input/Task_Input.c ****     if (InputData.error != Input_NoError)
 147              		.loc 1 88 1 view .LVU29
 148 0006 10B5     		push	{r4, lr}
 149              	.LCFI4:
 150              		.cfi_def_cfa_offset 8
 151              		.cfi_offset 4, -8
 152              		.cfi_offset 14, -4
 153 0008 82B0     		sub	sp, sp, #8
 154              	.LCFI5:
 155              		.cfi_def_cfa_offset 16
  90:App/Task_Input/Task_Input.c ****         return InputData.error;
  91:App/Task_Input/Task_Input.c **** 
  92:App/Task_Input/Task_Input.c ****     /* get encdoer */
  93:App/Task_Input/Task_Input.c ****     InputData.Enc_Val = DevEncoder.get(&Encoder_Obj);
 156              		.loc 1 93 5 is_stmt 1 view .LVU30
 157              		.loc 1 93 35 is_stmt 0 view .LVU31
 158 000a 084B     		ldr	r3, .L14+4
 159 000c DB68     		ldr	r3, [r3, #12]
 160              		.loc 1 93 25 view .LVU32
 161 000e 064C     		ldr	r4, .L14
 162 0010 0749     		ldr	r1, .L14+8
 163 0012 6846     		mov	r0, sp
 164 0014 9847     		blx	r3
 165              	.LVL2:
 166 0016 009B     		ldr	r3, [sp]	@ unaligned
 167 0018 C4F80E30 		str	r3, [r4, #14]	@ unaligned
 168 001c BDF80430 		ldrh	r3, [sp, #4]	@ unaligned
 169 0020 6382     		strh	r3, [r4, #18]	@ unaligned
  94:App/Task_Input/Task_Input.c **** 
  95:App/Task_Input/Task_Input.c ****     /* analog input */
  96:App/Task_Input/Task_Input.c ****     /* get left gimbal */
  97:App/Task_Input/Task_Input.c **** 
  98:App/Task_Input/Task_Input.c ****     /* get right gimbal */
  99:App/Task_Input/Task_Input.c **** 
 100:App/Task_Input/Task_Input.c ****     /* get left side pot value */
 101:App/Task_Input/Task_Input.c **** 
 102:App/Task_Input/Task_Input.c ****     /* get right side pot value */
 103:App/Task_Input/Task_Input.c **** 
 104:App/Task_Input/Task_Input.c ****     /* get battery percent */
 105:App/Task_Input/Task_Input.c **** }
 170              		.loc 1 105 1 view .LVU33
 171 0022 02B0     		add	sp, sp, #8
 172              	.LCFI6:
 173              		.cfi_def_cfa_offset 8
 174              		@ sp needed
 175 0024 10BD     		pop	{r4, pc}
 176              	.L11:
 177              	.LCFI7:
 178              		.cfi_def_cfa_offset 0
ARM GAS  C:\Users\huav\AppData\Local\Temp\ccWoDScA.s 			page 6


 179              		.cfi_restore 4
 180              		.cfi_restore 14
 181 0026 7047     		bx	lr
 182              	.L15:
 183              		.align	2
 184              	.L14:
 185 0028 00000000 		.word	.LANCHOR0
 186 002c 00000000 		.word	DevEncoder
 187 0030 00000000 		.word	.LANCHOR1
 188              		.cfi_endproc
 189              	.LFE129:
 191              		.section	.text.TaskInput_GetData,"ax",%progbits
 192              		.align	1
 193              		.global	TaskInput_GetData
 194              		.syntax unified
 195              		.thumb
 196              		.thumb_func
 197              		.fpu fpv4-sp-d16
 199              	TaskInput_GetData:
 200              	.LFB131:
 106:App/Task_Input/Task_Input.c **** 
 107:App/Task_Input/Task_Input.c **** static void TaskInput_Gimbal_Cali(void)
 108:App/Task_Input/Task_Input.c **** {
 109:App/Task_Input/Task_Input.c **** }
 110:App/Task_Input/Task_Input.c **** 
 111:App/Task_Input/Task_Input.c **** Input_Data_TypeDef *TaskInput_GetData(void)
 112:App/Task_Input/Task_Input.c **** {
 201              		.loc 1 112 1 is_stmt 1 view -0
 202              		.cfi_startproc
 203              		@ args = 0, pretend = 0, frame = 0
 204              		@ frame_needed = 0, uses_anonymous_args = 0
 205              		@ link register save eliminated.
 113:App/Task_Input/Task_Input.c ****     return &InputData;
 206              		.loc 1 113 5 view .LVU35
 114:App/Task_Input/Task_Input.c **** }
 207              		.loc 1 114 1 is_stmt 0 view .LVU36
 208 0000 0048     		ldr	r0, .L17
 209 0002 7047     		bx	lr
 210              	.L18:
 211              		.align	2
 212              	.L17:
 213 0004 00000000 		.word	.LANCHOR0
 214              		.cfi_endproc
 215              	.LFE131:
 217              		.section	.text.TaskInput_Core,"ax",%progbits
 218              		.align	1
 219              		.global	TaskInput_Core
 220              		.syntax unified
 221              		.thumb
 222              		.thumb_func
 223              		.fpu fpv4-sp-d16
 225              	TaskInput_Core:
 226              	.LVL3:
 227              	.LFB132:
 115:App/Task_Input/Task_Input.c **** 
 116:App/Task_Input/Task_Input.c **** void TaskInput_Core(Task_Handler self)
 117:App/Task_Input/Task_Input.c **** {
ARM GAS  C:\Users\huav\AppData\Local\Temp\ccWoDScA.s 			page 7


 228              		.loc 1 117 1 is_stmt 1 view -0
 229              		.cfi_startproc
 230              		@ args = 0, pretend = 0, frame = 0
 231              		@ frame_needed = 0, uses_anonymous_args = 0
 232              		.loc 1 117 1 is_stmt 0 view .LVU38
 233 0000 08B5     		push	{r3, lr}
 234              	.LCFI8:
 235              		.cfi_def_cfa_offset 8
 236              		.cfi_offset 3, -8
 237              		.cfi_offset 14, -4
 118:App/Task_Input/Task_Input.c ****     switch (Task_Stage)
 238              		.loc 1 118 5 is_stmt 1 view .LVU39
 239 0002 0A4B     		ldr	r3, .L25
 240 0004 1B78     		ldrb	r3, [r3]	@ zero_extendqisi2
 241 0006 13B1     		cbz	r3, .L20
 242 0008 022B     		cmp	r3, #2
 243 000a 0BD0     		beq	.L21
 244              	.LVL4:
 245              	.L19:
 119:App/Task_Input/Task_Input.c ****     {
 120:App/Task_Input/Task_Input.c ****     case TaskInput_Initialize:
 121:App/Task_Input/Task_Input.c ****         if (TaskInput_Init() != Input_NoError)
 122:App/Task_Input/Task_Input.c ****         {
 123:App/Task_Input/Task_Input.c ****             Task_Stage = TaskInput_Init_Error;
 124:App/Task_Input/Task_Input.c ****         }
 125:App/Task_Input/Task_Input.c ****         else
 126:App/Task_Input/Task_Input.c ****             Task_Stage = TaskInput_Updating;
 127:App/Task_Input/Task_Input.c ****         break;
 128:App/Task_Input/Task_Input.c **** 
 129:App/Task_Input/Task_Input.c ****     case TaskInput_Init_Error:
 130:App/Task_Input/Task_Input.c ****         /* TODO Error Process */
 131:App/Task_Input/Task_Input.c ****         break;
 132:App/Task_Input/Task_Input.c **** 
 133:App/Task_Input/Task_Input.c ****     case TaskInput_Updating:
 134:App/Task_Input/Task_Input.c ****         TaskInput_Update();
 135:App/Task_Input/Task_Input.c ****         break;
 136:App/Task_Input/Task_Input.c **** 
 137:App/Task_Input/Task_Input.c ****     default:
 138:App/Task_Input/Task_Input.c ****         break;
 139:App/Task_Input/Task_Input.c ****     }
 140:App/Task_Input/Task_Input.c **** }
 246              		.loc 1 140 1 is_stmt 0 view .LVU40
 247 000c 08BD     		pop	{r3, pc}
 248              	.LVL5:
 249              	.L20:
 121:App/Task_Input/Task_Input.c ****         {
 250              		.loc 1 121 9 is_stmt 1 view .LVU41
 121:App/Task_Input/Task_Input.c ****         {
 251              		.loc 1 121 13 is_stmt 0 view .LVU42
 252 000e FFF7FEFF 		bl	TaskInput_Init
 253              	.LVL6:
 121:App/Task_Input/Task_Input.c ****         {
 254              		.loc 1 121 12 view .LVU43
 255 0012 18B1     		cbz	r0, .L23
 123:App/Task_Input/Task_Input.c ****         }
 256              		.loc 1 123 13 is_stmt 1 view .LVU44
 123:App/Task_Input/Task_Input.c ****         }
ARM GAS  C:\Users\huav\AppData\Local\Temp\ccWoDScA.s 			page 8


 257              		.loc 1 123 24 is_stmt 0 view .LVU45
 258 0014 054B     		ldr	r3, .L25
 259 0016 0122     		movs	r2, #1
 260 0018 1A70     		strb	r2, [r3]
 261 001a F7E7     		b	.L19
 262              	.L23:
 126:App/Task_Input/Task_Input.c ****         break;
 263              		.loc 1 126 13 is_stmt 1 view .LVU46
 126:App/Task_Input/Task_Input.c ****         break;
 264              		.loc 1 126 24 is_stmt 0 view .LVU47
 265 001c 034B     		ldr	r3, .L25
 266 001e 0222     		movs	r2, #2
 267 0020 1A70     		strb	r2, [r3]
 268 0022 F3E7     		b	.L19
 269              	.LVL7:
 270              	.L21:
 134:App/Task_Input/Task_Input.c ****         break;
 271              		.loc 1 134 9 is_stmt 1 view .LVU48
 272 0024 FFF7FEFF 		bl	TaskInput_Update
 273              	.LVL8:
 135:App/Task_Input/Task_Input.c **** 
 274              		.loc 1 135 9 view .LVU49
 275              		.loc 1 140 1 is_stmt 0 view .LVU50
 276 0028 F0E7     		b	.L19
 277              	.L26:
 278 002a 00BF     		.align	2
 279              	.L25:
 280 002c 00000000 		.word	.LANCHOR2
 281              		.cfi_endproc
 282              	.LFE132:
 284              		.global	SigInput_Tsk_Hdl
 285              		.section	.bss.Encoder_Obj,"aw",%nobits
 286              		.align	2
 287              		.set	.LANCHOR1,. + 0
 290              	Encoder_Obj:
 291 0000 00000000 		.space	76
 291      00000000 
 291      00000000 
 291      00000000 
 291      00000000 
 292              		.section	.bss.InputData,"aw",%nobits
 293              		.align	2
 294              		.set	.LANCHOR0,. + 0
 297              	InputData:
 298 0000 00000000 		.space	24
 298      00000000 
 298      00000000 
 298      00000000 
 298      00000000 
 299              		.section	.bss.SigInput_Tsk_Hdl,"aw",%nobits
 300              		.align	2
 303              	SigInput_Tsk_Hdl:
 304 0000 00000000 		.space	4
 305              		.section	.bss.Task_Stage,"aw",%nobits
 306              		.set	.LANCHOR2,. + 0
 309              	Task_Stage:
 310 0000 00       		.space	1
ARM GAS  C:\Users\huav\AppData\Local\Temp\ccWoDScA.s 			page 9


 311              		.text
 312              	.Letext0:
 313              		.file 2 "c:\\program files (x86)\\gnu arm embedded toolchain\\10 2020-q4-major\\arm-none-eabi\\inc
 314              		.file 3 "c:\\program files (x86)\\gnu arm embedded toolchain\\10 2020-q4-major\\arm-none-eabi\\inc
 315              		.file 4 "SYS/task_manager/task_manager.h"
 316              		.file 5 "Drv/drv_gpio.h"
 317              		.file 6 "Dev/Dev_Toggle.h"
 318              		.file 7 "Dev/Dev_5DirButton.h"
 319              		.file 8 "Dev/Dev_Gimbal.h"
 320              		.file 9 "Bsp/periph_timer.h"
 321              		.file 10 "Drv/drv_timer.h"
 322              		.file 11 "Dev/Dev_Encoder.h"
 323              		.file 12 "App/Task_Input/Task_Input.h"
 324              		.file 13 "App/Task_Input/Input_IO_Def.h"
ARM GAS  C:\Users\huav\AppData\Local\Temp\ccWoDScA.s 			page 10

