ARM GAS  /tmp/cc111sVe.s 			page 1


   1              		.cpu cortex-m4
   2              		.eabi_attribute 27, 1
   3              		.eabi_attribute 28, 1
   4              		.eabi_attribute 20, 1
   5              		.eabi_attribute 21, 1
   6              		.eabi_attribute 23, 3
   7              		.eabi_attribute 24, 1
   8              		.eabi_attribute 25, 1
   9              		.eabi_attribute 26, 1
  10              		.eabi_attribute 30, 1
  11              		.eabi_attribute 34, 1
  12              		.eabi_attribute 18, 4
  13              		.file	"Task_Input.c"
  14              		.text
  15              	.Ltext0:
  16              		.cfi_sections	.debug_frame
  17              		.section	.text.TaskInput_Init,"ax",%progbits
  18              		.align	1
  19              		.arch armv7e-m
  20              		.syntax unified
  21              		.thumb
  22              		.thumb_func
  23              		.fpu fpv4-sp-d16
  25              	TaskInput_Init:
  26              	.LFB126:
  27              		.file 1 "App/Task_Input/Task_Input.c"
   1:App/Task_Input/Task_Input.c **** #include "task_manager.h"
   2:App/Task_Input/Task_Input.c **** #include "Task_Input.h"
   3:App/Task_Input/Task_Input.c **** #include "Input_IO_Def.h"
   4:App/Task_Input/Task_Input.c **** 
   5:App/Task_Input/Task_Input.c **** /* internal variable */
   6:App/Task_Input/Task_Input.c **** static Input_Data_TypeDef InputData;
   7:App/Task_Input/Task_Input.c **** static TaskInput_Stage_List Task_Stage = TaskInput_Initialize;
   8:App/Task_Input/Task_Input.c **** 
   9:App/Task_Input/Task_Input.c **** static Gimbal_Proc_TypeDef Gimbal_L_ProcObj;
  10:App/Task_Input/Task_Input.c **** static Gimbal_Proc_TypeDef Gimbal_R_ProcObj;
  11:App/Task_Input/Task_Input.c **** 
  12:App/Task_Input/Task_Input.c **** static AnalogProc_Obj_TypeDef L_Pot_ProcObj;
  13:App/Task_Input/Task_Input.c **** static AnalogProc_Obj_TypeDef R_Pot_ProcObj;
  14:App/Task_Input/Task_Input.c **** 
  15:App/Task_Input/Task_Input.c **** /* input hardware abstract object */
  16:App/Task_Input/Task_Input.c **** static DevEncoder_Obj_TypeDef Encoder_Obj;
  17:App/Task_Input/Task_Input.c **** //static DevGimbal_Obj_TypeDef Gimbal_L_Obj;
  18:App/Task_Input/Task_Input.c **** //static DevGimbal_Obj_TypeDef Gimbal_R_Obj;
  19:App/Task_Input/Task_Input.c **** //static DevButton_TypeDef Btn_LShoulder_Obj;
  20:App/Task_Input/Task_Input.c **** //static DevButton_TypeDef Btn_RShoulder_Obj;
  21:App/Task_Input/Task_Input.c **** //static DirButton_Obj_TypeDef Btn_5Dir_Obj;
  22:App/Task_Input/Task_Input.c **** 
  23:App/Task_Input/Task_Input.c **** /* internal funciton */
  24:App/Task_Input/Task_Input.c **** static Input_Error_List TaskInput_Init(void);
  25:App/Task_Input/Task_Input.c **** static Input_Error_List TaskInput_Update(void);
  26:App/Task_Input/Task_Input.c **** Input_Data_TypeDef TaskInput_GetData(void);
  27:App/Task_Input/Task_Input.c **** 
  28:App/Task_Input/Task_Input.c **** /* internal function */
  29:App/Task_Input/Task_Input.c **** 
  30:App/Task_Input/Task_Input.c **** /* external variable */
  31:App/Task_Input/Task_Input.c **** 
ARM GAS  /tmp/cc111sVe.s 			page 2


  32:App/Task_Input/Task_Input.c **** static Input_Error_List TaskInput_Init(void)
  33:App/Task_Input/Task_Input.c **** {
  28              		.loc 1 33 1 view -0
  29              		.cfi_startproc
  30              		@ args = 0, pretend = 0, frame = 48
  31              		@ frame_needed = 0, uses_anonymous_args = 0
  32 0000 70B5     		push	{r4, r5, r6, lr}
  33              	.LCFI0:
  34              		.cfi_def_cfa_offset 16
  35              		.cfi_offset 4, -16
  36              		.cfi_offset 5, -12
  37              		.cfi_offset 6, -8
  38              		.cfi_offset 14, -4
  39 0002 8EB0     		sub	sp, sp, #56
  40              	.LCFI1:
  41              		.cfi_def_cfa_offset 72
  34:App/Task_Input/Task_Input.c ****     /* encoder pin */
  35:App/Task_Input/Task_Input.c ****     DrvGPIO_Obj_TypeDef EncPin[Encoder_IO_Sum];
  42              		.loc 1 35 5 view .LVU1
  36:App/Task_Input/Task_Input.c **** 
  37:App/Task_Input/Task_Input.c ****     InputData.error = Input_Initial;
  43              		.loc 1 37 5 view .LVU2
  44              		.loc 1 37 21 is_stmt 0 view .LVU3
  45 0004 0126     		movs	r6, #1
  46 0006 134B     		ldr	r3, .L6
  47 0008 DE75     		strb	r6, [r3, #23]
  38:App/Task_Input/Task_Input.c **** 
  39:App/Task_Input/Task_Input.c ****     EncPin[Encoder_IO_A] = Encoder_A_Pin;
  48              		.loc 1 39 5 is_stmt 1 view .LVU4
  49              		.loc 1 39 26 is_stmt 0 view .LVU5
  50 000a 134B     		ldr	r3, .L6+4
  51 000c 02AC     		add	r4, sp, #8
  52 000e 0FCB     		ldm	r3, {r0, r1, r2, r3}
  53 0010 84E80F00 		stm	r4, {r0, r1, r2, r3}
  40:App/Task_Input/Task_Input.c ****     EncPin[Encoder_IO_B] = Encoder_B_Pin;
  54              		.loc 1 40 5 is_stmt 1 view .LVU6
  55              		.loc 1 40 26 is_stmt 0 view .LVU7
  56 0014 114B     		ldr	r3, .L6+8
  57 0016 06AD     		add	r5, sp, #24
  58 0018 0FCB     		ldm	r3, {r0, r1, r2, r3}
  59 001a 85E80F00 		stm	r5, {r0, r1, r2, r3}
  41:App/Task_Input/Task_Input.c ****     EncPin[Encoder_IO_Btn] = Encoder_Btn;
  60              		.loc 1 41 5 is_stmt 1 view .LVU8
  61              		.loc 1 41 28 is_stmt 0 view .LVU9
  62 001e 104B     		ldr	r3, .L6+12
  63 0020 0FCB     		ldm	r3, {r0, r1, r2, r3}
  64 0022 0EAD     		add	r5, sp, #56
  65 0024 05E90F00 		stmdb	r5, {r0, r1, r2, r3}
  42:App/Task_Input/Task_Input.c **** 
  43:App/Task_Input/Task_Input.c ****     /* init encoder */
  44:App/Task_Input/Task_Input.c ****     if (!DevEncoder.open(&Encoder_Obj, EncPin, true, Timer_3, TIM_Channel_1, TIM_Channel_2))
  66              		.loc 1 44 5 is_stmt 1 view .LVU10
  67              		.loc 1 44 20 is_stmt 0 view .LVU11
  68 0028 0E4B     		ldr	r3, .L6+16
  69 002a 1D68     		ldr	r5, [r3]
  70              		.loc 1 44 10 view .LVU12
  71 002c 0423     		movs	r3, #4
ARM GAS  /tmp/cc111sVe.s 			page 3


  72 002e 0193     		str	r3, [sp, #4]
  73 0030 0023     		movs	r3, #0
  74 0032 0093     		str	r3, [sp]
  75 0034 3346     		mov	r3, r6
  76 0036 3246     		mov	r2, r6
  77 0038 2146     		mov	r1, r4
  78 003a 0B48     		ldr	r0, .L6+20
  79 003c A847     		blx	r5
  80              	.LVL0:
  81              		.loc 1 44 8 view .LVU13
  82 003e 20B1     		cbz	r0, .L5
  45:App/Task_Input/Task_Input.c ****     {
  46:App/Task_Input/Task_Input.c ****         InputData.error = Input_Encoder_Error;
  47:App/Task_Input/Task_Input.c ****         return Input_Encoder_Error;
  48:App/Task_Input/Task_Input.c ****     }
  49:App/Task_Input/Task_Input.c **** 
  50:App/Task_Input/Task_Input.c ****     /* init gimbal */
  51:App/Task_Input/Task_Input.c **** 
  52:App/Task_Input/Task_Input.c ****     /* init direction button */
  53:App/Task_Input/Task_Input.c **** 
  54:App/Task_Input/Task_Input.c ****     /* init shoulder button */
  55:App/Task_Input/Task_Input.c **** 
  56:App/Task_Input/Task_Input.c ****     /* init shoulder toggle */
  57:App/Task_Input/Task_Input.c **** 
  58:App/Task_Input/Task_Input.c ****     /* init side pot */
  59:App/Task_Input/Task_Input.c **** 
  60:App/Task_Input/Task_Input.c ****     InputData.error = Input_NoError;
  83              		.loc 1 60 5 is_stmt 1 view .LVU14
  84              		.loc 1 60 21 is_stmt 0 view .LVU15
  85 0040 0020     		movs	r0, #0
  86 0042 044B     		ldr	r3, .L6
  87 0044 D875     		strb	r0, [r3, #23]
  61:App/Task_Input/Task_Input.c ****     return Input_NoError;
  88              		.loc 1 61 5 is_stmt 1 view .LVU16
  89              	.L3:
  62:App/Task_Input/Task_Input.c **** }
  90              		.loc 1 62 1 is_stmt 0 view .LVU17
  91 0046 0EB0     		add	sp, sp, #56
  92              	.LCFI2:
  93              		.cfi_remember_state
  94              		.cfi_def_cfa_offset 16
  95              		@ sp needed
  96 0048 70BD     		pop	{r4, r5, r6, pc}
  97              	.L5:
  98              	.LCFI3:
  99              		.cfi_restore_state
  46:App/Task_Input/Task_Input.c ****         return Input_Encoder_Error;
 100              		.loc 1 46 9 is_stmt 1 view .LVU18
  46:App/Task_Input/Task_Input.c ****         return Input_Encoder_Error;
 101              		.loc 1 46 25 is_stmt 0 view .LVU19
 102 004a 0220     		movs	r0, #2
 103 004c 014B     		ldr	r3, .L6
 104 004e D875     		strb	r0, [r3, #23]
  47:App/Task_Input/Task_Input.c ****     }
 105              		.loc 1 47 9 is_stmt 1 view .LVU20
  47:App/Task_Input/Task_Input.c ****     }
 106              		.loc 1 47 16 is_stmt 0 view .LVU21
ARM GAS  /tmp/cc111sVe.s 			page 4


 107 0050 F9E7     		b	.L3
 108              	.L7:
 109 0052 00BF     		.align	2
 110              	.L6:
 111 0054 00000000 		.word	.LANCHOR0
 112 0058 00000000 		.word	Encoder_A_Pin
 113 005c 00000000 		.word	Encoder_B_Pin
 114 0060 00000000 		.word	Encoder_Btn
 115 0064 00000000 		.word	DevEncoder
 116 0068 00000000 		.word	.LANCHOR1
 117              		.cfi_endproc
 118              	.LFE126:
 120              		.section	.text.TaskInput_Update,"ax",%progbits
 121              		.align	1
 122              		.syntax unified
 123              		.thumb
 124              		.thumb_func
 125              		.fpu fpv4-sp-d16
 127              	TaskInput_Update:
 128              	.LFB129:
  63:App/Task_Input/Task_Input.c **** 
  64:App/Task_Input/Task_Input.c **** static int16_t TaskInput_Analog_Filter(int16_t in)
  65:App/Task_Input/Task_Input.c **** {
  66:App/Task_Input/Task_Input.c ****     int16_t flt_val = 0;
  67:App/Task_Input/Task_Input.c **** 
  68:App/Task_Input/Task_Input.c ****     /* filter the input analog value */
  69:App/Task_Input/Task_Input.c **** 
  70:App/Task_Input/Task_Input.c ****     return flt_val;
  71:App/Task_Input/Task_Input.c **** }
  72:App/Task_Input/Task_Input.c **** 
  73:App/Task_Input/Task_Input.c **** static int16_t TaskInput_AnalogValue_Map(int16_t in)
  74:App/Task_Input/Task_Input.c **** {
  75:App/Task_Input/Task_Input.c ****     int16_t map_val = 0;
  76:App/Task_Input/Task_Input.c ****     double gain = 0.0;
  77:App/Task_Input/Task_Input.c **** 
  78:App/Task_Input/Task_Input.c ****     /* include analog input liner and none liner condition map */
  79:App/Task_Input/Task_Input.c **** 
  80:App/Task_Input/Task_Input.c ****     return map_val;
  81:App/Task_Input/Task_Input.c **** }
  82:App/Task_Input/Task_Input.c **** 
  83:App/Task_Input/Task_Input.c **** static Input_Error_List TaskInput_Update(void)
  84:App/Task_Input/Task_Input.c **** {
 129              		.loc 1 84 1 is_stmt 1 view -0
 130              		.cfi_startproc
 131              		@ args = 0, pretend = 0, frame = 8
 132              		@ frame_needed = 0, uses_anonymous_args = 0
  85:App/Task_Input/Task_Input.c ****     if (InputData.error != Input_NoError)
 133              		.loc 1 85 5 view .LVU23
 134              		.loc 1 85 18 is_stmt 0 view .LVU24
 135 0000 094B     		ldr	r3, .L14
 136 0002 D87D     		ldrb	r0, [r3, #23]	@ zero_extendqisi2
 137              		.loc 1 85 8 view .LVU25
 138 0004 78B9     		cbnz	r0, .L11
  84:App/Task_Input/Task_Input.c ****     if (InputData.error != Input_NoError)
 139              		.loc 1 84 1 view .LVU26
 140 0006 10B5     		push	{r4, lr}
 141              	.LCFI4:
ARM GAS  /tmp/cc111sVe.s 			page 5


 142              		.cfi_def_cfa_offset 8
 143              		.cfi_offset 4, -8
 144              		.cfi_offset 14, -4
 145 0008 82B0     		sub	sp, sp, #8
 146              	.LCFI5:
 147              		.cfi_def_cfa_offset 16
  86:App/Task_Input/Task_Input.c ****         return InputData.error;
  87:App/Task_Input/Task_Input.c **** 
  88:App/Task_Input/Task_Input.c ****     /* get encdoer */
  89:App/Task_Input/Task_Input.c ****     InputData.Enc_Val = DevEncoder.get(&Encoder_Obj);
 148              		.loc 1 89 5 is_stmt 1 view .LVU27
 149              		.loc 1 89 35 is_stmt 0 view .LVU28
 150 000a 084B     		ldr	r3, .L14+4
 151 000c DB68     		ldr	r3, [r3, #12]
 152              		.loc 1 89 25 view .LVU29
 153 000e 064C     		ldr	r4, .L14
 154 0010 0749     		ldr	r1, .L14+8
 155 0012 6846     		mov	r0, sp
 156 0014 9847     		blx	r3
 157              	.LVL1:
 158 0016 009B     		ldr	r3, [sp]	@ unaligned
 159 0018 C4F80E30 		str	r3, [r4, #14]	@ unaligned
 160 001c BDF80430 		ldrh	r3, [sp, #4]	@ unaligned
 161 0020 6382     		strh	r3, [r4, #18]	@ unaligned
  90:App/Task_Input/Task_Input.c **** 
  91:App/Task_Input/Task_Input.c ****     /* analog input */
  92:App/Task_Input/Task_Input.c ****     /* get left gimbal */
  93:App/Task_Input/Task_Input.c **** 
  94:App/Task_Input/Task_Input.c ****     /* get right gimbal */
  95:App/Task_Input/Task_Input.c **** 
  96:App/Task_Input/Task_Input.c ****     /* get left side pot value */
  97:App/Task_Input/Task_Input.c **** 
  98:App/Task_Input/Task_Input.c ****     /* get right side pot value */
  99:App/Task_Input/Task_Input.c **** 
 100:App/Task_Input/Task_Input.c ****     /* get battery percent */
 101:App/Task_Input/Task_Input.c **** }
 162              		.loc 1 101 1 view .LVU30
 163 0022 02B0     		add	sp, sp, #8
 164              	.LCFI6:
 165              		.cfi_def_cfa_offset 8
 166              		@ sp needed
 167 0024 10BD     		pop	{r4, pc}
 168              	.L11:
 169              	.LCFI7:
 170              		.cfi_def_cfa_offset 0
 171              		.cfi_restore 4
 172              		.cfi_restore 14
 173 0026 7047     		bx	lr
 174              	.L15:
 175              		.align	2
 176              	.L14:
 177 0028 00000000 		.word	.LANCHOR0
 178 002c 00000000 		.word	DevEncoder
 179 0030 00000000 		.word	.LANCHOR1
 180              		.cfi_endproc
 181              	.LFE129:
 183              		.section	.text.TaskInput_GetData,"ax",%progbits
ARM GAS  /tmp/cc111sVe.s 			page 6


 184              		.align	1
 185              		.global	TaskInput_GetData
 186              		.syntax unified
 187              		.thumb
 188              		.thumb_func
 189              		.fpu fpv4-sp-d16
 191              	TaskInput_GetData:
 192              	.LVL2:
 193              	.LFB131:
 102:App/Task_Input/Task_Input.c **** 
 103:App/Task_Input/Task_Input.c **** static void TaskInput_Gimbal_Cali(void)
 104:App/Task_Input/Task_Input.c **** {
 105:App/Task_Input/Task_Input.c **** }
 106:App/Task_Input/Task_Input.c **** 
 107:App/Task_Input/Task_Input.c **** Input_Data_TypeDef TaskInput_GetData(void)
 108:App/Task_Input/Task_Input.c **** {
 194              		.loc 1 108 1 is_stmt 1 view -0
 195              		.cfi_startproc
 196              		@ args = 0, pretend = 0, frame = 0
 197              		@ frame_needed = 0, uses_anonymous_args = 0
 198              		@ link register save eliminated.
 199              		.loc 1 108 1 is_stmt 0 view .LVU32
 200 0000 30B4     		push	{r4, r5}
 201              	.LCFI8:
 202              		.cfi_def_cfa_offset 8
 203              		.cfi_offset 4, -8
 204              		.cfi_offset 5, -4
 205 0002 0546     		mov	r5, r0
 109:App/Task_Input/Task_Input.c ****     return InputData;
 206              		.loc 1 109 5 is_stmt 1 view .LVU33
 207              		.loc 1 109 12 is_stmt 0 view .LVU34
 208 0004 054C     		ldr	r4, .L18
 209 0006 0FCC     		ldmia	r4!, {r0, r1, r2, r3}
 210              	.LVL3:
 211              		.loc 1 109 12 view .LVU35
 212 0008 2860     		str	r0, [r5]	@ unaligned
 213 000a 6960     		str	r1, [r5, #4]	@ unaligned
 214 000c AA60     		str	r2, [r5, #8]	@ unaligned
 215 000e EB60     		str	r3, [r5, #12]	@ unaligned
 216 0010 03CC     		ldmia	r4!, {r0, r1}
 217 0012 2861     		str	r0, [r5, #16]	@ unaligned
 218 0014 6961     		str	r1, [r5, #20]	@ unaligned
 110:App/Task_Input/Task_Input.c **** }
 219              		.loc 1 110 1 view .LVU36
 220 0016 2846     		mov	r0, r5
 221 0018 30BC     		pop	{r4, r5}
 222              	.LCFI9:
 223              		.cfi_restore 5
 224              		.cfi_restore 4
 225              		.cfi_def_cfa_offset 0
 226              	.LVL4:
 227              		.loc 1 110 1 view .LVU37
 228 001a 7047     		bx	lr
 229              	.L19:
 230              		.align	2
 231              	.L18:
 232 001c 00000000 		.word	.LANCHOR0
ARM GAS  /tmp/cc111sVe.s 			page 7


 233              		.cfi_endproc
 234              	.LFE131:
 236              		.section	.text.TaskInput_Core,"ax",%progbits
 237              		.align	1
 238              		.global	TaskInput_Core
 239              		.syntax unified
 240              		.thumb
 241              		.thumb_func
 242              		.fpu fpv4-sp-d16
 244              	TaskInput_Core:
 245              	.LVL5:
 246              	.LFB132:
 111:App/Task_Input/Task_Input.c **** 
 112:App/Task_Input/Task_Input.c **** void TaskInput_Core(Task_Handler self)
 113:App/Task_Input/Task_Input.c **** {
 247              		.loc 1 113 1 is_stmt 1 view -0
 248              		.cfi_startproc
 249              		@ args = 0, pretend = 0, frame = 0
 250              		@ frame_needed = 0, uses_anonymous_args = 0
 251              		.loc 1 113 1 is_stmt 0 view .LVU39
 252 0000 08B5     		push	{r3, lr}
 253              	.LCFI10:
 254              		.cfi_def_cfa_offset 8
 255              		.cfi_offset 3, -8
 256              		.cfi_offset 14, -4
 114:App/Task_Input/Task_Input.c ****     switch (Task_Stage)
 257              		.loc 1 114 5 is_stmt 1 view .LVU40
 258 0002 0A4B     		ldr	r3, .L26
 259 0004 1B78     		ldrb	r3, [r3]	@ zero_extendqisi2
 260 0006 13B1     		cbz	r3, .L21
 261 0008 022B     		cmp	r3, #2
 262 000a 0BD0     		beq	.L22
 263              	.LVL6:
 264              	.L20:
 115:App/Task_Input/Task_Input.c ****     {
 116:App/Task_Input/Task_Input.c ****     case TaskInput_Initialize:
 117:App/Task_Input/Task_Input.c ****         if (TaskInput_Init() != Input_NoError)
 118:App/Task_Input/Task_Input.c ****         {
 119:App/Task_Input/Task_Input.c ****             Task_Stage = TaskInput_Init_Error;
 120:App/Task_Input/Task_Input.c ****         }
 121:App/Task_Input/Task_Input.c ****         else
 122:App/Task_Input/Task_Input.c ****             Task_Stage = TaskInput_Updating;
 123:App/Task_Input/Task_Input.c ****         break;
 124:App/Task_Input/Task_Input.c **** 
 125:App/Task_Input/Task_Input.c ****     case TaskInput_Init_Error:
 126:App/Task_Input/Task_Input.c ****         /* TODO Error Process */
 127:App/Task_Input/Task_Input.c ****         break;
 128:App/Task_Input/Task_Input.c **** 
 129:App/Task_Input/Task_Input.c ****     case TaskInput_Updating:
 130:App/Task_Input/Task_Input.c ****         TaskInput_Update();
 131:App/Task_Input/Task_Input.c ****         break;
 132:App/Task_Input/Task_Input.c **** 
 133:App/Task_Input/Task_Input.c ****     default:
 134:App/Task_Input/Task_Input.c ****         break;
 135:App/Task_Input/Task_Input.c ****     }
 136:App/Task_Input/Task_Input.c **** }
 265              		.loc 1 136 1 is_stmt 0 view .LVU41
ARM GAS  /tmp/cc111sVe.s 			page 8


 266 000c 08BD     		pop	{r3, pc}
 267              	.LVL7:
 268              	.L21:
 117:App/Task_Input/Task_Input.c ****         {
 269              		.loc 1 117 9 is_stmt 1 view .LVU42
 117:App/Task_Input/Task_Input.c ****         {
 270              		.loc 1 117 13 is_stmt 0 view .LVU43
 271 000e FFF7FEFF 		bl	TaskInput_Init
 272              	.LVL8:
 117:App/Task_Input/Task_Input.c ****         {
 273              		.loc 1 117 12 view .LVU44
 274 0012 18B1     		cbz	r0, .L24
 119:App/Task_Input/Task_Input.c ****         }
 275              		.loc 1 119 13 is_stmt 1 view .LVU45
 119:App/Task_Input/Task_Input.c ****         }
 276              		.loc 1 119 24 is_stmt 0 view .LVU46
 277 0014 054B     		ldr	r3, .L26
 278 0016 0122     		movs	r2, #1
 279 0018 1A70     		strb	r2, [r3]
 280 001a F7E7     		b	.L20
 281              	.L24:
 122:App/Task_Input/Task_Input.c ****         break;
 282              		.loc 1 122 13 is_stmt 1 view .LVU47
 122:App/Task_Input/Task_Input.c ****         break;
 283              		.loc 1 122 24 is_stmt 0 view .LVU48
 284 001c 034B     		ldr	r3, .L26
 285 001e 0222     		movs	r2, #2
 286 0020 1A70     		strb	r2, [r3]
 287 0022 F3E7     		b	.L20
 288              	.LVL9:
 289              	.L22:
 130:App/Task_Input/Task_Input.c ****         break;
 290              		.loc 1 130 9 is_stmt 1 view .LVU49
 291 0024 FFF7FEFF 		bl	TaskInput_Update
 292              	.LVL10:
 131:App/Task_Input/Task_Input.c **** 
 293              		.loc 1 131 9 view .LVU50
 294              		.loc 1 136 1 is_stmt 0 view .LVU51
 295 0028 F0E7     		b	.L20
 296              	.L27:
 297 002a 00BF     		.align	2
 298              	.L26:
 299 002c 00000000 		.word	.LANCHOR2
 300              		.cfi_endproc
 301              	.LFE132:
 303              		.section	.bss.Encoder_Obj,"aw",%nobits
 304              		.align	2
 305              		.set	.LANCHOR1,. + 0
 308              	Encoder_Obj:
 309 0000 00000000 		.space	76
 309      00000000 
 309      00000000 
 309      00000000 
 309      00000000 
 310              		.section	.bss.InputData,"aw",%nobits
 311              		.align	2
 312              		.set	.LANCHOR0,. + 0
ARM GAS  /tmp/cc111sVe.s 			page 9


 315              	InputData:
 316 0000 00000000 		.space	24
 316      00000000 
 316      00000000 
 316      00000000 
 316      00000000 
 317              		.section	.bss.Task_Stage,"aw",%nobits
 318              		.set	.LANCHOR2,. + 0
 321              	Task_Stage:
 322 0000 00       		.space	1
 323              		.text
 324              	.Letext0:
 325              		.file 2 "/home/bt0/stm32/compile-tool/gcc-arm-none-eabi-8-2018-q4-major-linux/gcc-arm-none-eabi-8-
 326              		.file 3 "/home/bt0/stm32/compile-tool/gcc-arm-none-eabi-8-2018-q4-major-linux/gcc-arm-none-eabi-8-
 327              		.file 4 "/home/bt0/stm32/compile-tool/gcc-arm-none-eabi-8-2018-q4-major-linux/gcc-arm-none-eabi-8-
 328              		.file 5 "/home/bt0/stm32/compile-tool/gcc-arm-none-eabi-8-2018-q4-major-linux/gcc-arm-none-eabi-8-
 329              		.file 6 "/home/bt0/stm32/compile-tool/gcc-arm-none-eabi-8-2018-q4-major-linux/gcc-arm-none-eabi-8-
 330              		.file 7 "/home/bt0/stm32/compile-tool/gcc-arm-none-eabi-8-2018-q4-major-linux/gcc-arm-none-eabi-8-
 331              		.file 8 "/home/bt0/stm32/compile-tool/gcc-arm-none-eabi-8-2018-q4-major-linux/gcc-arm-none-eabi-8-
 332              		.file 9 "SYS/task_manager/task_manager.h"
 333              		.file 10 "F4_CORE/core_cm4.h"
 334              		.file 11 "USER/system_stm32f4xx.h"
 335              		.file 12 "USER/stm32f4xx.h"
 336              		.file 13 "Bsp/periph_gpio.h"
 337              		.file 14 "Drv/drv_gpio.h"
 338              		.file 15 "Dev/Dev_Toggle.h"
 339              		.file 16 "Dev/Dev_5DirButton.h"
 340              		.file 17 "Bsp/periph_adc.h"
 341              		.file 18 "Dev/Dev_Gimbal.h"
 342              		.file 19 "Dev/Dev_Button.h"
 343              		.file 20 "Bsp/periph_timer.h"
 344              		.file 21 "Drv/drv_timer.h"
 345              		.file 22 "Dev/Dev_Encoder.h"
 346              		.file 23 "App/Task_Input/Task_Input.h"
 347              		.file 24 "App/Task_Input/Input_IO_Def.h"
ARM GAS  /tmp/cc111sVe.s 			page 10


DEFINED SYMBOLS
                            *ABS*:0000000000000000 Task_Input.c
     /tmp/cc111sVe.s:18     .text.TaskInput_Init:0000000000000000 $t
     /tmp/cc111sVe.s:25     .text.TaskInput_Init:0000000000000000 TaskInput_Init
     /tmp/cc111sVe.s:111    .text.TaskInput_Init:0000000000000054 $d
     /tmp/cc111sVe.s:121    .text.TaskInput_Update:0000000000000000 $t
     /tmp/cc111sVe.s:127    .text.TaskInput_Update:0000000000000000 TaskInput_Update
     /tmp/cc111sVe.s:177    .text.TaskInput_Update:0000000000000028 $d
     /tmp/cc111sVe.s:184    .text.TaskInput_GetData:0000000000000000 $t
     /tmp/cc111sVe.s:191    .text.TaskInput_GetData:0000000000000000 TaskInput_GetData
     /tmp/cc111sVe.s:232    .text.TaskInput_GetData:000000000000001c $d
     /tmp/cc111sVe.s:237    .text.TaskInput_Core:0000000000000000 $t
     /tmp/cc111sVe.s:244    .text.TaskInput_Core:0000000000000000 TaskInput_Core
     /tmp/cc111sVe.s:299    .text.TaskInput_Core:000000000000002c $d
     /tmp/cc111sVe.s:304    .bss.Encoder_Obj:0000000000000000 $d
     /tmp/cc111sVe.s:308    .bss.Encoder_Obj:0000000000000000 Encoder_Obj
     /tmp/cc111sVe.s:311    .bss.InputData:0000000000000000 $d
     /tmp/cc111sVe.s:315    .bss.InputData:0000000000000000 InputData
     /tmp/cc111sVe.s:321    .bss.Task_Stage:0000000000000000 Task_Stage
     /tmp/cc111sVe.s:322    .bss.Task_Stage:0000000000000000 $d

UNDEFINED SYMBOLS
Encoder_A_Pin
Encoder_B_Pin
Encoder_Btn
DevEncoder
