ARM GAS  /var/folders/lx/hc4sn_b53233_zkc9xbbl97r0000gp/T//ccDOGpag.s 			page 1


   1              		.cpu cortex-m4
   2              		.eabi_attribute 27, 1
   3              		.eabi_attribute 28, 1
   4              		.eabi_attribute 20, 1
   5              		.eabi_attribute 21, 1
   6              		.eabi_attribute 23, 3
   7              		.eabi_attribute 24, 1
   8              		.eabi_attribute 25, 1
   9              		.eabi_attribute 26, 1
  10              		.eabi_attribute 30, 1
  11              		.eabi_attribute 34, 1
  12              		.eabi_attribute 18, 4
  13              		.file	"TaskInfo_widget.c"
  14              		.text
  15              	.Ltext0:
  16              		.cfi_sections	.debug_frame
  17              		.section	.rodata.TaskInfo_CreateWidget.str1.4,"aMS",%progbits,1
  18              		.align	2
  19              	.LC0:
  20 0000 5461736B 		.ascii	"Task List\000"
  20      204C6973 
  20      7400
  21 000a 0000     		.align	2
  22              	.LC1:
  23 000c 5461736B 		.ascii	"Task Info Ditial\000"
  23      20496E66 
  23      6F204469 
  23      7469616C 
  23      00
  24              		.section	.text.TaskInfo_CreateWidget,"ax",%progbits
  25              		.align	1
  26              		.arch armv7e-m
  27              		.syntax unified
  28              		.thumb
  29              		.thumb_func
  30              		.fpu fpv4-sp-d16
  32              	TaskInfo_CreateWidget:
  33              	.LVL0:
  34              	.LFB4:
  35              		.file 1 "App/Task_Display/app_widget/TaskInfo_widget.c"
   1:App/Task_Display/app_widget/TaskInfo_widget.c **** #include "TaskInfo_widget.h"
   2:App/Task_Display/app_widget/TaskInfo_widget.c **** #include "task_manager.h"
   3:App/Task_Display/app_widget/TaskInfo_widget.c **** #include "mmu.h"
   4:App/Task_Display/app_widget/TaskInfo_widget.c **** 
   5:App/Task_Display/app_widget/TaskInfo_widget.c **** typedef struct
   6:App/Task_Display/app_widget/TaskInfo_widget.c **** {
   7:App/Task_Display/app_widget/TaskInfo_widget.c ****     char *name;
   8:App/Task_Display/app_widget/TaskInfo_widget.c ****     uint8_t group_pri;
   9:App/Task_Display/app_widget/TaskInfo_widget.c ****     uint8_t task_pri;
  10:App/Task_Display/app_widget/TaskInfo_widget.c ****     uint32_t frq;
  11:App/Task_Display/app_widget/TaskInfo_widget.c ****     uint32_t detect_frq;
  12:App/Task_Display/app_widget/TaskInfo_widget.c ****     float cpu_occupy;
  13:App/Task_Display/app_widget/TaskInfo_widget.c ****     float stk_occupy;      //still in develop
  14:App/Task_Display/app_widget/TaskInfo_widget.c ****     uint32_t remain_stack; //still in develop
  15:App/Task_Display/app_widget/TaskInfo_widget.c ****     uint32_t total_stack;
  16:App/Task_Display/app_widget/TaskInfo_widget.c **** } TaskDspInfo_TypeDef;
  17:App/Task_Display/app_widget/TaskInfo_widget.c **** 
ARM GAS  /var/folders/lx/hc4sn_b53233_zkc9xbbl97r0000gp/T//ccDOGpag.s 			page 2


  18:App/Task_Display/app_widget/TaskInfo_widget.c **** typedef struct
  19:App/Task_Display/app_widget/TaskInfo_widget.c **** {
  20:App/Task_Display/app_widget/TaskInfo_widget.c ****     uint8_t num;
  21:App/Task_Display/app_widget/TaskInfo_widget.c ****     TaskDspInfo_TypeDef *info;
  22:App/Task_Display/app_widget/TaskInfo_widget.c **** } TaskInfo_DspLayer_TypeDef;
  23:App/Task_Display/app_widget/TaskInfo_widget.c **** 
  24:App/Task_Display/app_widget/TaskInfo_widget.c **** static int32_t EncoderVal = 0;
  25:App/Task_Display/app_widget/TaskInfo_widget.c **** static bool TaskWidget_CreateState = false;
  26:App/Task_Display/app_widget/TaskInfo_widget.c **** static Widget_Handle TaskList_Widget_Hdl = 0;
  27:App/Task_Display/app_widget/TaskInfo_widget.c **** static Widget_Handle TaskInfo_Widget_Hdl = 0;
  28:App/Task_Display/app_widget/TaskInfo_widget.c **** static TaskInfo_DspLayer_TypeDef TaskInfo_Dsp;
  29:App/Task_Display/app_widget/TaskInfo_widget.c **** static TaskInfo_DspStage_List stage = Stage_CreateWidget;
  30:App/Task_Display/app_widget/TaskInfo_widget.c **** 
  31:App/Task_Display/app_widget/TaskInfo_widget.c **** static void TaskInfo_DspClear(void);
  32:App/Task_Display/app_widget/TaskInfo_widget.c **** static bool TaskInfo_SetStage(int8_t *offset);
  33:App/Task_Display/app_widget/TaskInfo_widget.c **** static bool TaskInfo_GetInfo(Widget_Handle hdl);
  34:App/Task_Display/app_widget/TaskInfo_widget.c **** static void TaskInfo_SwitchWidget(int8_t *offset);
  35:App/Task_Display/app_widget/TaskInfo_widget.c **** static bool TaskInfo_ShowNameList(Widget_Handle hdl);
  36:App/Task_Display/app_widget/TaskInfo_widget.c **** 
  37:App/Task_Display/app_widget/TaskInfo_widget.c **** static void TaskInfo_DspClear(void)
  38:App/Task_Display/app_widget/TaskInfo_widget.c **** {
  39:App/Task_Display/app_widget/TaskInfo_widget.c ****     TaskInfo_Dsp.num = 0;
  40:App/Task_Display/app_widget/TaskInfo_widget.c ****     TaskInfo_Dsp.info = NULL;
  41:App/Task_Display/app_widget/TaskInfo_widget.c **** }
  42:App/Task_Display/app_widget/TaskInfo_widget.c **** 
  43:App/Task_Display/app_widget/TaskInfo_widget.c **** static bool TaskInfo_CreateWidget(Widget_Handle hdl)
  44:App/Task_Display/app_widget/TaskInfo_widget.c **** {
  36              		.loc 1 44 1 view -0
  37              		.cfi_startproc
  38              		@ args = 0, pretend = 0, frame = 0
  39              		@ frame_needed = 0, uses_anonymous_args = 0
  40              		.loc 1 44 1 is_stmt 0 view .LVU1
  41 0000 F0B5     		push	{r4, r5, r6, r7, lr}
  42              	.LCFI0:
  43              		.cfi_def_cfa_offset 20
  44              		.cfi_offset 4, -20
  45              		.cfi_offset 5, -16
  46              		.cfi_offset 6, -12
  47              		.cfi_offset 7, -8
  48              		.cfi_offset 14, -4
  49 0002 83B0     		sub	sp, sp, #12
  50              	.LCFI1:
  51              		.cfi_def_cfa_offset 32
  52 0004 0446     		mov	r4, r0
  45:App/Task_Display/app_widget/TaskInfo_widget.c ****     TaskList_Widget_Hdl = Widget_Mng.Create_Sub(hdl, HandleToWidgetObj(hdl)->width, HandleToWidgetO
  53              		.loc 1 45 5 is_stmt 1 view .LVU2
  54              		.loc 1 45 37 is_stmt 0 view .LVU3
  55 0006 0E4F     		ldr	r7, .L6
  56 0008 BD68     		ldr	r5, [r7, #8]	@ unaligned
  57              		.loc 1 45 27 view .LVU4
  58 000a 427A     		ldrb	r2, [r0, #9]	@ zero_extendqisi2
  59 000c 017A     		ldrb	r1, [r0, #8]	@ zero_extendqisi2
  60 000e 0026     		movs	r6, #0
  61 0010 0096     		str	r6, [sp]
  62 0012 0C4B     		ldr	r3, .L6+4
  63 0014 A847     		blx	r5
  64              	.LVL1:
ARM GAS  /var/folders/lx/hc4sn_b53233_zkc9xbbl97r0000gp/T//ccDOGpag.s 			page 3


  65              		.loc 1 45 25 view .LVU5
  66 0016 0C4D     		ldr	r5, .L6+8
  67 0018 2860     		str	r0, [r5]
  46:App/Task_Display/app_widget/TaskInfo_widget.c ****     TaskInfo_Widget_Hdl = Widget_Mng.Create_Sub(hdl, HandleToWidgetObj(hdl)->width, HandleToWidgetO
  68              		.loc 1 46 5 is_stmt 1 view .LVU6
  69              		.loc 1 46 37 is_stmt 0 view .LVU7
  70 001a BF68     		ldr	r7, [r7, #8]	@ unaligned
  71              		.loc 1 46 27 view .LVU8
  72 001c 627A     		ldrb	r2, [r4, #9]	@ zero_extendqisi2
  73 001e 217A     		ldrb	r1, [r4, #8]	@ zero_extendqisi2
  74 0020 0096     		str	r6, [sp]
  75 0022 0A4B     		ldr	r3, .L6+12
  76 0024 2046     		mov	r0, r4
  77 0026 B847     		blx	r7
  78              	.LVL2:
  79              		.loc 1 46 25 view .LVU9
  80 0028 094B     		ldr	r3, .L6+16
  81 002a 1860     		str	r0, [r3]
  47:App/Task_Display/app_widget/TaskInfo_widget.c **** 
  48:App/Task_Display/app_widget/TaskInfo_widget.c ****     if ((TaskList_Widget_Hdl <= 0) || (TaskInfo_Widget_Hdl <= 0))
  82              		.loc 1 48 5 is_stmt 1 view .LVU10
  83              		.loc 1 48 30 is_stmt 0 view .LVU11
  84 002c 2B68     		ldr	r3, [r5]
  85              		.loc 1 48 8 view .LVU12
  86 002e 1BB1     		cbz	r3, .L3
  87              		.loc 1 48 36 discriminator 1 view .LVU13
  88 0030 20B1     		cbz	r0, .L4
  49:App/Task_Display/app_widget/TaskInfo_widget.c ****         return false;
  50:App/Task_Display/app_widget/TaskInfo_widget.c **** 
  51:App/Task_Display/app_widget/TaskInfo_widget.c ****     return true;
  89              		.loc 1 51 12 view .LVU14
  90 0032 0120     		movs	r0, #1
  91              	.L2:
  52:App/Task_Display/app_widget/TaskInfo_widget.c **** }
  92              		.loc 1 52 1 view .LVU15
  93 0034 03B0     		add	sp, sp, #12
  94              	.LCFI2:
  95              		.cfi_remember_state
  96              		.cfi_def_cfa_offset 20
  97              		@ sp needed
  98 0036 F0BD     		pop	{r4, r5, r6, r7, pc}
  99              	.LVL3:
 100              	.L3:
 101              	.LCFI3:
 102              		.cfi_restore_state
  49:App/Task_Display/app_widget/TaskInfo_widget.c ****         return false;
 103              		.loc 1 49 16 view .LVU16
 104 0038 0020     		movs	r0, #0
 105 003a FBE7     		b	.L2
 106              	.L4:
 107 003c 0020     		movs	r0, #0
 108 003e F9E7     		b	.L2
 109              	.L7:
 110              		.align	2
 111              	.L6:
 112 0040 00000000 		.word	Widget_Mng
 113 0044 00000000 		.word	.LC0
ARM GAS  /var/folders/lx/hc4sn_b53233_zkc9xbbl97r0000gp/T//ccDOGpag.s 			page 4


 114 0048 00000000 		.word	.LANCHOR0
 115 004c 0C000000 		.word	.LC1
 116 0050 00000000 		.word	.LANCHOR1
 117              		.cfi_endproc
 118              	.LFE4:
 120              		.section	.text.TaskInfo_DspUpdate,"ax",%progbits
 121              		.align	1
 122              		.global	TaskInfo_DspUpdate
 123              		.syntax unified
 124              		.thumb
 125              		.thumb_func
 126              		.fpu fpv4-sp-d16
 128              	TaskInfo_DspUpdate:
 129              	.LVL4:
 130              	.LFB9:
  53:App/Task_Display/app_widget/TaskInfo_widget.c **** 
  54:App/Task_Display/app_widget/TaskInfo_widget.c **** static bool TaskInfo_GetInfo(Widget_Handle hdl)
  55:App/Task_Display/app_widget/TaskInfo_widget.c **** {
  56:App/Task_Display/app_widget/TaskInfo_widget.c ****     uint8_t i = 0;
  57:App/Task_Display/app_widget/TaskInfo_widget.c ****     if (hdl == 0)
  58:App/Task_Display/app_widget/TaskInfo_widget.c ****         return false;
  59:App/Task_Display/app_widget/TaskInfo_widget.c ****     TaskInfo_DspClear();
  60:App/Task_Display/app_widget/TaskInfo_widget.c **** 
  61:App/Task_Display/app_widget/TaskInfo_widget.c ****     TaskInfo_Dsp.num = Task_Get_TaskNum();
  62:App/Task_Display/app_widget/TaskInfo_widget.c ****     TaskInfo_Dsp.info = (TaskDspInfo_TypeDef *)MMU_Malloc(TaskInfo_Dsp.num * sizeof(TaskDspInfo_Typ
  63:App/Task_Display/app_widget/TaskInfo_widget.c **** 
  64:App/Task_Display/app_widget/TaskInfo_widget.c ****     if (TaskInfo_Dsp.info == NULL)
  65:App/Task_Display/app_widget/TaskInfo_widget.c ****         return false;
  66:App/Task_Display/app_widget/TaskInfo_widget.c **** 
  67:App/Task_Display/app_widget/TaskInfo_widget.c ****     for (i = 0; i < TaskInfo_Dsp.num; i++)
  68:App/Task_Display/app_widget/TaskInfo_widget.c ****     {
  69:App/Task_Display/app_widget/TaskInfo_widget.c ****         if (!Task_GetInfo_ByIndex(i, &TaskInfo_Dsp.info[i]))
  70:App/Task_Display/app_widget/TaskInfo_widget.c ****         {
  71:App/Task_Display/app_widget/TaskInfo_widget.c ****             MMU_Free(TaskInfo_Dsp.info);
  72:App/Task_Display/app_widget/TaskInfo_widget.c ****             TaskInfo_Dsp.num = 0;
  73:App/Task_Display/app_widget/TaskInfo_widget.c ****             return false;
  74:App/Task_Display/app_widget/TaskInfo_widget.c ****         }
  75:App/Task_Display/app_widget/TaskInfo_widget.c ****     }
  76:App/Task_Display/app_widget/TaskInfo_widget.c **** 
  77:App/Task_Display/app_widget/TaskInfo_widget.c ****     return true;
  78:App/Task_Display/app_widget/TaskInfo_widget.c **** }
  79:App/Task_Display/app_widget/TaskInfo_widget.c **** 
  80:App/Task_Display/app_widget/TaskInfo_widget.c **** static bool TaskInfo_ShowNameList(Widget_Handle hdl)
  81:App/Task_Display/app_widget/TaskInfo_widget.c **** {
  82:App/Task_Display/app_widget/TaskInfo_widget.c ****     if (hdl == 0)
  83:App/Task_Display/app_widget/TaskInfo_widget.c ****         return false;
  84:App/Task_Display/app_widget/TaskInfo_widget.c **** 
  85:App/Task_Display/app_widget/TaskInfo_widget.c ****     return true;
  86:App/Task_Display/app_widget/TaskInfo_widget.c **** }
  87:App/Task_Display/app_widget/TaskInfo_widget.c **** 
  88:App/Task_Display/app_widget/TaskInfo_widget.c **** static bool TaskInfo_SetStage(int8_t *offset)
  89:App/Task_Display/app_widget/TaskInfo_widget.c **** {
  90:App/Task_Display/app_widget/TaskInfo_widget.c ****     if (((stage + offset) < Stage_DspExit) || ((stage + offset) > Stage_Unknow))
  91:App/Task_Display/app_widget/TaskInfo_widget.c ****         return false;
  92:App/Task_Display/app_widget/TaskInfo_widget.c **** 
  93:App/Task_Display/app_widget/TaskInfo_widget.c ****     stage += *offset;
  94:App/Task_Display/app_widget/TaskInfo_widget.c ****     *offset = 0;
ARM GAS  /var/folders/lx/hc4sn_b53233_zkc9xbbl97r0000gp/T//ccDOGpag.s 			page 5


  95:App/Task_Display/app_widget/TaskInfo_widget.c **** 
  96:App/Task_Display/app_widget/TaskInfo_widget.c ****     return true;
  97:App/Task_Display/app_widget/TaskInfo_widget.c **** }
  98:App/Task_Display/app_widget/TaskInfo_widget.c **** 
  99:App/Task_Display/app_widget/TaskInfo_widget.c **** static bool TaskInfo_Free(void)
 100:App/Task_Display/app_widget/TaskInfo_widget.c **** {
 101:App/Task_Display/app_widget/TaskInfo_widget.c ****     if (TaskInfo_Dsp.num)
 102:App/Task_Display/app_widget/TaskInfo_widget.c ****         MMU_Free(TaskInfo_Dsp.info);
 103:App/Task_Display/app_widget/TaskInfo_widget.c **** 
 104:App/Task_Display/app_widget/TaskInfo_widget.c ****     TaskInfo_Dsp.num = 0;
 105:App/Task_Display/app_widget/TaskInfo_widget.c **** 
 106:App/Task_Display/app_widget/TaskInfo_widget.c ****     return true;
 107:App/Task_Display/app_widget/TaskInfo_widget.c **** }
 108:App/Task_Display/app_widget/TaskInfo_widget.c **** 
 109:App/Task_Display/app_widget/TaskInfo_widget.c **** TaskInfo_DspStage_List TaskInfo_DspUpdate(Widget_Handle hdl)
 110:App/Task_Display/app_widget/TaskInfo_widget.c **** {
 131              		.loc 1 110 1 is_stmt 1 view -0
 132              		.cfi_startproc
 133              		@ args = 0, pretend = 0, frame = 0
 134              		@ frame_needed = 0, uses_anonymous_args = 0
 111:App/Task_Display/app_widget/TaskInfo_widget.c ****     bool dsp = false;
 135              		.loc 1 111 5 view .LVU18
 112:App/Task_Display/app_widget/TaskInfo_widget.c **** 
 113:App/Task_Display/app_widget/TaskInfo_widget.c ****     if (hdl == 0)
 136              		.loc 1 113 5 view .LVU19
 137              		.loc 1 113 8 is_stmt 0 view .LVU20
 138 0000 0028     		cmp	r0, #0
 139 0002 36D0     		beq	.L19
 110:App/Task_Display/app_widget/TaskInfo_widget.c ****     bool dsp = false;
 140              		.loc 1 110 1 view .LVU21
 141 0004 10B5     		push	{r4, lr}
 142              	.LCFI4:
 143              		.cfi_def_cfa_offset 8
 144              		.cfi_offset 4, -8
 145              		.cfi_offset 14, -4
 146 0006 0446     		mov	r4, r0
 114:App/Task_Display/app_widget/TaskInfo_widget.c ****         return false;
 115:App/Task_Display/app_widget/TaskInfo_widget.c **** 
 116:App/Task_Display/app_widget/TaskInfo_widget.c ****     switch (stage)
 147              		.loc 1 116 5 is_stmt 1 view .LVU22
 148 0008 1C4B     		ldr	r3, .L25
 149 000a 1B78     		ldrb	r3, [r3]	@ zero_extendqisi2
 150 000c 042B     		cmp	r3, #4
 151 000e 32D8     		bhi	.L20
 152 0010 DFE803F0 		tbb	[pc, r3]
 153              	.L11:
 154 0014 03       		.byte	(.L14-.L11)/2
 155 0015 10       		.byte	(.L13-.L11)/2
 156 0016 31       		.byte	(.L20-.L11)/2
 157 0017 1B       		.byte	(.L12-.L11)/2
 158 0018 29       		.byte	(.L10-.L11)/2
 159 0019 00       		.p2align 1
 160              	.L14:
 117:App/Task_Display/app_widget/TaskInfo_widget.c ****     {
 118:App/Task_Display/app_widget/TaskInfo_widget.c ****     case Stage_CreateWidget:
 119:App/Task_Display/app_widget/TaskInfo_widget.c ****         TaskWidget_CreateState = TaskInfo_CreateWidget(hdl);
 161              		.loc 1 119 9 view .LVU23
ARM GAS  /var/folders/lx/hc4sn_b53233_zkc9xbbl97r0000gp/T//ccDOGpag.s 			page 6


 162              		.loc 1 119 34 is_stmt 0 view .LVU24
 163 001a FFF7FEFF 		bl	TaskInfo_CreateWidget
 164              	.LVL5:
 165              		.loc 1 119 32 view .LVU25
 166 001e 184B     		ldr	r3, .L25+4
 167 0020 1870     		strb	r0, [r3]
 120:App/Task_Display/app_widget/TaskInfo_widget.c ****         dsp = false;
 168              		.loc 1 120 9 is_stmt 1 view .LVU26
 121:App/Task_Display/app_widget/TaskInfo_widget.c **** 
 122:App/Task_Display/app_widget/TaskInfo_widget.c ****         if (!TaskWidget_CreateState)
 169              		.loc 1 122 9 view .LVU27
 170              		.loc 1 122 12 is_stmt 0 view .LVU28
 171 0022 18B9     		cbnz	r0, .L15
 123:App/Task_Display/app_widget/TaskInfo_widget.c ****         {
 124:App/Task_Display/app_widget/TaskInfo_widget.c ****             stage = Stage_DspError;
 172              		.loc 1 124 13 is_stmt 1 view .LVU29
 173              		.loc 1 124 19 is_stmt 0 view .LVU30
 174 0024 154B     		ldr	r3, .L25
 175 0026 0522     		movs	r2, #5
 176 0028 1A70     		strb	r2, [r3]
 125:App/Task_Display/app_widget/TaskInfo_widget.c ****             break;
 177              		.loc 1 125 13 is_stmt 1 view .LVU31
 126:App/Task_Display/app_widget/TaskInfo_widget.c ****         }
 127:App/Task_Display/app_widget/TaskInfo_widget.c **** 
 128:App/Task_Display/app_widget/TaskInfo_widget.c ****         stage = Stage_GetTaskInfo;
 129:App/Task_Display/app_widget/TaskInfo_widget.c ****         break;
 130:App/Task_Display/app_widget/TaskInfo_widget.c **** 
 131:App/Task_Display/app_widget/TaskInfo_widget.c ****     case Stage_GetTaskInfo:
 132:App/Task_Display/app_widget/TaskInfo_widget.c ****         dsp = false;
 133:App/Task_Display/app_widget/TaskInfo_widget.c ****         if (!TaskInfo_CreateUICtl(hdl))
 134:App/Task_Display/app_widget/TaskInfo_widget.c ****         {
 135:App/Task_Display/app_widget/TaskInfo_widget.c ****             stage = Stage_DspError;
 136:App/Task_Display/app_widget/TaskInfo_widget.c ****             break;
 137:App/Task_Display/app_widget/TaskInfo_widget.c ****         }
 138:App/Task_Display/app_widget/TaskInfo_widget.c **** 
 139:App/Task_Display/app_widget/TaskInfo_widget.c ****         stage = Stage_DspTaskName;
 140:App/Task_Display/app_widget/TaskInfo_widget.c ****         break;
 141:App/Task_Display/app_widget/TaskInfo_widget.c **** 
 142:App/Task_Display/app_widget/TaskInfo_widget.c ****     case Stage_DspTaskName:
 143:App/Task_Display/app_widget/TaskInfo_widget.c ****         Widget_Mng.Control(hdl)->Clear();
 144:App/Task_Display/app_widget/TaskInfo_widget.c ****         dsp = true;
 145:App/Task_Display/app_widget/TaskInfo_widget.c ****         break;
 146:App/Task_Display/app_widget/TaskInfo_widget.c **** 
 147:App/Task_Display/app_widget/TaskInfo_widget.c ****     case Stage_DspTaskInfo:
 148:App/Task_Display/app_widget/TaskInfo_widget.c ****         Widget_Mng.Control(hdl)->Clear();
 149:App/Task_Display/app_widget/TaskInfo_widget.c ****         dsp = true;
 150:App/Task_Display/app_widget/TaskInfo_widget.c ****         break;
 151:App/Task_Display/app_widget/TaskInfo_widget.c **** 
 152:App/Task_Display/app_widget/TaskInfo_widget.c ****     default:
 153:App/Task_Display/app_widget/TaskInfo_widget.c ****         return Stage_Unknow;
 154:App/Task_Display/app_widget/TaskInfo_widget.c ****     }
 155:App/Task_Display/app_widget/TaskInfo_widget.c **** 
 156:App/Task_Display/app_widget/TaskInfo_widget.c ****     if (dsp)
 178              		.loc 1 156 5 view .LVU32
 179 002a 19E0     		b	.L16
 180              	.L15:
 128:App/Task_Display/app_widget/TaskInfo_widget.c ****         break;
ARM GAS  /var/folders/lx/hc4sn_b53233_zkc9xbbl97r0000gp/T//ccDOGpag.s 			page 7


 181              		.loc 1 128 9 view .LVU33
 128:App/Task_Display/app_widget/TaskInfo_widget.c ****         break;
 182              		.loc 1 128 15 is_stmt 0 view .LVU34
 183 002c 134B     		ldr	r3, .L25
 184 002e 0122     		movs	r2, #1
 185 0030 1A70     		strb	r2, [r3]
 129:App/Task_Display/app_widget/TaskInfo_widget.c **** 
 186              		.loc 1 129 9 is_stmt 1 view .LVU35
 187              		.loc 1 156 5 view .LVU36
 188 0032 15E0     		b	.L16
 189              	.LVL6:
 190              	.L13:
 132:App/Task_Display/app_widget/TaskInfo_widget.c ****         if (!TaskInfo_CreateUICtl(hdl))
 191              		.loc 1 132 9 view .LVU37
 133:App/Task_Display/app_widget/TaskInfo_widget.c ****         {
 192              		.loc 1 133 9 view .LVU38
 193              	.LBB2:
 133:App/Task_Display/app_widget/TaskInfo_widget.c ****         {
 194              		.loc 1 133 14 is_stmt 0 view .LVU39
 195 0034 FFF7FEFF 		bl	TaskInfo_CreateUICtl
 196              	.LVL7:
 133:App/Task_Display/app_widget/TaskInfo_widget.c ****         {
 197              		.loc 1 133 12 view .LVU40
 198 0038 18B9     		cbnz	r0, .L17
 135:App/Task_Display/app_widget/TaskInfo_widget.c ****             break;
 199              		.loc 1 135 13 is_stmt 1 view .LVU41
 135:App/Task_Display/app_widget/TaskInfo_widget.c ****             break;
 200              		.loc 1 135 19 is_stmt 0 view .LVU42
 201 003a 104B     		ldr	r3, .L25
 202 003c 0522     		movs	r2, #5
 203 003e 1A70     		strb	r2, [r3]
 136:App/Task_Display/app_widget/TaskInfo_widget.c ****         }
 204              		.loc 1 136 13 is_stmt 1 view .LVU43
 136:App/Task_Display/app_widget/TaskInfo_widget.c ****         }
 205              		.loc 1 136 13 is_stmt 0 view .LVU44
 206              	.LBE2:
 207              		.loc 1 156 5 is_stmt 1 view .LVU45
 208 0040 0EE0     		b	.L16
 209              	.L17:
 139:App/Task_Display/app_widget/TaskInfo_widget.c ****         break;
 210              		.loc 1 139 9 view .LVU46
 139:App/Task_Display/app_widget/TaskInfo_widget.c ****         break;
 211              		.loc 1 139 15 is_stmt 0 view .LVU47
 212 0042 0E4B     		ldr	r3, .L25
 213 0044 0322     		movs	r2, #3
 214 0046 1A70     		strb	r2, [r3]
 140:App/Task_Display/app_widget/TaskInfo_widget.c **** 
 215              		.loc 1 140 9 is_stmt 1 view .LVU48
 216              		.loc 1 156 5 view .LVU49
 217 0048 0AE0     		b	.L16
 218              	.LVL8:
 219              	.L12:
 143:App/Task_Display/app_widget/TaskInfo_widget.c ****         dsp = true;
 220              		.loc 1 143 9 view .LVU50
 143:App/Task_Display/app_widget/TaskInfo_widget.c ****         dsp = true;
 221              		.loc 1 143 19 is_stmt 0 view .LVU51
 222 004a 0E4B     		ldr	r3, .L25+8
ARM GAS  /var/folders/lx/hc4sn_b53233_zkc9xbbl97r0000gp/T//ccDOGpag.s 			page 8


 223 004c 1B69     		ldr	r3, [r3, #16]	@ unaligned
 143:App/Task_Display/app_widget/TaskInfo_widget.c ****         dsp = true;
 224              		.loc 1 143 9 view .LVU52
 225 004e 9847     		blx	r3
 226              	.LVL9:
 143:App/Task_Display/app_widget/TaskInfo_widget.c ****         dsp = true;
 227              		.loc 1 143 32 view .LVU53
 228 0050 C368     		ldr	r3, [r0, #12]	@ unaligned
 143:App/Task_Display/app_widget/TaskInfo_widget.c ****         dsp = true;
 229              		.loc 1 143 9 view .LVU54
 230 0052 9847     		blx	r3
 231              	.LVL10:
 144:App/Task_Display/app_widget/TaskInfo_widget.c ****         break;
 232              		.loc 1 144 9 is_stmt 1 view .LVU55
 145:App/Task_Display/app_widget/TaskInfo_widget.c **** 
 233              		.loc 1 145 9 view .LVU56
 234              		.loc 1 156 5 view .LVU57
 235              	.L18:
 157:App/Task_Display/app_widget/TaskInfo_widget.c ****     {
 158:App/Task_Display/app_widget/TaskInfo_widget.c ****         Widget_Mng.Control(hdl)->Show();
 236              		.loc 1 158 9 view .LVU58
 237              		.loc 1 158 19 is_stmt 0 view .LVU59
 238 0054 0B4B     		ldr	r3, .L25+8
 239 0056 1B69     		ldr	r3, [r3, #16]	@ unaligned
 240              		.loc 1 158 9 view .LVU60
 241 0058 2046     		mov	r0, r4
 242 005a 9847     		blx	r3
 243              	.LVL11:
 244              		.loc 1 158 32 view .LVU61
 245 005c 0368     		ldr	r3, [r0]	@ unaligned
 246              		.loc 1 158 9 view .LVU62
 247 005e 9847     		blx	r3
 248              	.LVL12:
 249              	.L16:
 159:App/Task_Display/app_widget/TaskInfo_widget.c ****     }
 160:App/Task_Display/app_widget/TaskInfo_widget.c **** 
 161:App/Task_Display/app_widget/TaskInfo_widget.c ****     return stage;
 250              		.loc 1 161 5 is_stmt 1 view .LVU63
 251              		.loc 1 161 12 is_stmt 0 view .LVU64
 252 0060 064B     		ldr	r3, .L25
 253 0062 1878     		ldrb	r0, [r3]	@ zero_extendqisi2
 254              	.L9:
 162:App/Task_Display/app_widget/TaskInfo_widget.c **** }
 255              		.loc 1 162 1 view .LVU65
 256 0064 10BD     		pop	{r4, pc}
 257              	.LVL13:
 258              	.L10:
 148:App/Task_Display/app_widget/TaskInfo_widget.c ****         dsp = true;
 259              		.loc 1 148 9 is_stmt 1 view .LVU66
 148:App/Task_Display/app_widget/TaskInfo_widget.c ****         dsp = true;
 260              		.loc 1 148 19 is_stmt 0 view .LVU67
 261 0066 074B     		ldr	r3, .L25+8
 262 0068 1B69     		ldr	r3, [r3, #16]	@ unaligned
 148:App/Task_Display/app_widget/TaskInfo_widget.c ****         dsp = true;
 263              		.loc 1 148 9 view .LVU68
 264 006a 9847     		blx	r3
 265              	.LVL14:
ARM GAS  /var/folders/lx/hc4sn_b53233_zkc9xbbl97r0000gp/T//ccDOGpag.s 			page 9


 148:App/Task_Display/app_widget/TaskInfo_widget.c ****         dsp = true;
 266              		.loc 1 148 32 view .LVU69
 267 006c C368     		ldr	r3, [r0, #12]	@ unaligned
 148:App/Task_Display/app_widget/TaskInfo_widget.c ****         dsp = true;
 268              		.loc 1 148 9 view .LVU70
 269 006e 9847     		blx	r3
 270              	.LVL15:
 149:App/Task_Display/app_widget/TaskInfo_widget.c ****         break;
 271              		.loc 1 149 9 is_stmt 1 view .LVU71
 150:App/Task_Display/app_widget/TaskInfo_widget.c **** 
 272              		.loc 1 150 9 view .LVU72
 156:App/Task_Display/app_widget/TaskInfo_widget.c ****     {
 273              		.loc 1 156 5 view .LVU73
 274 0070 F0E7     		b	.L18
 275              	.LVL16:
 276              	.L19:
 277              	.LCFI5:
 278              		.cfi_def_cfa_offset 0
 279              		.cfi_restore 4
 280              		.cfi_restore 14
 114:App/Task_Display/app_widget/TaskInfo_widget.c **** 
 281              		.loc 1 114 16 is_stmt 0 view .LVU74
 282 0072 0020     		movs	r0, #0
 283              	.LVL17:
 284              		.loc 1 162 1 view .LVU75
 285 0074 7047     		bx	lr
 286              	.LVL18:
 287              	.L20:
 288              	.LCFI6:
 289              		.cfi_def_cfa_offset 8
 290              		.cfi_offset 4, -8
 291              		.cfi_offset 14, -4
 116:App/Task_Display/app_widget/TaskInfo_widget.c ****     {
 292              		.loc 1 116 5 view .LVU76
 293 0076 0620     		movs	r0, #6
 294              	.LVL19:
 116:App/Task_Display/app_widget/TaskInfo_widget.c ****     {
 295              		.loc 1 116 5 view .LVU77
 296 0078 F4E7     		b	.L9
 297              	.L26:
 298 007a 00BF     		.align	2
 299              	.L25:
 300 007c 00000000 		.word	.LANCHOR2
 301 0080 00000000 		.word	.LANCHOR3
 302 0084 00000000 		.word	Widget_Mng
 303              		.cfi_endproc
 304              	.LFE9:
 306              		.section	.text.TaskInfo_DspRefresh,"ax",%progbits
 307              		.align	1
 308              		.global	TaskInfo_DspRefresh
 309              		.syntax unified
 310              		.thumb
 311              		.thumb_func
 312              		.fpu fpv4-sp-d16
 314              	TaskInfo_DspRefresh:
 315              	.LVL20:
 316              	.LFB10:
ARM GAS  /var/folders/lx/hc4sn_b53233_zkc9xbbl97r0000gp/T//ccDOGpag.s 			page 10


 163:App/Task_Display/app_widget/TaskInfo_widget.c **** 
 164:App/Task_Display/app_widget/TaskInfo_widget.c **** void TaskInfo_DspRefresh(int32_t val)
 165:App/Task_Display/app_widget/TaskInfo_widget.c **** {
 317              		.loc 1 165 1 is_stmt 1 view -0
 318              		.cfi_startproc
 319              		@ args = 0, pretend = 0, frame = 0
 320              		@ frame_needed = 0, uses_anonymous_args = 0
 321              		@ link register save eliminated.
 166:App/Task_Display/app_widget/TaskInfo_widget.c ****     EncoderVal = val;
 322              		.loc 1 166 5 view .LVU79
 323              		.loc 1 166 16 is_stmt 0 view .LVU80
 324 0000 024B     		ldr	r3, .L28
 325 0002 1860     		str	r0, [r3]
 167:App/Task_Display/app_widget/TaskInfo_widget.c **** 
 168:App/Task_Display/app_widget/TaskInfo_widget.c ****     stage = Stage_GetTaskInfo;
 326              		.loc 1 168 5 is_stmt 1 view .LVU81
 327              		.loc 1 168 11 is_stmt 0 view .LVU82
 328 0004 024B     		ldr	r3, .L28+4
 329 0006 0122     		movs	r2, #1
 330 0008 1A70     		strb	r2, [r3]
 169:App/Task_Display/app_widget/TaskInfo_widget.c **** }
 331              		.loc 1 169 1 view .LVU83
 332 000a 7047     		bx	lr
 333              	.L29:
 334              		.align	2
 335              	.L28:
 336 000c 00000000 		.word	.LANCHOR4
 337 0010 00000000 		.word	.LANCHOR2
 338              		.cfi_endproc
 339              	.LFE10:
 341              		.section	.text.TaskInfo_Encoder_Input,"ax",%progbits
 342              		.align	1
 343              		.global	TaskInfo_Encoder_Input
 344              		.syntax unified
 345              		.thumb
 346              		.thumb_func
 347              		.fpu fpv4-sp-d16
 349              	TaskInfo_Encoder_Input:
 350              	.LVL21:
 351              	.LFB11:
 170:App/Task_Display/app_widget/TaskInfo_widget.c **** 
 171:App/Task_Display/app_widget/TaskInfo_widget.c **** void TaskInfo_Encoder_Input(int32_t val)
 172:App/Task_Display/app_widget/TaskInfo_widget.c **** {
 352              		.loc 1 172 1 is_stmt 1 view -0
 353              		.cfi_startproc
 354              		@ args = 0, pretend = 0, frame = 0
 355              		@ frame_needed = 0, uses_anonymous_args = 0
 356              		@ link register save eliminated.
 173:App/Task_Display/app_widget/TaskInfo_widget.c ****     int8_t diff = val - EncoderVal;
 357              		.loc 1 173 5 view .LVU85
 174:App/Task_Display/app_widget/TaskInfo_widget.c ****     EncoderVal = val;
 358              		.loc 1 174 5 view .LVU86
 359              		.loc 1 174 16 is_stmt 0 view .LVU87
 360 0000 014B     		ldr	r3, .L31
 361 0002 1860     		str	r0, [r3]
 362              	.LVL22:
 175:App/Task_Display/app_widget/TaskInfo_widget.c **** 
ARM GAS  /var/folders/lx/hc4sn_b53233_zkc9xbbl97r0000gp/T//ccDOGpag.s 			page 11


 176:App/Task_Display/app_widget/TaskInfo_widget.c ****     //check current display stage and process
 177:App/Task_Display/app_widget/TaskInfo_widget.c **** }
 363              		.loc 1 177 1 view .LVU88
 364 0004 7047     		bx	lr
 365              	.L32:
 366 0006 00BF     		.align	2
 367              	.L31:
 368 0008 00000000 		.word	.LANCHOR4
 369              		.cfi_endproc
 370              	.LFE11:
 372              		.section	.bss.EncoderVal,"aw",%nobits
 373              		.align	2
 374              		.set	.LANCHOR4,. + 0
 377              	EncoderVal:
 378 0000 00000000 		.space	4
 379              		.section	.bss.TaskInfo_Widget_Hdl,"aw",%nobits
 380              		.align	2
 381              		.set	.LANCHOR1,. + 0
 384              	TaskInfo_Widget_Hdl:
 385 0000 00000000 		.space	4
 386              		.section	.bss.TaskList_Widget_Hdl,"aw",%nobits
 387              		.align	2
 388              		.set	.LANCHOR0,. + 0
 391              	TaskList_Widget_Hdl:
 392 0000 00000000 		.space	4
 393              		.section	.bss.TaskWidget_CreateState,"aw",%nobits
 394              		.set	.LANCHOR3,. + 0
 397              	TaskWidget_CreateState:
 398 0000 00       		.space	1
 399              		.section	.bss.stage,"aw",%nobits
 400              		.set	.LANCHOR2,. + 0
 403              	stage:
 404 0000 00       		.space	1
 405              		.text
 406              	.Letext0:
 407              		.file 2 "/usr/local/arm-none-eabi-gcc/gcc-arm-none-eabi-10-2020-q4-major/arm-none-eabi/include/mac
 408              		.file 3 "/usr/local/arm-none-eabi-gcc/gcc-arm-none-eabi-10-2020-q4-major/arm-none-eabi/include/sys
 409              		.file 4 "Dsp/screen/font/oledfont.h"
 410              		.file 5 "Dsp/widget/wgt_core/GenDsp.h"
 411              		.file 6 "SYS/data_structure/linked_list.h"
 412              		.file 7 "Dsp/screen/OledIO_Definition/Oled_DspProp_Def.h"
 413              		.file 8 "Dsp/widget/wgt_core/UI_Controller.h"
 414              		.file 9 "Dsp/widget/wgt_core/widget_mng.h"
 415              		.file 10 "App/Task_Display/app_widget/TaskInfo_widget.h"
 416              		.file 11 "SYS/task_manager/task_manager.h"
ARM GAS  /var/folders/lx/hc4sn_b53233_zkc9xbbl97r0000gp/T//ccDOGpag.s 			page 12

