ARM GAS  /var/folders/lx/hc4sn_b53233_zkc9xbbl97r0000gp/T//cc7IVwxf.s 			page 1


   1              		.cpu cortex-m4
   2              		.eabi_attribute 27, 1
   3              		.eabi_attribute 28, 1
   4              		.eabi_attribute 20, 1
   5              		.eabi_attribute 21, 1
   6              		.eabi_attribute 23, 3
   7              		.eabi_attribute 24, 1
   8              		.eabi_attribute 25, 1
   9              		.eabi_attribute 26, 1
  10              		.eabi_attribute 30, 1
  11              		.eabi_attribute 34, 1
  12              		.eabi_attribute 18, 4
  13              		.file	"Task_Input.c"
  14              		.text
  15              	.Ltext0:
  16              		.cfi_sections	.debug_frame
  17              		.section	.text.TaskInput_Init,"ax",%progbits
  18              		.align	1
  19              		.arch armv7e-m
  20              		.syntax unified
  21              		.thumb
  22              		.thumb_func
  23              		.fpu fpv4-sp-d16
  25              	TaskInput_Init:
  26              	.LFB126:
  27              		.file 1 "App/Task_Input/Task_Input.c"
   1:App/Task_Input/Task_Input.c **** #include "task_manager.h"
   2:App/Task_Input/Task_Input.c **** #include "Task_Input.h"
   3:App/Task_Input/Task_Input.c **** #include "Input_IO_Def.h"
   4:App/Task_Input/Task_Input.c **** 
   5:App/Task_Input/Task_Input.c **** Task_Handler SigInput_Tsk_Hdl;
   6:App/Task_Input/Task_Input.c **** 
   7:App/Task_Input/Task_Input.c **** /* internal variable */
   8:App/Task_Input/Task_Input.c **** static Input_Data_TypeDef InputData;
   9:App/Task_Input/Task_Input.c **** static TaskInput_Stage_List Task_Stage = TaskInput_Initialize;
  10:App/Task_Input/Task_Input.c **** 
  11:App/Task_Input/Task_Input.c **** static Gimbal_Proc_TypeDef Gimbal_L_ProcObj;
  12:App/Task_Input/Task_Input.c **** static Gimbal_Proc_TypeDef Gimbal_R_ProcObj;
  13:App/Task_Input/Task_Input.c **** 
  14:App/Task_Input/Task_Input.c **** static AnalogProc_Obj_TypeDef L_Pot_ProcObj;
  15:App/Task_Input/Task_Input.c **** static AnalogProc_Obj_TypeDef R_Pot_ProcObj;
  16:App/Task_Input/Task_Input.c **** 
  17:App/Task_Input/Task_Input.c **** static DrvGPIO_Obj_TypeDef EncPin[Encoder_IO_Sum];
  18:App/Task_Input/Task_Input.c **** 
  19:App/Task_Input/Task_Input.c **** static TaskInput_Callback EncoderBtn_Push_Callback = NULL;
  20:App/Task_Input/Task_Input.c **** static TaskInput_Callback EncoderBtn_Release_Callback = NULL;
  21:App/Task_Input/Task_Input.c **** 
  22:App/Task_Input/Task_Input.c **** /* input hardware abstract object */
  23:App/Task_Input/Task_Input.c **** static DevEncoder_Obj_TypeDef Encoder_Obj;
  24:App/Task_Input/Task_Input.c **** //static DevGimbal_Obj_TypeDef Gimbal_L_Obj;
  25:App/Task_Input/Task_Input.c **** //static DevGimbal_Obj_TypeDef Gimbal_R_Obj;
  26:App/Task_Input/Task_Input.c **** //static DevButton_TypeDef Btn_LShoulder_Obj;
  27:App/Task_Input/Task_Input.c **** //static DevButton_TypeDef Btn_RShoulder_Obj;
  28:App/Task_Input/Task_Input.c **** //static DirButton_Obj_TypeDef Btn_5Dir_Obj;
  29:App/Task_Input/Task_Input.c **** 
  30:App/Task_Input/Task_Input.c **** /* internal funciton */
  31:App/Task_Input/Task_Input.c **** static Input_Error_List TaskInput_Init(void);
ARM GAS  /var/folders/lx/hc4sn_b53233_zkc9xbbl97r0000gp/T//cc7IVwxf.s 			page 2


  32:App/Task_Input/Task_Input.c **** static Input_Error_List TaskInput_Update(void);
  33:App/Task_Input/Task_Input.c **** static void TaskInput_EncoderBtn_Callback(void);
  34:App/Task_Input/Task_Input.c **** 
  35:App/Task_Input/Task_Input.c **** /* internal function */
  36:App/Task_Input/Task_Input.c **** 
  37:App/Task_Input/Task_Input.c **** /* external variable */
  38:App/Task_Input/Task_Input.c **** Input_Data_TypeDef *TaskInput_GetData(void);
  39:App/Task_Input/Task_Input.c **** 
  40:App/Task_Input/Task_Input.c **** static Input_Error_List TaskInput_Init(void)
  41:App/Task_Input/Task_Input.c **** {
  28              		.loc 1 41 1 view -0
  29              		.cfi_startproc
  30              		@ args = 0, pretend = 0, frame = 0
  31              		@ frame_needed = 0, uses_anonymous_args = 0
  32 0000 70B5     		push	{r4, r5, r6, lr}
  33              	.LCFI0:
  34              		.cfi_def_cfa_offset 16
  35              		.cfi_offset 4, -16
  36              		.cfi_offset 5, -12
  37              		.cfi_offset 6, -8
  38              		.cfi_offset 14, -4
  39 0002 82B0     		sub	sp, sp, #8
  40              	.LCFI1:
  41              		.cfi_def_cfa_offset 24
  42:App/Task_Input/Task_Input.c ****     InputData.error = Input_Initial;
  42              		.loc 1 42 5 view .LVU1
  43              		.loc 1 42 21 is_stmt 0 view .LVU2
  44 0004 1F4B     		ldr	r3, .L6
  45 0006 0122     		movs	r2, #1
  46 0008 DA75     		strb	r2, [r3, #23]
  43:App/Task_Input/Task_Input.c **** 
  44:App/Task_Input/Task_Input.c ****     EncPin[Encoder_IO_A] = Encoder_A_Pin;
  47              		.loc 1 44 5 is_stmt 1 view .LVU3
  48              		.loc 1 44 26 is_stmt 0 view .LVU4
  49 000a 1F4C     		ldr	r4, .L6+4
  50 000c 2546     		mov	r5, r4
  51 000e 1F4E     		ldr	r6, .L6+8
  52 0010 0FCE     		ldmia	r6!, {r0, r1, r2, r3}
  53 0012 0FC5     		stmia	r5!, {r0, r1, r2, r3}
  54 0014 96E80700 		ldm	r6, {r0, r1, r2}
  55 0018 85E80700 		stm	r5, {r0, r1, r2}
  45:App/Task_Input/Task_Input.c ****     EncPin[Encoder_IO_B] = Encoder_B_Pin;
  56              		.loc 1 45 5 is_stmt 1 view .LVU5
  57              		.loc 1 45 26 is_stmt 0 view .LVU6
  58 001c 04F11C0C 		add	ip, r4, #28
  59 0020 1B4D     		ldr	r5, .L6+12
  60 0022 0FCD     		ldmia	r5!, {r0, r1, r2, r3}
  61 0024 ACE80F00 		stmia	ip!, {r0, r1, r2, r3}
  62 0028 95E80700 		ldm	r5, {r0, r1, r2}
  63 002c 8CE80700 		stm	ip, {r0, r1, r2}
  46:App/Task_Input/Task_Input.c ****     EncPin[Encoder_IO_Btn] = Encoder_Btn;
  64              		.loc 1 46 5 is_stmt 1 view .LVU7
  65              		.loc 1 46 28 is_stmt 0 view .LVU8
  66 0030 04F1380C 		add	ip, r4, #56
  67 0034 174C     		ldr	r4, .L6+16
  68 0036 0FCC     		ldmia	r4!, {r0, r1, r2, r3}
  69 0038 ACE80F00 		stmia	ip!, {r0, r1, r2, r3}
ARM GAS  /var/folders/lx/hc4sn_b53233_zkc9xbbl97r0000gp/T//cc7IVwxf.s 			page 3


  70 003c 94E80700 		ldm	r4, {r0, r1, r2}
  71 0040 8CE80700 		stm	ip, {r0, r1, r2}
  47:App/Task_Input/Task_Input.c **** 
  48:App/Task_Input/Task_Input.c ****     /* init encoder */
  49:App/Task_Input/Task_Input.c ****     if (!DevEncoder.set_btn_callback(&Encoder_Obj, TaskInput_EncoderBtn_Callback) ||
  72              		.loc 1 49 5 is_stmt 1 view .LVU9
  73              		.loc 1 49 20 is_stmt 0 view .LVU10
  74 0044 144B     		ldr	r3, .L6+20
  75 0046 9B68     		ldr	r3, [r3, #8]
  76              		.loc 1 49 10 view .LVU11
  77 0048 1449     		ldr	r1, .L6+24
  78 004a 1548     		ldr	r0, .L6+28
  79 004c 9847     		blx	r3
  80              	.LVL0:
  81              		.loc 1 49 8 view .LVU12
  82 004e A8B1     		cbz	r0, .L2
  50:App/Task_Input/Task_Input.c ****         !DevEncoder.open(&Encoder_Obj, EncPin, true, Timer_8, TIM_Channel_1, TIM_Channel_2))
  83              		.loc 1 50 20 discriminator 1 view .LVU13
  84 0050 114B     		ldr	r3, .L6+20
  85 0052 1C68     		ldr	r4, [r3]
  86              		.loc 1 50 10 discriminator 1 view .LVU14
  87 0054 0423     		movs	r3, #4
  88 0056 0193     		str	r3, [sp, #4]
  89 0058 0023     		movs	r3, #0
  90 005a 0093     		str	r3, [sp]
  91 005c 0323     		movs	r3, #3
  92 005e 0122     		movs	r2, #1
  93 0060 0949     		ldr	r1, .L6+4
  94 0062 0F48     		ldr	r0, .L6+28
  95 0064 A047     		blx	r4
  96              	.LVL1:
  49:App/Task_Input/Task_Input.c ****         !DevEncoder.open(&Encoder_Obj, EncPin, true, Timer_8, TIM_Channel_1, TIM_Channel_2))
  97              		.loc 1 49 83 discriminator 1 view .LVU15
  98 0066 48B1     		cbz	r0, .L2
  51:App/Task_Input/Task_Input.c ****     {
  52:App/Task_Input/Task_Input.c ****         InputData.error = Input_Encoder_Error;
  53:App/Task_Input/Task_Input.c ****         return Input_Encoder_Error;
  54:App/Task_Input/Task_Input.c ****     }
  55:App/Task_Input/Task_Input.c **** 
  56:App/Task_Input/Task_Input.c ****     DevEncoder.invert(&Encoder_Obj, Encoder_Dir_Invert);
  99              		.loc 1 56 5 is_stmt 1 view .LVU16
 100              		.loc 1 56 15 is_stmt 0 view .LVU17
 101 0068 0B4B     		ldr	r3, .L6+20
 102 006a 5B68     		ldr	r3, [r3, #4]
 103              		.loc 1 56 5 view .LVU18
 104 006c 0121     		movs	r1, #1
 105 006e 0C48     		ldr	r0, .L6+28
 106 0070 9847     		blx	r3
 107              	.LVL2:
  57:App/Task_Input/Task_Input.c **** 
  58:App/Task_Input/Task_Input.c ****     /* init gimbal */
  59:App/Task_Input/Task_Input.c **** 
  60:App/Task_Input/Task_Input.c ****     /* init direction button */
  61:App/Task_Input/Task_Input.c **** 
  62:App/Task_Input/Task_Input.c ****     /* init shoulder button */
  63:App/Task_Input/Task_Input.c **** 
  64:App/Task_Input/Task_Input.c ****     /* init shoulder toggle */
ARM GAS  /var/folders/lx/hc4sn_b53233_zkc9xbbl97r0000gp/T//cc7IVwxf.s 			page 4


  65:App/Task_Input/Task_Input.c **** 
  66:App/Task_Input/Task_Input.c ****     /* init side pot */
  67:App/Task_Input/Task_Input.c **** 
  68:App/Task_Input/Task_Input.c ****     InputData.error = Input_NoError;
 108              		.loc 1 68 5 is_stmt 1 view .LVU19
 109              		.loc 1 68 21 is_stmt 0 view .LVU20
 110 0072 0020     		movs	r0, #0
 111 0074 034B     		ldr	r3, .L6
 112 0076 D875     		strb	r0, [r3, #23]
  69:App/Task_Input/Task_Input.c ****     return Input_NoError;
 113              		.loc 1 69 5 is_stmt 1 view .LVU21
 114              	.L4:
  70:App/Task_Input/Task_Input.c **** }
 115              		.loc 1 70 1 is_stmt 0 view .LVU22
 116 0078 02B0     		add	sp, sp, #8
 117              	.LCFI2:
 118              		.cfi_remember_state
 119              		.cfi_def_cfa_offset 16
 120              		@ sp needed
 121 007a 70BD     		pop	{r4, r5, r6, pc}
 122              	.L2:
 123              	.LCFI3:
 124              		.cfi_restore_state
  52:App/Task_Input/Task_Input.c ****         return Input_Encoder_Error;
 125              		.loc 1 52 9 is_stmt 1 view .LVU23
  52:App/Task_Input/Task_Input.c ****         return Input_Encoder_Error;
 126              		.loc 1 52 25 is_stmt 0 view .LVU24
 127 007c 0220     		movs	r0, #2
 128 007e 014B     		ldr	r3, .L6
 129 0080 D875     		strb	r0, [r3, #23]
  53:App/Task_Input/Task_Input.c ****     }
 130              		.loc 1 53 9 is_stmt 1 view .LVU25
  53:App/Task_Input/Task_Input.c ****     }
 131              		.loc 1 53 16 is_stmt 0 view .LVU26
 132 0082 F9E7     		b	.L4
 133              	.L7:
 134              		.align	2
 135              	.L6:
 136 0084 00000000 		.word	.LANCHOR0
 137 0088 00000000 		.word	.LANCHOR1
 138 008c 00000000 		.word	Encoder_A_Pin
 139 0090 00000000 		.word	Encoder_B_Pin
 140 0094 00000000 		.word	Encoder_Btn
 141 0098 00000000 		.word	DevEncoder
 142 009c 00000000 		.word	TaskInput_EncoderBtn_Callback
 143 00a0 00000000 		.word	.LANCHOR2
 144              		.cfi_endproc
 145              	.LFE126:
 147              		.section	.text.TaskInput_EncoderBtn_Callback,"ax",%progbits
 148              		.align	1
 149              		.syntax unified
 150              		.thumb
 151              		.thumb_func
 152              		.fpu fpv4-sp-d16
 154              	TaskInput_EncoderBtn_Callback:
 155              	.LFB129:
  71:App/Task_Input/Task_Input.c **** 
ARM GAS  /var/folders/lx/hc4sn_b53233_zkc9xbbl97r0000gp/T//cc7IVwxf.s 			page 5


  72:App/Task_Input/Task_Input.c **** static int16_t TaskInput_Analog_Filter(int16_t in)
  73:App/Task_Input/Task_Input.c **** {
  74:App/Task_Input/Task_Input.c ****     int16_t flt_val = 0;
  75:App/Task_Input/Task_Input.c **** 
  76:App/Task_Input/Task_Input.c ****     /* filter the input analog value */
  77:App/Task_Input/Task_Input.c **** 
  78:App/Task_Input/Task_Input.c ****     return flt_val;
  79:App/Task_Input/Task_Input.c **** }
  80:App/Task_Input/Task_Input.c **** 
  81:App/Task_Input/Task_Input.c **** static int16_t TaskInput_AnalogValue_Map(int16_t in)
  82:App/Task_Input/Task_Input.c **** {
  83:App/Task_Input/Task_Input.c ****     int16_t map_val = 0;
  84:App/Task_Input/Task_Input.c ****     double gain = 0.0;
  85:App/Task_Input/Task_Input.c **** 
  86:App/Task_Input/Task_Input.c ****     /* include analog input liner and none liner condition map */
  87:App/Task_Input/Task_Input.c **** 
  88:App/Task_Input/Task_Input.c ****     return map_val;
  89:App/Task_Input/Task_Input.c **** }
  90:App/Task_Input/Task_Input.c **** 
  91:App/Task_Input/Task_Input.c **** static void TaskInput_EncoderBtn_Callback(void)
  92:App/Task_Input/Task_Input.c **** {
 156              		.loc 1 92 1 is_stmt 1 view -0
 157              		.cfi_startproc
 158              		@ args = 0, pretend = 0, frame = 0
 159              		@ frame_needed = 0, uses_anonymous_args = 0
 160 0000 08B5     		push	{r3, lr}
 161              	.LCFI4:
 162              		.cfi_def_cfa_offset 8
 163              		.cfi_offset 3, -8
 164              		.cfi_offset 14, -4
  93:App/Task_Input/Task_Input.c ****     if (DevEncoder.trigger_button(&Encoder_Obj, &EncPin[Encoder_IO_Btn]))
 165              		.loc 1 93 5 view .LVU28
 166              		.loc 1 93 19 is_stmt 0 view .LVU29
 167 0002 084B     		ldr	r3, .L12
 168 0004 DB68     		ldr	r3, [r3, #12]
 169              		.loc 1 93 9 view .LVU30
 170 0006 0849     		ldr	r1, .L12+4
 171 0008 0848     		ldr	r0, .L12+8
 172 000a 9847     		blx	r3
 173              	.LVL3:
 174              		.loc 1 93 8 view .LVU31
 175 000c 20B1     		cbz	r0, .L9
  94:App/Task_Input/Task_Input.c ****     {
  95:App/Task_Input/Task_Input.c ****         if (EncoderBtn_Push_Callback != NULL)
 176              		.loc 1 95 9 is_stmt 1 view .LVU32
 177              		.loc 1 95 38 is_stmt 0 view .LVU33
 178 000e 084B     		ldr	r3, .L12+12
 179 0010 1B68     		ldr	r3, [r3]
 180              		.loc 1 95 12 view .LVU34
 181 0012 03B1     		cbz	r3, .L8
  96:App/Task_Input/Task_Input.c ****             EncoderBtn_Push_Callback();
 182              		.loc 1 96 13 is_stmt 1 view .LVU35
 183 0014 9847     		blx	r3
 184              	.LVL4:
 185              	.L8:
  97:App/Task_Input/Task_Input.c ****     }
  98:App/Task_Input/Task_Input.c ****     else
ARM GAS  /var/folders/lx/hc4sn_b53233_zkc9xbbl97r0000gp/T//cc7IVwxf.s 			page 6


  99:App/Task_Input/Task_Input.c ****     {
 100:App/Task_Input/Task_Input.c ****         if (EncoderBtn_Release_Callback != NULL)
 101:App/Task_Input/Task_Input.c ****             EncoderBtn_Release_Callback();
 102:App/Task_Input/Task_Input.c ****     }
 103:App/Task_Input/Task_Input.c **** }
 186              		.loc 1 103 1 is_stmt 0 view .LVU36
 187 0016 08BD     		pop	{r3, pc}
 188              	.L9:
 100:App/Task_Input/Task_Input.c ****             EncoderBtn_Release_Callback();
 189              		.loc 1 100 9 is_stmt 1 view .LVU37
 100:App/Task_Input/Task_Input.c ****             EncoderBtn_Release_Callback();
 190              		.loc 1 100 41 is_stmt 0 view .LVU38
 191 0018 064B     		ldr	r3, .L12+16
 192 001a 1B68     		ldr	r3, [r3]
 100:App/Task_Input/Task_Input.c ****             EncoderBtn_Release_Callback();
 193              		.loc 1 100 12 view .LVU39
 194 001c 002B     		cmp	r3, #0
 195 001e FAD0     		beq	.L8
 101:App/Task_Input/Task_Input.c ****     }
 196              		.loc 1 101 13 is_stmt 1 view .LVU40
 197 0020 9847     		blx	r3
 198              	.LVL5:
 199              		.loc 1 103 1 is_stmt 0 view .LVU41
 200 0022 F8E7     		b	.L8
 201              	.L13:
 202              		.align	2
 203              	.L12:
 204 0024 00000000 		.word	DevEncoder
 205 0028 38000000 		.word	.LANCHOR1+56
 206 002c 00000000 		.word	.LANCHOR2
 207 0030 00000000 		.word	.LANCHOR3
 208 0034 00000000 		.word	.LANCHOR4
 209              		.cfi_endproc
 210              	.LFE129:
 212              		.section	.text.TaskInput_Update,"ax",%progbits
 213              		.align	1
 214              		.syntax unified
 215              		.thumb
 216              		.thumb_func
 217              		.fpu fpv4-sp-d16
 219              	TaskInput_Update:
 220              	.LFB131:
 104:App/Task_Input/Task_Input.c **** 
 105:App/Task_Input/Task_Input.c **** void TaskInput_SetCallback(TaskInput_Callback_TypeList type, TaskInput_Callback callback)
 106:App/Task_Input/Task_Input.c **** {
 107:App/Task_Input/Task_Input.c ****     switch (type)
 108:App/Task_Input/Task_Input.c ****     {
 109:App/Task_Input/Task_Input.c ****     case DevEncoderBtn_Push_Callback:
 110:App/Task_Input/Task_Input.c ****         EncoderBtn_Push_Callback = callback;
 111:App/Task_Input/Task_Input.c ****         break;
 112:App/Task_Input/Task_Input.c **** 
 113:App/Task_Input/Task_Input.c ****     case DevEncoderBtn_Release_Callback:
 114:App/Task_Input/Task_Input.c ****         EncoderBtn_Release_Callback = callback;
 115:App/Task_Input/Task_Input.c ****         break;
 116:App/Task_Input/Task_Input.c **** 
 117:App/Task_Input/Task_Input.c ****     default:
 118:App/Task_Input/Task_Input.c ****         break;
ARM GAS  /var/folders/lx/hc4sn_b53233_zkc9xbbl97r0000gp/T//cc7IVwxf.s 			page 7


 119:App/Task_Input/Task_Input.c ****     }
 120:App/Task_Input/Task_Input.c **** }
 121:App/Task_Input/Task_Input.c **** 
 122:App/Task_Input/Task_Input.c **** static Input_Error_List TaskInput_Update(void)
 123:App/Task_Input/Task_Input.c **** {
 221              		.loc 1 123 1 is_stmt 1 view -0
 222              		.cfi_startproc
 223              		@ args = 0, pretend = 0, frame = 8
 224              		@ frame_needed = 0, uses_anonymous_args = 0
 124:App/Task_Input/Task_Input.c ****     if (InputData.error != Input_NoError)
 225              		.loc 1 124 5 view .LVU43
 226              		.loc 1 124 18 is_stmt 0 view .LVU44
 227 0000 094B     		ldr	r3, .L20
 228 0002 D87D     		ldrb	r0, [r3, #23]	@ zero_extendqisi2
 229              		.loc 1 124 8 view .LVU45
 230 0004 78B9     		cbnz	r0, .L17
 123:App/Task_Input/Task_Input.c ****     if (InputData.error != Input_NoError)
 231              		.loc 1 123 1 view .LVU46
 232 0006 10B5     		push	{r4, lr}
 233              	.LCFI5:
 234              		.cfi_def_cfa_offset 8
 235              		.cfi_offset 4, -8
 236              		.cfi_offset 14, -4
 237 0008 82B0     		sub	sp, sp, #8
 238              	.LCFI6:
 239              		.cfi_def_cfa_offset 16
 125:App/Task_Input/Task_Input.c ****         return InputData.error;
 126:App/Task_Input/Task_Input.c **** 
 127:App/Task_Input/Task_Input.c ****     /* get encdoer */
 128:App/Task_Input/Task_Input.c ****     InputData.Enc_Val = DevEncoder.get(&Encoder_Obj);
 240              		.loc 1 128 5 is_stmt 1 view .LVU47
 241              		.loc 1 128 35 is_stmt 0 view .LVU48
 242 000a 084B     		ldr	r3, .L20+4
 243 000c 5B69     		ldr	r3, [r3, #20]
 244              		.loc 1 128 25 view .LVU49
 245 000e 064C     		ldr	r4, .L20
 246 0010 0749     		ldr	r1, .L20+8
 247 0012 6846     		mov	r0, sp
 248 0014 9847     		blx	r3
 249              	.LVL6:
 250 0016 009B     		ldr	r3, [sp]	@ unaligned
 251 0018 C4F80E30 		str	r3, [r4, #14]	@ unaligned
 252 001c BDF80430 		ldrh	r3, [sp, #4]	@ unaligned
 253 0020 6382     		strh	r3, [r4, #18]	@ unaligned
 129:App/Task_Input/Task_Input.c **** 
 130:App/Task_Input/Task_Input.c ****     /* analog input */
 131:App/Task_Input/Task_Input.c ****     /* get left gimbal */
 132:App/Task_Input/Task_Input.c **** 
 133:App/Task_Input/Task_Input.c ****     /* get right gimbal */
 134:App/Task_Input/Task_Input.c **** 
 135:App/Task_Input/Task_Input.c ****     /* get left side pot value */
 136:App/Task_Input/Task_Input.c **** 
 137:App/Task_Input/Task_Input.c ****     /* get right side pot value */
 138:App/Task_Input/Task_Input.c **** 
 139:App/Task_Input/Task_Input.c ****     /* get battery percent */
 140:App/Task_Input/Task_Input.c **** }
 254              		.loc 1 140 1 view .LVU50
ARM GAS  /var/folders/lx/hc4sn_b53233_zkc9xbbl97r0000gp/T//cc7IVwxf.s 			page 8


 255 0022 02B0     		add	sp, sp, #8
 256              	.LCFI7:
 257              		.cfi_def_cfa_offset 8
 258              		@ sp needed
 259 0024 10BD     		pop	{r4, pc}
 260              	.L17:
 261              	.LCFI8:
 262              		.cfi_def_cfa_offset 0
 263              		.cfi_restore 4
 264              		.cfi_restore 14
 265 0026 7047     		bx	lr
 266              	.L21:
 267              		.align	2
 268              	.L20:
 269 0028 00000000 		.word	.LANCHOR0
 270 002c 00000000 		.word	DevEncoder
 271 0030 00000000 		.word	.LANCHOR2
 272              		.cfi_endproc
 273              	.LFE131:
 275              		.section	.text.TaskInput_SetCallback,"ax",%progbits
 276              		.align	1
 277              		.global	TaskInput_SetCallback
 278              		.syntax unified
 279              		.thumb
 280              		.thumb_func
 281              		.fpu fpv4-sp-d16
 283              	TaskInput_SetCallback:
 284              	.LVL7:
 285              	.LFB130:
 106:App/Task_Input/Task_Input.c ****     switch (type)
 286              		.loc 1 106 1 is_stmt 1 view -0
 287              		.cfi_startproc
 288              		@ args = 0, pretend = 0, frame = 0
 289              		@ frame_needed = 0, uses_anonymous_args = 0
 290              		@ link register save eliminated.
 107:App/Task_Input/Task_Input.c ****     {
 291              		.loc 1 107 5 view .LVU52
 292 0000 10B1     		cbz	r0, .L23
 293 0002 0128     		cmp	r0, #1
 294 0004 03D0     		beq	.L24
 295 0006 7047     		bx	lr
 296              	.L23:
 110:App/Task_Input/Task_Input.c ****         break;
 297              		.loc 1 110 9 view .LVU53
 110:App/Task_Input/Task_Input.c ****         break;
 298              		.loc 1 110 34 is_stmt 0 view .LVU54
 299 0008 024B     		ldr	r3, .L26
 300 000a 1960     		str	r1, [r3]
 111:App/Task_Input/Task_Input.c **** 
 301              		.loc 1 111 9 is_stmt 1 view .LVU55
 302 000c 7047     		bx	lr
 303              	.L24:
 114:App/Task_Input/Task_Input.c ****         break;
 304              		.loc 1 114 9 view .LVU56
 114:App/Task_Input/Task_Input.c ****         break;
 305              		.loc 1 114 37 is_stmt 0 view .LVU57
 306 000e 024B     		ldr	r3, .L26+4
ARM GAS  /var/folders/lx/hc4sn_b53233_zkc9xbbl97r0000gp/T//cc7IVwxf.s 			page 9


 307 0010 1960     		str	r1, [r3]
 115:App/Task_Input/Task_Input.c **** 
 308              		.loc 1 115 9 is_stmt 1 view .LVU58
 120:App/Task_Input/Task_Input.c **** 
 309              		.loc 1 120 1 is_stmt 0 view .LVU59
 310 0012 7047     		bx	lr
 311              	.L27:
 312              		.align	2
 313              	.L26:
 314 0014 00000000 		.word	.LANCHOR3
 315 0018 00000000 		.word	.LANCHOR4
 316              		.cfi_endproc
 317              	.LFE130:
 319              		.section	.text.TaskInput_GetData,"ax",%progbits
 320              		.align	1
 321              		.global	TaskInput_GetData
 322              		.syntax unified
 323              		.thumb
 324              		.thumb_func
 325              		.fpu fpv4-sp-d16
 327              	TaskInput_GetData:
 328              	.LFB133:
 141:App/Task_Input/Task_Input.c **** 
 142:App/Task_Input/Task_Input.c **** static void TaskInput_Gimbal_Cali(void)
 143:App/Task_Input/Task_Input.c **** {
 144:App/Task_Input/Task_Input.c **** }
 145:App/Task_Input/Task_Input.c **** 
 146:App/Task_Input/Task_Input.c **** Input_Data_TypeDef *TaskInput_GetData(void)
 147:App/Task_Input/Task_Input.c **** {
 329              		.loc 1 147 1 is_stmt 1 view -0
 330              		.cfi_startproc
 331              		@ args = 0, pretend = 0, frame = 0
 332              		@ frame_needed = 0, uses_anonymous_args = 0
 333              		@ link register save eliminated.
 148:App/Task_Input/Task_Input.c ****     return &InputData;
 334              		.loc 1 148 5 view .LVU61
 149:App/Task_Input/Task_Input.c **** }
 335              		.loc 1 149 1 is_stmt 0 view .LVU62
 336 0000 0048     		ldr	r0, .L29
 337 0002 7047     		bx	lr
 338              	.L30:
 339              		.align	2
 340              	.L29:
 341 0004 00000000 		.word	.LANCHOR0
 342              		.cfi_endproc
 343              	.LFE133:
 345              		.section	.text.TaskInput_Core,"ax",%progbits
 346              		.align	1
 347              		.global	TaskInput_Core
 348              		.syntax unified
 349              		.thumb
 350              		.thumb_func
 351              		.fpu fpv4-sp-d16
 353              	TaskInput_Core:
 354              	.LVL8:
 355              	.LFB134:
 150:App/Task_Input/Task_Input.c **** 
ARM GAS  /var/folders/lx/hc4sn_b53233_zkc9xbbl97r0000gp/T//cc7IVwxf.s 			page 10


 151:App/Task_Input/Task_Input.c **** void TaskInput_Core(Task_Handler self)
 152:App/Task_Input/Task_Input.c **** {
 356              		.loc 1 152 1 is_stmt 1 view -0
 357              		.cfi_startproc
 358              		@ args = 0, pretend = 0, frame = 0
 359              		@ frame_needed = 0, uses_anonymous_args = 0
 360              		.loc 1 152 1 is_stmt 0 view .LVU64
 361 0000 08B5     		push	{r3, lr}
 362              	.LCFI9:
 363              		.cfi_def_cfa_offset 8
 364              		.cfi_offset 3, -8
 365              		.cfi_offset 14, -4
 153:App/Task_Input/Task_Input.c ****     switch (Task_Stage)
 366              		.loc 1 153 5 is_stmt 1 view .LVU65
 367 0002 0A4B     		ldr	r3, .L37
 368 0004 1B78     		ldrb	r3, [r3]	@ zero_extendqisi2
 369 0006 13B1     		cbz	r3, .L32
 370 0008 022B     		cmp	r3, #2
 371 000a 0BD0     		beq	.L33
 372              	.LVL9:
 373              	.L31:
 154:App/Task_Input/Task_Input.c ****     {
 155:App/Task_Input/Task_Input.c ****     case TaskInput_Initialize:
 156:App/Task_Input/Task_Input.c ****         if (TaskInput_Init() != Input_NoError)
 157:App/Task_Input/Task_Input.c ****         {
 158:App/Task_Input/Task_Input.c ****             Task_Stage = TaskInput_Init_Error;
 159:App/Task_Input/Task_Input.c ****         }
 160:App/Task_Input/Task_Input.c ****         else
 161:App/Task_Input/Task_Input.c ****             Task_Stage = TaskInput_Updating;
 162:App/Task_Input/Task_Input.c ****         break;
 163:App/Task_Input/Task_Input.c **** 
 164:App/Task_Input/Task_Input.c ****     case TaskInput_Init_Error:
 165:App/Task_Input/Task_Input.c ****         /* TODO Error Process */
 166:App/Task_Input/Task_Input.c ****         break;
 167:App/Task_Input/Task_Input.c **** 
 168:App/Task_Input/Task_Input.c ****     case TaskInput_Updating:
 169:App/Task_Input/Task_Input.c ****         TaskInput_Update();
 170:App/Task_Input/Task_Input.c ****         break;
 171:App/Task_Input/Task_Input.c **** 
 172:App/Task_Input/Task_Input.c ****     default:
 173:App/Task_Input/Task_Input.c ****         break;
 174:App/Task_Input/Task_Input.c ****     }
 175:App/Task_Input/Task_Input.c **** }
 374              		.loc 1 175 1 is_stmt 0 view .LVU66
 375 000c 08BD     		pop	{r3, pc}
 376              	.LVL10:
 377              	.L32:
 156:App/Task_Input/Task_Input.c ****         {
 378              		.loc 1 156 9 is_stmt 1 view .LVU67
 156:App/Task_Input/Task_Input.c ****         {
 379              		.loc 1 156 13 is_stmt 0 view .LVU68
 380 000e FFF7FEFF 		bl	TaskInput_Init
 381              	.LVL11:
 156:App/Task_Input/Task_Input.c ****         {
 382              		.loc 1 156 12 view .LVU69
 383 0012 18B1     		cbz	r0, .L35
 158:App/Task_Input/Task_Input.c ****         }
ARM GAS  /var/folders/lx/hc4sn_b53233_zkc9xbbl97r0000gp/T//cc7IVwxf.s 			page 11


 384              		.loc 1 158 13 is_stmt 1 view .LVU70
 158:App/Task_Input/Task_Input.c ****         }
 385              		.loc 1 158 24 is_stmt 0 view .LVU71
 386 0014 054B     		ldr	r3, .L37
 387 0016 0122     		movs	r2, #1
 388 0018 1A70     		strb	r2, [r3]
 389 001a F7E7     		b	.L31
 390              	.L35:
 161:App/Task_Input/Task_Input.c ****         break;
 391              		.loc 1 161 13 is_stmt 1 view .LVU72
 161:App/Task_Input/Task_Input.c ****         break;
 392              		.loc 1 161 24 is_stmt 0 view .LVU73
 393 001c 034B     		ldr	r3, .L37
 394 001e 0222     		movs	r2, #2
 395 0020 1A70     		strb	r2, [r3]
 396 0022 F3E7     		b	.L31
 397              	.LVL12:
 398              	.L33:
 169:App/Task_Input/Task_Input.c ****         break;
 399              		.loc 1 169 9 is_stmt 1 view .LVU74
 400 0024 FFF7FEFF 		bl	TaskInput_Update
 401              	.LVL13:
 170:App/Task_Input/Task_Input.c **** 
 402              		.loc 1 170 9 view .LVU75
 403              		.loc 1 175 1 is_stmt 0 view .LVU76
 404 0028 F0E7     		b	.L31
 405              	.L38:
 406 002a 00BF     		.align	2
 407              	.L37:
 408 002c 00000000 		.word	.LANCHOR5
 409              		.cfi_endproc
 410              	.LFE134:
 412              		.global	SigInput_Tsk_Hdl
 413              		.section	.bss.EncPin,"aw",%nobits
 414              		.align	2
 415              		.set	.LANCHOR1,. + 0
 418              	EncPin:
 419 0000 00000000 		.space	84
 419      00000000 
 419      00000000 
 419      00000000 
 419      00000000 
 420              		.section	.bss.EncoderBtn_Push_Callback,"aw",%nobits
 421              		.align	2
 422              		.set	.LANCHOR3,. + 0
 425              	EncoderBtn_Push_Callback:
 426 0000 00000000 		.space	4
 427              		.section	.bss.EncoderBtn_Release_Callback,"aw",%nobits
 428              		.align	2
 429              		.set	.LANCHOR4,. + 0
 432              	EncoderBtn_Release_Callback:
 433 0000 00000000 		.space	4
 434              		.section	.bss.Encoder_Obj,"aw",%nobits
 435              		.align	2
 436              		.set	.LANCHOR2,. + 0
 439              	Encoder_Obj:
 440 0000 00000000 		.space	116
ARM GAS  /var/folders/lx/hc4sn_b53233_zkc9xbbl97r0000gp/T//cc7IVwxf.s 			page 12


 440      00000000 
 440      00000000 
 440      00000000 
 440      00000000 
 441              		.section	.bss.InputData,"aw",%nobits
 442              		.align	2
 443              		.set	.LANCHOR0,. + 0
 446              	InputData:
 447 0000 00000000 		.space	24
 447      00000000 
 447      00000000 
 447      00000000 
 447      00000000 
 448              		.section	.bss.SigInput_Tsk_Hdl,"aw",%nobits
 449              		.align	2
 452              	SigInput_Tsk_Hdl:
 453 0000 00000000 		.space	4
 454              		.section	.bss.Task_Stage,"aw",%nobits
 455              		.set	.LANCHOR5,. + 0
 458              	Task_Stage:
 459 0000 00       		.space	1
 460              		.text
 461              	.Letext0:
 462              		.file 2 "/usr/local/arm-none-eabi-gcc/gcc-arm-none-eabi-10-2020-q4-major/arm-none-eabi/include/mac
 463              		.file 3 "/usr/local/arm-none-eabi-gcc/gcc-arm-none-eabi-10-2020-q4-major/arm-none-eabi/include/sys
 464              		.file 4 "SYS/task_manager/task_manager.h"
 465              		.file 5 "FWLIB/inc/stm32f4xx_exti.h"
 466              		.file 6 "Bsp/periph_exti.h"
 467              		.file 7 "Drv/drv_gpio.h"
 468              		.file 8 "Dev/Dev_Toggle.h"
 469              		.file 9 "Dev/Dev_5DirButton.h"
 470              		.file 10 "Dev/Dev_Gimbal.h"
 471              		.file 11 "Bsp/periph_timer.h"
 472              		.file 12 "Drv/drv_timer.h"
 473              		.file 13 "Dev/Dev_Encoder.h"
 474              		.file 14 "App/Task_Input/Task_Input.h"
 475              		.file 15 "App/Task_Input/Input_IO_Def.h"
ARM GAS  /var/folders/lx/hc4sn_b53233_zkc9xbbl97r0000gp/T//cc7IVwxf.s 			page 13


DEFINED SYMBOLS
                            *ABS*:0000000000000000 Task_Input.c
/var/folders/lx/hc4sn_b53233_zkc9xbbl97r0000gp/T//cc7IVwxf.s:18     .text.TaskInput_Init:0000000000000000 $t
/var/folders/lx/hc4sn_b53233_zkc9xbbl97r0000gp/T//cc7IVwxf.s:25     .text.TaskInput_Init:0000000000000000 TaskInput_Init
/var/folders/lx/hc4sn_b53233_zkc9xbbl97r0000gp/T//cc7IVwxf.s:136    .text.TaskInput_Init:0000000000000084 $d
/var/folders/lx/hc4sn_b53233_zkc9xbbl97r0000gp/T//cc7IVwxf.s:154    .text.TaskInput_EncoderBtn_Callback:0000000000000000 TaskInput_EncoderBtn_Callback
/var/folders/lx/hc4sn_b53233_zkc9xbbl97r0000gp/T//cc7IVwxf.s:148    .text.TaskInput_EncoderBtn_Callback:0000000000000000 $t
/var/folders/lx/hc4sn_b53233_zkc9xbbl97r0000gp/T//cc7IVwxf.s:204    .text.TaskInput_EncoderBtn_Callback:0000000000000024 $d
/var/folders/lx/hc4sn_b53233_zkc9xbbl97r0000gp/T//cc7IVwxf.s:213    .text.TaskInput_Update:0000000000000000 $t
/var/folders/lx/hc4sn_b53233_zkc9xbbl97r0000gp/T//cc7IVwxf.s:219    .text.TaskInput_Update:0000000000000000 TaskInput_Update
/var/folders/lx/hc4sn_b53233_zkc9xbbl97r0000gp/T//cc7IVwxf.s:269    .text.TaskInput_Update:0000000000000028 $d
/var/folders/lx/hc4sn_b53233_zkc9xbbl97r0000gp/T//cc7IVwxf.s:276    .text.TaskInput_SetCallback:0000000000000000 $t
/var/folders/lx/hc4sn_b53233_zkc9xbbl97r0000gp/T//cc7IVwxf.s:283    .text.TaskInput_SetCallback:0000000000000000 TaskInput_SetCallback
/var/folders/lx/hc4sn_b53233_zkc9xbbl97r0000gp/T//cc7IVwxf.s:314    .text.TaskInput_SetCallback:0000000000000014 $d
/var/folders/lx/hc4sn_b53233_zkc9xbbl97r0000gp/T//cc7IVwxf.s:320    .text.TaskInput_GetData:0000000000000000 $t
/var/folders/lx/hc4sn_b53233_zkc9xbbl97r0000gp/T//cc7IVwxf.s:327    .text.TaskInput_GetData:0000000000000000 TaskInput_GetData
/var/folders/lx/hc4sn_b53233_zkc9xbbl97r0000gp/T//cc7IVwxf.s:341    .text.TaskInput_GetData:0000000000000004 $d
/var/folders/lx/hc4sn_b53233_zkc9xbbl97r0000gp/T//cc7IVwxf.s:346    .text.TaskInput_Core:0000000000000000 $t
/var/folders/lx/hc4sn_b53233_zkc9xbbl97r0000gp/T//cc7IVwxf.s:353    .text.TaskInput_Core:0000000000000000 TaskInput_Core
/var/folders/lx/hc4sn_b53233_zkc9xbbl97r0000gp/T//cc7IVwxf.s:408    .text.TaskInput_Core:000000000000002c $d
/var/folders/lx/hc4sn_b53233_zkc9xbbl97r0000gp/T//cc7IVwxf.s:452    .bss.SigInput_Tsk_Hdl:0000000000000000 SigInput_Tsk_Hdl
/var/folders/lx/hc4sn_b53233_zkc9xbbl97r0000gp/T//cc7IVwxf.s:414    .bss.EncPin:0000000000000000 $d
/var/folders/lx/hc4sn_b53233_zkc9xbbl97r0000gp/T//cc7IVwxf.s:418    .bss.EncPin:0000000000000000 EncPin
/var/folders/lx/hc4sn_b53233_zkc9xbbl97r0000gp/T//cc7IVwxf.s:421    .bss.EncoderBtn_Push_Callback:0000000000000000 $d
/var/folders/lx/hc4sn_b53233_zkc9xbbl97r0000gp/T//cc7IVwxf.s:425    .bss.EncoderBtn_Push_Callback:0000000000000000 EncoderBtn_Push_Callback
/var/folders/lx/hc4sn_b53233_zkc9xbbl97r0000gp/T//cc7IVwxf.s:428    .bss.EncoderBtn_Release_Callback:0000000000000000 $d
/var/folders/lx/hc4sn_b53233_zkc9xbbl97r0000gp/T//cc7IVwxf.s:432    .bss.EncoderBtn_Release_Callback:0000000000000000 EncoderBtn_Release_Callback
/var/folders/lx/hc4sn_b53233_zkc9xbbl97r0000gp/T//cc7IVwxf.s:435    .bss.Encoder_Obj:0000000000000000 $d
/var/folders/lx/hc4sn_b53233_zkc9xbbl97r0000gp/T//cc7IVwxf.s:439    .bss.Encoder_Obj:0000000000000000 Encoder_Obj
/var/folders/lx/hc4sn_b53233_zkc9xbbl97r0000gp/T//cc7IVwxf.s:442    .bss.InputData:0000000000000000 $d
/var/folders/lx/hc4sn_b53233_zkc9xbbl97r0000gp/T//cc7IVwxf.s:446    .bss.InputData:0000000000000000 InputData
/var/folders/lx/hc4sn_b53233_zkc9xbbl97r0000gp/T//cc7IVwxf.s:449    .bss.SigInput_Tsk_Hdl:0000000000000000 $d
/var/folders/lx/hc4sn_b53233_zkc9xbbl97r0000gp/T//cc7IVwxf.s:458    .bss.Task_Stage:0000000000000000 Task_Stage
/var/folders/lx/hc4sn_b53233_zkc9xbbl97r0000gp/T//cc7IVwxf.s:459    .bss.Task_Stage:0000000000000000 $d

UNDEFINED SYMBOLS
Encoder_A_Pin
Encoder_B_Pin
Encoder_Btn
DevEncoder
