ARM GAS  /var/folders/lx/hc4sn_b53233_zkc9xbbl97r0000gp/T//ccdoBicG.s 			page 1


   1              		.cpu cortex-m4
   2              		.eabi_attribute 27, 1
   3              		.eabi_attribute 28, 1
   4              		.eabi_attribute 20, 1
   5              		.eabi_attribute 21, 1
   6              		.eabi_attribute 23, 3
   7              		.eabi_attribute 24, 1
   8              		.eabi_attribute 25, 1
   9              		.eabi_attribute 26, 1
  10              		.eabi_attribute 30, 1
  11              		.eabi_attribute 34, 1
  12              		.eabi_attribute 18, 4
  13              		.file	"task_manager.c"
  14              		.text
  15              	.Ltext0:
  16              		.cfi_sections	.debug_frame
  17              		.section	.text.Task_Exit,"ax",%progbits
  18              		.align	1
  19              		.arch armv7e-m
  20              		.syntax unified
  21              		.thumb
  22              		.thumb_func
  23              		.fpu fpv4-sp-d16
  25              	Task_Exit:
  26              	.LFB129:
  27              		.file 1 "SYS/task_manager/task_manager.c"
   1:SYS/task_manager/task_manager.c **** #include "task_manager.h"
   2:SYS/task_manager/task_manager.c **** #include "runtime.h"
   3:SYS/task_manager/task_manager.c **** #include "string.h"
   4:SYS/task_manager/task_manager.c **** #include "stddef.h"
   5:SYS/task_manager/task_manager.c **** #include "periph_gpio.h"
   6:SYS/task_manager/task_manager.c **** #include "periph_timer.h"
   7:SYS/task_manager/task_manager.c **** #include <stdio.h>
   8:SYS/task_manager/task_manager.c **** #include "task_manager_cfg.h"
   9:SYS/task_manager/task_manager.c **** #include "binary_tree.h"
  10:SYS/task_manager/task_manager.c **** #include "linked_list.h"
  11:SYS/task_manager/task_manager.c **** 
  12:SYS/task_manager/task_manager.c **** //coder: 8_B!T0
  13:SYS/task_manager/task_manager.c **** //bref:
  14:SYS/task_manager/task_manager.c **** //estabishment a task running system with priority calling functional
  15:SYS/task_manager/task_manager.c **** //alway calling the highest priority function in all function under the ready table
  16:SYS/task_manager/task_manager.c **** //reference to ucos (version earler than v8.6)
  17:SYS/task_manager/task_manager.c **** 
  18:SYS/task_manager/task_manager.c **** /*
  19:SYS/task_manager/task_manager.c **** *******************************   TASK Handle    *******************************
  20:SYS/task_manager/task_manager.c **** 
  21:SYS/task_manager/task_manager.c ****              task0   task1   task2   task3   task4   task5   task6   task7
  22:SYS/task_manager/task_manager.c **** group0     |_______|_______|_______|_______|_______|_______|_______|_______|
  23:SYS/task_manager/task_manager.c **** group1     |_______|_______|_______|_______|_______|_______|_______|_______|
  24:SYS/task_manager/task_manager.c **** group2     |_______|_______|_______|_______|_______|_______|_______|_______|
  25:SYS/task_manager/task_manager.c **** group3     |_______|_______|_______|_______|_______|_______|_______|_______|
  26:SYS/task_manager/task_manager.c **** group4     |_______|_______|_______|_______|_______|_______|_______|_______|
  27:SYS/task_manager/task_manager.c **** group5     |_______|_______|_______|_______|_______|_______|_______|_______|
  28:SYS/task_manager/task_manager.c **** group6     |_______|_______|_______|_______|_______|_______|_______|_______|
  29:SYS/task_manager/task_manager.c **** group7     |_______|_______|_______|_______|_______|_______|_______|_______|
  30:SYS/task_manager/task_manager.c **** 
  31:SYS/task_manager/task_manager.c **** */
ARM GAS  /var/folders/lx/hc4sn_b53233_zkc9xbbl97r0000gp/T//ccdoBicG.s 			page 2


  32:SYS/task_manager/task_manager.c **** 
  33:SYS/task_manager/task_manager.c **** #define GET_TASKGROUP_PRIORITY(x) x >> 3
  34:SYS/task_manager/task_manager.c **** #define GET_TASKINGROUP_PRIORITY(y) y & 0X07
  35:SYS/task_manager/task_manager.c **** 
  36:SYS/task_manager/task_manager.c **** static const uint8_t Tsk_Handle[256] = {0, 0, 1, 0, 2, 0, 1, 0, 3, 0, 1, 0, 2, 0, 1, 0,  //0x00 ~ 0
  37:SYS/task_manager/task_manager.c ****                                         4, 0, 1, 0, 2, 0, 1, 0, 3, 0, 1, 0, 2, 0, 1, 0,  //0x10 ~ 0
  38:SYS/task_manager/task_manager.c ****                                         5, 0, 1, 0, 2, 0, 1, 0, 3, 0, 1, 0, 2, 0, 1, 0,  //0x20 ~ 0
  39:SYS/task_manager/task_manager.c ****                                         4, 0, 1, 0, 2, 0, 1, 0, 3, 0, 1, 0, 2, 0, 1, 0,  //0x30 ~ 0
  40:SYS/task_manager/task_manager.c ****                                         6, 0, 1, 0, 2, 0, 1, 0, 3, 0, 1, 0, 2, 0, 1, 0,  //0x40 ~ 0
  41:SYS/task_manager/task_manager.c ****                                         4, 0, 1, 0, 2, 0, 1, 0, 3, 0, 1, 0, 2, 0, 1, 0,  //0x50 ~ 0
  42:SYS/task_manager/task_manager.c ****                                         5, 0, 1, 0, 2, 0, 1, 0, 3, 0, 1, 0, 2, 0, 1, 0,  //0x60 ~ 0
  43:SYS/task_manager/task_manager.c ****                                         4, 0, 1, 0, 2, 0, 1, 0, 3, 0, 1, 0, 2, 0, 1, 0,  //0x70 ~ 0
  44:SYS/task_manager/task_manager.c ****                                         7, 0, 1, 0, 2, 0, 1, 0, 3, 0, 1, 0, 2, 0, 1, 0,  //0x80 ~ 0
  45:SYS/task_manager/task_manager.c ****                                         4, 0, 1, 0, 2, 0, 1, 0, 3, 0, 1, 0, 2, 0, 1, 0,  //0x90 ~ 0
  46:SYS/task_manager/task_manager.c ****                                         5, 0, 1, 0, 2, 0, 1, 0, 3, 0, 1, 0, 2, 0, 1, 0,  //0xA0 ~ 0
  47:SYS/task_manager/task_manager.c ****                                         4, 0, 1, 0, 2, 0, 1, 0, 3, 0, 1, 0, 2, 0, 1, 0,  //0xB0 ~ 0
  48:SYS/task_manager/task_manager.c ****                                         6, 0, 1, 0, 2, 0, 1, 0, 3, 0, 1, 0, 2, 0, 1, 0,  //0xC0 ~ 0
  49:SYS/task_manager/task_manager.c ****                                         4, 0, 1, 0, 2, 0, 1, 0, 3, 0, 1, 0, 2, 0, 1, 0,  //0xD0 ~ 0
  50:SYS/task_manager/task_manager.c ****                                         5, 0, 1, 0, 2, 0, 1, 0, 3, 0, 1, 0, 2, 0, 1, 0,  //0xE0 ~ 0
  51:SYS/task_manager/task_manager.c ****                                         4, 0, 1, 0, 2, 0, 1, 0, 3, 0, 1, 0, 2, 0, 1, 0}; //0xF0 ~ 0
  52:SYS/task_manager/task_manager.c **** 
  53:SYS/task_manager/task_manager.c **** Task *Task_Ptr[Group_Sum][Task_Priority_Sum];
  54:SYS/task_manager/task_manager.c **** volatile Task *CurRunTsk_Ptr = NULL;
  55:SYS/task_manager/task_manager.c **** volatile Task *NxtRunTsk_Ptr = NULL;
  56:SYS/task_manager/task_manager.c **** 
  57:SYS/task_manager/task_manager.c **** static volatile TskMap_State TskHdl_RdyMap = {.Grp = 0, .TskInGrp[0] = 0, .TskInGrp[1] = 0, .TskInG
  58:SYS/task_manager/task_manager.c **** static volatile TskMap_State TskHdl_PndMap = {.Grp = 0, .TskInGrp[0] = 0, .TskInGrp[1] = 0, .TskInG
  59:SYS/task_manager/task_manager.c **** static volatile TskMap_State TskHdl_BlkMap = {.Grp = 0, .TskInGrp[0] = 0, .TskInGrp[1] = 0, .TskInG
  60:SYS/task_manager/task_manager.c **** 
  61:SYS/task_manager/task_manager.c **** static Task_Create_RegList_s TskCrt_RegList = {.num = 0,
  62:SYS/task_manager/task_manager.c ****                                                .list = {.prv = NULL, .nxt = NULL, .data = NULL}};
  63:SYS/task_manager/task_manager.c **** static volatile TaskSys_State TskSys_state = TaskSys_Initial;
  64:SYS/task_manager/task_manager.c **** static uint32_t TaskSys_Idle_US = 0;
  65:SYS/task_manager/task_manager.c **** static float TaskSys_Idle_Ocupy = 0.0f;
  66:SYS/task_manager/task_manager.c **** static SYSTEM_RunTime TaskSys_StartTime;
  67:SYS/task_manager/task_manager.c **** 
  68:SYS/task_manager/task_manager.c **** static void Task_SetReady(Task *tsk);
  69:SYS/task_manager/task_manager.c **** static void Task_ClearReady(Task *tsk);
  70:SYS/task_manager/task_manager.c **** static void Task_StopCountTargetFunc_Cast(Task *tsk_ptr);
  71:SYS/task_manager/task_manager.c **** 
  72:SYS/task_manager/task_manager.c **** #if (TASK_SCHEDULER_TYPE == PREEMPTIVE_SCHDULER)
  73:SYS/task_manager/task_manager.c **** volatile Task *PndHstTsk_Ptr = NULL;
  74:SYS/task_manager/task_manager.c **** 
  75:SYS/task_manager/task_manager.c **** volatile TaskStack_ControlBlock CurTsk_TCB;
  76:SYS/task_manager/task_manager.c **** volatile TaskStack_ControlBlock NxtTsk_TCB;
  77:SYS/task_manager/task_manager.c **** 
  78:SYS/task_manager/task_manager.c **** static uint32_t Task_OS_StkMem[MSP_MEM_SPACE_SIZE];
  79:SYS/task_manager/task_manager.c **** uint32_t *Task_OS_ExpStkBase;
  80:SYS/task_manager/task_manager.c **** 
  81:SYS/task_manager/task_manager.c **** static void Task_SetStkPtr_Val(Task *tsk);
  82:SYS/task_manager/task_manager.c **** static void Task_Set_CountRunnigTime_State(Task *tsk_ptr, uint8_t enable_state);
  83:SYS/task_manager/task_manager.c **** static void Task_ClearPending(Task *tsk);
  84:SYS/task_manager/task_manager.c **** static void Task_ClearBlock(Task *tsk);
  85:SYS/task_manager/task_manager.c **** static void Task_SetBASEPRI(uint32_t ulBASEPRI);
  86:SYS/task_manager/task_manager.c **** 
  87:SYS/task_manager/task_manager.c **** void Task_SetPending(Task *tsk);
  88:SYS/task_manager/task_manager.c **** #endif
ARM GAS  /var/folders/lx/hc4sn_b53233_zkc9xbbl97r0000gp/T//ccdoBicG.s 			page 3


  89:SYS/task_manager/task_manager.c **** 
  90:SYS/task_manager/task_manager.c **** static void Task_Exec(Task *tsk_ptr);
  91:SYS/task_manager/task_manager.c **** static void Task_SetPendSVPro(void);
  92:SYS/task_manager/task_manager.c **** void Task_TriggerPendSV(void);
  93:SYS/task_manager/task_manager.c **** 
  94:SYS/task_manager/task_manager.c **** static void ReSet_Task_Data(Task *task)
  95:SYS/task_manager/task_manager.c **** {
  96:SYS/task_manager/task_manager.c ****     task->priority.Suction.Group_Level = 0;
  97:SYS/task_manager/task_manager.c ****     task->priority.Suction.Task_Level = 0;
  98:SYS/task_manager/task_manager.c ****     task->Task_name = NULL;
  99:SYS/task_manager/task_manager.c ****     task->exec_frq = 0;
 100:SYS/task_manager/task_manager.c ****     task->exec_interval_us = 0;
 101:SYS/task_manager/task_manager.c ****     task->Exec_Func = NULL;
 102:SYS/task_manager/task_manager.c **** 
 103:SYS/task_manager/task_manager.c ****     task->Exec_status.detect_exec_frq = 0;
 104:SYS/task_manager/task_manager.c ****     task->Exec_status.detect_exec_time_arv = 0;
 105:SYS/task_manager/task_manager.c ****     task->Exec_status.detect_exec_time_max = 0;
 106:SYS/task_manager/task_manager.c ****     task->Exec_status.Exec_Times = 0;
 107:SYS/task_manager/task_manager.c ****     task->Exec_status.cpu_opy = 0;
 108:SYS/task_manager/task_manager.c ****     task->Exec_status.totlal_running_time = 0;
 109:SYS/task_manager/task_manager.c **** 
 110:SYS/task_manager/task_manager.c ****     task->delay_info.on_delay = false;
 111:SYS/task_manager/task_manager.c ****     task->delay_info.tsk_hdl = 0;
 112:SYS/task_manager/task_manager.c ****     task->delay_info.time_unit = 0;
 113:SYS/task_manager/task_manager.c **** 
 114:SYS/task_manager/task_manager.c ****     List_ItemInit(&task->delay_item, &task->delay_info);
 115:SYS/task_manager/task_manager.c **** 
 116:SYS/task_manager/task_manager.c ****     RuntimeObj_Reset(&(task->Exec_status.Exec_Time));
 117:SYS/task_manager/task_manager.c ****     RuntimeObj_Reset(&(task->Exec_status.Init_Time));
 118:SYS/task_manager/task_manager.c ****     RuntimeObj_Reset(&(task->Exec_status.Start_Time));
 119:SYS/task_manager/task_manager.c **** 
 120:SYS/task_manager/task_manager.c ****     task->Exec_status.State = Task_Done;
 121:SYS/task_manager/task_manager.c **** }
 122:SYS/task_manager/task_manager.c **** 
 123:SYS/task_manager/task_manager.c **** static void Task_ReSet_BaseInfo(Task_Base_Info *info)
 124:SYS/task_manager/task_manager.c **** {
 125:SYS/task_manager/task_manager.c ****     info->avg_exec_us = 0;
 126:SYS/task_manager/task_manager.c ****     info->cpu_opy = 0;
 127:SYS/task_manager/task_manager.c ****     info->exec_frq = 0;
 128:SYS/task_manager/task_manager.c ****     info->exec_times = 0;
 129:SYS/task_manager/task_manager.c ****     info->group = 0;
 130:SYS/task_manager/task_manager.c ****     info->max_exec_us = 0;
 131:SYS/task_manager/task_manager.c ****     info->priority = 0;
 132:SYS/task_manager/task_manager.c **** 
 133:SYS/task_manager/task_manager.c ****     memset(info->name, NULL, TASK_NAME_MAXLEN);
 134:SYS/task_manager/task_manager.c **** }
 135:SYS/task_manager/task_manager.c **** 
 136:SYS/task_manager/task_manager.c **** static bool TaskSys_Init(void)
 137:SYS/task_manager/task_manager.c **** {
 138:SYS/task_manager/task_manager.c **** #if (TASK_SCHEDULER_TYPE == PREEMPTIVE_SCHDULER)
 139:SYS/task_manager/task_manager.c ****     //init OS Stack Memory Space
 140:SYS/task_manager/task_manager.c ****     memset(Task_OS_StkMem, NULL, MSP_MEM_SPACE_SIZE);
 141:SYS/task_manager/task_manager.c **** 
 142:SYS/task_manager/task_manager.c ****     Task_OS_ExpStkBase = Task_OS_StkMem + MSP_MEM_SPACE_SIZE - 1;
 143:SYS/task_manager/task_manager.c **** #endif
 144:SYS/task_manager/task_manager.c **** 
 145:SYS/task_manager/task_manager.c ****     //periph_Timer_CounterMode_Init(Timer_4, TimerCounter_1M_Prescaler, TimerCounter_1us_Period, 0,
ARM GAS  /var/folders/lx/hc4sn_b53233_zkc9xbbl97r0000gp/T//ccdoBicG.s 			page 4


 146:SYS/task_manager/task_manager.c ****     //periph_Timer_Counter_SetEnable(Timer_4, DISABLE);
 147:SYS/task_manager/task_manager.c **** 
 148:SYS/task_manager/task_manager.c ****     uint8_t index = 0;
 149:SYS/task_manager/task_manager.c **** 
 150:SYS/task_manager/task_manager.c ****     for (uint8_t group_index = Group_0; group_index < Group_Sum; group_index++)
 151:SYS/task_manager/task_manager.c ****     {
 152:SYS/task_manager/task_manager.c ****         for (uint8_t task_priority = Task_Priority_0; task_priority < Task_Priority_Sum; task_prior
 153:SYS/task_manager/task_manager.c ****         {
 154:SYS/task_manager/task_manager.c ****             ReSet_Task_Data(Task_Ptr[group_index][task_priority]);
 155:SYS/task_manager/task_manager.c **** 
 156:SYS/task_manager/task_manager.c **** #if (TASK_SCHEDULER_TYPE == PREEMPTIVE_SCHDULER)
 157:SYS/task_manager/task_manager.c ****             Task_Ptr[group_index][task_priority]->Stack_Depth = 0;
 158:SYS/task_manager/task_manager.c ****             Task_Ptr[group_index][task_priority]->TCB.Stack = NULL;
 159:SYS/task_manager/task_manager.c ****             Task_Ptr[group_index][task_priority]->TCB.Top_Stk_Ptr = NULL;
 160:SYS/task_manager/task_manager.c **** #endif
 161:SYS/task_manager/task_manager.c ****             Task_Ptr[group_index][task_priority] = NULL;
 162:SYS/task_manager/task_manager.c **** 
 163:SYS/task_manager/task_manager.c ****             index++;
 164:SYS/task_manager/task_manager.c ****         }
 165:SYS/task_manager/task_manager.c ****     }
 166:SYS/task_manager/task_manager.c **** 
 167:SYS/task_manager/task_manager.c ****     TskCrt_RegList.num = 0;
 168:SYS/task_manager/task_manager.c ****     TskCrt_RegList.list.data = NULL;
 169:SYS/task_manager/task_manager.c ****     TskCrt_RegList.list.nxt = NULL;
 170:SYS/task_manager/task_manager.c ****     TskCrt_RegList.list.prv = NULL;
 171:SYS/task_manager/task_manager.c **** 
 172:SYS/task_manager/task_manager.c ****     ReSet_Task_Data(CurRunTsk_Ptr);
 173:SYS/task_manager/task_manager.c ****     TskSys_state = TaskSys_Prepare;
 174:SYS/task_manager/task_manager.c **** }
 175:SYS/task_manager/task_manager.c **** 
 176:SYS/task_manager/task_manager.c **** static void Task_Exit(void)
 177:SYS/task_manager/task_manager.c **** {
  28              		.loc 1 177 1 view -0
  29              		.cfi_startproc
  30              		@ Volatile: function does not return.
  31              		@ args = 0, pretend = 0, frame = 0
  32              		@ frame_needed = 0, uses_anonymous_args = 0
  33              		@ link register save eliminated.
  34              	.L2:
 178:SYS/task_manager/task_manager.c ****     //task caller will not exit
 179:SYS/task_manager/task_manager.c ****     while (true)
  35              		.loc 1 179 5 discriminator 1 view .LVU1
 180:SYS/task_manager/task_manager.c ****     {
 181:SYS/task_manager/task_manager.c ****     }
  36              		.loc 1 181 5 discriminator 1 view .LVU2
 179:SYS/task_manager/task_manager.c ****     {
  37              		.loc 1 179 11 discriminator 1 view .LVU3
  38 0000 FEE7     		b	.L2
  39              		.cfi_endproc
  40              	.LFE129:
  42              		.section	.text.Task_SetBASEPRI,"ax",%progbits
  43              		.align	1
  44              		.syntax unified
  45              		.thumb
  46              		.thumb_func
  47              		.fpu fpv4-sp-d16
  49              	Task_SetBASEPRI:
ARM GAS  /var/folders/lx/hc4sn_b53233_zkc9xbbl97r0000gp/T//ccdoBicG.s 			page 5


  50              	.LVL0:
  51              	.LFB137:
 182:SYS/task_manager/task_manager.c **** }
 183:SYS/task_manager/task_manager.c **** 
 184:SYS/task_manager/task_manager.c **** static void Task_Idle(void)
 185:SYS/task_manager/task_manager.c **** {
 186:SYS/task_manager/task_manager.c ****     SYSTEM_RunTime cur_time;
 187:SYS/task_manager/task_manager.c ****     SYSTEM_RunTime time_diff;
 188:SYS/task_manager/task_manager.c **** 
 189:SYS/task_manager/task_manager.c ****     RuntimeObj_Reset(&time_diff);
 190:SYS/task_manager/task_manager.c ****     RuntimeObj_Reset(&cur_time);
 191:SYS/task_manager/task_manager.c **** 
 192:SYS/task_manager/task_manager.c ****     cur_time = Get_CurrentRunningUs();
 193:SYS/task_manager/task_manager.c ****     time_diff = Get_TimeDifference_Between(TaskSys_StartTime, cur_time);
 194:SYS/task_manager/task_manager.c **** 
 195:SYS/task_manager/task_manager.c ****     TaskSys_Idle_US++;
 196:SYS/task_manager/task_manager.c ****     TaskSys_Idle_Ocupy = (TaskSys_Idle_US / (float)time_diff);
 197:SYS/task_manager/task_manager.c **** }
 198:SYS/task_manager/task_manager.c **** 
 199:SYS/task_manager/task_manager.c **** #if (TASK_SCHEDULER_TYPE == PREEMPTIVE_SCHDULER)
 200:SYS/task_manager/task_manager.c **** 
 201:SYS/task_manager/task_manager.c **** void Task_Resume_FromBlock(Task *tsk)
 202:SYS/task_manager/task_manager.c **** {
 203:SYS/task_manager/task_manager.c ****     Task_ClearBlock(tsk);
 204:SYS/task_manager/task_manager.c ****     Task_SetReady(tsk);
 205:SYS/task_manager/task_manager.c ****     //Task_Set_CountRunnigTime_State(tsk, ENABLE);
 206:SYS/task_manager/task_manager.c **** 
 207:SYS/task_manager/task_manager.c ****     tsk->Exec_status.State = Task_Running;
 208:SYS/task_manager/task_manager.c ****     NxtTsk_TCB.Top_Stk_Ptr = &tsk->TCB.Top_Stk_Ptr;
 209:SYS/task_manager/task_manager.c ****     NxtTsk_TCB.Stack = tsk->TCB.Stack;
 210:SYS/task_manager/task_manager.c ****     CurRunTsk_Ptr = tsk;
 211:SYS/task_manager/task_manager.c **** }
 212:SYS/task_manager/task_manager.c **** 
 213:SYS/task_manager/task_manager.c **** void Task_SetBlock(Task *tsk)
 214:SYS/task_manager/task_manager.c **** {
 215:SYS/task_manager/task_manager.c ****     uint8_t grp_id = GET_TASKGROUP_PRIORITY(tsk->priority.Priority);
 216:SYS/task_manager/task_manager.c ****     uint8_t tsk_id = GET_TASKINGROUP_PRIORITY(tsk->priority.Priority);
 217:SYS/task_manager/task_manager.c **** 
 218:SYS/task_manager/task_manager.c ****     //set current group block
 219:SYS/task_manager/task_manager.c ****     TskHdl_BlkMap.Grp.Flg |= 1 << grp_id;
 220:SYS/task_manager/task_manager.c ****     //set current task under this group flag to block
 221:SYS/task_manager/task_manager.c ****     TskHdl_BlkMap.TskInGrp[grp_id].Flg |= 1 << tsk_id;
 222:SYS/task_manager/task_manager.c **** 
 223:SYS/task_manager/task_manager.c ****     //reset task in ready reg group
 224:SYS/task_manager/task_manager.c ****     TskHdl_RdyMap.TskInGrp[grp_id].Flg &= ~(1 << tsk_id);
 225:SYS/task_manager/task_manager.c ****     //if no task ready then clear group reg
 226:SYS/task_manager/task_manager.c ****     if (TskHdl_RdyMap.TskInGrp[grp_id].Flg == 0)
 227:SYS/task_manager/task_manager.c ****     {
 228:SYS/task_manager/task_manager.c ****         TskHdl_RdyMap.Grp.Flg &= ~(1 << grp_id);
 229:SYS/task_manager/task_manager.c ****     }
 230:SYS/task_manager/task_manager.c **** 
 231:SYS/task_manager/task_manager.c ****     //set task state
 232:SYS/task_manager/task_manager.c ****     tsk->Exec_status.State = Task_Block;
 233:SYS/task_manager/task_manager.c **** 
 234:SYS/task_manager/task_manager.c ****     //Task_StopCountTargetFunc_Cast(tsk);
 235:SYS/task_manager/task_manager.c ****     //Task_Set_CountRunnigTime_State(tsk, DISABLE);
 236:SYS/task_manager/task_manager.c **** 
ARM GAS  /var/folders/lx/hc4sn_b53233_zkc9xbbl97r0000gp/T//ccdoBicG.s 			page 6


 237:SYS/task_manager/task_manager.c ****     CurRunTsk_Ptr = NULL;
 238:SYS/task_manager/task_manager.c **** 
 239:SYS/task_manager/task_manager.c ****     Task_SetBASEPRI(0);
 240:SYS/task_manager/task_manager.c **** }
 241:SYS/task_manager/task_manager.c **** 
 242:SYS/task_manager/task_manager.c **** void Task_SetPending(Task *tsk)
 243:SYS/task_manager/task_manager.c **** {
 244:SYS/task_manager/task_manager.c ****     uint8_t grp_id = GET_TASKGROUP_PRIORITY(tsk->priority.Priority);
 245:SYS/task_manager/task_manager.c ****     uint8_t tsk_id = GET_TASKINGROUP_PRIORITY(tsk->priority.Priority);
 246:SYS/task_manager/task_manager.c **** 
 247:SYS/task_manager/task_manager.c ****     //set current group pending
 248:SYS/task_manager/task_manager.c ****     TskHdl_PndMap.Grp.Flg |= 1 << grp_id;
 249:SYS/task_manager/task_manager.c ****     //set current task under this group flag to ready
 250:SYS/task_manager/task_manager.c ****     TskHdl_PndMap.TskInGrp[grp_id].Flg |= 1 << tsk_id;
 251:SYS/task_manager/task_manager.c **** 
 252:SYS/task_manager/task_manager.c ****     //set task state
 253:SYS/task_manager/task_manager.c ****     tsk->Exec_status.State = Task_Pending;
 254:SYS/task_manager/task_manager.c **** }
 255:SYS/task_manager/task_manager.c **** 
 256:SYS/task_manager/task_manager.c **** void Task_SwitchStack(void)
 257:SYS/task_manager/task_manager.c **** {
 258:SYS/task_manager/task_manager.c ****     CurTsk_TCB = NxtTsk_TCB;
 259:SYS/task_manager/task_manager.c **** }
 260:SYS/task_manager/task_manager.c **** 
 261:SYS/task_manager/task_manager.c **** Task *Task_Get_HighestRank_PndTask(void)
 262:SYS/task_manager/task_manager.c **** {
 263:SYS/task_manager/task_manager.c ****     uint8_t grp_id;
 264:SYS/task_manager/task_manager.c ****     uint8_t tsk_id;
 265:SYS/task_manager/task_manager.c **** 
 266:SYS/task_manager/task_manager.c ****     if (TskHdl_PndMap.Grp.Flg)
 267:SYS/task_manager/task_manager.c ****     {
 268:SYS/task_manager/task_manager.c ****         //find group
 269:SYS/task_manager/task_manager.c ****         grp_id = Tsk_Handle[TskHdl_PndMap.Grp.Flg];
 270:SYS/task_manager/task_manager.c ****         //find task in group
 271:SYS/task_manager/task_manager.c ****         tsk_id = Tsk_Handle[TskHdl_PndMap.TskInGrp[grp_id].Flg];
 272:SYS/task_manager/task_manager.c ****     }
 273:SYS/task_manager/task_manager.c ****     else
 274:SYS/task_manager/task_manager.c ****         return NULL;
 275:SYS/task_manager/task_manager.c **** 
 276:SYS/task_manager/task_manager.c ****     if (Task_Ptr[grp_id][tsk_id] != NULL)
 277:SYS/task_manager/task_manager.c ****     {
 278:SYS/task_manager/task_manager.c ****         return Task_Ptr[grp_id][tsk_id];
 279:SYS/task_manager/task_manager.c ****     }
 280:SYS/task_manager/task_manager.c ****     else
 281:SYS/task_manager/task_manager.c ****     {
 282:SYS/task_manager/task_manager.c ****         TskHdl_PndMap.Grp.Flg &= ~(1 << grp_id);
 283:SYS/task_manager/task_manager.c ****         TskHdl_PndMap.TskInGrp[grp_id].Flg &= ~(1 << tsk_id);
 284:SYS/task_manager/task_manager.c ****         return NULL;
 285:SYS/task_manager/task_manager.c ****     }
 286:SYS/task_manager/task_manager.c **** }
 287:SYS/task_manager/task_manager.c **** 
 288:SYS/task_manager/task_manager.c **** static uint32_t Task_EnterCritical(void)
 289:SYS/task_manager/task_manager.c **** {
 290:SYS/task_manager/task_manager.c ****     /* Set BASEPRI to the max syscall priority to effect a critical
 291:SYS/task_manager/task_manager.c **** 	section. */
 292:SYS/task_manager/task_manager.c ****     uint32_t ulOriginalBASEPRI, ulNewBASEPRI;
 293:SYS/task_manager/task_manager.c **** 
ARM GAS  /var/folders/lx/hc4sn_b53233_zkc9xbbl97r0000gp/T//ccdoBicG.s 			page 7


 294:SYS/task_manager/task_manager.c ****     __asm volatile(
 295:SYS/task_manager/task_manager.c ****         "	mrs %0, basepri											\n"
 296:SYS/task_manager/task_manager.c ****         "	mov %1, %2												\n"
 297:SYS/task_manager/task_manager.c ****         "	msr basepri, %1											\n"
 298:SYS/task_manager/task_manager.c ****         "	isb														\n"
 299:SYS/task_manager/task_manager.c ****         "	dsb														\n"
 300:SYS/task_manager/task_manager.c ****         : "=r"(ulOriginalBASEPRI), "=r"(ulNewBASEPRI)
 301:SYS/task_manager/task_manager.c ****         : "i"(80)
 302:SYS/task_manager/task_manager.c ****         : "memory");
 303:SYS/task_manager/task_manager.c **** 
 304:SYS/task_manager/task_manager.c ****     /* This return will not be reached but is necessary to prevent compiler
 305:SYS/task_manager/task_manager.c **** 	warnings. */
 306:SYS/task_manager/task_manager.c ****     return ulOriginalBASEPRI;
 307:SYS/task_manager/task_manager.c **** }
 308:SYS/task_manager/task_manager.c **** 
 309:SYS/task_manager/task_manager.c **** __attribute__((nake)) static void Task_SetBASEPRI(uint32_t ulBASEPRI)
 310:SYS/task_manager/task_manager.c **** {
  52              		.loc 1 310 1 view -0
  53              		.cfi_startproc
  54              		@ args = 0, pretend = 0, frame = 0
  55              		@ frame_needed = 0, uses_anonymous_args = 0
  56              		@ link register save eliminated.
 311:SYS/task_manager/task_manager.c ****     __ASM("	msr basepri, %0	" ::"r"(ulBASEPRI)
  57              		.loc 1 311 5 view .LVU5
  58              		.syntax unified
  59              	@ 311 "SYS/task_manager/task_manager.c" 1
  60 0000 80F31188 			msr basepri, r0	
  61              	@ 0 "" 2
 312:SYS/task_manager/task_manager.c ****           : "memory");
 313:SYS/task_manager/task_manager.c **** }
  62              		.loc 1 313 1 is_stmt 0 view .LVU6
  63              		.thumb
  64              		.syntax unified
  65 0004 7047     		bx	lr
  66              		.cfi_endproc
  67              	.LFE137:
  69              		.section	.text.Task_SetReady,"ax",%progbits
  70              		.align	1
  71              		.syntax unified
  72              		.thumb
  73              		.thumb_func
  74              		.fpu fpv4-sp-d16
  76              	Task_SetReady:
  77              	.LVL1:
  78              	.LFB145:
 314:SYS/task_manager/task_manager.c **** 
 315:SYS/task_manager/task_manager.c **** static void Task_ExitCritical(void)
 316:SYS/task_manager/task_manager.c **** {
 317:SYS/task_manager/task_manager.c ****     /* Barrier instructions are not used as this function is only used to
 318:SYS/task_manager/task_manager.c **** 	lower the BASEPRI value. */
 319:SYS/task_manager/task_manager.c ****     __ASM("	msr basepri, %0	" ::"r"(0)
 320:SYS/task_manager/task_manager.c ****           : "memory");
 321:SYS/task_manager/task_manager.c **** }
 322:SYS/task_manager/task_manager.c **** 
 323:SYS/task_manager/task_manager.c **** static void Task_Recover(void)
 324:SYS/task_manager/task_manager.c **** {
 325:SYS/task_manager/task_manager.c ****     __ASM("LDR	  R3, CurrentTCBConst_Tmp2");
ARM GAS  /var/folders/lx/hc4sn_b53233_zkc9xbbl97r0000gp/T//ccdoBicG.s 			page 8


 326:SYS/task_manager/task_manager.c ****     __ASM("LDR    R1, [R3]");
 327:SYS/task_manager/task_manager.c ****     __ASM("LDR    R0, [R1]");
 328:SYS/task_manager/task_manager.c **** 
 329:SYS/task_manager/task_manager.c ****     __ASM("LDMIA  R0!, {R4-R11, R14}");
 330:SYS/task_manager/task_manager.c **** 
 331:SYS/task_manager/task_manager.c ****     __ASM("MSR    PSP, R0");
 332:SYS/task_manager/task_manager.c ****     __ASM("ISB");
 333:SYS/task_manager/task_manager.c ****     __ASM("BX     R14");
 334:SYS/task_manager/task_manager.c ****     __ASM(".ALIGN 4");
 335:SYS/task_manager/task_manager.c ****     __ASM("CurrentTCBConst_Tmp2: .word CurTsk_TCB");
 336:SYS/task_manager/task_manager.c **** }
 337:SYS/task_manager/task_manager.c **** 
 338:SYS/task_manager/task_manager.c **** void Task_SaveCurProc(void)
 339:SYS/task_manager/task_manager.c **** {
 340:SYS/task_manager/task_manager.c ****     __ASM("MRS    R0, PSP");
 341:SYS/task_manager/task_manager.c ****     __ASM("LDR	  R3, CurrentTCBConst_Tmp3");
 342:SYS/task_manager/task_manager.c ****     __ASM("LDR    R2, [R3]");
 343:SYS/task_manager/task_manager.c **** 
 344:SYS/task_manager/task_manager.c ****     __ASM("ISB");
 345:SYS/task_manager/task_manager.c **** 
 346:SYS/task_manager/task_manager.c ****     __ASM("STMDB    R0!, {R4-R11, R14}");
 347:SYS/task_manager/task_manager.c ****     __ASM("STR      R0, [R2]");
 348:SYS/task_manager/task_manager.c **** 
 349:SYS/task_manager/task_manager.c ****     /******************************  FPU SECTION  *********************************/
 350:SYS/task_manager/task_manager.c ****     __ASM("TST      R14, #0x10");
 351:SYS/task_manager/task_manager.c ****     __ASM("IT       EQ");
 352:SYS/task_manager/task_manager.c ****     __ASM("VSTMDBEQ R0!, {s16-s31}");
 353:SYS/task_manager/task_manager.c ****     /******************************  FPU SECTION  *********************************/
 354:SYS/task_manager/task_manager.c **** 
 355:SYS/task_manager/task_manager.c ****     __ASM("ISB");
 356:SYS/task_manager/task_manager.c ****     __ASM("BX       R14");
 357:SYS/task_manager/task_manager.c **** 
 358:SYS/task_manager/task_manager.c ****     __ASM("CurrentTCBConst_Tmp3: .word CurTsk_TCB");
 359:SYS/task_manager/task_manager.c **** }
 360:SYS/task_manager/task_manager.c **** 
 361:SYS/task_manager/task_manager.c **** void Task_Load(void)
 362:SYS/task_manager/task_manager.c **** {
 363:SYS/task_manager/task_manager.c ****     __ASM("LDR	  R3, =CurTsk_TCB");
 364:SYS/task_manager/task_manager.c ****     __ASM("LDR    R1, [R3]");
 365:SYS/task_manager/task_manager.c ****     __ASM("LDR    R0, [R1]");
 366:SYS/task_manager/task_manager.c **** 
 367:SYS/task_manager/task_manager.c ****     __ASM("LDMIA  R0!, {R4-R11, R14}");
 368:SYS/task_manager/task_manager.c **** 
 369:SYS/task_manager/task_manager.c ****     /******************************  FPU SECTION  *********************************/
 370:SYS/task_manager/task_manager.c ****     __ASM("TST      R14, #0x10");
 371:SYS/task_manager/task_manager.c ****     __ASM("IT       EQ");
 372:SYS/task_manager/task_manager.c ****     __ASM("VLDMIAEQ R0!, {s16-s31}");
 373:SYS/task_manager/task_manager.c ****     /******************************  FPU SECTION  *********************************/
 374:SYS/task_manager/task_manager.c **** 
 375:SYS/task_manager/task_manager.c ****     __ASM("MSR    PSP, R0");
 376:SYS/task_manager/task_manager.c ****     __ASM("ISB");
 377:SYS/task_manager/task_manager.c ****     //__ASM("MOV    R0, #240");
 378:SYS/task_manager/task_manager.c ****     //__ASM("MSR	  BASEPRI, R0");
 379:SYS/task_manager/task_manager.c ****     __ASM("BX     R14");
 380:SYS/task_manager/task_manager.c ****     __ASM(".ALIGN 4");
 381:SYS/task_manager/task_manager.c **** }
 382:SYS/task_manager/task_manager.c **** 
ARM GAS  /var/folders/lx/hc4sn_b53233_zkc9xbbl97r0000gp/T//ccdoBicG.s 			page 9


 383:SYS/task_manager/task_manager.c **** void Load_FirstTask(void)
 384:SYS/task_manager/task_manager.c **** {
 385:SYS/task_manager/task_manager.c ****     Task_Load();
 386:SYS/task_manager/task_manager.c **** }
 387:SYS/task_manager/task_manager.c **** 
 388:SYS/task_manager/task_manager.c **** void Task_SwitchContext(void)
 389:SYS/task_manager/task_manager.c **** {
 390:SYS/task_manager/task_manager.c ****     __ASM("MRS      R0, PSP");
 391:SYS/task_manager/task_manager.c ****     __ASM("ISB");
 392:SYS/task_manager/task_manager.c **** 
 393:SYS/task_manager/task_manager.c ****     __ASM("LDR      R3, CurrentTCBConst_Tmp");
 394:SYS/task_manager/task_manager.c ****     __ASM("LDR      R2, [R3]");
 395:SYS/task_manager/task_manager.c **** 
 396:SYS/task_manager/task_manager.c ****     /******************************  FPU SECTION  *********************************/
 397:SYS/task_manager/task_manager.c ****     __ASM("TST      R14, #0x10");
 398:SYS/task_manager/task_manager.c ****     __ASM("IT       EQ");
 399:SYS/task_manager/task_manager.c ****     __ASM("VSTMDBEQ R0!, {s16-s31}");
 400:SYS/task_manager/task_manager.c ****     /******************************  FPU SECTION  *********************************/
 401:SYS/task_manager/task_manager.c **** 
 402:SYS/task_manager/task_manager.c ****     __ASM("STMDB    R0!, {R4-R11, R14}");
 403:SYS/task_manager/task_manager.c ****     __ASM("STR      R0, [R2]");
 404:SYS/task_manager/task_manager.c **** 
 405:SYS/task_manager/task_manager.c ****     __ASM("STMDB    SP!, {R0, R3}");
 406:SYS/task_manager/task_manager.c ****     __ASM("MOV      R0, %0" ::"i"(0x50));
 407:SYS/task_manager/task_manager.c ****     __ASM("MSR      BASEPRI, R0");
 408:SYS/task_manager/task_manager.c **** 
 409:SYS/task_manager/task_manager.c ****     __ASM("DSB");
 410:SYS/task_manager/task_manager.c ****     __ASM("ISB");
 411:SYS/task_manager/task_manager.c **** 
 412:SYS/task_manager/task_manager.c ****     __ASM("BL       Task_SwitchStack");
 413:SYS/task_manager/task_manager.c **** 
 414:SYS/task_manager/task_manager.c ****     __ASM("MOV      R0, #0");
 415:SYS/task_manager/task_manager.c ****     __ASM("MSR      BASEPRI, R0");
 416:SYS/task_manager/task_manager.c ****     __ASM("LDMIA    SP!, {R0, R3}");
 417:SYS/task_manager/task_manager.c **** 
 418:SYS/task_manager/task_manager.c ****     __ASM("LDR      R1, [R3]");
 419:SYS/task_manager/task_manager.c ****     __ASM("LDR      R0, [R1]");
 420:SYS/task_manager/task_manager.c **** 
 421:SYS/task_manager/task_manager.c ****     __ASM("LDMIA    R0!, {R4-R11, R14}");
 422:SYS/task_manager/task_manager.c **** 
 423:SYS/task_manager/task_manager.c ****     /******************************  FPU SECTION  *********************************/
 424:SYS/task_manager/task_manager.c ****     __ASM("TST      R14, #0x10");
 425:SYS/task_manager/task_manager.c ****     __ASM("IT       EQ");
 426:SYS/task_manager/task_manager.c ****     __ASM("VLDMIAEQ R0!, {s16-s31}");
 427:SYS/task_manager/task_manager.c ****     /******************************  FPU SECTION  *********************************/
 428:SYS/task_manager/task_manager.c **** 
 429:SYS/task_manager/task_manager.c ****     __ASM("MSR      PSP,R0");
 430:SYS/task_manager/task_manager.c ****     __ASM("ISB");
 431:SYS/task_manager/task_manager.c ****     //__ASM("MOV      R0, #240");
 432:SYS/task_manager/task_manager.c ****     //__ASM("MSR	    BASEPRI, R0");
 433:SYS/task_manager/task_manager.c ****     __ASM("BX       R14");
 434:SYS/task_manager/task_manager.c **** 
 435:SYS/task_manager/task_manager.c ****     __ASM("CurrentTCBConst_Tmp: .word CurTsk_TCB");
 436:SYS/task_manager/task_manager.c ****     __ASM(".ALIGN 4");
 437:SYS/task_manager/task_manager.c **** }
 438:SYS/task_manager/task_manager.c **** 
 439:SYS/task_manager/task_manager.c **** static void Task_SetStkPtr_Val(Task *tsk)
ARM GAS  /var/folders/lx/hc4sn_b53233_zkc9xbbl97r0000gp/T//ccdoBicG.s 			page 10


 440:SYS/task_manager/task_manager.c **** {
 441:SYS/task_manager/task_manager.c ****     uint32_t *Tsk_Ptr_tmp = NULL;
 442:SYS/task_manager/task_manager.c **** 
 443:SYS/task_manager/task_manager.c ****     memset(tsk->TCB.Stack, NULL, tsk->Stack_Depth);
 444:SYS/task_manager/task_manager.c **** 
 445:SYS/task_manager/task_manager.c ****     Tsk_Ptr_tmp = &tsk->TCB.Stack + (tsk->Stack_Depth - (uint32_t)1);
 446:SYS/task_manager/task_manager.c ****     Tsk_Ptr_tmp = (uint32_t *)((uint32_t)(Tsk_Ptr_tmp)&0XFFFFFFF8ul);
 447:SYS/task_manager/task_manager.c **** 
 448:SYS/task_manager/task_manager.c ****     Tsk_Ptr_tmp--;
 449:SYS/task_manager/task_manager.c ****     *Tsk_Ptr_tmp = 0x01000000uL; /* xPSR */
 450:SYS/task_manager/task_manager.c **** 
 451:SYS/task_manager/task_manager.c ****     Tsk_Ptr_tmp--;
 452:SYS/task_manager/task_manager.c ****     *Tsk_Ptr_tmp = ((uint32_t)Task_Caller) & 0xfffffffeUL; /* PC */
 453:SYS/task_manager/task_manager.c **** 
 454:SYS/task_manager/task_manager.c ****     Tsk_Ptr_tmp--;
 455:SYS/task_manager/task_manager.c ****     *Tsk_Ptr_tmp = (uint32_t)Task_Exit; /* LR */
 456:SYS/task_manager/task_manager.c **** 
 457:SYS/task_manager/task_manager.c ****     /* Save code space by skipping register initialisation. */
 458:SYS/task_manager/task_manager.c ****     Tsk_Ptr_tmp -= 5;              /* R12, R3, R2 and R1. */
 459:SYS/task_manager/task_manager.c ****     *Tsk_Ptr_tmp = (uint32_t)NULL; /* R0 */
 460:SYS/task_manager/task_manager.c **** 
 461:SYS/task_manager/task_manager.c ****     /* A save method is being used that requires each task to maintain its
 462:SYS/task_manager/task_manager.c **** 	    own exec return value. */
 463:SYS/task_manager/task_manager.c ****     Tsk_Ptr_tmp--;
 464:SYS/task_manager/task_manager.c ****     *Tsk_Ptr_tmp = 0xfffffffd;
 465:SYS/task_manager/task_manager.c **** 
 466:SYS/task_manager/task_manager.c ****     Tsk_Ptr_tmp -= 8; /* R11, R10, R9, R8, R7, R6, R5 and R4. */
 467:SYS/task_manager/task_manager.c **** 
 468:SYS/task_manager/task_manager.c ****     //set task stack top pointer
 469:SYS/task_manager/task_manager.c ****     tsk->TCB.Top_Stk_Ptr = Tsk_Ptr_tmp; //&Tsk_Ptr_tmp
 470:SYS/task_manager/task_manager.c **** }
 471:SYS/task_manager/task_manager.c **** 
 472:SYS/task_manager/task_manager.c **** #endif
 473:SYS/task_manager/task_manager.c **** 
 474:SYS/task_manager/task_manager.c **** static void Task_SetReady(Task *tsk)
 475:SYS/task_manager/task_manager.c **** {
  79              		.loc 1 475 1 is_stmt 1 view -0
  80              		.cfi_startproc
  81              		@ args = 0, pretend = 0, frame = 0
  82              		@ frame_needed = 0, uses_anonymous_args = 0
  83              		.loc 1 475 1 is_stmt 0 view .LVU8
  84 0000 10B5     		push	{r4, lr}
  85              	.LCFI0:
  86              		.cfi_def_cfa_offset 8
  87              		.cfi_offset 4, -8
  88              		.cfi_offset 14, -4
 476:SYS/task_manager/task_manager.c ****     uint8_t grp_id = GET_TASKGROUP_PRIORITY(tsk->priority.Priority);
  89              		.loc 1 476 5 is_stmt 1 view .LVU9
  90              		.loc 1 476 22 is_stmt 0 view .LVU10
  91 0002 90F800C0 		ldrb	ip, [r0]	@ zero_extendqisi2
  92              		.loc 1 476 13 view .LVU11
  93 0006 4FEADC02 		lsr	r2, ip, #3
  94              	.LVL2:
 477:SYS/task_manager/task_manager.c ****     uint8_t tsk_id = GET_TASKINGROUP_PRIORITY(tsk->priority.Priority);
  95              		.loc 1 477 5 is_stmt 1 view .LVU12
  96              		.loc 1 477 13 is_stmt 0 view .LVU13
  97 000a 0CF0070E 		and	lr, ip, #7
ARM GAS  /var/folders/lx/hc4sn_b53233_zkc9xbbl97r0000gp/T//ccdoBicG.s 			page 11


  98              	.LVL3:
 478:SYS/task_manager/task_manager.c **** 
 479:SYS/task_manager/task_manager.c ****     //set current group flag to ready
 480:SYS/task_manager/task_manager.c ****     TskHdl_RdyMap.Grp.Flg |= 1 << grp_id;
  99              		.loc 1 480 5 is_stmt 1 view .LVU14
 100              		.loc 1 480 27 is_stmt 0 view .LVU15
 101 000e 0A4B     		ldr	r3, .L6
 102 0010 1978     		ldrb	r1, [r3]	@ zero_extendqisi2
 103              		.loc 1 480 32 view .LVU16
 104 0012 4FF0010C 		mov	ip, #1
 105 0016 0CFA02F4 		lsl	r4, ip, r2
 106              		.loc 1 480 27 view .LVU17
 107 001a 2143     		orrs	r1, r1, r4
 108 001c C9B2     		uxtb	r1, r1
 109 001e 1970     		strb	r1, [r3]
 481:SYS/task_manager/task_manager.c ****     //set current task under this group flag to ready
 482:SYS/task_manager/task_manager.c ****     TskHdl_RdyMap.TskInGrp[grp_id].Flg |= 1 << tsk_id;
 110              		.loc 1 482 5 is_stmt 1 view .LVU18
 111              		.loc 1 482 40 is_stmt 0 view .LVU19
 112 0020 1344     		add	r3, r3, r2
 113 0022 5A78     		ldrb	r2, [r3, #1]	@ zero_extendqisi2
 114              	.LVL4:
 115              		.loc 1 482 45 view .LVU20
 116 0024 0CFA0EFC 		lsl	ip, ip, lr
 117              		.loc 1 482 40 view .LVU21
 118 0028 42EA0C02 		orr	r2, r2, ip
 119 002c D2B2     		uxtb	r2, r2
 120 002e 5A70     		strb	r2, [r3, #1]
 483:SYS/task_manager/task_manager.c **** 
 484:SYS/task_manager/task_manager.c ****     tsk->Exec_status.State = Task_Ready;
 121              		.loc 1 484 5 is_stmt 1 view .LVU22
 122              		.loc 1 484 28 is_stmt 0 view .LVU23
 123 0030 0023     		movs	r3, #0
 124 0032 80F84830 		strb	r3, [r0, #72]
 485:SYS/task_manager/task_manager.c **** }
 125              		.loc 1 485 1 view .LVU24
 126 0036 10BD     		pop	{r4, pc}
 127              	.L7:
 128              		.align	2
 129              	.L6:
 130 0038 00000000 		.word	.LANCHOR0
 131              		.cfi_endproc
 132              	.LFE145:
 134              		.section	.text.Task_ClearBlock,"ax",%progbits
 135              		.align	1
 136              		.syntax unified
 137              		.thumb
 138              		.thumb_func
 139              		.fpu fpv4-sp-d16
 141              	Task_ClearBlock:
 142              	.LVL5:
 143              	.LFB146:
 486:SYS/task_manager/task_manager.c **** 
 487:SYS/task_manager/task_manager.c **** static void Task_ClearBlock(Task *tsk)
 488:SYS/task_manager/task_manager.c **** {
 144              		.loc 1 488 1 is_stmt 1 view -0
 145              		.cfi_startproc
ARM GAS  /var/folders/lx/hc4sn_b53233_zkc9xbbl97r0000gp/T//ccdoBicG.s 			page 12


 146              		@ args = 0, pretend = 0, frame = 0
 147              		@ frame_needed = 0, uses_anonymous_args = 0
 489:SYS/task_manager/task_manager.c ****     uint8_t grp_id = GET_TASKGROUP_PRIORITY(tsk->priority.Priority);
 148              		.loc 1 489 5 view .LVU26
 149              		.loc 1 489 22 is_stmt 0 view .LVU27
 150 0000 0078     		ldrb	r0, [r0]	@ zero_extendqisi2
 151              	.LVL6:
 490:SYS/task_manager/task_manager.c ****     uint8_t tsk_id = GET_TASKINGROUP_PRIORITY(tsk->priority.Priority);
 152              		.loc 1 490 5 is_stmt 1 view .LVU28
 153              		.loc 1 490 13 is_stmt 0 view .LVU29
 154 0002 00F0070C 		and	ip, r0, #7
 155              	.LVL7:
 491:SYS/task_manager/task_manager.c **** 
 492:SYS/task_manager/task_manager.c ****     TskHdl_BlkMap.TskInGrp[grp_id].Flg &= ~(1 << tsk_id);
 156              		.loc 1 492 5 is_stmt 1 view .LVU30
 157              		.loc 1 492 40 is_stmt 0 view .LVU31
 158 0006 0D4B     		ldr	r3, .L14
 159 0008 03EBD003 		add	r3, r3, r0, lsr #3
 160 000c 5A78     		ldrb	r2, [r3, #1]	@ zero_extendqisi2
 161              		.loc 1 492 47 view .LVU32
 162 000e 0121     		movs	r1, #1
 163 0010 01FA0CF1 		lsl	r1, r1, ip
 164              		.loc 1 492 40 view .LVU33
 165 0014 22EA0102 		bic	r2, r2, r1
 166 0018 5A70     		strb	r2, [r3, #1]
 493:SYS/task_manager/task_manager.c ****     if (TskHdl_BlkMap.TskInGrp[grp_id].Flg == 0)
 167              		.loc 1 493 5 is_stmt 1 view .LVU34
 168              		.loc 1 493 39 is_stmt 0 view .LVU35
 169 001a 5978     		ldrb	r1, [r3, #1]	@ zero_extendqisi2
 170              		.loc 1 493 8 view .LVU36
 171 001c 61B9     		cbnz	r1, .L11
 488:SYS/task_manager/task_manager.c ****     uint8_t grp_id = GET_TASKGROUP_PRIORITY(tsk->priority.Priority);
 172              		.loc 1 488 1 view .LVU37
 173 001e 00B5     		push	{lr}
 174              	.LCFI1:
 175              		.cfi_def_cfa_offset 4
 176              		.cfi_offset 14, -4
 177 0020 4FEAD00E 		lsr	lr, r0, #3
 494:SYS/task_manager/task_manager.c ****     {
 495:SYS/task_manager/task_manager.c ****         TskHdl_BlkMap.Grp.Flg &= ~(1 << grp_id);
 178              		.loc 1 495 9 is_stmt 1 view .LVU38
 179              		.loc 1 495 31 is_stmt 0 view .LVU39
 180 0024 0549     		ldr	r1, .L14
 181 0026 0B78     		ldrb	r3, [r1]	@ zero_extendqisi2
 182              		.loc 1 495 38 view .LVU40
 183 0028 0122     		movs	r2, #1
 184 002a 02FA0EF2 		lsl	r2, r2, lr
 185              		.loc 1 495 31 view .LVU41
 186 002e 23EA0203 		bic	r3, r3, r2
 187 0032 0B70     		strb	r3, [r1]
 496:SYS/task_manager/task_manager.c ****     }
 497:SYS/task_manager/task_manager.c **** }
 188              		.loc 1 497 1 view .LVU42
 189 0034 5DF804FB 		ldr	pc, [sp], #4
 190              	.L11:
 191              	.LCFI2:
 192              		.cfi_def_cfa_offset 0
ARM GAS  /var/folders/lx/hc4sn_b53233_zkc9xbbl97r0000gp/T//ccdoBicG.s 			page 13


 193              		.cfi_restore 14
 194 0038 7047     		bx	lr
 195              	.L15:
 196 003a 00BF     		.align	2
 197              	.L14:
 198 003c 00000000 		.word	.LANCHOR1
 199              		.cfi_endproc
 200              	.LFE146:
 202              		.section	.text.Task_ClearPending,"ax",%progbits
 203              		.align	1
 204              		.syntax unified
 205              		.thumb
 206              		.thumb_func
 207              		.fpu fpv4-sp-d16
 209              	Task_ClearPending:
 210              	.LVL8:
 211              	.LFB147:
 498:SYS/task_manager/task_manager.c **** 
 499:SYS/task_manager/task_manager.c **** static void Task_ClearPending(Task *tsk)
 500:SYS/task_manager/task_manager.c **** {
 212              		.loc 1 500 1 is_stmt 1 view -0
 213              		.cfi_startproc
 214              		@ args = 0, pretend = 0, frame = 0
 215              		@ frame_needed = 0, uses_anonymous_args = 0
 501:SYS/task_manager/task_manager.c ****     uint8_t grp_id = GET_TASKGROUP_PRIORITY(tsk->priority.Priority);
 216              		.loc 1 501 5 view .LVU44
 217              		.loc 1 501 22 is_stmt 0 view .LVU45
 218 0000 0078     		ldrb	r0, [r0]	@ zero_extendqisi2
 219              	.LVL9:
 502:SYS/task_manager/task_manager.c ****     uint8_t tsk_id = GET_TASKINGROUP_PRIORITY(tsk->priority.Priority);
 220              		.loc 1 502 5 is_stmt 1 view .LVU46
 221              		.loc 1 502 13 is_stmt 0 view .LVU47
 222 0002 00F0070C 		and	ip, r0, #7
 223              	.LVL10:
 503:SYS/task_manager/task_manager.c **** 
 504:SYS/task_manager/task_manager.c ****     TskHdl_PndMap.TskInGrp[grp_id].Flg &= ~(1 << tsk_id);
 224              		.loc 1 504 5 is_stmt 1 view .LVU48
 225              		.loc 1 504 40 is_stmt 0 view .LVU49
 226 0006 0D4B     		ldr	r3, .L22
 227 0008 03EBD003 		add	r3, r3, r0, lsr #3
 228 000c 5A78     		ldrb	r2, [r3, #1]	@ zero_extendqisi2
 229              		.loc 1 504 47 view .LVU50
 230 000e 0121     		movs	r1, #1
 231 0010 01FA0CF1 		lsl	r1, r1, ip
 232              		.loc 1 504 40 view .LVU51
 233 0014 22EA0102 		bic	r2, r2, r1
 234 0018 5A70     		strb	r2, [r3, #1]
 505:SYS/task_manager/task_manager.c ****     if (TskHdl_PndMap.TskInGrp[grp_id].Flg == 0)
 235              		.loc 1 505 5 is_stmt 1 view .LVU52
 236              		.loc 1 505 39 is_stmt 0 view .LVU53
 237 001a 5978     		ldrb	r1, [r3, #1]	@ zero_extendqisi2
 238              		.loc 1 505 8 view .LVU54
 239 001c 61B9     		cbnz	r1, .L19
 500:SYS/task_manager/task_manager.c ****     uint8_t grp_id = GET_TASKGROUP_PRIORITY(tsk->priority.Priority);
 240              		.loc 1 500 1 view .LVU55
 241 001e 00B5     		push	{lr}
 242              	.LCFI3:
ARM GAS  /var/folders/lx/hc4sn_b53233_zkc9xbbl97r0000gp/T//ccdoBicG.s 			page 14


 243              		.cfi_def_cfa_offset 4
 244              		.cfi_offset 14, -4
 245 0020 4FEAD00E 		lsr	lr, r0, #3
 506:SYS/task_manager/task_manager.c ****     {
 507:SYS/task_manager/task_manager.c ****         TskHdl_PndMap.Grp.Flg &= ~(1 << grp_id);
 246              		.loc 1 507 9 is_stmt 1 view .LVU56
 247              		.loc 1 507 31 is_stmt 0 view .LVU57
 248 0024 0549     		ldr	r1, .L22
 249 0026 0B78     		ldrb	r3, [r1]	@ zero_extendqisi2
 250              		.loc 1 507 38 view .LVU58
 251 0028 0122     		movs	r2, #1
 252 002a 02FA0EF2 		lsl	r2, r2, lr
 253              		.loc 1 507 31 view .LVU59
 254 002e 23EA0203 		bic	r3, r3, r2
 255 0032 0B70     		strb	r3, [r1]
 508:SYS/task_manager/task_manager.c ****     }
 509:SYS/task_manager/task_manager.c **** }
 256              		.loc 1 509 1 view .LVU60
 257 0034 5DF804FB 		ldr	pc, [sp], #4
 258              	.L19:
 259              	.LCFI4:
 260              		.cfi_def_cfa_offset 0
 261              		.cfi_restore 14
 262 0038 7047     		bx	lr
 263              	.L23:
 264 003a 00BF     		.align	2
 265              	.L22:
 266 003c 00000000 		.word	.LANCHOR2
 267              		.cfi_endproc
 268              	.LFE147:
 270              		.section	.text.Task_ClearReady,"ax",%progbits
 271              		.align	1
 272              		.syntax unified
 273              		.thumb
 274              		.thumb_func
 275              		.fpu fpv4-sp-d16
 277              	Task_ClearReady:
 278              	.LVL11:
 279              	.LFB148:
 510:SYS/task_manager/task_manager.c **** 
 511:SYS/task_manager/task_manager.c **** static void Task_ClearReady(Task *tsk)
 512:SYS/task_manager/task_manager.c **** {
 280              		.loc 1 512 1 is_stmt 1 view -0
 281              		.cfi_startproc
 282              		@ args = 0, pretend = 0, frame = 0
 283              		@ frame_needed = 0, uses_anonymous_args = 0
 284              		.loc 1 512 1 is_stmt 0 view .LVU62
 285 0000 10B5     		push	{r4, lr}
 286              	.LCFI5:
 287              		.cfi_def_cfa_offset 8
 288              		.cfi_offset 4, -8
 289              		.cfi_offset 14, -4
 513:SYS/task_manager/task_manager.c ****     uint8_t grp_id = GET_TASKGROUP_PRIORITY(tsk->priority.Priority);
 290              		.loc 1 513 5 is_stmt 1 view .LVU63
 291              		.loc 1 513 22 is_stmt 0 view .LVU64
 292 0002 90F800C0 		ldrb	ip, [r0]	@ zero_extendqisi2
 293              	.LVL12:
ARM GAS  /var/folders/lx/hc4sn_b53233_zkc9xbbl97r0000gp/T//ccdoBicG.s 			page 15


 514:SYS/task_manager/task_manager.c ****     uint8_t tsk_id = GET_TASKINGROUP_PRIORITY(tsk->priority.Priority);
 294              		.loc 1 514 5 is_stmt 1 view .LVU65
 295              		.loc 1 514 13 is_stmt 0 view .LVU66
 296 0006 0CF0070E 		and	lr, ip, #7
 297              	.LVL13:
 515:SYS/task_manager/task_manager.c **** 
 516:SYS/task_manager/task_manager.c ****     tsk->Exec_status.State = Task_Pending;
 298              		.loc 1 516 5 is_stmt 1 view .LVU67
 299              		.loc 1 516 28 is_stmt 0 view .LVU68
 300 000a 0421     		movs	r1, #4
 301 000c 80F84810 		strb	r1, [r0, #72]
 517:SYS/task_manager/task_manager.c **** 
 518:SYS/task_manager/task_manager.c ****     TskHdl_RdyMap.TskInGrp[grp_id].Flg &= ~(1 << tsk_id);
 302              		.loc 1 518 5 is_stmt 1 view .LVU69
 303              		.loc 1 518 40 is_stmt 0 view .LVU70
 304 0010 0A4B     		ldr	r3, .L27
 305 0012 03EBDC03 		add	r3, r3, ip, lsr #3
 306 0016 5A78     		ldrb	r2, [r3, #1]	@ zero_extendqisi2
 307              		.loc 1 518 47 view .LVU71
 308 0018 0121     		movs	r1, #1
 309 001a 01FA0EF1 		lsl	r1, r1, lr
 310              		.loc 1 518 40 view .LVU72
 311 001e 22EA0102 		bic	r2, r2, r1
 312 0022 5A70     		strb	r2, [r3, #1]
 519:SYS/task_manager/task_manager.c ****     if (TskHdl_RdyMap.TskInGrp[grp_id].Flg == 0)
 313              		.loc 1 519 5 is_stmt 1 view .LVU73
 314              		.loc 1 519 39 is_stmt 0 view .LVU74
 315 0024 5978     		ldrb	r1, [r3, #1]	@ zero_extendqisi2
 316              		.loc 1 519 8 view .LVU75
 317 0026 41B9     		cbnz	r1, .L24
 318 0028 4FEADC04 		lsr	r4, ip, #3
 520:SYS/task_manager/task_manager.c ****     {
 521:SYS/task_manager/task_manager.c ****         TskHdl_RdyMap.Grp.Flg &= ~(1 << grp_id);
 319              		.loc 1 521 9 is_stmt 1 view .LVU76
 320              		.loc 1 521 31 is_stmt 0 view .LVU77
 321 002c 0349     		ldr	r1, .L27
 322 002e 0B78     		ldrb	r3, [r1]	@ zero_extendqisi2
 323              		.loc 1 521 38 view .LVU78
 324 0030 0122     		movs	r2, #1
 325 0032 A240     		lsls	r2, r2, r4
 326              		.loc 1 521 31 view .LVU79
 327 0034 23EA0203 		bic	r3, r3, r2
 328 0038 0B70     		strb	r3, [r1]
 329              	.L24:
 522:SYS/task_manager/task_manager.c ****     }
 523:SYS/task_manager/task_manager.c **** }
 330              		.loc 1 523 1 view .LVU80
 331 003a 10BD     		pop	{r4, pc}
 332              	.L28:
 333              		.align	2
 334              	.L27:
 335 003c 00000000 		.word	.LANCHOR0
 336              		.cfi_endproc
 337              	.LFE148:
 339              		.section	.text.Task_SetPendSVPro,"ax",%progbits
 340              		.align	1
 341              		.syntax unified
ARM GAS  /var/folders/lx/hc4sn_b53233_zkc9xbbl97r0000gp/T//ccdoBicG.s 			page 16


 342              		.thumb
 343              		.thumb_func
 344              		.fpu fpv4-sp-d16
 346              	Task_SetPendSVPro:
 347              	.LFB151:
 524:SYS/task_manager/task_manager.c **** 
 525:SYS/task_manager/task_manager.c **** Task *Task_Get_HighestRank_RdyTask(void)
 526:SYS/task_manager/task_manager.c **** {
 527:SYS/task_manager/task_manager.c ****     uint8_t grp_id = 0;
 528:SYS/task_manager/task_manager.c ****     uint8_t tsk_id = 0;
 529:SYS/task_manager/task_manager.c **** 
 530:SYS/task_manager/task_manager.c ****     if (TskHdl_RdyMap.Grp.Flg)
 531:SYS/task_manager/task_manager.c ****     {
 532:SYS/task_manager/task_manager.c ****         //find group
 533:SYS/task_manager/task_manager.c ****         grp_id = Tsk_Handle[TskHdl_RdyMap.Grp.Flg];
 534:SYS/task_manager/task_manager.c ****         //find task in group
 535:SYS/task_manager/task_manager.c ****         tsk_id = Tsk_Handle[TskHdl_RdyMap.TskInGrp[grp_id].Flg];
 536:SYS/task_manager/task_manager.c ****     }
 537:SYS/task_manager/task_manager.c ****     else
 538:SYS/task_manager/task_manager.c ****         return NULL;
 539:SYS/task_manager/task_manager.c **** 
 540:SYS/task_manager/task_manager.c ****     if (Task_Ptr[grp_id][tsk_id] != NULL)
 541:SYS/task_manager/task_manager.c ****     {
 542:SYS/task_manager/task_manager.c ****         return Task_Ptr[grp_id][tsk_id];
 543:SYS/task_manager/task_manager.c ****     }
 544:SYS/task_manager/task_manager.c ****     else
 545:SYS/task_manager/task_manager.c ****     {
 546:SYS/task_manager/task_manager.c ****         TskHdl_RdyMap.Grp.Flg &= ~(1 << grp_id);
 547:SYS/task_manager/task_manager.c ****         TskHdl_RdyMap.TskInGrp[grp_id].Flg &= ~(1 << tsk_id);
 548:SYS/task_manager/task_manager.c ****         return NULL;
 549:SYS/task_manager/task_manager.c ****     }
 550:SYS/task_manager/task_manager.c **** }
 551:SYS/task_manager/task_manager.c **** 
 552:SYS/task_manager/task_manager.c **** void Task_SetNextTask_Ptr(const Task *nxt)
 553:SYS/task_manager/task_manager.c **** {
 554:SYS/task_manager/task_manager.c ****     if (nxt != NULL)
 555:SYS/task_manager/task_manager.c ****     {
 556:SYS/task_manager/task_manager.c ****         NxtRunTsk_Ptr = nxt;
 557:SYS/task_manager/task_manager.c ****         NxtTsk_TCB.Top_Stk_Ptr = &NxtRunTsk_Ptr->TCB.Top_Stk_Ptr;
 558:SYS/task_manager/task_manager.c ****         NxtTsk_TCB.Stack = NxtRunTsk_Ptr->TCB.Stack;
 559:SYS/task_manager/task_manager.c ****     }
 560:SYS/task_manager/task_manager.c **** }
 561:SYS/task_manager/task_manager.c **** 
 562:SYS/task_manager/task_manager.c **** //first need to know is linux support AT&T formate ASM code
 563:SYS/task_manager/task_manager.c **** static __attribute__((naked)) void Task_SetPendSVPro(void)
 564:SYS/task_manager/task_manager.c **** {
 348              		.loc 1 564 1 is_stmt 1 view -0
 349              		.cfi_startproc
 350              		@ Naked Function: prologue and epilogue provided by programmer.
 351              		@ args = 0, pretend = 0, frame = 0
 352              		@ frame_needed = 0, uses_anonymous_args = 0
 565:SYS/task_manager/task_manager.c ****     //set pendsv interrupt
 566:SYS/task_manager/task_manager.c ****     __ASM(".equ NVIC_SYSPRI14, 0xE000ED22");
 353              		.loc 1 566 5 view .LVU82
 354              		.syntax unified
 355              	@ 566 "SYS/task_manager/task_manager.c" 1
 356              		.equ NVIC_SYSPRI14, 0xE000ED22
ARM GAS  /var/folders/lx/hc4sn_b53233_zkc9xbbl97r0000gp/T//ccdoBicG.s 			page 17


 357              	@ 0 "" 2
 567:SYS/task_manager/task_manager.c ****     __ASM(".equ NVIC_PENDSV_PRI, 0xFF");
 358              		.loc 1 567 5 view .LVU83
 359              	@ 567 "SYS/task_manager/task_manager.c" 1
 360              		.equ NVIC_PENDSV_PRI, 0xFF
 361              	@ 0 "" 2
 568:SYS/task_manager/task_manager.c **** 
 569:SYS/task_manager/task_manager.c ****     __ASM("LDR      R0, =NVIC_SYSPRI14");
 362              		.loc 1 569 5 view .LVU84
 363              	@ 569 "SYS/task_manager/task_manager.c" 1
 364 0000 0548     		LDR      R0, =NVIC_SYSPRI14
 365              	@ 0 "" 2
 570:SYS/task_manager/task_manager.c ****     __ASM("LDR      R1, =NVIC_PENDSV_PRI");
 366              		.loc 1 570 5 view .LVU85
 367              	@ 570 "SYS/task_manager/task_manager.c" 1
 368 0002 4FF0FF01 		LDR      R1, =NVIC_PENDSV_PRI
 369              	@ 0 "" 2
 571:SYS/task_manager/task_manager.c ****     __ASM("STRB     R1, [R0]");
 370              		.loc 1 571 5 view .LVU86
 371              	@ 571 "SYS/task_manager/task_manager.c" 1
 372 0006 0170     		STRB     R1, [R0]
 373              	@ 0 "" 2
 572:SYS/task_manager/task_manager.c **** 
 573:SYS/task_manager/task_manager.c **** #if (TASK_SCHEDULER_TYPE == PREEMPTIVE_SCHDULER)
 574:SYS/task_manager/task_manager.c ****     //set PSP to 0 to initial context switch call
 575:SYS/task_manager/task_manager.c ****     __ASM("MOVS     R0, #0");
 374              		.loc 1 575 5 view .LVU87
 375              	@ 575 "SYS/task_manager/task_manager.c" 1
 376 0008 0020     		MOVS     R0, #0
 377              	@ 0 "" 2
 576:SYS/task_manager/task_manager.c ****     __ASM("MSR      PSP, R0");
 378              		.loc 1 576 5 view .LVU88
 379              	@ 576 "SYS/task_manager/task_manager.c" 1
 380 000a 80F30988 		MSR      PSP, R0
 381              	@ 0 "" 2
 577:SYS/task_manager/task_manager.c **** 
 578:SYS/task_manager/task_manager.c ****     //initial MSP to Task_OS_ExpStkBase
 579:SYS/task_manager/task_manager.c ****     __ASM("LDR      R0, =Task_OS_ExpStkBase");
 382              		.loc 1 579 5 view .LVU89
 383              	@ 579 "SYS/task_manager/task_manager.c" 1
 384 000e 0348     		LDR      R0, =Task_OS_ExpStkBase
 385              	@ 0 "" 2
 580:SYS/task_manager/task_manager.c ****     __ASM("LDR      R1, [R0]");
 386              		.loc 1 580 5 view .LVU90
 387              	@ 580 "SYS/task_manager/task_manager.c" 1
 388 0010 0168     		LDR      R1, [R0]
 389              	@ 0 "" 2
 581:SYS/task_manager/task_manager.c ****     __ASM("MSR      MSP, R1");
 390              		.loc 1 581 5 view .LVU91
 391              	@ 581 "SYS/task_manager/task_manager.c" 1
 392 0012 81F30888 		MSR      MSP, R1
 393              	@ 0 "" 2
 582:SYS/task_manager/task_manager.c **** #endif
 583:SYS/task_manager/task_manager.c **** 
 584:SYS/task_manager/task_manager.c ****     __ASM("BX       LR");
 394              		.loc 1 584 5 view .LVU92
 395              	@ 584 "SYS/task_manager/task_manager.c" 1
ARM GAS  /var/folders/lx/hc4sn_b53233_zkc9xbbl97r0000gp/T//ccdoBicG.s 			page 18


 396 0016 7047     		BX       LR
 397              	@ 0 "" 2
 585:SYS/task_manager/task_manager.c **** }
 398              		.loc 1 585 1 is_stmt 0 view .LVU93
 399              		.thumb
 400              		.syntax unified
 401              		.cfi_endproc
 402              	.LFE151:
 404              		.section	.text.Task_PriorityCompare,"ax",%progbits
 405              		.align	1
 406              		.global	Task_PriorityCompare
 407              		.syntax unified
 408              		.thumb
 409              		.thumb_func
 410              		.fpu fpv4-sp-d16
 412              	Task_PriorityCompare:
 413              	.LVL14:
 414              	.LFB155:
 586:SYS/task_manager/task_manager.c **** 
 587:SYS/task_manager/task_manager.c **** __attribute__((naked)) void Task_TriggerPendSV(void)
 588:SYS/task_manager/task_manager.c **** {
 589:SYS/task_manager/task_manager.c ****     __ASM(".equ NVIC_INT_CTRL, 0xE000ED04");
 590:SYS/task_manager/task_manager.c ****     __ASM(".equ NVIC_PENDSVSET, 0x10000000");
 591:SYS/task_manager/task_manager.c **** 
 592:SYS/task_manager/task_manager.c ****     __ASM("LDR      R0, =NVIC_INT_CTRL");
 593:SYS/task_manager/task_manager.c ****     __ASM("LDR      R1, =NVIC_PENDSVSET");
 594:SYS/task_manager/task_manager.c ****     __ASM("STR      R1, [R0]");
 595:SYS/task_manager/task_manager.c ****     __ASM("BX       LR");
 596:SYS/task_manager/task_manager.c **** }
 597:SYS/task_manager/task_manager.c **** 
 598:SYS/task_manager/task_manager.c **** void Task_Force_TriggerPendSV(void)
 599:SYS/task_manager/task_manager.c **** {
 600:SYS/task_manager/task_manager.c ****     /* Barriers are normally not required but do ensure the code is completely \
 601:SYS/task_manager/task_manager.c ****         within the specified behaviour for the architecture. */
 602:SYS/task_manager/task_manager.c ****     __ASM volatile("dsb" ::
 603:SYS/task_manager/task_manager.c ****                        : "memory");
 604:SYS/task_manager/task_manager.c ****     __ASM volatile("isb");
 605:SYS/task_manager/task_manager.c ****     Task_TriggerPendSV();
 606:SYS/task_manager/task_manager.c **** }
 607:SYS/task_manager/task_manager.c **** 
 608:SYS/task_manager/task_manager.c **** uint8_t Task_Get_TaskNum(void)
 609:SYS/task_manager/task_manager.c **** {
 610:SYS/task_manager/task_manager.c ****     return TskCrt_RegList.num;
 611:SYS/task_manager/task_manager.c **** }
 612:SYS/task_manager/task_manager.c **** 
 613:SYS/task_manager/task_manager.c **** //return high priority task pointer
 614:SYS/task_manager/task_manager.c **** Task *Task_PriorityCompare(const Task *tsk_l, const Task *tsk_r)
 615:SYS/task_manager/task_manager.c **** {
 415              		.loc 1 615 1 is_stmt 1 view -0
 416              		.cfi_startproc
 417              		@ args = 0, pretend = 0, frame = 0
 418              		@ frame_needed = 0, uses_anonymous_args = 0
 616:SYS/task_manager/task_manager.c ****     if ((tsk_l == NULL) && (tsk_r == NULL))
 419              		.loc 1 616 5 view .LVU95
 420              		.loc 1 616 8 is_stmt 0 view .LVU96
 421 0000 0346     		mov	r3, r0
 422 0002 90B1     		cbz	r0, .L43
ARM GAS  /var/folders/lx/hc4sn_b53233_zkc9xbbl97r0000gp/T//ccdoBicG.s 			page 19


 423              	.L31:
 617:SYS/task_manager/task_manager.c ****     {
 618:SYS/task_manager/task_manager.c ****         return NULL;
 619:SYS/task_manager/task_manager.c ****     }
 620:SYS/task_manager/task_manager.c **** 
 621:SYS/task_manager/task_manager.c ****     if ((tsk_l == NULL) && (tsk_r != NULL))
 424              		.loc 1 621 5 is_stmt 1 view .LVU97
 425              		.loc 1 621 8 is_stmt 0 view .LVU98
 426 0004 A3B1     		cbz	r3, .L44
 427              	.L33:
 622:SYS/task_manager/task_manager.c ****     {
 623:SYS/task_manager/task_manager.c ****         return tsk_r;
 624:SYS/task_manager/task_manager.c ****     }
 625:SYS/task_manager/task_manager.c **** 
 626:SYS/task_manager/task_manager.c ****     if ((tsk_l != NULL) && (tsk_r == NULL))
 428              		.loc 1 626 5 is_stmt 1 view .LVU99
 429              		.loc 1 626 8 is_stmt 0 view .LVU100
 430 0006 03B1     		cbz	r3, .L34
 431              		.loc 1 626 25 discriminator 1 view .LVU101
 432 0008 B1B1     		cbz	r1, .L36
 433              	.L34:
 615:SYS/task_manager/task_manager.c ****     if ((tsk_l == NULL) && (tsk_r == NULL))
 434              		.loc 1 615 1 view .LVU102
 435 000a 00B5     		push	{lr}
 436              	.LCFI6:
 437              		.cfi_def_cfa_offset 4
 438              		.cfi_offset 14, -4
 627:SYS/task_manager/task_manager.c ****     {
 628:SYS/task_manager/task_manager.c ****         return tsk_l;
 629:SYS/task_manager/task_manager.c ****     }
 630:SYS/task_manager/task_manager.c **** 
 631:SYS/task_manager/task_manager.c ****     uint8_t L_Grp_level = GET_TASKGROUP_PRIORITY(tsk_l->priority.Suction.Group_Level);
 439              		.loc 1 631 5 is_stmt 1 view .LVU103
 440              		.loc 1 631 27 is_stmt 0 view .LVU104
 441 000c 1878     		ldrb	r0, [r3]	@ zero_extendqisi2
 442              	.LVL15:
 443              		.loc 1 631 13 view .LVU105
 444 000e 4FF0000E 		mov	lr, #0
 445              	.LVL16:
 632:SYS/task_manager/task_manager.c ****     uint8_t R_Grp_level = GET_TASKGROUP_PRIORITY(tsk_r->priority.Suction.Group_Level);
 446              		.loc 1 632 5 is_stmt 1 view .LVU106
 447              		.loc 1 632 27 is_stmt 0 view .LVU107
 448 0012 0A78     		ldrb	r2, [r1]	@ zero_extendqisi2
 449              	.LVL17:
 633:SYS/task_manager/task_manager.c ****     uint8_t L_TskPri_level = GET_TASKINGROUP_PRIORITY(tsk_l->priority.Suction.Task_Level);
 450              		.loc 1 633 5 is_stmt 1 view .LVU108
 451              		.loc 1 633 30 is_stmt 0 view .LVU109
 452 0014 00F00700 		and	r0, r0, #7
 453              	.LVL18:
 634:SYS/task_manager/task_manager.c ****     uint8_t R_TskPri_level = GET_TASKINGROUP_PRIORITY(tsk_r->priority.Suction.Task_Level);
 454              		.loc 1 634 5 is_stmt 1 view .LVU110
 455              		.loc 1 634 30 is_stmt 0 view .LVU111
 456 0018 02F00702 		and	r2, r2, #7
 457              	.LVL19:
 635:SYS/task_manager/task_manager.c **** 
 636:SYS/task_manager/task_manager.c ****     if (L_Grp_level < R_Grp_level)
 458              		.loc 1 636 5 is_stmt 1 view .LVU112
ARM GAS  /var/folders/lx/hc4sn_b53233_zkc9xbbl97r0000gp/T//ccdoBicG.s 			page 20


 637:SYS/task_manager/task_manager.c ****     {
 638:SYS/task_manager/task_manager.c ****         return tsk_l;
 639:SYS/task_manager/task_manager.c ****     }
 640:SYS/task_manager/task_manager.c ****     else if (L_Grp_level > R_Grp_level)
 459              		.loc 1 640 10 view .LVU113
 460              		.loc 1 640 13 is_stmt 0 view .LVU114
 461 001c F645     		cmp	lr, lr
 462 001e 0ED8     		bhi	.L32
 641:SYS/task_manager/task_manager.c ****     {
 642:SYS/task_manager/task_manager.c ****         return tsk_r;
 643:SYS/task_manager/task_manager.c ****     }
 644:SYS/task_manager/task_manager.c ****     else if (L_Grp_level == R_Grp_level)
 463              		.loc 1 644 10 is_stmt 1 view .LVU115
 464              		.loc 1 644 13 is_stmt 0 view .LVU116
 465 0020 0ED1     		bne	.L30
 645:SYS/task_manager/task_manager.c ****     {
 646:SYS/task_manager/task_manager.c ****         if (L_TskPri_level < R_TskPri_level)
 466              		.loc 1 646 9 is_stmt 1 view .LVU117
 467              		.loc 1 646 12 is_stmt 0 view .LVU118
 468 0022 9042     		cmp	r0, r2
 469 0024 0AD3     		bcc	.L38
 647:SYS/task_manager/task_manager.c ****         {
 648:SYS/task_manager/task_manager.c ****             return tsk_l;
 649:SYS/task_manager/task_manager.c ****         }
 650:SYS/task_manager/task_manager.c ****         else if (L_TskPri_level > R_TskPri_level)
 470              		.loc 1 650 14 is_stmt 1 view .LVU119
 471              		.loc 1 650 17 is_stmt 0 view .LVU120
 472 0026 0BD9     		bls	.L30
 473 0028 09E0     		b	.L32
 474              	.LVL20:
 475              	.L43:
 476              	.LCFI7:
 477              		.cfi_def_cfa_offset 0
 478              		.cfi_restore 14
 616:SYS/task_manager/task_manager.c ****     {
 479              		.loc 1 616 25 discriminator 1 view .LVU121
 480 002a 0029     		cmp	r1, #0
 481 002c EAD1     		bne	.L31
 482 002e 01E0     		b	.L40
 483              	.L44:
 621:SYS/task_manager/task_manager.c ****     {
 484              		.loc 1 621 25 discriminator 1 view .LVU122
 485 0030 0029     		cmp	r1, #0
 486 0032 E8D0     		beq	.L33
 487              	.LVL21:
 488              	.L40:
 651:SYS/task_manager/task_manager.c ****         {
 652:SYS/task_manager/task_manager.c ****             return tsk_r;
 653:SYS/task_manager/task_manager.c ****         }
 654:SYS/task_manager/task_manager.c ****     }
 655:SYS/task_manager/task_manager.c **** }
 489              		.loc 1 655 1 view .LVU123
 490 0034 0846     		mov	r0, r1
 491              	.LVL22:
 492              		.loc 1 655 1 view .LVU124
 493 0036 7047     		bx	lr
 494              	.LVL23:
ARM GAS  /var/folders/lx/hc4sn_b53233_zkc9xbbl97r0000gp/T//ccdoBicG.s 			page 21


 495              	.L36:
 628:SYS/task_manager/task_manager.c ****     }
 496              		.loc 1 628 16 view .LVU125
 497 0038 1946     		mov	r1, r3
 498              	.LVL24:
 628:SYS/task_manager/task_manager.c ****     }
 499              		.loc 1 628 16 view .LVU126
 500 003a FBE7     		b	.L40
 501              	.LVL25:
 502              	.L38:
 503              	.LCFI8:
 504              		.cfi_def_cfa_offset 4
 505              		.cfi_offset 14, -4
 648:SYS/task_manager/task_manager.c ****         }
 506              		.loc 1 648 20 view .LVU127
 507 003c 1946     		mov	r1, r3
 508              	.LVL26:
 509              	.L32:
 510              		.loc 1 655 1 view .LVU128
 511 003e 0846     		mov	r0, r1
 512              	.L30:
 513 0040 5DF804FB 		ldr	pc, [sp], #4
 514              		.cfi_endproc
 515              	.LFE155:
 517              		.section	.text.ReSet_Task_Data,"ax",%progbits
 518              		.align	1
 519              		.syntax unified
 520              		.thumb
 521              		.thumb_func
 522              		.fpu fpv4-sp-d16
 524              	ReSet_Task_Data:
 525              	.LVL27:
 526              	.LFB126:
  95:SYS/task_manager/task_manager.c ****     task->priority.Suction.Group_Level = 0;
 527              		.loc 1 95 1 is_stmt 1 view -0
 528              		.cfi_startproc
 529              		@ args = 0, pretend = 0, frame = 0
 530              		@ frame_needed = 0, uses_anonymous_args = 0
  95:SYS/task_manager/task_manager.c ****     task->priority.Suction.Group_Level = 0;
 531              		.loc 1 95 1 is_stmt 0 view .LVU130
 532 0000 10B5     		push	{r4, lr}
 533              	.LCFI9:
 534              		.cfi_def_cfa_offset 8
 535              		.cfi_offset 4, -8
 536              		.cfi_offset 14, -4
 537 0002 0446     		mov	r4, r0
  96:SYS/task_manager/task_manager.c ****     task->priority.Suction.Task_Level = 0;
 538              		.loc 1 96 5 is_stmt 1 view .LVU131
  96:SYS/task_manager/task_manager.c ****     task->priority.Suction.Task_Level = 0;
 539              		.loc 1 96 40 is_stmt 0 view .LVU132
 540 0004 0378     		ldrb	r3, [r0]	@ zero_extendqisi2
 541 0006 6FF3C503 		bfc	r3, #3, #3
 542 000a 0370     		strb	r3, [r0]
  97:SYS/task_manager/task_manager.c ****     task->Task_name = NULL;
 543              		.loc 1 97 5 is_stmt 1 view .LVU133
  97:SYS/task_manager/task_manager.c ****     task->Task_name = NULL;
 544              		.loc 1 97 39 is_stmt 0 view .LVU134
ARM GAS  /var/folders/lx/hc4sn_b53233_zkc9xbbl97r0000gp/T//ccdoBicG.s 			page 22


 545 000c DBB2     		uxtb	r3, r3
 546 000e 6FF30203 		bfc	r3, #0, #3
 547 0012 0370     		strb	r3, [r0]
  98:SYS/task_manager/task_manager.c ****     task->exec_frq = 0;
 548              		.loc 1 98 5 is_stmt 1 view .LVU135
  98:SYS/task_manager/task_manager.c ****     task->exec_frq = 0;
 549              		.loc 1 98 21 is_stmt 0 view .LVU136
 550 0014 0023     		movs	r3, #0
 551 0016 4360     		str	r3, [r0, #4]
  99:SYS/task_manager/task_manager.c ****     task->exec_interval_us = 0;
 552              		.loc 1 99 5 is_stmt 1 view .LVU137
  99:SYS/task_manager/task_manager.c ****     task->exec_interval_us = 0;
 553              		.loc 1 99 20 is_stmt 0 view .LVU138
 554 0018 8360     		str	r3, [r0, #8]
 100:SYS/task_manager/task_manager.c ****     task->Exec_Func = NULL;
 555              		.loc 1 100 5 is_stmt 1 view .LVU139
 100:SYS/task_manager/task_manager.c ****     task->Exec_Func = NULL;
 556              		.loc 1 100 28 is_stmt 0 view .LVU140
 557 001a 8381     		strh	r3, [r0, #12]	@ movhi
 101:SYS/task_manager/task_manager.c **** 
 558              		.loc 1 101 5 is_stmt 1 view .LVU141
 101:SYS/task_manager/task_manager.c **** 
 559              		.loc 1 101 21 is_stmt 0 view .LVU142
 560 001c 0361     		str	r3, [r0, #16]
 103:SYS/task_manager/task_manager.c ****     task->Exec_status.detect_exec_time_arv = 0;
 561              		.loc 1 103 5 is_stmt 1 view .LVU143
 103:SYS/task_manager/task_manager.c ****     task->Exec_status.detect_exec_time_arv = 0;
 562              		.loc 1 103 39 is_stmt 0 view .LVU144
 563 001e C362     		str	r3, [r0, #44]
 104:SYS/task_manager/task_manager.c ****     task->Exec_status.detect_exec_time_max = 0;
 564              		.loc 1 104 5 is_stmt 1 view .LVU145
 104:SYS/task_manager/task_manager.c ****     task->Exec_status.detect_exec_time_max = 0;
 565              		.loc 1 104 44 is_stmt 0 view .LVU146
 566 0020 0363     		str	r3, [r0, #48]
 105:SYS/task_manager/task_manager.c ****     task->Exec_status.Exec_Times = 0;
 567              		.loc 1 105 5 is_stmt 1 view .LVU147
 105:SYS/task_manager/task_manager.c ****     task->Exec_status.Exec_Times = 0;
 568              		.loc 1 105 44 is_stmt 0 view .LVU148
 569 0022 4363     		str	r3, [r0, #52]
 106:SYS/task_manager/task_manager.c ****     task->Exec_status.cpu_opy = 0;
 570              		.loc 1 106 5 is_stmt 1 view .LVU149
 106:SYS/task_manager/task_manager.c ****     task->Exec_status.cpu_opy = 0;
 571              		.loc 1 106 34 is_stmt 0 view .LVU150
 572 0024 8363     		str	r3, [r0, #56]
 107:SYS/task_manager/task_manager.c ****     task->Exec_status.totlal_running_time = 0;
 573              		.loc 1 107 5 is_stmt 1 view .LVU151
 107:SYS/task_manager/task_manager.c ****     task->Exec_status.totlal_running_time = 0;
 574              		.loc 1 107 31 is_stmt 0 view .LVU152
 575 0026 0022     		movs	r2, #0
 576 0028 4264     		str	r2, [r0, #68]	@ float
 108:SYS/task_manager/task_manager.c **** 
 577              		.loc 1 108 5 is_stmt 1 view .LVU153
 108:SYS/task_manager/task_manager.c **** 
 578              		.loc 1 108 43 is_stmt 0 view .LVU154
 579 002a 0364     		str	r3, [r0, #64]
 110:SYS/task_manager/task_manager.c ****     task->delay_info.tsk_hdl = 0;
 580              		.loc 1 110 5 is_stmt 1 view .LVU155
ARM GAS  /var/folders/lx/hc4sn_b53233_zkc9xbbl97r0000gp/T//ccdoBicG.s 			page 23


 110:SYS/task_manager/task_manager.c ****     task->delay_info.tsk_hdl = 0;
 581              		.loc 1 110 31 is_stmt 0 view .LVU156
 582 002c 80F86430 		strb	r3, [r0, #100]
 111:SYS/task_manager/task_manager.c ****     task->delay_info.time_unit = 0;
 583              		.loc 1 111 5 is_stmt 1 view .LVU157
 111:SYS/task_manager/task_manager.c ****     task->delay_info.time_unit = 0;
 584              		.loc 1 111 30 is_stmt 0 view .LVU158
 585 0030 8366     		str	r3, [r0, #104]
 112:SYS/task_manager/task_manager.c **** 
 586              		.loc 1 112 5 is_stmt 1 view .LVU159
 112:SYS/task_manager/task_manager.c **** 
 587              		.loc 1 112 32 is_stmt 0 view .LVU160
 588 0032 C366     		str	r3, [r0, #108]
 114:SYS/task_manager/task_manager.c **** 
 589              		.loc 1 114 5 is_stmt 1 view .LVU161
 590 0034 00F16401 		add	r1, r0, #100
 591 0038 7C30     		adds	r0, r0, #124
 592              	.LVL28:
 114:SYS/task_manager/task_manager.c **** 
 593              		.loc 1 114 5 is_stmt 0 view .LVU162
 594 003a FFF7FEFF 		bl	List_ItemInit
 595              	.LVL29:
 116:SYS/task_manager/task_manager.c ****     RuntimeObj_Reset(&(task->Exec_status.Init_Time));
 596              		.loc 1 116 5 is_stmt 1 view .LVU163
 597 003e 04F12400 		add	r0, r4, #36
 598 0042 FFF7FEFF 		bl	RuntimeObj_Reset
 599              	.LVL30:
 117:SYS/task_manager/task_manager.c ****     RuntimeObj_Reset(&(task->Exec_status.Start_Time));
 600              		.loc 1 117 5 view .LVU164
 601 0046 04F11400 		add	r0, r4, #20
 602 004a FFF7FEFF 		bl	RuntimeObj_Reset
 603              	.LVL31:
 118:SYS/task_manager/task_manager.c **** 
 604              		.loc 1 118 5 view .LVU165
 605 004e 04F11C00 		add	r0, r4, #28
 606 0052 FFF7FEFF 		bl	RuntimeObj_Reset
 607              	.LVL32:
 120:SYS/task_manager/task_manager.c **** }
 608              		.loc 1 120 5 view .LVU166
 120:SYS/task_manager/task_manager.c **** }
 609              		.loc 1 120 29 is_stmt 0 view .LVU167
 610 0056 0523     		movs	r3, #5
 611 0058 84F84830 		strb	r3, [r4, #72]
 121:SYS/task_manager/task_manager.c **** 
 612              		.loc 1 121 1 view .LVU168
 613 005c 10BD     		pop	{r4, pc}
 121:SYS/task_manager/task_manager.c **** 
 614              		.loc 1 121 1 view .LVU169
 615              		.cfi_endproc
 616              	.LFE126:
 618              		.section	.text.TaskSys_Init,"ax",%progbits
 619              		.align	1
 620              		.syntax unified
 621              		.thumb
 622              		.thumb_func
 623              		.fpu fpv4-sp-d16
 625              	TaskSys_Init:
ARM GAS  /var/folders/lx/hc4sn_b53233_zkc9xbbl97r0000gp/T//ccdoBicG.s 			page 24


 626              	.LFB128:
 137:SYS/task_manager/task_manager.c **** #if (TASK_SCHEDULER_TYPE == PREEMPTIVE_SCHDULER)
 627              		.loc 1 137 1 is_stmt 1 view -0
 628              		.cfi_startproc
 629              		@ args = 0, pretend = 0, frame = 0
 630              		@ frame_needed = 0, uses_anonymous_args = 0
 631 0000 F8B5     		push	{r3, r4, r5, r6, r7, lr}
 632              	.LCFI10:
 633              		.cfi_def_cfa_offset 24
 634              		.cfi_offset 3, -24
 635              		.cfi_offset 4, -20
 636              		.cfi_offset 5, -16
 637              		.cfi_offset 6, -12
 638              		.cfi_offset 7, -8
 639              		.cfi_offset 14, -4
 140:SYS/task_manager/task_manager.c **** 
 640              		.loc 1 140 5 view .LVU171
 641 0002 4FF42052 		mov	r2, #10240
 642 0006 0021     		movs	r1, #0
 643 0008 1948     		ldr	r0, .L54
 644 000a FFF7FEFF 		bl	memset
 645              	.LVL33:
 142:SYS/task_manager/task_manager.c **** #endif
 646              		.loc 1 142 5 view .LVU172
 142:SYS/task_manager/task_manager.c **** #endif
 647              		.loc 1 142 24 is_stmt 0 view .LVU173
 648 000e 194B     		ldr	r3, .L54+4
 649 0010 194A     		ldr	r2, .L54+8
 650 0012 1A60     		str	r2, [r3]
 148:SYS/task_manager/task_manager.c **** 
 651              		.loc 1 148 5 is_stmt 1 view .LVU174
 652              	.LVL34:
 150:SYS/task_manager/task_manager.c ****     {
 653              		.loc 1 150 5 view .LVU175
 654              	.LBB2:
 150:SYS/task_manager/task_manager.c ****     {
 655              		.loc 1 150 10 view .LVU176
 150:SYS/task_manager/task_manager.c ****     {
 656              		.loc 1 150 18 is_stmt 0 view .LVU177
 657 0014 0027     		movs	r7, #0
 150:SYS/task_manager/task_manager.c ****     {
 658              		.loc 1 150 5 view .LVU178
 659 0016 18E0     		b	.L48
 660              	.LVL35:
 661              	.L49:
 662              	.LBB3:
 154:SYS/task_manager/task_manager.c **** 
 663              		.loc 1 154 13 is_stmt 1 discriminator 3 view .LVU179
 664 0018 184D     		ldr	r5, .L54+12
 665 001a 04EBC706 		add	r6, r4, r7, lsl #3
 666 001e 55F82600 		ldr	r0, [r5, r6, lsl #2]
 667 0022 FFF7FEFF 		bl	ReSet_Task_Data
 668              	.LVL36:
 157:SYS/task_manager/task_manager.c ****             Task_Ptr[group_index][task_priority]->TCB.Stack = NULL;
 669              		.loc 1 157 13 discriminator 3 view .LVU180
 157:SYS/task_manager/task_manager.c ****             Task_Ptr[group_index][task_priority]->TCB.Stack = NULL;
 670              		.loc 1 157 34 is_stmt 0 discriminator 3 view .LVU181
ARM GAS  /var/folders/lx/hc4sn_b53233_zkc9xbbl97r0000gp/T//ccdoBicG.s 			page 25


 671 0026 55F82620 		ldr	r2, [r5, r6, lsl #2]
 157:SYS/task_manager/task_manager.c ****             Task_Ptr[group_index][task_priority]->TCB.Stack = NULL;
 672              		.loc 1 157 63 discriminator 3 view .LVU182
 673 002a 0023     		movs	r3, #0
 674 002c D364     		str	r3, [r2, #76]
 158:SYS/task_manager/task_manager.c ****             Task_Ptr[group_index][task_priority]->TCB.Top_Stk_Ptr = NULL;
 675              		.loc 1 158 13 is_stmt 1 discriminator 3 view .LVU183
 158:SYS/task_manager/task_manager.c ****             Task_Ptr[group_index][task_priority]->TCB.Top_Stk_Ptr = NULL;
 676              		.loc 1 158 34 is_stmt 0 discriminator 3 view .LVU184
 677 002e 55F82620 		ldr	r2, [r5, r6, lsl #2]
 158:SYS/task_manager/task_manager.c ****             Task_Ptr[group_index][task_priority]->TCB.Top_Stk_Ptr = NULL;
 678              		.loc 1 158 61 discriminator 3 view .LVU185
 679 0032 5365     		str	r3, [r2, #84]
 159:SYS/task_manager/task_manager.c **** #endif
 680              		.loc 1 159 13 is_stmt 1 discriminator 3 view .LVU186
 159:SYS/task_manager/task_manager.c **** #endif
 681              		.loc 1 159 34 is_stmt 0 discriminator 3 view .LVU187
 682 0034 55F82620 		ldr	r2, [r5, r6, lsl #2]
 159:SYS/task_manager/task_manager.c **** #endif
 683              		.loc 1 159 67 discriminator 3 view .LVU188
 684 0038 1365     		str	r3, [r2, #80]
 161:SYS/task_manager/task_manager.c **** 
 685              		.loc 1 161 13 is_stmt 1 discriminator 3 view .LVU189
 161:SYS/task_manager/task_manager.c **** 
 686              		.loc 1 161 50 is_stmt 0 discriminator 3 view .LVU190
 687 003a 45F82630 		str	r3, [r5, r6, lsl #2]
 163:SYS/task_manager/task_manager.c ****         }
 688              		.loc 1 163 13 is_stmt 1 discriminator 3 view .LVU191
 152:SYS/task_manager/task_manager.c ****         {
 689              		.loc 1 152 90 discriminator 3 view .LVU192
 152:SYS/task_manager/task_manager.c ****         {
 690              		.loc 1 152 103 is_stmt 0 discriminator 3 view .LVU193
 691 003e 0134     		adds	r4, r4, #1
 692              	.LVL37:
 152:SYS/task_manager/task_manager.c ****         {
 693              		.loc 1 152 103 discriminator 3 view .LVU194
 694 0040 E4B2     		uxtb	r4, r4
 695              	.LVL38:
 696              	.L50:
 152:SYS/task_manager/task_manager.c ****         {
 697              		.loc 1 152 55 is_stmt 1 discriminator 1 view .LVU195
 152:SYS/task_manager/task_manager.c ****         {
 698              		.loc 1 152 9 is_stmt 0 discriminator 1 view .LVU196
 699 0042 072C     		cmp	r4, #7
 700 0044 E8D9     		bls	.L49
 701              	.LBE3:
 150:SYS/task_manager/task_manager.c ****     {
 702              		.loc 1 150 66 is_stmt 1 discriminator 2 view .LVU197
 150:SYS/task_manager/task_manager.c ****     {
 703              		.loc 1 150 77 is_stmt 0 discriminator 2 view .LVU198
 704 0046 0137     		adds	r7, r7, #1
 705              	.LVL39:
 150:SYS/task_manager/task_manager.c ****     {
 706              		.loc 1 150 77 discriminator 2 view .LVU199
 707 0048 FFB2     		uxtb	r7, r7
 708              	.LVL40:
 709              	.L48:
ARM GAS  /var/folders/lx/hc4sn_b53233_zkc9xbbl97r0000gp/T//ccdoBicG.s 			page 26


 150:SYS/task_manager/task_manager.c ****     {
 710              		.loc 1 150 41 is_stmt 1 discriminator 1 view .LVU200
 150:SYS/task_manager/task_manager.c ****     {
 711              		.loc 1 150 5 is_stmt 0 discriminator 1 view .LVU201
 712 004a 072F     		cmp	r7, #7
 713 004c 01D8     		bhi	.L53
 714              	.LBB4:
 152:SYS/task_manager/task_manager.c ****         {
 715              		.loc 1 152 22 view .LVU202
 716 004e 0024     		movs	r4, #0
 717 0050 F7E7     		b	.L50
 718              	.L53:
 719              	.LBE4:
 720              	.LBE2:
 167:SYS/task_manager/task_manager.c ****     TskCrt_RegList.list.data = NULL;
 721              		.loc 1 167 5 is_stmt 1 view .LVU203
 167:SYS/task_manager/task_manager.c ****     TskCrt_RegList.list.data = NULL;
 722              		.loc 1 167 24 is_stmt 0 view .LVU204
 723 0052 0B4B     		ldr	r3, .L54+16
 724 0054 0022     		movs	r2, #0
 725 0056 1A70     		strb	r2, [r3]
 168:SYS/task_manager/task_manager.c ****     TskCrt_RegList.list.nxt = NULL;
 726              		.loc 1 168 5 is_stmt 1 view .LVU205
 168:SYS/task_manager/task_manager.c ****     TskCrt_RegList.list.nxt = NULL;
 727              		.loc 1 168 30 is_stmt 0 view .LVU206
 728 0058 5A61     		str	r2, [r3, #20]
 169:SYS/task_manager/task_manager.c ****     TskCrt_RegList.list.prv = NULL;
 729              		.loc 1 169 5 is_stmt 1 view .LVU207
 169:SYS/task_manager/task_manager.c ****     TskCrt_RegList.list.prv = NULL;
 730              		.loc 1 169 29 is_stmt 0 view .LVU208
 731 005a 1A61     		str	r2, [r3, #16]
 170:SYS/task_manager/task_manager.c **** 
 732              		.loc 1 170 5 is_stmt 1 view .LVU209
 170:SYS/task_manager/task_manager.c **** 
 733              		.loc 1 170 29 is_stmt 0 view .LVU210
 734 005c DA60     		str	r2, [r3, #12]
 172:SYS/task_manager/task_manager.c ****     TskSys_state = TaskSys_Prepare;
 735              		.loc 1 172 5 is_stmt 1 view .LVU211
 736 005e 094B     		ldr	r3, .L54+20
 737 0060 1868     		ldr	r0, [r3]
 738 0062 FFF7FEFF 		bl	ReSet_Task_Data
 739              	.LVL41:
 173:SYS/task_manager/task_manager.c **** }
 740              		.loc 1 173 5 view .LVU212
 173:SYS/task_manager/task_manager.c **** }
 741              		.loc 1 173 18 is_stmt 0 view .LVU213
 742 0066 084B     		ldr	r3, .L54+24
 743 0068 0122     		movs	r2, #1
 744 006a 1A70     		strb	r2, [r3]
 174:SYS/task_manager/task_manager.c **** 
 745              		.loc 1 174 1 view .LVU214
 746 006c F8BD     		pop	{r3, r4, r5, r6, r7, pc}
 747              	.LVL42:
 748              	.L55:
 174:SYS/task_manager/task_manager.c **** 
 749              		.loc 1 174 1 view .LVU215
 750 006e 00BF     		.align	2
ARM GAS  /var/folders/lx/hc4sn_b53233_zkc9xbbl97r0000gp/T//ccdoBicG.s 			page 27


 751              	.L54:
 752 0070 00000000 		.word	Task_OS_StkMem
 753 0074 00000000 		.word	.LANCHOR3
 754 0078 FC9F0000 		.word	Task_OS_StkMem+40956
 755 007c 00000000 		.word	.LANCHOR4
 756 0080 00000000 		.word	.LANCHOR5
 757 0084 00000000 		.word	.LANCHOR6
 758 0088 00000000 		.word	.LANCHOR7
 759              		.cfi_endproc
 760              	.LFE128:
 762              		.section	.text.Task_SetStkPtr_Val,"ax",%progbits
 763              		.align	1
 764              		.syntax unified
 765              		.thumb
 766              		.thumb_func
 767              		.fpu fpv4-sp-d16
 769              	Task_SetStkPtr_Val:
 770              	.LVL43:
 771              	.LFB144:
 440:SYS/task_manager/task_manager.c ****     uint32_t *Tsk_Ptr_tmp = NULL;
 772              		.loc 1 440 1 is_stmt 1 view -0
 773              		.cfi_startproc
 774              		@ args = 0, pretend = 0, frame = 0
 775              		@ frame_needed = 0, uses_anonymous_args = 0
 440:SYS/task_manager/task_manager.c ****     uint32_t *Tsk_Ptr_tmp = NULL;
 776              		.loc 1 440 1 is_stmt 0 view .LVU217
 777 0000 10B5     		push	{r4, lr}
 778              	.LCFI11:
 779              		.cfi_def_cfa_offset 8
 780              		.cfi_offset 4, -8
 781              		.cfi_offset 14, -4
 782 0002 0446     		mov	r4, r0
 441:SYS/task_manager/task_manager.c **** 
 783              		.loc 1 441 5 is_stmt 1 view .LVU218
 784              	.LVL44:
 443:SYS/task_manager/task_manager.c **** 
 785              		.loc 1 443 5 view .LVU219
 786 0004 C26C     		ldr	r2, [r0, #76]
 787 0006 0021     		movs	r1, #0
 788 0008 406D     		ldr	r0, [r0, #84]
 789              	.LVL45:
 443:SYS/task_manager/task_manager.c **** 
 790              		.loc 1 443 5 is_stmt 0 view .LVU220
 791 000a FFF7FEFF 		bl	memset
 792              	.LVL46:
 445:SYS/task_manager/task_manager.c ****     Tsk_Ptr_tmp = (uint32_t *)((uint32_t)(Tsk_Ptr_tmp)&0XFFFFFFF8ul);
 793              		.loc 1 445 5 is_stmt 1 view .LVU221
 445:SYS/task_manager/task_manager.c ****     Tsk_Ptr_tmp = (uint32_t *)((uint32_t)(Tsk_Ptr_tmp)&0XFFFFFFF8ul);
 794              		.loc 1 445 19 is_stmt 0 view .LVU222
 795 000e 04F15403 		add	r3, r4, #84
 445:SYS/task_manager/task_manager.c ****     Tsk_Ptr_tmp = (uint32_t *)((uint32_t)(Tsk_Ptr_tmp)&0XFFFFFFF8ul);
 796              		.loc 1 445 41 view .LVU223
 797 0012 E26C     		ldr	r2, [r4, #76]
 445:SYS/task_manager/task_manager.c ****     Tsk_Ptr_tmp = (uint32_t *)((uint32_t)(Tsk_Ptr_tmp)&0XFFFFFFF8ul);
 798              		.loc 1 445 35 view .LVU224
 799 0014 02F18042 		add	r2, r2, #1073741824
 800 0018 013A     		subs	r2, r2, #1
ARM GAS  /var/folders/lx/hc4sn_b53233_zkc9xbbl97r0000gp/T//ccdoBicG.s 			page 28


 445:SYS/task_manager/task_manager.c ****     Tsk_Ptr_tmp = (uint32_t *)((uint32_t)(Tsk_Ptr_tmp)&0XFFFFFFF8ul);
 801              		.loc 1 445 17 view .LVU225
 802 001a 03EB8203 		add	r3, r3, r2, lsl #2
 803              	.LVL47:
 446:SYS/task_manager/task_manager.c **** 
 804              		.loc 1 446 5 is_stmt 1 view .LVU226
 446:SYS/task_manager/task_manager.c **** 
 805              		.loc 1 446 55 is_stmt 0 view .LVU227
 806 001e 23F00703 		bic	r3, r3, #7
 807              	.LVL48:
 448:SYS/task_manager/task_manager.c ****     *Tsk_Ptr_tmp = 0x01000000uL; /* xPSR */
 808              		.loc 1 448 5 is_stmt 1 view .LVU228
 449:SYS/task_manager/task_manager.c **** 
 809              		.loc 1 449 5 view .LVU229
 449:SYS/task_manager/task_manager.c **** 
 810              		.loc 1 449 18 is_stmt 0 view .LVU230
 811 0022 4FF08072 		mov	r2, #16777216
 812 0026 43F8042C 		str	r2, [r3, #-4]
 451:SYS/task_manager/task_manager.c ****     *Tsk_Ptr_tmp = ((uint32_t)Task_Caller) & 0xfffffffeUL; /* PC */
 813              		.loc 1 451 5 is_stmt 1 view .LVU231
 814              	.LVL49:
 452:SYS/task_manager/task_manager.c **** 
 815              		.loc 1 452 5 view .LVU232
 452:SYS/task_manager/task_manager.c **** 
 816              		.loc 1 452 21 is_stmt 0 view .LVU233
 817 002a 094A     		ldr	r2, .L58
 452:SYS/task_manager/task_manager.c **** 
 818              		.loc 1 452 44 view .LVU234
 819 002c 22F00102 		bic	r2, r2, #1
 452:SYS/task_manager/task_manager.c **** 
 820              		.loc 1 452 18 view .LVU235
 821 0030 43F8082C 		str	r2, [r3, #-8]
 454:SYS/task_manager/task_manager.c ****     *Tsk_Ptr_tmp = (uint32_t)Task_Exit; /* LR */
 822              		.loc 1 454 5 is_stmt 1 view .LVU236
 823              	.LVL50:
 455:SYS/task_manager/task_manager.c **** 
 824              		.loc 1 455 5 view .LVU237
 455:SYS/task_manager/task_manager.c **** 
 825              		.loc 1 455 20 is_stmt 0 view .LVU238
 826 0034 074A     		ldr	r2, .L58+4
 455:SYS/task_manager/task_manager.c **** 
 827              		.loc 1 455 18 view .LVU239
 828 0036 43F80C2C 		str	r2, [r3, #-12]
 458:SYS/task_manager/task_manager.c ****     *Tsk_Ptr_tmp = (uint32_t)NULL; /* R0 */
 829              		.loc 1 458 5 is_stmt 1 view .LVU240
 830              	.LVL51:
 459:SYS/task_manager/task_manager.c **** 
 831              		.loc 1 459 5 view .LVU241
 459:SYS/task_manager/task_manager.c **** 
 832              		.loc 1 459 18 is_stmt 0 view .LVU242
 833 003a 0022     		movs	r2, #0
 834 003c 43F8202C 		str	r2, [r3, #-32]
 463:SYS/task_manager/task_manager.c ****     *Tsk_Ptr_tmp = 0xfffffffd;
 835              		.loc 1 463 5 is_stmt 1 view .LVU243
 836              	.LVL52:
 464:SYS/task_manager/task_manager.c **** 
 837              		.loc 1 464 5 view .LVU244
ARM GAS  /var/folders/lx/hc4sn_b53233_zkc9xbbl97r0000gp/T//ccdoBicG.s 			page 29


 464:SYS/task_manager/task_manager.c **** 
 838              		.loc 1 464 18 is_stmt 0 view .LVU245
 839 0040 6FF00202 		mvn	r2, #2
 840 0044 43F8242C 		str	r2, [r3, #-36]
 466:SYS/task_manager/task_manager.c **** 
 841              		.loc 1 466 5 is_stmt 1 view .LVU246
 466:SYS/task_manager/task_manager.c **** 
 842              		.loc 1 466 17 is_stmt 0 view .LVU247
 843 0048 443B     		subs	r3, r3, #68
 844              	.LVL53:
 469:SYS/task_manager/task_manager.c **** }
 845              		.loc 1 469 5 is_stmt 1 view .LVU248
 469:SYS/task_manager/task_manager.c **** }
 846              		.loc 1 469 26 is_stmt 0 view .LVU249
 847 004a 2365     		str	r3, [r4, #80]
 470:SYS/task_manager/task_manager.c **** 
 848              		.loc 1 470 1 view .LVU250
 849 004c 10BD     		pop	{r4, pc}
 850              	.LVL54:
 851              	.L59:
 470:SYS/task_manager/task_manager.c **** 
 852              		.loc 1 470 1 view .LVU251
 853 004e 00BF     		.align	2
 854              	.L58:
 855 0050 00000000 		.word	Task_Caller
 856 0054 00000000 		.word	Task_Exit
 857              		.cfi_endproc
 858              	.LFE144:
 860              		.global	__aeabi_ul2f
 861              		.section	.text.Task_Idle,"ax",%progbits
 862              		.align	1
 863              		.syntax unified
 864              		.thumb
 865              		.thumb_func
 866              		.fpu fpv4-sp-d16
 868              	Task_Idle:
 869              	.LFB130:
 185:SYS/task_manager/task_manager.c ****     SYSTEM_RunTime cur_time;
 870              		.loc 1 185 1 is_stmt 1 view -0
 871              		.cfi_startproc
 872              		@ args = 0, pretend = 0, frame = 16
 873              		@ frame_needed = 0, uses_anonymous_args = 0
 874 0000 10B5     		push	{r4, lr}
 875              	.LCFI12:
 876              		.cfi_def_cfa_offset 8
 877              		.cfi_offset 4, -8
 878              		.cfi_offset 14, -4
 879 0002 84B0     		sub	sp, sp, #16
 880              	.LCFI13:
 881              		.cfi_def_cfa_offset 24
 186:SYS/task_manager/task_manager.c ****     SYSTEM_RunTime time_diff;
 882              		.loc 1 186 5 view .LVU253
 187:SYS/task_manager/task_manager.c **** 
 883              		.loc 1 187 5 view .LVU254
 189:SYS/task_manager/task_manager.c ****     RuntimeObj_Reset(&cur_time);
 884              		.loc 1 189 5 view .LVU255
 885 0004 6846     		mov	r0, sp
ARM GAS  /var/folders/lx/hc4sn_b53233_zkc9xbbl97r0000gp/T//ccdoBicG.s 			page 30


 886 0006 FFF7FEFF 		bl	RuntimeObj_Reset
 887              	.LVL55:
 190:SYS/task_manager/task_manager.c **** 
 888              		.loc 1 190 5 view .LVU256
 889 000a 02A8     		add	r0, sp, #8
 890 000c FFF7FEFF 		bl	RuntimeObj_Reset
 891              	.LVL56:
 192:SYS/task_manager/task_manager.c ****     time_diff = Get_TimeDifference_Between(TaskSys_StartTime, cur_time);
 892              		.loc 1 192 5 view .LVU257
 192:SYS/task_manager/task_manager.c ****     time_diff = Get_TimeDifference_Between(TaskSys_StartTime, cur_time);
 893              		.loc 1 192 16 is_stmt 0 view .LVU258
 894 0010 FFF7FEFF 		bl	Get_CurrentRunningUs
 895              	.LVL57:
 896 0014 0246     		mov	r2, r0
 897 0016 0B46     		mov	r3, r1
 192:SYS/task_manager/task_manager.c ****     time_diff = Get_TimeDifference_Between(TaskSys_StartTime, cur_time);
 898              		.loc 1 192 14 view .LVU259
 899 0018 0290     		str	r0, [sp, #8]
 900 001a 0391     		str	r1, [sp, #12]
 193:SYS/task_manager/task_manager.c **** 
 901              		.loc 1 193 5 is_stmt 1 view .LVU260
 193:SYS/task_manager/task_manager.c **** 
 902              		.loc 1 193 17 is_stmt 0 view .LVU261
 903 001c 0D49     		ldr	r1, .L62
 904 001e D1E90001 		ldrd	r0, [r1]
 905 0022 FFF7FEFF 		bl	Get_TimeDifference_Between
 906              	.LVL58:
 907 0026 0246     		mov	r2, r0
 908 0028 0B46     		mov	r3, r1
 193:SYS/task_manager/task_manager.c **** 
 909              		.loc 1 193 15 view .LVU262
 910 002a CDE90023 		strd	r2, [sp]
 195:SYS/task_manager/task_manager.c ****     TaskSys_Idle_Ocupy = (TaskSys_Idle_US / (float)time_diff);
 911              		.loc 1 195 5 is_stmt 1 view .LVU263
 195:SYS/task_manager/task_manager.c ****     TaskSys_Idle_Ocupy = (TaskSys_Idle_US / (float)time_diff);
 912              		.loc 1 195 20 is_stmt 0 view .LVU264
 913 002e 0A4B     		ldr	r3, .L62+4
 914 0030 1C68     		ldr	r4, [r3]
 915 0032 0134     		adds	r4, r4, #1
 916 0034 1C60     		str	r4, [r3]
 196:SYS/task_manager/task_manager.c **** }
 917              		.loc 1 196 5 is_stmt 1 view .LVU265
 196:SYS/task_manager/task_manager.c **** }
 918              		.loc 1 196 45 is_stmt 0 view .LVU266
 919 0036 FFF7FEFF 		bl	__aeabi_ul2f
 920              	.LVL59:
 921 003a 06EE900A 		vmov	s13, r0
 196:SYS/task_manager/task_manager.c **** }
 922              		.loc 1 196 43 view .LVU267
 923 003e 07EE904A 		vmov	s15, r4	@ int
 924 0042 F8EE677A 		vcvt.f32.u32	s15, s15
 925 0046 87EEA67A 		vdiv.f32	s14, s15, s13
 196:SYS/task_manager/task_manager.c **** }
 926              		.loc 1 196 24 view .LVU268
 927 004a 044B     		ldr	r3, .L62+8
 928 004c 83ED007A 		vstr.32	s14, [r3]
 197:SYS/task_manager/task_manager.c **** 
ARM GAS  /var/folders/lx/hc4sn_b53233_zkc9xbbl97r0000gp/T//ccdoBicG.s 			page 31


 929              		.loc 1 197 1 view .LVU269
 930 0050 04B0     		add	sp, sp, #16
 931              	.LCFI14:
 932              		.cfi_def_cfa_offset 8
 933              		@ sp needed
 934 0052 10BD     		pop	{r4, pc}
 935              	.L63:
 936              		.align	2
 937              	.L62:
 938 0054 00000000 		.word	.LANCHOR8
 939 0058 00000000 		.word	.LANCHOR9
 940 005c 00000000 		.word	.LANCHOR10
 941              		.cfi_endproc
 942              	.LFE130:
 944              		.section	.text.Task_Exec,"ax",%progbits
 945              		.align	1
 946              		.syntax unified
 947              		.thumb
 948              		.thumb_func
 949              		.fpu fpv4-sp-d16
 951              	Task_Exec:
 952              	.LVL60:
 953              	.LFB165:
 656:SYS/task_manager/task_manager.c **** 
 657:SYS/task_manager/task_manager.c **** Task_Handler Task_Create(const char *name, uint32_t frq, Priority_Group group, TASK_Priority priori
 658:SYS/task_manager/task_manager.c **** {
 659:SYS/task_manager/task_manager.c ****     Task_Handler handle;
 660:SYS/task_manager/task_manager.c ****     uint16_t task_name_len = strlen(name);
 661:SYS/task_manager/task_manager.c ****     uint32_t *Tsk_Ptr_tmp = NULL;
 662:SYS/task_manager/task_manager.c ****     static bool taskOs_InitState = false;
 663:SYS/task_manager/task_manager.c **** 
 664:SYS/task_manager/task_manager.c ****     if (!taskOs_InitState)
 665:SYS/task_manager/task_manager.c ****     {
 666:SYS/task_manager/task_manager.c ****         TaskSys_Init();
 667:SYS/task_manager/task_manager.c ****         taskOs_InitState = true;
 668:SYS/task_manager/task_manager.c ****     }
 669:SYS/task_manager/task_manager.c **** 
 670:SYS/task_manager/task_manager.c ****     //already have task in current group and priority in task pointer matrix
 671:SYS/task_manager/task_manager.c ****     if (Task_Ptr[group][priority] != NULL)
 672:SYS/task_manager/task_manager.c ****     {
 673:SYS/task_manager/task_manager.c ****         return TASK_REGISTED;
 674:SYS/task_manager/task_manager.c ****     }
 675:SYS/task_manager/task_manager.c **** 
 676:SYS/task_manager/task_manager.c ****     //request a memory space for Task_Ptr contain
 677:SYS/task_manager/task_manager.c ****     Task_Ptr[group][priority] = (Task *)malloc(sizeof(Task));
 678:SYS/task_manager/task_manager.c **** 
 679:SYS/task_manager/task_manager.c ****     //record Task_Ptr poiner`s address
 680:SYS/task_manager/task_manager.c ****     handle = *&Task_Ptr[group][priority];
 681:SYS/task_manager/task_manager.c **** 
 682:SYS/task_manager/task_manager.c ****     Task_Ptr[group][priority]->Task_name = name;
 683:SYS/task_manager/task_manager.c **** 
 684:SYS/task_manager/task_manager.c ****     Task_Ptr[group][priority]->exec_frq = frq;
 685:SYS/task_manager/task_manager.c ****     Task_Ptr[group][priority]->exec_interval_us = RUNTIEM_MAX_TICK_FRQ / frq;
 686:SYS/task_manager/task_manager.c ****     Task_Ptr[group][priority]->Exec_Func = func;
 687:SYS/task_manager/task_manager.c **** 
 688:SYS/task_manager/task_manager.c ****     Task_Ptr[group][priority]->priority.Priority = (group << 3) | priority;
 689:SYS/task_manager/task_manager.c **** 
ARM GAS  /var/folders/lx/hc4sn_b53233_zkc9xbbl97r0000gp/T//ccdoBicG.s 			page 32


 690:SYS/task_manager/task_manager.c **** #if (TASK_SCHEDULER_TYPE == PREEMPTIVE_SCHDULER)
 691:SYS/task_manager/task_manager.c ****     //init delay tag
 692:SYS/task_manager/task_manager.c ****     Task_Ptr[group][priority]->delay_info.on_delay = false;
 693:SYS/task_manager/task_manager.c ****     Task_Ptr[group][priority]->delay_info.tsk_hdl = handle;
 694:SYS/task_manager/task_manager.c ****     Task_Ptr[group][priority]->delay_info.time_unit = 0;
 695:SYS/task_manager/task_manager.c **** 
 696:SYS/task_manager/task_manager.c ****     //request memory space for task stack
 697:SYS/task_manager/task_manager.c ****     Task_Ptr[group][priority]->Stack_Depth = StackDepth;
 698:SYS/task_manager/task_manager.c ****     Task_Ptr[group][priority]->TCB.Stack = (uint32_t *)malloc(StackDepth * sizeof(uint32_t));
 699:SYS/task_manager/task_manager.c **** 
 700:SYS/task_manager/task_manager.c ****     if (Task_Ptr[group][priority]->TCB.Stack != NULL)
 701:SYS/task_manager/task_manager.c ****     {
 702:SYS/task_manager/task_manager.c ****         Task_SetStkPtr_Val(Task_Ptr[group][priority]);
 703:SYS/task_manager/task_manager.c ****     }
 704:SYS/task_manager/task_manager.c ****     else
 705:SYS/task_manager/task_manager.c ****     {
 706:SYS/task_manager/task_manager.c ****         return TASK_BAD_MEMSPC_REQ;
 707:SYS/task_manager/task_manager.c ****     }
 708:SYS/task_manager/task_manager.c **** #endif
 709:SYS/task_manager/task_manager.c ****     //reset task running statistics reg
 710:SYS/task_manager/task_manager.c ****     Task_Ptr[group][priority]->statistics_reg.Reg.Caller_Statistics_REG = stop_statistics;
 711:SYS/task_manager/task_manager.c ****     Task_Ptr[group][priority]->statistics_reg.Reg.TskFun_Statistics_REG = stop_statistics;
 712:SYS/task_manager/task_manager.c **** 
 713:SYS/task_manager/task_manager.c ****     //reset single loop running us
 714:SYS/task_manager/task_manager.c ****     Task_Ptr[group][priority]->TskFuncUing_US = 0;
 715:SYS/task_manager/task_manager.c ****     Task_Ptr[group][priority]->CallerUsing_US = 0;
 716:SYS/task_manager/task_manager.c **** 
 717:SYS/task_manager/task_manager.c ****     //reset task cpu occupy data
 718:SYS/task_manager/task_manager.c ****     Task_Ptr[group][priority]->Exec_status.cpu_opy = 0;
 719:SYS/task_manager/task_manager.c ****     Task_Ptr[group][priority]->Exec_status.totlal_running_time = 0;
 720:SYS/task_manager/task_manager.c **** 
 721:SYS/task_manager/task_manager.c ****     //set current group flag to ready
 722:SYS/task_manager/task_manager.c ****     TskHdl_RdyMap.Grp.Flg |= 1 << GET_TASKGROUP_PRIORITY(Task_Ptr[group][priority]->priority.Priori
 723:SYS/task_manager/task_manager.c ****     //set current task under this group flag to ready
 724:SYS/task_manager/task_manager.c ****     TskHdl_RdyMap.TskInGrp[GET_TASKGROUP_PRIORITY(Task_Ptr[group][priority]->priority.Priority)].Fl
 725:SYS/task_manager/task_manager.c **** 
 726:SYS/task_manager/task_manager.c ****     Task_Ptr[group][priority]->Exec_status.detect_exec_frq = 0;
 727:SYS/task_manager/task_manager.c ****     Task_Ptr[group][priority]->Exec_status.detect_exec_time_arv = 0;
 728:SYS/task_manager/task_manager.c ****     Task_Ptr[group][priority]->Exec_status.detect_exec_time_max = 0;
 729:SYS/task_manager/task_manager.c **** 
 730:SYS/task_manager/task_manager.c ****     RuntimeObj_Reset(&(Task_Ptr[group][priority]->Exec_status.Exec_Time));
 731:SYS/task_manager/task_manager.c ****     RuntimeObj_Reset(&(Task_Ptr[group][priority]->Exec_status.Init_Time));
 732:SYS/task_manager/task_manager.c ****     RuntimeObj_Reset(&(Task_Ptr[group][priority]->Exec_status.Start_Time));
 733:SYS/task_manager/task_manager.c **** 
 734:SYS/task_manager/task_manager.c ****     Task_Ptr[group][priority]->Exec_status.Init_Time = Get_CurrentRunningUs();
 735:SYS/task_manager/task_manager.c **** 
 736:SYS/task_manager/task_manager.c ****     Task_Ptr[group][priority]->Exec_status.Exec_Times = 0;
 737:SYS/task_manager/task_manager.c ****     Task_Ptr[group][priority]->Exec_status.error_code = NOERROR;
 738:SYS/task_manager/task_manager.c **** 
 739:SYS/task_manager/task_manager.c ****     Task_SetReady(Task_Ptr[group][priority]);
 740:SYS/task_manager/task_manager.c **** 
 741:SYS/task_manager/task_manager.c ****     Task_Ptr[group][priority]->item_ptr = (item_obj *)malloc(sizeof(item_obj));
 742:SYS/task_manager/task_manager.c ****     if (Task_Ptr[group][priority]->item_ptr == NULL)
 743:SYS/task_manager/task_manager.c ****     {
 744:SYS/task_manager/task_manager.c ****         return TASK_BAD_MEMSPC_REQ;
 745:SYS/task_manager/task_manager.c ****     }
 746:SYS/task_manager/task_manager.c **** 
ARM GAS  /var/folders/lx/hc4sn_b53233_zkc9xbbl97r0000gp/T//ccdoBicG.s 			page 33


 747:SYS/task_manager/task_manager.c ****     List_ItemInit(Task_Ptr[group][priority]->item_ptr, Task_Ptr[group][priority]);
 748:SYS/task_manager/task_manager.c ****     if (TskCrt_RegList.num == 0)
 749:SYS/task_manager/task_manager.c ****     {
 750:SYS/task_manager/task_manager.c ****         List_Init(&TskCrt_RegList.list, Task_Ptr[group][priority]->item_ptr, by_condition, Task_Pri
 751:SYS/task_manager/task_manager.c ****     }
 752:SYS/task_manager/task_manager.c ****     else
 753:SYS/task_manager/task_manager.c ****     {
 754:SYS/task_manager/task_manager.c ****         List_Insert_Item(&TskCrt_RegList.list, Task_Ptr[group][priority]->item_ptr);
 755:SYS/task_manager/task_manager.c ****     }
 756:SYS/task_manager/task_manager.c **** 
 757:SYS/task_manager/task_manager.c ****     List_ItemInit(&Task_Ptr[group][priority]->delay_item, &Task_Ptr[group][priority]->delay_info);
 758:SYS/task_manager/task_manager.c **** 
 759:SYS/task_manager/task_manager.c ****     TskCrt_RegList.num++;
 760:SYS/task_manager/task_manager.c **** 
 761:SYS/task_manager/task_manager.c ****     return handle;
 762:SYS/task_manager/task_manager.c **** }
 763:SYS/task_manager/task_manager.c **** 
 764:SYS/task_manager/task_manager.c **** static void Task_Set_CountRunnigTime_State(Task *tsk_ptr, uint8_t enable_state)
 765:SYS/task_manager/task_manager.c **** {
 766:SYS/task_manager/task_manager.c ****     if (enable_state)
 767:SYS/task_manager/task_manager.c ****     {
 768:SYS/task_manager/task_manager.c ****         tsk_ptr->statistics_reg.Reg.Caller_Statistics_REG = start_statistics;
 769:SYS/task_manager/task_manager.c ****     }
 770:SYS/task_manager/task_manager.c ****     else
 771:SYS/task_manager/task_manager.c ****     {
 772:SYS/task_manager/task_manager.c ****         tsk_ptr->statistics_reg.Reg.Caller_Statistics_REG = stop_statistics;
 773:SYS/task_manager/task_manager.c ****         tsk_ptr->statistics_reg.Reg.TskFun_Statistics_REG = stop_statistics;
 774:SYS/task_manager/task_manager.c ****     }
 775:SYS/task_manager/task_manager.c **** 
 776:SYS/task_manager/task_manager.c ****     periph_Timer_Counter_SetEnable(Timer_4, enable_state);
 777:SYS/task_manager/task_manager.c **** }
 778:SYS/task_manager/task_manager.c **** 
 779:SYS/task_manager/task_manager.c **** static void Task_StartCountTargetFunc_Cast(Task *tsk_ptr)
 780:SYS/task_manager/task_manager.c **** {
 781:SYS/task_manager/task_manager.c ****     tsk_ptr->statistics_reg.Reg.TskFun_Statistics_REG = start_statistics;
 782:SYS/task_manager/task_manager.c **** }
 783:SYS/task_manager/task_manager.c **** 
 784:SYS/task_manager/task_manager.c **** static void Task_StopCountTargetFunc_Cast(Task *tsk_ptr)
 785:SYS/task_manager/task_manager.c **** {
 786:SYS/task_manager/task_manager.c ****     tsk_ptr->statistics_reg.Reg.TskFun_Statistics_REG = stop_statistics;
 787:SYS/task_manager/task_manager.c **** }
 788:SYS/task_manager/task_manager.c **** 
 789:SYS/task_manager/task_manager.c **** //Remove func untest
 790:SYS/task_manager/task_manager.c **** void Task_Remove(Task_Handler Tsk_Hdl)
 791:SYS/task_manager/task_manager.c **** {
 792:SYS/task_manager/task_manager.c ****     //convert Tsk_Hdl from uint32_t var to Task Address which we need to delete
 793:SYS/task_manager/task_manager.c ****     //free that memory space
 794:SYS/task_manager/task_manager.c ****     //erase all data in specificly memory space
 795:SYS/task_manager/task_manager.c ****     //set Task pointer to Null which we wanted to be delete
 796:SYS/task_manager/task_manager.c **** 
 797:SYS/task_manager/task_manager.c ****     uint8_t remove_group = GET_TASKGROUP_PRIORITY(((Task *)Tsk_Hdl)->priority.Priority);
 798:SYS/task_manager/task_manager.c ****     uint8_t remove_task = GET_TASKINGROUP_PRIORITY(((Task *)Tsk_Hdl)->priority.Priority);
 799:SYS/task_manager/task_manager.c **** 
 800:SYS/task_manager/task_manager.c ****     ReSet_Task_Data((Task *)Tsk_Hdl);
 801:SYS/task_manager/task_manager.c **** 
 802:SYS/task_manager/task_manager.c **** #if (TASK_SCHEDULER_TYPE == PREEMPTIVE_SCHDULER)
 803:SYS/task_manager/task_manager.c ****     free((uint32_t *)((Task *)Tsk_Hdl)->TCB.Stack);
ARM GAS  /var/folders/lx/hc4sn_b53233_zkc9xbbl97r0000gp/T//ccdoBicG.s 			page 34


 804:SYS/task_manager/task_manager.c ****     free((uint32_t *)((Task *)Tsk_Hdl)->TCB.Top_Stk_Ptr);
 805:SYS/task_manager/task_manager.c **** #endif
 806:SYS/task_manager/task_manager.c **** 
 807:SYS/task_manager/task_manager.c ****     free((Task *)Tsk_Hdl);
 808:SYS/task_manager/task_manager.c ****     Task_Ptr[remove_group][remove_task] = NULL;
 809:SYS/task_manager/task_manager.c **** }
 810:SYS/task_manager/task_manager.c **** 
 811:SYS/task_manager/task_manager.c **** void TaskSystem_Start(void)
 812:SYS/task_manager/task_manager.c **** {
 813:SYS/task_manager/task_manager.c ****     Runtime_Config(RUNTIME_TICK_FRQ_40K);
 814:SYS/task_manager/task_manager.c ****     Runtime_Set_start_Callback(NULL);
 815:SYS/task_manager/task_manager.c ****     Runtime_Set_stop_Callback(NULL);
 816:SYS/task_manager/task_manager.c ****     Runtime_Set_tick_Callback(Task_Scheduler); /* 5us cast by calling the scheduler */
 817:SYS/task_manager/task_manager.c ****     Runtime_Start();
 818:SYS/task_manager/task_manager.c **** 
 819:SYS/task_manager/task_manager.c ****     RuntimeObj_Reset(&TaskSys_StartTime);
 820:SYS/task_manager/task_manager.c **** 
 821:SYS/task_manager/task_manager.c ****     TaskSys_StartTime = Get_CurrentRunningUs();
 822:SYS/task_manager/task_manager.c **** 
 823:SYS/task_manager/task_manager.c **** #if (TASK_SCHEDULER_TYPE == PREEMPTIVE_SCHDULER)
 824:SYS/task_manager/task_manager.c ****     NxtRunTsk_Ptr = Task_Get_HighestRank_RdyTask();
 825:SYS/task_manager/task_manager.c **** 
 826:SYS/task_manager/task_manager.c ****     if (NxtRunTsk_Ptr != NULL)
 827:SYS/task_manager/task_manager.c ****     {
 828:SYS/task_manager/task_manager.c ****         NxtTsk_TCB.Top_Stk_Ptr = &NxtRunTsk_Ptr->TCB.Top_Stk_Ptr;
 829:SYS/task_manager/task_manager.c ****         NxtTsk_TCB.Stack = NxtRunTsk_Ptr->TCB.Stack;
 830:SYS/task_manager/task_manager.c **** 
 831:SYS/task_manager/task_manager.c ****         CurTsk_TCB = NxtTsk_TCB;
 832:SYS/task_manager/task_manager.c ****     }
 833:SYS/task_manager/task_manager.c **** #endif
 834:SYS/task_manager/task_manager.c **** 
 835:SYS/task_manager/task_manager.c ****     Task_SetPendSVPro();
 836:SYS/task_manager/task_manager.c ****     Task_TriggerPendSV();
 837:SYS/task_manager/task_manager.c **** 
 838:SYS/task_manager/task_manager.c ****     return true;
 839:SYS/task_manager/task_manager.c **** }
 840:SYS/task_manager/task_manager.c **** 
 841:SYS/task_manager/task_manager.c **** void Task_SetRunState(Task_Handler Tsk_Handle, TASK_STATE state)
 842:SYS/task_manager/task_manager.c **** {
 843:SYS/task_manager/task_manager.c ****     ((Task *)Tsk_Handle)->Exec_status.State = state;
 844:SYS/task_manager/task_manager.c **** }
 845:SYS/task_manager/task_manager.c **** 
 846:SYS/task_manager/task_manager.c **** void Task_CountRunningTime(void)
 847:SYS/task_manager/task_manager.c **** {
 848:SYS/task_manager/task_manager.c ****     if (CurRunTsk_Ptr != NULL)
 849:SYS/task_manager/task_manager.c ****     {
 850:SYS/task_manager/task_manager.c ****         RunTime_Tick();
 851:SYS/task_manager/task_manager.c **** 
 852:SYS/task_manager/task_manager.c ****         if (CurRunTsk_Ptr->statistics_reg.Reg.TskFun_Statistics_REG == start_statistics)
 853:SYS/task_manager/task_manager.c ****         {
 854:SYS/task_manager/task_manager.c ****             CurRunTsk_Ptr->TskFuncUing_US++;
 855:SYS/task_manager/task_manager.c ****         }
 856:SYS/task_manager/task_manager.c **** 
 857:SYS/task_manager/task_manager.c ****         if (CurRunTsk_Ptr->statistics_reg.Reg.TskFun_Statistics_REG == start_statistics)
 858:SYS/task_manager/task_manager.c ****         {
 859:SYS/task_manager/task_manager.c ****             CurRunTsk_Ptr->CallerUsing_US++;
 860:SYS/task_manager/task_manager.c ****         }
ARM GAS  /var/folders/lx/hc4sn_b53233_zkc9xbbl97r0000gp/T//ccdoBicG.s 			page 35


 861:SYS/task_manager/task_manager.c ****     }
 862:SYS/task_manager/task_manager.c **** }
 863:SYS/task_manager/task_manager.c **** 
 864:SYS/task_manager/task_manager.c **** static Task *Get_TaskInstance(uint8_t group, uint8_t priority)
 865:SYS/task_manager/task_manager.c **** {
 866:SYS/task_manager/task_manager.c ****     return Task_Ptr[group][priority];
 867:SYS/task_manager/task_manager.c **** }
 868:SYS/task_manager/task_manager.c **** 
 869:SYS/task_manager/task_manager.c **** static void Task_Exec(Task *tsk_ptr)
 870:SYS/task_manager/task_manager.c **** {
 954              		.loc 1 870 1 is_stmt 1 view -0
 955              		.cfi_startproc
 956              		@ Volatile: function does not return.
 957              		@ args = 0, pretend = 0, frame = 8
 958              		@ frame_needed = 0, uses_anonymous_args = 0
 959              		.loc 1 870 1 is_stmt 0 view .LVU271
 960 0000 00B5     		push	{lr}
 961              	.LCFI15:
 962              		.cfi_def_cfa_offset 4
 963              		.cfi_offset 14, -4
 964 0002 83B0     		sub	sp, sp, #12
 965              	.LCFI16:
 966              		.cfi_def_cfa_offset 16
 967 0004 0446     		mov	r4, r0
 871:SYS/task_manager/task_manager.c ****     SYSTEM_RunTime time_diff;
 968              		.loc 1 871 5 is_stmt 1 view .LVU272
 872:SYS/task_manager/task_manager.c ****     RuntimeObj_Reset(&time_diff);
 969              		.loc 1 872 5 view .LVU273
 970 0006 6846     		mov	r0, sp
 971              	.LVL61:
 972              		.loc 1 872 5 is_stmt 0 view .LVU274
 973 0008 FFF7FEFF 		bl	RuntimeObj_Reset
 974              	.LVL62:
 975 000c 40E0     		b	.L70
 976              	.L72:
 873:SYS/task_manager/task_manager.c **** 
 874:SYS/task_manager/task_manager.c ****     while (true)
 875:SYS/task_manager/task_manager.c ****     {
 876:SYS/task_manager/task_manager.c ****         if (tsk_ptr->Exec_status.State == Task_Ready)
 877:SYS/task_manager/task_manager.c ****         {
 878:SYS/task_manager/task_manager.c ****             //Task_Set_CountRunnigTime_State(tsk_ptr, ENABLE);
 879:SYS/task_manager/task_manager.c **** 
 880:SYS/task_manager/task_manager.c ****             //set current running task
 881:SYS/task_manager/task_manager.c ****             CurRunTsk_Ptr = tsk_ptr;
 882:SYS/task_manager/task_manager.c **** 
 883:SYS/task_manager/task_manager.c ****             if (tsk_ptr->Exec_status.Exec_Times == 0)
 884:SYS/task_manager/task_manager.c ****             {
 885:SYS/task_manager/task_manager.c ****                 tsk_ptr->Exec_status.Start_Time = Get_CurrentRunningUs();
 977              		.loc 1 885 17 is_stmt 1 view .LVU275
 978              		.loc 1 885 51 is_stmt 0 view .LVU276
 979 000e FFF7FEFF 		bl	Get_CurrentRunningUs
 980              	.LVL63:
 981              		.loc 1 885 49 view .LVU277
 982 0012 E061     		str	r0, [r4, #28]
 983 0014 2162     		str	r1, [r4, #32]
 886:SYS/task_manager/task_manager.c ****                 tsk_ptr->Exec_status.Exec_Time = tsk_ptr->Exec_status.Start_Time;
 984              		.loc 1 886 17 is_stmt 1 view .LVU278
ARM GAS  /var/folders/lx/hc4sn_b53233_zkc9xbbl97r0000gp/T//ccdoBicG.s 			page 36


 985              		.loc 1 886 48 is_stmt 0 view .LVU279
 986 0016 6062     		str	r0, [r4, #36]
 987 0018 A162     		str	r1, [r4, #40]
 988 001a 42E0     		b	.L66
 989              	.L73:
 887:SYS/task_manager/task_manager.c ****             }
 888:SYS/task_manager/task_manager.c **** 
 889:SYS/task_manager/task_manager.c ****             tsk_ptr->Exec_status.State = Task_Running;
 890:SYS/task_manager/task_manager.c ****             //Task_StartCountTargetFunc_Cast(tsk_ptr);
 891:SYS/task_manager/task_manager.c **** 
 892:SYS/task_manager/task_manager.c ****             //execute task funtion
 893:SYS/task_manager/task_manager.c ****             tsk_ptr->Exec_Func(*&tsk_ptr);
 894:SYS/task_manager/task_manager.c **** 
 895:SYS/task_manager/task_manager.c ****             //get current task execut time
 896:SYS/task_manager/task_manager.c ****             //Task_StopCountTargetFunc_Cast(tsk_ptr);
 897:SYS/task_manager/task_manager.c **** 
 898:SYS/task_manager/task_manager.c ****             if (tsk_ptr->Exec_status.State == Task_Running)
 899:SYS/task_manager/task_manager.c ****             {
 900:SYS/task_manager/task_manager.c ****                 //when task function execute finish reset ready flag of current task in group
 901:SYS/task_manager/task_manager.c ****                 //code down below
 902:SYS/task_manager/task_manager.c ****                 Task_ClearReady(tsk_ptr);
 990              		.loc 1 902 17 is_stmt 1 view .LVU280
 991 001c 2046     		mov	r0, r4
 992 001e FFF7FEFF 		bl	Task_ClearReady
 993              	.LVL64:
 903:SYS/task_manager/task_manager.c **** 
 904:SYS/task_manager/task_manager.c ****                 tsk_ptr->Exec_status.State = Task_Stop;
 994              		.loc 1 904 17 view .LVU281
 995              		.loc 1 904 44 is_stmt 0 view .LVU282
 996 0022 0223     		movs	r3, #2
 997 0024 84F84830 		strb	r3, [r4, #72]
 905:SYS/task_manager/task_manager.c **** 
 906:SYS/task_manager/task_manager.c ****                 //record task running times
 907:SYS/task_manager/task_manager.c ****                 tsk_ptr->Exec_status.Exec_Times++;
 998              		.loc 1 907 17 is_stmt 1 view .LVU283
 999              		.loc 1 907 37 is_stmt 0 view .LVU284
 1000 0028 A36B     		ldr	r3, [r4, #56]
 1001              		.loc 1 907 48 view .LVU285
 1002 002a 0133     		adds	r3, r3, #1
 1003 002c A363     		str	r3, [r4, #56]
 908:SYS/task_manager/task_manager.c **** 
 909:SYS/task_manager/task_manager.c ****                 //get max task execut time
 910:SYS/task_manager/task_manager.c ****                 if (tsk_ptr->TskFuncUing_US > tsk_ptr->Exec_status.detect_exec_time_max)
 1004              		.loc 1 910 17 is_stmt 1 view .LVU286
 1005              		.loc 1 910 28 is_stmt 0 view .LVU287
 1006 002e E26D     		ldr	r2, [r4, #92]
 1007              		.loc 1 910 67 view .LVU288
 1008 0030 636B     		ldr	r3, [r4, #52]
 1009              		.loc 1 910 20 view .LVU289
 1010 0032 9A42     		cmp	r2, r3
 1011 0034 00D9     		bls	.L68
 911:SYS/task_manager/task_manager.c ****                 {
 912:SYS/task_manager/task_manager.c ****                     tsk_ptr->Exec_status.detect_exec_time_max = tsk_ptr->TskFuncUing_US;
 1012              		.loc 1 912 21 is_stmt 1 view .LVU290
 1013              		.loc 1 912 63 is_stmt 0 view .LVU291
 1014 0036 6263     		str	r2, [r4, #52]
 1015              	.L68:
ARM GAS  /var/folders/lx/hc4sn_b53233_zkc9xbbl97r0000gp/T//ccdoBicG.s 			page 37


 913:SYS/task_manager/task_manager.c ****                 }
 914:SYS/task_manager/task_manager.c **** 
 915:SYS/task_manager/task_manager.c ****                 //get task total execute time unit in us
 916:SYS/task_manager/task_manager.c ****                 tsk_ptr->Exec_status.totlal_running_time += tsk_ptr->TskFuncUing_US;
 1016              		.loc 1 916 17 is_stmt 1 view .LVU292
 1017              		.loc 1 916 58 is_stmt 0 view .LVU293
 1018 0038 236C     		ldr	r3, [r4, #64]
 1019 003a 1344     		add	r3, r3, r2
 1020 003c 2364     		str	r3, [r4, #64]
 917:SYS/task_manager/task_manager.c ****                 time_diff = Get_TimeDifference_Between(tsk_ptr->Exec_status.Start_Time, tsk_ptr->Ex
 1021              		.loc 1 917 17 is_stmt 1 view .LVU294
 1022              		.loc 1 917 29 is_stmt 0 view .LVU295
 1023 003e 626A     		ldr	r2, [r4, #36]
 1024 0040 A36A     		ldr	r3, [r4, #40]
 1025 0042 E069     		ldr	r0, [r4, #28]
 1026 0044 216A     		ldr	r1, [r4, #32]
 1027 0046 FFF7FEFF 		bl	Get_TimeDifference_Between
 1028              	.LVL65:
 1029 004a 0246     		mov	r2, r0
 1030 004c 0B46     		mov	r3, r1
 1031              		.loc 1 917 27 view .LVU296
 1032 004e CDE90023 		strd	r2, [sp]
 918:SYS/task_manager/task_manager.c **** 
 919:SYS/task_manager/task_manager.c ****                 tsk_ptr->Exec_status.cpu_opy = tsk_ptr->Exec_status.totlal_running_time / (float)ti
 1033              		.loc 1 919 17 is_stmt 1 view .LVU297
 1034              		.loc 1 919 68 is_stmt 0 view .LVU298
 1035 0052 256C     		ldr	r5, [r4, #64]
 1036              		.loc 1 919 91 view .LVU299
 1037 0054 FFF7FEFF 		bl	__aeabi_ul2f
 1038              	.LVL66:
 1039 0058 06EE900A 		vmov	s13, r0
 1040              		.loc 1 919 89 view .LVU300
 1041 005c 07EE905A 		vmov	s15, r5	@ int
 1042 0060 F8EE677A 		vcvt.f32.u32	s15, s15
 1043 0064 87EEA67A 		vdiv.f32	s14, s15, s13
 1044              		.loc 1 919 46 view .LVU301
 1045 0068 84ED117A 		vstr.32	s14, [r4, #68]
 920:SYS/task_manager/task_manager.c **** 
 921:SYS/task_manager/task_manager.c ****                 //get average task running time
 922:SYS/task_manager/task_manager.c ****                 tsk_ptr->Exec_status.detect_exec_time_arv += tsk_ptr->TskFuncUing_US;
 1046              		.loc 1 922 17 is_stmt 1 view .LVU302
 1047              		.loc 1 922 69 is_stmt 0 view .LVU303
 1048 006c E36D     		ldr	r3, [r4, #92]
 1049              		.loc 1 922 59 view .LVU304
 1050 006e 226B     		ldr	r2, [r4, #48]
 1051 0070 1344     		add	r3, r3, r2
 1052 0072 2363     		str	r3, [r4, #48]
 923:SYS/task_manager/task_manager.c ****                 if (tsk_ptr->Exec_status.Exec_Times > 1)
 1053              		.loc 1 923 17 is_stmt 1 view .LVU305
 1054              		.loc 1 923 41 is_stmt 0 view .LVU306
 1055 0074 A26B     		ldr	r2, [r4, #56]
 1056              		.loc 1 923 20 view .LVU307
 1057 0076 012A     		cmp	r2, #1
 1058 0078 01D9     		bls	.L69
 924:SYS/task_manager/task_manager.c ****                 {
 925:SYS/task_manager/task_manager.c ****                     tsk_ptr->Exec_status.detect_exec_time_arv /= 2;
 1059              		.loc 1 925 21 is_stmt 1 view .LVU308
ARM GAS  /var/folders/lx/hc4sn_b53233_zkc9xbbl97r0000gp/T//ccdoBicG.s 			page 38


 1060              		.loc 1 925 63 is_stmt 0 view .LVU309
 1061 007a 5B08     		lsrs	r3, r3, #1
 1062 007c 2363     		str	r3, [r4, #48]
 1063              	.L69:
 926:SYS/task_manager/task_manager.c ****                 }
 927:SYS/task_manager/task_manager.c **** 
 928:SYS/task_manager/task_manager.c ****                 tsk_ptr->Exec_status.Exec_Time = Get_TargetRunTime(tsk_ptr->exec_interval_us);
 1064              		.loc 1 928 17 is_stmt 1 view .LVU310
 1065              		.loc 1 928 50 is_stmt 0 view .LVU311
 1066 007e A089     		ldrh	r0, [r4, #12]
 1067 0080 FFF7FEFF 		bl	Get_TargetRunTime
 1068              	.LVL67:
 1069              		.loc 1 928 48 view .LVU312
 1070 0084 6062     		str	r0, [r4, #36]
 1071 0086 A162     		str	r1, [r4, #40]
 1072 0088 15E0     		b	.L67
 1073              	.L65:
 929:SYS/task_manager/task_manager.c ****             }
 930:SYS/task_manager/task_manager.c **** 
 931:SYS/task_manager/task_manager.c ****             //get task execute frequence
 932:SYS/task_manager/task_manager.c ****             if (tsk_ptr->Exec_status.Exec_Times)
 933:SYS/task_manager/task_manager.c ****             {
 934:SYS/task_manager/task_manager.c ****                 tsk_ptr->Exec_status.detect_exec_frq = (uint32_t)(tsk_ptr->Exec_status.Exec_Times /
 935:SYS/task_manager/task_manager.c ****             }
 936:SYS/task_manager/task_manager.c **** 
 937:SYS/task_manager/task_manager.c ****             //stop counting caller using us time
 938:SYS/task_manager/task_manager.c ****             //Task_Set_CountRunnigTime_State(tsk_ptr, DISABLE);
 939:SYS/task_manager/task_manager.c ****         }
 940:SYS/task_manager/task_manager.c ****         //erase currnet runnint task pointer
 941:SYS/task_manager/task_manager.c ****         CurRunTsk_Ptr = NULL;
 1074              		.loc 1 941 9 is_stmt 1 view .LVU313
 1075              		.loc 1 941 23 is_stmt 0 view .LVU314
 1076 008a 154B     		ldr	r3, .L74
 1077 008c 0022     		movs	r2, #0
 1078 008e 1A60     		str	r2, [r3]
 874:SYS/task_manager/task_manager.c ****     {
 1079              		.loc 1 874 11 is_stmt 1 view .LVU315
 1080              	.L70:
 874:SYS/task_manager/task_manager.c ****     {
 1081              		.loc 1 874 5 view .LVU316
 876:SYS/task_manager/task_manager.c ****         {
 1082              		.loc 1 876 9 view .LVU317
 876:SYS/task_manager/task_manager.c ****         {
 1083              		.loc 1 876 33 is_stmt 0 view .LVU318
 1084 0090 94F84830 		ldrb	r3, [r4, #72]	@ zero_extendqisi2
 876:SYS/task_manager/task_manager.c ****         {
 1085              		.loc 1 876 12 view .LVU319
 1086 0094 002B     		cmp	r3, #0
 1087 0096 F8D1     		bne	.L65
 881:SYS/task_manager/task_manager.c **** 
 1088              		.loc 1 881 13 is_stmt 1 view .LVU320
 881:SYS/task_manager/task_manager.c **** 
 1089              		.loc 1 881 27 is_stmt 0 view .LVU321
 1090 0098 114B     		ldr	r3, .L74
 1091 009a 1C60     		str	r4, [r3]
 883:SYS/task_manager/task_manager.c ****             {
 1092              		.loc 1 883 13 is_stmt 1 view .LVU322
ARM GAS  /var/folders/lx/hc4sn_b53233_zkc9xbbl97r0000gp/T//ccdoBicG.s 			page 39


 883:SYS/task_manager/task_manager.c ****             {
 1093              		.loc 1 883 37 is_stmt 0 view .LVU323
 1094 009c A36B     		ldr	r3, [r4, #56]
 883:SYS/task_manager/task_manager.c ****             {
 1095              		.loc 1 883 16 view .LVU324
 1096 009e 002B     		cmp	r3, #0
 1097 00a0 B5D0     		beq	.L72
 1098              	.L66:
 889:SYS/task_manager/task_manager.c ****             //Task_StartCountTargetFunc_Cast(tsk_ptr);
 1099              		.loc 1 889 13 is_stmt 1 view .LVU325
 889:SYS/task_manager/task_manager.c ****             //Task_StartCountTargetFunc_Cast(tsk_ptr);
 1100              		.loc 1 889 40 is_stmt 0 view .LVU326
 1101 00a2 0123     		movs	r3, #1
 1102 00a4 84F84830 		strb	r3, [r4, #72]
 893:SYS/task_manager/task_manager.c **** 
 1103              		.loc 1 893 13 is_stmt 1 view .LVU327
 893:SYS/task_manager/task_manager.c **** 
 1104              		.loc 1 893 20 is_stmt 0 view .LVU328
 1105 00a8 2369     		ldr	r3, [r4, #16]
 893:SYS/task_manager/task_manager.c **** 
 1106              		.loc 1 893 13 view .LVU329
 1107 00aa 2046     		mov	r0, r4
 1108 00ac 9847     		blx	r3
 1109              	.LVL68:
 898:SYS/task_manager/task_manager.c ****             {
 1110              		.loc 1 898 13 is_stmt 1 view .LVU330
 898:SYS/task_manager/task_manager.c ****             {
 1111              		.loc 1 898 37 is_stmt 0 view .LVU331
 1112 00ae 94F84830 		ldrb	r3, [r4, #72]	@ zero_extendqisi2
 898:SYS/task_manager/task_manager.c ****             {
 1113              		.loc 1 898 16 view .LVU332
 1114 00b2 012B     		cmp	r3, #1
 1115 00b4 B2D0     		beq	.L73
 1116              	.L67:
 932:SYS/task_manager/task_manager.c ****             {
 1117              		.loc 1 932 13 is_stmt 1 view .LVU333
 932:SYS/task_manager/task_manager.c ****             {
 1118              		.loc 1 932 37 is_stmt 0 view .LVU334
 1119 00b6 A56B     		ldr	r5, [r4, #56]
 932:SYS/task_manager/task_manager.c ****             {
 1120              		.loc 1 932 16 view .LVU335
 1121 00b8 002D     		cmp	r5, #0
 1122 00ba E6D0     		beq	.L65
 934:SYS/task_manager/task_manager.c ****             }
 1123              		.loc 1 934 17 is_stmt 1 view .LVU336
 934:SYS/task_manager/task_manager.c ****             }
 1124              		.loc 1 934 101 is_stmt 0 view .LVU337
 1125 00bc 606A     		ldr	r0, [r4, #36]
 1126 00be A16A     		ldr	r1, [r4, #40]
 1127 00c0 FFF7FEFF 		bl	__aeabi_ul2f
 1128              	.LVL69:
 1129 00c4 06EE900A 		vmov	s13, r0
 934:SYS/task_manager/task_manager.c ****             }
 1130              		.loc 1 934 99 view .LVU338
 1131 00c8 07EE905A 		vmov	s15, r5	@ int
 1132 00cc F8EE677A 		vcvt.f32.u32	s15, s15
 1133 00d0 87EEA67A 		vdiv.f32	s14, s15, s13
ARM GAS  /var/folders/lx/hc4sn_b53233_zkc9xbbl97r0000gp/T//ccdoBicG.s 			page 40


 934:SYS/task_manager/task_manager.c ****             }
 1134              		.loc 1 934 56 view .LVU339
 1135 00d4 BCEEC77A 		vcvt.u32.f32	s14, s14
 934:SYS/task_manager/task_manager.c ****             }
 1136              		.loc 1 934 54 view .LVU340
 1137 00d8 84ED0B7A 		vstr.32	s14, [r4, #44]	@ int
 1138 00dc D5E7     		b	.L65
 1139              	.L75:
 1140 00de 00BF     		.align	2
 1141              	.L74:
 1142 00e0 00000000 		.word	.LANCHOR6
 1143              		.cfi_endproc
 1144              	.LFE165:
 1146              		.section	.text.Task_Caller,"ax",%progbits
 1147              		.align	1
 1148              		.global	Task_Caller
 1149              		.syntax unified
 1150              		.thumb
 1151              		.thumb_func
 1152              		.fpu fpv4-sp-d16
 1154              	Task_Caller:
 1155              	.LFB168:
 942:SYS/task_manager/task_manager.c **** 
 943:SYS/task_manager/task_manager.c ****         //enable systick handler
 944:SYS/task_manager/task_manager.c ****         //Task_SetBASEPRI(0);
 945:SYS/task_manager/task_manager.c ****     }
 946:SYS/task_manager/task_manager.c **** }
 947:SYS/task_manager/task_manager.c **** 
 948:SYS/task_manager/task_manager.c **** uint32_t Task_Get_IdleUS(void)
 949:SYS/task_manager/task_manager.c **** {
 950:SYS/task_manager/task_manager.c ****     return TaskSys_Idle_US;
 951:SYS/task_manager/task_manager.c **** }
 952:SYS/task_manager/task_manager.c **** 
 953:SYS/task_manager/task_manager.c **** float Task_Get_IdleOcupy(void)
 954:SYS/task_manager/task_manager.c **** {
 955:SYS/task_manager/task_manager.c ****     return TaskSys_Idle_Ocupy;
 956:SYS/task_manager/task_manager.c **** }
 957:SYS/task_manager/task_manager.c **** 
 958:SYS/task_manager/task_manager.c **** void Task_Caller(void)
 959:SYS/task_manager/task_manager.c **** {
 1156              		.loc 1 959 1 is_stmt 1 view -0
 1157              		.cfi_startproc
 1158              		@ args = 0, pretend = 0, frame = 0
 1159              		@ frame_needed = 0, uses_anonymous_args = 0
 1160 0000 08B5     		push	{r3, lr}
 1161              	.LCFI17:
 1162              		.cfi_def_cfa_offset 8
 1163              		.cfi_offset 3, -8
 1164              		.cfi_offset 14, -4
 960:SYS/task_manager/task_manager.c ****     //if any task in any group is under ready state
 961:SYS/task_manager/task_manager.c ****     if (NxtRunTsk_Ptr != NULL)
 1165              		.loc 1 961 5 view .LVU342
 1166              		.loc 1 961 23 is_stmt 0 view .LVU343
 1167 0002 034B     		ldr	r3, .L80
 1168 0004 1868     		ldr	r0, [r3]
 1169              		.loc 1 961 8 view .LVU344
 1170 0006 00B9     		cbnz	r0, .L79
ARM GAS  /var/folders/lx/hc4sn_b53233_zkc9xbbl97r0000gp/T//ccdoBicG.s 			page 41


 962:SYS/task_manager/task_manager.c ****     {
 963:SYS/task_manager/task_manager.c ****         //execute task function in function matrix
 964:SYS/task_manager/task_manager.c ****         Task_Exec(NxtRunTsk_Ptr);
 965:SYS/task_manager/task_manager.c ****     }
 966:SYS/task_manager/task_manager.c **** }
 1171              		.loc 1 966 1 view .LVU345
 1172 0008 08BD     		pop	{r3, pc}
 1173              	.L79:
 964:SYS/task_manager/task_manager.c ****     }
 1174              		.loc 1 964 9 is_stmt 1 view .LVU346
 1175 000a FFF7FEFF 		bl	Task_Exec
 1176              	.LVL70:
 1177              	.L81:
 1178 000e 00BF     		.align	2
 1179              	.L80:
 1180 0010 00000000 		.word	.LANCHOR11
 1181              		.cfi_endproc
 1182              	.LFE168:
 1184              		.section	.text.Task_CrtList_TraversePoll_callback,"ax",%progbits
 1185              		.align	1
 1186              		.syntax unified
 1187              		.thumb
 1188              		.thumb_func
 1189              		.fpu fpv4-sp-d16
 1191              	Task_CrtList_TraversePoll_callback:
 1192              	.LVL71:
 1193              	.LFB171:
 967:SYS/task_manager/task_manager.c **** 
 968:SYS/task_manager/task_manager.c **** void TaskSys_Set_State(TaskSys_State state)
 969:SYS/task_manager/task_manager.c **** {
 970:SYS/task_manager/task_manager.c ****     TskSys_state = state;
 971:SYS/task_manager/task_manager.c **** }
 972:SYS/task_manager/task_manager.c **** 
 973:SYS/task_manager/task_manager.c **** TaskSys_State TaskSys_Get_State(void)
 974:SYS/task_manager/task_manager.c **** {
 975:SYS/task_manager/task_manager.c ****     return TskSys_state;
 976:SYS/task_manager/task_manager.c **** }
 977:SYS/task_manager/task_manager.c **** 
 978:SYS/task_manager/task_manager.c **** static void Task_CrtList_TraversePoll_callback(item_obj *item, void *data, void *arg)
 979:SYS/task_manager/task_manager.c **** {
 1194              		.loc 1 979 1 view -0
 1195              		.cfi_startproc
 1196              		@ args = 0, pretend = 0, frame = 0
 1197              		@ frame_needed = 0, uses_anonymous_args = 0
 980:SYS/task_manager/task_manager.c ****     Task *tmp = NULL;
 1198              		.loc 1 980 5 view .LVU348
 981:SYS/task_manager/task_manager.c **** 
 982:SYS/task_manager/task_manager.c ****     if (data != NULL)
 1199              		.loc 1 982 5 view .LVU349
 1200              		.loc 1 982 8 is_stmt 0 view .LVU350
 1201 0000 A9B1     		cbz	r1, .L85
 979:SYS/task_manager/task_manager.c ****     Task *tmp = NULL;
 1202              		.loc 1 979 1 view .LVU351
 1203 0002 10B5     		push	{r4, lr}
 1204              	.LCFI18:
 1205              		.cfi_def_cfa_offset 8
 1206              		.cfi_offset 4, -8
ARM GAS  /var/folders/lx/hc4sn_b53233_zkc9xbbl97r0000gp/T//ccdoBicG.s 			page 42


 1207              		.cfi_offset 14, -4
 1208 0004 0C46     		mov	r4, r1
 983:SYS/task_manager/task_manager.c ****     {
 984:SYS/task_manager/task_manager.c ****         tmp = (Task *)data;
 1209              		.loc 1 984 9 is_stmt 1 view .LVU352
 1210              	.LVL72:
 985:SYS/task_manager/task_manager.c **** 
 986:SYS/task_manager/task_manager.c ****         //get current highest priority task handler AKA NxtRunTsk_Ptr
 987:SYS/task_manager/task_manager.c ****         if (TskSys_state == TaskSys_Start)
 1211              		.loc 1 987 9 view .LVU353
 1212              		.loc 1 987 26 is_stmt 0 view .LVU354
 1213 0006 0A4B     		ldr	r3, .L89
 1214 0008 1B78     		ldrb	r3, [r3]	@ zero_extendqisi2
 1215 000a DBB2     		uxtb	r3, r3
 1216              		.loc 1 987 12 view .LVU355
 1217 000c 022B     		cmp	r3, #2
 1218 000e 00D0     		beq	.L88
 1219              	.LVL73:
 1220              	.L82:
 988:SYS/task_manager/task_manager.c ****         {
 989:SYS/task_manager/task_manager.c ****             if ((tmp->Exec_status.State == Task_Stop) && (!RuntimeObj_CompareWithCurrent(tmp->Exec_
 990:SYS/task_manager/task_manager.c ****             {
 991:SYS/task_manager/task_manager.c ****                 Task_SetReady(tmp);
 992:SYS/task_manager/task_manager.c ****             }
 993:SYS/task_manager/task_manager.c ****         }
 994:SYS/task_manager/task_manager.c ****     }
 995:SYS/task_manager/task_manager.c **** }
 1221              		.loc 1 995 1 view .LVU356
 1222 0010 10BD     		pop	{r4, pc}
 1223              	.LVL74:
 1224              	.L88:
 989:SYS/task_manager/task_manager.c ****             {
 1225              		.loc 1 989 13 is_stmt 1 view .LVU357
 989:SYS/task_manager/task_manager.c ****             {
 1226              		.loc 1 989 34 is_stmt 0 view .LVU358
 1227 0012 91F84830 		ldrb	r3, [r1, #72]	@ zero_extendqisi2
 989:SYS/task_manager/task_manager.c ****             {
 1228              		.loc 1 989 16 view .LVU359
 1229 0016 022B     		cmp	r3, #2
 1230 0018 FAD1     		bne	.L82
 989:SYS/task_manager/task_manager.c ****             {
 1231              		.loc 1 989 60 discriminator 1 view .LVU360
 1232 001a 486A     		ldr	r0, [r1, #36]
 1233              	.LVL75:
 989:SYS/task_manager/task_manager.c ****             {
 1234              		.loc 1 989 60 discriminator 1 view .LVU361
 1235 001c 896A     		ldr	r1, [r1, #40]
 1236              	.LVL76:
 989:SYS/task_manager/task_manager.c ****             {
 1237              		.loc 1 989 60 discriminator 1 view .LVU362
 1238 001e FFF7FEFF 		bl	RuntimeObj_CompareWithCurrent
 1239              	.LVL77:
 989:SYS/task_manager/task_manager.c ****             {
 1240              		.loc 1 989 55 discriminator 1 view .LVU363
 1241 0022 0028     		cmp	r0, #0
 1242 0024 F4D1     		bne	.L82
 991:SYS/task_manager/task_manager.c ****             }
ARM GAS  /var/folders/lx/hc4sn_b53233_zkc9xbbl97r0000gp/T//ccdoBicG.s 			page 43


 1243              		.loc 1 991 17 is_stmt 1 view .LVU364
 1244 0026 2046     		mov	r0, r4
 1245 0028 FFF7FEFF 		bl	Task_SetReady
 1246              	.LVL78:
 1247              		.loc 1 995 1 is_stmt 0 view .LVU365
 1248 002c F0E7     		b	.L82
 1249              	.LVL79:
 1250              	.L85:
 1251              	.LCFI19:
 1252              		.cfi_def_cfa_offset 0
 1253              		.cfi_restore 4
 1254              		.cfi_restore 14
 1255              		.loc 1 995 1 view .LVU366
 1256 002e 7047     		bx	lr
 1257              	.L90:
 1258              		.align	2
 1259              	.L89:
 1260 0030 00000000 		.word	.LANCHOR7
 1261              		.cfi_endproc
 1262              	.LFE171:
 1264              		.section	.text.Task_Resume_FromBlock,"ax",%progbits
 1265              		.align	1
 1266              		.global	Task_Resume_FromBlock
 1267              		.syntax unified
 1268              		.thumb
 1269              		.thumb_func
 1270              		.fpu fpv4-sp-d16
 1272              	Task_Resume_FromBlock:
 1273              	.LVL80:
 1274              	.LFB131:
 202:SYS/task_manager/task_manager.c ****     Task_ClearBlock(tsk);
 1275              		.loc 1 202 1 is_stmt 1 view -0
 1276              		.cfi_startproc
 1277              		@ args = 0, pretend = 0, frame = 0
 1278              		@ frame_needed = 0, uses_anonymous_args = 0
 202:SYS/task_manager/task_manager.c ****     Task_ClearBlock(tsk);
 1279              		.loc 1 202 1 is_stmt 0 view .LVU368
 1280 0000 10B5     		push	{r4, lr}
 1281              	.LCFI20:
 1282              		.cfi_def_cfa_offset 8
 1283              		.cfi_offset 4, -8
 1284              		.cfi_offset 14, -4
 1285 0002 0446     		mov	r4, r0
 203:SYS/task_manager/task_manager.c ****     Task_SetReady(tsk);
 1286              		.loc 1 203 5 is_stmt 1 view .LVU369
 1287 0004 FFF7FEFF 		bl	Task_ClearBlock
 1288              	.LVL81:
 204:SYS/task_manager/task_manager.c ****     //Task_Set_CountRunnigTime_State(tsk, ENABLE);
 1289              		.loc 1 204 5 view .LVU370
 1290 0008 2046     		mov	r0, r4
 1291 000a FFF7FEFF 		bl	Task_SetReady
 1292              	.LVL82:
 207:SYS/task_manager/task_manager.c ****     NxtTsk_TCB.Top_Stk_Ptr = &tsk->TCB.Top_Stk_Ptr;
 1293              		.loc 1 207 5 view .LVU371
 207:SYS/task_manager/task_manager.c ****     NxtTsk_TCB.Top_Stk_Ptr = &tsk->TCB.Top_Stk_Ptr;
 1294              		.loc 1 207 28 is_stmt 0 view .LVU372
 1295 000e 0123     		movs	r3, #1
ARM GAS  /var/folders/lx/hc4sn_b53233_zkc9xbbl97r0000gp/T//ccdoBicG.s 			page 44


 1296 0010 84F84830 		strb	r3, [r4, #72]
 208:SYS/task_manager/task_manager.c ****     NxtTsk_TCB.Stack = tsk->TCB.Stack;
 1297              		.loc 1 208 5 is_stmt 1 view .LVU373
 208:SYS/task_manager/task_manager.c ****     NxtTsk_TCB.Stack = tsk->TCB.Stack;
 1298              		.loc 1 208 30 is_stmt 0 view .LVU374
 1299 0014 04F15002 		add	r2, r4, #80
 208:SYS/task_manager/task_manager.c ****     NxtTsk_TCB.Stack = tsk->TCB.Stack;
 1300              		.loc 1 208 28 view .LVU375
 1301 0018 034B     		ldr	r3, .L93
 1302 001a 1A60     		str	r2, [r3]
 209:SYS/task_manager/task_manager.c ****     CurRunTsk_Ptr = tsk;
 1303              		.loc 1 209 5 is_stmt 1 view .LVU376
 209:SYS/task_manager/task_manager.c ****     CurRunTsk_Ptr = tsk;
 1304              		.loc 1 209 32 is_stmt 0 view .LVU377
 1305 001c 626D     		ldr	r2, [r4, #84]
 209:SYS/task_manager/task_manager.c ****     CurRunTsk_Ptr = tsk;
 1306              		.loc 1 209 22 view .LVU378
 1307 001e 5A60     		str	r2, [r3, #4]
 210:SYS/task_manager/task_manager.c **** }
 1308              		.loc 1 210 5 is_stmt 1 view .LVU379
 210:SYS/task_manager/task_manager.c **** }
 1309              		.loc 1 210 19 is_stmt 0 view .LVU380
 1310 0020 024B     		ldr	r3, .L93+4
 1311 0022 1C60     		str	r4, [r3]
 211:SYS/task_manager/task_manager.c **** 
 1312              		.loc 1 211 1 view .LVU381
 1313 0024 10BD     		pop	{r4, pc}
 1314              	.LVL83:
 1315              	.L94:
 211:SYS/task_manager/task_manager.c **** 
 1316              		.loc 1 211 1 view .LVU382
 1317 0026 00BF     		.align	2
 1318              	.L93:
 1319 0028 00000000 		.word	.LANCHOR12
 1320 002c 00000000 		.word	.LANCHOR6
 1321              		.cfi_endproc
 1322              	.LFE131:
 1324              		.section	.text.Task_SetBlock,"ax",%progbits
 1325              		.align	1
 1326              		.global	Task_SetBlock
 1327              		.syntax unified
 1328              		.thumb
 1329              		.thumb_func
 1330              		.fpu fpv4-sp-d16
 1332              	Task_SetBlock:
 1333              	.LVL84:
 1334              	.LFB132:
 214:SYS/task_manager/task_manager.c ****     uint8_t grp_id = GET_TASKGROUP_PRIORITY(tsk->priority.Priority);
 1335              		.loc 1 214 1 is_stmt 1 view -0
 1336              		.cfi_startproc
 1337              		@ args = 0, pretend = 0, frame = 0
 1338              		@ frame_needed = 0, uses_anonymous_args = 0
 214:SYS/task_manager/task_manager.c ****     uint8_t grp_id = GET_TASKGROUP_PRIORITY(tsk->priority.Priority);
 1339              		.loc 1 214 1 is_stmt 0 view .LVU384
 1340 0000 10B5     		push	{r4, lr}
 1341              	.LCFI21:
 1342              		.cfi_def_cfa_offset 8
ARM GAS  /var/folders/lx/hc4sn_b53233_zkc9xbbl97r0000gp/T//ccdoBicG.s 			page 45


 1343              		.cfi_offset 4, -8
 1344              		.cfi_offset 14, -4
 215:SYS/task_manager/task_manager.c ****     uint8_t tsk_id = GET_TASKINGROUP_PRIORITY(tsk->priority.Priority);
 1345              		.loc 1 215 5 is_stmt 1 view .LVU385
 215:SYS/task_manager/task_manager.c ****     uint8_t tsk_id = GET_TASKINGROUP_PRIORITY(tsk->priority.Priority);
 1346              		.loc 1 215 22 is_stmt 0 view .LVU386
 1347 0002 0378     		ldrb	r3, [r0]	@ zero_extendqisi2
 215:SYS/task_manager/task_manager.c ****     uint8_t tsk_id = GET_TASKINGROUP_PRIORITY(tsk->priority.Priority);
 1348              		.loc 1 215 13 view .LVU387
 1349 0004 4FEAD30E 		lsr	lr, r3, #3
 1350              	.LVL85:
 216:SYS/task_manager/task_manager.c **** 
 1351              		.loc 1 216 5 is_stmt 1 view .LVU388
 216:SYS/task_manager/task_manager.c **** 
 1352              		.loc 1 216 13 is_stmt 0 view .LVU389
 1353 0008 03F00704 		and	r4, r3, #7
 1354              	.LVL86:
 219:SYS/task_manager/task_manager.c ****     //set current task under this group flag to block
 1355              		.loc 1 219 5 is_stmt 1 view .LVU390
 219:SYS/task_manager/task_manager.c ****     //set current task under this group flag to block
 1356              		.loc 1 219 27 is_stmt 0 view .LVU391
 1357 000c 144A     		ldr	r2, .L98
 1358 000e 1178     		ldrb	r1, [r2]	@ zero_extendqisi2
 219:SYS/task_manager/task_manager.c ****     //set current task under this group flag to block
 1359              		.loc 1 219 32 view .LVU392
 1360 0010 0123     		movs	r3, #1
 1361 0012 03FA0EFC 		lsl	ip, r3, lr
 219:SYS/task_manager/task_manager.c ****     //set current task under this group flag to block
 1362              		.loc 1 219 27 view .LVU393
 1363 0016 4FFA8CFC 		sxtb	ip, ip
 1364 001a 41EA0C01 		orr	r1, r1, ip
 1365 001e C9B2     		uxtb	r1, r1
 1366 0020 1170     		strb	r1, [r2]
 221:SYS/task_manager/task_manager.c **** 
 1367              		.loc 1 221 5 is_stmt 1 view .LVU394
 221:SYS/task_manager/task_manager.c **** 
 1368              		.loc 1 221 40 is_stmt 0 view .LVU395
 1369 0022 7244     		add	r2, r2, lr
 1370 0024 5178     		ldrb	r1, [r2, #1]	@ zero_extendqisi2
 221:SYS/task_manager/task_manager.c **** 
 1371              		.loc 1 221 45 view .LVU396
 1372 0026 A340     		lsls	r3, r3, r4
 221:SYS/task_manager/task_manager.c **** 
 1373              		.loc 1 221 40 view .LVU397
 1374 0028 5BB2     		sxtb	r3, r3
 1375 002a 1943     		orrs	r1, r1, r3
 1376 002c C9B2     		uxtb	r1, r1
 1377 002e 5170     		strb	r1, [r2, #1]
 224:SYS/task_manager/task_manager.c ****     //if no task ready then clear group reg
 1378              		.loc 1 224 5 is_stmt 1 view .LVU398
 224:SYS/task_manager/task_manager.c ****     //if no task ready then clear group reg
 1379              		.loc 1 224 40 is_stmt 0 view .LVU399
 1380 0030 0C4A     		ldr	r2, .L98+4
 1381 0032 7244     		add	r2, r2, lr
 1382 0034 5178     		ldrb	r1, [r2, #1]	@ zero_extendqisi2
 1383 0036 21EA0303 		bic	r3, r1, r3
 1384 003a 5370     		strb	r3, [r2, #1]
ARM GAS  /var/folders/lx/hc4sn_b53233_zkc9xbbl97r0000gp/T//ccdoBicG.s 			page 46


 226:SYS/task_manager/task_manager.c ****     {
 1385              		.loc 1 226 5 is_stmt 1 view .LVU400
 226:SYS/task_manager/task_manager.c ****     {
 1386              		.loc 1 226 39 is_stmt 0 view .LVU401
 1387 003c 5378     		ldrb	r3, [r2, #1]	@ zero_extendqisi2
 226:SYS/task_manager/task_manager.c ****     {
 1388              		.loc 1 226 8 view .LVU402
 1389 003e 2BB9     		cbnz	r3, .L96
 228:SYS/task_manager/task_manager.c ****     }
 1390              		.loc 1 228 9 is_stmt 1 view .LVU403
 228:SYS/task_manager/task_manager.c ****     }
 1391              		.loc 1 228 31 is_stmt 0 view .LVU404
 1392 0040 084A     		ldr	r2, .L98+4
 1393 0042 1378     		ldrb	r3, [r2]	@ zero_extendqisi2
 1394 0044 23EA0C0C 		bic	ip, r3, ip
 1395 0048 82F800C0 		strb	ip, [r2]
 1396              	.L96:
 232:SYS/task_manager/task_manager.c **** 
 1397              		.loc 1 232 5 is_stmt 1 view .LVU405
 232:SYS/task_manager/task_manager.c **** 
 1398              		.loc 1 232 28 is_stmt 0 view .LVU406
 1399 004c 0323     		movs	r3, #3
 1400 004e 80F84830 		strb	r3, [r0, #72]
 237:SYS/task_manager/task_manager.c **** 
 1401              		.loc 1 237 5 is_stmt 1 view .LVU407
 237:SYS/task_manager/task_manager.c **** 
 1402              		.loc 1 237 19 is_stmt 0 view .LVU408
 1403 0052 0020     		movs	r0, #0
 1404              	.LVL87:
 237:SYS/task_manager/task_manager.c **** 
 1405              		.loc 1 237 19 view .LVU409
 1406 0054 044B     		ldr	r3, .L98+8
 1407 0056 1860     		str	r0, [r3]
 239:SYS/task_manager/task_manager.c **** }
 1408              		.loc 1 239 5 is_stmt 1 view .LVU410
 1409 0058 FFF7FEFF 		bl	Task_SetBASEPRI
 1410              	.LVL88:
 240:SYS/task_manager/task_manager.c **** 
 1411              		.loc 1 240 1 is_stmt 0 view .LVU411
 1412 005c 10BD     		pop	{r4, pc}
 1413              	.LVL89:
 1414              	.L99:
 240:SYS/task_manager/task_manager.c **** 
 1415              		.loc 1 240 1 view .LVU412
 1416 005e 00BF     		.align	2
 1417              	.L98:
 1418 0060 00000000 		.word	.LANCHOR1
 1419 0064 00000000 		.word	.LANCHOR0
 1420 0068 00000000 		.word	.LANCHOR6
 1421              		.cfi_endproc
 1422              	.LFE132:
 1424              		.section	.text.Task_SetPending,"ax",%progbits
 1425              		.align	1
 1426              		.global	Task_SetPending
 1427              		.syntax unified
 1428              		.thumb
 1429              		.thumb_func
ARM GAS  /var/folders/lx/hc4sn_b53233_zkc9xbbl97r0000gp/T//ccdoBicG.s 			page 47


 1430              		.fpu fpv4-sp-d16
 1432              	Task_SetPending:
 1433              	.LVL90:
 1434              	.LFB133:
 243:SYS/task_manager/task_manager.c ****     uint8_t grp_id = GET_TASKGROUP_PRIORITY(tsk->priority.Priority);
 1435              		.loc 1 243 1 is_stmt 1 view -0
 1436              		.cfi_startproc
 1437              		@ args = 0, pretend = 0, frame = 0
 1438              		@ frame_needed = 0, uses_anonymous_args = 0
 243:SYS/task_manager/task_manager.c ****     uint8_t grp_id = GET_TASKGROUP_PRIORITY(tsk->priority.Priority);
 1439              		.loc 1 243 1 is_stmt 0 view .LVU414
 1440 0000 10B5     		push	{r4, lr}
 1441              	.LCFI22:
 1442              		.cfi_def_cfa_offset 8
 1443              		.cfi_offset 4, -8
 1444              		.cfi_offset 14, -4
 244:SYS/task_manager/task_manager.c ****     uint8_t tsk_id = GET_TASKINGROUP_PRIORITY(tsk->priority.Priority);
 1445              		.loc 1 244 5 is_stmt 1 view .LVU415
 244:SYS/task_manager/task_manager.c ****     uint8_t tsk_id = GET_TASKINGROUP_PRIORITY(tsk->priority.Priority);
 1446              		.loc 1 244 22 is_stmt 0 view .LVU416
 1447 0002 90F800C0 		ldrb	ip, [r0]	@ zero_extendqisi2
 244:SYS/task_manager/task_manager.c ****     uint8_t tsk_id = GET_TASKINGROUP_PRIORITY(tsk->priority.Priority);
 1448              		.loc 1 244 13 view .LVU417
 1449 0006 4FEADC02 		lsr	r2, ip, #3
 1450              	.LVL91:
 245:SYS/task_manager/task_manager.c **** 
 1451              		.loc 1 245 5 is_stmt 1 view .LVU418
 245:SYS/task_manager/task_manager.c **** 
 1452              		.loc 1 245 13 is_stmt 0 view .LVU419
 1453 000a 0CF0070E 		and	lr, ip, #7
 1454              	.LVL92:
 248:SYS/task_manager/task_manager.c ****     //set current task under this group flag to ready
 1455              		.loc 1 248 5 is_stmt 1 view .LVU420
 248:SYS/task_manager/task_manager.c ****     //set current task under this group flag to ready
 1456              		.loc 1 248 27 is_stmt 0 view .LVU421
 1457 000e 0A4B     		ldr	r3, .L102
 1458 0010 1978     		ldrb	r1, [r3]	@ zero_extendqisi2
 248:SYS/task_manager/task_manager.c ****     //set current task under this group flag to ready
 1459              		.loc 1 248 32 view .LVU422
 1460 0012 4FF0010C 		mov	ip, #1
 1461 0016 0CFA02F4 		lsl	r4, ip, r2
 248:SYS/task_manager/task_manager.c ****     //set current task under this group flag to ready
 1462              		.loc 1 248 27 view .LVU423
 1463 001a 2143     		orrs	r1, r1, r4
 1464 001c C9B2     		uxtb	r1, r1
 1465 001e 1970     		strb	r1, [r3]
 250:SYS/task_manager/task_manager.c **** 
 1466              		.loc 1 250 5 is_stmt 1 view .LVU424
 250:SYS/task_manager/task_manager.c **** 
 1467              		.loc 1 250 40 is_stmt 0 view .LVU425
 1468 0020 1344     		add	r3, r3, r2
 1469 0022 5A78     		ldrb	r2, [r3, #1]	@ zero_extendqisi2
 1470              	.LVL93:
 250:SYS/task_manager/task_manager.c **** 
 1471              		.loc 1 250 45 view .LVU426
 1472 0024 0CFA0EFC 		lsl	ip, ip, lr
 250:SYS/task_manager/task_manager.c **** 
ARM GAS  /var/folders/lx/hc4sn_b53233_zkc9xbbl97r0000gp/T//ccdoBicG.s 			page 48


 1473              		.loc 1 250 40 view .LVU427
 1474 0028 42EA0C02 		orr	r2, r2, ip
 1475 002c D2B2     		uxtb	r2, r2
 1476 002e 5A70     		strb	r2, [r3, #1]
 253:SYS/task_manager/task_manager.c **** }
 1477              		.loc 1 253 5 is_stmt 1 view .LVU428
 253:SYS/task_manager/task_manager.c **** }
 1478              		.loc 1 253 28 is_stmt 0 view .LVU429
 1479 0030 0423     		movs	r3, #4
 1480 0032 80F84830 		strb	r3, [r0, #72]
 254:SYS/task_manager/task_manager.c **** 
 1481              		.loc 1 254 1 view .LVU430
 1482 0036 10BD     		pop	{r4, pc}
 1483              	.L103:
 1484              		.align	2
 1485              	.L102:
 1486 0038 00000000 		.word	.LANCHOR2
 1487              		.cfi_endproc
 1488              	.LFE133:
 1490              		.section	.text.Task_SwitchStack,"ax",%progbits
 1491              		.align	1
 1492              		.global	Task_SwitchStack
 1493              		.syntax unified
 1494              		.thumb
 1495              		.thumb_func
 1496              		.fpu fpv4-sp-d16
 1498              	Task_SwitchStack:
 1499              	.LFB134:
 257:SYS/task_manager/task_manager.c ****     CurTsk_TCB = NxtTsk_TCB;
 1500              		.loc 1 257 1 is_stmt 1 view -0
 1501              		.cfi_startproc
 1502              		@ args = 0, pretend = 0, frame = 0
 1503              		@ frame_needed = 0, uses_anonymous_args = 0
 1504              		@ link register save eliminated.
 258:SYS/task_manager/task_manager.c **** }
 1505              		.loc 1 258 5 view .LVU432
 258:SYS/task_manager/task_manager.c **** }
 1506              		.loc 1 258 16 is_stmt 0 view .LVU433
 1507 0000 034B     		ldr	r3, .L105
 1508 0002 044A     		ldr	r2, .L105+4
 1509 0004 92E80300 		ldm	r2, {r0, r1}
 1510 0008 83E80300 		stm	r3, {r0, r1}
 259:SYS/task_manager/task_manager.c **** 
 1511              		.loc 1 259 1 view .LVU434
 1512 000c 7047     		bx	lr
 1513              	.L106:
 1514 000e 00BF     		.align	2
 1515              	.L105:
 1516 0010 00000000 		.word	.LANCHOR13
 1517 0014 00000000 		.word	.LANCHOR12
 1518              		.cfi_endproc
 1519              	.LFE134:
 1521              		.section	.text.Task_Get_HighestRank_PndTask,"ax",%progbits
 1522              		.align	1
 1523              		.global	Task_Get_HighestRank_PndTask
 1524              		.syntax unified
 1525              		.thumb
ARM GAS  /var/folders/lx/hc4sn_b53233_zkc9xbbl97r0000gp/T//ccdoBicG.s 			page 49


 1526              		.thumb_func
 1527              		.fpu fpv4-sp-d16
 1529              	Task_Get_HighestRank_PndTask:
 1530              	.LFB135:
 262:SYS/task_manager/task_manager.c ****     uint8_t grp_id;
 1531              		.loc 1 262 1 is_stmt 1 view -0
 1532              		.cfi_startproc
 1533              		@ args = 0, pretend = 0, frame = 0
 1534              		@ frame_needed = 0, uses_anonymous_args = 0
 263:SYS/task_manager/task_manager.c ****     uint8_t tsk_id;
 1535              		.loc 1 263 5 view .LVU436
 264:SYS/task_manager/task_manager.c **** 
 1536              		.loc 1 264 5 view .LVU437
 266:SYS/task_manager/task_manager.c ****     {
 1537              		.loc 1 266 5 view .LVU438
 266:SYS/task_manager/task_manager.c ****     {
 1538              		.loc 1 266 26 is_stmt 0 view .LVU439
 1539 0000 144B     		ldr	r3, .L115
 1540 0002 1B78     		ldrb	r3, [r3]	@ zero_extendqisi2
 266:SYS/task_manager/task_manager.c ****     {
 1541              		.loc 1 266 8 view .LVU440
 1542 0004 1BB3     		cbz	r3, .L109
 269:SYS/task_manager/task_manager.c ****         //find task in group
 1543              		.loc 1 269 9 is_stmt 1 view .LVU441
 269:SYS/task_manager/task_manager.c ****         //find task in group
 1544              		.loc 1 269 46 is_stmt 0 view .LVU442
 1545 0006 134B     		ldr	r3, .L115
 1546 0008 1A78     		ldrb	r2, [r3]	@ zero_extendqisi2
 1547 000a D2B2     		uxtb	r2, r2
 269:SYS/task_manager/task_manager.c ****         //find task in group
 1548              		.loc 1 269 16 view .LVU443
 1549 000c 1249     		ldr	r1, .L115+4
 1550 000e 8A5C     		ldrb	r2, [r1, r2]	@ zero_extendqisi2
 271:SYS/task_manager/task_manager.c ****     }
 1551              		.loc 1 271 9 is_stmt 1 view .LVU444
 271:SYS/task_manager/task_manager.c ****     }
 1552              		.loc 1 271 59 is_stmt 0 view .LVU445
 1553 0010 1344     		add	r3, r3, r2
 1554 0012 5B78     		ldrb	r3, [r3, #1]	@ zero_extendqisi2
 1555 0014 DBB2     		uxtb	r3, r3
 271:SYS/task_manager/task_manager.c ****     }
 1556              		.loc 1 271 16 view .LVU446
 1557 0016 CB5C     		ldrb	r3, [r1, r3]	@ zero_extendqisi2
 276:SYS/task_manager/task_manager.c ****     {
 1558              		.loc 1 276 5 is_stmt 1 view .LVU447
 276:SYS/task_manager/task_manager.c ****     {
 1559              		.loc 1 276 25 is_stmt 0 view .LVU448
 1560 0018 03EBC200 		add	r0, r3, r2, lsl #3
 1561 001c 0F49     		ldr	r1, .L115+8
 1562 001e 51F82000 		ldr	r0, [r1, r0, lsl #2]
 276:SYS/task_manager/task_manager.c ****     {
 1563              		.loc 1 276 8 view .LVU449
 1564 0022 00B1     		cbz	r0, .L114
 286:SYS/task_manager/task_manager.c **** 
 1565              		.loc 1 286 1 view .LVU450
 1566 0024 7047     		bx	lr
 1567              	.L114:
ARM GAS  /var/folders/lx/hc4sn_b53233_zkc9xbbl97r0000gp/T//ccdoBicG.s 			page 50


 262:SYS/task_manager/task_manager.c ****     uint8_t grp_id;
 1568              		.loc 1 262 1 view .LVU451
 1569 0026 10B5     		push	{r4, lr}
 1570              	.LCFI23:
 1571              		.cfi_def_cfa_offset 8
 1572              		.cfi_offset 4, -8
 1573              		.cfi_offset 14, -4
 282:SYS/task_manager/task_manager.c ****         TskHdl_PndMap.TskInGrp[grp_id].Flg &= ~(1 << tsk_id);
 1574              		.loc 1 282 9 is_stmt 1 view .LVU452
 282:SYS/task_manager/task_manager.c ****         TskHdl_PndMap.TskInGrp[grp_id].Flg &= ~(1 << tsk_id);
 1575              		.loc 1 282 31 is_stmt 0 view .LVU453
 1576 0028 0A49     		ldr	r1, .L115
 1577 002a 91F800E0 		ldrb	lr, [r1]	@ zero_extendqisi2
 282:SYS/task_manager/task_manager.c ****         TskHdl_PndMap.TskInGrp[grp_id].Flg &= ~(1 << tsk_id);
 1578              		.loc 1 282 38 view .LVU454
 1579 002e 4FF0010C 		mov	ip, #1
 1580 0032 0CFA02F4 		lsl	r4, ip, r2
 282:SYS/task_manager/task_manager.c ****         TskHdl_PndMap.TskInGrp[grp_id].Flg &= ~(1 << tsk_id);
 1581              		.loc 1 282 31 view .LVU455
 1582 0036 2EEA040E 		bic	lr, lr, r4
 1583 003a 81F800E0 		strb	lr, [r1]
 283:SYS/task_manager/task_manager.c ****         return NULL;
 1584              		.loc 1 283 9 is_stmt 1 view .LVU456
 283:SYS/task_manager/task_manager.c ****         return NULL;
 1585              		.loc 1 283 44 is_stmt 0 view .LVU457
 1586 003e 0A44     		add	r2, r2, r1
 1587 0040 5178     		ldrb	r1, [r2, #1]	@ zero_extendqisi2
 283:SYS/task_manager/task_manager.c ****         return NULL;
 1588              		.loc 1 283 51 view .LVU458
 1589 0042 0CFA03F3 		lsl	r3, ip, r3
 283:SYS/task_manager/task_manager.c ****         return NULL;
 1590              		.loc 1 283 44 view .LVU459
 1591 0046 21EA0303 		bic	r3, r1, r3
 1592 004a 5370     		strb	r3, [r2, #1]
 284:SYS/task_manager/task_manager.c ****     }
 1593              		.loc 1 284 9 is_stmt 1 view .LVU460
 286:SYS/task_manager/task_manager.c **** 
 1594              		.loc 1 286 1 is_stmt 0 view .LVU461
 1595 004c 10BD     		pop	{r4, pc}
 1596              	.L109:
 1597              	.LCFI24:
 1598              		.cfi_def_cfa_offset 0
 1599              		.cfi_restore 4
 1600              		.cfi_restore 14
 274:SYS/task_manager/task_manager.c **** 
 1601              		.loc 1 274 16 view .LVU462
 1602 004e 0020     		movs	r0, #0
 1603 0050 7047     		bx	lr
 1604              	.L116:
 1605 0052 00BF     		.align	2
 1606              	.L115:
 1607 0054 00000000 		.word	.LANCHOR2
 1608 0058 00000000 		.word	.LANCHOR14
 1609 005c 00000000 		.word	.LANCHOR4
 1610              		.cfi_endproc
 1611              	.LFE135:
 1613              		.section	.text.Task_SaveCurProc,"ax",%progbits
ARM GAS  /var/folders/lx/hc4sn_b53233_zkc9xbbl97r0000gp/T//ccdoBicG.s 			page 51


 1614              		.align	1
 1615              		.global	Task_SaveCurProc
 1616              		.syntax unified
 1617              		.thumb
 1618              		.thumb_func
 1619              		.fpu fpv4-sp-d16
 1621              	Task_SaveCurProc:
 1622              	.LFB140:
 339:SYS/task_manager/task_manager.c ****     __ASM("MRS    R0, PSP");
 1623              		.loc 1 339 1 is_stmt 1 view -0
 1624              		.cfi_startproc
 1625              		@ args = 0, pretend = 0, frame = 0
 1626              		@ frame_needed = 0, uses_anonymous_args = 0
 1627              		@ link register save eliminated.
 340:SYS/task_manager/task_manager.c ****     __ASM("LDR	  R3, CurrentTCBConst_Tmp3");
 1628              		.loc 1 340 5 view .LVU464
 1629              		.syntax unified
 1630              	@ 340 "SYS/task_manager/task_manager.c" 1
 1631 0000 EFF30980 		MRS    R0, PSP
 1632              	@ 0 "" 2
 341:SYS/task_manager/task_manager.c ****     __ASM("LDR    R2, [R3]");
 1633              		.loc 1 341 5 view .LVU465
 1634              	@ 341 "SYS/task_manager/task_manager.c" 1
 1635 0004 DFF81C30 		LDR	  R3, CurrentTCBConst_Tmp3
 1636              	@ 0 "" 2
 342:SYS/task_manager/task_manager.c **** 
 1637              		.loc 1 342 5 view .LVU466
 1638              	@ 342 "SYS/task_manager/task_manager.c" 1
 1639 0008 1A68     		LDR    R2, [R3]
 1640              	@ 0 "" 2
 344:SYS/task_manager/task_manager.c **** 
 1641              		.loc 1 344 5 view .LVU467
 1642              	@ 344 "SYS/task_manager/task_manager.c" 1
 1643 000a BFF36F8F 		ISB
 1644              	@ 0 "" 2
 346:SYS/task_manager/task_manager.c ****     __ASM("STR      R0, [R2]");
 1645              		.loc 1 346 5 view .LVU468
 1646              	@ 346 "SYS/task_manager/task_manager.c" 1
 1647 000e 20E9F04F 		STMDB    R0!, {R4-R11, R14}
 1648              	@ 0 "" 2
 347:SYS/task_manager/task_manager.c **** 
 1649              		.loc 1 347 5 view .LVU469
 1650              	@ 347 "SYS/task_manager/task_manager.c" 1
 1651 0012 1060     		STR      R0, [R2]
 1652              	@ 0 "" 2
 350:SYS/task_manager/task_manager.c ****     __ASM("IT       EQ");
 1653              		.loc 1 350 5 view .LVU470
 1654              	@ 350 "SYS/task_manager/task_manager.c" 1
 1655 0014 1EF0100F 		TST      R14, #0x10
 1656              	@ 0 "" 2
 351:SYS/task_manager/task_manager.c ****     __ASM("VSTMDBEQ R0!, {s16-s31}");
 1657              		.loc 1 351 5 view .LVU471
 1658              	@ 351 "SYS/task_manager/task_manager.c" 1
 1659 0018 08BF     		IT       EQ
 1660              	@ 0 "" 2
 352:SYS/task_manager/task_manager.c ****     /******************************  FPU SECTION  *********************************/
 1661              		.loc 1 352 5 view .LVU472
ARM GAS  /var/folders/lx/hc4sn_b53233_zkc9xbbl97r0000gp/T//ccdoBicG.s 			page 52


 1662              	@ 352 "SYS/task_manager/task_manager.c" 1
 1663 001a 20ED108A 		VSTMDBEQ R0!, {s16-s31}
 1664              	@ 0 "" 2
 355:SYS/task_manager/task_manager.c ****     __ASM("BX       R14");
 1665              		.loc 1 355 5 view .LVU473
 1666              	@ 355 "SYS/task_manager/task_manager.c" 1
 1667 001e BFF36F8F 		ISB
 1668              	@ 0 "" 2
 356:SYS/task_manager/task_manager.c **** 
 1669              		.loc 1 356 5 view .LVU474
 1670              	@ 356 "SYS/task_manager/task_manager.c" 1
 1671 0022 7047     		BX       R14
 1672              	@ 0 "" 2
 358:SYS/task_manager/task_manager.c **** }
 1673              		.loc 1 358 5 view .LVU475
 1674              	@ 358 "SYS/task_manager/task_manager.c" 1
 1675 0024 00000000 		CurrentTCBConst_Tmp3: .word CurTsk_TCB
 1676              	@ 0 "" 2
 359:SYS/task_manager/task_manager.c **** 
 1677              		.loc 1 359 1 is_stmt 0 view .LVU476
 1678              		.thumb
 1679              		.syntax unified
 1680 0028 7047     		bx	lr
 1681              		.cfi_endproc
 1682              	.LFE140:
 1684              		.section	.text.Task_Load,"ax",%progbits
 1685              		.align	1
 1686              		.global	Task_Load
 1687              		.syntax unified
 1688              		.thumb
 1689              		.thumb_func
 1690              		.fpu fpv4-sp-d16
 1692              	Task_Load:
 1693              	.LFB141:
 362:SYS/task_manager/task_manager.c ****     __ASM("LDR	  R3, =CurTsk_TCB");
 1694              		.loc 1 362 1 is_stmt 1 view -0
 1695              		.cfi_startproc
 1696              		@ args = 0, pretend = 0, frame = 0
 1697              		@ frame_needed = 0, uses_anonymous_args = 0
 1698              		@ link register save eliminated.
 363:SYS/task_manager/task_manager.c ****     __ASM("LDR    R1, [R3]");
 1699              		.loc 1 363 5 view .LVU478
 1700              		.syntax unified
 1701              	@ 363 "SYS/task_manager/task_manager.c" 1
 1702 0000 084B     		LDR	  R3, =CurTsk_TCB
 1703              	@ 0 "" 2
 364:SYS/task_manager/task_manager.c ****     __ASM("LDR    R0, [R1]");
 1704              		.loc 1 364 5 view .LVU479
 1705              	@ 364 "SYS/task_manager/task_manager.c" 1
 1706 0002 1968     		LDR    R1, [R3]
 1707              	@ 0 "" 2
 365:SYS/task_manager/task_manager.c **** 
 1708              		.loc 1 365 5 view .LVU480
 1709              	@ 365 "SYS/task_manager/task_manager.c" 1
 1710 0004 0868     		LDR    R0, [R1]
 1711              	@ 0 "" 2
 367:SYS/task_manager/task_manager.c **** 
ARM GAS  /var/folders/lx/hc4sn_b53233_zkc9xbbl97r0000gp/T//ccdoBicG.s 			page 53


 1712              		.loc 1 367 5 view .LVU481
 1713              	@ 367 "SYS/task_manager/task_manager.c" 1
 1714 0006 B0E8F04F 		LDMIA  R0!, {R4-R11, R14}
 1715              	@ 0 "" 2
 370:SYS/task_manager/task_manager.c ****     __ASM("IT       EQ");
 1716              		.loc 1 370 5 view .LVU482
 1717              	@ 370 "SYS/task_manager/task_manager.c" 1
 1718 000a 1EF0100F 		TST      R14, #0x10
 1719              	@ 0 "" 2
 371:SYS/task_manager/task_manager.c ****     __ASM("VLDMIAEQ R0!, {s16-s31}");
 1720              		.loc 1 371 5 view .LVU483
 1721              	@ 371 "SYS/task_manager/task_manager.c" 1
 1722 000e 08BF     		IT       EQ
 1723              	@ 0 "" 2
 372:SYS/task_manager/task_manager.c ****     /******************************  FPU SECTION  *********************************/
 1724              		.loc 1 372 5 view .LVU484
 1725              	@ 372 "SYS/task_manager/task_manager.c" 1
 1726 0010 B0EC108A 		VLDMIAEQ R0!, {s16-s31}
 1727              	@ 0 "" 2
 375:SYS/task_manager/task_manager.c ****     __ASM("ISB");
 1728              		.loc 1 375 5 view .LVU485
 1729              	@ 375 "SYS/task_manager/task_manager.c" 1
 1730 0014 80F30988 		MSR    PSP, R0
 1731              	@ 0 "" 2
 376:SYS/task_manager/task_manager.c ****     //__ASM("MOV    R0, #240");
 1732              		.loc 1 376 5 view .LVU486
 1733              	@ 376 "SYS/task_manager/task_manager.c" 1
 1734 0018 BFF36F8F 		ISB
 1735              	@ 0 "" 2
 379:SYS/task_manager/task_manager.c ****     __ASM(".ALIGN 4");
 1736              		.loc 1 379 5 view .LVU487
 1737              	@ 379 "SYS/task_manager/task_manager.c" 1
 1738 001c 7047     		BX     R14
 1739              	@ 0 "" 2
 380:SYS/task_manager/task_manager.c **** }
 1740              		.loc 1 380 5 view .LVU488
 1741              	@ 380 "SYS/task_manager/task_manager.c" 1
 1742 001e 00BF     		.ALIGN 4
 1743              	@ 0 "" 2
 381:SYS/task_manager/task_manager.c **** 
 1744              		.loc 1 381 1 is_stmt 0 view .LVU489
 1745              		.thumb
 1746              		.syntax unified
 1747 0020 7047     		bx	lr
 1748              		.cfi_endproc
 1749              	.LFE141:
 1751 0022 0000     		.section	.text.Load_FirstTask,"ax",%progbits
 1752              		.align	1
 1753              		.global	Load_FirstTask
 1754              		.syntax unified
 1755              		.thumb
 1756              		.thumb_func
 1757              		.fpu fpv4-sp-d16
 1759              	Load_FirstTask:
 1760              	.LFB142:
 384:SYS/task_manager/task_manager.c ****     Task_Load();
 1761              		.loc 1 384 1 is_stmt 1 view -0
ARM GAS  /var/folders/lx/hc4sn_b53233_zkc9xbbl97r0000gp/T//ccdoBicG.s 			page 54


 1762              		.cfi_startproc
 1763              		@ args = 0, pretend = 0, frame = 0
 1764              		@ frame_needed = 0, uses_anonymous_args = 0
 1765 0000 08B5     		push	{r3, lr}
 1766              	.LCFI25:
 1767              		.cfi_def_cfa_offset 8
 1768              		.cfi_offset 3, -8
 1769              		.cfi_offset 14, -4
 385:SYS/task_manager/task_manager.c **** }
 1770              		.loc 1 385 5 view .LVU491
 1771 0002 FFF7FEFF 		bl	Task_Load
 1772              	.LVL94:
 386:SYS/task_manager/task_manager.c **** 
 1773              		.loc 1 386 1 is_stmt 0 view .LVU492
 1774 0006 08BD     		pop	{r3, pc}
 1775              		.cfi_endproc
 1776              	.LFE142:
 1778              		.section	.text.Task_SwitchContext,"ax",%progbits
 1779              		.align	1
 1780              		.global	Task_SwitchContext
 1781              		.syntax unified
 1782              		.thumb
 1783              		.thumb_func
 1784              		.fpu fpv4-sp-d16
 1786              	Task_SwitchContext:
 1787              	.LFB143:
 389:SYS/task_manager/task_manager.c ****     __ASM("MRS      R0, PSP");
 1788              		.loc 1 389 1 is_stmt 1 view -0
 1789              		.cfi_startproc
 1790              		@ args = 0, pretend = 0, frame = 0
 1791              		@ frame_needed = 0, uses_anonymous_args = 0
 1792              		@ link register save eliminated.
 390:SYS/task_manager/task_manager.c ****     __ASM("ISB");
 1793              		.loc 1 390 5 view .LVU494
 1794              		.syntax unified
 1795              	@ 390 "SYS/task_manager/task_manager.c" 1
 1796 0000 EFF30980 		MRS      R0, PSP
 1797              	@ 0 "" 2
 391:SYS/task_manager/task_manager.c **** 
 1798              		.loc 1 391 5 view .LVU495
 1799              	@ 391 "SYS/task_manager/task_manager.c" 1
 1800 0004 BFF36F8F 		ISB
 1801              	@ 0 "" 2
 393:SYS/task_manager/task_manager.c ****     __ASM("LDR      R2, [R3]");
 1802              		.loc 1 393 5 view .LVU496
 1803              	@ 393 "SYS/task_manager/task_manager.c" 1
 1804 0008 DFF85030 		LDR      R3, CurrentTCBConst_Tmp
 1805              	@ 0 "" 2
 394:SYS/task_manager/task_manager.c **** 
 1806              		.loc 1 394 5 view .LVU497
 1807              	@ 394 "SYS/task_manager/task_manager.c" 1
 1808 000c 1A68     		LDR      R2, [R3]
 1809              	@ 0 "" 2
 397:SYS/task_manager/task_manager.c ****     __ASM("IT       EQ");
 1810              		.loc 1 397 5 view .LVU498
 1811              	@ 397 "SYS/task_manager/task_manager.c" 1
 1812 000e 1EF0100F 		TST      R14, #0x10
ARM GAS  /var/folders/lx/hc4sn_b53233_zkc9xbbl97r0000gp/T//ccdoBicG.s 			page 55


 1813              	@ 0 "" 2
 398:SYS/task_manager/task_manager.c ****     __ASM("VSTMDBEQ R0!, {s16-s31}");
 1814              		.loc 1 398 5 view .LVU499
 1815              	@ 398 "SYS/task_manager/task_manager.c" 1
 1816 0012 08BF     		IT       EQ
 1817              	@ 0 "" 2
 399:SYS/task_manager/task_manager.c ****     /******************************  FPU SECTION  *********************************/
 1818              		.loc 1 399 5 view .LVU500
 1819              	@ 399 "SYS/task_manager/task_manager.c" 1
 1820 0014 20ED108A 		VSTMDBEQ R0!, {s16-s31}
 1821              	@ 0 "" 2
 402:SYS/task_manager/task_manager.c ****     __ASM("STR      R0, [R2]");
 1822              		.loc 1 402 5 view .LVU501
 1823              	@ 402 "SYS/task_manager/task_manager.c" 1
 1824 0018 20E9F04F 		STMDB    R0!, {R4-R11, R14}
 1825              	@ 0 "" 2
 403:SYS/task_manager/task_manager.c **** 
 1826              		.loc 1 403 5 view .LVU502
 1827              	@ 403 "SYS/task_manager/task_manager.c" 1
 1828 001c 1060     		STR      R0, [R2]
 1829              	@ 0 "" 2
 405:SYS/task_manager/task_manager.c ****     __ASM("MOV      R0, %0" ::"i"(0x50));
 1830              		.loc 1 405 5 view .LVU503
 1831              	@ 405 "SYS/task_manager/task_manager.c" 1
 1832 001e 2DE90900 		STMDB    SP!, {R0, R3}
 1833              	@ 0 "" 2
 406:SYS/task_manager/task_manager.c ****     __ASM("MSR      BASEPRI, R0");
 1834              		.loc 1 406 5 view .LVU504
 1835              	@ 406 "SYS/task_manager/task_manager.c" 1
 1836 0022 4FF05000 		MOV      R0, #80
 1837              	@ 0 "" 2
 407:SYS/task_manager/task_manager.c **** 
 1838              		.loc 1 407 5 view .LVU505
 1839              	@ 407 "SYS/task_manager/task_manager.c" 1
 1840 0026 80F31188 		MSR      BASEPRI, R0
 1841              	@ 0 "" 2
 409:SYS/task_manager/task_manager.c ****     __ASM("ISB");
 1842              		.loc 1 409 5 view .LVU506
 1843              	@ 409 "SYS/task_manager/task_manager.c" 1
 1844 002a BFF34F8F 		DSB
 1845              	@ 0 "" 2
 410:SYS/task_manager/task_manager.c **** 
 1846              		.loc 1 410 5 view .LVU507
 1847              	@ 410 "SYS/task_manager/task_manager.c" 1
 1848 002e BFF36F8F 		ISB
 1849              	@ 0 "" 2
 412:SYS/task_manager/task_manager.c **** 
 1850              		.loc 1 412 5 view .LVU508
 1851              	@ 412 "SYS/task_manager/task_manager.c" 1
 1852 0032 FFF7FEFF 		BL       Task_SwitchStack
 1853              	@ 0 "" 2
 414:SYS/task_manager/task_manager.c ****     __ASM("MSR      BASEPRI, R0");
 1854              		.loc 1 414 5 view .LVU509
 1855              	@ 414 "SYS/task_manager/task_manager.c" 1
 1856 0036 4FF00000 		MOV      R0, #0
 1857              	@ 0 "" 2
 415:SYS/task_manager/task_manager.c ****     __ASM("LDMIA    SP!, {R0, R3}");
ARM GAS  /var/folders/lx/hc4sn_b53233_zkc9xbbl97r0000gp/T//ccdoBicG.s 			page 56


 1858              		.loc 1 415 5 view .LVU510
 1859              	@ 415 "SYS/task_manager/task_manager.c" 1
 1860 003a 80F31188 		MSR      BASEPRI, R0
 1861              	@ 0 "" 2
 416:SYS/task_manager/task_manager.c **** 
 1862              		.loc 1 416 5 view .LVU511
 1863              	@ 416 "SYS/task_manager/task_manager.c" 1
 1864 003e 09BC     		LDMIA    SP!, {R0, R3}
 1865              	@ 0 "" 2
 418:SYS/task_manager/task_manager.c ****     __ASM("LDR      R0, [R1]");
 1866              		.loc 1 418 5 view .LVU512
 1867              	@ 418 "SYS/task_manager/task_manager.c" 1
 1868 0040 1968     		LDR      R1, [R3]
 1869              	@ 0 "" 2
 419:SYS/task_manager/task_manager.c **** 
 1870              		.loc 1 419 5 view .LVU513
 1871              	@ 419 "SYS/task_manager/task_manager.c" 1
 1872 0042 0868     		LDR      R0, [R1]
 1873              	@ 0 "" 2
 421:SYS/task_manager/task_manager.c **** 
 1874              		.loc 1 421 5 view .LVU514
 1875              	@ 421 "SYS/task_manager/task_manager.c" 1
 1876 0044 B0E8F04F 		LDMIA    R0!, {R4-R11, R14}
 1877              	@ 0 "" 2
 424:SYS/task_manager/task_manager.c ****     __ASM("IT       EQ");
 1878              		.loc 1 424 5 view .LVU515
 1879              	@ 424 "SYS/task_manager/task_manager.c" 1
 1880 0048 1EF0100F 		TST      R14, #0x10
 1881              	@ 0 "" 2
 425:SYS/task_manager/task_manager.c ****     __ASM("VLDMIAEQ R0!, {s16-s31}");
 1882              		.loc 1 425 5 view .LVU516
 1883              	@ 425 "SYS/task_manager/task_manager.c" 1
 1884 004c 08BF     		IT       EQ
 1885              	@ 0 "" 2
 426:SYS/task_manager/task_manager.c ****     /******************************  FPU SECTION  *********************************/
 1886              		.loc 1 426 5 view .LVU517
 1887              	@ 426 "SYS/task_manager/task_manager.c" 1
 1888 004e B0EC108A 		VLDMIAEQ R0!, {s16-s31}
 1889              	@ 0 "" 2
 429:SYS/task_manager/task_manager.c ****     __ASM("ISB");
 1890              		.loc 1 429 5 view .LVU518
 1891              	@ 429 "SYS/task_manager/task_manager.c" 1
 1892 0052 80F30988 		MSR      PSP,R0
 1893              	@ 0 "" 2
 430:SYS/task_manager/task_manager.c ****     //__ASM("MOV      R0, #240");
 1894              		.loc 1 430 5 view .LVU519
 1895              	@ 430 "SYS/task_manager/task_manager.c" 1
 1896 0056 BFF36F8F 		ISB
 1897              	@ 0 "" 2
 433:SYS/task_manager/task_manager.c **** 
 1898              		.loc 1 433 5 view .LVU520
 1899              	@ 433 "SYS/task_manager/task_manager.c" 1
 1900 005a 7047     		BX       R14
 1901              	@ 0 "" 2
 435:SYS/task_manager/task_manager.c ****     __ASM(".ALIGN 4");
 1902              		.loc 1 435 5 view .LVU521
 1903              	@ 435 "SYS/task_manager/task_manager.c" 1
ARM GAS  /var/folders/lx/hc4sn_b53233_zkc9xbbl97r0000gp/T//ccdoBicG.s 			page 57


 1904 005c 00000000 		CurrentTCBConst_Tmp: .word CurTsk_TCB
 1905              	@ 0 "" 2
 436:SYS/task_manager/task_manager.c **** }
 1906              		.loc 1 436 5 view .LVU522
 1907              	@ 436 "SYS/task_manager/task_manager.c" 1
 1908              		.ALIGN 4
 1909              	@ 0 "" 2
 437:SYS/task_manager/task_manager.c **** 
 1910              		.loc 1 437 1 is_stmt 0 view .LVU523
 1911              		.thumb
 1912              		.syntax unified
 1913 0060 7047     		bx	lr
 1914              		.cfi_endproc
 1915              	.LFE143:
 1917 0062 00BF     		.section	.text.Task_Get_HighestRank_RdyTask,"ax",%progbits
 1918              		.align	1
 1919              		.global	Task_Get_HighestRank_RdyTask
 1920              		.syntax unified
 1921              		.thumb
 1922              		.thumb_func
 1923              		.fpu fpv4-sp-d16
 1925              	Task_Get_HighestRank_RdyTask:
 1926              	.LFB149:
 526:SYS/task_manager/task_manager.c ****     uint8_t grp_id = 0;
 1927              		.loc 1 526 1 is_stmt 1 view -0
 1928              		.cfi_startproc
 1929              		@ args = 0, pretend = 0, frame = 0
 1930              		@ frame_needed = 0, uses_anonymous_args = 0
 527:SYS/task_manager/task_manager.c ****     uint8_t tsk_id = 0;
 1931              		.loc 1 527 5 view .LVU525
 1932              	.LVL95:
 528:SYS/task_manager/task_manager.c **** 
 1933              		.loc 1 528 5 view .LVU526
 530:SYS/task_manager/task_manager.c ****     {
 1934              		.loc 1 530 5 view .LVU527
 530:SYS/task_manager/task_manager.c ****     {
 1935              		.loc 1 530 26 is_stmt 0 view .LVU528
 1936 0000 144B     		ldr	r3, .L130
 1937 0002 1B78     		ldrb	r3, [r3]	@ zero_extendqisi2
 530:SYS/task_manager/task_manager.c ****     {
 1938              		.loc 1 530 8 view .LVU529
 1939 0004 1BB3     		cbz	r3, .L124
 533:SYS/task_manager/task_manager.c ****         //find task in group
 1940              		.loc 1 533 9 is_stmt 1 view .LVU530
 533:SYS/task_manager/task_manager.c ****         //find task in group
 1941              		.loc 1 533 46 is_stmt 0 view .LVU531
 1942 0006 134B     		ldr	r3, .L130
 1943 0008 1A78     		ldrb	r2, [r3]	@ zero_extendqisi2
 1944 000a D2B2     		uxtb	r2, r2
 533:SYS/task_manager/task_manager.c ****         //find task in group
 1945              		.loc 1 533 16 view .LVU532
 1946 000c 1249     		ldr	r1, .L130+4
 1947 000e 8A5C     		ldrb	r2, [r1, r2]	@ zero_extendqisi2
 1948              	.LVL96:
 535:SYS/task_manager/task_manager.c ****     }
 1949              		.loc 1 535 9 is_stmt 1 view .LVU533
 535:SYS/task_manager/task_manager.c ****     }
ARM GAS  /var/folders/lx/hc4sn_b53233_zkc9xbbl97r0000gp/T//ccdoBicG.s 			page 58


 1950              		.loc 1 535 59 is_stmt 0 view .LVU534
 1951 0010 1344     		add	r3, r3, r2
 1952 0012 5B78     		ldrb	r3, [r3, #1]	@ zero_extendqisi2
 1953 0014 DBB2     		uxtb	r3, r3
 535:SYS/task_manager/task_manager.c ****     }
 1954              		.loc 1 535 16 view .LVU535
 1955 0016 CB5C     		ldrb	r3, [r1, r3]	@ zero_extendqisi2
 1956              	.LVL97:
 540:SYS/task_manager/task_manager.c ****     {
 1957              		.loc 1 540 5 is_stmt 1 view .LVU536
 540:SYS/task_manager/task_manager.c ****     {
 1958              		.loc 1 540 25 is_stmt 0 view .LVU537
 1959 0018 03EBC200 		add	r0, r3, r2, lsl #3
 1960 001c 0F49     		ldr	r1, .L130+8
 1961 001e 51F82000 		ldr	r0, [r1, r0, lsl #2]
 540:SYS/task_manager/task_manager.c ****     {
 1962              		.loc 1 540 8 view .LVU538
 1963 0022 00B1     		cbz	r0, .L129
 550:SYS/task_manager/task_manager.c **** 
 1964              		.loc 1 550 1 view .LVU539
 1965 0024 7047     		bx	lr
 1966              	.L129:
 526:SYS/task_manager/task_manager.c ****     uint8_t grp_id = 0;
 1967              		.loc 1 526 1 view .LVU540
 1968 0026 10B5     		push	{r4, lr}
 1969              	.LCFI26:
 1970              		.cfi_def_cfa_offset 8
 1971              		.cfi_offset 4, -8
 1972              		.cfi_offset 14, -4
 546:SYS/task_manager/task_manager.c ****         TskHdl_RdyMap.TskInGrp[grp_id].Flg &= ~(1 << tsk_id);
 1973              		.loc 1 546 9 is_stmt 1 view .LVU541
 546:SYS/task_manager/task_manager.c ****         TskHdl_RdyMap.TskInGrp[grp_id].Flg &= ~(1 << tsk_id);
 1974              		.loc 1 546 31 is_stmt 0 view .LVU542
 1975 0028 0A49     		ldr	r1, .L130
 1976 002a 91F800E0 		ldrb	lr, [r1]	@ zero_extendqisi2
 546:SYS/task_manager/task_manager.c ****         TskHdl_RdyMap.TskInGrp[grp_id].Flg &= ~(1 << tsk_id);
 1977              		.loc 1 546 38 view .LVU543
 1978 002e 4FF0010C 		mov	ip, #1
 1979 0032 0CFA02F4 		lsl	r4, ip, r2
 546:SYS/task_manager/task_manager.c ****         TskHdl_RdyMap.TskInGrp[grp_id].Flg &= ~(1 << tsk_id);
 1980              		.loc 1 546 31 view .LVU544
 1981 0036 2EEA040E 		bic	lr, lr, r4
 1982 003a 81F800E0 		strb	lr, [r1]
 547:SYS/task_manager/task_manager.c ****         return NULL;
 1983              		.loc 1 547 9 is_stmt 1 view .LVU545
 547:SYS/task_manager/task_manager.c ****         return NULL;
 1984              		.loc 1 547 44 is_stmt 0 view .LVU546
 1985 003e 0A44     		add	r2, r2, r1
 1986 0040 5178     		ldrb	r1, [r2, #1]	@ zero_extendqisi2
 547:SYS/task_manager/task_manager.c ****         return NULL;
 1987              		.loc 1 547 51 view .LVU547
 1988 0042 0CFA03F3 		lsl	r3, ip, r3
 547:SYS/task_manager/task_manager.c ****         return NULL;
 1989              		.loc 1 547 44 view .LVU548
 1990 0046 21EA0303 		bic	r3, r1, r3
 1991 004a 5370     		strb	r3, [r2, #1]
 548:SYS/task_manager/task_manager.c ****     }
ARM GAS  /var/folders/lx/hc4sn_b53233_zkc9xbbl97r0000gp/T//ccdoBicG.s 			page 59


 1992              		.loc 1 548 9 is_stmt 1 view .LVU549
 550:SYS/task_manager/task_manager.c **** 
 1993              		.loc 1 550 1 is_stmt 0 view .LVU550
 1994 004c 10BD     		pop	{r4, pc}
 1995              	.LVL98:
 1996              	.L124:
 1997              	.LCFI27:
 1998              		.cfi_def_cfa_offset 0
 1999              		.cfi_restore 4
 2000              		.cfi_restore 14
 538:SYS/task_manager/task_manager.c **** 
 2001              		.loc 1 538 16 view .LVU551
 2002 004e 0020     		movs	r0, #0
 2003 0050 7047     		bx	lr
 2004              	.L131:
 2005 0052 00BF     		.align	2
 2006              	.L130:
 2007 0054 00000000 		.word	.LANCHOR0
 2008 0058 00000000 		.word	.LANCHOR14
 2009 005c 00000000 		.word	.LANCHOR4
 2010              		.cfi_endproc
 2011              	.LFE149:
 2013              		.section	.text.Task_SetNextTask_Ptr,"ax",%progbits
 2014              		.align	1
 2015              		.global	Task_SetNextTask_Ptr
 2016              		.syntax unified
 2017              		.thumb
 2018              		.thumb_func
 2019              		.fpu fpv4-sp-d16
 2021              	Task_SetNextTask_Ptr:
 2022              	.LVL99:
 2023              	.LFB150:
 553:SYS/task_manager/task_manager.c ****     if (nxt != NULL)
 2024              		.loc 1 553 1 is_stmt 1 view -0
 2025              		.cfi_startproc
 2026              		@ args = 0, pretend = 0, frame = 0
 2027              		@ frame_needed = 0, uses_anonymous_args = 0
 2028              		@ link register save eliminated.
 554:SYS/task_manager/task_manager.c ****     {
 2029              		.loc 1 554 5 view .LVU553
 554:SYS/task_manager/task_manager.c ****     {
 2030              		.loc 1 554 8 is_stmt 0 view .LVU554
 2031 0000 38B1     		cbz	r0, .L132
 556:SYS/task_manager/task_manager.c ****         NxtTsk_TCB.Top_Stk_Ptr = &NxtRunTsk_Ptr->TCB.Top_Stk_Ptr;
 2032              		.loc 1 556 9 is_stmt 1 view .LVU555
 556:SYS/task_manager/task_manager.c ****         NxtTsk_TCB.Top_Stk_Ptr = &NxtRunTsk_Ptr->TCB.Top_Stk_Ptr;
 2033              		.loc 1 556 23 is_stmt 0 view .LVU556
 2034 0002 044A     		ldr	r2, .L134
 2035 0004 1060     		str	r0, [r2]
 557:SYS/task_manager/task_manager.c ****         NxtTsk_TCB.Stack = NxtRunTsk_Ptr->TCB.Stack;
 2036              		.loc 1 557 9 is_stmt 1 view .LVU557
 557:SYS/task_manager/task_manager.c ****         NxtTsk_TCB.Stack = NxtRunTsk_Ptr->TCB.Stack;
 2037              		.loc 1 557 34 is_stmt 0 view .LVU558
 2038 0006 00F15001 		add	r1, r0, #80
 557:SYS/task_manager/task_manager.c ****         NxtTsk_TCB.Stack = NxtRunTsk_Ptr->TCB.Stack;
 2039              		.loc 1 557 32 view .LVU559
 2040 000a 034A     		ldr	r2, .L134+4
ARM GAS  /var/folders/lx/hc4sn_b53233_zkc9xbbl97r0000gp/T//ccdoBicG.s 			page 60


 2041 000c 1160     		str	r1, [r2]
 558:SYS/task_manager/task_manager.c ****     }
 2042              		.loc 1 558 9 is_stmt 1 view .LVU560
 558:SYS/task_manager/task_manager.c ****     }
 2043              		.loc 1 558 46 is_stmt 0 view .LVU561
 2044 000e 436D     		ldr	r3, [r0, #84]
 558:SYS/task_manager/task_manager.c ****     }
 2045              		.loc 1 558 26 view .LVU562
 2046 0010 5360     		str	r3, [r2, #4]
 2047              	.L132:
 560:SYS/task_manager/task_manager.c **** 
 2048              		.loc 1 560 1 view .LVU563
 2049 0012 7047     		bx	lr
 2050              	.L135:
 2051              		.align	2
 2052              	.L134:
 2053 0014 00000000 		.word	.LANCHOR11
 2054 0018 00000000 		.word	.LANCHOR12
 2055              		.cfi_endproc
 2056              	.LFE150:
 2058              		.section	.text.Task_TriggerPendSV,"ax",%progbits
 2059              		.align	1
 2060              		.global	Task_TriggerPendSV
 2061              		.syntax unified
 2062              		.thumb
 2063              		.thumb_func
 2064              		.fpu fpv4-sp-d16
 2066              	Task_TriggerPendSV:
 2067              	.LFB152:
 588:SYS/task_manager/task_manager.c ****     __ASM(".equ NVIC_INT_CTRL, 0xE000ED04");
 2068              		.loc 1 588 1 is_stmt 1 view -0
 2069              		.cfi_startproc
 2070              		@ Naked Function: prologue and epilogue provided by programmer.
 2071              		@ args = 0, pretend = 0, frame = 0
 2072              		@ frame_needed = 0, uses_anonymous_args = 0
 589:SYS/task_manager/task_manager.c ****     __ASM(".equ NVIC_PENDSVSET, 0x10000000");
 2073              		.loc 1 589 5 view .LVU565
 2074              		.syntax unified
 2075              	@ 589 "SYS/task_manager/task_manager.c" 1
 2076              		.equ NVIC_INT_CTRL, 0xE000ED04
 2077              	@ 0 "" 2
 590:SYS/task_manager/task_manager.c **** 
 2078              		.loc 1 590 5 view .LVU566
 2079              	@ 590 "SYS/task_manager/task_manager.c" 1
 2080              		.equ NVIC_PENDSVSET, 0x10000000
 2081              	@ 0 "" 2
 592:SYS/task_manager/task_manager.c ****     __ASM("LDR      R1, =NVIC_PENDSVSET");
 2082              		.loc 1 592 5 view .LVU567
 2083              	@ 592 "SYS/task_manager/task_manager.c" 1
 2084 0000 0248     		LDR      R0, =NVIC_INT_CTRL
 2085              	@ 0 "" 2
 593:SYS/task_manager/task_manager.c ****     __ASM("STR      R1, [R0]");
 2086              		.loc 1 593 5 view .LVU568
 2087              	@ 593 "SYS/task_manager/task_manager.c" 1
 2088 0002 4FF08051 		LDR      R1, =NVIC_PENDSVSET
 2089              	@ 0 "" 2
 594:SYS/task_manager/task_manager.c ****     __ASM("BX       LR");
ARM GAS  /var/folders/lx/hc4sn_b53233_zkc9xbbl97r0000gp/T//ccdoBicG.s 			page 61


 2090              		.loc 1 594 5 view .LVU569
 2091              	@ 594 "SYS/task_manager/task_manager.c" 1
 2092 0006 0160     		STR      R1, [R0]
 2093              	@ 0 "" 2
 595:SYS/task_manager/task_manager.c **** }
 2094              		.loc 1 595 5 view .LVU570
 2095              	@ 595 "SYS/task_manager/task_manager.c" 1
 2096 0008 7047     		BX       LR
 2097              	@ 0 "" 2
 596:SYS/task_manager/task_manager.c **** 
 2098              		.loc 1 596 1 is_stmt 0 view .LVU571
 2099              		.thumb
 2100              		.syntax unified
 2101              		.cfi_endproc
 2102              	.LFE152:
 2104 000a 0000     		.section	.text.Task_Scheduler,"ax",%progbits
 2105              		.align	1
 2106              		.global	Task_Scheduler
 2107              		.syntax unified
 2108              		.thumb
 2109              		.thumb_func
 2110              		.fpu fpv4-sp-d16
 2112              	Task_Scheduler:
 2113              	.LFB172:
 996:SYS/task_manager/task_manager.c **** 
 997:SYS/task_manager/task_manager.c **** void Task_Scheduler(void)
 998:SYS/task_manager/task_manager.c **** {
 2114              		.loc 1 998 1 is_stmt 1 view -0
 2115              		.cfi_startproc
 2116              		@ args = 0, pretend = 0, frame = 0
 2117              		@ frame_needed = 0, uses_anonymous_args = 0
 999:SYS/task_manager/task_manager.c ****     if (TskSys_state != TaskSys_Start)
 2118              		.loc 1 999 5 view .LVU573
 2119              		.loc 1 999 22 is_stmt 0 view .LVU574
 2120 0000 4B4B     		ldr	r3, .L156
 2121 0002 1B78     		ldrb	r3, [r3]	@ zero_extendqisi2
 2122 0004 DBB2     		uxtb	r3, r3
 2123              		.loc 1 999 8 view .LVU575
 2124 0006 022B     		cmp	r3, #2
 2125 0008 00D0     		beq	.L150
 2126 000a 7047     		bx	lr
 2127              	.L150:
 998:SYS/task_manager/task_manager.c ****     if (TskSys_state != TaskSys_Start)
 2128              		.loc 1 998 1 view .LVU576
 2129 000c 70B5     		push	{r4, r5, r6, lr}
 2130              	.LCFI28:
 2131              		.cfi_def_cfa_offset 16
 2132              		.cfi_offset 4, -16
 2133              		.cfi_offset 5, -12
 2134              		.cfi_offset 6, -8
 2135              		.cfi_offset 14, -4
1000:SYS/task_manager/task_manager.c ****         return;
1001:SYS/task_manager/task_manager.c **** 
1002:SYS/task_manager/task_manager.c ****     List_traverse(&TskCrt_RegList.list, Task_CrtList_TraversePoll_callback, NULL, sub_callback);
 2136              		.loc 1 1002 5 is_stmt 1 view .LVU577
 2137 000e 0123     		movs	r3, #1
 2138 0010 0022     		movs	r2, #0
ARM GAS  /var/folders/lx/hc4sn_b53233_zkc9xbbl97r0000gp/T//ccdoBicG.s 			page 62


 2139 0012 4849     		ldr	r1, .L156+4
 2140 0014 4848     		ldr	r0, .L156+8
 2141 0016 FFF7FEFF 		bl	List_traverse
 2142              	.LVL100:
1003:SYS/task_manager/task_manager.c **** 
1004:SYS/task_manager/task_manager.c ****     NxtRunTsk_Ptr = Task_Get_HighestRank_RdyTask();
 2143              		.loc 1 1004 5 view .LVU578
 2144              		.loc 1 1004 21 is_stmt 0 view .LVU579
 2145 001a FFF7FEFF 		bl	Task_Get_HighestRank_RdyTask
 2146              	.LVL101:
 2147              		.loc 1 1004 19 view .LVU580
 2148 001e 474B     		ldr	r3, .L156+12
 2149 0020 1860     		str	r0, [r3]
1005:SYS/task_manager/task_manager.c **** 
1006:SYS/task_manager/task_manager.c **** #if (TASK_SCHEDULER_TYPE == PREEMPTIVE_SCHDULER)
1007:SYS/task_manager/task_manager.c **** 
1008:SYS/task_manager/task_manager.c ****     PndHstTsk_Ptr = Task_Get_HighestRank_PndTask();
 2150              		.loc 1 1008 5 is_stmt 1 view .LVU581
 2151              		.loc 1 1008 21 is_stmt 0 view .LVU582
 2152 0022 FFF7FEFF 		bl	Task_Get_HighestRank_PndTask
 2153              	.LVL102:
 2154 0026 0446     		mov	r4, r0
 2155              		.loc 1 1008 19 view .LVU583
 2156 0028 454B     		ldr	r3, .L156+16
 2157 002a 1860     		str	r0, [r3]
1009:SYS/task_manager/task_manager.c **** 
1010:SYS/task_manager/task_manager.c ****     if (CurRunTsk_Ptr == NULL)
 2158              		.loc 1 1010 5 is_stmt 1 view .LVU584
 2159              		.loc 1 1010 23 is_stmt 0 view .LVU585
 2160 002c 454B     		ldr	r3, .L156+20
 2161 002e 1D68     		ldr	r5, [r3]
 2162              		.loc 1 1010 8 view .LVU586
 2163 0030 5DB1     		cbz	r5, .L151
1011:SYS/task_manager/task_manager.c ****     {
1012:SYS/task_manager/task_manager.c ****         if (PndHstTsk_Ptr == NULL)
1013:SYS/task_manager/task_manager.c ****         {
1014:SYS/task_manager/task_manager.c ****             //Current Run task Pointer is Null also no task In pending mode
1015:SYS/task_manager/task_manager.c ****             //set CurRunTsk_Ptr to NxtRunTsk_Ptr
1016:SYS/task_manager/task_manager.c ****             if (NxtRunTsk_Ptr != NULL)
1017:SYS/task_manager/task_manager.c ****             {
1018:SYS/task_manager/task_manager.c ****                 NxtTsk_TCB.Top_Stk_Ptr = &NxtRunTsk_Ptr->TCB.Top_Stk_Ptr;
1019:SYS/task_manager/task_manager.c ****                 NxtTsk_TCB.Stack = NxtRunTsk_Ptr->TCB.Stack;
1020:SYS/task_manager/task_manager.c **** 
1021:SYS/task_manager/task_manager.c ****                 Task_TriggerPendSV();
1022:SYS/task_manager/task_manager.c ****                 return;
1023:SYS/task_manager/task_manager.c ****             }
1024:SYS/task_manager/task_manager.c ****             else
1025:SYS/task_manager/task_manager.c ****             {
1026:SYS/task_manager/task_manager.c ****                 //doing idle function
1027:SYS/task_manager/task_manager.c ****                 Task_Idle();
1028:SYS/task_manager/task_manager.c ****             }
1029:SYS/task_manager/task_manager.c ****         }
1030:SYS/task_manager/task_manager.c ****         else
1031:SYS/task_manager/task_manager.c ****         {
1032:SYS/task_manager/task_manager.c ****             if (NxtRunTsk_Ptr != NULL)
1033:SYS/task_manager/task_manager.c ****             {
1034:SYS/task_manager/task_manager.c ****                 //if has NxtRunTsk_Ptr is not NULL also have task in pending state
ARM GAS  /var/folders/lx/hc4sn_b53233_zkc9xbbl97r0000gp/T//ccdoBicG.s 			page 63


1035:SYS/task_manager/task_manager.c ****                 //then get the highest priority task in pend list
1036:SYS/task_manager/task_manager.c ****                 //compare with NxtRunTsk_Ptr
1037:SYS/task_manager/task_manager.c ****                 if (Task_PriorityCompare(NxtRunTsk_Ptr, PndHstTsk_Ptr) == PndHstTsk_Ptr)
1038:SYS/task_manager/task_manager.c ****                 {
1039:SYS/task_manager/task_manager.c ****                     PndHstTsk_Ptr->Exec_status.State = Task_Stop;
1040:SYS/task_manager/task_manager.c ****                     NxtRunTsk_Ptr = PndHstTsk_Ptr;
1041:SYS/task_manager/task_manager.c **** 
1042:SYS/task_manager/task_manager.c ****                     Task_ClearPending(NxtRunTsk_Ptr);
1043:SYS/task_manager/task_manager.c ****                 }
1044:SYS/task_manager/task_manager.c ****             }
1045:SYS/task_manager/task_manager.c ****             else
1046:SYS/task_manager/task_manager.c ****             {
1047:SYS/task_manager/task_manager.c ****                 //if NxtRunTsk_Ptr is NULL
1048:SYS/task_manager/task_manager.c ****                 //then set NxtRunTsk_Ptr PndHstTsk_Ptr
1049:SYS/task_manager/task_manager.c ****                 PndHstTsk_Ptr->Exec_status.State = Task_Stop;
1050:SYS/task_manager/task_manager.c ****                 NxtRunTsk_Ptr = PndHstTsk_Ptr;
1051:SYS/task_manager/task_manager.c **** 
1052:SYS/task_manager/task_manager.c ****                 Task_ClearPending(NxtRunTsk_Ptr);
1053:SYS/task_manager/task_manager.c ****             }
1054:SYS/task_manager/task_manager.c **** 
1055:SYS/task_manager/task_manager.c ****             NxtTsk_TCB.Top_Stk_Ptr = &NxtRunTsk_Ptr->TCB.Top_Stk_Ptr;
1056:SYS/task_manager/task_manager.c ****             NxtTsk_TCB.Stack = NxtRunTsk_Ptr->TCB.Stack;
1057:SYS/task_manager/task_manager.c **** 
1058:SYS/task_manager/task_manager.c ****             Task_TriggerPendSV();
1059:SYS/task_manager/task_manager.c ****             return;
1060:SYS/task_manager/task_manager.c ****         }
1061:SYS/task_manager/task_manager.c ****     }
1062:SYS/task_manager/task_manager.c ****     else
1063:SYS/task_manager/task_manager.c ****     {
1064:SYS/task_manager/task_manager.c ****         if (CurRunTsk_Ptr != NxtRunTsk_Ptr)
 2164              		.loc 1 1064 9 is_stmt 1 view .LVU587
 2165              		.loc 1 1064 27 is_stmt 0 view .LVU588
 2166 0032 424B     		ldr	r3, .L156+12
 2167 0034 1E68     		ldr	r6, [r3]
 2168              		.loc 1 1064 12 view .LVU589
 2169 0036 B542     		cmp	r5, r6
 2170 0038 5ED0     		beq	.L144
1065:SYS/task_manager/task_manager.c ****         {
1066:SYS/task_manager/task_manager.c ****             if ((NxtRunTsk_Ptr != NULL) && (Task_PriorityCompare(CurRunTsk_Ptr, NxtRunTsk_Ptr) == N
 2171              		.loc 1 1066 13 is_stmt 1 view .LVU590
 2172              		.loc 1 1066 16 is_stmt 0 view .LVU591
 2173 003a 2EB1     		cbz	r6, .L137
 2174              		.loc 1 1066 45 discriminator 1 view .LVU592
 2175 003c 3146     		mov	r1, r6
 2176 003e 2846     		mov	r0, r5
 2177 0040 FFF7FEFF 		bl	Task_PriorityCompare
 2178              	.LVL103:
 2179              		.loc 1 1066 41 discriminator 1 view .LVU593
 2180 0044 8642     		cmp	r6, r0
 2181 0046 35D0     		beq	.L152
 2182              	.L137:
1067:SYS/task_manager/task_manager.c ****             {
1068:SYS/task_manager/task_manager.c ****                 //if NxtRunTsk_Ptr group priority is higher then CurRunTsk_Ptr also PndHstTsk_Ptr
1069:SYS/task_manager/task_manager.c ****                 //set current run task as pending state first
1070:SYS/task_manager/task_manager.c ****                 Task_SetPending(CurRunTsk_Ptr);
1071:SYS/task_manager/task_manager.c ****                 Task_ClearReady(CurRunTsk_Ptr);
1072:SYS/task_manager/task_manager.c **** 
ARM GAS  /var/folders/lx/hc4sn_b53233_zkc9xbbl97r0000gp/T//ccdoBicG.s 			page 64


1073:SYS/task_manager/task_manager.c ****                 //get the highset priority task in pending list
1074:SYS/task_manager/task_manager.c ****                 //if PndHstTsk_Ptr is not NULL
1075:SYS/task_manager/task_manager.c ****                 //then compare the priority between the NxtRunTsk_Ptr and PndHstTsk_Ptr
1076:SYS/task_manager/task_manager.c ****                 if (PndHstTsk_Ptr != NULL)
1077:SYS/task_manager/task_manager.c ****                 {
1078:SYS/task_manager/task_manager.c ****                     if (Task_PriorityCompare(PndHstTsk_Ptr, NxtRunTsk_Ptr) == PndHstTsk_Ptr)
1079:SYS/task_manager/task_manager.c ****                     {
1080:SYS/task_manager/task_manager.c ****                         NxtRunTsk_Ptr = PndHstTsk_Ptr;
1081:SYS/task_manager/task_manager.c ****                     }
1082:SYS/task_manager/task_manager.c ****                 }
1083:SYS/task_manager/task_manager.c **** 
1084:SYS/task_manager/task_manager.c ****                 Task_SetReady(NxtRunTsk_Ptr);
1085:SYS/task_manager/task_manager.c ****                 NxtTsk_TCB.Top_Stk_Ptr = &NxtRunTsk_Ptr->TCB.Top_Stk_Ptr;
1086:SYS/task_manager/task_manager.c ****                 NxtTsk_TCB.Stack = NxtRunTsk_Ptr->TCB.Stack;
1087:SYS/task_manager/task_manager.c **** 
1088:SYS/task_manager/task_manager.c ****                 Task_TriggerPendSV();
1089:SYS/task_manager/task_manager.c ****                 return;
1090:SYS/task_manager/task_manager.c ****             }
1091:SYS/task_manager/task_manager.c ****         }
1092:SYS/task_manager/task_manager.c ****         else
1093:SYS/task_manager/task_manager.c ****         {
1094:SYS/task_manager/task_manager.c ****             //compare with the highest priority pending task
1095:SYS/task_manager/task_manager.c ****             if ((PndHstTsk_Ptr != NULL) && (Task_PriorityCompare(CurRunTsk_Ptr, NxtRunTsk_Ptr) == P
1096:SYS/task_manager/task_manager.c ****             {
1097:SYS/task_manager/task_manager.c ****                 //if PndHstTsk_Ptr group priority is higher then CurRunTsk_Ptr
1098:SYS/task_manager/task_manager.c ****                 //set current run task as pending state first
1099:SYS/task_manager/task_manager.c ****                 Task_SetPending(CurRunTsk_Ptr);
1100:SYS/task_manager/task_manager.c ****                 Task_SetReady(PndHstTsk_Ptr);
1101:SYS/task_manager/task_manager.c **** 
1102:SYS/task_manager/task_manager.c ****                 NxtRunTsk_Ptr = PndHstTsk_Ptr;
1103:SYS/task_manager/task_manager.c ****                 NxtTsk_TCB.Top_Stk_Ptr = &NxtRunTsk_Ptr->TCB.Top_Stk_Ptr;
1104:SYS/task_manager/task_manager.c ****                 NxtTsk_TCB.Stack = NxtRunTsk_Ptr->TCB.Stack;
1105:SYS/task_manager/task_manager.c **** 
1106:SYS/task_manager/task_manager.c ****                 Task_TriggerPendSV();
1107:SYS/task_manager/task_manager.c ****                 return;
1108:SYS/task_manager/task_manager.c ****             }
1109:SYS/task_manager/task_manager.c ****         }
1110:SYS/task_manager/task_manager.c ****     }
1111:SYS/task_manager/task_manager.c **** #else
1112:SYS/task_manager/task_manager.c ****     Task_TriggerPendSV();
1113:SYS/task_manager/task_manager.c **** #endif
1114:SYS/task_manager/task_manager.c **** }
 2183              		.loc 1 1114 1 view .LVU594
 2184 0048 70BD     		pop	{r4, r5, r6, pc}
 2185              	.L151:
1012:SYS/task_manager/task_manager.c ****         {
 2186              		.loc 1 1012 9 is_stmt 1 view .LVU595
1012:SYS/task_manager/task_manager.c ****         {
 2187              		.loc 1 1012 12 is_stmt 0 view .LVU596
 2188 004a 90B1     		cbz	r0, .L153
1032:SYS/task_manager/task_manager.c ****             {
 2189              		.loc 1 1032 13 is_stmt 1 view .LVU597
1032:SYS/task_manager/task_manager.c ****             {
 2190              		.loc 1 1032 31 is_stmt 0 view .LVU598
 2191 004c 3B4B     		ldr	r3, .L156+12
 2192 004e 1868     		ldr	r0, [r3]
1032:SYS/task_manager/task_manager.c ****             {
ARM GAS  /var/folders/lx/hc4sn_b53233_zkc9xbbl97r0000gp/T//ccdoBicG.s 			page 65


 2193              		.loc 1 1032 16 view .LVU599
 2194 0050 38B3     		cbz	r0, .L142
1037:SYS/task_manager/task_manager.c ****                 {
 2195              		.loc 1 1037 17 is_stmt 1 view .LVU600
1037:SYS/task_manager/task_manager.c ****                 {
 2196              		.loc 1 1037 21 is_stmt 0 view .LVU601
 2197 0052 2146     		mov	r1, r4
 2198 0054 FFF7FEFF 		bl	Task_PriorityCompare
 2199              	.LVL104:
1037:SYS/task_manager/task_manager.c ****                 {
 2200              		.loc 1 1037 20 view .LVU602
 2201 0058 8442     		cmp	r4, r0
 2202 005a 19D0     		beq	.L154
 2203              	.L143:
1055:SYS/task_manager/task_manager.c ****             NxtTsk_TCB.Stack = NxtRunTsk_Ptr->TCB.Stack;
 2204              		.loc 1 1055 13 is_stmt 1 view .LVU603
1055:SYS/task_manager/task_manager.c ****             NxtTsk_TCB.Stack = NxtRunTsk_Ptr->TCB.Stack;
 2205              		.loc 1 1055 52 is_stmt 0 view .LVU604
 2206 005c 374B     		ldr	r3, .L156+12
 2207 005e 1A68     		ldr	r2, [r3]
1055:SYS/task_manager/task_manager.c ****             NxtTsk_TCB.Stack = NxtRunTsk_Ptr->TCB.Stack;
 2208              		.loc 1 1055 38 view .LVU605
 2209 0060 02F15001 		add	r1, r2, #80
1055:SYS/task_manager/task_manager.c ****             NxtTsk_TCB.Stack = NxtRunTsk_Ptr->TCB.Stack;
 2210              		.loc 1 1055 36 view .LVU606
 2211 0064 384B     		ldr	r3, .L156+24
 2212 0066 1960     		str	r1, [r3]
1056:SYS/task_manager/task_manager.c **** 
 2213              		.loc 1 1056 13 is_stmt 1 view .LVU607
1056:SYS/task_manager/task_manager.c **** 
 2214              		.loc 1 1056 50 is_stmt 0 view .LVU608
 2215 0068 526D     		ldr	r2, [r2, #84]
1056:SYS/task_manager/task_manager.c **** 
 2216              		.loc 1 1056 30 view .LVU609
 2217 006a 5A60     		str	r2, [r3, #4]
1058:SYS/task_manager/task_manager.c ****             return;
 2218              		.loc 1 1058 13 is_stmt 1 view .LVU610
 2219 006c FFF7FEFF 		bl	Task_TriggerPendSV
 2220              	.LVL105:
1059:SYS/task_manager/task_manager.c ****         }
 2221              		.loc 1 1059 13 view .LVU611
 2222 0070 EAE7     		b	.L137
 2223              	.L153:
1016:SYS/task_manager/task_manager.c ****             {
 2224              		.loc 1 1016 13 view .LVU612
1016:SYS/task_manager/task_manager.c ****             {
 2225              		.loc 1 1016 31 is_stmt 0 view .LVU613
 2226 0072 324B     		ldr	r3, .L156+12
 2227 0074 1B68     		ldr	r3, [r3]
1016:SYS/task_manager/task_manager.c ****             {
 2228              		.loc 1 1016 16 view .LVU614
 2229 0076 43B1     		cbz	r3, .L141
1018:SYS/task_manager/task_manager.c ****                 NxtTsk_TCB.Stack = NxtRunTsk_Ptr->TCB.Stack;
 2230              		.loc 1 1018 17 is_stmt 1 view .LVU615
1018:SYS/task_manager/task_manager.c ****                 NxtTsk_TCB.Stack = NxtRunTsk_Ptr->TCB.Stack;
 2231              		.loc 1 1018 42 is_stmt 0 view .LVU616
 2232 0078 03F15001 		add	r1, r3, #80
ARM GAS  /var/folders/lx/hc4sn_b53233_zkc9xbbl97r0000gp/T//ccdoBicG.s 			page 66


1018:SYS/task_manager/task_manager.c ****                 NxtTsk_TCB.Stack = NxtRunTsk_Ptr->TCB.Stack;
 2233              		.loc 1 1018 40 view .LVU617
 2234 007c 324A     		ldr	r2, .L156+24
 2235 007e 1160     		str	r1, [r2]
1019:SYS/task_manager/task_manager.c **** 
 2236              		.loc 1 1019 17 is_stmt 1 view .LVU618
1019:SYS/task_manager/task_manager.c **** 
 2237              		.loc 1 1019 54 is_stmt 0 view .LVU619
 2238 0080 5B6D     		ldr	r3, [r3, #84]
1019:SYS/task_manager/task_manager.c **** 
 2239              		.loc 1 1019 34 view .LVU620
 2240 0082 5360     		str	r3, [r2, #4]
1021:SYS/task_manager/task_manager.c ****                 return;
 2241              		.loc 1 1021 17 is_stmt 1 view .LVU621
 2242 0084 FFF7FEFF 		bl	Task_TriggerPendSV
 2243              	.LVL106:
1022:SYS/task_manager/task_manager.c ****             }
 2244              		.loc 1 1022 17 view .LVU622
 2245 0088 DEE7     		b	.L137
 2246              	.L141:
1027:SYS/task_manager/task_manager.c ****             }
 2247              		.loc 1 1027 17 view .LVU623
 2248 008a FFF7FEFF 		bl	Task_Idle
 2249              	.LVL107:
 2250 008e DBE7     		b	.L137
 2251              	.L154:
1039:SYS/task_manager/task_manager.c ****                     NxtRunTsk_Ptr = PndHstTsk_Ptr;
 2252              		.loc 1 1039 21 view .LVU624
1039:SYS/task_manager/task_manager.c ****                     NxtRunTsk_Ptr = PndHstTsk_Ptr;
 2253              		.loc 1 1039 54 is_stmt 0 view .LVU625
 2254 0090 0223     		movs	r3, #2
 2255 0092 84F84830 		strb	r3, [r4, #72]
1040:SYS/task_manager/task_manager.c **** 
 2256              		.loc 1 1040 21 is_stmt 1 view .LVU626
1040:SYS/task_manager/task_manager.c **** 
 2257              		.loc 1 1040 35 is_stmt 0 view .LVU627
 2258 0096 294B     		ldr	r3, .L156+12
 2259 0098 1C60     		str	r4, [r3]
1042:SYS/task_manager/task_manager.c ****                 }
 2260              		.loc 1 1042 21 is_stmt 1 view .LVU628
 2261 009a 2046     		mov	r0, r4
 2262 009c FFF7FEFF 		bl	Task_ClearPending
 2263              	.LVL108:
 2264 00a0 DCE7     		b	.L143
 2265              	.L142:
1049:SYS/task_manager/task_manager.c ****                 NxtRunTsk_Ptr = PndHstTsk_Ptr;
 2266              		.loc 1 1049 17 view .LVU629
1049:SYS/task_manager/task_manager.c ****                 NxtRunTsk_Ptr = PndHstTsk_Ptr;
 2267              		.loc 1 1049 50 is_stmt 0 view .LVU630
 2268 00a2 0223     		movs	r3, #2
 2269 00a4 84F84830 		strb	r3, [r4, #72]
1050:SYS/task_manager/task_manager.c **** 
 2270              		.loc 1 1050 17 is_stmt 1 view .LVU631
1050:SYS/task_manager/task_manager.c **** 
 2271              		.loc 1 1050 31 is_stmt 0 view .LVU632
 2272 00a8 244B     		ldr	r3, .L156+12
 2273 00aa 1C60     		str	r4, [r3]
ARM GAS  /var/folders/lx/hc4sn_b53233_zkc9xbbl97r0000gp/T//ccdoBicG.s 			page 67


1052:SYS/task_manager/task_manager.c ****             }
 2274              		.loc 1 1052 17 is_stmt 1 view .LVU633
 2275 00ac 2046     		mov	r0, r4
 2276 00ae FFF7FEFF 		bl	Task_ClearPending
 2277              	.LVL109:
 2278 00b2 D3E7     		b	.L143
 2279              	.L152:
1070:SYS/task_manager/task_manager.c ****                 Task_ClearReady(CurRunTsk_Ptr);
 2280              		.loc 1 1070 17 view .LVU634
 2281 00b4 2846     		mov	r0, r5
 2282 00b6 FFF7FEFF 		bl	Task_SetPending
 2283              	.LVL110:
1071:SYS/task_manager/task_manager.c **** 
 2284              		.loc 1 1071 17 view .LVU635
 2285 00ba 224B     		ldr	r3, .L156+20
 2286 00bc 1868     		ldr	r0, [r3]
 2287 00be FFF7FEFF 		bl	Task_ClearReady
 2288              	.LVL111:
1076:SYS/task_manager/task_manager.c ****                 {
 2289              		.loc 1 1076 17 view .LVU636
1076:SYS/task_manager/task_manager.c ****                 {
 2290              		.loc 1 1076 35 is_stmt 0 view .LVU637
 2291 00c2 1F4B     		ldr	r3, .L156+16
 2292 00c4 1C68     		ldr	r4, [r3]
1076:SYS/task_manager/task_manager.c ****                 {
 2293              		.loc 1 1076 20 view .LVU638
 2294 00c6 34B1     		cbz	r4, .L145
1078:SYS/task_manager/task_manager.c ****                     {
 2295              		.loc 1 1078 21 is_stmt 1 view .LVU639
1078:SYS/task_manager/task_manager.c ****                     {
 2296              		.loc 1 1078 25 is_stmt 0 view .LVU640
 2297 00c8 1C4B     		ldr	r3, .L156+12
 2298 00ca 1968     		ldr	r1, [r3]
 2299 00cc 2046     		mov	r0, r4
 2300 00ce FFF7FEFF 		bl	Task_PriorityCompare
 2301              	.LVL112:
1078:SYS/task_manager/task_manager.c ****                     {
 2302              		.loc 1 1078 24 view .LVU641
 2303 00d2 8442     		cmp	r4, r0
 2304 00d4 0DD0     		beq	.L155
 2305              	.L145:
1084:SYS/task_manager/task_manager.c ****                 NxtTsk_TCB.Top_Stk_Ptr = &NxtRunTsk_Ptr->TCB.Top_Stk_Ptr;
 2306              		.loc 1 1084 17 is_stmt 1 view .LVU642
 2307 00d6 194C     		ldr	r4, .L156+12
 2308 00d8 2068     		ldr	r0, [r4]
 2309 00da FFF7FEFF 		bl	Task_SetReady
 2310              	.LVL113:
1085:SYS/task_manager/task_manager.c ****                 NxtTsk_TCB.Stack = NxtRunTsk_Ptr->TCB.Stack;
 2311              		.loc 1 1085 17 view .LVU643
1085:SYS/task_manager/task_manager.c ****                 NxtTsk_TCB.Stack = NxtRunTsk_Ptr->TCB.Stack;
 2312              		.loc 1 1085 56 is_stmt 0 view .LVU644
 2313 00de 2268     		ldr	r2, [r4]
1085:SYS/task_manager/task_manager.c ****                 NxtTsk_TCB.Stack = NxtRunTsk_Ptr->TCB.Stack;
 2314              		.loc 1 1085 42 view .LVU645
 2315 00e0 02F15001 		add	r1, r2, #80
1085:SYS/task_manager/task_manager.c ****                 NxtTsk_TCB.Stack = NxtRunTsk_Ptr->TCB.Stack;
 2316              		.loc 1 1085 40 view .LVU646
ARM GAS  /var/folders/lx/hc4sn_b53233_zkc9xbbl97r0000gp/T//ccdoBicG.s 			page 68


 2317 00e4 184B     		ldr	r3, .L156+24
 2318 00e6 1960     		str	r1, [r3]
1086:SYS/task_manager/task_manager.c **** 
 2319              		.loc 1 1086 17 is_stmt 1 view .LVU647
1086:SYS/task_manager/task_manager.c **** 
 2320              		.loc 1 1086 54 is_stmt 0 view .LVU648
 2321 00e8 526D     		ldr	r2, [r2, #84]
1086:SYS/task_manager/task_manager.c **** 
 2322              		.loc 1 1086 34 view .LVU649
 2323 00ea 5A60     		str	r2, [r3, #4]
1088:SYS/task_manager/task_manager.c ****                 return;
 2324              		.loc 1 1088 17 is_stmt 1 view .LVU650
 2325 00ec FFF7FEFF 		bl	Task_TriggerPendSV
 2326              	.LVL114:
1089:SYS/task_manager/task_manager.c ****             }
 2327              		.loc 1 1089 17 view .LVU651
 2328 00f0 AAE7     		b	.L137
 2329              	.L155:
1080:SYS/task_manager/task_manager.c ****                     }
 2330              		.loc 1 1080 25 view .LVU652
1080:SYS/task_manager/task_manager.c ****                     }
 2331              		.loc 1 1080 39 is_stmt 0 view .LVU653
 2332 00f2 124B     		ldr	r3, .L156+12
 2333 00f4 1C60     		str	r4, [r3]
 2334 00f6 EEE7     		b	.L145
 2335              	.L144:
1095:SYS/task_manager/task_manager.c ****             {
 2336              		.loc 1 1095 13 is_stmt 1 view .LVU654
1095:SYS/task_manager/task_manager.c ****             {
 2337              		.loc 1 1095 16 is_stmt 0 view .LVU655
 2338 00f8 0028     		cmp	r0, #0
 2339 00fa A5D0     		beq	.L137
1095:SYS/task_manager/task_manager.c ****             {
 2340              		.loc 1 1095 45 discriminator 1 view .LVU656
 2341 00fc 3146     		mov	r1, r6
 2342 00fe 2846     		mov	r0, r5
 2343 0100 FFF7FEFF 		bl	Task_PriorityCompare
 2344              	.LVL115:
1095:SYS/task_manager/task_manager.c ****             {
 2345              		.loc 1 1095 41 discriminator 1 view .LVU657
 2346 0104 8442     		cmp	r4, r0
 2347 0106 9FD1     		bne	.L137
1099:SYS/task_manager/task_manager.c ****                 Task_SetReady(PndHstTsk_Ptr);
 2348              		.loc 1 1099 17 is_stmt 1 view .LVU658
 2349 0108 2846     		mov	r0, r5
 2350 010a FFF7FEFF 		bl	Task_SetPending
 2351              	.LVL116:
1100:SYS/task_manager/task_manager.c **** 
 2352              		.loc 1 1100 17 view .LVU659
 2353 010e 0C4C     		ldr	r4, .L156+16
 2354 0110 2068     		ldr	r0, [r4]
 2355 0112 FFF7FEFF 		bl	Task_SetReady
 2356              	.LVL117:
1102:SYS/task_manager/task_manager.c ****                 NxtTsk_TCB.Top_Stk_Ptr = &NxtRunTsk_Ptr->TCB.Top_Stk_Ptr;
 2357              		.loc 1 1102 17 view .LVU660
1102:SYS/task_manager/task_manager.c ****                 NxtTsk_TCB.Top_Stk_Ptr = &NxtRunTsk_Ptr->TCB.Top_Stk_Ptr;
 2358              		.loc 1 1102 31 is_stmt 0 view .LVU661
ARM GAS  /var/folders/lx/hc4sn_b53233_zkc9xbbl97r0000gp/T//ccdoBicG.s 			page 69


 2359 0116 2368     		ldr	r3, [r4]
 2360 0118 084A     		ldr	r2, .L156+12
 2361 011a 1360     		str	r3, [r2]
1103:SYS/task_manager/task_manager.c ****                 NxtTsk_TCB.Stack = NxtRunTsk_Ptr->TCB.Stack;
 2362              		.loc 1 1103 17 is_stmt 1 view .LVU662
1103:SYS/task_manager/task_manager.c ****                 NxtTsk_TCB.Stack = NxtRunTsk_Ptr->TCB.Stack;
 2363              		.loc 1 1103 42 is_stmt 0 view .LVU663
 2364 011c 03F15001 		add	r1, r3, #80
1103:SYS/task_manager/task_manager.c ****                 NxtTsk_TCB.Stack = NxtRunTsk_Ptr->TCB.Stack;
 2365              		.loc 1 1103 40 view .LVU664
 2366 0120 094A     		ldr	r2, .L156+24
 2367 0122 1160     		str	r1, [r2]
1104:SYS/task_manager/task_manager.c **** 
 2368              		.loc 1 1104 17 is_stmt 1 view .LVU665
1104:SYS/task_manager/task_manager.c **** 
 2369              		.loc 1 1104 54 is_stmt 0 view .LVU666
 2370 0124 5B6D     		ldr	r3, [r3, #84]
1104:SYS/task_manager/task_manager.c **** 
 2371              		.loc 1 1104 34 view .LVU667
 2372 0126 5360     		str	r3, [r2, #4]
1106:SYS/task_manager/task_manager.c ****                 return;
 2373              		.loc 1 1106 17 is_stmt 1 view .LVU668
 2374 0128 FFF7FEFF 		bl	Task_TriggerPendSV
 2375              	.LVL118:
1107:SYS/task_manager/task_manager.c ****             }
 2376              		.loc 1 1107 17 view .LVU669
 2377 012c 8CE7     		b	.L137
 2378              	.L157:
 2379 012e 00BF     		.align	2
 2380              	.L156:
 2381 0130 00000000 		.word	.LANCHOR7
 2382 0134 00000000 		.word	Task_CrtList_TraversePoll_callback
 2383 0138 04000000 		.word	.LANCHOR5+4
 2384 013c 00000000 		.word	.LANCHOR11
 2385 0140 00000000 		.word	.LANCHOR15
 2386 0144 00000000 		.word	.LANCHOR6
 2387 0148 00000000 		.word	.LANCHOR12
 2388              		.cfi_endproc
 2389              	.LFE172:
 2391              		.section	.text.Task_Force_TriggerPendSV,"ax",%progbits
 2392              		.align	1
 2393              		.global	Task_Force_TriggerPendSV
 2394              		.syntax unified
 2395              		.thumb
 2396              		.thumb_func
 2397              		.fpu fpv4-sp-d16
 2399              	Task_Force_TriggerPendSV:
 2400              	.LFB153:
 599:SYS/task_manager/task_manager.c ****     /* Barriers are normally not required but do ensure the code is completely \
 2401              		.loc 1 599 1 view -0
 2402              		.cfi_startproc
 2403              		@ args = 0, pretend = 0, frame = 0
 2404              		@ frame_needed = 0, uses_anonymous_args = 0
 2405 0000 08B5     		push	{r3, lr}
 2406              	.LCFI29:
 2407              		.cfi_def_cfa_offset 8
 2408              		.cfi_offset 3, -8
ARM GAS  /var/folders/lx/hc4sn_b53233_zkc9xbbl97r0000gp/T//ccdoBicG.s 			page 70


 2409              		.cfi_offset 14, -4
 602:SYS/task_manager/task_manager.c ****                        : "memory");
 2410              		.loc 1 602 5 view .LVU671
 2411              		.syntax unified
 2412              	@ 602 "SYS/task_manager/task_manager.c" 1
 2413 0002 BFF34F8F 		dsb
 2414              	@ 0 "" 2
 604:SYS/task_manager/task_manager.c ****     Task_TriggerPendSV();
 2415              		.loc 1 604 5 view .LVU672
 2416              	@ 604 "SYS/task_manager/task_manager.c" 1
 2417 0006 BFF36F8F 		isb
 2418              	@ 0 "" 2
 605:SYS/task_manager/task_manager.c **** }
 2419              		.loc 1 605 5 view .LVU673
 2420              		.thumb
 2421              		.syntax unified
 2422 000a FFF7FEFF 		bl	Task_TriggerPendSV
 2423              	.LVL119:
 606:SYS/task_manager/task_manager.c **** 
 2424              		.loc 1 606 1 is_stmt 0 view .LVU674
 2425 000e 08BD     		pop	{r3, pc}
 2426              		.cfi_endproc
 2427              	.LFE153:
 2429              		.section	.text.Task_Get_TaskNum,"ax",%progbits
 2430              		.align	1
 2431              		.global	Task_Get_TaskNum
 2432              		.syntax unified
 2433              		.thumb
 2434              		.thumb_func
 2435              		.fpu fpv4-sp-d16
 2437              	Task_Get_TaskNum:
 2438              	.LFB154:
 609:SYS/task_manager/task_manager.c ****     return TskCrt_RegList.num;
 2439              		.loc 1 609 1 is_stmt 1 view -0
 2440              		.cfi_startproc
 2441              		@ args = 0, pretend = 0, frame = 0
 2442              		@ frame_needed = 0, uses_anonymous_args = 0
 2443              		@ link register save eliminated.
 610:SYS/task_manager/task_manager.c **** }
 2444              		.loc 1 610 5 view .LVU676
 611:SYS/task_manager/task_manager.c **** 
 2445              		.loc 1 611 1 is_stmt 0 view .LVU677
 2446 0000 014B     		ldr	r3, .L161
 2447 0002 1878     		ldrb	r0, [r3]	@ zero_extendqisi2
 2448 0004 7047     		bx	lr
 2449              	.L162:
 2450 0006 00BF     		.align	2
 2451              	.L161:
 2452 0008 00000000 		.word	.LANCHOR5
 2453              		.cfi_endproc
 2454              	.LFE154:
 2456              		.global	__aeabi_ui2d
 2457              		.global	__aeabi_ddiv
 2458              		.global	__aeabi_d2uiz
 2459              		.section	.text.Task_Create,"ax",%progbits
 2460              		.align	1
 2461              		.global	Task_Create
ARM GAS  /var/folders/lx/hc4sn_b53233_zkc9xbbl97r0000gp/T//ccdoBicG.s 			page 71


 2462              		.syntax unified
 2463              		.thumb
 2464              		.thumb_func
 2465              		.fpu fpv4-sp-d16
 2467              	Task_Create:
 2468              	.LVL120:
 2469              	.LFB156:
 658:SYS/task_manager/task_manager.c ****     Task_Handler handle;
 2470              		.loc 1 658 1 is_stmt 1 view -0
 2471              		.cfi_startproc
 2472              		@ args = 8, pretend = 0, frame = 0
 2473              		@ frame_needed = 0, uses_anonymous_args = 0
 658:SYS/task_manager/task_manager.c ****     Task_Handler handle;
 2474              		.loc 1 658 1 is_stmt 0 view .LVU679
 2475 0000 2DE9F84F 		push	{r3, r4, r5, r6, r7, r8, r9, r10, fp, lr}
 2476              	.LCFI30:
 2477              		.cfi_def_cfa_offset 40
 2478              		.cfi_offset 3, -40
 2479              		.cfi_offset 4, -36
 2480              		.cfi_offset 5, -32
 2481              		.cfi_offset 6, -28
 2482              		.cfi_offset 7, -24
 2483              		.cfi_offset 8, -20
 2484              		.cfi_offset 9, -16
 2485              		.cfi_offset 10, -12
 2486              		.cfi_offset 11, -8
 2487              		.cfi_offset 14, -4
 2488 0004 8146     		mov	r9, r0
 2489 0006 0E46     		mov	r6, r1
 2490 0008 1546     		mov	r5, r2
 2491 000a 1C46     		mov	r4, r3
 659:SYS/task_manager/task_manager.c ****     uint16_t task_name_len = strlen(name);
 2492              		.loc 1 659 5 is_stmt 1 view .LVU680
 660:SYS/task_manager/task_manager.c ****     uint32_t *Tsk_Ptr_tmp = NULL;
 2493              		.loc 1 660 5 view .LVU681
 661:SYS/task_manager/task_manager.c ****     static bool taskOs_InitState = false;
 2494              		.loc 1 661 5 view .LVU682
 2495              	.LVL121:
 662:SYS/task_manager/task_manager.c **** 
 2496              		.loc 1 662 5 view .LVU683
 664:SYS/task_manager/task_manager.c ****     {
 2497              		.loc 1 664 5 view .LVU684
 664:SYS/task_manager/task_manager.c ****     {
 2498              		.loc 1 664 9 is_stmt 0 view .LVU685
 2499 000c 7E4B     		ldr	r3, .L174+8
 2500              	.LVL122:
 664:SYS/task_manager/task_manager.c ****     {
 2501              		.loc 1 664 9 view .LVU686
 2502 000e 1B78     		ldrb	r3, [r3]	@ zero_extendqisi2
 664:SYS/task_manager/task_manager.c ****     {
 2503              		.loc 1 664 8 view .LVU687
 2504 0010 53B1     		cbz	r3, .L172
 2505              	.LVL123:
 2506              	.L164:
 671:SYS/task_manager/task_manager.c ****     {
 2507              		.loc 1 671 5 is_stmt 1 view .LVU688
 671:SYS/task_manager/task_manager.c ****     {
ARM GAS  /var/folders/lx/hc4sn_b53233_zkc9xbbl97r0000gp/T//ccdoBicG.s 			page 72


 2508              		.loc 1 671 24 is_stmt 0 view .LVU689
 2509 0012 04EBC503 		add	r3, r4, r5, lsl #3
 2510 0016 7D4A     		ldr	r2, .L174+12
 2511 0018 52F82330 		ldr	r3, [r2, r3, lsl #2]
 671:SYS/task_manager/task_manager.c ****     {
 2512              		.loc 1 671 8 view .LVU690
 2513 001c 53B1     		cbz	r3, .L173
 673:SYS/task_manager/task_manager.c ****     }
 2514              		.loc 1 673 16 view .LVU691
 2515 001e 4FF0010A 		mov	r10, #1
 2516              	.LVL124:
 2517              	.L163:
 762:SYS/task_manager/task_manager.c **** 
 2518              		.loc 1 762 1 view .LVU692
 2519 0022 5046     		mov	r0, r10
 2520 0024 BDE8F88F 		pop	{r3, r4, r5, r6, r7, r8, r9, r10, fp, pc}
 2521              	.LVL125:
 2522              	.L172:
 666:SYS/task_manager/task_manager.c ****         taskOs_InitState = true;
 2523              		.loc 1 666 9 is_stmt 1 view .LVU693
 2524 0028 FFF7FEFF 		bl	TaskSys_Init
 2525              	.LVL126:
 667:SYS/task_manager/task_manager.c ****     }
 2526              		.loc 1 667 9 view .LVU694
 667:SYS/task_manager/task_manager.c ****     }
 2527              		.loc 1 667 26 is_stmt 0 view .LVU695
 2528 002c 764B     		ldr	r3, .L174+8
 2529 002e 0122     		movs	r2, #1
 2530 0030 1A70     		strb	r2, [r3]
 2531 0032 EEE7     		b	.L164
 2532              	.L173:
 677:SYS/task_manager/task_manager.c **** 
 2533              		.loc 1 677 5 is_stmt 1 view .LVU696
 677:SYS/task_manager/task_manager.c **** 
 2534              		.loc 1 677 41 is_stmt 0 view .LVU697
 2535 0034 9020     		movs	r0, #144
 2536 0036 FFF7FEFF 		bl	malloc
 2537              	.LVL127:
 2538 003a 8346     		mov	fp, r0
 677:SYS/task_manager/task_manager.c **** 
 2539              		.loc 1 677 31 view .LVU698
 2540 003c 734F     		ldr	r7, .L174+12
 2541 003e 04EBC508 		add	r8, r4, r5, lsl #3
 2542 0042 47F82800 		str	r0, [r7, r8, lsl #2]
 680:SYS/task_manager/task_manager.c **** 
 2543              		.loc 1 680 5 is_stmt 1 view .LVU699
 680:SYS/task_manager/task_manager.c **** 
 2544              		.loc 1 680 12 is_stmt 0 view .LVU700
 2545 0046 8246     		mov	r10, r0
 2546              	.LVL128:
 682:SYS/task_manager/task_manager.c **** 
 2547              		.loc 1 682 5 is_stmt 1 view .LVU701
 682:SYS/task_manager/task_manager.c **** 
 2548              		.loc 1 682 42 is_stmt 0 view .LVU702
 2549 0048 C0F80490 		str	r9, [r0, #4]
 684:SYS/task_manager/task_manager.c ****     Task_Ptr[group][priority]->exec_interval_us = RUNTIEM_MAX_TICK_FRQ / frq;
 2550              		.loc 1 684 5 is_stmt 1 view .LVU703
ARM GAS  /var/folders/lx/hc4sn_b53233_zkc9xbbl97r0000gp/T//ccdoBicG.s 			page 73


 684:SYS/task_manager/task_manager.c ****     Task_Ptr[group][priority]->exec_interval_us = RUNTIEM_MAX_TICK_FRQ / frq;
 2551              		.loc 1 684 41 is_stmt 0 view .LVU704
 2552 004c 8660     		str	r6, [r0, #8]
 685:SYS/task_manager/task_manager.c ****     Task_Ptr[group][priority]->Exec_Func = func;
 2553              		.loc 1 685 5 is_stmt 1 view .LVU705
 685:SYS/task_manager/task_manager.c ****     Task_Ptr[group][priority]->Exec_Func = func;
 2554              		.loc 1 685 72 is_stmt 0 view .LVU706
 2555 004e 3046     		mov	r0, r6
 2556              	.LVL129:
 685:SYS/task_manager/task_manager.c ****     Task_Ptr[group][priority]->Exec_Func = func;
 2557              		.loc 1 685 72 view .LVU707
 2558 0050 FFF7FEFF 		bl	__aeabi_ui2d
 2559              	.LVL130:
 2560 0054 0246     		mov	r2, r0
 2561 0056 0B46     		mov	r3, r1
 2562 0058 69A1     		adr	r1, .L174
 2563 005a D1E90001 		ldrd	r0, [r1]
 2564 005e FFF7FEFF 		bl	__aeabi_ddiv
 2565              	.LVL131:
 685:SYS/task_manager/task_manager.c ****     Task_Ptr[group][priority]->Exec_Func = func;
 2566              		.loc 1 685 20 view .LVU708
 2567 0062 57F82860 		ldr	r6, [r7, r8, lsl #2]
 2568              	.LVL132:
 685:SYS/task_manager/task_manager.c ****     Task_Ptr[group][priority]->Exec_Func = func;
 2569              		.loc 1 685 49 view .LVU709
 2570 0066 FFF7FEFF 		bl	__aeabi_d2uiz
 2571              	.LVL133:
 2572 006a B081     		strh	r0, [r6, #12]	@ movhi
 686:SYS/task_manager/task_manager.c **** 
 2573              		.loc 1 686 5 is_stmt 1 view .LVU710
 686:SYS/task_manager/task_manager.c **** 
 2574              		.loc 1 686 20 is_stmt 0 view .LVU711
 2575 006c 57F82830 		ldr	r3, [r7, r8, lsl #2]
 686:SYS/task_manager/task_manager.c **** 
 2576              		.loc 1 686 42 view .LVU712
 2577 0070 0A9A     		ldr	r2, [sp, #40]
 2578 0072 1A61     		str	r2, [r3, #16]
 688:SYS/task_manager/task_manager.c **** 
 2579              		.loc 1 688 5 is_stmt 1 view .LVU713
 688:SYS/task_manager/task_manager.c **** 
 2580              		.loc 1 688 20 is_stmt 0 view .LVU714
 2581 0074 57F82820 		ldr	r2, [r7, r8, lsl #2]
 688:SYS/task_manager/task_manager.c **** 
 2582              		.loc 1 688 65 view .LVU715
 2583 0078 EB00     		lsls	r3, r5, #3
 2584 007a 2343     		orrs	r3, r3, r4
 688:SYS/task_manager/task_manager.c **** 
 2585              		.loc 1 688 50 view .LVU716
 2586 007c 1370     		strb	r3, [r2]
 692:SYS/task_manager/task_manager.c ****     Task_Ptr[group][priority]->delay_info.tsk_hdl = handle;
 2587              		.loc 1 692 5 is_stmt 1 view .LVU717
 692:SYS/task_manager/task_manager.c ****     Task_Ptr[group][priority]->delay_info.tsk_hdl = handle;
 2588              		.loc 1 692 20 is_stmt 0 view .LVU718
 2589 007e 57F82820 		ldr	r2, [r7, r8, lsl #2]
 692:SYS/task_manager/task_manager.c ****     Task_Ptr[group][priority]->delay_info.tsk_hdl = handle;
 2590              		.loc 1 692 52 view .LVU719
 2591 0082 0023     		movs	r3, #0
ARM GAS  /var/folders/lx/hc4sn_b53233_zkc9xbbl97r0000gp/T//ccdoBicG.s 			page 74


 2592 0084 82F86430 		strb	r3, [r2, #100]
 693:SYS/task_manager/task_manager.c ****     Task_Ptr[group][priority]->delay_info.time_unit = 0;
 2593              		.loc 1 693 5 is_stmt 1 view .LVU720
 693:SYS/task_manager/task_manager.c ****     Task_Ptr[group][priority]->delay_info.time_unit = 0;
 2594              		.loc 1 693 20 is_stmt 0 view .LVU721
 2595 0088 57F82820 		ldr	r2, [r7, r8, lsl #2]
 693:SYS/task_manager/task_manager.c ****     Task_Ptr[group][priority]->delay_info.time_unit = 0;
 2596              		.loc 1 693 51 view .LVU722
 2597 008c C2F868B0 		str	fp, [r2, #104]
 694:SYS/task_manager/task_manager.c **** 
 2598              		.loc 1 694 5 is_stmt 1 view .LVU723
 694:SYS/task_manager/task_manager.c **** 
 2599              		.loc 1 694 20 is_stmt 0 view .LVU724
 2600 0090 57F82820 		ldr	r2, [r7, r8, lsl #2]
 694:SYS/task_manager/task_manager.c **** 
 2601              		.loc 1 694 53 view .LVU725
 2602 0094 D366     		str	r3, [r2, #108]
 697:SYS/task_manager/task_manager.c ****     Task_Ptr[group][priority]->TCB.Stack = (uint32_t *)malloc(StackDepth * sizeof(uint32_t));
 2603              		.loc 1 697 5 is_stmt 1 view .LVU726
 697:SYS/task_manager/task_manager.c ****     Task_Ptr[group][priority]->TCB.Stack = (uint32_t *)malloc(StackDepth * sizeof(uint32_t));
 2604              		.loc 1 697 20 is_stmt 0 view .LVU727
 2605 0096 57F82830 		ldr	r3, [r7, r8, lsl #2]
 697:SYS/task_manager/task_manager.c ****     Task_Ptr[group][priority]->TCB.Stack = (uint32_t *)malloc(StackDepth * sizeof(uint32_t));
 2606              		.loc 1 697 44 view .LVU728
 2607 009a 0B9A     		ldr	r2, [sp, #44]
 2608 009c DA64     		str	r2, [r3, #76]
 698:SYS/task_manager/task_manager.c **** 
 2609              		.loc 1 698 5 is_stmt 1 view .LVU729
 698:SYS/task_manager/task_manager.c **** 
 2610              		.loc 1 698 20 is_stmt 0 view .LVU730
 2611 009e 57F82860 		ldr	r6, [r7, r8, lsl #2]
 698:SYS/task_manager/task_manager.c **** 
 2612              		.loc 1 698 56 view .LVU731
 2613 00a2 9000     		lsls	r0, r2, #2
 2614 00a4 FFF7FEFF 		bl	malloc
 2615              	.LVL134:
 698:SYS/task_manager/task_manager.c **** 
 2616              		.loc 1 698 42 view .LVU732
 2617 00a8 7065     		str	r0, [r6, #84]
 700:SYS/task_manager/task_manager.c ****     {
 2618              		.loc 1 700 5 is_stmt 1 view .LVU733
 700:SYS/task_manager/task_manager.c ****     {
 2619              		.loc 1 700 24 is_stmt 0 view .LVU734
 2620 00aa 57F82800 		ldr	r0, [r7, r8, lsl #2]
 700:SYS/task_manager/task_manager.c ****     {
 2621              		.loc 1 700 39 view .LVU735
 2622 00ae 436D     		ldr	r3, [r0, #84]
 700:SYS/task_manager/task_manager.c ****     {
 2623              		.loc 1 700 8 view .LVU736
 2624 00b0 002B     		cmp	r3, #0
 2625 00b2 00F09C80 		beq	.L169
 702:SYS/task_manager/task_manager.c ****     }
 2626              		.loc 1 702 9 is_stmt 1 view .LVU737
 2627 00b6 FFF7FEFF 		bl	Task_SetStkPtr_Val
 2628              	.LVL135:
 710:SYS/task_manager/task_manager.c ****     Task_Ptr[group][priority]->statistics_reg.Reg.TskFun_Statistics_REG = stop_statistics;
 2629              		.loc 1 710 5 view .LVU738
ARM GAS  /var/folders/lx/hc4sn_b53233_zkc9xbbl97r0000gp/T//ccdoBicG.s 			page 75


 710:SYS/task_manager/task_manager.c ****     Task_Ptr[group][priority]->statistics_reg.Reg.TskFun_Statistics_REG = stop_statistics;
 2630              		.loc 1 710 20 is_stmt 0 view .LVU739
 2631 00ba 3E46     		mov	r6, r7
 2632 00bc 4746     		mov	r7, r8
 2633 00be 56F82830 		ldr	r3, [r6, r8, lsl #2]
 710:SYS/task_manager/task_manager.c ****     Task_Ptr[group][priority]->statistics_reg.Reg.TskFun_Statistics_REG = stop_statistics;
 2634              		.loc 1 710 73 view .LVU740
 2635 00c2 93F85820 		ldrb	r2, [r3, #88]	@ zero_extendqisi2
 2636 00c6 6FF30302 		bfc	r2, #0, #4
 2637 00ca 83F85820 		strb	r2, [r3, #88]
 711:SYS/task_manager/task_manager.c **** 
 2638              		.loc 1 711 5 is_stmt 1 view .LVU741
 711:SYS/task_manager/task_manager.c **** 
 2639              		.loc 1 711 20 is_stmt 0 view .LVU742
 2640 00ce 56F82830 		ldr	r3, [r6, r8, lsl #2]
 711:SYS/task_manager/task_manager.c **** 
 2641              		.loc 1 711 73 view .LVU743
 2642 00d2 93F85820 		ldrb	r2, [r3, #88]	@ zero_extendqisi2
 2643 00d6 6FF30712 		bfc	r2, #4, #4
 2644 00da 83F85820 		strb	r2, [r3, #88]
 714:SYS/task_manager/task_manager.c ****     Task_Ptr[group][priority]->CallerUsing_US = 0;
 2645              		.loc 1 714 5 is_stmt 1 view .LVU744
 714:SYS/task_manager/task_manager.c ****     Task_Ptr[group][priority]->CallerUsing_US = 0;
 2646              		.loc 1 714 20 is_stmt 0 view .LVU745
 2647 00de 56F82830 		ldr	r3, [r6, r8, lsl #2]
 714:SYS/task_manager/task_manager.c ****     Task_Ptr[group][priority]->CallerUsing_US = 0;
 2648              		.loc 1 714 47 view .LVU746
 2649 00e2 4FF00008 		mov	r8, #0
 2650 00e6 C3F85C80 		str	r8, [r3, #92]
 715:SYS/task_manager/task_manager.c **** 
 2651              		.loc 1 715 5 is_stmt 1 view .LVU747
 715:SYS/task_manager/task_manager.c **** 
 2652              		.loc 1 715 20 is_stmt 0 view .LVU748
 2653 00ea 56F82730 		ldr	r3, [r6, r7, lsl #2]
 715:SYS/task_manager/task_manager.c **** 
 2654              		.loc 1 715 47 view .LVU749
 2655 00ee C3F86080 		str	r8, [r3, #96]
 718:SYS/task_manager/task_manager.c ****     Task_Ptr[group][priority]->Exec_status.totlal_running_time = 0;
 2656              		.loc 1 718 5 is_stmt 1 view .LVU750
 718:SYS/task_manager/task_manager.c ****     Task_Ptr[group][priority]->Exec_status.totlal_running_time = 0;
 2657              		.loc 1 718 20 is_stmt 0 view .LVU751
 2658 00f2 56F82730 		ldr	r3, [r6, r7, lsl #2]
 718:SYS/task_manager/task_manager.c ****     Task_Ptr[group][priority]->Exec_status.totlal_running_time = 0;
 2659              		.loc 1 718 52 view .LVU752
 2660 00f6 0022     		movs	r2, #0
 2661 00f8 5A64     		str	r2, [r3, #68]	@ float
 719:SYS/task_manager/task_manager.c **** 
 2662              		.loc 1 719 5 is_stmt 1 view .LVU753
 719:SYS/task_manager/task_manager.c **** 
 2663              		.loc 1 719 20 is_stmt 0 view .LVU754
 2664 00fa 56F82730 		ldr	r3, [r6, r7, lsl #2]
 719:SYS/task_manager/task_manager.c **** 
 2665              		.loc 1 719 64 view .LVU755
 2666 00fe C3F84080 		str	r8, [r3, #64]
 722:SYS/task_manager/task_manager.c ****     //set current task under this group flag to ready
 2667              		.loc 1 722 5 is_stmt 1 view .LVU756
 722:SYS/task_manager/task_manager.c ****     //set current task under this group flag to ready
ARM GAS  /var/folders/lx/hc4sn_b53233_zkc9xbbl97r0000gp/T//ccdoBicG.s 			page 76


 2668              		.loc 1 722 27 is_stmt 0 view .LVU757
 2669 0102 434B     		ldr	r3, .L174+16
 2670 0104 1978     		ldrb	r1, [r3]	@ zero_extendqisi2
 722:SYS/task_manager/task_manager.c ****     //set current task under this group flag to ready
 2671              		.loc 1 722 35 view .LVU758
 2672 0106 56F82700 		ldr	r0, [r6, r7, lsl #2]
 2673 010a 90F800C0 		ldrb	ip, [r0]	@ zero_extendqisi2
 722:SYS/task_manager/task_manager.c ****     //set current task under this group flag to ready
 2674              		.loc 1 722 32 view .LVU759
 2675 010e 0122     		movs	r2, #1
 2676 0110 02FA0CFC 		lsl	ip, r2, ip
 722:SYS/task_manager/task_manager.c ****     //set current task under this group flag to ready
 2677              		.loc 1 722 27 view .LVU760
 2678 0114 41EAEC01 		orr	r1, r1, ip, asr #3
 2679 0118 C9B2     		uxtb	r1, r1
 2680 011a 1970     		strb	r1, [r3]
 724:SYS/task_manager/task_manager.c **** 
 2681              		.loc 1 724 5 is_stmt 1 view .LVU761
 724:SYS/task_manager/task_manager.c **** 
 2682              		.loc 1 724 28 is_stmt 0 view .LVU762
 2683 011c 90F800C0 		ldrb	ip, [r0]	@ zero_extendqisi2
 724:SYS/task_manager/task_manager.c **** 
 2684              		.loc 1 724 102 view .LVU763
 2685 0120 03EBDC03 		add	r3, r3, ip, lsr #3
 2686 0124 5978     		ldrb	r1, [r3, #1]	@ zero_extendqisi2
 724:SYS/task_manager/task_manager.c **** 
 2687              		.loc 1 724 107 view .LVU764
 2688 0126 02FA0CF2 		lsl	r2, r2, ip
 724:SYS/task_manager/task_manager.c **** 
 2689              		.loc 1 724 110 view .LVU765
 2690 012a 02F00702 		and	r2, r2, #7
 724:SYS/task_manager/task_manager.c **** 
 2691              		.loc 1 724 102 view .LVU766
 2692 012e 0A43     		orrs	r2, r2, r1
 2693 0130 5A70     		strb	r2, [r3, #1]
 726:SYS/task_manager/task_manager.c ****     Task_Ptr[group][priority]->Exec_status.detect_exec_time_arv = 0;
 2694              		.loc 1 726 5 is_stmt 1 view .LVU767
 726:SYS/task_manager/task_manager.c ****     Task_Ptr[group][priority]->Exec_status.detect_exec_time_arv = 0;
 2695              		.loc 1 726 60 is_stmt 0 view .LVU768
 2696 0132 C0F82C80 		str	r8, [r0, #44]
 727:SYS/task_manager/task_manager.c ****     Task_Ptr[group][priority]->Exec_status.detect_exec_time_max = 0;
 2697              		.loc 1 727 5 is_stmt 1 view .LVU769
 727:SYS/task_manager/task_manager.c ****     Task_Ptr[group][priority]->Exec_status.detect_exec_time_max = 0;
 2698              		.loc 1 727 20 is_stmt 0 view .LVU770
 2699 0136 56F82730 		ldr	r3, [r6, r7, lsl #2]
 727:SYS/task_manager/task_manager.c ****     Task_Ptr[group][priority]->Exec_status.detect_exec_time_max = 0;
 2700              		.loc 1 727 65 view .LVU771
 2701 013a C3F83080 		str	r8, [r3, #48]
 728:SYS/task_manager/task_manager.c **** 
 2702              		.loc 1 728 5 is_stmt 1 view .LVU772
 728:SYS/task_manager/task_manager.c **** 
 2703              		.loc 1 728 20 is_stmt 0 view .LVU773
 2704 013e 56F82730 		ldr	r3, [r6, r7, lsl #2]
 728:SYS/task_manager/task_manager.c **** 
 2705              		.loc 1 728 65 view .LVU774
 2706 0142 C3F83480 		str	r8, [r3, #52]
 730:SYS/task_manager/task_manager.c ****     RuntimeObj_Reset(&(Task_Ptr[group][priority]->Exec_status.Init_Time));
ARM GAS  /var/folders/lx/hc4sn_b53233_zkc9xbbl97r0000gp/T//ccdoBicG.s 			page 77


 2707              		.loc 1 730 5 is_stmt 1 view .LVU775
 730:SYS/task_manager/task_manager.c ****     RuntimeObj_Reset(&(Task_Ptr[group][priority]->Exec_status.Init_Time));
 2708              		.loc 1 730 39 is_stmt 0 view .LVU776
 2709 0146 56F82700 		ldr	r0, [r6, r7, lsl #2]
 730:SYS/task_manager/task_manager.c ****     RuntimeObj_Reset(&(Task_Ptr[group][priority]->Exec_status.Init_Time));
 2710              		.loc 1 730 5 view .LVU777
 2711 014a 2430     		adds	r0, r0, #36
 2712 014c FFF7FEFF 		bl	RuntimeObj_Reset
 2713              	.LVL136:
 731:SYS/task_manager/task_manager.c ****     RuntimeObj_Reset(&(Task_Ptr[group][priority]->Exec_status.Start_Time));
 2714              		.loc 1 731 5 is_stmt 1 view .LVU778
 731:SYS/task_manager/task_manager.c ****     RuntimeObj_Reset(&(Task_Ptr[group][priority]->Exec_status.Start_Time));
 2715              		.loc 1 731 39 is_stmt 0 view .LVU779
 2716 0150 56F82700 		ldr	r0, [r6, r7, lsl #2]
 731:SYS/task_manager/task_manager.c ****     RuntimeObj_Reset(&(Task_Ptr[group][priority]->Exec_status.Start_Time));
 2717              		.loc 1 731 5 view .LVU780
 2718 0154 1430     		adds	r0, r0, #20
 2719 0156 FFF7FEFF 		bl	RuntimeObj_Reset
 2720              	.LVL137:
 732:SYS/task_manager/task_manager.c **** 
 2721              		.loc 1 732 5 is_stmt 1 view .LVU781
 732:SYS/task_manager/task_manager.c **** 
 2722              		.loc 1 732 39 is_stmt 0 view .LVU782
 2723 015a 56F82700 		ldr	r0, [r6, r7, lsl #2]
 732:SYS/task_manager/task_manager.c **** 
 2724              		.loc 1 732 5 view .LVU783
 2725 015e 1C30     		adds	r0, r0, #28
 2726 0160 FFF7FEFF 		bl	RuntimeObj_Reset
 2727              	.LVL138:
 734:SYS/task_manager/task_manager.c **** 
 2728              		.loc 1 734 5 is_stmt 1 view .LVU784
 734:SYS/task_manager/task_manager.c **** 
 2729              		.loc 1 734 20 is_stmt 0 view .LVU785
 2730 0164 56F82790 		ldr	r9, [r6, r7, lsl #2]
 2731              	.LVL139:
 734:SYS/task_manager/task_manager.c **** 
 2732              		.loc 1 734 56 view .LVU786
 2733 0168 FFF7FEFF 		bl	Get_CurrentRunningUs
 2734              	.LVL140:
 734:SYS/task_manager/task_manager.c **** 
 2735              		.loc 1 734 54 view .LVU787
 2736 016c C9F81400 		str	r0, [r9, #20]
 2737 0170 C9F81810 		str	r1, [r9, #24]
 736:SYS/task_manager/task_manager.c ****     Task_Ptr[group][priority]->Exec_status.error_code = NOERROR;
 2738              		.loc 1 736 5 is_stmt 1 view .LVU788
 736:SYS/task_manager/task_manager.c ****     Task_Ptr[group][priority]->Exec_status.error_code = NOERROR;
 2739              		.loc 1 736 20 is_stmt 0 view .LVU789
 2740 0174 56F82730 		ldr	r3, [r6, r7, lsl #2]
 736:SYS/task_manager/task_manager.c ****     Task_Ptr[group][priority]->Exec_status.error_code = NOERROR;
 2741              		.loc 1 736 55 view .LVU790
 2742 0178 C3F83880 		str	r8, [r3, #56]
 737:SYS/task_manager/task_manager.c **** 
 2743              		.loc 1 737 5 is_stmt 1 view .LVU791
 737:SYS/task_manager/task_manager.c **** 
 2744              		.loc 1 737 20 is_stmt 0 view .LVU792
 2745 017c 56F82730 		ldr	r3, [r6, r7, lsl #2]
 737:SYS/task_manager/task_manager.c **** 
ARM GAS  /var/folders/lx/hc4sn_b53233_zkc9xbbl97r0000gp/T//ccdoBicG.s 			page 78


 2746              		.loc 1 737 55 view .LVU793
 2747 0180 83F83C80 		strb	r8, [r3, #60]
 739:SYS/task_manager/task_manager.c **** 
 2748              		.loc 1 739 5 is_stmt 1 view .LVU794
 2749 0184 56F82700 		ldr	r0, [r6, r7, lsl #2]
 2750 0188 FFF7FEFF 		bl	Task_SetReady
 2751              	.LVL141:
 741:SYS/task_manager/task_manager.c ****     if (Task_Ptr[group][priority]->item_ptr == NULL)
 2752              		.loc 1 741 5 view .LVU795
 741:SYS/task_manager/task_manager.c ****     if (Task_Ptr[group][priority]->item_ptr == NULL)
 2753              		.loc 1 741 20 is_stmt 0 view .LVU796
 2754 018c 56F82780 		ldr	r8, [r6, r7, lsl #2]
 741:SYS/task_manager/task_manager.c ****     if (Task_Ptr[group][priority]->item_ptr == NULL)
 2755              		.loc 1 741 55 view .LVU797
 2756 0190 1420     		movs	r0, #20
 2757 0192 FFF7FEFF 		bl	malloc
 2758              	.LVL142:
 741:SYS/task_manager/task_manager.c ****     if (Task_Ptr[group][priority]->item_ptr == NULL)
 2759              		.loc 1 741 41 view .LVU798
 2760 0196 C8F87800 		str	r0, [r8, #120]
 742:SYS/task_manager/task_manager.c ****     {
 2761              		.loc 1 742 5 is_stmt 1 view .LVU799
 742:SYS/task_manager/task_manager.c ****     {
 2762              		.loc 1 742 24 is_stmt 0 view .LVU800
 2763 019a 56F82710 		ldr	r1, [r6, r7, lsl #2]
 742:SYS/task_manager/task_manager.c ****     {
 2764              		.loc 1 742 34 view .LVU801
 2765 019e 886F     		ldr	r0, [r1, #120]
 742:SYS/task_manager/task_manager.c ****     {
 2766              		.loc 1 742 8 view .LVU802
 2767 01a0 40B3     		cbz	r0, .L170
 747:SYS/task_manager/task_manager.c ****     if (TskCrt_RegList.num == 0)
 2768              		.loc 1 747 5 is_stmt 1 view .LVU803
 2769 01a2 FFF7FEFF 		bl	List_ItemInit
 2770              	.LVL143:
 748:SYS/task_manager/task_manager.c ****     {
 2771              		.loc 1 748 5 view .LVU804
 748:SYS/task_manager/task_manager.c ****     {
 2772              		.loc 1 748 23 is_stmt 0 view .LVU805
 2773 01a6 1B4B     		ldr	r3, .L174+20
 2774 01a8 1B78     		ldrb	r3, [r3]	@ zero_extendqisi2
 748:SYS/task_manager/task_manager.c ****     {
 2775              		.loc 1 748 8 view .LVU806
 2776 01aa B3B9     		cbnz	r3, .L166
 750:SYS/task_manager/task_manager.c ****     }
 2777              		.loc 1 750 9 is_stmt 1 view .LVU807
 750:SYS/task_manager/task_manager.c ****     }
 2778              		.loc 1 750 56 is_stmt 0 view .LVU808
 2779 01ac 56F82710 		ldr	r1, [r6, r7, lsl #2]
 750:SYS/task_manager/task_manager.c ****     }
 2780              		.loc 1 750 9 view .LVU809
 2781 01b0 194B     		ldr	r3, .L174+24
 2782 01b2 0222     		movs	r2, #2
 2783 01b4 896F     		ldr	r1, [r1, #120]
 2784 01b6 1948     		ldr	r0, .L174+28
 2785 01b8 FFF7FEFF 		bl	List_Init
 2786              	.LVL144:
ARM GAS  /var/folders/lx/hc4sn_b53233_zkc9xbbl97r0000gp/T//ccdoBicG.s 			page 79


 2787              	.L167:
 757:SYS/task_manager/task_manager.c **** 
 2788              		.loc 1 757 5 is_stmt 1 view .LVU810
 757:SYS/task_manager/task_manager.c **** 
 2789              		.loc 1 757 35 is_stmt 0 view .LVU811
 2790 01bc 04EBC504 		add	r4, r4, r5, lsl #3
 2791 01c0 124B     		ldr	r3, .L174+12
 2792 01c2 53F82400 		ldr	r0, [r3, r4, lsl #2]
 757:SYS/task_manager/task_manager.c **** 
 2793              		.loc 1 757 5 view .LVU812
 2794 01c6 00F16401 		add	r1, r0, #100
 2795 01ca 7C30     		adds	r0, r0, #124
 2796 01cc FFF7FEFF 		bl	List_ItemInit
 2797              	.LVL145:
 759:SYS/task_manager/task_manager.c **** 
 2798              		.loc 1 759 5 is_stmt 1 view .LVU813
 759:SYS/task_manager/task_manager.c **** 
 2799              		.loc 1 759 19 is_stmt 0 view .LVU814
 2800 01d0 104A     		ldr	r2, .L174+20
 2801 01d2 1378     		ldrb	r3, [r2]	@ zero_extendqisi2
 759:SYS/task_manager/task_manager.c **** 
 2802              		.loc 1 759 23 view .LVU815
 2803 01d4 0133     		adds	r3, r3, #1
 2804 01d6 1370     		strb	r3, [r2]
 761:SYS/task_manager/task_manager.c **** }
 2805              		.loc 1 761 5 is_stmt 1 view .LVU816
 761:SYS/task_manager/task_manager.c **** }
 2806              		.loc 1 761 12 is_stmt 0 view .LVU817
 2807 01d8 23E7     		b	.L163
 2808              	.L166:
 754:SYS/task_manager/task_manager.c ****     }
 2809              		.loc 1 754 9 is_stmt 1 view .LVU818
 754:SYS/task_manager/task_manager.c ****     }
 2810              		.loc 1 754 63 is_stmt 0 view .LVU819
 2811 01da 04EBC503 		add	r3, r4, r5, lsl #3
 2812 01de 0B4A     		ldr	r2, .L174+12
 2813 01e0 52F82330 		ldr	r3, [r2, r3, lsl #2]
 754:SYS/task_manager/task_manager.c ****     }
 2814              		.loc 1 754 9 view .LVU820
 2815 01e4 996F     		ldr	r1, [r3, #120]
 2816 01e6 0D48     		ldr	r0, .L174+28
 2817 01e8 FFF7FEFF 		bl	List_Insert_Item
 2818              	.LVL146:
 2819 01ec E6E7     		b	.L167
 2820              	.LVL147:
 2821              	.L169:
 706:SYS/task_manager/task_manager.c ****     }
 2822              		.loc 1 706 16 view .LVU821
 2823 01ee 4FF0000A 		mov	r10, #0
 2824              	.LVL148:
 706:SYS/task_manager/task_manager.c ****     }
 2825              		.loc 1 706 16 view .LVU822
 2826 01f2 16E7     		b	.L163
 2827              	.LVL149:
 2828              	.L170:
 744:SYS/task_manager/task_manager.c ****     }
 2829              		.loc 1 744 16 view .LVU823
ARM GAS  /var/folders/lx/hc4sn_b53233_zkc9xbbl97r0000gp/T//ccdoBicG.s 			page 80


 2830 01f4 4FF0000A 		mov	r10, #0
 2831              	.LVL150:
 744:SYS/task_manager/task_manager.c ****     }
 2832              		.loc 1 744 16 view .LVU824
 2833 01f8 13E7     		b	.L163
 2834              	.L175:
 2835 01fa 00BFAFF3 		.align	3
 2835      0080
 2836              	.L174:
 2837 0200 00000000 		.word	0
 2838 0204 80842E41 		.word	1093567616
 2839 0208 00000000 		.word	.LANCHOR16
 2840 020c 00000000 		.word	.LANCHOR4
 2841 0210 00000000 		.word	.LANCHOR0
 2842 0214 00000000 		.word	.LANCHOR5
 2843 0218 00000000 		.word	Task_PriorityCompare
 2844 021c 04000000 		.word	.LANCHOR5+4
 2845              		.cfi_endproc
 2846              	.LFE156:
 2848              		.section	.text.Task_Remove,"ax",%progbits
 2849              		.align	1
 2850              		.global	Task_Remove
 2851              		.syntax unified
 2852              		.thumb
 2853              		.thumb_func
 2854              		.fpu fpv4-sp-d16
 2856              	Task_Remove:
 2857              	.LVL151:
 2858              	.LFB160:
 791:SYS/task_manager/task_manager.c ****     //convert Tsk_Hdl from uint32_t var to Task Address which we need to delete
 2859              		.loc 1 791 1 is_stmt 1 view -0
 2860              		.cfi_startproc
 2861              		@ args = 0, pretend = 0, frame = 0
 2862              		@ frame_needed = 0, uses_anonymous_args = 0
 791:SYS/task_manager/task_manager.c ****     //convert Tsk_Hdl from uint32_t var to Task Address which we need to delete
 2863              		.loc 1 791 1 is_stmt 0 view .LVU826
 2864 0000 70B5     		push	{r4, r5, r6, lr}
 2865              	.LCFI31:
 2866              		.cfi_def_cfa_offset 16
 2867              		.cfi_offset 4, -16
 2868              		.cfi_offset 5, -12
 2869              		.cfi_offset 6, -8
 2870              		.cfi_offset 14, -4
 2871 0002 0546     		mov	r5, r0
 797:SYS/task_manager/task_manager.c ****     uint8_t remove_task = GET_TASKINGROUP_PRIORITY(((Task *)Tsk_Hdl)->priority.Priority);
 2872              		.loc 1 797 5 is_stmt 1 view .LVU827
 797:SYS/task_manager/task_manager.c ****     uint8_t remove_task = GET_TASKINGROUP_PRIORITY(((Task *)Tsk_Hdl)->priority.Priority);
 2873              		.loc 1 797 28 is_stmt 0 view .LVU828
 2874 0004 0378     		ldrb	r3, [r0]	@ zero_extendqisi2
 797:SYS/task_manager/task_manager.c ****     uint8_t remove_task = GET_TASKINGROUP_PRIORITY(((Task *)Tsk_Hdl)->priority.Priority);
 2875              		.loc 1 797 13 view .LVU829
 2876 0006 DE08     		lsrs	r6, r3, #3
 2877              	.LVL152:
 798:SYS/task_manager/task_manager.c **** 
 2878              		.loc 1 798 5 is_stmt 1 view .LVU830
 798:SYS/task_manager/task_manager.c **** 
 2879              		.loc 1 798 13 is_stmt 0 view .LVU831
ARM GAS  /var/folders/lx/hc4sn_b53233_zkc9xbbl97r0000gp/T//ccdoBicG.s 			page 81


 2880 0008 03F00704 		and	r4, r3, #7
 2881              	.LVL153:
 800:SYS/task_manager/task_manager.c **** 
 2882              		.loc 1 800 5 is_stmt 1 view .LVU832
 2883 000c FFF7FEFF 		bl	ReSet_Task_Data
 2884              	.LVL154:
 803:SYS/task_manager/task_manager.c ****     free((uint32_t *)((Task *)Tsk_Hdl)->TCB.Top_Stk_Ptr);
 2885              		.loc 1 803 5 view .LVU833
 2886 0010 686D     		ldr	r0, [r5, #84]
 2887 0012 FFF7FEFF 		bl	free
 2888              	.LVL155:
 804:SYS/task_manager/task_manager.c **** #endif
 2889              		.loc 1 804 5 view .LVU834
 804:SYS/task_manager/task_manager.c **** #endif
 2890              		.loc 1 804 44 is_stmt 0 view .LVU835
 2891 0016 286D     		ldr	r0, [r5, #80]
 804:SYS/task_manager/task_manager.c **** #endif
 2892              		.loc 1 804 5 view .LVU836
 2893 0018 FFF7FEFF 		bl	free
 2894              	.LVL156:
 807:SYS/task_manager/task_manager.c ****     Task_Ptr[remove_group][remove_task] = NULL;
 2895              		.loc 1 807 5 is_stmt 1 view .LVU837
 2896 001c 2846     		mov	r0, r5
 2897 001e FFF7FEFF 		bl	free
 2898              	.LVL157:
 808:SYS/task_manager/task_manager.c **** }
 2899              		.loc 1 808 5 view .LVU838
 808:SYS/task_manager/task_manager.c **** }
 2900              		.loc 1 808 41 is_stmt 0 view .LVU839
 2901 0022 04EBC603 		add	r3, r4, r6, lsl #3
 2902 0026 024A     		ldr	r2, .L178
 2903 0028 0021     		movs	r1, #0
 2904 002a 42F82310 		str	r1, [r2, r3, lsl #2]
 809:SYS/task_manager/task_manager.c **** 
 2905              		.loc 1 809 1 view .LVU840
 2906 002e 70BD     		pop	{r4, r5, r6, pc}
 2907              	.LVL158:
 2908              	.L179:
 809:SYS/task_manager/task_manager.c **** 
 2909              		.loc 1 809 1 view .LVU841
 2910              		.align	2
 2911              	.L178:
 2912 0030 00000000 		.word	.LANCHOR4
 2913              		.cfi_endproc
 2914              	.LFE160:
 2916              		.section	.text.TaskSystem_Start,"ax",%progbits
 2917              		.align	1
 2918              		.global	TaskSystem_Start
 2919              		.syntax unified
 2920              		.thumb
 2921              		.thumb_func
 2922              		.fpu fpv4-sp-d16
 2924              	TaskSystem_Start:
 2925              	.LFB161:
 812:SYS/task_manager/task_manager.c ****     Runtime_Config(RUNTIME_TICK_FRQ_40K);
 2926              		.loc 1 812 1 is_stmt 1 view -0
 2927              		.cfi_startproc
ARM GAS  /var/folders/lx/hc4sn_b53233_zkc9xbbl97r0000gp/T//ccdoBicG.s 			page 82


 2928              		@ args = 0, pretend = 0, frame = 0
 2929              		@ frame_needed = 0, uses_anonymous_args = 0
 2930 0000 10B5     		push	{r4, lr}
 2931              	.LCFI32:
 2932              		.cfi_def_cfa_offset 8
 2933              		.cfi_offset 4, -8
 2934              		.cfi_offset 14, -4
 813:SYS/task_manager/task_manager.c ****     Runtime_Set_start_Callback(NULL);
 2935              		.loc 1 813 5 view .LVU843
 2936 0002 49F64040 		movw	r0, #40000
 2937 0006 FFF7FEFF 		bl	Runtime_Config
 2938              	.LVL159:
 814:SYS/task_manager/task_manager.c ****     Runtime_Set_stop_Callback(NULL);
 2939              		.loc 1 814 5 view .LVU844
 2940 000a 0020     		movs	r0, #0
 2941 000c FFF7FEFF 		bl	Runtime_Set_start_Callback
 2942              	.LVL160:
 815:SYS/task_manager/task_manager.c ****     Runtime_Set_tick_Callback(Task_Scheduler); /* 5us cast by calling the scheduler */
 2943              		.loc 1 815 5 view .LVU845
 2944 0010 0020     		movs	r0, #0
 2945 0012 FFF7FEFF 		bl	Runtime_Set_stop_Callback
 2946              	.LVL161:
 816:SYS/task_manager/task_manager.c ****     Runtime_Start();
 2947              		.loc 1 816 5 view .LVU846
 2948 0016 1148     		ldr	r0, .L183
 2949 0018 FFF7FEFF 		bl	Runtime_Set_tick_Callback
 2950              	.LVL162:
 817:SYS/task_manager/task_manager.c **** 
 2951              		.loc 1 817 5 view .LVU847
 2952 001c FFF7FEFF 		bl	Runtime_Start
 2953              	.LVL163:
 819:SYS/task_manager/task_manager.c **** 
 2954              		.loc 1 819 5 view .LVU848
 2955 0020 0F4C     		ldr	r4, .L183+4
 2956 0022 2046     		mov	r0, r4
 2957 0024 FFF7FEFF 		bl	RuntimeObj_Reset
 2958              	.LVL164:
 821:SYS/task_manager/task_manager.c **** 
 2959              		.loc 1 821 5 view .LVU849
 821:SYS/task_manager/task_manager.c **** 
 2960              		.loc 1 821 25 is_stmt 0 view .LVU850
 2961 0028 FFF7FEFF 		bl	Get_CurrentRunningUs
 2962              	.LVL165:
 821:SYS/task_manager/task_manager.c **** 
 2963              		.loc 1 821 23 view .LVU851
 2964 002c C4E90001 		strd	r0, [r4]
 824:SYS/task_manager/task_manager.c **** 
 2965              		.loc 1 824 5 is_stmt 1 view .LVU852
 824:SYS/task_manager/task_manager.c **** 
 2966              		.loc 1 824 21 is_stmt 0 view .LVU853
 2967 0030 FFF7FEFF 		bl	Task_Get_HighestRank_RdyTask
 2968              	.LVL166:
 824:SYS/task_manager/task_manager.c **** 
 2969              		.loc 1 824 19 view .LVU854
 2970 0034 0B4B     		ldr	r3, .L183+8
 2971 0036 1860     		str	r0, [r3]
 826:SYS/task_manager/task_manager.c ****     {
ARM GAS  /var/folders/lx/hc4sn_b53233_zkc9xbbl97r0000gp/T//ccdoBicG.s 			page 83


 2972              		.loc 1 826 5 is_stmt 1 view .LVU855
 826:SYS/task_manager/task_manager.c ****     {
 2973              		.loc 1 826 8 is_stmt 0 view .LVU856
 2974 0038 50B1     		cbz	r0, .L181
 828:SYS/task_manager/task_manager.c ****         NxtTsk_TCB.Stack = NxtRunTsk_Ptr->TCB.Stack;
 2975              		.loc 1 828 9 is_stmt 1 view .LVU857
 828:SYS/task_manager/task_manager.c ****         NxtTsk_TCB.Stack = NxtRunTsk_Ptr->TCB.Stack;
 2976              		.loc 1 828 34 is_stmt 0 view .LVU858
 2977 003a 00F15002 		add	r2, r0, #80
 828:SYS/task_manager/task_manager.c ****         NxtTsk_TCB.Stack = NxtRunTsk_Ptr->TCB.Stack;
 2978              		.loc 1 828 32 view .LVU859
 2979 003e 0A4B     		ldr	r3, .L183+12
 2980 0040 1A60     		str	r2, [r3]
 829:SYS/task_manager/task_manager.c **** 
 2981              		.loc 1 829 9 is_stmt 1 view .LVU860
 829:SYS/task_manager/task_manager.c **** 
 2982              		.loc 1 829 46 is_stmt 0 view .LVU861
 2983 0042 426D     		ldr	r2, [r0, #84]
 829:SYS/task_manager/task_manager.c **** 
 2984              		.loc 1 829 26 view .LVU862
 2985 0044 5A60     		str	r2, [r3, #4]
 831:SYS/task_manager/task_manager.c ****     }
 2986              		.loc 1 831 9 is_stmt 1 view .LVU863
 831:SYS/task_manager/task_manager.c ****     }
 2987              		.loc 1 831 20 is_stmt 0 view .LVU864
 2988 0046 094A     		ldr	r2, .L183+16
 2989 0048 93E80300 		ldm	r3, {r0, r1}
 2990 004c 82E80300 		stm	r2, {r0, r1}
 2991              	.L181:
 835:SYS/task_manager/task_manager.c ****     Task_TriggerPendSV();
 2992              		.loc 1 835 5 is_stmt 1 view .LVU865
 2993 0050 FFF7FEFF 		bl	Task_SetPendSVPro
 2994              	.LVL167:
 836:SYS/task_manager/task_manager.c **** 
 2995              		.loc 1 836 5 view .LVU866
 2996 0054 FFF7FEFF 		bl	Task_TriggerPendSV
 2997              	.LVL168:
 838:SYS/task_manager/task_manager.c **** }
 2998              		.loc 1 838 5 view .LVU867
 839:SYS/task_manager/task_manager.c **** 
 2999              		.loc 1 839 1 is_stmt 0 view .LVU868
 3000 0058 10BD     		pop	{r4, pc}
 3001              	.L184:
 3002 005a 00BF     		.align	2
 3003              	.L183:
 3004 005c 00000000 		.word	Task_Scheduler
 3005 0060 00000000 		.word	.LANCHOR8
 3006 0064 00000000 		.word	.LANCHOR11
 3007 0068 00000000 		.word	.LANCHOR12
 3008 006c 00000000 		.word	.LANCHOR13
 3009              		.cfi_endproc
 3010              	.LFE161:
 3012              		.section	.text.Task_SetRunState,"ax",%progbits
 3013              		.align	1
 3014              		.global	Task_SetRunState
 3015              		.syntax unified
 3016              		.thumb
ARM GAS  /var/folders/lx/hc4sn_b53233_zkc9xbbl97r0000gp/T//ccdoBicG.s 			page 84


 3017              		.thumb_func
 3018              		.fpu fpv4-sp-d16
 3020              	Task_SetRunState:
 3021              	.LVL169:
 3022              	.LFB162:
 842:SYS/task_manager/task_manager.c ****     ((Task *)Tsk_Handle)->Exec_status.State = state;
 3023              		.loc 1 842 1 is_stmt 1 view -0
 3024              		.cfi_startproc
 3025              		@ args = 0, pretend = 0, frame = 0
 3026              		@ frame_needed = 0, uses_anonymous_args = 0
 3027              		@ link register save eliminated.
 843:SYS/task_manager/task_manager.c **** }
 3028              		.loc 1 843 5 view .LVU870
 843:SYS/task_manager/task_manager.c **** }
 3029              		.loc 1 843 45 is_stmt 0 view .LVU871
 3030 0000 80F84810 		strb	r1, [r0, #72]
 844:SYS/task_manager/task_manager.c **** 
 3031              		.loc 1 844 1 view .LVU872
 3032 0004 7047     		bx	lr
 3033              		.cfi_endproc
 3034              	.LFE162:
 3036              		.section	.text.Task_CountRunningTime,"ax",%progbits
 3037              		.align	1
 3038              		.global	Task_CountRunningTime
 3039              		.syntax unified
 3040              		.thumb
 3041              		.thumb_func
 3042              		.fpu fpv4-sp-d16
 3044              	Task_CountRunningTime:
 3045              	.LFB163:
 847:SYS/task_manager/task_manager.c ****     if (CurRunTsk_Ptr != NULL)
 3046              		.loc 1 847 1 is_stmt 1 view -0
 3047              		.cfi_startproc
 3048              		@ args = 0, pretend = 0, frame = 0
 3049              		@ frame_needed = 0, uses_anonymous_args = 0
 3050 0000 08B5     		push	{r3, lr}
 3051              	.LCFI33:
 3052              		.cfi_def_cfa_offset 8
 3053              		.cfi_offset 3, -8
 3054              		.cfi_offset 14, -4
 848:SYS/task_manager/task_manager.c ****     {
 3055              		.loc 1 848 5 view .LVU874
 848:SYS/task_manager/task_manager.c ****     {
 3056              		.loc 1 848 23 is_stmt 0 view .LVU875
 3057 0002 0D4B     		ldr	r3, .L192
 3058 0004 1B68     		ldr	r3, [r3]
 848:SYS/task_manager/task_manager.c ****     {
 3059              		.loc 1 848 8 view .LVU876
 3060 0006 6BB1     		cbz	r3, .L186
 3061              	.LBB5:
 850:SYS/task_manager/task_manager.c **** 
 3062              		.loc 1 850 9 is_stmt 1 view .LVU877
 3063 0008 FFF7FEFF 		bl	RunTime_Tick
 3064              	.LVL170:
 852:SYS/task_manager/task_manager.c ****         {
 3065              		.loc 1 852 9 view .LVU878
 852:SYS/task_manager/task_manager.c ****         {
ARM GAS  /var/folders/lx/hc4sn_b53233_zkc9xbbl97r0000gp/T//ccdoBicG.s 			page 85


 3066              		.loc 1 852 26 is_stmt 0 view .LVU879
 3067 000c 0A4B     		ldr	r3, .L192
 3068 000e 1B68     		ldr	r3, [r3]
 852:SYS/task_manager/task_manager.c ****         {
 3069              		.loc 1 852 46 view .LVU880
 3070 0010 93F85820 		ldrb	r2, [r3, #88]	@ zero_extendqisi2
 3071 0014 1209     		lsrs	r2, r2, #4
 852:SYS/task_manager/task_manager.c ****         {
 3072              		.loc 1 852 12 view .LVU881
 3073 0016 012A     		cmp	r2, #1
 3074 0018 05D0     		beq	.L190
 3075              	.L188:
 857:SYS/task_manager/task_manager.c ****         {
 3076              		.loc 1 857 9 is_stmt 1 view .LVU882
 857:SYS/task_manager/task_manager.c ****         {
 3077              		.loc 1 857 46 is_stmt 0 view .LVU883
 3078 001a 93F85820 		ldrb	r2, [r3, #88]	@ zero_extendqisi2
 3079 001e 1209     		lsrs	r2, r2, #4
 857:SYS/task_manager/task_manager.c ****         {
 3080              		.loc 1 857 12 view .LVU884
 3081 0020 012A     		cmp	r2, #1
 3082 0022 04D0     		beq	.L191
 3083              	.L186:
 3084              	.LBE5:
 862:SYS/task_manager/task_manager.c **** 
 3085              		.loc 1 862 1 view .LVU885
 3086 0024 08BD     		pop	{r3, pc}
 3087              	.L190:
 3088              	.LBB6:
 854:SYS/task_manager/task_manager.c ****         }
 3089              		.loc 1 854 13 is_stmt 1 view .LVU886
 854:SYS/task_manager/task_manager.c ****         }
 3090              		.loc 1 854 26 is_stmt 0 view .LVU887
 3091 0026 DA6D     		ldr	r2, [r3, #92]
 854:SYS/task_manager/task_manager.c ****         }
 3092              		.loc 1 854 42 view .LVU888
 3093 0028 0132     		adds	r2, r2, #1
 3094 002a DA65     		str	r2, [r3, #92]
 3095 002c F5E7     		b	.L188
 3096              	.L191:
 859:SYS/task_manager/task_manager.c ****         }
 3097              		.loc 1 859 13 is_stmt 1 view .LVU889
 859:SYS/task_manager/task_manager.c ****         }
 3098              		.loc 1 859 26 is_stmt 0 view .LVU890
 3099 002e 1A6E     		ldr	r2, [r3, #96]
 859:SYS/task_manager/task_manager.c ****         }
 3100              		.loc 1 859 42 view .LVU891
 3101 0030 0132     		adds	r2, r2, #1
 3102 0032 1A66     		str	r2, [r3, #96]
 3103              	.LBE6:
 862:SYS/task_manager/task_manager.c **** 
 3104              		.loc 1 862 1 view .LVU892
 3105 0034 F6E7     		b	.L186
 3106              	.L193:
 3107 0036 00BF     		.align	2
 3108              	.L192:
 3109 0038 00000000 		.word	.LANCHOR6
ARM GAS  /var/folders/lx/hc4sn_b53233_zkc9xbbl97r0000gp/T//ccdoBicG.s 			page 86


 3110              		.cfi_endproc
 3111              	.LFE163:
 3113              		.section	.text.Task_Get_IdleUS,"ax",%progbits
 3114              		.align	1
 3115              		.global	Task_Get_IdleUS
 3116              		.syntax unified
 3117              		.thumb
 3118              		.thumb_func
 3119              		.fpu fpv4-sp-d16
 3121              	Task_Get_IdleUS:
 3122              	.LFB166:
 949:SYS/task_manager/task_manager.c ****     return TaskSys_Idle_US;
 3123              		.loc 1 949 1 is_stmt 1 view -0
 3124              		.cfi_startproc
 3125              		@ args = 0, pretend = 0, frame = 0
 3126              		@ frame_needed = 0, uses_anonymous_args = 0
 3127              		@ link register save eliminated.
 950:SYS/task_manager/task_manager.c **** }
 3128              		.loc 1 950 5 view .LVU894
 951:SYS/task_manager/task_manager.c **** 
 3129              		.loc 1 951 1 is_stmt 0 view .LVU895
 3130 0000 014B     		ldr	r3, .L195
 3131 0002 1868     		ldr	r0, [r3]
 3132 0004 7047     		bx	lr
 3133              	.L196:
 3134 0006 00BF     		.align	2
 3135              	.L195:
 3136 0008 00000000 		.word	.LANCHOR9
 3137              		.cfi_endproc
 3138              	.LFE166:
 3140              		.section	.text.Task_Get_IdleOcupy,"ax",%progbits
 3141              		.align	1
 3142              		.global	Task_Get_IdleOcupy
 3143              		.syntax unified
 3144              		.thumb
 3145              		.thumb_func
 3146              		.fpu fpv4-sp-d16
 3148              	Task_Get_IdleOcupy:
 3149              	.LFB167:
 954:SYS/task_manager/task_manager.c ****     return TaskSys_Idle_Ocupy;
 3150              		.loc 1 954 1 is_stmt 1 view -0
 3151              		.cfi_startproc
 3152              		@ args = 0, pretend = 0, frame = 0
 3153              		@ frame_needed = 0, uses_anonymous_args = 0
 3154              		@ link register save eliminated.
 955:SYS/task_manager/task_manager.c **** }
 3155              		.loc 1 955 5 view .LVU897
 956:SYS/task_manager/task_manager.c **** 
 3156              		.loc 1 956 1 is_stmt 0 view .LVU898
 3157 0000 014B     		ldr	r3, .L198
 3158 0002 93ED000A 		vldr.32	s0, [r3]
 3159 0006 7047     		bx	lr
 3160              	.L199:
 3161              		.align	2
 3162              	.L198:
 3163 0008 00000000 		.word	.LANCHOR10
 3164              		.cfi_endproc
ARM GAS  /var/folders/lx/hc4sn_b53233_zkc9xbbl97r0000gp/T//ccdoBicG.s 			page 87


 3165              	.LFE167:
 3167              		.section	.text.TaskSys_Set_State,"ax",%progbits
 3168              		.align	1
 3169              		.global	TaskSys_Set_State
 3170              		.syntax unified
 3171              		.thumb
 3172              		.thumb_func
 3173              		.fpu fpv4-sp-d16
 3175              	TaskSys_Set_State:
 3176              	.LVL171:
 3177              	.LFB169:
 969:SYS/task_manager/task_manager.c ****     TskSys_state = state;
 3178              		.loc 1 969 1 is_stmt 1 view -0
 3179              		.cfi_startproc
 3180              		@ args = 0, pretend = 0, frame = 0
 3181              		@ frame_needed = 0, uses_anonymous_args = 0
 3182              		@ link register save eliminated.
 970:SYS/task_manager/task_manager.c **** }
 3183              		.loc 1 970 5 view .LVU900
 970:SYS/task_manager/task_manager.c **** }
 3184              		.loc 1 970 18 is_stmt 0 view .LVU901
 3185 0000 014B     		ldr	r3, .L201
 3186 0002 1870     		strb	r0, [r3]
 971:SYS/task_manager/task_manager.c **** 
 3187              		.loc 1 971 1 view .LVU902
 3188 0004 7047     		bx	lr
 3189              	.L202:
 3190 0006 00BF     		.align	2
 3191              	.L201:
 3192 0008 00000000 		.word	.LANCHOR7
 3193              		.cfi_endproc
 3194              	.LFE169:
 3196              		.section	.text.TaskSys_Get_State,"ax",%progbits
 3197              		.align	1
 3198              		.global	TaskSys_Get_State
 3199              		.syntax unified
 3200              		.thumb
 3201              		.thumb_func
 3202              		.fpu fpv4-sp-d16
 3204              	TaskSys_Get_State:
 3205              	.LFB170:
 974:SYS/task_manager/task_manager.c ****     return TskSys_state;
 3206              		.loc 1 974 1 is_stmt 1 view -0
 3207              		.cfi_startproc
 3208              		@ args = 0, pretend = 0, frame = 0
 3209              		@ frame_needed = 0, uses_anonymous_args = 0
 3210              		@ link register save eliminated.
 975:SYS/task_manager/task_manager.c **** }
 3211              		.loc 1 975 5 view .LVU904
 975:SYS/task_manager/task_manager.c **** }
 3212              		.loc 1 975 12 is_stmt 0 view .LVU905
 3213 0000 014B     		ldr	r3, .L204
 3214 0002 1878     		ldrb	r0, [r3]	@ zero_extendqisi2
 976:SYS/task_manager/task_manager.c **** 
 3215              		.loc 1 976 1 view .LVU906
 3216 0004 7047     		bx	lr
 3217              	.L205:
ARM GAS  /var/folders/lx/hc4sn_b53233_zkc9xbbl97r0000gp/T//ccdoBicG.s 			page 88


 3218 0006 00BF     		.align	2
 3219              	.L204:
 3220 0008 00000000 		.word	.LANCHOR7
 3221              		.cfi_endproc
 3222              	.LFE170:
 3224              		.section	.text.Task_GetInfo_ByIndex,"ax",%progbits
 3225              		.align	1
 3226              		.global	Task_GetInfo_ByIndex
 3227              		.syntax unified
 3228              		.thumb
 3229              		.thumb_func
 3230              		.fpu fpv4-sp-d16
 3232              	Task_GetInfo_ByIndex:
 3233              	.LVL172:
 3234              	.LFB173:
1115:SYS/task_manager/task_manager.c **** 
1116:SYS/task_manager/task_manager.c **** Task_Base_Info Task_GetInfo_ByIndex(uint8_t index)
1117:SYS/task_manager/task_manager.c **** {
 3235              		.loc 1 1117 1 is_stmt 1 view -0
 3236              		.cfi_startproc
 3237              		@ args = 0, pretend = 0, frame = 0
 3238              		@ frame_needed = 0, uses_anonymous_args = 0
 3239              		@ link register save eliminated.
1118:SYS/task_manager/task_manager.c ****     Task_Base_Info task_info;
 3240              		.loc 1 1118 5 view .LVU908
1119:SYS/task_manager/task_manager.c **** 
1120:SYS/task_manager/task_manager.c ****     return task_info;
 3241              		.loc 1 1120 5 view .LVU909
1121:SYS/task_manager/task_manager.c **** }
 3242              		.loc 1 1121 1 is_stmt 0 view .LVU910
 3243 0000 7047     		bx	lr
 3244              		.cfi_endproc
 3245              	.LFE173:
 3247              		.section	.text.Task_GetCurrentRunTask,"ax",%progbits
 3248              		.align	1
 3249              		.global	Task_GetCurrentRunTask
 3250              		.syntax unified
 3251              		.thumb
 3252              		.thumb_func
 3253              		.fpu fpv4-sp-d16
 3255              	Task_GetCurrentRunTask:
 3256              	.LFB174:
1122:SYS/task_manager/task_manager.c **** 
1123:SYS/task_manager/task_manager.c **** Task *Task_GetCurrentRunTask(void)
1124:SYS/task_manager/task_manager.c **** {
 3257              		.loc 1 1124 1 is_stmt 1 view -0
 3258              		.cfi_startproc
 3259              		@ args = 0, pretend = 0, frame = 0
 3260              		@ frame_needed = 0, uses_anonymous_args = 0
 3261              		@ link register save eliminated.
1125:SYS/task_manager/task_manager.c ****     return CurRunTsk_Ptr;
 3262              		.loc 1 1125 5 view .LVU912
1126:SYS/task_manager/task_manager.c **** }
 3263              		.loc 1 1126 1 is_stmt 0 view .LVU913
 3264 0000 014B     		ldr	r3, .L208
 3265 0002 1868     		ldr	r0, [r3]
 3266 0004 7047     		bx	lr
ARM GAS  /var/folders/lx/hc4sn_b53233_zkc9xbbl97r0000gp/T//ccdoBicG.s 			page 89


 3267              	.L209:
 3268 0006 00BF     		.align	2
 3269              	.L208:
 3270 0008 00000000 		.word	.LANCHOR6
 3271              		.cfi_endproc
 3272              	.LFE174:
 3274              		.global	Task_OS_ExpStkBase
 3275              		.global	NxtTsk_TCB
 3276              		.global	CurTsk_TCB
 3277              		.global	PndHstTsk_Ptr
 3278              		.global	NxtRunTsk_Ptr
 3279              		.global	CurRunTsk_Ptr
 3280              		.global	Task_Ptr
 3281              		.section	.bss.CurRunTsk_Ptr,"aw",%nobits
 3282              		.align	2
 3283              		.set	.LANCHOR6,. + 0
 3286              	CurRunTsk_Ptr:
 3287 0000 00000000 		.space	4
 3288              		.section	.bss.CurTsk_TCB,"aw",%nobits
 3289              		.align	2
 3290              		.set	.LANCHOR13,. + 0
 3293              	CurTsk_TCB:
 3294 0000 00000000 		.space	8
 3294      00000000 
 3295              		.section	.bss.NxtRunTsk_Ptr,"aw",%nobits
 3296              		.align	2
 3297              		.set	.LANCHOR11,. + 0
 3300              	NxtRunTsk_Ptr:
 3301 0000 00000000 		.space	4
 3302              		.section	.bss.NxtTsk_TCB,"aw",%nobits
 3303              		.align	2
 3304              		.set	.LANCHOR12,. + 0
 3307              	NxtTsk_TCB:
 3308 0000 00000000 		.space	8
 3308      00000000 
 3309              		.section	.bss.PndHstTsk_Ptr,"aw",%nobits
 3310              		.align	2
 3311              		.set	.LANCHOR15,. + 0
 3314              	PndHstTsk_Ptr:
 3315 0000 00000000 		.space	4
 3316              		.section	.bss.TaskSys_Idle_Ocupy,"aw",%nobits
 3317              		.align	2
 3318              		.set	.LANCHOR10,. + 0
 3321              	TaskSys_Idle_Ocupy:
 3322 0000 00000000 		.space	4
 3323              		.section	.bss.TaskSys_Idle_US,"aw",%nobits
 3324              		.align	2
 3325              		.set	.LANCHOR9,. + 0
 3328              	TaskSys_Idle_US:
 3329 0000 00000000 		.space	4
 3330              		.section	.bss.TaskSys_StartTime,"aw",%nobits
 3331              		.align	3
 3332              		.set	.LANCHOR8,. + 0
 3335              	TaskSys_StartTime:
 3336 0000 00000000 		.space	8
 3336      00000000 
 3337              		.section	.bss.Task_OS_ExpStkBase,"aw",%nobits
ARM GAS  /var/folders/lx/hc4sn_b53233_zkc9xbbl97r0000gp/T//ccdoBicG.s 			page 90


 3338              		.align	2
 3339              		.set	.LANCHOR3,. + 0
 3342              	Task_OS_ExpStkBase:
 3343 0000 00000000 		.space	4
 3344              		.section	.bss.Task_OS_StkMem,"aw",%nobits
 3345              		.align	2
 3348              	Task_OS_StkMem:
 3349 0000 00000000 		.space	40960
 3349      00000000 
 3349      00000000 
 3349      00000000 
 3349      00000000 
 3350              		.section	.bss.Task_Ptr,"aw",%nobits
 3351              		.align	2
 3352              		.set	.LANCHOR4,. + 0
 3355              	Task_Ptr:
 3356 0000 00000000 		.space	256
 3356      00000000 
 3356      00000000 
 3356      00000000 
 3356      00000000 
 3357              		.section	.bss.TskCrt_RegList,"aw",%nobits
 3358              		.align	2
 3359              		.set	.LANCHOR5,. + 0
 3362              	TskCrt_RegList:
 3363 0000 00000000 		.space	24
 3363      00000000 
 3363      00000000 
 3363      00000000 
 3363      00000000 
 3364              		.section	.bss.TskHdl_BlkMap,"aw",%nobits
 3365              		.align	2
 3366              		.set	.LANCHOR1,. + 0
 3369              	TskHdl_BlkMap:
 3370 0000 00000000 		.space	9
 3370      00000000 
 3370      00
 3371              		.section	.bss.TskHdl_PndMap,"aw",%nobits
 3372              		.align	2
 3373              		.set	.LANCHOR2,. + 0
 3376              	TskHdl_PndMap:
 3377 0000 00000000 		.space	9
 3377      00000000 
 3377      00
 3378              		.section	.bss.TskHdl_RdyMap,"aw",%nobits
 3379              		.align	2
 3380              		.set	.LANCHOR0,. + 0
 3383              	TskHdl_RdyMap:
 3384 0000 00000000 		.space	9
 3384      00000000 
 3384      00
 3385              		.section	.bss.TskSys_state,"aw",%nobits
 3386              		.set	.LANCHOR7,. + 0
 3389              	TskSys_state:
 3390 0000 00       		.space	1
 3391              		.section	.bss.taskOs_InitState.0,"aw",%nobits
 3392              		.set	.LANCHOR16,. + 0
ARM GAS  /var/folders/lx/hc4sn_b53233_zkc9xbbl97r0000gp/T//ccdoBicG.s 			page 91


 3395              	taskOs_InitState.0:
 3396 0000 00       		.space	1
 3397              		.section	.rodata.Tsk_Handle,"a"
 3398              		.align	2
 3399              		.set	.LANCHOR14,. + 0
 3402              	Tsk_Handle:
 3403 0000 00000100 		.ascii	"\000\000\001\000\002\000\001\000\003\000\001\000\002"
 3403      02000100 
 3403      03000100 
 3403      02
 3404 000d 00010004 		.ascii	"\000\001\000\004\000\001\000\002\000\001\000\003\000"
 3404      00010002 
 3404      00010003 
 3404      00
 3405 001a 01000200 		.ascii	"\001\000\002\000\001\000\005\000\001\000\002\000\001"
 3405      01000500 
 3405      01000200 
 3405      01
 3406 0027 00030001 		.ascii	"\000\003\000\001\000\002\000\001\000\004\000\001\000"
 3406      00020001 
 3406      00040001 
 3406      00
 3407 0034 02000100 		.ascii	"\002\000\001\000\003\000\001\000\002\000\001\000\006"
 3407      03000100 
 3407      02000100 
 3407      06
 3408 0041 00010002 		.ascii	"\000\001\000\002\000\001\000\003\000\001\000\002\000"
 3408      00010003 
 3408      00010002 
 3408      00
 3409 004e 01000400 		.ascii	"\001\000\004\000\001\000\002\000\001\000\003\000\001"
 3409      01000200 
 3409      01000300 
 3409      01
 3410 005b 00020001 		.ascii	"\000\002\000\001\000\005\000\001\000\002\000\001\000"
 3410      00050001 
 3410      00020001 
 3410      00
 3411 0068 03000100 		.ascii	"\003\000\001\000\002\000\001\000\004\000\001\000\002"
 3411      02000100 
 3411      04000100 
 3411      02
 3412 0075 00010003 		.ascii	"\000\001\000\003\000\001\000\002\000\001\000\007\000"
 3412      00010002 
 3412      00010007 
 3412      00
 3413 0082 01000200 		.ascii	"\001\000\002\000\001\000\003\000\001\000\002\000\001"
 3413      01000300 
 3413      01000200 
 3413      01
 3414 008f 00040001 		.ascii	"\000\004\000\001\000\002\000\001\000\003\000\001\000"
 3414      00020001 
 3414      00030001 
 3414      00
 3415 009c 02000100 		.ascii	"\002\000\001\000\005\000\001\000\002\000\001\000\003"
 3415      05000100 
 3415      02000100 
ARM GAS  /var/folders/lx/hc4sn_b53233_zkc9xbbl97r0000gp/T//ccdoBicG.s 			page 92


 3415      03
 3416 00a9 00010002 		.ascii	"\000\001\000\002\000\001\000\004\000\001\000\002\000"
 3416      00010004 
 3416      00010002 
 3416      00
 3417 00b6 01000300 		.ascii	"\001\000\003\000\001\000\002\000\001\000\006\000\001"
 3417      01000200 
 3417      01000600 
 3417      01
 3418 00c3 00020001 		.ascii	"\000\002\000\001\000\003\000\001\000\002\000\001\000"
 3418      00030001 
 3418      00020001 
 3418      00
 3419 00d0 04000100 		.ascii	"\004\000\001\000\002\000\001\000\003\000\001\000\002"
 3419      02000100 
 3419      03000100 
 3419      02
 3420 00dd 00010005 		.ascii	"\000\001\000\005\000\001\000\002\000\001\000\003\000"
 3420      00010002 
 3420      00010003 
 3420      00
 3421 00ea 01000200 		.ascii	"\001\000\002\000\001\000\004\000\001\000\002\000\001"
 3421      01000400 
 3421      01000200 
 3421      01
 3422 00f7 00030001 		.ascii	"\000\003\000\001\000\002\000\001\000"
 3422      00020001 
 3422      00
 3423              		.text
 3424              	.Letext0:
 3425              		.file 2 "/usr/local/arm-none-eabi-gcc/gcc-arm-none-eabi-10-2020-q4-major/arm-none-eabi/include/mac
 3426              		.file 3 "/usr/local/arm-none-eabi-gcc/gcc-arm-none-eabi-10-2020-q4-major/arm-none-eabi/include/sys
 3427              		.file 4 "SYS/runtime/runtime.h"
 3428              		.file 5 "SYS/data_structure/linked_list.h"
 3429              		.file 6 "SYS/task_manager/task_manager.h"
 3430              		.file 7 "/usr/local/arm-none-eabi-gcc/gcc-arm-none-eabi-10-2020-q4-major/arm-none-eabi/include/std
 3431              		.file 8 "<built-in>"
ARM GAS  /var/folders/lx/hc4sn_b53233_zkc9xbbl97r0000gp/T//ccdoBicG.s 			page 93


DEFINED SYMBOLS
                            *ABS*:0000000000000000 task_manager.c
/var/folders/lx/hc4sn_b53233_zkc9xbbl97r0000gp/T//ccdoBicG.s:18     .text.Task_Exit:0000000000000000 $t
/var/folders/lx/hc4sn_b53233_zkc9xbbl97r0000gp/T//ccdoBicG.s:25     .text.Task_Exit:0000000000000000 Task_Exit
/var/folders/lx/hc4sn_b53233_zkc9xbbl97r0000gp/T//ccdoBicG.s:43     .text.Task_SetBASEPRI:0000000000000000 $t
/var/folders/lx/hc4sn_b53233_zkc9xbbl97r0000gp/T//ccdoBicG.s:49     .text.Task_SetBASEPRI:0000000000000000 Task_SetBASEPRI
/var/folders/lx/hc4sn_b53233_zkc9xbbl97r0000gp/T//ccdoBicG.s:70     .text.Task_SetReady:0000000000000000 $t
/var/folders/lx/hc4sn_b53233_zkc9xbbl97r0000gp/T//ccdoBicG.s:76     .text.Task_SetReady:0000000000000000 Task_SetReady
/var/folders/lx/hc4sn_b53233_zkc9xbbl97r0000gp/T//ccdoBicG.s:130    .text.Task_SetReady:0000000000000038 $d
/var/folders/lx/hc4sn_b53233_zkc9xbbl97r0000gp/T//ccdoBicG.s:135    .text.Task_ClearBlock:0000000000000000 $t
/var/folders/lx/hc4sn_b53233_zkc9xbbl97r0000gp/T//ccdoBicG.s:141    .text.Task_ClearBlock:0000000000000000 Task_ClearBlock
/var/folders/lx/hc4sn_b53233_zkc9xbbl97r0000gp/T//ccdoBicG.s:198    .text.Task_ClearBlock:000000000000003c $d
/var/folders/lx/hc4sn_b53233_zkc9xbbl97r0000gp/T//ccdoBicG.s:203    .text.Task_ClearPending:0000000000000000 $t
/var/folders/lx/hc4sn_b53233_zkc9xbbl97r0000gp/T//ccdoBicG.s:209    .text.Task_ClearPending:0000000000000000 Task_ClearPending
/var/folders/lx/hc4sn_b53233_zkc9xbbl97r0000gp/T//ccdoBicG.s:266    .text.Task_ClearPending:000000000000003c $d
/var/folders/lx/hc4sn_b53233_zkc9xbbl97r0000gp/T//ccdoBicG.s:271    .text.Task_ClearReady:0000000000000000 $t
/var/folders/lx/hc4sn_b53233_zkc9xbbl97r0000gp/T//ccdoBicG.s:277    .text.Task_ClearReady:0000000000000000 Task_ClearReady
/var/folders/lx/hc4sn_b53233_zkc9xbbl97r0000gp/T//ccdoBicG.s:335    .text.Task_ClearReady:000000000000003c $d
/var/folders/lx/hc4sn_b53233_zkc9xbbl97r0000gp/T//ccdoBicG.s:340    .text.Task_SetPendSVPro:0000000000000000 $t
/var/folders/lx/hc4sn_b53233_zkc9xbbl97r0000gp/T//ccdoBicG.s:346    .text.Task_SetPendSVPro:0000000000000000 Task_SetPendSVPro
/var/folders/lx/hc4sn_b53233_zkc9xbbl97r0000gp/T//ccdoBicG.s:356    *ABS*:00000000e000ed22 NVIC_SYSPRI14
/var/folders/lx/hc4sn_b53233_zkc9xbbl97r0000gp/T//ccdoBicG.s:360    *ABS*:00000000000000ff NVIC_PENDSV_PRI
/var/folders/lx/hc4sn_b53233_zkc9xbbl97r0000gp/T//ccdoBicG.s:3342   .bss.Task_OS_ExpStkBase:0000000000000000 Task_OS_ExpStkBase
/var/folders/lx/hc4sn_b53233_zkc9xbbl97r0000gp/T//ccdoBicG.s:405    .text.Task_PriorityCompare:0000000000000000 $t
/var/folders/lx/hc4sn_b53233_zkc9xbbl97r0000gp/T//ccdoBicG.s:412    .text.Task_PriorityCompare:0000000000000000 Task_PriorityCompare
/var/folders/lx/hc4sn_b53233_zkc9xbbl97r0000gp/T//ccdoBicG.s:518    .text.ReSet_Task_Data:0000000000000000 $t
/var/folders/lx/hc4sn_b53233_zkc9xbbl97r0000gp/T//ccdoBicG.s:524    .text.ReSet_Task_Data:0000000000000000 ReSet_Task_Data
/var/folders/lx/hc4sn_b53233_zkc9xbbl97r0000gp/T//ccdoBicG.s:619    .text.TaskSys_Init:0000000000000000 $t
/var/folders/lx/hc4sn_b53233_zkc9xbbl97r0000gp/T//ccdoBicG.s:625    .text.TaskSys_Init:0000000000000000 TaskSys_Init
/var/folders/lx/hc4sn_b53233_zkc9xbbl97r0000gp/T//ccdoBicG.s:752    .text.TaskSys_Init:0000000000000070 $d
/var/folders/lx/hc4sn_b53233_zkc9xbbl97r0000gp/T//ccdoBicG.s:3348   .bss.Task_OS_StkMem:0000000000000000 Task_OS_StkMem
/var/folders/lx/hc4sn_b53233_zkc9xbbl97r0000gp/T//ccdoBicG.s:763    .text.Task_SetStkPtr_Val:0000000000000000 $t
/var/folders/lx/hc4sn_b53233_zkc9xbbl97r0000gp/T//ccdoBicG.s:769    .text.Task_SetStkPtr_Val:0000000000000000 Task_SetStkPtr_Val
/var/folders/lx/hc4sn_b53233_zkc9xbbl97r0000gp/T//ccdoBicG.s:855    .text.Task_SetStkPtr_Val:0000000000000050 $d
/var/folders/lx/hc4sn_b53233_zkc9xbbl97r0000gp/T//ccdoBicG.s:1154   .text.Task_Caller:0000000000000000 Task_Caller
/var/folders/lx/hc4sn_b53233_zkc9xbbl97r0000gp/T//ccdoBicG.s:862    .text.Task_Idle:0000000000000000 $t
/var/folders/lx/hc4sn_b53233_zkc9xbbl97r0000gp/T//ccdoBicG.s:868    .text.Task_Idle:0000000000000000 Task_Idle
/var/folders/lx/hc4sn_b53233_zkc9xbbl97r0000gp/T//ccdoBicG.s:938    .text.Task_Idle:0000000000000054 $d
/var/folders/lx/hc4sn_b53233_zkc9xbbl97r0000gp/T//ccdoBicG.s:945    .text.Task_Exec:0000000000000000 $t
/var/folders/lx/hc4sn_b53233_zkc9xbbl97r0000gp/T//ccdoBicG.s:951    .text.Task_Exec:0000000000000000 Task_Exec
/var/folders/lx/hc4sn_b53233_zkc9xbbl97r0000gp/T//ccdoBicG.s:1142   .text.Task_Exec:00000000000000e0 $d
/var/folders/lx/hc4sn_b53233_zkc9xbbl97r0000gp/T//ccdoBicG.s:1147   .text.Task_Caller:0000000000000000 $t
/var/folders/lx/hc4sn_b53233_zkc9xbbl97r0000gp/T//ccdoBicG.s:1180   .text.Task_Caller:0000000000000010 $d
/var/folders/lx/hc4sn_b53233_zkc9xbbl97r0000gp/T//ccdoBicG.s:1185   .text.Task_CrtList_TraversePoll_callback:0000000000000000 $t
/var/folders/lx/hc4sn_b53233_zkc9xbbl97r0000gp/T//ccdoBicG.s:1191   .text.Task_CrtList_TraversePoll_callback:0000000000000000 Task_CrtList_TraversePoll_callback
/var/folders/lx/hc4sn_b53233_zkc9xbbl97r0000gp/T//ccdoBicG.s:1260   .text.Task_CrtList_TraversePoll_callback:0000000000000030 $d
/var/folders/lx/hc4sn_b53233_zkc9xbbl97r0000gp/T//ccdoBicG.s:1265   .text.Task_Resume_FromBlock:0000000000000000 $t
/var/folders/lx/hc4sn_b53233_zkc9xbbl97r0000gp/T//ccdoBicG.s:1272   .text.Task_Resume_FromBlock:0000000000000000 Task_Resume_FromBlock
/var/folders/lx/hc4sn_b53233_zkc9xbbl97r0000gp/T//ccdoBicG.s:1319   .text.Task_Resume_FromBlock:0000000000000028 $d
/var/folders/lx/hc4sn_b53233_zkc9xbbl97r0000gp/T//ccdoBicG.s:1325   .text.Task_SetBlock:0000000000000000 $t
/var/folders/lx/hc4sn_b53233_zkc9xbbl97r0000gp/T//ccdoBicG.s:1332   .text.Task_SetBlock:0000000000000000 Task_SetBlock
/var/folders/lx/hc4sn_b53233_zkc9xbbl97r0000gp/T//ccdoBicG.s:1418   .text.Task_SetBlock:0000000000000060 $d
/var/folders/lx/hc4sn_b53233_zkc9xbbl97r0000gp/T//ccdoBicG.s:1425   .text.Task_SetPending:0000000000000000 $t
/var/folders/lx/hc4sn_b53233_zkc9xbbl97r0000gp/T//ccdoBicG.s:1432   .text.Task_SetPending:0000000000000000 Task_SetPending
/var/folders/lx/hc4sn_b53233_zkc9xbbl97r0000gp/T//ccdoBicG.s:1486   .text.Task_SetPending:0000000000000038 $d
/var/folders/lx/hc4sn_b53233_zkc9xbbl97r0000gp/T//ccdoBicG.s:1491   .text.Task_SwitchStack:0000000000000000 $t
/var/folders/lx/hc4sn_b53233_zkc9xbbl97r0000gp/T//ccdoBicG.s:1498   .text.Task_SwitchStack:0000000000000000 Task_SwitchStack
ARM GAS  /var/folders/lx/hc4sn_b53233_zkc9xbbl97r0000gp/T//ccdoBicG.s 			page 94


/var/folders/lx/hc4sn_b53233_zkc9xbbl97r0000gp/T//ccdoBicG.s:1516   .text.Task_SwitchStack:0000000000000010 $d
/var/folders/lx/hc4sn_b53233_zkc9xbbl97r0000gp/T//ccdoBicG.s:1522   .text.Task_Get_HighestRank_PndTask:0000000000000000 $t
/var/folders/lx/hc4sn_b53233_zkc9xbbl97r0000gp/T//ccdoBicG.s:1529   .text.Task_Get_HighestRank_PndTask:0000000000000000 Task_Get_HighestRank_PndTask
/var/folders/lx/hc4sn_b53233_zkc9xbbl97r0000gp/T//ccdoBicG.s:1607   .text.Task_Get_HighestRank_PndTask:0000000000000054 $d
/var/folders/lx/hc4sn_b53233_zkc9xbbl97r0000gp/T//ccdoBicG.s:1614   .text.Task_SaveCurProc:0000000000000000 $t
/var/folders/lx/hc4sn_b53233_zkc9xbbl97r0000gp/T//ccdoBicG.s:1621   .text.Task_SaveCurProc:0000000000000000 Task_SaveCurProc
/var/folders/lx/hc4sn_b53233_zkc9xbbl97r0000gp/T//ccdoBicG.s:1675   .text.Task_SaveCurProc:0000000000000024 CurrentTCBConst_Tmp3
/var/folders/lx/hc4sn_b53233_zkc9xbbl97r0000gp/T//ccdoBicG.s:1675   .text.Task_SaveCurProc:0000000000000024 $d
/var/folders/lx/hc4sn_b53233_zkc9xbbl97r0000gp/T//ccdoBicG.s:3293   .bss.CurTsk_TCB:0000000000000000 CurTsk_TCB
/var/folders/lx/hc4sn_b53233_zkc9xbbl97r0000gp/T//ccdoBicG.s:1680   .text.Task_SaveCurProc:0000000000000028 $t
/var/folders/lx/hc4sn_b53233_zkc9xbbl97r0000gp/T//ccdoBicG.s:1685   .text.Task_Load:0000000000000000 $t
/var/folders/lx/hc4sn_b53233_zkc9xbbl97r0000gp/T//ccdoBicG.s:1692   .text.Task_Load:0000000000000000 Task_Load
/var/folders/lx/hc4sn_b53233_zkc9xbbl97r0000gp/T//ccdoBicG.s:1752   .text.Load_FirstTask:0000000000000000 $t
/var/folders/lx/hc4sn_b53233_zkc9xbbl97r0000gp/T//ccdoBicG.s:1759   .text.Load_FirstTask:0000000000000000 Load_FirstTask
/var/folders/lx/hc4sn_b53233_zkc9xbbl97r0000gp/T//ccdoBicG.s:1779   .text.Task_SwitchContext:0000000000000000 $t
/var/folders/lx/hc4sn_b53233_zkc9xbbl97r0000gp/T//ccdoBicG.s:1786   .text.Task_SwitchContext:0000000000000000 Task_SwitchContext
/var/folders/lx/hc4sn_b53233_zkc9xbbl97r0000gp/T//ccdoBicG.s:1904   .text.Task_SwitchContext:000000000000005c CurrentTCBConst_Tmp
/var/folders/lx/hc4sn_b53233_zkc9xbbl97r0000gp/T//ccdoBicG.s:1904   .text.Task_SwitchContext:000000000000005c $d
/var/folders/lx/hc4sn_b53233_zkc9xbbl97r0000gp/T//ccdoBicG.s:1908   .text.Task_SwitchContext:0000000000000060 $t
/var/folders/lx/hc4sn_b53233_zkc9xbbl97r0000gp/T//ccdoBicG.s:1918   .text.Task_Get_HighestRank_RdyTask:0000000000000000 $t
/var/folders/lx/hc4sn_b53233_zkc9xbbl97r0000gp/T//ccdoBicG.s:1925   .text.Task_Get_HighestRank_RdyTask:0000000000000000 Task_Get_HighestRank_RdyTask
/var/folders/lx/hc4sn_b53233_zkc9xbbl97r0000gp/T//ccdoBicG.s:2007   .text.Task_Get_HighestRank_RdyTask:0000000000000054 $d
/var/folders/lx/hc4sn_b53233_zkc9xbbl97r0000gp/T//ccdoBicG.s:2014   .text.Task_SetNextTask_Ptr:0000000000000000 $t
/var/folders/lx/hc4sn_b53233_zkc9xbbl97r0000gp/T//ccdoBicG.s:2021   .text.Task_SetNextTask_Ptr:0000000000000000 Task_SetNextTask_Ptr
/var/folders/lx/hc4sn_b53233_zkc9xbbl97r0000gp/T//ccdoBicG.s:2053   .text.Task_SetNextTask_Ptr:0000000000000014 $d
/var/folders/lx/hc4sn_b53233_zkc9xbbl97r0000gp/T//ccdoBicG.s:2059   .text.Task_TriggerPendSV:0000000000000000 $t
/var/folders/lx/hc4sn_b53233_zkc9xbbl97r0000gp/T//ccdoBicG.s:2066   .text.Task_TriggerPendSV:0000000000000000 Task_TriggerPendSV
/var/folders/lx/hc4sn_b53233_zkc9xbbl97r0000gp/T//ccdoBicG.s:2076   *ABS*:00000000e000ed04 NVIC_INT_CTRL
/var/folders/lx/hc4sn_b53233_zkc9xbbl97r0000gp/T//ccdoBicG.s:2080   *ABS*:0000000010000000 NVIC_PENDSVSET
/var/folders/lx/hc4sn_b53233_zkc9xbbl97r0000gp/T//ccdoBicG.s:2105   .text.Task_Scheduler:0000000000000000 $t
/var/folders/lx/hc4sn_b53233_zkc9xbbl97r0000gp/T//ccdoBicG.s:2112   .text.Task_Scheduler:0000000000000000 Task_Scheduler
/var/folders/lx/hc4sn_b53233_zkc9xbbl97r0000gp/T//ccdoBicG.s:2381   .text.Task_Scheduler:0000000000000130 $d
/var/folders/lx/hc4sn_b53233_zkc9xbbl97r0000gp/T//ccdoBicG.s:2392   .text.Task_Force_TriggerPendSV:0000000000000000 $t
/var/folders/lx/hc4sn_b53233_zkc9xbbl97r0000gp/T//ccdoBicG.s:2399   .text.Task_Force_TriggerPendSV:0000000000000000 Task_Force_TriggerPendSV
/var/folders/lx/hc4sn_b53233_zkc9xbbl97r0000gp/T//ccdoBicG.s:2430   .text.Task_Get_TaskNum:0000000000000000 $t
/var/folders/lx/hc4sn_b53233_zkc9xbbl97r0000gp/T//ccdoBicG.s:2437   .text.Task_Get_TaskNum:0000000000000000 Task_Get_TaskNum
/var/folders/lx/hc4sn_b53233_zkc9xbbl97r0000gp/T//ccdoBicG.s:2452   .text.Task_Get_TaskNum:0000000000000008 $d
/var/folders/lx/hc4sn_b53233_zkc9xbbl97r0000gp/T//ccdoBicG.s:2460   .text.Task_Create:0000000000000000 $t
/var/folders/lx/hc4sn_b53233_zkc9xbbl97r0000gp/T//ccdoBicG.s:2467   .text.Task_Create:0000000000000000 Task_Create
/var/folders/lx/hc4sn_b53233_zkc9xbbl97r0000gp/T//ccdoBicG.s:2837   .text.Task_Create:0000000000000200 $d
/var/folders/lx/hc4sn_b53233_zkc9xbbl97r0000gp/T//ccdoBicG.s:2849   .text.Task_Remove:0000000000000000 $t
/var/folders/lx/hc4sn_b53233_zkc9xbbl97r0000gp/T//ccdoBicG.s:2856   .text.Task_Remove:0000000000000000 Task_Remove
/var/folders/lx/hc4sn_b53233_zkc9xbbl97r0000gp/T//ccdoBicG.s:2912   .text.Task_Remove:0000000000000030 $d
/var/folders/lx/hc4sn_b53233_zkc9xbbl97r0000gp/T//ccdoBicG.s:2917   .text.TaskSystem_Start:0000000000000000 $t
/var/folders/lx/hc4sn_b53233_zkc9xbbl97r0000gp/T//ccdoBicG.s:2924   .text.TaskSystem_Start:0000000000000000 TaskSystem_Start
/var/folders/lx/hc4sn_b53233_zkc9xbbl97r0000gp/T//ccdoBicG.s:3004   .text.TaskSystem_Start:000000000000005c $d
/var/folders/lx/hc4sn_b53233_zkc9xbbl97r0000gp/T//ccdoBicG.s:3013   .text.Task_SetRunState:0000000000000000 $t
/var/folders/lx/hc4sn_b53233_zkc9xbbl97r0000gp/T//ccdoBicG.s:3020   .text.Task_SetRunState:0000000000000000 Task_SetRunState
/var/folders/lx/hc4sn_b53233_zkc9xbbl97r0000gp/T//ccdoBicG.s:3037   .text.Task_CountRunningTime:0000000000000000 $t
/var/folders/lx/hc4sn_b53233_zkc9xbbl97r0000gp/T//ccdoBicG.s:3044   .text.Task_CountRunningTime:0000000000000000 Task_CountRunningTime
/var/folders/lx/hc4sn_b53233_zkc9xbbl97r0000gp/T//ccdoBicG.s:3109   .text.Task_CountRunningTime:0000000000000038 $d
/var/folders/lx/hc4sn_b53233_zkc9xbbl97r0000gp/T//ccdoBicG.s:3114   .text.Task_Get_IdleUS:0000000000000000 $t
/var/folders/lx/hc4sn_b53233_zkc9xbbl97r0000gp/T//ccdoBicG.s:3121   .text.Task_Get_IdleUS:0000000000000000 Task_Get_IdleUS
/var/folders/lx/hc4sn_b53233_zkc9xbbl97r0000gp/T//ccdoBicG.s:3136   .text.Task_Get_IdleUS:0000000000000008 $d
/var/folders/lx/hc4sn_b53233_zkc9xbbl97r0000gp/T//ccdoBicG.s:3141   .text.Task_Get_IdleOcupy:0000000000000000 $t
/var/folders/lx/hc4sn_b53233_zkc9xbbl97r0000gp/T//ccdoBicG.s:3148   .text.Task_Get_IdleOcupy:0000000000000000 Task_Get_IdleOcupy
/var/folders/lx/hc4sn_b53233_zkc9xbbl97r0000gp/T//ccdoBicG.s:3163   .text.Task_Get_IdleOcupy:0000000000000008 $d
ARM GAS  /var/folders/lx/hc4sn_b53233_zkc9xbbl97r0000gp/T//ccdoBicG.s 			page 95


/var/folders/lx/hc4sn_b53233_zkc9xbbl97r0000gp/T//ccdoBicG.s:3168   .text.TaskSys_Set_State:0000000000000000 $t
/var/folders/lx/hc4sn_b53233_zkc9xbbl97r0000gp/T//ccdoBicG.s:3175   .text.TaskSys_Set_State:0000000000000000 TaskSys_Set_State
/var/folders/lx/hc4sn_b53233_zkc9xbbl97r0000gp/T//ccdoBicG.s:3192   .text.TaskSys_Set_State:0000000000000008 $d
/var/folders/lx/hc4sn_b53233_zkc9xbbl97r0000gp/T//ccdoBicG.s:3197   .text.TaskSys_Get_State:0000000000000000 $t
/var/folders/lx/hc4sn_b53233_zkc9xbbl97r0000gp/T//ccdoBicG.s:3204   .text.TaskSys_Get_State:0000000000000000 TaskSys_Get_State
/var/folders/lx/hc4sn_b53233_zkc9xbbl97r0000gp/T//ccdoBicG.s:3220   .text.TaskSys_Get_State:0000000000000008 $d
/var/folders/lx/hc4sn_b53233_zkc9xbbl97r0000gp/T//ccdoBicG.s:3225   .text.Task_GetInfo_ByIndex:0000000000000000 $t
/var/folders/lx/hc4sn_b53233_zkc9xbbl97r0000gp/T//ccdoBicG.s:3232   .text.Task_GetInfo_ByIndex:0000000000000000 Task_GetInfo_ByIndex
/var/folders/lx/hc4sn_b53233_zkc9xbbl97r0000gp/T//ccdoBicG.s:3248   .text.Task_GetCurrentRunTask:0000000000000000 $t
/var/folders/lx/hc4sn_b53233_zkc9xbbl97r0000gp/T//ccdoBicG.s:3255   .text.Task_GetCurrentRunTask:0000000000000000 Task_GetCurrentRunTask
/var/folders/lx/hc4sn_b53233_zkc9xbbl97r0000gp/T//ccdoBicG.s:3270   .text.Task_GetCurrentRunTask:0000000000000008 $d
/var/folders/lx/hc4sn_b53233_zkc9xbbl97r0000gp/T//ccdoBicG.s:3307   .bss.NxtTsk_TCB:0000000000000000 NxtTsk_TCB
/var/folders/lx/hc4sn_b53233_zkc9xbbl97r0000gp/T//ccdoBicG.s:3314   .bss.PndHstTsk_Ptr:0000000000000000 PndHstTsk_Ptr
/var/folders/lx/hc4sn_b53233_zkc9xbbl97r0000gp/T//ccdoBicG.s:3300   .bss.NxtRunTsk_Ptr:0000000000000000 NxtRunTsk_Ptr
/var/folders/lx/hc4sn_b53233_zkc9xbbl97r0000gp/T//ccdoBicG.s:3286   .bss.CurRunTsk_Ptr:0000000000000000 CurRunTsk_Ptr
/var/folders/lx/hc4sn_b53233_zkc9xbbl97r0000gp/T//ccdoBicG.s:3355   .bss.Task_Ptr:0000000000000000 Task_Ptr
/var/folders/lx/hc4sn_b53233_zkc9xbbl97r0000gp/T//ccdoBicG.s:3282   .bss.CurRunTsk_Ptr:0000000000000000 $d
/var/folders/lx/hc4sn_b53233_zkc9xbbl97r0000gp/T//ccdoBicG.s:3289   .bss.CurTsk_TCB:0000000000000000 $d
/var/folders/lx/hc4sn_b53233_zkc9xbbl97r0000gp/T//ccdoBicG.s:3296   .bss.NxtRunTsk_Ptr:0000000000000000 $d
/var/folders/lx/hc4sn_b53233_zkc9xbbl97r0000gp/T//ccdoBicG.s:3303   .bss.NxtTsk_TCB:0000000000000000 $d
/var/folders/lx/hc4sn_b53233_zkc9xbbl97r0000gp/T//ccdoBicG.s:3310   .bss.PndHstTsk_Ptr:0000000000000000 $d
/var/folders/lx/hc4sn_b53233_zkc9xbbl97r0000gp/T//ccdoBicG.s:3317   .bss.TaskSys_Idle_Ocupy:0000000000000000 $d
/var/folders/lx/hc4sn_b53233_zkc9xbbl97r0000gp/T//ccdoBicG.s:3321   .bss.TaskSys_Idle_Ocupy:0000000000000000 TaskSys_Idle_Ocupy
/var/folders/lx/hc4sn_b53233_zkc9xbbl97r0000gp/T//ccdoBicG.s:3324   .bss.TaskSys_Idle_US:0000000000000000 $d
/var/folders/lx/hc4sn_b53233_zkc9xbbl97r0000gp/T//ccdoBicG.s:3328   .bss.TaskSys_Idle_US:0000000000000000 TaskSys_Idle_US
/var/folders/lx/hc4sn_b53233_zkc9xbbl97r0000gp/T//ccdoBicG.s:3331   .bss.TaskSys_StartTime:0000000000000000 $d
/var/folders/lx/hc4sn_b53233_zkc9xbbl97r0000gp/T//ccdoBicG.s:3335   .bss.TaskSys_StartTime:0000000000000000 TaskSys_StartTime
/var/folders/lx/hc4sn_b53233_zkc9xbbl97r0000gp/T//ccdoBicG.s:3338   .bss.Task_OS_ExpStkBase:0000000000000000 $d
/var/folders/lx/hc4sn_b53233_zkc9xbbl97r0000gp/T//ccdoBicG.s:3345   .bss.Task_OS_StkMem:0000000000000000 $d
/var/folders/lx/hc4sn_b53233_zkc9xbbl97r0000gp/T//ccdoBicG.s:3351   .bss.Task_Ptr:0000000000000000 $d
/var/folders/lx/hc4sn_b53233_zkc9xbbl97r0000gp/T//ccdoBicG.s:3358   .bss.TskCrt_RegList:0000000000000000 $d
/var/folders/lx/hc4sn_b53233_zkc9xbbl97r0000gp/T//ccdoBicG.s:3362   .bss.TskCrt_RegList:0000000000000000 TskCrt_RegList
/var/folders/lx/hc4sn_b53233_zkc9xbbl97r0000gp/T//ccdoBicG.s:3365   .bss.TskHdl_BlkMap:0000000000000000 $d
/var/folders/lx/hc4sn_b53233_zkc9xbbl97r0000gp/T//ccdoBicG.s:3369   .bss.TskHdl_BlkMap:0000000000000000 TskHdl_BlkMap
/var/folders/lx/hc4sn_b53233_zkc9xbbl97r0000gp/T//ccdoBicG.s:3372   .bss.TskHdl_PndMap:0000000000000000 $d
/var/folders/lx/hc4sn_b53233_zkc9xbbl97r0000gp/T//ccdoBicG.s:3376   .bss.TskHdl_PndMap:0000000000000000 TskHdl_PndMap
/var/folders/lx/hc4sn_b53233_zkc9xbbl97r0000gp/T//ccdoBicG.s:3379   .bss.TskHdl_RdyMap:0000000000000000 $d
/var/folders/lx/hc4sn_b53233_zkc9xbbl97r0000gp/T//ccdoBicG.s:3383   .bss.TskHdl_RdyMap:0000000000000000 TskHdl_RdyMap
/var/folders/lx/hc4sn_b53233_zkc9xbbl97r0000gp/T//ccdoBicG.s:3389   .bss.TskSys_state:0000000000000000 TskSys_state
/var/folders/lx/hc4sn_b53233_zkc9xbbl97r0000gp/T//ccdoBicG.s:3390   .bss.TskSys_state:0000000000000000 $d
/var/folders/lx/hc4sn_b53233_zkc9xbbl97r0000gp/T//ccdoBicG.s:3395   .bss.taskOs_InitState.0:0000000000000000 taskOs_InitState.0
/var/folders/lx/hc4sn_b53233_zkc9xbbl97r0000gp/T//ccdoBicG.s:3396   .bss.taskOs_InitState.0:0000000000000000 $d
/var/folders/lx/hc4sn_b53233_zkc9xbbl97r0000gp/T//ccdoBicG.s:3398   .rodata.Tsk_Handle:0000000000000000 $d
/var/folders/lx/hc4sn_b53233_zkc9xbbl97r0000gp/T//ccdoBicG.s:3402   .rodata.Tsk_Handle:0000000000000000 Tsk_Handle
/var/folders/lx/hc4sn_b53233_zkc9xbbl97r0000gp/T//ccdoBicG.s:2104   .text.Task_TriggerPendSV:000000000000000a $d
/var/folders/lx/hc4sn_b53233_zkc9xbbl97r0000gp/T//ccdoBicG.s:9827   .text.Task_TriggerPendSV:000000000000000c $d
/var/folders/lx/hc4sn_b53233_zkc9xbbl97r0000gp/T//ccdoBicG.s:1751   .text.Task_Load:0000000000000022 $d
/var/folders/lx/hc4sn_b53233_zkc9xbbl97r0000gp/T//ccdoBicG.s:9827   .text.Task_Load:0000000000000024 $d
/var/folders/lx/hc4sn_b53233_zkc9xbbl97r0000gp/T//ccdoBicG.s:9827   .text.Task_SetPendSVPro:0000000000000018 $d

UNDEFINED SYMBOLS
List_ItemInit
RuntimeObj_Reset
memset
__aeabi_ul2f
Get_CurrentRunningUs
Get_TimeDifference_Between
ARM GAS  /var/folders/lx/hc4sn_b53233_zkc9xbbl97r0000gp/T//ccdoBicG.s 			page 96


Get_TargetRunTime
RuntimeObj_CompareWithCurrent
List_traverse
__aeabi_ui2d
__aeabi_ddiv
__aeabi_d2uiz
malloc
List_Init
List_Insert_Item
free
Runtime_Config
Runtime_Set_start_Callback
Runtime_Set_stop_Callback
Runtime_Set_tick_Callback
Runtime_Start
RunTime_Tick
