ARM GAS  /tmp/cc3rJM77.s 			page 1


   1              		.cpu cortex-m4
   2              		.eabi_attribute 27, 1
   3              		.eabi_attribute 28, 1
   4              		.eabi_attribute 20, 1
   5              		.eabi_attribute 21, 1
   6              		.eabi_attribute 23, 3
   7              		.eabi_attribute 24, 1
   8              		.eabi_attribute 25, 1
   9              		.eabi_attribute 26, 1
  10              		.eabi_attribute 30, 1
  11              		.eabi_attribute 34, 1
  12              		.eabi_attribute 18, 4
  13              		.file	"task_manager.c"
  14              		.text
  15              	.Ltext0:
  16              		.cfi_sections	.debug_frame
  17              		.section	.text.Task_Exit,"ax",%progbits
  18              		.align	1
  19              		.arch armv7e-m
  20              		.syntax unified
  21              		.thumb
  22              		.thumb_func
  23              		.fpu fpv4-sp-d16
  25              	Task_Exit:
  26              	.LFB129:
  27              		.file 1 "SYS/task_manager/task_manager.c"
   1:SYS/task_manager/task_manager.c **** #include "task_manager.h"
   2:SYS/task_manager/task_manager.c **** #include "runtime.h"
   3:SYS/task_manager/task_manager.c **** #include "string.h"
   4:SYS/task_manager/task_manager.c **** #include "stddef.h"
   5:SYS/task_manager/task_manager.c **** #include "periph_gpio.h"
   6:SYS/task_manager/task_manager.c **** #include "periph_timer.h"
   7:SYS/task_manager/task_manager.c **** #include <stdio.h>
   8:SYS/task_manager/task_manager.c **** #include "task_manager_cfg.h"
   9:SYS/task_manager/task_manager.c **** #include "binary_tree.h"
  10:SYS/task_manager/task_manager.c **** #include "linked_list.h"
  11:SYS/task_manager/task_manager.c **** 
  12:SYS/task_manager/task_manager.c **** //coder: 8_B!T0
  13:SYS/task_manager/task_manager.c **** //bref:
  14:SYS/task_manager/task_manager.c **** //estabishment a task running system with priority calling functional
  15:SYS/task_manager/task_manager.c **** //alway calling the highest priority function in all function under the ready table
  16:SYS/task_manager/task_manager.c **** //reference to ucos (version earler than v8.6)
  17:SYS/task_manager/task_manager.c **** 
  18:SYS/task_manager/task_manager.c **** /*
  19:SYS/task_manager/task_manager.c **** *******************************   TASK Handle    *******************************
  20:SYS/task_manager/task_manager.c **** 
  21:SYS/task_manager/task_manager.c ****              task0   task1   task2   task3   task4   task5   task6   task7
  22:SYS/task_manager/task_manager.c **** group0     |_______|_______|_______|_______|_______|_______|_______|_______|
  23:SYS/task_manager/task_manager.c **** group1     |_______|_______|_______|_______|_______|_______|_______|_______|
  24:SYS/task_manager/task_manager.c **** group2     |_______|_______|_______|_______|_______|_______|_______|_______|
  25:SYS/task_manager/task_manager.c **** group3     |_______|_______|_______|_______|_______|_______|_______|_______|
  26:SYS/task_manager/task_manager.c **** group4     |_______|_______|_______|_______|_______|_______|_______|_______|
  27:SYS/task_manager/task_manager.c **** group5     |_______|_______|_______|_______|_______|_______|_______|_______|
  28:SYS/task_manager/task_manager.c **** group6     |_______|_______|_______|_______|_______|_______|_______|_______|
  29:SYS/task_manager/task_manager.c **** group7     |_______|_______|_______|_______|_______|_______|_______|_______|
  30:SYS/task_manager/task_manager.c **** 
  31:SYS/task_manager/task_manager.c **** */
ARM GAS  /tmp/cc3rJM77.s 			page 2


  32:SYS/task_manager/task_manager.c **** 
  33:SYS/task_manager/task_manager.c **** #define GET_TASKGROUP_PRIORITY(x) x >> 3
  34:SYS/task_manager/task_manager.c **** #define GET_TASKINGROUP_PRIORITY(y) y & 0X07
  35:SYS/task_manager/task_manager.c **** 
  36:SYS/task_manager/task_manager.c **** static const uint8_t Tsk_Handle[256] = {0, 0, 1, 0, 2, 0, 1, 0, 3, 0, 1, 0, 2, 0, 1, 0,  //0x00 ~ 0
  37:SYS/task_manager/task_manager.c ****                                         4, 0, 1, 0, 2, 0, 1, 0, 3, 0, 1, 0, 2, 0, 1, 0,  //0x10 ~ 0
  38:SYS/task_manager/task_manager.c ****                                         5, 0, 1, 0, 2, 0, 1, 0, 3, 0, 1, 0, 2, 0, 1, 0,  //0x20 ~ 0
  39:SYS/task_manager/task_manager.c ****                                         4, 0, 1, 0, 2, 0, 1, 0, 3, 0, 1, 0, 2, 0, 1, 0,  //0x30 ~ 0
  40:SYS/task_manager/task_manager.c ****                                         6, 0, 1, 0, 2, 0, 1, 0, 3, 0, 1, 0, 2, 0, 1, 0,  //0x40 ~ 0
  41:SYS/task_manager/task_manager.c ****                                         4, 0, 1, 0, 2, 0, 1, 0, 3, 0, 1, 0, 2, 0, 1, 0,  //0x50 ~ 0
  42:SYS/task_manager/task_manager.c ****                                         5, 0, 1, 0, 2, 0, 1, 0, 3, 0, 1, 0, 2, 0, 1, 0,  //0x60 ~ 0
  43:SYS/task_manager/task_manager.c ****                                         4, 0, 1, 0, 2, 0, 1, 0, 3, 0, 1, 0, 2, 0, 1, 0,  //0x70 ~ 0
  44:SYS/task_manager/task_manager.c ****                                         7, 0, 1, 0, 2, 0, 1, 0, 3, 0, 1, 0, 2, 0, 1, 0,  //0x80 ~ 0
  45:SYS/task_manager/task_manager.c ****                                         4, 0, 1, 0, 2, 0, 1, 0, 3, 0, 1, 0, 2, 0, 1, 0,  //0x90 ~ 0
  46:SYS/task_manager/task_manager.c ****                                         5, 0, 1, 0, 2, 0, 1, 0, 3, 0, 1, 0, 2, 0, 1, 0,  //0xA0 ~ 0
  47:SYS/task_manager/task_manager.c ****                                         4, 0, 1, 0, 2, 0, 1, 0, 3, 0, 1, 0, 2, 0, 1, 0,  //0xB0 ~ 0
  48:SYS/task_manager/task_manager.c ****                                         6, 0, 1, 0, 2, 0, 1, 0, 3, 0, 1, 0, 2, 0, 1, 0,  //0xC0 ~ 0
  49:SYS/task_manager/task_manager.c ****                                         4, 0, 1, 0, 2, 0, 1, 0, 3, 0, 1, 0, 2, 0, 1, 0,  //0xD0 ~ 0
  50:SYS/task_manager/task_manager.c ****                                         5, 0, 1, 0, 2, 0, 1, 0, 3, 0, 1, 0, 2, 0, 1, 0,  //0xE0 ~ 0
  51:SYS/task_manager/task_manager.c ****                                         4, 0, 1, 0, 2, 0, 1, 0, 3, 0, 1, 0, 2, 0, 1, 0}; //0xF0 ~ 0
  52:SYS/task_manager/task_manager.c **** 
  53:SYS/task_manager/task_manager.c **** Task *Task_Ptr[Group_Sum][Task_Priority_Sum];
  54:SYS/task_manager/task_manager.c **** volatile Task *CurRunTsk_Ptr = NULL;
  55:SYS/task_manager/task_manager.c **** volatile Task *NxtRunTsk_Ptr = NULL;
  56:SYS/task_manager/task_manager.c **** static bool traverse_start = false;
  57:SYS/task_manager/task_manager.c **** 
  58:SYS/task_manager/task_manager.c **** static volatile TskMap_State TskHdl_RdyMap = {.Grp = 0, .TskInGrp[0] = 0, .TskInGrp[1] = 0, .TskInG
  59:SYS/task_manager/task_manager.c **** static volatile TskMap_State TskHdl_PndMap = {.Grp = 0, .TskInGrp[0] = 0, .TskInGrp[1] = 0, .TskInG
  60:SYS/task_manager/task_manager.c **** static volatile TskMap_State TskHdl_BlkMap = {.Grp = 0, .TskInGrp[0] = 0, .TskInGrp[1] = 0, .TskInG
  61:SYS/task_manager/task_manager.c **** 
  62:SYS/task_manager/task_manager.c **** static Task_Create_RegList_s TskCrt_RegList = {.num = 0,
  63:SYS/task_manager/task_manager.c ****                                                .list = {.prv = NULL, .nxt = NULL, .data = NULL}};
  64:SYS/task_manager/task_manager.c **** static volatile TaskSys_State TskSys_state = TaskSys_Initial;
  65:SYS/task_manager/task_manager.c **** static uint32_t TaskSys_Idle_US = 0;
  66:SYS/task_manager/task_manager.c **** static float TaskSys_Idle_Ocupy = 0.0f;
  67:SYS/task_manager/task_manager.c **** static SYSTEM_RunTime TaskSys_StartTime;
  68:SYS/task_manager/task_manager.c **** 
  69:SYS/task_manager/task_manager.c **** static void Task_SetReady(Task *tsk);
  70:SYS/task_manager/task_manager.c **** static void Task_ClearReady(Task *tsk);
  71:SYS/task_manager/task_manager.c **** static void Task_StopCountTargetFunc_Cast(Task *tsk_ptr);
  72:SYS/task_manager/task_manager.c **** 
  73:SYS/task_manager/task_manager.c **** #if (TASK_SCHEDULER_TYPE == PREEMPTIVE_SCHDULER)
  74:SYS/task_manager/task_manager.c **** volatile Task *PndHstTsk_Ptr = NULL;
  75:SYS/task_manager/task_manager.c **** 
  76:SYS/task_manager/task_manager.c **** volatile TaskStack_ControlBlock CurTsk_TCB;
  77:SYS/task_manager/task_manager.c **** volatile TaskStack_ControlBlock NxtTsk_TCB;
  78:SYS/task_manager/task_manager.c **** 
  79:SYS/task_manager/task_manager.c **** static uint32_t Task_OS_StkMem[MSP_MEM_SPACE_SIZE];
  80:SYS/task_manager/task_manager.c **** uint32_t *Task_OS_ExpStkBase;
  81:SYS/task_manager/task_manager.c **** 
  82:SYS/task_manager/task_manager.c **** static void Task_SetStkPtr_Val(Task *tsk);
  83:SYS/task_manager/task_manager.c **** static void Task_Set_CountRunnigTime_State(Task *tsk_ptr, uint8_t enable_state);
  84:SYS/task_manager/task_manager.c **** static void Task_ClearPending(Task *tsk);
  85:SYS/task_manager/task_manager.c **** static void Task_ClearBlock(Task *tsk);
  86:SYS/task_manager/task_manager.c **** static void Task_SetBASEPRI(uint32_t ulBASEPRI);
  87:SYS/task_manager/task_manager.c **** 
  88:SYS/task_manager/task_manager.c **** void Task_SetPending(Task *tsk);
ARM GAS  /tmp/cc3rJM77.s 			page 3


  89:SYS/task_manager/task_manager.c **** #endif
  90:SYS/task_manager/task_manager.c **** 
  91:SYS/task_manager/task_manager.c **** static void Task_Exec(Task *tsk_ptr);
  92:SYS/task_manager/task_manager.c **** static void Task_SetPendSVPro(void);
  93:SYS/task_manager/task_manager.c **** void Task_TriggerPendSV(void);
  94:SYS/task_manager/task_manager.c **** 
  95:SYS/task_manager/task_manager.c **** static void ReSet_Task_Data(Task *task)
  96:SYS/task_manager/task_manager.c **** {
  97:SYS/task_manager/task_manager.c ****     task->priority.Suction.Group_Level = 0;
  98:SYS/task_manager/task_manager.c ****     task->priority.Suction.Task_Level = 0;
  99:SYS/task_manager/task_manager.c ****     task->Task_name = NULL;
 100:SYS/task_manager/task_manager.c ****     task->exec_frq = 0;
 101:SYS/task_manager/task_manager.c ****     task->exec_interval_us = 0;
 102:SYS/task_manager/task_manager.c ****     task->Exec_Func = NULL;
 103:SYS/task_manager/task_manager.c **** 
 104:SYS/task_manager/task_manager.c ****     task->Exec_status.detect_exec_frq = 0;
 105:SYS/task_manager/task_manager.c ****     task->Exec_status.detect_exec_time_arv = 0;
 106:SYS/task_manager/task_manager.c ****     task->Exec_status.detect_exec_time_max = 0;
 107:SYS/task_manager/task_manager.c ****     task->Exec_status.Exec_Times = 0;
 108:SYS/task_manager/task_manager.c ****     task->Exec_status.cpu_opy = 0;
 109:SYS/task_manager/task_manager.c ****     task->Exec_status.totlal_running_time = 0;
 110:SYS/task_manager/task_manager.c **** 
 111:SYS/task_manager/task_manager.c ****     task->delay_info.on_delay = false;
 112:SYS/task_manager/task_manager.c ****     task->delay_info.tsk_hdl = 0;
 113:SYS/task_manager/task_manager.c ****     task->delay_info.time_unit = 0;
 114:SYS/task_manager/task_manager.c **** 
 115:SYS/task_manager/task_manager.c ****     List_ItemInit(&task->delay_item, &task->delay_info);
 116:SYS/task_manager/task_manager.c **** 
 117:SYS/task_manager/task_manager.c ****     RuntimeObj_Reset(&(task->Exec_status.Exec_Time));
 118:SYS/task_manager/task_manager.c ****     RuntimeObj_Reset(&(task->Exec_status.Init_Time));
 119:SYS/task_manager/task_manager.c ****     RuntimeObj_Reset(&(task->Exec_status.Start_Time));
 120:SYS/task_manager/task_manager.c **** 
 121:SYS/task_manager/task_manager.c ****     task->Exec_status.State = Task_Done;
 122:SYS/task_manager/task_manager.c **** }
 123:SYS/task_manager/task_manager.c **** 
 124:SYS/task_manager/task_manager.c **** static void Task_ReSet_BaseInfo(Task_Base_Info *info)
 125:SYS/task_manager/task_manager.c **** {
 126:SYS/task_manager/task_manager.c ****     info->avg_exec_us = 0;
 127:SYS/task_manager/task_manager.c ****     info->cpu_opy = 0;
 128:SYS/task_manager/task_manager.c ****     info->exec_frq = 0;
 129:SYS/task_manager/task_manager.c ****     info->exec_times = 0;
 130:SYS/task_manager/task_manager.c ****     info->group = 0;
 131:SYS/task_manager/task_manager.c ****     info->max_exec_us = 0;
 132:SYS/task_manager/task_manager.c ****     info->priority = 0;
 133:SYS/task_manager/task_manager.c **** 
 134:SYS/task_manager/task_manager.c ****     memset(info->name, NULL, TASK_NAME_MAXLEN);
 135:SYS/task_manager/task_manager.c **** }
 136:SYS/task_manager/task_manager.c **** 
 137:SYS/task_manager/task_manager.c **** static bool TaskSys_Init(void)
 138:SYS/task_manager/task_manager.c **** {
 139:SYS/task_manager/task_manager.c **** #if (TASK_SCHEDULER_TYPE == PREEMPTIVE_SCHDULER)
 140:SYS/task_manager/task_manager.c ****     //init OS Stack Memory Space
 141:SYS/task_manager/task_manager.c ****     memset(Task_OS_StkMem, NULL, MSP_MEM_SPACE_SIZE);
 142:SYS/task_manager/task_manager.c **** 
 143:SYS/task_manager/task_manager.c ****     Task_OS_ExpStkBase = Task_OS_StkMem + MSP_MEM_SPACE_SIZE - 1;
 144:SYS/task_manager/task_manager.c **** #endif
 145:SYS/task_manager/task_manager.c **** 
ARM GAS  /tmp/cc3rJM77.s 			page 4


 146:SYS/task_manager/task_manager.c ****     //periph_Timer_CounterMode_Init(Timer_4, TimerCounter_1M_Prescaler, TimerCounter_1us_Period, 0,
 147:SYS/task_manager/task_manager.c ****     //periph_Timer_Counter_SetEnable(Timer_4, DISABLE);
 148:SYS/task_manager/task_manager.c **** 
 149:SYS/task_manager/task_manager.c ****     uint8_t index = 0;
 150:SYS/task_manager/task_manager.c **** 
 151:SYS/task_manager/task_manager.c ****     for (uint8_t group_index = Group_0; group_index < Group_Sum; group_index++)
 152:SYS/task_manager/task_manager.c ****     {
 153:SYS/task_manager/task_manager.c ****         for (uint8_t task_priority = Task_Priority_0; task_priority < Task_Priority_Sum; task_prior
 154:SYS/task_manager/task_manager.c ****         {
 155:SYS/task_manager/task_manager.c ****             ReSet_Task_Data(Task_Ptr[group_index][task_priority]);
 156:SYS/task_manager/task_manager.c **** 
 157:SYS/task_manager/task_manager.c **** #if (TASK_SCHEDULER_TYPE == PREEMPTIVE_SCHDULER)
 158:SYS/task_manager/task_manager.c ****             Task_Ptr[group_index][task_priority]->Stack_Depth = 0;
 159:SYS/task_manager/task_manager.c ****             Task_Ptr[group_index][task_priority]->TCB.Stack = NULL;
 160:SYS/task_manager/task_manager.c ****             Task_Ptr[group_index][task_priority]->TCB.Top_Stk_Ptr = NULL;
 161:SYS/task_manager/task_manager.c **** #endif
 162:SYS/task_manager/task_manager.c ****             Task_Ptr[group_index][task_priority] = NULL;
 163:SYS/task_manager/task_manager.c **** 
 164:SYS/task_manager/task_manager.c ****             index++;
 165:SYS/task_manager/task_manager.c ****         }
 166:SYS/task_manager/task_manager.c ****     }
 167:SYS/task_manager/task_manager.c **** 
 168:SYS/task_manager/task_manager.c ****     TskCrt_RegList.num = 0;
 169:SYS/task_manager/task_manager.c ****     TskCrt_RegList.list.data = NULL;
 170:SYS/task_manager/task_manager.c ****     TskCrt_RegList.list.nxt = NULL;
 171:SYS/task_manager/task_manager.c ****     TskCrt_RegList.list.prv = NULL;
 172:SYS/task_manager/task_manager.c **** 
 173:SYS/task_manager/task_manager.c ****     ReSet_Task_Data(CurRunTsk_Ptr);
 174:SYS/task_manager/task_manager.c ****     TskSys_state = TaskSys_Prepare;
 175:SYS/task_manager/task_manager.c **** }
 176:SYS/task_manager/task_manager.c **** 
 177:SYS/task_manager/task_manager.c **** static void Task_Exit(void)
 178:SYS/task_manager/task_manager.c **** {
  28              		.loc 1 178 1 view -0
  29              		.cfi_startproc
  30              		@ Volatile: function does not return.
  31              		@ args = 0, pretend = 0, frame = 0
  32              		@ frame_needed = 0, uses_anonymous_args = 0
  33              		@ link register save eliminated.
  34              	.L2:
 179:SYS/task_manager/task_manager.c ****     //task caller will not exit
 180:SYS/task_manager/task_manager.c ****     while (true)
  35              		.loc 1 180 5 discriminator 1 view .LVU1
 181:SYS/task_manager/task_manager.c ****     {
 182:SYS/task_manager/task_manager.c ****     }
  36              		.loc 1 182 5 discriminator 1 view .LVU2
  37 0000 FEE7     		b	.L2
  38              		.cfi_endproc
  39              	.LFE129:
  41              		.section	.text.Task_SetBASEPRI,"ax",%progbits
  42              		.align	1
  43              		.syntax unified
  44              		.thumb
  45              		.thumb_func
  46              		.fpu fpv4-sp-d16
  48              	Task_SetBASEPRI:
  49              	.LVL0:
ARM GAS  /tmp/cc3rJM77.s 			page 5


  50              	.LFB137:
 183:SYS/task_manager/task_manager.c **** }
 184:SYS/task_manager/task_manager.c **** 
 185:SYS/task_manager/task_manager.c **** static void Task_Idle(void)
 186:SYS/task_manager/task_manager.c **** {
 187:SYS/task_manager/task_manager.c ****     SYSTEM_RunTime cur_time;
 188:SYS/task_manager/task_manager.c ****     SYSTEM_RunTime time_diff;
 189:SYS/task_manager/task_manager.c **** 
 190:SYS/task_manager/task_manager.c ****     RuntimeObj_Reset(&time_diff);
 191:SYS/task_manager/task_manager.c ****     RuntimeObj_Reset(&cur_time);
 192:SYS/task_manager/task_manager.c **** 
 193:SYS/task_manager/task_manager.c ****     cur_time = Get_CurrentRunningUs();
 194:SYS/task_manager/task_manager.c ****     time_diff = Get_TimeDifference_Between(TaskSys_StartTime, cur_time);
 195:SYS/task_manager/task_manager.c **** 
 196:SYS/task_manager/task_manager.c ****     TaskSys_Idle_US++;
 197:SYS/task_manager/task_manager.c ****     TaskSys_Idle_Ocupy = (TaskSys_Idle_US / (float)time_diff);
 198:SYS/task_manager/task_manager.c **** }
 199:SYS/task_manager/task_manager.c **** 
 200:SYS/task_manager/task_manager.c **** #if (TASK_SCHEDULER_TYPE == PREEMPTIVE_SCHDULER)
 201:SYS/task_manager/task_manager.c **** 
 202:SYS/task_manager/task_manager.c **** void Task_Resume_FromBlock(Task *tsk)
 203:SYS/task_manager/task_manager.c **** {
 204:SYS/task_manager/task_manager.c ****     Task_ClearBlock(tsk);
 205:SYS/task_manager/task_manager.c ****     Task_SetReady(tsk);
 206:SYS/task_manager/task_manager.c ****     //Task_Set_CountRunnigTime_State(tsk, ENABLE);
 207:SYS/task_manager/task_manager.c **** 
 208:SYS/task_manager/task_manager.c ****     tsk->Exec_status.State = Task_Running;
 209:SYS/task_manager/task_manager.c ****     NxtTsk_TCB.Top_Stk_Ptr = &tsk->TCB.Top_Stk_Ptr;
 210:SYS/task_manager/task_manager.c ****     NxtTsk_TCB.Stack = tsk->TCB.Stack;
 211:SYS/task_manager/task_manager.c ****     CurRunTsk_Ptr = tsk;
 212:SYS/task_manager/task_manager.c **** }
 213:SYS/task_manager/task_manager.c **** 
 214:SYS/task_manager/task_manager.c **** void Task_SetBlock(Task *tsk)
 215:SYS/task_manager/task_manager.c **** {
 216:SYS/task_manager/task_manager.c ****     uint8_t grp_id = GET_TASKGROUP_PRIORITY(tsk->priority.Priority);
 217:SYS/task_manager/task_manager.c ****     uint8_t tsk_id = GET_TASKINGROUP_PRIORITY(tsk->priority.Priority);
 218:SYS/task_manager/task_manager.c **** 
 219:SYS/task_manager/task_manager.c ****     //set current group block
 220:SYS/task_manager/task_manager.c ****     TskHdl_BlkMap.Grp.Flg |= 1 << grp_id;
 221:SYS/task_manager/task_manager.c ****     //set current task under this group flag to block
 222:SYS/task_manager/task_manager.c ****     TskHdl_BlkMap.TskInGrp[grp_id].Flg |= 1 << tsk_id;
 223:SYS/task_manager/task_manager.c **** 
 224:SYS/task_manager/task_manager.c ****     //reset task in ready reg group
 225:SYS/task_manager/task_manager.c ****     TskHdl_RdyMap.TskInGrp[grp_id].Flg &= ~(1 << tsk_id);
 226:SYS/task_manager/task_manager.c ****     //if no task ready then clear group reg
 227:SYS/task_manager/task_manager.c ****     if (TskHdl_RdyMap.TskInGrp[grp_id].Flg == 0)
 228:SYS/task_manager/task_manager.c ****     {
 229:SYS/task_manager/task_manager.c ****         TskHdl_RdyMap.Grp.Flg &= ~(1 << grp_id);
 230:SYS/task_manager/task_manager.c ****     }
 231:SYS/task_manager/task_manager.c **** 
 232:SYS/task_manager/task_manager.c ****     //set task state
 233:SYS/task_manager/task_manager.c ****     tsk->Exec_status.State = Task_Block;
 234:SYS/task_manager/task_manager.c **** 
 235:SYS/task_manager/task_manager.c ****     //Task_StopCountTargetFunc_Cast(tsk);
 236:SYS/task_manager/task_manager.c ****     //Task_Set_CountRunnigTime_State(tsk, DISABLE);
 237:SYS/task_manager/task_manager.c **** 
 238:SYS/task_manager/task_manager.c ****     CurRunTsk_Ptr = NULL;
ARM GAS  /tmp/cc3rJM77.s 			page 6


 239:SYS/task_manager/task_manager.c **** 
 240:SYS/task_manager/task_manager.c ****     Task_SetBASEPRI(0);
 241:SYS/task_manager/task_manager.c **** }
 242:SYS/task_manager/task_manager.c **** 
 243:SYS/task_manager/task_manager.c **** void Task_SetPending(Task *tsk)
 244:SYS/task_manager/task_manager.c **** {
 245:SYS/task_manager/task_manager.c ****     uint8_t grp_id = GET_TASKGROUP_PRIORITY(tsk->priority.Priority);
 246:SYS/task_manager/task_manager.c ****     uint8_t tsk_id = GET_TASKINGROUP_PRIORITY(tsk->priority.Priority);
 247:SYS/task_manager/task_manager.c **** 
 248:SYS/task_manager/task_manager.c ****     //set current group pending
 249:SYS/task_manager/task_manager.c ****     TskHdl_PndMap.Grp.Flg |= 1 << grp_id;
 250:SYS/task_manager/task_manager.c ****     //set current task under this group flag to ready
 251:SYS/task_manager/task_manager.c ****     TskHdl_PndMap.TskInGrp[grp_id].Flg |= 1 << tsk_id;
 252:SYS/task_manager/task_manager.c **** 
 253:SYS/task_manager/task_manager.c ****     //set task state
 254:SYS/task_manager/task_manager.c ****     tsk->Exec_status.State = Task_Pending;
 255:SYS/task_manager/task_manager.c **** }
 256:SYS/task_manager/task_manager.c **** 
 257:SYS/task_manager/task_manager.c **** void Task_SwitchStack(void)
 258:SYS/task_manager/task_manager.c **** {
 259:SYS/task_manager/task_manager.c ****     CurTsk_TCB = NxtTsk_TCB;
 260:SYS/task_manager/task_manager.c **** }
 261:SYS/task_manager/task_manager.c **** 
 262:SYS/task_manager/task_manager.c **** Task *Task_Get_HighestRank_PndTask(void)
 263:SYS/task_manager/task_manager.c **** {
 264:SYS/task_manager/task_manager.c ****     uint8_t grp_id;
 265:SYS/task_manager/task_manager.c ****     uint8_t tsk_id;
 266:SYS/task_manager/task_manager.c **** 
 267:SYS/task_manager/task_manager.c ****     if (TskHdl_PndMap.Grp.Flg)
 268:SYS/task_manager/task_manager.c ****     {
 269:SYS/task_manager/task_manager.c ****         //find group
 270:SYS/task_manager/task_manager.c ****         grp_id = Tsk_Handle[TskHdl_PndMap.Grp.Flg];
 271:SYS/task_manager/task_manager.c ****         //find task in group
 272:SYS/task_manager/task_manager.c ****         tsk_id = Tsk_Handle[TskHdl_PndMap.TskInGrp[grp_id].Flg];
 273:SYS/task_manager/task_manager.c ****     }
 274:SYS/task_manager/task_manager.c ****     else
 275:SYS/task_manager/task_manager.c ****         return NULL;
 276:SYS/task_manager/task_manager.c **** 
 277:SYS/task_manager/task_manager.c ****     if (Task_Ptr[grp_id][tsk_id] != NULL)
 278:SYS/task_manager/task_manager.c ****     {
 279:SYS/task_manager/task_manager.c ****         return Task_Ptr[grp_id][tsk_id];
 280:SYS/task_manager/task_manager.c ****     }
 281:SYS/task_manager/task_manager.c ****     else
 282:SYS/task_manager/task_manager.c ****     {
 283:SYS/task_manager/task_manager.c ****         TskHdl_PndMap.Grp.Flg &= ~(1 << grp_id);
 284:SYS/task_manager/task_manager.c ****         TskHdl_PndMap.TskInGrp[grp_id].Flg &= ~(1 << tsk_id);
 285:SYS/task_manager/task_manager.c ****         return NULL;
 286:SYS/task_manager/task_manager.c ****     }
 287:SYS/task_manager/task_manager.c **** }
 288:SYS/task_manager/task_manager.c **** 
 289:SYS/task_manager/task_manager.c **** static uint32_t Task_EnterCritical(void)
 290:SYS/task_manager/task_manager.c **** {
 291:SYS/task_manager/task_manager.c ****     /* Set BASEPRI to the max syscall priority to effect a critical
 292:SYS/task_manager/task_manager.c **** 	section. */
 293:SYS/task_manager/task_manager.c ****     uint32_t ulOriginalBASEPRI, ulNewBASEPRI;
 294:SYS/task_manager/task_manager.c **** 
 295:SYS/task_manager/task_manager.c ****     __asm volatile(
ARM GAS  /tmp/cc3rJM77.s 			page 7


 296:SYS/task_manager/task_manager.c ****         "	mrs %0, basepri											\n"
 297:SYS/task_manager/task_manager.c ****         "	mov %1, %2												\n"
 298:SYS/task_manager/task_manager.c ****         "	msr basepri, %1											\n"
 299:SYS/task_manager/task_manager.c ****         "	isb														\n"
 300:SYS/task_manager/task_manager.c ****         "	dsb														\n"
 301:SYS/task_manager/task_manager.c ****         : "=r"(ulOriginalBASEPRI), "=r"(ulNewBASEPRI)
 302:SYS/task_manager/task_manager.c ****         : "i"(80)
 303:SYS/task_manager/task_manager.c ****         : "memory");
 304:SYS/task_manager/task_manager.c **** 
 305:SYS/task_manager/task_manager.c ****     /* This return will not be reached but is necessary to prevent compiler
 306:SYS/task_manager/task_manager.c **** 	warnings. */
 307:SYS/task_manager/task_manager.c ****     return ulOriginalBASEPRI;
 308:SYS/task_manager/task_manager.c **** }
 309:SYS/task_manager/task_manager.c **** 
 310:SYS/task_manager/task_manager.c **** __attribute__((nake)) static void Task_SetBASEPRI(uint32_t ulBASEPRI)
 311:SYS/task_manager/task_manager.c **** {
  51              		.loc 1 311 1 view -0
  52              		.cfi_startproc
  53              		@ args = 0, pretend = 0, frame = 0
  54              		@ frame_needed = 0, uses_anonymous_args = 0
  55              		@ link register save eliminated.
 312:SYS/task_manager/task_manager.c ****     __ASM("	msr basepri, %0	" ::"r"(ulBASEPRI)
  56              		.loc 1 312 5 view .LVU4
  57              		.syntax unified
  58              	@ 312 "SYS/task_manager/task_manager.c" 1
  59 0000 80F31188 			msr basepri, r0	
  60              	@ 0 "" 2
 313:SYS/task_manager/task_manager.c ****           : "memory");
 314:SYS/task_manager/task_manager.c **** }
  61              		.loc 1 314 1 is_stmt 0 view .LVU5
  62              		.thumb
  63              		.syntax unified
  64 0004 7047     		bx	lr
  65              		.cfi_endproc
  66              	.LFE137:
  68              		.section	.text.Task_SetReady,"ax",%progbits
  69              		.align	1
  70              		.syntax unified
  71              		.thumb
  72              		.thumb_func
  73              		.fpu fpv4-sp-d16
  75              	Task_SetReady:
  76              	.LVL1:
  77              	.LFB145:
 315:SYS/task_manager/task_manager.c **** 
 316:SYS/task_manager/task_manager.c **** __attribute__((naked)) static void Task_ExitCritical(void)
 317:SYS/task_manager/task_manager.c **** {
 318:SYS/task_manager/task_manager.c ****     /* Barrier instructions are not used as this function is only used to
 319:SYS/task_manager/task_manager.c **** 	lower the BASEPRI value. */
 320:SYS/task_manager/task_manager.c ****     __ASM("	msr basepri, %0	" ::"r"(0)
 321:SYS/task_manager/task_manager.c ****           : "memory");
 322:SYS/task_manager/task_manager.c **** }
 323:SYS/task_manager/task_manager.c **** 
 324:SYS/task_manager/task_manager.c **** __attribute__((naked)) static void Task_Recover(void)
 325:SYS/task_manager/task_manager.c **** {
 326:SYS/task_manager/task_manager.c ****     __ASM("LDR	  R3, CurrentTCBConst_Tmp2");
 327:SYS/task_manager/task_manager.c ****     __ASM("LDR    R1, [R3]");
ARM GAS  /tmp/cc3rJM77.s 			page 8


 328:SYS/task_manager/task_manager.c ****     __ASM("LDR    R0, [R1]");
 329:SYS/task_manager/task_manager.c **** 
 330:SYS/task_manager/task_manager.c ****     __ASM("LDMIA  R0!, {R4-R11, R14}");
 331:SYS/task_manager/task_manager.c **** 
 332:SYS/task_manager/task_manager.c ****     __ASM("MSR    PSP, R0");
 333:SYS/task_manager/task_manager.c ****     __ASM("ISB");
 334:SYS/task_manager/task_manager.c ****     __ASM("BX     R14");
 335:SYS/task_manager/task_manager.c ****     __ASM(".ALIGN 4");
 336:SYS/task_manager/task_manager.c ****     __ASM("CurrentTCBConst_Tmp2: .word CurTsk_TCB");
 337:SYS/task_manager/task_manager.c **** }
 338:SYS/task_manager/task_manager.c **** 
 339:SYS/task_manager/task_manager.c **** __attribute__((naked)) void Task_SaveCurProc(void)
 340:SYS/task_manager/task_manager.c **** {
 341:SYS/task_manager/task_manager.c ****     __ASM("MRS    R0, PSP");
 342:SYS/task_manager/task_manager.c ****     __ASM("LDR	  R3, CurrentTCBConst_Tmp3");
 343:SYS/task_manager/task_manager.c ****     __ASM("LDR    R2, [R3]");
 344:SYS/task_manager/task_manager.c **** 
 345:SYS/task_manager/task_manager.c ****     __ASM("ISB");
 346:SYS/task_manager/task_manager.c **** 
 347:SYS/task_manager/task_manager.c ****     __ASM("STMDB    R0!, {R4-R11, R14}");
 348:SYS/task_manager/task_manager.c ****     __ASM("STR      R0, [R2]");
 349:SYS/task_manager/task_manager.c **** 
 350:SYS/task_manager/task_manager.c ****     /******************************  FPU SECTION  *********************************/
 351:SYS/task_manager/task_manager.c ****     __ASM("TST      R14, #0x10");
 352:SYS/task_manager/task_manager.c ****     __ASM("IT       EQ");
 353:SYS/task_manager/task_manager.c ****     __ASM("VSTMDBEQ R0!, {s16-s31}");
 354:SYS/task_manager/task_manager.c ****     /******************************  FPU SECTION  *********************************/
 355:SYS/task_manager/task_manager.c **** 
 356:SYS/task_manager/task_manager.c ****     __ASM("ISB");
 357:SYS/task_manager/task_manager.c ****     __ASM("BX       R14");
 358:SYS/task_manager/task_manager.c **** 
 359:SYS/task_manager/task_manager.c ****     __ASM("CurrentTCBConst_Tmp3: .word CurTsk_TCB");
 360:SYS/task_manager/task_manager.c **** }
 361:SYS/task_manager/task_manager.c **** 
 362:SYS/task_manager/task_manager.c **** __attribute__((naked)) void Task_Load(void)
 363:SYS/task_manager/task_manager.c **** {
 364:SYS/task_manager/task_manager.c ****     __ASM("LDR	  R3, =CurTsk_TCB");
 365:SYS/task_manager/task_manager.c ****     __ASM("LDR    R1, [R3]");
 366:SYS/task_manager/task_manager.c ****     __ASM("LDR    R0, [R1]");
 367:SYS/task_manager/task_manager.c **** 
 368:SYS/task_manager/task_manager.c ****     __ASM("LDMIA  R0!, {R4-R11, R14}");
 369:SYS/task_manager/task_manager.c **** 
 370:SYS/task_manager/task_manager.c ****     /******************************  FPU SECTION  *********************************/
 371:SYS/task_manager/task_manager.c ****     __ASM("TST      R14, #0x10");
 372:SYS/task_manager/task_manager.c ****     __ASM("IT       EQ");
 373:SYS/task_manager/task_manager.c ****     __ASM("VLDMIAEQ R0!, {s16-s31}");
 374:SYS/task_manager/task_manager.c ****     /******************************  FPU SECTION  *********************************/
 375:SYS/task_manager/task_manager.c **** 
 376:SYS/task_manager/task_manager.c ****     __ASM("MSR    PSP, R0");
 377:SYS/task_manager/task_manager.c ****     __ASM("ISB");
 378:SYS/task_manager/task_manager.c ****     //__ASM("MOV    R0, #240");
 379:SYS/task_manager/task_manager.c ****     //__ASM("MSR	  BASEPRI, R0");
 380:SYS/task_manager/task_manager.c ****     __ASM("BX     R14");
 381:SYS/task_manager/task_manager.c ****     __ASM(".ALIGN 4");
 382:SYS/task_manager/task_manager.c **** }
 383:SYS/task_manager/task_manager.c **** 
 384:SYS/task_manager/task_manager.c **** void Load_FirstTask(void)
ARM GAS  /tmp/cc3rJM77.s 			page 9


 385:SYS/task_manager/task_manager.c **** {
 386:SYS/task_manager/task_manager.c ****     Task_Load();
 387:SYS/task_manager/task_manager.c **** }
 388:SYS/task_manager/task_manager.c **** 
 389:SYS/task_manager/task_manager.c **** __attribute__((naked)) void Task_SwitchContext(void)
 390:SYS/task_manager/task_manager.c **** {
 391:SYS/task_manager/task_manager.c ****     __ASM("MRS      R0, PSP");
 392:SYS/task_manager/task_manager.c ****     __ASM("ISB");
 393:SYS/task_manager/task_manager.c **** 
 394:SYS/task_manager/task_manager.c ****     __ASM("LDR      R3, CurrentTCBConst_Tmp");
 395:SYS/task_manager/task_manager.c ****     __ASM("LDR      R2, [R3]");
 396:SYS/task_manager/task_manager.c **** 
 397:SYS/task_manager/task_manager.c ****     /******************************  FPU SECTION  *********************************/
 398:SYS/task_manager/task_manager.c ****     __ASM("TST      R14, #0x10");
 399:SYS/task_manager/task_manager.c ****     __ASM("IT       EQ");
 400:SYS/task_manager/task_manager.c ****     __ASM("VSTMDBEQ R0!, {s16-s31}");
 401:SYS/task_manager/task_manager.c ****     /******************************  FPU SECTION  *********************************/
 402:SYS/task_manager/task_manager.c **** 
 403:SYS/task_manager/task_manager.c ****     __ASM("STMDB    R0!, {R4-R11, R14}");
 404:SYS/task_manager/task_manager.c ****     __ASM("STR      R0, [R2]");
 405:SYS/task_manager/task_manager.c **** 
 406:SYS/task_manager/task_manager.c ****     __ASM("STMDB    SP!, {R0, R3}");
 407:SYS/task_manager/task_manager.c ****     __ASM("MOV      R0, %0" ::"i"(0x50));
 408:SYS/task_manager/task_manager.c ****     __ASM("MSR      BASEPRI, R0");
 409:SYS/task_manager/task_manager.c **** 
 410:SYS/task_manager/task_manager.c ****     __ASM("DSB");
 411:SYS/task_manager/task_manager.c ****     __ASM("ISB");
 412:SYS/task_manager/task_manager.c **** 
 413:SYS/task_manager/task_manager.c ****     __ASM("BL       Task_SwitchStack");
 414:SYS/task_manager/task_manager.c **** 
 415:SYS/task_manager/task_manager.c ****     __ASM("MOV      R0, #0");
 416:SYS/task_manager/task_manager.c ****     __ASM("MSR      BASEPRI, R0");
 417:SYS/task_manager/task_manager.c ****     __ASM("LDMIA    SP!, {R0, R3}");
 418:SYS/task_manager/task_manager.c **** 
 419:SYS/task_manager/task_manager.c ****     __ASM("LDR      R1, [R3]");
 420:SYS/task_manager/task_manager.c ****     __ASM("LDR      R0, [R1]");
 421:SYS/task_manager/task_manager.c **** 
 422:SYS/task_manager/task_manager.c ****     __ASM("LDMIA    R0!, {R4-R11, R14}");
 423:SYS/task_manager/task_manager.c **** 
 424:SYS/task_manager/task_manager.c ****     /******************************  FPU SECTION  *********************************/
 425:SYS/task_manager/task_manager.c ****     __ASM("TST      R14, #0x10");
 426:SYS/task_manager/task_manager.c ****     __ASM("IT       EQ");
 427:SYS/task_manager/task_manager.c ****     __ASM("VLDMIAEQ R0!, {s16-s31}");
 428:SYS/task_manager/task_manager.c ****     /******************************  FPU SECTION  *********************************/
 429:SYS/task_manager/task_manager.c **** 
 430:SYS/task_manager/task_manager.c ****     __ASM("MSR      PSP,R0");
 431:SYS/task_manager/task_manager.c ****     __ASM("ISB");
 432:SYS/task_manager/task_manager.c ****     //__ASM("MOV      R0, #240");
 433:SYS/task_manager/task_manager.c ****     //__ASM("MSR	    BASEPRI, R0");
 434:SYS/task_manager/task_manager.c ****     __ASM("BX       R14");
 435:SYS/task_manager/task_manager.c **** 
 436:SYS/task_manager/task_manager.c ****     __ASM("CurrentTCBConst_Tmp: .word CurTsk_TCB");
 437:SYS/task_manager/task_manager.c ****     __ASM(".ALIGN 4");
 438:SYS/task_manager/task_manager.c **** }
 439:SYS/task_manager/task_manager.c **** 
 440:SYS/task_manager/task_manager.c **** static void Task_SetStkPtr_Val(Task *tsk)
 441:SYS/task_manager/task_manager.c **** {
ARM GAS  /tmp/cc3rJM77.s 			page 10


 442:SYS/task_manager/task_manager.c ****     uint32_t *Tsk_Ptr_tmp = NULL;
 443:SYS/task_manager/task_manager.c **** 
 444:SYS/task_manager/task_manager.c ****     memset(tsk->TCB.Stack, NULL, tsk->Stack_Depth);
 445:SYS/task_manager/task_manager.c **** 
 446:SYS/task_manager/task_manager.c ****     Tsk_Ptr_tmp = &tsk->TCB.Stack + (tsk->Stack_Depth - (uint32_t)1);
 447:SYS/task_manager/task_manager.c ****     Tsk_Ptr_tmp = (uint32_t *)((uint32_t)(Tsk_Ptr_tmp)&0XFFFFFFF8ul);
 448:SYS/task_manager/task_manager.c **** 
 449:SYS/task_manager/task_manager.c ****     Tsk_Ptr_tmp--;
 450:SYS/task_manager/task_manager.c ****     *Tsk_Ptr_tmp = 0x01000000uL; /* xPSR */
 451:SYS/task_manager/task_manager.c **** 
 452:SYS/task_manager/task_manager.c ****     Tsk_Ptr_tmp--;
 453:SYS/task_manager/task_manager.c ****     *Tsk_Ptr_tmp = ((uint32_t)Task_Caller) & 0xfffffffeUL; /* PC */
 454:SYS/task_manager/task_manager.c **** 
 455:SYS/task_manager/task_manager.c ****     Tsk_Ptr_tmp--;
 456:SYS/task_manager/task_manager.c ****     *Tsk_Ptr_tmp = (uint32_t)Task_Exit; /* LR */
 457:SYS/task_manager/task_manager.c **** 
 458:SYS/task_manager/task_manager.c ****     /* Save code space by skipping register initialisation. */
 459:SYS/task_manager/task_manager.c ****     Tsk_Ptr_tmp -= 5;              /* R12, R3, R2 and R1. */
 460:SYS/task_manager/task_manager.c ****     *Tsk_Ptr_tmp = (uint32_t)NULL; /* R0 */
 461:SYS/task_manager/task_manager.c **** 
 462:SYS/task_manager/task_manager.c ****     /* A save method is being used that requires each task to maintain its
 463:SYS/task_manager/task_manager.c **** 	    own exec return value. */
 464:SYS/task_manager/task_manager.c ****     Tsk_Ptr_tmp--;
 465:SYS/task_manager/task_manager.c ****     *Tsk_Ptr_tmp = 0xfffffffd;
 466:SYS/task_manager/task_manager.c **** 
 467:SYS/task_manager/task_manager.c ****     Tsk_Ptr_tmp -= 8; /* R11, R10, R9, R8, R7, R6, R5 and R4. */
 468:SYS/task_manager/task_manager.c **** 
 469:SYS/task_manager/task_manager.c ****     //set task stack top pointer
 470:SYS/task_manager/task_manager.c ****     tsk->TCB.Top_Stk_Ptr = Tsk_Ptr_tmp; //&Tsk_Ptr_tmp
 471:SYS/task_manager/task_manager.c **** }
 472:SYS/task_manager/task_manager.c **** 
 473:SYS/task_manager/task_manager.c **** #endif
 474:SYS/task_manager/task_manager.c **** 
 475:SYS/task_manager/task_manager.c **** static void Task_SetReady(Task *tsk)
 476:SYS/task_manager/task_manager.c **** {
  78              		.loc 1 476 1 is_stmt 1 view -0
  79              		.cfi_startproc
  80              		@ args = 0, pretend = 0, frame = 0
  81              		@ frame_needed = 0, uses_anonymous_args = 0
  82              		@ link register save eliminated.
  83              		.loc 1 476 1 is_stmt 0 view .LVU7
  84 0000 70B4     		push	{r4, r5, r6}
  85              	.LCFI0:
  86              		.cfi_def_cfa_offset 12
  87              		.cfi_offset 4, -12
  88              		.cfi_offset 5, -8
  89              		.cfi_offset 6, -4
 477:SYS/task_manager/task_manager.c ****     uint8_t grp_id = GET_TASKGROUP_PRIORITY(tsk->priority.Priority);
  90              		.loc 1 477 5 is_stmt 1 view .LVU8
  91              		.loc 1 477 22 is_stmt 0 view .LVU9
  92 0002 0478     		ldrb	r4, [r0]	@ zero_extendqisi2
  93              		.loc 1 477 13 view .LVU10
  94 0004 E208     		lsrs	r2, r4, #3
  95              	.LVL2:
 478:SYS/task_manager/task_manager.c ****     uint8_t tsk_id = GET_TASKINGROUP_PRIORITY(tsk->priority.Priority);
  96              		.loc 1 478 5 is_stmt 1 view .LVU11
  97              		.loc 1 478 13 is_stmt 0 view .LVU12
ARM GAS  /tmp/cc3rJM77.s 			page 11


  98 0006 04F00705 		and	r5, r4, #7
  99              	.LVL3:
 479:SYS/task_manager/task_manager.c **** 
 480:SYS/task_manager/task_manager.c ****     //set current group flag to ready
 481:SYS/task_manager/task_manager.c ****     TskHdl_RdyMap.Grp.Flg |= 1 << grp_id;
 100              		.loc 1 481 5 is_stmt 1 view .LVU13
 101              		.loc 1 481 27 is_stmt 0 view .LVU14
 102 000a 094B     		ldr	r3, .L6
 103 000c 1978     		ldrb	r1, [r3]	@ zero_extendqisi2
 104              		.loc 1 481 32 view .LVU15
 105 000e 0124     		movs	r4, #1
 106 0010 04FA02F6 		lsl	r6, r4, r2
 107              		.loc 1 481 27 view .LVU16
 108 0014 3143     		orrs	r1, r1, r6
 109 0016 C9B2     		uxtb	r1, r1
 110 0018 1970     		strb	r1, [r3]
 482:SYS/task_manager/task_manager.c ****     //set current task under this group flag to ready
 483:SYS/task_manager/task_manager.c ****     TskHdl_RdyMap.TskInGrp[grp_id].Flg |= 1 << tsk_id;
 111              		.loc 1 483 5 is_stmt 1 view .LVU17
 112              		.loc 1 483 40 is_stmt 0 view .LVU18
 113 001a 1344     		add	r3, r3, r2
 114 001c 5A78     		ldrb	r2, [r3, #1]	@ zero_extendqisi2
 115              	.LVL4:
 116              		.loc 1 483 45 view .LVU19
 117 001e AC40     		lsls	r4, r4, r5
 118              		.loc 1 483 40 view .LVU20
 119 0020 2243     		orrs	r2, r2, r4
 120 0022 D2B2     		uxtb	r2, r2
 121 0024 5A70     		strb	r2, [r3, #1]
 484:SYS/task_manager/task_manager.c **** 
 485:SYS/task_manager/task_manager.c ****     tsk->Exec_status.State = Task_Ready;
 122              		.loc 1 485 5 is_stmt 1 view .LVU21
 123              		.loc 1 485 28 is_stmt 0 view .LVU22
 124 0026 0023     		movs	r3, #0
 125 0028 80F84830 		strb	r3, [r0, #72]
 486:SYS/task_manager/task_manager.c **** }
 126              		.loc 1 486 1 view .LVU23
 127 002c 70BC     		pop	{r4, r5, r6}
 128              	.LCFI1:
 129              		.cfi_restore 6
 130              		.cfi_restore 5
 131              		.cfi_restore 4
 132              		.cfi_def_cfa_offset 0
 133              	.LVL5:
 134              		.loc 1 486 1 view .LVU24
 135 002e 7047     		bx	lr
 136              	.L7:
 137              		.align	2
 138              	.L6:
 139 0030 00000000 		.word	.LANCHOR0
 140              		.cfi_endproc
 141              	.LFE145:
 143              		.section	.text.Task_ClearBlock,"ax",%progbits
 144              		.align	1
 145              		.syntax unified
 146              		.thumb
 147              		.thumb_func
ARM GAS  /tmp/cc3rJM77.s 			page 12


 148              		.fpu fpv4-sp-d16
 150              	Task_ClearBlock:
 151              	.LVL6:
 152              	.LFB146:
 487:SYS/task_manager/task_manager.c **** 
 488:SYS/task_manager/task_manager.c **** static void Task_ClearBlock(Task *tsk)
 489:SYS/task_manager/task_manager.c **** {
 153              		.loc 1 489 1 is_stmt 1 view -0
 154              		.cfi_startproc
 155              		@ args = 0, pretend = 0, frame = 0
 156              		@ frame_needed = 0, uses_anonymous_args = 0
 157              		@ link register save eliminated.
 158              		.loc 1 489 1 is_stmt 0 view .LVU26
 159 0000 10B4     		push	{r4}
 160              	.LCFI2:
 161              		.cfi_def_cfa_offset 4
 162              		.cfi_offset 4, -4
 490:SYS/task_manager/task_manager.c ****     uint8_t grp_id = GET_TASKGROUP_PRIORITY(tsk->priority.Priority);
 163              		.loc 1 490 5 is_stmt 1 view .LVU27
 164              		.loc 1 490 22 is_stmt 0 view .LVU28
 165 0002 0378     		ldrb	r3, [r0]	@ zero_extendqisi2
 166              		.loc 1 490 13 view .LVU29
 167 0004 DC08     		lsrs	r4, r3, #3
 168              	.LVL7:
 491:SYS/task_manager/task_manager.c ****     uint8_t tsk_id = GET_TASKINGROUP_PRIORITY(tsk->priority.Priority);
 169              		.loc 1 491 5 is_stmt 1 view .LVU30
 170              		.loc 1 491 13 is_stmt 0 view .LVU31
 171 0006 03F00702 		and	r2, r3, #7
 172              	.LVL8:
 492:SYS/task_manager/task_manager.c **** 
 493:SYS/task_manager/task_manager.c ****     TskHdl_BlkMap.TskInGrp[grp_id].Flg &= ~(1 << tsk_id);
 173              		.loc 1 493 5 is_stmt 1 view .LVU32
 174              		.loc 1 493 40 is_stmt 0 view .LVU33
 175 000a 0A4B     		ldr	r3, .L11
 176 000c 2344     		add	r3, r3, r4
 177 000e 5978     		ldrb	r1, [r3, #1]	@ zero_extendqisi2
 178              		.loc 1 493 47 view .LVU34
 179 0010 0120     		movs	r0, #1
 180              	.LVL9:
 181              		.loc 1 493 47 view .LVU35
 182 0012 00FA02F2 		lsl	r2, r0, r2
 183              	.LVL10:
 184              		.loc 1 493 40 view .LVU36
 185 0016 21EA0202 		bic	r2, r1, r2
 186 001a 5A70     		strb	r2, [r3, #1]
 187              	.LVL11:
 494:SYS/task_manager/task_manager.c ****     if (TskHdl_BlkMap.TskInGrp[grp_id].Flg == 0)
 188              		.loc 1 494 5 is_stmt 1 view .LVU37
 189              		.loc 1 494 39 is_stmt 0 view .LVU38
 190 001c 5B78     		ldrb	r3, [r3, #1]	@ zero_extendqisi2
 191              		.loc 1 494 8 view .LVU39
 192 001e 33B9     		cbnz	r3, .L8
 495:SYS/task_manager/task_manager.c ****     {
 496:SYS/task_manager/task_manager.c ****         TskHdl_BlkMap.Grp.Flg &= ~(1 << grp_id);
 193              		.loc 1 496 9 is_stmt 1 view .LVU40
 194              		.loc 1 496 31 is_stmt 0 view .LVU41
 195 0020 0449     		ldr	r1, .L11
ARM GAS  /tmp/cc3rJM77.s 			page 13


 196 0022 0B78     		ldrb	r3, [r1]	@ zero_extendqisi2
 197              		.loc 1 496 38 view .LVU42
 198 0024 00FA04F4 		lsl	r4, r0, r4
 199              	.LVL12:
 200              		.loc 1 496 31 view .LVU43
 201 0028 23EA0404 		bic	r4, r3, r4
 202 002c 0C70     		strb	r4, [r1]
 203              	.L8:
 497:SYS/task_manager/task_manager.c ****     }
 498:SYS/task_manager/task_manager.c **** }
 204              		.loc 1 498 1 view .LVU44
 205 002e 5DF8044B 		ldr	r4, [sp], #4
 206              	.LCFI3:
 207              		.cfi_restore 4
 208              		.cfi_def_cfa_offset 0
 209 0032 7047     		bx	lr
 210              	.L12:
 211              		.align	2
 212              	.L11:
 213 0034 00000000 		.word	.LANCHOR1
 214              		.cfi_endproc
 215              	.LFE146:
 217              		.section	.text.Task_ClearPending,"ax",%progbits
 218              		.align	1
 219              		.syntax unified
 220              		.thumb
 221              		.thumb_func
 222              		.fpu fpv4-sp-d16
 224              	Task_ClearPending:
 225              	.LVL13:
 226              	.LFB147:
 499:SYS/task_manager/task_manager.c **** 
 500:SYS/task_manager/task_manager.c **** static void Task_ClearPending(Task *tsk)
 501:SYS/task_manager/task_manager.c **** {
 227              		.loc 1 501 1 is_stmt 1 view -0
 228              		.cfi_startproc
 229              		@ args = 0, pretend = 0, frame = 0
 230              		@ frame_needed = 0, uses_anonymous_args = 0
 231              		@ link register save eliminated.
 232              		.loc 1 501 1 is_stmt 0 view .LVU46
 233 0000 10B4     		push	{r4}
 234              	.LCFI4:
 235              		.cfi_def_cfa_offset 4
 236              		.cfi_offset 4, -4
 502:SYS/task_manager/task_manager.c ****     uint8_t grp_id = GET_TASKGROUP_PRIORITY(tsk->priority.Priority);
 237              		.loc 1 502 5 is_stmt 1 view .LVU47
 238              		.loc 1 502 22 is_stmt 0 view .LVU48
 239 0002 0378     		ldrb	r3, [r0]	@ zero_extendqisi2
 240              		.loc 1 502 13 view .LVU49
 241 0004 DC08     		lsrs	r4, r3, #3
 242              	.LVL14:
 503:SYS/task_manager/task_manager.c ****     uint8_t tsk_id = GET_TASKINGROUP_PRIORITY(tsk->priority.Priority);
 243              		.loc 1 503 5 is_stmt 1 view .LVU50
 244              		.loc 1 503 13 is_stmt 0 view .LVU51
 245 0006 03F00702 		and	r2, r3, #7
 246              	.LVL15:
 504:SYS/task_manager/task_manager.c **** 
ARM GAS  /tmp/cc3rJM77.s 			page 14


 505:SYS/task_manager/task_manager.c ****     TskHdl_PndMap.TskInGrp[grp_id].Flg &= ~(1 << tsk_id);
 247              		.loc 1 505 5 is_stmt 1 view .LVU52
 248              		.loc 1 505 40 is_stmt 0 view .LVU53
 249 000a 0A4B     		ldr	r3, .L16
 250 000c 2344     		add	r3, r3, r4
 251 000e 5978     		ldrb	r1, [r3, #1]	@ zero_extendqisi2
 252              		.loc 1 505 47 view .LVU54
 253 0010 0120     		movs	r0, #1
 254              	.LVL16:
 255              		.loc 1 505 47 view .LVU55
 256 0012 00FA02F2 		lsl	r2, r0, r2
 257              	.LVL17:
 258              		.loc 1 505 40 view .LVU56
 259 0016 21EA0202 		bic	r2, r1, r2
 260 001a 5A70     		strb	r2, [r3, #1]
 261              	.LVL18:
 506:SYS/task_manager/task_manager.c ****     if (TskHdl_PndMap.TskInGrp[grp_id].Flg == 0)
 262              		.loc 1 506 5 is_stmt 1 view .LVU57
 263              		.loc 1 506 39 is_stmt 0 view .LVU58
 264 001c 5B78     		ldrb	r3, [r3, #1]	@ zero_extendqisi2
 265              		.loc 1 506 8 view .LVU59
 266 001e 33B9     		cbnz	r3, .L13
 507:SYS/task_manager/task_manager.c ****     {
 508:SYS/task_manager/task_manager.c ****         TskHdl_PndMap.Grp.Flg &= ~(1 << grp_id);
 267              		.loc 1 508 9 is_stmt 1 view .LVU60
 268              		.loc 1 508 31 is_stmt 0 view .LVU61
 269 0020 0449     		ldr	r1, .L16
 270 0022 0B78     		ldrb	r3, [r1]	@ zero_extendqisi2
 271              		.loc 1 508 38 view .LVU62
 272 0024 00FA04F4 		lsl	r4, r0, r4
 273              	.LVL19:
 274              		.loc 1 508 31 view .LVU63
 275 0028 23EA0404 		bic	r4, r3, r4
 276 002c 0C70     		strb	r4, [r1]
 277              	.L13:
 509:SYS/task_manager/task_manager.c ****     }
 510:SYS/task_manager/task_manager.c **** }
 278              		.loc 1 510 1 view .LVU64
 279 002e 5DF8044B 		ldr	r4, [sp], #4
 280              	.LCFI5:
 281              		.cfi_restore 4
 282              		.cfi_def_cfa_offset 0
 283 0032 7047     		bx	lr
 284              	.L17:
 285              		.align	2
 286              	.L16:
 287 0034 00000000 		.word	.LANCHOR2
 288              		.cfi_endproc
 289              	.LFE147:
 291              		.section	.text.Task_ClearReady,"ax",%progbits
 292              		.align	1
 293              		.syntax unified
 294              		.thumb
 295              		.thumb_func
 296              		.fpu fpv4-sp-d16
 298              	Task_ClearReady:
 299              	.LVL20:
ARM GAS  /tmp/cc3rJM77.s 			page 15


 300              	.LFB148:
 511:SYS/task_manager/task_manager.c **** 
 512:SYS/task_manager/task_manager.c **** static void Task_ClearReady(Task *tsk)
 513:SYS/task_manager/task_manager.c **** {
 301              		.loc 1 513 1 is_stmt 1 view -0
 302              		.cfi_startproc
 303              		@ args = 0, pretend = 0, frame = 0
 304              		@ frame_needed = 0, uses_anonymous_args = 0
 305              		@ link register save eliminated.
 306              		.loc 1 513 1 is_stmt 0 view .LVU66
 307 0000 10B4     		push	{r4}
 308              	.LCFI6:
 309              		.cfi_def_cfa_offset 4
 310              		.cfi_offset 4, -4
 514:SYS/task_manager/task_manager.c ****     uint8_t grp_id = GET_TASKGROUP_PRIORITY(tsk->priority.Priority);
 311              		.loc 1 514 5 is_stmt 1 view .LVU67
 312              		.loc 1 514 22 is_stmt 0 view .LVU68
 313 0002 0378     		ldrb	r3, [r0]	@ zero_extendqisi2
 314              		.loc 1 514 13 view .LVU69
 315 0004 DC08     		lsrs	r4, r3, #3
 316              	.LVL21:
 515:SYS/task_manager/task_manager.c ****     uint8_t tsk_id = GET_TASKINGROUP_PRIORITY(tsk->priority.Priority);
 317              		.loc 1 515 5 is_stmt 1 view .LVU70
 318              		.loc 1 515 13 is_stmt 0 view .LVU71
 319 0006 03F00702 		and	r2, r3, #7
 320              	.LVL22:
 516:SYS/task_manager/task_manager.c **** 
 517:SYS/task_manager/task_manager.c ****     TskHdl_RdyMap.TskInGrp[grp_id].Flg &= ~(1 << tsk_id);
 321              		.loc 1 517 5 is_stmt 1 view .LVU72
 322              		.loc 1 517 40 is_stmt 0 view .LVU73
 323 000a 0A4B     		ldr	r3, .L21
 324 000c 2344     		add	r3, r3, r4
 325 000e 5978     		ldrb	r1, [r3, #1]	@ zero_extendqisi2
 326              		.loc 1 517 47 view .LVU74
 327 0010 0120     		movs	r0, #1
 328              	.LVL23:
 329              		.loc 1 517 47 view .LVU75
 330 0012 00FA02F2 		lsl	r2, r0, r2
 331              	.LVL24:
 332              		.loc 1 517 40 view .LVU76
 333 0016 21EA0202 		bic	r2, r1, r2
 334 001a 5A70     		strb	r2, [r3, #1]
 335              	.LVL25:
 518:SYS/task_manager/task_manager.c ****     if (TskHdl_RdyMap.TskInGrp[grp_id].Flg == 0)
 336              		.loc 1 518 5 is_stmt 1 view .LVU77
 337              		.loc 1 518 39 is_stmt 0 view .LVU78
 338 001c 5B78     		ldrb	r3, [r3, #1]	@ zero_extendqisi2
 339              		.loc 1 518 8 view .LVU79
 340 001e 33B9     		cbnz	r3, .L18
 519:SYS/task_manager/task_manager.c ****     {
 520:SYS/task_manager/task_manager.c ****         TskHdl_RdyMap.Grp.Flg &= ~(1 << grp_id);
 341              		.loc 1 520 9 is_stmt 1 view .LVU80
 342              		.loc 1 520 31 is_stmt 0 view .LVU81
 343 0020 0449     		ldr	r1, .L21
 344 0022 0B78     		ldrb	r3, [r1]	@ zero_extendqisi2
 345              		.loc 1 520 38 view .LVU82
 346 0024 00FA04F4 		lsl	r4, r0, r4
ARM GAS  /tmp/cc3rJM77.s 			page 16


 347              	.LVL26:
 348              		.loc 1 520 31 view .LVU83
 349 0028 23EA0404 		bic	r4, r3, r4
 350 002c 0C70     		strb	r4, [r1]
 351              	.L18:
 521:SYS/task_manager/task_manager.c ****     }
 522:SYS/task_manager/task_manager.c **** }
 352              		.loc 1 522 1 view .LVU84
 353 002e 5DF8044B 		ldr	r4, [sp], #4
 354              	.LCFI7:
 355              		.cfi_restore 4
 356              		.cfi_def_cfa_offset 0
 357 0032 7047     		bx	lr
 358              	.L22:
 359              		.align	2
 360              	.L21:
 361 0034 00000000 		.word	.LANCHOR0
 362              		.cfi_endproc
 363              	.LFE148:
 365              		.section	.text.Task_SetPendSVPro,"ax",%progbits
 366              		.align	1
 367              		.syntax unified
 368              		.thumb
 369              		.thumb_func
 370              		.fpu fpv4-sp-d16
 372              	Task_SetPendSVPro:
 373              	.LFB151:
 523:SYS/task_manager/task_manager.c **** 
 524:SYS/task_manager/task_manager.c **** Task *Task_Get_HighestRank_RdyTask(void)
 525:SYS/task_manager/task_manager.c **** {
 526:SYS/task_manager/task_manager.c ****     uint8_t grp_id = 0;
 527:SYS/task_manager/task_manager.c ****     uint8_t tsk_id = 0;
 528:SYS/task_manager/task_manager.c **** 
 529:SYS/task_manager/task_manager.c ****     if (TskHdl_RdyMap.Grp.Flg)
 530:SYS/task_manager/task_manager.c ****     {
 531:SYS/task_manager/task_manager.c ****         //find group
 532:SYS/task_manager/task_manager.c ****         grp_id = Tsk_Handle[TskHdl_RdyMap.Grp.Flg];
 533:SYS/task_manager/task_manager.c ****         //find task in group
 534:SYS/task_manager/task_manager.c ****         tsk_id = Tsk_Handle[TskHdl_RdyMap.TskInGrp[grp_id].Flg];
 535:SYS/task_manager/task_manager.c ****     }
 536:SYS/task_manager/task_manager.c ****     else
 537:SYS/task_manager/task_manager.c ****         return NULL;
 538:SYS/task_manager/task_manager.c **** 
 539:SYS/task_manager/task_manager.c ****     if (Task_Ptr[grp_id][tsk_id] != NULL)
 540:SYS/task_manager/task_manager.c ****     {
 541:SYS/task_manager/task_manager.c ****         return Task_Ptr[grp_id][tsk_id];
 542:SYS/task_manager/task_manager.c ****     }
 543:SYS/task_manager/task_manager.c ****     else
 544:SYS/task_manager/task_manager.c ****     {
 545:SYS/task_manager/task_manager.c ****         TskHdl_RdyMap.Grp.Flg &= ~(1 << grp_id);
 546:SYS/task_manager/task_manager.c ****         TskHdl_RdyMap.TskInGrp[grp_id].Flg &= ~(1 << tsk_id);
 547:SYS/task_manager/task_manager.c ****         return NULL;
 548:SYS/task_manager/task_manager.c ****     }
 549:SYS/task_manager/task_manager.c **** }
 550:SYS/task_manager/task_manager.c **** 
 551:SYS/task_manager/task_manager.c **** void Task_SetNextTask_Ptr(const Task *nxt)
 552:SYS/task_manager/task_manager.c **** {
ARM GAS  /tmp/cc3rJM77.s 			page 17


 553:SYS/task_manager/task_manager.c ****     if (nxt != NULL)
 554:SYS/task_manager/task_manager.c ****     {
 555:SYS/task_manager/task_manager.c ****         NxtRunTsk_Ptr = nxt;
 556:SYS/task_manager/task_manager.c ****         NxtTsk_TCB.Top_Stk_Ptr = &NxtRunTsk_Ptr->TCB.Top_Stk_Ptr;
 557:SYS/task_manager/task_manager.c ****         NxtTsk_TCB.Stack = NxtRunTsk_Ptr->TCB.Stack;
 558:SYS/task_manager/task_manager.c ****     }
 559:SYS/task_manager/task_manager.c **** }
 560:SYS/task_manager/task_manager.c **** 
 561:SYS/task_manager/task_manager.c **** //first need to know is linux support AT&T formate ASM code
 562:SYS/task_manager/task_manager.c **** __attribute__((naked)) static void Task_SetPendSVPro(void)
 563:SYS/task_manager/task_manager.c **** {
 374              		.loc 1 563 1 is_stmt 1 view -0
 375              		.cfi_startproc
 376              		@ Naked Function: prologue and epilogue provided by programmer.
 377              		@ args = 0, pretend = 0, frame = 0
 378              		@ frame_needed = 0, uses_anonymous_args = 0
 564:SYS/task_manager/task_manager.c ****     //set pendsv interrupt
 565:SYS/task_manager/task_manager.c ****     __ASM(".equ NVIC_SYSPRI14, 0xE000ED22");
 379              		.loc 1 565 5 view .LVU86
 380              		.syntax unified
 381              	@ 565 "SYS/task_manager/task_manager.c" 1
 382              		.equ NVIC_SYSPRI14, 0xE000ED22
 383              	@ 0 "" 2
 566:SYS/task_manager/task_manager.c ****     __ASM(".equ NVIC_PENDSV_PRI, 0xFF");
 384              		.loc 1 566 5 view .LVU87
 385              	@ 566 "SYS/task_manager/task_manager.c" 1
 386              		.equ NVIC_PENDSV_PRI, 0xFF
 387              	@ 0 "" 2
 567:SYS/task_manager/task_manager.c **** 
 568:SYS/task_manager/task_manager.c ****     __ASM("LDR      R0, =NVIC_SYSPRI14");
 388              		.loc 1 568 5 view .LVU88
 389              	@ 568 "SYS/task_manager/task_manager.c" 1
 390 0000 0548     		LDR      R0, =NVIC_SYSPRI14
 391              	@ 0 "" 2
 569:SYS/task_manager/task_manager.c ****     __ASM("LDR      R1, =NVIC_PENDSV_PRI");
 392              		.loc 1 569 5 view .LVU89
 393              	@ 569 "SYS/task_manager/task_manager.c" 1
 394 0002 4FF0FF01 		LDR      R1, =NVIC_PENDSV_PRI
 395              	@ 0 "" 2
 570:SYS/task_manager/task_manager.c ****     __ASM("STRB     R1, [R0]");
 396              		.loc 1 570 5 view .LVU90
 397              	@ 570 "SYS/task_manager/task_manager.c" 1
 398 0006 0170     		STRB     R1, [R0]
 399              	@ 0 "" 2
 571:SYS/task_manager/task_manager.c **** 
 572:SYS/task_manager/task_manager.c **** #if (TASK_SCHEDULER_TYPE == PREEMPTIVE_SCHDULER)
 573:SYS/task_manager/task_manager.c ****     //set PSP to 0 to initial context switch call
 574:SYS/task_manager/task_manager.c ****     __ASM("MOVS     R0, #0");
 400              		.loc 1 574 5 view .LVU91
 401              	@ 574 "SYS/task_manager/task_manager.c" 1
 402 0008 0020     		MOVS     R0, #0
 403              	@ 0 "" 2
 575:SYS/task_manager/task_manager.c ****     __ASM("MSR      PSP, R0");
 404              		.loc 1 575 5 view .LVU92
 405              	@ 575 "SYS/task_manager/task_manager.c" 1
 406 000a 80F30988 		MSR      PSP, R0
 407              	@ 0 "" 2
ARM GAS  /tmp/cc3rJM77.s 			page 18


 576:SYS/task_manager/task_manager.c **** 
 577:SYS/task_manager/task_manager.c ****     //initial MSP to Task_OS_ExpStkBase
 578:SYS/task_manager/task_manager.c ****     __ASM("LDR      R0, =Task_OS_ExpStkBase");
 408              		.loc 1 578 5 view .LVU93
 409              	@ 578 "SYS/task_manager/task_manager.c" 1
 410 000e 0348     		LDR      R0, =Task_OS_ExpStkBase
 411              	@ 0 "" 2
 579:SYS/task_manager/task_manager.c ****     __ASM("LDR      R1, [R0]");
 412              		.loc 1 579 5 view .LVU94
 413              	@ 579 "SYS/task_manager/task_manager.c" 1
 414 0010 0168     		LDR      R1, [R0]
 415              	@ 0 "" 2
 580:SYS/task_manager/task_manager.c ****     __ASM("MSR      MSP, R1");
 416              		.loc 1 580 5 view .LVU95
 417              	@ 580 "SYS/task_manager/task_manager.c" 1
 418 0012 81F30888 		MSR      MSP, R1
 419              	@ 0 "" 2
 581:SYS/task_manager/task_manager.c **** #endif
 582:SYS/task_manager/task_manager.c **** 
 583:SYS/task_manager/task_manager.c ****     __ASM("BX       LR");
 420              		.loc 1 583 5 view .LVU96
 421              	@ 583 "SYS/task_manager/task_manager.c" 1
 422 0016 7047     		BX       LR
 423              	@ 0 "" 2
 584:SYS/task_manager/task_manager.c **** }
 424              		.loc 1 584 1 is_stmt 0 view .LVU97
 425              		.thumb
 426              		.syntax unified
 427              		.cfi_endproc
 428              	.LFE151:
 430              		.section	.text.Task_PriorityCompare,"ax",%progbits
 431              		.align	1
 432              		.global	Task_PriorityCompare
 433              		.syntax unified
 434              		.thumb
 435              		.thumb_func
 436              		.fpu fpv4-sp-d16
 438              	Task_PriorityCompare:
 439              	.LVL27:
 440              	.LFB155:
 585:SYS/task_manager/task_manager.c **** 
 586:SYS/task_manager/task_manager.c **** __attribute__((naked)) void Task_TriggerPendSV(void)
 587:SYS/task_manager/task_manager.c **** {
 588:SYS/task_manager/task_manager.c ****     __ASM(".equ NVIC_INT_CTRL, 0xE000ED04");
 589:SYS/task_manager/task_manager.c ****     __ASM(".equ NVIC_PENDSVSET, 0x10000000");
 590:SYS/task_manager/task_manager.c **** 
 591:SYS/task_manager/task_manager.c ****     __ASM("LDR      R0, =NVIC_INT_CTRL");
 592:SYS/task_manager/task_manager.c ****     __ASM("LDR      R1, =NVIC_PENDSVSET");
 593:SYS/task_manager/task_manager.c ****     __ASM("STR      R1, [R0]");
 594:SYS/task_manager/task_manager.c ****     __ASM("BX       LR");
 595:SYS/task_manager/task_manager.c **** }
 596:SYS/task_manager/task_manager.c **** 
 597:SYS/task_manager/task_manager.c **** void Task_Force_TriggerPendSV(void)
 598:SYS/task_manager/task_manager.c **** {
 599:SYS/task_manager/task_manager.c ****     /* Barriers are normally not required but do ensure the code is completely \
 600:SYS/task_manager/task_manager.c ****         within the specified behaviour for the architecture. */
 601:SYS/task_manager/task_manager.c ****     __ASM volatile("dsb" ::
ARM GAS  /tmp/cc3rJM77.s 			page 19


 602:SYS/task_manager/task_manager.c ****                        : "memory");
 603:SYS/task_manager/task_manager.c ****     __ASM volatile("isb");
 604:SYS/task_manager/task_manager.c ****     Task_TriggerPendSV();
 605:SYS/task_manager/task_manager.c **** }
 606:SYS/task_manager/task_manager.c **** 
 607:SYS/task_manager/task_manager.c **** uint8_t Task_Get_TaskNum(void)
 608:SYS/task_manager/task_manager.c **** {
 609:SYS/task_manager/task_manager.c ****     return TskCrt_RegList.num;
 610:SYS/task_manager/task_manager.c **** }
 611:SYS/task_manager/task_manager.c **** 
 612:SYS/task_manager/task_manager.c **** //return high priority task pointer
 613:SYS/task_manager/task_manager.c **** Task *Task_PriorityCompare(const Task *tsk_l, const Task *tsk_r)
 614:SYS/task_manager/task_manager.c **** {
 441              		.loc 1 614 1 is_stmt 1 view -0
 442              		.cfi_startproc
 443              		@ args = 0, pretend = 0, frame = 0
 444              		@ frame_needed = 0, uses_anonymous_args = 0
 445              		@ link register save eliminated.
 615:SYS/task_manager/task_manager.c ****     if ((tsk_l == NULL) && (tsk_r == NULL))
 446              		.loc 1 615 5 view .LVU99
 447              		.loc 1 615 8 is_stmt 0 view .LVU100
 448 0000 0346     		mov	r3, r0
 449 0002 78B1     		cbz	r0, .L40
 450              	.L25:
 616:SYS/task_manager/task_manager.c ****     {
 617:SYS/task_manager/task_manager.c ****         return NULL;
 618:SYS/task_manager/task_manager.c ****     }
 619:SYS/task_manager/task_manager.c **** 
 620:SYS/task_manager/task_manager.c ****     if ((tsk_l == NULL) && (tsk_r != NULL))
 451              		.loc 1 620 5 is_stmt 1 view .LVU101
 452              		.loc 1 620 8 is_stmt 0 view .LVU102
 453 0004 93B1     		cbz	r3, .L41
 454              	.L27:
 621:SYS/task_manager/task_manager.c ****     {
 622:SYS/task_manager/task_manager.c ****         return tsk_r;
 623:SYS/task_manager/task_manager.c ****     }
 624:SYS/task_manager/task_manager.c **** 
 625:SYS/task_manager/task_manager.c ****     if ((tsk_l != NULL) && (tsk_r == NULL))
 455              		.loc 1 625 5 is_stmt 1 view .LVU103
 456              		.loc 1 625 8 is_stmt 0 view .LVU104
 457 0006 03B1     		cbz	r3, .L28
 458              		.loc 1 625 25 discriminator 1 view .LVU105
 459 0008 C9B1     		cbz	r1, .L32
 460              	.L28:
 614:SYS/task_manager/task_manager.c ****     if ((tsk_l == NULL) && (tsk_r == NULL))
 461              		.loc 1 614 1 view .LVU106
 462 000a 30B4     		push	{r4, r5}
 463              	.LCFI8:
 464              		.cfi_def_cfa_offset 8
 465              		.cfi_offset 4, -8
 466              		.cfi_offset 5, -4
 626:SYS/task_manager/task_manager.c ****     {
 627:SYS/task_manager/task_manager.c ****         return tsk_l;
 628:SYS/task_manager/task_manager.c ****     }
 629:SYS/task_manager/task_manager.c **** 
 630:SYS/task_manager/task_manager.c ****     uint8_t L_Grp_level = GET_TASKGROUP_PRIORITY(tsk_l->priority.Suction.Group_Level);
 467              		.loc 1 630 5 is_stmt 1 view .LVU107
ARM GAS  /tmp/cc3rJM77.s 			page 20


 468              		.loc 1 630 27 is_stmt 0 view .LVU108
 469 000c 1878     		ldrb	r0, [r3]	@ zero_extendqisi2
 470              	.LVL28:
 471              		.loc 1 630 13 view .LVU109
 472 000e 0025     		movs	r5, #0
 473              	.LVL29:
 631:SYS/task_manager/task_manager.c ****     uint8_t R_Grp_level = GET_TASKGROUP_PRIORITY(tsk_r->priority.Suction.Group_Level);
 474              		.loc 1 631 5 is_stmt 1 view .LVU110
 475              		.loc 1 631 27 is_stmt 0 view .LVU111
 476 0010 0A78     		ldrb	r2, [r1]	@ zero_extendqisi2
 477              	.LVL30:
 632:SYS/task_manager/task_manager.c ****     uint8_t L_TskPri_level = GET_TASKINGROUP_PRIORITY(tsk_l->priority.Suction.Task_Level);
 478              		.loc 1 632 5 is_stmt 1 view .LVU112
 479              		.loc 1 632 30 is_stmt 0 view .LVU113
 480 0012 00F00700 		and	r0, r0, #7
 481              	.LVL31:
 633:SYS/task_manager/task_manager.c ****     uint8_t R_TskPri_level = GET_TASKINGROUP_PRIORITY(tsk_r->priority.Suction.Task_Level);
 482              		.loc 1 633 5 is_stmt 1 view .LVU114
 483              		.loc 1 633 30 is_stmt 0 view .LVU115
 484 0016 02F00702 		and	r2, r2, #7
 485              	.LVL32:
 634:SYS/task_manager/task_manager.c **** 
 635:SYS/task_manager/task_manager.c ****     if (L_Grp_level < R_Grp_level)
 486              		.loc 1 635 5 is_stmt 1 view .LVU116
 636:SYS/task_manager/task_manager.c ****     {
 637:SYS/task_manager/task_manager.c ****         return tsk_l;
 638:SYS/task_manager/task_manager.c ****     }
 639:SYS/task_manager/task_manager.c ****     else if (L_Grp_level > R_Grp_level)
 487              		.loc 1 639 10 view .LVU117
 488              		.loc 1 639 13 is_stmt 0 view .LVU118
 489 001a AD42     		cmp	r5, r5
 490 001c 11D8     		bhi	.L34
 640:SYS/task_manager/task_manager.c ****     {
 641:SYS/task_manager/task_manager.c ****         return tsk_r;
 642:SYS/task_manager/task_manager.c ****     }
 643:SYS/task_manager/task_manager.c ****     else if (L_Grp_level == R_Grp_level)
 491              		.loc 1 643 10 is_stmt 1 view .LVU119
 492              		.loc 1 643 13 is_stmt 0 view .LVU120
 493 001e 09D0     		beq	.L42
 494              	.L24:
 644:SYS/task_manager/task_manager.c ****     {
 645:SYS/task_manager/task_manager.c ****         if (L_TskPri_level < R_TskPri_level)
 646:SYS/task_manager/task_manager.c ****         {
 647:SYS/task_manager/task_manager.c ****             return tsk_l;
 648:SYS/task_manager/task_manager.c ****         }
 649:SYS/task_manager/task_manager.c ****         else if (L_TskPri_level > R_TskPri_level)
 650:SYS/task_manager/task_manager.c ****         {
 651:SYS/task_manager/task_manager.c ****             return tsk_r;
 652:SYS/task_manager/task_manager.c ****         }
 653:SYS/task_manager/task_manager.c ****     }
 654:SYS/task_manager/task_manager.c **** }
 495              		.loc 1 654 1 view .LVU121
 496 0020 30BC     		pop	{r4, r5}
 497              	.LCFI9:
 498              		.cfi_restore 5
 499              		.cfi_restore 4
 500              		.cfi_def_cfa_offset 0
ARM GAS  /tmp/cc3rJM77.s 			page 21


 501              	.LVL33:
 502              		.loc 1 654 1 view .LVU122
 503 0022 7047     		bx	lr
 504              	.LVL34:
 505              	.L40:
 615:SYS/task_manager/task_manager.c ****     {
 506              		.loc 1 615 25 discriminator 1 view .LVU123
 507 0024 0029     		cmp	r1, #0
 508 0026 EDD1     		bne	.L25
 617:SYS/task_manager/task_manager.c ****     }
 509              		.loc 1 617 16 view .LVU124
 510 0028 0020     		movs	r0, #0
 511              	.LVL35:
 617:SYS/task_manager/task_manager.c ****     }
 512              		.loc 1 617 16 view .LVU125
 513 002a 7047     		bx	lr
 514              	.LVL36:
 515              	.L41:
 620:SYS/task_manager/task_manager.c ****     {
 516              		.loc 1 620 25 discriminator 1 view .LVU126
 517 002c 0029     		cmp	r1, #0
 518 002e EAD0     		beq	.L27
 622:SYS/task_manager/task_manager.c ****     }
 519              		.loc 1 622 16 view .LVU127
 520 0030 0846     		mov	r0, r1
 521              	.LVL37:
 622:SYS/task_manager/task_manager.c ****     }
 522              		.loc 1 622 16 view .LVU128
 523 0032 7047     		bx	lr
 524              	.LVL38:
 525              	.L42:
 526              	.LCFI10:
 527              		.cfi_def_cfa_offset 8
 528              		.cfi_offset 4, -8
 529              		.cfi_offset 5, -4
 645:SYS/task_manager/task_manager.c ****         {
 530              		.loc 1 645 9 is_stmt 1 view .LVU129
 645:SYS/task_manager/task_manager.c ****         {
 531              		.loc 1 645 12 is_stmt 0 view .LVU130
 532 0034 9042     		cmp	r0, r2
 533 0036 06D3     		bcc	.L35
 649:SYS/task_manager/task_manager.c ****         {
 534              		.loc 1 649 14 is_stmt 1 view .LVU131
 649:SYS/task_manager/task_manager.c ****         {
 535              		.loc 1 649 17 is_stmt 0 view .LVU132
 536 0038 F2D9     		bls	.L24
 651:SYS/task_manager/task_manager.c ****         }
 537              		.loc 1 651 20 view .LVU133
 538 003a 0846     		mov	r0, r1
 539 003c F0E7     		b	.L24
 540              	.LVL39:
 541              	.L32:
 542              	.LCFI11:
 543              		.cfi_def_cfa_offset 0
 544              		.cfi_restore 4
 545              		.cfi_restore 5
 627:SYS/task_manager/task_manager.c ****     }
ARM GAS  /tmp/cc3rJM77.s 			page 22


 546              		.loc 1 627 16 view .LVU134
 547 003e 1846     		mov	r0, r3
 548              	.LVL40:
 549              		.loc 1 654 1 view .LVU135
 550 0040 7047     		bx	lr
 551              	.LVL41:
 552              	.L34:
 553              	.LCFI12:
 554              		.cfi_def_cfa_offset 8
 555              		.cfi_offset 4, -8
 556              		.cfi_offset 5, -4
 641:SYS/task_manager/task_manager.c ****     }
 557              		.loc 1 641 16 view .LVU136
 558 0042 0846     		mov	r0, r1
 559 0044 ECE7     		b	.L24
 560              	.L35:
 647:SYS/task_manager/task_manager.c ****         }
 561              		.loc 1 647 20 view .LVU137
 562 0046 1846     		mov	r0, r3
 563 0048 EAE7     		b	.L24
 564              		.cfi_endproc
 565              	.LFE155:
 567              		.section	.text.ReSet_Task_Data,"ax",%progbits
 568              		.align	1
 569              		.syntax unified
 570              		.thumb
 571              		.thumb_func
 572              		.fpu fpv4-sp-d16
 574              	ReSet_Task_Data:
 575              	.LVL42:
 576              	.LFB126:
  96:SYS/task_manager/task_manager.c ****     task->priority.Suction.Group_Level = 0;
 577              		.loc 1 96 1 is_stmt 1 view -0
 578              		.cfi_startproc
 579              		@ args = 0, pretend = 0, frame = 0
 580              		@ frame_needed = 0, uses_anonymous_args = 0
  96:SYS/task_manager/task_manager.c ****     task->priority.Suction.Group_Level = 0;
 581              		.loc 1 96 1 is_stmt 0 view .LVU139
 582 0000 10B5     		push	{r4, lr}
 583              	.LCFI13:
 584              		.cfi_def_cfa_offset 8
 585              		.cfi_offset 4, -8
 586              		.cfi_offset 14, -4
 587 0002 0446     		mov	r4, r0
  97:SYS/task_manager/task_manager.c ****     task->priority.Suction.Task_Level = 0;
 588              		.loc 1 97 5 is_stmt 1 view .LVU140
  97:SYS/task_manager/task_manager.c ****     task->priority.Suction.Task_Level = 0;
 589              		.loc 1 97 40 is_stmt 0 view .LVU141
 590 0004 0378     		ldrb	r3, [r0]	@ zero_extendqisi2
  98:SYS/task_manager/task_manager.c ****     task->Task_name = NULL;
 591              		.loc 1 98 5 is_stmt 1 view .LVU142
  98:SYS/task_manager/task_manager.c ****     task->Task_name = NULL;
 592              		.loc 1 98 39 is_stmt 0 view .LVU143
 593 0006 03F0C703 		and	r3, r3, #199
 594 000a 6FF30203 		bfc	r3, #0, #3
 595 000e 0370     		strb	r3, [r0]
  99:SYS/task_manager/task_manager.c ****     task->exec_frq = 0;
ARM GAS  /tmp/cc3rJM77.s 			page 23


 596              		.loc 1 99 5 is_stmt 1 view .LVU144
  99:SYS/task_manager/task_manager.c ****     task->exec_frq = 0;
 597              		.loc 1 99 21 is_stmt 0 view .LVU145
 598 0010 0023     		movs	r3, #0
 599 0012 4360     		str	r3, [r0, #4]
 100:SYS/task_manager/task_manager.c ****     task->exec_interval_us = 0;
 600              		.loc 1 100 5 is_stmt 1 view .LVU146
 100:SYS/task_manager/task_manager.c ****     task->exec_interval_us = 0;
 601              		.loc 1 100 20 is_stmt 0 view .LVU147
 602 0014 8360     		str	r3, [r0, #8]
 101:SYS/task_manager/task_manager.c ****     task->Exec_Func = NULL;
 603              		.loc 1 101 5 is_stmt 1 view .LVU148
 101:SYS/task_manager/task_manager.c ****     task->Exec_Func = NULL;
 604              		.loc 1 101 28 is_stmt 0 view .LVU149
 605 0016 8381     		strh	r3, [r0, #12]	@ movhi
 102:SYS/task_manager/task_manager.c **** 
 606              		.loc 1 102 5 is_stmt 1 view .LVU150
 102:SYS/task_manager/task_manager.c **** 
 607              		.loc 1 102 21 is_stmt 0 view .LVU151
 608 0018 0361     		str	r3, [r0, #16]
 104:SYS/task_manager/task_manager.c ****     task->Exec_status.detect_exec_time_arv = 0;
 609              		.loc 1 104 5 is_stmt 1 view .LVU152
 104:SYS/task_manager/task_manager.c ****     task->Exec_status.detect_exec_time_arv = 0;
 610              		.loc 1 104 39 is_stmt 0 view .LVU153
 611 001a C362     		str	r3, [r0, #44]
 105:SYS/task_manager/task_manager.c ****     task->Exec_status.detect_exec_time_max = 0;
 612              		.loc 1 105 5 is_stmt 1 view .LVU154
 105:SYS/task_manager/task_manager.c ****     task->Exec_status.detect_exec_time_max = 0;
 613              		.loc 1 105 44 is_stmt 0 view .LVU155
 614 001c 0363     		str	r3, [r0, #48]
 106:SYS/task_manager/task_manager.c ****     task->Exec_status.Exec_Times = 0;
 615              		.loc 1 106 5 is_stmt 1 view .LVU156
 106:SYS/task_manager/task_manager.c ****     task->Exec_status.Exec_Times = 0;
 616              		.loc 1 106 44 is_stmt 0 view .LVU157
 617 001e 4363     		str	r3, [r0, #52]
 107:SYS/task_manager/task_manager.c ****     task->Exec_status.cpu_opy = 0;
 618              		.loc 1 107 5 is_stmt 1 view .LVU158
 107:SYS/task_manager/task_manager.c ****     task->Exec_status.cpu_opy = 0;
 619              		.loc 1 107 34 is_stmt 0 view .LVU159
 620 0020 8363     		str	r3, [r0, #56]
 108:SYS/task_manager/task_manager.c ****     task->Exec_status.totlal_running_time = 0;
 621              		.loc 1 108 5 is_stmt 1 view .LVU160
 108:SYS/task_manager/task_manager.c ****     task->Exec_status.totlal_running_time = 0;
 622              		.loc 1 108 31 is_stmt 0 view .LVU161
 623 0022 0022     		movs	r2, #0
 624 0024 4264     		str	r2, [r0, #68]	@ float
 109:SYS/task_manager/task_manager.c **** 
 625              		.loc 1 109 5 is_stmt 1 view .LVU162
 109:SYS/task_manager/task_manager.c **** 
 626              		.loc 1 109 43 is_stmt 0 view .LVU163
 627 0026 0364     		str	r3, [r0, #64]
 111:SYS/task_manager/task_manager.c ****     task->delay_info.tsk_hdl = 0;
 628              		.loc 1 111 5 is_stmt 1 view .LVU164
 111:SYS/task_manager/task_manager.c ****     task->delay_info.tsk_hdl = 0;
 629              		.loc 1 111 31 is_stmt 0 view .LVU165
 630 0028 80F86430 		strb	r3, [r0, #100]
 112:SYS/task_manager/task_manager.c ****     task->delay_info.time_unit = 0;
ARM GAS  /tmp/cc3rJM77.s 			page 24


 631              		.loc 1 112 5 is_stmt 1 view .LVU166
 112:SYS/task_manager/task_manager.c ****     task->delay_info.time_unit = 0;
 632              		.loc 1 112 30 is_stmt 0 view .LVU167
 633 002c 8366     		str	r3, [r0, #104]
 113:SYS/task_manager/task_manager.c **** 
 634              		.loc 1 113 5 is_stmt 1 view .LVU168
 113:SYS/task_manager/task_manager.c **** 
 635              		.loc 1 113 32 is_stmt 0 view .LVU169
 636 002e C366     		str	r3, [r0, #108]
 115:SYS/task_manager/task_manager.c **** 
 637              		.loc 1 115 5 is_stmt 1 view .LVU170
 638 0030 00F16401 		add	r1, r0, #100
 639 0034 7C30     		adds	r0, r0, #124
 640              	.LVL43:
 115:SYS/task_manager/task_manager.c **** 
 641              		.loc 1 115 5 is_stmt 0 view .LVU171
 642 0036 FFF7FEFF 		bl	List_ItemInit
 643              	.LVL44:
 117:SYS/task_manager/task_manager.c ****     RuntimeObj_Reset(&(task->Exec_status.Init_Time));
 644              		.loc 1 117 5 is_stmt 1 view .LVU172
 645 003a 04F12400 		add	r0, r4, #36
 646 003e FFF7FEFF 		bl	RuntimeObj_Reset
 647              	.LVL45:
 118:SYS/task_manager/task_manager.c ****     RuntimeObj_Reset(&(task->Exec_status.Start_Time));
 648              		.loc 1 118 5 view .LVU173
 649 0042 04F11400 		add	r0, r4, #20
 650 0046 FFF7FEFF 		bl	RuntimeObj_Reset
 651              	.LVL46:
 119:SYS/task_manager/task_manager.c **** 
 652              		.loc 1 119 5 view .LVU174
 653 004a 04F11C00 		add	r0, r4, #28
 654 004e FFF7FEFF 		bl	RuntimeObj_Reset
 655              	.LVL47:
 121:SYS/task_manager/task_manager.c **** }
 656              		.loc 1 121 5 view .LVU175
 121:SYS/task_manager/task_manager.c **** }
 657              		.loc 1 121 29 is_stmt 0 view .LVU176
 658 0052 0523     		movs	r3, #5
 659 0054 84F84830 		strb	r3, [r4, #72]
 122:SYS/task_manager/task_manager.c **** 
 660              		.loc 1 122 1 view .LVU177
 661 0058 10BD     		pop	{r4, pc}
 122:SYS/task_manager/task_manager.c **** 
 662              		.loc 1 122 1 view .LVU178
 663              		.cfi_endproc
 664              	.LFE126:
 666              		.section	.text.TaskSys_Init,"ax",%progbits
 667              		.align	1
 668              		.syntax unified
 669              		.thumb
 670              		.thumb_func
 671              		.fpu fpv4-sp-d16
 673              	TaskSys_Init:
 674              	.LFB128:
 138:SYS/task_manager/task_manager.c **** #if (TASK_SCHEDULER_TYPE == PREEMPTIVE_SCHDULER)
 675              		.loc 1 138 1 is_stmt 1 view -0
 676              		.cfi_startproc
ARM GAS  /tmp/cc3rJM77.s 			page 25


 677              		@ args = 0, pretend = 0, frame = 0
 678              		@ frame_needed = 0, uses_anonymous_args = 0
 679 0000 F8B5     		push	{r3, r4, r5, r6, r7, lr}
 680              	.LCFI14:
 681              		.cfi_def_cfa_offset 24
 682              		.cfi_offset 3, -24
 683              		.cfi_offset 4, -20
 684              		.cfi_offset 5, -16
 685              		.cfi_offset 6, -12
 686              		.cfi_offset 7, -8
 687              		.cfi_offset 14, -4
 141:SYS/task_manager/task_manager.c **** 
 688              		.loc 1 141 5 view .LVU180
 689 0002 4FF42052 		mov	r2, #10240
 690 0006 0021     		movs	r1, #0
 691 0008 1948     		ldr	r0, .L52
 692 000a FFF7FEFF 		bl	memset
 693              	.LVL48:
 143:SYS/task_manager/task_manager.c **** #endif
 694              		.loc 1 143 5 view .LVU181
 143:SYS/task_manager/task_manager.c **** #endif
 695              		.loc 1 143 24 is_stmt 0 view .LVU182
 696 000e 194B     		ldr	r3, .L52+4
 697 0010 194A     		ldr	r2, .L52+8
 698 0012 1A60     		str	r2, [r3]
 149:SYS/task_manager/task_manager.c **** 
 699              		.loc 1 149 5 is_stmt 1 view .LVU183
 700              	.LVL49:
 151:SYS/task_manager/task_manager.c ****     {
 701              		.loc 1 151 5 view .LVU184
 702              	.LBB2:
 151:SYS/task_manager/task_manager.c ****     {
 703              		.loc 1 151 10 view .LVU185
 151:SYS/task_manager/task_manager.c ****     {
 704              		.loc 1 151 18 is_stmt 0 view .LVU186
 705 0014 0027     		movs	r7, #0
 151:SYS/task_manager/task_manager.c ****     {
 706              		.loc 1 151 5 view .LVU187
 707 0016 18E0     		b	.L46
 708              	.LVL50:
 709              	.L47:
 710              	.LBB3:
 155:SYS/task_manager/task_manager.c **** 
 711              		.loc 1 155 13 is_stmt 1 discriminator 3 view .LVU188
 712 0018 184D     		ldr	r5, .L52+12
 713 001a 04EBC706 		add	r6, r4, r7, lsl #3
 714 001e 55F82600 		ldr	r0, [r5, r6, lsl #2]
 715 0022 FFF7FEFF 		bl	ReSet_Task_Data
 716              	.LVL51:
 158:SYS/task_manager/task_manager.c ****             Task_Ptr[group_index][task_priority]->TCB.Stack = NULL;
 717              		.loc 1 158 13 discriminator 3 view .LVU189
 158:SYS/task_manager/task_manager.c ****             Task_Ptr[group_index][task_priority]->TCB.Stack = NULL;
 718              		.loc 1 158 34 is_stmt 0 discriminator 3 view .LVU190
 719 0026 55F82620 		ldr	r2, [r5, r6, lsl #2]
 158:SYS/task_manager/task_manager.c ****             Task_Ptr[group_index][task_priority]->TCB.Stack = NULL;
 720              		.loc 1 158 63 discriminator 3 view .LVU191
 721 002a 0023     		movs	r3, #0
ARM GAS  /tmp/cc3rJM77.s 			page 26


 722 002c D364     		str	r3, [r2, #76]
 159:SYS/task_manager/task_manager.c ****             Task_Ptr[group_index][task_priority]->TCB.Top_Stk_Ptr = NULL;
 723              		.loc 1 159 13 is_stmt 1 discriminator 3 view .LVU192
 159:SYS/task_manager/task_manager.c ****             Task_Ptr[group_index][task_priority]->TCB.Top_Stk_Ptr = NULL;
 724              		.loc 1 159 34 is_stmt 0 discriminator 3 view .LVU193
 725 002e 55F82620 		ldr	r2, [r5, r6, lsl #2]
 159:SYS/task_manager/task_manager.c ****             Task_Ptr[group_index][task_priority]->TCB.Top_Stk_Ptr = NULL;
 726              		.loc 1 159 61 discriminator 3 view .LVU194
 727 0032 5365     		str	r3, [r2, #84]
 160:SYS/task_manager/task_manager.c **** #endif
 728              		.loc 1 160 13 is_stmt 1 discriminator 3 view .LVU195
 160:SYS/task_manager/task_manager.c **** #endif
 729              		.loc 1 160 34 is_stmt 0 discriminator 3 view .LVU196
 730 0034 55F82620 		ldr	r2, [r5, r6, lsl #2]
 160:SYS/task_manager/task_manager.c **** #endif
 731              		.loc 1 160 67 discriminator 3 view .LVU197
 732 0038 1365     		str	r3, [r2, #80]
 162:SYS/task_manager/task_manager.c **** 
 733              		.loc 1 162 13 is_stmt 1 discriminator 3 view .LVU198
 162:SYS/task_manager/task_manager.c **** 
 734              		.loc 1 162 50 is_stmt 0 discriminator 3 view .LVU199
 735 003a 45F82630 		str	r3, [r5, r6, lsl #2]
 164:SYS/task_manager/task_manager.c ****         }
 736              		.loc 1 164 13 is_stmt 1 discriminator 3 view .LVU200
 153:SYS/task_manager/task_manager.c ****         {
 737              		.loc 1 153 103 is_stmt 0 discriminator 3 view .LVU201
 738 003e 0134     		adds	r4, r4, #1
 739              	.LVL52:
 153:SYS/task_manager/task_manager.c ****         {
 740              		.loc 1 153 103 discriminator 3 view .LVU202
 741 0040 E4B2     		uxtb	r4, r4
 742              	.LVL53:
 743              	.L48:
 153:SYS/task_manager/task_manager.c ****         {
 744              		.loc 1 153 9 discriminator 1 view .LVU203
 745 0042 072C     		cmp	r4, #7
 746 0044 E8D9     		bls	.L47
 747              	.LBE3:
 151:SYS/task_manager/task_manager.c ****     {
 748              		.loc 1 151 77 discriminator 2 view .LVU204
 749 0046 0137     		adds	r7, r7, #1
 750              	.LVL54:
 151:SYS/task_manager/task_manager.c ****     {
 751              		.loc 1 151 77 discriminator 2 view .LVU205
 752 0048 FFB2     		uxtb	r7, r7
 753              	.LVL55:
 754              	.L46:
 151:SYS/task_manager/task_manager.c ****     {
 755              		.loc 1 151 5 discriminator 1 view .LVU206
 756 004a 072F     		cmp	r7, #7
 757 004c 01D8     		bhi	.L51
 758              	.LBB4:
 153:SYS/task_manager/task_manager.c ****         {
 759              		.loc 1 153 22 view .LVU207
 760 004e 0024     		movs	r4, #0
 761 0050 F7E7     		b	.L48
 762              	.L51:
ARM GAS  /tmp/cc3rJM77.s 			page 27


 763              	.LBE4:
 764              	.LBE2:
 168:SYS/task_manager/task_manager.c ****     TskCrt_RegList.list.data = NULL;
 765              		.loc 1 168 5 is_stmt 1 view .LVU208
 168:SYS/task_manager/task_manager.c ****     TskCrt_RegList.list.data = NULL;
 766              		.loc 1 168 24 is_stmt 0 view .LVU209
 767 0052 0B4B     		ldr	r3, .L52+16
 768 0054 0022     		movs	r2, #0
 769 0056 1A70     		strb	r2, [r3]
 169:SYS/task_manager/task_manager.c ****     TskCrt_RegList.list.nxt = NULL;
 770              		.loc 1 169 5 is_stmt 1 view .LVU210
 169:SYS/task_manager/task_manager.c ****     TskCrt_RegList.list.nxt = NULL;
 771              		.loc 1 169 30 is_stmt 0 view .LVU211
 772 0058 5A61     		str	r2, [r3, #20]
 170:SYS/task_manager/task_manager.c ****     TskCrt_RegList.list.prv = NULL;
 773              		.loc 1 170 5 is_stmt 1 view .LVU212
 170:SYS/task_manager/task_manager.c ****     TskCrt_RegList.list.prv = NULL;
 774              		.loc 1 170 29 is_stmt 0 view .LVU213
 775 005a 1A61     		str	r2, [r3, #16]
 171:SYS/task_manager/task_manager.c **** 
 776              		.loc 1 171 5 is_stmt 1 view .LVU214
 171:SYS/task_manager/task_manager.c **** 
 777              		.loc 1 171 29 is_stmt 0 view .LVU215
 778 005c DA60     		str	r2, [r3, #12]
 173:SYS/task_manager/task_manager.c ****     TskSys_state = TaskSys_Prepare;
 779              		.loc 1 173 5 is_stmt 1 view .LVU216
 780 005e 094B     		ldr	r3, .L52+20
 781 0060 1868     		ldr	r0, [r3]
 782 0062 FFF7FEFF 		bl	ReSet_Task_Data
 783              	.LVL56:
 174:SYS/task_manager/task_manager.c **** }
 784              		.loc 1 174 5 view .LVU217
 174:SYS/task_manager/task_manager.c **** }
 785              		.loc 1 174 18 is_stmt 0 view .LVU218
 786 0066 084B     		ldr	r3, .L52+24
 787 0068 0122     		movs	r2, #1
 788 006a 1A70     		strb	r2, [r3]
 175:SYS/task_manager/task_manager.c **** 
 789              		.loc 1 175 1 view .LVU219
 790 006c F8BD     		pop	{r3, r4, r5, r6, r7, pc}
 791              	.LVL57:
 792              	.L53:
 175:SYS/task_manager/task_manager.c **** 
 793              		.loc 1 175 1 view .LVU220
 794 006e 00BF     		.align	2
 795              	.L52:
 796 0070 00000000 		.word	Task_OS_StkMem
 797 0074 00000000 		.word	Task_OS_ExpStkBase
 798 0078 FC9F0000 		.word	Task_OS_StkMem+40956
 799 007c 00000000 		.word	Task_Ptr
 800 0080 00000000 		.word	.LANCHOR3
 801 0084 00000000 		.word	.LANCHOR4
 802 0088 00000000 		.word	.LANCHOR5
 803              		.cfi_endproc
 804              	.LFE128:
 806              		.section	.text.Task_SetStkPtr_Val,"ax",%progbits
 807              		.align	1
ARM GAS  /tmp/cc3rJM77.s 			page 28


 808              		.syntax unified
 809              		.thumb
 810              		.thumb_func
 811              		.fpu fpv4-sp-d16
 813              	Task_SetStkPtr_Val:
 814              	.LVL58:
 815              	.LFB144:
 441:SYS/task_manager/task_manager.c ****     uint32_t *Tsk_Ptr_tmp = NULL;
 816              		.loc 1 441 1 is_stmt 1 view -0
 817              		.cfi_startproc
 818              		@ args = 0, pretend = 0, frame = 0
 819              		@ frame_needed = 0, uses_anonymous_args = 0
 441:SYS/task_manager/task_manager.c ****     uint32_t *Tsk_Ptr_tmp = NULL;
 820              		.loc 1 441 1 is_stmt 0 view .LVU222
 821 0000 10B5     		push	{r4, lr}
 822              	.LCFI15:
 823              		.cfi_def_cfa_offset 8
 824              		.cfi_offset 4, -8
 825              		.cfi_offset 14, -4
 826 0002 0446     		mov	r4, r0
 442:SYS/task_manager/task_manager.c **** 
 827              		.loc 1 442 5 is_stmt 1 view .LVU223
 828              	.LVL59:
 444:SYS/task_manager/task_manager.c **** 
 829              		.loc 1 444 5 view .LVU224
 830 0004 C26C     		ldr	r2, [r0, #76]
 831 0006 0021     		movs	r1, #0
 832 0008 406D     		ldr	r0, [r0, #84]
 833              	.LVL60:
 444:SYS/task_manager/task_manager.c **** 
 834              		.loc 1 444 5 is_stmt 0 view .LVU225
 835 000a FFF7FEFF 		bl	memset
 836              	.LVL61:
 446:SYS/task_manager/task_manager.c ****     Tsk_Ptr_tmp = (uint32_t *)((uint32_t)(Tsk_Ptr_tmp)&0XFFFFFFF8ul);
 837              		.loc 1 446 5 is_stmt 1 view .LVU226
 446:SYS/task_manager/task_manager.c ****     Tsk_Ptr_tmp = (uint32_t *)((uint32_t)(Tsk_Ptr_tmp)&0XFFFFFFF8ul);
 838              		.loc 1 446 19 is_stmt 0 view .LVU227
 839 000e 04F15403 		add	r3, r4, #84
 446:SYS/task_manager/task_manager.c ****     Tsk_Ptr_tmp = (uint32_t *)((uint32_t)(Tsk_Ptr_tmp)&0XFFFFFFF8ul);
 840              		.loc 1 446 41 view .LVU228
 841 0012 E26C     		ldr	r2, [r4, #76]
 446:SYS/task_manager/task_manager.c ****     Tsk_Ptr_tmp = (uint32_t *)((uint32_t)(Tsk_Ptr_tmp)&0XFFFFFFF8ul);
 842              		.loc 1 446 35 view .LVU229
 843 0014 02F18042 		add	r2, r2, #1073741824
 844 0018 013A     		subs	r2, r2, #1
 446:SYS/task_manager/task_manager.c ****     Tsk_Ptr_tmp = (uint32_t *)((uint32_t)(Tsk_Ptr_tmp)&0XFFFFFFF8ul);
 845              		.loc 1 446 17 view .LVU230
 846 001a 03EB8203 		add	r3, r3, r2, lsl #2
 847              	.LVL62:
 447:SYS/task_manager/task_manager.c **** 
 848              		.loc 1 447 5 is_stmt 1 view .LVU231
 447:SYS/task_manager/task_manager.c **** 
 849              		.loc 1 447 55 is_stmt 0 view .LVU232
 850 001e 23F00703 		bic	r3, r3, #7
 851              	.LVL63:
 449:SYS/task_manager/task_manager.c ****     *Tsk_Ptr_tmp = 0x01000000uL; /* xPSR */
 852              		.loc 1 449 5 is_stmt 1 view .LVU233
ARM GAS  /tmp/cc3rJM77.s 			page 29


 450:SYS/task_manager/task_manager.c **** 
 853              		.loc 1 450 5 view .LVU234
 450:SYS/task_manager/task_manager.c **** 
 854              		.loc 1 450 18 is_stmt 0 view .LVU235
 855 0022 4FF08072 		mov	r2, #16777216
 856 0026 43F8042C 		str	r2, [r3, #-4]
 452:SYS/task_manager/task_manager.c ****     *Tsk_Ptr_tmp = ((uint32_t)Task_Caller) & 0xfffffffeUL; /* PC */
 857              		.loc 1 452 5 is_stmt 1 view .LVU236
 858              	.LVL64:
 453:SYS/task_manager/task_manager.c **** 
 859              		.loc 1 453 5 view .LVU237
 453:SYS/task_manager/task_manager.c **** 
 860              		.loc 1 453 21 is_stmt 0 view .LVU238
 861 002a 094A     		ldr	r2, .L56
 453:SYS/task_manager/task_manager.c **** 
 862              		.loc 1 453 44 view .LVU239
 863 002c 22F00102 		bic	r2, r2, #1
 453:SYS/task_manager/task_manager.c **** 
 864              		.loc 1 453 18 view .LVU240
 865 0030 43F8082C 		str	r2, [r3, #-8]
 455:SYS/task_manager/task_manager.c ****     *Tsk_Ptr_tmp = (uint32_t)Task_Exit; /* LR */
 866              		.loc 1 455 5 is_stmt 1 view .LVU241
 867              	.LVL65:
 456:SYS/task_manager/task_manager.c **** 
 868              		.loc 1 456 5 view .LVU242
 456:SYS/task_manager/task_manager.c **** 
 869              		.loc 1 456 20 is_stmt 0 view .LVU243
 870 0034 074A     		ldr	r2, .L56+4
 456:SYS/task_manager/task_manager.c **** 
 871              		.loc 1 456 18 view .LVU244
 872 0036 43F80C2C 		str	r2, [r3, #-12]
 459:SYS/task_manager/task_manager.c ****     *Tsk_Ptr_tmp = (uint32_t)NULL; /* R0 */
 873              		.loc 1 459 5 is_stmt 1 view .LVU245
 874              	.LVL66:
 460:SYS/task_manager/task_manager.c **** 
 875              		.loc 1 460 5 view .LVU246
 460:SYS/task_manager/task_manager.c **** 
 876              		.loc 1 460 18 is_stmt 0 view .LVU247
 877 003a 0022     		movs	r2, #0
 878 003c 43F8202C 		str	r2, [r3, #-32]
 464:SYS/task_manager/task_manager.c ****     *Tsk_Ptr_tmp = 0xfffffffd;
 879              		.loc 1 464 5 is_stmt 1 view .LVU248
 880              	.LVL67:
 465:SYS/task_manager/task_manager.c **** 
 881              		.loc 1 465 5 view .LVU249
 465:SYS/task_manager/task_manager.c **** 
 882              		.loc 1 465 18 is_stmt 0 view .LVU250
 883 0040 6FF00202 		mvn	r2, #2
 884 0044 43F8242C 		str	r2, [r3, #-36]
 467:SYS/task_manager/task_manager.c **** 
 885              		.loc 1 467 5 is_stmt 1 view .LVU251
 467:SYS/task_manager/task_manager.c **** 
 886              		.loc 1 467 17 is_stmt 0 view .LVU252
 887 0048 443B     		subs	r3, r3, #68
 888              	.LVL68:
 470:SYS/task_manager/task_manager.c **** }
 889              		.loc 1 470 5 is_stmt 1 view .LVU253
ARM GAS  /tmp/cc3rJM77.s 			page 30


 470:SYS/task_manager/task_manager.c **** }
 890              		.loc 1 470 26 is_stmt 0 view .LVU254
 891 004a 2365     		str	r3, [r4, #80]
 471:SYS/task_manager/task_manager.c **** 
 892              		.loc 1 471 1 view .LVU255
 893 004c 10BD     		pop	{r4, pc}
 894              	.LVL69:
 895              	.L57:
 471:SYS/task_manager/task_manager.c **** 
 896              		.loc 1 471 1 view .LVU256
 897 004e 00BF     		.align	2
 898              	.L56:
 899 0050 00000000 		.word	Task_Caller
 900 0054 00000000 		.word	Task_Exit
 901              		.cfi_endproc
 902              	.LFE144:
 904              		.global	__aeabi_ul2f
 905              		.section	.text.Task_Idle,"ax",%progbits
 906              		.align	1
 907              		.syntax unified
 908              		.thumb
 909              		.thumb_func
 910              		.fpu fpv4-sp-d16
 912              	Task_Idle:
 913              	.LFB130:
 186:SYS/task_manager/task_manager.c ****     SYSTEM_RunTime cur_time;
 914              		.loc 1 186 1 is_stmt 1 view -0
 915              		.cfi_startproc
 916              		@ args = 0, pretend = 0, frame = 16
 917              		@ frame_needed = 0, uses_anonymous_args = 0
 918 0000 10B5     		push	{r4, lr}
 919              	.LCFI16:
 920              		.cfi_def_cfa_offset 8
 921              		.cfi_offset 4, -8
 922              		.cfi_offset 14, -4
 923 0002 84B0     		sub	sp, sp, #16
 924              	.LCFI17:
 925              		.cfi_def_cfa_offset 24
 187:SYS/task_manager/task_manager.c ****     SYSTEM_RunTime time_diff;
 926              		.loc 1 187 5 view .LVU258
 188:SYS/task_manager/task_manager.c **** 
 927              		.loc 1 188 5 view .LVU259
 190:SYS/task_manager/task_manager.c ****     RuntimeObj_Reset(&cur_time);
 928              		.loc 1 190 5 view .LVU260
 929 0004 6846     		mov	r0, sp
 930 0006 FFF7FEFF 		bl	RuntimeObj_Reset
 931              	.LVL70:
 191:SYS/task_manager/task_manager.c **** 
 932              		.loc 1 191 5 view .LVU261
 933 000a 02A8     		add	r0, sp, #8
 934 000c FFF7FEFF 		bl	RuntimeObj_Reset
 935              	.LVL71:
 193:SYS/task_manager/task_manager.c ****     time_diff = Get_TimeDifference_Between(TaskSys_StartTime, cur_time);
 936              		.loc 1 193 5 view .LVU262
 193:SYS/task_manager/task_manager.c ****     time_diff = Get_TimeDifference_Between(TaskSys_StartTime, cur_time);
 937              		.loc 1 193 16 is_stmt 0 view .LVU263
 938 0010 FFF7FEFF 		bl	Get_CurrentRunningUs
ARM GAS  /tmp/cc3rJM77.s 			page 31


 939              	.LVL72:
 940 0014 0246     		mov	r2, r0
 941 0016 0B46     		mov	r3, r1
 193:SYS/task_manager/task_manager.c ****     time_diff = Get_TimeDifference_Between(TaskSys_StartTime, cur_time);
 942              		.loc 1 193 14 view .LVU264
 943 0018 CDE90223 		strd	r2, [sp, #8]
 194:SYS/task_manager/task_manager.c **** 
 944              		.loc 1 194 5 is_stmt 1 view .LVU265
 194:SYS/task_manager/task_manager.c **** 
 945              		.loc 1 194 17 is_stmt 0 view .LVU266
 946 001c 0B49     		ldr	r1, .L60
 947 001e D1E90001 		ldrd	r0, [r1]
 948 0022 FFF7FEFF 		bl	Get_TimeDifference_Between
 949              	.LVL73:
 196:SYS/task_manager/task_manager.c ****     TaskSys_Idle_Ocupy = (TaskSys_Idle_US / (float)time_diff);
 950              		.loc 1 196 5 is_stmt 1 view .LVU267
 196:SYS/task_manager/task_manager.c ****     TaskSys_Idle_Ocupy = (TaskSys_Idle_US / (float)time_diff);
 951              		.loc 1 196 20 is_stmt 0 view .LVU268
 952 0026 0A4B     		ldr	r3, .L60+4
 953 0028 1C68     		ldr	r4, [r3]
 954 002a 0134     		adds	r4, r4, #1
 955 002c 1C60     		str	r4, [r3]
 197:SYS/task_manager/task_manager.c **** }
 956              		.loc 1 197 5 is_stmt 1 view .LVU269
 197:SYS/task_manager/task_manager.c **** }
 957              		.loc 1 197 45 is_stmt 0 view .LVU270
 958 002e FFF7FEFF 		bl	__aeabi_ul2f
 959              	.LVL74:
 197:SYS/task_manager/task_manager.c **** }
 960              		.loc 1 197 43 view .LVU271
 961 0032 07EE904A 		vmov	s15, r4	@ int
 962 0036 F8EE677A 		vcvt.f32.u32	s15, s15
 963 003a 07EE100A 		vmov	s14, r0
 964 003e 87EE877A 		vdiv.f32	s14, s15, s14
 197:SYS/task_manager/task_manager.c **** }
 965              		.loc 1 197 24 view .LVU272
 966 0042 044B     		ldr	r3, .L60+8
 967 0044 83ED007A 		vstr.32	s14, [r3]
 198:SYS/task_manager/task_manager.c **** 
 968              		.loc 1 198 1 view .LVU273
 969 0048 04B0     		add	sp, sp, #16
 970              	.LCFI18:
 971              		.cfi_def_cfa_offset 8
 972              		@ sp needed
 973 004a 10BD     		pop	{r4, pc}
 974              	.L61:
 975              		.align	2
 976              	.L60:
 977 004c 00000000 		.word	.LANCHOR6
 978 0050 00000000 		.word	.LANCHOR7
 979 0054 00000000 		.word	.LANCHOR8
 980              		.cfi_endproc
 981              	.LFE130:
 983              		.section	.text.Task_Exec,"ax",%progbits
 984              		.align	1
 985              		.syntax unified
 986              		.thumb
ARM GAS  /tmp/cc3rJM77.s 			page 32


 987              		.thumb_func
 988              		.fpu fpv4-sp-d16
 990              	Task_Exec:
 991              	.LVL75:
 992              	.LFB165:
 655:SYS/task_manager/task_manager.c **** 
 656:SYS/task_manager/task_manager.c **** Task_Handler Task_Create(const char *name, uint32_t frq, Priority_Group group, TASK_Priority priori
 657:SYS/task_manager/task_manager.c **** {
 658:SYS/task_manager/task_manager.c ****     Task_Handler handle;
 659:SYS/task_manager/task_manager.c ****     uint16_t task_name_len = strlen(name);
 660:SYS/task_manager/task_manager.c ****     uint32_t *Tsk_Ptr_tmp = NULL;
 661:SYS/task_manager/task_manager.c ****     static bool taskOs_InitState = false;
 662:SYS/task_manager/task_manager.c **** 
 663:SYS/task_manager/task_manager.c ****     if (!taskOs_InitState)
 664:SYS/task_manager/task_manager.c ****     {
 665:SYS/task_manager/task_manager.c ****         TaskSys_Init();
 666:SYS/task_manager/task_manager.c ****         taskOs_InitState = true;
 667:SYS/task_manager/task_manager.c ****     }
 668:SYS/task_manager/task_manager.c **** 
 669:SYS/task_manager/task_manager.c ****     //already have task in current group and priority in task pointer matrix
 670:SYS/task_manager/task_manager.c ****     if (Task_Ptr[group][priority] != NULL)
 671:SYS/task_manager/task_manager.c ****     {
 672:SYS/task_manager/task_manager.c ****         return TASK_REGISTED;
 673:SYS/task_manager/task_manager.c ****     }
 674:SYS/task_manager/task_manager.c **** 
 675:SYS/task_manager/task_manager.c ****     //request a memory space for Task_Ptr contain
 676:SYS/task_manager/task_manager.c ****     Task_Ptr[group][priority] = (Task *)malloc(sizeof(Task));
 677:SYS/task_manager/task_manager.c **** 
 678:SYS/task_manager/task_manager.c ****     //record Task_Ptr poiner`s address
 679:SYS/task_manager/task_manager.c ****     handle = *&Task_Ptr[group][priority];
 680:SYS/task_manager/task_manager.c **** 
 681:SYS/task_manager/task_manager.c ****     Task_Ptr[group][priority]->Task_name = name;
 682:SYS/task_manager/task_manager.c **** 
 683:SYS/task_manager/task_manager.c ****     Task_Ptr[group][priority]->exec_frq = frq;
 684:SYS/task_manager/task_manager.c ****     Task_Ptr[group][priority]->exec_interval_us = RUNTIEM_MAX_TICK_FRQ / frq;
 685:SYS/task_manager/task_manager.c ****     Task_Ptr[group][priority]->Exec_Func = func;
 686:SYS/task_manager/task_manager.c **** 
 687:SYS/task_manager/task_manager.c ****     Task_Ptr[group][priority]->priority.Priority = (group << 3) | priority;
 688:SYS/task_manager/task_manager.c **** 
 689:SYS/task_manager/task_manager.c **** #if (TASK_SCHEDULER_TYPE == PREEMPTIVE_SCHDULER)
 690:SYS/task_manager/task_manager.c ****     //init delay tag
 691:SYS/task_manager/task_manager.c ****     Task_Ptr[group][priority]->delay_info.on_delay = false;
 692:SYS/task_manager/task_manager.c ****     Task_Ptr[group][priority]->delay_info.tsk_hdl = handle;
 693:SYS/task_manager/task_manager.c ****     Task_Ptr[group][priority]->delay_info.time_unit = 0;
 694:SYS/task_manager/task_manager.c **** 
 695:SYS/task_manager/task_manager.c ****     //request memory space for task stack
 696:SYS/task_manager/task_manager.c ****     Task_Ptr[group][priority]->Stack_Depth = StackDepth;
 697:SYS/task_manager/task_manager.c ****     Task_Ptr[group][priority]->TCB.Stack = (uint32_t *)malloc(StackDepth * sizeof(uint32_t));
 698:SYS/task_manager/task_manager.c **** 
 699:SYS/task_manager/task_manager.c ****     if (Task_Ptr[group][priority]->TCB.Stack != NULL)
 700:SYS/task_manager/task_manager.c ****     {
 701:SYS/task_manager/task_manager.c ****         Task_SetStkPtr_Val(Task_Ptr[group][priority]);
 702:SYS/task_manager/task_manager.c ****     }
 703:SYS/task_manager/task_manager.c ****     else
 704:SYS/task_manager/task_manager.c ****     {
 705:SYS/task_manager/task_manager.c ****         return TASK_BAD_MEMSPC_REQ;
 706:SYS/task_manager/task_manager.c ****     }
ARM GAS  /tmp/cc3rJM77.s 			page 33


 707:SYS/task_manager/task_manager.c **** #endif
 708:SYS/task_manager/task_manager.c ****     //reset task running statistics reg
 709:SYS/task_manager/task_manager.c ****     Task_Ptr[group][priority]->statistics_reg.Reg.Caller_Statistics_REG = stop_statistics;
 710:SYS/task_manager/task_manager.c ****     Task_Ptr[group][priority]->statistics_reg.Reg.TskFun_Statistics_REG = stop_statistics;
 711:SYS/task_manager/task_manager.c **** 
 712:SYS/task_manager/task_manager.c ****     //reset single loop running us
 713:SYS/task_manager/task_manager.c ****     Task_Ptr[group][priority]->TskFuncUing_US = 0;
 714:SYS/task_manager/task_manager.c ****     Task_Ptr[group][priority]->CallerUsing_US = 0;
 715:SYS/task_manager/task_manager.c **** 
 716:SYS/task_manager/task_manager.c ****     //reset task cpu occupy data
 717:SYS/task_manager/task_manager.c ****     Task_Ptr[group][priority]->Exec_status.cpu_opy = 0;
 718:SYS/task_manager/task_manager.c ****     Task_Ptr[group][priority]->Exec_status.totlal_running_time = 0;
 719:SYS/task_manager/task_manager.c **** 
 720:SYS/task_manager/task_manager.c ****     //set current group flag to ready
 721:SYS/task_manager/task_manager.c ****     TskHdl_RdyMap.Grp.Flg |= 1 << GET_TASKGROUP_PRIORITY(Task_Ptr[group][priority]->priority.Priori
 722:SYS/task_manager/task_manager.c ****     //set current task under this group flag to ready
 723:SYS/task_manager/task_manager.c ****     TskHdl_RdyMap.TskInGrp[GET_TASKGROUP_PRIORITY(Task_Ptr[group][priority]->priority.Priority)].Fl
 724:SYS/task_manager/task_manager.c **** 
 725:SYS/task_manager/task_manager.c ****     Task_Ptr[group][priority]->Exec_status.detect_exec_frq = 0;
 726:SYS/task_manager/task_manager.c ****     Task_Ptr[group][priority]->Exec_status.detect_exec_time_arv = 0;
 727:SYS/task_manager/task_manager.c ****     Task_Ptr[group][priority]->Exec_status.detect_exec_time_max = 0;
 728:SYS/task_manager/task_manager.c **** 
 729:SYS/task_manager/task_manager.c ****     RuntimeObj_Reset(&(Task_Ptr[group][priority]->Exec_status.Exec_Time));
 730:SYS/task_manager/task_manager.c ****     RuntimeObj_Reset(&(Task_Ptr[group][priority]->Exec_status.Init_Time));
 731:SYS/task_manager/task_manager.c ****     RuntimeObj_Reset(&(Task_Ptr[group][priority]->Exec_status.Start_Time));
 732:SYS/task_manager/task_manager.c **** 
 733:SYS/task_manager/task_manager.c ****     Task_Ptr[group][priority]->Exec_status.Init_Time = Get_CurrentRunningUs();
 734:SYS/task_manager/task_manager.c **** 
 735:SYS/task_manager/task_manager.c ****     Task_Ptr[group][priority]->Exec_status.Exec_Times = 0;
 736:SYS/task_manager/task_manager.c ****     Task_Ptr[group][priority]->Exec_status.error_code = NOERROR;
 737:SYS/task_manager/task_manager.c **** 
 738:SYS/task_manager/task_manager.c ****     Task_SetReady(Task_Ptr[group][priority]);
 739:SYS/task_manager/task_manager.c **** 
 740:SYS/task_manager/task_manager.c ****     Task_Ptr[group][priority]->item_ptr = (item_obj *)malloc(sizeof(item_obj));
 741:SYS/task_manager/task_manager.c ****     if (Task_Ptr[group][priority]->item_ptr == NULL)
 742:SYS/task_manager/task_manager.c ****     {
 743:SYS/task_manager/task_manager.c ****         return TASK_BAD_MEMSPC_REQ;
 744:SYS/task_manager/task_manager.c ****     }
 745:SYS/task_manager/task_manager.c **** 
 746:SYS/task_manager/task_manager.c ****     List_ItemInit(Task_Ptr[group][priority]->item_ptr, Task_Ptr[group][priority]);
 747:SYS/task_manager/task_manager.c ****     if (TskCrt_RegList.num == 0)
 748:SYS/task_manager/task_manager.c ****     {
 749:SYS/task_manager/task_manager.c ****         List_Init(&TskCrt_RegList.list, Task_Ptr[group][priority]->item_ptr, by_condition, Task_Pri
 750:SYS/task_manager/task_manager.c ****     }
 751:SYS/task_manager/task_manager.c ****     else
 752:SYS/task_manager/task_manager.c ****     {
 753:SYS/task_manager/task_manager.c ****         List_Insert_Item(&TskCrt_RegList.list, Task_Ptr[group][priority]->item_ptr);
 754:SYS/task_manager/task_manager.c ****     }
 755:SYS/task_manager/task_manager.c **** 
 756:SYS/task_manager/task_manager.c ****     List_ItemInit(&Task_Ptr[group][priority]->delay_item, &Task_Ptr[group][priority]->delay_info);
 757:SYS/task_manager/task_manager.c **** 
 758:SYS/task_manager/task_manager.c ****     TskCrt_RegList.num++;
 759:SYS/task_manager/task_manager.c **** 
 760:SYS/task_manager/task_manager.c ****     return handle;
 761:SYS/task_manager/task_manager.c **** }
 762:SYS/task_manager/task_manager.c **** 
 763:SYS/task_manager/task_manager.c **** static void Task_Set_CountRunnigTime_State(Task *tsk_ptr, uint8_t enable_state)
ARM GAS  /tmp/cc3rJM77.s 			page 34


 764:SYS/task_manager/task_manager.c **** {
 765:SYS/task_manager/task_manager.c ****     if (enable_state)
 766:SYS/task_manager/task_manager.c ****     {
 767:SYS/task_manager/task_manager.c ****         tsk_ptr->statistics_reg.Reg.Caller_Statistics_REG = start_statistics;
 768:SYS/task_manager/task_manager.c ****     }
 769:SYS/task_manager/task_manager.c ****     else
 770:SYS/task_manager/task_manager.c ****     {
 771:SYS/task_manager/task_manager.c ****         tsk_ptr->statistics_reg.Reg.Caller_Statistics_REG = stop_statistics;
 772:SYS/task_manager/task_manager.c ****         tsk_ptr->statistics_reg.Reg.TskFun_Statistics_REG = stop_statistics;
 773:SYS/task_manager/task_manager.c ****     }
 774:SYS/task_manager/task_manager.c **** 
 775:SYS/task_manager/task_manager.c ****     periph_Timer_Counter_SetEnable(Timer_4, enable_state);
 776:SYS/task_manager/task_manager.c **** }
 777:SYS/task_manager/task_manager.c **** 
 778:SYS/task_manager/task_manager.c **** static void Task_StartCountTargetFunc_Cast(Task *tsk_ptr)
 779:SYS/task_manager/task_manager.c **** {
 780:SYS/task_manager/task_manager.c ****     tsk_ptr->statistics_reg.Reg.TskFun_Statistics_REG = start_statistics;
 781:SYS/task_manager/task_manager.c **** }
 782:SYS/task_manager/task_manager.c **** 
 783:SYS/task_manager/task_manager.c **** static void Task_StopCountTargetFunc_Cast(Task *tsk_ptr)
 784:SYS/task_manager/task_manager.c **** {
 785:SYS/task_manager/task_manager.c ****     tsk_ptr->statistics_reg.Reg.TskFun_Statistics_REG = stop_statistics;
 786:SYS/task_manager/task_manager.c **** }
 787:SYS/task_manager/task_manager.c **** 
 788:SYS/task_manager/task_manager.c **** //Remove func untest
 789:SYS/task_manager/task_manager.c **** void Task_Remove(Task_Handler Tsk_Hdl)
 790:SYS/task_manager/task_manager.c **** {
 791:SYS/task_manager/task_manager.c ****     //convert Tsk_Hdl from uint32_t var to Task Address which we need to delete
 792:SYS/task_manager/task_manager.c ****     //free that memory space
 793:SYS/task_manager/task_manager.c ****     //erase all data in specificly memory space
 794:SYS/task_manager/task_manager.c ****     //set Task pointer to Null which we wanted to be delete
 795:SYS/task_manager/task_manager.c **** 
 796:SYS/task_manager/task_manager.c ****     uint8_t remove_group = GET_TASKGROUP_PRIORITY(((Task *)Tsk_Hdl)->priority.Priority);
 797:SYS/task_manager/task_manager.c ****     uint8_t remove_task = GET_TASKINGROUP_PRIORITY(((Task *)Tsk_Hdl)->priority.Priority);
 798:SYS/task_manager/task_manager.c **** 
 799:SYS/task_manager/task_manager.c ****     ReSet_Task_Data((Task *)Tsk_Hdl);
 800:SYS/task_manager/task_manager.c **** 
 801:SYS/task_manager/task_manager.c **** #if (TASK_SCHEDULER_TYPE == PREEMPTIVE_SCHDULER)
 802:SYS/task_manager/task_manager.c ****     free((uint32_t *)((Task *)Tsk_Hdl)->TCB.Stack);
 803:SYS/task_manager/task_manager.c ****     free((uint32_t *)((Task *)Tsk_Hdl)->TCB.Top_Stk_Ptr);
 804:SYS/task_manager/task_manager.c **** #endif
 805:SYS/task_manager/task_manager.c **** 
 806:SYS/task_manager/task_manager.c ****     free((Task *)Tsk_Hdl);
 807:SYS/task_manager/task_manager.c ****     Task_Ptr[remove_group][remove_task] = NULL;
 808:SYS/task_manager/task_manager.c **** }
 809:SYS/task_manager/task_manager.c **** 
 810:SYS/task_manager/task_manager.c **** void TaskSystem_Start(void)
 811:SYS/task_manager/task_manager.c **** {
 812:SYS/task_manager/task_manager.c ****     Runtime_Config(RUNTIME_TICK_FRQ_40K);
 813:SYS/task_manager/task_manager.c ****     Runtime_Set_start_Callback(NULL);
 814:SYS/task_manager/task_manager.c ****     Runtime_Set_stop_Callback(NULL);
 815:SYS/task_manager/task_manager.c ****     Runtime_Set_tick_Callback(Task_Scheduler); /* 5us cast by calling the scheduler */
 816:SYS/task_manager/task_manager.c ****     Runtime_Start();
 817:SYS/task_manager/task_manager.c **** 
 818:SYS/task_manager/task_manager.c ****     RuntimeObj_Reset(&TaskSys_StartTime);
 819:SYS/task_manager/task_manager.c **** 
 820:SYS/task_manager/task_manager.c ****     TaskSys_StartTime = Get_CurrentRunningUs();
ARM GAS  /tmp/cc3rJM77.s 			page 35


 821:SYS/task_manager/task_manager.c **** 
 822:SYS/task_manager/task_manager.c **** #if (TASK_SCHEDULER_TYPE == PREEMPTIVE_SCHDULER)
 823:SYS/task_manager/task_manager.c ****     NxtRunTsk_Ptr = Task_Get_HighestRank_RdyTask();
 824:SYS/task_manager/task_manager.c **** 
 825:SYS/task_manager/task_manager.c ****     if (NxtRunTsk_Ptr != NULL)
 826:SYS/task_manager/task_manager.c ****     {
 827:SYS/task_manager/task_manager.c ****         NxtTsk_TCB.Top_Stk_Ptr = &NxtRunTsk_Ptr->TCB.Top_Stk_Ptr;
 828:SYS/task_manager/task_manager.c ****         NxtTsk_TCB.Stack = NxtRunTsk_Ptr->TCB.Stack;
 829:SYS/task_manager/task_manager.c **** 
 830:SYS/task_manager/task_manager.c ****         CurTsk_TCB = NxtTsk_TCB;
 831:SYS/task_manager/task_manager.c ****     }
 832:SYS/task_manager/task_manager.c **** #endif
 833:SYS/task_manager/task_manager.c **** 
 834:SYS/task_manager/task_manager.c ****     Task_SetPendSVPro();
 835:SYS/task_manager/task_manager.c ****     Task_TriggerPendSV();
 836:SYS/task_manager/task_manager.c **** 
 837:SYS/task_manager/task_manager.c ****     return true;
 838:SYS/task_manager/task_manager.c **** }
 839:SYS/task_manager/task_manager.c **** 
 840:SYS/task_manager/task_manager.c **** void Task_SetRunState(Task_Handler Tsk_Handle, TASK_STATE state)
 841:SYS/task_manager/task_manager.c **** {
 842:SYS/task_manager/task_manager.c ****     ((Task *)Tsk_Handle)->Exec_status.State = state;
 843:SYS/task_manager/task_manager.c **** }
 844:SYS/task_manager/task_manager.c **** 
 845:SYS/task_manager/task_manager.c **** void Task_CountRunningTime(void)
 846:SYS/task_manager/task_manager.c **** {
 847:SYS/task_manager/task_manager.c ****     if (CurRunTsk_Ptr != NULL)
 848:SYS/task_manager/task_manager.c ****     {
 849:SYS/task_manager/task_manager.c ****         RunTime_Tick();
 850:SYS/task_manager/task_manager.c **** 
 851:SYS/task_manager/task_manager.c ****         if (CurRunTsk_Ptr->statistics_reg.Reg.TskFun_Statistics_REG == start_statistics)
 852:SYS/task_manager/task_manager.c ****         {
 853:SYS/task_manager/task_manager.c ****             CurRunTsk_Ptr->TskFuncUing_US++;
 854:SYS/task_manager/task_manager.c ****         }
 855:SYS/task_manager/task_manager.c **** 
 856:SYS/task_manager/task_manager.c ****         if (CurRunTsk_Ptr->statistics_reg.Reg.TskFun_Statistics_REG == start_statistics)
 857:SYS/task_manager/task_manager.c ****         {
 858:SYS/task_manager/task_manager.c ****             CurRunTsk_Ptr->CallerUsing_US++;
 859:SYS/task_manager/task_manager.c ****         }
 860:SYS/task_manager/task_manager.c ****     }
 861:SYS/task_manager/task_manager.c **** }
 862:SYS/task_manager/task_manager.c **** 
 863:SYS/task_manager/task_manager.c **** static Task *Get_TaskInstance(uint8_t group, uint8_t priority)
 864:SYS/task_manager/task_manager.c **** {
 865:SYS/task_manager/task_manager.c ****     return Task_Ptr[group][priority];
 866:SYS/task_manager/task_manager.c **** }
 867:SYS/task_manager/task_manager.c **** 
 868:SYS/task_manager/task_manager.c **** static void Task_Exec(Task *tsk_ptr)
 869:SYS/task_manager/task_manager.c **** {
 993              		.loc 1 869 1 is_stmt 1 view -0
 994              		.cfi_startproc
 995              		@ Volatile: function does not return.
 996              		@ args = 0, pretend = 0, frame = 8
 997              		@ frame_needed = 0, uses_anonymous_args = 0
 998              		.loc 1 869 1 is_stmt 0 view .LVU275
 999 0000 00B5     		push	{lr}
 1000              	.LCFI19:
ARM GAS  /tmp/cc3rJM77.s 			page 36


 1001              		.cfi_def_cfa_offset 4
 1002              		.cfi_offset 14, -4
 1003 0002 83B0     		sub	sp, sp, #12
 1004              	.LCFI20:
 1005              		.cfi_def_cfa_offset 16
 870:SYS/task_manager/task_manager.c ****     SYSTEM_RunTime time_diff;
 1006              		.loc 1 870 5 is_stmt 1 view .LVU276
 871:SYS/task_manager/task_manager.c ****     RuntimeObj_Reset(&time_diff);
 1007              		.loc 1 871 5 view .LVU277
 1008 0004 6846     		mov	r0, sp
 1009              	.LVL76:
 1010              		.loc 1 871 5 is_stmt 0 view .LVU278
 1011 0006 FFF7FEFF 		bl	RuntimeObj_Reset
 1012              	.LVL77:
 872:SYS/task_manager/task_manager.c **** 
 873:SYS/task_manager/task_manager.c ****     tsk_ptr = NxtRunTsk_Ptr;
 1013              		.loc 1 873 5 is_stmt 1 view .LVU279
 1014              		.loc 1 873 13 is_stmt 0 view .LVU280
 1015 000a 314B     		ldr	r3, .L71
 1016 000c 1C68     		ldr	r4, [r3]
 1017              	.LVL78:
 1018              		.loc 1 873 13 view .LVU281
 1019 000e 0CE0     		b	.L63
 1020              	.L70:
 874:SYS/task_manager/task_manager.c **** 
 875:SYS/task_manager/task_manager.c ****     while (true)
 876:SYS/task_manager/task_manager.c ****     {
 877:SYS/task_manager/task_manager.c ****         if (tsk_ptr->Exec_status.State == Task_Ready)
 878:SYS/task_manager/task_manager.c ****         {
 879:SYS/task_manager/task_manager.c ****             //when task function execute finish reset ready flag of current task in group
 880:SYS/task_manager/task_manager.c ****             //code down below
 881:SYS/task_manager/task_manager.c ****             Task_ClearReady(tsk_ptr);
 882:SYS/task_manager/task_manager.c **** 
 883:SYS/task_manager/task_manager.c ****             //Task_Set_CountRunnigTime_State(tsk_ptr, ENABLE);
 884:SYS/task_manager/task_manager.c **** 
 885:SYS/task_manager/task_manager.c ****             //set current running task
 886:SYS/task_manager/task_manager.c ****             CurRunTsk_Ptr = tsk_ptr;
 887:SYS/task_manager/task_manager.c **** 
 888:SYS/task_manager/task_manager.c ****             if (tsk_ptr->Exec_status.Exec_Times == 0)
 889:SYS/task_manager/task_manager.c ****             {
 890:SYS/task_manager/task_manager.c ****                 tsk_ptr->Exec_status.Start_Time = Get_CurrentRunningUs();
 1021              		.loc 1 890 17 is_stmt 1 view .LVU282
 1022              		.loc 1 890 51 is_stmt 0 view .LVU283
 1023 0010 FFF7FEFF 		bl	Get_CurrentRunningUs
 1024              	.LVL79:
 1025              		.loc 1 890 49 view .LVU284
 1026 0014 E061     		str	r0, [r4, #28]
 1027 0016 2162     		str	r1, [r4, #32]
 891:SYS/task_manager/task_manager.c ****                 tsk_ptr->Exec_status.Exec_Time = tsk_ptr->Exec_status.Start_Time;
 1028              		.loc 1 891 17 is_stmt 1 view .LVU285
 1029              		.loc 1 891 48 is_stmt 0 view .LVU286
 1030 0018 6062     		str	r0, [r4, #36]
 1031 001a A162     		str	r1, [r4, #40]
 1032 001c 11E0     		b	.L64
 1033              	.L67:
 892:SYS/task_manager/task_manager.c ****             }
 893:SYS/task_manager/task_manager.c **** 
ARM GAS  /tmp/cc3rJM77.s 			page 37


 894:SYS/task_manager/task_manager.c ****             tsk_ptr->Exec_status.State = Task_Running;
 895:SYS/task_manager/task_manager.c ****             //Task_StartCountTargetFunc_Cast(tsk_ptr);
 896:SYS/task_manager/task_manager.c **** 
 897:SYS/task_manager/task_manager.c ****             //execute task funtion
 898:SYS/task_manager/task_manager.c ****             tsk_ptr->Exec_Func(*&tsk_ptr);
 899:SYS/task_manager/task_manager.c **** 
 900:SYS/task_manager/task_manager.c ****             //get current task execut time
 901:SYS/task_manager/task_manager.c ****             //Task_StopCountTargetFunc_Cast(tsk_ptr);
 902:SYS/task_manager/task_manager.c **** 
 903:SYS/task_manager/task_manager.c ****             //record task running times
 904:SYS/task_manager/task_manager.c ****             tsk_ptr->Exec_status.Exec_Times++;
 905:SYS/task_manager/task_manager.c **** 
 906:SYS/task_manager/task_manager.c ****             //get max task execut time
 907:SYS/task_manager/task_manager.c ****             if (tsk_ptr->TskFuncUing_US > tsk_ptr->Exec_status.detect_exec_time_max)
 908:SYS/task_manager/task_manager.c ****             {
 909:SYS/task_manager/task_manager.c ****                 tsk_ptr->Exec_status.detect_exec_time_max = tsk_ptr->TskFuncUing_US;
 910:SYS/task_manager/task_manager.c ****             }
 911:SYS/task_manager/task_manager.c **** 
 912:SYS/task_manager/task_manager.c ****             //get task total execute time unit in us
 913:SYS/task_manager/task_manager.c ****             tsk_ptr->Exec_status.totlal_running_time += tsk_ptr->TskFuncUing_US;
 914:SYS/task_manager/task_manager.c ****             time_diff = Get_TimeDifference_Between(tsk_ptr->Exec_status.Start_Time, tsk_ptr->Exec_s
 915:SYS/task_manager/task_manager.c **** 
 916:SYS/task_manager/task_manager.c ****             tsk_ptr->Exec_status.cpu_opy = tsk_ptr->Exec_status.totlal_running_time / (float)time_d
 917:SYS/task_manager/task_manager.c **** 
 918:SYS/task_manager/task_manager.c ****             //get average task running time
 919:SYS/task_manager/task_manager.c ****             tsk_ptr->Exec_status.detect_exec_time_arv += tsk_ptr->TskFuncUing_US;
 920:SYS/task_manager/task_manager.c ****             if (tsk_ptr->Exec_status.Exec_Times > 1)
 921:SYS/task_manager/task_manager.c ****             {
 922:SYS/task_manager/task_manager.c ****                 tsk_ptr->Exec_status.detect_exec_time_arv /= 2;
 923:SYS/task_manager/task_manager.c ****             }
 924:SYS/task_manager/task_manager.c **** 
 925:SYS/task_manager/task_manager.c ****             tsk_ptr->Exec_status.Exec_Time = Get_TargetRunTime(tsk_ptr->exec_interval_us);
 926:SYS/task_manager/task_manager.c **** 
 927:SYS/task_manager/task_manager.c ****             //get task execute frequence
 928:SYS/task_manager/task_manager.c ****             if (tsk_ptr->Exec_status.Exec_Times)
 929:SYS/task_manager/task_manager.c ****             {
 930:SYS/task_manager/task_manager.c ****                 tsk_ptr->Exec_status.detect_exec_frq = (uint32_t)(tsk_ptr->Exec_status.Exec_Times /
 931:SYS/task_manager/task_manager.c ****             }
 932:SYS/task_manager/task_manager.c **** 
 933:SYS/task_manager/task_manager.c ****             //stop counting caller using us time
 934:SYS/task_manager/task_manager.c ****             //Task_Set_CountRunnigTime_State(tsk_ptr, DISABLE);
 935:SYS/task_manager/task_manager.c **** 
 936:SYS/task_manager/task_manager.c ****             tsk_ptr->Exec_status.State = Task_Stop;
 1034              		.loc 1 936 13 is_stmt 1 view .LVU287
 1035              		.loc 1 936 40 is_stmt 0 view .LVU288
 1036 001e 0223     		movs	r3, #2
 1037 0020 84F84830 		strb	r3, [r4, #72]
 937:SYS/task_manager/task_manager.c **** 
 938:SYS/task_manager/task_manager.c ****             //erase currnet runnint task pointer
 939:SYS/task_manager/task_manager.c ****             CurRunTsk_Ptr = NULL;
 1038              		.loc 1 939 13 is_stmt 1 view .LVU289
 1039              		.loc 1 939 27 is_stmt 0 view .LVU290
 1040 0024 2B4B     		ldr	r3, .L71+4
 1041 0026 0022     		movs	r2, #0
 1042 0028 1A60     		str	r2, [r3]
 1043              	.L63:
 875:SYS/task_manager/task_manager.c ****     {
ARM GAS  /tmp/cc3rJM77.s 			page 38


 1044              		.loc 1 875 5 is_stmt 1 view .LVU291
 877:SYS/task_manager/task_manager.c ****         {
 1045              		.loc 1 877 9 view .LVU292
 877:SYS/task_manager/task_manager.c ****         {
 1046              		.loc 1 877 33 is_stmt 0 view .LVU293
 1047 002a 94F84830 		ldrb	r3, [r4, #72]	@ zero_extendqisi2
 877:SYS/task_manager/task_manager.c ****         {
 1048              		.loc 1 877 12 view .LVU294
 1049 002e 002B     		cmp	r3, #0
 1050 0030 FBD1     		bne	.L63
 881:SYS/task_manager/task_manager.c **** 
 1051              		.loc 1 881 13 is_stmt 1 view .LVU295
 1052 0032 2046     		mov	r0, r4
 1053 0034 FFF7FEFF 		bl	Task_ClearReady
 1054              	.LVL80:
 886:SYS/task_manager/task_manager.c **** 
 1055              		.loc 1 886 13 view .LVU296
 886:SYS/task_manager/task_manager.c **** 
 1056              		.loc 1 886 27 is_stmt 0 view .LVU297
 1057 0038 264B     		ldr	r3, .L71+4
 1058 003a 1C60     		str	r4, [r3]
 888:SYS/task_manager/task_manager.c ****             {
 1059              		.loc 1 888 13 is_stmt 1 view .LVU298
 888:SYS/task_manager/task_manager.c ****             {
 1060              		.loc 1 888 37 is_stmt 0 view .LVU299
 1061 003c A36B     		ldr	r3, [r4, #56]
 888:SYS/task_manager/task_manager.c ****             {
 1062              		.loc 1 888 16 view .LVU300
 1063 003e 002B     		cmp	r3, #0
 1064 0040 E6D0     		beq	.L70
 1065              	.L64:
 894:SYS/task_manager/task_manager.c ****             //Task_StartCountTargetFunc_Cast(tsk_ptr);
 1066              		.loc 1 894 13 is_stmt 1 view .LVU301
 894:SYS/task_manager/task_manager.c ****             //Task_StartCountTargetFunc_Cast(tsk_ptr);
 1067              		.loc 1 894 40 is_stmt 0 view .LVU302
 1068 0042 0123     		movs	r3, #1
 1069 0044 84F84830 		strb	r3, [r4, #72]
 898:SYS/task_manager/task_manager.c **** 
 1070              		.loc 1 898 13 is_stmt 1 view .LVU303
 898:SYS/task_manager/task_manager.c **** 
 1071              		.loc 1 898 20 is_stmt 0 view .LVU304
 1072 0048 2369     		ldr	r3, [r4, #16]
 898:SYS/task_manager/task_manager.c **** 
 1073              		.loc 1 898 13 view .LVU305
 1074 004a 2046     		mov	r0, r4
 1075 004c 9847     		blx	r3
 1076              	.LVL81:
 904:SYS/task_manager/task_manager.c **** 
 1077              		.loc 1 904 13 is_stmt 1 view .LVU306
 904:SYS/task_manager/task_manager.c **** 
 1078              		.loc 1 904 33 is_stmt 0 view .LVU307
 1079 004e A36B     		ldr	r3, [r4, #56]
 904:SYS/task_manager/task_manager.c **** 
 1080              		.loc 1 904 44 view .LVU308
 1081 0050 0133     		adds	r3, r3, #1
 1082 0052 A363     		str	r3, [r4, #56]
 907:SYS/task_manager/task_manager.c ****             {
ARM GAS  /tmp/cc3rJM77.s 			page 39


 1083              		.loc 1 907 13 is_stmt 1 view .LVU309
 907:SYS/task_manager/task_manager.c ****             {
 1084              		.loc 1 907 24 is_stmt 0 view .LVU310
 1085 0054 E26D     		ldr	r2, [r4, #92]
 907:SYS/task_manager/task_manager.c ****             {
 1086              		.loc 1 907 63 view .LVU311
 1087 0056 636B     		ldr	r3, [r4, #52]
 907:SYS/task_manager/task_manager.c ****             {
 1088              		.loc 1 907 16 view .LVU312
 1089 0058 9A42     		cmp	r2, r3
 1090 005a 00D9     		bls	.L65
 909:SYS/task_manager/task_manager.c ****             }
 1091              		.loc 1 909 17 is_stmt 1 view .LVU313
 909:SYS/task_manager/task_manager.c ****             }
 1092              		.loc 1 909 59 is_stmt 0 view .LVU314
 1093 005c 6263     		str	r2, [r4, #52]
 1094              	.L65:
 913:SYS/task_manager/task_manager.c ****             time_diff = Get_TimeDifference_Between(tsk_ptr->Exec_status.Start_Time, tsk_ptr->Exec_s
 1095              		.loc 1 913 13 is_stmt 1 view .LVU315
 913:SYS/task_manager/task_manager.c ****             time_diff = Get_TimeDifference_Between(tsk_ptr->Exec_status.Start_Time, tsk_ptr->Exec_s
 1096              		.loc 1 913 54 is_stmt 0 view .LVU316
 1097 005e 236C     		ldr	r3, [r4, #64]
 1098 0060 1344     		add	r3, r3, r2
 1099 0062 2364     		str	r3, [r4, #64]
 914:SYS/task_manager/task_manager.c **** 
 1100              		.loc 1 914 13 is_stmt 1 view .LVU317
 914:SYS/task_manager/task_manager.c **** 
 1101              		.loc 1 914 25 is_stmt 0 view .LVU318
 1102 0064 626A     		ldr	r2, [r4, #36]
 1103 0066 A36A     		ldr	r3, [r4, #40]
 1104 0068 E069     		ldr	r0, [r4, #28]
 1105 006a 216A     		ldr	r1, [r4, #32]
 1106 006c FFF7FEFF 		bl	Get_TimeDifference_Between
 1107              	.LVL82:
 914:SYS/task_manager/task_manager.c **** 
 1108              		.loc 1 914 23 view .LVU319
 1109 0070 CDE90001 		strd	r0, [sp]
 916:SYS/task_manager/task_manager.c **** 
 1110              		.loc 1 916 13 is_stmt 1 view .LVU320
 916:SYS/task_manager/task_manager.c **** 
 1111              		.loc 1 916 64 is_stmt 0 view .LVU321
 1112 0074 256C     		ldr	r5, [r4, #64]
 916:SYS/task_manager/task_manager.c **** 
 1113              		.loc 1 916 87 view .LVU322
 1114 0076 FFF7FEFF 		bl	__aeabi_ul2f
 1115              	.LVL83:
 916:SYS/task_manager/task_manager.c **** 
 1116              		.loc 1 916 85 view .LVU323
 1117 007a 07EE905A 		vmov	s15, r5	@ int
 1118 007e F8EE677A 		vcvt.f32.u32	s15, s15
 1119 0082 07EE100A 		vmov	s14, r0
 1120 0086 87EE877A 		vdiv.f32	s14, s15, s14
 916:SYS/task_manager/task_manager.c **** 
 1121              		.loc 1 916 42 view .LVU324
 1122 008a 84ED117A 		vstr.32	s14, [r4, #68]
 919:SYS/task_manager/task_manager.c ****             if (tsk_ptr->Exec_status.Exec_Times > 1)
 1123              		.loc 1 919 13 is_stmt 1 view .LVU325
ARM GAS  /tmp/cc3rJM77.s 			page 40


 919:SYS/task_manager/task_manager.c ****             if (tsk_ptr->Exec_status.Exec_Times > 1)
 1124              		.loc 1 919 65 is_stmt 0 view .LVU326
 1125 008e E36D     		ldr	r3, [r4, #92]
 919:SYS/task_manager/task_manager.c ****             if (tsk_ptr->Exec_status.Exec_Times > 1)
 1126              		.loc 1 919 55 view .LVU327
 1127 0090 226B     		ldr	r2, [r4, #48]
 1128 0092 1344     		add	r3, r3, r2
 1129 0094 2363     		str	r3, [r4, #48]
 920:SYS/task_manager/task_manager.c ****             {
 1130              		.loc 1 920 13 is_stmt 1 view .LVU328
 920:SYS/task_manager/task_manager.c ****             {
 1131              		.loc 1 920 37 is_stmt 0 view .LVU329
 1132 0096 A26B     		ldr	r2, [r4, #56]
 920:SYS/task_manager/task_manager.c ****             {
 1133              		.loc 1 920 16 view .LVU330
 1134 0098 012A     		cmp	r2, #1
 1135 009a 01D9     		bls	.L66
 922:SYS/task_manager/task_manager.c ****             }
 1136              		.loc 1 922 17 is_stmt 1 view .LVU331
 922:SYS/task_manager/task_manager.c ****             }
 1137              		.loc 1 922 59 is_stmt 0 view .LVU332
 1138 009c 5B08     		lsrs	r3, r3, #1
 1139 009e 2363     		str	r3, [r4, #48]
 1140              	.L66:
 925:SYS/task_manager/task_manager.c **** 
 1141              		.loc 1 925 13 is_stmt 1 view .LVU333
 925:SYS/task_manager/task_manager.c **** 
 1142              		.loc 1 925 46 is_stmt 0 view .LVU334
 1143 00a0 A089     		ldrh	r0, [r4, #12]
 1144 00a2 FFF7FEFF 		bl	Get_TargetRunTime
 1145              	.LVL84:
 925:SYS/task_manager/task_manager.c **** 
 1146              		.loc 1 925 44 view .LVU335
 1147 00a6 6062     		str	r0, [r4, #36]
 1148 00a8 A162     		str	r1, [r4, #40]
 928:SYS/task_manager/task_manager.c ****             {
 1149              		.loc 1 928 13 is_stmt 1 view .LVU336
 928:SYS/task_manager/task_manager.c ****             {
 1150              		.loc 1 928 37 is_stmt 0 view .LVU337
 1151 00aa A56B     		ldr	r5, [r4, #56]
 928:SYS/task_manager/task_manager.c ****             {
 1152              		.loc 1 928 16 view .LVU338
 1153 00ac 002D     		cmp	r5, #0
 1154 00ae B6D0     		beq	.L67
 930:SYS/task_manager/task_manager.c ****             }
 1155              		.loc 1 930 17 is_stmt 1 view .LVU339
 930:SYS/task_manager/task_manager.c ****             }
 1156              		.loc 1 930 101 is_stmt 0 view .LVU340
 1157 00b0 FFF7FEFF 		bl	__aeabi_ul2f
 1158              	.LVL85:
 930:SYS/task_manager/task_manager.c ****             }
 1159              		.loc 1 930 99 view .LVU341
 1160 00b4 07EE905A 		vmov	s15, r5	@ int
 1161 00b8 F8EE677A 		vcvt.f32.u32	s15, s15
 1162 00bc 07EE100A 		vmov	s14, r0
 1163 00c0 87EE877A 		vdiv.f32	s14, s15, s14
 930:SYS/task_manager/task_manager.c ****             }
ARM GAS  /tmp/cc3rJM77.s 			page 41


 1164              		.loc 1 930 56 view .LVU342
 1165 00c4 BCEEC77A 		vcvt.u32.f32	s14, s14
 930:SYS/task_manager/task_manager.c ****             }
 1166              		.loc 1 930 54 view .LVU343
 1167 00c8 84ED0B7A 		vstr.32	s14, [r4, #44]	@ int
 1168 00cc A7E7     		b	.L67
 1169              	.L72:
 1170 00ce 00BF     		.align	2
 1171              	.L71:
 1172 00d0 00000000 		.word	.LANCHOR9
 1173 00d4 00000000 		.word	.LANCHOR4
 1174              		.cfi_endproc
 1175              	.LFE165:
 1177              		.section	.text.Task_Caller,"ax",%progbits
 1178              		.align	1
 1179              		.global	Task_Caller
 1180              		.syntax unified
 1181              		.thumb
 1182              		.thumb_func
 1183              		.fpu fpv4-sp-d16
 1185              	Task_Caller:
 1186              	.LFB168:
 940:SYS/task_manager/task_manager.c ****         }
 941:SYS/task_manager/task_manager.c **** 
 942:SYS/task_manager/task_manager.c ****         //enable systick handler
 943:SYS/task_manager/task_manager.c ****         //Task_SetBASEPRI(0);
 944:SYS/task_manager/task_manager.c ****     }
 945:SYS/task_manager/task_manager.c **** }
 946:SYS/task_manager/task_manager.c **** 
 947:SYS/task_manager/task_manager.c **** uint32_t Task_Get_IdleUS(void)
 948:SYS/task_manager/task_manager.c **** {
 949:SYS/task_manager/task_manager.c ****     return TaskSys_Idle_US;
 950:SYS/task_manager/task_manager.c **** }
 951:SYS/task_manager/task_manager.c **** 
 952:SYS/task_manager/task_manager.c **** float Task_Get_IdleOcupy(void)
 953:SYS/task_manager/task_manager.c **** {
 954:SYS/task_manager/task_manager.c ****     return TaskSys_Idle_Ocupy;
 955:SYS/task_manager/task_manager.c **** }
 956:SYS/task_manager/task_manager.c **** 
 957:SYS/task_manager/task_manager.c **** void Task_Caller(void)
 958:SYS/task_manager/task_manager.c **** {
 1187              		.loc 1 958 1 is_stmt 1 view -0
 1188              		.cfi_startproc
 1189              		@ args = 0, pretend = 0, frame = 0
 1190              		@ frame_needed = 0, uses_anonymous_args = 0
 1191 0000 08B5     		push	{r3, lr}
 1192              	.LCFI21:
 1193              		.cfi_def_cfa_offset 8
 1194              		.cfi_offset 3, -8
 1195              		.cfi_offset 14, -4
 959:SYS/task_manager/task_manager.c ****     static uint8_t i = 0;
 1196              		.loc 1 959 5 view .LVU345
 960:SYS/task_manager/task_manager.c **** 
 961:SYS/task_manager/task_manager.c ****     //if any task in any group is under ready state
 962:SYS/task_manager/task_manager.c ****     if (NxtRunTsk_Ptr != NULL)
 1197              		.loc 1 962 5 view .LVU346
 1198              		.loc 1 962 23 is_stmt 0 view .LVU347
ARM GAS  /tmp/cc3rJM77.s 			page 42


 1199 0002 094B     		ldr	r3, .L79
 1200 0004 1868     		ldr	r0, [r3]
 1201              		.loc 1 962 8 view .LVU348
 1202 0006 00B9     		cbnz	r0, .L77
 963:SYS/task_manager/task_manager.c ****     {
 964:SYS/task_manager/task_manager.c ****         i++;
 965:SYS/task_manager/task_manager.c ****         if (i == TskCrt_RegList.num)
 966:SYS/task_manager/task_manager.c ****         {
 967:SYS/task_manager/task_manager.c ****             traverse_start = true;
 968:SYS/task_manager/task_manager.c ****         }
 969:SYS/task_manager/task_manager.c **** 
 970:SYS/task_manager/task_manager.c ****         //execute task function in function matrix
 971:SYS/task_manager/task_manager.c ****         Task_Exec(NxtRunTsk_Ptr);
 972:SYS/task_manager/task_manager.c ****     }
 973:SYS/task_manager/task_manager.c **** }
 1203              		.loc 1 973 1 view .LVU349
 1204 0008 08BD     		pop	{r3, pc}
 1205              	.L77:
 964:SYS/task_manager/task_manager.c ****         if (i == TskCrt_RegList.num)
 1206              		.loc 1 964 9 is_stmt 1 view .LVU350
 964:SYS/task_manager/task_manager.c ****         if (i == TskCrt_RegList.num)
 1207              		.loc 1 964 10 is_stmt 0 view .LVU351
 1208 000a 084A     		ldr	r2, .L79+4
 1209 000c 1378     		ldrb	r3, [r2]	@ zero_extendqisi2
 1210 000e 0133     		adds	r3, r3, #1
 1211 0010 DBB2     		uxtb	r3, r3
 1212 0012 1370     		strb	r3, [r2]
 965:SYS/task_manager/task_manager.c ****         {
 1213              		.loc 1 965 9 is_stmt 1 view .LVU352
 965:SYS/task_manager/task_manager.c ****         {
 1214              		.loc 1 965 32 is_stmt 0 view .LVU353
 1215 0014 064A     		ldr	r2, .L79+8
 1216 0016 1278     		ldrb	r2, [r2]	@ zero_extendqisi2
 965:SYS/task_manager/task_manager.c ****         {
 1217              		.loc 1 965 12 view .LVU354
 1218 0018 9342     		cmp	r3, r2
 1219 001a 01D0     		beq	.L78
 1220              	.L75:
 971:SYS/task_manager/task_manager.c ****     }
 1221              		.loc 1 971 9 is_stmt 1 view .LVU355
 1222 001c FFF7FEFF 		bl	Task_Exec
 1223              	.LVL86:
 1224              	.L78:
 967:SYS/task_manager/task_manager.c ****         }
 1225              		.loc 1 967 13 view .LVU356
 967:SYS/task_manager/task_manager.c ****         }
 1226              		.loc 1 967 28 is_stmt 0 view .LVU357
 1227 0020 044B     		ldr	r3, .L79+12
 1228 0022 0122     		movs	r2, #1
 1229 0024 1A70     		strb	r2, [r3]
 1230 0026 F9E7     		b	.L75
 1231              	.L80:
 1232              		.align	2
 1233              	.L79:
 1234 0028 00000000 		.word	.LANCHOR9
 1235 002c 00000000 		.word	.LANCHOR10
 1236 0030 00000000 		.word	.LANCHOR3
ARM GAS  /tmp/cc3rJM77.s 			page 43


 1237 0034 00000000 		.word	.LANCHOR11
 1238              		.cfi_endproc
 1239              	.LFE168:
 1241              		.section	.text.Task_CrtList_TraversePoll_callback,"ax",%progbits
 1242              		.align	1
 1243              		.syntax unified
 1244              		.thumb
 1245              		.thumb_func
 1246              		.fpu fpv4-sp-d16
 1248              	Task_CrtList_TraversePoll_callback:
 1249              	.LVL87:
 1250              	.LFB171:
 974:SYS/task_manager/task_manager.c **** 
 975:SYS/task_manager/task_manager.c **** void TaskSys_Set_State(TaskSys_State state)
 976:SYS/task_manager/task_manager.c **** {
 977:SYS/task_manager/task_manager.c ****     TskSys_state = state;
 978:SYS/task_manager/task_manager.c **** }
 979:SYS/task_manager/task_manager.c **** 
 980:SYS/task_manager/task_manager.c **** TaskSys_State TaskSys_Get_State(void)
 981:SYS/task_manager/task_manager.c **** {
 982:SYS/task_manager/task_manager.c ****     return TskSys_state;
 983:SYS/task_manager/task_manager.c **** }
 984:SYS/task_manager/task_manager.c **** 
 985:SYS/task_manager/task_manager.c **** static void Task_CrtList_TraversePoll_callback(item_obj *item, void *data, void *arg)
 986:SYS/task_manager/task_manager.c **** {
 1251              		.loc 1 986 1 is_stmt 1 view -0
 1252              		.cfi_startproc
 1253              		@ args = 0, pretend = 0, frame = 0
 1254              		@ frame_needed = 0, uses_anonymous_args = 0
 987:SYS/task_manager/task_manager.c ****     if (data != NULL)
 1255              		.loc 1 987 5 view .LVU359
 1256              		.loc 1 987 8 is_stmt 0 view .LVU360
 1257 0000 A9B1     		cbz	r1, .L84
 986:SYS/task_manager/task_manager.c ****     if (data != NULL)
 1258              		.loc 1 986 1 view .LVU361
 1259 0002 10B5     		push	{r4, lr}
 1260              	.LCFI22:
 1261              		.cfi_def_cfa_offset 8
 1262              		.cfi_offset 4, -8
 1263              		.cfi_offset 14, -4
 1264 0004 0C46     		mov	r4, r1
 988:SYS/task_manager/task_manager.c ****     {
 989:SYS/task_manager/task_manager.c ****         //get current highest priority task handler AKA NxtRunTsk_Ptr
 990:SYS/task_manager/task_manager.c **** 
 991:SYS/task_manager/task_manager.c ****         if ((TskSys_state == TaskSys_Start) &&
 1265              		.loc 1 991 9 is_stmt 1 view .LVU362
 1266              		.loc 1 991 27 is_stmt 0 view .LVU363
 1267 0006 0A4B     		ldr	r3, .L88
 1268 0008 1B78     		ldrb	r3, [r3]	@ zero_extendqisi2
 1269 000a DBB2     		uxtb	r3, r3
 1270              		.loc 1 991 12 view .LVU364
 1271 000c 022B     		cmp	r3, #2
 1272 000e 00D0     		beq	.L87
 1273              	.LVL88:
 1274              	.L81:
 992:SYS/task_manager/task_manager.c ****             (((Task *)data)->Exec_status.State == Task_Stop) &&
 993:SYS/task_manager/task_manager.c ****             (!RuntimeObj_CompareWithCurrent(((Task *)data)->Exec_status.Exec_Time)))
ARM GAS  /tmp/cc3rJM77.s 			page 44


 994:SYS/task_manager/task_manager.c ****         {
 995:SYS/task_manager/task_manager.c ****             Task_SetReady((Task *)data);
 996:SYS/task_manager/task_manager.c ****         }
 997:SYS/task_manager/task_manager.c ****     }
 998:SYS/task_manager/task_manager.c **** }
 1275              		.loc 1 998 1 view .LVU365
 1276 0010 10BD     		pop	{r4, pc}
 1277              	.LVL89:
 1278              	.L87:
 992:SYS/task_manager/task_manager.c ****             (((Task *)data)->Exec_status.State == Task_Stop) &&
 1279              		.loc 1 992 41 discriminator 1 view .LVU366
 1280 0012 91F84830 		ldrb	r3, [r1, #72]	@ zero_extendqisi2
 991:SYS/task_manager/task_manager.c ****             (((Task *)data)->Exec_status.State == Task_Stop) &&
 1281              		.loc 1 991 45 discriminator 1 view .LVU367
 1282 0016 022B     		cmp	r3, #2
 1283 0018 FAD1     		bne	.L81
 993:SYS/task_manager/task_manager.c ****         {
 1284              		.loc 1 993 15 view .LVU368
 1285 001a 486A     		ldr	r0, [r1, #36]
 1286              	.LVL90:
 993:SYS/task_manager/task_manager.c ****         {
 1287              		.loc 1 993 15 view .LVU369
 1288 001c 896A     		ldr	r1, [r1, #40]
 1289              	.LVL91:
 993:SYS/task_manager/task_manager.c ****         {
 1290              		.loc 1 993 15 view .LVU370
 1291 001e FFF7FEFF 		bl	RuntimeObj_CompareWithCurrent
 1292              	.LVL92:
 992:SYS/task_manager/task_manager.c ****             (((Task *)data)->Exec_status.State == Task_Stop) &&
 1293              		.loc 1 992 62 view .LVU371
 1294 0022 0028     		cmp	r0, #0
 1295 0024 F4D1     		bne	.L81
 995:SYS/task_manager/task_manager.c ****         }
 1296              		.loc 1 995 13 is_stmt 1 view .LVU372
 1297 0026 2046     		mov	r0, r4
 1298 0028 FFF7FEFF 		bl	Task_SetReady
 1299              	.LVL93:
 1300              		.loc 1 998 1 is_stmt 0 view .LVU373
 1301 002c F0E7     		b	.L81
 1302              	.LVL94:
 1303              	.L84:
 1304              	.LCFI23:
 1305              		.cfi_def_cfa_offset 0
 1306              		.cfi_restore 4
 1307              		.cfi_restore 14
 1308              		.loc 1 998 1 view .LVU374
 1309 002e 7047     		bx	lr
 1310              	.L89:
 1311              		.align	2
 1312              	.L88:
 1313 0030 00000000 		.word	.LANCHOR5
 1314              		.cfi_endproc
 1315              	.LFE171:
 1317              		.section	.text.Task_Resume_FromBlock,"ax",%progbits
 1318              		.align	1
 1319              		.global	Task_Resume_FromBlock
 1320              		.syntax unified
ARM GAS  /tmp/cc3rJM77.s 			page 45


 1321              		.thumb
 1322              		.thumb_func
 1323              		.fpu fpv4-sp-d16
 1325              	Task_Resume_FromBlock:
 1326              	.LVL95:
 1327              	.LFB131:
 203:SYS/task_manager/task_manager.c ****     Task_ClearBlock(tsk);
 1328              		.loc 1 203 1 is_stmt 1 view -0
 1329              		.cfi_startproc
 1330              		@ args = 0, pretend = 0, frame = 0
 1331              		@ frame_needed = 0, uses_anonymous_args = 0
 203:SYS/task_manager/task_manager.c ****     Task_ClearBlock(tsk);
 1332              		.loc 1 203 1 is_stmt 0 view .LVU376
 1333 0000 10B5     		push	{r4, lr}
 1334              	.LCFI24:
 1335              		.cfi_def_cfa_offset 8
 1336              		.cfi_offset 4, -8
 1337              		.cfi_offset 14, -4
 1338 0002 0446     		mov	r4, r0
 204:SYS/task_manager/task_manager.c ****     Task_SetReady(tsk);
 1339              		.loc 1 204 5 is_stmt 1 view .LVU377
 1340 0004 FFF7FEFF 		bl	Task_ClearBlock
 1341              	.LVL96:
 205:SYS/task_manager/task_manager.c ****     //Task_Set_CountRunnigTime_State(tsk, ENABLE);
 1342              		.loc 1 205 5 view .LVU378
 1343 0008 2046     		mov	r0, r4
 1344 000a FFF7FEFF 		bl	Task_SetReady
 1345              	.LVL97:
 208:SYS/task_manager/task_manager.c ****     NxtTsk_TCB.Top_Stk_Ptr = &tsk->TCB.Top_Stk_Ptr;
 1346              		.loc 1 208 5 view .LVU379
 208:SYS/task_manager/task_manager.c ****     NxtTsk_TCB.Top_Stk_Ptr = &tsk->TCB.Top_Stk_Ptr;
 1347              		.loc 1 208 28 is_stmt 0 view .LVU380
 1348 000e 0123     		movs	r3, #1
 1349 0010 84F84830 		strb	r3, [r4, #72]
 209:SYS/task_manager/task_manager.c ****     NxtTsk_TCB.Stack = tsk->TCB.Stack;
 1350              		.loc 1 209 5 is_stmt 1 view .LVU381
 209:SYS/task_manager/task_manager.c ****     NxtTsk_TCB.Stack = tsk->TCB.Stack;
 1351              		.loc 1 209 30 is_stmt 0 view .LVU382
 1352 0014 04F15002 		add	r2, r4, #80
 209:SYS/task_manager/task_manager.c ****     NxtTsk_TCB.Stack = tsk->TCB.Stack;
 1353              		.loc 1 209 28 view .LVU383
 1354 0018 034B     		ldr	r3, .L92
 1355 001a 1A60     		str	r2, [r3]
 210:SYS/task_manager/task_manager.c ****     CurRunTsk_Ptr = tsk;
 1356              		.loc 1 210 5 is_stmt 1 view .LVU384
 210:SYS/task_manager/task_manager.c ****     CurRunTsk_Ptr = tsk;
 1357              		.loc 1 210 32 is_stmt 0 view .LVU385
 1358 001c 626D     		ldr	r2, [r4, #84]
 210:SYS/task_manager/task_manager.c ****     CurRunTsk_Ptr = tsk;
 1359              		.loc 1 210 22 view .LVU386
 1360 001e 5A60     		str	r2, [r3, #4]
 211:SYS/task_manager/task_manager.c **** }
 1361              		.loc 1 211 5 is_stmt 1 view .LVU387
 211:SYS/task_manager/task_manager.c **** }
 1362              		.loc 1 211 19 is_stmt 0 view .LVU388
 1363 0020 024B     		ldr	r3, .L92+4
 1364 0022 1C60     		str	r4, [r3]
ARM GAS  /tmp/cc3rJM77.s 			page 46


 212:SYS/task_manager/task_manager.c **** 
 1365              		.loc 1 212 1 view .LVU389
 1366 0024 10BD     		pop	{r4, pc}
 1367              	.LVL98:
 1368              	.L93:
 212:SYS/task_manager/task_manager.c **** 
 1369              		.loc 1 212 1 view .LVU390
 1370 0026 00BF     		.align	2
 1371              	.L92:
 1372 0028 00000000 		.word	NxtTsk_TCB
 1373 002c 00000000 		.word	.LANCHOR4
 1374              		.cfi_endproc
 1375              	.LFE131:
 1377              		.section	.text.Task_SetBlock,"ax",%progbits
 1378              		.align	1
 1379              		.global	Task_SetBlock
 1380              		.syntax unified
 1381              		.thumb
 1382              		.thumb_func
 1383              		.fpu fpv4-sp-d16
 1385              	Task_SetBlock:
 1386              	.LVL99:
 1387              	.LFB132:
 215:SYS/task_manager/task_manager.c ****     uint8_t grp_id = GET_TASKGROUP_PRIORITY(tsk->priority.Priority);
 1388              		.loc 1 215 1 is_stmt 1 view -0
 1389              		.cfi_startproc
 1390              		@ args = 0, pretend = 0, frame = 0
 1391              		@ frame_needed = 0, uses_anonymous_args = 0
 215:SYS/task_manager/task_manager.c ****     uint8_t grp_id = GET_TASKGROUP_PRIORITY(tsk->priority.Priority);
 1392              		.loc 1 215 1 is_stmt 0 view .LVU392
 1393 0000 70B5     		push	{r4, r5, r6, lr}
 1394              	.LCFI25:
 1395              		.cfi_def_cfa_offset 16
 1396              		.cfi_offset 4, -16
 1397              		.cfi_offset 5, -12
 1398              		.cfi_offset 6, -8
 1399              		.cfi_offset 14, -4
 216:SYS/task_manager/task_manager.c ****     uint8_t tsk_id = GET_TASKINGROUP_PRIORITY(tsk->priority.Priority);
 1400              		.loc 1 216 5 is_stmt 1 view .LVU393
 216:SYS/task_manager/task_manager.c ****     uint8_t tsk_id = GET_TASKINGROUP_PRIORITY(tsk->priority.Priority);
 1401              		.loc 1 216 22 is_stmt 0 view .LVU394
 1402 0002 0378     		ldrb	r3, [r0]	@ zero_extendqisi2
 216:SYS/task_manager/task_manager.c ****     uint8_t tsk_id = GET_TASKINGROUP_PRIORITY(tsk->priority.Priority);
 1403              		.loc 1 216 13 view .LVU395
 1404 0004 DD08     		lsrs	r5, r3, #3
 1405              	.LVL100:
 217:SYS/task_manager/task_manager.c **** 
 1406              		.loc 1 217 5 is_stmt 1 view .LVU396
 217:SYS/task_manager/task_manager.c **** 
 1407              		.loc 1 217 13 is_stmt 0 view .LVU397
 1408 0006 03F00706 		and	r6, r3, #7
 1409              	.LVL101:
 220:SYS/task_manager/task_manager.c ****     //set current task under this group flag to block
 1410              		.loc 1 220 5 is_stmt 1 view .LVU398
 220:SYS/task_manager/task_manager.c ****     //set current task under this group flag to block
 1411              		.loc 1 220 27 is_stmt 0 view .LVU399
 1412 000a 134A     		ldr	r2, .L97
ARM GAS  /tmp/cc3rJM77.s 			page 47


 1413 000c 1178     		ldrb	r1, [r2]	@ zero_extendqisi2
 220:SYS/task_manager/task_manager.c ****     //set current task under this group flag to block
 1414              		.loc 1 220 32 view .LVU400
 1415 000e 0123     		movs	r3, #1
 1416 0010 03FA05F4 		lsl	r4, r3, r5
 220:SYS/task_manager/task_manager.c ****     //set current task under this group flag to block
 1417              		.loc 1 220 27 view .LVU401
 1418 0014 64B2     		sxtb	r4, r4
 1419 0016 2143     		orrs	r1, r1, r4
 1420 0018 C9B2     		uxtb	r1, r1
 1421 001a 1170     		strb	r1, [r2]
 222:SYS/task_manager/task_manager.c **** 
 1422              		.loc 1 222 5 is_stmt 1 view .LVU402
 222:SYS/task_manager/task_manager.c **** 
 1423              		.loc 1 222 40 is_stmt 0 view .LVU403
 1424 001c 2A44     		add	r2, r2, r5
 1425 001e 5178     		ldrb	r1, [r2, #1]	@ zero_extendqisi2
 222:SYS/task_manager/task_manager.c **** 
 1426              		.loc 1 222 45 view .LVU404
 1427 0020 B340     		lsls	r3, r3, r6
 222:SYS/task_manager/task_manager.c **** 
 1428              		.loc 1 222 40 view .LVU405
 1429 0022 5BB2     		sxtb	r3, r3
 1430 0024 1943     		orrs	r1, r1, r3
 1431 0026 C9B2     		uxtb	r1, r1
 1432 0028 5170     		strb	r1, [r2, #1]
 225:SYS/task_manager/task_manager.c ****     //if no task ready then clear group reg
 1433              		.loc 1 225 5 is_stmt 1 view .LVU406
 225:SYS/task_manager/task_manager.c ****     //if no task ready then clear group reg
 1434              		.loc 1 225 40 is_stmt 0 view .LVU407
 1435 002a 0C4A     		ldr	r2, .L97+4
 1436 002c 2A44     		add	r2, r2, r5
 1437 002e 5178     		ldrb	r1, [r2, #1]	@ zero_extendqisi2
 1438 0030 21EA0303 		bic	r3, r1, r3
 1439 0034 5370     		strb	r3, [r2, #1]
 227:SYS/task_manager/task_manager.c ****     {
 1440              		.loc 1 227 5 is_stmt 1 view .LVU408
 227:SYS/task_manager/task_manager.c ****     {
 1441              		.loc 1 227 39 is_stmt 0 view .LVU409
 1442 0036 5378     		ldrb	r3, [r2, #1]	@ zero_extendqisi2
 227:SYS/task_manager/task_manager.c ****     {
 1443              		.loc 1 227 8 view .LVU410
 1444 0038 23B9     		cbnz	r3, .L95
 229:SYS/task_manager/task_manager.c ****     }
 1445              		.loc 1 229 9 is_stmt 1 view .LVU411
 229:SYS/task_manager/task_manager.c ****     }
 1446              		.loc 1 229 31 is_stmt 0 view .LVU412
 1447 003a 084A     		ldr	r2, .L97+4
 1448 003c 1378     		ldrb	r3, [r2]	@ zero_extendqisi2
 1449 003e 23EA0404 		bic	r4, r3, r4
 1450 0042 1470     		strb	r4, [r2]
 1451              	.L95:
 233:SYS/task_manager/task_manager.c **** 
 1452              		.loc 1 233 5 is_stmt 1 view .LVU413
 233:SYS/task_manager/task_manager.c **** 
 1453              		.loc 1 233 28 is_stmt 0 view .LVU414
 1454 0044 0323     		movs	r3, #3
ARM GAS  /tmp/cc3rJM77.s 			page 48


 1455 0046 80F84830 		strb	r3, [r0, #72]
 238:SYS/task_manager/task_manager.c **** 
 1456              		.loc 1 238 5 is_stmt 1 view .LVU415
 238:SYS/task_manager/task_manager.c **** 
 1457              		.loc 1 238 19 is_stmt 0 view .LVU416
 1458 004a 0020     		movs	r0, #0
 1459              	.LVL102:
 238:SYS/task_manager/task_manager.c **** 
 1460              		.loc 1 238 19 view .LVU417
 1461 004c 044B     		ldr	r3, .L97+8
 1462 004e 1860     		str	r0, [r3]
 240:SYS/task_manager/task_manager.c **** }
 1463              		.loc 1 240 5 is_stmt 1 view .LVU418
 1464 0050 FFF7FEFF 		bl	Task_SetBASEPRI
 1465              	.LVL103:
 241:SYS/task_manager/task_manager.c **** 
 1466              		.loc 1 241 1 is_stmt 0 view .LVU419
 1467 0054 70BD     		pop	{r4, r5, r6, pc}
 1468              	.LVL104:
 1469              	.L98:
 241:SYS/task_manager/task_manager.c **** 
 1470              		.loc 1 241 1 view .LVU420
 1471 0056 00BF     		.align	2
 1472              	.L97:
 1473 0058 00000000 		.word	.LANCHOR1
 1474 005c 00000000 		.word	.LANCHOR0
 1475 0060 00000000 		.word	.LANCHOR4
 1476              		.cfi_endproc
 1477              	.LFE132:
 1479              		.section	.text.Task_SetPending,"ax",%progbits
 1480              		.align	1
 1481              		.global	Task_SetPending
 1482              		.syntax unified
 1483              		.thumb
 1484              		.thumb_func
 1485              		.fpu fpv4-sp-d16
 1487              	Task_SetPending:
 1488              	.LVL105:
 1489              	.LFB133:
 244:SYS/task_manager/task_manager.c ****     uint8_t grp_id = GET_TASKGROUP_PRIORITY(tsk->priority.Priority);
 1490              		.loc 1 244 1 is_stmt 1 view -0
 1491              		.cfi_startproc
 1492              		@ args = 0, pretend = 0, frame = 0
 1493              		@ frame_needed = 0, uses_anonymous_args = 0
 1494              		@ link register save eliminated.
 244:SYS/task_manager/task_manager.c ****     uint8_t grp_id = GET_TASKGROUP_PRIORITY(tsk->priority.Priority);
 1495              		.loc 1 244 1 is_stmt 0 view .LVU422
 1496 0000 70B4     		push	{r4, r5, r6}
 1497              	.LCFI26:
 1498              		.cfi_def_cfa_offset 12
 1499              		.cfi_offset 4, -12
 1500              		.cfi_offset 5, -8
 1501              		.cfi_offset 6, -4
 245:SYS/task_manager/task_manager.c ****     uint8_t tsk_id = GET_TASKINGROUP_PRIORITY(tsk->priority.Priority);
 1502              		.loc 1 245 5 is_stmt 1 view .LVU423
 245:SYS/task_manager/task_manager.c ****     uint8_t tsk_id = GET_TASKINGROUP_PRIORITY(tsk->priority.Priority);
 1503              		.loc 1 245 22 is_stmt 0 view .LVU424
ARM GAS  /tmp/cc3rJM77.s 			page 49


 1504 0002 0478     		ldrb	r4, [r0]	@ zero_extendqisi2
 245:SYS/task_manager/task_manager.c ****     uint8_t tsk_id = GET_TASKINGROUP_PRIORITY(tsk->priority.Priority);
 1505              		.loc 1 245 13 view .LVU425
 1506 0004 E208     		lsrs	r2, r4, #3
 1507              	.LVL106:
 246:SYS/task_manager/task_manager.c **** 
 1508              		.loc 1 246 5 is_stmt 1 view .LVU426
 246:SYS/task_manager/task_manager.c **** 
 1509              		.loc 1 246 13 is_stmt 0 view .LVU427
 1510 0006 04F00705 		and	r5, r4, #7
 1511              	.LVL107:
 249:SYS/task_manager/task_manager.c ****     //set current task under this group flag to ready
 1512              		.loc 1 249 5 is_stmt 1 view .LVU428
 249:SYS/task_manager/task_manager.c ****     //set current task under this group flag to ready
 1513              		.loc 1 249 27 is_stmt 0 view .LVU429
 1514 000a 094B     		ldr	r3, .L101
 1515 000c 1978     		ldrb	r1, [r3]	@ zero_extendqisi2
 249:SYS/task_manager/task_manager.c ****     //set current task under this group flag to ready
 1516              		.loc 1 249 32 view .LVU430
 1517 000e 0124     		movs	r4, #1
 1518 0010 04FA02F6 		lsl	r6, r4, r2
 249:SYS/task_manager/task_manager.c ****     //set current task under this group flag to ready
 1519              		.loc 1 249 27 view .LVU431
 1520 0014 3143     		orrs	r1, r1, r6
 1521 0016 C9B2     		uxtb	r1, r1
 1522 0018 1970     		strb	r1, [r3]
 251:SYS/task_manager/task_manager.c **** 
 1523              		.loc 1 251 5 is_stmt 1 view .LVU432
 251:SYS/task_manager/task_manager.c **** 
 1524              		.loc 1 251 40 is_stmt 0 view .LVU433
 1525 001a 1344     		add	r3, r3, r2
 1526 001c 5A78     		ldrb	r2, [r3, #1]	@ zero_extendqisi2
 1527              	.LVL108:
 251:SYS/task_manager/task_manager.c **** 
 1528              		.loc 1 251 45 view .LVU434
 1529 001e AC40     		lsls	r4, r4, r5
 251:SYS/task_manager/task_manager.c **** 
 1530              		.loc 1 251 40 view .LVU435
 1531 0020 2243     		orrs	r2, r2, r4
 1532 0022 D2B2     		uxtb	r2, r2
 1533 0024 5A70     		strb	r2, [r3, #1]
 254:SYS/task_manager/task_manager.c **** }
 1534              		.loc 1 254 5 is_stmt 1 view .LVU436
 254:SYS/task_manager/task_manager.c **** }
 1535              		.loc 1 254 28 is_stmt 0 view .LVU437
 1536 0026 0423     		movs	r3, #4
 1537 0028 80F84830 		strb	r3, [r0, #72]
 255:SYS/task_manager/task_manager.c **** 
 1538              		.loc 1 255 1 view .LVU438
 1539 002c 70BC     		pop	{r4, r5, r6}
 1540              	.LCFI27:
 1541              		.cfi_restore 6
 1542              		.cfi_restore 5
 1543              		.cfi_restore 4
 1544              		.cfi_def_cfa_offset 0
 1545              	.LVL109:
 255:SYS/task_manager/task_manager.c **** 
ARM GAS  /tmp/cc3rJM77.s 			page 50


 1546              		.loc 1 255 1 view .LVU439
 1547 002e 7047     		bx	lr
 1548              	.L102:
 1549              		.align	2
 1550              	.L101:
 1551 0030 00000000 		.word	.LANCHOR2
 1552              		.cfi_endproc
 1553              	.LFE133:
 1555              		.section	.text.Task_SwitchStack,"ax",%progbits
 1556              		.align	1
 1557              		.global	Task_SwitchStack
 1558              		.syntax unified
 1559              		.thumb
 1560              		.thumb_func
 1561              		.fpu fpv4-sp-d16
 1563              	Task_SwitchStack:
 1564              	.LFB134:
 258:SYS/task_manager/task_manager.c ****     CurTsk_TCB = NxtTsk_TCB;
 1565              		.loc 1 258 1 is_stmt 1 view -0
 1566              		.cfi_startproc
 1567              		@ args = 0, pretend = 0, frame = 0
 1568              		@ frame_needed = 0, uses_anonymous_args = 0
 1569              		@ link register save eliminated.
 259:SYS/task_manager/task_manager.c **** }
 1570              		.loc 1 259 5 view .LVU441
 259:SYS/task_manager/task_manager.c **** }
 1571              		.loc 1 259 16 is_stmt 0 view .LVU442
 1572 0000 034B     		ldr	r3, .L104
 1573 0002 044A     		ldr	r2, .L104+4
 1574 0004 92E80300 		ldm	r2, {r0, r1}
 1575 0008 83E80300 		stm	r3, {r0, r1}
 260:SYS/task_manager/task_manager.c **** 
 1576              		.loc 1 260 1 view .LVU443
 1577 000c 7047     		bx	lr
 1578              	.L105:
 1579 000e 00BF     		.align	2
 1580              	.L104:
 1581 0010 00000000 		.word	CurTsk_TCB
 1582 0014 00000000 		.word	NxtTsk_TCB
 1583              		.cfi_endproc
 1584              	.LFE134:
 1586              		.section	.text.Task_Get_HighestRank_PndTask,"ax",%progbits
 1587              		.align	1
 1588              		.global	Task_Get_HighestRank_PndTask
 1589              		.syntax unified
 1590              		.thumb
 1591              		.thumb_func
 1592              		.fpu fpv4-sp-d16
 1594              	Task_Get_HighestRank_PndTask:
 1595              	.LFB135:
 263:SYS/task_manager/task_manager.c ****     uint8_t grp_id;
 1596              		.loc 1 263 1 is_stmt 1 view -0
 1597              		.cfi_startproc
 1598              		@ args = 0, pretend = 0, frame = 0
 1599              		@ frame_needed = 0, uses_anonymous_args = 0
 1600              		@ link register save eliminated.
 264:SYS/task_manager/task_manager.c ****     uint8_t tsk_id;
ARM GAS  /tmp/cc3rJM77.s 			page 51


 1601              		.loc 1 264 5 view .LVU445
 265:SYS/task_manager/task_manager.c **** 
 1602              		.loc 1 265 5 view .LVU446
 267:SYS/task_manager/task_manager.c ****     {
 1603              		.loc 1 267 5 view .LVU447
 267:SYS/task_manager/task_manager.c ****     {
 1604              		.loc 1 267 26 is_stmt 0 view .LVU448
 1605 0000 134B     		ldr	r3, .L114
 1606 0002 1B78     		ldrb	r3, [r3]	@ zero_extendqisi2
 267:SYS/task_manager/task_manager.c ****     {
 1607              		.loc 1 267 8 view .LVU449
 1608 0004 0BB3     		cbz	r3, .L108
 270:SYS/task_manager/task_manager.c ****         //find task in group
 1609              		.loc 1 270 9 is_stmt 1 view .LVU450
 270:SYS/task_manager/task_manager.c ****         //find task in group
 1610              		.loc 1 270 46 is_stmt 0 view .LVU451
 1611 0006 124B     		ldr	r3, .L114
 1612 0008 1A78     		ldrb	r2, [r3]	@ zero_extendqisi2
 1613 000a D2B2     		uxtb	r2, r2
 270:SYS/task_manager/task_manager.c ****         //find task in group
 1614              		.loc 1 270 16 view .LVU452
 1615 000c 1149     		ldr	r1, .L114+4
 1616 000e 8A5C     		ldrb	r2, [r1, r2]	@ zero_extendqisi2
 272:SYS/task_manager/task_manager.c ****     }
 1617              		.loc 1 272 9 is_stmt 1 view .LVU453
 272:SYS/task_manager/task_manager.c ****     }
 1618              		.loc 1 272 59 is_stmt 0 view .LVU454
 1619 0010 1344     		add	r3, r3, r2
 1620 0012 5B78     		ldrb	r3, [r3, #1]	@ zero_extendqisi2
 1621 0014 DBB2     		uxtb	r3, r3
 272:SYS/task_manager/task_manager.c ****     }
 1622              		.loc 1 272 16 view .LVU455
 1623 0016 CB5C     		ldrb	r3, [r1, r3]	@ zero_extendqisi2
 277:SYS/task_manager/task_manager.c ****     {
 1624              		.loc 1 277 5 is_stmt 1 view .LVU456
 277:SYS/task_manager/task_manager.c ****     {
 1625              		.loc 1 277 25 is_stmt 0 view .LVU457
 1626 0018 03EBC200 		add	r0, r3, r2, lsl #3
 1627 001c 0E49     		ldr	r1, .L114+8
 1628 001e 51F82000 		ldr	r0, [r1, r0, lsl #2]
 277:SYS/task_manager/task_manager.c ****     {
 1629              		.loc 1 277 8 view .LVU458
 1630 0022 00B1     		cbz	r0, .L113
 287:SYS/task_manager/task_manager.c **** 
 1631              		.loc 1 287 1 view .LVU459
 1632 0024 7047     		bx	lr
 1633              	.L113:
 263:SYS/task_manager/task_manager.c ****     uint8_t grp_id;
 1634              		.loc 1 263 1 view .LVU460
 1635 0026 70B4     		push	{r4, r5, r6}
 1636              	.LCFI28:
 1637              		.cfi_def_cfa_offset 12
 1638              		.cfi_offset 4, -12
 1639              		.cfi_offset 5, -8
 1640              		.cfi_offset 6, -4
 283:SYS/task_manager/task_manager.c ****         TskHdl_PndMap.TskInGrp[grp_id].Flg &= ~(1 << tsk_id);
 1641              		.loc 1 283 9 is_stmt 1 view .LVU461
ARM GAS  /tmp/cc3rJM77.s 			page 52


 283:SYS/task_manager/task_manager.c ****         TskHdl_PndMap.TskInGrp[grp_id].Flg &= ~(1 << tsk_id);
 1642              		.loc 1 283 31 is_stmt 0 view .LVU462
 1643 0028 0949     		ldr	r1, .L114
 1644 002a 0D78     		ldrb	r5, [r1]	@ zero_extendqisi2
 283:SYS/task_manager/task_manager.c ****         TskHdl_PndMap.TskInGrp[grp_id].Flg &= ~(1 << tsk_id);
 1645              		.loc 1 283 38 view .LVU463
 1646 002c 0124     		movs	r4, #1
 1647 002e 04FA02F6 		lsl	r6, r4, r2
 283:SYS/task_manager/task_manager.c ****         TskHdl_PndMap.TskInGrp[grp_id].Flg &= ~(1 << tsk_id);
 1648              		.loc 1 283 31 view .LVU464
 1649 0032 25EA0605 		bic	r5, r5, r6
 1650 0036 0D70     		strb	r5, [r1]
 284:SYS/task_manager/task_manager.c ****         return NULL;
 1651              		.loc 1 284 9 is_stmt 1 view .LVU465
 284:SYS/task_manager/task_manager.c ****         return NULL;
 1652              		.loc 1 284 44 is_stmt 0 view .LVU466
 1653 0038 0A44     		add	r2, r2, r1
 1654 003a 5178     		ldrb	r1, [r2, #1]	@ zero_extendqisi2
 284:SYS/task_manager/task_manager.c ****         return NULL;
 1655              		.loc 1 284 51 view .LVU467
 1656 003c 04FA03F3 		lsl	r3, r4, r3
 284:SYS/task_manager/task_manager.c ****         return NULL;
 1657              		.loc 1 284 44 view .LVU468
 1658 0040 21EA0303 		bic	r3, r1, r3
 1659 0044 5370     		strb	r3, [r2, #1]
 285:SYS/task_manager/task_manager.c ****     }
 1660              		.loc 1 285 9 is_stmt 1 view .LVU469
 287:SYS/task_manager/task_manager.c **** 
 1661              		.loc 1 287 1 is_stmt 0 view .LVU470
 1662 0046 70BC     		pop	{r4, r5, r6}
 1663              	.LCFI29:
 1664              		.cfi_restore 6
 1665              		.cfi_restore 5
 1666              		.cfi_restore 4
 1667              		.cfi_def_cfa_offset 0
 1668 0048 7047     		bx	lr
 1669              	.L108:
 275:SYS/task_manager/task_manager.c **** 
 1670              		.loc 1 275 16 view .LVU471
 1671 004a 0020     		movs	r0, #0
 1672 004c 7047     		bx	lr
 1673              	.L115:
 1674 004e 00BF     		.align	2
 1675              	.L114:
 1676 0050 00000000 		.word	.LANCHOR2
 1677 0054 00000000 		.word	.LANCHOR12
 1678 0058 00000000 		.word	Task_Ptr
 1679              		.cfi_endproc
 1680              	.LFE135:
 1682              		.section	.text.Task_SaveCurProc,"ax",%progbits
 1683              		.align	1
 1684              		.global	Task_SaveCurProc
 1685              		.syntax unified
 1686              		.thumb
 1687              		.thumb_func
 1688              		.fpu fpv4-sp-d16
 1690              	Task_SaveCurProc:
ARM GAS  /tmp/cc3rJM77.s 			page 53


 1691              	.LFB140:
 340:SYS/task_manager/task_manager.c ****     __ASM("MRS    R0, PSP");
 1692              		.loc 1 340 1 is_stmt 1 view -0
 1693              		.cfi_startproc
 1694              		@ Naked Function: prologue and epilogue provided by programmer.
 1695              		@ args = 0, pretend = 0, frame = 0
 1696              		@ frame_needed = 0, uses_anonymous_args = 0
 341:SYS/task_manager/task_manager.c ****     __ASM("LDR	  R3, CurrentTCBConst_Tmp3");
 1697              		.loc 1 341 5 view .LVU473
 1698              		.syntax unified
 1699              	@ 341 "SYS/task_manager/task_manager.c" 1
 1700 0000 EFF30980 		MRS    R0, PSP
 1701              	@ 0 "" 2
 342:SYS/task_manager/task_manager.c ****     __ASM("LDR    R2, [R3]");
 1702              		.loc 1 342 5 view .LVU474
 1703              	@ 342 "SYS/task_manager/task_manager.c" 1
 1704 0004 DFF81C30 		LDR	  R3, CurrentTCBConst_Tmp3
 1705              	@ 0 "" 2
 343:SYS/task_manager/task_manager.c **** 
 1706              		.loc 1 343 5 view .LVU475
 1707              	@ 343 "SYS/task_manager/task_manager.c" 1
 1708 0008 1A68     		LDR    R2, [R3]
 1709              	@ 0 "" 2
 345:SYS/task_manager/task_manager.c **** 
 1710              		.loc 1 345 5 view .LVU476
 1711              	@ 345 "SYS/task_manager/task_manager.c" 1
 1712 000a BFF36F8F 		ISB
 1713              	@ 0 "" 2
 347:SYS/task_manager/task_manager.c ****     __ASM("STR      R0, [R2]");
 1714              		.loc 1 347 5 view .LVU477
 1715              	@ 347 "SYS/task_manager/task_manager.c" 1
 1716 000e 20E9F04F 		STMDB    R0!, {R4-R11, R14}
 1717              	@ 0 "" 2
 348:SYS/task_manager/task_manager.c **** 
 1718              		.loc 1 348 5 view .LVU478
 1719              	@ 348 "SYS/task_manager/task_manager.c" 1
 1720 0012 1060     		STR      R0, [R2]
 1721              	@ 0 "" 2
 351:SYS/task_manager/task_manager.c ****     __ASM("IT       EQ");
 1722              		.loc 1 351 5 view .LVU479
 1723              	@ 351 "SYS/task_manager/task_manager.c" 1
 1724 0014 1EF0100F 		TST      R14, #0x10
 1725              	@ 0 "" 2
 352:SYS/task_manager/task_manager.c ****     __ASM("VSTMDBEQ R0!, {s16-s31}");
 1726              		.loc 1 352 5 view .LVU480
 1727              	@ 352 "SYS/task_manager/task_manager.c" 1
 1728 0018 08BF     		IT       EQ
 1729              	@ 0 "" 2
 353:SYS/task_manager/task_manager.c ****     /******************************  FPU SECTION  *********************************/
 1730              		.loc 1 353 5 view .LVU481
 1731              	@ 353 "SYS/task_manager/task_manager.c" 1
 1732 001a 20ED108A 		VSTMDBEQ R0!, {s16-s31}
 1733              	@ 0 "" 2
 356:SYS/task_manager/task_manager.c ****     __ASM("BX       R14");
 1734              		.loc 1 356 5 view .LVU482
 1735              	@ 356 "SYS/task_manager/task_manager.c" 1
 1736 001e BFF36F8F 		ISB
ARM GAS  /tmp/cc3rJM77.s 			page 54


 1737              	@ 0 "" 2
 357:SYS/task_manager/task_manager.c **** 
 1738              		.loc 1 357 5 view .LVU483
 1739              	@ 357 "SYS/task_manager/task_manager.c" 1
 1740 0022 7047     		BX       R14
 1741              	@ 0 "" 2
 359:SYS/task_manager/task_manager.c **** }
 1742              		.loc 1 359 5 view .LVU484
 1743              	@ 359 "SYS/task_manager/task_manager.c" 1
 1744 0024 00000000 		CurrentTCBConst_Tmp3: .word CurTsk_TCB
 1745              	@ 0 "" 2
 360:SYS/task_manager/task_manager.c **** 
 1746              		.loc 1 360 1 is_stmt 0 view .LVU485
 1747              		.thumb
 1748              		.syntax unified
 1749              		.cfi_endproc
 1750              	.LFE140:
 1752              		.section	.text.Task_Load,"ax",%progbits
 1753              		.align	1
 1754              		.global	Task_Load
 1755              		.syntax unified
 1756              		.thumb
 1757              		.thumb_func
 1758              		.fpu fpv4-sp-d16
 1760              	Task_Load:
 1761              	.LFB141:
 363:SYS/task_manager/task_manager.c ****     __ASM("LDR	  R3, =CurTsk_TCB");
 1762              		.loc 1 363 1 is_stmt 1 view -0
 1763              		.cfi_startproc
 1764              		@ Naked Function: prologue and epilogue provided by programmer.
 1765              		@ args = 0, pretend = 0, frame = 0
 1766              		@ frame_needed = 0, uses_anonymous_args = 0
 364:SYS/task_manager/task_manager.c ****     __ASM("LDR    R1, [R3]");
 1767              		.loc 1 364 5 view .LVU487
 1768              		.syntax unified
 1769              	@ 364 "SYS/task_manager/task_manager.c" 1
 1770 0000 074B     		LDR	  R3, =CurTsk_TCB
 1771              	@ 0 "" 2
 365:SYS/task_manager/task_manager.c ****     __ASM("LDR    R0, [R1]");
 1772              		.loc 1 365 5 view .LVU488
 1773              	@ 365 "SYS/task_manager/task_manager.c" 1
 1774 0002 1968     		LDR    R1, [R3]
 1775              	@ 0 "" 2
 366:SYS/task_manager/task_manager.c **** 
 1776              		.loc 1 366 5 view .LVU489
 1777              	@ 366 "SYS/task_manager/task_manager.c" 1
 1778 0004 0868     		LDR    R0, [R1]
 1779              	@ 0 "" 2
 368:SYS/task_manager/task_manager.c **** 
 1780              		.loc 1 368 5 view .LVU490
 1781              	@ 368 "SYS/task_manager/task_manager.c" 1
 1782 0006 B0E8F04F 		LDMIA  R0!, {R4-R11, R14}
 1783              	@ 0 "" 2
 371:SYS/task_manager/task_manager.c ****     __ASM("IT       EQ");
 1784              		.loc 1 371 5 view .LVU491
 1785              	@ 371 "SYS/task_manager/task_manager.c" 1
 1786 000a 1EF0100F 		TST      R14, #0x10
ARM GAS  /tmp/cc3rJM77.s 			page 55


 1787              	@ 0 "" 2
 372:SYS/task_manager/task_manager.c ****     __ASM("VLDMIAEQ R0!, {s16-s31}");
 1788              		.loc 1 372 5 view .LVU492
 1789              	@ 372 "SYS/task_manager/task_manager.c" 1
 1790 000e 08BF     		IT       EQ
 1791              	@ 0 "" 2
 373:SYS/task_manager/task_manager.c ****     /******************************  FPU SECTION  *********************************/
 1792              		.loc 1 373 5 view .LVU493
 1793              	@ 373 "SYS/task_manager/task_manager.c" 1
 1794 0010 B0EC108A 		VLDMIAEQ R0!, {s16-s31}
 1795              	@ 0 "" 2
 376:SYS/task_manager/task_manager.c ****     __ASM("ISB");
 1796              		.loc 1 376 5 view .LVU494
 1797              	@ 376 "SYS/task_manager/task_manager.c" 1
 1798 0014 80F30988 		MSR    PSP, R0
 1799              	@ 0 "" 2
 377:SYS/task_manager/task_manager.c ****     //__ASM("MOV    R0, #240");
 1800              		.loc 1 377 5 view .LVU495
 1801              	@ 377 "SYS/task_manager/task_manager.c" 1
 1802 0018 BFF36F8F 		ISB
 1803              	@ 0 "" 2
 380:SYS/task_manager/task_manager.c ****     __ASM(".ALIGN 4");
 1804              		.loc 1 380 5 view .LVU496
 1805              	@ 380 "SYS/task_manager/task_manager.c" 1
 1806 001c 7047     		BX     R14
 1807              	@ 0 "" 2
 381:SYS/task_manager/task_manager.c **** }
 1808              		.loc 1 381 5 view .LVU497
 1809              	@ 381 "SYS/task_manager/task_manager.c" 1
 1810 001e 00BF     		.ALIGN 4
 1811              	@ 0 "" 2
 382:SYS/task_manager/task_manager.c **** 
 1812              		.loc 1 382 1 is_stmt 0 view .LVU498
 1813              		.thumb
 1814              		.syntax unified
 1815              		.cfi_endproc
 1816              	.LFE141:
 1818              		.section	.text.Load_FirstTask,"ax",%progbits
 1819              		.align	1
 1820              		.global	Load_FirstTask
 1821              		.syntax unified
 1822              		.thumb
 1823              		.thumb_func
 1824              		.fpu fpv4-sp-d16
 1826              	Load_FirstTask:
 1827              	.LFB142:
 385:SYS/task_manager/task_manager.c ****     Task_Load();
 1828              		.loc 1 385 1 is_stmt 1 view -0
 1829              		.cfi_startproc
 1830              		@ args = 0, pretend = 0, frame = 0
 1831              		@ frame_needed = 0, uses_anonymous_args = 0
 1832 0000 08B5     		push	{r3, lr}
 1833              	.LCFI30:
 1834              		.cfi_def_cfa_offset 8
 1835              		.cfi_offset 3, -8
 1836              		.cfi_offset 14, -4
 386:SYS/task_manager/task_manager.c **** }
ARM GAS  /tmp/cc3rJM77.s 			page 56


 1837              		.loc 1 386 5 view .LVU500
 1838 0002 FFF7FEFF 		bl	Task_Load
 1839              	.LVL110:
 387:SYS/task_manager/task_manager.c **** 
 1840              		.loc 1 387 1 is_stmt 0 view .LVU501
 1841 0006 08BD     		pop	{r3, pc}
 1842              		.cfi_endproc
 1843              	.LFE142:
 1845              		.section	.text.Task_SwitchContext,"ax",%progbits
 1846              		.align	1
 1847              		.global	Task_SwitchContext
 1848              		.syntax unified
 1849              		.thumb
 1850              		.thumb_func
 1851              		.fpu fpv4-sp-d16
 1853              	Task_SwitchContext:
 1854              	.LFB143:
 390:SYS/task_manager/task_manager.c ****     __ASM("MRS      R0, PSP");
 1855              		.loc 1 390 1 is_stmt 1 view -0
 1856              		.cfi_startproc
 1857              		@ Naked Function: prologue and epilogue provided by programmer.
 1858              		@ args = 0, pretend = 0, frame = 0
 1859              		@ frame_needed = 0, uses_anonymous_args = 0
 391:SYS/task_manager/task_manager.c ****     __ASM("ISB");
 1860              		.loc 1 391 5 view .LVU503
 1861              		.syntax unified
 1862              	@ 391 "SYS/task_manager/task_manager.c" 1
 1863 0000 EFF30980 		MRS      R0, PSP
 1864              	@ 0 "" 2
 392:SYS/task_manager/task_manager.c **** 
 1865              		.loc 1 392 5 view .LVU504
 1866              	@ 392 "SYS/task_manager/task_manager.c" 1
 1867 0004 BFF36F8F 		ISB
 1868              	@ 0 "" 2
 394:SYS/task_manager/task_manager.c ****     __ASM("LDR      R2, [R3]");
 1869              		.loc 1 394 5 view .LVU505
 1870              	@ 394 "SYS/task_manager/task_manager.c" 1
 1871 0008 DFF85030 		LDR      R3, CurrentTCBConst_Tmp
 1872              	@ 0 "" 2
 395:SYS/task_manager/task_manager.c **** 
 1873              		.loc 1 395 5 view .LVU506
 1874              	@ 395 "SYS/task_manager/task_manager.c" 1
 1875 000c 1A68     		LDR      R2, [R3]
 1876              	@ 0 "" 2
 398:SYS/task_manager/task_manager.c ****     __ASM("IT       EQ");
 1877              		.loc 1 398 5 view .LVU507
 1878              	@ 398 "SYS/task_manager/task_manager.c" 1
 1879 000e 1EF0100F 		TST      R14, #0x10
 1880              	@ 0 "" 2
 399:SYS/task_manager/task_manager.c ****     __ASM("VSTMDBEQ R0!, {s16-s31}");
 1881              		.loc 1 399 5 view .LVU508
 1882              	@ 399 "SYS/task_manager/task_manager.c" 1
 1883 0012 08BF     		IT       EQ
 1884              	@ 0 "" 2
 400:SYS/task_manager/task_manager.c ****     /******************************  FPU SECTION  *********************************/
 1885              		.loc 1 400 5 view .LVU509
 1886              	@ 400 "SYS/task_manager/task_manager.c" 1
ARM GAS  /tmp/cc3rJM77.s 			page 57


 1887 0014 20ED108A 		VSTMDBEQ R0!, {s16-s31}
 1888              	@ 0 "" 2
 403:SYS/task_manager/task_manager.c ****     __ASM("STR      R0, [R2]");
 1889              		.loc 1 403 5 view .LVU510
 1890              	@ 403 "SYS/task_manager/task_manager.c" 1
 1891 0018 20E9F04F 		STMDB    R0!, {R4-R11, R14}
 1892              	@ 0 "" 2
 404:SYS/task_manager/task_manager.c **** 
 1893              		.loc 1 404 5 view .LVU511
 1894              	@ 404 "SYS/task_manager/task_manager.c" 1
 1895 001c 1060     		STR      R0, [R2]
 1896              	@ 0 "" 2
 406:SYS/task_manager/task_manager.c ****     __ASM("MOV      R0, %0" ::"i"(0x50));
 1897              		.loc 1 406 5 view .LVU512
 1898              	@ 406 "SYS/task_manager/task_manager.c" 1
 1899 001e 2DE90900 		STMDB    SP!, {R0, R3}
 1900              	@ 0 "" 2
 407:SYS/task_manager/task_manager.c ****     __ASM("MSR      BASEPRI, R0");
 1901              		.loc 1 407 5 view .LVU513
 1902              	@ 407 "SYS/task_manager/task_manager.c" 1
 1903 0022 4FF05000 		MOV      R0, #80
 1904              	@ 0 "" 2
 408:SYS/task_manager/task_manager.c **** 
 1905              		.loc 1 408 5 view .LVU514
 1906              	@ 408 "SYS/task_manager/task_manager.c" 1
 1907 0026 80F31188 		MSR      BASEPRI, R0
 1908              	@ 0 "" 2
 410:SYS/task_manager/task_manager.c ****     __ASM("ISB");
 1909              		.loc 1 410 5 view .LVU515
 1910              	@ 410 "SYS/task_manager/task_manager.c" 1
 1911 002a BFF34F8F 		DSB
 1912              	@ 0 "" 2
 411:SYS/task_manager/task_manager.c **** 
 1913              		.loc 1 411 5 view .LVU516
 1914              	@ 411 "SYS/task_manager/task_manager.c" 1
 1915 002e BFF36F8F 		ISB
 1916              	@ 0 "" 2
 413:SYS/task_manager/task_manager.c **** 
 1917              		.loc 1 413 5 view .LVU517
 1918              	@ 413 "SYS/task_manager/task_manager.c" 1
 1919 0032 FFF7FEFF 		BL       Task_SwitchStack
 1920              	@ 0 "" 2
 415:SYS/task_manager/task_manager.c ****     __ASM("MSR      BASEPRI, R0");
 1921              		.loc 1 415 5 view .LVU518
 1922              	@ 415 "SYS/task_manager/task_manager.c" 1
 1923 0036 4FF00000 		MOV      R0, #0
 1924              	@ 0 "" 2
 416:SYS/task_manager/task_manager.c ****     __ASM("LDMIA    SP!, {R0, R3}");
 1925              		.loc 1 416 5 view .LVU519
 1926              	@ 416 "SYS/task_manager/task_manager.c" 1
 1927 003a 80F31188 		MSR      BASEPRI, R0
 1928              	@ 0 "" 2
 417:SYS/task_manager/task_manager.c **** 
 1929              		.loc 1 417 5 view .LVU520
 1930              	@ 417 "SYS/task_manager/task_manager.c" 1
 1931 003e 09BC     		LDMIA    SP!, {R0, R3}
 1932              	@ 0 "" 2
ARM GAS  /tmp/cc3rJM77.s 			page 58


 419:SYS/task_manager/task_manager.c ****     __ASM("LDR      R0, [R1]");
 1933              		.loc 1 419 5 view .LVU521
 1934              	@ 419 "SYS/task_manager/task_manager.c" 1
 1935 0040 1968     		LDR      R1, [R3]
 1936              	@ 0 "" 2
 420:SYS/task_manager/task_manager.c **** 
 1937              		.loc 1 420 5 view .LVU522
 1938              	@ 420 "SYS/task_manager/task_manager.c" 1
 1939 0042 0868     		LDR      R0, [R1]
 1940              	@ 0 "" 2
 422:SYS/task_manager/task_manager.c **** 
 1941              		.loc 1 422 5 view .LVU523
 1942              	@ 422 "SYS/task_manager/task_manager.c" 1
 1943 0044 B0E8F04F 		LDMIA    R0!, {R4-R11, R14}
 1944              	@ 0 "" 2
 425:SYS/task_manager/task_manager.c ****     __ASM("IT       EQ");
 1945              		.loc 1 425 5 view .LVU524
 1946              	@ 425 "SYS/task_manager/task_manager.c" 1
 1947 0048 1EF0100F 		TST      R14, #0x10
 1948              	@ 0 "" 2
 426:SYS/task_manager/task_manager.c ****     __ASM("VLDMIAEQ R0!, {s16-s31}");
 1949              		.loc 1 426 5 view .LVU525
 1950              	@ 426 "SYS/task_manager/task_manager.c" 1
 1951 004c 08BF     		IT       EQ
 1952              	@ 0 "" 2
 427:SYS/task_manager/task_manager.c ****     /******************************  FPU SECTION  *********************************/
 1953              		.loc 1 427 5 view .LVU526
 1954              	@ 427 "SYS/task_manager/task_manager.c" 1
 1955 004e B0EC108A 		VLDMIAEQ R0!, {s16-s31}
 1956              	@ 0 "" 2
 430:SYS/task_manager/task_manager.c ****     __ASM("ISB");
 1957              		.loc 1 430 5 view .LVU527
 1958              	@ 430 "SYS/task_manager/task_manager.c" 1
 1959 0052 80F30988 		MSR      PSP,R0
 1960              	@ 0 "" 2
 431:SYS/task_manager/task_manager.c ****     //__ASM("MOV      R0, #240");
 1961              		.loc 1 431 5 view .LVU528
 1962              	@ 431 "SYS/task_manager/task_manager.c" 1
 1963 0056 BFF36F8F 		ISB
 1964              	@ 0 "" 2
 434:SYS/task_manager/task_manager.c **** 
 1965              		.loc 1 434 5 view .LVU529
 1966              	@ 434 "SYS/task_manager/task_manager.c" 1
 1967 005a 7047     		BX       R14
 1968              	@ 0 "" 2
 436:SYS/task_manager/task_manager.c ****     __ASM(".ALIGN 4");
 1969              		.loc 1 436 5 view .LVU530
 1970              	@ 436 "SYS/task_manager/task_manager.c" 1
 1971 005c 00000000 		CurrentTCBConst_Tmp: .word CurTsk_TCB
 1972              	@ 0 "" 2
 437:SYS/task_manager/task_manager.c **** }
 1973              		.loc 1 437 5 view .LVU531
 1974              	@ 437 "SYS/task_manager/task_manager.c" 1
 1975              		.ALIGN 4
 1976              	@ 0 "" 2
 438:SYS/task_manager/task_manager.c **** 
 1977              		.loc 1 438 1 is_stmt 0 view .LVU532
ARM GAS  /tmp/cc3rJM77.s 			page 59


 1978              		.thumb
 1979              		.syntax unified
 1980              		.cfi_endproc
 1981              	.LFE143:
 1983              		.section	.text.Task_Get_HighestRank_RdyTask,"ax",%progbits
 1984              		.align	1
 1985              		.global	Task_Get_HighestRank_RdyTask
 1986              		.syntax unified
 1987              		.thumb
 1988              		.thumb_func
 1989              		.fpu fpv4-sp-d16
 1991              	Task_Get_HighestRank_RdyTask:
 1992              	.LFB149:
 525:SYS/task_manager/task_manager.c ****     uint8_t grp_id = 0;
 1993              		.loc 1 525 1 is_stmt 1 view -0
 1994              		.cfi_startproc
 1995              		@ args = 0, pretend = 0, frame = 0
 1996              		@ frame_needed = 0, uses_anonymous_args = 0
 1997              		@ link register save eliminated.
 526:SYS/task_manager/task_manager.c ****     uint8_t tsk_id = 0;
 1998              		.loc 1 526 5 view .LVU534
 1999              	.LVL111:
 527:SYS/task_manager/task_manager.c **** 
 2000              		.loc 1 527 5 view .LVU535
 529:SYS/task_manager/task_manager.c ****     {
 2001              		.loc 1 529 5 view .LVU536
 529:SYS/task_manager/task_manager.c ****     {
 2002              		.loc 1 529 26 is_stmt 0 view .LVU537
 2003 0000 134B     		ldr	r3, .L129
 2004 0002 1B78     		ldrb	r3, [r3]	@ zero_extendqisi2
 529:SYS/task_manager/task_manager.c ****     {
 2005              		.loc 1 529 8 view .LVU538
 2006 0004 0BB3     		cbz	r3, .L123
 532:SYS/task_manager/task_manager.c ****         //find task in group
 2007              		.loc 1 532 9 is_stmt 1 view .LVU539
 532:SYS/task_manager/task_manager.c ****         //find task in group
 2008              		.loc 1 532 46 is_stmt 0 view .LVU540
 2009 0006 124B     		ldr	r3, .L129
 2010 0008 1A78     		ldrb	r2, [r3]	@ zero_extendqisi2
 2011 000a D2B2     		uxtb	r2, r2
 532:SYS/task_manager/task_manager.c ****         //find task in group
 2012              		.loc 1 532 16 view .LVU541
 2013 000c 1149     		ldr	r1, .L129+4
 2014 000e 8A5C     		ldrb	r2, [r1, r2]	@ zero_extendqisi2
 2015              	.LVL112:
 534:SYS/task_manager/task_manager.c ****     }
 2016              		.loc 1 534 9 is_stmt 1 view .LVU542
 534:SYS/task_manager/task_manager.c ****     }
 2017              		.loc 1 534 59 is_stmt 0 view .LVU543
 2018 0010 1344     		add	r3, r3, r2
 2019 0012 5B78     		ldrb	r3, [r3, #1]	@ zero_extendqisi2
 2020 0014 DBB2     		uxtb	r3, r3
 534:SYS/task_manager/task_manager.c ****     }
 2021              		.loc 1 534 16 view .LVU544
 2022 0016 CB5C     		ldrb	r3, [r1, r3]	@ zero_extendqisi2
 2023              	.LVL113:
 539:SYS/task_manager/task_manager.c ****     {
ARM GAS  /tmp/cc3rJM77.s 			page 60


 2024              		.loc 1 539 5 is_stmt 1 view .LVU545
 539:SYS/task_manager/task_manager.c ****     {
 2025              		.loc 1 539 25 is_stmt 0 view .LVU546
 2026 0018 03EBC200 		add	r0, r3, r2, lsl #3
 2027 001c 0E49     		ldr	r1, .L129+8
 2028 001e 51F82000 		ldr	r0, [r1, r0, lsl #2]
 539:SYS/task_manager/task_manager.c ****     {
 2029              		.loc 1 539 8 view .LVU547
 2030 0022 00B1     		cbz	r0, .L128
 549:SYS/task_manager/task_manager.c **** 
 2031              		.loc 1 549 1 view .LVU548
 2032 0024 7047     		bx	lr
 2033              	.L128:
 525:SYS/task_manager/task_manager.c ****     uint8_t grp_id = 0;
 2034              		.loc 1 525 1 view .LVU549
 2035 0026 70B4     		push	{r4, r5, r6}
 2036              	.LCFI31:
 2037              		.cfi_def_cfa_offset 12
 2038              		.cfi_offset 4, -12
 2039              		.cfi_offset 5, -8
 2040              		.cfi_offset 6, -4
 545:SYS/task_manager/task_manager.c ****         TskHdl_RdyMap.TskInGrp[grp_id].Flg &= ~(1 << tsk_id);
 2041              		.loc 1 545 9 is_stmt 1 view .LVU550
 545:SYS/task_manager/task_manager.c ****         TskHdl_RdyMap.TskInGrp[grp_id].Flg &= ~(1 << tsk_id);
 2042              		.loc 1 545 31 is_stmt 0 view .LVU551
 2043 0028 0949     		ldr	r1, .L129
 2044 002a 0D78     		ldrb	r5, [r1]	@ zero_extendqisi2
 545:SYS/task_manager/task_manager.c ****         TskHdl_RdyMap.TskInGrp[grp_id].Flg &= ~(1 << tsk_id);
 2045              		.loc 1 545 38 view .LVU552
 2046 002c 0124     		movs	r4, #1
 2047 002e 04FA02F6 		lsl	r6, r4, r2
 545:SYS/task_manager/task_manager.c ****         TskHdl_RdyMap.TskInGrp[grp_id].Flg &= ~(1 << tsk_id);
 2048              		.loc 1 545 31 view .LVU553
 2049 0032 25EA0605 		bic	r5, r5, r6
 2050 0036 0D70     		strb	r5, [r1]
 546:SYS/task_manager/task_manager.c ****         return NULL;
 2051              		.loc 1 546 9 is_stmt 1 view .LVU554
 546:SYS/task_manager/task_manager.c ****         return NULL;
 2052              		.loc 1 546 44 is_stmt 0 view .LVU555
 2053 0038 0A44     		add	r2, r2, r1
 2054 003a 5178     		ldrb	r1, [r2, #1]	@ zero_extendqisi2
 546:SYS/task_manager/task_manager.c ****         return NULL;
 2055              		.loc 1 546 51 view .LVU556
 2056 003c 04FA03F3 		lsl	r3, r4, r3
 546:SYS/task_manager/task_manager.c ****         return NULL;
 2057              		.loc 1 546 44 view .LVU557
 2058 0040 21EA0303 		bic	r3, r1, r3
 2059 0044 5370     		strb	r3, [r2, #1]
 547:SYS/task_manager/task_manager.c ****     }
 2060              		.loc 1 547 9 is_stmt 1 view .LVU558
 549:SYS/task_manager/task_manager.c **** 
 2061              		.loc 1 549 1 is_stmt 0 view .LVU559
 2062 0046 70BC     		pop	{r4, r5, r6}
 2063              	.LCFI32:
 2064              		.cfi_restore 6
 2065              		.cfi_restore 5
 2066              		.cfi_restore 4
ARM GAS  /tmp/cc3rJM77.s 			page 61


 2067              		.cfi_def_cfa_offset 0
 2068 0048 7047     		bx	lr
 2069              	.LVL114:
 2070              	.L123:
 537:SYS/task_manager/task_manager.c **** 
 2071              		.loc 1 537 16 view .LVU560
 2072 004a 0020     		movs	r0, #0
 2073 004c 7047     		bx	lr
 2074              	.L130:
 2075 004e 00BF     		.align	2
 2076              	.L129:
 2077 0050 00000000 		.word	.LANCHOR0
 2078 0054 00000000 		.word	.LANCHOR12
 2079 0058 00000000 		.word	Task_Ptr
 2080              		.cfi_endproc
 2081              	.LFE149:
 2083              		.section	.text.Task_SetNextTask_Ptr,"ax",%progbits
 2084              		.align	1
 2085              		.global	Task_SetNextTask_Ptr
 2086              		.syntax unified
 2087              		.thumb
 2088              		.thumb_func
 2089              		.fpu fpv4-sp-d16
 2091              	Task_SetNextTask_Ptr:
 2092              	.LVL115:
 2093              	.LFB150:
 552:SYS/task_manager/task_manager.c ****     if (nxt != NULL)
 2094              		.loc 1 552 1 is_stmt 1 view -0
 2095              		.cfi_startproc
 2096              		@ args = 0, pretend = 0, frame = 0
 2097              		@ frame_needed = 0, uses_anonymous_args = 0
 2098              		@ link register save eliminated.
 553:SYS/task_manager/task_manager.c ****     {
 2099              		.loc 1 553 5 view .LVU562
 553:SYS/task_manager/task_manager.c ****     {
 2100              		.loc 1 553 8 is_stmt 0 view .LVU563
 2101 0000 38B1     		cbz	r0, .L131
 555:SYS/task_manager/task_manager.c ****         NxtTsk_TCB.Top_Stk_Ptr = &NxtRunTsk_Ptr->TCB.Top_Stk_Ptr;
 2102              		.loc 1 555 9 is_stmt 1 view .LVU564
 555:SYS/task_manager/task_manager.c ****         NxtTsk_TCB.Top_Stk_Ptr = &NxtRunTsk_Ptr->TCB.Top_Stk_Ptr;
 2103              		.loc 1 555 23 is_stmt 0 view .LVU565
 2104 0002 044A     		ldr	r2, .L133
 2105 0004 1060     		str	r0, [r2]
 556:SYS/task_manager/task_manager.c ****         NxtTsk_TCB.Stack = NxtRunTsk_Ptr->TCB.Stack;
 2106              		.loc 1 556 9 is_stmt 1 view .LVU566
 556:SYS/task_manager/task_manager.c ****         NxtTsk_TCB.Stack = NxtRunTsk_Ptr->TCB.Stack;
 2107              		.loc 1 556 34 is_stmt 0 view .LVU567
 2108 0006 00F15001 		add	r1, r0, #80
 556:SYS/task_manager/task_manager.c ****         NxtTsk_TCB.Stack = NxtRunTsk_Ptr->TCB.Stack;
 2109              		.loc 1 556 32 view .LVU568
 2110 000a 034A     		ldr	r2, .L133+4
 2111 000c 1160     		str	r1, [r2]
 557:SYS/task_manager/task_manager.c ****     }
 2112              		.loc 1 557 9 is_stmt 1 view .LVU569
 557:SYS/task_manager/task_manager.c ****     }
 2113              		.loc 1 557 46 is_stmt 0 view .LVU570
 2114 000e 436D     		ldr	r3, [r0, #84]
ARM GAS  /tmp/cc3rJM77.s 			page 62


 557:SYS/task_manager/task_manager.c ****     }
 2115              		.loc 1 557 26 view .LVU571
 2116 0010 5360     		str	r3, [r2, #4]
 2117              	.L131:
 559:SYS/task_manager/task_manager.c **** 
 2118              		.loc 1 559 1 view .LVU572
 2119 0012 7047     		bx	lr
 2120              	.L134:
 2121              		.align	2
 2122              	.L133:
 2123 0014 00000000 		.word	.LANCHOR9
 2124 0018 00000000 		.word	NxtTsk_TCB
 2125              		.cfi_endproc
 2126              	.LFE150:
 2128              		.section	.text.Task_TriggerPendSV,"ax",%progbits
 2129              		.align	1
 2130              		.global	Task_TriggerPendSV
 2131              		.syntax unified
 2132              		.thumb
 2133              		.thumb_func
 2134              		.fpu fpv4-sp-d16
 2136              	Task_TriggerPendSV:
 2137              	.LFB152:
 587:SYS/task_manager/task_manager.c ****     __ASM(".equ NVIC_INT_CTRL, 0xE000ED04");
 2138              		.loc 1 587 1 is_stmt 1 view -0
 2139              		.cfi_startproc
 2140              		@ Naked Function: prologue and epilogue provided by programmer.
 2141              		@ args = 0, pretend = 0, frame = 0
 2142              		@ frame_needed = 0, uses_anonymous_args = 0
 588:SYS/task_manager/task_manager.c ****     __ASM(".equ NVIC_PENDSVSET, 0x10000000");
 2143              		.loc 1 588 5 view .LVU574
 2144              		.syntax unified
 2145              	@ 588 "SYS/task_manager/task_manager.c" 1
 2146              		.equ NVIC_INT_CTRL, 0xE000ED04
 2147              	@ 0 "" 2
 589:SYS/task_manager/task_manager.c **** 
 2148              		.loc 1 589 5 view .LVU575
 2149              	@ 589 "SYS/task_manager/task_manager.c" 1
 2150              		.equ NVIC_PENDSVSET, 0x10000000
 2151              	@ 0 "" 2
 591:SYS/task_manager/task_manager.c ****     __ASM("LDR      R1, =NVIC_PENDSVSET");
 2152              		.loc 1 591 5 view .LVU576
 2153              	@ 591 "SYS/task_manager/task_manager.c" 1
 2154 0000 0248     		LDR      R0, =NVIC_INT_CTRL
 2155              	@ 0 "" 2
 592:SYS/task_manager/task_manager.c ****     __ASM("STR      R1, [R0]");
 2156              		.loc 1 592 5 view .LVU577
 2157              	@ 592 "SYS/task_manager/task_manager.c" 1
 2158 0002 4FF08051 		LDR      R1, =NVIC_PENDSVSET
 2159              	@ 0 "" 2
 593:SYS/task_manager/task_manager.c ****     __ASM("BX       LR");
 2160              		.loc 1 593 5 view .LVU578
 2161              	@ 593 "SYS/task_manager/task_manager.c" 1
 2162 0006 0160     		STR      R1, [R0]
 2163              	@ 0 "" 2
 594:SYS/task_manager/task_manager.c **** }
 2164              		.loc 1 594 5 view .LVU579
ARM GAS  /tmp/cc3rJM77.s 			page 63


 2165              	@ 594 "SYS/task_manager/task_manager.c" 1
 2166 0008 7047     		BX       LR
 2167              	@ 0 "" 2
 595:SYS/task_manager/task_manager.c **** 
 2168              		.loc 1 595 1 is_stmt 0 view .LVU580
 2169              		.thumb
 2170              		.syntax unified
 2171              		.cfi_endproc
 2172              	.LFE152:
 2174 000a 0000     		.section	.text.Task_Scheduler,"ax",%progbits
 2175              		.align	1
 2176              		.global	Task_Scheduler
 2177              		.syntax unified
 2178              		.thumb
 2179              		.thumb_func
 2180              		.fpu fpv4-sp-d16
 2182              	Task_Scheduler:
 2183              	.LFB172:
 999:SYS/task_manager/task_manager.c **** 
1000:SYS/task_manager/task_manager.c **** void Task_Scheduler(void)
1001:SYS/task_manager/task_manager.c **** {
 2184              		.loc 1 1001 1 is_stmt 1 view -0
 2185              		.cfi_startproc
 2186              		@ args = 0, pretend = 0, frame = 0
 2187              		@ frame_needed = 0, uses_anonymous_args = 0
1002:SYS/task_manager/task_manager.c ****     static uint8_t grp = 0;
 2188              		.loc 1 1002 5 view .LVU582
1003:SYS/task_manager/task_manager.c ****     static uint8_t tsk = 0;
 2189              		.loc 1 1003 5 view .LVU583
1004:SYS/task_manager/task_manager.c **** 
1005:SYS/task_manager/task_manager.c ****     if (TskSys_state != TaskSys_Start)
 2190              		.loc 1 1005 5 view .LVU584
 2191              		.loc 1 1005 22 is_stmt 0 view .LVU585
 2192 0000 514B     		ldr	r3, .L159
 2193 0002 1B78     		ldrb	r3, [r3]	@ zero_extendqisi2
 2194 0004 DBB2     		uxtb	r3, r3
 2195              		.loc 1 1005 8 view .LVU586
 2196 0006 022B     		cmp	r3, #2
 2197 0008 40F09D80 		bne	.L150
1001:SYS/task_manager/task_manager.c ****     static uint8_t grp = 0;
 2198              		.loc 1 1001 1 view .LVU587
 2199 000c 70B5     		push	{r4, r5, r6, lr}
 2200              	.LCFI33:
 2201              		.cfi_def_cfa_offset 16
 2202              		.cfi_offset 4, -16
 2203              		.cfi_offset 5, -12
 2204              		.cfi_offset 6, -8
 2205              		.cfi_offset 14, -4
1006:SYS/task_manager/task_manager.c ****         return;
1007:SYS/task_manager/task_manager.c **** 
1008:SYS/task_manager/task_manager.c ****     if (traverse_start)
 2206              		.loc 1 1008 5 is_stmt 1 view .LVU588
 2207              		.loc 1 1008 9 is_stmt 0 view .LVU589
 2208 000e 4F4B     		ldr	r3, .L159+4
 2209 0010 1B78     		ldrb	r3, [r3]	@ zero_extendqisi2
 2210              		.loc 1 1008 8 view .LVU590
 2211 0012 BBB9     		cbnz	r3, .L153
ARM GAS  /tmp/cc3rJM77.s 			page 64


 2212              	.L138:
1009:SYS/task_manager/task_manager.c ****         List_traverse(&TskCrt_RegList.list, Task_CrtList_TraversePoll_callback, NULL, sub_callback)
1010:SYS/task_manager/task_manager.c **** 
1011:SYS/task_manager/task_manager.c ****     NxtRunTsk_Ptr = Task_Get_HighestRank_RdyTask();
 2213              		.loc 1 1011 5 is_stmt 1 view .LVU591
 2214              		.loc 1 1011 21 is_stmt 0 view .LVU592
 2215 0014 FFF7FEFF 		bl	Task_Get_HighestRank_RdyTask
 2216              	.LVL116:
 2217              		.loc 1 1011 19 view .LVU593
 2218 0018 4D4B     		ldr	r3, .L159+8
 2219 001a 1860     		str	r0, [r3]
1012:SYS/task_manager/task_manager.c **** 
1013:SYS/task_manager/task_manager.c **** #if (TASK_SCHEDULER_TYPE == PREEMPTIVE_SCHDULER)
1014:SYS/task_manager/task_manager.c **** 
1015:SYS/task_manager/task_manager.c ****     PndHstTsk_Ptr = Task_Get_HighestRank_PndTask();
 2220              		.loc 1 1015 5 is_stmt 1 view .LVU594
 2221              		.loc 1 1015 21 is_stmt 0 view .LVU595
 2222 001c FFF7FEFF 		bl	Task_Get_HighestRank_PndTask
 2223              	.LVL117:
 2224 0020 0546     		mov	r5, r0
 2225              		.loc 1 1015 19 view .LVU596
 2226 0022 4C4B     		ldr	r3, .L159+12
 2227 0024 1860     		str	r0, [r3]
1016:SYS/task_manager/task_manager.c **** 
1017:SYS/task_manager/task_manager.c ****     if (CurRunTsk_Ptr == NULL)
 2228              		.loc 1 1017 5 is_stmt 1 view .LVU597
 2229              		.loc 1 1017 23 is_stmt 0 view .LVU598
 2230 0026 4C4B     		ldr	r3, .L159+16
 2231 0028 1C68     		ldr	r4, [r3]
 2232              		.loc 1 1017 8 view .LVU599
 2233 002a 94B1     		cbz	r4, .L154
1018:SYS/task_manager/task_manager.c ****     {
1019:SYS/task_manager/task_manager.c ****         if (PndHstTsk_Ptr == NULL)
1020:SYS/task_manager/task_manager.c ****         {
1021:SYS/task_manager/task_manager.c ****             //Current Run task Pointer is Null also no task In pending mode
1022:SYS/task_manager/task_manager.c ****             //set CurRunTsk_Ptr to NxtRunTsk_Ptr
1023:SYS/task_manager/task_manager.c ****             if (NxtRunTsk_Ptr != NULL)
1024:SYS/task_manager/task_manager.c ****             {
1025:SYS/task_manager/task_manager.c ****                 NxtTsk_TCB.Top_Stk_Ptr = &NxtRunTsk_Ptr->TCB.Top_Stk_Ptr;
1026:SYS/task_manager/task_manager.c ****                 NxtTsk_TCB.Stack = NxtRunTsk_Ptr->TCB.Stack;
1027:SYS/task_manager/task_manager.c **** 
1028:SYS/task_manager/task_manager.c ****                 Task_TriggerPendSV();
1029:SYS/task_manager/task_manager.c ****                 return;
1030:SYS/task_manager/task_manager.c ****             }
1031:SYS/task_manager/task_manager.c ****             else
1032:SYS/task_manager/task_manager.c ****             {
1033:SYS/task_manager/task_manager.c ****                 //doing idle function
1034:SYS/task_manager/task_manager.c ****                 Task_Idle();
1035:SYS/task_manager/task_manager.c ****             }
1036:SYS/task_manager/task_manager.c ****         }
1037:SYS/task_manager/task_manager.c ****         else
1038:SYS/task_manager/task_manager.c ****         {
1039:SYS/task_manager/task_manager.c ****             if (NxtRunTsk_Ptr != NULL)
1040:SYS/task_manager/task_manager.c ****             {
1041:SYS/task_manager/task_manager.c ****                 //if has NxtRunTsk_Ptr is not NULL also have task in pending state
1042:SYS/task_manager/task_manager.c ****                 //then get the highest priority task in pend list
1043:SYS/task_manager/task_manager.c ****                 //compare with NxtRunTsk_Ptr
ARM GAS  /tmp/cc3rJM77.s 			page 65


1044:SYS/task_manager/task_manager.c ****                 if (((NxtRunTsk_Ptr != PndHstTsk_Ptr) &&
1045:SYS/task_manager/task_manager.c ****                      (Task_PriorityCompare(NxtRunTsk_Ptr, PndHstTsk_Ptr) == PndHstTsk_Ptr)) ||
1046:SYS/task_manager/task_manager.c ****                     (NxtRunTsk_Ptr == PndHstTsk_Ptr))
1047:SYS/task_manager/task_manager.c ****                 {
1048:SYS/task_manager/task_manager.c ****                     Task_ClearPending(PndHstTsk_Ptr);
1049:SYS/task_manager/task_manager.c ****                     PndHstTsk_Ptr->Exec_status.State = Task_Stop;
1050:SYS/task_manager/task_manager.c ****                     NxtRunTsk_Ptr = PndHstTsk_Ptr;
1051:SYS/task_manager/task_manager.c ****                 }
1052:SYS/task_manager/task_manager.c ****             }
1053:SYS/task_manager/task_manager.c ****             else
1054:SYS/task_manager/task_manager.c ****             {
1055:SYS/task_manager/task_manager.c ****                 //if NxtRunTsk_Ptr is NULL
1056:SYS/task_manager/task_manager.c ****                 //then set NxtRunTsk_Ptr PndHstTsk_Ptr
1057:SYS/task_manager/task_manager.c ****                 NxtRunTsk_Ptr = PndHstTsk_Ptr;
1058:SYS/task_manager/task_manager.c ****             }
1059:SYS/task_manager/task_manager.c **** 
1060:SYS/task_manager/task_manager.c ****             NxtTsk_TCB.Top_Stk_Ptr = &NxtRunTsk_Ptr->TCB.Top_Stk_Ptr;
1061:SYS/task_manager/task_manager.c ****             NxtTsk_TCB.Stack = NxtRunTsk_Ptr->TCB.Stack;
1062:SYS/task_manager/task_manager.c **** 
1063:SYS/task_manager/task_manager.c ****             Task_TriggerPendSV();
1064:SYS/task_manager/task_manager.c ****             return;
1065:SYS/task_manager/task_manager.c ****         }
1066:SYS/task_manager/task_manager.c ****     }
1067:SYS/task_manager/task_manager.c ****     else
1068:SYS/task_manager/task_manager.c ****     {
1069:SYS/task_manager/task_manager.c ****         if (CurRunTsk_Ptr != NxtRunTsk_Ptr)
 2234              		.loc 1 1069 9 is_stmt 1 view .LVU600
 2235              		.loc 1 1069 27 is_stmt 0 view .LVU601
 2236 002c 484B     		ldr	r3, .L159+8
 2237 002e 1E68     		ldr	r6, [r3]
 2238              		.loc 1 1069 12 view .LVU602
 2239 0030 B442     		cmp	r4, r6
 2240 0032 6BD0     		beq	.L146
1070:SYS/task_manager/task_manager.c ****         {
1071:SYS/task_manager/task_manager.c ****             if ((NxtRunTsk_Ptr != NULL) && (Task_PriorityCompare(CurRunTsk_Ptr, NxtRunTsk_Ptr) == N
 2241              		.loc 1 1071 13 is_stmt 1 view .LVU603
 2242              		.loc 1 1071 16 is_stmt 0 view .LVU604
 2243 0034 2EB1     		cbz	r6, .L136
 2244              		.loc 1 1071 45 discriminator 1 view .LVU605
 2245 0036 3146     		mov	r1, r6
 2246 0038 2046     		mov	r0, r4
 2247 003a FFF7FEFF 		bl	Task_PriorityCompare
 2248              	.LVL118:
 2249              		.loc 1 1071 41 discriminator 1 view .LVU606
 2250 003e 8642     		cmp	r6, r0
 2251 0040 3DD0     		beq	.L155
 2252              	.L136:
1072:SYS/task_manager/task_manager.c ****             {
1073:SYS/task_manager/task_manager.c ****                 //if NxtRunTsk_Ptr group priority is higher then CurRunTsk_Ptr also PndHstTsk_Ptr
1074:SYS/task_manager/task_manager.c ****                 //set current run task as pending state first
1075:SYS/task_manager/task_manager.c ****                 Task_ClearReady(CurRunTsk_Ptr);
1076:SYS/task_manager/task_manager.c ****                 Task_SetPending(CurRunTsk_Ptr);
1077:SYS/task_manager/task_manager.c **** 
1078:SYS/task_manager/task_manager.c ****                 //get the highset priority task in pending list
1079:SYS/task_manager/task_manager.c ****                 //if PndHstTsk_Ptr is not NULL
1080:SYS/task_manager/task_manager.c ****                 //then compare the priority between the NxtRunTsk_Ptr and PndHstTsk_Ptr
1081:SYS/task_manager/task_manager.c ****                 if (PndHstTsk_Ptr != NULL)
ARM GAS  /tmp/cc3rJM77.s 			page 66


1082:SYS/task_manager/task_manager.c ****                 {
1083:SYS/task_manager/task_manager.c ****                     if (Task_PriorityCompare(PndHstTsk_Ptr, NxtRunTsk_Ptr) == PndHstTsk_Ptr)
1084:SYS/task_manager/task_manager.c ****                     {
1085:SYS/task_manager/task_manager.c ****                         Task_ClearPending(PndHstTsk_Ptr);
1086:SYS/task_manager/task_manager.c ****                         PndHstTsk_Ptr->Exec_status.State = Task_Stop;
1087:SYS/task_manager/task_manager.c ****                         NxtRunTsk_Ptr = PndHstTsk_Ptr;
1088:SYS/task_manager/task_manager.c ****                     }
1089:SYS/task_manager/task_manager.c ****                 }
1090:SYS/task_manager/task_manager.c **** 
1091:SYS/task_manager/task_manager.c ****                 NxtTsk_TCB.Top_Stk_Ptr = &NxtRunTsk_Ptr->TCB.Top_Stk_Ptr;
1092:SYS/task_manager/task_manager.c ****                 NxtTsk_TCB.Stack = NxtRunTsk_Ptr->TCB.Stack;
1093:SYS/task_manager/task_manager.c **** 
1094:SYS/task_manager/task_manager.c ****                 Task_TriggerPendSV();
1095:SYS/task_manager/task_manager.c ****                 return;
1096:SYS/task_manager/task_manager.c ****             }
1097:SYS/task_manager/task_manager.c ****         }
1098:SYS/task_manager/task_manager.c ****         else
1099:SYS/task_manager/task_manager.c ****         {
1100:SYS/task_manager/task_manager.c ****             //compare with the highest priority pending task
1101:SYS/task_manager/task_manager.c ****             if ((PndHstTsk_Ptr != NULL) && (Task_PriorityCompare(CurRunTsk_Ptr, PndHstTsk_Ptr) == P
1102:SYS/task_manager/task_manager.c ****             {
1103:SYS/task_manager/task_manager.c ****                 //if PndHstTsk_Ptr group priority is higher then CurRunTsk_Ptr
1104:SYS/task_manager/task_manager.c ****                 //set current run task as pending state first
1105:SYS/task_manager/task_manager.c ****                 Task_SetPending(CurRunTsk_Ptr);
1106:SYS/task_manager/task_manager.c ****                 Task_SetReady(PndHstTsk_Ptr);
1107:SYS/task_manager/task_manager.c ****                 NxtRunTsk_Ptr = Task_Stop;
1108:SYS/task_manager/task_manager.c **** 
1109:SYS/task_manager/task_manager.c ****                 NxtRunTsk_Ptr = PndHstTsk_Ptr;
1110:SYS/task_manager/task_manager.c ****             }
1111:SYS/task_manager/task_manager.c **** 
1112:SYS/task_manager/task_manager.c ****             NxtTsk_TCB.Top_Stk_Ptr = &NxtRunTsk_Ptr->TCB.Top_Stk_Ptr;
1113:SYS/task_manager/task_manager.c ****             NxtTsk_TCB.Stack = NxtRunTsk_Ptr->TCB.Stack;
1114:SYS/task_manager/task_manager.c **** 
1115:SYS/task_manager/task_manager.c ****             Task_TriggerPendSV();
1116:SYS/task_manager/task_manager.c ****             return;
1117:SYS/task_manager/task_manager.c ****         }
1118:SYS/task_manager/task_manager.c ****     }
1119:SYS/task_manager/task_manager.c **** #else
1120:SYS/task_manager/task_manager.c ****     Task_TriggerPendSV();
1121:SYS/task_manager/task_manager.c **** #endif
1122:SYS/task_manager/task_manager.c **** }
 2253              		.loc 1 1122 1 view .LVU607
 2254 0042 70BD     		pop	{r4, r5, r6, pc}
 2255              	.L153:
1009:SYS/task_manager/task_manager.c **** 
 2256              		.loc 1 1009 9 is_stmt 1 view .LVU608
 2257 0044 0123     		movs	r3, #1
 2258 0046 0022     		movs	r2, #0
 2259 0048 4449     		ldr	r1, .L159+20
 2260 004a 4548     		ldr	r0, .L159+24
 2261 004c FFF7FEFF 		bl	List_traverse
 2262              	.LVL119:
 2263 0050 E0E7     		b	.L138
 2264              	.L154:
1019:SYS/task_manager/task_manager.c ****         {
 2265              		.loc 1 1019 9 view .LVU609
1019:SYS/task_manager/task_manager.c ****         {
ARM GAS  /tmp/cc3rJM77.s 			page 67


 2266              		.loc 1 1019 12 is_stmt 0 view .LVU610
 2267 0052 B8B1     		cbz	r0, .L156
1039:SYS/task_manager/task_manager.c ****             {
 2268              		.loc 1 1039 13 is_stmt 1 view .LVU611
1039:SYS/task_manager/task_manager.c ****             {
 2269              		.loc 1 1039 31 is_stmt 0 view .LVU612
 2270 0054 3E4B     		ldr	r3, .L159+8
 2271 0056 1C68     		ldr	r4, [r3]
1039:SYS/task_manager/task_manager.c ****             {
 2272              		.loc 1 1039 16 view .LVU613
 2273 0058 74B3     		cbz	r4, .L142
1044:SYS/task_manager/task_manager.c ****                      (Task_PriorityCompare(NxtRunTsk_Ptr, PndHstTsk_Ptr) == PndHstTsk_Ptr)) ||
 2274              		.loc 1 1044 17 is_stmt 1 view .LVU614
1044:SYS/task_manager/task_manager.c ****                      (Task_PriorityCompare(NxtRunTsk_Ptr, PndHstTsk_Ptr) == PndHstTsk_Ptr)) ||
 2275              		.loc 1 1044 20 is_stmt 0 view .LVU615
 2276 005a A042     		cmp	r0, r4
 2277 005c 05D0     		beq	.L143
1045:SYS/task_manager/task_manager.c ****                     (NxtRunTsk_Ptr == PndHstTsk_Ptr))
 2278              		.loc 1 1045 23 discriminator 1 view .LVU616
 2279 005e 0146     		mov	r1, r0
 2280 0060 2046     		mov	r0, r4
 2281 0062 FFF7FEFF 		bl	Task_PriorityCompare
 2282              	.LVL120:
1044:SYS/task_manager/task_manager.c ****                      (Task_PriorityCompare(NxtRunTsk_Ptr, PndHstTsk_Ptr) == PndHstTsk_Ptr)) ||
 2283              		.loc 1 1044 55 discriminator 1 view .LVU617
 2284 0066 8542     		cmp	r5, r0
 2285 0068 1BD0     		beq	.L144
 2286              	.L143:
1045:SYS/task_manager/task_manager.c ****                     (NxtRunTsk_Ptr == PndHstTsk_Ptr))
 2287              		.loc 1 1045 93 view .LVU618
 2288 006a A542     		cmp	r5, r4
 2289 006c 19D0     		beq	.L144
 2290              	.L145:
1060:SYS/task_manager/task_manager.c ****             NxtTsk_TCB.Stack = NxtRunTsk_Ptr->TCB.Stack;
 2291              		.loc 1 1060 13 is_stmt 1 view .LVU619
1060:SYS/task_manager/task_manager.c ****             NxtTsk_TCB.Stack = NxtRunTsk_Ptr->TCB.Stack;
 2292              		.loc 1 1060 52 is_stmt 0 view .LVU620
 2293 006e 384B     		ldr	r3, .L159+8
 2294 0070 1A68     		ldr	r2, [r3]
1060:SYS/task_manager/task_manager.c ****             NxtTsk_TCB.Stack = NxtRunTsk_Ptr->TCB.Stack;
 2295              		.loc 1 1060 38 view .LVU621
 2296 0072 02F15001 		add	r1, r2, #80
1060:SYS/task_manager/task_manager.c ****             NxtTsk_TCB.Stack = NxtRunTsk_Ptr->TCB.Stack;
 2297              		.loc 1 1060 36 view .LVU622
 2298 0076 3B4B     		ldr	r3, .L159+28
 2299 0078 1960     		str	r1, [r3]
1061:SYS/task_manager/task_manager.c **** 
 2300              		.loc 1 1061 13 is_stmt 1 view .LVU623
1061:SYS/task_manager/task_manager.c **** 
 2301              		.loc 1 1061 50 is_stmt 0 view .LVU624
 2302 007a 526D     		ldr	r2, [r2, #84]
1061:SYS/task_manager/task_manager.c **** 
 2303              		.loc 1 1061 30 view .LVU625
 2304 007c 5A60     		str	r2, [r3, #4]
1063:SYS/task_manager/task_manager.c ****             return;
 2305              		.loc 1 1063 13 is_stmt 1 view .LVU626
 2306 007e FFF7FEFF 		bl	Task_TriggerPendSV
ARM GAS  /tmp/cc3rJM77.s 			page 68


 2307              	.LVL121:
1064:SYS/task_manager/task_manager.c ****         }
 2308              		.loc 1 1064 13 view .LVU627
 2309 0082 DEE7     		b	.L136
 2310              	.L156:
1023:SYS/task_manager/task_manager.c ****             {
 2311              		.loc 1 1023 13 view .LVU628
1023:SYS/task_manager/task_manager.c ****             {
 2312              		.loc 1 1023 31 is_stmt 0 view .LVU629
 2313 0084 324B     		ldr	r3, .L159+8
 2314 0086 1B68     		ldr	r3, [r3]
1023:SYS/task_manager/task_manager.c ****             {
 2315              		.loc 1 1023 16 view .LVU630
 2316 0088 43B1     		cbz	r3, .L141
1025:SYS/task_manager/task_manager.c ****                 NxtTsk_TCB.Stack = NxtRunTsk_Ptr->TCB.Stack;
 2317              		.loc 1 1025 17 is_stmt 1 view .LVU631
1025:SYS/task_manager/task_manager.c ****                 NxtTsk_TCB.Stack = NxtRunTsk_Ptr->TCB.Stack;
 2318              		.loc 1 1025 42 is_stmt 0 view .LVU632
 2319 008a 03F15001 		add	r1, r3, #80
1025:SYS/task_manager/task_manager.c ****                 NxtTsk_TCB.Stack = NxtRunTsk_Ptr->TCB.Stack;
 2320              		.loc 1 1025 40 view .LVU633
 2321 008e 354A     		ldr	r2, .L159+28
 2322 0090 1160     		str	r1, [r2]
1026:SYS/task_manager/task_manager.c **** 
 2323              		.loc 1 1026 17 is_stmt 1 view .LVU634
1026:SYS/task_manager/task_manager.c **** 
 2324              		.loc 1 1026 54 is_stmt 0 view .LVU635
 2325 0092 5B6D     		ldr	r3, [r3, #84]
1026:SYS/task_manager/task_manager.c **** 
 2326              		.loc 1 1026 34 view .LVU636
 2327 0094 5360     		str	r3, [r2, #4]
1028:SYS/task_manager/task_manager.c ****                 return;
 2328              		.loc 1 1028 17 is_stmt 1 view .LVU637
 2329 0096 FFF7FEFF 		bl	Task_TriggerPendSV
 2330              	.LVL122:
1029:SYS/task_manager/task_manager.c ****             }
 2331              		.loc 1 1029 17 view .LVU638
 2332 009a D2E7     		b	.L136
 2333              	.L141:
1034:SYS/task_manager/task_manager.c ****             }
 2334              		.loc 1 1034 17 view .LVU639
 2335 009c FFF7FEFF 		bl	Task_Idle
 2336              	.LVL123:
 2337 00a0 CFE7     		b	.L136
 2338              	.L144:
1048:SYS/task_manager/task_manager.c ****                     PndHstTsk_Ptr->Exec_status.State = Task_Stop;
 2339              		.loc 1 1048 21 view .LVU640
 2340 00a2 2846     		mov	r0, r5
 2341 00a4 FFF7FEFF 		bl	Task_ClearPending
 2342              	.LVL124:
1049:SYS/task_manager/task_manager.c ****                     NxtRunTsk_Ptr = PndHstTsk_Ptr;
 2343              		.loc 1 1049 21 view .LVU641
1049:SYS/task_manager/task_manager.c ****                     NxtRunTsk_Ptr = PndHstTsk_Ptr;
 2344              		.loc 1 1049 34 is_stmt 0 view .LVU642
 2345 00a8 2A4B     		ldr	r3, .L159+12
 2346 00aa 1B68     		ldr	r3, [r3]
1049:SYS/task_manager/task_manager.c ****                     NxtRunTsk_Ptr = PndHstTsk_Ptr;
ARM GAS  /tmp/cc3rJM77.s 			page 69


 2347              		.loc 1 1049 54 view .LVU643
 2348 00ac 0222     		movs	r2, #2
 2349 00ae 83F84820 		strb	r2, [r3, #72]
1050:SYS/task_manager/task_manager.c ****                 }
 2350              		.loc 1 1050 21 is_stmt 1 view .LVU644
1050:SYS/task_manager/task_manager.c ****                 }
 2351              		.loc 1 1050 35 is_stmt 0 view .LVU645
 2352 00b2 274A     		ldr	r2, .L159+8
 2353 00b4 1360     		str	r3, [r2]
 2354 00b6 DAE7     		b	.L145
 2355              	.L142:
1057:SYS/task_manager/task_manager.c ****             }
 2356              		.loc 1 1057 17 is_stmt 1 view .LVU646
1057:SYS/task_manager/task_manager.c ****             }
 2357              		.loc 1 1057 31 is_stmt 0 view .LVU647
 2358 00b8 254B     		ldr	r3, .L159+8
 2359 00ba 1860     		str	r0, [r3]
 2360 00bc D7E7     		b	.L145
 2361              	.L155:
1075:SYS/task_manager/task_manager.c ****                 Task_SetPending(CurRunTsk_Ptr);
 2362              		.loc 1 1075 17 is_stmt 1 view .LVU648
 2363 00be 2046     		mov	r0, r4
 2364 00c0 FFF7FEFF 		bl	Task_ClearReady
 2365              	.LVL125:
1076:SYS/task_manager/task_manager.c **** 
 2366              		.loc 1 1076 17 view .LVU649
 2367 00c4 244B     		ldr	r3, .L159+16
 2368 00c6 1868     		ldr	r0, [r3]
 2369 00c8 FFF7FEFF 		bl	Task_SetPending
 2370              	.LVL126:
1081:SYS/task_manager/task_manager.c ****                 {
 2371              		.loc 1 1081 17 view .LVU650
1081:SYS/task_manager/task_manager.c ****                 {
 2372              		.loc 1 1081 35 is_stmt 0 view .LVU651
 2373 00cc 214B     		ldr	r3, .L159+12
 2374 00ce 1C68     		ldr	r4, [r3]
1081:SYS/task_manager/task_manager.c ****                 {
 2375              		.loc 1 1081 20 view .LVU652
 2376 00d0 34B1     		cbz	r4, .L147
1083:SYS/task_manager/task_manager.c ****                     {
 2377              		.loc 1 1083 21 is_stmt 1 view .LVU653
1083:SYS/task_manager/task_manager.c ****                     {
 2378              		.loc 1 1083 25 is_stmt 0 view .LVU654
 2379 00d2 1F4B     		ldr	r3, .L159+8
 2380 00d4 1968     		ldr	r1, [r3]
 2381 00d6 2046     		mov	r0, r4
 2382 00d8 FFF7FEFF 		bl	Task_PriorityCompare
 2383              	.LVL127:
1083:SYS/task_manager/task_manager.c ****                     {
 2384              		.loc 1 1083 24 view .LVU655
 2385 00dc 8442     		cmp	r4, r0
 2386 00de 0AD0     		beq	.L157
 2387              	.L147:
1091:SYS/task_manager/task_manager.c ****                 NxtTsk_TCB.Stack = NxtRunTsk_Ptr->TCB.Stack;
 2388              		.loc 1 1091 17 is_stmt 1 view .LVU656
1091:SYS/task_manager/task_manager.c ****                 NxtTsk_TCB.Stack = NxtRunTsk_Ptr->TCB.Stack;
 2389              		.loc 1 1091 56 is_stmt 0 view .LVU657
ARM GAS  /tmp/cc3rJM77.s 			page 70


 2390 00e0 1B4B     		ldr	r3, .L159+8
 2391 00e2 1A68     		ldr	r2, [r3]
1091:SYS/task_manager/task_manager.c ****                 NxtTsk_TCB.Stack = NxtRunTsk_Ptr->TCB.Stack;
 2392              		.loc 1 1091 42 view .LVU658
 2393 00e4 02F15001 		add	r1, r2, #80
1091:SYS/task_manager/task_manager.c ****                 NxtTsk_TCB.Stack = NxtRunTsk_Ptr->TCB.Stack;
 2394              		.loc 1 1091 40 view .LVU659
 2395 00e8 1E4B     		ldr	r3, .L159+28
 2396 00ea 1960     		str	r1, [r3]
1092:SYS/task_manager/task_manager.c **** 
 2397              		.loc 1 1092 17 is_stmt 1 view .LVU660
1092:SYS/task_manager/task_manager.c **** 
 2398              		.loc 1 1092 54 is_stmt 0 view .LVU661
 2399 00ec 526D     		ldr	r2, [r2, #84]
1092:SYS/task_manager/task_manager.c **** 
 2400              		.loc 1 1092 34 view .LVU662
 2401 00ee 5A60     		str	r2, [r3, #4]
1094:SYS/task_manager/task_manager.c ****                 return;
 2402              		.loc 1 1094 17 is_stmt 1 view .LVU663
 2403 00f0 FFF7FEFF 		bl	Task_TriggerPendSV
 2404              	.LVL128:
1095:SYS/task_manager/task_manager.c ****             }
 2405              		.loc 1 1095 17 view .LVU664
 2406 00f4 A5E7     		b	.L136
 2407              	.L157:
1085:SYS/task_manager/task_manager.c ****                         PndHstTsk_Ptr->Exec_status.State = Task_Stop;
 2408              		.loc 1 1085 25 view .LVU665
 2409 00f6 2046     		mov	r0, r4
 2410 00f8 FFF7FEFF 		bl	Task_ClearPending
 2411              	.LVL129:
1086:SYS/task_manager/task_manager.c ****                         NxtRunTsk_Ptr = PndHstTsk_Ptr;
 2412              		.loc 1 1086 25 view .LVU666
1086:SYS/task_manager/task_manager.c ****                         NxtRunTsk_Ptr = PndHstTsk_Ptr;
 2413              		.loc 1 1086 38 is_stmt 0 view .LVU667
 2414 00fc 154B     		ldr	r3, .L159+12
 2415 00fe 1B68     		ldr	r3, [r3]
1086:SYS/task_manager/task_manager.c ****                         NxtRunTsk_Ptr = PndHstTsk_Ptr;
 2416              		.loc 1 1086 58 view .LVU668
 2417 0100 0222     		movs	r2, #2
 2418 0102 83F84820 		strb	r2, [r3, #72]
1087:SYS/task_manager/task_manager.c ****                     }
 2419              		.loc 1 1087 25 is_stmt 1 view .LVU669
1087:SYS/task_manager/task_manager.c ****                     }
 2420              		.loc 1 1087 39 is_stmt 0 view .LVU670
 2421 0106 124A     		ldr	r2, .L159+8
 2422 0108 1360     		str	r3, [r2]
 2423 010a E9E7     		b	.L147
 2424              	.L146:
1101:SYS/task_manager/task_manager.c ****             {
 2425              		.loc 1 1101 13 is_stmt 1 view .LVU671
1101:SYS/task_manager/task_manager.c ****             {
 2426              		.loc 1 1101 16 is_stmt 0 view .LVU672
 2427 010c 28B1     		cbz	r0, .L148
1101:SYS/task_manager/task_manager.c ****             {
 2428              		.loc 1 1101 45 discriminator 1 view .LVU673
 2429 010e 0146     		mov	r1, r0
 2430 0110 2046     		mov	r0, r4
ARM GAS  /tmp/cc3rJM77.s 			page 71


 2431 0112 FFF7FEFF 		bl	Task_PriorityCompare
 2432              	.LVL130:
1101:SYS/task_manager/task_manager.c ****             {
 2433              		.loc 1 1101 41 discriminator 1 view .LVU674
 2434 0116 8542     		cmp	r5, r0
 2435 0118 0AD0     		beq	.L158
 2436              	.L148:
1112:SYS/task_manager/task_manager.c ****             NxtTsk_TCB.Stack = NxtRunTsk_Ptr->TCB.Stack;
 2437              		.loc 1 1112 13 is_stmt 1 view .LVU675
1112:SYS/task_manager/task_manager.c ****             NxtTsk_TCB.Stack = NxtRunTsk_Ptr->TCB.Stack;
 2438              		.loc 1 1112 52 is_stmt 0 view .LVU676
 2439 011a 0D4B     		ldr	r3, .L159+8
 2440 011c 1A68     		ldr	r2, [r3]
1112:SYS/task_manager/task_manager.c ****             NxtTsk_TCB.Stack = NxtRunTsk_Ptr->TCB.Stack;
 2441              		.loc 1 1112 38 view .LVU677
 2442 011e 02F15001 		add	r1, r2, #80
1112:SYS/task_manager/task_manager.c ****             NxtTsk_TCB.Stack = NxtRunTsk_Ptr->TCB.Stack;
 2443              		.loc 1 1112 36 view .LVU678
 2444 0122 104B     		ldr	r3, .L159+28
 2445 0124 1960     		str	r1, [r3]
1113:SYS/task_manager/task_manager.c **** 
 2446              		.loc 1 1113 13 is_stmt 1 view .LVU679
1113:SYS/task_manager/task_manager.c **** 
 2447              		.loc 1 1113 50 is_stmt 0 view .LVU680
 2448 0126 526D     		ldr	r2, [r2, #84]
1113:SYS/task_manager/task_manager.c **** 
 2449              		.loc 1 1113 30 view .LVU681
 2450 0128 5A60     		str	r2, [r3, #4]
1115:SYS/task_manager/task_manager.c ****             return;
 2451              		.loc 1 1115 13 is_stmt 1 view .LVU682
 2452 012a FFF7FEFF 		bl	Task_TriggerPendSV
 2453              	.LVL131:
1116:SYS/task_manager/task_manager.c ****         }
 2454              		.loc 1 1116 13 view .LVU683
 2455 012e 88E7     		b	.L136
 2456              	.L158:
1105:SYS/task_manager/task_manager.c ****                 Task_SetReady(PndHstTsk_Ptr);
 2457              		.loc 1 1105 17 view .LVU684
 2458 0130 2046     		mov	r0, r4
 2459 0132 FFF7FEFF 		bl	Task_SetPending
 2460              	.LVL132:
1106:SYS/task_manager/task_manager.c ****                 NxtRunTsk_Ptr = Task_Stop;
 2461              		.loc 1 1106 17 view .LVU685
 2462 0136 074C     		ldr	r4, .L159+12
 2463 0138 2068     		ldr	r0, [r4]
 2464 013a FFF7FEFF 		bl	Task_SetReady
 2465              	.LVL133:
1107:SYS/task_manager/task_manager.c **** 
 2466              		.loc 1 1107 17 view .LVU686
1109:SYS/task_manager/task_manager.c ****             }
 2467              		.loc 1 1109 17 view .LVU687
1109:SYS/task_manager/task_manager.c ****             }
 2468              		.loc 1 1109 31 is_stmt 0 view .LVU688
 2469 013e 2268     		ldr	r2, [r4]
 2470 0140 034B     		ldr	r3, .L159+8
 2471 0142 1A60     		str	r2, [r3]
 2472 0144 E9E7     		b	.L148
ARM GAS  /tmp/cc3rJM77.s 			page 72


 2473              	.L150:
 2474              	.LCFI34:
 2475              		.cfi_def_cfa_offset 0
 2476              		.cfi_restore 4
 2477              		.cfi_restore 5
 2478              		.cfi_restore 6
 2479              		.cfi_restore 14
 2480 0146 7047     		bx	lr
 2481              	.L160:
 2482              		.align	2
 2483              	.L159:
 2484 0148 00000000 		.word	.LANCHOR5
 2485 014c 00000000 		.word	.LANCHOR11
 2486 0150 00000000 		.word	.LANCHOR9
 2487 0154 00000000 		.word	.LANCHOR13
 2488 0158 00000000 		.word	.LANCHOR4
 2489 015c 00000000 		.word	Task_CrtList_TraversePoll_callback
 2490 0160 04000000 		.word	.LANCHOR3+4
 2491 0164 00000000 		.word	NxtTsk_TCB
 2492              		.cfi_endproc
 2493              	.LFE172:
 2495              		.section	.text.Task_Force_TriggerPendSV,"ax",%progbits
 2496              		.align	1
 2497              		.global	Task_Force_TriggerPendSV
 2498              		.syntax unified
 2499              		.thumb
 2500              		.thumb_func
 2501              		.fpu fpv4-sp-d16
 2503              	Task_Force_TriggerPendSV:
 2504              	.LFB153:
 598:SYS/task_manager/task_manager.c ****     /* Barriers are normally not required but do ensure the code is completely \
 2505              		.loc 1 598 1 is_stmt 1 view -0
 2506              		.cfi_startproc
 2507              		@ args = 0, pretend = 0, frame = 0
 2508              		@ frame_needed = 0, uses_anonymous_args = 0
 2509 0000 08B5     		push	{r3, lr}
 2510              	.LCFI35:
 2511              		.cfi_def_cfa_offset 8
 2512              		.cfi_offset 3, -8
 2513              		.cfi_offset 14, -4
 601:SYS/task_manager/task_manager.c ****                        : "memory");
 2514              		.loc 1 601 5 view .LVU690
 2515              		.syntax unified
 2516              	@ 601 "SYS/task_manager/task_manager.c" 1
 2517 0002 BFF34F8F 		dsb
 2518              	@ 0 "" 2
 603:SYS/task_manager/task_manager.c ****     Task_TriggerPendSV();
 2519              		.loc 1 603 5 view .LVU691
 2520              	@ 603 "SYS/task_manager/task_manager.c" 1
 2521 0006 BFF36F8F 		isb
 2522              	@ 0 "" 2
 604:SYS/task_manager/task_manager.c **** }
 2523              		.loc 1 604 5 view .LVU692
 2524              		.thumb
 2525              		.syntax unified
 2526 000a FFF7FEFF 		bl	Task_TriggerPendSV
 2527              	.LVL134:
ARM GAS  /tmp/cc3rJM77.s 			page 73


 605:SYS/task_manager/task_manager.c **** 
 2528              		.loc 1 605 1 is_stmt 0 view .LVU693
 2529 000e 08BD     		pop	{r3, pc}
 2530              		.cfi_endproc
 2531              	.LFE153:
 2533              		.section	.text.Task_Get_TaskNum,"ax",%progbits
 2534              		.align	1
 2535              		.global	Task_Get_TaskNum
 2536              		.syntax unified
 2537              		.thumb
 2538              		.thumb_func
 2539              		.fpu fpv4-sp-d16
 2541              	Task_Get_TaskNum:
 2542              	.LFB154:
 608:SYS/task_manager/task_manager.c ****     return TskCrt_RegList.num;
 2543              		.loc 1 608 1 is_stmt 1 view -0
 2544              		.cfi_startproc
 2545              		@ args = 0, pretend = 0, frame = 0
 2546              		@ frame_needed = 0, uses_anonymous_args = 0
 2547              		@ link register save eliminated.
 609:SYS/task_manager/task_manager.c **** }
 2548              		.loc 1 609 5 view .LVU695
 610:SYS/task_manager/task_manager.c **** 
 2549              		.loc 1 610 1 is_stmt 0 view .LVU696
 2550 0000 014B     		ldr	r3, .L164
 2551 0002 1878     		ldrb	r0, [r3]	@ zero_extendqisi2
 2552 0004 7047     		bx	lr
 2553              	.L165:
 2554 0006 00BF     		.align	2
 2555              	.L164:
 2556 0008 00000000 		.word	.LANCHOR3
 2557              		.cfi_endproc
 2558              	.LFE154:
 2560              		.global	__aeabi_ui2d
 2561              		.global	__aeabi_ddiv
 2562              		.global	__aeabi_d2uiz
 2563              		.section	.text.Task_Create,"ax",%progbits
 2564              		.align	1
 2565              		.global	Task_Create
 2566              		.syntax unified
 2567              		.thumb
 2568              		.thumb_func
 2569              		.fpu fpv4-sp-d16
 2571              	Task_Create:
 2572              	.LVL135:
 2573              	.LFB156:
 657:SYS/task_manager/task_manager.c ****     Task_Handler handle;
 2574              		.loc 1 657 1 is_stmt 1 view -0
 2575              		.cfi_startproc
 2576              		@ args = 8, pretend = 0, frame = 8
 2577              		@ frame_needed = 0, uses_anonymous_args = 0
 657:SYS/task_manager/task_manager.c ****     Task_Handler handle;
 2578              		.loc 1 657 1 is_stmt 0 view .LVU698
 2579 0000 2DE9F04F 		push	{r4, r5, r6, r7, r8, r9, r10, fp, lr}
 2580              	.LCFI36:
 2581              		.cfi_def_cfa_offset 36
 2582              		.cfi_offset 4, -36
ARM GAS  /tmp/cc3rJM77.s 			page 74


 2583              		.cfi_offset 5, -32
 2584              		.cfi_offset 6, -28
 2585              		.cfi_offset 7, -24
 2586              		.cfi_offset 8, -20
 2587              		.cfi_offset 9, -16
 2588              		.cfi_offset 10, -12
 2589              		.cfi_offset 11, -8
 2590              		.cfi_offset 14, -4
 2591 0004 83B0     		sub	sp, sp, #12
 2592              	.LCFI37:
 2593              		.cfi_def_cfa_offset 48
 2594 0006 0190     		str	r0, [sp, #4]
 2595 0008 8B46     		mov	fp, r1
 2596 000a 1746     		mov	r7, r2
 2597 000c 1E46     		mov	r6, r3
 658:SYS/task_manager/task_manager.c ****     uint16_t task_name_len = strlen(name);
 2598              		.loc 1 658 5 is_stmt 1 view .LVU699
 659:SYS/task_manager/task_manager.c ****     uint32_t *Tsk_Ptr_tmp = NULL;
 2599              		.loc 1 659 5 view .LVU700
 660:SYS/task_manager/task_manager.c ****     static bool taskOs_InitState = false;
 2600              		.loc 1 660 5 view .LVU701
 2601              	.LVL136:
 661:SYS/task_manager/task_manager.c **** 
 2602              		.loc 1 661 5 view .LVU702
 663:SYS/task_manager/task_manager.c ****     {
 2603              		.loc 1 663 5 view .LVU703
 663:SYS/task_manager/task_manager.c ****     {
 2604              		.loc 1 663 9 is_stmt 0 view .LVU704
 2605 000e 824B     		ldr	r3, .L177+8
 2606              	.LVL137:
 663:SYS/task_manager/task_manager.c ****     {
 2607              		.loc 1 663 9 view .LVU705
 2608 0010 1B78     		ldrb	r3, [r3]	@ zero_extendqisi2
 663:SYS/task_manager/task_manager.c ****     {
 2609              		.loc 1 663 8 view .LVU706
 2610 0012 5BB1     		cbz	r3, .L175
 2611              	.LVL138:
 2612              	.L167:
 670:SYS/task_manager/task_manager.c ****     {
 2613              		.loc 1 670 5 is_stmt 1 view .LVU707
 670:SYS/task_manager/task_manager.c ****     {
 2614              		.loc 1 670 24 is_stmt 0 view .LVU708
 2615 0014 06EBC703 		add	r3, r6, r7, lsl #3
 2616 0018 804A     		ldr	r2, .L177+12
 2617 001a 52F82330 		ldr	r3, [r2, r3, lsl #2]
 670:SYS/task_manager/task_manager.c ****     {
 2618              		.loc 1 670 8 view .LVU709
 2619 001e 5BB1     		cbz	r3, .L176
 672:SYS/task_manager/task_manager.c ****     }
 2620              		.loc 1 672 16 view .LVU710
 2621 0020 4FF00108 		mov	r8, #1
 2622              	.LVL139:
 2623              	.L166:
 761:SYS/task_manager/task_manager.c **** 
 2624              		.loc 1 761 1 view .LVU711
 2625 0024 4046     		mov	r0, r8
 2626 0026 03B0     		add	sp, sp, #12
ARM GAS  /tmp/cc3rJM77.s 			page 75


 2627              	.LCFI38:
 2628              		.cfi_remember_state
 2629              		.cfi_def_cfa_offset 36
 2630              		@ sp needed
 2631 0028 BDE8F08F 		pop	{r4, r5, r6, r7, r8, r9, r10, fp, pc}
 2632              	.LVL140:
 2633              	.L175:
 2634              	.LCFI39:
 2635              		.cfi_restore_state
 665:SYS/task_manager/task_manager.c ****         taskOs_InitState = true;
 2636              		.loc 1 665 9 is_stmt 1 view .LVU712
 2637 002c FFF7FEFF 		bl	TaskSys_Init
 2638              	.LVL141:
 666:SYS/task_manager/task_manager.c ****     }
 2639              		.loc 1 666 9 view .LVU713
 666:SYS/task_manager/task_manager.c ****     }
 2640              		.loc 1 666 26 is_stmt 0 view .LVU714
 2641 0030 794B     		ldr	r3, .L177+8
 2642 0032 0122     		movs	r2, #1
 2643 0034 1A70     		strb	r2, [r3]
 2644 0036 EDE7     		b	.L167
 2645              	.L176:
 676:SYS/task_manager/task_manager.c **** 
 2646              		.loc 1 676 5 is_stmt 1 view .LVU715
 676:SYS/task_manager/task_manager.c **** 
 2647              		.loc 1 676 41 is_stmt 0 view .LVU716
 2648 0038 9020     		movs	r0, #144
 2649 003a FFF7FEFF 		bl	malloc
 2650              	.LVL142:
 2651 003e 8146     		mov	r9, r0
 676:SYS/task_manager/task_manager.c **** 
 2652              		.loc 1 676 31 view .LVU717
 2653 0040 764C     		ldr	r4, .L177+12
 2654 0042 4FEAC70A 		lsl	r10, r7, #3
 2655 0046 0AEB0605 		add	r5, r10, r6
 2656 004a 44F82500 		str	r0, [r4, r5, lsl #2]
 679:SYS/task_manager/task_manager.c **** 
 2657              		.loc 1 679 5 is_stmt 1 view .LVU718
 679:SYS/task_manager/task_manager.c **** 
 2658              		.loc 1 679 12 is_stmt 0 view .LVU719
 2659 004e 8046     		mov	r8, r0
 2660              	.LVL143:
 681:SYS/task_manager/task_manager.c **** 
 2661              		.loc 1 681 5 is_stmt 1 view .LVU720
 681:SYS/task_manager/task_manager.c **** 
 2662              		.loc 1 681 42 is_stmt 0 view .LVU721
 2663 0050 019B     		ldr	r3, [sp, #4]
 2664 0052 4360     		str	r3, [r0, #4]
 683:SYS/task_manager/task_manager.c ****     Task_Ptr[group][priority]->exec_interval_us = RUNTIEM_MAX_TICK_FRQ / frq;
 2665              		.loc 1 683 5 is_stmt 1 view .LVU722
 683:SYS/task_manager/task_manager.c ****     Task_Ptr[group][priority]->exec_interval_us = RUNTIEM_MAX_TICK_FRQ / frq;
 2666              		.loc 1 683 20 is_stmt 0 view .LVU723
 2667 0054 54F82530 		ldr	r3, [r4, r5, lsl #2]
 683:SYS/task_manager/task_manager.c ****     Task_Ptr[group][priority]->exec_interval_us = RUNTIEM_MAX_TICK_FRQ / frq;
 2668              		.loc 1 683 41 view .LVU724
 2669 0058 C3F808B0 		str	fp, [r3, #8]
 684:SYS/task_manager/task_manager.c ****     Task_Ptr[group][priority]->Exec_Func = func;
ARM GAS  /tmp/cc3rJM77.s 			page 76


 2670              		.loc 1 684 5 is_stmt 1 view .LVU725
 684:SYS/task_manager/task_manager.c ****     Task_Ptr[group][priority]->Exec_Func = func;
 2671              		.loc 1 684 72 is_stmt 0 view .LVU726
 2672 005c 5846     		mov	r0, fp
 2673              	.LVL144:
 684:SYS/task_manager/task_manager.c ****     Task_Ptr[group][priority]->Exec_Func = func;
 2674              		.loc 1 684 72 view .LVU727
 2675 005e FFF7FEFF 		bl	__aeabi_ui2d
 2676              	.LVL145:
 2677 0062 0246     		mov	r2, r0
 2678 0064 0B46     		mov	r3, r1
 2679 0066 6AA1     		adr	r1, .L177
 2680 0068 D1E90001 		ldrd	r0, [r1]
 2681 006c FFF7FEFF 		bl	__aeabi_ddiv
 2682              	.LVL146:
 684:SYS/task_manager/task_manager.c ****     Task_Ptr[group][priority]->Exec_Func = func;
 2683              		.loc 1 684 20 view .LVU728
 2684 0070 54F825B0 		ldr	fp, [r4, r5, lsl #2]
 2685              	.LVL147:
 684:SYS/task_manager/task_manager.c ****     Task_Ptr[group][priority]->Exec_Func = func;
 2686              		.loc 1 684 49 view .LVU729
 2687 0074 FFF7FEFF 		bl	__aeabi_d2uiz
 2688              	.LVL148:
 2689 0078 ABF80C00 		strh	r0, [fp, #12]	@ movhi
 685:SYS/task_manager/task_manager.c **** 
 2690              		.loc 1 685 5 is_stmt 1 view .LVU730
 685:SYS/task_manager/task_manager.c **** 
 2691              		.loc 1 685 20 is_stmt 0 view .LVU731
 2692 007c 54F82530 		ldr	r3, [r4, r5, lsl #2]
 685:SYS/task_manager/task_manager.c **** 
 2693              		.loc 1 685 42 view .LVU732
 2694 0080 0C9A     		ldr	r2, [sp, #48]
 2695 0082 1A61     		str	r2, [r3, #16]
 687:SYS/task_manager/task_manager.c **** 
 2696              		.loc 1 687 5 is_stmt 1 view .LVU733
 687:SYS/task_manager/task_manager.c **** 
 2697              		.loc 1 687 20 is_stmt 0 view .LVU734
 2698 0084 54F82530 		ldr	r3, [r4, r5, lsl #2]
 687:SYS/task_manager/task_manager.c **** 
 2699              		.loc 1 687 65 view .LVU735
 2700 0088 4AEA060A 		orr	r10, r10, r6
 687:SYS/task_manager/task_manager.c **** 
 2701              		.loc 1 687 50 view .LVU736
 2702 008c 83F800A0 		strb	r10, [r3]
 691:SYS/task_manager/task_manager.c ****     Task_Ptr[group][priority]->delay_info.tsk_hdl = handle;
 2703              		.loc 1 691 5 is_stmt 1 view .LVU737
 691:SYS/task_manager/task_manager.c ****     Task_Ptr[group][priority]->delay_info.tsk_hdl = handle;
 2704              		.loc 1 691 20 is_stmt 0 view .LVU738
 2705 0090 54F82520 		ldr	r2, [r4, r5, lsl #2]
 691:SYS/task_manager/task_manager.c ****     Task_Ptr[group][priority]->delay_info.tsk_hdl = handle;
 2706              		.loc 1 691 52 view .LVU739
 2707 0094 0023     		movs	r3, #0
 2708 0096 82F86430 		strb	r3, [r2, #100]
 692:SYS/task_manager/task_manager.c ****     Task_Ptr[group][priority]->delay_info.time_unit = 0;
 2709              		.loc 1 692 5 is_stmt 1 view .LVU740
 692:SYS/task_manager/task_manager.c ****     Task_Ptr[group][priority]->delay_info.time_unit = 0;
 2710              		.loc 1 692 20 is_stmt 0 view .LVU741
ARM GAS  /tmp/cc3rJM77.s 			page 77


 2711 009a 54F82520 		ldr	r2, [r4, r5, lsl #2]
 692:SYS/task_manager/task_manager.c ****     Task_Ptr[group][priority]->delay_info.time_unit = 0;
 2712              		.loc 1 692 51 view .LVU742
 2713 009e C2F86890 		str	r9, [r2, #104]
 693:SYS/task_manager/task_manager.c **** 
 2714              		.loc 1 693 5 is_stmt 1 view .LVU743
 693:SYS/task_manager/task_manager.c **** 
 2715              		.loc 1 693 20 is_stmt 0 view .LVU744
 2716 00a2 54F82520 		ldr	r2, [r4, r5, lsl #2]
 693:SYS/task_manager/task_manager.c **** 
 2717              		.loc 1 693 53 view .LVU745
 2718 00a6 D366     		str	r3, [r2, #108]
 696:SYS/task_manager/task_manager.c ****     Task_Ptr[group][priority]->TCB.Stack = (uint32_t *)malloc(StackDepth * sizeof(uint32_t));
 2719              		.loc 1 696 5 is_stmt 1 view .LVU746
 696:SYS/task_manager/task_manager.c ****     Task_Ptr[group][priority]->TCB.Stack = (uint32_t *)malloc(StackDepth * sizeof(uint32_t));
 2720              		.loc 1 696 20 is_stmt 0 view .LVU747
 2721 00a8 54F82530 		ldr	r3, [r4, r5, lsl #2]
 696:SYS/task_manager/task_manager.c ****     Task_Ptr[group][priority]->TCB.Stack = (uint32_t *)malloc(StackDepth * sizeof(uint32_t));
 2722              		.loc 1 696 44 view .LVU748
 2723 00ac 0D9A     		ldr	r2, [sp, #52]
 2724 00ae DA64     		str	r2, [r3, #76]
 697:SYS/task_manager/task_manager.c **** 
 2725              		.loc 1 697 5 is_stmt 1 view .LVU749
 697:SYS/task_manager/task_manager.c **** 
 2726              		.loc 1 697 20 is_stmt 0 view .LVU750
 2727 00b0 54F82590 		ldr	r9, [r4, r5, lsl #2]
 697:SYS/task_manager/task_manager.c **** 
 2728              		.loc 1 697 56 view .LVU751
 2729 00b4 9000     		lsls	r0, r2, #2
 2730 00b6 FFF7FEFF 		bl	malloc
 2731              	.LVL149:
 697:SYS/task_manager/task_manager.c **** 
 2732              		.loc 1 697 42 view .LVU752
 2733 00ba C9F85400 		str	r0, [r9, #84]
 699:SYS/task_manager/task_manager.c ****     {
 2734              		.loc 1 699 5 is_stmt 1 view .LVU753
 699:SYS/task_manager/task_manager.c ****     {
 2735              		.loc 1 699 24 is_stmt 0 view .LVU754
 2736 00be 54F82500 		ldr	r0, [r4, r5, lsl #2]
 699:SYS/task_manager/task_manager.c ****     {
 2737              		.loc 1 699 39 view .LVU755
 2738 00c2 436D     		ldr	r3, [r0, #84]
 699:SYS/task_manager/task_manager.c ****     {
 2739              		.loc 1 699 8 view .LVU756
 2740 00c4 002B     		cmp	r3, #0
 2741 00c6 00F09A80 		beq	.L172
 701:SYS/task_manager/task_manager.c ****     }
 2742              		.loc 1 701 9 is_stmt 1 view .LVU757
 2743 00ca FFF7FEFF 		bl	Task_SetStkPtr_Val
 2744              	.LVL150:
 709:SYS/task_manager/task_manager.c ****     Task_Ptr[group][priority]->statistics_reg.Reg.TskFun_Statistics_REG = stop_statistics;
 2745              		.loc 1 709 5 view .LVU758
 709:SYS/task_manager/task_manager.c ****     Task_Ptr[group][priority]->statistics_reg.Reg.TskFun_Statistics_REG = stop_statistics;
 2746              		.loc 1 709 20 is_stmt 0 view .LVU759
 2747 00ce 54F82530 		ldr	r3, [r4, r5, lsl #2]
 709:SYS/task_manager/task_manager.c ****     Task_Ptr[group][priority]->statistics_reg.Reg.TskFun_Statistics_REG = stop_statistics;
 2748              		.loc 1 709 73 view .LVU760
ARM GAS  /tmp/cc3rJM77.s 			page 78


 2749 00d2 93F85820 		ldrb	r2, [r3, #88]	@ zero_extendqisi2
 2750 00d6 6FF30302 		bfc	r2, #0, #4
 2751 00da 83F85820 		strb	r2, [r3, #88]
 710:SYS/task_manager/task_manager.c **** 
 2752              		.loc 1 710 5 is_stmt 1 view .LVU761
 710:SYS/task_manager/task_manager.c **** 
 2753              		.loc 1 710 20 is_stmt 0 view .LVU762
 2754 00de 54F82530 		ldr	r3, [r4, r5, lsl #2]
 710:SYS/task_manager/task_manager.c **** 
 2755              		.loc 1 710 73 view .LVU763
 2756 00e2 93F85820 		ldrb	r2, [r3, #88]	@ zero_extendqisi2
 2757 00e6 6FF30712 		bfc	r2, #4, #4
 2758 00ea 83F85820 		strb	r2, [r3, #88]
 713:SYS/task_manager/task_manager.c ****     Task_Ptr[group][priority]->CallerUsing_US = 0;
 2759              		.loc 1 713 5 is_stmt 1 view .LVU764
 713:SYS/task_manager/task_manager.c ****     Task_Ptr[group][priority]->CallerUsing_US = 0;
 2760              		.loc 1 713 20 is_stmt 0 view .LVU765
 2761 00ee 54F82530 		ldr	r3, [r4, r5, lsl #2]
 713:SYS/task_manager/task_manager.c ****     Task_Ptr[group][priority]->CallerUsing_US = 0;
 2762              		.loc 1 713 47 view .LVU766
 2763 00f2 4FF00009 		mov	r9, #0
 2764 00f6 C3F85C90 		str	r9, [r3, #92]
 714:SYS/task_manager/task_manager.c **** 
 2765              		.loc 1 714 5 is_stmt 1 view .LVU767
 714:SYS/task_manager/task_manager.c **** 
 2766              		.loc 1 714 20 is_stmt 0 view .LVU768
 2767 00fa 54F82530 		ldr	r3, [r4, r5, lsl #2]
 714:SYS/task_manager/task_manager.c **** 
 2768              		.loc 1 714 47 view .LVU769
 2769 00fe C3F86090 		str	r9, [r3, #96]
 717:SYS/task_manager/task_manager.c ****     Task_Ptr[group][priority]->Exec_status.totlal_running_time = 0;
 2770              		.loc 1 717 5 is_stmt 1 view .LVU770
 717:SYS/task_manager/task_manager.c ****     Task_Ptr[group][priority]->Exec_status.totlal_running_time = 0;
 2771              		.loc 1 717 20 is_stmt 0 view .LVU771
 2772 0102 54F82530 		ldr	r3, [r4, r5, lsl #2]
 717:SYS/task_manager/task_manager.c ****     Task_Ptr[group][priority]->Exec_status.totlal_running_time = 0;
 2773              		.loc 1 717 52 view .LVU772
 2774 0106 0022     		movs	r2, #0
 2775 0108 5A64     		str	r2, [r3, #68]	@ float
 718:SYS/task_manager/task_manager.c **** 
 2776              		.loc 1 718 5 is_stmt 1 view .LVU773
 718:SYS/task_manager/task_manager.c **** 
 2777              		.loc 1 718 20 is_stmt 0 view .LVU774
 2778 010a 54F82530 		ldr	r3, [r4, r5, lsl #2]
 718:SYS/task_manager/task_manager.c **** 
 2779              		.loc 1 718 64 view .LVU775
 2780 010e C3F84090 		str	r9, [r3, #64]
 721:SYS/task_manager/task_manager.c ****     //set current task under this group flag to ready
 2781              		.loc 1 721 5 is_stmt 1 view .LVU776
 721:SYS/task_manager/task_manager.c ****     //set current task under this group flag to ready
 2782              		.loc 1 721 27 is_stmt 0 view .LVU777
 2783 0112 434B     		ldr	r3, .L177+16
 2784 0114 1978     		ldrb	r1, [r3]	@ zero_extendqisi2
 721:SYS/task_manager/task_manager.c ****     //set current task under this group flag to ready
 2785              		.loc 1 721 35 view .LVU778
 2786 0116 54F82500 		ldr	r0, [r4, r5, lsl #2]
 2787 011a 90F800C0 		ldrb	ip, [r0]	@ zero_extendqisi2
ARM GAS  /tmp/cc3rJM77.s 			page 79


 721:SYS/task_manager/task_manager.c ****     //set current task under this group flag to ready
 2788              		.loc 1 721 32 view .LVU779
 2789 011e 0122     		movs	r2, #1
 2790 0120 02FA0CFC 		lsl	ip, r2, ip
 721:SYS/task_manager/task_manager.c ****     //set current task under this group flag to ready
 2791              		.loc 1 721 27 view .LVU780
 2792 0124 41EAEC01 		orr	r1, r1, ip, asr #3
 2793 0128 C9B2     		uxtb	r1, r1
 2794 012a 1970     		strb	r1, [r3]
 723:SYS/task_manager/task_manager.c **** 
 2795              		.loc 1 723 5 is_stmt 1 view .LVU781
 723:SYS/task_manager/task_manager.c **** 
 2796              		.loc 1 723 28 is_stmt 0 view .LVU782
 2797 012c 90F800C0 		ldrb	ip, [r0]	@ zero_extendqisi2
 723:SYS/task_manager/task_manager.c **** 
 2798              		.loc 1 723 102 view .LVU783
 2799 0130 03EBDC03 		add	r3, r3, ip, lsr #3
 2800 0134 5978     		ldrb	r1, [r3, #1]	@ zero_extendqisi2
 723:SYS/task_manager/task_manager.c **** 
 2801              		.loc 1 723 107 view .LVU784
 2802 0136 02FA0CF2 		lsl	r2, r2, ip
 723:SYS/task_manager/task_manager.c **** 
 2803              		.loc 1 723 110 view .LVU785
 2804 013a 02F00702 		and	r2, r2, #7
 723:SYS/task_manager/task_manager.c **** 
 2805              		.loc 1 723 102 view .LVU786
 2806 013e 0A43     		orrs	r2, r2, r1
 2807 0140 5A70     		strb	r2, [r3, #1]
 725:SYS/task_manager/task_manager.c ****     Task_Ptr[group][priority]->Exec_status.detect_exec_time_arv = 0;
 2808              		.loc 1 725 5 is_stmt 1 view .LVU787
 725:SYS/task_manager/task_manager.c ****     Task_Ptr[group][priority]->Exec_status.detect_exec_time_arv = 0;
 2809              		.loc 1 725 60 is_stmt 0 view .LVU788
 2810 0142 C0F82C90 		str	r9, [r0, #44]
 726:SYS/task_manager/task_manager.c ****     Task_Ptr[group][priority]->Exec_status.detect_exec_time_max = 0;
 2811              		.loc 1 726 5 is_stmt 1 view .LVU789
 726:SYS/task_manager/task_manager.c ****     Task_Ptr[group][priority]->Exec_status.detect_exec_time_max = 0;
 2812              		.loc 1 726 20 is_stmt 0 view .LVU790
 2813 0146 54F82530 		ldr	r3, [r4, r5, lsl #2]
 726:SYS/task_manager/task_manager.c ****     Task_Ptr[group][priority]->Exec_status.detect_exec_time_max = 0;
 2814              		.loc 1 726 65 view .LVU791
 2815 014a C3F83090 		str	r9, [r3, #48]
 727:SYS/task_manager/task_manager.c **** 
 2816              		.loc 1 727 5 is_stmt 1 view .LVU792
 727:SYS/task_manager/task_manager.c **** 
 2817              		.loc 1 727 20 is_stmt 0 view .LVU793
 2818 014e 54F82530 		ldr	r3, [r4, r5, lsl #2]
 727:SYS/task_manager/task_manager.c **** 
 2819              		.loc 1 727 65 view .LVU794
 2820 0152 C3F83490 		str	r9, [r3, #52]
 729:SYS/task_manager/task_manager.c ****     RuntimeObj_Reset(&(Task_Ptr[group][priority]->Exec_status.Init_Time));
 2821              		.loc 1 729 5 is_stmt 1 view .LVU795
 729:SYS/task_manager/task_manager.c ****     RuntimeObj_Reset(&(Task_Ptr[group][priority]->Exec_status.Init_Time));
 2822              		.loc 1 729 39 is_stmt 0 view .LVU796
 2823 0156 54F82500 		ldr	r0, [r4, r5, lsl #2]
 729:SYS/task_manager/task_manager.c ****     RuntimeObj_Reset(&(Task_Ptr[group][priority]->Exec_status.Init_Time));
 2824              		.loc 1 729 5 view .LVU797
 2825 015a 2430     		adds	r0, r0, #36
ARM GAS  /tmp/cc3rJM77.s 			page 80


 2826 015c FFF7FEFF 		bl	RuntimeObj_Reset
 2827              	.LVL151:
 730:SYS/task_manager/task_manager.c ****     RuntimeObj_Reset(&(Task_Ptr[group][priority]->Exec_status.Start_Time));
 2828              		.loc 1 730 5 is_stmt 1 view .LVU798
 730:SYS/task_manager/task_manager.c ****     RuntimeObj_Reset(&(Task_Ptr[group][priority]->Exec_status.Start_Time));
 2829              		.loc 1 730 39 is_stmt 0 view .LVU799
 2830 0160 54F82500 		ldr	r0, [r4, r5, lsl #2]
 730:SYS/task_manager/task_manager.c ****     RuntimeObj_Reset(&(Task_Ptr[group][priority]->Exec_status.Start_Time));
 2831              		.loc 1 730 5 view .LVU800
 2832 0164 1430     		adds	r0, r0, #20
 2833 0166 FFF7FEFF 		bl	RuntimeObj_Reset
 2834              	.LVL152:
 731:SYS/task_manager/task_manager.c **** 
 2835              		.loc 1 731 5 is_stmt 1 view .LVU801
 731:SYS/task_manager/task_manager.c **** 
 2836              		.loc 1 731 39 is_stmt 0 view .LVU802
 2837 016a 54F82500 		ldr	r0, [r4, r5, lsl #2]
 731:SYS/task_manager/task_manager.c **** 
 2838              		.loc 1 731 5 view .LVU803
 2839 016e 1C30     		adds	r0, r0, #28
 2840 0170 FFF7FEFF 		bl	RuntimeObj_Reset
 2841              	.LVL153:
 733:SYS/task_manager/task_manager.c **** 
 2842              		.loc 1 733 5 is_stmt 1 view .LVU804
 733:SYS/task_manager/task_manager.c **** 
 2843              		.loc 1 733 20 is_stmt 0 view .LVU805
 2844 0174 54F825A0 		ldr	r10, [r4, r5, lsl #2]
 733:SYS/task_manager/task_manager.c **** 
 2845              		.loc 1 733 56 view .LVU806
 2846 0178 FFF7FEFF 		bl	Get_CurrentRunningUs
 2847              	.LVL154:
 733:SYS/task_manager/task_manager.c **** 
 2848              		.loc 1 733 54 view .LVU807
 2849 017c CAF81400 		str	r0, [r10, #20]
 2850 0180 CAF81810 		str	r1, [r10, #24]
 735:SYS/task_manager/task_manager.c ****     Task_Ptr[group][priority]->Exec_status.error_code = NOERROR;
 2851              		.loc 1 735 5 is_stmt 1 view .LVU808
 735:SYS/task_manager/task_manager.c ****     Task_Ptr[group][priority]->Exec_status.error_code = NOERROR;
 2852              		.loc 1 735 20 is_stmt 0 view .LVU809
 2853 0184 54F82530 		ldr	r3, [r4, r5, lsl #2]
 735:SYS/task_manager/task_manager.c ****     Task_Ptr[group][priority]->Exec_status.error_code = NOERROR;
 2854              		.loc 1 735 55 view .LVU810
 2855 0188 C3F83890 		str	r9, [r3, #56]
 736:SYS/task_manager/task_manager.c **** 
 2856              		.loc 1 736 5 is_stmt 1 view .LVU811
 736:SYS/task_manager/task_manager.c **** 
 2857              		.loc 1 736 20 is_stmt 0 view .LVU812
 2858 018c 54F82530 		ldr	r3, [r4, r5, lsl #2]
 736:SYS/task_manager/task_manager.c **** 
 2859              		.loc 1 736 55 view .LVU813
 2860 0190 83F83C90 		strb	r9, [r3, #60]
 738:SYS/task_manager/task_manager.c **** 
 2861              		.loc 1 738 5 is_stmt 1 view .LVU814
 2862 0194 54F82500 		ldr	r0, [r4, r5, lsl #2]
 2863 0198 FFF7FEFF 		bl	Task_SetReady
 2864              	.LVL155:
 740:SYS/task_manager/task_manager.c ****     if (Task_Ptr[group][priority]->item_ptr == NULL)
ARM GAS  /tmp/cc3rJM77.s 			page 81


 2865              		.loc 1 740 5 view .LVU815
 740:SYS/task_manager/task_manager.c ****     if (Task_Ptr[group][priority]->item_ptr == NULL)
 2866              		.loc 1 740 20 is_stmt 0 view .LVU816
 2867 019c 54F82590 		ldr	r9, [r4, r5, lsl #2]
 740:SYS/task_manager/task_manager.c ****     if (Task_Ptr[group][priority]->item_ptr == NULL)
 2868              		.loc 1 740 55 view .LVU817
 2869 01a0 1420     		movs	r0, #20
 2870 01a2 FFF7FEFF 		bl	malloc
 2871              	.LVL156:
 740:SYS/task_manager/task_manager.c ****     if (Task_Ptr[group][priority]->item_ptr == NULL)
 2872              		.loc 1 740 41 view .LVU818
 2873 01a6 C9F87800 		str	r0, [r9, #120]
 741:SYS/task_manager/task_manager.c ****     {
 2874              		.loc 1 741 5 is_stmt 1 view .LVU819
 741:SYS/task_manager/task_manager.c ****     {
 2875              		.loc 1 741 24 is_stmt 0 view .LVU820
 2876 01aa 54F82510 		ldr	r1, [r4, r5, lsl #2]
 741:SYS/task_manager/task_manager.c ****     {
 2877              		.loc 1 741 34 view .LVU821
 2878 01ae 886F     		ldr	r0, [r1, #120]
 741:SYS/task_manager/task_manager.c ****     {
 2879              		.loc 1 741 8 view .LVU822
 2880 01b0 40B3     		cbz	r0, .L173
 746:SYS/task_manager/task_manager.c ****     if (TskCrt_RegList.num == 0)
 2881              		.loc 1 746 5 is_stmt 1 view .LVU823
 2882 01b2 FFF7FEFF 		bl	List_ItemInit
 2883              	.LVL157:
 747:SYS/task_manager/task_manager.c ****     {
 2884              		.loc 1 747 5 view .LVU824
 747:SYS/task_manager/task_manager.c ****     {
 2885              		.loc 1 747 23 is_stmt 0 view .LVU825
 2886 01b6 1B4B     		ldr	r3, .L177+20
 2887 01b8 1B78     		ldrb	r3, [r3]	@ zero_extendqisi2
 747:SYS/task_manager/task_manager.c ****     {
 2888              		.loc 1 747 8 view .LVU826
 2889 01ba B3B9     		cbnz	r3, .L169
 749:SYS/task_manager/task_manager.c ****     }
 2890              		.loc 1 749 9 is_stmt 1 view .LVU827
 749:SYS/task_manager/task_manager.c ****     }
 2891              		.loc 1 749 56 is_stmt 0 view .LVU828
 2892 01bc 54F82510 		ldr	r1, [r4, r5, lsl #2]
 749:SYS/task_manager/task_manager.c ****     }
 2893              		.loc 1 749 9 view .LVU829
 2894 01c0 194B     		ldr	r3, .L177+24
 2895 01c2 0222     		movs	r2, #2
 2896 01c4 896F     		ldr	r1, [r1, #120]
 2897 01c6 1948     		ldr	r0, .L177+28
 2898 01c8 FFF7FEFF 		bl	List_Init
 2899              	.LVL158:
 2900              	.L170:
 756:SYS/task_manager/task_manager.c **** 
 2901              		.loc 1 756 5 is_stmt 1 view .LVU830
 756:SYS/task_manager/task_manager.c **** 
 2902              		.loc 1 756 35 is_stmt 0 view .LVU831
 2903 01cc 06EBC706 		add	r6, r6, r7, lsl #3
 2904 01d0 124B     		ldr	r3, .L177+12
 2905 01d2 53F82600 		ldr	r0, [r3, r6, lsl #2]
ARM GAS  /tmp/cc3rJM77.s 			page 82


 756:SYS/task_manager/task_manager.c **** 
 2906              		.loc 1 756 5 view .LVU832
 2907 01d6 00F16401 		add	r1, r0, #100
 2908 01da 7C30     		adds	r0, r0, #124
 2909 01dc FFF7FEFF 		bl	List_ItemInit
 2910              	.LVL159:
 758:SYS/task_manager/task_manager.c **** 
 2911              		.loc 1 758 5 is_stmt 1 view .LVU833
 758:SYS/task_manager/task_manager.c **** 
 2912              		.loc 1 758 19 is_stmt 0 view .LVU834
 2913 01e0 104A     		ldr	r2, .L177+20
 2914 01e2 1378     		ldrb	r3, [r2]	@ zero_extendqisi2
 758:SYS/task_manager/task_manager.c **** 
 2915              		.loc 1 758 23 view .LVU835
 2916 01e4 0133     		adds	r3, r3, #1
 2917 01e6 1370     		strb	r3, [r2]
 760:SYS/task_manager/task_manager.c **** }
 2918              		.loc 1 760 5 is_stmt 1 view .LVU836
 760:SYS/task_manager/task_manager.c **** }
 2919              		.loc 1 760 12 is_stmt 0 view .LVU837
 2920 01e8 1CE7     		b	.L166
 2921              	.L169:
 753:SYS/task_manager/task_manager.c ****     }
 2922              		.loc 1 753 9 is_stmt 1 view .LVU838
 753:SYS/task_manager/task_manager.c ****     }
 2923              		.loc 1 753 63 is_stmt 0 view .LVU839
 2924 01ea 06EBC703 		add	r3, r6, r7, lsl #3
 2925 01ee 0B4A     		ldr	r2, .L177+12
 2926 01f0 52F82330 		ldr	r3, [r2, r3, lsl #2]
 753:SYS/task_manager/task_manager.c ****     }
 2927              		.loc 1 753 9 view .LVU840
 2928 01f4 996F     		ldr	r1, [r3, #120]
 2929 01f6 0D48     		ldr	r0, .L177+28
 2930 01f8 FFF7FEFF 		bl	List_Insert_Item
 2931              	.LVL160:
 2932 01fc E6E7     		b	.L170
 2933              	.L172:
 705:SYS/task_manager/task_manager.c ****     }
 2934              		.loc 1 705 16 view .LVU841
 2935 01fe 4FF00008 		mov	r8, #0
 2936              	.LVL161:
 705:SYS/task_manager/task_manager.c ****     }
 2937              		.loc 1 705 16 view .LVU842
 2938 0202 0FE7     		b	.L166
 2939              	.LVL162:
 2940              	.L173:
 743:SYS/task_manager/task_manager.c ****     }
 2941              		.loc 1 743 16 view .LVU843
 2942 0204 4FF00008 		mov	r8, #0
 2943              	.LVL163:
 743:SYS/task_manager/task_manager.c ****     }
 2944              		.loc 1 743 16 view .LVU844
 2945 0208 0CE7     		b	.L166
 2946              	.L178:
 2947 020a 00BFAFF3 		.align	3
 2947      0080
 2948              	.L177:
ARM GAS  /tmp/cc3rJM77.s 			page 83


 2949 0210 00000000 		.word	0
 2950 0214 80842E41 		.word	1093567616
 2951 0218 00000000 		.word	.LANCHOR14
 2952 021c 00000000 		.word	Task_Ptr
 2953 0220 00000000 		.word	.LANCHOR0
 2954 0224 00000000 		.word	.LANCHOR3
 2955 0228 00000000 		.word	Task_PriorityCompare
 2956 022c 04000000 		.word	.LANCHOR3+4
 2957              		.cfi_endproc
 2958              	.LFE156:
 2960              		.section	.text.Task_Remove,"ax",%progbits
 2961              		.align	1
 2962              		.global	Task_Remove
 2963              		.syntax unified
 2964              		.thumb
 2965              		.thumb_func
 2966              		.fpu fpv4-sp-d16
 2968              	Task_Remove:
 2969              	.LVL164:
 2970              	.LFB160:
 790:SYS/task_manager/task_manager.c ****     //convert Tsk_Hdl from uint32_t var to Task Address which we need to delete
 2971              		.loc 1 790 1 is_stmt 1 view -0
 2972              		.cfi_startproc
 2973              		@ args = 0, pretend = 0, frame = 0
 2974              		@ frame_needed = 0, uses_anonymous_args = 0
 790:SYS/task_manager/task_manager.c ****     //convert Tsk_Hdl from uint32_t var to Task Address which we need to delete
 2975              		.loc 1 790 1 is_stmt 0 view .LVU846
 2976 0000 70B5     		push	{r4, r5, r6, lr}
 2977              	.LCFI40:
 2978              		.cfi_def_cfa_offset 16
 2979              		.cfi_offset 4, -16
 2980              		.cfi_offset 5, -12
 2981              		.cfi_offset 6, -8
 2982              		.cfi_offset 14, -4
 2983 0002 0546     		mov	r5, r0
 796:SYS/task_manager/task_manager.c ****     uint8_t remove_task = GET_TASKINGROUP_PRIORITY(((Task *)Tsk_Hdl)->priority.Priority);
 2984              		.loc 1 796 5 is_stmt 1 view .LVU847
 796:SYS/task_manager/task_manager.c ****     uint8_t remove_task = GET_TASKINGROUP_PRIORITY(((Task *)Tsk_Hdl)->priority.Priority);
 2985              		.loc 1 796 28 is_stmt 0 view .LVU848
 2986 0004 0378     		ldrb	r3, [r0]	@ zero_extendqisi2
 796:SYS/task_manager/task_manager.c ****     uint8_t remove_task = GET_TASKINGROUP_PRIORITY(((Task *)Tsk_Hdl)->priority.Priority);
 2987              		.loc 1 796 13 view .LVU849
 2988 0006 DE08     		lsrs	r6, r3, #3
 2989              	.LVL165:
 797:SYS/task_manager/task_manager.c **** 
 2990              		.loc 1 797 5 is_stmt 1 view .LVU850
 797:SYS/task_manager/task_manager.c **** 
 2991              		.loc 1 797 13 is_stmt 0 view .LVU851
 2992 0008 03F00704 		and	r4, r3, #7
 2993              	.LVL166:
 799:SYS/task_manager/task_manager.c **** 
 2994              		.loc 1 799 5 is_stmt 1 view .LVU852
 2995 000c FFF7FEFF 		bl	ReSet_Task_Data
 2996              	.LVL167:
 802:SYS/task_manager/task_manager.c ****     free((uint32_t *)((Task *)Tsk_Hdl)->TCB.Top_Stk_Ptr);
 2997              		.loc 1 802 5 view .LVU853
 2998 0010 686D     		ldr	r0, [r5, #84]
ARM GAS  /tmp/cc3rJM77.s 			page 84


 2999 0012 FFF7FEFF 		bl	free
 3000              	.LVL168:
 803:SYS/task_manager/task_manager.c **** #endif
 3001              		.loc 1 803 5 view .LVU854
 803:SYS/task_manager/task_manager.c **** #endif
 3002              		.loc 1 803 44 is_stmt 0 view .LVU855
 3003 0016 286D     		ldr	r0, [r5, #80]
 803:SYS/task_manager/task_manager.c **** #endif
 3004              		.loc 1 803 5 view .LVU856
 3005 0018 FFF7FEFF 		bl	free
 3006              	.LVL169:
 806:SYS/task_manager/task_manager.c ****     Task_Ptr[remove_group][remove_task] = NULL;
 3007              		.loc 1 806 5 is_stmt 1 view .LVU857
 3008 001c 2846     		mov	r0, r5
 3009 001e FFF7FEFF 		bl	free
 3010              	.LVL170:
 807:SYS/task_manager/task_manager.c **** }
 3011              		.loc 1 807 5 view .LVU858
 807:SYS/task_manager/task_manager.c **** }
 3012              		.loc 1 807 41 is_stmt 0 view .LVU859
 3013 0022 04EBC603 		add	r3, r4, r6, lsl #3
 3014 0026 024A     		ldr	r2, .L181
 3015 0028 0021     		movs	r1, #0
 3016 002a 42F82310 		str	r1, [r2, r3, lsl #2]
 808:SYS/task_manager/task_manager.c **** 
 3017              		.loc 1 808 1 view .LVU860
 3018 002e 70BD     		pop	{r4, r5, r6, pc}
 3019              	.LVL171:
 3020              	.L182:
 808:SYS/task_manager/task_manager.c **** 
 3021              		.loc 1 808 1 view .LVU861
 3022              		.align	2
 3023              	.L181:
 3024 0030 00000000 		.word	Task_Ptr
 3025              		.cfi_endproc
 3026              	.LFE160:
 3028              		.section	.text.TaskSystem_Start,"ax",%progbits
 3029              		.align	1
 3030              		.global	TaskSystem_Start
 3031              		.syntax unified
 3032              		.thumb
 3033              		.thumb_func
 3034              		.fpu fpv4-sp-d16
 3036              	TaskSystem_Start:
 3037              	.LFB161:
 811:SYS/task_manager/task_manager.c ****     Runtime_Config(RUNTIME_TICK_FRQ_40K);
 3038              		.loc 1 811 1 is_stmt 1 view -0
 3039              		.cfi_startproc
 3040              		@ args = 0, pretend = 0, frame = 0
 3041              		@ frame_needed = 0, uses_anonymous_args = 0
 3042 0000 10B5     		push	{r4, lr}
 3043              	.LCFI41:
 3044              		.cfi_def_cfa_offset 8
 3045              		.cfi_offset 4, -8
 3046              		.cfi_offset 14, -4
 812:SYS/task_manager/task_manager.c ****     Runtime_Set_start_Callback(NULL);
 3047              		.loc 1 812 5 view .LVU863
ARM GAS  /tmp/cc3rJM77.s 			page 85


 3048 0002 49F64040 		movw	r0, #40000
 3049 0006 FFF7FEFF 		bl	Runtime_Config
 3050              	.LVL172:
 813:SYS/task_manager/task_manager.c ****     Runtime_Set_stop_Callback(NULL);
 3051              		.loc 1 813 5 view .LVU864
 3052 000a 0020     		movs	r0, #0
 3053 000c FFF7FEFF 		bl	Runtime_Set_start_Callback
 3054              	.LVL173:
 814:SYS/task_manager/task_manager.c ****     Runtime_Set_tick_Callback(Task_Scheduler); /* 5us cast by calling the scheduler */
 3055              		.loc 1 814 5 view .LVU865
 3056 0010 0020     		movs	r0, #0
 3057 0012 FFF7FEFF 		bl	Runtime_Set_stop_Callback
 3058              	.LVL174:
 815:SYS/task_manager/task_manager.c ****     Runtime_Start();
 3059              		.loc 1 815 5 view .LVU866
 3060 0016 1148     		ldr	r0, .L186
 3061 0018 FFF7FEFF 		bl	Runtime_Set_tick_Callback
 3062              	.LVL175:
 816:SYS/task_manager/task_manager.c **** 
 3063              		.loc 1 816 5 view .LVU867
 3064 001c FFF7FEFF 		bl	Runtime_Start
 3065              	.LVL176:
 818:SYS/task_manager/task_manager.c **** 
 3066              		.loc 1 818 5 view .LVU868
 3067 0020 0F4C     		ldr	r4, .L186+4
 3068 0022 2046     		mov	r0, r4
 3069 0024 FFF7FEFF 		bl	RuntimeObj_Reset
 3070              	.LVL177:
 820:SYS/task_manager/task_manager.c **** 
 3071              		.loc 1 820 5 view .LVU869
 820:SYS/task_manager/task_manager.c **** 
 3072              		.loc 1 820 25 is_stmt 0 view .LVU870
 3073 0028 FFF7FEFF 		bl	Get_CurrentRunningUs
 3074              	.LVL178:
 820:SYS/task_manager/task_manager.c **** 
 3075              		.loc 1 820 23 view .LVU871
 3076 002c C4E90001 		strd	r0, [r4]
 823:SYS/task_manager/task_manager.c **** 
 3077              		.loc 1 823 5 is_stmt 1 view .LVU872
 823:SYS/task_manager/task_manager.c **** 
 3078              		.loc 1 823 21 is_stmt 0 view .LVU873
 3079 0030 FFF7FEFF 		bl	Task_Get_HighestRank_RdyTask
 3080              	.LVL179:
 823:SYS/task_manager/task_manager.c **** 
 3081              		.loc 1 823 19 view .LVU874
 3082 0034 0B4B     		ldr	r3, .L186+8
 3083 0036 1860     		str	r0, [r3]
 825:SYS/task_manager/task_manager.c ****     {
 3084              		.loc 1 825 5 is_stmt 1 view .LVU875
 825:SYS/task_manager/task_manager.c ****     {
 3085              		.loc 1 825 8 is_stmt 0 view .LVU876
 3086 0038 50B1     		cbz	r0, .L184
 827:SYS/task_manager/task_manager.c ****         NxtTsk_TCB.Stack = NxtRunTsk_Ptr->TCB.Stack;
 3087              		.loc 1 827 9 is_stmt 1 view .LVU877
 827:SYS/task_manager/task_manager.c ****         NxtTsk_TCB.Stack = NxtRunTsk_Ptr->TCB.Stack;
 3088              		.loc 1 827 34 is_stmt 0 view .LVU878
 3089 003a 00F15002 		add	r2, r0, #80
ARM GAS  /tmp/cc3rJM77.s 			page 86


 827:SYS/task_manager/task_manager.c ****         NxtTsk_TCB.Stack = NxtRunTsk_Ptr->TCB.Stack;
 3090              		.loc 1 827 32 view .LVU879
 3091 003e 0A4B     		ldr	r3, .L186+12
 3092 0040 1A60     		str	r2, [r3]
 828:SYS/task_manager/task_manager.c **** 
 3093              		.loc 1 828 9 is_stmt 1 view .LVU880
 828:SYS/task_manager/task_manager.c **** 
 3094              		.loc 1 828 46 is_stmt 0 view .LVU881
 3095 0042 426D     		ldr	r2, [r0, #84]
 828:SYS/task_manager/task_manager.c **** 
 3096              		.loc 1 828 26 view .LVU882
 3097 0044 5A60     		str	r2, [r3, #4]
 830:SYS/task_manager/task_manager.c ****     }
 3098              		.loc 1 830 9 is_stmt 1 view .LVU883
 830:SYS/task_manager/task_manager.c ****     }
 3099              		.loc 1 830 20 is_stmt 0 view .LVU884
 3100 0046 094A     		ldr	r2, .L186+16
 3101 0048 93E80300 		ldm	r3, {r0, r1}
 3102 004c 82E80300 		stm	r2, {r0, r1}
 3103              	.L184:
 834:SYS/task_manager/task_manager.c ****     Task_TriggerPendSV();
 3104              		.loc 1 834 5 is_stmt 1 view .LVU885
 3105 0050 FFF7FEFF 		bl	Task_SetPendSVPro
 3106              	.LVL180:
 835:SYS/task_manager/task_manager.c **** 
 3107              		.loc 1 835 5 view .LVU886
 3108 0054 FFF7FEFF 		bl	Task_TriggerPendSV
 3109              	.LVL181:
 837:SYS/task_manager/task_manager.c **** }
 3110              		.loc 1 837 5 view .LVU887
 838:SYS/task_manager/task_manager.c **** 
 3111              		.loc 1 838 1 is_stmt 0 view .LVU888
 3112 0058 10BD     		pop	{r4, pc}
 3113              	.L187:
 3114 005a 00BF     		.align	2
 3115              	.L186:
 3116 005c 00000000 		.word	Task_Scheduler
 3117 0060 00000000 		.word	.LANCHOR6
 3118 0064 00000000 		.word	.LANCHOR9
 3119 0068 00000000 		.word	NxtTsk_TCB
 3120 006c 00000000 		.word	CurTsk_TCB
 3121              		.cfi_endproc
 3122              	.LFE161:
 3124              		.section	.text.Task_SetRunState,"ax",%progbits
 3125              		.align	1
 3126              		.global	Task_SetRunState
 3127              		.syntax unified
 3128              		.thumb
 3129              		.thumb_func
 3130              		.fpu fpv4-sp-d16
 3132              	Task_SetRunState:
 3133              	.LVL182:
 3134              	.LFB162:
 841:SYS/task_manager/task_manager.c ****     ((Task *)Tsk_Handle)->Exec_status.State = state;
 3135              		.loc 1 841 1 is_stmt 1 view -0
 3136              		.cfi_startproc
 3137              		@ args = 0, pretend = 0, frame = 0
ARM GAS  /tmp/cc3rJM77.s 			page 87


 3138              		@ frame_needed = 0, uses_anonymous_args = 0
 3139              		@ link register save eliminated.
 842:SYS/task_manager/task_manager.c **** }
 3140              		.loc 1 842 5 view .LVU890
 842:SYS/task_manager/task_manager.c **** }
 3141              		.loc 1 842 45 is_stmt 0 view .LVU891
 3142 0000 80F84810 		strb	r1, [r0, #72]
 843:SYS/task_manager/task_manager.c **** 
 3143              		.loc 1 843 1 view .LVU892
 3144 0004 7047     		bx	lr
 3145              		.cfi_endproc
 3146              	.LFE162:
 3148              		.section	.text.Task_CountRunningTime,"ax",%progbits
 3149              		.align	1
 3150              		.global	Task_CountRunningTime
 3151              		.syntax unified
 3152              		.thumb
 3153              		.thumb_func
 3154              		.fpu fpv4-sp-d16
 3156              	Task_CountRunningTime:
 3157              	.LFB163:
 846:SYS/task_manager/task_manager.c ****     if (CurRunTsk_Ptr != NULL)
 3158              		.loc 1 846 1 is_stmt 1 view -0
 3159              		.cfi_startproc
 3160              		@ args = 0, pretend = 0, frame = 0
 3161              		@ frame_needed = 0, uses_anonymous_args = 0
 3162 0000 08B5     		push	{r3, lr}
 3163              	.LCFI42:
 3164              		.cfi_def_cfa_offset 8
 3165              		.cfi_offset 3, -8
 3166              		.cfi_offset 14, -4
 847:SYS/task_manager/task_manager.c ****     {
 3167              		.loc 1 847 5 view .LVU894
 847:SYS/task_manager/task_manager.c ****     {
 3168              		.loc 1 847 23 is_stmt 0 view .LVU895
 3169 0002 0D4B     		ldr	r3, .L195
 3170 0004 1B68     		ldr	r3, [r3]
 847:SYS/task_manager/task_manager.c ****     {
 3171              		.loc 1 847 8 view .LVU896
 3172 0006 6BB1     		cbz	r3, .L189
 3173              	.LBB5:
 849:SYS/task_manager/task_manager.c **** 
 3174              		.loc 1 849 9 is_stmt 1 view .LVU897
 3175 0008 FFF7FEFF 		bl	RunTime_Tick
 3176              	.LVL183:
 851:SYS/task_manager/task_manager.c ****         {
 3177              		.loc 1 851 9 view .LVU898
 851:SYS/task_manager/task_manager.c ****         {
 3178              		.loc 1 851 26 is_stmt 0 view .LVU899
 3179 000c 0A4B     		ldr	r3, .L195
 3180 000e 1B68     		ldr	r3, [r3]
 851:SYS/task_manager/task_manager.c ****         {
 3181              		.loc 1 851 46 view .LVU900
 3182 0010 93F85820 		ldrb	r2, [r3, #88]	@ zero_extendqisi2
 3183 0014 1209     		lsrs	r2, r2, #4
 851:SYS/task_manager/task_manager.c ****         {
 3184              		.loc 1 851 12 view .LVU901
ARM GAS  /tmp/cc3rJM77.s 			page 88


 3185 0016 012A     		cmp	r2, #1
 3186 0018 05D0     		beq	.L193
 3187              	.L191:
 856:SYS/task_manager/task_manager.c ****         {
 3188              		.loc 1 856 9 is_stmt 1 view .LVU902
 856:SYS/task_manager/task_manager.c ****         {
 3189              		.loc 1 856 46 is_stmt 0 view .LVU903
 3190 001a 93F85820 		ldrb	r2, [r3, #88]	@ zero_extendqisi2
 3191 001e 1209     		lsrs	r2, r2, #4
 856:SYS/task_manager/task_manager.c ****         {
 3192              		.loc 1 856 12 view .LVU904
 3193 0020 012A     		cmp	r2, #1
 3194 0022 04D0     		beq	.L194
 3195              	.L189:
 3196              	.LBE5:
 861:SYS/task_manager/task_manager.c **** 
 3197              		.loc 1 861 1 view .LVU905
 3198 0024 08BD     		pop	{r3, pc}
 3199              	.L193:
 3200              	.LBB6:
 853:SYS/task_manager/task_manager.c ****         }
 3201              		.loc 1 853 13 is_stmt 1 view .LVU906
 853:SYS/task_manager/task_manager.c ****         }
 3202              		.loc 1 853 26 is_stmt 0 view .LVU907
 3203 0026 DA6D     		ldr	r2, [r3, #92]
 853:SYS/task_manager/task_manager.c ****         }
 3204              		.loc 1 853 42 view .LVU908
 3205 0028 0132     		adds	r2, r2, #1
 3206 002a DA65     		str	r2, [r3, #92]
 3207 002c F5E7     		b	.L191
 3208              	.L194:
 858:SYS/task_manager/task_manager.c ****         }
 3209              		.loc 1 858 13 is_stmt 1 view .LVU909
 858:SYS/task_manager/task_manager.c ****         }
 3210              		.loc 1 858 26 is_stmt 0 view .LVU910
 3211 002e 1A6E     		ldr	r2, [r3, #96]
 858:SYS/task_manager/task_manager.c ****         }
 3212              		.loc 1 858 42 view .LVU911
 3213 0030 0132     		adds	r2, r2, #1
 3214 0032 1A66     		str	r2, [r3, #96]
 3215              	.LBE6:
 861:SYS/task_manager/task_manager.c **** 
 3216              		.loc 1 861 1 view .LVU912
 3217 0034 F6E7     		b	.L189
 3218              	.L196:
 3219 0036 00BF     		.align	2
 3220              	.L195:
 3221 0038 00000000 		.word	.LANCHOR4
 3222              		.cfi_endproc
 3223              	.LFE163:
 3225              		.section	.text.Task_Get_IdleUS,"ax",%progbits
 3226              		.align	1
 3227              		.global	Task_Get_IdleUS
 3228              		.syntax unified
 3229              		.thumb
 3230              		.thumb_func
 3231              		.fpu fpv4-sp-d16
ARM GAS  /tmp/cc3rJM77.s 			page 89


 3233              	Task_Get_IdleUS:
 3234              	.LFB166:
 948:SYS/task_manager/task_manager.c ****     return TaskSys_Idle_US;
 3235              		.loc 1 948 1 is_stmt 1 view -0
 3236              		.cfi_startproc
 3237              		@ args = 0, pretend = 0, frame = 0
 3238              		@ frame_needed = 0, uses_anonymous_args = 0
 3239              		@ link register save eliminated.
 949:SYS/task_manager/task_manager.c **** }
 3240              		.loc 1 949 5 view .LVU914
 950:SYS/task_manager/task_manager.c **** 
 3241              		.loc 1 950 1 is_stmt 0 view .LVU915
 3242 0000 014B     		ldr	r3, .L198
 3243 0002 1868     		ldr	r0, [r3]
 3244 0004 7047     		bx	lr
 3245              	.L199:
 3246 0006 00BF     		.align	2
 3247              	.L198:
 3248 0008 00000000 		.word	.LANCHOR7
 3249              		.cfi_endproc
 3250              	.LFE166:
 3252              		.section	.text.Task_Get_IdleOcupy,"ax",%progbits
 3253              		.align	1
 3254              		.global	Task_Get_IdleOcupy
 3255              		.syntax unified
 3256              		.thumb
 3257              		.thumb_func
 3258              		.fpu fpv4-sp-d16
 3260              	Task_Get_IdleOcupy:
 3261              	.LFB167:
 953:SYS/task_manager/task_manager.c ****     return TaskSys_Idle_Ocupy;
 3262              		.loc 1 953 1 is_stmt 1 view -0
 3263              		.cfi_startproc
 3264              		@ args = 0, pretend = 0, frame = 0
 3265              		@ frame_needed = 0, uses_anonymous_args = 0
 3266              		@ link register save eliminated.
 954:SYS/task_manager/task_manager.c **** }
 3267              		.loc 1 954 5 view .LVU917
 955:SYS/task_manager/task_manager.c **** 
 3268              		.loc 1 955 1 is_stmt 0 view .LVU918
 3269 0000 014B     		ldr	r3, .L201
 3270 0002 93ED000A 		vldr.32	s0, [r3]
 3271 0006 7047     		bx	lr
 3272              	.L202:
 3273              		.align	2
 3274              	.L201:
 3275 0008 00000000 		.word	.LANCHOR8
 3276              		.cfi_endproc
 3277              	.LFE167:
 3279              		.section	.text.TaskSys_Set_State,"ax",%progbits
 3280              		.align	1
 3281              		.global	TaskSys_Set_State
 3282              		.syntax unified
 3283              		.thumb
 3284              		.thumb_func
 3285              		.fpu fpv4-sp-d16
 3287              	TaskSys_Set_State:
ARM GAS  /tmp/cc3rJM77.s 			page 90


 3288              	.LVL184:
 3289              	.LFB169:
 976:SYS/task_manager/task_manager.c ****     TskSys_state = state;
 3290              		.loc 1 976 1 is_stmt 1 view -0
 3291              		.cfi_startproc
 3292              		@ args = 0, pretend = 0, frame = 0
 3293              		@ frame_needed = 0, uses_anonymous_args = 0
 3294              		@ link register save eliminated.
 977:SYS/task_manager/task_manager.c **** }
 3295              		.loc 1 977 5 view .LVU920
 977:SYS/task_manager/task_manager.c **** }
 3296              		.loc 1 977 18 is_stmt 0 view .LVU921
 3297 0000 014B     		ldr	r3, .L204
 3298 0002 1870     		strb	r0, [r3]
 978:SYS/task_manager/task_manager.c **** 
 3299              		.loc 1 978 1 view .LVU922
 3300 0004 7047     		bx	lr
 3301              	.L205:
 3302 0006 00BF     		.align	2
 3303              	.L204:
 3304 0008 00000000 		.word	.LANCHOR5
 3305              		.cfi_endproc
 3306              	.LFE169:
 3308              		.section	.text.TaskSys_Get_State,"ax",%progbits
 3309              		.align	1
 3310              		.global	TaskSys_Get_State
 3311              		.syntax unified
 3312              		.thumb
 3313              		.thumb_func
 3314              		.fpu fpv4-sp-d16
 3316              	TaskSys_Get_State:
 3317              	.LFB170:
 981:SYS/task_manager/task_manager.c ****     return TskSys_state;
 3318              		.loc 1 981 1 is_stmt 1 view -0
 3319              		.cfi_startproc
 3320              		@ args = 0, pretend = 0, frame = 0
 3321              		@ frame_needed = 0, uses_anonymous_args = 0
 3322              		@ link register save eliminated.
 982:SYS/task_manager/task_manager.c **** }
 3323              		.loc 1 982 5 view .LVU924
 982:SYS/task_manager/task_manager.c **** }
 3324              		.loc 1 982 12 is_stmt 0 view .LVU925
 3325 0000 014B     		ldr	r3, .L207
 3326 0002 1878     		ldrb	r0, [r3]	@ zero_extendqisi2
 983:SYS/task_manager/task_manager.c **** 
 3327              		.loc 1 983 1 view .LVU926
 3328 0004 7047     		bx	lr
 3329              	.L208:
 3330 0006 00BF     		.align	2
 3331              	.L207:
 3332 0008 00000000 		.word	.LANCHOR5
 3333              		.cfi_endproc
 3334              	.LFE170:
 3336              		.section	.text.Task_GetInfo_ByIndex,"ax",%progbits
 3337              		.align	1
 3338              		.global	Task_GetInfo_ByIndex
 3339              		.syntax unified
ARM GAS  /tmp/cc3rJM77.s 			page 91


 3340              		.thumb
 3341              		.thumb_func
 3342              		.fpu fpv4-sp-d16
 3344              	Task_GetInfo_ByIndex:
 3345              	.LVL185:
 3346              	.LFB173:
1123:SYS/task_manager/task_manager.c **** 
1124:SYS/task_manager/task_manager.c **** Task_Base_Info Task_GetInfo_ByIndex(uint8_t index)
1125:SYS/task_manager/task_manager.c **** {
 3347              		.loc 1 1125 1 is_stmt 1 view -0
 3348              		.cfi_startproc
 3349              		@ args = 0, pretend = 0, frame = 0
 3350              		@ frame_needed = 0, uses_anonymous_args = 0
 3351              		@ link register save eliminated.
1126:SYS/task_manager/task_manager.c ****     Task_Base_Info task_info;
 3352              		.loc 1 1126 5 view .LVU928
1127:SYS/task_manager/task_manager.c **** 
1128:SYS/task_manager/task_manager.c ****     return task_info;
 3353              		.loc 1 1128 5 view .LVU929
1129:SYS/task_manager/task_manager.c **** }
 3354              		.loc 1 1129 1 is_stmt 0 view .LVU930
 3355 0000 7047     		bx	lr
 3356              		.cfi_endproc
 3357              	.LFE173:
 3359              		.section	.text.Task_GetCurrentRunTask,"ax",%progbits
 3360              		.align	1
 3361              		.global	Task_GetCurrentRunTask
 3362              		.syntax unified
 3363              		.thumb
 3364              		.thumb_func
 3365              		.fpu fpv4-sp-d16
 3367              	Task_GetCurrentRunTask:
 3368              	.LFB174:
1130:SYS/task_manager/task_manager.c **** 
1131:SYS/task_manager/task_manager.c **** Task *Task_GetCurrentRunTask(void)
1132:SYS/task_manager/task_manager.c **** {
 3369              		.loc 1 1132 1 is_stmt 1 view -0
 3370              		.cfi_startproc
 3371              		@ args = 0, pretend = 0, frame = 0
 3372              		@ frame_needed = 0, uses_anonymous_args = 0
 3373              		@ link register save eliminated.
1133:SYS/task_manager/task_manager.c ****     return CurRunTsk_Ptr;
 3374              		.loc 1 1133 5 view .LVU932
1134:SYS/task_manager/task_manager.c **** }
 3375              		.loc 1 1134 1 is_stmt 0 view .LVU933
 3376 0000 014B     		ldr	r3, .L211
 3377 0002 1868     		ldr	r0, [r3]
 3378 0004 7047     		bx	lr
 3379              	.L212:
 3380 0006 00BF     		.align	2
 3381              	.L211:
 3382 0008 00000000 		.word	.LANCHOR4
 3383              		.cfi_endproc
 3384              	.LFE174:
 3386              		.comm	Task_OS_ExpStkBase,4,4
 3387              		.comm	NxtTsk_TCB,8,4
 3388              		.comm	CurTsk_TCB,8,4
ARM GAS  /tmp/cc3rJM77.s 			page 92


 3389              		.global	PndHstTsk_Ptr
 3390              		.global	NxtRunTsk_Ptr
 3391              		.global	CurRunTsk_Ptr
 3392              		.comm	Task_Ptr,256,4
 3393              		.section	.bss.CurRunTsk_Ptr,"aw",%nobits
 3394              		.align	2
 3395              		.set	.LANCHOR4,. + 0
 3398              	CurRunTsk_Ptr:
 3399 0000 00000000 		.space	4
 3400              		.section	.bss.NxtRunTsk_Ptr,"aw",%nobits
 3401              		.align	2
 3402              		.set	.LANCHOR9,. + 0
 3405              	NxtRunTsk_Ptr:
 3406 0000 00000000 		.space	4
 3407              		.section	.bss.PndHstTsk_Ptr,"aw",%nobits
 3408              		.align	2
 3409              		.set	.LANCHOR13,. + 0
 3412              	PndHstTsk_Ptr:
 3413 0000 00000000 		.space	4
 3414              		.section	.bss.TaskSys_Idle_Ocupy,"aw",%nobits
 3415              		.align	2
 3416              		.set	.LANCHOR8,. + 0
 3419              	TaskSys_Idle_Ocupy:
 3420 0000 00000000 		.space	4
 3421              		.section	.bss.TaskSys_Idle_US,"aw",%nobits
 3422              		.align	2
 3423              		.set	.LANCHOR7,. + 0
 3426              	TaskSys_Idle_US:
 3427 0000 00000000 		.space	4
 3428              		.section	.bss.TaskSys_StartTime,"aw",%nobits
 3429              		.align	3
 3430              		.set	.LANCHOR6,. + 0
 3433              	TaskSys_StartTime:
 3434 0000 00000000 		.space	8
 3434      00000000 
 3435              		.section	.bss.Task_OS_StkMem,"aw",%nobits
 3436              		.align	2
 3439              	Task_OS_StkMem:
 3440 0000 00000000 		.space	40960
 3440      00000000 
 3440      00000000 
 3440      00000000 
 3440      00000000 
 3441              		.section	.bss.TskCrt_RegList,"aw",%nobits
 3442              		.align	2
 3443              		.set	.LANCHOR3,. + 0
 3446              	TskCrt_RegList:
 3447 0000 00000000 		.space	24
 3447      00000000 
 3447      00000000 
 3447      00000000 
 3447      00000000 
 3448              		.section	.bss.TskHdl_BlkMap,"aw",%nobits
 3449              		.align	2
 3450              		.set	.LANCHOR1,. + 0
 3453              	TskHdl_BlkMap:
 3454 0000 00000000 		.space	9
ARM GAS  /tmp/cc3rJM77.s 			page 93


 3454      00000000 
 3454      00
 3455              		.section	.bss.TskHdl_PndMap,"aw",%nobits
 3456              		.align	2
 3457              		.set	.LANCHOR2,. + 0
 3460              	TskHdl_PndMap:
 3461 0000 00000000 		.space	9
 3461      00000000 
 3461      00
 3462              		.section	.bss.TskHdl_RdyMap,"aw",%nobits
 3463              		.align	2
 3464              		.set	.LANCHOR0,. + 0
 3467              	TskHdl_RdyMap:
 3468 0000 00000000 		.space	9
 3468      00000000 
 3468      00
 3469              		.section	.bss.TskSys_state,"aw",%nobits
 3470              		.set	.LANCHOR5,. + 0
 3473              	TskSys_state:
 3474 0000 00       		.space	1
 3475              		.section	.bss.i.11587,"aw",%nobits
 3476              		.set	.LANCHOR10,. + 0
 3479              	i.11587:
 3480 0000 00       		.space	1
 3481              		.section	.bss.taskOs_InitState.11539,"aw",%nobits
 3482              		.set	.LANCHOR14,. + 0
 3485              	taskOs_InitState.11539:
 3486 0000 00       		.space	1
 3487              		.section	.bss.traverse_start,"aw",%nobits
 3488              		.set	.LANCHOR11,. + 0
 3491              	traverse_start:
 3492 0000 00       		.space	1
 3493              		.section	.rodata.Tsk_Handle,"a"
 3494              		.align	2
 3495              		.set	.LANCHOR12,. + 0
 3498              	Tsk_Handle:
 3499 0000 00       		.byte	0
 3500 0001 00       		.byte	0
 3501 0002 01       		.byte	1
 3502 0003 00       		.byte	0
 3503 0004 02       		.byte	2
 3504 0005 00       		.byte	0
 3505 0006 01       		.byte	1
 3506 0007 00       		.byte	0
 3507 0008 03       		.byte	3
 3508 0009 00       		.byte	0
 3509 000a 01       		.byte	1
 3510 000b 00       		.byte	0
 3511 000c 02       		.byte	2
 3512 000d 00       		.byte	0
 3513 000e 01       		.byte	1
 3514 000f 00       		.byte	0
 3515 0010 04       		.byte	4
 3516 0011 00       		.byte	0
 3517 0012 01       		.byte	1
 3518 0013 00       		.byte	0
 3519 0014 02       		.byte	2
ARM GAS  /tmp/cc3rJM77.s 			page 94


 3520 0015 00       		.byte	0
 3521 0016 01       		.byte	1
 3522 0017 00       		.byte	0
 3523 0018 03       		.byte	3
 3524 0019 00       		.byte	0
 3525 001a 01       		.byte	1
 3526 001b 00       		.byte	0
 3527 001c 02       		.byte	2
 3528 001d 00       		.byte	0
 3529 001e 01       		.byte	1
 3530 001f 00       		.byte	0
 3531 0020 05       		.byte	5
 3532 0021 00       		.byte	0
 3533 0022 01       		.byte	1
 3534 0023 00       		.byte	0
 3535 0024 02       		.byte	2
 3536 0025 00       		.byte	0
 3537 0026 01       		.byte	1
 3538 0027 00       		.byte	0
 3539 0028 03       		.byte	3
 3540 0029 00       		.byte	0
 3541 002a 01       		.byte	1
 3542 002b 00       		.byte	0
 3543 002c 02       		.byte	2
 3544 002d 00       		.byte	0
 3545 002e 01       		.byte	1
 3546 002f 00       		.byte	0
 3547 0030 04       		.byte	4
 3548 0031 00       		.byte	0
 3549 0032 01       		.byte	1
 3550 0033 00       		.byte	0
 3551 0034 02       		.byte	2
 3552 0035 00       		.byte	0
 3553 0036 01       		.byte	1
 3554 0037 00       		.byte	0
 3555 0038 03       		.byte	3
 3556 0039 00       		.byte	0
 3557 003a 01       		.byte	1
 3558 003b 00       		.byte	0
 3559 003c 02       		.byte	2
 3560 003d 00       		.byte	0
 3561 003e 01       		.byte	1
 3562 003f 00       		.byte	0
 3563 0040 06       		.byte	6
 3564 0041 00       		.byte	0
 3565 0042 01       		.byte	1
 3566 0043 00       		.byte	0
 3567 0044 02       		.byte	2
 3568 0045 00       		.byte	0
 3569 0046 01       		.byte	1
 3570 0047 00       		.byte	0
 3571 0048 03       		.byte	3
 3572 0049 00       		.byte	0
 3573 004a 01       		.byte	1
 3574 004b 00       		.byte	0
 3575 004c 02       		.byte	2
 3576 004d 00       		.byte	0
ARM GAS  /tmp/cc3rJM77.s 			page 95


 3577 004e 01       		.byte	1
 3578 004f 00       		.byte	0
 3579 0050 04       		.byte	4
 3580 0051 00       		.byte	0
 3581 0052 01       		.byte	1
 3582 0053 00       		.byte	0
 3583 0054 02       		.byte	2
 3584 0055 00       		.byte	0
 3585 0056 01       		.byte	1
 3586 0057 00       		.byte	0
 3587 0058 03       		.byte	3
 3588 0059 00       		.byte	0
 3589 005a 01       		.byte	1
 3590 005b 00       		.byte	0
 3591 005c 02       		.byte	2
 3592 005d 00       		.byte	0
 3593 005e 01       		.byte	1
 3594 005f 00       		.byte	0
 3595 0060 05       		.byte	5
 3596 0061 00       		.byte	0
 3597 0062 01       		.byte	1
 3598 0063 00       		.byte	0
 3599 0064 02       		.byte	2
 3600 0065 00       		.byte	0
 3601 0066 01       		.byte	1
 3602 0067 00       		.byte	0
 3603 0068 03       		.byte	3
 3604 0069 00       		.byte	0
 3605 006a 01       		.byte	1
 3606 006b 00       		.byte	0
 3607 006c 02       		.byte	2
 3608 006d 00       		.byte	0
 3609 006e 01       		.byte	1
 3610 006f 00       		.byte	0
 3611 0070 04       		.byte	4
 3612 0071 00       		.byte	0
 3613 0072 01       		.byte	1
 3614 0073 00       		.byte	0
 3615 0074 02       		.byte	2
 3616 0075 00       		.byte	0
 3617 0076 01       		.byte	1
 3618 0077 00       		.byte	0
 3619 0078 03       		.byte	3
 3620 0079 00       		.byte	0
 3621 007a 01       		.byte	1
 3622 007b 00       		.byte	0
 3623 007c 02       		.byte	2
 3624 007d 00       		.byte	0
 3625 007e 01       		.byte	1
 3626 007f 00       		.byte	0
 3627 0080 07       		.byte	7
 3628 0081 00       		.byte	0
 3629 0082 01       		.byte	1
 3630 0083 00       		.byte	0
 3631 0084 02       		.byte	2
 3632 0085 00       		.byte	0
 3633 0086 01       		.byte	1
ARM GAS  /tmp/cc3rJM77.s 			page 96


 3634 0087 00       		.byte	0
 3635 0088 03       		.byte	3
 3636 0089 00       		.byte	0
 3637 008a 01       		.byte	1
 3638 008b 00       		.byte	0
 3639 008c 02       		.byte	2
 3640 008d 00       		.byte	0
 3641 008e 01       		.byte	1
 3642 008f 00       		.byte	0
 3643 0090 04       		.byte	4
 3644 0091 00       		.byte	0
 3645 0092 01       		.byte	1
 3646 0093 00       		.byte	0
 3647 0094 02       		.byte	2
 3648 0095 00       		.byte	0
 3649 0096 01       		.byte	1
 3650 0097 00       		.byte	0
 3651 0098 03       		.byte	3
 3652 0099 00       		.byte	0
 3653 009a 01       		.byte	1
 3654 009b 00       		.byte	0
 3655 009c 02       		.byte	2
 3656 009d 00       		.byte	0
 3657 009e 01       		.byte	1
 3658 009f 00       		.byte	0
 3659 00a0 05       		.byte	5
 3660 00a1 00       		.byte	0
 3661 00a2 01       		.byte	1
 3662 00a3 00       		.byte	0
 3663 00a4 02       		.byte	2
 3664 00a5 00       		.byte	0
 3665 00a6 01       		.byte	1
 3666 00a7 00       		.byte	0
 3667 00a8 03       		.byte	3
 3668 00a9 00       		.byte	0
 3669 00aa 01       		.byte	1
 3670 00ab 00       		.byte	0
 3671 00ac 02       		.byte	2
 3672 00ad 00       		.byte	0
 3673 00ae 01       		.byte	1
 3674 00af 00       		.byte	0
 3675 00b0 04       		.byte	4
 3676 00b1 00       		.byte	0
 3677 00b2 01       		.byte	1
 3678 00b3 00       		.byte	0
 3679 00b4 02       		.byte	2
 3680 00b5 00       		.byte	0
 3681 00b6 01       		.byte	1
 3682 00b7 00       		.byte	0
 3683 00b8 03       		.byte	3
 3684 00b9 00       		.byte	0
 3685 00ba 01       		.byte	1
 3686 00bb 00       		.byte	0
 3687 00bc 02       		.byte	2
 3688 00bd 00       		.byte	0
 3689 00be 01       		.byte	1
 3690 00bf 00       		.byte	0
ARM GAS  /tmp/cc3rJM77.s 			page 97


 3691 00c0 06       		.byte	6
 3692 00c1 00       		.byte	0
 3693 00c2 01       		.byte	1
 3694 00c3 00       		.byte	0
 3695 00c4 02       		.byte	2
 3696 00c5 00       		.byte	0
 3697 00c6 01       		.byte	1
 3698 00c7 00       		.byte	0
 3699 00c8 03       		.byte	3
 3700 00c9 00       		.byte	0
 3701 00ca 01       		.byte	1
 3702 00cb 00       		.byte	0
 3703 00cc 02       		.byte	2
 3704 00cd 00       		.byte	0
 3705 00ce 01       		.byte	1
 3706 00cf 00       		.byte	0
 3707 00d0 04       		.byte	4
 3708 00d1 00       		.byte	0
 3709 00d2 01       		.byte	1
 3710 00d3 00       		.byte	0
 3711 00d4 02       		.byte	2
 3712 00d5 00       		.byte	0
 3713 00d6 01       		.byte	1
 3714 00d7 00       		.byte	0
 3715 00d8 03       		.byte	3
 3716 00d9 00       		.byte	0
 3717 00da 01       		.byte	1
 3718 00db 00       		.byte	0
 3719 00dc 02       		.byte	2
 3720 00dd 00       		.byte	0
 3721 00de 01       		.byte	1
 3722 00df 00       		.byte	0
 3723 00e0 05       		.byte	5
 3724 00e1 00       		.byte	0
 3725 00e2 01       		.byte	1
 3726 00e3 00       		.byte	0
 3727 00e4 02       		.byte	2
 3728 00e5 00       		.byte	0
 3729 00e6 01       		.byte	1
 3730 00e7 00       		.byte	0
 3731 00e8 03       		.byte	3
 3732 00e9 00       		.byte	0
 3733 00ea 01       		.byte	1
 3734 00eb 00       		.byte	0
 3735 00ec 02       		.byte	2
 3736 00ed 00       		.byte	0
 3737 00ee 01       		.byte	1
 3738 00ef 00       		.byte	0
 3739 00f0 04       		.byte	4
 3740 00f1 00       		.byte	0
 3741 00f2 01       		.byte	1
 3742 00f3 00       		.byte	0
 3743 00f4 02       		.byte	2
 3744 00f5 00       		.byte	0
 3745 00f6 01       		.byte	1
 3746 00f7 00       		.byte	0
 3747 00f8 03       		.byte	3
ARM GAS  /tmp/cc3rJM77.s 			page 98


 3748 00f9 00       		.byte	0
 3749 00fa 01       		.byte	1
 3750 00fb 00       		.byte	0
 3751 00fc 02       		.byte	2
 3752 00fd 00       		.byte	0
 3753 00fe 01       		.byte	1
 3754 00ff 00       		.byte	0
 3755              		.text
 3756              	.Letext0:
 3757              		.file 2 "/home/bt0/stm32/compile-tool/gcc-arm-none-eabi-8-2018-q4-major-linux/gcc-arm-none-eabi-8-
 3758              		.file 3 "/home/bt0/stm32/compile-tool/gcc-arm-none-eabi-8-2018-q4-major-linux/gcc-arm-none-eabi-8-
 3759              		.file 4 "/home/bt0/stm32/compile-tool/gcc-arm-none-eabi-8-2018-q4-major-linux/gcc-arm-none-eabi-8-
 3760              		.file 5 "/home/bt0/stm32/compile-tool/gcc-arm-none-eabi-8-2018-q4-major-linux/gcc-arm-none-eabi-8-
 3761              		.file 6 "/home/bt0/stm32/compile-tool/gcc-arm-none-eabi-8-2018-q4-major-linux/gcc-arm-none-eabi-8-
 3762              		.file 7 "/home/bt0/stm32/compile-tool/gcc-arm-none-eabi-8-2018-q4-major-linux/gcc-arm-none-eabi-8-
 3763              		.file 8 "SYS/runtime/runtime.h"
 3764              		.file 9 "/home/bt0/stm32/compile-tool/gcc-arm-none-eabi-8-2018-q4-major-linux/gcc-arm-none-eabi-8-
 3765              		.file 10 "SYS/data_structure/linked_list.h"
 3766              		.file 11 "SYS/task_manager/task_manager.h"
 3767              		.file 12 "F4_CORE/core_cm4.h"
 3768              		.file 13 "USER/system_stm32f4xx.h"
 3769              		.file 14 "USER/stm32f4xx.h"
 3770              		.file 15 "Bsp/periph_timer.h"
 3771              		.file 16 "<built-in>"
ARM GAS  /tmp/cc3rJM77.s 			page 99


DEFINED SYMBOLS
                            *ABS*:0000000000000000 task_manager.c
     /tmp/cc3rJM77.s:18     .text.Task_Exit:0000000000000000 $t
     /tmp/cc3rJM77.s:25     .text.Task_Exit:0000000000000000 Task_Exit
     /tmp/cc3rJM77.s:42     .text.Task_SetBASEPRI:0000000000000000 $t
     /tmp/cc3rJM77.s:48     .text.Task_SetBASEPRI:0000000000000000 Task_SetBASEPRI
     /tmp/cc3rJM77.s:69     .text.Task_SetReady:0000000000000000 $t
     /tmp/cc3rJM77.s:75     .text.Task_SetReady:0000000000000000 Task_SetReady
     /tmp/cc3rJM77.s:139    .text.Task_SetReady:0000000000000030 $d
     /tmp/cc3rJM77.s:144    .text.Task_ClearBlock:0000000000000000 $t
     /tmp/cc3rJM77.s:150    .text.Task_ClearBlock:0000000000000000 Task_ClearBlock
     /tmp/cc3rJM77.s:213    .text.Task_ClearBlock:0000000000000034 $d
     /tmp/cc3rJM77.s:218    .text.Task_ClearPending:0000000000000000 $t
     /tmp/cc3rJM77.s:224    .text.Task_ClearPending:0000000000000000 Task_ClearPending
     /tmp/cc3rJM77.s:287    .text.Task_ClearPending:0000000000000034 $d
     /tmp/cc3rJM77.s:292    .text.Task_ClearReady:0000000000000000 $t
     /tmp/cc3rJM77.s:298    .text.Task_ClearReady:0000000000000000 Task_ClearReady
     /tmp/cc3rJM77.s:361    .text.Task_ClearReady:0000000000000034 $d
     /tmp/cc3rJM77.s:366    .text.Task_SetPendSVPro:0000000000000000 $t
     /tmp/cc3rJM77.s:372    .text.Task_SetPendSVPro:0000000000000000 Task_SetPendSVPro
     /tmp/cc3rJM77.s:382    *ABS*:00000000e000ed22 NVIC_SYSPRI14
     /tmp/cc3rJM77.s:386    *ABS*:00000000000000ff NVIC_PENDSV_PRI
                            *COM*:0000000000000004 Task_OS_ExpStkBase
     /tmp/cc3rJM77.s:431    .text.Task_PriorityCompare:0000000000000000 $t
     /tmp/cc3rJM77.s:438    .text.Task_PriorityCompare:0000000000000000 Task_PriorityCompare
     /tmp/cc3rJM77.s:568    .text.ReSet_Task_Data:0000000000000000 $t
     /tmp/cc3rJM77.s:574    .text.ReSet_Task_Data:0000000000000000 ReSet_Task_Data
     /tmp/cc3rJM77.s:667    .text.TaskSys_Init:0000000000000000 $t
     /tmp/cc3rJM77.s:673    .text.TaskSys_Init:0000000000000000 TaskSys_Init
     /tmp/cc3rJM77.s:796    .text.TaskSys_Init:0000000000000070 $d
     /tmp/cc3rJM77.s:3439   .bss.Task_OS_StkMem:0000000000000000 Task_OS_StkMem
                            *COM*:0000000000000100 Task_Ptr
     /tmp/cc3rJM77.s:807    .text.Task_SetStkPtr_Val:0000000000000000 $t
     /tmp/cc3rJM77.s:813    .text.Task_SetStkPtr_Val:0000000000000000 Task_SetStkPtr_Val
     /tmp/cc3rJM77.s:899    .text.Task_SetStkPtr_Val:0000000000000050 $d
     /tmp/cc3rJM77.s:1185   .text.Task_Caller:0000000000000000 Task_Caller
     /tmp/cc3rJM77.s:906    .text.Task_Idle:0000000000000000 $t
     /tmp/cc3rJM77.s:912    .text.Task_Idle:0000000000000000 Task_Idle
     /tmp/cc3rJM77.s:977    .text.Task_Idle:000000000000004c $d
     /tmp/cc3rJM77.s:984    .text.Task_Exec:0000000000000000 $t
     /tmp/cc3rJM77.s:990    .text.Task_Exec:0000000000000000 Task_Exec
     /tmp/cc3rJM77.s:1172   .text.Task_Exec:00000000000000d0 $d
     /tmp/cc3rJM77.s:1178   .text.Task_Caller:0000000000000000 $t
     /tmp/cc3rJM77.s:1234   .text.Task_Caller:0000000000000028 $d
     /tmp/cc3rJM77.s:1242   .text.Task_CrtList_TraversePoll_callback:0000000000000000 $t
     /tmp/cc3rJM77.s:1248   .text.Task_CrtList_TraversePoll_callback:0000000000000000 Task_CrtList_TraversePoll_callback
     /tmp/cc3rJM77.s:1313   .text.Task_CrtList_TraversePoll_callback:0000000000000030 $d
     /tmp/cc3rJM77.s:1318   .text.Task_Resume_FromBlock:0000000000000000 $t
     /tmp/cc3rJM77.s:1325   .text.Task_Resume_FromBlock:0000000000000000 Task_Resume_FromBlock
     /tmp/cc3rJM77.s:1372   .text.Task_Resume_FromBlock:0000000000000028 $d
                            *COM*:0000000000000008 NxtTsk_TCB
     /tmp/cc3rJM77.s:1378   .text.Task_SetBlock:0000000000000000 $t
     /tmp/cc3rJM77.s:1385   .text.Task_SetBlock:0000000000000000 Task_SetBlock
     /tmp/cc3rJM77.s:1473   .text.Task_SetBlock:0000000000000058 $d
     /tmp/cc3rJM77.s:1480   .text.Task_SetPending:0000000000000000 $t
     /tmp/cc3rJM77.s:1487   .text.Task_SetPending:0000000000000000 Task_SetPending
     /tmp/cc3rJM77.s:1551   .text.Task_SetPending:0000000000000030 $d
ARM GAS  /tmp/cc3rJM77.s 			page 100


     /tmp/cc3rJM77.s:1556   .text.Task_SwitchStack:0000000000000000 $t
     /tmp/cc3rJM77.s:1563   .text.Task_SwitchStack:0000000000000000 Task_SwitchStack
     /tmp/cc3rJM77.s:1581   .text.Task_SwitchStack:0000000000000010 $d
                            *COM*:0000000000000008 CurTsk_TCB
     /tmp/cc3rJM77.s:1587   .text.Task_Get_HighestRank_PndTask:0000000000000000 $t
     /tmp/cc3rJM77.s:1594   .text.Task_Get_HighestRank_PndTask:0000000000000000 Task_Get_HighestRank_PndTask
     /tmp/cc3rJM77.s:1676   .text.Task_Get_HighestRank_PndTask:0000000000000050 $d
     /tmp/cc3rJM77.s:1683   .text.Task_SaveCurProc:0000000000000000 $t
     /tmp/cc3rJM77.s:1690   .text.Task_SaveCurProc:0000000000000000 Task_SaveCurProc
     /tmp/cc3rJM77.s:1744   .text.Task_SaveCurProc:0000000000000024 CurrentTCBConst_Tmp3
     /tmp/cc3rJM77.s:1744   .text.Task_SaveCurProc:0000000000000024 $d
     /tmp/cc3rJM77.s:1753   .text.Task_Load:0000000000000000 $t
     /tmp/cc3rJM77.s:1760   .text.Task_Load:0000000000000000 Task_Load
     /tmp/cc3rJM77.s:1819   .text.Load_FirstTask:0000000000000000 $t
     /tmp/cc3rJM77.s:1826   .text.Load_FirstTask:0000000000000000 Load_FirstTask
     /tmp/cc3rJM77.s:1846   .text.Task_SwitchContext:0000000000000000 $t
     /tmp/cc3rJM77.s:1853   .text.Task_SwitchContext:0000000000000000 Task_SwitchContext
     /tmp/cc3rJM77.s:1971   .text.Task_SwitchContext:000000000000005c CurrentTCBConst_Tmp
     /tmp/cc3rJM77.s:1971   .text.Task_SwitchContext:000000000000005c $d
     /tmp/cc3rJM77.s:1984   .text.Task_Get_HighestRank_RdyTask:0000000000000000 $t
     /tmp/cc3rJM77.s:1991   .text.Task_Get_HighestRank_RdyTask:0000000000000000 Task_Get_HighestRank_RdyTask
     /tmp/cc3rJM77.s:2077   .text.Task_Get_HighestRank_RdyTask:0000000000000050 $d
     /tmp/cc3rJM77.s:2084   .text.Task_SetNextTask_Ptr:0000000000000000 $t
     /tmp/cc3rJM77.s:2091   .text.Task_SetNextTask_Ptr:0000000000000000 Task_SetNextTask_Ptr
     /tmp/cc3rJM77.s:2123   .text.Task_SetNextTask_Ptr:0000000000000014 $d
     /tmp/cc3rJM77.s:2129   .text.Task_TriggerPendSV:0000000000000000 $t
     /tmp/cc3rJM77.s:2136   .text.Task_TriggerPendSV:0000000000000000 Task_TriggerPendSV
     /tmp/cc3rJM77.s:2146   *ABS*:00000000e000ed04 NVIC_INT_CTRL
     /tmp/cc3rJM77.s:2150   *ABS*:0000000010000000 NVIC_PENDSVSET
     /tmp/cc3rJM77.s:2175   .text.Task_Scheduler:0000000000000000 $t
     /tmp/cc3rJM77.s:2182   .text.Task_Scheduler:0000000000000000 Task_Scheduler
     /tmp/cc3rJM77.s:2484   .text.Task_Scheduler:0000000000000148 $d
     /tmp/cc3rJM77.s:2496   .text.Task_Force_TriggerPendSV:0000000000000000 $t
     /tmp/cc3rJM77.s:2503   .text.Task_Force_TriggerPendSV:0000000000000000 Task_Force_TriggerPendSV
     /tmp/cc3rJM77.s:2534   .text.Task_Get_TaskNum:0000000000000000 $t
     /tmp/cc3rJM77.s:2541   .text.Task_Get_TaskNum:0000000000000000 Task_Get_TaskNum
     /tmp/cc3rJM77.s:2556   .text.Task_Get_TaskNum:0000000000000008 $d
     /tmp/cc3rJM77.s:2564   .text.Task_Create:0000000000000000 $t
     /tmp/cc3rJM77.s:2571   .text.Task_Create:0000000000000000 Task_Create
     /tmp/cc3rJM77.s:2949   .text.Task_Create:0000000000000210 $d
     /tmp/cc3rJM77.s:2961   .text.Task_Remove:0000000000000000 $t
     /tmp/cc3rJM77.s:2968   .text.Task_Remove:0000000000000000 Task_Remove
     /tmp/cc3rJM77.s:3024   .text.Task_Remove:0000000000000030 $d
     /tmp/cc3rJM77.s:3029   .text.TaskSystem_Start:0000000000000000 $t
     /tmp/cc3rJM77.s:3036   .text.TaskSystem_Start:0000000000000000 TaskSystem_Start
     /tmp/cc3rJM77.s:3116   .text.TaskSystem_Start:000000000000005c $d
     /tmp/cc3rJM77.s:3125   .text.Task_SetRunState:0000000000000000 $t
     /tmp/cc3rJM77.s:3132   .text.Task_SetRunState:0000000000000000 Task_SetRunState
     /tmp/cc3rJM77.s:3149   .text.Task_CountRunningTime:0000000000000000 $t
     /tmp/cc3rJM77.s:3156   .text.Task_CountRunningTime:0000000000000000 Task_CountRunningTime
     /tmp/cc3rJM77.s:3221   .text.Task_CountRunningTime:0000000000000038 $d
     /tmp/cc3rJM77.s:3226   .text.Task_Get_IdleUS:0000000000000000 $t
     /tmp/cc3rJM77.s:3233   .text.Task_Get_IdleUS:0000000000000000 Task_Get_IdleUS
     /tmp/cc3rJM77.s:3248   .text.Task_Get_IdleUS:0000000000000008 $d
     /tmp/cc3rJM77.s:3253   .text.Task_Get_IdleOcupy:0000000000000000 $t
     /tmp/cc3rJM77.s:3260   .text.Task_Get_IdleOcupy:0000000000000000 Task_Get_IdleOcupy
     /tmp/cc3rJM77.s:3275   .text.Task_Get_IdleOcupy:0000000000000008 $d
ARM GAS  /tmp/cc3rJM77.s 			page 101


     /tmp/cc3rJM77.s:3280   .text.TaskSys_Set_State:0000000000000000 $t
     /tmp/cc3rJM77.s:3287   .text.TaskSys_Set_State:0000000000000000 TaskSys_Set_State
     /tmp/cc3rJM77.s:3304   .text.TaskSys_Set_State:0000000000000008 $d
     /tmp/cc3rJM77.s:3309   .text.TaskSys_Get_State:0000000000000000 $t
     /tmp/cc3rJM77.s:3316   .text.TaskSys_Get_State:0000000000000000 TaskSys_Get_State
     /tmp/cc3rJM77.s:3332   .text.TaskSys_Get_State:0000000000000008 $d
     /tmp/cc3rJM77.s:3337   .text.Task_GetInfo_ByIndex:0000000000000000 $t
     /tmp/cc3rJM77.s:3344   .text.Task_GetInfo_ByIndex:0000000000000000 Task_GetInfo_ByIndex
     /tmp/cc3rJM77.s:3360   .text.Task_GetCurrentRunTask:0000000000000000 $t
     /tmp/cc3rJM77.s:3367   .text.Task_GetCurrentRunTask:0000000000000000 Task_GetCurrentRunTask
     /tmp/cc3rJM77.s:3382   .text.Task_GetCurrentRunTask:0000000000000008 $d
     /tmp/cc3rJM77.s:3412   .bss.PndHstTsk_Ptr:0000000000000000 PndHstTsk_Ptr
     /tmp/cc3rJM77.s:3405   .bss.NxtRunTsk_Ptr:0000000000000000 NxtRunTsk_Ptr
     /tmp/cc3rJM77.s:3398   .bss.CurRunTsk_Ptr:0000000000000000 CurRunTsk_Ptr
     /tmp/cc3rJM77.s:3394   .bss.CurRunTsk_Ptr:0000000000000000 $d
     /tmp/cc3rJM77.s:3401   .bss.NxtRunTsk_Ptr:0000000000000000 $d
     /tmp/cc3rJM77.s:3408   .bss.PndHstTsk_Ptr:0000000000000000 $d
     /tmp/cc3rJM77.s:3415   .bss.TaskSys_Idle_Ocupy:0000000000000000 $d
     /tmp/cc3rJM77.s:3419   .bss.TaskSys_Idle_Ocupy:0000000000000000 TaskSys_Idle_Ocupy
     /tmp/cc3rJM77.s:3422   .bss.TaskSys_Idle_US:0000000000000000 $d
     /tmp/cc3rJM77.s:3426   .bss.TaskSys_Idle_US:0000000000000000 TaskSys_Idle_US
     /tmp/cc3rJM77.s:3429   .bss.TaskSys_StartTime:0000000000000000 $d
     /tmp/cc3rJM77.s:3433   .bss.TaskSys_StartTime:0000000000000000 TaskSys_StartTime
     /tmp/cc3rJM77.s:3436   .bss.Task_OS_StkMem:0000000000000000 $d
     /tmp/cc3rJM77.s:3442   .bss.TskCrt_RegList:0000000000000000 $d
     /tmp/cc3rJM77.s:3446   .bss.TskCrt_RegList:0000000000000000 TskCrt_RegList
     /tmp/cc3rJM77.s:3449   .bss.TskHdl_BlkMap:0000000000000000 $d
     /tmp/cc3rJM77.s:3453   .bss.TskHdl_BlkMap:0000000000000000 TskHdl_BlkMap
     /tmp/cc3rJM77.s:3456   .bss.TskHdl_PndMap:0000000000000000 $d
     /tmp/cc3rJM77.s:3460   .bss.TskHdl_PndMap:0000000000000000 TskHdl_PndMap
     /tmp/cc3rJM77.s:3463   .bss.TskHdl_RdyMap:0000000000000000 $d
     /tmp/cc3rJM77.s:3467   .bss.TskHdl_RdyMap:0000000000000000 TskHdl_RdyMap
     /tmp/cc3rJM77.s:3473   .bss.TskSys_state:0000000000000000 TskSys_state
     /tmp/cc3rJM77.s:3474   .bss.TskSys_state:0000000000000000 $d
     /tmp/cc3rJM77.s:3479   .bss.i.11587:0000000000000000 i.11587
     /tmp/cc3rJM77.s:3480   .bss.i.11587:0000000000000000 $d
     /tmp/cc3rJM77.s:3485   .bss.taskOs_InitState.11539:0000000000000000 taskOs_InitState.11539
     /tmp/cc3rJM77.s:3486   .bss.taskOs_InitState.11539:0000000000000000 $d
     /tmp/cc3rJM77.s:3491   .bss.traverse_start:0000000000000000 traverse_start
     /tmp/cc3rJM77.s:3492   .bss.traverse_start:0000000000000000 $d
     /tmp/cc3rJM77.s:3494   .rodata.Tsk_Handle:0000000000000000 $d
     /tmp/cc3rJM77.s:3498   .rodata.Tsk_Handle:0000000000000000 Tsk_Handle
     /tmp/cc3rJM77.s:2174   .text.Task_TriggerPendSV:000000000000000a $d
     /tmp/cc3rJM77.s:12444  .text.Task_TriggerPendSV:000000000000000c $d
     /tmp/cc3rJM77.s:12444  .text.Task_Load:0000000000000020 $d
     /tmp/cc3rJM77.s:12444  .text.Task_SetPendSVPro:0000000000000018 $d

UNDEFINED SYMBOLS
List_ItemInit
RuntimeObj_Reset
memset
__aeabi_ul2f
Get_CurrentRunningUs
Get_TimeDifference_Between
Get_TargetRunTime
RuntimeObj_CompareWithCurrent
List_traverse
ARM GAS  /tmp/cc3rJM77.s 			page 102


__aeabi_ui2d
__aeabi_ddiv
__aeabi_d2uiz
malloc
List_Init
List_Insert_Item
free
Runtime_Config
Runtime_Set_start_Callback
Runtime_Set_stop_Callback
Runtime_Set_tick_Callback
Runtime_Start
RunTime_Tick
