ARM GAS  /var/folders/lx/hc4sn_b53233_zkc9xbbl97r0000gp/T//ccfbfO3s.s 			page 1


   1              		.cpu cortex-m4
   2              		.eabi_attribute 27, 1
   3              		.eabi_attribute 28, 1
   4              		.eabi_attribute 20, 1
   5              		.eabi_attribute 21, 1
   6              		.eabi_attribute 23, 3
   7              		.eabi_attribute 24, 1
   8              		.eabi_attribute 25, 1
   9              		.eabi_attribute 26, 1
  10              		.eabi_attribute 30, 1
  11              		.eabi_attribute 34, 1
  12              		.eabi_attribute 18, 4
  13              		.file	"Task_Widget.c"
  14              		.text
  15              	.Ltext0:
  16              		.cfi_sections	.debug_frame
  17              		.section	.rodata.TaskWidget_Init.str1.4,"aMS",%progbits,1
  18              		.align	2
  19              	.LC0:
  20 0000 74657374 		.ascii	"test1\000"
  20      3100
  21 0006 0000     		.align	2
  22              	.LC1:
  23 0008 74657374 		.ascii	"test2\000"
  23      3200
  24 000e 0000     		.align	2
  25              	.LC2:
  26 0010 74657374 		.ascii	"test3\000"
  26      3300
  27 0016 0000     		.align	2
  28              	.LC3:
  29 0018 74657374 		.ascii	"test4\000"
  29      3400
  30              		.section	.text.TaskWidget_Init,"ax",%progbits
  31              		.align	1
  32              		.arch armv7e-m
  33              		.syntax unified
  34              		.thumb
  35              		.thumb_func
  36              		.fpu fpv4-sp-d16
  38              	TaskWidget_Init:
  39              	.LFB3:
  40              		.file 1 "App/Task_Display/Task_Widget.c"
   1:App/Task_Display/Task_Widget.c **** #include "Task_Widget.h"
   2:App/Task_Display/Task_Widget.c **** #include "task_manager.h"
   3:App/Task_Display/Task_Widget.c **** #include "widget_mng.h"
   4:App/Task_Display/Task_Widget.c **** 
   5:App/Task_Display/Task_Widget.c **** /* this task only for test */
   6:App/Task_Display/Task_Widget.c **** 
   7:App/Task_Display/Task_Widget.c **** /* internal variable */
   8:App/Task_Display/Task_Widget.c **** static TaskWidget_State_List TaskWidget_State = TaskWdiget_State_Init;
   9:App/Task_Display/Task_Widget.c **** static Widget_Handle test1;
  10:App/Task_Display/Task_Widget.c **** static Widget_Handle test2;
  11:App/Task_Display/Task_Widget.c **** static Widget_Handle test3;
  12:App/Task_Display/Task_Widget.c **** static Widget_Handle test4;
  13:App/Task_Display/Task_Widget.c **** 
  14:App/Task_Display/Task_Widget.c **** /* external function definition */
ARM GAS  /var/folders/lx/hc4sn_b53233_zkc9xbbl97r0000gp/T//ccfbfO3s.s 			page 2


  15:App/Task_Display/Task_Widget.c **** Task_Handler TaskWidget_Hdl = 0;
  16:App/Task_Display/Task_Widget.c **** 
  17:App/Task_Display/Task_Widget.c **** /* internal function definition */
  18:App/Task_Display/Task_Widget.c **** 
  19:App/Task_Display/Task_Widget.c **** static void TaskWidget_Init(void)
  20:App/Task_Display/Task_Widget.c **** {
  41              		.loc 1 20 1 view -0
  42              		.cfi_startproc
  43              		@ args = 0, pretend = 0, frame = 0
  44              		@ frame_needed = 0, uses_anonymous_args = 0
  45 0000 70B5     		push	{r4, r5, r6, lr}
  46              	.LCFI0:
  47              		.cfi_def_cfa_offset 16
  48              		.cfi_offset 4, -16
  49              		.cfi_offset 5, -12
  50              		.cfi_offset 6, -8
  51              		.cfi_offset 14, -4
  52 0002 82B0     		sub	sp, sp, #8
  53              	.LCFI1:
  54              		.cfi_def_cfa_offset 24
  21:App/Task_Display/Task_Widget.c ****     Widget_Mng.config_all->mirror(Oled_MirrorX);
  55              		.loc 1 21 5 view .LVU1
  56              		.loc 1 21 15 is_stmt 0 view .LVU2
  57 0004 194C     		ldr	r4, .L3
  58 0006 2368     		ldr	r3, [r4]
  59              		.loc 1 21 26 view .LVU3
  60 0008 1B68     		ldr	r3, [r3]
  61              		.loc 1 21 5 view .LVU4
  62 000a 0020     		movs	r0, #0
  63 000c 9847     		blx	r3
  64              	.LVL0:
  22:App/Task_Display/Task_Widget.c **** 
  23:App/Task_Display/Task_Widget.c ****     test1 = Widget_Mng.Create(20, 2, 25, 20, "test1", true);
  65              		.loc 1 23 5 is_stmt 1 view .LVU5
  66              		.loc 1 23 13 is_stmt 0 view .LVU6
  67 000e 0125     		movs	r5, #1
  68 0010 0195     		str	r5, [sp, #4]
  69 0012 174B     		ldr	r3, .L3+4
  70 0014 0093     		str	r3, [sp]
  71 0016 1423     		movs	r3, #20
  72 0018 1922     		movs	r2, #25
  73 001a 0221     		movs	r1, #2
  74 001c 1846     		mov	r0, r3
  75 001e 6668     		ldr	r6, [r4, #4]
  76 0020 B047     		blx	r6
  77              	.LVL1:
  78              		.loc 1 23 11 view .LVU7
  79 0022 144B     		ldr	r3, .L3+8
  80 0024 1860     		str	r0, [r3]
  24:App/Task_Display/Task_Widget.c ****     test2 = Widget_Mng.Create(50, 5, 50, 20, "test2", true);
  81              		.loc 1 24 5 is_stmt 1 view .LVU8
  82              		.loc 1 24 13 is_stmt 0 view .LVU9
  83 0026 0195     		str	r5, [sp, #4]
  84 0028 134B     		ldr	r3, .L3+12
  85 002a 0093     		str	r3, [sp]
  86 002c 1423     		movs	r3, #20
  87 002e 3222     		movs	r2, #50
ARM GAS  /var/folders/lx/hc4sn_b53233_zkc9xbbl97r0000gp/T//ccfbfO3s.s 			page 3


  88 0030 0521     		movs	r1, #5
  89 0032 1046     		mov	r0, r2
  90 0034 6668     		ldr	r6, [r4, #4]
  91 0036 B047     		blx	r6
  92              	.LVL2:
  93              		.loc 1 24 11 view .LVU10
  94 0038 104B     		ldr	r3, .L3+16
  95 003a 1860     		str	r0, [r3]
  25:App/Task_Display/Task_Widget.c ****     test3 = Widget_Mng.Create(15, 15, 70, 40, "test3", true);
  96              		.loc 1 25 5 is_stmt 1 view .LVU11
  97              		.loc 1 25 13 is_stmt 0 view .LVU12
  98 003c 0195     		str	r5, [sp, #4]
  99 003e 104B     		ldr	r3, .L3+20
 100 0040 0093     		str	r3, [sp]
 101 0042 2823     		movs	r3, #40
 102 0044 4622     		movs	r2, #70
 103 0046 0F21     		movs	r1, #15
 104 0048 0846     		mov	r0, r1
 105 004a 6668     		ldr	r6, [r4, #4]
 106 004c B047     		blx	r6
 107              	.LVL3:
 108              		.loc 1 25 11 view .LVU13
 109 004e 0D4B     		ldr	r3, .L3+24
 110 0050 1860     		str	r0, [r3]
  26:App/Task_Display/Task_Widget.c ****     test4 = Widget_Mng.Create(0, 0, 128, 64, "test4", true);
 111              		.loc 1 26 5 is_stmt 1 view .LVU14
 112              		.loc 1 26 23 is_stmt 0 view .LVU15
 113 0052 6468     		ldr	r4, [r4, #4]
 114              		.loc 1 26 13 view .LVU16
 115 0054 0195     		str	r5, [sp, #4]
 116 0056 0C4B     		ldr	r3, .L3+28
 117 0058 0093     		str	r3, [sp]
 118 005a 4023     		movs	r3, #64
 119 005c 8022     		movs	r2, #128
 120 005e 0021     		movs	r1, #0
 121 0060 0846     		mov	r0, r1
 122 0062 A047     		blx	r4
 123              	.LVL4:
 124              		.loc 1 26 11 view .LVU17
 125 0064 094B     		ldr	r3, .L3+32
 126 0066 1860     		str	r0, [r3]
  27:App/Task_Display/Task_Widget.c **** }
 127              		.loc 1 27 1 view .LVU18
 128 0068 02B0     		add	sp, sp, #8
 129              	.LCFI2:
 130              		.cfi_def_cfa_offset 16
 131              		@ sp needed
 132 006a 70BD     		pop	{r4, r5, r6, pc}
 133              	.L4:
 134              		.align	2
 135              	.L3:
 136 006c 00000000 		.word	Widget_Mng
 137 0070 00000000 		.word	.LC0
 138 0074 00000000 		.word	.LANCHOR0
 139 0078 08000000 		.word	.LC1
 140 007c 00000000 		.word	.LANCHOR1
 141 0080 10000000 		.word	.LC2
ARM GAS  /var/folders/lx/hc4sn_b53233_zkc9xbbl97r0000gp/T//ccfbfO3s.s 			page 4


 142 0084 00000000 		.word	.LANCHOR2
 143 0088 18000000 		.word	.LC3
 144 008c 00000000 		.word	.LANCHOR3
 145              		.cfi_endproc
 146              	.LFE3:
 148              		.section	.rodata.TestWidget_Dynamic_Dsp.str1.4,"aMS",%progbits,1
 149              		.align	2
 150              	.LC4:
 151 0000 385F4221 		.ascii	"8_B!T0\000"
 151      543000
 152 0007 00       		.align	2
 153              	.LC5:
 154 0008 79657300 		.ascii	"yes\000"
 155              		.section	.text.TestWidget_Dynamic_Dsp,"ax",%progbits
 156              		.align	1
 157              		.syntax unified
 158              		.thumb
 159              		.thumb_func
 160              		.fpu fpv4-sp-d16
 162              	TestWidget_Dynamic_Dsp:
 163              	.LFB4:
  28:App/Task_Display/Task_Widget.c **** 
  29:App/Task_Display/Task_Widget.c **** static void TestWidget_Dynamic_Dsp(void)
  30:App/Task_Display/Task_Widget.c **** {
 164              		.loc 1 30 1 is_stmt 1 view -0
 165              		.cfi_startproc
 166              		@ args = 0, pretend = 0, frame = 0
 167              		@ frame_needed = 0, uses_anonymous_args = 0
 168 0000 2DE9F041 		push	{r4, r5, r6, r7, r8, lr}
 169              	.LCFI3:
 170              		.cfi_def_cfa_offset 24
 171              		.cfi_offset 4, -24
 172              		.cfi_offset 5, -20
 173              		.cfi_offset 6, -16
 174              		.cfi_offset 7, -12
 175              		.cfi_offset 8, -8
 176              		.cfi_offset 14, -4
 177 0004 82B0     		sub	sp, sp, #8
 178              	.LCFI4:
 179              		.cfi_def_cfa_offset 32
  31:App/Task_Display/Task_Widget.c ****     static uint8_t rad = 0;
 180              		.loc 1 31 5 view .LVU20
  32:App/Task_Display/Task_Widget.c ****     static bool change = false;
 181              		.loc 1 32 5 view .LVU21
  33:App/Task_Display/Task_Widget.c **** 
  34:App/Task_Display/Task_Widget.c ****     static uint8_t dis = 0;
 182              		.loc 1 34 5 view .LVU22
  35:App/Task_Display/Task_Widget.c ****     static bool move = false;
 183              		.loc 1 35 5 view .LVU23
  36:App/Task_Display/Task_Widget.c **** 
  37:App/Task_Display/Task_Widget.c ****     if (!change)
 184              		.loc 1 37 5 view .LVU24
 185              		.loc 1 37 9 is_stmt 0 view .LVU25
 186 0006 734B     		ldr	r3, .L11
 187 0008 1B78     		ldrb	r3, [r3]	@ zero_extendqisi2
 188              		.loc 1 37 8 view .LVU26
 189 000a 002B     		cmp	r3, #0
ARM GAS  /var/folders/lx/hc4sn_b53233_zkc9xbbl97r0000gp/T//ccfbfO3s.s 			page 5


 190 000c 40F0C180 		bne	.L6
  38:App/Task_Display/Task_Widget.c ****     {
  39:App/Task_Display/Task_Widget.c ****         rad++;
 191              		.loc 1 39 9 is_stmt 1 view .LVU27
 192              		.loc 1 39 12 is_stmt 0 view .LVU28
 193 0010 714A     		ldr	r2, .L11+4
 194 0012 1378     		ldrb	r3, [r2]	@ zero_extendqisi2
 195 0014 0133     		adds	r3, r3, #1
 196 0016 DBB2     		uxtb	r3, r3
 197 0018 1370     		strb	r3, [r2]
  40:App/Task_Display/Task_Widget.c **** 
  41:App/Task_Display/Task_Widget.c ****         if (rad > 10)
 198              		.loc 1 41 9 is_stmt 1 view .LVU29
 199              		.loc 1 41 12 is_stmt 0 view .LVU30
 200 001a 0A2B     		cmp	r3, #10
 201 001c 02D9     		bls	.L7
  42:App/Task_Display/Task_Widget.c ****             change = true;
 202              		.loc 1 42 13 is_stmt 1 view .LVU31
 203              		.loc 1 42 20 is_stmt 0 view .LVU32
 204 001e 6D4B     		ldr	r3, .L11
 205 0020 0122     		movs	r2, #1
 206 0022 1A70     		strb	r2, [r3]
 207              	.L7:
  43:App/Task_Display/Task_Widget.c ****     }
  44:App/Task_Display/Task_Widget.c ****     else
  45:App/Task_Display/Task_Widget.c ****     {
  46:App/Task_Display/Task_Widget.c ****         rad--;
  47:App/Task_Display/Task_Widget.c **** 
  48:App/Task_Display/Task_Widget.c ****         if (rad <= 2)
  49:App/Task_Display/Task_Widget.c ****             change = false;
  50:App/Task_Display/Task_Widget.c ****     }
  51:App/Task_Display/Task_Widget.c **** 
  52:App/Task_Display/Task_Widget.c ****     if (!move)
 208              		.loc 1 52 5 is_stmt 1 view .LVU33
 209              		.loc 1 52 9 is_stmt 0 view .LVU34
 210 0024 6D4B     		ldr	r3, .L11+8
 211 0026 1B78     		ldrb	r3, [r3]	@ zero_extendqisi2
 212              		.loc 1 52 8 view .LVU35
 213 0028 002B     		cmp	r3, #0
 214 002a 40F0BE80 		bne	.L8
  53:App/Task_Display/Task_Widget.c ****     {
  54:App/Task_Display/Task_Widget.c ****         dis += 2;
 215              		.loc 1 54 9 is_stmt 1 view .LVU36
 216              		.loc 1 54 13 is_stmt 0 view .LVU37
 217 002e 6C4A     		ldr	r2, .L11+12
 218 0030 1378     		ldrb	r3, [r2]	@ zero_extendqisi2
 219 0032 0233     		adds	r3, r3, #2
 220 0034 DBB2     		uxtb	r3, r3
 221 0036 1370     		strb	r3, [r2]
  55:App/Task_Display/Task_Widget.c **** 
  56:App/Task_Display/Task_Widget.c ****         if (dis > 20)
 222              		.loc 1 56 9 is_stmt 1 view .LVU38
 223              		.loc 1 56 12 is_stmt 0 view .LVU39
 224 0038 142B     		cmp	r3, #20
 225 003a 0ED9     		bls	.L9
  57:App/Task_Display/Task_Widget.c ****         {
  58:App/Task_Display/Task_Widget.c ****             Widget_Mng.Control(test1)->Clear();
ARM GAS  /var/folders/lx/hc4sn_b53233_zkc9xbbl97r0000gp/T//ccfbfO3s.s 			page 6


 226              		.loc 1 58 13 is_stmt 1 view .LVU40
 227              		.loc 1 58 23 is_stmt 0 view .LVU41
 228 003c 694D     		ldr	r5, .L11+16
 229 003e AB68     		ldr	r3, [r5, #8]
 230              		.loc 1 58 13 view .LVU42
 231 0040 694C     		ldr	r4, .L11+20
 232 0042 2068     		ldr	r0, [r4]
 233 0044 9847     		blx	r3
 234              	.LVL5:
 235              		.loc 1 58 38 view .LVU43
 236 0046 C368     		ldr	r3, [r0, #12]
 237              		.loc 1 58 13 view .LVU44
 238 0048 9847     		blx	r3
 239              	.LVL6:
  59:App/Task_Display/Task_Widget.c ****             Widget_Mng.Control(test1)->Show();
 240              		.loc 1 59 13 is_stmt 1 view .LVU45
 241              		.loc 1 59 23 is_stmt 0 view .LVU46
 242 004a AB68     		ldr	r3, [r5, #8]
 243              		.loc 1 59 13 view .LVU47
 244 004c 2068     		ldr	r0, [r4]
 245 004e 9847     		blx	r3
 246              	.LVL7:
 247              		.loc 1 59 38 view .LVU48
 248 0050 0368     		ldr	r3, [r0]
 249              		.loc 1 59 13 view .LVU49
 250 0052 9847     		blx	r3
 251              	.LVL8:
  60:App/Task_Display/Task_Widget.c ****             move = true;
 252              		.loc 1 60 13 is_stmt 1 view .LVU50
 253              		.loc 1 60 18 is_stmt 0 view .LVU51
 254 0054 614B     		ldr	r3, .L11+8
 255 0056 0122     		movs	r2, #1
 256 0058 1A70     		strb	r2, [r3]
 257              	.L9:
  61:App/Task_Display/Task_Widget.c ****         }
  62:App/Task_Display/Task_Widget.c ****     }
  63:App/Task_Display/Task_Widget.c ****     else
  64:App/Task_Display/Task_Widget.c ****     {
  65:App/Task_Display/Task_Widget.c ****         dis -= 2;
  66:App/Task_Display/Task_Widget.c **** 
  67:App/Task_Display/Task_Widget.c ****         if (rad <= 2)
  68:App/Task_Display/Task_Widget.c ****         {
  69:App/Task_Display/Task_Widget.c ****             Widget_Mng.Control(test1)->Hide();
  70:App/Task_Display/Task_Widget.c ****             move = false;
  71:App/Task_Display/Task_Widget.c ****         }
  72:App/Task_Display/Task_Widget.c ****     }
  73:App/Task_Display/Task_Widget.c **** 
  74:App/Task_Display/Task_Widget.c ****     Widget_Mng.Control(test4)->Clear();
 258              		.loc 1 74 5 is_stmt 1 view .LVU52
 259              		.loc 1 74 15 is_stmt 0 view .LVU53
 260 005a 624C     		ldr	r4, .L11+16
 261 005c A368     		ldr	r3, [r4, #8]
 262              		.loc 1 74 5 view .LVU54
 263 005e 634D     		ldr	r5, .L11+24
 264 0060 2868     		ldr	r0, [r5]
 265 0062 9847     		blx	r3
 266              	.LVL9:
ARM GAS  /var/folders/lx/hc4sn_b53233_zkc9xbbl97r0000gp/T//ccfbfO3s.s 			page 7


 267              		.loc 1 74 30 view .LVU55
 268 0064 C368     		ldr	r3, [r0, #12]
 269              		.loc 1 74 5 view .LVU56
 270 0066 9847     		blx	r3
 271              	.LVL10:
  75:App/Task_Display/Task_Widget.c ****     Widget_Mng.Control(test4)->Draw()->draw_char(Font_12, '4', 8, 2, true);
 272              		.loc 1 75 5 is_stmt 1 view .LVU57
 273              		.loc 1 75 15 is_stmt 0 view .LVU58
 274 0068 A368     		ldr	r3, [r4, #8]
 275              		.loc 1 75 5 view .LVU59
 276 006a 2868     		ldr	r0, [r5]
 277 006c 9847     		blx	r3
 278              	.LVL11:
 279              		.loc 1 75 30 view .LVU60
 280 006e 4369     		ldr	r3, [r0, #20]
 281              		.loc 1 75 5 view .LVU61
 282 0070 9847     		blx	r3
 283              	.LVL12:
 284              		.loc 1 75 38 view .LVU62
 285 0072 8768     		ldr	r7, [r0, #8]
 286              		.loc 1 75 5 view .LVU63
 287 0074 0126     		movs	r6, #1
 288 0076 0096     		str	r6, [sp]
 289 0078 0223     		movs	r3, #2
 290 007a 0822     		movs	r2, #8
 291 007c 3421     		movs	r1, #52
 292 007e 0C20     		movs	r0, #12
 293 0080 B847     		blx	r7
 294              	.LVL13:
  76:App/Task_Display/Task_Widget.c ****     Widget_Mng.Control(test4)->Show();
 295              		.loc 1 76 5 is_stmt 1 view .LVU64
 296              		.loc 1 76 15 is_stmt 0 view .LVU65
 297 0082 A368     		ldr	r3, [r4, #8]
 298              		.loc 1 76 5 view .LVU66
 299 0084 2868     		ldr	r0, [r5]
 300 0086 9847     		blx	r3
 301              	.LVL14:
 302              		.loc 1 76 30 view .LVU67
 303 0088 0368     		ldr	r3, [r0]
 304              		.loc 1 76 5 view .LVU68
 305 008a 9847     		blx	r3
 306              	.LVL15:
  77:App/Task_Display/Task_Widget.c **** 
  78:App/Task_Display/Task_Widget.c ****     Widget_Mng.Control(test1)->Draw()->draw_char(Font_12, '1', 8, 2, true);
 307              		.loc 1 78 5 is_stmt 1 view .LVU69
 308              		.loc 1 78 15 is_stmt 0 view .LVU70
 309 008c A368     		ldr	r3, [r4, #8]
 310              		.loc 1 78 5 view .LVU71
 311 008e 564A     		ldr	r2, .L11+20
 312 0090 1068     		ldr	r0, [r2]
 313 0092 9847     		blx	r3
 314              	.LVL16:
 315              		.loc 1 78 30 view .LVU72
 316 0094 4369     		ldr	r3, [r0, #20]
 317              		.loc 1 78 5 view .LVU73
 318 0096 9847     		blx	r3
 319              	.LVL17:
ARM GAS  /var/folders/lx/hc4sn_b53233_zkc9xbbl97r0000gp/T//ccfbfO3s.s 			page 8


 320              		.loc 1 78 38 view .LVU74
 321 0098 8568     		ldr	r5, [r0, #8]
 322              		.loc 1 78 5 view .LVU75
 323 009a 0096     		str	r6, [sp]
 324 009c 0223     		movs	r3, #2
 325 009e 0822     		movs	r2, #8
 326 00a0 3121     		movs	r1, #49
 327 00a2 0C20     		movs	r0, #12
 328 00a4 A847     		blx	r5
 329              	.LVL18:
  79:App/Task_Display/Task_Widget.c **** 
  80:App/Task_Display/Task_Widget.c ****     Widget_Mng.Control(test3)->Clear();
 330              		.loc 1 80 5 is_stmt 1 view .LVU76
 331              		.loc 1 80 15 is_stmt 0 view .LVU77
 332 00a6 A368     		ldr	r3, [r4, #8]
 333              		.loc 1 80 5 view .LVU78
 334 00a8 514D     		ldr	r5, .L11+28
 335 00aa 2868     		ldr	r0, [r5]
 336 00ac 9847     		blx	r3
 337              	.LVL19:
 338              		.loc 1 80 30 view .LVU79
 339 00ae C368     		ldr	r3, [r0, #12]
 340              		.loc 1 80 5 view .LVU80
 341 00b0 9847     		blx	r3
 342              	.LVL20:
  81:App/Task_Display/Task_Widget.c ****     Widget_Mng.Control(test3)->Draw()->draw_char(Font_12, '3', 8, 2, true);
 343              		.loc 1 81 5 is_stmt 1 view .LVU81
 344              		.loc 1 81 15 is_stmt 0 view .LVU82
 345 00b2 A368     		ldr	r3, [r4, #8]
 346              		.loc 1 81 5 view .LVU83
 347 00b4 2868     		ldr	r0, [r5]
 348 00b6 9847     		blx	r3
 349              	.LVL21:
 350              		.loc 1 81 30 view .LVU84
 351 00b8 4369     		ldr	r3, [r0, #20]
 352              		.loc 1 81 5 view .LVU85
 353 00ba 9847     		blx	r3
 354              	.LVL22:
 355              		.loc 1 81 38 view .LVU86
 356 00bc 8768     		ldr	r7, [r0, #8]
 357              		.loc 1 81 5 view .LVU87
 358 00be 0096     		str	r6, [sp]
 359 00c0 0223     		movs	r3, #2
 360 00c2 0822     		movs	r2, #8
 361 00c4 3321     		movs	r1, #51
 362 00c6 0C20     		movs	r0, #12
 363 00c8 B847     		blx	r7
 364              	.LVL23:
  82:App/Task_Display/Task_Widget.c ****     Widget_Mng.Control(test3)->Move(15 + dis, 15);
 365              		.loc 1 82 5 is_stmt 1 view .LVU88
 366              		.loc 1 82 15 is_stmt 0 view .LVU89
 367 00ca A368     		ldr	r3, [r4, #8]
 368              		.loc 1 82 5 view .LVU90
 369 00cc 2868     		ldr	r0, [r5]
 370 00ce 9847     		blx	r3
 371              	.LVL24:
 372              		.loc 1 82 30 view .LVU91
ARM GAS  /var/folders/lx/hc4sn_b53233_zkc9xbbl97r0000gp/T//ccfbfO3s.s 			page 9


 373 00d0 8368     		ldr	r3, [r0, #8]
 374              		.loc 1 82 5 view .LVU92
 375 00d2 434F     		ldr	r7, .L11+12
 376 00d4 3878     		ldrb	r0, [r7]	@ zero_extendqisi2
 377 00d6 0F30     		adds	r0, r0, #15
 378 00d8 0F21     		movs	r1, #15
 379 00da C0B2     		uxtb	r0, r0
 380 00dc 9847     		blx	r3
 381              	.LVL25:
  83:App/Task_Display/Task_Widget.c ****     Widget_Mng.Control(test3)->Draw()->draw_str(Font_12, "8_B!T0", 15, 22, true);
 382              		.loc 1 83 5 is_stmt 1 view .LVU93
 383              		.loc 1 83 15 is_stmt 0 view .LVU94
 384 00de A368     		ldr	r3, [r4, #8]
 385              		.loc 1 83 5 view .LVU95
 386 00e0 2868     		ldr	r0, [r5]
 387 00e2 9847     		blx	r3
 388              	.LVL26:
 389              		.loc 1 83 30 view .LVU96
 390 00e4 4369     		ldr	r3, [r0, #20]
 391              		.loc 1 83 5 view .LVU97
 392 00e6 9847     		blx	r3
 393              	.LVL27:
 394              		.loc 1 83 38 view .LVU98
 395 00e8 D0F80C80 		ldr	r8, [r0, #12]
 396              		.loc 1 83 5 view .LVU99
 397 00ec 0096     		str	r6, [sp]
 398 00ee 1623     		movs	r3, #22
 399 00f0 0F22     		movs	r2, #15
 400 00f2 4049     		ldr	r1, .L11+32
 401 00f4 0C20     		movs	r0, #12
 402 00f6 C047     		blx	r8
 403              	.LVL28:
  84:App/Task_Display/Task_Widget.c ****     Widget_Mng.Control(test3)->Draw()->fill_circle(35, 20, rad);
 404              		.loc 1 84 5 is_stmt 1 view .LVU100
 405              		.loc 1 84 15 is_stmt 0 view .LVU101
 406 00f8 A368     		ldr	r3, [r4, #8]
 407              		.loc 1 84 5 view .LVU102
 408 00fa 2868     		ldr	r0, [r5]
 409 00fc 9847     		blx	r3
 410              	.LVL29:
 411              		.loc 1 84 30 view .LVU103
 412 00fe 4369     		ldr	r3, [r0, #20]
 413              		.loc 1 84 5 view .LVU104
 414 0100 9847     		blx	r3
 415              	.LVL30:
 416              		.loc 1 84 38 view .LVU105
 417 0102 836A     		ldr	r3, [r0, #40]
 418              		.loc 1 84 5 view .LVU106
 419 0104 344A     		ldr	r2, .L11+4
 420 0106 1278     		ldrb	r2, [r2]	@ zero_extendqisi2
 421 0108 1421     		movs	r1, #20
 422 010a 2320     		movs	r0, #35
 423 010c 9847     		blx	r3
 424              	.LVL31:
  85:App/Task_Display/Task_Widget.c ****     Widget_Mng.Control(test3)->Show();
 425              		.loc 1 85 5 is_stmt 1 view .LVU107
 426              		.loc 1 85 15 is_stmt 0 view .LVU108
ARM GAS  /var/folders/lx/hc4sn_b53233_zkc9xbbl97r0000gp/T//ccfbfO3s.s 			page 10


 427 010e A368     		ldr	r3, [r4, #8]
 428              		.loc 1 85 5 view .LVU109
 429 0110 2868     		ldr	r0, [r5]
 430 0112 9847     		blx	r3
 431              	.LVL32:
 432              		.loc 1 85 30 view .LVU110
 433 0114 0368     		ldr	r3, [r0]
 434              		.loc 1 85 5 view .LVU111
 435 0116 9847     		blx	r3
 436              	.LVL33:
  86:App/Task_Display/Task_Widget.c **** 
  87:App/Task_Display/Task_Widget.c ****     Widget_Mng.Control(test2)->Clear();
 437              		.loc 1 87 5 is_stmt 1 view .LVU112
 438              		.loc 1 87 15 is_stmt 0 view .LVU113
 439 0118 A368     		ldr	r3, [r4, #8]
 440              		.loc 1 87 5 view .LVU114
 441 011a 374D     		ldr	r5, .L11+36
 442 011c 2868     		ldr	r0, [r5]
 443 011e 9847     		blx	r3
 444              	.LVL34:
 445              		.loc 1 87 30 view .LVU115
 446 0120 C368     		ldr	r3, [r0, #12]
 447              		.loc 1 87 5 view .LVU116
 448 0122 9847     		blx	r3
 449              	.LVL35:
  88:App/Task_Display/Task_Widget.c ****     Widget_Mng.Control(test2)->Move(50, 5 + dis);
 450              		.loc 1 88 5 is_stmt 1 view .LVU117
 451              		.loc 1 88 15 is_stmt 0 view .LVU118
 452 0124 A368     		ldr	r3, [r4, #8]
 453              		.loc 1 88 5 view .LVU119
 454 0126 2868     		ldr	r0, [r5]
 455 0128 9847     		blx	r3
 456              	.LVL36:
 457              		.loc 1 88 30 view .LVU120
 458 012a 8368     		ldr	r3, [r0, #8]
 459              		.loc 1 88 5 view .LVU121
 460 012c 3978     		ldrb	r1, [r7]	@ zero_extendqisi2
 461 012e 0531     		adds	r1, r1, #5
 462 0130 C9B2     		uxtb	r1, r1
 463 0132 3220     		movs	r0, #50
 464 0134 9847     		blx	r3
 465              	.LVL37:
  89:App/Task_Display/Task_Widget.c ****     Widget_Mng.Control(test2)->Draw()->draw_char(Font_12, '2', 8, 2, true);
 466              		.loc 1 89 5 is_stmt 1 view .LVU122
 467              		.loc 1 89 15 is_stmt 0 view .LVU123
 468 0136 A368     		ldr	r3, [r4, #8]
 469              		.loc 1 89 5 view .LVU124
 470 0138 2868     		ldr	r0, [r5]
 471 013a 9847     		blx	r3
 472              	.LVL38:
 473              		.loc 1 89 30 view .LVU125
 474 013c 4369     		ldr	r3, [r0, #20]
 475              		.loc 1 89 5 view .LVU126
 476 013e 9847     		blx	r3
 477              	.LVL39:
 478              		.loc 1 89 38 view .LVU127
 479 0140 8768     		ldr	r7, [r0, #8]
ARM GAS  /var/folders/lx/hc4sn_b53233_zkc9xbbl97r0000gp/T//ccfbfO3s.s 			page 11


 480              		.loc 1 89 5 view .LVU128
 481 0142 0096     		str	r6, [sp]
 482 0144 0223     		movs	r3, #2
 483 0146 0822     		movs	r2, #8
 484 0148 3221     		movs	r1, #50
 485 014a 0C20     		movs	r0, #12
 486 014c B847     		blx	r7
 487              	.LVL40:
  90:App/Task_Display/Task_Widget.c ****     Widget_Mng.Control(test2)->Draw()->fill_radius_rectangle(22, 3, 25, 14, 3);
 488              		.loc 1 90 5 is_stmt 1 view .LVU129
 489              		.loc 1 90 15 is_stmt 0 view .LVU130
 490 014e A368     		ldr	r3, [r4, #8]
 491              		.loc 1 90 5 view .LVU131
 492 0150 2868     		ldr	r0, [r5]
 493 0152 9847     		blx	r3
 494              	.LVL41:
 495              		.loc 1 90 30 view .LVU132
 496 0154 4369     		ldr	r3, [r0, #20]
 497              		.loc 1 90 5 view .LVU133
 498 0156 9847     		blx	r3
 499              	.LVL42:
 500              		.loc 1 90 38 view .LVU134
 501 0158 076B     		ldr	r7, [r0, #48]
 502              		.loc 1 90 5 view .LVU135
 503 015a 0326     		movs	r6, #3
 504 015c 0096     		str	r6, [sp]
 505 015e 0E23     		movs	r3, #14
 506 0160 1922     		movs	r2, #25
 507 0162 3146     		mov	r1, r6
 508 0164 1620     		movs	r0, #22
 509 0166 B847     		blx	r7
 510              	.LVL43:
  91:App/Task_Display/Task_Widget.c ****     Widget_Mng.Control(test2)->Draw()->draw_str(Font_12, "yes", 24, 3, false);
 511              		.loc 1 91 5 is_stmt 1 view .LVU136
 512              		.loc 1 91 15 is_stmt 0 view .LVU137
 513 0168 A368     		ldr	r3, [r4, #8]
 514              		.loc 1 91 5 view .LVU138
 515 016a 2868     		ldr	r0, [r5]
 516 016c 9847     		blx	r3
 517              	.LVL44:
 518              		.loc 1 91 30 view .LVU139
 519 016e 4369     		ldr	r3, [r0, #20]
 520              		.loc 1 91 5 view .LVU140
 521 0170 9847     		blx	r3
 522              	.LVL45:
 523              		.loc 1 91 38 view .LVU141
 524 0172 C768     		ldr	r7, [r0, #12]
 525              		.loc 1 91 5 view .LVU142
 526 0174 0023     		movs	r3, #0
 527 0176 0093     		str	r3, [sp]
 528 0178 3346     		mov	r3, r6
 529 017a 1822     		movs	r2, #24
 530 017c 1F49     		ldr	r1, .L11+40
 531 017e 0C20     		movs	r0, #12
 532 0180 B847     		blx	r7
 533              	.LVL46:
  92:App/Task_Display/Task_Widget.c ****     //Widget_Mng.Control(test2)->Draw()->draw_str(Font_12, "no", 46, 40, true);
ARM GAS  /var/folders/lx/hc4sn_b53233_zkc9xbbl97r0000gp/T//ccfbfO3s.s 			page 12


  93:App/Task_Display/Task_Widget.c ****     //Widget_Mng.Control(test2)->Draw()->draw_radius_rectangle(40, 40, 25, 15, 3, 1);
  94:App/Task_Display/Task_Widget.c ****     Widget_Mng.Control(test2)->Show();
 534              		.loc 1 94 5 is_stmt 1 view .LVU143
 535              		.loc 1 94 15 is_stmt 0 view .LVU144
 536 0182 A368     		ldr	r3, [r4, #8]
 537              		.loc 1 94 5 view .LVU145
 538 0184 2868     		ldr	r0, [r5]
 539 0186 9847     		blx	r3
 540              	.LVL47:
 541              		.loc 1 94 30 view .LVU146
 542 0188 0368     		ldr	r3, [r0]
 543              		.loc 1 94 5 view .LVU147
 544 018a 9847     		blx	r3
 545              	.LVL48:
  95:App/Task_Display/Task_Widget.c **** }
 546              		.loc 1 95 1 view .LVU148
 547 018c 02B0     		add	sp, sp, #8
 548              	.LCFI5:
 549              		.cfi_remember_state
 550              		.cfi_def_cfa_offset 24
 551              		@ sp needed
 552 018e BDE8F081 		pop	{r4, r5, r6, r7, r8, pc}
 553              	.L6:
 554              	.LCFI6:
 555              		.cfi_restore_state
  46:App/Task_Display/Task_Widget.c **** 
 556              		.loc 1 46 9 is_stmt 1 view .LVU149
  46:App/Task_Display/Task_Widget.c **** 
 557              		.loc 1 46 12 is_stmt 0 view .LVU150
 558 0192 114A     		ldr	r2, .L11+4
 559 0194 1378     		ldrb	r3, [r2]	@ zero_extendqisi2
 560 0196 013B     		subs	r3, r3, #1
 561 0198 DBB2     		uxtb	r3, r3
 562 019a 1370     		strb	r3, [r2]
  48:App/Task_Display/Task_Widget.c ****             change = false;
 563              		.loc 1 48 9 is_stmt 1 view .LVU151
  48:App/Task_Display/Task_Widget.c ****             change = false;
 564              		.loc 1 48 12 is_stmt 0 view .LVU152
 565 019c 022B     		cmp	r3, #2
 566 019e 3FF641AF 		bhi	.L7
  49:App/Task_Display/Task_Widget.c ****     }
 567              		.loc 1 49 13 is_stmt 1 view .LVU153
  49:App/Task_Display/Task_Widget.c ****     }
 568              		.loc 1 49 20 is_stmt 0 view .LVU154
 569 01a2 0C4B     		ldr	r3, .L11
 570 01a4 0022     		movs	r2, #0
 571 01a6 1A70     		strb	r2, [r3]
 572 01a8 3CE7     		b	.L7
 573              	.L8:
  65:App/Task_Display/Task_Widget.c **** 
 574              		.loc 1 65 9 is_stmt 1 view .LVU155
  65:App/Task_Display/Task_Widget.c **** 
 575              		.loc 1 65 13 is_stmt 0 view .LVU156
 576 01aa 0D4A     		ldr	r2, .L11+12
 577 01ac 1378     		ldrb	r3, [r2]	@ zero_extendqisi2
 578 01ae 023B     		subs	r3, r3, #2
 579 01b0 1370     		strb	r3, [r2]
ARM GAS  /var/folders/lx/hc4sn_b53233_zkc9xbbl97r0000gp/T//ccfbfO3s.s 			page 13


  67:App/Task_Display/Task_Widget.c ****         {
 580              		.loc 1 67 9 is_stmt 1 view .LVU157
  67:App/Task_Display/Task_Widget.c ****         {
 581              		.loc 1 67 17 is_stmt 0 view .LVU158
 582 01b2 094B     		ldr	r3, .L11+4
 583 01b4 1B78     		ldrb	r3, [r3]	@ zero_extendqisi2
  67:App/Task_Display/Task_Widget.c ****         {
 584              		.loc 1 67 12 view .LVU159
 585 01b6 022B     		cmp	r3, #2
 586 01b8 3FF64FAF 		bhi	.L9
  69:App/Task_Display/Task_Widget.c ****             move = false;
 587              		.loc 1 69 13 is_stmt 1 view .LVU160
  69:App/Task_Display/Task_Widget.c ****             move = false;
 588              		.loc 1 69 23 is_stmt 0 view .LVU161
 589 01bc 094B     		ldr	r3, .L11+16
 590 01be 9B68     		ldr	r3, [r3, #8]
  69:App/Task_Display/Task_Widget.c ****             move = false;
 591              		.loc 1 69 13 view .LVU162
 592 01c0 094A     		ldr	r2, .L11+20
 593 01c2 1068     		ldr	r0, [r2]
 594 01c4 9847     		blx	r3
 595              	.LVL49:
  69:App/Task_Display/Task_Widget.c ****             move = false;
 596              		.loc 1 69 38 view .LVU163
 597 01c6 4368     		ldr	r3, [r0, #4]
  69:App/Task_Display/Task_Widget.c ****             move = false;
 598              		.loc 1 69 13 view .LVU164
 599 01c8 9847     		blx	r3
 600              	.LVL50:
  70:App/Task_Display/Task_Widget.c ****         }
 601              		.loc 1 70 13 is_stmt 1 view .LVU165
  70:App/Task_Display/Task_Widget.c ****         }
 602              		.loc 1 70 18 is_stmt 0 view .LVU166
 603 01ca 044B     		ldr	r3, .L11+8
 604 01cc 0022     		movs	r2, #0
 605 01ce 1A70     		strb	r2, [r3]
 606 01d0 43E7     		b	.L9
 607              	.L12:
 608 01d2 00BF     		.align	2
 609              	.L11:
 610 01d4 00000000 		.word	.LANCHOR4
 611 01d8 00000000 		.word	.LANCHOR5
 612 01dc 00000000 		.word	.LANCHOR6
 613 01e0 00000000 		.word	.LANCHOR7
 614 01e4 00000000 		.word	Widget_Mng
 615 01e8 00000000 		.word	.LANCHOR0
 616 01ec 00000000 		.word	.LANCHOR3
 617 01f0 00000000 		.word	.LANCHOR2
 618 01f4 00000000 		.word	.LC4
 619 01f8 00000000 		.word	.LANCHOR1
 620 01fc 08000000 		.word	.LC5
 621              		.cfi_endproc
 622              	.LFE4:
 624              		.section	.text.TaskWidget_Core,"ax",%progbits
 625              		.align	1
 626              		.global	TaskWidget_Core
 627              		.syntax unified
ARM GAS  /var/folders/lx/hc4sn_b53233_zkc9xbbl97r0000gp/T//ccfbfO3s.s 			page 14


 628              		.thumb
 629              		.thumb_func
 630              		.fpu fpv4-sp-d16
 632              	TaskWidget_Core:
 633              	.LVL51:
 634              	.LFB5:
  96:App/Task_Display/Task_Widget.c **** 
  97:App/Task_Display/Task_Widget.c **** void TaskWidget_Core(Task_Handler self)
  98:App/Task_Display/Task_Widget.c **** {
 635              		.loc 1 98 1 is_stmt 1 view -0
 636              		.cfi_startproc
 637              		@ args = 0, pretend = 0, frame = 0
 638              		@ frame_needed = 0, uses_anonymous_args = 0
 639              		.loc 1 98 1 is_stmt 0 view .LVU168
 640 0000 08B5     		push	{r3, lr}
 641              	.LCFI7:
 642              		.cfi_def_cfa_offset 8
 643              		.cfi_offset 3, -8
 644              		.cfi_offset 14, -4
  99:App/Task_Display/Task_Widget.c ****     switch ((uint8_t)TaskWidget_State)
 645              		.loc 1 99 5 is_stmt 1 view .LVU169
 646              		.loc 1 99 13 is_stmt 0 view .LVU170
 647 0002 114B     		ldr	r3, .L20
 648 0004 1B78     		ldrb	r3, [r3]	@ zero_extendqisi2
 649              		.loc 1 99 5 view .LVU171
 650 0006 012B     		cmp	r3, #1
 651 0008 09D0     		beq	.L14
 652 000a 022B     		cmp	r3, #2
 653 000c 13D0     		beq	.L15
 654 000e 03B1     		cbz	r3, .L19
 655              	.LVL52:
 656              	.L13:
 100:App/Task_Display/Task_Widget.c ****     {
 101:App/Task_Display/Task_Widget.c ****     case TaskWdiget_State_Init:
 102:App/Task_Display/Task_Widget.c ****         TaskWidget_Init();
 103:App/Task_Display/Task_Widget.c ****         TaskWidget_State = TaskWidget_State_CheckFresh;
 104:App/Task_Display/Task_Widget.c ****         break;
 105:App/Task_Display/Task_Widget.c **** 
 106:App/Task_Display/Task_Widget.c ****     case TaskWidget_State_CheckFresh:
 107:App/Task_Display/Task_Widget.c ****         if (Widget_Mng.trigger_fresh())
 108:App/Task_Display/Task_Widget.c ****         {
 109:App/Task_Display/Task_Widget.c ****             TaskWidget_State = TaskWidget_State_Fresh;
 110:App/Task_Display/Task_Widget.c ****         }
 111:App/Task_Display/Task_Widget.c ****         else
 112:App/Task_Display/Task_Widget.c ****             TaskWidget_State = TaskWidget_State_CheckFresh;
 113:App/Task_Display/Task_Widget.c ****         break;
 114:App/Task_Display/Task_Widget.c **** 
 115:App/Task_Display/Task_Widget.c ****     case TaskWidget_State_Fresh:
 116:App/Task_Display/Task_Widget.c ****         TestWidget_Dynamic_Dsp();
 117:App/Task_Display/Task_Widget.c ****         Widget_Mng.fresh_all();
 118:App/Task_Display/Task_Widget.c ****         TaskWidget_State = TaskWidget_State_CheckFresh;
 119:App/Task_Display/Task_Widget.c ****         break;
 120:App/Task_Display/Task_Widget.c ****     }
 121:App/Task_Display/Task_Widget.c **** }
 657              		.loc 1 121 1 view .LVU172
 658 0010 08BD     		pop	{r3, pc}
 659              	.LVL53:
ARM GAS  /var/folders/lx/hc4sn_b53233_zkc9xbbl97r0000gp/T//ccfbfO3s.s 			page 15


 660              	.L19:
 102:App/Task_Display/Task_Widget.c ****         TaskWidget_State = TaskWidget_State_CheckFresh;
 661              		.loc 1 102 9 is_stmt 1 view .LVU173
 662 0012 FFF7FEFF 		bl	TaskWidget_Init
 663              	.LVL54:
 103:App/Task_Display/Task_Widget.c ****         break;
 664              		.loc 1 103 9 view .LVU174
 103:App/Task_Display/Task_Widget.c ****         break;
 665              		.loc 1 103 26 is_stmt 0 view .LVU175
 666 0016 0C4B     		ldr	r3, .L20
 667 0018 0122     		movs	r2, #1
 668 001a 1A70     		strb	r2, [r3]
 104:App/Task_Display/Task_Widget.c **** 
 669              		.loc 1 104 9 is_stmt 1 view .LVU176
 670 001c F8E7     		b	.L13
 671              	.LVL55:
 672              	.L14:
 107:App/Task_Display/Task_Widget.c ****         {
 673              		.loc 1 107 9 view .LVU177
 107:App/Task_Display/Task_Widget.c ****         {
 674              		.loc 1 107 23 is_stmt 0 view .LVU178
 675 001e 0B4B     		ldr	r3, .L20+4
 676 0020 1B69     		ldr	r3, [r3, #16]
 107:App/Task_Display/Task_Widget.c ****         {
 677              		.loc 1 107 13 view .LVU179
 678 0022 9847     		blx	r3
 679              	.LVL56:
 107:App/Task_Display/Task_Widget.c ****         {
 680              		.loc 1 107 12 view .LVU180
 681 0024 18B1     		cbz	r0, .L17
 109:App/Task_Display/Task_Widget.c ****         }
 682              		.loc 1 109 13 is_stmt 1 view .LVU181
 109:App/Task_Display/Task_Widget.c ****         }
 683              		.loc 1 109 30 is_stmt 0 view .LVU182
 684 0026 084B     		ldr	r3, .L20
 685 0028 0222     		movs	r2, #2
 686 002a 1A70     		strb	r2, [r3]
 687 002c F0E7     		b	.L13
 688              	.L17:
 112:App/Task_Display/Task_Widget.c ****         break;
 689              		.loc 1 112 13 is_stmt 1 view .LVU183
 112:App/Task_Display/Task_Widget.c ****         break;
 690              		.loc 1 112 30 is_stmt 0 view .LVU184
 691 002e 064B     		ldr	r3, .L20
 692 0030 0122     		movs	r2, #1
 693 0032 1A70     		strb	r2, [r3]
 694 0034 ECE7     		b	.L13
 695              	.LVL57:
 696              	.L15:
 116:App/Task_Display/Task_Widget.c ****         Widget_Mng.fresh_all();
 697              		.loc 1 116 9 is_stmt 1 view .LVU185
 698 0036 FFF7FEFF 		bl	TestWidget_Dynamic_Dsp
 699              	.LVL58:
 117:App/Task_Display/Task_Widget.c ****         TaskWidget_State = TaskWidget_State_CheckFresh;
 700              		.loc 1 117 9 view .LVU186
 117:App/Task_Display/Task_Widget.c ****         TaskWidget_State = TaskWidget_State_CheckFresh;
 701              		.loc 1 117 19 is_stmt 0 view .LVU187
ARM GAS  /var/folders/lx/hc4sn_b53233_zkc9xbbl97r0000gp/T//ccfbfO3s.s 			page 16


 702 003a 044B     		ldr	r3, .L20+4
 703 003c 5B69     		ldr	r3, [r3, #20]
 117:App/Task_Display/Task_Widget.c ****         TaskWidget_State = TaskWidget_State_CheckFresh;
 704              		.loc 1 117 9 view .LVU188
 705 003e 9847     		blx	r3
 706              	.LVL59:
 118:App/Task_Display/Task_Widget.c ****         break;
 707              		.loc 1 118 9 is_stmt 1 view .LVU189
 118:App/Task_Display/Task_Widget.c ****         break;
 708              		.loc 1 118 26 is_stmt 0 view .LVU190
 709 0040 014B     		ldr	r3, .L20
 710 0042 0122     		movs	r2, #1
 711 0044 1A70     		strb	r2, [r3]
 119:App/Task_Display/Task_Widget.c ****     }
 712              		.loc 1 119 9 is_stmt 1 view .LVU191
 713              		.loc 1 121 1 is_stmt 0 view .LVU192
 714 0046 E3E7     		b	.L13
 715              	.L21:
 716              		.align	2
 717              	.L20:
 718 0048 00000000 		.word	.LANCHOR8
 719 004c 00000000 		.word	Widget_Mng
 720              		.cfi_endproc
 721              	.LFE5:
 723              		.global	TaskWidget_Hdl
 724              		.section	.bss.TaskWidget_Hdl,"aw",%nobits
 725              		.align	2
 728              	TaskWidget_Hdl:
 729 0000 00000000 		.space	4
 730              		.section	.bss.TaskWidget_State,"aw",%nobits
 731              		.set	.LANCHOR8,. + 0
 734              	TaskWidget_State:
 735 0000 00       		.space	1
 736              		.section	.bss.change.3,"aw",%nobits
 737              		.set	.LANCHOR4,. + 0
 740              	change.3:
 741 0000 00       		.space	1
 742              		.section	.bss.dis.0,"aw",%nobits
 743              		.set	.LANCHOR7,. + 0
 746              	dis.0:
 747 0000 00       		.space	1
 748              		.section	.bss.move.1,"aw",%nobits
 749              		.set	.LANCHOR6,. + 0
 752              	move.1:
 753 0000 00       		.space	1
 754              		.section	.bss.rad.2,"aw",%nobits
 755              		.set	.LANCHOR5,. + 0
 758              	rad.2:
 759 0000 00       		.space	1
 760              		.section	.bss.test1,"aw",%nobits
 761              		.align	2
 762              		.set	.LANCHOR0,. + 0
 765              	test1:
 766 0000 00000000 		.space	4
 767              		.section	.bss.test2,"aw",%nobits
 768              		.align	2
 769              		.set	.LANCHOR1,. + 0
ARM GAS  /var/folders/lx/hc4sn_b53233_zkc9xbbl97r0000gp/T//ccfbfO3s.s 			page 17


 772              	test2:
 773 0000 00000000 		.space	4
 774              		.section	.bss.test3,"aw",%nobits
 775              		.align	2
 776              		.set	.LANCHOR2,. + 0
 779              	test3:
 780 0000 00000000 		.space	4
 781              		.section	.bss.test4,"aw",%nobits
 782              		.align	2
 783              		.set	.LANCHOR3,. + 0
 786              	test4:
 787 0000 00000000 		.space	4
 788              		.text
 789              	.Letext0:
 790              		.file 2 "/usr/local/arm-none-eabi-gcc/gcc-arm-none-eabi-10-2020-q4-major/arm-none-eabi/include/mac
 791              		.file 3 "/usr/local/arm-none-eabi-gcc/gcc-arm-none-eabi-10-2020-q4-major/arm-none-eabi/include/sys
 792              		.file 4 "SYS/task_manager/task_manager.h"
 793              		.file 5 "App/Task_Display/Task_Widget.h"
 794              		.file 6 "Dsp/screen/font/oledfont.h"
 795              		.file 7 "Dsp/widget/wgt_core/GenDsp.h"
 796              		.file 8 "Dsp/screen/OledIO_Definition/Oled_DspProp_Def.h"
 797              		.file 9 "Dsp/widget/wgt_core/widget_mng.h"
ARM GAS  /var/folders/lx/hc4sn_b53233_zkc9xbbl97r0000gp/T//ccfbfO3s.s 			page 18

