ARM GAS  /var/folders/lx/hc4sn_b53233_zkc9xbbl97r0000gp/T//ccr3Mjaw.s 			page 1


   1              		.cpu cortex-m4
   2              		.eabi_attribute 27, 1
   3              		.eabi_attribute 28, 1
   4              		.eabi_attribute 20, 1
   5              		.eabi_attribute 21, 1
   6              		.eabi_attribute 23, 3
   7              		.eabi_attribute 24, 1
   8              		.eabi_attribute 25, 1
   9              		.eabi_attribute 26, 1
  10              		.eabi_attribute 30, 1
  11              		.eabi_attribute 34, 1
  12              		.eabi_attribute 18, 4
  13              		.file	"task_manager.c"
  14              		.text
  15              	.Ltext0:
  16              		.cfi_sections	.debug_frame
  17              		.section	.text.Task_Exit,"ax",%progbits
  18              		.align	1
  19              		.arch armv7e-m
  20              		.syntax unified
  21              		.thumb
  22              		.thumb_func
  23              		.fpu fpv4-sp-d16
  25              	Task_Exit:
  26              	.LFB129:
  27              		.file 1 "SYS/task_manager/task_manager.c"
   1:SYS/task_manager/task_manager.c **** #include "task_manager.h"
   2:SYS/task_manager/task_manager.c **** #include "runtime.h"
   3:SYS/task_manager/task_manager.c **** #include "string.h"
   4:SYS/task_manager/task_manager.c **** #include "stddef.h"
   5:SYS/task_manager/task_manager.c **** #include "periph_gpio.h"
   6:SYS/task_manager/task_manager.c **** #include "periph_timer.h"
   7:SYS/task_manager/task_manager.c **** #include <stdio.h>
   8:SYS/task_manager/task_manager.c **** #include "task_manager_cfg.h"
   9:SYS/task_manager/task_manager.c **** #include "binary_tree.h"
  10:SYS/task_manager/task_manager.c **** #include "linked_list.h"
  11:SYS/task_manager/task_manager.c **** 
  12:SYS/task_manager/task_manager.c **** //coder: 8_B!T0
  13:SYS/task_manager/task_manager.c **** //bref:
  14:SYS/task_manager/task_manager.c **** //estabishment a task running system with priority calling functional
  15:SYS/task_manager/task_manager.c **** //alway calling the highest priority function in all function under the ready table
  16:SYS/task_manager/task_manager.c **** //reference to ucos (version earler than v8.6)
  17:SYS/task_manager/task_manager.c **** 
  18:SYS/task_manager/task_manager.c **** /*
  19:SYS/task_manager/task_manager.c **** *******************************   TASK Handle    *******************************
  20:SYS/task_manager/task_manager.c **** 
  21:SYS/task_manager/task_manager.c ****              task0   task1   task2   task3   task4   task5   task6   task7
  22:SYS/task_manager/task_manager.c **** group0     |_______|_______|_______|_______|_______|_______|_______|_______|
  23:SYS/task_manager/task_manager.c **** group1     |_______|_______|_______|_______|_______|_______|_______|_______|
  24:SYS/task_manager/task_manager.c **** group2     |_______|_______|_______|_______|_______|_______|_______|_______|
  25:SYS/task_manager/task_manager.c **** group3     |_______|_______|_______|_______|_______|_______|_______|_______|
  26:SYS/task_manager/task_manager.c **** group4     |_______|_______|_______|_______|_______|_______|_______|_______|
  27:SYS/task_manager/task_manager.c **** group5     |_______|_______|_______|_______|_______|_______|_______|_______|
  28:SYS/task_manager/task_manager.c **** group6     |_______|_______|_______|_______|_______|_______|_______|_______|
  29:SYS/task_manager/task_manager.c **** group7     |_______|_______|_______|_______|_______|_______|_______|_______|
  30:SYS/task_manager/task_manager.c **** 
  31:SYS/task_manager/task_manager.c **** */
ARM GAS  /var/folders/lx/hc4sn_b53233_zkc9xbbl97r0000gp/T//ccr3Mjaw.s 			page 2


  32:SYS/task_manager/task_manager.c **** 
  33:SYS/task_manager/task_manager.c **** #define GET_TASKGROUP_PRIORITY(x) x >> 3
  34:SYS/task_manager/task_manager.c **** #define GET_TASKINGROUP_PRIORITY(y) y & 0X07
  35:SYS/task_manager/task_manager.c **** 
  36:SYS/task_manager/task_manager.c **** static const uint8_t Tsk_Handle[256] = {0, 0, 1, 0, 2, 0, 1, 0, 3, 0, 1, 0, 2, 0, 1, 0,  //0x00 ~ 0
  37:SYS/task_manager/task_manager.c ****                                         4, 0, 1, 0, 2, 0, 1, 0, 3, 0, 1, 0, 2, 0, 1, 0,  //0x10 ~ 0
  38:SYS/task_manager/task_manager.c ****                                         5, 0, 1, 0, 2, 0, 1, 0, 3, 0, 1, 0, 2, 0, 1, 0,  //0x20 ~ 0
  39:SYS/task_manager/task_manager.c ****                                         4, 0, 1, 0, 2, 0, 1, 0, 3, 0, 1, 0, 2, 0, 1, 0,  //0x30 ~ 0
  40:SYS/task_manager/task_manager.c ****                                         6, 0, 1, 0, 2, 0, 1, 0, 3, 0, 1, 0, 2, 0, 1, 0,  //0x40 ~ 0
  41:SYS/task_manager/task_manager.c ****                                         4, 0, 1, 0, 2, 0, 1, 0, 3, 0, 1, 0, 2, 0, 1, 0,  //0x50 ~ 0
  42:SYS/task_manager/task_manager.c ****                                         5, 0, 1, 0, 2, 0, 1, 0, 3, 0, 1, 0, 2, 0, 1, 0,  //0x60 ~ 0
  43:SYS/task_manager/task_manager.c ****                                         4, 0, 1, 0, 2, 0, 1, 0, 3, 0, 1, 0, 2, 0, 1, 0,  //0x70 ~ 0
  44:SYS/task_manager/task_manager.c ****                                         7, 0, 1, 0, 2, 0, 1, 0, 3, 0, 1, 0, 2, 0, 1, 0,  //0x80 ~ 0
  45:SYS/task_manager/task_manager.c ****                                         4, 0, 1, 0, 2, 0, 1, 0, 3, 0, 1, 0, 2, 0, 1, 0,  //0x90 ~ 0
  46:SYS/task_manager/task_manager.c ****                                         5, 0, 1, 0, 2, 0, 1, 0, 3, 0, 1, 0, 2, 0, 1, 0,  //0xA0 ~ 0
  47:SYS/task_manager/task_manager.c ****                                         4, 0, 1, 0, 2, 0, 1, 0, 3, 0, 1, 0, 2, 0, 1, 0,  //0xB0 ~ 0
  48:SYS/task_manager/task_manager.c ****                                         6, 0, 1, 0, 2, 0, 1, 0, 3, 0, 1, 0, 2, 0, 1, 0,  //0xC0 ~ 0
  49:SYS/task_manager/task_manager.c ****                                         4, 0, 1, 0, 2, 0, 1, 0, 3, 0, 1, 0, 2, 0, 1, 0,  //0xD0 ~ 0
  50:SYS/task_manager/task_manager.c ****                                         5, 0, 1, 0, 2, 0, 1, 0, 3, 0, 1, 0, 2, 0, 1, 0,  //0xE0 ~ 0
  51:SYS/task_manager/task_manager.c ****                                         4, 0, 1, 0, 2, 0, 1, 0, 3, 0, 1, 0, 2, 0, 1, 0}; //0xF0 ~ 0
  52:SYS/task_manager/task_manager.c **** 
  53:SYS/task_manager/task_manager.c **** Task *Task_Ptr[Group_Sum][Task_Priority_Sum];
  54:SYS/task_manager/task_manager.c **** volatile Task *CurRunTsk_Ptr = NULL;
  55:SYS/task_manager/task_manager.c **** volatile Task *NxtRunTsk_Ptr = NULL;
  56:SYS/task_manager/task_manager.c **** 
  57:SYS/task_manager/task_manager.c **** static volatile TskMap_State TskHdl_RdyMap = {.Grp = 0, .TskInGrp[0] = 0, .TskInGrp[1] = 0, .TskInG
  58:SYS/task_manager/task_manager.c **** static volatile TskMap_State TskHdl_PndMap = {.Grp = 0, .TskInGrp[0] = 0, .TskInGrp[1] = 0, .TskInG
  59:SYS/task_manager/task_manager.c **** static volatile TskMap_State TskHdl_BlkMap = {.Grp = 0, .TskInGrp[0] = 0, .TskInGrp[1] = 0, .TskInG
  60:SYS/task_manager/task_manager.c **** 
  61:SYS/task_manager/task_manager.c **** static Task_Create_RegList_s TskCrt_RegList = {.num = 0,
  62:SYS/task_manager/task_manager.c ****                                                .list = {.prv = NULL, .nxt = NULL, .data = NULL}};
  63:SYS/task_manager/task_manager.c **** static volatile TaskSys_State TskSys_state = TaskSys_Initial;
  64:SYS/task_manager/task_manager.c **** static uint32_t TaskSys_Idle_US = 0;
  65:SYS/task_manager/task_manager.c **** static float TaskSys_Idle_Ocupy = 0.0f;
  66:SYS/task_manager/task_manager.c **** static SYSTEM_RunTime TaskSys_StartTime;
  67:SYS/task_manager/task_manager.c **** 
  68:SYS/task_manager/task_manager.c **** static void Task_SetReady(Task *tsk);
  69:SYS/task_manager/task_manager.c **** static void Task_ClearReady(Task *tsk);
  70:SYS/task_manager/task_manager.c **** static void Task_StopCountTargetFunc_Cast(Task *tsk_ptr);
  71:SYS/task_manager/task_manager.c **** 
  72:SYS/task_manager/task_manager.c **** #if (TASK_SCHEDULER_TYPE == PREEMPTIVE_SCHDULER)
  73:SYS/task_manager/task_manager.c **** volatile Task *PndHstTsk_Ptr = NULL;
  74:SYS/task_manager/task_manager.c **** 
  75:SYS/task_manager/task_manager.c **** volatile TaskStack_ControlBlock CurTsk_TCB;
  76:SYS/task_manager/task_manager.c **** volatile TaskStack_ControlBlock NxtTsk_TCB;
  77:SYS/task_manager/task_manager.c **** 
  78:SYS/task_manager/task_manager.c **** static uint32_t Task_OS_StkMem[MSP_MEM_SPACE_SIZE];
  79:SYS/task_manager/task_manager.c **** uint32_t *Task_OS_ExpStkBase;
  80:SYS/task_manager/task_manager.c **** 
  81:SYS/task_manager/task_manager.c **** static void Task_SetStkPtr_Val(Task *tsk);
  82:SYS/task_manager/task_manager.c **** static void Task_Set_CountRunnigTime_State(Task *tsk_ptr, uint8_t enable_state);
  83:SYS/task_manager/task_manager.c **** static void Task_ClearPending(Task *tsk);
  84:SYS/task_manager/task_manager.c **** static void Task_ClearBlock(Task *tsk);
  85:SYS/task_manager/task_manager.c **** static void Task_SetBASEPRI(uint32_t ulBASEPRI);
  86:SYS/task_manager/task_manager.c **** 
  87:SYS/task_manager/task_manager.c **** void Task_SetPending(Task *tsk);
  88:SYS/task_manager/task_manager.c **** #endif
ARM GAS  /var/folders/lx/hc4sn_b53233_zkc9xbbl97r0000gp/T//ccr3Mjaw.s 			page 3


  89:SYS/task_manager/task_manager.c **** 
  90:SYS/task_manager/task_manager.c **** static void Task_Exec(Task *tsk_ptr);
  91:SYS/task_manager/task_manager.c **** static void Task_SetPendSVPro(void);
  92:SYS/task_manager/task_manager.c **** void Task_TriggerPendSV(void);
  93:SYS/task_manager/task_manager.c **** 
  94:SYS/task_manager/task_manager.c **** static void ReSet_Task_Data(Task *task)
  95:SYS/task_manager/task_manager.c **** {
  96:SYS/task_manager/task_manager.c ****     task->priority.Suction.Group_Level = 0;
  97:SYS/task_manager/task_manager.c ****     task->priority.Suction.Task_Level = 0;
  98:SYS/task_manager/task_manager.c ****     task->Task_name = NULL;
  99:SYS/task_manager/task_manager.c ****     task->exec_frq = 0;
 100:SYS/task_manager/task_manager.c ****     task->exec_interval_us = 0;
 101:SYS/task_manager/task_manager.c ****     task->Exec_Func = NULL;
 102:SYS/task_manager/task_manager.c **** 
 103:SYS/task_manager/task_manager.c ****     task->Exec_status.detect_exec_frq = 0;
 104:SYS/task_manager/task_manager.c ****     task->Exec_status.detect_exec_time_arv = 0;
 105:SYS/task_manager/task_manager.c ****     task->Exec_status.detect_exec_time_max = 0;
 106:SYS/task_manager/task_manager.c ****     task->Exec_status.Exec_Times = 0;
 107:SYS/task_manager/task_manager.c ****     task->Exec_status.cpu_opy = 0;
 108:SYS/task_manager/task_manager.c ****     task->Exec_status.totlal_running_time = 0;
 109:SYS/task_manager/task_manager.c **** 
 110:SYS/task_manager/task_manager.c ****     task->delay_info.on_delay = false;
 111:SYS/task_manager/task_manager.c ****     task->delay_info.tsk_hdl = 0;
 112:SYS/task_manager/task_manager.c ****     task->delay_info.time_unit = 0;
 113:SYS/task_manager/task_manager.c **** 
 114:SYS/task_manager/task_manager.c ****     List_ItemInit(&task->delay_item, &task->delay_info);
 115:SYS/task_manager/task_manager.c **** 
 116:SYS/task_manager/task_manager.c ****     RuntimeObj_Reset(&(task->Exec_status.Exec_Time));
 117:SYS/task_manager/task_manager.c ****     RuntimeObj_Reset(&(task->Exec_status.Init_Time));
 118:SYS/task_manager/task_manager.c ****     RuntimeObj_Reset(&(task->Exec_status.Start_Time));
 119:SYS/task_manager/task_manager.c **** 
 120:SYS/task_manager/task_manager.c ****     task->Exec_status.State = Task_Done;
 121:SYS/task_manager/task_manager.c **** }
 122:SYS/task_manager/task_manager.c **** 
 123:SYS/task_manager/task_manager.c **** static void Task_ReSet_BaseInfo(Task_Base_Info *info)
 124:SYS/task_manager/task_manager.c **** {
 125:SYS/task_manager/task_manager.c ****     info->avg_exec_us = 0;
 126:SYS/task_manager/task_manager.c ****     info->cpu_opy = 0;
 127:SYS/task_manager/task_manager.c ****     info->exec_frq = 0;
 128:SYS/task_manager/task_manager.c ****     info->exec_times = 0;
 129:SYS/task_manager/task_manager.c ****     info->group = 0;
 130:SYS/task_manager/task_manager.c ****     info->max_exec_us = 0;
 131:SYS/task_manager/task_manager.c ****     info->priority = 0;
 132:SYS/task_manager/task_manager.c **** 
 133:SYS/task_manager/task_manager.c ****     memset(info->name, NULL, TASK_NAME_MAXLEN);
 134:SYS/task_manager/task_manager.c **** }
 135:SYS/task_manager/task_manager.c **** 
 136:SYS/task_manager/task_manager.c **** static bool TaskSys_Init(void)
 137:SYS/task_manager/task_manager.c **** {
 138:SYS/task_manager/task_manager.c **** #if (TASK_SCHEDULER_TYPE == PREEMPTIVE_SCHDULER)
 139:SYS/task_manager/task_manager.c ****     //init OS Stack Memory Space
 140:SYS/task_manager/task_manager.c ****     memset(Task_OS_StkMem, NULL, MSP_MEM_SPACE_SIZE);
 141:SYS/task_manager/task_manager.c **** 
 142:SYS/task_manager/task_manager.c ****     Task_OS_ExpStkBase = Task_OS_StkMem + MSP_MEM_SPACE_SIZE - 1;
 143:SYS/task_manager/task_manager.c **** #endif
 144:SYS/task_manager/task_manager.c **** 
 145:SYS/task_manager/task_manager.c ****     //periph_Timer_CounterMode_Init(Timer_4, TimerCounter_1M_Prescaler, TimerCounter_1us_Period, 0,
ARM GAS  /var/folders/lx/hc4sn_b53233_zkc9xbbl97r0000gp/T//ccr3Mjaw.s 			page 4


 146:SYS/task_manager/task_manager.c ****     //periph_Timer_Counter_SetEnable(Timer_4, DISABLE);
 147:SYS/task_manager/task_manager.c **** 
 148:SYS/task_manager/task_manager.c ****     uint8_t index = 0;
 149:SYS/task_manager/task_manager.c **** 
 150:SYS/task_manager/task_manager.c ****     for (uint8_t group_index = Group_0; group_index < Group_Sum; group_index++)
 151:SYS/task_manager/task_manager.c ****     {
 152:SYS/task_manager/task_manager.c ****         for (uint8_t task_priority = Task_Priority_0; task_priority < Task_Priority_Sum; task_prior
 153:SYS/task_manager/task_manager.c ****         {
 154:SYS/task_manager/task_manager.c ****             ReSet_Task_Data(Task_Ptr[group_index][task_priority]);
 155:SYS/task_manager/task_manager.c **** 
 156:SYS/task_manager/task_manager.c **** #if (TASK_SCHEDULER_TYPE == PREEMPTIVE_SCHDULER)
 157:SYS/task_manager/task_manager.c ****             Task_Ptr[group_index][task_priority]->Stack_Depth = 0;
 158:SYS/task_manager/task_manager.c ****             Task_Ptr[group_index][task_priority]->TCB.Stack = NULL;
 159:SYS/task_manager/task_manager.c ****             Task_Ptr[group_index][task_priority]->TCB.Top_Stk_Ptr = NULL;
 160:SYS/task_manager/task_manager.c **** #endif
 161:SYS/task_manager/task_manager.c ****             Task_Ptr[group_index][task_priority] = NULL;
 162:SYS/task_manager/task_manager.c **** 
 163:SYS/task_manager/task_manager.c ****             index++;
 164:SYS/task_manager/task_manager.c ****         }
 165:SYS/task_manager/task_manager.c ****     }
 166:SYS/task_manager/task_manager.c **** 
 167:SYS/task_manager/task_manager.c ****     TskCrt_RegList.num = 0;
 168:SYS/task_manager/task_manager.c ****     TskCrt_RegList.list.data = NULL;
 169:SYS/task_manager/task_manager.c ****     TskCrt_RegList.list.nxt = NULL;
 170:SYS/task_manager/task_manager.c ****     TskCrt_RegList.list.prv = NULL;
 171:SYS/task_manager/task_manager.c **** 
 172:SYS/task_manager/task_manager.c ****     ReSet_Task_Data(CurRunTsk_Ptr);
 173:SYS/task_manager/task_manager.c ****     TskSys_state = TaskSys_Prepare;
 174:SYS/task_manager/task_manager.c **** }
 175:SYS/task_manager/task_manager.c **** 
 176:SYS/task_manager/task_manager.c **** static void Task_Exit(void)
 177:SYS/task_manager/task_manager.c **** {
  28              		.loc 1 177 1 view -0
  29              		.cfi_startproc
  30              		@ Volatile: function does not return.
  31              		@ args = 0, pretend = 0, frame = 0
  32              		@ frame_needed = 0, uses_anonymous_args = 0
  33              		@ link register save eliminated.
  34              	.L2:
 178:SYS/task_manager/task_manager.c ****     //task caller will not exit
 179:SYS/task_manager/task_manager.c ****     while (true)
  35              		.loc 1 179 5 discriminator 1 view .LVU1
 180:SYS/task_manager/task_manager.c ****     {
 181:SYS/task_manager/task_manager.c ****     }
  36              		.loc 1 181 5 discriminator 1 view .LVU2
 179:SYS/task_manager/task_manager.c ****     {
  37              		.loc 1 179 11 discriminator 1 view .LVU3
  38 0000 FEE7     		b	.L2
  39              		.cfi_endproc
  40              	.LFE129:
  42              		.section	.text.Task_SetBASEPRI,"ax",%progbits
  43              		.align	1
  44              		.syntax unified
  45              		.thumb
  46              		.thumb_func
  47              		.fpu fpv4-sp-d16
  49              	Task_SetBASEPRI:
ARM GAS  /var/folders/lx/hc4sn_b53233_zkc9xbbl97r0000gp/T//ccr3Mjaw.s 			page 5


  50              	.LVL0:
  51              	.LFB137:
 182:SYS/task_manager/task_manager.c **** }
 183:SYS/task_manager/task_manager.c **** 
 184:SYS/task_manager/task_manager.c **** static void Task_Idle(void)
 185:SYS/task_manager/task_manager.c **** {
 186:SYS/task_manager/task_manager.c ****     SYSTEM_RunTime cur_time;
 187:SYS/task_manager/task_manager.c ****     SYSTEM_RunTime time_diff;
 188:SYS/task_manager/task_manager.c **** 
 189:SYS/task_manager/task_manager.c ****     RuntimeObj_Reset(&time_diff);
 190:SYS/task_manager/task_manager.c ****     RuntimeObj_Reset(&cur_time);
 191:SYS/task_manager/task_manager.c **** 
 192:SYS/task_manager/task_manager.c ****     cur_time = Get_CurrentRunningUs();
 193:SYS/task_manager/task_manager.c ****     time_diff = Get_TimeDifference_Between(TaskSys_StartTime, cur_time);
 194:SYS/task_manager/task_manager.c **** 
 195:SYS/task_manager/task_manager.c ****     TaskSys_Idle_US++;
 196:SYS/task_manager/task_manager.c ****     TaskSys_Idle_Ocupy = (TaskSys_Idle_US / (float)time_diff);
 197:SYS/task_manager/task_manager.c **** }
 198:SYS/task_manager/task_manager.c **** 
 199:SYS/task_manager/task_manager.c **** #if (TASK_SCHEDULER_TYPE == PREEMPTIVE_SCHDULER)
 200:SYS/task_manager/task_manager.c **** 
 201:SYS/task_manager/task_manager.c **** void Task_Resume_FromBlock(Task *tsk)
 202:SYS/task_manager/task_manager.c **** {
 203:SYS/task_manager/task_manager.c ****     Task_ClearBlock(tsk);
 204:SYS/task_manager/task_manager.c ****     Task_SetReady(tsk);
 205:SYS/task_manager/task_manager.c ****     //Task_Set_CountRunnigTime_State(tsk, ENABLE);
 206:SYS/task_manager/task_manager.c **** 
 207:SYS/task_manager/task_manager.c ****     tsk->Exec_status.State = Task_Running;
 208:SYS/task_manager/task_manager.c ****     NxtTsk_TCB.Top_Stk_Ptr = &tsk->TCB.Top_Stk_Ptr;
 209:SYS/task_manager/task_manager.c ****     NxtTsk_TCB.Stack = tsk->TCB.Stack;
 210:SYS/task_manager/task_manager.c ****     CurRunTsk_Ptr = tsk;
 211:SYS/task_manager/task_manager.c **** }
 212:SYS/task_manager/task_manager.c **** 
 213:SYS/task_manager/task_manager.c **** void Task_SetBlock(Task *tsk)
 214:SYS/task_manager/task_manager.c **** {
 215:SYS/task_manager/task_manager.c ****     uint8_t grp_id = GET_TASKGROUP_PRIORITY(tsk->priority.Priority);
 216:SYS/task_manager/task_manager.c ****     uint8_t tsk_id = GET_TASKINGROUP_PRIORITY(tsk->priority.Priority);
 217:SYS/task_manager/task_manager.c **** 
 218:SYS/task_manager/task_manager.c ****     //set current group block
 219:SYS/task_manager/task_manager.c ****     TskHdl_BlkMap.Grp.Flg |= 1 << grp_id;
 220:SYS/task_manager/task_manager.c ****     //set current task under this group flag to block
 221:SYS/task_manager/task_manager.c ****     TskHdl_BlkMap.TskInGrp[grp_id].Flg |= 1 << tsk_id;
 222:SYS/task_manager/task_manager.c **** 
 223:SYS/task_manager/task_manager.c ****     //reset task in ready reg group
 224:SYS/task_manager/task_manager.c ****     TskHdl_RdyMap.TskInGrp[grp_id].Flg &= ~(1 << tsk_id);
 225:SYS/task_manager/task_manager.c ****     //if no task ready then clear group reg
 226:SYS/task_manager/task_manager.c ****     if (TskHdl_RdyMap.TskInGrp[grp_id].Flg == 0)
 227:SYS/task_manager/task_manager.c ****     {
 228:SYS/task_manager/task_manager.c ****         TskHdl_RdyMap.Grp.Flg &= ~(1 << grp_id);
 229:SYS/task_manager/task_manager.c ****     }
 230:SYS/task_manager/task_manager.c **** 
 231:SYS/task_manager/task_manager.c ****     //set task state
 232:SYS/task_manager/task_manager.c ****     tsk->Exec_status.State = Task_Block;
 233:SYS/task_manager/task_manager.c **** 
 234:SYS/task_manager/task_manager.c ****     //Task_StopCountTargetFunc_Cast(tsk);
 235:SYS/task_manager/task_manager.c ****     //Task_Set_CountRunnigTime_State(tsk, DISABLE);
 236:SYS/task_manager/task_manager.c **** 
ARM GAS  /var/folders/lx/hc4sn_b53233_zkc9xbbl97r0000gp/T//ccr3Mjaw.s 			page 6


 237:SYS/task_manager/task_manager.c ****     CurRunTsk_Ptr = NULL;
 238:SYS/task_manager/task_manager.c **** 
 239:SYS/task_manager/task_manager.c ****     Task_SetBASEPRI(0);
 240:SYS/task_manager/task_manager.c **** }
 241:SYS/task_manager/task_manager.c **** 
 242:SYS/task_manager/task_manager.c **** void Task_SetPending(Task *tsk)
 243:SYS/task_manager/task_manager.c **** {
 244:SYS/task_manager/task_manager.c ****     uint8_t grp_id = GET_TASKGROUP_PRIORITY(tsk->priority.Priority);
 245:SYS/task_manager/task_manager.c ****     uint8_t tsk_id = GET_TASKINGROUP_PRIORITY(tsk->priority.Priority);
 246:SYS/task_manager/task_manager.c **** 
 247:SYS/task_manager/task_manager.c ****     //set current group pending
 248:SYS/task_manager/task_manager.c ****     TskHdl_PndMap.Grp.Flg |= 1 << grp_id;
 249:SYS/task_manager/task_manager.c ****     //set current task under this group flag to ready
 250:SYS/task_manager/task_manager.c ****     TskHdl_PndMap.TskInGrp[grp_id].Flg |= 1 << tsk_id;
 251:SYS/task_manager/task_manager.c **** 
 252:SYS/task_manager/task_manager.c ****     //set task state
 253:SYS/task_manager/task_manager.c ****     tsk->Exec_status.State = Task_Pending;
 254:SYS/task_manager/task_manager.c **** }
 255:SYS/task_manager/task_manager.c **** 
 256:SYS/task_manager/task_manager.c **** void Task_SwitchStack(void)
 257:SYS/task_manager/task_manager.c **** {
 258:SYS/task_manager/task_manager.c ****     CurTsk_TCB = NxtTsk_TCB;
 259:SYS/task_manager/task_manager.c **** }
 260:SYS/task_manager/task_manager.c **** 
 261:SYS/task_manager/task_manager.c **** Task *Task_Get_HighestRank_PndTask(void)
 262:SYS/task_manager/task_manager.c **** {
 263:SYS/task_manager/task_manager.c ****     uint8_t grp_id;
 264:SYS/task_manager/task_manager.c ****     uint8_t tsk_id;
 265:SYS/task_manager/task_manager.c **** 
 266:SYS/task_manager/task_manager.c ****     if (TskHdl_PndMap.Grp.Flg)
 267:SYS/task_manager/task_manager.c ****     {
 268:SYS/task_manager/task_manager.c ****         //find group
 269:SYS/task_manager/task_manager.c ****         grp_id = Tsk_Handle[TskHdl_PndMap.Grp.Flg];
 270:SYS/task_manager/task_manager.c ****         //find task in group
 271:SYS/task_manager/task_manager.c ****         tsk_id = Tsk_Handle[TskHdl_PndMap.TskInGrp[grp_id].Flg];
 272:SYS/task_manager/task_manager.c ****     }
 273:SYS/task_manager/task_manager.c ****     else
 274:SYS/task_manager/task_manager.c ****         return NULL;
 275:SYS/task_manager/task_manager.c **** 
 276:SYS/task_manager/task_manager.c ****     if (Task_Ptr[grp_id][tsk_id] != NULL)
 277:SYS/task_manager/task_manager.c ****     {
 278:SYS/task_manager/task_manager.c ****         return Task_Ptr[grp_id][tsk_id];
 279:SYS/task_manager/task_manager.c ****     }
 280:SYS/task_manager/task_manager.c ****     else
 281:SYS/task_manager/task_manager.c ****     {
 282:SYS/task_manager/task_manager.c ****         TskHdl_PndMap.Grp.Flg &= ~(1 << grp_id);
 283:SYS/task_manager/task_manager.c ****         TskHdl_PndMap.TskInGrp[grp_id].Flg &= ~(1 << tsk_id);
 284:SYS/task_manager/task_manager.c ****         return NULL;
 285:SYS/task_manager/task_manager.c ****     }
 286:SYS/task_manager/task_manager.c **** }
 287:SYS/task_manager/task_manager.c **** 
 288:SYS/task_manager/task_manager.c **** static uint32_t Task_EnterCritical(void)
 289:SYS/task_manager/task_manager.c **** {
 290:SYS/task_manager/task_manager.c ****     /* Set BASEPRI to the max syscall priority to effect a critical
 291:SYS/task_manager/task_manager.c **** 	section. */
 292:SYS/task_manager/task_manager.c ****     uint32_t ulOriginalBASEPRI, ulNewBASEPRI;
 293:SYS/task_manager/task_manager.c **** 
ARM GAS  /var/folders/lx/hc4sn_b53233_zkc9xbbl97r0000gp/T//ccr3Mjaw.s 			page 7


 294:SYS/task_manager/task_manager.c ****     __asm volatile(
 295:SYS/task_manager/task_manager.c ****         "	mrs %0, basepri											\n"
 296:SYS/task_manager/task_manager.c ****         "	mov %1, %2												\n"
 297:SYS/task_manager/task_manager.c ****         "	msr basepri, %1											\n"
 298:SYS/task_manager/task_manager.c ****         "	isb														\n"
 299:SYS/task_manager/task_manager.c ****         "	dsb														\n"
 300:SYS/task_manager/task_manager.c ****         : "=r"(ulOriginalBASEPRI), "=r"(ulNewBASEPRI)
 301:SYS/task_manager/task_manager.c ****         : "i"(80)
 302:SYS/task_manager/task_manager.c ****         : "memory");
 303:SYS/task_manager/task_manager.c **** 
 304:SYS/task_manager/task_manager.c ****     /* This return will not be reached but is necessary to prevent compiler
 305:SYS/task_manager/task_manager.c **** 	warnings. */
 306:SYS/task_manager/task_manager.c ****     return ulOriginalBASEPRI;
 307:SYS/task_manager/task_manager.c **** }
 308:SYS/task_manager/task_manager.c **** 
 309:SYS/task_manager/task_manager.c **** static void Task_SetBASEPRI(uint32_t ulBASEPRI)
 310:SYS/task_manager/task_manager.c **** {
  52              		.loc 1 310 1 view -0
  53              		.cfi_startproc
  54              		@ args = 0, pretend = 0, frame = 0
  55              		@ frame_needed = 0, uses_anonymous_args = 0
  56              		@ link register save eliminated.
 311:SYS/task_manager/task_manager.c ****     __ASM("	msr basepri, %0	" ::"r"(ulBASEPRI)
  57              		.loc 1 311 5 view .LVU5
  58              		.syntax unified
  59              	@ 311 "SYS/task_manager/task_manager.c" 1
  60 0000 80F31188 			msr basepri, r0	
  61              	@ 0 "" 2
 312:SYS/task_manager/task_manager.c ****           : "memory");
 313:SYS/task_manager/task_manager.c **** }
  62              		.loc 1 313 1 is_stmt 0 view .LVU6
  63              		.thumb
  64              		.syntax unified
  65 0004 7047     		bx	lr
  66              		.cfi_endproc
  67              	.LFE137:
  69              		.section	.text.Task_SetReady,"ax",%progbits
  70              		.align	1
  71              		.syntax unified
  72              		.thumb
  73              		.thumb_func
  74              		.fpu fpv4-sp-d16
  76              	Task_SetReady:
  77              	.LVL1:
  78              	.LFB145:
 314:SYS/task_manager/task_manager.c **** 
 315:SYS/task_manager/task_manager.c **** static void Task_ExitCritical(void)
 316:SYS/task_manager/task_manager.c **** {
 317:SYS/task_manager/task_manager.c ****     /* Barrier instructions are not used as this function is only used to
 318:SYS/task_manager/task_manager.c **** 	lower the BASEPRI value. */
 319:SYS/task_manager/task_manager.c ****     __ASM("	msr basepri, %0	" ::"r"(0)
 320:SYS/task_manager/task_manager.c ****           : "memory");
 321:SYS/task_manager/task_manager.c **** }
 322:SYS/task_manager/task_manager.c **** 
 323:SYS/task_manager/task_manager.c **** static void Task_Recover(void)
 324:SYS/task_manager/task_manager.c **** {
 325:SYS/task_manager/task_manager.c ****     __ASM("LDR	  R3, CurrentTCBConst_Tmp2");
ARM GAS  /var/folders/lx/hc4sn_b53233_zkc9xbbl97r0000gp/T//ccr3Mjaw.s 			page 8


 326:SYS/task_manager/task_manager.c ****     __ASM("LDR    R1, [R3]");
 327:SYS/task_manager/task_manager.c ****     __ASM("LDR    R0, [R1]");
 328:SYS/task_manager/task_manager.c **** 
 329:SYS/task_manager/task_manager.c ****     __ASM("LDMIA  R0!, {R4-R11, R14}");
 330:SYS/task_manager/task_manager.c **** 
 331:SYS/task_manager/task_manager.c ****     __ASM("MSR    PSP, R0");
 332:SYS/task_manager/task_manager.c ****     __ASM("ISB");
 333:SYS/task_manager/task_manager.c ****     __ASM("BX     R14");
 334:SYS/task_manager/task_manager.c ****     __ASM(".ALIGN 4");
 335:SYS/task_manager/task_manager.c ****     __ASM("CurrentTCBConst_Tmp2: .word CurTsk_TCB");
 336:SYS/task_manager/task_manager.c **** }
 337:SYS/task_manager/task_manager.c **** 
 338:SYS/task_manager/task_manager.c **** void Task_SaveCurProc(void)
 339:SYS/task_manager/task_manager.c **** {
 340:SYS/task_manager/task_manager.c ****     __ASM("MRS    R0, PSP");
 341:SYS/task_manager/task_manager.c ****     __ASM("LDR	  R3, CurrentTCBConst_Tmp3");
 342:SYS/task_manager/task_manager.c ****     __ASM("LDR    R2, [R3]");
 343:SYS/task_manager/task_manager.c **** 
 344:SYS/task_manager/task_manager.c ****     __ASM("ISB");
 345:SYS/task_manager/task_manager.c **** 
 346:SYS/task_manager/task_manager.c ****     __ASM("STMDB    R0!, {R4-R11, R14}");
 347:SYS/task_manager/task_manager.c ****     __ASM("STR      R0, [R2]");
 348:SYS/task_manager/task_manager.c **** 
 349:SYS/task_manager/task_manager.c ****     /******************************  FPU SECTION  *********************************/
 350:SYS/task_manager/task_manager.c ****     __ASM("TST      R14, #0x10");
 351:SYS/task_manager/task_manager.c ****     __ASM("IT       EQ");
 352:SYS/task_manager/task_manager.c ****     __ASM("VSTMDBEQ R0!, {s16-s31}");
 353:SYS/task_manager/task_manager.c ****     /******************************  FPU SECTION  *********************************/
 354:SYS/task_manager/task_manager.c **** 
 355:SYS/task_manager/task_manager.c ****     __ASM("ISB");
 356:SYS/task_manager/task_manager.c ****     __ASM("BX       R14");
 357:SYS/task_manager/task_manager.c **** 
 358:SYS/task_manager/task_manager.c ****     __ASM("CurrentTCBConst_Tmp3: .word CurTsk_TCB");
 359:SYS/task_manager/task_manager.c **** }
 360:SYS/task_manager/task_manager.c **** 
 361:SYS/task_manager/task_manager.c **** void Task_Load(void)
 362:SYS/task_manager/task_manager.c **** {
 363:SYS/task_manager/task_manager.c ****     __ASM("LDR	  R3, =CurTsk_TCB");
 364:SYS/task_manager/task_manager.c ****     __ASM("LDR    R1, [R3]");
 365:SYS/task_manager/task_manager.c ****     __ASM("LDR    R0, [R1]");
 366:SYS/task_manager/task_manager.c **** 
 367:SYS/task_manager/task_manager.c ****     __ASM("LDMIA  R0!, {R4-R11, R14}");
 368:SYS/task_manager/task_manager.c **** 
 369:SYS/task_manager/task_manager.c ****     /******************************  FPU SECTION  *********************************/
 370:SYS/task_manager/task_manager.c ****     __ASM("TST      R14, #0x10");
 371:SYS/task_manager/task_manager.c ****     __ASM("IT       EQ");
 372:SYS/task_manager/task_manager.c ****     __ASM("VLDMIAEQ R0!, {s16-s31}");
 373:SYS/task_manager/task_manager.c ****     /******************************  FPU SECTION  *********************************/
 374:SYS/task_manager/task_manager.c **** 
 375:SYS/task_manager/task_manager.c ****     __ASM("MSR    PSP, R0");
 376:SYS/task_manager/task_manager.c ****     __ASM("ISB");
 377:SYS/task_manager/task_manager.c ****     __ASM("MOV    R0, #240");
 378:SYS/task_manager/task_manager.c ****     __ASM("MSR	  BASEPRI, R0");
 379:SYS/task_manager/task_manager.c ****     __ASM("BX     R14");
 380:SYS/task_manager/task_manager.c ****     __ASM(".ALIGN 4");
 381:SYS/task_manager/task_manager.c **** }
 382:SYS/task_manager/task_manager.c **** 
ARM GAS  /var/folders/lx/hc4sn_b53233_zkc9xbbl97r0000gp/T//ccr3Mjaw.s 			page 9


 383:SYS/task_manager/task_manager.c **** void Load_FirstTask(void)
 384:SYS/task_manager/task_manager.c **** {
 385:SYS/task_manager/task_manager.c ****     Task_Load();
 386:SYS/task_manager/task_manager.c **** }
 387:SYS/task_manager/task_manager.c **** 
 388:SYS/task_manager/task_manager.c **** void Task_SwitchContext(void)
 389:SYS/task_manager/task_manager.c **** {
 390:SYS/task_manager/task_manager.c ****     __ASM("MRS      R0, PSP");
 391:SYS/task_manager/task_manager.c ****     __ASM("ISB");
 392:SYS/task_manager/task_manager.c **** 
 393:SYS/task_manager/task_manager.c ****     __ASM("LDR      R3, CurrentTCBConst_Tmp");
 394:SYS/task_manager/task_manager.c ****     __ASM("LDR      R2, [R3]");
 395:SYS/task_manager/task_manager.c **** 
 396:SYS/task_manager/task_manager.c ****     /******************************  FPU SECTION  *********************************/
 397:SYS/task_manager/task_manager.c ****     __ASM("TST      R14, #0x10");
 398:SYS/task_manager/task_manager.c ****     __ASM("IT       EQ");
 399:SYS/task_manager/task_manager.c ****     __ASM("VSTMDBEQ R0!, {s16-s31}");
 400:SYS/task_manager/task_manager.c ****     /******************************  FPU SECTION  *********************************/
 401:SYS/task_manager/task_manager.c **** 
 402:SYS/task_manager/task_manager.c ****     __ASM("STMDB    R0!, {R4-R11, R14}");
 403:SYS/task_manager/task_manager.c ****     __ASM("STR      R0, [R2]");
 404:SYS/task_manager/task_manager.c **** 
 405:SYS/task_manager/task_manager.c ****     __ASM("STMDB    SP!, {R0, R3}");
 406:SYS/task_manager/task_manager.c ****     __ASM("MOV      R0, %0" ::"i"(0x50));
 407:SYS/task_manager/task_manager.c ****     __ASM("MSR      BASEPRI, R0");
 408:SYS/task_manager/task_manager.c **** 
 409:SYS/task_manager/task_manager.c ****     __ASM("DSB");
 410:SYS/task_manager/task_manager.c ****     __ASM("ISB");
 411:SYS/task_manager/task_manager.c **** 
 412:SYS/task_manager/task_manager.c ****     __ASM("BL       Task_SwitchStack");
 413:SYS/task_manager/task_manager.c **** 
 414:SYS/task_manager/task_manager.c ****     __ASM("MOV      R0, #0");
 415:SYS/task_manager/task_manager.c ****     __ASM("MSR      BASEPRI, R0");
 416:SYS/task_manager/task_manager.c ****     __ASM("LDMIA    SP!, {R0, R3}");
 417:SYS/task_manager/task_manager.c **** 
 418:SYS/task_manager/task_manager.c ****     __ASM("LDR      R1, [R3]");
 419:SYS/task_manager/task_manager.c ****     __ASM("LDR      R0, [R1]");
 420:SYS/task_manager/task_manager.c **** 
 421:SYS/task_manager/task_manager.c ****     __ASM("LDMIA    R0!, {R4-R11, R14}");
 422:SYS/task_manager/task_manager.c **** 
 423:SYS/task_manager/task_manager.c ****     /******************************  FPU SECTION  *********************************/
 424:SYS/task_manager/task_manager.c ****     __ASM("TST      R14, #0x10");
 425:SYS/task_manager/task_manager.c ****     __ASM("IT       EQ");
 426:SYS/task_manager/task_manager.c ****     __ASM("VLDMIAEQ R0!, {s16-s31}");
 427:SYS/task_manager/task_manager.c ****     /******************************  FPU SECTION  *********************************/
 428:SYS/task_manager/task_manager.c **** 
 429:SYS/task_manager/task_manager.c ****     __ASM("MSR      PSP,R0");
 430:SYS/task_manager/task_manager.c ****     __ASM("ISB");
 431:SYS/task_manager/task_manager.c ****     __ASM("MOV      R0, #240");
 432:SYS/task_manager/task_manager.c ****     __ASM("MSR	    BASEPRI, R0");
 433:SYS/task_manager/task_manager.c ****     __ASM("BX       R14");
 434:SYS/task_manager/task_manager.c **** 
 435:SYS/task_manager/task_manager.c ****     __ASM("CurrentTCBConst_Tmp: .word CurTsk_TCB");
 436:SYS/task_manager/task_manager.c ****     __ASM(".ALIGN 4");
 437:SYS/task_manager/task_manager.c **** }
 438:SYS/task_manager/task_manager.c **** 
 439:SYS/task_manager/task_manager.c **** static void Task_SetStkPtr_Val(Task *tsk)
ARM GAS  /var/folders/lx/hc4sn_b53233_zkc9xbbl97r0000gp/T//ccr3Mjaw.s 			page 10


 440:SYS/task_manager/task_manager.c **** {
 441:SYS/task_manager/task_manager.c ****     uint32_t *Tsk_Ptr_tmp = NULL;
 442:SYS/task_manager/task_manager.c **** 
 443:SYS/task_manager/task_manager.c ****     memset(tsk->TCB.Stack, NULL, tsk->Stack_Depth);
 444:SYS/task_manager/task_manager.c **** 
 445:SYS/task_manager/task_manager.c ****     Tsk_Ptr_tmp = &tsk->TCB.Stack + (tsk->Stack_Depth - (uint32_t)1);
 446:SYS/task_manager/task_manager.c ****     Tsk_Ptr_tmp = (uint32_t *)((uint32_t)(Tsk_Ptr_tmp)&0XFFFFFFF8ul);
 447:SYS/task_manager/task_manager.c **** 
 448:SYS/task_manager/task_manager.c ****     Tsk_Ptr_tmp--;
 449:SYS/task_manager/task_manager.c ****     *Tsk_Ptr_tmp = 0x01000000uL; /* xPSR */
 450:SYS/task_manager/task_manager.c **** 
 451:SYS/task_manager/task_manager.c ****     Tsk_Ptr_tmp--;
 452:SYS/task_manager/task_manager.c ****     *Tsk_Ptr_tmp = ((uint32_t)Task_Caller) & 0xfffffffeUL; /* PC */
 453:SYS/task_manager/task_manager.c **** 
 454:SYS/task_manager/task_manager.c ****     Tsk_Ptr_tmp--;
 455:SYS/task_manager/task_manager.c ****     *Tsk_Ptr_tmp = (uint32_t)Task_Exit; /* LR */
 456:SYS/task_manager/task_manager.c **** 
 457:SYS/task_manager/task_manager.c ****     /* Save code space by skipping register initialisation. */
 458:SYS/task_manager/task_manager.c ****     Tsk_Ptr_tmp -= 5;              /* R12, R3, R2 and R1. */
 459:SYS/task_manager/task_manager.c ****     *Tsk_Ptr_tmp = (uint32_t)NULL; /* R0 */
 460:SYS/task_manager/task_manager.c **** 
 461:SYS/task_manager/task_manager.c ****     /* A save method is being used that requires each task to maintain its
 462:SYS/task_manager/task_manager.c **** 	    own exec return value. */
 463:SYS/task_manager/task_manager.c ****     Tsk_Ptr_tmp--;
 464:SYS/task_manager/task_manager.c ****     *Tsk_Ptr_tmp = 0xfffffffd;
 465:SYS/task_manager/task_manager.c **** 
 466:SYS/task_manager/task_manager.c ****     Tsk_Ptr_tmp -= 8; /* R11, R10, R9, R8, R7, R6, R5 and R4. */
 467:SYS/task_manager/task_manager.c **** 
 468:SYS/task_manager/task_manager.c ****     //set task stack top pointer
 469:SYS/task_manager/task_manager.c ****     tsk->TCB.Top_Stk_Ptr = Tsk_Ptr_tmp; //&Tsk_Ptr_tmp
 470:SYS/task_manager/task_manager.c **** }
 471:SYS/task_manager/task_manager.c **** 
 472:SYS/task_manager/task_manager.c **** #endif
 473:SYS/task_manager/task_manager.c **** 
 474:SYS/task_manager/task_manager.c **** static void Task_SetReady(Task *tsk)
 475:SYS/task_manager/task_manager.c **** {
  79              		.loc 1 475 1 is_stmt 1 view -0
  80              		.cfi_startproc
  81              		@ args = 0, pretend = 0, frame = 0
  82              		@ frame_needed = 0, uses_anonymous_args = 0
  83              		.loc 1 475 1 is_stmt 0 view .LVU8
  84 0000 10B5     		push	{r4, lr}
  85              	.LCFI0:
  86              		.cfi_def_cfa_offset 8
  87              		.cfi_offset 4, -8
  88              		.cfi_offset 14, -4
 476:SYS/task_manager/task_manager.c ****     uint8_t grp_id = GET_TASKGROUP_PRIORITY(tsk->priority.Priority);
  89              		.loc 1 476 5 is_stmt 1 view .LVU9
  90              		.loc 1 476 22 is_stmt 0 view .LVU10
  91 0002 90F800C0 		ldrb	ip, [r0]	@ zero_extendqisi2
  92              		.loc 1 476 13 view .LVU11
  93 0006 4FEADC02 		lsr	r2, ip, #3
  94              	.LVL2:
 477:SYS/task_manager/task_manager.c ****     uint8_t tsk_id = GET_TASKINGROUP_PRIORITY(tsk->priority.Priority);
  95              		.loc 1 477 5 is_stmt 1 view .LVU12
  96              		.loc 1 477 13 is_stmt 0 view .LVU13
  97 000a 0CF0070E 		and	lr, ip, #7
ARM GAS  /var/folders/lx/hc4sn_b53233_zkc9xbbl97r0000gp/T//ccr3Mjaw.s 			page 11


  98              	.LVL3:
 478:SYS/task_manager/task_manager.c **** 
 479:SYS/task_manager/task_manager.c ****     //set current group flag to ready
 480:SYS/task_manager/task_manager.c ****     TskHdl_RdyMap.Grp.Flg |= 1 << grp_id;
  99              		.loc 1 480 5 is_stmt 1 view .LVU14
 100              		.loc 1 480 27 is_stmt 0 view .LVU15
 101 000e 0A4B     		ldr	r3, .L6
 102 0010 1978     		ldrb	r1, [r3]	@ zero_extendqisi2
 103              		.loc 1 480 32 view .LVU16
 104 0012 4FF0010C 		mov	ip, #1
 105 0016 0CFA02F4 		lsl	r4, ip, r2
 106              		.loc 1 480 27 view .LVU17
 107 001a 2143     		orrs	r1, r1, r4
 108 001c C9B2     		uxtb	r1, r1
 109 001e 1970     		strb	r1, [r3]
 481:SYS/task_manager/task_manager.c ****     //set current task under this group flag to ready
 482:SYS/task_manager/task_manager.c ****     TskHdl_RdyMap.TskInGrp[grp_id].Flg |= 1 << tsk_id;
 110              		.loc 1 482 5 is_stmt 1 view .LVU18
 111              		.loc 1 482 40 is_stmt 0 view .LVU19
 112 0020 1344     		add	r3, r3, r2
 113 0022 5A78     		ldrb	r2, [r3, #1]	@ zero_extendqisi2
 114              	.LVL4:
 115              		.loc 1 482 45 view .LVU20
 116 0024 0CFA0EFC 		lsl	ip, ip, lr
 117              		.loc 1 482 40 view .LVU21
 118 0028 42EA0C02 		orr	r2, r2, ip
 119 002c D2B2     		uxtb	r2, r2
 120 002e 5A70     		strb	r2, [r3, #1]
 483:SYS/task_manager/task_manager.c **** 
 484:SYS/task_manager/task_manager.c ****     tsk->Exec_status.State = Task_Ready;
 121              		.loc 1 484 5 is_stmt 1 view .LVU22
 122              		.loc 1 484 28 is_stmt 0 view .LVU23
 123 0030 0023     		movs	r3, #0
 124 0032 80F84C30 		strb	r3, [r0, #76]
 485:SYS/task_manager/task_manager.c **** }
 125              		.loc 1 485 1 view .LVU24
 126 0036 10BD     		pop	{r4, pc}
 127              	.L7:
 128              		.align	2
 129              	.L6:
 130 0038 00000000 		.word	.LANCHOR0
 131              		.cfi_endproc
 132              	.LFE145:
 134              		.section	.text.Task_ClearBlock,"ax",%progbits
 135              		.align	1
 136              		.syntax unified
 137              		.thumb
 138              		.thumb_func
 139              		.fpu fpv4-sp-d16
 141              	Task_ClearBlock:
 142              	.LVL5:
 143              	.LFB146:
 486:SYS/task_manager/task_manager.c **** 
 487:SYS/task_manager/task_manager.c **** static void Task_ClearBlock(Task *tsk)
 488:SYS/task_manager/task_manager.c **** {
 144              		.loc 1 488 1 is_stmt 1 view -0
 145              		.cfi_startproc
ARM GAS  /var/folders/lx/hc4sn_b53233_zkc9xbbl97r0000gp/T//ccr3Mjaw.s 			page 12


 146              		@ args = 0, pretend = 0, frame = 0
 147              		@ frame_needed = 0, uses_anonymous_args = 0
 489:SYS/task_manager/task_manager.c ****     uint8_t grp_id = GET_TASKGROUP_PRIORITY(tsk->priority.Priority);
 148              		.loc 1 489 5 view .LVU26
 149              		.loc 1 489 22 is_stmt 0 view .LVU27
 150 0000 0078     		ldrb	r0, [r0]	@ zero_extendqisi2
 151              	.LVL6:
 490:SYS/task_manager/task_manager.c ****     uint8_t tsk_id = GET_TASKINGROUP_PRIORITY(tsk->priority.Priority);
 152              		.loc 1 490 5 is_stmt 1 view .LVU28
 153              		.loc 1 490 13 is_stmt 0 view .LVU29
 154 0002 00F0070C 		and	ip, r0, #7
 155              	.LVL7:
 491:SYS/task_manager/task_manager.c **** 
 492:SYS/task_manager/task_manager.c ****     TskHdl_BlkMap.TskInGrp[grp_id].Flg &= ~(1 << tsk_id);
 156              		.loc 1 492 5 is_stmt 1 view .LVU30
 157              		.loc 1 492 40 is_stmt 0 view .LVU31
 158 0006 0D4B     		ldr	r3, .L14
 159 0008 03EBD003 		add	r3, r3, r0, lsr #3
 160 000c 5A78     		ldrb	r2, [r3, #1]	@ zero_extendqisi2
 161              		.loc 1 492 47 view .LVU32
 162 000e 0121     		movs	r1, #1
 163 0010 01FA0CF1 		lsl	r1, r1, ip
 164              		.loc 1 492 40 view .LVU33
 165 0014 22EA0102 		bic	r2, r2, r1
 166 0018 5A70     		strb	r2, [r3, #1]
 493:SYS/task_manager/task_manager.c ****     if (TskHdl_BlkMap.TskInGrp[grp_id].Flg == 0)
 167              		.loc 1 493 5 is_stmt 1 view .LVU34
 168              		.loc 1 493 39 is_stmt 0 view .LVU35
 169 001a 5978     		ldrb	r1, [r3, #1]	@ zero_extendqisi2
 170              		.loc 1 493 8 view .LVU36
 171 001c 61B9     		cbnz	r1, .L11
 488:SYS/task_manager/task_manager.c ****     uint8_t grp_id = GET_TASKGROUP_PRIORITY(tsk->priority.Priority);
 172              		.loc 1 488 1 view .LVU37
 173 001e 00B5     		push	{lr}
 174              	.LCFI1:
 175              		.cfi_def_cfa_offset 4
 176              		.cfi_offset 14, -4
 177 0020 4FEAD00E 		lsr	lr, r0, #3
 494:SYS/task_manager/task_manager.c ****     {
 495:SYS/task_manager/task_manager.c ****         TskHdl_BlkMap.Grp.Flg &= ~(1 << grp_id);
 178              		.loc 1 495 9 is_stmt 1 view .LVU38
 179              		.loc 1 495 31 is_stmt 0 view .LVU39
 180 0024 0549     		ldr	r1, .L14
 181 0026 0B78     		ldrb	r3, [r1]	@ zero_extendqisi2
 182              		.loc 1 495 38 view .LVU40
 183 0028 0122     		movs	r2, #1
 184 002a 02FA0EF2 		lsl	r2, r2, lr
 185              		.loc 1 495 31 view .LVU41
 186 002e 23EA0203 		bic	r3, r3, r2
 187 0032 0B70     		strb	r3, [r1]
 496:SYS/task_manager/task_manager.c ****     }
 497:SYS/task_manager/task_manager.c **** }
 188              		.loc 1 497 1 view .LVU42
 189 0034 5DF804FB 		ldr	pc, [sp], #4
 190              	.L11:
 191              	.LCFI2:
 192              		.cfi_def_cfa_offset 0
ARM GAS  /var/folders/lx/hc4sn_b53233_zkc9xbbl97r0000gp/T//ccr3Mjaw.s 			page 13


 193              		.cfi_restore 14
 194 0038 7047     		bx	lr
 195              	.L15:
 196 003a 00BF     		.align	2
 197              	.L14:
 198 003c 00000000 		.word	.LANCHOR1
 199              		.cfi_endproc
 200              	.LFE146:
 202              		.section	.text.Task_ClearPending,"ax",%progbits
 203              		.align	1
 204              		.syntax unified
 205              		.thumb
 206              		.thumb_func
 207              		.fpu fpv4-sp-d16
 209              	Task_ClearPending:
 210              	.LVL8:
 211              	.LFB147:
 498:SYS/task_manager/task_manager.c **** 
 499:SYS/task_manager/task_manager.c **** static void Task_ClearPending(Task *tsk)
 500:SYS/task_manager/task_manager.c **** {
 212              		.loc 1 500 1 is_stmt 1 view -0
 213              		.cfi_startproc
 214              		@ args = 0, pretend = 0, frame = 0
 215              		@ frame_needed = 0, uses_anonymous_args = 0
 501:SYS/task_manager/task_manager.c ****     uint8_t grp_id = GET_TASKGROUP_PRIORITY(tsk->priority.Priority);
 216              		.loc 1 501 5 view .LVU44
 217              		.loc 1 501 22 is_stmt 0 view .LVU45
 218 0000 0078     		ldrb	r0, [r0]	@ zero_extendqisi2
 219              	.LVL9:
 502:SYS/task_manager/task_manager.c ****     uint8_t tsk_id = GET_TASKINGROUP_PRIORITY(tsk->priority.Priority);
 220              		.loc 1 502 5 is_stmt 1 view .LVU46
 221              		.loc 1 502 13 is_stmt 0 view .LVU47
 222 0002 00F0070C 		and	ip, r0, #7
 223              	.LVL10:
 503:SYS/task_manager/task_manager.c **** 
 504:SYS/task_manager/task_manager.c ****     TskHdl_PndMap.TskInGrp[grp_id].Flg &= ~(1 << tsk_id);
 224              		.loc 1 504 5 is_stmt 1 view .LVU48
 225              		.loc 1 504 40 is_stmt 0 view .LVU49
 226 0006 0D4B     		ldr	r3, .L22
 227 0008 03EBD003 		add	r3, r3, r0, lsr #3
 228 000c 5A78     		ldrb	r2, [r3, #1]	@ zero_extendqisi2
 229              		.loc 1 504 47 view .LVU50
 230 000e 0121     		movs	r1, #1
 231 0010 01FA0CF1 		lsl	r1, r1, ip
 232              		.loc 1 504 40 view .LVU51
 233 0014 22EA0102 		bic	r2, r2, r1
 234 0018 5A70     		strb	r2, [r3, #1]
 505:SYS/task_manager/task_manager.c ****     if (TskHdl_PndMap.TskInGrp[grp_id].Flg == 0)
 235              		.loc 1 505 5 is_stmt 1 view .LVU52
 236              		.loc 1 505 39 is_stmt 0 view .LVU53
 237 001a 5978     		ldrb	r1, [r3, #1]	@ zero_extendqisi2
 238              		.loc 1 505 8 view .LVU54
 239 001c 61B9     		cbnz	r1, .L19
 500:SYS/task_manager/task_manager.c ****     uint8_t grp_id = GET_TASKGROUP_PRIORITY(tsk->priority.Priority);
 240              		.loc 1 500 1 view .LVU55
 241 001e 00B5     		push	{lr}
 242              	.LCFI3:
ARM GAS  /var/folders/lx/hc4sn_b53233_zkc9xbbl97r0000gp/T//ccr3Mjaw.s 			page 14


 243              		.cfi_def_cfa_offset 4
 244              		.cfi_offset 14, -4
 245 0020 4FEAD00E 		lsr	lr, r0, #3
 506:SYS/task_manager/task_manager.c ****     {
 507:SYS/task_manager/task_manager.c ****         TskHdl_PndMap.Grp.Flg &= ~(1 << grp_id);
 246              		.loc 1 507 9 is_stmt 1 view .LVU56
 247              		.loc 1 507 31 is_stmt 0 view .LVU57
 248 0024 0549     		ldr	r1, .L22
 249 0026 0B78     		ldrb	r3, [r1]	@ zero_extendqisi2
 250              		.loc 1 507 38 view .LVU58
 251 0028 0122     		movs	r2, #1
 252 002a 02FA0EF2 		lsl	r2, r2, lr
 253              		.loc 1 507 31 view .LVU59
 254 002e 23EA0203 		bic	r3, r3, r2
 255 0032 0B70     		strb	r3, [r1]
 508:SYS/task_manager/task_manager.c ****     }
 509:SYS/task_manager/task_manager.c **** }
 256              		.loc 1 509 1 view .LVU60
 257 0034 5DF804FB 		ldr	pc, [sp], #4
 258              	.L19:
 259              	.LCFI4:
 260              		.cfi_def_cfa_offset 0
 261              		.cfi_restore 14
 262 0038 7047     		bx	lr
 263              	.L23:
 264 003a 00BF     		.align	2
 265              	.L22:
 266 003c 00000000 		.word	.LANCHOR2
 267              		.cfi_endproc
 268              	.LFE147:
 270              		.section	.text.Task_ClearReady,"ax",%progbits
 271              		.align	1
 272              		.syntax unified
 273              		.thumb
 274              		.thumb_func
 275              		.fpu fpv4-sp-d16
 277              	Task_ClearReady:
 278              	.LVL11:
 279              	.LFB148:
 510:SYS/task_manager/task_manager.c **** 
 511:SYS/task_manager/task_manager.c **** static void Task_ClearReady(Task *tsk)
 512:SYS/task_manager/task_manager.c **** {
 280              		.loc 1 512 1 is_stmt 1 view -0
 281              		.cfi_startproc
 282              		@ args = 0, pretend = 0, frame = 0
 283              		@ frame_needed = 0, uses_anonymous_args = 0
 513:SYS/task_manager/task_manager.c ****     uint8_t grp_id = GET_TASKGROUP_PRIORITY(tsk->priority.Priority);
 284              		.loc 1 513 5 view .LVU62
 285              		.loc 1 513 22 is_stmt 0 view .LVU63
 286 0000 0078     		ldrb	r0, [r0]	@ zero_extendqisi2
 287              	.LVL12:
 514:SYS/task_manager/task_manager.c ****     uint8_t tsk_id = GET_TASKINGROUP_PRIORITY(tsk->priority.Priority);
 288              		.loc 1 514 5 is_stmt 1 view .LVU64
 289              		.loc 1 514 13 is_stmt 0 view .LVU65
 290 0002 00F0070C 		and	ip, r0, #7
 291              	.LVL13:
 515:SYS/task_manager/task_manager.c **** 
ARM GAS  /var/folders/lx/hc4sn_b53233_zkc9xbbl97r0000gp/T//ccr3Mjaw.s 			page 15


 516:SYS/task_manager/task_manager.c ****     TskHdl_RdyMap.TskInGrp[grp_id].Flg &= ~(1 << tsk_id);
 292              		.loc 1 516 5 is_stmt 1 view .LVU66
 293              		.loc 1 516 40 is_stmt 0 view .LVU67
 294 0006 0D4B     		ldr	r3, .L30
 295 0008 03EBD003 		add	r3, r3, r0, lsr #3
 296 000c 5A78     		ldrb	r2, [r3, #1]	@ zero_extendqisi2
 297              		.loc 1 516 47 view .LVU68
 298 000e 0121     		movs	r1, #1
 299 0010 01FA0CF1 		lsl	r1, r1, ip
 300              		.loc 1 516 40 view .LVU69
 301 0014 22EA0102 		bic	r2, r2, r1
 302 0018 5A70     		strb	r2, [r3, #1]
 517:SYS/task_manager/task_manager.c ****     if (TskHdl_RdyMap.TskInGrp[grp_id].Flg == 0)
 303              		.loc 1 517 5 is_stmt 1 view .LVU70
 304              		.loc 1 517 39 is_stmt 0 view .LVU71
 305 001a 5978     		ldrb	r1, [r3, #1]	@ zero_extendqisi2
 306              		.loc 1 517 8 view .LVU72
 307 001c 61B9     		cbnz	r1, .L27
 512:SYS/task_manager/task_manager.c ****     uint8_t grp_id = GET_TASKGROUP_PRIORITY(tsk->priority.Priority);
 308              		.loc 1 512 1 view .LVU73
 309 001e 00B5     		push	{lr}
 310              	.LCFI5:
 311              		.cfi_def_cfa_offset 4
 312              		.cfi_offset 14, -4
 313 0020 4FEAD00E 		lsr	lr, r0, #3
 518:SYS/task_manager/task_manager.c ****     {
 519:SYS/task_manager/task_manager.c ****         TskHdl_RdyMap.Grp.Flg &= ~(1 << grp_id);
 314              		.loc 1 519 9 is_stmt 1 view .LVU74
 315              		.loc 1 519 31 is_stmt 0 view .LVU75
 316 0024 0549     		ldr	r1, .L30
 317 0026 0B78     		ldrb	r3, [r1]	@ zero_extendqisi2
 318              		.loc 1 519 38 view .LVU76
 319 0028 0122     		movs	r2, #1
 320 002a 02FA0EF2 		lsl	r2, r2, lr
 321              		.loc 1 519 31 view .LVU77
 322 002e 23EA0203 		bic	r3, r3, r2
 323 0032 0B70     		strb	r3, [r1]
 520:SYS/task_manager/task_manager.c ****     }
 521:SYS/task_manager/task_manager.c **** }
 324              		.loc 1 521 1 view .LVU78
 325 0034 5DF804FB 		ldr	pc, [sp], #4
 326              	.L27:
 327              	.LCFI6:
 328              		.cfi_def_cfa_offset 0
 329              		.cfi_restore 14
 330 0038 7047     		bx	lr
 331              	.L31:
 332 003a 00BF     		.align	2
 333              	.L30:
 334 003c 00000000 		.word	.LANCHOR0
 335              		.cfi_endproc
 336              	.LFE148:
 338              		.section	.text.Task_SetPendSVPro,"ax",%progbits
 339              		.align	1
 340              		.syntax unified
 341              		.thumb
 342              		.thumb_func
ARM GAS  /var/folders/lx/hc4sn_b53233_zkc9xbbl97r0000gp/T//ccr3Mjaw.s 			page 16


 343              		.fpu fpv4-sp-d16
 345              	Task_SetPendSVPro:
 346              	.LFB151:
 522:SYS/task_manager/task_manager.c **** 
 523:SYS/task_manager/task_manager.c **** Task *Task_Get_HighestRank_RdyTask(void)
 524:SYS/task_manager/task_manager.c **** {
 525:SYS/task_manager/task_manager.c ****     uint8_t grp_id = 0;
 526:SYS/task_manager/task_manager.c ****     uint8_t tsk_id = 0;
 527:SYS/task_manager/task_manager.c **** 
 528:SYS/task_manager/task_manager.c ****     if (TskHdl_RdyMap.Grp.Flg)
 529:SYS/task_manager/task_manager.c ****     {
 530:SYS/task_manager/task_manager.c ****         //find group
 531:SYS/task_manager/task_manager.c ****         grp_id = Tsk_Handle[TskHdl_RdyMap.Grp.Flg];
 532:SYS/task_manager/task_manager.c ****         //find task in group
 533:SYS/task_manager/task_manager.c ****         tsk_id = Tsk_Handle[TskHdl_RdyMap.TskInGrp[grp_id].Flg];
 534:SYS/task_manager/task_manager.c ****     }
 535:SYS/task_manager/task_manager.c ****     else
 536:SYS/task_manager/task_manager.c ****         return NULL;
 537:SYS/task_manager/task_manager.c **** 
 538:SYS/task_manager/task_manager.c ****     if (Task_Ptr[grp_id][tsk_id] != NULL)
 539:SYS/task_manager/task_manager.c ****     {
 540:SYS/task_manager/task_manager.c ****         return Task_Ptr[grp_id][tsk_id];
 541:SYS/task_manager/task_manager.c ****     }
 542:SYS/task_manager/task_manager.c ****     else
 543:SYS/task_manager/task_manager.c ****     {
 544:SYS/task_manager/task_manager.c ****         TskHdl_RdyMap.Grp.Flg &= ~(1 << grp_id);
 545:SYS/task_manager/task_manager.c ****         TskHdl_RdyMap.TskInGrp[grp_id].Flg &= ~(1 << tsk_id);
 546:SYS/task_manager/task_manager.c ****         return NULL;
 547:SYS/task_manager/task_manager.c ****     }
 548:SYS/task_manager/task_manager.c **** }
 549:SYS/task_manager/task_manager.c **** 
 550:SYS/task_manager/task_manager.c **** void Task_SetNextTask_Ptr(const Task *nxt)
 551:SYS/task_manager/task_manager.c **** {
 552:SYS/task_manager/task_manager.c ****     if (nxt != NULL)
 553:SYS/task_manager/task_manager.c ****     {
 554:SYS/task_manager/task_manager.c ****         NxtRunTsk_Ptr = nxt;
 555:SYS/task_manager/task_manager.c ****         NxtTsk_TCB.Top_Stk_Ptr = &NxtRunTsk_Ptr->TCB.Top_Stk_Ptr;
 556:SYS/task_manager/task_manager.c ****         NxtTsk_TCB.Stack = NxtRunTsk_Ptr->TCB.Stack;
 557:SYS/task_manager/task_manager.c ****     }
 558:SYS/task_manager/task_manager.c **** }
 559:SYS/task_manager/task_manager.c **** 
 560:SYS/task_manager/task_manager.c **** //first need to know is linux support AT&T formate ASM code
 561:SYS/task_manager/task_manager.c **** static __attribute__((naked)) void Task_SetPendSVPro(void)
 562:SYS/task_manager/task_manager.c **** {
 347              		.loc 1 562 1 is_stmt 1 view -0
 348              		.cfi_startproc
 349              		@ Naked Function: prologue and epilogue provided by programmer.
 350              		@ args = 0, pretend = 0, frame = 0
 351              		@ frame_needed = 0, uses_anonymous_args = 0
 563:SYS/task_manager/task_manager.c ****     //set pendsv interrupt
 564:SYS/task_manager/task_manager.c ****     __ASM(".equ NVIC_SYSPRI14, 0xE000ED22");
 352              		.loc 1 564 5 view .LVU80
 353              		.syntax unified
 354              	@ 564 "SYS/task_manager/task_manager.c" 1
 355              		.equ NVIC_SYSPRI14, 0xE000ED22
 356              	@ 0 "" 2
 565:SYS/task_manager/task_manager.c ****     __ASM(".equ NVIC_PENDSV_PRI, 0xFF");
ARM GAS  /var/folders/lx/hc4sn_b53233_zkc9xbbl97r0000gp/T//ccr3Mjaw.s 			page 17


 357              		.loc 1 565 5 view .LVU81
 358              	@ 565 "SYS/task_manager/task_manager.c" 1
 359              		.equ NVIC_PENDSV_PRI, 0xFF
 360              	@ 0 "" 2
 566:SYS/task_manager/task_manager.c **** 
 567:SYS/task_manager/task_manager.c ****     __ASM("LDR      R0, =NVIC_SYSPRI14");
 361              		.loc 1 567 5 view .LVU82
 362              	@ 567 "SYS/task_manager/task_manager.c" 1
 363 0000 0548     		LDR      R0, =NVIC_SYSPRI14
 364              	@ 0 "" 2
 568:SYS/task_manager/task_manager.c ****     __ASM("LDR      R1, =NVIC_PENDSV_PRI");
 365              		.loc 1 568 5 view .LVU83
 366              	@ 568 "SYS/task_manager/task_manager.c" 1
 367 0002 4FF0FF01 		LDR      R1, =NVIC_PENDSV_PRI
 368              	@ 0 "" 2
 569:SYS/task_manager/task_manager.c ****     __ASM("STRB     R1, [R0]");
 369              		.loc 1 569 5 view .LVU84
 370              	@ 569 "SYS/task_manager/task_manager.c" 1
 371 0006 0170     		STRB     R1, [R0]
 372              	@ 0 "" 2
 570:SYS/task_manager/task_manager.c **** 
 571:SYS/task_manager/task_manager.c **** #if (TASK_SCHEDULER_TYPE == PREEMPTIVE_SCHDULER)
 572:SYS/task_manager/task_manager.c ****     //set PSP to 0 to initial context switch call
 573:SYS/task_manager/task_manager.c ****     __ASM("MOVS     R0, #0");
 373              		.loc 1 573 5 view .LVU85
 374              	@ 573 "SYS/task_manager/task_manager.c" 1
 375 0008 0020     		MOVS     R0, #0
 376              	@ 0 "" 2
 574:SYS/task_manager/task_manager.c ****     __ASM("MSR      PSP, R0");
 377              		.loc 1 574 5 view .LVU86
 378              	@ 574 "SYS/task_manager/task_manager.c" 1
 379 000a 80F30988 		MSR      PSP, R0
 380              	@ 0 "" 2
 575:SYS/task_manager/task_manager.c **** 
 576:SYS/task_manager/task_manager.c ****     //initial MSP to Task_OS_ExpStkBase
 577:SYS/task_manager/task_manager.c ****     __ASM("LDR      R0, =Task_OS_ExpStkBase");
 381              		.loc 1 577 5 view .LVU87
 382              	@ 577 "SYS/task_manager/task_manager.c" 1
 383 000e 0348     		LDR      R0, =Task_OS_ExpStkBase
 384              	@ 0 "" 2
 578:SYS/task_manager/task_manager.c ****     __ASM("LDR      R1, [R0]");
 385              		.loc 1 578 5 view .LVU88
 386              	@ 578 "SYS/task_manager/task_manager.c" 1
 387 0010 0168     		LDR      R1, [R0]
 388              	@ 0 "" 2
 579:SYS/task_manager/task_manager.c ****     __ASM("MSR      MSP, R1");
 389              		.loc 1 579 5 view .LVU89
 390              	@ 579 "SYS/task_manager/task_manager.c" 1
 391 0012 81F30888 		MSR      MSP, R1
 392              	@ 0 "" 2
 580:SYS/task_manager/task_manager.c **** #endif
 581:SYS/task_manager/task_manager.c **** 
 582:SYS/task_manager/task_manager.c ****     __ASM("BX       LR");
 393              		.loc 1 582 5 view .LVU90
 394              	@ 582 "SYS/task_manager/task_manager.c" 1
 395 0016 7047     		BX       LR
 396              	@ 0 "" 2
ARM GAS  /var/folders/lx/hc4sn_b53233_zkc9xbbl97r0000gp/T//ccr3Mjaw.s 			page 18


 583:SYS/task_manager/task_manager.c **** }
 397              		.loc 1 583 1 is_stmt 0 view .LVU91
 398              		.thumb
 399              		.syntax unified
 400              		.cfi_endproc
 401              	.LFE151:
 403              		.section	.text.Task_PriorityCompare,"ax",%progbits
 404              		.align	1
 405              		.global	Task_PriorityCompare
 406              		.syntax unified
 407              		.thumb
 408              		.thumb_func
 409              		.fpu fpv4-sp-d16
 411              	Task_PriorityCompare:
 412              	.LVL14:
 413              	.LFB155:
 584:SYS/task_manager/task_manager.c **** 
 585:SYS/task_manager/task_manager.c **** __attribute__((naked)) void Task_TriggerPendSV(void)
 586:SYS/task_manager/task_manager.c **** {
 587:SYS/task_manager/task_manager.c ****     __ASM(".equ NVIC_INT_CTRL, 0xE000ED04");
 588:SYS/task_manager/task_manager.c ****     __ASM(".equ NVIC_PENDSVSET, 0x10000000");
 589:SYS/task_manager/task_manager.c **** 
 590:SYS/task_manager/task_manager.c ****     __ASM("LDR      R0, =NVIC_INT_CTRL");
 591:SYS/task_manager/task_manager.c ****     __ASM("LDR      R1, =NVIC_PENDSVSET");
 592:SYS/task_manager/task_manager.c ****     __ASM("STR      R1, [R0]");
 593:SYS/task_manager/task_manager.c ****     __ASM("BX       LR");
 594:SYS/task_manager/task_manager.c **** }
 595:SYS/task_manager/task_manager.c **** 
 596:SYS/task_manager/task_manager.c **** void Task_Force_TriggerPendSV(void)
 597:SYS/task_manager/task_manager.c **** {
 598:SYS/task_manager/task_manager.c ****     /* Barriers are normally not required but do ensure the code is completely \
 599:SYS/task_manager/task_manager.c ****         within the specified behaviour for the architecture. */
 600:SYS/task_manager/task_manager.c ****     __ASM volatile("dsb" ::
 601:SYS/task_manager/task_manager.c ****                        : "memory");
 602:SYS/task_manager/task_manager.c ****     __ASM volatile("isb");
 603:SYS/task_manager/task_manager.c ****     Task_TriggerPendSV();
 604:SYS/task_manager/task_manager.c **** }
 605:SYS/task_manager/task_manager.c **** 
 606:SYS/task_manager/task_manager.c **** uint8_t Task_Get_TaskNum(void)
 607:SYS/task_manager/task_manager.c **** {
 608:SYS/task_manager/task_manager.c ****     return TskCrt_RegList.num;
 609:SYS/task_manager/task_manager.c **** }
 610:SYS/task_manager/task_manager.c **** 
 611:SYS/task_manager/task_manager.c **** //return high priority task pointer
 612:SYS/task_manager/task_manager.c **** Task *Task_PriorityCompare(const Task *tsk_l, const Task *tsk_r)
 613:SYS/task_manager/task_manager.c **** {
 414              		.loc 1 613 1 is_stmt 1 view -0
 415              		.cfi_startproc
 416              		@ args = 0, pretend = 0, frame = 0
 417              		@ frame_needed = 0, uses_anonymous_args = 0
 614:SYS/task_manager/task_manager.c ****     if ((tsk_l == NULL) && (tsk_r == NULL))
 418              		.loc 1 614 5 view .LVU93
 419              		.loc 1 614 8 is_stmt 0 view .LVU94
 420 0000 0346     		mov	r3, r0
 421 0002 90B1     		cbz	r0, .L46
 422              	.L34:
 615:SYS/task_manager/task_manager.c ****     {
ARM GAS  /var/folders/lx/hc4sn_b53233_zkc9xbbl97r0000gp/T//ccr3Mjaw.s 			page 19


 616:SYS/task_manager/task_manager.c ****         return NULL;
 617:SYS/task_manager/task_manager.c ****     }
 618:SYS/task_manager/task_manager.c **** 
 619:SYS/task_manager/task_manager.c ****     if ((tsk_l == NULL) && (tsk_r != NULL))
 423              		.loc 1 619 5 is_stmt 1 view .LVU95
 424              		.loc 1 619 8 is_stmt 0 view .LVU96
 425 0004 A3B1     		cbz	r3, .L47
 426              	.L36:
 620:SYS/task_manager/task_manager.c ****     {
 621:SYS/task_manager/task_manager.c ****         return tsk_r;
 622:SYS/task_manager/task_manager.c ****     }
 623:SYS/task_manager/task_manager.c **** 
 624:SYS/task_manager/task_manager.c ****     if ((tsk_l != NULL) && (tsk_r == NULL))
 427              		.loc 1 624 5 is_stmt 1 view .LVU97
 428              		.loc 1 624 8 is_stmt 0 view .LVU98
 429 0006 03B1     		cbz	r3, .L37
 430              		.loc 1 624 25 discriminator 1 view .LVU99
 431 0008 B1B1     		cbz	r1, .L39
 432              	.L37:
 613:SYS/task_manager/task_manager.c ****     if ((tsk_l == NULL) && (tsk_r == NULL))
 433              		.loc 1 613 1 view .LVU100
 434 000a 00B5     		push	{lr}
 435              	.LCFI7:
 436              		.cfi_def_cfa_offset 4
 437              		.cfi_offset 14, -4
 625:SYS/task_manager/task_manager.c ****     {
 626:SYS/task_manager/task_manager.c ****         return tsk_l;
 627:SYS/task_manager/task_manager.c ****     }
 628:SYS/task_manager/task_manager.c **** 
 629:SYS/task_manager/task_manager.c ****     uint8_t L_Grp_level = GET_TASKGROUP_PRIORITY(tsk_l->priority.Suction.Group_Level);
 438              		.loc 1 629 5 is_stmt 1 view .LVU101
 439              		.loc 1 629 27 is_stmt 0 view .LVU102
 440 000c 1878     		ldrb	r0, [r3]	@ zero_extendqisi2
 441              	.LVL15:
 442              		.loc 1 629 13 view .LVU103
 443 000e 4FF0000E 		mov	lr, #0
 444              	.LVL16:
 630:SYS/task_manager/task_manager.c ****     uint8_t R_Grp_level = GET_TASKGROUP_PRIORITY(tsk_r->priority.Suction.Group_Level);
 445              		.loc 1 630 5 is_stmt 1 view .LVU104
 446              		.loc 1 630 27 is_stmt 0 view .LVU105
 447 0012 0A78     		ldrb	r2, [r1]	@ zero_extendqisi2
 448              	.LVL17:
 631:SYS/task_manager/task_manager.c ****     uint8_t L_TskPri_level = GET_TASKINGROUP_PRIORITY(tsk_l->priority.Suction.Task_Level);
 449              		.loc 1 631 5 is_stmt 1 view .LVU106
 450              		.loc 1 631 30 is_stmt 0 view .LVU107
 451 0014 00F00700 		and	r0, r0, #7
 452              	.LVL18:
 632:SYS/task_manager/task_manager.c ****     uint8_t R_TskPri_level = GET_TASKINGROUP_PRIORITY(tsk_r->priority.Suction.Task_Level);
 453              		.loc 1 632 5 is_stmt 1 view .LVU108
 454              		.loc 1 632 30 is_stmt 0 view .LVU109
 455 0018 02F00702 		and	r2, r2, #7
 456              	.LVL19:
 633:SYS/task_manager/task_manager.c **** 
 634:SYS/task_manager/task_manager.c ****     if (L_Grp_level < R_Grp_level)
 457              		.loc 1 634 5 is_stmt 1 view .LVU110
 635:SYS/task_manager/task_manager.c ****     {
 636:SYS/task_manager/task_manager.c ****         return tsk_l;
ARM GAS  /var/folders/lx/hc4sn_b53233_zkc9xbbl97r0000gp/T//ccr3Mjaw.s 			page 20


 637:SYS/task_manager/task_manager.c ****     }
 638:SYS/task_manager/task_manager.c ****     else if (L_Grp_level > R_Grp_level)
 458              		.loc 1 638 10 view .LVU111
 459              		.loc 1 638 13 is_stmt 0 view .LVU112
 460 001c F645     		cmp	lr, lr
 461 001e 0ED8     		bhi	.L35
 639:SYS/task_manager/task_manager.c ****     {
 640:SYS/task_manager/task_manager.c ****         return tsk_r;
 641:SYS/task_manager/task_manager.c ****     }
 642:SYS/task_manager/task_manager.c ****     else if (L_Grp_level == R_Grp_level)
 462              		.loc 1 642 10 is_stmt 1 view .LVU113
 463              		.loc 1 642 13 is_stmt 0 view .LVU114
 464 0020 0ED1     		bne	.L33
 643:SYS/task_manager/task_manager.c ****     {
 644:SYS/task_manager/task_manager.c ****         if (L_TskPri_level < R_TskPri_level)
 465              		.loc 1 644 9 is_stmt 1 view .LVU115
 466              		.loc 1 644 12 is_stmt 0 view .LVU116
 467 0022 9042     		cmp	r0, r2
 468 0024 0AD3     		bcc	.L41
 645:SYS/task_manager/task_manager.c ****         {
 646:SYS/task_manager/task_manager.c ****             return tsk_l;
 647:SYS/task_manager/task_manager.c ****         }
 648:SYS/task_manager/task_manager.c ****         else if (L_TskPri_level > R_TskPri_level)
 469              		.loc 1 648 14 is_stmt 1 view .LVU117
 470              		.loc 1 648 17 is_stmt 0 view .LVU118
 471 0026 0BD9     		bls	.L33
 472 0028 09E0     		b	.L35
 473              	.LVL20:
 474              	.L46:
 475              	.LCFI8:
 476              		.cfi_def_cfa_offset 0
 477              		.cfi_restore 14
 614:SYS/task_manager/task_manager.c ****     {
 478              		.loc 1 614 25 discriminator 1 view .LVU119
 479 002a 0029     		cmp	r1, #0
 480 002c EAD1     		bne	.L34
 481 002e 01E0     		b	.L43
 482              	.L47:
 619:SYS/task_manager/task_manager.c ****     {
 483              		.loc 1 619 25 discriminator 1 view .LVU120
 484 0030 0029     		cmp	r1, #0
 485 0032 E8D0     		beq	.L36
 486              	.LVL21:
 487              	.L43:
 649:SYS/task_manager/task_manager.c ****         {
 650:SYS/task_manager/task_manager.c ****             return tsk_r;
 651:SYS/task_manager/task_manager.c ****         }
 652:SYS/task_manager/task_manager.c ****     }
 653:SYS/task_manager/task_manager.c **** }
 488              		.loc 1 653 1 view .LVU121
 489 0034 0846     		mov	r0, r1
 490              	.LVL22:
 491              		.loc 1 653 1 view .LVU122
 492 0036 7047     		bx	lr
 493              	.LVL23:
 494              	.L39:
 626:SYS/task_manager/task_manager.c ****     }
ARM GAS  /var/folders/lx/hc4sn_b53233_zkc9xbbl97r0000gp/T//ccr3Mjaw.s 			page 21


 495              		.loc 1 626 16 view .LVU123
 496 0038 1946     		mov	r1, r3
 497              	.LVL24:
 626:SYS/task_manager/task_manager.c ****     }
 498              		.loc 1 626 16 view .LVU124
 499 003a FBE7     		b	.L43
 500              	.LVL25:
 501              	.L41:
 502              	.LCFI9:
 503              		.cfi_def_cfa_offset 4
 504              		.cfi_offset 14, -4
 646:SYS/task_manager/task_manager.c ****         }
 505              		.loc 1 646 20 view .LVU125
 506 003c 1946     		mov	r1, r3
 507              	.LVL26:
 508              	.L35:
 509              		.loc 1 653 1 view .LVU126
 510 003e 0846     		mov	r0, r1
 511              	.L33:
 512 0040 5DF804FB 		ldr	pc, [sp], #4
 513              		.cfi_endproc
 514              	.LFE155:
 516              		.section	.text.ReSet_Task_Data,"ax",%progbits
 517              		.align	1
 518              		.syntax unified
 519              		.thumb
 520              		.thumb_func
 521              		.fpu fpv4-sp-d16
 523              	ReSet_Task_Data:
 524              	.LVL27:
 525              	.LFB126:
  95:SYS/task_manager/task_manager.c ****     task->priority.Suction.Group_Level = 0;
 526              		.loc 1 95 1 is_stmt 1 view -0
 527              		.cfi_startproc
 528              		@ args = 0, pretend = 0, frame = 0
 529              		@ frame_needed = 0, uses_anonymous_args = 0
  95:SYS/task_manager/task_manager.c ****     task->priority.Suction.Group_Level = 0;
 530              		.loc 1 95 1 is_stmt 0 view .LVU128
 531 0000 10B5     		push	{r4, lr}
 532              	.LCFI10:
 533              		.cfi_def_cfa_offset 8
 534              		.cfi_offset 4, -8
 535              		.cfi_offset 14, -4
 536 0002 0446     		mov	r4, r0
  96:SYS/task_manager/task_manager.c ****     task->priority.Suction.Task_Level = 0;
 537              		.loc 1 96 5 is_stmt 1 view .LVU129
  96:SYS/task_manager/task_manager.c ****     task->priority.Suction.Task_Level = 0;
 538              		.loc 1 96 40 is_stmt 0 view .LVU130
 539 0004 0378     		ldrb	r3, [r0]	@ zero_extendqisi2
 540 0006 6FF3C503 		bfc	r3, #3, #3
 541 000a 0370     		strb	r3, [r0]
  97:SYS/task_manager/task_manager.c ****     task->Task_name = NULL;
 542              		.loc 1 97 5 is_stmt 1 view .LVU131
  97:SYS/task_manager/task_manager.c ****     task->Task_name = NULL;
 543              		.loc 1 97 39 is_stmt 0 view .LVU132
 544 000c DBB2     		uxtb	r3, r3
 545 000e 6FF30203 		bfc	r3, #0, #3
ARM GAS  /var/folders/lx/hc4sn_b53233_zkc9xbbl97r0000gp/T//ccr3Mjaw.s 			page 22


 546 0012 0370     		strb	r3, [r0]
  98:SYS/task_manager/task_manager.c ****     task->exec_frq = 0;
 547              		.loc 1 98 5 is_stmt 1 view .LVU133
  98:SYS/task_manager/task_manager.c ****     task->exec_frq = 0;
 548              		.loc 1 98 21 is_stmt 0 view .LVU134
 549 0014 0023     		movs	r3, #0
 550 0016 4360     		str	r3, [r0, #4]
  99:SYS/task_manager/task_manager.c ****     task->exec_interval_us = 0;
 551              		.loc 1 99 5 is_stmt 1 view .LVU135
  99:SYS/task_manager/task_manager.c ****     task->exec_interval_us = 0;
 552              		.loc 1 99 20 is_stmt 0 view .LVU136
 553 0018 8360     		str	r3, [r0, #8]
 100:SYS/task_manager/task_manager.c ****     task->Exec_Func = NULL;
 554              		.loc 1 100 5 is_stmt 1 view .LVU137
 100:SYS/task_manager/task_manager.c ****     task->Exec_Func = NULL;
 555              		.loc 1 100 28 is_stmt 0 view .LVU138
 556 001a 8381     		strh	r3, [r0, #12]	@ movhi
 101:SYS/task_manager/task_manager.c **** 
 557              		.loc 1 101 5 is_stmt 1 view .LVU139
 101:SYS/task_manager/task_manager.c **** 
 558              		.loc 1 101 21 is_stmt 0 view .LVU140
 559 001c 0361     		str	r3, [r0, #16]
 103:SYS/task_manager/task_manager.c ****     task->Exec_status.detect_exec_time_arv = 0;
 560              		.loc 1 103 5 is_stmt 1 view .LVU141
 103:SYS/task_manager/task_manager.c ****     task->Exec_status.detect_exec_time_arv = 0;
 561              		.loc 1 103 39 is_stmt 0 view .LVU142
 562 001e C362     		str	r3, [r0, #44]
 104:SYS/task_manager/task_manager.c ****     task->Exec_status.detect_exec_time_max = 0;
 563              		.loc 1 104 5 is_stmt 1 view .LVU143
 104:SYS/task_manager/task_manager.c ****     task->Exec_status.detect_exec_time_max = 0;
 564              		.loc 1 104 44 is_stmt 0 view .LVU144
 565 0020 0363     		str	r3, [r0, #48]
 105:SYS/task_manager/task_manager.c ****     task->Exec_status.Exec_Times = 0;
 566              		.loc 1 105 5 is_stmt 1 view .LVU145
 105:SYS/task_manager/task_manager.c ****     task->Exec_status.Exec_Times = 0;
 567              		.loc 1 105 44 is_stmt 0 view .LVU146
 568 0022 4363     		str	r3, [r0, #52]
 106:SYS/task_manager/task_manager.c ****     task->Exec_status.cpu_opy = 0;
 569              		.loc 1 106 5 is_stmt 1 view .LVU147
 106:SYS/task_manager/task_manager.c ****     task->Exec_status.cpu_opy = 0;
 570              		.loc 1 106 34 is_stmt 0 view .LVU148
 571 0024 8363     		str	r3, [r0, #56]
 107:SYS/task_manager/task_manager.c ****     task->Exec_status.totlal_running_time = 0;
 572              		.loc 1 107 5 is_stmt 1 view .LVU149
 107:SYS/task_manager/task_manager.c ****     task->Exec_status.totlal_running_time = 0;
 573              		.loc 1 107 31 is_stmt 0 view .LVU150
 574 0026 0022     		movs	r2, #0
 575 0028 8264     		str	r2, [r0, #72]	@ float
 108:SYS/task_manager/task_manager.c **** 
 576              		.loc 1 108 5 is_stmt 1 view .LVU151
 108:SYS/task_manager/task_manager.c **** 
 577              		.loc 1 108 43 is_stmt 0 view .LVU152
 578 002a 4364     		str	r3, [r0, #68]
 110:SYS/task_manager/task_manager.c ****     task->delay_info.tsk_hdl = 0;
 579              		.loc 1 110 5 is_stmt 1 view .LVU153
 110:SYS/task_manager/task_manager.c ****     task->delay_info.tsk_hdl = 0;
 580              		.loc 1 110 31 is_stmt 0 view .LVU154
ARM GAS  /var/folders/lx/hc4sn_b53233_zkc9xbbl97r0000gp/T//ccr3Mjaw.s 			page 23


 581 002c 80F86830 		strb	r3, [r0, #104]
 111:SYS/task_manager/task_manager.c ****     task->delay_info.time_unit = 0;
 582              		.loc 1 111 5 is_stmt 1 view .LVU155
 111:SYS/task_manager/task_manager.c ****     task->delay_info.time_unit = 0;
 583              		.loc 1 111 30 is_stmt 0 view .LVU156
 584 0030 C366     		str	r3, [r0, #108]
 112:SYS/task_manager/task_manager.c **** 
 585              		.loc 1 112 5 is_stmt 1 view .LVU157
 112:SYS/task_manager/task_manager.c **** 
 586              		.loc 1 112 32 is_stmt 0 view .LVU158
 587 0032 0367     		str	r3, [r0, #112]
 114:SYS/task_manager/task_manager.c **** 
 588              		.loc 1 114 5 is_stmt 1 view .LVU159
 589 0034 00F16801 		add	r1, r0, #104
 590 0038 8030     		adds	r0, r0, #128
 591              	.LVL28:
 114:SYS/task_manager/task_manager.c **** 
 592              		.loc 1 114 5 is_stmt 0 view .LVU160
 593 003a FFF7FEFF 		bl	List_ItemInit
 594              	.LVL29:
 116:SYS/task_manager/task_manager.c ****     RuntimeObj_Reset(&(task->Exec_status.Init_Time));
 595              		.loc 1 116 5 is_stmt 1 view .LVU161
 596 003e 04F12400 		add	r0, r4, #36
 597 0042 FFF7FEFF 		bl	RuntimeObj_Reset
 598              	.LVL30:
 117:SYS/task_manager/task_manager.c ****     RuntimeObj_Reset(&(task->Exec_status.Start_Time));
 599              		.loc 1 117 5 view .LVU162
 600 0046 04F11400 		add	r0, r4, #20
 601 004a FFF7FEFF 		bl	RuntimeObj_Reset
 602              	.LVL31:
 118:SYS/task_manager/task_manager.c **** 
 603              		.loc 1 118 5 view .LVU163
 604 004e 04F11C00 		add	r0, r4, #28
 605 0052 FFF7FEFF 		bl	RuntimeObj_Reset
 606              	.LVL32:
 120:SYS/task_manager/task_manager.c **** }
 607              		.loc 1 120 5 view .LVU164
 120:SYS/task_manager/task_manager.c **** }
 608              		.loc 1 120 29 is_stmt 0 view .LVU165
 609 0056 0523     		movs	r3, #5
 610 0058 84F84C30 		strb	r3, [r4, #76]
 121:SYS/task_manager/task_manager.c **** 
 611              		.loc 1 121 1 view .LVU166
 612 005c 10BD     		pop	{r4, pc}
 121:SYS/task_manager/task_manager.c **** 
 613              		.loc 1 121 1 view .LVU167
 614              		.cfi_endproc
 615              	.LFE126:
 617              		.section	.text.TaskSys_Init,"ax",%progbits
 618              		.align	1
 619              		.syntax unified
 620              		.thumb
 621              		.thumb_func
 622              		.fpu fpv4-sp-d16
 624              	TaskSys_Init:
 625              	.LFB128:
 137:SYS/task_manager/task_manager.c **** #if (TASK_SCHEDULER_TYPE == PREEMPTIVE_SCHDULER)
ARM GAS  /var/folders/lx/hc4sn_b53233_zkc9xbbl97r0000gp/T//ccr3Mjaw.s 			page 24


 626              		.loc 1 137 1 is_stmt 1 view -0
 627              		.cfi_startproc
 628              		@ args = 0, pretend = 0, frame = 0
 629              		@ frame_needed = 0, uses_anonymous_args = 0
 630 0000 F8B5     		push	{r3, r4, r5, r6, r7, lr}
 631              	.LCFI11:
 632              		.cfi_def_cfa_offset 24
 633              		.cfi_offset 3, -24
 634              		.cfi_offset 4, -20
 635              		.cfi_offset 5, -16
 636              		.cfi_offset 6, -12
 637              		.cfi_offset 7, -8
 638              		.cfi_offset 14, -4
 140:SYS/task_manager/task_manager.c **** 
 639              		.loc 1 140 5 view .LVU169
 640 0002 4FF42052 		mov	r2, #10240
 641 0006 0021     		movs	r1, #0
 642 0008 1948     		ldr	r0, .L57
 643 000a FFF7FEFF 		bl	memset
 644              	.LVL33:
 142:SYS/task_manager/task_manager.c **** #endif
 645              		.loc 1 142 5 view .LVU170
 142:SYS/task_manager/task_manager.c **** #endif
 646              		.loc 1 142 24 is_stmt 0 view .LVU171
 647 000e 194B     		ldr	r3, .L57+4
 648 0010 194A     		ldr	r2, .L57+8
 649 0012 1A60     		str	r2, [r3]
 148:SYS/task_manager/task_manager.c **** 
 650              		.loc 1 148 5 is_stmt 1 view .LVU172
 651              	.LVL34:
 150:SYS/task_manager/task_manager.c ****     {
 652              		.loc 1 150 5 view .LVU173
 653              	.LBB2:
 150:SYS/task_manager/task_manager.c ****     {
 654              		.loc 1 150 10 view .LVU174
 150:SYS/task_manager/task_manager.c ****     {
 655              		.loc 1 150 18 is_stmt 0 view .LVU175
 656 0014 0027     		movs	r7, #0
 150:SYS/task_manager/task_manager.c ****     {
 657              		.loc 1 150 5 view .LVU176
 658 0016 18E0     		b	.L51
 659              	.LVL35:
 660              	.L52:
 661              	.LBB3:
 154:SYS/task_manager/task_manager.c **** 
 662              		.loc 1 154 13 is_stmt 1 discriminator 3 view .LVU177
 663 0018 184D     		ldr	r5, .L57+12
 664 001a 04EBC706 		add	r6, r4, r7, lsl #3
 665 001e 55F82600 		ldr	r0, [r5, r6, lsl #2]
 666 0022 FFF7FEFF 		bl	ReSet_Task_Data
 667              	.LVL36:
 157:SYS/task_manager/task_manager.c ****             Task_Ptr[group_index][task_priority]->TCB.Stack = NULL;
 668              		.loc 1 157 13 discriminator 3 view .LVU178
 157:SYS/task_manager/task_manager.c ****             Task_Ptr[group_index][task_priority]->TCB.Stack = NULL;
 669              		.loc 1 157 34 is_stmt 0 discriminator 3 view .LVU179
 670 0026 55F82620 		ldr	r2, [r5, r6, lsl #2]
 157:SYS/task_manager/task_manager.c ****             Task_Ptr[group_index][task_priority]->TCB.Stack = NULL;
ARM GAS  /var/folders/lx/hc4sn_b53233_zkc9xbbl97r0000gp/T//ccr3Mjaw.s 			page 25


 671              		.loc 1 157 63 discriminator 3 view .LVU180
 672 002a 0023     		movs	r3, #0
 673 002c 1365     		str	r3, [r2, #80]
 158:SYS/task_manager/task_manager.c ****             Task_Ptr[group_index][task_priority]->TCB.Top_Stk_Ptr = NULL;
 674              		.loc 1 158 13 is_stmt 1 discriminator 3 view .LVU181
 158:SYS/task_manager/task_manager.c ****             Task_Ptr[group_index][task_priority]->TCB.Top_Stk_Ptr = NULL;
 675              		.loc 1 158 34 is_stmt 0 discriminator 3 view .LVU182
 676 002e 55F82620 		ldr	r2, [r5, r6, lsl #2]
 158:SYS/task_manager/task_manager.c ****             Task_Ptr[group_index][task_priority]->TCB.Top_Stk_Ptr = NULL;
 677              		.loc 1 158 61 discriminator 3 view .LVU183
 678 0032 9365     		str	r3, [r2, #88]
 159:SYS/task_manager/task_manager.c **** #endif
 679              		.loc 1 159 13 is_stmt 1 discriminator 3 view .LVU184
 159:SYS/task_manager/task_manager.c **** #endif
 680              		.loc 1 159 34 is_stmt 0 discriminator 3 view .LVU185
 681 0034 55F82620 		ldr	r2, [r5, r6, lsl #2]
 159:SYS/task_manager/task_manager.c **** #endif
 682              		.loc 1 159 67 discriminator 3 view .LVU186
 683 0038 5365     		str	r3, [r2, #84]
 161:SYS/task_manager/task_manager.c **** 
 684              		.loc 1 161 13 is_stmt 1 discriminator 3 view .LVU187
 161:SYS/task_manager/task_manager.c **** 
 685              		.loc 1 161 50 is_stmt 0 discriminator 3 view .LVU188
 686 003a 45F82630 		str	r3, [r5, r6, lsl #2]
 163:SYS/task_manager/task_manager.c ****         }
 687              		.loc 1 163 13 is_stmt 1 discriminator 3 view .LVU189
 152:SYS/task_manager/task_manager.c ****         {
 688              		.loc 1 152 90 discriminator 3 view .LVU190
 152:SYS/task_manager/task_manager.c ****         {
 689              		.loc 1 152 103 is_stmt 0 discriminator 3 view .LVU191
 690 003e 0134     		adds	r4, r4, #1
 691              	.LVL37:
 152:SYS/task_manager/task_manager.c ****         {
 692              		.loc 1 152 103 discriminator 3 view .LVU192
 693 0040 E4B2     		uxtb	r4, r4
 694              	.LVL38:
 695              	.L53:
 152:SYS/task_manager/task_manager.c ****         {
 696              		.loc 1 152 55 is_stmt 1 discriminator 1 view .LVU193
 152:SYS/task_manager/task_manager.c ****         {
 697              		.loc 1 152 9 is_stmt 0 discriminator 1 view .LVU194
 698 0042 072C     		cmp	r4, #7
 699 0044 E8D9     		bls	.L52
 700              	.LBE3:
 150:SYS/task_manager/task_manager.c ****     {
 701              		.loc 1 150 66 is_stmt 1 discriminator 2 view .LVU195
 150:SYS/task_manager/task_manager.c ****     {
 702              		.loc 1 150 77 is_stmt 0 discriminator 2 view .LVU196
 703 0046 0137     		adds	r7, r7, #1
 704              	.LVL39:
 150:SYS/task_manager/task_manager.c ****     {
 705              		.loc 1 150 77 discriminator 2 view .LVU197
 706 0048 FFB2     		uxtb	r7, r7
 707              	.LVL40:
 708              	.L51:
 150:SYS/task_manager/task_manager.c ****     {
 709              		.loc 1 150 41 is_stmt 1 discriminator 1 view .LVU198
ARM GAS  /var/folders/lx/hc4sn_b53233_zkc9xbbl97r0000gp/T//ccr3Mjaw.s 			page 26


 150:SYS/task_manager/task_manager.c ****     {
 710              		.loc 1 150 5 is_stmt 0 discriminator 1 view .LVU199
 711 004a 072F     		cmp	r7, #7
 712 004c 01D8     		bhi	.L56
 713              	.LBB4:
 152:SYS/task_manager/task_manager.c ****         {
 714              		.loc 1 152 22 view .LVU200
 715 004e 0024     		movs	r4, #0
 716 0050 F7E7     		b	.L53
 717              	.L56:
 718              	.LBE4:
 719              	.LBE2:
 167:SYS/task_manager/task_manager.c ****     TskCrt_RegList.list.data = NULL;
 720              		.loc 1 167 5 is_stmt 1 view .LVU201
 167:SYS/task_manager/task_manager.c ****     TskCrt_RegList.list.data = NULL;
 721              		.loc 1 167 24 is_stmt 0 view .LVU202
 722 0052 0B4B     		ldr	r3, .L57+16
 723 0054 0022     		movs	r2, #0
 724 0056 1A70     		strb	r2, [r3]
 168:SYS/task_manager/task_manager.c ****     TskCrt_RegList.list.nxt = NULL;
 725              		.loc 1 168 5 is_stmt 1 view .LVU203
 168:SYS/task_manager/task_manager.c ****     TskCrt_RegList.list.nxt = NULL;
 726              		.loc 1 168 30 is_stmt 0 view .LVU204
 727 0058 5A61     		str	r2, [r3, #20]
 169:SYS/task_manager/task_manager.c ****     TskCrt_RegList.list.prv = NULL;
 728              		.loc 1 169 5 is_stmt 1 view .LVU205
 169:SYS/task_manager/task_manager.c ****     TskCrt_RegList.list.prv = NULL;
 729              		.loc 1 169 29 is_stmt 0 view .LVU206
 730 005a 1A61     		str	r2, [r3, #16]
 170:SYS/task_manager/task_manager.c **** 
 731              		.loc 1 170 5 is_stmt 1 view .LVU207
 170:SYS/task_manager/task_manager.c **** 
 732              		.loc 1 170 29 is_stmt 0 view .LVU208
 733 005c DA60     		str	r2, [r3, #12]
 172:SYS/task_manager/task_manager.c ****     TskSys_state = TaskSys_Prepare;
 734              		.loc 1 172 5 is_stmt 1 view .LVU209
 735 005e 094B     		ldr	r3, .L57+20
 736 0060 1868     		ldr	r0, [r3]
 737 0062 FFF7FEFF 		bl	ReSet_Task_Data
 738              	.LVL41:
 173:SYS/task_manager/task_manager.c **** }
 739              		.loc 1 173 5 view .LVU210
 173:SYS/task_manager/task_manager.c **** }
 740              		.loc 1 173 18 is_stmt 0 view .LVU211
 741 0066 084B     		ldr	r3, .L57+24
 742 0068 0122     		movs	r2, #1
 743 006a 1A70     		strb	r2, [r3]
 174:SYS/task_manager/task_manager.c **** 
 744              		.loc 1 174 1 view .LVU212
 745 006c F8BD     		pop	{r3, r4, r5, r6, r7, pc}
 746              	.LVL42:
 747              	.L58:
 174:SYS/task_manager/task_manager.c **** 
 748              		.loc 1 174 1 view .LVU213
 749 006e 00BF     		.align	2
 750              	.L57:
 751 0070 00000000 		.word	Task_OS_StkMem
ARM GAS  /var/folders/lx/hc4sn_b53233_zkc9xbbl97r0000gp/T//ccr3Mjaw.s 			page 27


 752 0074 00000000 		.word	.LANCHOR3
 753 0078 FC9F0000 		.word	Task_OS_StkMem+40956
 754 007c 00000000 		.word	.LANCHOR4
 755 0080 00000000 		.word	.LANCHOR5
 756 0084 00000000 		.word	.LANCHOR6
 757 0088 00000000 		.word	.LANCHOR7
 758              		.cfi_endproc
 759              	.LFE128:
 761              		.section	.text.Task_SetStkPtr_Val,"ax",%progbits
 762              		.align	1
 763              		.syntax unified
 764              		.thumb
 765              		.thumb_func
 766              		.fpu fpv4-sp-d16
 768              	Task_SetStkPtr_Val:
 769              	.LVL43:
 770              	.LFB144:
 440:SYS/task_manager/task_manager.c ****     uint32_t *Tsk_Ptr_tmp = NULL;
 771              		.loc 1 440 1 is_stmt 1 view -0
 772              		.cfi_startproc
 773              		@ args = 0, pretend = 0, frame = 0
 774              		@ frame_needed = 0, uses_anonymous_args = 0
 440:SYS/task_manager/task_manager.c ****     uint32_t *Tsk_Ptr_tmp = NULL;
 775              		.loc 1 440 1 is_stmt 0 view .LVU215
 776 0000 10B5     		push	{r4, lr}
 777              	.LCFI12:
 778              		.cfi_def_cfa_offset 8
 779              		.cfi_offset 4, -8
 780              		.cfi_offset 14, -4
 781 0002 0446     		mov	r4, r0
 441:SYS/task_manager/task_manager.c **** 
 782              		.loc 1 441 5 is_stmt 1 view .LVU216
 783              	.LVL44:
 443:SYS/task_manager/task_manager.c **** 
 784              		.loc 1 443 5 view .LVU217
 785 0004 026D     		ldr	r2, [r0, #80]
 786 0006 0021     		movs	r1, #0
 787 0008 806D     		ldr	r0, [r0, #88]
 788              	.LVL45:
 443:SYS/task_manager/task_manager.c **** 
 789              		.loc 1 443 5 is_stmt 0 view .LVU218
 790 000a FFF7FEFF 		bl	memset
 791              	.LVL46:
 445:SYS/task_manager/task_manager.c ****     Tsk_Ptr_tmp = (uint32_t *)((uint32_t)(Tsk_Ptr_tmp)&0XFFFFFFF8ul);
 792              		.loc 1 445 5 is_stmt 1 view .LVU219
 445:SYS/task_manager/task_manager.c ****     Tsk_Ptr_tmp = (uint32_t *)((uint32_t)(Tsk_Ptr_tmp)&0XFFFFFFF8ul);
 793              		.loc 1 445 19 is_stmt 0 view .LVU220
 794 000e 04F15803 		add	r3, r4, #88
 445:SYS/task_manager/task_manager.c ****     Tsk_Ptr_tmp = (uint32_t *)((uint32_t)(Tsk_Ptr_tmp)&0XFFFFFFF8ul);
 795              		.loc 1 445 41 view .LVU221
 796 0012 226D     		ldr	r2, [r4, #80]
 445:SYS/task_manager/task_manager.c ****     Tsk_Ptr_tmp = (uint32_t *)((uint32_t)(Tsk_Ptr_tmp)&0XFFFFFFF8ul);
 797              		.loc 1 445 35 view .LVU222
 798 0014 02F18042 		add	r2, r2, #1073741824
 799 0018 013A     		subs	r2, r2, #1
 445:SYS/task_manager/task_manager.c ****     Tsk_Ptr_tmp = (uint32_t *)((uint32_t)(Tsk_Ptr_tmp)&0XFFFFFFF8ul);
 800              		.loc 1 445 17 view .LVU223
ARM GAS  /var/folders/lx/hc4sn_b53233_zkc9xbbl97r0000gp/T//ccr3Mjaw.s 			page 28


 801 001a 03EB8203 		add	r3, r3, r2, lsl #2
 802              	.LVL47:
 446:SYS/task_manager/task_manager.c **** 
 803              		.loc 1 446 5 is_stmt 1 view .LVU224
 446:SYS/task_manager/task_manager.c **** 
 804              		.loc 1 446 55 is_stmt 0 view .LVU225
 805 001e 23F00703 		bic	r3, r3, #7
 806              	.LVL48:
 448:SYS/task_manager/task_manager.c ****     *Tsk_Ptr_tmp = 0x01000000uL; /* xPSR */
 807              		.loc 1 448 5 is_stmt 1 view .LVU226
 449:SYS/task_manager/task_manager.c **** 
 808              		.loc 1 449 5 view .LVU227
 449:SYS/task_manager/task_manager.c **** 
 809              		.loc 1 449 18 is_stmt 0 view .LVU228
 810 0022 4FF08072 		mov	r2, #16777216
 811 0026 43F8042C 		str	r2, [r3, #-4]
 451:SYS/task_manager/task_manager.c ****     *Tsk_Ptr_tmp = ((uint32_t)Task_Caller) & 0xfffffffeUL; /* PC */
 812              		.loc 1 451 5 is_stmt 1 view .LVU229
 813              	.LVL49:
 452:SYS/task_manager/task_manager.c **** 
 814              		.loc 1 452 5 view .LVU230
 452:SYS/task_manager/task_manager.c **** 
 815              		.loc 1 452 21 is_stmt 0 view .LVU231
 816 002a 094A     		ldr	r2, .L61
 452:SYS/task_manager/task_manager.c **** 
 817              		.loc 1 452 44 view .LVU232
 818 002c 22F00102 		bic	r2, r2, #1
 452:SYS/task_manager/task_manager.c **** 
 819              		.loc 1 452 18 view .LVU233
 820 0030 43F8082C 		str	r2, [r3, #-8]
 454:SYS/task_manager/task_manager.c ****     *Tsk_Ptr_tmp = (uint32_t)Task_Exit; /* LR */
 821              		.loc 1 454 5 is_stmt 1 view .LVU234
 822              	.LVL50:
 455:SYS/task_manager/task_manager.c **** 
 823              		.loc 1 455 5 view .LVU235
 455:SYS/task_manager/task_manager.c **** 
 824              		.loc 1 455 20 is_stmt 0 view .LVU236
 825 0034 074A     		ldr	r2, .L61+4
 455:SYS/task_manager/task_manager.c **** 
 826              		.loc 1 455 18 view .LVU237
 827 0036 43F80C2C 		str	r2, [r3, #-12]
 458:SYS/task_manager/task_manager.c ****     *Tsk_Ptr_tmp = (uint32_t)NULL; /* R0 */
 828              		.loc 1 458 5 is_stmt 1 view .LVU238
 829              	.LVL51:
 459:SYS/task_manager/task_manager.c **** 
 830              		.loc 1 459 5 view .LVU239
 459:SYS/task_manager/task_manager.c **** 
 831              		.loc 1 459 18 is_stmt 0 view .LVU240
 832 003a 0022     		movs	r2, #0
 833 003c 43F8202C 		str	r2, [r3, #-32]
 463:SYS/task_manager/task_manager.c ****     *Tsk_Ptr_tmp = 0xfffffffd;
 834              		.loc 1 463 5 is_stmt 1 view .LVU241
 835              	.LVL52:
 464:SYS/task_manager/task_manager.c **** 
 836              		.loc 1 464 5 view .LVU242
 464:SYS/task_manager/task_manager.c **** 
 837              		.loc 1 464 18 is_stmt 0 view .LVU243
ARM GAS  /var/folders/lx/hc4sn_b53233_zkc9xbbl97r0000gp/T//ccr3Mjaw.s 			page 29


 838 0040 6FF00202 		mvn	r2, #2
 839 0044 43F8242C 		str	r2, [r3, #-36]
 466:SYS/task_manager/task_manager.c **** 
 840              		.loc 1 466 5 is_stmt 1 view .LVU244
 466:SYS/task_manager/task_manager.c **** 
 841              		.loc 1 466 17 is_stmt 0 view .LVU245
 842 0048 443B     		subs	r3, r3, #68
 843              	.LVL53:
 469:SYS/task_manager/task_manager.c **** }
 844              		.loc 1 469 5 is_stmt 1 view .LVU246
 469:SYS/task_manager/task_manager.c **** }
 845              		.loc 1 469 26 is_stmt 0 view .LVU247
 846 004a 6365     		str	r3, [r4, #84]
 470:SYS/task_manager/task_manager.c **** 
 847              		.loc 1 470 1 view .LVU248
 848 004c 10BD     		pop	{r4, pc}
 849              	.LVL54:
 850              	.L62:
 470:SYS/task_manager/task_manager.c **** 
 851              		.loc 1 470 1 view .LVU249
 852 004e 00BF     		.align	2
 853              	.L61:
 854 0050 00000000 		.word	Task_Caller
 855 0054 00000000 		.word	Task_Exit
 856              		.cfi_endproc
 857              	.LFE144:
 859              		.global	__aeabi_ul2f
 860              		.section	.text.Task_Idle,"ax",%progbits
 861              		.align	1
 862              		.syntax unified
 863              		.thumb
 864              		.thumb_func
 865              		.fpu fpv4-sp-d16
 867              	Task_Idle:
 868              	.LFB130:
 185:SYS/task_manager/task_manager.c ****     SYSTEM_RunTime cur_time;
 869              		.loc 1 185 1 is_stmt 1 view -0
 870              		.cfi_startproc
 871              		@ args = 0, pretend = 0, frame = 16
 872              		@ frame_needed = 0, uses_anonymous_args = 0
 873 0000 10B5     		push	{r4, lr}
 874              	.LCFI13:
 875              		.cfi_def_cfa_offset 8
 876              		.cfi_offset 4, -8
 877              		.cfi_offset 14, -4
 878 0002 84B0     		sub	sp, sp, #16
 879              	.LCFI14:
 880              		.cfi_def_cfa_offset 24
 186:SYS/task_manager/task_manager.c ****     SYSTEM_RunTime time_diff;
 881              		.loc 1 186 5 view .LVU251
 187:SYS/task_manager/task_manager.c **** 
 882              		.loc 1 187 5 view .LVU252
 189:SYS/task_manager/task_manager.c ****     RuntimeObj_Reset(&cur_time);
 883              		.loc 1 189 5 view .LVU253
 884 0004 6846     		mov	r0, sp
 885 0006 FFF7FEFF 		bl	RuntimeObj_Reset
 886              	.LVL55:
ARM GAS  /var/folders/lx/hc4sn_b53233_zkc9xbbl97r0000gp/T//ccr3Mjaw.s 			page 30


 190:SYS/task_manager/task_manager.c **** 
 887              		.loc 1 190 5 view .LVU254
 888 000a 02A8     		add	r0, sp, #8
 889 000c FFF7FEFF 		bl	RuntimeObj_Reset
 890              	.LVL56:
 192:SYS/task_manager/task_manager.c ****     time_diff = Get_TimeDifference_Between(TaskSys_StartTime, cur_time);
 891              		.loc 1 192 5 view .LVU255
 192:SYS/task_manager/task_manager.c ****     time_diff = Get_TimeDifference_Between(TaskSys_StartTime, cur_time);
 892              		.loc 1 192 16 is_stmt 0 view .LVU256
 893 0010 FFF7FEFF 		bl	Get_CurrentRunningUs
 894              	.LVL57:
 895 0014 0246     		mov	r2, r0
 896 0016 0B46     		mov	r3, r1
 192:SYS/task_manager/task_manager.c ****     time_diff = Get_TimeDifference_Between(TaskSys_StartTime, cur_time);
 897              		.loc 1 192 14 view .LVU257
 898 0018 0290     		str	r0, [sp, #8]
 899 001a 0391     		str	r1, [sp, #12]
 193:SYS/task_manager/task_manager.c **** 
 900              		.loc 1 193 5 is_stmt 1 view .LVU258
 193:SYS/task_manager/task_manager.c **** 
 901              		.loc 1 193 17 is_stmt 0 view .LVU259
 902 001c 0D49     		ldr	r1, .L65
 903 001e D1E90001 		ldrd	r0, [r1]
 904 0022 FFF7FEFF 		bl	Get_TimeDifference_Between
 905              	.LVL58:
 906 0026 0246     		mov	r2, r0
 907 0028 0B46     		mov	r3, r1
 193:SYS/task_manager/task_manager.c **** 
 908              		.loc 1 193 15 view .LVU260
 909 002a CDE90023 		strd	r2, [sp]
 195:SYS/task_manager/task_manager.c ****     TaskSys_Idle_Ocupy = (TaskSys_Idle_US / (float)time_diff);
 910              		.loc 1 195 5 is_stmt 1 view .LVU261
 195:SYS/task_manager/task_manager.c ****     TaskSys_Idle_Ocupy = (TaskSys_Idle_US / (float)time_diff);
 911              		.loc 1 195 20 is_stmt 0 view .LVU262
 912 002e 0A4B     		ldr	r3, .L65+4
 913 0030 1C68     		ldr	r4, [r3]
 914 0032 0134     		adds	r4, r4, #1
 915 0034 1C60     		str	r4, [r3]
 196:SYS/task_manager/task_manager.c **** }
 916              		.loc 1 196 5 is_stmt 1 view .LVU263
 196:SYS/task_manager/task_manager.c **** }
 917              		.loc 1 196 45 is_stmt 0 view .LVU264
 918 0036 FFF7FEFF 		bl	__aeabi_ul2f
 919              	.LVL59:
 920 003a 06EE900A 		vmov	s13, r0
 196:SYS/task_manager/task_manager.c **** }
 921              		.loc 1 196 43 view .LVU265
 922 003e 07EE904A 		vmov	s15, r4	@ int
 923 0042 F8EE677A 		vcvt.f32.u32	s15, s15
 924 0046 87EEA67A 		vdiv.f32	s14, s15, s13
 196:SYS/task_manager/task_manager.c **** }
 925              		.loc 1 196 24 view .LVU266
 926 004a 044B     		ldr	r3, .L65+8
 927 004c 83ED007A 		vstr.32	s14, [r3]
 197:SYS/task_manager/task_manager.c **** 
 928              		.loc 1 197 1 view .LVU267
 929 0050 04B0     		add	sp, sp, #16
ARM GAS  /var/folders/lx/hc4sn_b53233_zkc9xbbl97r0000gp/T//ccr3Mjaw.s 			page 31


 930              	.LCFI15:
 931              		.cfi_def_cfa_offset 8
 932              		@ sp needed
 933 0052 10BD     		pop	{r4, pc}
 934              	.L66:
 935              		.align	2
 936              	.L65:
 937 0054 00000000 		.word	.LANCHOR8
 938 0058 00000000 		.word	.LANCHOR9
 939 005c 00000000 		.word	.LANCHOR10
 940              		.cfi_endproc
 941              	.LFE130:
 943              		.section	.text.Task_Exec,"ax",%progbits
 944              		.align	1
 945              		.syntax unified
 946              		.thumb
 947              		.thumb_func
 948              		.fpu fpv4-sp-d16
 950              	Task_Exec:
 951              	.LVL60:
 952              	.LFB165:
 654:SYS/task_manager/task_manager.c **** 
 655:SYS/task_manager/task_manager.c **** Task_Handler Task_Create(const char *name, uint32_t frq, Priority_Group group, TASK_Priority priori
 656:SYS/task_manager/task_manager.c **** {
 657:SYS/task_manager/task_manager.c ****     Task_Handler handle;
 658:SYS/task_manager/task_manager.c ****     const uint32_t UNIT_S = 1000000;
 659:SYS/task_manager/task_manager.c ****     uint16_t task_name_len = strlen(name);
 660:SYS/task_manager/task_manager.c ****     uint32_t *Tsk_Ptr_tmp = NULL;
 661:SYS/task_manager/task_manager.c ****     static bool taskOs_InitState = false;
 662:SYS/task_manager/task_manager.c **** 
 663:SYS/task_manager/task_manager.c ****     if (!taskOs_InitState)
 664:SYS/task_manager/task_manager.c ****     {
 665:SYS/task_manager/task_manager.c ****         TaskSys_Init();
 666:SYS/task_manager/task_manager.c ****         taskOs_InitState = true;
 667:SYS/task_manager/task_manager.c ****     }
 668:SYS/task_manager/task_manager.c **** 
 669:SYS/task_manager/task_manager.c ****     //already have task in current group and priority in task pointer matrix
 670:SYS/task_manager/task_manager.c ****     if (Task_Ptr[group][priority] != NULL)
 671:SYS/task_manager/task_manager.c ****     {
 672:SYS/task_manager/task_manager.c ****         return TASK_REGISTED;
 673:SYS/task_manager/task_manager.c ****     }
 674:SYS/task_manager/task_manager.c **** 
 675:SYS/task_manager/task_manager.c ****     //request a memory space for Task_Ptr contain
 676:SYS/task_manager/task_manager.c ****     Task_Ptr[group][priority] = (Task *)malloc(sizeof(Task));
 677:SYS/task_manager/task_manager.c **** 
 678:SYS/task_manager/task_manager.c ****     //record Task_Ptr poiner`s address
 679:SYS/task_manager/task_manager.c ****     handle = *&Task_Ptr[group][priority];
 680:SYS/task_manager/task_manager.c **** 
 681:SYS/task_manager/task_manager.c ****     Task_Ptr[group][priority]->Task_name = name;
 682:SYS/task_manager/task_manager.c **** 
 683:SYS/task_manager/task_manager.c ****     Task_Ptr[group][priority]->exec_frq = frq;
 684:SYS/task_manager/task_manager.c ****     Task_Ptr[group][priority]->exec_interval_us = UNIT_S / frq;
 685:SYS/task_manager/task_manager.c ****     Task_Ptr[group][priority]->Exec_Func = func;
 686:SYS/task_manager/task_manager.c **** 
 687:SYS/task_manager/task_manager.c ****     Task_Ptr[group][priority]->priority.Priority = (group << 3) | priority;
 688:SYS/task_manager/task_manager.c **** 
 689:SYS/task_manager/task_manager.c **** #if (TASK_SCHEDULER_TYPE == PREEMPTIVE_SCHDULER)
ARM GAS  /var/folders/lx/hc4sn_b53233_zkc9xbbl97r0000gp/T//ccr3Mjaw.s 			page 32


 690:SYS/task_manager/task_manager.c ****     //init delay tag
 691:SYS/task_manager/task_manager.c ****     Task_Ptr[group][priority]->delay_info.on_delay = false;
 692:SYS/task_manager/task_manager.c ****     Task_Ptr[group][priority]->delay_info.tsk_hdl = handle;
 693:SYS/task_manager/task_manager.c ****     Task_Ptr[group][priority]->delay_info.time_unit = 0;
 694:SYS/task_manager/task_manager.c **** 
 695:SYS/task_manager/task_manager.c ****     //request memory space for task stack
 696:SYS/task_manager/task_manager.c ****     Task_Ptr[group][priority]->Stack_Depth = StackDepth;
 697:SYS/task_manager/task_manager.c ****     Task_Ptr[group][priority]->TCB.Stack = (uint32_t *)malloc(StackDepth * sizeof(uint32_t));
 698:SYS/task_manager/task_manager.c **** 
 699:SYS/task_manager/task_manager.c ****     if (Task_Ptr[group][priority]->TCB.Stack != NULL)
 700:SYS/task_manager/task_manager.c ****     {
 701:SYS/task_manager/task_manager.c ****         Task_SetStkPtr_Val(Task_Ptr[group][priority]);
 702:SYS/task_manager/task_manager.c ****     }
 703:SYS/task_manager/task_manager.c ****     else
 704:SYS/task_manager/task_manager.c ****     {
 705:SYS/task_manager/task_manager.c ****         return TASK_BAD_MEMSPC_REQ;
 706:SYS/task_manager/task_manager.c ****     }
 707:SYS/task_manager/task_manager.c **** #endif
 708:SYS/task_manager/task_manager.c ****     //reset task running statistics reg
 709:SYS/task_manager/task_manager.c ****     Task_Ptr[group][priority]->statistics_reg.Reg.Caller_Statistics_REG = stop_statistics;
 710:SYS/task_manager/task_manager.c ****     Task_Ptr[group][priority]->statistics_reg.Reg.TskFun_Statistics_REG = stop_statistics;
 711:SYS/task_manager/task_manager.c **** 
 712:SYS/task_manager/task_manager.c ****     //reset single loop running us
 713:SYS/task_manager/task_manager.c ****     Task_Ptr[group][priority]->TskFuncUing_US = 0;
 714:SYS/task_manager/task_manager.c ****     Task_Ptr[group][priority]->CallerUsing_US = 0;
 715:SYS/task_manager/task_manager.c **** 
 716:SYS/task_manager/task_manager.c ****     //reset task cpu occupy data
 717:SYS/task_manager/task_manager.c ****     Task_Ptr[group][priority]->Exec_status.cpu_opy = 0;
 718:SYS/task_manager/task_manager.c ****     Task_Ptr[group][priority]->Exec_status.totlal_running_time = 0;
 719:SYS/task_manager/task_manager.c **** 
 720:SYS/task_manager/task_manager.c ****     //set current group flag to ready
 721:SYS/task_manager/task_manager.c ****     TskHdl_RdyMap.Grp.Flg |= 1 << GET_TASKGROUP_PRIORITY(Task_Ptr[group][priority]->priority.Priori
 722:SYS/task_manager/task_manager.c ****     //set current task under this group flag to ready
 723:SYS/task_manager/task_manager.c ****     TskHdl_RdyMap.TskInGrp[GET_TASKGROUP_PRIORITY(Task_Ptr[group][priority]->priority.Priority)].Fl
 724:SYS/task_manager/task_manager.c **** 
 725:SYS/task_manager/task_manager.c ****     Task_Ptr[group][priority]->Exec_status.detect_exec_frq = 0;
 726:SYS/task_manager/task_manager.c ****     Task_Ptr[group][priority]->Exec_status.detect_exec_time_arv = 0;
 727:SYS/task_manager/task_manager.c ****     Task_Ptr[group][priority]->Exec_status.detect_exec_time_max = 0;
 728:SYS/task_manager/task_manager.c **** 
 729:SYS/task_manager/task_manager.c ****     RuntimeObj_Reset(&(Task_Ptr[group][priority]->Exec_status.Exec_Time));
 730:SYS/task_manager/task_manager.c ****     RuntimeObj_Reset(&(Task_Ptr[group][priority]->Exec_status.Init_Time));
 731:SYS/task_manager/task_manager.c ****     RuntimeObj_Reset(&(Task_Ptr[group][priority]->Exec_status.Start_Time));
 732:SYS/task_manager/task_manager.c **** 
 733:SYS/task_manager/task_manager.c ****     Task_Ptr[group][priority]->Exec_status.Init_Time = Get_CurrentRunningUs();
 734:SYS/task_manager/task_manager.c **** 
 735:SYS/task_manager/task_manager.c ****     Task_Ptr[group][priority]->Exec_status.Exec_Times = 0;
 736:SYS/task_manager/task_manager.c ****     Task_Ptr[group][priority]->Exec_status.TimeOut_Times = 0;
 737:SYS/task_manager/task_manager.c ****     Task_Ptr[group][priority]->Exec_status.error_code = NOERROR;
 738:SYS/task_manager/task_manager.c **** 
 739:SYS/task_manager/task_manager.c ****     Task_SetReady(Task_Ptr[group][priority]);
 740:SYS/task_manager/task_manager.c **** 
 741:SYS/task_manager/task_manager.c **** #if DEBUG
 742:SYS/task_manager/task_manager.c ****     Debug_Output("create %s done\r\n\r\n", name);
 743:SYS/task_manager/task_manager.c **** #endif
 744:SYS/task_manager/task_manager.c **** 
 745:SYS/task_manager/task_manager.c ****     Task_Ptr[group][priority]->item_ptr = (item_obj *)malloc(sizeof(item_obj));
 746:SYS/task_manager/task_manager.c ****     if (Task_Ptr[group][priority]->item_ptr == NULL)
ARM GAS  /var/folders/lx/hc4sn_b53233_zkc9xbbl97r0000gp/T//ccr3Mjaw.s 			page 33


 747:SYS/task_manager/task_manager.c ****     {
 748:SYS/task_manager/task_manager.c ****         return TASK_BAD_MEMSPC_REQ;
 749:SYS/task_manager/task_manager.c ****     }
 750:SYS/task_manager/task_manager.c **** 
 751:SYS/task_manager/task_manager.c ****     List_ItemInit(Task_Ptr[group][priority]->item_ptr, Task_Ptr[group][priority]);
 752:SYS/task_manager/task_manager.c ****     if (TskCrt_RegList.num == 0)
 753:SYS/task_manager/task_manager.c ****     {
 754:SYS/task_manager/task_manager.c ****         List_Init(&TskCrt_RegList.list, Task_Ptr[group][priority]->item_ptr, by_condition, Task_Pri
 755:SYS/task_manager/task_manager.c ****     }
 756:SYS/task_manager/task_manager.c ****     else
 757:SYS/task_manager/task_manager.c ****     {
 758:SYS/task_manager/task_manager.c ****         List_Insert_Item(&TskCrt_RegList.list, Task_Ptr[group][priority]->item_ptr);
 759:SYS/task_manager/task_manager.c ****     }
 760:SYS/task_manager/task_manager.c **** 
 761:SYS/task_manager/task_manager.c ****     List_ItemInit(&Task_Ptr[group][priority]->delay_item, &Task_Ptr[group][priority]->delay_info);
 762:SYS/task_manager/task_manager.c **** 
 763:SYS/task_manager/task_manager.c ****     TskCrt_RegList.num++;
 764:SYS/task_manager/task_manager.c **** 
 765:SYS/task_manager/task_manager.c ****     return handle;
 766:SYS/task_manager/task_manager.c **** }
 767:SYS/task_manager/task_manager.c **** 
 768:SYS/task_manager/task_manager.c **** static void Task_Set_CountRunnigTime_State(Task *tsk_ptr, uint8_t enable_state)
 769:SYS/task_manager/task_manager.c **** {
 770:SYS/task_manager/task_manager.c ****     if (enable_state)
 771:SYS/task_manager/task_manager.c ****     {
 772:SYS/task_manager/task_manager.c ****         tsk_ptr->statistics_reg.Reg.Caller_Statistics_REG = start_statistics;
 773:SYS/task_manager/task_manager.c ****     }
 774:SYS/task_manager/task_manager.c ****     else
 775:SYS/task_manager/task_manager.c ****     {
 776:SYS/task_manager/task_manager.c ****         tsk_ptr->statistics_reg.Reg.Caller_Statistics_REG = stop_statistics;
 777:SYS/task_manager/task_manager.c ****         tsk_ptr->statistics_reg.Reg.TskFun_Statistics_REG = stop_statistics;
 778:SYS/task_manager/task_manager.c ****     }
 779:SYS/task_manager/task_manager.c **** 
 780:SYS/task_manager/task_manager.c ****     periph_Timer_Counter_SetEnable(Timer_4, enable_state);
 781:SYS/task_manager/task_manager.c **** }
 782:SYS/task_manager/task_manager.c **** 
 783:SYS/task_manager/task_manager.c **** static void Task_StartCountTargetFunc_Cast(Task *tsk_ptr)
 784:SYS/task_manager/task_manager.c **** {
 785:SYS/task_manager/task_manager.c ****     tsk_ptr->statistics_reg.Reg.TskFun_Statistics_REG = start_statistics;
 786:SYS/task_manager/task_manager.c **** }
 787:SYS/task_manager/task_manager.c **** 
 788:SYS/task_manager/task_manager.c **** static void Task_StopCountTargetFunc_Cast(Task *tsk_ptr)
 789:SYS/task_manager/task_manager.c **** {
 790:SYS/task_manager/task_manager.c ****     tsk_ptr->statistics_reg.Reg.TskFun_Statistics_REG = stop_statistics;
 791:SYS/task_manager/task_manager.c **** }
 792:SYS/task_manager/task_manager.c **** 
 793:SYS/task_manager/task_manager.c **** //Remove func untest
 794:SYS/task_manager/task_manager.c **** void Task_Remove(Task_Handler Tsk_Hdl)
 795:SYS/task_manager/task_manager.c **** {
 796:SYS/task_manager/task_manager.c ****     //convert Tsk_Hdl from uint32_t var to Task Address which we need to delete
 797:SYS/task_manager/task_manager.c ****     //free that memory space
 798:SYS/task_manager/task_manager.c ****     //erase all data in specificly memory space
 799:SYS/task_manager/task_manager.c ****     //set Task pointer to Null which we wanted to be delete
 800:SYS/task_manager/task_manager.c **** 
 801:SYS/task_manager/task_manager.c ****     uint8_t remove_group = GET_TASKGROUP_PRIORITY(((Task *)Tsk_Hdl)->priority.Priority);
 802:SYS/task_manager/task_manager.c ****     uint8_t remove_task = GET_TASKINGROUP_PRIORITY(((Task *)Tsk_Hdl)->priority.Priority);
 803:SYS/task_manager/task_manager.c **** 
ARM GAS  /var/folders/lx/hc4sn_b53233_zkc9xbbl97r0000gp/T//ccr3Mjaw.s 			page 34


 804:SYS/task_manager/task_manager.c ****     ReSet_Task_Data((Task *)Tsk_Hdl);
 805:SYS/task_manager/task_manager.c **** 
 806:SYS/task_manager/task_manager.c **** #if (TASK_SCHEDULER_TYPE == PREEMPTIVE_SCHDULER)
 807:SYS/task_manager/task_manager.c ****     free((uint32_t *)((Task *)Tsk_Hdl)->TCB.Stack);
 808:SYS/task_manager/task_manager.c ****     free((uint32_t *)((Task *)Tsk_Hdl)->TCB.Top_Stk_Ptr);
 809:SYS/task_manager/task_manager.c **** #endif
 810:SYS/task_manager/task_manager.c **** 
 811:SYS/task_manager/task_manager.c ****     free((Task *)Tsk_Hdl);
 812:SYS/task_manager/task_manager.c ****     Task_Ptr[remove_group][remove_task] = NULL;
 813:SYS/task_manager/task_manager.c **** }
 814:SYS/task_manager/task_manager.c **** 
 815:SYS/task_manager/task_manager.c **** void TaskSystem_Start(void)
 816:SYS/task_manager/task_manager.c **** {
 817:SYS/task_manager/task_manager.c ****     Runtime_Config(RUNTIME_TICK_FRQ_40K);
 818:SYS/task_manager/task_manager.c ****     Runtime_Set_start_Callback(NULL);
 819:SYS/task_manager/task_manager.c ****     Runtime_Set_stop_Callback(NULL);
 820:SYS/task_manager/task_manager.c ****     Runtime_Set_tick_Callback(Task_Scheduler); /* 5us cast by calling the scheduler */
 821:SYS/task_manager/task_manager.c ****     Runtime_Start();
 822:SYS/task_manager/task_manager.c **** 
 823:SYS/task_manager/task_manager.c ****     RuntimeObj_Reset(&TaskSys_StartTime);
 824:SYS/task_manager/task_manager.c **** 
 825:SYS/task_manager/task_manager.c ****     TaskSys_StartTime = Get_CurrentRunningUs();
 826:SYS/task_manager/task_manager.c **** 
 827:SYS/task_manager/task_manager.c **** #if (TASK_SCHEDULER_TYPE == PREEMPTIVE_SCHDULER)
 828:SYS/task_manager/task_manager.c ****     NxtRunTsk_Ptr = Task_Get_HighestRank_RdyTask();
 829:SYS/task_manager/task_manager.c **** 
 830:SYS/task_manager/task_manager.c ****     if (NxtRunTsk_Ptr != NULL)
 831:SYS/task_manager/task_manager.c ****     {
 832:SYS/task_manager/task_manager.c ****         NxtTsk_TCB.Top_Stk_Ptr = &NxtRunTsk_Ptr->TCB.Top_Stk_Ptr;
 833:SYS/task_manager/task_manager.c ****         NxtTsk_TCB.Stack = NxtRunTsk_Ptr->TCB.Stack;
 834:SYS/task_manager/task_manager.c **** 
 835:SYS/task_manager/task_manager.c ****         CurTsk_TCB = NxtTsk_TCB;
 836:SYS/task_manager/task_manager.c ****     }
 837:SYS/task_manager/task_manager.c **** #endif
 838:SYS/task_manager/task_manager.c **** 
 839:SYS/task_manager/task_manager.c ****     Task_SetPendSVPro();
 840:SYS/task_manager/task_manager.c ****     Task_TriggerPendSV();
 841:SYS/task_manager/task_manager.c **** 
 842:SYS/task_manager/task_manager.c ****     return true;
 843:SYS/task_manager/task_manager.c **** }
 844:SYS/task_manager/task_manager.c **** 
 845:SYS/task_manager/task_manager.c **** void Task_SetRunState(Task_Handler Tsk_Handle, TASK_STATE state)
 846:SYS/task_manager/task_manager.c **** {
 847:SYS/task_manager/task_manager.c ****     ((Task *)Tsk_Handle)->Exec_status.State = state;
 848:SYS/task_manager/task_manager.c **** }
 849:SYS/task_manager/task_manager.c **** 
 850:SYS/task_manager/task_manager.c **** void Task_CountRunningTime(void)
 851:SYS/task_manager/task_manager.c **** {
 852:SYS/task_manager/task_manager.c ****     if (CurRunTsk_Ptr != NULL)
 853:SYS/task_manager/task_manager.c ****     {
 854:SYS/task_manager/task_manager.c ****         RunTime_Tick();
 855:SYS/task_manager/task_manager.c **** 
 856:SYS/task_manager/task_manager.c ****         if (CurRunTsk_Ptr->statistics_reg.Reg.TskFun_Statistics_REG == start_statistics)
 857:SYS/task_manager/task_manager.c ****         {
 858:SYS/task_manager/task_manager.c ****             CurRunTsk_Ptr->TskFuncUing_US++;
 859:SYS/task_manager/task_manager.c ****         }
 860:SYS/task_manager/task_manager.c **** 
ARM GAS  /var/folders/lx/hc4sn_b53233_zkc9xbbl97r0000gp/T//ccr3Mjaw.s 			page 35


 861:SYS/task_manager/task_manager.c ****         if (CurRunTsk_Ptr->statistics_reg.Reg.TskFun_Statistics_REG == start_statistics)
 862:SYS/task_manager/task_manager.c ****         {
 863:SYS/task_manager/task_manager.c ****             CurRunTsk_Ptr->CallerUsing_US++;
 864:SYS/task_manager/task_manager.c ****         }
 865:SYS/task_manager/task_manager.c ****     }
 866:SYS/task_manager/task_manager.c **** }
 867:SYS/task_manager/task_manager.c **** 
 868:SYS/task_manager/task_manager.c **** static Task *Get_TaskInstance(uint8_t group, uint8_t priority)
 869:SYS/task_manager/task_manager.c **** {
 870:SYS/task_manager/task_manager.c ****     return Task_Ptr[group][priority];
 871:SYS/task_manager/task_manager.c **** }
 872:SYS/task_manager/task_manager.c **** 
 873:SYS/task_manager/task_manager.c **** static void Task_Exec(Task *tsk_ptr)
 874:SYS/task_manager/task_manager.c **** {
 953              		.loc 1 874 1 is_stmt 1 view -0
 954              		.cfi_startproc
 955              		@ Volatile: function does not return.
 956              		@ args = 0, pretend = 0, frame = 8
 957              		@ frame_needed = 0, uses_anonymous_args = 0
 958              		.loc 1 874 1 is_stmt 0 view .LVU269
 959 0000 00B5     		push	{lr}
 960              	.LCFI16:
 961              		.cfi_def_cfa_offset 4
 962              		.cfi_offset 14, -4
 963 0002 83B0     		sub	sp, sp, #12
 964              	.LCFI17:
 965              		.cfi_def_cfa_offset 16
 966 0004 0446     		mov	r4, r0
 875:SYS/task_manager/task_manager.c ****     SYSTEM_RunTime time_diff;
 967              		.loc 1 875 5 is_stmt 1 view .LVU270
 876:SYS/task_manager/task_manager.c **** 
 877:SYS/task_manager/task_manager.c ****     RuntimeObj_Reset(&time_diff);
 968              		.loc 1 877 5 view .LVU271
 969 0006 6846     		mov	r0, sp
 970              	.LVL61:
 971              		.loc 1 877 5 is_stmt 0 view .LVU272
 972 0008 FFF7FEFF 		bl	RuntimeObj_Reset
 973              	.LVL62:
 974 000c 42E0     		b	.L73
 975              	.L75:
 878:SYS/task_manager/task_manager.c **** 
 879:SYS/task_manager/task_manager.c ****     while (true)
 880:SYS/task_manager/task_manager.c ****     {
 881:SYS/task_manager/task_manager.c ****         if (tsk_ptr->Exec_status.State == Task_Ready)
 882:SYS/task_manager/task_manager.c ****         {
 883:SYS/task_manager/task_manager.c ****             //Task_Set_CountRunnigTime_State(tsk_ptr, ENABLE);
 884:SYS/task_manager/task_manager.c **** 
 885:SYS/task_manager/task_manager.c ****             //set current running task
 886:SYS/task_manager/task_manager.c ****             CurRunTsk_Ptr = tsk_ptr;
 887:SYS/task_manager/task_manager.c **** 
 888:SYS/task_manager/task_manager.c ****             if (tsk_ptr->Exec_status.Exec_Times == 0)
 889:SYS/task_manager/task_manager.c ****             {
 890:SYS/task_manager/task_manager.c ****                 tsk_ptr->Exec_status.Start_Time = Get_CurrentRunningUs();
 976              		.loc 1 890 17 is_stmt 1 view .LVU273
 977              		.loc 1 890 51 is_stmt 0 view .LVU274
 978 000e FFF7FEFF 		bl	Get_CurrentRunningUs
 979              	.LVL63:
ARM GAS  /var/folders/lx/hc4sn_b53233_zkc9xbbl97r0000gp/T//ccr3Mjaw.s 			page 36


 980              		.loc 1 890 49 view .LVU275
 981 0012 E061     		str	r0, [r4, #28]
 982 0014 2162     		str	r1, [r4, #32]
 891:SYS/task_manager/task_manager.c ****                 tsk_ptr->Exec_status.Exec_Time = tsk_ptr->Exec_status.Start_Time;
 983              		.loc 1 891 17 is_stmt 1 view .LVU276
 984              		.loc 1 891 48 is_stmt 0 view .LVU277
 985 0016 6062     		str	r0, [r4, #36]
 986 0018 A162     		str	r1, [r4, #40]
 987 001a 44E0     		b	.L69
 988              	.L76:
 892:SYS/task_manager/task_manager.c ****             }
 893:SYS/task_manager/task_manager.c **** 
 894:SYS/task_manager/task_manager.c ****             tsk_ptr->Exec_status.State = Task_Running;
 895:SYS/task_manager/task_manager.c ****             //Task_StartCountTargetFunc_Cast(tsk_ptr);
 896:SYS/task_manager/task_manager.c **** 
 897:SYS/task_manager/task_manager.c ****             //execute task funtion
 898:SYS/task_manager/task_manager.c ****             tsk_ptr->Exec_Func(*&tsk_ptr);
 899:SYS/task_manager/task_manager.c **** 
 900:SYS/task_manager/task_manager.c ****             //get current task execut time
 901:SYS/task_manager/task_manager.c ****             //Task_StopCountTargetFunc_Cast(tsk_ptr);
 902:SYS/task_manager/task_manager.c **** 
 903:SYS/task_manager/task_manager.c ****             if (tsk_ptr->Exec_status.State == Task_Running)
 904:SYS/task_manager/task_manager.c ****             {
 905:SYS/task_manager/task_manager.c ****                 //when task function execute finish reset ready flag of current task in group
 906:SYS/task_manager/task_manager.c ****                 //code down below
 907:SYS/task_manager/task_manager.c ****                 Task_ClearReady(tsk_ptr);
 989              		.loc 1 907 17 is_stmt 1 view .LVU278
 990 001c 2046     		mov	r0, r4
 991 001e FFF7FEFF 		bl	Task_ClearReady
 992              	.LVL64:
 908:SYS/task_manager/task_manager.c **** 
 909:SYS/task_manager/task_manager.c ****                 tsk_ptr->Exec_status.State = Task_Stop;
 993              		.loc 1 909 17 view .LVU279
 994              		.loc 1 909 44 is_stmt 0 view .LVU280
 995 0022 0223     		movs	r3, #2
 996 0024 84F84C30 		strb	r3, [r4, #76]
 910:SYS/task_manager/task_manager.c **** 
 911:SYS/task_manager/task_manager.c ****                 //record task running times
 912:SYS/task_manager/task_manager.c ****                 tsk_ptr->Exec_status.Exec_Times++;
 997              		.loc 1 912 17 is_stmt 1 view .LVU281
 998              		.loc 1 912 37 is_stmt 0 view .LVU282
 999 0028 A36B     		ldr	r3, [r4, #56]
 1000              		.loc 1 912 48 view .LVU283
 1001 002a 0133     		adds	r3, r3, #1
 1002 002c A363     		str	r3, [r4, #56]
 913:SYS/task_manager/task_manager.c **** 
 914:SYS/task_manager/task_manager.c ****                 //get max task execut time
 915:SYS/task_manager/task_manager.c ****                 if (tsk_ptr->TskFuncUing_US > tsk_ptr->Exec_status.detect_exec_time_max)
 1003              		.loc 1 915 17 is_stmt 1 view .LVU284
 1004              		.loc 1 915 28 is_stmt 0 view .LVU285
 1005 002e 226E     		ldr	r2, [r4, #96]
 1006              		.loc 1 915 67 view .LVU286
 1007 0030 636B     		ldr	r3, [r4, #52]
 1008              		.loc 1 915 20 view .LVU287
 1009 0032 9A42     		cmp	r2, r3
 1010 0034 00D9     		bls	.L71
 916:SYS/task_manager/task_manager.c ****                 {
ARM GAS  /var/folders/lx/hc4sn_b53233_zkc9xbbl97r0000gp/T//ccr3Mjaw.s 			page 37


 917:SYS/task_manager/task_manager.c ****                     tsk_ptr->Exec_status.detect_exec_time_max = tsk_ptr->TskFuncUing_US;
 1011              		.loc 1 917 21 is_stmt 1 view .LVU288
 1012              		.loc 1 917 63 is_stmt 0 view .LVU289
 1013 0036 6263     		str	r2, [r4, #52]
 1014              	.L71:
 918:SYS/task_manager/task_manager.c ****                 }
 919:SYS/task_manager/task_manager.c **** 
 920:SYS/task_manager/task_manager.c ****                 //get task total execute time unit in us
 921:SYS/task_manager/task_manager.c ****                 tsk_ptr->Exec_status.totlal_running_time += tsk_ptr->TskFuncUing_US;
 1015              		.loc 1 921 17 is_stmt 1 view .LVU290
 1016              		.loc 1 921 58 is_stmt 0 view .LVU291
 1017 0038 636C     		ldr	r3, [r4, #68]
 1018 003a 1344     		add	r3, r3, r2
 1019 003c 6364     		str	r3, [r4, #68]
 922:SYS/task_manager/task_manager.c ****                 time_diff = Get_TimeDifference_Between(tsk_ptr->Exec_status.Start_Time, tsk_ptr->Ex
 1020              		.loc 1 922 17 is_stmt 1 view .LVU292
 1021              		.loc 1 922 29 is_stmt 0 view .LVU293
 1022 003e 626A     		ldr	r2, [r4, #36]
 1023 0040 A36A     		ldr	r3, [r4, #40]
 1024 0042 E069     		ldr	r0, [r4, #28]
 1025 0044 216A     		ldr	r1, [r4, #32]
 1026 0046 FFF7FEFF 		bl	Get_TimeDifference_Between
 1027              	.LVL65:
 1028 004a 0246     		mov	r2, r0
 1029 004c 0B46     		mov	r3, r1
 1030              		.loc 1 922 27 view .LVU294
 1031 004e CDE90023 		strd	r2, [sp]
 923:SYS/task_manager/task_manager.c **** 
 924:SYS/task_manager/task_manager.c ****                 tsk_ptr->Exec_status.cpu_opy = tsk_ptr->Exec_status.totlal_running_time / (float)ti
 1032              		.loc 1 924 17 is_stmt 1 view .LVU295
 1033              		.loc 1 924 68 is_stmt 0 view .LVU296
 1034 0052 656C     		ldr	r5, [r4, #68]
 1035              		.loc 1 924 91 view .LVU297
 1036 0054 FFF7FEFF 		bl	__aeabi_ul2f
 1037              	.LVL66:
 1038 0058 06EE900A 		vmov	s13, r0
 1039              		.loc 1 924 89 view .LVU298
 1040 005c 07EE905A 		vmov	s15, r5	@ int
 1041 0060 F8EE677A 		vcvt.f32.u32	s15, s15
 1042 0064 87EEA67A 		vdiv.f32	s14, s15, s13
 1043              		.loc 1 924 46 view .LVU299
 1044 0068 84ED127A 		vstr.32	s14, [r4, #72]
 925:SYS/task_manager/task_manager.c **** 
 926:SYS/task_manager/task_manager.c ****                 //get average task running time
 927:SYS/task_manager/task_manager.c ****                 tsk_ptr->Exec_status.detect_exec_time_arv += tsk_ptr->TskFuncUing_US;
 1045              		.loc 1 927 17 is_stmt 1 view .LVU300
 1046              		.loc 1 927 69 is_stmt 0 view .LVU301
 1047 006c 236E     		ldr	r3, [r4, #96]
 1048              		.loc 1 927 59 view .LVU302
 1049 006e 226B     		ldr	r2, [r4, #48]
 1050 0070 1344     		add	r3, r3, r2
 1051 0072 2363     		str	r3, [r4, #48]
 928:SYS/task_manager/task_manager.c ****                 if (tsk_ptr->Exec_status.Exec_Times > 1)
 1052              		.loc 1 928 17 is_stmt 1 view .LVU303
 1053              		.loc 1 928 41 is_stmt 0 view .LVU304
 1054 0074 A26B     		ldr	r2, [r4, #56]
 1055              		.loc 1 928 20 view .LVU305
ARM GAS  /var/folders/lx/hc4sn_b53233_zkc9xbbl97r0000gp/T//ccr3Mjaw.s 			page 38


 1056 0076 012A     		cmp	r2, #1
 1057 0078 01D9     		bls	.L72
 929:SYS/task_manager/task_manager.c ****                 {
 930:SYS/task_manager/task_manager.c ****                     tsk_ptr->Exec_status.detect_exec_time_arv /= 2;
 1058              		.loc 1 930 21 is_stmt 1 view .LVU306
 1059              		.loc 1 930 63 is_stmt 0 view .LVU307
 1060 007a 5B08     		lsrs	r3, r3, #1
 1061 007c 2363     		str	r3, [r4, #48]
 1062              	.L72:
 931:SYS/task_manager/task_manager.c ****                 }
 932:SYS/task_manager/task_manager.c **** 
 933:SYS/task_manager/task_manager.c ****                 tsk_ptr->Exec_status.Exec_Time = Get_TargetRunTime(tsk_ptr->exec_interval_us);
 1063              		.loc 1 933 17 is_stmt 1 view .LVU308
 1064              		.loc 1 933 50 is_stmt 0 view .LVU309
 1065 007e A089     		ldrh	r0, [r4, #12]
 1066 0080 FFF7FEFF 		bl	Get_TargetRunTime
 1067              	.LVL67:
 1068              		.loc 1 933 48 view .LVU310
 1069 0084 6062     		str	r0, [r4, #36]
 1070 0086 A162     		str	r1, [r4, #40]
 1071 0088 17E0     		b	.L70
 1072              	.L68:
 934:SYS/task_manager/task_manager.c ****             }
 935:SYS/task_manager/task_manager.c **** 
 936:SYS/task_manager/task_manager.c ****             //get task execute frequence
 937:SYS/task_manager/task_manager.c ****             if (tsk_ptr->Exec_status.Exec_Times)
 938:SYS/task_manager/task_manager.c ****             {
 939:SYS/task_manager/task_manager.c ****                 tsk_ptr->Exec_status.detect_exec_frq = (uint32_t)(tsk_ptr->Exec_status.Exec_Times /
 940:SYS/task_manager/task_manager.c ****             }
 941:SYS/task_manager/task_manager.c **** 
 942:SYS/task_manager/task_manager.c ****             //stop counting caller using us time
 943:SYS/task_manager/task_manager.c ****             //Task_Set_CountRunnigTime_State(tsk_ptr, DISABLE);
 944:SYS/task_manager/task_manager.c ****         }
 945:SYS/task_manager/task_manager.c ****         //erase currnet runnint task pointer
 946:SYS/task_manager/task_manager.c ****         CurRunTsk_Ptr = NULL;
 1073              		.loc 1 946 9 is_stmt 1 view .LVU311
 1074              		.loc 1 946 23 is_stmt 0 view .LVU312
 1075 008a 0020     		movs	r0, #0
 1076 008c 154B     		ldr	r3, .L77
 1077 008e 1860     		str	r0, [r3]
 947:SYS/task_manager/task_manager.c **** 
 948:SYS/task_manager/task_manager.c ****         //enable systick handler
 949:SYS/task_manager/task_manager.c ****         Task_SetBASEPRI(0);
 1078              		.loc 1 949 9 is_stmt 1 view .LVU313
 1079 0090 FFF7FEFF 		bl	Task_SetBASEPRI
 1080              	.LVL68:
 879:SYS/task_manager/task_manager.c ****     {
 1081              		.loc 1 879 11 view .LVU314
 1082              	.L73:
 879:SYS/task_manager/task_manager.c ****     {
 1083              		.loc 1 879 5 view .LVU315
 881:SYS/task_manager/task_manager.c ****         {
 1084              		.loc 1 881 9 view .LVU316
 881:SYS/task_manager/task_manager.c ****         {
 1085              		.loc 1 881 33 is_stmt 0 view .LVU317
 1086 0094 94F84C30 		ldrb	r3, [r4, #76]	@ zero_extendqisi2
 881:SYS/task_manager/task_manager.c ****         {
ARM GAS  /var/folders/lx/hc4sn_b53233_zkc9xbbl97r0000gp/T//ccr3Mjaw.s 			page 39


 1087              		.loc 1 881 12 view .LVU318
 1088 0098 002B     		cmp	r3, #0
 1089 009a F6D1     		bne	.L68
 886:SYS/task_manager/task_manager.c **** 
 1090              		.loc 1 886 13 is_stmt 1 view .LVU319
 886:SYS/task_manager/task_manager.c **** 
 1091              		.loc 1 886 27 is_stmt 0 view .LVU320
 1092 009c 114B     		ldr	r3, .L77
 1093 009e 1C60     		str	r4, [r3]
 888:SYS/task_manager/task_manager.c ****             {
 1094              		.loc 1 888 13 is_stmt 1 view .LVU321
 888:SYS/task_manager/task_manager.c ****             {
 1095              		.loc 1 888 37 is_stmt 0 view .LVU322
 1096 00a0 A36B     		ldr	r3, [r4, #56]
 888:SYS/task_manager/task_manager.c ****             {
 1097              		.loc 1 888 16 view .LVU323
 1098 00a2 002B     		cmp	r3, #0
 1099 00a4 B3D0     		beq	.L75
 1100              	.L69:
 894:SYS/task_manager/task_manager.c ****             //Task_StartCountTargetFunc_Cast(tsk_ptr);
 1101              		.loc 1 894 13 is_stmt 1 view .LVU324
 894:SYS/task_manager/task_manager.c ****             //Task_StartCountTargetFunc_Cast(tsk_ptr);
 1102              		.loc 1 894 40 is_stmt 0 view .LVU325
 1103 00a6 0123     		movs	r3, #1
 1104 00a8 84F84C30 		strb	r3, [r4, #76]
 898:SYS/task_manager/task_manager.c **** 
 1105              		.loc 1 898 13 is_stmt 1 view .LVU326
 898:SYS/task_manager/task_manager.c **** 
 1106              		.loc 1 898 20 is_stmt 0 view .LVU327
 1107 00ac 2369     		ldr	r3, [r4, #16]
 898:SYS/task_manager/task_manager.c **** 
 1108              		.loc 1 898 13 view .LVU328
 1109 00ae 2046     		mov	r0, r4
 1110 00b0 9847     		blx	r3
 1111              	.LVL69:
 903:SYS/task_manager/task_manager.c ****             {
 1112              		.loc 1 903 13 is_stmt 1 view .LVU329
 903:SYS/task_manager/task_manager.c ****             {
 1113              		.loc 1 903 37 is_stmt 0 view .LVU330
 1114 00b2 94F84C30 		ldrb	r3, [r4, #76]	@ zero_extendqisi2
 903:SYS/task_manager/task_manager.c ****             {
 1115              		.loc 1 903 16 view .LVU331
 1116 00b6 012B     		cmp	r3, #1
 1117 00b8 B0D0     		beq	.L76
 1118              	.L70:
 937:SYS/task_manager/task_manager.c ****             {
 1119              		.loc 1 937 13 is_stmt 1 view .LVU332
 937:SYS/task_manager/task_manager.c ****             {
 1120              		.loc 1 937 37 is_stmt 0 view .LVU333
 1121 00ba A56B     		ldr	r5, [r4, #56]
 937:SYS/task_manager/task_manager.c ****             {
 1122              		.loc 1 937 16 view .LVU334
 1123 00bc 002D     		cmp	r5, #0
 1124 00be E4D0     		beq	.L68
 939:SYS/task_manager/task_manager.c ****             }
 1125              		.loc 1 939 17 is_stmt 1 view .LVU335
 939:SYS/task_manager/task_manager.c ****             }
ARM GAS  /var/folders/lx/hc4sn_b53233_zkc9xbbl97r0000gp/T//ccr3Mjaw.s 			page 40


 1126              		.loc 1 939 101 is_stmt 0 view .LVU336
 1127 00c0 606A     		ldr	r0, [r4, #36]
 1128 00c2 A16A     		ldr	r1, [r4, #40]
 1129 00c4 FFF7FEFF 		bl	__aeabi_ul2f
 1130              	.LVL70:
 1131 00c8 06EE900A 		vmov	s13, r0
 939:SYS/task_manager/task_manager.c ****             }
 1132              		.loc 1 939 99 view .LVU337
 1133 00cc 07EE905A 		vmov	s15, r5	@ int
 1134 00d0 F8EE677A 		vcvt.f32.u32	s15, s15
 1135 00d4 87EEA67A 		vdiv.f32	s14, s15, s13
 939:SYS/task_manager/task_manager.c ****             }
 1136              		.loc 1 939 56 view .LVU338
 1137 00d8 BCEEC77A 		vcvt.u32.f32	s14, s14
 939:SYS/task_manager/task_manager.c ****             }
 1138              		.loc 1 939 54 view .LVU339
 1139 00dc 84ED0B7A 		vstr.32	s14, [r4, #44]	@ int
 1140 00e0 D3E7     		b	.L68
 1141              	.L78:
 1142 00e2 00BF     		.align	2
 1143              	.L77:
 1144 00e4 00000000 		.word	.LANCHOR6
 1145              		.cfi_endproc
 1146              	.LFE165:
 1148              		.section	.text.Task_Caller,"ax",%progbits
 1149              		.align	1
 1150              		.global	Task_Caller
 1151              		.syntax unified
 1152              		.thumb
 1153              		.thumb_func
 1154              		.fpu fpv4-sp-d16
 1156              	Task_Caller:
 1157              	.LFB168:
 950:SYS/task_manager/task_manager.c ****     }
 951:SYS/task_manager/task_manager.c **** }
 952:SYS/task_manager/task_manager.c **** 
 953:SYS/task_manager/task_manager.c **** uint32_t Task_Get_IdleUS(void)
 954:SYS/task_manager/task_manager.c **** {
 955:SYS/task_manager/task_manager.c ****     return TaskSys_Idle_US;
 956:SYS/task_manager/task_manager.c **** }
 957:SYS/task_manager/task_manager.c **** 
 958:SYS/task_manager/task_manager.c **** float Task_Get_IdleOcupy(void)
 959:SYS/task_manager/task_manager.c **** {
 960:SYS/task_manager/task_manager.c ****     return TaskSys_Idle_Ocupy;
 961:SYS/task_manager/task_manager.c **** }
 962:SYS/task_manager/task_manager.c **** 
 963:SYS/task_manager/task_manager.c **** void Task_Caller(void)
 964:SYS/task_manager/task_manager.c **** {
 1158              		.loc 1 964 1 is_stmt 1 view -0
 1159              		.cfi_startproc
 1160              		@ args = 0, pretend = 0, frame = 0
 1161              		@ frame_needed = 0, uses_anonymous_args = 0
 1162 0000 08B5     		push	{r3, lr}
 1163              	.LCFI18:
 1164              		.cfi_def_cfa_offset 8
 1165              		.cfi_offset 3, -8
 1166              		.cfi_offset 14, -4
ARM GAS  /var/folders/lx/hc4sn_b53233_zkc9xbbl97r0000gp/T//ccr3Mjaw.s 			page 41


 965:SYS/task_manager/task_manager.c ****     //if any task in any group is under ready state
 966:SYS/task_manager/task_manager.c ****     if (NxtRunTsk_Ptr != NULL)
 1167              		.loc 1 966 5 view .LVU341
 1168              		.loc 1 966 23 is_stmt 0 view .LVU342
 1169 0002 034B     		ldr	r3, .L83
 1170 0004 1868     		ldr	r0, [r3]
 1171              		.loc 1 966 8 view .LVU343
 1172 0006 00B9     		cbnz	r0, .L82
 967:SYS/task_manager/task_manager.c ****     {
 968:SYS/task_manager/task_manager.c ****         //execute task function in function matrix
 969:SYS/task_manager/task_manager.c ****         Task_Exec(NxtRunTsk_Ptr);
 970:SYS/task_manager/task_manager.c ****     }
 971:SYS/task_manager/task_manager.c **** }
 1173              		.loc 1 971 1 view .LVU344
 1174 0008 08BD     		pop	{r3, pc}
 1175              	.L82:
 969:SYS/task_manager/task_manager.c ****     }
 1176              		.loc 1 969 9 is_stmt 1 view .LVU345
 1177 000a FFF7FEFF 		bl	Task_Exec
 1178              	.LVL71:
 1179              	.L84:
 1180 000e 00BF     		.align	2
 1181              	.L83:
 1182 0010 00000000 		.word	.LANCHOR11
 1183              		.cfi_endproc
 1184              	.LFE168:
 1186              		.section	.text.Task_CrtList_TraversePoll_callback,"ax",%progbits
 1187              		.align	1
 1188              		.syntax unified
 1189              		.thumb
 1190              		.thumb_func
 1191              		.fpu fpv4-sp-d16
 1193              	Task_CrtList_TraversePoll_callback:
 1194              	.LVL72:
 1195              	.LFB171:
 972:SYS/task_manager/task_manager.c **** 
 973:SYS/task_manager/task_manager.c **** void TaskSys_Set_State(TaskSys_State state)
 974:SYS/task_manager/task_manager.c **** {
 975:SYS/task_manager/task_manager.c ****     TskSys_state = state;
 976:SYS/task_manager/task_manager.c **** }
 977:SYS/task_manager/task_manager.c **** 
 978:SYS/task_manager/task_manager.c **** TaskSys_State TaskSys_Get_State(void)
 979:SYS/task_manager/task_manager.c **** {
 980:SYS/task_manager/task_manager.c ****     return TskSys_state;
 981:SYS/task_manager/task_manager.c **** }
 982:SYS/task_manager/task_manager.c **** 
 983:SYS/task_manager/task_manager.c **** static void Task_CrtList_TraversePoll_callback(item_obj *item, void *data, void *arg)
 984:SYS/task_manager/task_manager.c **** {
 1196              		.loc 1 984 1 view -0
 1197              		.cfi_startproc
 1198              		@ args = 0, pretend = 0, frame = 0
 1199              		@ frame_needed = 0, uses_anonymous_args = 0
 985:SYS/task_manager/task_manager.c ****     Task *tmp = NULL;
 1200              		.loc 1 985 5 view .LVU347
 986:SYS/task_manager/task_manager.c **** 
 987:SYS/task_manager/task_manager.c ****     if (data != NULL)
 1201              		.loc 1 987 5 view .LVU348
ARM GAS  /var/folders/lx/hc4sn_b53233_zkc9xbbl97r0000gp/T//ccr3Mjaw.s 			page 42


 1202              		.loc 1 987 8 is_stmt 0 view .LVU349
 1203 0000 A9B1     		cbz	r1, .L88
 984:SYS/task_manager/task_manager.c ****     Task *tmp = NULL;
 1204              		.loc 1 984 1 view .LVU350
 1205 0002 10B5     		push	{r4, lr}
 1206              	.LCFI19:
 1207              		.cfi_def_cfa_offset 8
 1208              		.cfi_offset 4, -8
 1209              		.cfi_offset 14, -4
 1210 0004 0C46     		mov	r4, r1
 988:SYS/task_manager/task_manager.c ****     {
 989:SYS/task_manager/task_manager.c ****         tmp = (Task *)data;
 1211              		.loc 1 989 9 is_stmt 1 view .LVU351
 1212              	.LVL73:
 990:SYS/task_manager/task_manager.c **** 
 991:SYS/task_manager/task_manager.c ****         //get current highest priority task handler AKA NxtRunTsk_Ptr
 992:SYS/task_manager/task_manager.c ****         if (TskSys_state == TaskSys_Start)
 1213              		.loc 1 992 9 view .LVU352
 1214              		.loc 1 992 26 is_stmt 0 view .LVU353
 1215 0006 0A4B     		ldr	r3, .L92
 1216 0008 1B78     		ldrb	r3, [r3]	@ zero_extendqisi2
 1217 000a DBB2     		uxtb	r3, r3
 1218              		.loc 1 992 12 view .LVU354
 1219 000c 022B     		cmp	r3, #2
 1220 000e 00D0     		beq	.L91
 1221              	.LVL74:
 1222              	.L85:
 993:SYS/task_manager/task_manager.c ****         {
 994:SYS/task_manager/task_manager.c ****             if ((tmp->Exec_status.State == Task_Stop) && (!RuntimeObj_CompareWithCurrent(tmp->Exec_
 995:SYS/task_manager/task_manager.c ****             {
 996:SYS/task_manager/task_manager.c ****                 Task_SetReady(tmp);
 997:SYS/task_manager/task_manager.c ****             }
 998:SYS/task_manager/task_manager.c ****         }
 999:SYS/task_manager/task_manager.c ****     }
1000:SYS/task_manager/task_manager.c **** }
 1223              		.loc 1 1000 1 view .LVU355
 1224 0010 10BD     		pop	{r4, pc}
 1225              	.LVL75:
 1226              	.L91:
 994:SYS/task_manager/task_manager.c ****             {
 1227              		.loc 1 994 13 is_stmt 1 view .LVU356
 994:SYS/task_manager/task_manager.c ****             {
 1228              		.loc 1 994 34 is_stmt 0 view .LVU357
 1229 0012 91F84C30 		ldrb	r3, [r1, #76]	@ zero_extendqisi2
 994:SYS/task_manager/task_manager.c ****             {
 1230              		.loc 1 994 16 view .LVU358
 1231 0016 022B     		cmp	r3, #2
 1232 0018 FAD1     		bne	.L85
 994:SYS/task_manager/task_manager.c ****             {
 1233              		.loc 1 994 60 discriminator 1 view .LVU359
 1234 001a 486A     		ldr	r0, [r1, #36]
 1235              	.LVL76:
 994:SYS/task_manager/task_manager.c ****             {
 1236              		.loc 1 994 60 discriminator 1 view .LVU360
 1237 001c 896A     		ldr	r1, [r1, #40]
 1238              	.LVL77:
 994:SYS/task_manager/task_manager.c ****             {
ARM GAS  /var/folders/lx/hc4sn_b53233_zkc9xbbl97r0000gp/T//ccr3Mjaw.s 			page 43


 1239              		.loc 1 994 60 discriminator 1 view .LVU361
 1240 001e FFF7FEFF 		bl	RuntimeObj_CompareWithCurrent
 1241              	.LVL78:
 994:SYS/task_manager/task_manager.c ****             {
 1242              		.loc 1 994 55 discriminator 1 view .LVU362
 1243 0022 0028     		cmp	r0, #0
 1244 0024 F4D1     		bne	.L85
 996:SYS/task_manager/task_manager.c ****             }
 1245              		.loc 1 996 17 is_stmt 1 view .LVU363
 1246 0026 2046     		mov	r0, r4
 1247 0028 FFF7FEFF 		bl	Task_SetReady
 1248              	.LVL79:
 1249              		.loc 1 1000 1 is_stmt 0 view .LVU364
 1250 002c F0E7     		b	.L85
 1251              	.LVL80:
 1252              	.L88:
 1253              	.LCFI20:
 1254              		.cfi_def_cfa_offset 0
 1255              		.cfi_restore 4
 1256              		.cfi_restore 14
 1257              		.loc 1 1000 1 view .LVU365
 1258 002e 7047     		bx	lr
 1259              	.L93:
 1260              		.align	2
 1261              	.L92:
 1262 0030 00000000 		.word	.LANCHOR7
 1263              		.cfi_endproc
 1264              	.LFE171:
 1266              		.section	.text.Task_Resume_FromBlock,"ax",%progbits
 1267              		.align	1
 1268              		.global	Task_Resume_FromBlock
 1269              		.syntax unified
 1270              		.thumb
 1271              		.thumb_func
 1272              		.fpu fpv4-sp-d16
 1274              	Task_Resume_FromBlock:
 1275              	.LVL81:
 1276              	.LFB131:
 202:SYS/task_manager/task_manager.c ****     Task_ClearBlock(tsk);
 1277              		.loc 1 202 1 is_stmt 1 view -0
 1278              		.cfi_startproc
 1279              		@ args = 0, pretend = 0, frame = 0
 1280              		@ frame_needed = 0, uses_anonymous_args = 0
 202:SYS/task_manager/task_manager.c ****     Task_ClearBlock(tsk);
 1281              		.loc 1 202 1 is_stmt 0 view .LVU367
 1282 0000 10B5     		push	{r4, lr}
 1283              	.LCFI21:
 1284              		.cfi_def_cfa_offset 8
 1285              		.cfi_offset 4, -8
 1286              		.cfi_offset 14, -4
 1287 0002 0446     		mov	r4, r0
 203:SYS/task_manager/task_manager.c ****     Task_SetReady(tsk);
 1288              		.loc 1 203 5 is_stmt 1 view .LVU368
 1289 0004 FFF7FEFF 		bl	Task_ClearBlock
 1290              	.LVL82:
 204:SYS/task_manager/task_manager.c ****     //Task_Set_CountRunnigTime_State(tsk, ENABLE);
 1291              		.loc 1 204 5 view .LVU369
ARM GAS  /var/folders/lx/hc4sn_b53233_zkc9xbbl97r0000gp/T//ccr3Mjaw.s 			page 44


 1292 0008 2046     		mov	r0, r4
 1293 000a FFF7FEFF 		bl	Task_SetReady
 1294              	.LVL83:
 207:SYS/task_manager/task_manager.c ****     NxtTsk_TCB.Top_Stk_Ptr = &tsk->TCB.Top_Stk_Ptr;
 1295              		.loc 1 207 5 view .LVU370
 207:SYS/task_manager/task_manager.c ****     NxtTsk_TCB.Top_Stk_Ptr = &tsk->TCB.Top_Stk_Ptr;
 1296              		.loc 1 207 28 is_stmt 0 view .LVU371
 1297 000e 0123     		movs	r3, #1
 1298 0010 84F84C30 		strb	r3, [r4, #76]
 208:SYS/task_manager/task_manager.c ****     NxtTsk_TCB.Stack = tsk->TCB.Stack;
 1299              		.loc 1 208 5 is_stmt 1 view .LVU372
 208:SYS/task_manager/task_manager.c ****     NxtTsk_TCB.Stack = tsk->TCB.Stack;
 1300              		.loc 1 208 30 is_stmt 0 view .LVU373
 1301 0014 04F15402 		add	r2, r4, #84
 208:SYS/task_manager/task_manager.c ****     NxtTsk_TCB.Stack = tsk->TCB.Stack;
 1302              		.loc 1 208 28 view .LVU374
 1303 0018 034B     		ldr	r3, .L96
 1304 001a 1A60     		str	r2, [r3]
 209:SYS/task_manager/task_manager.c ****     CurRunTsk_Ptr = tsk;
 1305              		.loc 1 209 5 is_stmt 1 view .LVU375
 209:SYS/task_manager/task_manager.c ****     CurRunTsk_Ptr = tsk;
 1306              		.loc 1 209 32 is_stmt 0 view .LVU376
 1307 001c A26D     		ldr	r2, [r4, #88]
 209:SYS/task_manager/task_manager.c ****     CurRunTsk_Ptr = tsk;
 1308              		.loc 1 209 22 view .LVU377
 1309 001e 5A60     		str	r2, [r3, #4]
 210:SYS/task_manager/task_manager.c **** }
 1310              		.loc 1 210 5 is_stmt 1 view .LVU378
 210:SYS/task_manager/task_manager.c **** }
 1311              		.loc 1 210 19 is_stmt 0 view .LVU379
 1312 0020 024B     		ldr	r3, .L96+4
 1313 0022 1C60     		str	r4, [r3]
 211:SYS/task_manager/task_manager.c **** 
 1314              		.loc 1 211 1 view .LVU380
 1315 0024 10BD     		pop	{r4, pc}
 1316              	.LVL84:
 1317              	.L97:
 211:SYS/task_manager/task_manager.c **** 
 1318              		.loc 1 211 1 view .LVU381
 1319 0026 00BF     		.align	2
 1320              	.L96:
 1321 0028 00000000 		.word	.LANCHOR12
 1322 002c 00000000 		.word	.LANCHOR6
 1323              		.cfi_endproc
 1324              	.LFE131:
 1326              		.section	.text.Task_SetBlock,"ax",%progbits
 1327              		.align	1
 1328              		.global	Task_SetBlock
 1329              		.syntax unified
 1330              		.thumb
 1331              		.thumb_func
 1332              		.fpu fpv4-sp-d16
 1334              	Task_SetBlock:
 1335              	.LVL85:
 1336              	.LFB132:
 214:SYS/task_manager/task_manager.c ****     uint8_t grp_id = GET_TASKGROUP_PRIORITY(tsk->priority.Priority);
 1337              		.loc 1 214 1 is_stmt 1 view -0
ARM GAS  /var/folders/lx/hc4sn_b53233_zkc9xbbl97r0000gp/T//ccr3Mjaw.s 			page 45


 1338              		.cfi_startproc
 1339              		@ args = 0, pretend = 0, frame = 0
 1340              		@ frame_needed = 0, uses_anonymous_args = 0
 214:SYS/task_manager/task_manager.c ****     uint8_t grp_id = GET_TASKGROUP_PRIORITY(tsk->priority.Priority);
 1341              		.loc 1 214 1 is_stmt 0 view .LVU383
 1342 0000 10B5     		push	{r4, lr}
 1343              	.LCFI22:
 1344              		.cfi_def_cfa_offset 8
 1345              		.cfi_offset 4, -8
 1346              		.cfi_offset 14, -4
 215:SYS/task_manager/task_manager.c ****     uint8_t tsk_id = GET_TASKINGROUP_PRIORITY(tsk->priority.Priority);
 1347              		.loc 1 215 5 is_stmt 1 view .LVU384
 215:SYS/task_manager/task_manager.c ****     uint8_t tsk_id = GET_TASKINGROUP_PRIORITY(tsk->priority.Priority);
 1348              		.loc 1 215 22 is_stmt 0 view .LVU385
 1349 0002 0378     		ldrb	r3, [r0]	@ zero_extendqisi2
 215:SYS/task_manager/task_manager.c ****     uint8_t tsk_id = GET_TASKINGROUP_PRIORITY(tsk->priority.Priority);
 1350              		.loc 1 215 13 view .LVU386
 1351 0004 4FEAD30E 		lsr	lr, r3, #3
 1352              	.LVL86:
 216:SYS/task_manager/task_manager.c **** 
 1353              		.loc 1 216 5 is_stmt 1 view .LVU387
 216:SYS/task_manager/task_manager.c **** 
 1354              		.loc 1 216 13 is_stmt 0 view .LVU388
 1355 0008 03F00704 		and	r4, r3, #7
 1356              	.LVL87:
 219:SYS/task_manager/task_manager.c ****     //set current task under this group flag to block
 1357              		.loc 1 219 5 is_stmt 1 view .LVU389
 219:SYS/task_manager/task_manager.c ****     //set current task under this group flag to block
 1358              		.loc 1 219 27 is_stmt 0 view .LVU390
 1359 000c 144A     		ldr	r2, .L101
 1360 000e 1178     		ldrb	r1, [r2]	@ zero_extendqisi2
 219:SYS/task_manager/task_manager.c ****     //set current task under this group flag to block
 1361              		.loc 1 219 32 view .LVU391
 1362 0010 0123     		movs	r3, #1
 1363 0012 03FA0EFC 		lsl	ip, r3, lr
 219:SYS/task_manager/task_manager.c ****     //set current task under this group flag to block
 1364              		.loc 1 219 27 view .LVU392
 1365 0016 4FFA8CFC 		sxtb	ip, ip
 1366 001a 41EA0C01 		orr	r1, r1, ip
 1367 001e C9B2     		uxtb	r1, r1
 1368 0020 1170     		strb	r1, [r2]
 221:SYS/task_manager/task_manager.c **** 
 1369              		.loc 1 221 5 is_stmt 1 view .LVU393
 221:SYS/task_manager/task_manager.c **** 
 1370              		.loc 1 221 40 is_stmt 0 view .LVU394
 1371 0022 7244     		add	r2, r2, lr
 1372 0024 5178     		ldrb	r1, [r2, #1]	@ zero_extendqisi2
 221:SYS/task_manager/task_manager.c **** 
 1373              		.loc 1 221 45 view .LVU395
 1374 0026 A340     		lsls	r3, r3, r4
 221:SYS/task_manager/task_manager.c **** 
 1375              		.loc 1 221 40 view .LVU396
 1376 0028 5BB2     		sxtb	r3, r3
 1377 002a 1943     		orrs	r1, r1, r3
 1378 002c C9B2     		uxtb	r1, r1
 1379 002e 5170     		strb	r1, [r2, #1]
 224:SYS/task_manager/task_manager.c ****     //if no task ready then clear group reg
ARM GAS  /var/folders/lx/hc4sn_b53233_zkc9xbbl97r0000gp/T//ccr3Mjaw.s 			page 46


 1380              		.loc 1 224 5 is_stmt 1 view .LVU397
 224:SYS/task_manager/task_manager.c ****     //if no task ready then clear group reg
 1381              		.loc 1 224 40 is_stmt 0 view .LVU398
 1382 0030 0C4A     		ldr	r2, .L101+4
 1383 0032 7244     		add	r2, r2, lr
 1384 0034 5178     		ldrb	r1, [r2, #1]	@ zero_extendqisi2
 1385 0036 21EA0303 		bic	r3, r1, r3
 1386 003a 5370     		strb	r3, [r2, #1]
 226:SYS/task_manager/task_manager.c ****     {
 1387              		.loc 1 226 5 is_stmt 1 view .LVU399
 226:SYS/task_manager/task_manager.c ****     {
 1388              		.loc 1 226 39 is_stmt 0 view .LVU400
 1389 003c 5378     		ldrb	r3, [r2, #1]	@ zero_extendqisi2
 226:SYS/task_manager/task_manager.c ****     {
 1390              		.loc 1 226 8 view .LVU401
 1391 003e 2BB9     		cbnz	r3, .L99
 228:SYS/task_manager/task_manager.c ****     }
 1392              		.loc 1 228 9 is_stmt 1 view .LVU402
 228:SYS/task_manager/task_manager.c ****     }
 1393              		.loc 1 228 31 is_stmt 0 view .LVU403
 1394 0040 084A     		ldr	r2, .L101+4
 1395 0042 1378     		ldrb	r3, [r2]	@ zero_extendqisi2
 1396 0044 23EA0C0C 		bic	ip, r3, ip
 1397 0048 82F800C0 		strb	ip, [r2]
 1398              	.L99:
 232:SYS/task_manager/task_manager.c **** 
 1399              		.loc 1 232 5 is_stmt 1 view .LVU404
 232:SYS/task_manager/task_manager.c **** 
 1400              		.loc 1 232 28 is_stmt 0 view .LVU405
 1401 004c 0323     		movs	r3, #3
 1402 004e 80F84C30 		strb	r3, [r0, #76]
 237:SYS/task_manager/task_manager.c **** 
 1403              		.loc 1 237 5 is_stmt 1 view .LVU406
 237:SYS/task_manager/task_manager.c **** 
 1404              		.loc 1 237 19 is_stmt 0 view .LVU407
 1405 0052 0020     		movs	r0, #0
 1406              	.LVL88:
 237:SYS/task_manager/task_manager.c **** 
 1407              		.loc 1 237 19 view .LVU408
 1408 0054 044B     		ldr	r3, .L101+8
 1409 0056 1860     		str	r0, [r3]
 239:SYS/task_manager/task_manager.c **** }
 1410              		.loc 1 239 5 is_stmt 1 view .LVU409
 1411 0058 FFF7FEFF 		bl	Task_SetBASEPRI
 1412              	.LVL89:
 240:SYS/task_manager/task_manager.c **** 
 1413              		.loc 1 240 1 is_stmt 0 view .LVU410
 1414 005c 10BD     		pop	{r4, pc}
 1415              	.LVL90:
 1416              	.L102:
 240:SYS/task_manager/task_manager.c **** 
 1417              		.loc 1 240 1 view .LVU411
 1418 005e 00BF     		.align	2
 1419              	.L101:
 1420 0060 00000000 		.word	.LANCHOR1
 1421 0064 00000000 		.word	.LANCHOR0
 1422 0068 00000000 		.word	.LANCHOR6
ARM GAS  /var/folders/lx/hc4sn_b53233_zkc9xbbl97r0000gp/T//ccr3Mjaw.s 			page 47


 1423              		.cfi_endproc
 1424              	.LFE132:
 1426              		.section	.text.Task_SetPending,"ax",%progbits
 1427              		.align	1
 1428              		.global	Task_SetPending
 1429              		.syntax unified
 1430              		.thumb
 1431              		.thumb_func
 1432              		.fpu fpv4-sp-d16
 1434              	Task_SetPending:
 1435              	.LVL91:
 1436              	.LFB133:
 243:SYS/task_manager/task_manager.c ****     uint8_t grp_id = GET_TASKGROUP_PRIORITY(tsk->priority.Priority);
 1437              		.loc 1 243 1 is_stmt 1 view -0
 1438              		.cfi_startproc
 1439              		@ args = 0, pretend = 0, frame = 0
 1440              		@ frame_needed = 0, uses_anonymous_args = 0
 243:SYS/task_manager/task_manager.c ****     uint8_t grp_id = GET_TASKGROUP_PRIORITY(tsk->priority.Priority);
 1441              		.loc 1 243 1 is_stmt 0 view .LVU413
 1442 0000 10B5     		push	{r4, lr}
 1443              	.LCFI23:
 1444              		.cfi_def_cfa_offset 8
 1445              		.cfi_offset 4, -8
 1446              		.cfi_offset 14, -4
 244:SYS/task_manager/task_manager.c ****     uint8_t tsk_id = GET_TASKINGROUP_PRIORITY(tsk->priority.Priority);
 1447              		.loc 1 244 5 is_stmt 1 view .LVU414
 244:SYS/task_manager/task_manager.c ****     uint8_t tsk_id = GET_TASKINGROUP_PRIORITY(tsk->priority.Priority);
 1448              		.loc 1 244 22 is_stmt 0 view .LVU415
 1449 0002 90F800C0 		ldrb	ip, [r0]	@ zero_extendqisi2
 244:SYS/task_manager/task_manager.c ****     uint8_t tsk_id = GET_TASKINGROUP_PRIORITY(tsk->priority.Priority);
 1450              		.loc 1 244 13 view .LVU416
 1451 0006 4FEADC02 		lsr	r2, ip, #3
 1452              	.LVL92:
 245:SYS/task_manager/task_manager.c **** 
 1453              		.loc 1 245 5 is_stmt 1 view .LVU417
 245:SYS/task_manager/task_manager.c **** 
 1454              		.loc 1 245 13 is_stmt 0 view .LVU418
 1455 000a 0CF0070E 		and	lr, ip, #7
 1456              	.LVL93:
 248:SYS/task_manager/task_manager.c ****     //set current task under this group flag to ready
 1457              		.loc 1 248 5 is_stmt 1 view .LVU419
 248:SYS/task_manager/task_manager.c ****     //set current task under this group flag to ready
 1458              		.loc 1 248 27 is_stmt 0 view .LVU420
 1459 000e 0A4B     		ldr	r3, .L105
 1460 0010 1978     		ldrb	r1, [r3]	@ zero_extendqisi2
 248:SYS/task_manager/task_manager.c ****     //set current task under this group flag to ready
 1461              		.loc 1 248 32 view .LVU421
 1462 0012 4FF0010C 		mov	ip, #1
 1463 0016 0CFA02F4 		lsl	r4, ip, r2
 248:SYS/task_manager/task_manager.c ****     //set current task under this group flag to ready
 1464              		.loc 1 248 27 view .LVU422
 1465 001a 2143     		orrs	r1, r1, r4
 1466 001c C9B2     		uxtb	r1, r1
 1467 001e 1970     		strb	r1, [r3]
 250:SYS/task_manager/task_manager.c **** 
 1468              		.loc 1 250 5 is_stmt 1 view .LVU423
 250:SYS/task_manager/task_manager.c **** 
ARM GAS  /var/folders/lx/hc4sn_b53233_zkc9xbbl97r0000gp/T//ccr3Mjaw.s 			page 48


 1469              		.loc 1 250 40 is_stmt 0 view .LVU424
 1470 0020 1344     		add	r3, r3, r2
 1471 0022 5A78     		ldrb	r2, [r3, #1]	@ zero_extendqisi2
 1472              	.LVL94:
 250:SYS/task_manager/task_manager.c **** 
 1473              		.loc 1 250 45 view .LVU425
 1474 0024 0CFA0EFC 		lsl	ip, ip, lr
 250:SYS/task_manager/task_manager.c **** 
 1475              		.loc 1 250 40 view .LVU426
 1476 0028 42EA0C02 		orr	r2, r2, ip
 1477 002c D2B2     		uxtb	r2, r2
 1478 002e 5A70     		strb	r2, [r3, #1]
 253:SYS/task_manager/task_manager.c **** }
 1479              		.loc 1 253 5 is_stmt 1 view .LVU427
 253:SYS/task_manager/task_manager.c **** }
 1480              		.loc 1 253 28 is_stmt 0 view .LVU428
 1481 0030 0423     		movs	r3, #4
 1482 0032 80F84C30 		strb	r3, [r0, #76]
 254:SYS/task_manager/task_manager.c **** 
 1483              		.loc 1 254 1 view .LVU429
 1484 0036 10BD     		pop	{r4, pc}
 1485              	.L106:
 1486              		.align	2
 1487              	.L105:
 1488 0038 00000000 		.word	.LANCHOR2
 1489              		.cfi_endproc
 1490              	.LFE133:
 1492              		.section	.text.Task_SwitchStack,"ax",%progbits
 1493              		.align	1
 1494              		.global	Task_SwitchStack
 1495              		.syntax unified
 1496              		.thumb
 1497              		.thumb_func
 1498              		.fpu fpv4-sp-d16
 1500              	Task_SwitchStack:
 1501              	.LFB134:
 257:SYS/task_manager/task_manager.c ****     CurTsk_TCB = NxtTsk_TCB;
 1502              		.loc 1 257 1 is_stmt 1 view -0
 1503              		.cfi_startproc
 1504              		@ args = 0, pretend = 0, frame = 0
 1505              		@ frame_needed = 0, uses_anonymous_args = 0
 1506              		@ link register save eliminated.
 258:SYS/task_manager/task_manager.c **** }
 1507              		.loc 1 258 5 view .LVU431
 258:SYS/task_manager/task_manager.c **** }
 1508              		.loc 1 258 16 is_stmt 0 view .LVU432
 1509 0000 034B     		ldr	r3, .L108
 1510 0002 044A     		ldr	r2, .L108+4
 1511 0004 92E80300 		ldm	r2, {r0, r1}
 1512 0008 83E80300 		stm	r3, {r0, r1}
 259:SYS/task_manager/task_manager.c **** 
 1513              		.loc 1 259 1 view .LVU433
 1514 000c 7047     		bx	lr
 1515              	.L109:
 1516 000e 00BF     		.align	2
 1517              	.L108:
 1518 0010 00000000 		.word	.LANCHOR13
ARM GAS  /var/folders/lx/hc4sn_b53233_zkc9xbbl97r0000gp/T//ccr3Mjaw.s 			page 49


 1519 0014 00000000 		.word	.LANCHOR12
 1520              		.cfi_endproc
 1521              	.LFE134:
 1523              		.section	.text.Task_Get_HighestRank_PndTask,"ax",%progbits
 1524              		.align	1
 1525              		.global	Task_Get_HighestRank_PndTask
 1526              		.syntax unified
 1527              		.thumb
 1528              		.thumb_func
 1529              		.fpu fpv4-sp-d16
 1531              	Task_Get_HighestRank_PndTask:
 1532              	.LFB135:
 262:SYS/task_manager/task_manager.c ****     uint8_t grp_id;
 1533              		.loc 1 262 1 is_stmt 1 view -0
 1534              		.cfi_startproc
 1535              		@ args = 0, pretend = 0, frame = 0
 1536              		@ frame_needed = 0, uses_anonymous_args = 0
 263:SYS/task_manager/task_manager.c ****     uint8_t tsk_id;
 1537              		.loc 1 263 5 view .LVU435
 264:SYS/task_manager/task_manager.c **** 
 1538              		.loc 1 264 5 view .LVU436
 266:SYS/task_manager/task_manager.c ****     {
 1539              		.loc 1 266 5 view .LVU437
 266:SYS/task_manager/task_manager.c ****     {
 1540              		.loc 1 266 26 is_stmt 0 view .LVU438
 1541 0000 144B     		ldr	r3, .L118
 1542 0002 1B78     		ldrb	r3, [r3]	@ zero_extendqisi2
 266:SYS/task_manager/task_manager.c ****     {
 1543              		.loc 1 266 8 view .LVU439
 1544 0004 1BB3     		cbz	r3, .L112
 269:SYS/task_manager/task_manager.c ****         //find task in group
 1545              		.loc 1 269 9 is_stmt 1 view .LVU440
 269:SYS/task_manager/task_manager.c ****         //find task in group
 1546              		.loc 1 269 46 is_stmt 0 view .LVU441
 1547 0006 134B     		ldr	r3, .L118
 1548 0008 1A78     		ldrb	r2, [r3]	@ zero_extendqisi2
 1549 000a D2B2     		uxtb	r2, r2
 269:SYS/task_manager/task_manager.c ****         //find task in group
 1550              		.loc 1 269 16 view .LVU442
 1551 000c 1249     		ldr	r1, .L118+4
 1552 000e 8A5C     		ldrb	r2, [r1, r2]	@ zero_extendqisi2
 271:SYS/task_manager/task_manager.c ****     }
 1553              		.loc 1 271 9 is_stmt 1 view .LVU443
 271:SYS/task_manager/task_manager.c ****     }
 1554              		.loc 1 271 59 is_stmt 0 view .LVU444
 1555 0010 1344     		add	r3, r3, r2
 1556 0012 5B78     		ldrb	r3, [r3, #1]	@ zero_extendqisi2
 1557 0014 DBB2     		uxtb	r3, r3
 271:SYS/task_manager/task_manager.c ****     }
 1558              		.loc 1 271 16 view .LVU445
 1559 0016 CB5C     		ldrb	r3, [r1, r3]	@ zero_extendqisi2
 276:SYS/task_manager/task_manager.c ****     {
 1560              		.loc 1 276 5 is_stmt 1 view .LVU446
 276:SYS/task_manager/task_manager.c ****     {
 1561              		.loc 1 276 25 is_stmt 0 view .LVU447
 1562 0018 03EBC200 		add	r0, r3, r2, lsl #3
 1563 001c 0F49     		ldr	r1, .L118+8
ARM GAS  /var/folders/lx/hc4sn_b53233_zkc9xbbl97r0000gp/T//ccr3Mjaw.s 			page 50


 1564 001e 51F82000 		ldr	r0, [r1, r0, lsl #2]
 276:SYS/task_manager/task_manager.c ****     {
 1565              		.loc 1 276 8 view .LVU448
 1566 0022 00B1     		cbz	r0, .L117
 286:SYS/task_manager/task_manager.c **** 
 1567              		.loc 1 286 1 view .LVU449
 1568 0024 7047     		bx	lr
 1569              	.L117:
 262:SYS/task_manager/task_manager.c ****     uint8_t grp_id;
 1570              		.loc 1 262 1 view .LVU450
 1571 0026 10B5     		push	{r4, lr}
 1572              	.LCFI24:
 1573              		.cfi_def_cfa_offset 8
 1574              		.cfi_offset 4, -8
 1575              		.cfi_offset 14, -4
 282:SYS/task_manager/task_manager.c ****         TskHdl_PndMap.TskInGrp[grp_id].Flg &= ~(1 << tsk_id);
 1576              		.loc 1 282 9 is_stmt 1 view .LVU451
 282:SYS/task_manager/task_manager.c ****         TskHdl_PndMap.TskInGrp[grp_id].Flg &= ~(1 << tsk_id);
 1577              		.loc 1 282 31 is_stmt 0 view .LVU452
 1578 0028 0A49     		ldr	r1, .L118
 1579 002a 91F800E0 		ldrb	lr, [r1]	@ zero_extendqisi2
 282:SYS/task_manager/task_manager.c ****         TskHdl_PndMap.TskInGrp[grp_id].Flg &= ~(1 << tsk_id);
 1580              		.loc 1 282 38 view .LVU453
 1581 002e 4FF0010C 		mov	ip, #1
 1582 0032 0CFA02F4 		lsl	r4, ip, r2
 282:SYS/task_manager/task_manager.c ****         TskHdl_PndMap.TskInGrp[grp_id].Flg &= ~(1 << tsk_id);
 1583              		.loc 1 282 31 view .LVU454
 1584 0036 2EEA040E 		bic	lr, lr, r4
 1585 003a 81F800E0 		strb	lr, [r1]
 283:SYS/task_manager/task_manager.c ****         return NULL;
 1586              		.loc 1 283 9 is_stmt 1 view .LVU455
 283:SYS/task_manager/task_manager.c ****         return NULL;
 1587              		.loc 1 283 44 is_stmt 0 view .LVU456
 1588 003e 0A44     		add	r2, r2, r1
 1589 0040 5178     		ldrb	r1, [r2, #1]	@ zero_extendqisi2
 283:SYS/task_manager/task_manager.c ****         return NULL;
 1590              		.loc 1 283 51 view .LVU457
 1591 0042 0CFA03F3 		lsl	r3, ip, r3
 283:SYS/task_manager/task_manager.c ****         return NULL;
 1592              		.loc 1 283 44 view .LVU458
 1593 0046 21EA0303 		bic	r3, r1, r3
 1594 004a 5370     		strb	r3, [r2, #1]
 284:SYS/task_manager/task_manager.c ****     }
 1595              		.loc 1 284 9 is_stmt 1 view .LVU459
 286:SYS/task_manager/task_manager.c **** 
 1596              		.loc 1 286 1 is_stmt 0 view .LVU460
 1597 004c 10BD     		pop	{r4, pc}
 1598              	.L112:
 1599              	.LCFI25:
 1600              		.cfi_def_cfa_offset 0
 1601              		.cfi_restore 4
 1602              		.cfi_restore 14
 274:SYS/task_manager/task_manager.c **** 
 1603              		.loc 1 274 16 view .LVU461
 1604 004e 0020     		movs	r0, #0
 1605 0050 7047     		bx	lr
 1606              	.L119:
ARM GAS  /var/folders/lx/hc4sn_b53233_zkc9xbbl97r0000gp/T//ccr3Mjaw.s 			page 51


 1607 0052 00BF     		.align	2
 1608              	.L118:
 1609 0054 00000000 		.word	.LANCHOR2
 1610 0058 00000000 		.word	.LANCHOR14
 1611 005c 00000000 		.word	.LANCHOR4
 1612              		.cfi_endproc
 1613              	.LFE135:
 1615              		.section	.text.Task_SaveCurProc,"ax",%progbits
 1616              		.align	1
 1617              		.global	Task_SaveCurProc
 1618              		.syntax unified
 1619              		.thumb
 1620              		.thumb_func
 1621              		.fpu fpv4-sp-d16
 1623              	Task_SaveCurProc:
 1624              	.LFB140:
 339:SYS/task_manager/task_manager.c ****     __ASM("MRS    R0, PSP");
 1625              		.loc 1 339 1 is_stmt 1 view -0
 1626              		.cfi_startproc
 1627              		@ args = 0, pretend = 0, frame = 0
 1628              		@ frame_needed = 0, uses_anonymous_args = 0
 1629              		@ link register save eliminated.
 340:SYS/task_manager/task_manager.c ****     __ASM("LDR	  R3, CurrentTCBConst_Tmp3");
 1630              		.loc 1 340 5 view .LVU463
 1631              		.syntax unified
 1632              	@ 340 "SYS/task_manager/task_manager.c" 1
 1633 0000 EFF30980 		MRS    R0, PSP
 1634              	@ 0 "" 2
 341:SYS/task_manager/task_manager.c ****     __ASM("LDR    R2, [R3]");
 1635              		.loc 1 341 5 view .LVU464
 1636              	@ 341 "SYS/task_manager/task_manager.c" 1
 1637 0004 DFF81C30 		LDR	  R3, CurrentTCBConst_Tmp3
 1638              	@ 0 "" 2
 342:SYS/task_manager/task_manager.c **** 
 1639              		.loc 1 342 5 view .LVU465
 1640              	@ 342 "SYS/task_manager/task_manager.c" 1
 1641 0008 1A68     		LDR    R2, [R3]
 1642              	@ 0 "" 2
 344:SYS/task_manager/task_manager.c **** 
 1643              		.loc 1 344 5 view .LVU466
 1644              	@ 344 "SYS/task_manager/task_manager.c" 1
 1645 000a BFF36F8F 		ISB
 1646              	@ 0 "" 2
 346:SYS/task_manager/task_manager.c ****     __ASM("STR      R0, [R2]");
 1647              		.loc 1 346 5 view .LVU467
 1648              	@ 346 "SYS/task_manager/task_manager.c" 1
 1649 000e 20E9F04F 		STMDB    R0!, {R4-R11, R14}
 1650              	@ 0 "" 2
 347:SYS/task_manager/task_manager.c **** 
 1651              		.loc 1 347 5 view .LVU468
 1652              	@ 347 "SYS/task_manager/task_manager.c" 1
 1653 0012 1060     		STR      R0, [R2]
 1654              	@ 0 "" 2
 350:SYS/task_manager/task_manager.c ****     __ASM("IT       EQ");
 1655              		.loc 1 350 5 view .LVU469
 1656              	@ 350 "SYS/task_manager/task_manager.c" 1
 1657 0014 1EF0100F 		TST      R14, #0x10
ARM GAS  /var/folders/lx/hc4sn_b53233_zkc9xbbl97r0000gp/T//ccr3Mjaw.s 			page 52


 1658              	@ 0 "" 2
 351:SYS/task_manager/task_manager.c ****     __ASM("VSTMDBEQ R0!, {s16-s31}");
 1659              		.loc 1 351 5 view .LVU470
 1660              	@ 351 "SYS/task_manager/task_manager.c" 1
 1661 0018 08BF     		IT       EQ
 1662              	@ 0 "" 2
 352:SYS/task_manager/task_manager.c ****     /******************************  FPU SECTION  *********************************/
 1663              		.loc 1 352 5 view .LVU471
 1664              	@ 352 "SYS/task_manager/task_manager.c" 1
 1665 001a 20ED108A 		VSTMDBEQ R0!, {s16-s31}
 1666              	@ 0 "" 2
 355:SYS/task_manager/task_manager.c ****     __ASM("BX       R14");
 1667              		.loc 1 355 5 view .LVU472
 1668              	@ 355 "SYS/task_manager/task_manager.c" 1
 1669 001e BFF36F8F 		ISB
 1670              	@ 0 "" 2
 356:SYS/task_manager/task_manager.c **** 
 1671              		.loc 1 356 5 view .LVU473
 1672              	@ 356 "SYS/task_manager/task_manager.c" 1
 1673 0022 7047     		BX       R14
 1674              	@ 0 "" 2
 358:SYS/task_manager/task_manager.c **** }
 1675              		.loc 1 358 5 view .LVU474
 1676              	@ 358 "SYS/task_manager/task_manager.c" 1
 1677 0024 00000000 		CurrentTCBConst_Tmp3: .word CurTsk_TCB
 1678              	@ 0 "" 2
 359:SYS/task_manager/task_manager.c **** 
 1679              		.loc 1 359 1 is_stmt 0 view .LVU475
 1680              		.thumb
 1681              		.syntax unified
 1682 0028 7047     		bx	lr
 1683              		.cfi_endproc
 1684              	.LFE140:
 1686              		.section	.text.Task_Load,"ax",%progbits
 1687              		.align	1
 1688              		.global	Task_Load
 1689              		.syntax unified
 1690              		.thumb
 1691              		.thumb_func
 1692              		.fpu fpv4-sp-d16
 1694              	Task_Load:
 1695              	.LFB141:
 362:SYS/task_manager/task_manager.c ****     __ASM("LDR	  R3, =CurTsk_TCB");
 1696              		.loc 1 362 1 is_stmt 1 view -0
 1697              		.cfi_startproc
 1698              		@ args = 0, pretend = 0, frame = 0
 1699              		@ frame_needed = 0, uses_anonymous_args = 0
 1700              		@ link register save eliminated.
 363:SYS/task_manager/task_manager.c ****     __ASM("LDR    R1, [R3]");
 1701              		.loc 1 363 5 view .LVU477
 1702              		.syntax unified
 1703              	@ 363 "SYS/task_manager/task_manager.c" 1
 1704 0000 0C4B     		LDR	  R3, =CurTsk_TCB
 1705              	@ 0 "" 2
 364:SYS/task_manager/task_manager.c ****     __ASM("LDR    R0, [R1]");
 1706              		.loc 1 364 5 view .LVU478
 1707              	@ 364 "SYS/task_manager/task_manager.c" 1
ARM GAS  /var/folders/lx/hc4sn_b53233_zkc9xbbl97r0000gp/T//ccr3Mjaw.s 			page 53


 1708 0002 1968     		LDR    R1, [R3]
 1709              	@ 0 "" 2
 365:SYS/task_manager/task_manager.c **** 
 1710              		.loc 1 365 5 view .LVU479
 1711              	@ 365 "SYS/task_manager/task_manager.c" 1
 1712 0004 0868     		LDR    R0, [R1]
 1713              	@ 0 "" 2
 367:SYS/task_manager/task_manager.c **** 
 1714              		.loc 1 367 5 view .LVU480
 1715              	@ 367 "SYS/task_manager/task_manager.c" 1
 1716 0006 B0E8F04F 		LDMIA  R0!, {R4-R11, R14}
 1717              	@ 0 "" 2
 370:SYS/task_manager/task_manager.c ****     __ASM("IT       EQ");
 1718              		.loc 1 370 5 view .LVU481
 1719              	@ 370 "SYS/task_manager/task_manager.c" 1
 1720 000a 1EF0100F 		TST      R14, #0x10
 1721              	@ 0 "" 2
 371:SYS/task_manager/task_manager.c ****     __ASM("VLDMIAEQ R0!, {s16-s31}");
 1722              		.loc 1 371 5 view .LVU482
 1723              	@ 371 "SYS/task_manager/task_manager.c" 1
 1724 000e 08BF     		IT       EQ
 1725              	@ 0 "" 2
 372:SYS/task_manager/task_manager.c ****     /******************************  FPU SECTION  *********************************/
 1726              		.loc 1 372 5 view .LVU483
 1727              	@ 372 "SYS/task_manager/task_manager.c" 1
 1728 0010 B0EC108A 		VLDMIAEQ R0!, {s16-s31}
 1729              	@ 0 "" 2
 375:SYS/task_manager/task_manager.c ****     __ASM("ISB");
 1730              		.loc 1 375 5 view .LVU484
 1731              	@ 375 "SYS/task_manager/task_manager.c" 1
 1732 0014 80F30988 		MSR    PSP, R0
 1733              	@ 0 "" 2
 376:SYS/task_manager/task_manager.c ****     __ASM("MOV    R0, #240");
 1734              		.loc 1 376 5 view .LVU485
 1735              	@ 376 "SYS/task_manager/task_manager.c" 1
 1736 0018 BFF36F8F 		ISB
 1737              	@ 0 "" 2
 377:SYS/task_manager/task_manager.c ****     __ASM("MSR	  BASEPRI, R0");
 1738              		.loc 1 377 5 view .LVU486
 1739              	@ 377 "SYS/task_manager/task_manager.c" 1
 1740 001c 4FF0F000 		MOV    R0, #240
 1741              	@ 0 "" 2
 378:SYS/task_manager/task_manager.c ****     __ASM("BX     R14");
 1742              		.loc 1 378 5 view .LVU487
 1743              	@ 378 "SYS/task_manager/task_manager.c" 1
 1744 0020 80F31188 		MSR	  BASEPRI, R0
 1745              	@ 0 "" 2
 379:SYS/task_manager/task_manager.c ****     __ASM(".ALIGN 4");
 1746              		.loc 1 379 5 view .LVU488
 1747              	@ 379 "SYS/task_manager/task_manager.c" 1
 1748 0024 7047     		BX     R14
 1749              	@ 0 "" 2
 380:SYS/task_manager/task_manager.c **** }
 1750              		.loc 1 380 5 view .LVU489
 1751              	@ 380 "SYS/task_manager/task_manager.c" 1
 1752 0026 00BFAFF3 		.ALIGN 4
 1752      0080AFF3 
ARM GAS  /var/folders/lx/hc4sn_b53233_zkc9xbbl97r0000gp/T//ccr3Mjaw.s 			page 54


 1752      0080
 1753              	@ 0 "" 2
 381:SYS/task_manager/task_manager.c **** 
 1754              		.loc 1 381 1 is_stmt 0 view .LVU490
 1755              		.thumb
 1756              		.syntax unified
 1757 0030 7047     		bx	lr
 1758              		.cfi_endproc
 1759              	.LFE141:
 1761 0032 0000     		.section	.text.Load_FirstTask,"ax",%progbits
 1762              		.align	1
 1763              		.global	Load_FirstTask
 1764              		.syntax unified
 1765              		.thumb
 1766              		.thumb_func
 1767              		.fpu fpv4-sp-d16
 1769              	Load_FirstTask:
 1770              	.LFB142:
 384:SYS/task_manager/task_manager.c ****     Task_Load();
 1771              		.loc 1 384 1 is_stmt 1 view -0
 1772              		.cfi_startproc
 1773              		@ args = 0, pretend = 0, frame = 0
 1774              		@ frame_needed = 0, uses_anonymous_args = 0
 1775 0000 08B5     		push	{r3, lr}
 1776              	.LCFI26:
 1777              		.cfi_def_cfa_offset 8
 1778              		.cfi_offset 3, -8
 1779              		.cfi_offset 14, -4
 385:SYS/task_manager/task_manager.c **** }
 1780              		.loc 1 385 5 view .LVU492
 1781 0002 FFF7FEFF 		bl	Task_Load
 1782              	.LVL95:
 386:SYS/task_manager/task_manager.c **** 
 1783              		.loc 1 386 1 is_stmt 0 view .LVU493
 1784 0006 08BD     		pop	{r3, pc}
 1785              		.cfi_endproc
 1786              	.LFE142:
 1788              		.section	.text.Task_SwitchContext,"ax",%progbits
 1789              		.align	1
 1790              		.global	Task_SwitchContext
 1791              		.syntax unified
 1792              		.thumb
 1793              		.thumb_func
 1794              		.fpu fpv4-sp-d16
 1796              	Task_SwitchContext:
 1797              	.LFB143:
 389:SYS/task_manager/task_manager.c ****     __ASM("MRS      R0, PSP");
 1798              		.loc 1 389 1 is_stmt 1 view -0
 1799              		.cfi_startproc
 1800              		@ args = 0, pretend = 0, frame = 0
 1801              		@ frame_needed = 0, uses_anonymous_args = 0
 1802              		@ link register save eliminated.
 390:SYS/task_manager/task_manager.c ****     __ASM("ISB");
 1803              		.loc 1 390 5 view .LVU495
 1804              		.syntax unified
 1805              	@ 390 "SYS/task_manager/task_manager.c" 1
 1806 0000 EFF30980 		MRS      R0, PSP
ARM GAS  /var/folders/lx/hc4sn_b53233_zkc9xbbl97r0000gp/T//ccr3Mjaw.s 			page 55


 1807              	@ 0 "" 2
 391:SYS/task_manager/task_manager.c **** 
 1808              		.loc 1 391 5 view .LVU496
 1809              	@ 391 "SYS/task_manager/task_manager.c" 1
 1810 0004 BFF36F8F 		ISB
 1811              	@ 0 "" 2
 393:SYS/task_manager/task_manager.c ****     __ASM("LDR      R2, [R3]");
 1812              		.loc 1 393 5 view .LVU497
 1813              	@ 393 "SYS/task_manager/task_manager.c" 1
 1814 0008 DFF85830 		LDR      R3, CurrentTCBConst_Tmp
 1815              	@ 0 "" 2
 394:SYS/task_manager/task_manager.c **** 
 1816              		.loc 1 394 5 view .LVU498
 1817              	@ 394 "SYS/task_manager/task_manager.c" 1
 1818 000c 1A68     		LDR      R2, [R3]
 1819              	@ 0 "" 2
 397:SYS/task_manager/task_manager.c ****     __ASM("IT       EQ");
 1820              		.loc 1 397 5 view .LVU499
 1821              	@ 397 "SYS/task_manager/task_manager.c" 1
 1822 000e 1EF0100F 		TST      R14, #0x10
 1823              	@ 0 "" 2
 398:SYS/task_manager/task_manager.c ****     __ASM("VSTMDBEQ R0!, {s16-s31}");
 1824              		.loc 1 398 5 view .LVU500
 1825              	@ 398 "SYS/task_manager/task_manager.c" 1
 1826 0012 08BF     		IT       EQ
 1827              	@ 0 "" 2
 399:SYS/task_manager/task_manager.c ****     /******************************  FPU SECTION  *********************************/
 1828              		.loc 1 399 5 view .LVU501
 1829              	@ 399 "SYS/task_manager/task_manager.c" 1
 1830 0014 20ED108A 		VSTMDBEQ R0!, {s16-s31}
 1831              	@ 0 "" 2
 402:SYS/task_manager/task_manager.c ****     __ASM("STR      R0, [R2]");
 1832              		.loc 1 402 5 view .LVU502
 1833              	@ 402 "SYS/task_manager/task_manager.c" 1
 1834 0018 20E9F04F 		STMDB    R0!, {R4-R11, R14}
 1835              	@ 0 "" 2
 403:SYS/task_manager/task_manager.c **** 
 1836              		.loc 1 403 5 view .LVU503
 1837              	@ 403 "SYS/task_manager/task_manager.c" 1
 1838 001c 1060     		STR      R0, [R2]
 1839              	@ 0 "" 2
 405:SYS/task_manager/task_manager.c ****     __ASM("MOV      R0, %0" ::"i"(0x50));
 1840              		.loc 1 405 5 view .LVU504
 1841              	@ 405 "SYS/task_manager/task_manager.c" 1
 1842 001e 2DE90900 		STMDB    SP!, {R0, R3}
 1843              	@ 0 "" 2
 406:SYS/task_manager/task_manager.c ****     __ASM("MSR      BASEPRI, R0");
 1844              		.loc 1 406 5 view .LVU505
 1845              	@ 406 "SYS/task_manager/task_manager.c" 1
 1846 0022 4FF05000 		MOV      R0, #80
 1847              	@ 0 "" 2
 407:SYS/task_manager/task_manager.c **** 
 1848              		.loc 1 407 5 view .LVU506
 1849              	@ 407 "SYS/task_manager/task_manager.c" 1
 1850 0026 80F31188 		MSR      BASEPRI, R0
 1851              	@ 0 "" 2
 409:SYS/task_manager/task_manager.c ****     __ASM("ISB");
ARM GAS  /var/folders/lx/hc4sn_b53233_zkc9xbbl97r0000gp/T//ccr3Mjaw.s 			page 56


 1852              		.loc 1 409 5 view .LVU507
 1853              	@ 409 "SYS/task_manager/task_manager.c" 1
 1854 002a BFF34F8F 		DSB
 1855              	@ 0 "" 2
 410:SYS/task_manager/task_manager.c **** 
 1856              		.loc 1 410 5 view .LVU508
 1857              	@ 410 "SYS/task_manager/task_manager.c" 1
 1858 002e BFF36F8F 		ISB
 1859              	@ 0 "" 2
 412:SYS/task_manager/task_manager.c **** 
 1860              		.loc 1 412 5 view .LVU509
 1861              	@ 412 "SYS/task_manager/task_manager.c" 1
 1862 0032 FFF7FEFF 		BL       Task_SwitchStack
 1863              	@ 0 "" 2
 414:SYS/task_manager/task_manager.c ****     __ASM("MSR      BASEPRI, R0");
 1864              		.loc 1 414 5 view .LVU510
 1865              	@ 414 "SYS/task_manager/task_manager.c" 1
 1866 0036 4FF00000 		MOV      R0, #0
 1867              	@ 0 "" 2
 415:SYS/task_manager/task_manager.c ****     __ASM("LDMIA    SP!, {R0, R3}");
 1868              		.loc 1 415 5 view .LVU511
 1869              	@ 415 "SYS/task_manager/task_manager.c" 1
 1870 003a 80F31188 		MSR      BASEPRI, R0
 1871              	@ 0 "" 2
 416:SYS/task_manager/task_manager.c **** 
 1872              		.loc 1 416 5 view .LVU512
 1873              	@ 416 "SYS/task_manager/task_manager.c" 1
 1874 003e 09BC     		LDMIA    SP!, {R0, R3}
 1875              	@ 0 "" 2
 418:SYS/task_manager/task_manager.c ****     __ASM("LDR      R0, [R1]");
 1876              		.loc 1 418 5 view .LVU513
 1877              	@ 418 "SYS/task_manager/task_manager.c" 1
 1878 0040 1968     		LDR      R1, [R3]
 1879              	@ 0 "" 2
 419:SYS/task_manager/task_manager.c **** 
 1880              		.loc 1 419 5 view .LVU514
 1881              	@ 419 "SYS/task_manager/task_manager.c" 1
 1882 0042 0868     		LDR      R0, [R1]
 1883              	@ 0 "" 2
 421:SYS/task_manager/task_manager.c **** 
 1884              		.loc 1 421 5 view .LVU515
 1885              	@ 421 "SYS/task_manager/task_manager.c" 1
 1886 0044 B0E8F04F 		LDMIA    R0!, {R4-R11, R14}
 1887              	@ 0 "" 2
 424:SYS/task_manager/task_manager.c ****     __ASM("IT       EQ");
 1888              		.loc 1 424 5 view .LVU516
 1889              	@ 424 "SYS/task_manager/task_manager.c" 1
 1890 0048 1EF0100F 		TST      R14, #0x10
 1891              	@ 0 "" 2
 425:SYS/task_manager/task_manager.c ****     __ASM("VLDMIAEQ R0!, {s16-s31}");
 1892              		.loc 1 425 5 view .LVU517
 1893              	@ 425 "SYS/task_manager/task_manager.c" 1
 1894 004c 08BF     		IT       EQ
 1895              	@ 0 "" 2
 426:SYS/task_manager/task_manager.c ****     /******************************  FPU SECTION  *********************************/
 1896              		.loc 1 426 5 view .LVU518
 1897              	@ 426 "SYS/task_manager/task_manager.c" 1
ARM GAS  /var/folders/lx/hc4sn_b53233_zkc9xbbl97r0000gp/T//ccr3Mjaw.s 			page 57


 1898 004e B0EC108A 		VLDMIAEQ R0!, {s16-s31}
 1899              	@ 0 "" 2
 429:SYS/task_manager/task_manager.c ****     __ASM("ISB");
 1900              		.loc 1 429 5 view .LVU519
 1901              	@ 429 "SYS/task_manager/task_manager.c" 1
 1902 0052 80F30988 		MSR      PSP,R0
 1903              	@ 0 "" 2
 430:SYS/task_manager/task_manager.c ****     __ASM("MOV      R0, #240");
 1904              		.loc 1 430 5 view .LVU520
 1905              	@ 430 "SYS/task_manager/task_manager.c" 1
 1906 0056 BFF36F8F 		ISB
 1907              	@ 0 "" 2
 431:SYS/task_manager/task_manager.c ****     __ASM("MSR	    BASEPRI, R0");
 1908              		.loc 1 431 5 view .LVU521
 1909              	@ 431 "SYS/task_manager/task_manager.c" 1
 1910 005a 4FF0F000 		MOV      R0, #240
 1911              	@ 0 "" 2
 432:SYS/task_manager/task_manager.c ****     __ASM("BX       R14");
 1912              		.loc 1 432 5 view .LVU522
 1913              	@ 432 "SYS/task_manager/task_manager.c" 1
 1914 005e 80F31188 		MSR	    BASEPRI, R0
 1915              	@ 0 "" 2
 433:SYS/task_manager/task_manager.c **** 
 1916              		.loc 1 433 5 view .LVU523
 1917              	@ 433 "SYS/task_manager/task_manager.c" 1
 1918 0062 7047     		BX       R14
 1919              	@ 0 "" 2
 435:SYS/task_manager/task_manager.c ****     __ASM(".ALIGN 4");
 1920              		.loc 1 435 5 view .LVU524
 1921              	@ 435 "SYS/task_manager/task_manager.c" 1
 1922 0064 00000000 		CurrentTCBConst_Tmp: .word CurTsk_TCB
 1923              	@ 0 "" 2
 436:SYS/task_manager/task_manager.c **** }
 1924              		.loc 1 436 5 view .LVU525
 1925              	@ 436 "SYS/task_manager/task_manager.c" 1
 1926 0068 AFF30080 		.ALIGN 4
 1926      AFF30080 
 1927              	@ 0 "" 2
 437:SYS/task_manager/task_manager.c **** 
 1928              		.loc 1 437 1 is_stmt 0 view .LVU526
 1929              		.thumb
 1930              		.syntax unified
 1931 0070 7047     		bx	lr
 1932              		.cfi_endproc
 1933              	.LFE143:
 1935 0072 00BF     		.section	.text.Task_Get_HighestRank_RdyTask,"ax",%progbits
 1936              		.align	1
 1937              		.global	Task_Get_HighestRank_RdyTask
 1938              		.syntax unified
 1939              		.thumb
 1940              		.thumb_func
 1941              		.fpu fpv4-sp-d16
 1943              	Task_Get_HighestRank_RdyTask:
 1944              	.LFB149:
 524:SYS/task_manager/task_manager.c ****     uint8_t grp_id = 0;
 1945              		.loc 1 524 1 is_stmt 1 view -0
 1946              		.cfi_startproc
ARM GAS  /var/folders/lx/hc4sn_b53233_zkc9xbbl97r0000gp/T//ccr3Mjaw.s 			page 58


 1947              		@ args = 0, pretend = 0, frame = 0
 1948              		@ frame_needed = 0, uses_anonymous_args = 0
 525:SYS/task_manager/task_manager.c ****     uint8_t tsk_id = 0;
 1949              		.loc 1 525 5 view .LVU528
 1950              	.LVL96:
 526:SYS/task_manager/task_manager.c **** 
 1951              		.loc 1 526 5 view .LVU529
 528:SYS/task_manager/task_manager.c ****     {
 1952              		.loc 1 528 5 view .LVU530
 528:SYS/task_manager/task_manager.c ****     {
 1953              		.loc 1 528 26 is_stmt 0 view .LVU531
 1954 0000 144B     		ldr	r3, .L133
 1955 0002 1B78     		ldrb	r3, [r3]	@ zero_extendqisi2
 528:SYS/task_manager/task_manager.c ****     {
 1956              		.loc 1 528 8 view .LVU532
 1957 0004 1BB3     		cbz	r3, .L127
 531:SYS/task_manager/task_manager.c ****         //find task in group
 1958              		.loc 1 531 9 is_stmt 1 view .LVU533
 531:SYS/task_manager/task_manager.c ****         //find task in group
 1959              		.loc 1 531 46 is_stmt 0 view .LVU534
 1960 0006 134B     		ldr	r3, .L133
 1961 0008 1A78     		ldrb	r2, [r3]	@ zero_extendqisi2
 1962 000a D2B2     		uxtb	r2, r2
 531:SYS/task_manager/task_manager.c ****         //find task in group
 1963              		.loc 1 531 16 view .LVU535
 1964 000c 1249     		ldr	r1, .L133+4
 1965 000e 8A5C     		ldrb	r2, [r1, r2]	@ zero_extendqisi2
 1966              	.LVL97:
 533:SYS/task_manager/task_manager.c ****     }
 1967              		.loc 1 533 9 is_stmt 1 view .LVU536
 533:SYS/task_manager/task_manager.c ****     }
 1968              		.loc 1 533 59 is_stmt 0 view .LVU537
 1969 0010 1344     		add	r3, r3, r2
 1970 0012 5B78     		ldrb	r3, [r3, #1]	@ zero_extendqisi2
 1971 0014 DBB2     		uxtb	r3, r3
 533:SYS/task_manager/task_manager.c ****     }
 1972              		.loc 1 533 16 view .LVU538
 1973 0016 CB5C     		ldrb	r3, [r1, r3]	@ zero_extendqisi2
 1974              	.LVL98:
 538:SYS/task_manager/task_manager.c ****     {
 1975              		.loc 1 538 5 is_stmt 1 view .LVU539
 538:SYS/task_manager/task_manager.c ****     {
 1976              		.loc 1 538 25 is_stmt 0 view .LVU540
 1977 0018 03EBC200 		add	r0, r3, r2, lsl #3
 1978 001c 0F49     		ldr	r1, .L133+8
 1979 001e 51F82000 		ldr	r0, [r1, r0, lsl #2]
 538:SYS/task_manager/task_manager.c ****     {
 1980              		.loc 1 538 8 view .LVU541
 1981 0022 00B1     		cbz	r0, .L132
 548:SYS/task_manager/task_manager.c **** 
 1982              		.loc 1 548 1 view .LVU542
 1983 0024 7047     		bx	lr
 1984              	.L132:
 524:SYS/task_manager/task_manager.c ****     uint8_t grp_id = 0;
 1985              		.loc 1 524 1 view .LVU543
 1986 0026 10B5     		push	{r4, lr}
 1987              	.LCFI27:
ARM GAS  /var/folders/lx/hc4sn_b53233_zkc9xbbl97r0000gp/T//ccr3Mjaw.s 			page 59


 1988              		.cfi_def_cfa_offset 8
 1989              		.cfi_offset 4, -8
 1990              		.cfi_offset 14, -4
 544:SYS/task_manager/task_manager.c ****         TskHdl_RdyMap.TskInGrp[grp_id].Flg &= ~(1 << tsk_id);
 1991              		.loc 1 544 9 is_stmt 1 view .LVU544
 544:SYS/task_manager/task_manager.c ****         TskHdl_RdyMap.TskInGrp[grp_id].Flg &= ~(1 << tsk_id);
 1992              		.loc 1 544 31 is_stmt 0 view .LVU545
 1993 0028 0A49     		ldr	r1, .L133
 1994 002a 91F800E0 		ldrb	lr, [r1]	@ zero_extendqisi2
 544:SYS/task_manager/task_manager.c ****         TskHdl_RdyMap.TskInGrp[grp_id].Flg &= ~(1 << tsk_id);
 1995              		.loc 1 544 38 view .LVU546
 1996 002e 4FF0010C 		mov	ip, #1
 1997 0032 0CFA02F4 		lsl	r4, ip, r2
 544:SYS/task_manager/task_manager.c ****         TskHdl_RdyMap.TskInGrp[grp_id].Flg &= ~(1 << tsk_id);
 1998              		.loc 1 544 31 view .LVU547
 1999 0036 2EEA040E 		bic	lr, lr, r4
 2000 003a 81F800E0 		strb	lr, [r1]
 545:SYS/task_manager/task_manager.c ****         return NULL;
 2001              		.loc 1 545 9 is_stmt 1 view .LVU548
 545:SYS/task_manager/task_manager.c ****         return NULL;
 2002              		.loc 1 545 44 is_stmt 0 view .LVU549
 2003 003e 0A44     		add	r2, r2, r1
 2004 0040 5178     		ldrb	r1, [r2, #1]	@ zero_extendqisi2
 545:SYS/task_manager/task_manager.c ****         return NULL;
 2005              		.loc 1 545 51 view .LVU550
 2006 0042 0CFA03F3 		lsl	r3, ip, r3
 545:SYS/task_manager/task_manager.c ****         return NULL;
 2007              		.loc 1 545 44 view .LVU551
 2008 0046 21EA0303 		bic	r3, r1, r3
 2009 004a 5370     		strb	r3, [r2, #1]
 546:SYS/task_manager/task_manager.c ****     }
 2010              		.loc 1 546 9 is_stmt 1 view .LVU552
 548:SYS/task_manager/task_manager.c **** 
 2011              		.loc 1 548 1 is_stmt 0 view .LVU553
 2012 004c 10BD     		pop	{r4, pc}
 2013              	.LVL99:
 2014              	.L127:
 2015              	.LCFI28:
 2016              		.cfi_def_cfa_offset 0
 2017              		.cfi_restore 4
 2018              		.cfi_restore 14
 536:SYS/task_manager/task_manager.c **** 
 2019              		.loc 1 536 16 view .LVU554
 2020 004e 0020     		movs	r0, #0
 2021 0050 7047     		bx	lr
 2022              	.L134:
 2023 0052 00BF     		.align	2
 2024              	.L133:
 2025 0054 00000000 		.word	.LANCHOR0
 2026 0058 00000000 		.word	.LANCHOR14
 2027 005c 00000000 		.word	.LANCHOR4
 2028              		.cfi_endproc
 2029              	.LFE149:
 2031              		.section	.text.Task_SetNextTask_Ptr,"ax",%progbits
 2032              		.align	1
 2033              		.global	Task_SetNextTask_Ptr
 2034              		.syntax unified
ARM GAS  /var/folders/lx/hc4sn_b53233_zkc9xbbl97r0000gp/T//ccr3Mjaw.s 			page 60


 2035              		.thumb
 2036              		.thumb_func
 2037              		.fpu fpv4-sp-d16
 2039              	Task_SetNextTask_Ptr:
 2040              	.LVL100:
 2041              	.LFB150:
 551:SYS/task_manager/task_manager.c ****     if (nxt != NULL)
 2042              		.loc 1 551 1 is_stmt 1 view -0
 2043              		.cfi_startproc
 2044              		@ args = 0, pretend = 0, frame = 0
 2045              		@ frame_needed = 0, uses_anonymous_args = 0
 2046              		@ link register save eliminated.
 552:SYS/task_manager/task_manager.c ****     {
 2047              		.loc 1 552 5 view .LVU556
 552:SYS/task_manager/task_manager.c ****     {
 2048              		.loc 1 552 8 is_stmt 0 view .LVU557
 2049 0000 38B1     		cbz	r0, .L135
 554:SYS/task_manager/task_manager.c ****         NxtTsk_TCB.Top_Stk_Ptr = &NxtRunTsk_Ptr->TCB.Top_Stk_Ptr;
 2050              		.loc 1 554 9 is_stmt 1 view .LVU558
 554:SYS/task_manager/task_manager.c ****         NxtTsk_TCB.Top_Stk_Ptr = &NxtRunTsk_Ptr->TCB.Top_Stk_Ptr;
 2051              		.loc 1 554 23 is_stmt 0 view .LVU559
 2052 0002 044A     		ldr	r2, .L137
 2053 0004 1060     		str	r0, [r2]
 555:SYS/task_manager/task_manager.c ****         NxtTsk_TCB.Stack = NxtRunTsk_Ptr->TCB.Stack;
 2054              		.loc 1 555 9 is_stmt 1 view .LVU560
 555:SYS/task_manager/task_manager.c ****         NxtTsk_TCB.Stack = NxtRunTsk_Ptr->TCB.Stack;
 2055              		.loc 1 555 34 is_stmt 0 view .LVU561
 2056 0006 00F15401 		add	r1, r0, #84
 555:SYS/task_manager/task_manager.c ****         NxtTsk_TCB.Stack = NxtRunTsk_Ptr->TCB.Stack;
 2057              		.loc 1 555 32 view .LVU562
 2058 000a 034A     		ldr	r2, .L137+4
 2059 000c 1160     		str	r1, [r2]
 556:SYS/task_manager/task_manager.c ****     }
 2060              		.loc 1 556 9 is_stmt 1 view .LVU563
 556:SYS/task_manager/task_manager.c ****     }
 2061              		.loc 1 556 46 is_stmt 0 view .LVU564
 2062 000e 836D     		ldr	r3, [r0, #88]
 556:SYS/task_manager/task_manager.c ****     }
 2063              		.loc 1 556 26 view .LVU565
 2064 0010 5360     		str	r3, [r2, #4]
 2065              	.L135:
 558:SYS/task_manager/task_manager.c **** 
 2066              		.loc 1 558 1 view .LVU566
 2067 0012 7047     		bx	lr
 2068              	.L138:
 2069              		.align	2
 2070              	.L137:
 2071 0014 00000000 		.word	.LANCHOR11
 2072 0018 00000000 		.word	.LANCHOR12
 2073              		.cfi_endproc
 2074              	.LFE150:
 2076              		.section	.text.Task_TriggerPendSV,"ax",%progbits
 2077              		.align	1
 2078              		.global	Task_TriggerPendSV
 2079              		.syntax unified
 2080              		.thumb
 2081              		.thumb_func
ARM GAS  /var/folders/lx/hc4sn_b53233_zkc9xbbl97r0000gp/T//ccr3Mjaw.s 			page 61


 2082              		.fpu fpv4-sp-d16
 2084              	Task_TriggerPendSV:
 2085              	.LFB152:
 586:SYS/task_manager/task_manager.c ****     __ASM(".equ NVIC_INT_CTRL, 0xE000ED04");
 2086              		.loc 1 586 1 is_stmt 1 view -0
 2087              		.cfi_startproc
 2088              		@ Naked Function: prologue and epilogue provided by programmer.
 2089              		@ args = 0, pretend = 0, frame = 0
 2090              		@ frame_needed = 0, uses_anonymous_args = 0
 587:SYS/task_manager/task_manager.c ****     __ASM(".equ NVIC_PENDSVSET, 0x10000000");
 2091              		.loc 1 587 5 view .LVU568
 2092              		.syntax unified
 2093              	@ 587 "SYS/task_manager/task_manager.c" 1
 2094              		.equ NVIC_INT_CTRL, 0xE000ED04
 2095              	@ 0 "" 2
 588:SYS/task_manager/task_manager.c **** 
 2096              		.loc 1 588 5 view .LVU569
 2097              	@ 588 "SYS/task_manager/task_manager.c" 1
 2098              		.equ NVIC_PENDSVSET, 0x10000000
 2099              	@ 0 "" 2
 590:SYS/task_manager/task_manager.c ****     __ASM("LDR      R1, =NVIC_PENDSVSET");
 2100              		.loc 1 590 5 view .LVU570
 2101              	@ 590 "SYS/task_manager/task_manager.c" 1
 2102 0000 0248     		LDR      R0, =NVIC_INT_CTRL
 2103              	@ 0 "" 2
 591:SYS/task_manager/task_manager.c ****     __ASM("STR      R1, [R0]");
 2104              		.loc 1 591 5 view .LVU571
 2105              	@ 591 "SYS/task_manager/task_manager.c" 1
 2106 0002 4FF08051 		LDR      R1, =NVIC_PENDSVSET
 2107              	@ 0 "" 2
 592:SYS/task_manager/task_manager.c ****     __ASM("BX       LR");
 2108              		.loc 1 592 5 view .LVU572
 2109              	@ 592 "SYS/task_manager/task_manager.c" 1
 2110 0006 0160     		STR      R1, [R0]
 2111              	@ 0 "" 2
 593:SYS/task_manager/task_manager.c **** }
 2112              		.loc 1 593 5 view .LVU573
 2113              	@ 593 "SYS/task_manager/task_manager.c" 1
 2114 0008 7047     		BX       LR
 2115              	@ 0 "" 2
 594:SYS/task_manager/task_manager.c **** 
 2116              		.loc 1 594 1 is_stmt 0 view .LVU574
 2117              		.thumb
 2118              		.syntax unified
 2119              		.cfi_endproc
 2120              	.LFE152:
 2122 000a 0000     		.section	.text.Task_Scheduler,"ax",%progbits
 2123              		.align	1
 2124              		.global	Task_Scheduler
 2125              		.syntax unified
 2126              		.thumb
 2127              		.thumb_func
 2128              		.fpu fpv4-sp-d16
 2130              	Task_Scheduler:
 2131              	.LFB172:
1001:SYS/task_manager/task_manager.c **** 
1002:SYS/task_manager/task_manager.c **** void Task_Scheduler(void)
ARM GAS  /var/folders/lx/hc4sn_b53233_zkc9xbbl97r0000gp/T//ccr3Mjaw.s 			page 62


1003:SYS/task_manager/task_manager.c **** {
 2132              		.loc 1 1003 1 is_stmt 1 view -0
 2133              		.cfi_startproc
 2134              		@ args = 0, pretend = 0, frame = 0
 2135              		@ frame_needed = 0, uses_anonymous_args = 0
1004:SYS/task_manager/task_manager.c ****     if (TskSys_state != TaskSys_Start)
 2136              		.loc 1 1004 5 view .LVU576
 2137              		.loc 1 1004 22 is_stmt 0 view .LVU577
 2138 0000 4A4B     		ldr	r3, .L159
 2139 0002 1B78     		ldrb	r3, [r3]	@ zero_extendqisi2
 2140 0004 DBB2     		uxtb	r3, r3
 2141              		.loc 1 1004 8 view .LVU578
 2142 0006 022B     		cmp	r3, #2
 2143 0008 00D0     		beq	.L153
 2144 000a 7047     		bx	lr
 2145              	.L153:
1003:SYS/task_manager/task_manager.c ****     if (TskSys_state != TaskSys_Start)
 2146              		.loc 1 1003 1 view .LVU579
 2147 000c 70B5     		push	{r4, r5, r6, lr}
 2148              	.LCFI29:
 2149              		.cfi_def_cfa_offset 16
 2150              		.cfi_offset 4, -16
 2151              		.cfi_offset 5, -12
 2152              		.cfi_offset 6, -8
 2153              		.cfi_offset 14, -4
1005:SYS/task_manager/task_manager.c ****         return;
1006:SYS/task_manager/task_manager.c **** 
1007:SYS/task_manager/task_manager.c ****     List_traverse(&TskCrt_RegList.list, Task_CrtList_TraversePoll_callback, NULL);
 2154              		.loc 1 1007 5 is_stmt 1 view .LVU580
 2155 000e 0022     		movs	r2, #0
 2156 0010 4749     		ldr	r1, .L159+4
 2157 0012 4848     		ldr	r0, .L159+8
 2158 0014 FFF7FEFF 		bl	List_traverse
 2159              	.LVL101:
1008:SYS/task_manager/task_manager.c **** 
1009:SYS/task_manager/task_manager.c ****     NxtRunTsk_Ptr = Task_Get_HighestRank_RdyTask();
 2160              		.loc 1 1009 5 view .LVU581
 2161              		.loc 1 1009 21 is_stmt 0 view .LVU582
 2162 0018 FFF7FEFF 		bl	Task_Get_HighestRank_RdyTask
 2163              	.LVL102:
 2164              		.loc 1 1009 19 view .LVU583
 2165 001c 464B     		ldr	r3, .L159+12
 2166 001e 1860     		str	r0, [r3]
1010:SYS/task_manager/task_manager.c **** 
1011:SYS/task_manager/task_manager.c **** #if (TASK_SCHEDULER_TYPE == PREEMPTIVE_SCHDULER)
1012:SYS/task_manager/task_manager.c **** 
1013:SYS/task_manager/task_manager.c ****     PndHstTsk_Ptr = Task_Get_HighestRank_PndTask();
 2167              		.loc 1 1013 5 is_stmt 1 view .LVU584
 2168              		.loc 1 1013 21 is_stmt 0 view .LVU585
 2169 0020 FFF7FEFF 		bl	Task_Get_HighestRank_PndTask
 2170              	.LVL103:
 2171 0024 0446     		mov	r4, r0
 2172              		.loc 1 1013 19 view .LVU586
 2173 0026 454B     		ldr	r3, .L159+16
 2174 0028 1860     		str	r0, [r3]
1014:SYS/task_manager/task_manager.c **** 
1015:SYS/task_manager/task_manager.c ****     if (CurRunTsk_Ptr == NULL)
ARM GAS  /var/folders/lx/hc4sn_b53233_zkc9xbbl97r0000gp/T//ccr3Mjaw.s 			page 63


 2175              		.loc 1 1015 5 is_stmt 1 view .LVU587
 2176              		.loc 1 1015 23 is_stmt 0 view .LVU588
 2177 002a 454B     		ldr	r3, .L159+20
 2178 002c 1D68     		ldr	r5, [r3]
 2179              		.loc 1 1015 8 view .LVU589
 2180 002e 5DB1     		cbz	r5, .L154
1016:SYS/task_manager/task_manager.c ****     {
1017:SYS/task_manager/task_manager.c ****         if (PndHstTsk_Ptr == NULL)
1018:SYS/task_manager/task_manager.c ****         {
1019:SYS/task_manager/task_manager.c ****             //Current Run task Pointer is Null also no task In pending mode
1020:SYS/task_manager/task_manager.c ****             //set CurRunTsk_Ptr to NxtRunTsk_Ptr
1021:SYS/task_manager/task_manager.c ****             if (NxtRunTsk_Ptr != NULL)
1022:SYS/task_manager/task_manager.c ****             {
1023:SYS/task_manager/task_manager.c ****                 NxtTsk_TCB.Top_Stk_Ptr = &NxtRunTsk_Ptr->TCB.Top_Stk_Ptr;
1024:SYS/task_manager/task_manager.c ****                 NxtTsk_TCB.Stack = NxtRunTsk_Ptr->TCB.Stack;
1025:SYS/task_manager/task_manager.c **** 
1026:SYS/task_manager/task_manager.c ****                 Task_TriggerPendSV();
1027:SYS/task_manager/task_manager.c ****                 return;
1028:SYS/task_manager/task_manager.c ****             }
1029:SYS/task_manager/task_manager.c ****             else
1030:SYS/task_manager/task_manager.c ****             {
1031:SYS/task_manager/task_manager.c ****                 //doing idle function
1032:SYS/task_manager/task_manager.c ****                 Task_Idle();
1033:SYS/task_manager/task_manager.c ****             }
1034:SYS/task_manager/task_manager.c ****         }
1035:SYS/task_manager/task_manager.c ****         else
1036:SYS/task_manager/task_manager.c ****         {
1037:SYS/task_manager/task_manager.c ****             if (NxtRunTsk_Ptr != NULL)
1038:SYS/task_manager/task_manager.c ****             {
1039:SYS/task_manager/task_manager.c ****                 //if has NxtRunTsk_Ptr is not NULL also have task in pending state
1040:SYS/task_manager/task_manager.c ****                 //then get the highest priority task in pend list
1041:SYS/task_manager/task_manager.c ****                 //compare with NxtRunTsk_Ptr
1042:SYS/task_manager/task_manager.c ****                 if (Task_PriorityCompare(NxtRunTsk_Ptr, PndHstTsk_Ptr) == PndHstTsk_Ptr)
1043:SYS/task_manager/task_manager.c ****                 {
1044:SYS/task_manager/task_manager.c ****                     PndHstTsk_Ptr->Exec_status.State = Task_Running;
1045:SYS/task_manager/task_manager.c ****                     NxtRunTsk_Ptr = PndHstTsk_Ptr;
1046:SYS/task_manager/task_manager.c **** 
1047:SYS/task_manager/task_manager.c ****                     Task_ClearPending(NxtRunTsk_Ptr);
1048:SYS/task_manager/task_manager.c ****                 }
1049:SYS/task_manager/task_manager.c ****             }
1050:SYS/task_manager/task_manager.c ****             else
1051:SYS/task_manager/task_manager.c ****             {
1052:SYS/task_manager/task_manager.c ****                 //if NxtRunTsk_Ptr is NULL
1053:SYS/task_manager/task_manager.c ****                 //then set NxtRunTsk_Ptr PndHstTsk_Ptr
1054:SYS/task_manager/task_manager.c ****                 PndHstTsk_Ptr->Exec_status.State = Task_Running;
1055:SYS/task_manager/task_manager.c ****                 NxtRunTsk_Ptr = PndHstTsk_Ptr;
1056:SYS/task_manager/task_manager.c **** 
1057:SYS/task_manager/task_manager.c ****                 Task_ClearPending(NxtRunTsk_Ptr);
1058:SYS/task_manager/task_manager.c ****             }
1059:SYS/task_manager/task_manager.c **** 
1060:SYS/task_manager/task_manager.c ****             NxtTsk_TCB.Top_Stk_Ptr = &NxtRunTsk_Ptr->TCB.Top_Stk_Ptr;
1061:SYS/task_manager/task_manager.c ****             NxtTsk_TCB.Stack = NxtRunTsk_Ptr->TCB.Stack;
1062:SYS/task_manager/task_manager.c **** 
1063:SYS/task_manager/task_manager.c ****             Task_TriggerPendSV();
1064:SYS/task_manager/task_manager.c ****             return;
1065:SYS/task_manager/task_manager.c ****         }
1066:SYS/task_manager/task_manager.c ****     }
ARM GAS  /var/folders/lx/hc4sn_b53233_zkc9xbbl97r0000gp/T//ccr3Mjaw.s 			page 64


1067:SYS/task_manager/task_manager.c ****     else
1068:SYS/task_manager/task_manager.c ****     {
1069:SYS/task_manager/task_manager.c ****         if (CurRunTsk_Ptr != NxtRunTsk_Ptr)
 2181              		.loc 1 1069 9 is_stmt 1 view .LVU590
 2182              		.loc 1 1069 27 is_stmt 0 view .LVU591
 2183 0030 414B     		ldr	r3, .L159+12
 2184 0032 1E68     		ldr	r6, [r3]
 2185              		.loc 1 1069 12 view .LVU592
 2186 0034 B542     		cmp	r5, r6
 2187 0036 5ED0     		beq	.L147
1070:SYS/task_manager/task_manager.c ****         {
1071:SYS/task_manager/task_manager.c ****             if ((NxtRunTsk_Ptr != NULL) && (Task_PriorityCompare(CurRunTsk_Ptr, NxtRunTsk_Ptr) == N
 2188              		.loc 1 1071 13 is_stmt 1 view .LVU593
 2189              		.loc 1 1071 16 is_stmt 0 view .LVU594
 2190 0038 2EB1     		cbz	r6, .L140
 2191              		.loc 1 1071 45 discriminator 1 view .LVU595
 2192 003a 3146     		mov	r1, r6
 2193 003c 2846     		mov	r0, r5
 2194 003e FFF7FEFF 		bl	Task_PriorityCompare
 2195              	.LVL104:
 2196              		.loc 1 1071 41 discriminator 1 view .LVU596
 2197 0042 8642     		cmp	r6, r0
 2198 0044 35D0     		beq	.L155
 2199              	.L140:
1072:SYS/task_manager/task_manager.c ****             {
1073:SYS/task_manager/task_manager.c ****                 //if NxtRunTsk_Ptr group priority is higher then CurRunTsk_Ptr also PndHstTsk_Ptr
1074:SYS/task_manager/task_manager.c ****                 //set current run task as pending state first
1075:SYS/task_manager/task_manager.c ****                 Task_SetPending(CurRunTsk_Ptr);
1076:SYS/task_manager/task_manager.c ****                 Task_ClearReady(CurRunTsk_Ptr);
1077:SYS/task_manager/task_manager.c **** 
1078:SYS/task_manager/task_manager.c ****                 //get the highset priority task in pending list
1079:SYS/task_manager/task_manager.c ****                 //if PndHstTsk_Ptr is not NULL
1080:SYS/task_manager/task_manager.c ****                 //then compare the priority between the NxtRunTsk_Ptr and PndHstTsk_Ptr
1081:SYS/task_manager/task_manager.c ****                 if (PndHstTsk_Ptr != NULL)
1082:SYS/task_manager/task_manager.c ****                 {
1083:SYS/task_manager/task_manager.c ****                     if (Task_PriorityCompare(PndHstTsk_Ptr, NxtRunTsk_Ptr) == PndHstTsk_Ptr)
1084:SYS/task_manager/task_manager.c ****                     {
1085:SYS/task_manager/task_manager.c ****                         NxtRunTsk_Ptr = PndHstTsk_Ptr;
1086:SYS/task_manager/task_manager.c ****                     }
1087:SYS/task_manager/task_manager.c ****                 }
1088:SYS/task_manager/task_manager.c **** 
1089:SYS/task_manager/task_manager.c ****                 Task_SetReady(NxtRunTsk_Ptr);
1090:SYS/task_manager/task_manager.c ****                 NxtTsk_TCB.Top_Stk_Ptr = &NxtRunTsk_Ptr->TCB.Top_Stk_Ptr;
1091:SYS/task_manager/task_manager.c ****                 NxtTsk_TCB.Stack = NxtRunTsk_Ptr->TCB.Stack;
1092:SYS/task_manager/task_manager.c **** 
1093:SYS/task_manager/task_manager.c ****                 Task_TriggerPendSV();
1094:SYS/task_manager/task_manager.c ****                 return;
1095:SYS/task_manager/task_manager.c ****             }
1096:SYS/task_manager/task_manager.c ****         }
1097:SYS/task_manager/task_manager.c ****         else
1098:SYS/task_manager/task_manager.c ****         {
1099:SYS/task_manager/task_manager.c ****             //compare with the highest priority pending task
1100:SYS/task_manager/task_manager.c ****             if ((PndHstTsk_Ptr != NULL) && (Task_PriorityCompare(CurRunTsk_Ptr, NxtRunTsk_Ptr) == P
1101:SYS/task_manager/task_manager.c ****             {
1102:SYS/task_manager/task_manager.c ****                 //if PndHstTsk_Ptr group priority is higher then CurRunTsk_Ptr
1103:SYS/task_manager/task_manager.c ****                 //set current run task as pending state first
1104:SYS/task_manager/task_manager.c ****                 Task_SetPending(CurRunTsk_Ptr);
ARM GAS  /var/folders/lx/hc4sn_b53233_zkc9xbbl97r0000gp/T//ccr3Mjaw.s 			page 65


1105:SYS/task_manager/task_manager.c ****                 Task_SetReady(PndHstTsk_Ptr);
1106:SYS/task_manager/task_manager.c **** 
1107:SYS/task_manager/task_manager.c ****                 NxtRunTsk_Ptr = PndHstTsk_Ptr;
1108:SYS/task_manager/task_manager.c ****                 NxtTsk_TCB.Top_Stk_Ptr = &NxtRunTsk_Ptr->TCB.Top_Stk_Ptr;
1109:SYS/task_manager/task_manager.c ****                 NxtTsk_TCB.Stack = NxtRunTsk_Ptr->TCB.Stack;
1110:SYS/task_manager/task_manager.c **** 
1111:SYS/task_manager/task_manager.c ****                 Task_TriggerPendSV();
1112:SYS/task_manager/task_manager.c ****                 return;
1113:SYS/task_manager/task_manager.c ****             }
1114:SYS/task_manager/task_manager.c ****         }
1115:SYS/task_manager/task_manager.c ****     }
1116:SYS/task_manager/task_manager.c **** #else
1117:SYS/task_manager/task_manager.c ****     Task_TriggerPendSV();
1118:SYS/task_manager/task_manager.c **** #endif
1119:SYS/task_manager/task_manager.c **** }
 2200              		.loc 1 1119 1 view .LVU597
 2201 0046 70BD     		pop	{r4, r5, r6, pc}
 2202              	.L154:
1017:SYS/task_manager/task_manager.c ****         {
 2203              		.loc 1 1017 9 is_stmt 1 view .LVU598
1017:SYS/task_manager/task_manager.c ****         {
 2204              		.loc 1 1017 12 is_stmt 0 view .LVU599
 2205 0048 90B1     		cbz	r0, .L156
1037:SYS/task_manager/task_manager.c ****             {
 2206              		.loc 1 1037 13 is_stmt 1 view .LVU600
1037:SYS/task_manager/task_manager.c ****             {
 2207              		.loc 1 1037 31 is_stmt 0 view .LVU601
 2208 004a 3B4B     		ldr	r3, .L159+12
 2209 004c 1868     		ldr	r0, [r3]
1037:SYS/task_manager/task_manager.c ****             {
 2210              		.loc 1 1037 16 view .LVU602
 2211 004e 38B3     		cbz	r0, .L145
1042:SYS/task_manager/task_manager.c ****                 {
 2212              		.loc 1 1042 17 is_stmt 1 view .LVU603
1042:SYS/task_manager/task_manager.c ****                 {
 2213              		.loc 1 1042 21 is_stmt 0 view .LVU604
 2214 0050 2146     		mov	r1, r4
 2215 0052 FFF7FEFF 		bl	Task_PriorityCompare
 2216              	.LVL105:
1042:SYS/task_manager/task_manager.c ****                 {
 2217              		.loc 1 1042 20 view .LVU605
 2218 0056 8442     		cmp	r4, r0
 2219 0058 19D0     		beq	.L157
 2220              	.L146:
1060:SYS/task_manager/task_manager.c ****             NxtTsk_TCB.Stack = NxtRunTsk_Ptr->TCB.Stack;
 2221              		.loc 1 1060 13 is_stmt 1 view .LVU606
1060:SYS/task_manager/task_manager.c ****             NxtTsk_TCB.Stack = NxtRunTsk_Ptr->TCB.Stack;
 2222              		.loc 1 1060 52 is_stmt 0 view .LVU607
 2223 005a 374B     		ldr	r3, .L159+12
 2224 005c 1A68     		ldr	r2, [r3]
1060:SYS/task_manager/task_manager.c ****             NxtTsk_TCB.Stack = NxtRunTsk_Ptr->TCB.Stack;
 2225              		.loc 1 1060 38 view .LVU608
 2226 005e 02F15401 		add	r1, r2, #84
1060:SYS/task_manager/task_manager.c ****             NxtTsk_TCB.Stack = NxtRunTsk_Ptr->TCB.Stack;
 2227              		.loc 1 1060 36 view .LVU609
 2228 0062 384B     		ldr	r3, .L159+24
 2229 0064 1960     		str	r1, [r3]
ARM GAS  /var/folders/lx/hc4sn_b53233_zkc9xbbl97r0000gp/T//ccr3Mjaw.s 			page 66


1061:SYS/task_manager/task_manager.c **** 
 2230              		.loc 1 1061 13 is_stmt 1 view .LVU610
1061:SYS/task_manager/task_manager.c **** 
 2231              		.loc 1 1061 50 is_stmt 0 view .LVU611
 2232 0066 926D     		ldr	r2, [r2, #88]
1061:SYS/task_manager/task_manager.c **** 
 2233              		.loc 1 1061 30 view .LVU612
 2234 0068 5A60     		str	r2, [r3, #4]
1063:SYS/task_manager/task_manager.c ****             return;
 2235              		.loc 1 1063 13 is_stmt 1 view .LVU613
 2236 006a FFF7FEFF 		bl	Task_TriggerPendSV
 2237              	.LVL106:
1064:SYS/task_manager/task_manager.c ****         }
 2238              		.loc 1 1064 13 view .LVU614
 2239 006e EAE7     		b	.L140
 2240              	.L156:
1021:SYS/task_manager/task_manager.c ****             {
 2241              		.loc 1 1021 13 view .LVU615
1021:SYS/task_manager/task_manager.c ****             {
 2242              		.loc 1 1021 31 is_stmt 0 view .LVU616
 2243 0070 314B     		ldr	r3, .L159+12
 2244 0072 1B68     		ldr	r3, [r3]
1021:SYS/task_manager/task_manager.c ****             {
 2245              		.loc 1 1021 16 view .LVU617
 2246 0074 43B1     		cbz	r3, .L144
1023:SYS/task_manager/task_manager.c ****                 NxtTsk_TCB.Stack = NxtRunTsk_Ptr->TCB.Stack;
 2247              		.loc 1 1023 17 is_stmt 1 view .LVU618
1023:SYS/task_manager/task_manager.c ****                 NxtTsk_TCB.Stack = NxtRunTsk_Ptr->TCB.Stack;
 2248              		.loc 1 1023 42 is_stmt 0 view .LVU619
 2249 0076 03F15401 		add	r1, r3, #84
1023:SYS/task_manager/task_manager.c ****                 NxtTsk_TCB.Stack = NxtRunTsk_Ptr->TCB.Stack;
 2250              		.loc 1 1023 40 view .LVU620
 2251 007a 324A     		ldr	r2, .L159+24
 2252 007c 1160     		str	r1, [r2]
1024:SYS/task_manager/task_manager.c **** 
 2253              		.loc 1 1024 17 is_stmt 1 view .LVU621
1024:SYS/task_manager/task_manager.c **** 
 2254              		.loc 1 1024 54 is_stmt 0 view .LVU622
 2255 007e 9B6D     		ldr	r3, [r3, #88]
1024:SYS/task_manager/task_manager.c **** 
 2256              		.loc 1 1024 34 view .LVU623
 2257 0080 5360     		str	r3, [r2, #4]
1026:SYS/task_manager/task_manager.c ****                 return;
 2258              		.loc 1 1026 17 is_stmt 1 view .LVU624
 2259 0082 FFF7FEFF 		bl	Task_TriggerPendSV
 2260              	.LVL107:
1027:SYS/task_manager/task_manager.c ****             }
 2261              		.loc 1 1027 17 view .LVU625
 2262 0086 DEE7     		b	.L140
 2263              	.L144:
1032:SYS/task_manager/task_manager.c ****             }
 2264              		.loc 1 1032 17 view .LVU626
 2265 0088 FFF7FEFF 		bl	Task_Idle
 2266              	.LVL108:
 2267 008c DBE7     		b	.L140
 2268              	.L157:
1044:SYS/task_manager/task_manager.c ****                     NxtRunTsk_Ptr = PndHstTsk_Ptr;
ARM GAS  /var/folders/lx/hc4sn_b53233_zkc9xbbl97r0000gp/T//ccr3Mjaw.s 			page 67


 2269              		.loc 1 1044 21 view .LVU627
1044:SYS/task_manager/task_manager.c ****                     NxtRunTsk_Ptr = PndHstTsk_Ptr;
 2270              		.loc 1 1044 54 is_stmt 0 view .LVU628
 2271 008e 0123     		movs	r3, #1
 2272 0090 84F84C30 		strb	r3, [r4, #76]
1045:SYS/task_manager/task_manager.c **** 
 2273              		.loc 1 1045 21 is_stmt 1 view .LVU629
1045:SYS/task_manager/task_manager.c **** 
 2274              		.loc 1 1045 35 is_stmt 0 view .LVU630
 2275 0094 284B     		ldr	r3, .L159+12
 2276 0096 1C60     		str	r4, [r3]
1047:SYS/task_manager/task_manager.c ****                 }
 2277              		.loc 1 1047 21 is_stmt 1 view .LVU631
 2278 0098 2046     		mov	r0, r4
 2279 009a FFF7FEFF 		bl	Task_ClearPending
 2280              	.LVL109:
 2281 009e DCE7     		b	.L146
 2282              	.L145:
1054:SYS/task_manager/task_manager.c ****                 NxtRunTsk_Ptr = PndHstTsk_Ptr;
 2283              		.loc 1 1054 17 view .LVU632
1054:SYS/task_manager/task_manager.c ****                 NxtRunTsk_Ptr = PndHstTsk_Ptr;
 2284              		.loc 1 1054 50 is_stmt 0 view .LVU633
 2285 00a0 0123     		movs	r3, #1
 2286 00a2 84F84C30 		strb	r3, [r4, #76]
1055:SYS/task_manager/task_manager.c **** 
 2287              		.loc 1 1055 17 is_stmt 1 view .LVU634
1055:SYS/task_manager/task_manager.c **** 
 2288              		.loc 1 1055 31 is_stmt 0 view .LVU635
 2289 00a6 244B     		ldr	r3, .L159+12
 2290 00a8 1C60     		str	r4, [r3]
1057:SYS/task_manager/task_manager.c ****             }
 2291              		.loc 1 1057 17 is_stmt 1 view .LVU636
 2292 00aa 2046     		mov	r0, r4
 2293 00ac FFF7FEFF 		bl	Task_ClearPending
 2294              	.LVL110:
 2295 00b0 D3E7     		b	.L146
 2296              	.L155:
1075:SYS/task_manager/task_manager.c ****                 Task_ClearReady(CurRunTsk_Ptr);
 2297              		.loc 1 1075 17 view .LVU637
 2298 00b2 2846     		mov	r0, r5
 2299 00b4 FFF7FEFF 		bl	Task_SetPending
 2300              	.LVL111:
1076:SYS/task_manager/task_manager.c **** 
 2301              		.loc 1 1076 17 view .LVU638
 2302 00b8 214B     		ldr	r3, .L159+20
 2303 00ba 1868     		ldr	r0, [r3]
 2304 00bc FFF7FEFF 		bl	Task_ClearReady
 2305              	.LVL112:
1081:SYS/task_manager/task_manager.c ****                 {
 2306              		.loc 1 1081 17 view .LVU639
1081:SYS/task_manager/task_manager.c ****                 {
 2307              		.loc 1 1081 35 is_stmt 0 view .LVU640
 2308 00c0 1E4B     		ldr	r3, .L159+16
 2309 00c2 1C68     		ldr	r4, [r3]
1081:SYS/task_manager/task_manager.c ****                 {
 2310              		.loc 1 1081 20 view .LVU641
 2311 00c4 34B1     		cbz	r4, .L148
ARM GAS  /var/folders/lx/hc4sn_b53233_zkc9xbbl97r0000gp/T//ccr3Mjaw.s 			page 68


1083:SYS/task_manager/task_manager.c ****                     {
 2312              		.loc 1 1083 21 is_stmt 1 view .LVU642
1083:SYS/task_manager/task_manager.c ****                     {
 2313              		.loc 1 1083 25 is_stmt 0 view .LVU643
 2314 00c6 1C4B     		ldr	r3, .L159+12
 2315 00c8 1968     		ldr	r1, [r3]
 2316 00ca 2046     		mov	r0, r4
 2317 00cc FFF7FEFF 		bl	Task_PriorityCompare
 2318              	.LVL113:
1083:SYS/task_manager/task_manager.c ****                     {
 2319              		.loc 1 1083 24 view .LVU644
 2320 00d0 8442     		cmp	r4, r0
 2321 00d2 0DD0     		beq	.L158
 2322              	.L148:
1089:SYS/task_manager/task_manager.c ****                 NxtTsk_TCB.Top_Stk_Ptr = &NxtRunTsk_Ptr->TCB.Top_Stk_Ptr;
 2323              		.loc 1 1089 17 is_stmt 1 view .LVU645
 2324 00d4 184C     		ldr	r4, .L159+12
 2325 00d6 2068     		ldr	r0, [r4]
 2326 00d8 FFF7FEFF 		bl	Task_SetReady
 2327              	.LVL114:
1090:SYS/task_manager/task_manager.c ****                 NxtTsk_TCB.Stack = NxtRunTsk_Ptr->TCB.Stack;
 2328              		.loc 1 1090 17 view .LVU646
1090:SYS/task_manager/task_manager.c ****                 NxtTsk_TCB.Stack = NxtRunTsk_Ptr->TCB.Stack;
 2329              		.loc 1 1090 56 is_stmt 0 view .LVU647
 2330 00dc 2268     		ldr	r2, [r4]
1090:SYS/task_manager/task_manager.c ****                 NxtTsk_TCB.Stack = NxtRunTsk_Ptr->TCB.Stack;
 2331              		.loc 1 1090 42 view .LVU648
 2332 00de 02F15401 		add	r1, r2, #84
1090:SYS/task_manager/task_manager.c ****                 NxtTsk_TCB.Stack = NxtRunTsk_Ptr->TCB.Stack;
 2333              		.loc 1 1090 40 view .LVU649
 2334 00e2 184B     		ldr	r3, .L159+24
 2335 00e4 1960     		str	r1, [r3]
1091:SYS/task_manager/task_manager.c **** 
 2336              		.loc 1 1091 17 is_stmt 1 view .LVU650
1091:SYS/task_manager/task_manager.c **** 
 2337              		.loc 1 1091 54 is_stmt 0 view .LVU651
 2338 00e6 926D     		ldr	r2, [r2, #88]
1091:SYS/task_manager/task_manager.c **** 
 2339              		.loc 1 1091 34 view .LVU652
 2340 00e8 5A60     		str	r2, [r3, #4]
1093:SYS/task_manager/task_manager.c ****                 return;
 2341              		.loc 1 1093 17 is_stmt 1 view .LVU653
 2342 00ea FFF7FEFF 		bl	Task_TriggerPendSV
 2343              	.LVL115:
1094:SYS/task_manager/task_manager.c ****             }
 2344              		.loc 1 1094 17 view .LVU654
 2345 00ee AAE7     		b	.L140
 2346              	.L158:
1085:SYS/task_manager/task_manager.c ****                     }
 2347              		.loc 1 1085 25 view .LVU655
1085:SYS/task_manager/task_manager.c ****                     }
 2348              		.loc 1 1085 39 is_stmt 0 view .LVU656
 2349 00f0 114B     		ldr	r3, .L159+12
 2350 00f2 1C60     		str	r4, [r3]
 2351 00f4 EEE7     		b	.L148
 2352              	.L147:
1100:SYS/task_manager/task_manager.c ****             {
ARM GAS  /var/folders/lx/hc4sn_b53233_zkc9xbbl97r0000gp/T//ccr3Mjaw.s 			page 69


 2353              		.loc 1 1100 13 is_stmt 1 view .LVU657
1100:SYS/task_manager/task_manager.c ****             {
 2354              		.loc 1 1100 16 is_stmt 0 view .LVU658
 2355 00f6 0028     		cmp	r0, #0
 2356 00f8 A5D0     		beq	.L140
1100:SYS/task_manager/task_manager.c ****             {
 2357              		.loc 1 1100 45 discriminator 1 view .LVU659
 2358 00fa 3146     		mov	r1, r6
 2359 00fc 2846     		mov	r0, r5
 2360 00fe FFF7FEFF 		bl	Task_PriorityCompare
 2361              	.LVL116:
1100:SYS/task_manager/task_manager.c ****             {
 2362              		.loc 1 1100 41 discriminator 1 view .LVU660
 2363 0102 8442     		cmp	r4, r0
 2364 0104 9FD1     		bne	.L140
1104:SYS/task_manager/task_manager.c ****                 Task_SetReady(PndHstTsk_Ptr);
 2365              		.loc 1 1104 17 is_stmt 1 view .LVU661
 2366 0106 2846     		mov	r0, r5
 2367 0108 FFF7FEFF 		bl	Task_SetPending
 2368              	.LVL117:
1105:SYS/task_manager/task_manager.c **** 
 2369              		.loc 1 1105 17 view .LVU662
 2370 010c 0B4C     		ldr	r4, .L159+16
 2371 010e 2068     		ldr	r0, [r4]
 2372 0110 FFF7FEFF 		bl	Task_SetReady
 2373              	.LVL118:
1107:SYS/task_manager/task_manager.c ****                 NxtTsk_TCB.Top_Stk_Ptr = &NxtRunTsk_Ptr->TCB.Top_Stk_Ptr;
 2374              		.loc 1 1107 17 view .LVU663
1107:SYS/task_manager/task_manager.c ****                 NxtTsk_TCB.Top_Stk_Ptr = &NxtRunTsk_Ptr->TCB.Top_Stk_Ptr;
 2375              		.loc 1 1107 31 is_stmt 0 view .LVU664
 2376 0114 2368     		ldr	r3, [r4]
 2377 0116 084A     		ldr	r2, .L159+12
 2378 0118 1360     		str	r3, [r2]
1108:SYS/task_manager/task_manager.c ****                 NxtTsk_TCB.Stack = NxtRunTsk_Ptr->TCB.Stack;
 2379              		.loc 1 1108 17 is_stmt 1 view .LVU665
1108:SYS/task_manager/task_manager.c ****                 NxtTsk_TCB.Stack = NxtRunTsk_Ptr->TCB.Stack;
 2380              		.loc 1 1108 42 is_stmt 0 view .LVU666
 2381 011a 03F15401 		add	r1, r3, #84
1108:SYS/task_manager/task_manager.c ****                 NxtTsk_TCB.Stack = NxtRunTsk_Ptr->TCB.Stack;
 2382              		.loc 1 1108 40 view .LVU667
 2383 011e 094A     		ldr	r2, .L159+24
 2384 0120 1160     		str	r1, [r2]
1109:SYS/task_manager/task_manager.c **** 
 2385              		.loc 1 1109 17 is_stmt 1 view .LVU668
1109:SYS/task_manager/task_manager.c **** 
 2386              		.loc 1 1109 54 is_stmt 0 view .LVU669
 2387 0122 9B6D     		ldr	r3, [r3, #88]
1109:SYS/task_manager/task_manager.c **** 
 2388              		.loc 1 1109 34 view .LVU670
 2389 0124 5360     		str	r3, [r2, #4]
1111:SYS/task_manager/task_manager.c ****                 return;
 2390              		.loc 1 1111 17 is_stmt 1 view .LVU671
 2391 0126 FFF7FEFF 		bl	Task_TriggerPendSV
 2392              	.LVL119:
1112:SYS/task_manager/task_manager.c ****             }
 2393              		.loc 1 1112 17 view .LVU672
 2394 012a 8CE7     		b	.L140
ARM GAS  /var/folders/lx/hc4sn_b53233_zkc9xbbl97r0000gp/T//ccr3Mjaw.s 			page 70


 2395              	.L160:
 2396              		.align	2
 2397              	.L159:
 2398 012c 00000000 		.word	.LANCHOR7
 2399 0130 00000000 		.word	Task_CrtList_TraversePoll_callback
 2400 0134 04000000 		.word	.LANCHOR5+4
 2401 0138 00000000 		.word	.LANCHOR11
 2402 013c 00000000 		.word	.LANCHOR15
 2403 0140 00000000 		.word	.LANCHOR6
 2404 0144 00000000 		.word	.LANCHOR12
 2405              		.cfi_endproc
 2406              	.LFE172:
 2408              		.section	.text.Task_Force_TriggerPendSV,"ax",%progbits
 2409              		.align	1
 2410              		.global	Task_Force_TriggerPendSV
 2411              		.syntax unified
 2412              		.thumb
 2413              		.thumb_func
 2414              		.fpu fpv4-sp-d16
 2416              	Task_Force_TriggerPendSV:
 2417              	.LFB153:
 597:SYS/task_manager/task_manager.c ****     /* Barriers are normally not required but do ensure the code is completely \
 2418              		.loc 1 597 1 view -0
 2419              		.cfi_startproc
 2420              		@ args = 0, pretend = 0, frame = 0
 2421              		@ frame_needed = 0, uses_anonymous_args = 0
 2422 0000 08B5     		push	{r3, lr}
 2423              	.LCFI30:
 2424              		.cfi_def_cfa_offset 8
 2425              		.cfi_offset 3, -8
 2426              		.cfi_offset 14, -4
 600:SYS/task_manager/task_manager.c ****                        : "memory");
 2427              		.loc 1 600 5 view .LVU674
 2428              		.syntax unified
 2429              	@ 600 "SYS/task_manager/task_manager.c" 1
 2430 0002 BFF34F8F 		dsb
 2431              	@ 0 "" 2
 602:SYS/task_manager/task_manager.c ****     Task_TriggerPendSV();
 2432              		.loc 1 602 5 view .LVU675
 2433              	@ 602 "SYS/task_manager/task_manager.c" 1
 2434 0006 BFF36F8F 		isb
 2435              	@ 0 "" 2
 603:SYS/task_manager/task_manager.c **** }
 2436              		.loc 1 603 5 view .LVU676
 2437              		.thumb
 2438              		.syntax unified
 2439 000a FFF7FEFF 		bl	Task_TriggerPendSV
 2440              	.LVL120:
 604:SYS/task_manager/task_manager.c **** 
 2441              		.loc 1 604 1 is_stmt 0 view .LVU677
 2442 000e 08BD     		pop	{r3, pc}
 2443              		.cfi_endproc
 2444              	.LFE153:
 2446              		.section	.text.Task_Get_TaskNum,"ax",%progbits
 2447              		.align	1
 2448              		.global	Task_Get_TaskNum
 2449              		.syntax unified
ARM GAS  /var/folders/lx/hc4sn_b53233_zkc9xbbl97r0000gp/T//ccr3Mjaw.s 			page 71


 2450              		.thumb
 2451              		.thumb_func
 2452              		.fpu fpv4-sp-d16
 2454              	Task_Get_TaskNum:
 2455              	.LFB154:
 607:SYS/task_manager/task_manager.c ****     return TskCrt_RegList.num;
 2456              		.loc 1 607 1 is_stmt 1 view -0
 2457              		.cfi_startproc
 2458              		@ args = 0, pretend = 0, frame = 0
 2459              		@ frame_needed = 0, uses_anonymous_args = 0
 2460              		@ link register save eliminated.
 608:SYS/task_manager/task_manager.c **** }
 2461              		.loc 1 608 5 view .LVU679
 609:SYS/task_manager/task_manager.c **** 
 2462              		.loc 1 609 1 is_stmt 0 view .LVU680
 2463 0000 014B     		ldr	r3, .L164
 2464 0002 1878     		ldrb	r0, [r3]	@ zero_extendqisi2
 2465 0004 7047     		bx	lr
 2466              	.L165:
 2467 0006 00BF     		.align	2
 2468              	.L164:
 2469 0008 00000000 		.word	.LANCHOR5
 2470              		.cfi_endproc
 2471              	.LFE154:
 2473              		.section	.text.Task_Create,"ax",%progbits
 2474              		.align	1
 2475              		.global	Task_Create
 2476              		.syntax unified
 2477              		.thumb
 2478              		.thumb_func
 2479              		.fpu fpv4-sp-d16
 2481              	Task_Create:
 2482              	.LVL121:
 2483              	.LFB156:
 656:SYS/task_manager/task_manager.c ****     Task_Handler handle;
 2484              		.loc 1 656 1 is_stmt 1 view -0
 2485              		.cfi_startproc
 2486              		@ args = 8, pretend = 0, frame = 0
 2487              		@ frame_needed = 0, uses_anonymous_args = 0
 656:SYS/task_manager/task_manager.c ****     Task_Handler handle;
 2488              		.loc 1 656 1 is_stmt 0 view .LVU682
 2489 0000 2DE9F047 		push	{r4, r5, r6, r7, r8, r9, r10, lr}
 2490              	.LCFI31:
 2491              		.cfi_def_cfa_offset 32
 2492              		.cfi_offset 4, -32
 2493              		.cfi_offset 5, -28
 2494              		.cfi_offset 6, -24
 2495              		.cfi_offset 7, -20
 2496              		.cfi_offset 8, -16
 2497              		.cfi_offset 9, -12
 2498              		.cfi_offset 10, -8
 2499              		.cfi_offset 14, -4
 2500 0004 8046     		mov	r8, r0
 2501 0006 0E46     		mov	r6, r1
 2502 0008 1546     		mov	r5, r2
 2503 000a 1C46     		mov	r4, r3
 657:SYS/task_manager/task_manager.c ****     const uint32_t UNIT_S = 1000000;
ARM GAS  /var/folders/lx/hc4sn_b53233_zkc9xbbl97r0000gp/T//ccr3Mjaw.s 			page 72


 2504              		.loc 1 657 5 is_stmt 1 view .LVU683
 658:SYS/task_manager/task_manager.c ****     uint16_t task_name_len = strlen(name);
 2505              		.loc 1 658 5 view .LVU684
 2506              	.LVL122:
 659:SYS/task_manager/task_manager.c ****     uint32_t *Tsk_Ptr_tmp = NULL;
 2507              		.loc 1 659 5 view .LVU685
 660:SYS/task_manager/task_manager.c ****     static bool taskOs_InitState = false;
 2508              		.loc 1 660 5 view .LVU686
 661:SYS/task_manager/task_manager.c **** 
 2509              		.loc 1 661 5 view .LVU687
 663:SYS/task_manager/task_manager.c ****     {
 2510              		.loc 1 663 5 view .LVU688
 663:SYS/task_manager/task_manager.c ****     {
 2511              		.loc 1 663 9 is_stmt 0 view .LVU689
 2512 000c 784B     		ldr	r3, .L177
 2513              	.LVL123:
 663:SYS/task_manager/task_manager.c ****     {
 2514              		.loc 1 663 9 view .LVU690
 2515 000e 1B78     		ldrb	r3, [r3]	@ zero_extendqisi2
 663:SYS/task_manager/task_manager.c ****     {
 2516              		.loc 1 663 8 view .LVU691
 2517 0010 53B1     		cbz	r3, .L175
 2518              	.LVL124:
 2519              	.L167:
 670:SYS/task_manager/task_manager.c ****     {
 2520              		.loc 1 670 5 is_stmt 1 view .LVU692
 670:SYS/task_manager/task_manager.c ****     {
 2521              		.loc 1 670 24 is_stmt 0 view .LVU693
 2522 0012 04EBC503 		add	r3, r4, r5, lsl #3
 2523 0016 774A     		ldr	r2, .L177+4
 2524 0018 52F82330 		ldr	r3, [r2, r3, lsl #2]
 670:SYS/task_manager/task_manager.c ****     {
 2525              		.loc 1 670 8 view .LVU694
 2526 001c 53B1     		cbz	r3, .L176
 672:SYS/task_manager/task_manager.c ****     }
 2527              		.loc 1 672 16 view .LVU695
 2528 001e 4FF00109 		mov	r9, #1
 2529              	.LVL125:
 2530              	.L166:
 766:SYS/task_manager/task_manager.c **** 
 2531              		.loc 1 766 1 view .LVU696
 2532 0022 4846     		mov	r0, r9
 2533 0024 BDE8F087 		pop	{r4, r5, r6, r7, r8, r9, r10, pc}
 2534              	.LVL126:
 2535              	.L175:
 665:SYS/task_manager/task_manager.c ****         taskOs_InitState = true;
 2536              		.loc 1 665 9 is_stmt 1 view .LVU697
 2537 0028 FFF7FEFF 		bl	TaskSys_Init
 2538              	.LVL127:
 666:SYS/task_manager/task_manager.c ****     }
 2539              		.loc 1 666 9 view .LVU698
 666:SYS/task_manager/task_manager.c ****     }
 2540              		.loc 1 666 26 is_stmt 0 view .LVU699
 2541 002c 704B     		ldr	r3, .L177
 2542 002e 0122     		movs	r2, #1
 2543 0030 1A70     		strb	r2, [r3]
 2544 0032 EEE7     		b	.L167
ARM GAS  /var/folders/lx/hc4sn_b53233_zkc9xbbl97r0000gp/T//ccr3Mjaw.s 			page 73


 2545              	.L176:
 676:SYS/task_manager/task_manager.c **** 
 2546              		.loc 1 676 5 is_stmt 1 view .LVU700
 676:SYS/task_manager/task_manager.c **** 
 2547              		.loc 1 676 41 is_stmt 0 view .LVU701
 2548 0034 9420     		movs	r0, #148
 2549 0036 FFF7FEFF 		bl	malloc
 2550              	.LVL128:
 676:SYS/task_manager/task_manager.c **** 
 2551              		.loc 1 676 31 view .LVU702
 2552 003a 6E4F     		ldr	r7, .L177+4
 2553 003c 04EBC50A 		add	r10, r4, r5, lsl #3
 2554 0040 47F82A00 		str	r0, [r7, r10, lsl #2]
 679:SYS/task_manager/task_manager.c **** 
 2555              		.loc 1 679 5 is_stmt 1 view .LVU703
 679:SYS/task_manager/task_manager.c **** 
 2556              		.loc 1 679 12 is_stmt 0 view .LVU704
 2557 0044 8146     		mov	r9, r0
 2558              	.LVL129:
 681:SYS/task_manager/task_manager.c **** 
 2559              		.loc 1 681 5 is_stmt 1 view .LVU705
 681:SYS/task_manager/task_manager.c **** 
 2560              		.loc 1 681 42 is_stmt 0 view .LVU706
 2561 0046 C0F80480 		str	r8, [r0, #4]
 683:SYS/task_manager/task_manager.c ****     Task_Ptr[group][priority]->exec_interval_us = UNIT_S / frq;
 2562              		.loc 1 683 5 is_stmt 1 view .LVU707
 683:SYS/task_manager/task_manager.c ****     Task_Ptr[group][priority]->exec_interval_us = UNIT_S / frq;
 2563              		.loc 1 683 20 is_stmt 0 view .LVU708
 2564 004a 57F82A30 		ldr	r3, [r7, r10, lsl #2]
 683:SYS/task_manager/task_manager.c ****     Task_Ptr[group][priority]->exec_interval_us = UNIT_S / frq;
 2565              		.loc 1 683 41 view .LVU709
 2566 004e 9E60     		str	r6, [r3, #8]
 684:SYS/task_manager/task_manager.c ****     Task_Ptr[group][priority]->Exec_Func = func;
 2567              		.loc 1 684 5 is_stmt 1 view .LVU710
 684:SYS/task_manager/task_manager.c ****     Task_Ptr[group][priority]->Exec_Func = func;
 2568              		.loc 1 684 58 is_stmt 0 view .LVU711
 2569 0050 6949     		ldr	r1, .L177+8
 2570 0052 B1FBF6F6 		udiv	r6, r1, r6
 2571              	.LVL130:
 684:SYS/task_manager/task_manager.c ****     Task_Ptr[group][priority]->Exec_Func = func;
 2572              		.loc 1 684 20 view .LVU712
 2573 0056 57F82A30 		ldr	r3, [r7, r10, lsl #2]
 2574              	.LVL131:
 684:SYS/task_manager/task_manager.c ****     Task_Ptr[group][priority]->Exec_Func = func;
 2575              		.loc 1 684 49 view .LVU713
 2576 005a 9E81     		strh	r6, [r3, #12]	@ movhi
 685:SYS/task_manager/task_manager.c **** 
 2577              		.loc 1 685 5 is_stmt 1 view .LVU714
 685:SYS/task_manager/task_manager.c **** 
 2578              		.loc 1 685 20 is_stmt 0 view .LVU715
 2579 005c 57F82A30 		ldr	r3, [r7, r10, lsl #2]
 685:SYS/task_manager/task_manager.c **** 
 2580              		.loc 1 685 42 view .LVU716
 2581 0060 089A     		ldr	r2, [sp, #32]
 2582 0062 1A61     		str	r2, [r3, #16]
 687:SYS/task_manager/task_manager.c **** 
 2583              		.loc 1 687 5 is_stmt 1 view .LVU717
ARM GAS  /var/folders/lx/hc4sn_b53233_zkc9xbbl97r0000gp/T//ccr3Mjaw.s 			page 74


 687:SYS/task_manager/task_manager.c **** 
 2584              		.loc 1 687 20 is_stmt 0 view .LVU718
 2585 0064 57F82A30 		ldr	r3, [r7, r10, lsl #2]
 687:SYS/task_manager/task_manager.c **** 
 2586              		.loc 1 687 65 view .LVU719
 2587 0068 44EAC502 		orr	r2, r4, r5, lsl #3
 687:SYS/task_manager/task_manager.c **** 
 2588              		.loc 1 687 50 view .LVU720
 2589 006c 1A70     		strb	r2, [r3]
 691:SYS/task_manager/task_manager.c ****     Task_Ptr[group][priority]->delay_info.tsk_hdl = handle;
 2590              		.loc 1 691 5 is_stmt 1 view .LVU721
 691:SYS/task_manager/task_manager.c ****     Task_Ptr[group][priority]->delay_info.tsk_hdl = handle;
 2591              		.loc 1 691 20 is_stmt 0 view .LVU722
 2592 006e 57F82A20 		ldr	r2, [r7, r10, lsl #2]
 691:SYS/task_manager/task_manager.c ****     Task_Ptr[group][priority]->delay_info.tsk_hdl = handle;
 2593              		.loc 1 691 52 view .LVU723
 2594 0072 0023     		movs	r3, #0
 2595 0074 82F86830 		strb	r3, [r2, #104]
 692:SYS/task_manager/task_manager.c ****     Task_Ptr[group][priority]->delay_info.time_unit = 0;
 2596              		.loc 1 692 5 is_stmt 1 view .LVU724
 692:SYS/task_manager/task_manager.c ****     Task_Ptr[group][priority]->delay_info.time_unit = 0;
 2597              		.loc 1 692 20 is_stmt 0 view .LVU725
 2598 0078 57F82A20 		ldr	r2, [r7, r10, lsl #2]
 692:SYS/task_manager/task_manager.c ****     Task_Ptr[group][priority]->delay_info.time_unit = 0;
 2599              		.loc 1 692 51 view .LVU726
 2600 007c D066     		str	r0, [r2, #108]
 693:SYS/task_manager/task_manager.c **** 
 2601              		.loc 1 693 5 is_stmt 1 view .LVU727
 693:SYS/task_manager/task_manager.c **** 
 2602              		.loc 1 693 20 is_stmt 0 view .LVU728
 2603 007e 57F82A20 		ldr	r2, [r7, r10, lsl #2]
 693:SYS/task_manager/task_manager.c **** 
 2604              		.loc 1 693 53 view .LVU729
 2605 0082 1367     		str	r3, [r2, #112]
 696:SYS/task_manager/task_manager.c ****     Task_Ptr[group][priority]->TCB.Stack = (uint32_t *)malloc(StackDepth * sizeof(uint32_t));
 2606              		.loc 1 696 5 is_stmt 1 view .LVU730
 696:SYS/task_manager/task_manager.c ****     Task_Ptr[group][priority]->TCB.Stack = (uint32_t *)malloc(StackDepth * sizeof(uint32_t));
 2607              		.loc 1 696 20 is_stmt 0 view .LVU731
 2608 0084 57F82A30 		ldr	r3, [r7, r10, lsl #2]
 696:SYS/task_manager/task_manager.c ****     Task_Ptr[group][priority]->TCB.Stack = (uint32_t *)malloc(StackDepth * sizeof(uint32_t));
 2609              		.loc 1 696 44 view .LVU732
 2610 0088 099A     		ldr	r2, [sp, #36]
 2611 008a 1A65     		str	r2, [r3, #80]
 697:SYS/task_manager/task_manager.c **** 
 2612              		.loc 1 697 5 is_stmt 1 view .LVU733
 697:SYS/task_manager/task_manager.c **** 
 2613              		.loc 1 697 20 is_stmt 0 view .LVU734
 2614 008c 57F82A60 		ldr	r6, [r7, r10, lsl #2]
 697:SYS/task_manager/task_manager.c **** 
 2615              		.loc 1 697 56 view .LVU735
 2616 0090 9000     		lsls	r0, r2, #2
 2617              	.LVL132:
 697:SYS/task_manager/task_manager.c **** 
 2618              		.loc 1 697 56 view .LVU736
 2619 0092 FFF7FEFF 		bl	malloc
 2620              	.LVL133:
 697:SYS/task_manager/task_manager.c **** 
ARM GAS  /var/folders/lx/hc4sn_b53233_zkc9xbbl97r0000gp/T//ccr3Mjaw.s 			page 75


 2621              		.loc 1 697 42 view .LVU737
 2622 0096 B065     		str	r0, [r6, #88]
 699:SYS/task_manager/task_manager.c ****     {
 2623              		.loc 1 699 5 is_stmt 1 view .LVU738
 699:SYS/task_manager/task_manager.c ****     {
 2624              		.loc 1 699 24 is_stmt 0 view .LVU739
 2625 0098 57F82A00 		ldr	r0, [r7, r10, lsl #2]
 699:SYS/task_manager/task_manager.c ****     {
 2626              		.loc 1 699 39 view .LVU740
 2627 009c 836D     		ldr	r3, [r0, #88]
 699:SYS/task_manager/task_manager.c ****     {
 2628              		.loc 1 699 8 view .LVU741
 2629 009e 002B     		cmp	r3, #0
 2630 00a0 00F0A080 		beq	.L172
 701:SYS/task_manager/task_manager.c ****     }
 2631              		.loc 1 701 9 is_stmt 1 view .LVU742
 2632 00a4 FFF7FEFF 		bl	Task_SetStkPtr_Val
 2633              	.LVL134:
 709:SYS/task_manager/task_manager.c ****     Task_Ptr[group][priority]->statistics_reg.Reg.TskFun_Statistics_REG = stop_statistics;
 2634              		.loc 1 709 5 view .LVU743
 709:SYS/task_manager/task_manager.c ****     Task_Ptr[group][priority]->statistics_reg.Reg.TskFun_Statistics_REG = stop_statistics;
 2635              		.loc 1 709 20 is_stmt 0 view .LVU744
 2636 00a8 3E46     		mov	r6, r7
 2637 00aa 5746     		mov	r7, r10
 2638 00ac 56F82A30 		ldr	r3, [r6, r10, lsl #2]
 709:SYS/task_manager/task_manager.c ****     Task_Ptr[group][priority]->statistics_reg.Reg.TskFun_Statistics_REG = stop_statistics;
 2639              		.loc 1 709 73 view .LVU745
 2640 00b0 93F85C20 		ldrb	r2, [r3, #92]	@ zero_extendqisi2
 2641 00b4 6FF30302 		bfc	r2, #0, #4
 2642 00b8 83F85C20 		strb	r2, [r3, #92]
 710:SYS/task_manager/task_manager.c **** 
 2643              		.loc 1 710 5 is_stmt 1 view .LVU746
 710:SYS/task_manager/task_manager.c **** 
 2644              		.loc 1 710 20 is_stmt 0 view .LVU747
 2645 00bc 56F82A30 		ldr	r3, [r6, r10, lsl #2]
 710:SYS/task_manager/task_manager.c **** 
 2646              		.loc 1 710 73 view .LVU748
 2647 00c0 93F85C20 		ldrb	r2, [r3, #92]	@ zero_extendqisi2
 2648 00c4 6FF30712 		bfc	r2, #4, #4
 2649 00c8 83F85C20 		strb	r2, [r3, #92]
 713:SYS/task_manager/task_manager.c ****     Task_Ptr[group][priority]->CallerUsing_US = 0;
 2650              		.loc 1 713 5 is_stmt 1 view .LVU749
 713:SYS/task_manager/task_manager.c ****     Task_Ptr[group][priority]->CallerUsing_US = 0;
 2651              		.loc 1 713 20 is_stmt 0 view .LVU750
 2652 00cc 56F82A30 		ldr	r3, [r6, r10, lsl #2]
 713:SYS/task_manager/task_manager.c ****     Task_Ptr[group][priority]->CallerUsing_US = 0;
 2653              		.loc 1 713 47 view .LVU751
 2654 00d0 4FF00008 		mov	r8, #0
 2655              	.LVL135:
 713:SYS/task_manager/task_manager.c ****     Task_Ptr[group][priority]->CallerUsing_US = 0;
 2656              		.loc 1 713 47 view .LVU752
 2657 00d4 C3F86080 		str	r8, [r3, #96]
 714:SYS/task_manager/task_manager.c **** 
 2658              		.loc 1 714 5 is_stmt 1 view .LVU753
 714:SYS/task_manager/task_manager.c **** 
 2659              		.loc 1 714 20 is_stmt 0 view .LVU754
 2660 00d8 56F82A30 		ldr	r3, [r6, r10, lsl #2]
ARM GAS  /var/folders/lx/hc4sn_b53233_zkc9xbbl97r0000gp/T//ccr3Mjaw.s 			page 76


 714:SYS/task_manager/task_manager.c **** 
 2661              		.loc 1 714 47 view .LVU755
 2662 00dc C3F86480 		str	r8, [r3, #100]
 717:SYS/task_manager/task_manager.c ****     Task_Ptr[group][priority]->Exec_status.totlal_running_time = 0;
 2663              		.loc 1 717 5 is_stmt 1 view .LVU756
 717:SYS/task_manager/task_manager.c ****     Task_Ptr[group][priority]->Exec_status.totlal_running_time = 0;
 2664              		.loc 1 717 20 is_stmt 0 view .LVU757
 2665 00e0 56F82A30 		ldr	r3, [r6, r10, lsl #2]
 717:SYS/task_manager/task_manager.c ****     Task_Ptr[group][priority]->Exec_status.totlal_running_time = 0;
 2666              		.loc 1 717 52 view .LVU758
 2667 00e4 0022     		movs	r2, #0
 2668 00e6 9A64     		str	r2, [r3, #72]	@ float
 718:SYS/task_manager/task_manager.c **** 
 2669              		.loc 1 718 5 is_stmt 1 view .LVU759
 718:SYS/task_manager/task_manager.c **** 
 2670              		.loc 1 718 20 is_stmt 0 view .LVU760
 2671 00e8 56F82A30 		ldr	r3, [r6, r10, lsl #2]
 718:SYS/task_manager/task_manager.c **** 
 2672              		.loc 1 718 64 view .LVU761
 2673 00ec C3F84480 		str	r8, [r3, #68]
 721:SYS/task_manager/task_manager.c ****     //set current task under this group flag to ready
 2674              		.loc 1 721 5 is_stmt 1 view .LVU762
 721:SYS/task_manager/task_manager.c ****     //set current task under this group flag to ready
 2675              		.loc 1 721 27 is_stmt 0 view .LVU763
 2676 00f0 424B     		ldr	r3, .L177+12
 2677 00f2 1978     		ldrb	r1, [r3]	@ zero_extendqisi2
 721:SYS/task_manager/task_manager.c ****     //set current task under this group flag to ready
 2678              		.loc 1 721 35 view .LVU764
 2679 00f4 56F82A00 		ldr	r0, [r6, r10, lsl #2]
 2680 00f8 90F800C0 		ldrb	ip, [r0]	@ zero_extendqisi2
 721:SYS/task_manager/task_manager.c ****     //set current task under this group flag to ready
 2681              		.loc 1 721 32 view .LVU765
 2682 00fc 0122     		movs	r2, #1
 2683 00fe 02FA0CFC 		lsl	ip, r2, ip
 721:SYS/task_manager/task_manager.c ****     //set current task under this group flag to ready
 2684              		.loc 1 721 27 view .LVU766
 2685 0102 41EAEC01 		orr	r1, r1, ip, asr #3
 2686 0106 C9B2     		uxtb	r1, r1
 2687 0108 1970     		strb	r1, [r3]
 723:SYS/task_manager/task_manager.c **** 
 2688              		.loc 1 723 5 is_stmt 1 view .LVU767
 723:SYS/task_manager/task_manager.c **** 
 2689              		.loc 1 723 28 is_stmt 0 view .LVU768
 2690 010a 90F800C0 		ldrb	ip, [r0]	@ zero_extendqisi2
 723:SYS/task_manager/task_manager.c **** 
 2691              		.loc 1 723 102 view .LVU769
 2692 010e 03EBDC03 		add	r3, r3, ip, lsr #3
 2693 0112 5978     		ldrb	r1, [r3, #1]	@ zero_extendqisi2
 723:SYS/task_manager/task_manager.c **** 
 2694              		.loc 1 723 107 view .LVU770
 2695 0114 02FA0CF2 		lsl	r2, r2, ip
 723:SYS/task_manager/task_manager.c **** 
 2696              		.loc 1 723 110 view .LVU771
 2697 0118 02F00702 		and	r2, r2, #7
 723:SYS/task_manager/task_manager.c **** 
 2698              		.loc 1 723 102 view .LVU772
 2699 011c 0A43     		orrs	r2, r2, r1
ARM GAS  /var/folders/lx/hc4sn_b53233_zkc9xbbl97r0000gp/T//ccr3Mjaw.s 			page 77


 2700 011e 5A70     		strb	r2, [r3, #1]
 725:SYS/task_manager/task_manager.c ****     Task_Ptr[group][priority]->Exec_status.detect_exec_time_arv = 0;
 2701              		.loc 1 725 5 is_stmt 1 view .LVU773
 725:SYS/task_manager/task_manager.c ****     Task_Ptr[group][priority]->Exec_status.detect_exec_time_arv = 0;
 2702              		.loc 1 725 60 is_stmt 0 view .LVU774
 2703 0120 C0F82C80 		str	r8, [r0, #44]
 726:SYS/task_manager/task_manager.c ****     Task_Ptr[group][priority]->Exec_status.detect_exec_time_max = 0;
 2704              		.loc 1 726 5 is_stmt 1 view .LVU775
 726:SYS/task_manager/task_manager.c ****     Task_Ptr[group][priority]->Exec_status.detect_exec_time_max = 0;
 2705              		.loc 1 726 20 is_stmt 0 view .LVU776
 2706 0124 56F82A30 		ldr	r3, [r6, r10, lsl #2]
 726:SYS/task_manager/task_manager.c ****     Task_Ptr[group][priority]->Exec_status.detect_exec_time_max = 0;
 2707              		.loc 1 726 65 view .LVU777
 2708 0128 C3F83080 		str	r8, [r3, #48]
 727:SYS/task_manager/task_manager.c **** 
 2709              		.loc 1 727 5 is_stmt 1 view .LVU778
 727:SYS/task_manager/task_manager.c **** 
 2710              		.loc 1 727 20 is_stmt 0 view .LVU779
 2711 012c 56F82A30 		ldr	r3, [r6, r10, lsl #2]
 727:SYS/task_manager/task_manager.c **** 
 2712              		.loc 1 727 65 view .LVU780
 2713 0130 C3F83480 		str	r8, [r3, #52]
 729:SYS/task_manager/task_manager.c ****     RuntimeObj_Reset(&(Task_Ptr[group][priority]->Exec_status.Init_Time));
 2714              		.loc 1 729 5 is_stmt 1 view .LVU781
 729:SYS/task_manager/task_manager.c ****     RuntimeObj_Reset(&(Task_Ptr[group][priority]->Exec_status.Init_Time));
 2715              		.loc 1 729 39 is_stmt 0 view .LVU782
 2716 0134 56F82A00 		ldr	r0, [r6, r10, lsl #2]
 729:SYS/task_manager/task_manager.c ****     RuntimeObj_Reset(&(Task_Ptr[group][priority]->Exec_status.Init_Time));
 2717              		.loc 1 729 5 view .LVU783
 2718 0138 2430     		adds	r0, r0, #36
 2719 013a FFF7FEFF 		bl	RuntimeObj_Reset
 2720              	.LVL136:
 730:SYS/task_manager/task_manager.c ****     RuntimeObj_Reset(&(Task_Ptr[group][priority]->Exec_status.Start_Time));
 2721              		.loc 1 730 5 is_stmt 1 view .LVU784
 730:SYS/task_manager/task_manager.c ****     RuntimeObj_Reset(&(Task_Ptr[group][priority]->Exec_status.Start_Time));
 2722              		.loc 1 730 39 is_stmt 0 view .LVU785
 2723 013e 56F82A00 		ldr	r0, [r6, r10, lsl #2]
 730:SYS/task_manager/task_manager.c ****     RuntimeObj_Reset(&(Task_Ptr[group][priority]->Exec_status.Start_Time));
 2724              		.loc 1 730 5 view .LVU786
 2725 0142 1430     		adds	r0, r0, #20
 2726 0144 FFF7FEFF 		bl	RuntimeObj_Reset
 2727              	.LVL137:
 731:SYS/task_manager/task_manager.c **** 
 2728              		.loc 1 731 5 is_stmt 1 view .LVU787
 731:SYS/task_manager/task_manager.c **** 
 2729              		.loc 1 731 39 is_stmt 0 view .LVU788
 2730 0148 56F82A00 		ldr	r0, [r6, r10, lsl #2]
 731:SYS/task_manager/task_manager.c **** 
 2731              		.loc 1 731 5 view .LVU789
 2732 014c 1C30     		adds	r0, r0, #28
 2733 014e FFF7FEFF 		bl	RuntimeObj_Reset
 2734              	.LVL138:
 733:SYS/task_manager/task_manager.c **** 
 2735              		.loc 1 733 5 is_stmt 1 view .LVU790
 733:SYS/task_manager/task_manager.c **** 
 2736              		.loc 1 733 20 is_stmt 0 view .LVU791
 2737 0152 56F82AA0 		ldr	r10, [r6, r10, lsl #2]
ARM GAS  /var/folders/lx/hc4sn_b53233_zkc9xbbl97r0000gp/T//ccr3Mjaw.s 			page 78


 733:SYS/task_manager/task_manager.c **** 
 2738              		.loc 1 733 56 view .LVU792
 2739 0156 FFF7FEFF 		bl	Get_CurrentRunningUs
 2740              	.LVL139:
 733:SYS/task_manager/task_manager.c **** 
 2741              		.loc 1 733 54 view .LVU793
 2742 015a CAF81400 		str	r0, [r10, #20]
 2743 015e CAF81810 		str	r1, [r10, #24]
 735:SYS/task_manager/task_manager.c ****     Task_Ptr[group][priority]->Exec_status.TimeOut_Times = 0;
 2744              		.loc 1 735 5 is_stmt 1 view .LVU794
 735:SYS/task_manager/task_manager.c ****     Task_Ptr[group][priority]->Exec_status.TimeOut_Times = 0;
 2745              		.loc 1 735 20 is_stmt 0 view .LVU795
 2746 0162 56F82730 		ldr	r3, [r6, r7, lsl #2]
 735:SYS/task_manager/task_manager.c ****     Task_Ptr[group][priority]->Exec_status.TimeOut_Times = 0;
 2747              		.loc 1 735 55 view .LVU796
 2748 0166 C3F83880 		str	r8, [r3, #56]
 736:SYS/task_manager/task_manager.c ****     Task_Ptr[group][priority]->Exec_status.error_code = NOERROR;
 2749              		.loc 1 736 5 is_stmt 1 view .LVU797
 736:SYS/task_manager/task_manager.c ****     Task_Ptr[group][priority]->Exec_status.error_code = NOERROR;
 2750              		.loc 1 736 20 is_stmt 0 view .LVU798
 2751 016a 56F82730 		ldr	r3, [r6, r7, lsl #2]
 736:SYS/task_manager/task_manager.c ****     Task_Ptr[group][priority]->Exec_status.error_code = NOERROR;
 2752              		.loc 1 736 58 view .LVU799
 2753 016e C3F83C80 		str	r8, [r3, #60]
 737:SYS/task_manager/task_manager.c **** 
 2754              		.loc 1 737 5 is_stmt 1 view .LVU800
 737:SYS/task_manager/task_manager.c **** 
 2755              		.loc 1 737 20 is_stmt 0 view .LVU801
 2756 0172 56F82730 		ldr	r3, [r6, r7, lsl #2]
 737:SYS/task_manager/task_manager.c **** 
 2757              		.loc 1 737 55 view .LVU802
 2758 0176 83F84080 		strb	r8, [r3, #64]
 739:SYS/task_manager/task_manager.c **** 
 2759              		.loc 1 739 5 is_stmt 1 view .LVU803
 2760 017a 56F82700 		ldr	r0, [r6, r7, lsl #2]
 2761 017e FFF7FEFF 		bl	Task_SetReady
 2762              	.LVL140:
 745:SYS/task_manager/task_manager.c ****     if (Task_Ptr[group][priority]->item_ptr == NULL)
 2763              		.loc 1 745 5 view .LVU804
 745:SYS/task_manager/task_manager.c ****     if (Task_Ptr[group][priority]->item_ptr == NULL)
 2764              		.loc 1 745 20 is_stmt 0 view .LVU805
 2765 0182 56F82780 		ldr	r8, [r6, r7, lsl #2]
 745:SYS/task_manager/task_manager.c ****     if (Task_Ptr[group][priority]->item_ptr == NULL)
 2766              		.loc 1 745 55 view .LVU806
 2767 0186 1420     		movs	r0, #20
 2768 0188 FFF7FEFF 		bl	malloc
 2769              	.LVL141:
 745:SYS/task_manager/task_manager.c ****     if (Task_Ptr[group][priority]->item_ptr == NULL)
 2770              		.loc 1 745 41 view .LVU807
 2771 018c C8F87C00 		str	r0, [r8, #124]
 746:SYS/task_manager/task_manager.c ****     {
 2772              		.loc 1 746 5 is_stmt 1 view .LVU808
 746:SYS/task_manager/task_manager.c ****     {
 2773              		.loc 1 746 24 is_stmt 0 view .LVU809
 2774 0190 56F82710 		ldr	r1, [r6, r7, lsl #2]
 746:SYS/task_manager/task_manager.c ****     {
 2775              		.loc 1 746 34 view .LVU810
ARM GAS  /var/folders/lx/hc4sn_b53233_zkc9xbbl97r0000gp/T//ccr3Mjaw.s 			page 79


 2776 0194 C86F     		ldr	r0, [r1, #124]
 746:SYS/task_manager/task_manager.c ****     {
 2777              		.loc 1 746 8 view .LVU811
 2778 0196 40B3     		cbz	r0, .L173
 751:SYS/task_manager/task_manager.c ****     if (TskCrt_RegList.num == 0)
 2779              		.loc 1 751 5 is_stmt 1 view .LVU812
 2780 0198 FFF7FEFF 		bl	List_ItemInit
 2781              	.LVL142:
 752:SYS/task_manager/task_manager.c ****     {
 2782              		.loc 1 752 5 view .LVU813
 752:SYS/task_manager/task_manager.c ****     {
 2783              		.loc 1 752 23 is_stmt 0 view .LVU814
 2784 019c 184B     		ldr	r3, .L177+16
 2785 019e 1B78     		ldrb	r3, [r3]	@ zero_extendqisi2
 752:SYS/task_manager/task_manager.c ****     {
 2786              		.loc 1 752 8 view .LVU815
 2787 01a0 B3B9     		cbnz	r3, .L169
 754:SYS/task_manager/task_manager.c ****     }
 2788              		.loc 1 754 9 is_stmt 1 view .LVU816
 754:SYS/task_manager/task_manager.c ****     }
 2789              		.loc 1 754 56 is_stmt 0 view .LVU817
 2790 01a2 56F82710 		ldr	r1, [r6, r7, lsl #2]
 754:SYS/task_manager/task_manager.c ****     }
 2791              		.loc 1 754 9 view .LVU818
 2792 01a6 174B     		ldr	r3, .L177+20
 2793 01a8 0122     		movs	r2, #1
 2794 01aa C96F     		ldr	r1, [r1, #124]
 2795 01ac 1648     		ldr	r0, .L177+24
 2796 01ae FFF7FEFF 		bl	List_Init
 2797              	.LVL143:
 2798              	.L170:
 761:SYS/task_manager/task_manager.c **** 
 2799              		.loc 1 761 5 is_stmt 1 view .LVU819
 761:SYS/task_manager/task_manager.c **** 
 2800              		.loc 1 761 35 is_stmt 0 view .LVU820
 2801 01b2 04EBC504 		add	r4, r4, r5, lsl #3
 2802 01b6 0F4B     		ldr	r3, .L177+4
 2803 01b8 53F82400 		ldr	r0, [r3, r4, lsl #2]
 761:SYS/task_manager/task_manager.c **** 
 2804              		.loc 1 761 5 view .LVU821
 2805 01bc 00F16801 		add	r1, r0, #104
 2806 01c0 8030     		adds	r0, r0, #128
 2807 01c2 FFF7FEFF 		bl	List_ItemInit
 2808              	.LVL144:
 763:SYS/task_manager/task_manager.c **** 
 2809              		.loc 1 763 5 is_stmt 1 view .LVU822
 763:SYS/task_manager/task_manager.c **** 
 2810              		.loc 1 763 19 is_stmt 0 view .LVU823
 2811 01c6 0E4A     		ldr	r2, .L177+16
 2812 01c8 1378     		ldrb	r3, [r2]	@ zero_extendqisi2
 763:SYS/task_manager/task_manager.c **** 
 2813              		.loc 1 763 23 view .LVU824
 2814 01ca 0133     		adds	r3, r3, #1
 2815 01cc 1370     		strb	r3, [r2]
 765:SYS/task_manager/task_manager.c **** }
 2816              		.loc 1 765 5 is_stmt 1 view .LVU825
 765:SYS/task_manager/task_manager.c **** }
ARM GAS  /var/folders/lx/hc4sn_b53233_zkc9xbbl97r0000gp/T//ccr3Mjaw.s 			page 80


 2817              		.loc 1 765 12 is_stmt 0 view .LVU826
 2818 01ce 28E7     		b	.L166
 2819              	.L169:
 758:SYS/task_manager/task_manager.c ****     }
 2820              		.loc 1 758 9 is_stmt 1 view .LVU827
 758:SYS/task_manager/task_manager.c ****     }
 2821              		.loc 1 758 63 is_stmt 0 view .LVU828
 2822 01d0 04EBC503 		add	r3, r4, r5, lsl #3
 2823 01d4 074A     		ldr	r2, .L177+4
 2824 01d6 52F82330 		ldr	r3, [r2, r3, lsl #2]
 758:SYS/task_manager/task_manager.c ****     }
 2825              		.loc 1 758 9 view .LVU829
 2826 01da D96F     		ldr	r1, [r3, #124]
 2827 01dc 0A48     		ldr	r0, .L177+24
 2828 01de FFF7FEFF 		bl	List_Insert_Item
 2829              	.LVL145:
 2830 01e2 E6E7     		b	.L170
 2831              	.LVL146:
 2832              	.L172:
 705:SYS/task_manager/task_manager.c ****     }
 2833              		.loc 1 705 16 view .LVU830
 2834 01e4 4FF00009 		mov	r9, #0
 2835              	.LVL147:
 705:SYS/task_manager/task_manager.c ****     }
 2836              		.loc 1 705 16 view .LVU831
 2837 01e8 1BE7     		b	.L166
 2838              	.LVL148:
 2839              	.L173:
 748:SYS/task_manager/task_manager.c ****     }
 2840              		.loc 1 748 16 view .LVU832
 2841 01ea 4FF00009 		mov	r9, #0
 2842              	.LVL149:
 748:SYS/task_manager/task_manager.c ****     }
 2843              		.loc 1 748 16 view .LVU833
 2844 01ee 18E7     		b	.L166
 2845              	.L178:
 2846              		.align	2
 2847              	.L177:
 2848 01f0 00000000 		.word	.LANCHOR16
 2849 01f4 00000000 		.word	.LANCHOR4
 2850 01f8 40420F00 		.word	1000000
 2851 01fc 00000000 		.word	.LANCHOR0
 2852 0200 00000000 		.word	.LANCHOR5
 2853 0204 00000000 		.word	Task_PriorityCompare
 2854 0208 04000000 		.word	.LANCHOR5+4
 2855              		.cfi_endproc
 2856              	.LFE156:
 2858              		.section	.text.Task_Remove,"ax",%progbits
 2859              		.align	1
 2860              		.global	Task_Remove
 2861              		.syntax unified
 2862              		.thumb
 2863              		.thumb_func
 2864              		.fpu fpv4-sp-d16
 2866              	Task_Remove:
 2867              	.LVL150:
 2868              	.LFB160:
ARM GAS  /var/folders/lx/hc4sn_b53233_zkc9xbbl97r0000gp/T//ccr3Mjaw.s 			page 81


 795:SYS/task_manager/task_manager.c ****     //convert Tsk_Hdl from uint32_t var to Task Address which we need to delete
 2869              		.loc 1 795 1 is_stmt 1 view -0
 2870              		.cfi_startproc
 2871              		@ args = 0, pretend = 0, frame = 0
 2872              		@ frame_needed = 0, uses_anonymous_args = 0
 795:SYS/task_manager/task_manager.c ****     //convert Tsk_Hdl from uint32_t var to Task Address which we need to delete
 2873              		.loc 1 795 1 is_stmt 0 view .LVU835
 2874 0000 70B5     		push	{r4, r5, r6, lr}
 2875              	.LCFI32:
 2876              		.cfi_def_cfa_offset 16
 2877              		.cfi_offset 4, -16
 2878              		.cfi_offset 5, -12
 2879              		.cfi_offset 6, -8
 2880              		.cfi_offset 14, -4
 2881 0002 0546     		mov	r5, r0
 801:SYS/task_manager/task_manager.c ****     uint8_t remove_task = GET_TASKINGROUP_PRIORITY(((Task *)Tsk_Hdl)->priority.Priority);
 2882              		.loc 1 801 5 is_stmt 1 view .LVU836
 801:SYS/task_manager/task_manager.c ****     uint8_t remove_task = GET_TASKINGROUP_PRIORITY(((Task *)Tsk_Hdl)->priority.Priority);
 2883              		.loc 1 801 28 is_stmt 0 view .LVU837
 2884 0004 0378     		ldrb	r3, [r0]	@ zero_extendqisi2
 801:SYS/task_manager/task_manager.c ****     uint8_t remove_task = GET_TASKINGROUP_PRIORITY(((Task *)Tsk_Hdl)->priority.Priority);
 2885              		.loc 1 801 13 view .LVU838
 2886 0006 DE08     		lsrs	r6, r3, #3
 2887              	.LVL151:
 802:SYS/task_manager/task_manager.c **** 
 2888              		.loc 1 802 5 is_stmt 1 view .LVU839
 802:SYS/task_manager/task_manager.c **** 
 2889              		.loc 1 802 13 is_stmt 0 view .LVU840
 2890 0008 03F00704 		and	r4, r3, #7
 2891              	.LVL152:
 804:SYS/task_manager/task_manager.c **** 
 2892              		.loc 1 804 5 is_stmt 1 view .LVU841
 2893 000c FFF7FEFF 		bl	ReSet_Task_Data
 2894              	.LVL153:
 807:SYS/task_manager/task_manager.c ****     free((uint32_t *)((Task *)Tsk_Hdl)->TCB.Top_Stk_Ptr);
 2895              		.loc 1 807 5 view .LVU842
 2896 0010 A86D     		ldr	r0, [r5, #88]
 2897 0012 FFF7FEFF 		bl	free
 2898              	.LVL154:
 808:SYS/task_manager/task_manager.c **** #endif
 2899              		.loc 1 808 5 view .LVU843
 808:SYS/task_manager/task_manager.c **** #endif
 2900              		.loc 1 808 44 is_stmt 0 view .LVU844
 2901 0016 686D     		ldr	r0, [r5, #84]
 808:SYS/task_manager/task_manager.c **** #endif
 2902              		.loc 1 808 5 view .LVU845
 2903 0018 FFF7FEFF 		bl	free
 2904              	.LVL155:
 811:SYS/task_manager/task_manager.c ****     Task_Ptr[remove_group][remove_task] = NULL;
 2905              		.loc 1 811 5 is_stmt 1 view .LVU846
 2906 001c 2846     		mov	r0, r5
 2907 001e FFF7FEFF 		bl	free
 2908              	.LVL156:
 812:SYS/task_manager/task_manager.c **** }
 2909              		.loc 1 812 5 view .LVU847
 812:SYS/task_manager/task_manager.c **** }
 2910              		.loc 1 812 41 is_stmt 0 view .LVU848
ARM GAS  /var/folders/lx/hc4sn_b53233_zkc9xbbl97r0000gp/T//ccr3Mjaw.s 			page 82


 2911 0022 04EBC603 		add	r3, r4, r6, lsl #3
 2912 0026 024A     		ldr	r2, .L181
 2913 0028 0021     		movs	r1, #0
 2914 002a 42F82310 		str	r1, [r2, r3, lsl #2]
 813:SYS/task_manager/task_manager.c **** 
 2915              		.loc 1 813 1 view .LVU849
 2916 002e 70BD     		pop	{r4, r5, r6, pc}
 2917              	.LVL157:
 2918              	.L182:
 813:SYS/task_manager/task_manager.c **** 
 2919              		.loc 1 813 1 view .LVU850
 2920              		.align	2
 2921              	.L181:
 2922 0030 00000000 		.word	.LANCHOR4
 2923              		.cfi_endproc
 2924              	.LFE160:
 2926              		.section	.text.TaskSystem_Start,"ax",%progbits
 2927              		.align	1
 2928              		.global	TaskSystem_Start
 2929              		.syntax unified
 2930              		.thumb
 2931              		.thumb_func
 2932              		.fpu fpv4-sp-d16
 2934              	TaskSystem_Start:
 2935              	.LFB161:
 816:SYS/task_manager/task_manager.c ****     Runtime_Config(RUNTIME_TICK_FRQ_40K);
 2936              		.loc 1 816 1 is_stmt 1 view -0
 2937              		.cfi_startproc
 2938              		@ args = 0, pretend = 0, frame = 0
 2939              		@ frame_needed = 0, uses_anonymous_args = 0
 2940 0000 10B5     		push	{r4, lr}
 2941              	.LCFI33:
 2942              		.cfi_def_cfa_offset 8
 2943              		.cfi_offset 4, -8
 2944              		.cfi_offset 14, -4
 817:SYS/task_manager/task_manager.c ****     Runtime_Set_start_Callback(NULL);
 2945              		.loc 1 817 5 view .LVU852
 2946 0002 49F64040 		movw	r0, #40000
 2947 0006 FFF7FEFF 		bl	Runtime_Config
 2948              	.LVL158:
 818:SYS/task_manager/task_manager.c ****     Runtime_Set_stop_Callback(NULL);
 2949              		.loc 1 818 5 view .LVU853
 2950 000a 0020     		movs	r0, #0
 2951 000c FFF7FEFF 		bl	Runtime_Set_start_Callback
 2952              	.LVL159:
 819:SYS/task_manager/task_manager.c ****     Runtime_Set_tick_Callback(Task_Scheduler); /* 5us cast by calling the scheduler */
 2953              		.loc 1 819 5 view .LVU854
 2954 0010 0020     		movs	r0, #0
 2955 0012 FFF7FEFF 		bl	Runtime_Set_stop_Callback
 2956              	.LVL160:
 820:SYS/task_manager/task_manager.c ****     Runtime_Start();
 2957              		.loc 1 820 5 view .LVU855
 2958 0016 1148     		ldr	r0, .L186
 2959 0018 FFF7FEFF 		bl	Runtime_Set_tick_Callback
 2960              	.LVL161:
 821:SYS/task_manager/task_manager.c **** 
 2961              		.loc 1 821 5 view .LVU856
ARM GAS  /var/folders/lx/hc4sn_b53233_zkc9xbbl97r0000gp/T//ccr3Mjaw.s 			page 83


 2962 001c FFF7FEFF 		bl	Runtime_Start
 2963              	.LVL162:
 823:SYS/task_manager/task_manager.c **** 
 2964              		.loc 1 823 5 view .LVU857
 2965 0020 0F4C     		ldr	r4, .L186+4
 2966 0022 2046     		mov	r0, r4
 2967 0024 FFF7FEFF 		bl	RuntimeObj_Reset
 2968              	.LVL163:
 825:SYS/task_manager/task_manager.c **** 
 2969              		.loc 1 825 5 view .LVU858
 825:SYS/task_manager/task_manager.c **** 
 2970              		.loc 1 825 25 is_stmt 0 view .LVU859
 2971 0028 FFF7FEFF 		bl	Get_CurrentRunningUs
 2972              	.LVL164:
 825:SYS/task_manager/task_manager.c **** 
 2973              		.loc 1 825 23 view .LVU860
 2974 002c C4E90001 		strd	r0, [r4]
 828:SYS/task_manager/task_manager.c **** 
 2975              		.loc 1 828 5 is_stmt 1 view .LVU861
 828:SYS/task_manager/task_manager.c **** 
 2976              		.loc 1 828 21 is_stmt 0 view .LVU862
 2977 0030 FFF7FEFF 		bl	Task_Get_HighestRank_RdyTask
 2978              	.LVL165:
 828:SYS/task_manager/task_manager.c **** 
 2979              		.loc 1 828 19 view .LVU863
 2980 0034 0B4B     		ldr	r3, .L186+8
 2981 0036 1860     		str	r0, [r3]
 830:SYS/task_manager/task_manager.c ****     {
 2982              		.loc 1 830 5 is_stmt 1 view .LVU864
 830:SYS/task_manager/task_manager.c ****     {
 2983              		.loc 1 830 8 is_stmt 0 view .LVU865
 2984 0038 50B1     		cbz	r0, .L184
 832:SYS/task_manager/task_manager.c ****         NxtTsk_TCB.Stack = NxtRunTsk_Ptr->TCB.Stack;
 2985              		.loc 1 832 9 is_stmt 1 view .LVU866
 832:SYS/task_manager/task_manager.c ****         NxtTsk_TCB.Stack = NxtRunTsk_Ptr->TCB.Stack;
 2986              		.loc 1 832 34 is_stmt 0 view .LVU867
 2987 003a 00F15402 		add	r2, r0, #84
 832:SYS/task_manager/task_manager.c ****         NxtTsk_TCB.Stack = NxtRunTsk_Ptr->TCB.Stack;
 2988              		.loc 1 832 32 view .LVU868
 2989 003e 0A4B     		ldr	r3, .L186+12
 2990 0040 1A60     		str	r2, [r3]
 833:SYS/task_manager/task_manager.c **** 
 2991              		.loc 1 833 9 is_stmt 1 view .LVU869
 833:SYS/task_manager/task_manager.c **** 
 2992              		.loc 1 833 46 is_stmt 0 view .LVU870
 2993 0042 826D     		ldr	r2, [r0, #88]
 833:SYS/task_manager/task_manager.c **** 
 2994              		.loc 1 833 26 view .LVU871
 2995 0044 5A60     		str	r2, [r3, #4]
 835:SYS/task_manager/task_manager.c ****     }
 2996              		.loc 1 835 9 is_stmt 1 view .LVU872
 835:SYS/task_manager/task_manager.c ****     }
 2997              		.loc 1 835 20 is_stmt 0 view .LVU873
 2998 0046 094A     		ldr	r2, .L186+16
 2999 0048 93E80300 		ldm	r3, {r0, r1}
 3000 004c 82E80300 		stm	r2, {r0, r1}
 3001              	.L184:
ARM GAS  /var/folders/lx/hc4sn_b53233_zkc9xbbl97r0000gp/T//ccr3Mjaw.s 			page 84


 839:SYS/task_manager/task_manager.c ****     Task_TriggerPendSV();
 3002              		.loc 1 839 5 is_stmt 1 view .LVU874
 3003 0050 FFF7FEFF 		bl	Task_SetPendSVPro
 3004              	.LVL166:
 840:SYS/task_manager/task_manager.c **** 
 3005              		.loc 1 840 5 view .LVU875
 3006 0054 FFF7FEFF 		bl	Task_TriggerPendSV
 3007              	.LVL167:
 842:SYS/task_manager/task_manager.c **** }
 3008              		.loc 1 842 5 view .LVU876
 843:SYS/task_manager/task_manager.c **** 
 3009              		.loc 1 843 1 is_stmt 0 view .LVU877
 3010 0058 10BD     		pop	{r4, pc}
 3011              	.L187:
 3012 005a 00BF     		.align	2
 3013              	.L186:
 3014 005c 00000000 		.word	Task_Scheduler
 3015 0060 00000000 		.word	.LANCHOR8
 3016 0064 00000000 		.word	.LANCHOR11
 3017 0068 00000000 		.word	.LANCHOR12
 3018 006c 00000000 		.word	.LANCHOR13
 3019              		.cfi_endproc
 3020              	.LFE161:
 3022              		.section	.text.Task_SetRunState,"ax",%progbits
 3023              		.align	1
 3024              		.global	Task_SetRunState
 3025              		.syntax unified
 3026              		.thumb
 3027              		.thumb_func
 3028              		.fpu fpv4-sp-d16
 3030              	Task_SetRunState:
 3031              	.LVL168:
 3032              	.LFB162:
 846:SYS/task_manager/task_manager.c ****     ((Task *)Tsk_Handle)->Exec_status.State = state;
 3033              		.loc 1 846 1 is_stmt 1 view -0
 3034              		.cfi_startproc
 3035              		@ args = 0, pretend = 0, frame = 0
 3036              		@ frame_needed = 0, uses_anonymous_args = 0
 3037              		@ link register save eliminated.
 847:SYS/task_manager/task_manager.c **** }
 3038              		.loc 1 847 5 view .LVU879
 847:SYS/task_manager/task_manager.c **** }
 3039              		.loc 1 847 45 is_stmt 0 view .LVU880
 3040 0000 80F84C10 		strb	r1, [r0, #76]
 848:SYS/task_manager/task_manager.c **** 
 3041              		.loc 1 848 1 view .LVU881
 3042 0004 7047     		bx	lr
 3043              		.cfi_endproc
 3044              	.LFE162:
 3046              		.section	.text.Task_CountRunningTime,"ax",%progbits
 3047              		.align	1
 3048              		.global	Task_CountRunningTime
 3049              		.syntax unified
 3050              		.thumb
 3051              		.thumb_func
 3052              		.fpu fpv4-sp-d16
 3054              	Task_CountRunningTime:
ARM GAS  /var/folders/lx/hc4sn_b53233_zkc9xbbl97r0000gp/T//ccr3Mjaw.s 			page 85


 3055              	.LFB163:
 851:SYS/task_manager/task_manager.c ****     if (CurRunTsk_Ptr != NULL)
 3056              		.loc 1 851 1 is_stmt 1 view -0
 3057              		.cfi_startproc
 3058              		@ args = 0, pretend = 0, frame = 0
 3059              		@ frame_needed = 0, uses_anonymous_args = 0
 3060 0000 08B5     		push	{r3, lr}
 3061              	.LCFI34:
 3062              		.cfi_def_cfa_offset 8
 3063              		.cfi_offset 3, -8
 3064              		.cfi_offset 14, -4
 852:SYS/task_manager/task_manager.c ****     {
 3065              		.loc 1 852 5 view .LVU883
 852:SYS/task_manager/task_manager.c ****     {
 3066              		.loc 1 852 23 is_stmt 0 view .LVU884
 3067 0002 0D4B     		ldr	r3, .L195
 3068 0004 1B68     		ldr	r3, [r3]
 852:SYS/task_manager/task_manager.c ****     {
 3069              		.loc 1 852 8 view .LVU885
 3070 0006 6BB1     		cbz	r3, .L189
 3071              	.LBB5:
 854:SYS/task_manager/task_manager.c **** 
 3072              		.loc 1 854 9 is_stmt 1 view .LVU886
 3073 0008 FFF7FEFF 		bl	RunTime_Tick
 3074              	.LVL169:
 856:SYS/task_manager/task_manager.c ****         {
 3075              		.loc 1 856 9 view .LVU887
 856:SYS/task_manager/task_manager.c ****         {
 3076              		.loc 1 856 26 is_stmt 0 view .LVU888
 3077 000c 0A4B     		ldr	r3, .L195
 3078 000e 1B68     		ldr	r3, [r3]
 856:SYS/task_manager/task_manager.c ****         {
 3079              		.loc 1 856 46 view .LVU889
 3080 0010 93F85C20 		ldrb	r2, [r3, #92]	@ zero_extendqisi2
 3081 0014 1209     		lsrs	r2, r2, #4
 856:SYS/task_manager/task_manager.c ****         {
 3082              		.loc 1 856 12 view .LVU890
 3083 0016 012A     		cmp	r2, #1
 3084 0018 05D0     		beq	.L193
 3085              	.L191:
 861:SYS/task_manager/task_manager.c ****         {
 3086              		.loc 1 861 9 is_stmt 1 view .LVU891
 861:SYS/task_manager/task_manager.c ****         {
 3087              		.loc 1 861 46 is_stmt 0 view .LVU892
 3088 001a 93F85C20 		ldrb	r2, [r3, #92]	@ zero_extendqisi2
 3089 001e 1209     		lsrs	r2, r2, #4
 861:SYS/task_manager/task_manager.c ****         {
 3090              		.loc 1 861 12 view .LVU893
 3091 0020 012A     		cmp	r2, #1
 3092 0022 04D0     		beq	.L194
 3093              	.L189:
 3094              	.LBE5:
 866:SYS/task_manager/task_manager.c **** 
 3095              		.loc 1 866 1 view .LVU894
 3096 0024 08BD     		pop	{r3, pc}
 3097              	.L193:
 3098              	.LBB6:
ARM GAS  /var/folders/lx/hc4sn_b53233_zkc9xbbl97r0000gp/T//ccr3Mjaw.s 			page 86


 858:SYS/task_manager/task_manager.c ****         }
 3099              		.loc 1 858 13 is_stmt 1 view .LVU895
 858:SYS/task_manager/task_manager.c ****         }
 3100              		.loc 1 858 26 is_stmt 0 view .LVU896
 3101 0026 1A6E     		ldr	r2, [r3, #96]
 858:SYS/task_manager/task_manager.c ****         }
 3102              		.loc 1 858 42 view .LVU897
 3103 0028 0132     		adds	r2, r2, #1
 3104 002a 1A66     		str	r2, [r3, #96]
 3105 002c F5E7     		b	.L191
 3106              	.L194:
 863:SYS/task_manager/task_manager.c ****         }
 3107              		.loc 1 863 13 is_stmt 1 view .LVU898
 863:SYS/task_manager/task_manager.c ****         }
 3108              		.loc 1 863 26 is_stmt 0 view .LVU899
 3109 002e 5A6E     		ldr	r2, [r3, #100]
 863:SYS/task_manager/task_manager.c ****         }
 3110              		.loc 1 863 42 view .LVU900
 3111 0030 0132     		adds	r2, r2, #1
 3112 0032 5A66     		str	r2, [r3, #100]
 3113              	.LBE6:
 866:SYS/task_manager/task_manager.c **** 
 3114              		.loc 1 866 1 view .LVU901
 3115 0034 F6E7     		b	.L189
 3116              	.L196:
 3117 0036 00BF     		.align	2
 3118              	.L195:
 3119 0038 00000000 		.word	.LANCHOR6
 3120              		.cfi_endproc
 3121              	.LFE163:
 3123              		.section	.text.Task_Get_IdleUS,"ax",%progbits
 3124              		.align	1
 3125              		.global	Task_Get_IdleUS
 3126              		.syntax unified
 3127              		.thumb
 3128              		.thumb_func
 3129              		.fpu fpv4-sp-d16
 3131              	Task_Get_IdleUS:
 3132              	.LFB166:
 954:SYS/task_manager/task_manager.c ****     return TaskSys_Idle_US;
 3133              		.loc 1 954 1 is_stmt 1 view -0
 3134              		.cfi_startproc
 3135              		@ args = 0, pretend = 0, frame = 0
 3136              		@ frame_needed = 0, uses_anonymous_args = 0
 3137              		@ link register save eliminated.
 955:SYS/task_manager/task_manager.c **** }
 3138              		.loc 1 955 5 view .LVU903
 956:SYS/task_manager/task_manager.c **** 
 3139              		.loc 1 956 1 is_stmt 0 view .LVU904
 3140 0000 014B     		ldr	r3, .L198
 3141 0002 1868     		ldr	r0, [r3]
 3142 0004 7047     		bx	lr
 3143              	.L199:
 3144 0006 00BF     		.align	2
 3145              	.L198:
 3146 0008 00000000 		.word	.LANCHOR9
 3147              		.cfi_endproc
ARM GAS  /var/folders/lx/hc4sn_b53233_zkc9xbbl97r0000gp/T//ccr3Mjaw.s 			page 87


 3148              	.LFE166:
 3150              		.section	.text.Task_Get_IdleOcupy,"ax",%progbits
 3151              		.align	1
 3152              		.global	Task_Get_IdleOcupy
 3153              		.syntax unified
 3154              		.thumb
 3155              		.thumb_func
 3156              		.fpu fpv4-sp-d16
 3158              	Task_Get_IdleOcupy:
 3159              	.LFB167:
 959:SYS/task_manager/task_manager.c ****     return TaskSys_Idle_Ocupy;
 3160              		.loc 1 959 1 is_stmt 1 view -0
 3161              		.cfi_startproc
 3162              		@ args = 0, pretend = 0, frame = 0
 3163              		@ frame_needed = 0, uses_anonymous_args = 0
 3164              		@ link register save eliminated.
 960:SYS/task_manager/task_manager.c **** }
 3165              		.loc 1 960 5 view .LVU906
 961:SYS/task_manager/task_manager.c **** 
 3166              		.loc 1 961 1 is_stmt 0 view .LVU907
 3167 0000 014B     		ldr	r3, .L201
 3168 0002 93ED000A 		vldr.32	s0, [r3]
 3169 0006 7047     		bx	lr
 3170              	.L202:
 3171              		.align	2
 3172              	.L201:
 3173 0008 00000000 		.word	.LANCHOR10
 3174              		.cfi_endproc
 3175              	.LFE167:
 3177              		.section	.text.TaskSys_Set_State,"ax",%progbits
 3178              		.align	1
 3179              		.global	TaskSys_Set_State
 3180              		.syntax unified
 3181              		.thumb
 3182              		.thumb_func
 3183              		.fpu fpv4-sp-d16
 3185              	TaskSys_Set_State:
 3186              	.LVL170:
 3187              	.LFB169:
 974:SYS/task_manager/task_manager.c ****     TskSys_state = state;
 3188              		.loc 1 974 1 is_stmt 1 view -0
 3189              		.cfi_startproc
 3190              		@ args = 0, pretend = 0, frame = 0
 3191              		@ frame_needed = 0, uses_anonymous_args = 0
 3192              		@ link register save eliminated.
 975:SYS/task_manager/task_manager.c **** }
 3193              		.loc 1 975 5 view .LVU909
 975:SYS/task_manager/task_manager.c **** }
 3194              		.loc 1 975 18 is_stmt 0 view .LVU910
 3195 0000 014B     		ldr	r3, .L204
 3196 0002 1870     		strb	r0, [r3]
 976:SYS/task_manager/task_manager.c **** 
 3197              		.loc 1 976 1 view .LVU911
 3198 0004 7047     		bx	lr
 3199              	.L205:
 3200 0006 00BF     		.align	2
 3201              	.L204:
ARM GAS  /var/folders/lx/hc4sn_b53233_zkc9xbbl97r0000gp/T//ccr3Mjaw.s 			page 88


 3202 0008 00000000 		.word	.LANCHOR7
 3203              		.cfi_endproc
 3204              	.LFE169:
 3206              		.section	.text.TaskSys_Get_State,"ax",%progbits
 3207              		.align	1
 3208              		.global	TaskSys_Get_State
 3209              		.syntax unified
 3210              		.thumb
 3211              		.thumb_func
 3212              		.fpu fpv4-sp-d16
 3214              	TaskSys_Get_State:
 3215              	.LFB170:
 979:SYS/task_manager/task_manager.c ****     return TskSys_state;
 3216              		.loc 1 979 1 is_stmt 1 view -0
 3217              		.cfi_startproc
 3218              		@ args = 0, pretend = 0, frame = 0
 3219              		@ frame_needed = 0, uses_anonymous_args = 0
 3220              		@ link register save eliminated.
 980:SYS/task_manager/task_manager.c **** }
 3221              		.loc 1 980 5 view .LVU913
 980:SYS/task_manager/task_manager.c **** }
 3222              		.loc 1 980 12 is_stmt 0 view .LVU914
 3223 0000 014B     		ldr	r3, .L207
 3224 0002 1878     		ldrb	r0, [r3]	@ zero_extendqisi2
 981:SYS/task_manager/task_manager.c **** 
 3225              		.loc 1 981 1 view .LVU915
 3226 0004 7047     		bx	lr
 3227              	.L208:
 3228 0006 00BF     		.align	2
 3229              	.L207:
 3230 0008 00000000 		.word	.LANCHOR7
 3231              		.cfi_endproc
 3232              	.LFE170:
 3234              		.section	.text.Task_GetInfo_ByIndex,"ax",%progbits
 3235              		.align	1
 3236              		.global	Task_GetInfo_ByIndex
 3237              		.syntax unified
 3238              		.thumb
 3239              		.thumb_func
 3240              		.fpu fpv4-sp-d16
 3242              	Task_GetInfo_ByIndex:
 3243              	.LVL171:
 3244              	.LFB173:
1120:SYS/task_manager/task_manager.c **** 
1121:SYS/task_manager/task_manager.c **** Task_Base_Info Task_GetInfo_ByIndex(uint8_t index)
1122:SYS/task_manager/task_manager.c **** {
 3245              		.loc 1 1122 1 is_stmt 1 view -0
 3246              		.cfi_startproc
 3247              		@ args = 0, pretend = 0, frame = 0
 3248              		@ frame_needed = 0, uses_anonymous_args = 0
 3249              		@ link register save eliminated.
1123:SYS/task_manager/task_manager.c ****     Task_Base_Info task_info;
 3250              		.loc 1 1123 5 view .LVU917
1124:SYS/task_manager/task_manager.c **** 
1125:SYS/task_manager/task_manager.c ****     return task_info;
 3251              		.loc 1 1125 5 view .LVU918
1126:SYS/task_manager/task_manager.c **** }
ARM GAS  /var/folders/lx/hc4sn_b53233_zkc9xbbl97r0000gp/T//ccr3Mjaw.s 			page 89


 3252              		.loc 1 1126 1 is_stmt 0 view .LVU919
 3253 0000 7047     		bx	lr
 3254              		.cfi_endproc
 3255              	.LFE173:
 3257              		.section	.text.Task_GetCurrentRunTask,"ax",%progbits
 3258              		.align	1
 3259              		.global	Task_GetCurrentRunTask
 3260              		.syntax unified
 3261              		.thumb
 3262              		.thumb_func
 3263              		.fpu fpv4-sp-d16
 3265              	Task_GetCurrentRunTask:
 3266              	.LFB174:
1127:SYS/task_manager/task_manager.c **** 
1128:SYS/task_manager/task_manager.c **** Task *Task_GetCurrentRunTask(void)
1129:SYS/task_manager/task_manager.c **** {
 3267              		.loc 1 1129 1 is_stmt 1 view -0
 3268              		.cfi_startproc
 3269              		@ args = 0, pretend = 0, frame = 0
 3270              		@ frame_needed = 0, uses_anonymous_args = 0
 3271              		@ link register save eliminated.
1130:SYS/task_manager/task_manager.c ****     return CurRunTsk_Ptr;
 3272              		.loc 1 1130 5 view .LVU921
1131:SYS/task_manager/task_manager.c **** }
 3273              		.loc 1 1131 1 is_stmt 0 view .LVU922
 3274 0000 014B     		ldr	r3, .L211
 3275 0002 1868     		ldr	r0, [r3]
 3276 0004 7047     		bx	lr
 3277              	.L212:
 3278 0006 00BF     		.align	2
 3279              	.L211:
 3280 0008 00000000 		.word	.LANCHOR6
 3281              		.cfi_endproc
 3282              	.LFE174:
 3284              		.global	Task_OS_ExpStkBase
 3285              		.global	NxtTsk_TCB
 3286              		.global	CurTsk_TCB
 3287              		.global	PndHstTsk_Ptr
 3288              		.global	NxtRunTsk_Ptr
 3289              		.global	CurRunTsk_Ptr
 3290              		.global	Task_Ptr
 3291              		.section	.bss.CurRunTsk_Ptr,"aw",%nobits
 3292              		.align	2
 3293              		.set	.LANCHOR6,. + 0
 3296              	CurRunTsk_Ptr:
 3297 0000 00000000 		.space	4
 3298              		.section	.bss.CurTsk_TCB,"aw",%nobits
 3299              		.align	2
 3300              		.set	.LANCHOR13,. + 0
 3303              	CurTsk_TCB:
 3304 0000 00000000 		.space	8
 3304      00000000 
 3305              		.section	.bss.NxtRunTsk_Ptr,"aw",%nobits
 3306              		.align	2
 3307              		.set	.LANCHOR11,. + 0
 3310              	NxtRunTsk_Ptr:
 3311 0000 00000000 		.space	4
ARM GAS  /var/folders/lx/hc4sn_b53233_zkc9xbbl97r0000gp/T//ccr3Mjaw.s 			page 90


 3312              		.section	.bss.NxtTsk_TCB,"aw",%nobits
 3313              		.align	2
 3314              		.set	.LANCHOR12,. + 0
 3317              	NxtTsk_TCB:
 3318 0000 00000000 		.space	8
 3318      00000000 
 3319              		.section	.bss.PndHstTsk_Ptr,"aw",%nobits
 3320              		.align	2
 3321              		.set	.LANCHOR15,. + 0
 3324              	PndHstTsk_Ptr:
 3325 0000 00000000 		.space	4
 3326              		.section	.bss.TaskSys_Idle_Ocupy,"aw",%nobits
 3327              		.align	2
 3328              		.set	.LANCHOR10,. + 0
 3331              	TaskSys_Idle_Ocupy:
 3332 0000 00000000 		.space	4
 3333              		.section	.bss.TaskSys_Idle_US,"aw",%nobits
 3334              		.align	2
 3335              		.set	.LANCHOR9,. + 0
 3338              	TaskSys_Idle_US:
 3339 0000 00000000 		.space	4
 3340              		.section	.bss.TaskSys_StartTime,"aw",%nobits
 3341              		.align	3
 3342              		.set	.LANCHOR8,. + 0
 3345              	TaskSys_StartTime:
 3346 0000 00000000 		.space	8
 3346      00000000 
 3347              		.section	.bss.Task_OS_ExpStkBase,"aw",%nobits
 3348              		.align	2
 3349              		.set	.LANCHOR3,. + 0
 3352              	Task_OS_ExpStkBase:
 3353 0000 00000000 		.space	4
 3354              		.section	.bss.Task_OS_StkMem,"aw",%nobits
 3355              		.align	2
 3358              	Task_OS_StkMem:
 3359 0000 00000000 		.space	40960
 3359      00000000 
 3359      00000000 
 3359      00000000 
 3359      00000000 
 3360              		.section	.bss.Task_Ptr,"aw",%nobits
 3361              		.align	2
 3362              		.set	.LANCHOR4,. + 0
 3365              	Task_Ptr:
 3366 0000 00000000 		.space	256
 3366      00000000 
 3366      00000000 
 3366      00000000 
 3366      00000000 
 3367              		.section	.bss.TskCrt_RegList,"aw",%nobits
 3368              		.align	2
 3369              		.set	.LANCHOR5,. + 0
 3372              	TskCrt_RegList:
 3373 0000 00000000 		.space	24
 3373      00000000 
 3373      00000000 
 3373      00000000 
ARM GAS  /var/folders/lx/hc4sn_b53233_zkc9xbbl97r0000gp/T//ccr3Mjaw.s 			page 91


 3373      00000000 
 3374              		.section	.bss.TskHdl_BlkMap,"aw",%nobits
 3375              		.align	2
 3376              		.set	.LANCHOR1,. + 0
 3379              	TskHdl_BlkMap:
 3380 0000 00000000 		.space	9
 3380      00000000 
 3380      00
 3381              		.section	.bss.TskHdl_PndMap,"aw",%nobits
 3382              		.align	2
 3383              		.set	.LANCHOR2,. + 0
 3386              	TskHdl_PndMap:
 3387 0000 00000000 		.space	9
 3387      00000000 
 3387      00
 3388              		.section	.bss.TskHdl_RdyMap,"aw",%nobits
 3389              		.align	2
 3390              		.set	.LANCHOR0,. + 0
 3393              	TskHdl_RdyMap:
 3394 0000 00000000 		.space	9
 3394      00000000 
 3394      00
 3395              		.section	.bss.TskSys_state,"aw",%nobits
 3396              		.set	.LANCHOR7,. + 0
 3399              	TskSys_state:
 3400 0000 00       		.space	1
 3401              		.section	.bss.taskOs_InitState.0,"aw",%nobits
 3402              		.set	.LANCHOR16,. + 0
 3405              	taskOs_InitState.0:
 3406 0000 00       		.space	1
 3407              		.section	.rodata.Tsk_Handle,"a"
 3408              		.align	2
 3409              		.set	.LANCHOR14,. + 0
 3412              	Tsk_Handle:
 3413 0000 00000100 		.ascii	"\000\000\001\000\002\000\001\000\003\000\001\000\002"
 3413      02000100 
 3413      03000100 
 3413      02
 3414 000d 00010004 		.ascii	"\000\001\000\004\000\001\000\002\000\001\000\003\000"
 3414      00010002 
 3414      00010003 
 3414      00
 3415 001a 01000200 		.ascii	"\001\000\002\000\001\000\005\000\001\000\002\000\001"
 3415      01000500 
 3415      01000200 
 3415      01
 3416 0027 00030001 		.ascii	"\000\003\000\001\000\002\000\001\000\004\000\001\000"
 3416      00020001 
 3416      00040001 
 3416      00
 3417 0034 02000100 		.ascii	"\002\000\001\000\003\000\001\000\002\000\001\000\006"
 3417      03000100 
 3417      02000100 
 3417      06
 3418 0041 00010002 		.ascii	"\000\001\000\002\000\001\000\003\000\001\000\002\000"
 3418      00010003 
 3418      00010002 
ARM GAS  /var/folders/lx/hc4sn_b53233_zkc9xbbl97r0000gp/T//ccr3Mjaw.s 			page 92


 3418      00
 3419 004e 01000400 		.ascii	"\001\000\004\000\001\000\002\000\001\000\003\000\001"
 3419      01000200 
 3419      01000300 
 3419      01
 3420 005b 00020001 		.ascii	"\000\002\000\001\000\005\000\001\000\002\000\001\000"
 3420      00050001 
 3420      00020001 
 3420      00
 3421 0068 03000100 		.ascii	"\003\000\001\000\002\000\001\000\004\000\001\000\002"
 3421      02000100 
 3421      04000100 
 3421      02
 3422 0075 00010003 		.ascii	"\000\001\000\003\000\001\000\002\000\001\000\007\000"
 3422      00010002 
 3422      00010007 
 3422      00
 3423 0082 01000200 		.ascii	"\001\000\002\000\001\000\003\000\001\000\002\000\001"
 3423      01000300 
 3423      01000200 
 3423      01
 3424 008f 00040001 		.ascii	"\000\004\000\001\000\002\000\001\000\003\000\001\000"
 3424      00020001 
 3424      00030001 
 3424      00
 3425 009c 02000100 		.ascii	"\002\000\001\000\005\000\001\000\002\000\001\000\003"
 3425      05000100 
 3425      02000100 
 3425      03
 3426 00a9 00010002 		.ascii	"\000\001\000\002\000\001\000\004\000\001\000\002\000"
 3426      00010004 
 3426      00010002 
 3426      00
 3427 00b6 01000300 		.ascii	"\001\000\003\000\001\000\002\000\001\000\006\000\001"
 3427      01000200 
 3427      01000600 
 3427      01
 3428 00c3 00020001 		.ascii	"\000\002\000\001\000\003\000\001\000\002\000\001\000"
 3428      00030001 
 3428      00020001 
 3428      00
 3429 00d0 04000100 		.ascii	"\004\000\001\000\002\000\001\000\003\000\001\000\002"
 3429      02000100 
 3429      03000100 
 3429      02
 3430 00dd 00010005 		.ascii	"\000\001\000\005\000\001\000\002\000\001\000\003\000"
 3430      00010002 
 3430      00010003 
 3430      00
 3431 00ea 01000200 		.ascii	"\001\000\002\000\001\000\004\000\001\000\002\000\001"
 3431      01000400 
 3431      01000200 
 3431      01
 3432 00f7 00030001 		.ascii	"\000\003\000\001\000\002\000\001\000"
 3432      00020001 
 3432      00
 3433              		.text
ARM GAS  /var/folders/lx/hc4sn_b53233_zkc9xbbl97r0000gp/T//ccr3Mjaw.s 			page 93


 3434              	.Letext0:
 3435              		.file 2 "/usr/local/arm-none-eabi-gcc/gcc-arm-none-eabi-10-2020-q4-major/arm-none-eabi/include/mac
 3436              		.file 3 "/usr/local/arm-none-eabi-gcc/gcc-arm-none-eabi-10-2020-q4-major/arm-none-eabi/include/sys
 3437              		.file 4 "SYS/runtime/runtime.h"
 3438              		.file 5 "SYS/data_structure/linked_list.h"
 3439              		.file 6 "SYS/task_manager/task_manager.h"
 3440              		.file 7 "/usr/local/arm-none-eabi-gcc/gcc-arm-none-eabi-10-2020-q4-major/arm-none-eabi/include/std
 3441              		.file 8 "<built-in>"
ARM GAS  /var/folders/lx/hc4sn_b53233_zkc9xbbl97r0000gp/T//ccr3Mjaw.s 			page 94


DEFINED SYMBOLS
                            *ABS*:0000000000000000 task_manager.c
/var/folders/lx/hc4sn_b53233_zkc9xbbl97r0000gp/T//ccr3Mjaw.s:18     .text.Task_Exit:0000000000000000 $t
/var/folders/lx/hc4sn_b53233_zkc9xbbl97r0000gp/T//ccr3Mjaw.s:25     .text.Task_Exit:0000000000000000 Task_Exit
/var/folders/lx/hc4sn_b53233_zkc9xbbl97r0000gp/T//ccr3Mjaw.s:43     .text.Task_SetBASEPRI:0000000000000000 $t
/var/folders/lx/hc4sn_b53233_zkc9xbbl97r0000gp/T//ccr3Mjaw.s:49     .text.Task_SetBASEPRI:0000000000000000 Task_SetBASEPRI
/var/folders/lx/hc4sn_b53233_zkc9xbbl97r0000gp/T//ccr3Mjaw.s:70     .text.Task_SetReady:0000000000000000 $t
/var/folders/lx/hc4sn_b53233_zkc9xbbl97r0000gp/T//ccr3Mjaw.s:76     .text.Task_SetReady:0000000000000000 Task_SetReady
/var/folders/lx/hc4sn_b53233_zkc9xbbl97r0000gp/T//ccr3Mjaw.s:130    .text.Task_SetReady:0000000000000038 $d
/var/folders/lx/hc4sn_b53233_zkc9xbbl97r0000gp/T//ccr3Mjaw.s:135    .text.Task_ClearBlock:0000000000000000 $t
/var/folders/lx/hc4sn_b53233_zkc9xbbl97r0000gp/T//ccr3Mjaw.s:141    .text.Task_ClearBlock:0000000000000000 Task_ClearBlock
/var/folders/lx/hc4sn_b53233_zkc9xbbl97r0000gp/T//ccr3Mjaw.s:198    .text.Task_ClearBlock:000000000000003c $d
/var/folders/lx/hc4sn_b53233_zkc9xbbl97r0000gp/T//ccr3Mjaw.s:203    .text.Task_ClearPending:0000000000000000 $t
/var/folders/lx/hc4sn_b53233_zkc9xbbl97r0000gp/T//ccr3Mjaw.s:209    .text.Task_ClearPending:0000000000000000 Task_ClearPending
/var/folders/lx/hc4sn_b53233_zkc9xbbl97r0000gp/T//ccr3Mjaw.s:266    .text.Task_ClearPending:000000000000003c $d
/var/folders/lx/hc4sn_b53233_zkc9xbbl97r0000gp/T//ccr3Mjaw.s:271    .text.Task_ClearReady:0000000000000000 $t
/var/folders/lx/hc4sn_b53233_zkc9xbbl97r0000gp/T//ccr3Mjaw.s:277    .text.Task_ClearReady:0000000000000000 Task_ClearReady
/var/folders/lx/hc4sn_b53233_zkc9xbbl97r0000gp/T//ccr3Mjaw.s:334    .text.Task_ClearReady:000000000000003c $d
/var/folders/lx/hc4sn_b53233_zkc9xbbl97r0000gp/T//ccr3Mjaw.s:339    .text.Task_SetPendSVPro:0000000000000000 $t
/var/folders/lx/hc4sn_b53233_zkc9xbbl97r0000gp/T//ccr3Mjaw.s:345    .text.Task_SetPendSVPro:0000000000000000 Task_SetPendSVPro
/var/folders/lx/hc4sn_b53233_zkc9xbbl97r0000gp/T//ccr3Mjaw.s:355    *ABS*:00000000e000ed22 NVIC_SYSPRI14
/var/folders/lx/hc4sn_b53233_zkc9xbbl97r0000gp/T//ccr3Mjaw.s:359    *ABS*:00000000000000ff NVIC_PENDSV_PRI
/var/folders/lx/hc4sn_b53233_zkc9xbbl97r0000gp/T//ccr3Mjaw.s:3352   .bss.Task_OS_ExpStkBase:0000000000000000 Task_OS_ExpStkBase
/var/folders/lx/hc4sn_b53233_zkc9xbbl97r0000gp/T//ccr3Mjaw.s:404    .text.Task_PriorityCompare:0000000000000000 $t
/var/folders/lx/hc4sn_b53233_zkc9xbbl97r0000gp/T//ccr3Mjaw.s:411    .text.Task_PriorityCompare:0000000000000000 Task_PriorityCompare
/var/folders/lx/hc4sn_b53233_zkc9xbbl97r0000gp/T//ccr3Mjaw.s:517    .text.ReSet_Task_Data:0000000000000000 $t
/var/folders/lx/hc4sn_b53233_zkc9xbbl97r0000gp/T//ccr3Mjaw.s:523    .text.ReSet_Task_Data:0000000000000000 ReSet_Task_Data
/var/folders/lx/hc4sn_b53233_zkc9xbbl97r0000gp/T//ccr3Mjaw.s:618    .text.TaskSys_Init:0000000000000000 $t
/var/folders/lx/hc4sn_b53233_zkc9xbbl97r0000gp/T//ccr3Mjaw.s:624    .text.TaskSys_Init:0000000000000000 TaskSys_Init
/var/folders/lx/hc4sn_b53233_zkc9xbbl97r0000gp/T//ccr3Mjaw.s:751    .text.TaskSys_Init:0000000000000070 $d
/var/folders/lx/hc4sn_b53233_zkc9xbbl97r0000gp/T//ccr3Mjaw.s:3358   .bss.Task_OS_StkMem:0000000000000000 Task_OS_StkMem
/var/folders/lx/hc4sn_b53233_zkc9xbbl97r0000gp/T//ccr3Mjaw.s:762    .text.Task_SetStkPtr_Val:0000000000000000 $t
/var/folders/lx/hc4sn_b53233_zkc9xbbl97r0000gp/T//ccr3Mjaw.s:768    .text.Task_SetStkPtr_Val:0000000000000000 Task_SetStkPtr_Val
/var/folders/lx/hc4sn_b53233_zkc9xbbl97r0000gp/T//ccr3Mjaw.s:854    .text.Task_SetStkPtr_Val:0000000000000050 $d
/var/folders/lx/hc4sn_b53233_zkc9xbbl97r0000gp/T//ccr3Mjaw.s:1156   .text.Task_Caller:0000000000000000 Task_Caller
/var/folders/lx/hc4sn_b53233_zkc9xbbl97r0000gp/T//ccr3Mjaw.s:861    .text.Task_Idle:0000000000000000 $t
/var/folders/lx/hc4sn_b53233_zkc9xbbl97r0000gp/T//ccr3Mjaw.s:867    .text.Task_Idle:0000000000000000 Task_Idle
/var/folders/lx/hc4sn_b53233_zkc9xbbl97r0000gp/T//ccr3Mjaw.s:937    .text.Task_Idle:0000000000000054 $d
/var/folders/lx/hc4sn_b53233_zkc9xbbl97r0000gp/T//ccr3Mjaw.s:944    .text.Task_Exec:0000000000000000 $t
/var/folders/lx/hc4sn_b53233_zkc9xbbl97r0000gp/T//ccr3Mjaw.s:950    .text.Task_Exec:0000000000000000 Task_Exec
/var/folders/lx/hc4sn_b53233_zkc9xbbl97r0000gp/T//ccr3Mjaw.s:1144   .text.Task_Exec:00000000000000e4 $d
/var/folders/lx/hc4sn_b53233_zkc9xbbl97r0000gp/T//ccr3Mjaw.s:1149   .text.Task_Caller:0000000000000000 $t
/var/folders/lx/hc4sn_b53233_zkc9xbbl97r0000gp/T//ccr3Mjaw.s:1182   .text.Task_Caller:0000000000000010 $d
/var/folders/lx/hc4sn_b53233_zkc9xbbl97r0000gp/T//ccr3Mjaw.s:1187   .text.Task_CrtList_TraversePoll_callback:0000000000000000 $t
/var/folders/lx/hc4sn_b53233_zkc9xbbl97r0000gp/T//ccr3Mjaw.s:1193   .text.Task_CrtList_TraversePoll_callback:0000000000000000 Task_CrtList_TraversePoll_callback
/var/folders/lx/hc4sn_b53233_zkc9xbbl97r0000gp/T//ccr3Mjaw.s:1262   .text.Task_CrtList_TraversePoll_callback:0000000000000030 $d
/var/folders/lx/hc4sn_b53233_zkc9xbbl97r0000gp/T//ccr3Mjaw.s:1267   .text.Task_Resume_FromBlock:0000000000000000 $t
/var/folders/lx/hc4sn_b53233_zkc9xbbl97r0000gp/T//ccr3Mjaw.s:1274   .text.Task_Resume_FromBlock:0000000000000000 Task_Resume_FromBlock
/var/folders/lx/hc4sn_b53233_zkc9xbbl97r0000gp/T//ccr3Mjaw.s:1321   .text.Task_Resume_FromBlock:0000000000000028 $d
/var/folders/lx/hc4sn_b53233_zkc9xbbl97r0000gp/T//ccr3Mjaw.s:1327   .text.Task_SetBlock:0000000000000000 $t
/var/folders/lx/hc4sn_b53233_zkc9xbbl97r0000gp/T//ccr3Mjaw.s:1334   .text.Task_SetBlock:0000000000000000 Task_SetBlock
/var/folders/lx/hc4sn_b53233_zkc9xbbl97r0000gp/T//ccr3Mjaw.s:1420   .text.Task_SetBlock:0000000000000060 $d
/var/folders/lx/hc4sn_b53233_zkc9xbbl97r0000gp/T//ccr3Mjaw.s:1427   .text.Task_SetPending:0000000000000000 $t
/var/folders/lx/hc4sn_b53233_zkc9xbbl97r0000gp/T//ccr3Mjaw.s:1434   .text.Task_SetPending:0000000000000000 Task_SetPending
/var/folders/lx/hc4sn_b53233_zkc9xbbl97r0000gp/T//ccr3Mjaw.s:1488   .text.Task_SetPending:0000000000000038 $d
/var/folders/lx/hc4sn_b53233_zkc9xbbl97r0000gp/T//ccr3Mjaw.s:1493   .text.Task_SwitchStack:0000000000000000 $t
/var/folders/lx/hc4sn_b53233_zkc9xbbl97r0000gp/T//ccr3Mjaw.s:1500   .text.Task_SwitchStack:0000000000000000 Task_SwitchStack
ARM GAS  /var/folders/lx/hc4sn_b53233_zkc9xbbl97r0000gp/T//ccr3Mjaw.s 			page 95


/var/folders/lx/hc4sn_b53233_zkc9xbbl97r0000gp/T//ccr3Mjaw.s:1518   .text.Task_SwitchStack:0000000000000010 $d
/var/folders/lx/hc4sn_b53233_zkc9xbbl97r0000gp/T//ccr3Mjaw.s:1524   .text.Task_Get_HighestRank_PndTask:0000000000000000 $t
/var/folders/lx/hc4sn_b53233_zkc9xbbl97r0000gp/T//ccr3Mjaw.s:1531   .text.Task_Get_HighestRank_PndTask:0000000000000000 Task_Get_HighestRank_PndTask
/var/folders/lx/hc4sn_b53233_zkc9xbbl97r0000gp/T//ccr3Mjaw.s:1609   .text.Task_Get_HighestRank_PndTask:0000000000000054 $d
/var/folders/lx/hc4sn_b53233_zkc9xbbl97r0000gp/T//ccr3Mjaw.s:1616   .text.Task_SaveCurProc:0000000000000000 $t
/var/folders/lx/hc4sn_b53233_zkc9xbbl97r0000gp/T//ccr3Mjaw.s:1623   .text.Task_SaveCurProc:0000000000000000 Task_SaveCurProc
/var/folders/lx/hc4sn_b53233_zkc9xbbl97r0000gp/T//ccr3Mjaw.s:1677   .text.Task_SaveCurProc:0000000000000024 CurrentTCBConst_Tmp3
/var/folders/lx/hc4sn_b53233_zkc9xbbl97r0000gp/T//ccr3Mjaw.s:1677   .text.Task_SaveCurProc:0000000000000024 $d
/var/folders/lx/hc4sn_b53233_zkc9xbbl97r0000gp/T//ccr3Mjaw.s:3303   .bss.CurTsk_TCB:0000000000000000 CurTsk_TCB
/var/folders/lx/hc4sn_b53233_zkc9xbbl97r0000gp/T//ccr3Mjaw.s:1682   .text.Task_SaveCurProc:0000000000000028 $t
/var/folders/lx/hc4sn_b53233_zkc9xbbl97r0000gp/T//ccr3Mjaw.s:1687   .text.Task_Load:0000000000000000 $t
/var/folders/lx/hc4sn_b53233_zkc9xbbl97r0000gp/T//ccr3Mjaw.s:1694   .text.Task_Load:0000000000000000 Task_Load
/var/folders/lx/hc4sn_b53233_zkc9xbbl97r0000gp/T//ccr3Mjaw.s:1762   .text.Load_FirstTask:0000000000000000 $t
/var/folders/lx/hc4sn_b53233_zkc9xbbl97r0000gp/T//ccr3Mjaw.s:1769   .text.Load_FirstTask:0000000000000000 Load_FirstTask
/var/folders/lx/hc4sn_b53233_zkc9xbbl97r0000gp/T//ccr3Mjaw.s:1789   .text.Task_SwitchContext:0000000000000000 $t
/var/folders/lx/hc4sn_b53233_zkc9xbbl97r0000gp/T//ccr3Mjaw.s:1796   .text.Task_SwitchContext:0000000000000000 Task_SwitchContext
/var/folders/lx/hc4sn_b53233_zkc9xbbl97r0000gp/T//ccr3Mjaw.s:1922   .text.Task_SwitchContext:0000000000000064 CurrentTCBConst_Tmp
/var/folders/lx/hc4sn_b53233_zkc9xbbl97r0000gp/T//ccr3Mjaw.s:1922   .text.Task_SwitchContext:0000000000000064 $d
/var/folders/lx/hc4sn_b53233_zkc9xbbl97r0000gp/T//ccr3Mjaw.s:1926   .text.Task_SwitchContext:0000000000000068 $t
/var/folders/lx/hc4sn_b53233_zkc9xbbl97r0000gp/T//ccr3Mjaw.s:1936   .text.Task_Get_HighestRank_RdyTask:0000000000000000 $t
/var/folders/lx/hc4sn_b53233_zkc9xbbl97r0000gp/T//ccr3Mjaw.s:1943   .text.Task_Get_HighestRank_RdyTask:0000000000000000 Task_Get_HighestRank_RdyTask
/var/folders/lx/hc4sn_b53233_zkc9xbbl97r0000gp/T//ccr3Mjaw.s:2025   .text.Task_Get_HighestRank_RdyTask:0000000000000054 $d
/var/folders/lx/hc4sn_b53233_zkc9xbbl97r0000gp/T//ccr3Mjaw.s:2032   .text.Task_SetNextTask_Ptr:0000000000000000 $t
/var/folders/lx/hc4sn_b53233_zkc9xbbl97r0000gp/T//ccr3Mjaw.s:2039   .text.Task_SetNextTask_Ptr:0000000000000000 Task_SetNextTask_Ptr
/var/folders/lx/hc4sn_b53233_zkc9xbbl97r0000gp/T//ccr3Mjaw.s:2071   .text.Task_SetNextTask_Ptr:0000000000000014 $d
/var/folders/lx/hc4sn_b53233_zkc9xbbl97r0000gp/T//ccr3Mjaw.s:2077   .text.Task_TriggerPendSV:0000000000000000 $t
/var/folders/lx/hc4sn_b53233_zkc9xbbl97r0000gp/T//ccr3Mjaw.s:2084   .text.Task_TriggerPendSV:0000000000000000 Task_TriggerPendSV
/var/folders/lx/hc4sn_b53233_zkc9xbbl97r0000gp/T//ccr3Mjaw.s:2094   *ABS*:00000000e000ed04 NVIC_INT_CTRL
/var/folders/lx/hc4sn_b53233_zkc9xbbl97r0000gp/T//ccr3Mjaw.s:2098   *ABS*:0000000010000000 NVIC_PENDSVSET
/var/folders/lx/hc4sn_b53233_zkc9xbbl97r0000gp/T//ccr3Mjaw.s:2123   .text.Task_Scheduler:0000000000000000 $t
/var/folders/lx/hc4sn_b53233_zkc9xbbl97r0000gp/T//ccr3Mjaw.s:2130   .text.Task_Scheduler:0000000000000000 Task_Scheduler
/var/folders/lx/hc4sn_b53233_zkc9xbbl97r0000gp/T//ccr3Mjaw.s:2398   .text.Task_Scheduler:000000000000012c $d
/var/folders/lx/hc4sn_b53233_zkc9xbbl97r0000gp/T//ccr3Mjaw.s:2409   .text.Task_Force_TriggerPendSV:0000000000000000 $t
/var/folders/lx/hc4sn_b53233_zkc9xbbl97r0000gp/T//ccr3Mjaw.s:2416   .text.Task_Force_TriggerPendSV:0000000000000000 Task_Force_TriggerPendSV
/var/folders/lx/hc4sn_b53233_zkc9xbbl97r0000gp/T//ccr3Mjaw.s:2447   .text.Task_Get_TaskNum:0000000000000000 $t
/var/folders/lx/hc4sn_b53233_zkc9xbbl97r0000gp/T//ccr3Mjaw.s:2454   .text.Task_Get_TaskNum:0000000000000000 Task_Get_TaskNum
/var/folders/lx/hc4sn_b53233_zkc9xbbl97r0000gp/T//ccr3Mjaw.s:2469   .text.Task_Get_TaskNum:0000000000000008 $d
/var/folders/lx/hc4sn_b53233_zkc9xbbl97r0000gp/T//ccr3Mjaw.s:2474   .text.Task_Create:0000000000000000 $t
/var/folders/lx/hc4sn_b53233_zkc9xbbl97r0000gp/T//ccr3Mjaw.s:2481   .text.Task_Create:0000000000000000 Task_Create
/var/folders/lx/hc4sn_b53233_zkc9xbbl97r0000gp/T//ccr3Mjaw.s:2848   .text.Task_Create:00000000000001f0 $d
/var/folders/lx/hc4sn_b53233_zkc9xbbl97r0000gp/T//ccr3Mjaw.s:2859   .text.Task_Remove:0000000000000000 $t
/var/folders/lx/hc4sn_b53233_zkc9xbbl97r0000gp/T//ccr3Mjaw.s:2866   .text.Task_Remove:0000000000000000 Task_Remove
/var/folders/lx/hc4sn_b53233_zkc9xbbl97r0000gp/T//ccr3Mjaw.s:2922   .text.Task_Remove:0000000000000030 $d
/var/folders/lx/hc4sn_b53233_zkc9xbbl97r0000gp/T//ccr3Mjaw.s:2927   .text.TaskSystem_Start:0000000000000000 $t
/var/folders/lx/hc4sn_b53233_zkc9xbbl97r0000gp/T//ccr3Mjaw.s:2934   .text.TaskSystem_Start:0000000000000000 TaskSystem_Start
/var/folders/lx/hc4sn_b53233_zkc9xbbl97r0000gp/T//ccr3Mjaw.s:3014   .text.TaskSystem_Start:000000000000005c $d
/var/folders/lx/hc4sn_b53233_zkc9xbbl97r0000gp/T//ccr3Mjaw.s:3023   .text.Task_SetRunState:0000000000000000 $t
/var/folders/lx/hc4sn_b53233_zkc9xbbl97r0000gp/T//ccr3Mjaw.s:3030   .text.Task_SetRunState:0000000000000000 Task_SetRunState
/var/folders/lx/hc4sn_b53233_zkc9xbbl97r0000gp/T//ccr3Mjaw.s:3047   .text.Task_CountRunningTime:0000000000000000 $t
/var/folders/lx/hc4sn_b53233_zkc9xbbl97r0000gp/T//ccr3Mjaw.s:3054   .text.Task_CountRunningTime:0000000000000000 Task_CountRunningTime
/var/folders/lx/hc4sn_b53233_zkc9xbbl97r0000gp/T//ccr3Mjaw.s:3119   .text.Task_CountRunningTime:0000000000000038 $d
/var/folders/lx/hc4sn_b53233_zkc9xbbl97r0000gp/T//ccr3Mjaw.s:3124   .text.Task_Get_IdleUS:0000000000000000 $t
/var/folders/lx/hc4sn_b53233_zkc9xbbl97r0000gp/T//ccr3Mjaw.s:3131   .text.Task_Get_IdleUS:0000000000000000 Task_Get_IdleUS
/var/folders/lx/hc4sn_b53233_zkc9xbbl97r0000gp/T//ccr3Mjaw.s:3146   .text.Task_Get_IdleUS:0000000000000008 $d
/var/folders/lx/hc4sn_b53233_zkc9xbbl97r0000gp/T//ccr3Mjaw.s:3151   .text.Task_Get_IdleOcupy:0000000000000000 $t
/var/folders/lx/hc4sn_b53233_zkc9xbbl97r0000gp/T//ccr3Mjaw.s:3158   .text.Task_Get_IdleOcupy:0000000000000000 Task_Get_IdleOcupy
/var/folders/lx/hc4sn_b53233_zkc9xbbl97r0000gp/T//ccr3Mjaw.s:3173   .text.Task_Get_IdleOcupy:0000000000000008 $d
ARM GAS  /var/folders/lx/hc4sn_b53233_zkc9xbbl97r0000gp/T//ccr3Mjaw.s 			page 96


/var/folders/lx/hc4sn_b53233_zkc9xbbl97r0000gp/T//ccr3Mjaw.s:3178   .text.TaskSys_Set_State:0000000000000000 $t
/var/folders/lx/hc4sn_b53233_zkc9xbbl97r0000gp/T//ccr3Mjaw.s:3185   .text.TaskSys_Set_State:0000000000000000 TaskSys_Set_State
/var/folders/lx/hc4sn_b53233_zkc9xbbl97r0000gp/T//ccr3Mjaw.s:3202   .text.TaskSys_Set_State:0000000000000008 $d
/var/folders/lx/hc4sn_b53233_zkc9xbbl97r0000gp/T//ccr3Mjaw.s:3207   .text.TaskSys_Get_State:0000000000000000 $t
/var/folders/lx/hc4sn_b53233_zkc9xbbl97r0000gp/T//ccr3Mjaw.s:3214   .text.TaskSys_Get_State:0000000000000000 TaskSys_Get_State
/var/folders/lx/hc4sn_b53233_zkc9xbbl97r0000gp/T//ccr3Mjaw.s:3230   .text.TaskSys_Get_State:0000000000000008 $d
/var/folders/lx/hc4sn_b53233_zkc9xbbl97r0000gp/T//ccr3Mjaw.s:3235   .text.Task_GetInfo_ByIndex:0000000000000000 $t
/var/folders/lx/hc4sn_b53233_zkc9xbbl97r0000gp/T//ccr3Mjaw.s:3242   .text.Task_GetInfo_ByIndex:0000000000000000 Task_GetInfo_ByIndex
/var/folders/lx/hc4sn_b53233_zkc9xbbl97r0000gp/T//ccr3Mjaw.s:3258   .text.Task_GetCurrentRunTask:0000000000000000 $t
/var/folders/lx/hc4sn_b53233_zkc9xbbl97r0000gp/T//ccr3Mjaw.s:3265   .text.Task_GetCurrentRunTask:0000000000000000 Task_GetCurrentRunTask
/var/folders/lx/hc4sn_b53233_zkc9xbbl97r0000gp/T//ccr3Mjaw.s:3280   .text.Task_GetCurrentRunTask:0000000000000008 $d
/var/folders/lx/hc4sn_b53233_zkc9xbbl97r0000gp/T//ccr3Mjaw.s:3317   .bss.NxtTsk_TCB:0000000000000000 NxtTsk_TCB
/var/folders/lx/hc4sn_b53233_zkc9xbbl97r0000gp/T//ccr3Mjaw.s:3324   .bss.PndHstTsk_Ptr:0000000000000000 PndHstTsk_Ptr
/var/folders/lx/hc4sn_b53233_zkc9xbbl97r0000gp/T//ccr3Mjaw.s:3310   .bss.NxtRunTsk_Ptr:0000000000000000 NxtRunTsk_Ptr
/var/folders/lx/hc4sn_b53233_zkc9xbbl97r0000gp/T//ccr3Mjaw.s:3296   .bss.CurRunTsk_Ptr:0000000000000000 CurRunTsk_Ptr
/var/folders/lx/hc4sn_b53233_zkc9xbbl97r0000gp/T//ccr3Mjaw.s:3365   .bss.Task_Ptr:0000000000000000 Task_Ptr
/var/folders/lx/hc4sn_b53233_zkc9xbbl97r0000gp/T//ccr3Mjaw.s:3292   .bss.CurRunTsk_Ptr:0000000000000000 $d
/var/folders/lx/hc4sn_b53233_zkc9xbbl97r0000gp/T//ccr3Mjaw.s:3299   .bss.CurTsk_TCB:0000000000000000 $d
/var/folders/lx/hc4sn_b53233_zkc9xbbl97r0000gp/T//ccr3Mjaw.s:3306   .bss.NxtRunTsk_Ptr:0000000000000000 $d
/var/folders/lx/hc4sn_b53233_zkc9xbbl97r0000gp/T//ccr3Mjaw.s:3313   .bss.NxtTsk_TCB:0000000000000000 $d
/var/folders/lx/hc4sn_b53233_zkc9xbbl97r0000gp/T//ccr3Mjaw.s:3320   .bss.PndHstTsk_Ptr:0000000000000000 $d
/var/folders/lx/hc4sn_b53233_zkc9xbbl97r0000gp/T//ccr3Mjaw.s:3327   .bss.TaskSys_Idle_Ocupy:0000000000000000 $d
/var/folders/lx/hc4sn_b53233_zkc9xbbl97r0000gp/T//ccr3Mjaw.s:3331   .bss.TaskSys_Idle_Ocupy:0000000000000000 TaskSys_Idle_Ocupy
/var/folders/lx/hc4sn_b53233_zkc9xbbl97r0000gp/T//ccr3Mjaw.s:3334   .bss.TaskSys_Idle_US:0000000000000000 $d
/var/folders/lx/hc4sn_b53233_zkc9xbbl97r0000gp/T//ccr3Mjaw.s:3338   .bss.TaskSys_Idle_US:0000000000000000 TaskSys_Idle_US
/var/folders/lx/hc4sn_b53233_zkc9xbbl97r0000gp/T//ccr3Mjaw.s:3341   .bss.TaskSys_StartTime:0000000000000000 $d
/var/folders/lx/hc4sn_b53233_zkc9xbbl97r0000gp/T//ccr3Mjaw.s:3345   .bss.TaskSys_StartTime:0000000000000000 TaskSys_StartTime
/var/folders/lx/hc4sn_b53233_zkc9xbbl97r0000gp/T//ccr3Mjaw.s:3348   .bss.Task_OS_ExpStkBase:0000000000000000 $d
/var/folders/lx/hc4sn_b53233_zkc9xbbl97r0000gp/T//ccr3Mjaw.s:3355   .bss.Task_OS_StkMem:0000000000000000 $d
/var/folders/lx/hc4sn_b53233_zkc9xbbl97r0000gp/T//ccr3Mjaw.s:3361   .bss.Task_Ptr:0000000000000000 $d
/var/folders/lx/hc4sn_b53233_zkc9xbbl97r0000gp/T//ccr3Mjaw.s:3368   .bss.TskCrt_RegList:0000000000000000 $d
/var/folders/lx/hc4sn_b53233_zkc9xbbl97r0000gp/T//ccr3Mjaw.s:3372   .bss.TskCrt_RegList:0000000000000000 TskCrt_RegList
/var/folders/lx/hc4sn_b53233_zkc9xbbl97r0000gp/T//ccr3Mjaw.s:3375   .bss.TskHdl_BlkMap:0000000000000000 $d
/var/folders/lx/hc4sn_b53233_zkc9xbbl97r0000gp/T//ccr3Mjaw.s:3379   .bss.TskHdl_BlkMap:0000000000000000 TskHdl_BlkMap
/var/folders/lx/hc4sn_b53233_zkc9xbbl97r0000gp/T//ccr3Mjaw.s:3382   .bss.TskHdl_PndMap:0000000000000000 $d
/var/folders/lx/hc4sn_b53233_zkc9xbbl97r0000gp/T//ccr3Mjaw.s:3386   .bss.TskHdl_PndMap:0000000000000000 TskHdl_PndMap
/var/folders/lx/hc4sn_b53233_zkc9xbbl97r0000gp/T//ccr3Mjaw.s:3389   .bss.TskHdl_RdyMap:0000000000000000 $d
/var/folders/lx/hc4sn_b53233_zkc9xbbl97r0000gp/T//ccr3Mjaw.s:3393   .bss.TskHdl_RdyMap:0000000000000000 TskHdl_RdyMap
/var/folders/lx/hc4sn_b53233_zkc9xbbl97r0000gp/T//ccr3Mjaw.s:3399   .bss.TskSys_state:0000000000000000 TskSys_state
/var/folders/lx/hc4sn_b53233_zkc9xbbl97r0000gp/T//ccr3Mjaw.s:3400   .bss.TskSys_state:0000000000000000 $d
/var/folders/lx/hc4sn_b53233_zkc9xbbl97r0000gp/T//ccr3Mjaw.s:3405   .bss.taskOs_InitState.0:0000000000000000 taskOs_InitState.0
/var/folders/lx/hc4sn_b53233_zkc9xbbl97r0000gp/T//ccr3Mjaw.s:3406   .bss.taskOs_InitState.0:0000000000000000 $d
/var/folders/lx/hc4sn_b53233_zkc9xbbl97r0000gp/T//ccr3Mjaw.s:3408   .rodata.Tsk_Handle:0000000000000000 $d
/var/folders/lx/hc4sn_b53233_zkc9xbbl97r0000gp/T//ccr3Mjaw.s:3412   .rodata.Tsk_Handle:0000000000000000 Tsk_Handle
/var/folders/lx/hc4sn_b53233_zkc9xbbl97r0000gp/T//ccr3Mjaw.s:2122   .text.Task_TriggerPendSV:000000000000000a $d
/var/folders/lx/hc4sn_b53233_zkc9xbbl97r0000gp/T//ccr3Mjaw.s:9846   .text.Task_TriggerPendSV:000000000000000c $d
/var/folders/lx/hc4sn_b53233_zkc9xbbl97r0000gp/T//ccr3Mjaw.s:1761   .text.Task_Load:0000000000000032 $d
/var/folders/lx/hc4sn_b53233_zkc9xbbl97r0000gp/T//ccr3Mjaw.s:9846   .text.Task_Load:0000000000000034 $d
/var/folders/lx/hc4sn_b53233_zkc9xbbl97r0000gp/T//ccr3Mjaw.s:9846   .text.Task_SetPendSVPro:0000000000000018 $d

UNDEFINED SYMBOLS
List_ItemInit
RuntimeObj_Reset
memset
__aeabi_ul2f
Get_CurrentRunningUs
Get_TimeDifference_Between
ARM GAS  /var/folders/lx/hc4sn_b53233_zkc9xbbl97r0000gp/T//ccr3Mjaw.s 			page 97


Get_TargetRunTime
RuntimeObj_CompareWithCurrent
List_traverse
malloc
List_Init
List_Insert_Item
free
Runtime_Config
Runtime_Set_start_Callback
Runtime_Set_stop_Callback
Runtime_Set_tick_Callback
Runtime_Start
RunTime_Tick
