ARM GAS  C:\Users\why\AppData\Local\Temp\ccNE1a8I.s 			page 1


   1              		.syntax unified
   2              		.cpu cortex-m4
   3              		.eabi_attribute 27, 1
   4              		.eabi_attribute 28, 1
   5              		.fpu fpv4-sp-d16
   6              		.eabi_attribute 20, 1
   7              		.eabi_attribute 21, 1
   8              		.eabi_attribute 23, 3
   9              		.eabi_attribute 24, 1
  10              		.eabi_attribute 25, 1
  11              		.eabi_attribute 26, 1
  12              		.eabi_attribute 30, 1
  13              		.eabi_attribute 34, 1
  14              		.eabi_attribute 18, 4
  15              		.thumb
  16              		.syntax unified
  17              		.file	"task_manager.c"
  18              		.text
  19              	.Ltext0:
  20              		.cfi_sections	.debug_frame
  21              		.section	.text.Task_Exit,"ax",%progbits
  22              		.align	2
  23              		.thumb
  24              		.thumb_func
  26              	Task_Exit:
  27              	.LFB127:
  28              		.file 1 "SYS/task_manager/task_manager.c"
   1:SYS/task_manager/task_manager.c **** #include "task_manager.h"
   2:SYS/task_manager/task_manager.c **** #include "runtime.h"
   3:SYS/task_manager/task_manager.c **** #include "string.h"
   4:SYS/task_manager/task_manager.c **** #include "stddef.h"
   5:SYS/task_manager/task_manager.c **** #include "periph_gpio.h"
   6:SYS/task_manager/task_manager.c **** #include "periph_timer.h"
   7:SYS/task_manager/task_manager.c **** #include <stdio.h>
   8:SYS/task_manager/task_manager.c **** #include "task_manager_cfg.h"
   9:SYS/task_manager/task_manager.c **** #include "binary_tree.h"
  10:SYS/task_manager/task_manager.c **** #include "linked_list.h"
  11:SYS/task_manager/task_manager.c **** 
  12:SYS/task_manager/task_manager.c **** //coder: 8_B!T0
  13:SYS/task_manager/task_manager.c **** //bref:
  14:SYS/task_manager/task_manager.c **** //estabishment a task running system with priority calling functional
  15:SYS/task_manager/task_manager.c **** //alway calling the highest priority function in all function under the ready table
  16:SYS/task_manager/task_manager.c **** //reference to ucos (version earler than v8.6)
  17:SYS/task_manager/task_manager.c **** 
  18:SYS/task_manager/task_manager.c **** /*
  19:SYS/task_manager/task_manager.c **** *******************************   TASK Handle    *******************************
  20:SYS/task_manager/task_manager.c **** 
  21:SYS/task_manager/task_manager.c ****              task0   task1   task2   task3   task4   task5   task6   task7
  22:SYS/task_manager/task_manager.c **** group0     |_______|_______|_______|_______|_______|_______|_______|_______|
  23:SYS/task_manager/task_manager.c **** group1     |_______|_______|_______|_______|_______|_______|_______|_______|
  24:SYS/task_manager/task_manager.c **** group2     |_______|_______|_______|_______|_______|_______|_______|_______|
  25:SYS/task_manager/task_manager.c **** group3     |_______|_______|_______|_______|_______|_______|_______|_______|
  26:SYS/task_manager/task_manager.c **** group4     |_______|_______|_______|_______|_______|_______|_______|_______|
  27:SYS/task_manager/task_manager.c **** group5     |_______|_______|_______|_______|_______|_______|_______|_______|
  28:SYS/task_manager/task_manager.c **** group6     |_______|_______|_______|_______|_______|_______|_______|_______|
  29:SYS/task_manager/task_manager.c **** group7     |_______|_______|_______|_______|_______|_______|_______|_______|
  30:SYS/task_manager/task_manager.c **** 
ARM GAS  C:\Users\why\AppData\Local\Temp\ccNE1a8I.s 			page 2


  31:SYS/task_manager/task_manager.c **** */
  32:SYS/task_manager/task_manager.c **** 
  33:SYS/task_manager/task_manager.c **** #define GET_TASKGROUP_PRIORITY(x) x >> 3
  34:SYS/task_manager/task_manager.c **** #define GET_TASKINGROUP_PRIORITY(y) y & 0X07
  35:SYS/task_manager/task_manager.c **** 
  36:SYS/task_manager/task_manager.c **** static const uint8_t Tsk_Handle[256] = {0, 0, 1, 0, 2, 0, 1, 0, 3, 0, 1, 0, 2, 0, 1, 0,  //0x00 ~ 0
  37:SYS/task_manager/task_manager.c ****                                         4, 0, 1, 0, 2, 0, 1, 0, 3, 0, 1, 0, 2, 0, 1, 0,  //0x10 ~ 0
  38:SYS/task_manager/task_manager.c ****                                         5, 0, 1, 0, 2, 0, 1, 0, 3, 0, 1, 0, 2, 0, 1, 0,  //0x20 ~ 0
  39:SYS/task_manager/task_manager.c ****                                         4, 0, 1, 0, 2, 0, 1, 0, 3, 0, 1, 0, 2, 0, 1, 0,  //0x30 ~ 0
  40:SYS/task_manager/task_manager.c ****                                         6, 0, 1, 0, 2, 0, 1, 0, 3, 0, 1, 0, 2, 0, 1, 0,  //0x40 ~ 0
  41:SYS/task_manager/task_manager.c ****                                         4, 0, 1, 0, 2, 0, 1, 0, 3, 0, 1, 0, 2, 0, 1, 0,  //0x50 ~ 0
  42:SYS/task_manager/task_manager.c ****                                         5, 0, 1, 0, 2, 0, 1, 0, 3, 0, 1, 0, 2, 0, 1, 0,  //0x60 ~ 0
  43:SYS/task_manager/task_manager.c ****                                         4, 0, 1, 0, 2, 0, 1, 0, 3, 0, 1, 0, 2, 0, 1, 0,  //0x70 ~ 0
  44:SYS/task_manager/task_manager.c ****                                         7, 0, 1, 0, 2, 0, 1, 0, 3, 0, 1, 0, 2, 0, 1, 0,  //0x80 ~ 0
  45:SYS/task_manager/task_manager.c ****                                         4, 0, 1, 0, 2, 0, 1, 0, 3, 0, 1, 0, 2, 0, 1, 0,  //0x90 ~ 0
  46:SYS/task_manager/task_manager.c ****                                         5, 0, 1, 0, 2, 0, 1, 0, 3, 0, 1, 0, 2, 0, 1, 0,  //0xA0 ~ 0
  47:SYS/task_manager/task_manager.c ****                                         4, 0, 1, 0, 2, 0, 1, 0, 3, 0, 1, 0, 2, 0, 1, 0,  //0xB0 ~ 0
  48:SYS/task_manager/task_manager.c ****                                         6, 0, 1, 0, 2, 0, 1, 0, 3, 0, 1, 0, 2, 0, 1, 0,  //0xC0 ~ 0
  49:SYS/task_manager/task_manager.c ****                                         4, 0, 1, 0, 2, 0, 1, 0, 3, 0, 1, 0, 2, 0, 1, 0,  //0xD0 ~ 0
  50:SYS/task_manager/task_manager.c ****                                         5, 0, 1, 0, 2, 0, 1, 0, 3, 0, 1, 0, 2, 0, 1, 0,  //0xE0 ~ 0
  51:SYS/task_manager/task_manager.c ****                                         4, 0, 1, 0, 2, 0, 1, 0, 3, 0, 1, 0, 2, 0, 1, 0}; //0xF0 ~ 0
  52:SYS/task_manager/task_manager.c **** 
  53:SYS/task_manager/task_manager.c **** Task *Task_Ptr[Group_Sum][Task_Priority_Sum];
  54:SYS/task_manager/task_manager.c **** volatile Task *CurRunTsk_Ptr = NULL;
  55:SYS/task_manager/task_manager.c **** volatile Task *NxtRunTsk_Ptr = NULL;
  56:SYS/task_manager/task_manager.c **** 
  57:SYS/task_manager/task_manager.c **** static volatile TskMap_State TskHdl_RdyMap = {.Grp = 0, .TskInGrp[0] = 0, .TskInGrp[1] = 0, .TskInG
  58:SYS/task_manager/task_manager.c **** static volatile TskMap_State TskHdl_PndMap = {.Grp = 0, .TskInGrp[0] = 0, .TskInGrp[1] = 0, .TskInG
  59:SYS/task_manager/task_manager.c **** static volatile TskMap_State TskHdl_BlkMap = {.Grp = 0, .TskInGrp[0] = 0, .TskInGrp[1] = 0, .TskInG
  60:SYS/task_manager/task_manager.c **** 
  61:SYS/task_manager/task_manager.c **** static Task_Create_RegList_s TskCrt_RegList = {.num = 0,
  62:SYS/task_manager/task_manager.c ****                                                .list = {.prv = NULL, .nxt = NULL, .data = NULL}};
  63:SYS/task_manager/task_manager.c **** static volatile TaskSys_State TskSys_state = TaskSys_Initial;
  64:SYS/task_manager/task_manager.c **** static uint32_t TaskSys_Idle_US = 0;
  65:SYS/task_manager/task_manager.c **** static float TaskSys_Idle_Ocupy = 0.0f;
  66:SYS/task_manager/task_manager.c **** static SYSTEM_RunTime TaskSys_StartTime;
  67:SYS/task_manager/task_manager.c **** 
  68:SYS/task_manager/task_manager.c **** static void Task_SetReady(Task *tsk);
  69:SYS/task_manager/task_manager.c **** static void Task_ClearReady(Task *tsk);
  70:SYS/task_manager/task_manager.c **** static void Task_StopCountTargetFunc_Cast(Task *tsk_ptr);
  71:SYS/task_manager/task_manager.c **** 
  72:SYS/task_manager/task_manager.c **** #if (TASK_SCHEDULER_TYPE == PREEMPTIVE_SCHDULER)
  73:SYS/task_manager/task_manager.c **** volatile Task *PndHstTsk_Ptr = NULL;
  74:SYS/task_manager/task_manager.c **** 
  75:SYS/task_manager/task_manager.c **** volatile TaskStack_ControlBlock CurTsk_TCB;
  76:SYS/task_manager/task_manager.c **** volatile TaskStack_ControlBlock NxtTsk_TCB;
  77:SYS/task_manager/task_manager.c **** 
  78:SYS/task_manager/task_manager.c **** static uint32_t Task_OS_StkMem[MSP_MEM_SPACE_SIZE];
  79:SYS/task_manager/task_manager.c **** uint32_t *Task_OS_ExpStkBase;
  80:SYS/task_manager/task_manager.c **** 
  81:SYS/task_manager/task_manager.c **** static void Task_SetStkPtr_Val(Task *tsk);
  82:SYS/task_manager/task_manager.c **** static void Task_Set_CountRunnigTime_State(Task *tsk_ptr, uint8_t enable_state);
  83:SYS/task_manager/task_manager.c **** static void Task_ClearPending(Task *tsk);
  84:SYS/task_manager/task_manager.c **** static void Task_ClearBlock(Task *tsk);
  85:SYS/task_manager/task_manager.c **** static void Task_SetBASEPRI(uint32_t ulBASEPRI);
  86:SYS/task_manager/task_manager.c **** 
  87:SYS/task_manager/task_manager.c **** void Task_SetPending(Task *tsk);
ARM GAS  C:\Users\why\AppData\Local\Temp\ccNE1a8I.s 			page 3


  88:SYS/task_manager/task_manager.c **** #endif
  89:SYS/task_manager/task_manager.c **** 
  90:SYS/task_manager/task_manager.c **** static void Task_Exec(Task *tsk_ptr);
  91:SYS/task_manager/task_manager.c **** static void Task_SetPendSVPro(void);
  92:SYS/task_manager/task_manager.c **** void Task_TriggerPendSV(void);
  93:SYS/task_manager/task_manager.c **** 
  94:SYS/task_manager/task_manager.c **** static void ReSet_Task_Data(Task *task)
  95:SYS/task_manager/task_manager.c **** {
  96:SYS/task_manager/task_manager.c ****     task->priority.Suction.Group_Level = 0;
  97:SYS/task_manager/task_manager.c ****     task->priority.Suction.Task_Level = 0;
  98:SYS/task_manager/task_manager.c ****     task->Task_name = NULL;
  99:SYS/task_manager/task_manager.c ****     task->exec_frq = 0;
 100:SYS/task_manager/task_manager.c ****     task->exec_interval_us = 0;
 101:SYS/task_manager/task_manager.c ****     task->Exec_Func = NULL;
 102:SYS/task_manager/task_manager.c **** 
 103:SYS/task_manager/task_manager.c ****     task->Exec_status.detect_exec_frq = 0;
 104:SYS/task_manager/task_manager.c ****     task->Exec_status.detect_exec_time_arv = 0;
 105:SYS/task_manager/task_manager.c ****     task->Exec_status.detect_exec_time_max = 0;
 106:SYS/task_manager/task_manager.c ****     task->Exec_status.Exec_Times = 0;
 107:SYS/task_manager/task_manager.c ****     task->Exec_status.cpu_opy = 0;
 108:SYS/task_manager/task_manager.c ****     task->Exec_status.totlal_running_time = 0;
 109:SYS/task_manager/task_manager.c **** 
 110:SYS/task_manager/task_manager.c ****     task->delay_info.on_delay = false;
 111:SYS/task_manager/task_manager.c ****     task->delay_info.tsk_hdl = 0;
 112:SYS/task_manager/task_manager.c ****     task->delay_info.time_unit = 0;
 113:SYS/task_manager/task_manager.c **** 
 114:SYS/task_manager/task_manager.c ****     List_ItemInit(&task->delay_item, &task->delay_info);
 115:SYS/task_manager/task_manager.c **** 
 116:SYS/task_manager/task_manager.c ****     RuntimeObj_Reset(&(task->Exec_status.Exec_Time));
 117:SYS/task_manager/task_manager.c ****     RuntimeObj_Reset(&(task->Exec_status.Init_Time));
 118:SYS/task_manager/task_manager.c ****     RuntimeObj_Reset(&(task->Exec_status.Start_Time));
 119:SYS/task_manager/task_manager.c **** 
 120:SYS/task_manager/task_manager.c ****     task->Exec_status.State = Task_Done;
 121:SYS/task_manager/task_manager.c **** }
 122:SYS/task_manager/task_manager.c **** 
 123:SYS/task_manager/task_manager.c **** static void Task_ReSet_BaseInfo(Task_Base_Info *info)
 124:SYS/task_manager/task_manager.c **** {
 125:SYS/task_manager/task_manager.c ****     info->avg_exec_us = 0;
 126:SYS/task_manager/task_manager.c ****     info->cpu_opy = 0;
 127:SYS/task_manager/task_manager.c ****     info->exec_frq = 0;
 128:SYS/task_manager/task_manager.c ****     info->exec_times = 0;
 129:SYS/task_manager/task_manager.c ****     info->group = 0;
 130:SYS/task_manager/task_manager.c ****     info->max_exec_us = 0;
 131:SYS/task_manager/task_manager.c ****     info->priority = 0;
 132:SYS/task_manager/task_manager.c **** 
 133:SYS/task_manager/task_manager.c ****     memset(info->name, NULL, TASK_NAME_MAXLEN);
 134:SYS/task_manager/task_manager.c **** }
 135:SYS/task_manager/task_manager.c **** 
 136:SYS/task_manager/task_manager.c **** static bool TaskSys_Init(void)
 137:SYS/task_manager/task_manager.c **** {
 138:SYS/task_manager/task_manager.c **** #if (TASK_SCHEDULER_TYPE == PREEMPTIVE_SCHDULER)
 139:SYS/task_manager/task_manager.c ****     //init OS Stack Memory Space
 140:SYS/task_manager/task_manager.c ****     memset(Task_OS_StkMem, NULL, MSP_MEM_SPACE_SIZE);
 141:SYS/task_manager/task_manager.c **** 
 142:SYS/task_manager/task_manager.c ****     Task_OS_ExpStkBase = Task_OS_StkMem + MSP_MEM_SPACE_SIZE - 1;
 143:SYS/task_manager/task_manager.c **** #endif
 144:SYS/task_manager/task_manager.c **** 
ARM GAS  C:\Users\why\AppData\Local\Temp\ccNE1a8I.s 			page 4


 145:SYS/task_manager/task_manager.c ****     //periph_Timer_CounterMode_Init(Timer_4, TimerCounter_1M_Prescaler, TimerCounter_1us_Period, 0,
 146:SYS/task_manager/task_manager.c ****     //periph_Timer_Counter_SetEnable(Timer_4, DISABLE);
 147:SYS/task_manager/task_manager.c **** 
 148:SYS/task_manager/task_manager.c ****     uint8_t index = 0;
 149:SYS/task_manager/task_manager.c **** 
 150:SYS/task_manager/task_manager.c ****     for (uint8_t group_index = Group_0; group_index < Group_Sum; group_index++)
 151:SYS/task_manager/task_manager.c ****     {
 152:SYS/task_manager/task_manager.c ****         for (uint8_t task_priority = Task_Priority_0; task_priority < Task_Priority_Sum; task_prior
 153:SYS/task_manager/task_manager.c ****         {
 154:SYS/task_manager/task_manager.c ****             ReSet_Task_Data(Task_Ptr[group_index][task_priority]);
 155:SYS/task_manager/task_manager.c **** 
 156:SYS/task_manager/task_manager.c **** #if (TASK_SCHEDULER_TYPE == PREEMPTIVE_SCHDULER)
 157:SYS/task_manager/task_manager.c ****             Task_Ptr[group_index][task_priority]->Stack_Depth = 0;
 158:SYS/task_manager/task_manager.c ****             Task_Ptr[group_index][task_priority]->TCB.Stack = NULL;
 159:SYS/task_manager/task_manager.c ****             Task_Ptr[group_index][task_priority]->TCB.Top_Stk_Ptr = NULL;
 160:SYS/task_manager/task_manager.c **** #endif
 161:SYS/task_manager/task_manager.c ****             Task_Ptr[group_index][task_priority] = NULL;
 162:SYS/task_manager/task_manager.c **** 
 163:SYS/task_manager/task_manager.c ****             index++;
 164:SYS/task_manager/task_manager.c ****         }
 165:SYS/task_manager/task_manager.c ****     }
 166:SYS/task_manager/task_manager.c **** 
 167:SYS/task_manager/task_manager.c ****     TskCrt_RegList.num = 0;
 168:SYS/task_manager/task_manager.c ****     TskCrt_RegList.list.data = NULL;
 169:SYS/task_manager/task_manager.c ****     TskCrt_RegList.list.nxt = NULL;
 170:SYS/task_manager/task_manager.c ****     TskCrt_RegList.list.prv = NULL;
 171:SYS/task_manager/task_manager.c **** 
 172:SYS/task_manager/task_manager.c ****     ReSet_Task_Data(CurRunTsk_Ptr);
 173:SYS/task_manager/task_manager.c ****     TskSys_state = TaskSys_Prepare;
 174:SYS/task_manager/task_manager.c **** }
 175:SYS/task_manager/task_manager.c **** 
 176:SYS/task_manager/task_manager.c **** static void Task_Exit(void)
 177:SYS/task_manager/task_manager.c **** {
  29              		.loc 1 177 0
  30              		.cfi_startproc
  31              		@ Volatile: function does not return.
  32              		@ args = 0, pretend = 0, frame = 0
  33              		@ frame_needed = 0, uses_anonymous_args = 0
  34              		@ link register save eliminated.
  35              	.L2:
  36 0000 FEE7     		b	.L2
  37              		.cfi_endproc
  38              	.LFE127:
  40 0002 00BF     		.section	.text.Task_SetBASEPRI,"ax",%progbits
  41              		.align	2
  42              		.thumb
  43              		.thumb_func
  45              	Task_SetBASEPRI:
  46              	.LFB135:
 178:SYS/task_manager/task_manager.c ****     //task caller will not exit
 179:SYS/task_manager/task_manager.c ****     while (true)
 180:SYS/task_manager/task_manager.c ****     {
 181:SYS/task_manager/task_manager.c ****     }
 182:SYS/task_manager/task_manager.c **** }
 183:SYS/task_manager/task_manager.c **** 
 184:SYS/task_manager/task_manager.c **** static void Task_Idle(void)
 185:SYS/task_manager/task_manager.c **** {
ARM GAS  C:\Users\why\AppData\Local\Temp\ccNE1a8I.s 			page 5


 186:SYS/task_manager/task_manager.c ****     SYSTEM_RunTime cur_time;
 187:SYS/task_manager/task_manager.c ****     SYSTEM_RunTime time_diff;
 188:SYS/task_manager/task_manager.c **** 
 189:SYS/task_manager/task_manager.c ****     RuntimeObj_Reset(&time_diff);
 190:SYS/task_manager/task_manager.c ****     RuntimeObj_Reset(&cur_time);
 191:SYS/task_manager/task_manager.c **** 
 192:SYS/task_manager/task_manager.c ****     cur_time = Get_CurrentRunningUs();
 193:SYS/task_manager/task_manager.c ****     time_diff = Get_TimeDifference_Between(TaskSys_StartTime, cur_time);
 194:SYS/task_manager/task_manager.c **** 
 195:SYS/task_manager/task_manager.c ****     TaskSys_Idle_US++;
 196:SYS/task_manager/task_manager.c ****     TaskSys_Idle_Ocupy = (TaskSys_Idle_US / (float)time_diff);
 197:SYS/task_manager/task_manager.c **** }
 198:SYS/task_manager/task_manager.c **** 
 199:SYS/task_manager/task_manager.c **** #if (TASK_SCHEDULER_TYPE == PREEMPTIVE_SCHDULER)
 200:SYS/task_manager/task_manager.c **** 
 201:SYS/task_manager/task_manager.c **** void Task_Resume_FromBlock(Task *tsk)
 202:SYS/task_manager/task_manager.c **** {
 203:SYS/task_manager/task_manager.c ****     Task_ClearBlock(tsk);
 204:SYS/task_manager/task_manager.c ****     Task_SetReady(tsk);
 205:SYS/task_manager/task_manager.c ****     //Task_Set_CountRunnigTime_State(tsk, ENABLE);
 206:SYS/task_manager/task_manager.c **** 
 207:SYS/task_manager/task_manager.c ****     tsk->Exec_status.State = Task_Running;
 208:SYS/task_manager/task_manager.c ****     NxtTsk_TCB.Top_Stk_Ptr = &tsk->TCB.Top_Stk_Ptr;
 209:SYS/task_manager/task_manager.c ****     NxtTsk_TCB.Stack = tsk->TCB.Stack;
 210:SYS/task_manager/task_manager.c ****     CurRunTsk_Ptr = tsk;
 211:SYS/task_manager/task_manager.c **** }
 212:SYS/task_manager/task_manager.c **** 
 213:SYS/task_manager/task_manager.c **** void Task_SetBlock(Task *tsk)
 214:SYS/task_manager/task_manager.c **** {
 215:SYS/task_manager/task_manager.c ****     uint8_t grp_id = GET_TASKGROUP_PRIORITY(tsk->priority.Priority);
 216:SYS/task_manager/task_manager.c ****     uint8_t tsk_id = GET_TASKINGROUP_PRIORITY(tsk->priority.Priority);
 217:SYS/task_manager/task_manager.c **** 
 218:SYS/task_manager/task_manager.c ****     //set current group block
 219:SYS/task_manager/task_manager.c ****     TskHdl_BlkMap.Grp.Flg |= 1 << grp_id;
 220:SYS/task_manager/task_manager.c ****     //set current task under this group flag to block
 221:SYS/task_manager/task_manager.c ****     TskHdl_BlkMap.TskInGrp[grp_id].Flg |= 1 << tsk_id;
 222:SYS/task_manager/task_manager.c **** 
 223:SYS/task_manager/task_manager.c ****     //reset task in ready reg group
 224:SYS/task_manager/task_manager.c ****     TskHdl_RdyMap.TskInGrp[grp_id].Flg &= ~(1 << tsk_id);
 225:SYS/task_manager/task_manager.c ****     //if no task ready then clear group reg
 226:SYS/task_manager/task_manager.c ****     if (TskHdl_RdyMap.TskInGrp[grp_id].Flg == 0)
 227:SYS/task_manager/task_manager.c ****     {
 228:SYS/task_manager/task_manager.c ****         TskHdl_RdyMap.Grp.Flg &= ~(1 << grp_id);
 229:SYS/task_manager/task_manager.c ****     }
 230:SYS/task_manager/task_manager.c **** 
 231:SYS/task_manager/task_manager.c ****     //set task state
 232:SYS/task_manager/task_manager.c ****     tsk->Exec_status.State = Task_Block;
 233:SYS/task_manager/task_manager.c **** 
 234:SYS/task_manager/task_manager.c ****     //Task_StopCountTargetFunc_Cast(tsk);
 235:SYS/task_manager/task_manager.c ****     //Task_Set_CountRunnigTime_State(tsk, DISABLE);
 236:SYS/task_manager/task_manager.c **** 
 237:SYS/task_manager/task_manager.c ****     CurRunTsk_Ptr = NULL;
 238:SYS/task_manager/task_manager.c **** 
 239:SYS/task_manager/task_manager.c ****     Task_SetBASEPRI(0);
 240:SYS/task_manager/task_manager.c **** }
 241:SYS/task_manager/task_manager.c **** 
 242:SYS/task_manager/task_manager.c **** void Task_SetPending(Task *tsk)
ARM GAS  C:\Users\why\AppData\Local\Temp\ccNE1a8I.s 			page 6


 243:SYS/task_manager/task_manager.c **** {
 244:SYS/task_manager/task_manager.c ****     uint8_t grp_id = GET_TASKGROUP_PRIORITY(tsk->priority.Priority);
 245:SYS/task_manager/task_manager.c ****     uint8_t tsk_id = GET_TASKINGROUP_PRIORITY(tsk->priority.Priority);
 246:SYS/task_manager/task_manager.c **** 
 247:SYS/task_manager/task_manager.c ****     //set current group pending
 248:SYS/task_manager/task_manager.c ****     TskHdl_PndMap.Grp.Flg |= 1 << grp_id;
 249:SYS/task_manager/task_manager.c ****     //set current task under this group flag to ready
 250:SYS/task_manager/task_manager.c ****     TskHdl_PndMap.TskInGrp[grp_id].Flg |= 1 << tsk_id;
 251:SYS/task_manager/task_manager.c **** 
 252:SYS/task_manager/task_manager.c ****     //set task state
 253:SYS/task_manager/task_manager.c ****     tsk->Exec_status.State = Task_Pending;
 254:SYS/task_manager/task_manager.c **** }
 255:SYS/task_manager/task_manager.c **** 
 256:SYS/task_manager/task_manager.c **** void Task_SwitchStack(void)
 257:SYS/task_manager/task_manager.c **** {
 258:SYS/task_manager/task_manager.c ****     CurTsk_TCB = NxtTsk_TCB;
 259:SYS/task_manager/task_manager.c **** }
 260:SYS/task_manager/task_manager.c **** 
 261:SYS/task_manager/task_manager.c **** Task *Task_Get_HighestRank_PndTask(void)
 262:SYS/task_manager/task_manager.c **** {
 263:SYS/task_manager/task_manager.c ****     uint8_t grp_id;
 264:SYS/task_manager/task_manager.c ****     uint8_t tsk_id;
 265:SYS/task_manager/task_manager.c **** 
 266:SYS/task_manager/task_manager.c ****     if (TskHdl_PndMap.Grp.Flg)
 267:SYS/task_manager/task_manager.c ****     {
 268:SYS/task_manager/task_manager.c ****         //find group
 269:SYS/task_manager/task_manager.c ****         grp_id = Tsk_Handle[TskHdl_PndMap.Grp.Flg];
 270:SYS/task_manager/task_manager.c ****         //find task in group
 271:SYS/task_manager/task_manager.c ****         tsk_id = Tsk_Handle[TskHdl_PndMap.TskInGrp[grp_id].Flg];
 272:SYS/task_manager/task_manager.c ****     }
 273:SYS/task_manager/task_manager.c ****     else
 274:SYS/task_manager/task_manager.c ****         return NULL;
 275:SYS/task_manager/task_manager.c **** 
 276:SYS/task_manager/task_manager.c ****     if (Task_Ptr[grp_id][tsk_id] != NULL)
 277:SYS/task_manager/task_manager.c ****     {
 278:SYS/task_manager/task_manager.c ****         return Task_Ptr[grp_id][tsk_id];
 279:SYS/task_manager/task_manager.c ****     }
 280:SYS/task_manager/task_manager.c ****     else
 281:SYS/task_manager/task_manager.c ****     {
 282:SYS/task_manager/task_manager.c ****         TskHdl_PndMap.Grp.Flg &= ~(1 << grp_id);
 283:SYS/task_manager/task_manager.c ****         TskHdl_PndMap.TskInGrp[grp_id].Flg &= ~(1 << tsk_id);
 284:SYS/task_manager/task_manager.c ****         return NULL;
 285:SYS/task_manager/task_manager.c ****     }
 286:SYS/task_manager/task_manager.c **** }
 287:SYS/task_manager/task_manager.c **** 
 288:SYS/task_manager/task_manager.c **** static uint32_t Task_EnterCritical(void)
 289:SYS/task_manager/task_manager.c **** {
 290:SYS/task_manager/task_manager.c ****     /* Set BASEPRI to the max syscall priority to effect a critical
 291:SYS/task_manager/task_manager.c **** 	section. */
 292:SYS/task_manager/task_manager.c ****     uint32_t ulOriginalBASEPRI, ulNewBASEPRI;
 293:SYS/task_manager/task_manager.c **** 
 294:SYS/task_manager/task_manager.c ****     __asm volatile(
 295:SYS/task_manager/task_manager.c ****         "	mrs %0, basepri											\n"
 296:SYS/task_manager/task_manager.c ****         "	mov %1, %2												\n"
 297:SYS/task_manager/task_manager.c ****         "	msr basepri, %1											\n"
 298:SYS/task_manager/task_manager.c ****         "	isb														\n"
 299:SYS/task_manager/task_manager.c ****         "	dsb														\n"
ARM GAS  C:\Users\why\AppData\Local\Temp\ccNE1a8I.s 			page 7


 300:SYS/task_manager/task_manager.c ****         : "=r"(ulOriginalBASEPRI), "=r"(ulNewBASEPRI)
 301:SYS/task_manager/task_manager.c ****         : "i"(80)
 302:SYS/task_manager/task_manager.c ****         : "memory");
 303:SYS/task_manager/task_manager.c **** 
 304:SYS/task_manager/task_manager.c ****     /* This return will not be reached but is necessary to prevent compiler
 305:SYS/task_manager/task_manager.c **** 	warnings. */
 306:SYS/task_manager/task_manager.c ****     return ulOriginalBASEPRI;
 307:SYS/task_manager/task_manager.c **** }
 308:SYS/task_manager/task_manager.c **** 
 309:SYS/task_manager/task_manager.c **** __attribute__((nake)) static void Task_SetBASEPRI(uint32_t ulBASEPRI)
 310:SYS/task_manager/task_manager.c **** {
  47              		.loc 1 310 0
  48              		.cfi_startproc
  49              		@ args = 0, pretend = 0, frame = 0
  50              		@ frame_needed = 0, uses_anonymous_args = 0
  51              		@ link register save eliminated.
  52              	.LVL0:
 311:SYS/task_manager/task_manager.c ****     __ASM("	msr basepri, %0	" ::"r"(ulBASEPRI)
  53              		.loc 1 311 0
  54              		.syntax unified
  55              	@ 311 "SYS/task_manager/task_manager.c" 1
  56 0000 80F31188 			msr basepri, r0	
  57              	@ 0 "" 2
  58              		.thumb
  59              		.syntax unified
  60 0004 7047     		bx	lr
  61              		.cfi_endproc
  62              	.LFE135:
  64 0006 00BF     		.section	.text.Task_SetReady,"ax",%progbits
  65              		.align	2
  66              		.thumb
  67              		.thumb_func
  69              	Task_SetReady:
  70              	.LFB143:
 312:SYS/task_manager/task_manager.c ****           : "memory");
 313:SYS/task_manager/task_manager.c **** }
 314:SYS/task_manager/task_manager.c **** 
 315:SYS/task_manager/task_manager.c **** static void Task_ExitCritical(void)
 316:SYS/task_manager/task_manager.c **** {
 317:SYS/task_manager/task_manager.c ****     /* Barrier instructions are not used as this function is only used to
 318:SYS/task_manager/task_manager.c **** 	lower the BASEPRI value. */
 319:SYS/task_manager/task_manager.c ****     __ASM("	msr basepri, %0	" ::"r"(0)
 320:SYS/task_manager/task_manager.c ****           : "memory");
 321:SYS/task_manager/task_manager.c **** }
 322:SYS/task_manager/task_manager.c **** 
 323:SYS/task_manager/task_manager.c **** static void Task_Recover(void)
 324:SYS/task_manager/task_manager.c **** {
 325:SYS/task_manager/task_manager.c ****     __ASM("LDR	  R3, CurrentTCBConst_Tmp2");
 326:SYS/task_manager/task_manager.c ****     __ASM("LDR    R1, [R3]");
 327:SYS/task_manager/task_manager.c ****     __ASM("LDR    R0, [R1]");
 328:SYS/task_manager/task_manager.c **** 
 329:SYS/task_manager/task_manager.c ****     __ASM("LDMIA  R0!, {R4-R11, R14}");
 330:SYS/task_manager/task_manager.c **** 
 331:SYS/task_manager/task_manager.c ****     __ASM("MSR    PSP, R0");
 332:SYS/task_manager/task_manager.c ****     __ASM("ISB");
 333:SYS/task_manager/task_manager.c ****     __ASM("BX     R14");
 334:SYS/task_manager/task_manager.c ****     __ASM(".ALIGN 4");
ARM GAS  C:\Users\why\AppData\Local\Temp\ccNE1a8I.s 			page 8


 335:SYS/task_manager/task_manager.c ****     __ASM("CurrentTCBConst_Tmp2: .word CurTsk_TCB");
 336:SYS/task_manager/task_manager.c **** }
 337:SYS/task_manager/task_manager.c **** 
 338:SYS/task_manager/task_manager.c **** void Task_SaveCurProc(void)
 339:SYS/task_manager/task_manager.c **** {
 340:SYS/task_manager/task_manager.c ****     __ASM("MRS    R0, PSP");
 341:SYS/task_manager/task_manager.c ****     __ASM("LDR	  R3, CurrentTCBConst_Tmp3");
 342:SYS/task_manager/task_manager.c ****     __ASM("LDR    R2, [R3]");
 343:SYS/task_manager/task_manager.c **** 
 344:SYS/task_manager/task_manager.c ****     __ASM("ISB");
 345:SYS/task_manager/task_manager.c **** 
 346:SYS/task_manager/task_manager.c ****     __ASM("STMDB    R0!, {R4-R11, R14}");
 347:SYS/task_manager/task_manager.c ****     __ASM("STR      R0, [R2]");
 348:SYS/task_manager/task_manager.c **** 
 349:SYS/task_manager/task_manager.c ****     /******************************  FPU SECTION  *********************************/
 350:SYS/task_manager/task_manager.c ****     __ASM("TST      R14, #0x10");
 351:SYS/task_manager/task_manager.c ****     __ASM("IT       EQ");
 352:SYS/task_manager/task_manager.c ****     __ASM("VSTMDBEQ R0!, {s16-s31}");
 353:SYS/task_manager/task_manager.c ****     /******************************  FPU SECTION  *********************************/
 354:SYS/task_manager/task_manager.c **** 
 355:SYS/task_manager/task_manager.c ****     __ASM("ISB");
 356:SYS/task_manager/task_manager.c ****     __ASM("BX       R14");
 357:SYS/task_manager/task_manager.c **** 
 358:SYS/task_manager/task_manager.c ****     __ASM("CurrentTCBConst_Tmp3: .word CurTsk_TCB");
 359:SYS/task_manager/task_manager.c **** }
 360:SYS/task_manager/task_manager.c **** 
 361:SYS/task_manager/task_manager.c **** void Task_Load(void)
 362:SYS/task_manager/task_manager.c **** {
 363:SYS/task_manager/task_manager.c ****     __ASM("LDR	  R3, =CurTsk_TCB");
 364:SYS/task_manager/task_manager.c ****     __ASM("LDR    R1, [R3]");
 365:SYS/task_manager/task_manager.c ****     __ASM("LDR    R0, [R1]");
 366:SYS/task_manager/task_manager.c **** 
 367:SYS/task_manager/task_manager.c ****     __ASM("LDMIA  R0!, {R4-R11, R14}");
 368:SYS/task_manager/task_manager.c **** 
 369:SYS/task_manager/task_manager.c ****     /******************************  FPU SECTION  *********************************/
 370:SYS/task_manager/task_manager.c ****     __ASM("TST      R14, #0x10");
 371:SYS/task_manager/task_manager.c ****     __ASM("IT       EQ");
 372:SYS/task_manager/task_manager.c ****     __ASM("VLDMIAEQ R0!, {s16-s31}");
 373:SYS/task_manager/task_manager.c ****     /******************************  FPU SECTION  *********************************/
 374:SYS/task_manager/task_manager.c **** 
 375:SYS/task_manager/task_manager.c ****     __ASM("MSR    PSP, R0");
 376:SYS/task_manager/task_manager.c ****     __ASM("ISB");
 377:SYS/task_manager/task_manager.c ****     //__ASM("MOV    R0, #240");
 378:SYS/task_manager/task_manager.c ****     //__ASM("MSR	  BASEPRI, R0");
 379:SYS/task_manager/task_manager.c ****     __ASM("BX     R14");
 380:SYS/task_manager/task_manager.c ****     __ASM(".ALIGN 4");
 381:SYS/task_manager/task_manager.c **** }
 382:SYS/task_manager/task_manager.c **** 
 383:SYS/task_manager/task_manager.c **** void Load_FirstTask(void)
 384:SYS/task_manager/task_manager.c **** {
 385:SYS/task_manager/task_manager.c ****     Task_Load();
 386:SYS/task_manager/task_manager.c **** }
 387:SYS/task_manager/task_manager.c **** 
 388:SYS/task_manager/task_manager.c **** void Task_SwitchContext(void)
 389:SYS/task_manager/task_manager.c **** {
 390:SYS/task_manager/task_manager.c ****     __ASM("MRS      R0, PSP");
 391:SYS/task_manager/task_manager.c ****     __ASM("ISB");
ARM GAS  C:\Users\why\AppData\Local\Temp\ccNE1a8I.s 			page 9


 392:SYS/task_manager/task_manager.c **** 
 393:SYS/task_manager/task_manager.c ****     __ASM("LDR      R3, CurrentTCBConst_Tmp");
 394:SYS/task_manager/task_manager.c ****     __ASM("LDR      R2, [R3]");
 395:SYS/task_manager/task_manager.c **** 
 396:SYS/task_manager/task_manager.c ****     /******************************  FPU SECTION  *********************************/
 397:SYS/task_manager/task_manager.c ****     __ASM("TST      R14, #0x10");
 398:SYS/task_manager/task_manager.c ****     __ASM("IT       EQ");
 399:SYS/task_manager/task_manager.c ****     __ASM("VSTMDBEQ R0!, {s16-s31}");
 400:SYS/task_manager/task_manager.c ****     /******************************  FPU SECTION  *********************************/
 401:SYS/task_manager/task_manager.c **** 
 402:SYS/task_manager/task_manager.c ****     __ASM("STMDB    R0!, {R4-R11, R14}");
 403:SYS/task_manager/task_manager.c ****     __ASM("STR      R0, [R2]");
 404:SYS/task_manager/task_manager.c **** 
 405:SYS/task_manager/task_manager.c ****     __ASM("STMDB    SP!, {R0, R3}");
 406:SYS/task_manager/task_manager.c ****     __ASM("MOV      R0, %0" ::"i"(0x50));
 407:SYS/task_manager/task_manager.c ****     __ASM("MSR      BASEPRI, R0");
 408:SYS/task_manager/task_manager.c **** 
 409:SYS/task_manager/task_manager.c ****     __ASM("DSB");
 410:SYS/task_manager/task_manager.c ****     __ASM("ISB");
 411:SYS/task_manager/task_manager.c **** 
 412:SYS/task_manager/task_manager.c ****     __ASM("BL       Task_SwitchStack");
 413:SYS/task_manager/task_manager.c **** 
 414:SYS/task_manager/task_manager.c ****     __ASM("MOV      R0, #0");
 415:SYS/task_manager/task_manager.c ****     __ASM("MSR      BASEPRI, R0");
 416:SYS/task_manager/task_manager.c ****     __ASM("LDMIA    SP!, {R0, R3}");
 417:SYS/task_manager/task_manager.c **** 
 418:SYS/task_manager/task_manager.c ****     __ASM("LDR      R1, [R3]");
 419:SYS/task_manager/task_manager.c ****     __ASM("LDR      R0, [R1]");
 420:SYS/task_manager/task_manager.c **** 
 421:SYS/task_manager/task_manager.c ****     __ASM("LDMIA    R0!, {R4-R11, R14}");
 422:SYS/task_manager/task_manager.c **** 
 423:SYS/task_manager/task_manager.c ****     /******************************  FPU SECTION  *********************************/
 424:SYS/task_manager/task_manager.c ****     __ASM("TST      R14, #0x10");
 425:SYS/task_manager/task_manager.c ****     __ASM("IT       EQ");
 426:SYS/task_manager/task_manager.c ****     __ASM("VLDMIAEQ R0!, {s16-s31}");
 427:SYS/task_manager/task_manager.c ****     /******************************  FPU SECTION  *********************************/
 428:SYS/task_manager/task_manager.c **** 
 429:SYS/task_manager/task_manager.c ****     __ASM("MSR      PSP,R0");
 430:SYS/task_manager/task_manager.c ****     __ASM("ISB");
 431:SYS/task_manager/task_manager.c ****     //__ASM("MOV      R0, #240");
 432:SYS/task_manager/task_manager.c ****     //__ASM("MSR	    BASEPRI, R0");
 433:SYS/task_manager/task_manager.c ****     __ASM("BX       R14");
 434:SYS/task_manager/task_manager.c **** 
 435:SYS/task_manager/task_manager.c ****     __ASM("CurrentTCBConst_Tmp: .word CurTsk_TCB");
 436:SYS/task_manager/task_manager.c ****     __ASM(".ALIGN 4");
 437:SYS/task_manager/task_manager.c **** }
 438:SYS/task_manager/task_manager.c **** 
 439:SYS/task_manager/task_manager.c **** static void Task_SetStkPtr_Val(Task *tsk)
 440:SYS/task_manager/task_manager.c **** {
 441:SYS/task_manager/task_manager.c ****     uint32_t *Tsk_Ptr_tmp = NULL;
 442:SYS/task_manager/task_manager.c **** 
 443:SYS/task_manager/task_manager.c ****     memset(tsk->TCB.Stack, NULL, tsk->Stack_Depth);
 444:SYS/task_manager/task_manager.c **** 
 445:SYS/task_manager/task_manager.c ****     Tsk_Ptr_tmp = &tsk->TCB.Stack + (tsk->Stack_Depth - (uint32_t)1);
 446:SYS/task_manager/task_manager.c ****     Tsk_Ptr_tmp = (uint32_t *)((uint32_t)(Tsk_Ptr_tmp)&0XFFFFFFF8ul);
 447:SYS/task_manager/task_manager.c **** 
 448:SYS/task_manager/task_manager.c ****     Tsk_Ptr_tmp--;
ARM GAS  C:\Users\why\AppData\Local\Temp\ccNE1a8I.s 			page 10


 449:SYS/task_manager/task_manager.c ****     *Tsk_Ptr_tmp = 0x01000000uL; /* xPSR */
 450:SYS/task_manager/task_manager.c **** 
 451:SYS/task_manager/task_manager.c ****     Tsk_Ptr_tmp--;
 452:SYS/task_manager/task_manager.c ****     *Tsk_Ptr_tmp = ((uint32_t)Task_Caller) & 0xfffffffeUL; /* PC */
 453:SYS/task_manager/task_manager.c **** 
 454:SYS/task_manager/task_manager.c ****     Tsk_Ptr_tmp--;
 455:SYS/task_manager/task_manager.c ****     *Tsk_Ptr_tmp = (uint32_t)Task_Exit; /* LR */
 456:SYS/task_manager/task_manager.c **** 
 457:SYS/task_manager/task_manager.c ****     /* Save code space by skipping register initialisation. */
 458:SYS/task_manager/task_manager.c ****     Tsk_Ptr_tmp -= 5;              /* R12, R3, R2 and R1. */
 459:SYS/task_manager/task_manager.c ****     *Tsk_Ptr_tmp = (uint32_t)NULL; /* R0 */
 460:SYS/task_manager/task_manager.c **** 
 461:SYS/task_manager/task_manager.c ****     /* A save method is being used that requires each task to maintain its
 462:SYS/task_manager/task_manager.c **** 	    own exec return value. */
 463:SYS/task_manager/task_manager.c ****     Tsk_Ptr_tmp--;
 464:SYS/task_manager/task_manager.c ****     *Tsk_Ptr_tmp = 0xfffffffd;
 465:SYS/task_manager/task_manager.c **** 
 466:SYS/task_manager/task_manager.c ****     Tsk_Ptr_tmp -= 8; /* R11, R10, R9, R8, R7, R6, R5 and R4. */
 467:SYS/task_manager/task_manager.c **** 
 468:SYS/task_manager/task_manager.c ****     //set task stack top pointer
 469:SYS/task_manager/task_manager.c ****     tsk->TCB.Top_Stk_Ptr = Tsk_Ptr_tmp; //&Tsk_Ptr_tmp
 470:SYS/task_manager/task_manager.c **** }
 471:SYS/task_manager/task_manager.c **** 
 472:SYS/task_manager/task_manager.c **** #endif
 473:SYS/task_manager/task_manager.c **** 
 474:SYS/task_manager/task_manager.c **** static void Task_SetReady(Task *tsk)
 475:SYS/task_manager/task_manager.c **** {
  71              		.loc 1 475 0
  72              		.cfi_startproc
  73              		@ args = 0, pretend = 0, frame = 0
  74              		@ frame_needed = 0, uses_anonymous_args = 0
  75              		@ link register save eliminated.
  76              	.LVL1:
  77 0000 70B4     		push	{r4, r5, r6}
  78              	.LCFI0:
  79              		.cfi_def_cfa_offset 12
  80              		.cfi_offset 4, -12
  81              		.cfi_offset 5, -8
  82              		.cfi_offset 6, -4
 476:SYS/task_manager/task_manager.c ****     uint8_t grp_id = GET_TASKGROUP_PRIORITY(tsk->priority.Priority);
  83              		.loc 1 476 0
  84 0002 0378     		ldrb	r3, [r0]	@ zero_extendqisi2
  85 0004 DA08     		lsrs	r2, r3, #3
  86              	.LVL2:
 477:SYS/task_manager/task_manager.c ****     uint8_t tsk_id = GET_TASKINGROUP_PRIORITY(tsk->priority.Priority);
  87              		.loc 1 477 0
  88 0006 03F00704 		and	r4, r3, #7
  89              	.LVL3:
 478:SYS/task_manager/task_manager.c **** 
 479:SYS/task_manager/task_manager.c ****     //set current group flag to ready
 480:SYS/task_manager/task_manager.c ****     TskHdl_RdyMap.Grp.Flg |= 1 << grp_id;
  90              		.loc 1 480 0
  91 000a 094D     		ldr	r5, .L6
  92 000c 2E78     		ldrb	r6, [r5]	@ zero_extendqisi2
  93 000e 0123     		movs	r3, #1
  94 0010 03FA02F1 		lsl	r1, r3, r2
  95 0014 3143     		orrs	r1, r1, r6
ARM GAS  C:\Users\why\AppData\Local\Temp\ccNE1a8I.s 			page 11


  96 0016 C9B2     		uxtb	r1, r1
  97 0018 2970     		strb	r1, [r5]
 481:SYS/task_manager/task_manager.c ****     //set current task under this group flag to ready
 482:SYS/task_manager/task_manager.c ****     TskHdl_RdyMap.TskInGrp[grp_id].Flg |= 1 << tsk_id;
  98              		.loc 1 482 0
  99 001a 2A44     		add	r2, r2, r5
 100              	.LVL4:
 101 001c 5178     		ldrb	r1, [r2, #1]	@ zero_extendqisi2
 102 001e A340     		lsls	r3, r3, r4
 103 0020 0B43     		orrs	r3, r3, r1
 104 0022 DBB2     		uxtb	r3, r3
 105 0024 5370     		strb	r3, [r2, #1]
 483:SYS/task_manager/task_manager.c **** 
 484:SYS/task_manager/task_manager.c ****     tsk->Exec_status.State = Task_Ready;
 106              		.loc 1 484 0
 107 0026 0023     		movs	r3, #0
 108 0028 80F84830 		strb	r3, [r0, #72]
 485:SYS/task_manager/task_manager.c **** }
 109              		.loc 1 485 0
 110 002c 70BC     		pop	{r4, r5, r6}
 111              	.LCFI1:
 112              		.cfi_restore 6
 113              		.cfi_restore 5
 114              		.cfi_restore 4
 115              		.cfi_def_cfa_offset 0
 116              	.LVL5:
 117 002e 7047     		bx	lr
 118              	.L7:
 119              		.align	2
 120              	.L6:
 121 0030 00000000 		.word	.LANCHOR0
 122              		.cfi_endproc
 123              	.LFE143:
 125              		.section	.text.Task_ClearBlock,"ax",%progbits
 126              		.align	2
 127              		.thumb
 128              		.thumb_func
 130              	Task_ClearBlock:
 131              	.LFB144:
 486:SYS/task_manager/task_manager.c **** 
 487:SYS/task_manager/task_manager.c **** static void Task_ClearBlock(Task *tsk)
 488:SYS/task_manager/task_manager.c **** {
 132              		.loc 1 488 0
 133              		.cfi_startproc
 134              		@ args = 0, pretend = 0, frame = 0
 135              		@ frame_needed = 0, uses_anonymous_args = 0
 136              		@ link register save eliminated.
 137              	.LVL6:
 138 0000 10B4     		push	{r4}
 139              	.LCFI2:
 140              		.cfi_def_cfa_offset 4
 141              		.cfi_offset 4, -4
 489:SYS/task_manager/task_manager.c ****     uint8_t grp_id = GET_TASKGROUP_PRIORITY(tsk->priority.Priority);
 142              		.loc 1 489 0
 143 0002 0378     		ldrb	r3, [r0]	@ zero_extendqisi2
 144 0004 DC08     		lsrs	r4, r3, #3
 145              	.LVL7:
ARM GAS  C:\Users\why\AppData\Local\Temp\ccNE1a8I.s 			page 12


 490:SYS/task_manager/task_manager.c ****     uint8_t tsk_id = GET_TASKINGROUP_PRIORITY(tsk->priority.Priority);
 146              		.loc 1 490 0
 147 0006 03F00702 		and	r2, r3, #7
 148              	.LVL8:
 491:SYS/task_manager/task_manager.c **** 
 492:SYS/task_manager/task_manager.c ****     TskHdl_BlkMap.TskInGrp[grp_id].Flg &= ~(1 << tsk_id);
 149              		.loc 1 492 0
 150 000a 0B4B     		ldr	r3, .L11
 151 000c 2344     		add	r3, r3, r4
 152 000e 5978     		ldrb	r1, [r3, #1]	@ zero_extendqisi2
 153 0010 0120     		movs	r0, #1
 154              	.LVL9:
 155 0012 00FA02F2 		lsl	r2, r0, r2
 156              	.LVL10:
 157 0016 21EA0202 		bic	r2, r1, r2
 158 001a 5A70     		strb	r2, [r3, #1]
 159              	.LVL11:
 493:SYS/task_manager/task_manager.c ****     if (TskHdl_BlkMap.TskInGrp[grp_id].Flg == 0)
 160              		.loc 1 493 0
 161 001c 5B78     		ldrb	r3, [r3, #1]	@ zero_extendqisi2
 162 001e 13F0FF0F 		tst	r3, #255
 163 0022 06D1     		bne	.L8
 494:SYS/task_manager/task_manager.c ****     {
 495:SYS/task_manager/task_manager.c ****         TskHdl_BlkMap.Grp.Flg &= ~(1 << grp_id);
 164              		.loc 1 495 0
 165 0024 0449     		ldr	r1, .L11
 166 0026 0B78     		ldrb	r3, [r1]	@ zero_extendqisi2
 167 0028 00FA04F4 		lsl	r4, r0, r4
 168              	.LVL12:
 169 002c 23EA0404 		bic	r4, r3, r4
 170 0030 0C70     		strb	r4, [r1]
 171              	.L8:
 496:SYS/task_manager/task_manager.c ****     }
 497:SYS/task_manager/task_manager.c **** }
 172              		.loc 1 497 0
 173 0032 5DF8044B 		ldr	r4, [sp], #4
 174              	.LCFI3:
 175              		.cfi_restore 4
 176              		.cfi_def_cfa_offset 0
 177 0036 7047     		bx	lr
 178              	.L12:
 179              		.align	2
 180              	.L11:
 181 0038 00000000 		.word	.LANCHOR1
 182              		.cfi_endproc
 183              	.LFE144:
 185              		.section	.text.Task_ClearPending,"ax",%progbits
 186              		.align	2
 187              		.thumb
 188              		.thumb_func
 190              	Task_ClearPending:
 191              	.LFB145:
 498:SYS/task_manager/task_manager.c **** 
 499:SYS/task_manager/task_manager.c **** static void Task_ClearPending(Task *tsk)
 500:SYS/task_manager/task_manager.c **** {
 192              		.loc 1 500 0
 193              		.cfi_startproc
ARM GAS  C:\Users\why\AppData\Local\Temp\ccNE1a8I.s 			page 13


 194              		@ args = 0, pretend = 0, frame = 0
 195              		@ frame_needed = 0, uses_anonymous_args = 0
 196              		@ link register save eliminated.
 197              	.LVL13:
 198 0000 10B4     		push	{r4}
 199              	.LCFI4:
 200              		.cfi_def_cfa_offset 4
 201              		.cfi_offset 4, -4
 501:SYS/task_manager/task_manager.c ****     uint8_t grp_id = GET_TASKGROUP_PRIORITY(tsk->priority.Priority);
 202              		.loc 1 501 0
 203 0002 0378     		ldrb	r3, [r0]	@ zero_extendqisi2
 204 0004 DC08     		lsrs	r4, r3, #3
 205              	.LVL14:
 502:SYS/task_manager/task_manager.c ****     uint8_t tsk_id = GET_TASKINGROUP_PRIORITY(tsk->priority.Priority);
 206              		.loc 1 502 0
 207 0006 03F00702 		and	r2, r3, #7
 208              	.LVL15:
 503:SYS/task_manager/task_manager.c **** 
 504:SYS/task_manager/task_manager.c ****     TskHdl_PndMap.TskInGrp[grp_id].Flg &= ~(1 << tsk_id);
 209              		.loc 1 504 0
 210 000a 0B4B     		ldr	r3, .L16
 211 000c 2344     		add	r3, r3, r4
 212 000e 5978     		ldrb	r1, [r3, #1]	@ zero_extendqisi2
 213 0010 0120     		movs	r0, #1
 214              	.LVL16:
 215 0012 00FA02F2 		lsl	r2, r0, r2
 216              	.LVL17:
 217 0016 21EA0202 		bic	r2, r1, r2
 218 001a 5A70     		strb	r2, [r3, #1]
 219              	.LVL18:
 505:SYS/task_manager/task_manager.c ****     if (TskHdl_PndMap.TskInGrp[grp_id].Flg == 0)
 220              		.loc 1 505 0
 221 001c 5B78     		ldrb	r3, [r3, #1]	@ zero_extendqisi2
 222 001e 13F0FF0F 		tst	r3, #255
 223 0022 06D1     		bne	.L13
 506:SYS/task_manager/task_manager.c ****     {
 507:SYS/task_manager/task_manager.c ****         TskHdl_PndMap.Grp.Flg &= ~(1 << grp_id);
 224              		.loc 1 507 0
 225 0024 0449     		ldr	r1, .L16
 226 0026 0B78     		ldrb	r3, [r1]	@ zero_extendqisi2
 227 0028 00FA04F4 		lsl	r4, r0, r4
 228              	.LVL19:
 229 002c 23EA0404 		bic	r4, r3, r4
 230 0030 0C70     		strb	r4, [r1]
 231              	.L13:
 508:SYS/task_manager/task_manager.c ****     }
 509:SYS/task_manager/task_manager.c **** }
 232              		.loc 1 509 0
 233 0032 5DF8044B 		ldr	r4, [sp], #4
 234              	.LCFI5:
 235              		.cfi_restore 4
 236              		.cfi_def_cfa_offset 0
 237 0036 7047     		bx	lr
 238              	.L17:
 239              		.align	2
 240              	.L16:
 241 0038 00000000 		.word	.LANCHOR2
ARM GAS  C:\Users\why\AppData\Local\Temp\ccNE1a8I.s 			page 14


 242              		.cfi_endproc
 243              	.LFE145:
 245              		.section	.text.Task_ClearReady,"ax",%progbits
 246              		.align	2
 247              		.thumb
 248              		.thumb_func
 250              	Task_ClearReady:
 251              	.LFB146:
 510:SYS/task_manager/task_manager.c **** 
 511:SYS/task_manager/task_manager.c **** static void Task_ClearReady(Task *tsk)
 512:SYS/task_manager/task_manager.c **** {
 252              		.loc 1 512 0
 253              		.cfi_startproc
 254              		@ args = 0, pretend = 0, frame = 0
 255              		@ frame_needed = 0, uses_anonymous_args = 0
 256              		@ link register save eliminated.
 257              	.LVL20:
 258 0000 10B4     		push	{r4}
 259              	.LCFI6:
 260              		.cfi_def_cfa_offset 4
 261              		.cfi_offset 4, -4
 513:SYS/task_manager/task_manager.c ****     uint8_t grp_id = GET_TASKGROUP_PRIORITY(tsk->priority.Priority);
 262              		.loc 1 513 0
 263 0002 0378     		ldrb	r3, [r0]	@ zero_extendqisi2
 264 0004 DC08     		lsrs	r4, r3, #3
 265              	.LVL21:
 514:SYS/task_manager/task_manager.c ****     uint8_t tsk_id = GET_TASKINGROUP_PRIORITY(tsk->priority.Priority);
 266              		.loc 1 514 0
 267 0006 03F00702 		and	r2, r3, #7
 268              	.LVL22:
 515:SYS/task_manager/task_manager.c **** 
 516:SYS/task_manager/task_manager.c ****     TskHdl_RdyMap.TskInGrp[grp_id].Flg &= ~(1 << tsk_id);
 269              		.loc 1 516 0
 270 000a 0B4B     		ldr	r3, .L21
 271 000c 2344     		add	r3, r3, r4
 272 000e 5978     		ldrb	r1, [r3, #1]	@ zero_extendqisi2
 273 0010 0120     		movs	r0, #1
 274              	.LVL23:
 275 0012 00FA02F2 		lsl	r2, r0, r2
 276              	.LVL24:
 277 0016 21EA0202 		bic	r2, r1, r2
 278 001a 5A70     		strb	r2, [r3, #1]
 279              	.LVL25:
 517:SYS/task_manager/task_manager.c ****     if (TskHdl_RdyMap.TskInGrp[grp_id].Flg == 0)
 280              		.loc 1 517 0
 281 001c 5B78     		ldrb	r3, [r3, #1]	@ zero_extendqisi2
 282 001e 13F0FF0F 		tst	r3, #255
 283 0022 06D1     		bne	.L18
 518:SYS/task_manager/task_manager.c ****     {
 519:SYS/task_manager/task_manager.c ****         TskHdl_RdyMap.Grp.Flg &= ~(1 << grp_id);
 284              		.loc 1 519 0
 285 0024 0449     		ldr	r1, .L21
 286 0026 0B78     		ldrb	r3, [r1]	@ zero_extendqisi2
 287 0028 00FA04F4 		lsl	r4, r0, r4
 288              	.LVL26:
 289 002c 23EA0404 		bic	r4, r3, r4
 290 0030 0C70     		strb	r4, [r1]
ARM GAS  C:\Users\why\AppData\Local\Temp\ccNE1a8I.s 			page 15


 291              	.L18:
 520:SYS/task_manager/task_manager.c ****     }
 521:SYS/task_manager/task_manager.c **** }
 292              		.loc 1 521 0
 293 0032 5DF8044B 		ldr	r4, [sp], #4
 294              	.LCFI7:
 295              		.cfi_restore 4
 296              		.cfi_def_cfa_offset 0
 297 0036 7047     		bx	lr
 298              	.L22:
 299              		.align	2
 300              	.L21:
 301 0038 00000000 		.word	.LANCHOR0
 302              		.cfi_endproc
 303              	.LFE146:
 305              		.section	.text.Task_SetPendSVPro,"ax",%progbits
 306              		.align	2
 307              		.thumb
 308              		.thumb_func
 310              	Task_SetPendSVPro:
 311              	.LFB149:
 522:SYS/task_manager/task_manager.c **** 
 523:SYS/task_manager/task_manager.c **** Task *Task_Get_HighestRank_RdyTask(void)
 524:SYS/task_manager/task_manager.c **** {
 525:SYS/task_manager/task_manager.c ****     uint8_t grp_id = 0;
 526:SYS/task_manager/task_manager.c ****     uint8_t tsk_id = 0;
 527:SYS/task_manager/task_manager.c **** 
 528:SYS/task_manager/task_manager.c ****     if (TskHdl_RdyMap.Grp.Flg)
 529:SYS/task_manager/task_manager.c ****     {
 530:SYS/task_manager/task_manager.c ****         //find group
 531:SYS/task_manager/task_manager.c ****         grp_id = Tsk_Handle[TskHdl_RdyMap.Grp.Flg];
 532:SYS/task_manager/task_manager.c ****         //find task in group
 533:SYS/task_manager/task_manager.c ****         tsk_id = Tsk_Handle[TskHdl_RdyMap.TskInGrp[grp_id].Flg];
 534:SYS/task_manager/task_manager.c ****     }
 535:SYS/task_manager/task_manager.c ****     else
 536:SYS/task_manager/task_manager.c ****         return NULL;
 537:SYS/task_manager/task_manager.c **** 
 538:SYS/task_manager/task_manager.c ****     if (Task_Ptr[grp_id][tsk_id] != NULL)
 539:SYS/task_manager/task_manager.c ****     {
 540:SYS/task_manager/task_manager.c ****         return Task_Ptr[grp_id][tsk_id];
 541:SYS/task_manager/task_manager.c ****     }
 542:SYS/task_manager/task_manager.c ****     else
 543:SYS/task_manager/task_manager.c ****     {
 544:SYS/task_manager/task_manager.c ****         TskHdl_RdyMap.Grp.Flg &= ~(1 << grp_id);
 545:SYS/task_manager/task_manager.c ****         TskHdl_RdyMap.TskInGrp[grp_id].Flg &= ~(1 << tsk_id);
 546:SYS/task_manager/task_manager.c ****         return NULL;
 547:SYS/task_manager/task_manager.c ****     }
 548:SYS/task_manager/task_manager.c **** }
 549:SYS/task_manager/task_manager.c **** 
 550:SYS/task_manager/task_manager.c **** void Task_SetNextTask_Ptr(const Task *nxt)
 551:SYS/task_manager/task_manager.c **** {
 552:SYS/task_manager/task_manager.c ****     if (nxt != NULL)
 553:SYS/task_manager/task_manager.c ****     {
 554:SYS/task_manager/task_manager.c ****         NxtRunTsk_Ptr = nxt;
 555:SYS/task_manager/task_manager.c ****         NxtTsk_TCB.Top_Stk_Ptr = &NxtRunTsk_Ptr->TCB.Top_Stk_Ptr;
 556:SYS/task_manager/task_manager.c ****         NxtTsk_TCB.Stack = NxtRunTsk_Ptr->TCB.Stack;
 557:SYS/task_manager/task_manager.c ****     }
ARM GAS  C:\Users\why\AppData\Local\Temp\ccNE1a8I.s 			page 16


 558:SYS/task_manager/task_manager.c **** }
 559:SYS/task_manager/task_manager.c **** 
 560:SYS/task_manager/task_manager.c **** //first need to know is linux support AT&T formate ASM code
 561:SYS/task_manager/task_manager.c **** static __attribute__((naked)) void Task_SetPendSVPro(void)
 562:SYS/task_manager/task_manager.c **** {
 312              		.loc 1 562 0
 313              		.cfi_startproc
 314              		@ Naked Function: prologue and epilogue provided by programmer.
 315              		@ args = 0, pretend = 0, frame = 0
 316              		@ frame_needed = 0, uses_anonymous_args = 0
 563:SYS/task_manager/task_manager.c ****     //set pendsv interrupt
 564:SYS/task_manager/task_manager.c ****     __ASM(".equ NVIC_SYSPRI14, 0xE000ED22");
 317              		.loc 1 564 0
 318              		.syntax unified
 319              	@ 564 "SYS/task_manager/task_manager.c" 1
 320              		.equ NVIC_SYSPRI14, 0xE000ED22
 321              	@ 0 "" 2
 565:SYS/task_manager/task_manager.c ****     __ASM(".equ NVIC_PENDSV_PRI, 0xFF");
 322              		.loc 1 565 0
 323              	@ 565 "SYS/task_manager/task_manager.c" 1
 324              		.equ NVIC_PENDSV_PRI, 0xFF
 325              	@ 0 "" 2
 566:SYS/task_manager/task_manager.c **** 
 567:SYS/task_manager/task_manager.c ****     __ASM("LDR      R0, =NVIC_SYSPRI14");
 326              		.loc 1 567 0
 327              	@ 567 "SYS/task_manager/task_manager.c" 1
 328 0000 0548     		LDR      R0, =NVIC_SYSPRI14
 329              	@ 0 "" 2
 568:SYS/task_manager/task_manager.c ****     __ASM("LDR      R1, =NVIC_PENDSV_PRI");
 330              		.loc 1 568 0
 331              	@ 568 "SYS/task_manager/task_manager.c" 1
 332 0002 FF21     		LDR      R1, =NVIC_PENDSV_PRI
 333              	@ 0 "" 2
 569:SYS/task_manager/task_manager.c ****     __ASM("STRB     R1, [R0]");
 334              		.loc 1 569 0
 335              	@ 569 "SYS/task_manager/task_manager.c" 1
 336 0004 0170     		STRB     R1, [R0]
 337              	@ 0 "" 2
 570:SYS/task_manager/task_manager.c **** 
 571:SYS/task_manager/task_manager.c **** #if (TASK_SCHEDULER_TYPE == PREEMPTIVE_SCHDULER)
 572:SYS/task_manager/task_manager.c ****     //set PSP to 0 to initial context switch call
 573:SYS/task_manager/task_manager.c ****     __ASM("MOVS     R0, #0");
 338              		.loc 1 573 0
 339              	@ 573 "SYS/task_manager/task_manager.c" 1
 340 0006 0020     		MOVS     R0, #0
 341              	@ 0 "" 2
 574:SYS/task_manager/task_manager.c ****     __ASM("MSR      PSP, R0");
 342              		.loc 1 574 0
 343              	@ 574 "SYS/task_manager/task_manager.c" 1
 344 0008 80F30988 		MSR      PSP, R0
 345              	@ 0 "" 2
 575:SYS/task_manager/task_manager.c **** 
 576:SYS/task_manager/task_manager.c ****     //initial MSP to Task_OS_ExpStkBase
 577:SYS/task_manager/task_manager.c ****     __ASM("LDR      R0, =Task_OS_ExpStkBase");
 346              		.loc 1 577 0
 347              	@ 577 "SYS/task_manager/task_manager.c" 1
 348 000c 0348     		LDR      R0, =Task_OS_ExpStkBase
ARM GAS  C:\Users\why\AppData\Local\Temp\ccNE1a8I.s 			page 17


 349              	@ 0 "" 2
 578:SYS/task_manager/task_manager.c ****     __ASM("LDR      R1, [R0]");
 350              		.loc 1 578 0
 351              	@ 578 "SYS/task_manager/task_manager.c" 1
 352 000e 0168     		LDR      R1, [R0]
 353              	@ 0 "" 2
 579:SYS/task_manager/task_manager.c ****     __ASM("MSR      MSP, R1");
 354              		.loc 1 579 0
 355              	@ 579 "SYS/task_manager/task_manager.c" 1
 356 0010 81F30888 		MSR      MSP, R1
 357              	@ 0 "" 2
 580:SYS/task_manager/task_manager.c **** #endif
 581:SYS/task_manager/task_manager.c **** 
 582:SYS/task_manager/task_manager.c ****     __ASM("BX       LR");
 358              		.loc 1 582 0
 359              	@ 582 "SYS/task_manager/task_manager.c" 1
 360 0014 7047     		BX       LR
 361              	@ 0 "" 2
 583:SYS/task_manager/task_manager.c **** }
 362              		.loc 1 583 0
 363              		.thumb
 364              		.syntax unified
 365              		.cfi_endproc
 366              	.LFE149:
 368 0016 0000     		.section	.text.Task_PriorityCompare,"ax",%progbits
 369              		.align	2
 370              		.global	Task_PriorityCompare
 371              		.thumb
 372              		.thumb_func
 374              	Task_PriorityCompare:
 375              	.LFB153:
 584:SYS/task_manager/task_manager.c **** 
 585:SYS/task_manager/task_manager.c **** __attribute__((naked)) void Task_TriggerPendSV(void)
 586:SYS/task_manager/task_manager.c **** {
 587:SYS/task_manager/task_manager.c ****     __ASM(".equ NVIC_INT_CTRL, 0xE000ED04");
 588:SYS/task_manager/task_manager.c ****     __ASM(".equ NVIC_PENDSVSET, 0x10000000");
 589:SYS/task_manager/task_manager.c **** 
 590:SYS/task_manager/task_manager.c ****     __ASM("LDR      R0, =NVIC_INT_CTRL");
 591:SYS/task_manager/task_manager.c ****     __ASM("LDR      R1, =NVIC_PENDSVSET");
 592:SYS/task_manager/task_manager.c ****     __ASM("STR      R1, [R0]");
 593:SYS/task_manager/task_manager.c ****     __ASM("BX       LR");
 594:SYS/task_manager/task_manager.c **** }
 595:SYS/task_manager/task_manager.c **** 
 596:SYS/task_manager/task_manager.c **** void Task_Force_TriggerPendSV(void)
 597:SYS/task_manager/task_manager.c **** {
 598:SYS/task_manager/task_manager.c ****     /* Barriers are normally not required but do ensure the code is completely \
 599:SYS/task_manager/task_manager.c ****         within the specified behaviour for the architecture. */
 600:SYS/task_manager/task_manager.c ****     __ASM volatile("dsb" ::
 601:SYS/task_manager/task_manager.c ****                        : "memory");
 602:SYS/task_manager/task_manager.c ****     __ASM volatile("isb");
 603:SYS/task_manager/task_manager.c ****     Task_TriggerPendSV();
 604:SYS/task_manager/task_manager.c **** }
 605:SYS/task_manager/task_manager.c **** 
 606:SYS/task_manager/task_manager.c **** uint8_t Task_Get_TaskNum(void)
 607:SYS/task_manager/task_manager.c **** {
 608:SYS/task_manager/task_manager.c ****     return TskCrt_RegList.num;
 609:SYS/task_manager/task_manager.c **** }
ARM GAS  C:\Users\why\AppData\Local\Temp\ccNE1a8I.s 			page 18


 610:SYS/task_manager/task_manager.c **** 
 611:SYS/task_manager/task_manager.c **** //return high priority task pointer
 612:SYS/task_manager/task_manager.c **** Task *Task_PriorityCompare(const Task *tsk_l, const Task *tsk_r)
 613:SYS/task_manager/task_manager.c **** {
 376              		.loc 1 613 0
 377              		.cfi_startproc
 378              		@ args = 0, pretend = 0, frame = 0
 379              		@ frame_needed = 0, uses_anonymous_args = 0
 380              		@ link register save eliminated.
 381              	.LVL27:
 382 0000 30B4     		push	{r4, r5}
 383              	.LCFI8:
 384              		.cfi_def_cfa_offset 8
 385              		.cfi_offset 4, -8
 386              		.cfi_offset 5, -4
 614:SYS/task_manager/task_manager.c ****     if ((tsk_l == NULL) && (tsk_r == NULL))
 387              		.loc 1 614 0
 388 0002 0346     		mov	r3, r0
 389 0004 00B9     		cbnz	r0, .L25
 390              		.loc 1 614 0 is_stmt 0 discriminator 1
 391 0006 89B1     		cbz	r1, .L30
 392              	.L25:
 615:SYS/task_manager/task_manager.c ****     {
 616:SYS/task_manager/task_manager.c ****         return NULL;
 617:SYS/task_manager/task_manager.c ****     }
 618:SYS/task_manager/task_manager.c **** 
 619:SYS/task_manager/task_manager.c ****     if ((tsk_l == NULL) && (tsk_r != NULL))
 393              		.loc 1 619 0 is_stmt 1
 394 0008 03B9     		cbnz	r3, .L27
 395              		.loc 1 619 0 is_stmt 0 discriminator 1
 396 000a 89B9     		cbnz	r1, .L31
 397              	.L27:
 620:SYS/task_manager/task_manager.c ****     {
 621:SYS/task_manager/task_manager.c ****         return tsk_r;
 622:SYS/task_manager/task_manager.c ****     }
 623:SYS/task_manager/task_manager.c **** 
 624:SYS/task_manager/task_manager.c ****     if ((tsk_l != NULL) && (tsk_r == NULL))
 398              		.loc 1 624 0 is_stmt 1
 399 000c 03B1     		cbz	r3, .L28
 400              		.loc 1 624 0 is_stmt 0 discriminator 1
 401 000e 89B1     		cbz	r1, .L32
 402              	.L28:
 625:SYS/task_manager/task_manager.c ****     {
 626:SYS/task_manager/task_manager.c ****         return tsk_l;
 627:SYS/task_manager/task_manager.c ****     }
 628:SYS/task_manager/task_manager.c **** 
 629:SYS/task_manager/task_manager.c ****     uint8_t L_Grp_level = GET_TASKGROUP_PRIORITY(tsk_l->priority.Suction.Group_Level);
 403              		.loc 1 629 0 is_stmt 1
 404 0010 1878     		ldrb	r0, [r3]	@ zero_extendqisi2
 405              	.LVL28:
 406 0012 0025     		movs	r5, #0
 407              	.LVL29:
 630:SYS/task_manager/task_manager.c ****     uint8_t R_Grp_level = GET_TASKGROUP_PRIORITY(tsk_r->priority.Suction.Group_Level);
 408              		.loc 1 630 0
 409 0014 0A78     		ldrb	r2, [r1]	@ zero_extendqisi2
 410              	.LVL30:
 631:SYS/task_manager/task_manager.c ****     uint8_t L_TskPri_level = GET_TASKINGROUP_PRIORITY(tsk_l->priority.Suction.Task_Level);
ARM GAS  C:\Users\why\AppData\Local\Temp\ccNE1a8I.s 			page 19


 411              		.loc 1 631 0
 412 0016 00F00700 		and	r0, r0, #7
 413              	.LVL31:
 632:SYS/task_manager/task_manager.c ****     uint8_t R_TskPri_level = GET_TASKINGROUP_PRIORITY(tsk_r->priority.Suction.Task_Level);
 414              		.loc 1 632 0
 415 001a 02F00702 		and	r2, r2, #7
 416              	.LVL32:
 633:SYS/task_manager/task_manager.c **** 
 634:SYS/task_manager/task_manager.c ****     if (L_Grp_level < R_Grp_level)
 635:SYS/task_manager/task_manager.c ****     {
 636:SYS/task_manager/task_manager.c ****         return tsk_l;
 637:SYS/task_manager/task_manager.c ****     }
 638:SYS/task_manager/task_manager.c ****     else if (L_Grp_level > R_Grp_level)
 417              		.loc 1 638 0
 418 001e AD42     		cmp	r5, r5
 419 0020 0AD8     		bhi	.L34
 639:SYS/task_manager/task_manager.c ****     {
 640:SYS/task_manager/task_manager.c ****         return tsk_r;
 641:SYS/task_manager/task_manager.c ****     }
 642:SYS/task_manager/task_manager.c ****     else if (L_Grp_level == R_Grp_level)
 420              		.loc 1 642 0
 421 0022 02D1     		bne	.L29
 643:SYS/task_manager/task_manager.c ****     {
 644:SYS/task_manager/task_manager.c ****         if (L_TskPri_level < R_TskPri_level)
 422              		.loc 1 644 0
 423 0024 9042     		cmp	r0, r2
 424 0026 09D3     		bcc	.L35
 645:SYS/task_manager/task_manager.c ****         {
 646:SYS/task_manager/task_manager.c ****             return tsk_l;
 647:SYS/task_manager/task_manager.c ****         }
 648:SYS/task_manager/task_manager.c ****         else if (L_TskPri_level > R_TskPri_level)
 425              		.loc 1 648 0
 426 0028 0AD8     		bhi	.L36
 427              	.L29:
 649:SYS/task_manager/task_manager.c ****         {
 650:SYS/task_manager/task_manager.c ****             return tsk_r;
 651:SYS/task_manager/task_manager.c ****         }
 652:SYS/task_manager/task_manager.c ****     }
 653:SYS/task_manager/task_manager.c **** }
 428              		.loc 1 653 0
 429 002a 0AE0     		b	.L24
 430              	.LVL33:
 431              	.L30:
 616:SYS/task_manager/task_manager.c ****     }
 432              		.loc 1 616 0
 433 002c 0020     		movs	r0, #0
 434              	.LVL34:
 435 002e 08E0     		b	.L24
 436              	.LVL35:
 437              	.L31:
 621:SYS/task_manager/task_manager.c ****     }
 438              		.loc 1 621 0
 439 0030 0846     		mov	r0, r1
 440              	.LVL36:
 441 0032 06E0     		b	.L24
 442              	.LVL37:
 443              	.L32:
ARM GAS  C:\Users\why\AppData\Local\Temp\ccNE1a8I.s 			page 20


 626:SYS/task_manager/task_manager.c ****     }
 444              		.loc 1 626 0
 445 0034 1846     		mov	r0, r3
 446              	.LVL38:
 447 0036 04E0     		b	.L24
 448              	.LVL39:
 449              	.L34:
 640:SYS/task_manager/task_manager.c ****     }
 450              		.loc 1 640 0
 451 0038 0846     		mov	r0, r1
 452 003a 02E0     		b	.L24
 453              	.L35:
 646:SYS/task_manager/task_manager.c ****         }
 454              		.loc 1 646 0
 455 003c 1846     		mov	r0, r3
 456 003e 00E0     		b	.L24
 457              	.L36:
 650:SYS/task_manager/task_manager.c ****         }
 458              		.loc 1 650 0
 459 0040 0846     		mov	r0, r1
 460              	.LVL40:
 461              	.L24:
 462              		.loc 1 653 0
 463 0042 30BC     		pop	{r4, r5}
 464              	.LCFI9:
 465              		.cfi_restore 5
 466              		.cfi_restore 4
 467              		.cfi_def_cfa_offset 0
 468 0044 7047     		bx	lr
 469              		.cfi_endproc
 470              	.LFE153:
 472 0046 00BF     		.section	.text.ReSet_Task_Data,"ax",%progbits
 473              		.align	2
 474              		.thumb
 475              		.thumb_func
 477              	ReSet_Task_Data:
 478              	.LFB124:
  95:SYS/task_manager/task_manager.c ****     task->priority.Suction.Group_Level = 0;
 479              		.loc 1 95 0
 480              		.cfi_startproc
 481              		@ args = 0, pretend = 0, frame = 0
 482              		@ frame_needed = 0, uses_anonymous_args = 0
 483              	.LVL41:
 484 0000 10B5     		push	{r4, lr}
 485              	.LCFI10:
 486              		.cfi_def_cfa_offset 8
 487              		.cfi_offset 4, -8
 488              		.cfi_offset 14, -4
 489 0002 0446     		mov	r4, r0
  96:SYS/task_manager/task_manager.c ****     task->priority.Suction.Task_Level = 0;
 490              		.loc 1 96 0
 491 0004 0378     		ldrb	r3, [r0]	@ zero_extendqisi2
  97:SYS/task_manager/task_manager.c ****     task->Task_name = NULL;
 492              		.loc 1 97 0
 493 0006 03F0C703 		and	r3, r3, #199
 494 000a 6FF30203 		bfc	r3, #0, #3
 495 000e 0370     		strb	r3, [r0]
ARM GAS  C:\Users\why\AppData\Local\Temp\ccNE1a8I.s 			page 21


  98:SYS/task_manager/task_manager.c ****     task->exec_frq = 0;
 496              		.loc 1 98 0
 497 0010 0023     		movs	r3, #0
 498 0012 4360     		str	r3, [r0, #4]
  99:SYS/task_manager/task_manager.c ****     task->exec_interval_us = 0;
 499              		.loc 1 99 0
 500 0014 8360     		str	r3, [r0, #8]
 100:SYS/task_manager/task_manager.c ****     task->Exec_Func = NULL;
 501              		.loc 1 100 0
 502 0016 8381     		strh	r3, [r0, #12]	@ movhi
 101:SYS/task_manager/task_manager.c **** 
 503              		.loc 1 101 0
 504 0018 0361     		str	r3, [r0, #16]
 103:SYS/task_manager/task_manager.c ****     task->Exec_status.detect_exec_time_arv = 0;
 505              		.loc 1 103 0
 506 001a C362     		str	r3, [r0, #44]
 104:SYS/task_manager/task_manager.c ****     task->Exec_status.detect_exec_time_max = 0;
 507              		.loc 1 104 0
 508 001c 0363     		str	r3, [r0, #48]
 105:SYS/task_manager/task_manager.c ****     task->Exec_status.Exec_Times = 0;
 509              		.loc 1 105 0
 510 001e 4363     		str	r3, [r0, #52]
 106:SYS/task_manager/task_manager.c ****     task->Exec_status.cpu_opy = 0;
 511              		.loc 1 106 0
 512 0020 8363     		str	r3, [r0, #56]
 107:SYS/task_manager/task_manager.c ****     task->Exec_status.totlal_running_time = 0;
 513              		.loc 1 107 0
 514 0022 0022     		movs	r2, #0
 515 0024 4264     		str	r2, [r0, #68]	@ float
 108:SYS/task_manager/task_manager.c **** 
 516              		.loc 1 108 0
 517 0026 0364     		str	r3, [r0, #64]
 110:SYS/task_manager/task_manager.c ****     task->delay_info.tsk_hdl = 0;
 518              		.loc 1 110 0
 519 0028 80F86430 		strb	r3, [r0, #100]
 111:SYS/task_manager/task_manager.c ****     task->delay_info.time_unit = 0;
 520              		.loc 1 111 0
 521 002c 8366     		str	r3, [r0, #104]
 112:SYS/task_manager/task_manager.c **** 
 522              		.loc 1 112 0
 523 002e C366     		str	r3, [r0, #108]
 114:SYS/task_manager/task_manager.c **** 
 524              		.loc 1 114 0
 525 0030 00F16401 		add	r1, r0, #100
 526 0034 7C30     		adds	r0, r0, #124
 527              	.LVL42:
 528 0036 FFF7FEFF 		bl	List_ItemInit
 529              	.LVL43:
 116:SYS/task_manager/task_manager.c ****     RuntimeObj_Reset(&(task->Exec_status.Init_Time));
 530              		.loc 1 116 0
 531 003a 04F12400 		add	r0, r4, #36
 532 003e FFF7FEFF 		bl	RuntimeObj_Reset
 533              	.LVL44:
 117:SYS/task_manager/task_manager.c ****     RuntimeObj_Reset(&(task->Exec_status.Start_Time));
 534              		.loc 1 117 0
 535 0042 04F11400 		add	r0, r4, #20
 536 0046 FFF7FEFF 		bl	RuntimeObj_Reset
ARM GAS  C:\Users\why\AppData\Local\Temp\ccNE1a8I.s 			page 22


 537              	.LVL45:
 118:SYS/task_manager/task_manager.c **** 
 538              		.loc 1 118 0
 539 004a 04F11C00 		add	r0, r4, #28
 540 004e FFF7FEFF 		bl	RuntimeObj_Reset
 541              	.LVL46:
 120:SYS/task_manager/task_manager.c **** }
 542              		.loc 1 120 0
 543 0052 0523     		movs	r3, #5
 544 0054 84F84830 		strb	r3, [r4, #72]
 545 0058 10BD     		pop	{r4, pc}
 546              		.cfi_endproc
 547              	.LFE124:
 549 005a 00BF     		.section	.text.TaskSys_Init,"ax",%progbits
 550              		.align	2
 551              		.thumb
 552              		.thumb_func
 554              	TaskSys_Init:
 555              	.LFB126:
 137:SYS/task_manager/task_manager.c **** #if (TASK_SCHEDULER_TYPE == PREEMPTIVE_SCHDULER)
 556              		.loc 1 137 0
 557              		.cfi_startproc
 558              		@ args = 0, pretend = 0, frame = 0
 559              		@ frame_needed = 0, uses_anonymous_args = 0
 560 0000 F8B5     		push	{r3, r4, r5, r6, r7, lr}
 561              	.LCFI11:
 562              		.cfi_def_cfa_offset 24
 563              		.cfi_offset 3, -24
 564              		.cfi_offset 4, -20
 565              		.cfi_offset 5, -16
 566              		.cfi_offset 6, -12
 567              		.cfi_offset 7, -8
 568              		.cfi_offset 14, -4
 140:SYS/task_manager/task_manager.c **** 
 569              		.loc 1 140 0
 570 0002 1C4C     		ldr	r4, .L46
 571 0004 4FF42052 		mov	r2, #10240
 572 0008 0021     		movs	r1, #0
 573 000a 2046     		mov	r0, r4
 574 000c FFF7FEFF 		bl	memset
 575              	.LVL47:
 142:SYS/task_manager/task_manager.c **** #endif
 576              		.loc 1 142 0
 577 0010 04F51F43 		add	r3, r4, #40704
 578 0014 FC33     		adds	r3, r3, #252
 579 0016 184A     		ldr	r2, .L46+4
 580 0018 1360     		str	r3, [r2]
 581              	.LVL48:
 582              	.LBB2:
 150:SYS/task_manager/task_manager.c ****     {
 583              		.loc 1 150 0
 584 001a 0027     		movs	r7, #0
 585 001c 1AE0     		b	.L41
 586              	.LVL49:
 587              	.L42:
 588              	.LBB3:
 154:SYS/task_manager/task_manager.c **** 
ARM GAS  C:\Users\why\AppData\Local\Temp\ccNE1a8I.s 			page 23


 589              		.loc 1 154 0 discriminator 3
 590 001e 174D     		ldr	r5, .L46+8
 591 0020 04EBC706 		add	r6, r4, r7, lsl #3
 592 0024 55F82600 		ldr	r0, [r5, r6, lsl #2]
 593 0028 FFF7FEFF 		bl	ReSet_Task_Data
 594              	.LVL50:
 157:SYS/task_manager/task_manager.c ****             Task_Ptr[group_index][task_priority]->TCB.Stack = NULL;
 595              		.loc 1 157 0 discriminator 3
 596 002c 55F82620 		ldr	r2, [r5, r6, lsl #2]
 597 0030 0023     		movs	r3, #0
 598 0032 D364     		str	r3, [r2, #76]
 158:SYS/task_manager/task_manager.c ****             Task_Ptr[group_index][task_priority]->TCB.Top_Stk_Ptr = NULL;
 599              		.loc 1 158 0 discriminator 3
 600 0034 55F82620 		ldr	r2, [r5, r6, lsl #2]
 601 0038 5365     		str	r3, [r2, #84]
 159:SYS/task_manager/task_manager.c **** #endif
 602              		.loc 1 159 0 discriminator 3
 603 003a 55F82620 		ldr	r2, [r5, r6, lsl #2]
 604 003e 1365     		str	r3, [r2, #80]
 161:SYS/task_manager/task_manager.c **** 
 605              		.loc 1 161 0 discriminator 3
 606 0040 45F82630 		str	r3, [r5, r6, lsl #2]
 152:SYS/task_manager/task_manager.c ****         {
 607              		.loc 1 152 0 discriminator 3
 608 0044 0134     		adds	r4, r4, #1
 609              	.LVL51:
 610 0046 E4B2     		uxtb	r4, r4
 611              	.LVL52:
 612 0048 00E0     		b	.L43
 613              	.LVL53:
 614              	.L44:
 615              	.LBE3:
 616 004a 0024     		movs	r4, #0
 617              	.L43:
 618              	.LVL54:
 619              	.LBB4:
 152:SYS/task_manager/task_manager.c ****         {
 620              		.loc 1 152 0 is_stmt 0 discriminator 1
 621 004c 072C     		cmp	r4, #7
 622 004e E6D9     		bls	.L42
 623              	.LBE4:
 150:SYS/task_manager/task_manager.c ****     {
 624              		.loc 1 150 0 is_stmt 1 discriminator 2
 625 0050 0137     		adds	r7, r7, #1
 626              	.LVL55:
 627 0052 FFB2     		uxtb	r7, r7
 628              	.LVL56:
 629              	.L41:
 150:SYS/task_manager/task_manager.c ****     {
 630              		.loc 1 150 0 is_stmt 0 discriminator 1
 631 0054 072F     		cmp	r7, #7
 632 0056 F8D9     		bls	.L44
 633              	.LBE2:
 167:SYS/task_manager/task_manager.c ****     TskCrt_RegList.list.data = NULL;
 634              		.loc 1 167 0 is_stmt 1
 635 0058 094B     		ldr	r3, .L46+12
 636 005a 0022     		movs	r2, #0
ARM GAS  C:\Users\why\AppData\Local\Temp\ccNE1a8I.s 			page 24


 637 005c 1A70     		strb	r2, [r3]
 168:SYS/task_manager/task_manager.c ****     TskCrt_RegList.list.nxt = NULL;
 638              		.loc 1 168 0
 639 005e 5A61     		str	r2, [r3, #20]
 169:SYS/task_manager/task_manager.c ****     TskCrt_RegList.list.prv = NULL;
 640              		.loc 1 169 0
 641 0060 1A61     		str	r2, [r3, #16]
 170:SYS/task_manager/task_manager.c **** 
 642              		.loc 1 170 0
 643 0062 DA60     		str	r2, [r3, #12]
 172:SYS/task_manager/task_manager.c ****     TskSys_state = TaskSys_Prepare;
 644              		.loc 1 172 0
 645 0064 074B     		ldr	r3, .L46+16
 646 0066 1868     		ldr	r0, [r3]
 647 0068 FFF7FEFF 		bl	ReSet_Task_Data
 648              	.LVL57:
 173:SYS/task_manager/task_manager.c **** }
 649              		.loc 1 173 0
 650 006c 0122     		movs	r2, #1
 651 006e 064B     		ldr	r3, .L46+20
 652 0070 1A70     		strb	r2, [r3]
 174:SYS/task_manager/task_manager.c **** 
 653              		.loc 1 174 0
 654 0072 F8BD     		pop	{r3, r4, r5, r6, r7, pc}
 655              	.LVL58:
 656              	.L47:
 657              		.align	2
 658              	.L46:
 659 0074 00000000 		.word	.LANCHOR3
 660 0078 00000000 		.word	Task_OS_ExpStkBase
 661 007c 00000000 		.word	Task_Ptr
 662 0080 00000000 		.word	.LANCHOR4
 663 0084 00000000 		.word	.LANCHOR5
 664 0088 00000000 		.word	.LANCHOR6
 665              		.cfi_endproc
 666              	.LFE126:
 668              		.section	.text.Task_SetStkPtr_Val,"ax",%progbits
 669              		.align	2
 670              		.thumb
 671              		.thumb_func
 673              	Task_SetStkPtr_Val:
 674              	.LFB142:
 440:SYS/task_manager/task_manager.c ****     uint32_t *Tsk_Ptr_tmp = NULL;
 675              		.loc 1 440 0
 676              		.cfi_startproc
 677              		@ args = 0, pretend = 0, frame = 0
 678              		@ frame_needed = 0, uses_anonymous_args = 0
 679              	.LVL59:
 680 0000 10B5     		push	{r4, lr}
 681              	.LCFI12:
 682              		.cfi_def_cfa_offset 8
 683              		.cfi_offset 4, -8
 684              		.cfi_offset 14, -4
 685 0002 0446     		mov	r4, r0
 686              	.LVL60:
 443:SYS/task_manager/task_manager.c **** 
 687              		.loc 1 443 0
ARM GAS  C:\Users\why\AppData\Local\Temp\ccNE1a8I.s 			page 25


 688 0004 C26C     		ldr	r2, [r0, #76]
 689 0006 0021     		movs	r1, #0
 690 0008 406D     		ldr	r0, [r0, #84]
 691              	.LVL61:
 692 000a FFF7FEFF 		bl	memset
 693              	.LVL62:
 445:SYS/task_manager/task_manager.c ****     Tsk_Ptr_tmp = (uint32_t *)((uint32_t)(Tsk_Ptr_tmp)&0XFFFFFFF8ul);
 694              		.loc 1 445 0
 695 000e 04F15402 		add	r2, r4, #84
 696 0012 E36C     		ldr	r3, [r4, #76]
 697 0014 03F18043 		add	r3, r3, #1073741824
 698 0018 013B     		subs	r3, r3, #1
 699 001a 02EB8303 		add	r3, r2, r3, lsl #2
 700              	.LVL63:
 446:SYS/task_manager/task_manager.c **** 
 701              		.loc 1 446 0
 702 001e 23F00703 		bic	r3, r3, #7
 703              	.LVL64:
 449:SYS/task_manager/task_manager.c **** 
 704              		.loc 1 449 0
 705 0022 4FF08072 		mov	r2, #16777216
 706 0026 43F8042C 		str	r2, [r3, #-4]
 707              	.LVL65:
 452:SYS/task_manager/task_manager.c **** 
 708              		.loc 1 452 0
 709 002a 094A     		ldr	r2, .L50
 710 002c 22F00102 		bic	r2, r2, #1
 711 0030 43F8082C 		str	r2, [r3, #-8]
 712              	.LVL66:
 455:SYS/task_manager/task_manager.c **** 
 713              		.loc 1 455 0
 714 0034 074A     		ldr	r2, .L50+4
 715 0036 43F80C2C 		str	r2, [r3, #-12]
 716              	.LVL67:
 459:SYS/task_manager/task_manager.c **** 
 717              		.loc 1 459 0
 718 003a 0022     		movs	r2, #0
 719 003c 43F8202C 		str	r2, [r3, #-32]
 720              	.LVL68:
 464:SYS/task_manager/task_manager.c **** 
 721              		.loc 1 464 0
 722 0040 6FF00202 		mvn	r2, #2
 723 0044 43F8242C 		str	r2, [r3, #-36]
 466:SYS/task_manager/task_manager.c **** 
 724              		.loc 1 466 0
 725 0048 443B     		subs	r3, r3, #68
 726              	.LVL69:
 469:SYS/task_manager/task_manager.c **** }
 727              		.loc 1 469 0
 728 004a 2365     		str	r3, [r4, #80]
 729 004c 10BD     		pop	{r4, pc}
 730              	.LVL70:
 731              	.L51:
 732 004e 00BF     		.align	2
 733              	.L50:
 734 0050 00000000 		.word	Task_Caller
 735 0054 00000000 		.word	Task_Exit
ARM GAS  C:\Users\why\AppData\Local\Temp\ccNE1a8I.s 			page 26


 736              		.cfi_endproc
 737              	.LFE142:
 739              		.global	__aeabi_ul2f
 740              		.section	.text.Task_Idle,"ax",%progbits
 741              		.align	2
 742              		.thumb
 743              		.thumb_func
 745              	Task_Idle:
 746              	.LFB128:
 185:SYS/task_manager/task_manager.c ****     SYSTEM_RunTime cur_time;
 747              		.loc 1 185 0
 748              		.cfi_startproc
 749              		@ args = 0, pretend = 0, frame = 16
 750              		@ frame_needed = 0, uses_anonymous_args = 0
 751 0000 10B5     		push	{r4, lr}
 752              	.LCFI13:
 753              		.cfi_def_cfa_offset 8
 754              		.cfi_offset 4, -8
 755              		.cfi_offset 14, -4
 756 0002 84B0     		sub	sp, sp, #16
 757              	.LCFI14:
 758              		.cfi_def_cfa_offset 24
 189:SYS/task_manager/task_manager.c ****     RuntimeObj_Reset(&cur_time);
 759              		.loc 1 189 0
 760 0004 6846     		mov	r0, sp
 761 0006 FFF7FEFF 		bl	RuntimeObj_Reset
 762              	.LVL71:
 190:SYS/task_manager/task_manager.c **** 
 763              		.loc 1 190 0
 764 000a 02A8     		add	r0, sp, #8
 765 000c FFF7FEFF 		bl	RuntimeObj_Reset
 766              	.LVL72:
 192:SYS/task_manager/task_manager.c ****     time_diff = Get_TimeDifference_Between(TaskSys_StartTime, cur_time);
 767              		.loc 1 192 0
 768 0010 FFF7FEFF 		bl	Get_CurrentRunningUs
 769              	.LVL73:
 770 0014 0246     		mov	r2, r0
 771 0016 0B46     		mov	r3, r1
 772 0018 CDE90223 		strd	r2, [sp, #8]
 193:SYS/task_manager/task_manager.c **** 
 773              		.loc 1 193 0
 774 001c 0B49     		ldr	r1, .L54
 775 001e D1E90001 		ldrd	r0, [r1]
 776 0022 FFF7FEFF 		bl	Get_TimeDifference_Between
 777              	.LVL74:
 195:SYS/task_manager/task_manager.c ****     TaskSys_Idle_Ocupy = (TaskSys_Idle_US / (float)time_diff);
 778              		.loc 1 195 0
 779 0026 0A4B     		ldr	r3, .L54+4
 780 0028 1C68     		ldr	r4, [r3]
 781 002a 0134     		adds	r4, r4, #1
 782 002c 1C60     		str	r4, [r3]
 196:SYS/task_manager/task_manager.c **** }
 783              		.loc 1 196 0
 784 002e FFF7FEFF 		bl	__aeabi_ul2f
 785              	.LVL75:
 786 0032 07EE904A 		vmov	s15, r4	@ int
 787 0036 F8EE677A 		vcvt.f32.u32	s15, s15
ARM GAS  C:\Users\why\AppData\Local\Temp\ccNE1a8I.s 			page 27


 788 003a 06EE900A 		vmov	s13, r0
 789 003e 87EEA67A 		vdiv.f32	s14, s15, s13
 790 0042 044B     		ldr	r3, .L54+8
 791 0044 83ED007A 		vstr.32	s14, [r3]
 197:SYS/task_manager/task_manager.c **** 
 792              		.loc 1 197 0
 793 0048 04B0     		add	sp, sp, #16
 794              	.LCFI15:
 795              		.cfi_def_cfa_offset 8
 796              		@ sp needed
 797 004a 10BD     		pop	{r4, pc}
 798              	.L55:
 799              		.align	2
 800              	.L54:
 801 004c 00000000 		.word	.LANCHOR7
 802 0050 00000000 		.word	.LANCHOR8
 803 0054 00000000 		.word	.LANCHOR9
 804              		.cfi_endproc
 805              	.LFE128:
 807              		.section	.text.Task_Exec,"ax",%progbits
 808              		.align	2
 809              		.thumb
 810              		.thumb_func
 812              	Task_Exec:
 813              	.LFB163:
 654:SYS/task_manager/task_manager.c **** 
 655:SYS/task_manager/task_manager.c **** Task_Handler Task_Create(const char *name, uint32_t frq, Priority_Group group, TASK_Priority priori
 656:SYS/task_manager/task_manager.c **** {
 657:SYS/task_manager/task_manager.c ****     Task_Handler handle;
 658:SYS/task_manager/task_manager.c ****     uint16_t task_name_len = strlen(name);
 659:SYS/task_manager/task_manager.c ****     uint32_t *Tsk_Ptr_tmp = NULL;
 660:SYS/task_manager/task_manager.c ****     static bool taskOs_InitState = false;
 661:SYS/task_manager/task_manager.c **** 
 662:SYS/task_manager/task_manager.c ****     if (!taskOs_InitState)
 663:SYS/task_manager/task_manager.c ****     {
 664:SYS/task_manager/task_manager.c ****         TaskSys_Init();
 665:SYS/task_manager/task_manager.c ****         taskOs_InitState = true;
 666:SYS/task_manager/task_manager.c ****     }
 667:SYS/task_manager/task_manager.c **** 
 668:SYS/task_manager/task_manager.c ****     //already have task in current group and priority in task pointer matrix
 669:SYS/task_manager/task_manager.c ****     if (Task_Ptr[group][priority] != NULL)
 670:SYS/task_manager/task_manager.c ****     {
 671:SYS/task_manager/task_manager.c ****         return TASK_REGISTED;
 672:SYS/task_manager/task_manager.c ****     }
 673:SYS/task_manager/task_manager.c **** 
 674:SYS/task_manager/task_manager.c ****     //request a memory space for Task_Ptr contain
 675:SYS/task_manager/task_manager.c ****     Task_Ptr[group][priority] = (Task *)malloc(sizeof(Task));
 676:SYS/task_manager/task_manager.c **** 
 677:SYS/task_manager/task_manager.c ****     //record Task_Ptr poiner`s address
 678:SYS/task_manager/task_manager.c ****     handle = *&Task_Ptr[group][priority];
 679:SYS/task_manager/task_manager.c **** 
 680:SYS/task_manager/task_manager.c ****     Task_Ptr[group][priority]->Task_name = name;
 681:SYS/task_manager/task_manager.c **** 
 682:SYS/task_manager/task_manager.c ****     Task_Ptr[group][priority]->exec_frq = frq;
 683:SYS/task_manager/task_manager.c ****     Task_Ptr[group][priority]->exec_interval_us = RUNTIEM_MAX_TICK_FRQ / frq;
 684:SYS/task_manager/task_manager.c ****     Task_Ptr[group][priority]->Exec_Func = func;
 685:SYS/task_manager/task_manager.c **** 
ARM GAS  C:\Users\why\AppData\Local\Temp\ccNE1a8I.s 			page 28


 686:SYS/task_manager/task_manager.c ****     Task_Ptr[group][priority]->priority.Priority = (group << 3) | priority;
 687:SYS/task_manager/task_manager.c **** 
 688:SYS/task_manager/task_manager.c **** #if (TASK_SCHEDULER_TYPE == PREEMPTIVE_SCHDULER)
 689:SYS/task_manager/task_manager.c ****     //init delay tag
 690:SYS/task_manager/task_manager.c ****     Task_Ptr[group][priority]->delay_info.on_delay = false;
 691:SYS/task_manager/task_manager.c ****     Task_Ptr[group][priority]->delay_info.tsk_hdl = handle;
 692:SYS/task_manager/task_manager.c ****     Task_Ptr[group][priority]->delay_info.time_unit = 0;
 693:SYS/task_manager/task_manager.c **** 
 694:SYS/task_manager/task_manager.c ****     //request memory space for task stack
 695:SYS/task_manager/task_manager.c ****     Task_Ptr[group][priority]->Stack_Depth = StackDepth;
 696:SYS/task_manager/task_manager.c ****     Task_Ptr[group][priority]->TCB.Stack = (uint32_t *)malloc(StackDepth * sizeof(uint32_t));
 697:SYS/task_manager/task_manager.c **** 
 698:SYS/task_manager/task_manager.c ****     if (Task_Ptr[group][priority]->TCB.Stack != NULL)
 699:SYS/task_manager/task_manager.c ****     {
 700:SYS/task_manager/task_manager.c ****         Task_SetStkPtr_Val(Task_Ptr[group][priority]);
 701:SYS/task_manager/task_manager.c ****     }
 702:SYS/task_manager/task_manager.c ****     else
 703:SYS/task_manager/task_manager.c ****     {
 704:SYS/task_manager/task_manager.c ****         return TASK_BAD_MEMSPC_REQ;
 705:SYS/task_manager/task_manager.c ****     }
 706:SYS/task_manager/task_manager.c **** #endif
 707:SYS/task_manager/task_manager.c ****     //reset task running statistics reg
 708:SYS/task_manager/task_manager.c ****     Task_Ptr[group][priority]->statistics_reg.Reg.Caller_Statistics_REG = stop_statistics;
 709:SYS/task_manager/task_manager.c ****     Task_Ptr[group][priority]->statistics_reg.Reg.TskFun_Statistics_REG = stop_statistics;
 710:SYS/task_manager/task_manager.c **** 
 711:SYS/task_manager/task_manager.c ****     //reset single loop running us
 712:SYS/task_manager/task_manager.c ****     Task_Ptr[group][priority]->TskFuncUing_US = 0;
 713:SYS/task_manager/task_manager.c ****     Task_Ptr[group][priority]->CallerUsing_US = 0;
 714:SYS/task_manager/task_manager.c **** 
 715:SYS/task_manager/task_manager.c ****     //reset task cpu occupy data
 716:SYS/task_manager/task_manager.c ****     Task_Ptr[group][priority]->Exec_status.cpu_opy = 0;
 717:SYS/task_manager/task_manager.c ****     Task_Ptr[group][priority]->Exec_status.totlal_running_time = 0;
 718:SYS/task_manager/task_manager.c **** 
 719:SYS/task_manager/task_manager.c ****     //set current group flag to ready
 720:SYS/task_manager/task_manager.c ****     TskHdl_RdyMap.Grp.Flg |= 1 << GET_TASKGROUP_PRIORITY(Task_Ptr[group][priority]->priority.Priori
 721:SYS/task_manager/task_manager.c ****     //set current task under this group flag to ready
 722:SYS/task_manager/task_manager.c ****     TskHdl_RdyMap.TskInGrp[GET_TASKGROUP_PRIORITY(Task_Ptr[group][priority]->priority.Priority)].Fl
 723:SYS/task_manager/task_manager.c **** 
 724:SYS/task_manager/task_manager.c ****     Task_Ptr[group][priority]->Exec_status.detect_exec_frq = 0;
 725:SYS/task_manager/task_manager.c ****     Task_Ptr[group][priority]->Exec_status.detect_exec_time_arv = 0;
 726:SYS/task_manager/task_manager.c ****     Task_Ptr[group][priority]->Exec_status.detect_exec_time_max = 0;
 727:SYS/task_manager/task_manager.c **** 
 728:SYS/task_manager/task_manager.c ****     RuntimeObj_Reset(&(Task_Ptr[group][priority]->Exec_status.Exec_Time));
 729:SYS/task_manager/task_manager.c ****     RuntimeObj_Reset(&(Task_Ptr[group][priority]->Exec_status.Init_Time));
 730:SYS/task_manager/task_manager.c ****     RuntimeObj_Reset(&(Task_Ptr[group][priority]->Exec_status.Start_Time));
 731:SYS/task_manager/task_manager.c **** 
 732:SYS/task_manager/task_manager.c ****     Task_Ptr[group][priority]->Exec_status.Init_Time = Get_CurrentRunningUs();
 733:SYS/task_manager/task_manager.c **** 
 734:SYS/task_manager/task_manager.c ****     Task_Ptr[group][priority]->Exec_status.Exec_Times = 0;
 735:SYS/task_manager/task_manager.c ****     Task_Ptr[group][priority]->Exec_status.error_code = NOERROR;
 736:SYS/task_manager/task_manager.c **** 
 737:SYS/task_manager/task_manager.c ****     Task_SetReady(Task_Ptr[group][priority]);
 738:SYS/task_manager/task_manager.c **** 
 739:SYS/task_manager/task_manager.c **** #if DEBUG
 740:SYS/task_manager/task_manager.c ****     Debug_Output("create %s done\r\n\r\n", name);
 741:SYS/task_manager/task_manager.c **** #endif
 742:SYS/task_manager/task_manager.c **** 
ARM GAS  C:\Users\why\AppData\Local\Temp\ccNE1a8I.s 			page 29


 743:SYS/task_manager/task_manager.c ****     Task_Ptr[group][priority]->item_ptr = (item_obj *)malloc(sizeof(item_obj));
 744:SYS/task_manager/task_manager.c ****     if (Task_Ptr[group][priority]->item_ptr == NULL)
 745:SYS/task_manager/task_manager.c ****     {
 746:SYS/task_manager/task_manager.c ****         return TASK_BAD_MEMSPC_REQ;
 747:SYS/task_manager/task_manager.c ****     }
 748:SYS/task_manager/task_manager.c **** 
 749:SYS/task_manager/task_manager.c ****     List_ItemInit(Task_Ptr[group][priority]->item_ptr, Task_Ptr[group][priority]);
 750:SYS/task_manager/task_manager.c ****     if (TskCrt_RegList.num == 0)
 751:SYS/task_manager/task_manager.c ****     {
 752:SYS/task_manager/task_manager.c ****         List_Init(&TskCrt_RegList.list, Task_Ptr[group][priority]->item_ptr, by_condition, Task_Pri
 753:SYS/task_manager/task_manager.c ****     }
 754:SYS/task_manager/task_manager.c ****     else
 755:SYS/task_manager/task_manager.c ****     {
 756:SYS/task_manager/task_manager.c ****         List_Insert_Item(&TskCrt_RegList.list, Task_Ptr[group][priority]->item_ptr);
 757:SYS/task_manager/task_manager.c ****     }
 758:SYS/task_manager/task_manager.c **** 
 759:SYS/task_manager/task_manager.c ****     List_ItemInit(&Task_Ptr[group][priority]->delay_item, &Task_Ptr[group][priority]->delay_info);
 760:SYS/task_manager/task_manager.c **** 
 761:SYS/task_manager/task_manager.c ****     TskCrt_RegList.num++;
 762:SYS/task_manager/task_manager.c **** 
 763:SYS/task_manager/task_manager.c ****     return handle;
 764:SYS/task_manager/task_manager.c **** }
 765:SYS/task_manager/task_manager.c **** 
 766:SYS/task_manager/task_manager.c **** static void Task_Set_CountRunnigTime_State(Task *tsk_ptr, uint8_t enable_state)
 767:SYS/task_manager/task_manager.c **** {
 768:SYS/task_manager/task_manager.c ****     if (enable_state)
 769:SYS/task_manager/task_manager.c ****     {
 770:SYS/task_manager/task_manager.c ****         tsk_ptr->statistics_reg.Reg.Caller_Statistics_REG = start_statistics;
 771:SYS/task_manager/task_manager.c ****     }
 772:SYS/task_manager/task_manager.c ****     else
 773:SYS/task_manager/task_manager.c ****     {
 774:SYS/task_manager/task_manager.c ****         tsk_ptr->statistics_reg.Reg.Caller_Statistics_REG = stop_statistics;
 775:SYS/task_manager/task_manager.c ****         tsk_ptr->statistics_reg.Reg.TskFun_Statistics_REG = stop_statistics;
 776:SYS/task_manager/task_manager.c ****     }
 777:SYS/task_manager/task_manager.c **** 
 778:SYS/task_manager/task_manager.c ****     periph_Timer_Counter_SetEnable(Timer_4, enable_state);
 779:SYS/task_manager/task_manager.c **** }
 780:SYS/task_manager/task_manager.c **** 
 781:SYS/task_manager/task_manager.c **** static void Task_StartCountTargetFunc_Cast(Task *tsk_ptr)
 782:SYS/task_manager/task_manager.c **** {
 783:SYS/task_manager/task_manager.c ****     tsk_ptr->statistics_reg.Reg.TskFun_Statistics_REG = start_statistics;
 784:SYS/task_manager/task_manager.c **** }
 785:SYS/task_manager/task_manager.c **** 
 786:SYS/task_manager/task_manager.c **** static void Task_StopCountTargetFunc_Cast(Task *tsk_ptr)
 787:SYS/task_manager/task_manager.c **** {
 788:SYS/task_manager/task_manager.c ****     tsk_ptr->statistics_reg.Reg.TskFun_Statistics_REG = stop_statistics;
 789:SYS/task_manager/task_manager.c **** }
 790:SYS/task_manager/task_manager.c **** 
 791:SYS/task_manager/task_manager.c **** //Remove func untest
 792:SYS/task_manager/task_manager.c **** void Task_Remove(Task_Handler Tsk_Hdl)
 793:SYS/task_manager/task_manager.c **** {
 794:SYS/task_manager/task_manager.c ****     //convert Tsk_Hdl from uint32_t var to Task Address which we need to delete
 795:SYS/task_manager/task_manager.c ****     //free that memory space
 796:SYS/task_manager/task_manager.c ****     //erase all data in specificly memory space
 797:SYS/task_manager/task_manager.c ****     //set Task pointer to Null which we wanted to be delete
 798:SYS/task_manager/task_manager.c **** 
 799:SYS/task_manager/task_manager.c ****     uint8_t remove_group = GET_TASKGROUP_PRIORITY(((Task *)Tsk_Hdl)->priority.Priority);
ARM GAS  C:\Users\why\AppData\Local\Temp\ccNE1a8I.s 			page 30


 800:SYS/task_manager/task_manager.c ****     uint8_t remove_task = GET_TASKINGROUP_PRIORITY(((Task *)Tsk_Hdl)->priority.Priority);
 801:SYS/task_manager/task_manager.c **** 
 802:SYS/task_manager/task_manager.c ****     ReSet_Task_Data((Task *)Tsk_Hdl);
 803:SYS/task_manager/task_manager.c **** 
 804:SYS/task_manager/task_manager.c **** #if (TASK_SCHEDULER_TYPE == PREEMPTIVE_SCHDULER)
 805:SYS/task_manager/task_manager.c ****     free((uint32_t *)((Task *)Tsk_Hdl)->TCB.Stack);
 806:SYS/task_manager/task_manager.c ****     free((uint32_t *)((Task *)Tsk_Hdl)->TCB.Top_Stk_Ptr);
 807:SYS/task_manager/task_manager.c **** #endif
 808:SYS/task_manager/task_manager.c **** 
 809:SYS/task_manager/task_manager.c ****     free((Task *)Tsk_Hdl);
 810:SYS/task_manager/task_manager.c ****     Task_Ptr[remove_group][remove_task] = NULL;
 811:SYS/task_manager/task_manager.c **** }
 812:SYS/task_manager/task_manager.c **** 
 813:SYS/task_manager/task_manager.c **** void TaskSystem_Start(void)
 814:SYS/task_manager/task_manager.c **** {
 815:SYS/task_manager/task_manager.c ****     Runtime_Config(RUNTIME_TICK_FRQ_40K);
 816:SYS/task_manager/task_manager.c ****     Runtime_Set_start_Callback(NULL);
 817:SYS/task_manager/task_manager.c ****     Runtime_Set_stop_Callback(NULL);
 818:SYS/task_manager/task_manager.c ****     Runtime_Set_tick_Callback(Task_Scheduler); /* 5us cast by calling the scheduler */
 819:SYS/task_manager/task_manager.c ****     Runtime_Start();
 820:SYS/task_manager/task_manager.c **** 
 821:SYS/task_manager/task_manager.c ****     RuntimeObj_Reset(&TaskSys_StartTime);
 822:SYS/task_manager/task_manager.c **** 
 823:SYS/task_manager/task_manager.c ****     TaskSys_StartTime = Get_CurrentRunningUs();
 824:SYS/task_manager/task_manager.c **** 
 825:SYS/task_manager/task_manager.c **** #if (TASK_SCHEDULER_TYPE == PREEMPTIVE_SCHDULER)
 826:SYS/task_manager/task_manager.c ****     NxtRunTsk_Ptr = Task_Get_HighestRank_RdyTask();
 827:SYS/task_manager/task_manager.c **** 
 828:SYS/task_manager/task_manager.c ****     if (NxtRunTsk_Ptr != NULL)
 829:SYS/task_manager/task_manager.c ****     {
 830:SYS/task_manager/task_manager.c ****         NxtTsk_TCB.Top_Stk_Ptr = &NxtRunTsk_Ptr->TCB.Top_Stk_Ptr;
 831:SYS/task_manager/task_manager.c ****         NxtTsk_TCB.Stack = NxtRunTsk_Ptr->TCB.Stack;
 832:SYS/task_manager/task_manager.c **** 
 833:SYS/task_manager/task_manager.c ****         CurTsk_TCB = NxtTsk_TCB;
 834:SYS/task_manager/task_manager.c ****     }
 835:SYS/task_manager/task_manager.c **** #endif
 836:SYS/task_manager/task_manager.c **** 
 837:SYS/task_manager/task_manager.c ****     Task_SetPendSVPro();
 838:SYS/task_manager/task_manager.c ****     Task_TriggerPendSV();
 839:SYS/task_manager/task_manager.c **** 
 840:SYS/task_manager/task_manager.c ****     return true;
 841:SYS/task_manager/task_manager.c **** }
 842:SYS/task_manager/task_manager.c **** 
 843:SYS/task_manager/task_manager.c **** void Task_SetRunState(Task_Handler Tsk_Handle, TASK_STATE state)
 844:SYS/task_manager/task_manager.c **** {
 845:SYS/task_manager/task_manager.c ****     ((Task *)Tsk_Handle)->Exec_status.State = state;
 846:SYS/task_manager/task_manager.c **** }
 847:SYS/task_manager/task_manager.c **** 
 848:SYS/task_manager/task_manager.c **** void Task_CountRunningTime(void)
 849:SYS/task_manager/task_manager.c **** {
 850:SYS/task_manager/task_manager.c ****     if (CurRunTsk_Ptr != NULL)
 851:SYS/task_manager/task_manager.c ****     {
 852:SYS/task_manager/task_manager.c ****         RunTime_Tick();
 853:SYS/task_manager/task_manager.c **** 
 854:SYS/task_manager/task_manager.c ****         if (CurRunTsk_Ptr->statistics_reg.Reg.TskFun_Statistics_REG == start_statistics)
 855:SYS/task_manager/task_manager.c ****         {
 856:SYS/task_manager/task_manager.c ****             CurRunTsk_Ptr->TskFuncUing_US++;
ARM GAS  C:\Users\why\AppData\Local\Temp\ccNE1a8I.s 			page 31


 857:SYS/task_manager/task_manager.c ****         }
 858:SYS/task_manager/task_manager.c **** 
 859:SYS/task_manager/task_manager.c ****         if (CurRunTsk_Ptr->statistics_reg.Reg.TskFun_Statistics_REG == start_statistics)
 860:SYS/task_manager/task_manager.c ****         {
 861:SYS/task_manager/task_manager.c ****             CurRunTsk_Ptr->CallerUsing_US++;
 862:SYS/task_manager/task_manager.c ****         }
 863:SYS/task_manager/task_manager.c ****     }
 864:SYS/task_manager/task_manager.c **** }
 865:SYS/task_manager/task_manager.c **** 
 866:SYS/task_manager/task_manager.c **** static Task *Get_TaskInstance(uint8_t group, uint8_t priority)
 867:SYS/task_manager/task_manager.c **** {
 868:SYS/task_manager/task_manager.c ****     return Task_Ptr[group][priority];
 869:SYS/task_manager/task_manager.c **** }
 870:SYS/task_manager/task_manager.c **** 
 871:SYS/task_manager/task_manager.c **** static void Task_Exec(Task *tsk_ptr)
 872:SYS/task_manager/task_manager.c **** {
 814              		.loc 1 872 0
 815              		.cfi_startproc
 816              		@ args = 0, pretend = 0, frame = 8
 817              		@ frame_needed = 0, uses_anonymous_args = 0
 818              	.LVL76:
 819 0000 30B5     		push	{r4, r5, lr}
 820              	.LCFI16:
 821              		.cfi_def_cfa_offset 12
 822              		.cfi_offset 4, -12
 823              		.cfi_offset 5, -8
 824              		.cfi_offset 14, -4
 825 0002 83B0     		sub	sp, sp, #12
 826              	.LCFI17:
 827              		.cfi_def_cfa_offset 24
 828 0004 0446     		mov	r4, r0
 873:SYS/task_manager/task_manager.c ****     SYSTEM_RunTime time_diff;
 874:SYS/task_manager/task_manager.c ****     RuntimeObj_Reset(&time_diff);
 829              		.loc 1 874 0
 830 0006 6846     		mov	r0, sp
 831              	.LVL77:
 832 0008 FFF7FEFF 		bl	RuntimeObj_Reset
 833              	.LVL78:
 834              	.L62:
 875:SYS/task_manager/task_manager.c **** 
 876:SYS/task_manager/task_manager.c ****     while (true)
 877:SYS/task_manager/task_manager.c ****     {
 878:SYS/task_manager/task_manager.c ****         if (tsk_ptr->Exec_status.State == Task_Ready)
 835              		.loc 1 878 0
 836 000c 94F84830 		ldrb	r3, [r4, #72]	@ zero_extendqisi2
 837 0010 002B     		cmp	r3, #0
 838 0012 59D1     		bne	.L57
 879:SYS/task_manager/task_manager.c ****         {
 880:SYS/task_manager/task_manager.c ****             //Task_Set_CountRunnigTime_State(tsk_ptr, ENABLE);
 881:SYS/task_manager/task_manager.c **** 
 882:SYS/task_manager/task_manager.c ****             //set current running task
 883:SYS/task_manager/task_manager.c ****             CurRunTsk_Ptr = tsk_ptr;
 839              		.loc 1 883 0
 840 0014 2E4B     		ldr	r3, .L64
 841 0016 1C60     		str	r4, [r3]
 884:SYS/task_manager/task_manager.c **** 
 885:SYS/task_manager/task_manager.c ****             if (tsk_ptr->Exec_status.Exec_Times == 0)
ARM GAS  C:\Users\why\AppData\Local\Temp\ccNE1a8I.s 			page 32


 842              		.loc 1 885 0
 843 0018 A36B     		ldr	r3, [r4, #56]
 844 001a 2BB9     		cbnz	r3, .L58
 886:SYS/task_manager/task_manager.c ****             {
 887:SYS/task_manager/task_manager.c ****                 tsk_ptr->Exec_status.Start_Time = Get_CurrentRunningUs();
 845              		.loc 1 887 0
 846 001c FFF7FEFF 		bl	Get_CurrentRunningUs
 847              	.LVL79:
 848 0020 E061     		str	r0, [r4, #28]
 849 0022 2162     		str	r1, [r4, #32]
 888:SYS/task_manager/task_manager.c ****                 tsk_ptr->Exec_status.Exec_Time = tsk_ptr->Exec_status.Start_Time;
 850              		.loc 1 888 0
 851 0024 6062     		str	r0, [r4, #36]
 852 0026 A162     		str	r1, [r4, #40]
 853              	.L58:
 889:SYS/task_manager/task_manager.c ****             }
 890:SYS/task_manager/task_manager.c **** 
 891:SYS/task_manager/task_manager.c ****             tsk_ptr->Exec_status.State = Task_Running;
 854              		.loc 1 891 0
 855 0028 0123     		movs	r3, #1
 856 002a 84F84830 		strb	r3, [r4, #72]
 892:SYS/task_manager/task_manager.c ****             //Task_StartCountTargetFunc_Cast(tsk_ptr);
 893:SYS/task_manager/task_manager.c **** 
 894:SYS/task_manager/task_manager.c ****             //execute task funtion
 895:SYS/task_manager/task_manager.c ****             tsk_ptr->Exec_Func(*&tsk_ptr);
 857              		.loc 1 895 0
 858 002e 2369     		ldr	r3, [r4, #16]
 859 0030 2046     		mov	r0, r4
 860 0032 9847     		blx	r3
 861              	.LVL80:
 896:SYS/task_manager/task_manager.c **** 
 897:SYS/task_manager/task_manager.c ****             //get current task execut time
 898:SYS/task_manager/task_manager.c ****             //Task_StopCountTargetFunc_Cast(tsk_ptr);
 899:SYS/task_manager/task_manager.c **** 
 900:SYS/task_manager/task_manager.c ****             if (tsk_ptr->Exec_status.State == Task_Running)
 862              		.loc 1 900 0
 863 0034 94F84830 		ldrb	r3, [r4, #72]	@ zero_extendqisi2
 864 0038 012B     		cmp	r3, #1
 865 003a 33D1     		bne	.L59
 901:SYS/task_manager/task_manager.c ****             {
 902:SYS/task_manager/task_manager.c ****                 //when task function execute finish reset ready flag of current task in group
 903:SYS/task_manager/task_manager.c ****                 //code down below
 904:SYS/task_manager/task_manager.c ****                 Task_ClearReady(tsk_ptr);
 866              		.loc 1 904 0
 867 003c 2046     		mov	r0, r4
 868 003e FFF7FEFF 		bl	Task_ClearReady
 869              	.LVL81:
 905:SYS/task_manager/task_manager.c **** 
 906:SYS/task_manager/task_manager.c ****                 tsk_ptr->Exec_status.State = Task_Stop;
 870              		.loc 1 906 0
 871 0042 0223     		movs	r3, #2
 872 0044 84F84830 		strb	r3, [r4, #72]
 907:SYS/task_manager/task_manager.c **** 
 908:SYS/task_manager/task_manager.c ****                 //record task running times
 909:SYS/task_manager/task_manager.c ****                 tsk_ptr->Exec_status.Exec_Times++;
 873              		.loc 1 909 0
 874 0048 A36B     		ldr	r3, [r4, #56]
ARM GAS  C:\Users\why\AppData\Local\Temp\ccNE1a8I.s 			page 33


 875 004a 0133     		adds	r3, r3, #1
 876 004c A363     		str	r3, [r4, #56]
 910:SYS/task_manager/task_manager.c **** 
 911:SYS/task_manager/task_manager.c ****                 //get max task execut time
 912:SYS/task_manager/task_manager.c ****                 if (tsk_ptr->TskFuncUing_US > tsk_ptr->Exec_status.detect_exec_time_max)
 877              		.loc 1 912 0
 878 004e E36D     		ldr	r3, [r4, #92]
 879 0050 626B     		ldr	r2, [r4, #52]
 880 0052 9342     		cmp	r3, r2
 881 0054 00D9     		bls	.L60
 913:SYS/task_manager/task_manager.c ****                 {
 914:SYS/task_manager/task_manager.c ****                     tsk_ptr->Exec_status.detect_exec_time_max = tsk_ptr->TskFuncUing_US;
 882              		.loc 1 914 0
 883 0056 6363     		str	r3, [r4, #52]
 884              	.L60:
 915:SYS/task_manager/task_manager.c ****                 }
 916:SYS/task_manager/task_manager.c **** 
 917:SYS/task_manager/task_manager.c ****                 //get task total execute time unit in us
 918:SYS/task_manager/task_manager.c ****                 tsk_ptr->Exec_status.totlal_running_time += tsk_ptr->TskFuncUing_US;
 885              		.loc 1 918 0
 886 0058 226C     		ldr	r2, [r4, #64]
 887 005a 1344     		add	r3, r3, r2
 888 005c 2364     		str	r3, [r4, #64]
 919:SYS/task_manager/task_manager.c ****                 time_diff = Get_TimeDifference_Between(tsk_ptr->Exec_status.Start_Time, tsk_ptr->Ex
 889              		.loc 1 919 0
 890 005e 626A     		ldr	r2, [r4, #36]
 891 0060 A36A     		ldr	r3, [r4, #40]
 892 0062 E069     		ldr	r0, [r4, #28]
 893 0064 216A     		ldr	r1, [r4, #32]
 894 0066 FFF7FEFF 		bl	Get_TimeDifference_Between
 895              	.LVL82:
 896 006a CDE90001 		strd	r0, [sp]
 920:SYS/task_manager/task_manager.c **** 
 921:SYS/task_manager/task_manager.c ****                 tsk_ptr->Exec_status.cpu_opy = tsk_ptr->Exec_status.totlal_running_time / (float)ti
 897              		.loc 1 921 0
 898 006e 256C     		ldr	r5, [r4, #64]
 899 0070 FFF7FEFF 		bl	__aeabi_ul2f
 900              	.LVL83:
 901 0074 07EE905A 		vmov	s15, r5	@ int
 902 0078 F8EE677A 		vcvt.f32.u32	s15, s15
 903 007c 06EE900A 		vmov	s13, r0
 904 0080 87EEA67A 		vdiv.f32	s14, s15, s13
 905 0084 84ED117A 		vstr.32	s14, [r4, #68]
 922:SYS/task_manager/task_manager.c **** 
 923:SYS/task_manager/task_manager.c ****                 //get average task running time
 924:SYS/task_manager/task_manager.c ****                 tsk_ptr->Exec_status.detect_exec_time_arv += tsk_ptr->TskFuncUing_US;
 906              		.loc 1 924 0
 907 0088 E26D     		ldr	r2, [r4, #92]
 908 008a 236B     		ldr	r3, [r4, #48]
 909 008c 1344     		add	r3, r3, r2
 910 008e 2363     		str	r3, [r4, #48]
 925:SYS/task_manager/task_manager.c ****                 if (tsk_ptr->Exec_status.Exec_Times > 1)
 911              		.loc 1 925 0
 912 0090 A26B     		ldr	r2, [r4, #56]
 913 0092 012A     		cmp	r2, #1
 914 0094 01D9     		bls	.L61
 926:SYS/task_manager/task_manager.c ****                 {
ARM GAS  C:\Users\why\AppData\Local\Temp\ccNE1a8I.s 			page 34


 927:SYS/task_manager/task_manager.c ****                     tsk_ptr->Exec_status.detect_exec_time_arv /= 2;
 915              		.loc 1 927 0
 916 0096 5B08     		lsrs	r3, r3, #1
 917 0098 2363     		str	r3, [r4, #48]
 918              	.L61:
 928:SYS/task_manager/task_manager.c ****                 }
 929:SYS/task_manager/task_manager.c **** 
 930:SYS/task_manager/task_manager.c ****                 tsk_ptr->Exec_status.Exec_Time = Get_TargetRunTime(tsk_ptr->exec_interval_us);
 919              		.loc 1 930 0
 920 009a A089     		ldrh	r0, [r4, #12]
 921 009c FFF7FEFF 		bl	Get_TargetRunTime
 922              	.LVL84:
 923 00a0 6062     		str	r0, [r4, #36]
 924 00a2 A162     		str	r1, [r4, #40]
 925              	.L59:
 931:SYS/task_manager/task_manager.c ****             }
 932:SYS/task_manager/task_manager.c **** 
 933:SYS/task_manager/task_manager.c ****             //get task execute frequence
 934:SYS/task_manager/task_manager.c ****             if (tsk_ptr->Exec_status.Exec_Times)
 926              		.loc 1 934 0
 927 00a4 A56B     		ldr	r5, [r4, #56]
 928 00a6 7DB1     		cbz	r5, .L57
 935:SYS/task_manager/task_manager.c ****             {
 936:SYS/task_manager/task_manager.c ****                 tsk_ptr->Exec_status.detect_exec_frq = (uint32_t)(tsk_ptr->Exec_status.Exec_Times /
 929              		.loc 1 936 0
 930 00a8 606A     		ldr	r0, [r4, #36]
 931 00aa A16A     		ldr	r1, [r4, #40]
 932 00ac FFF7FEFF 		bl	__aeabi_ul2f
 933              	.LVL85:
 934 00b0 07EE905A 		vmov	s15, r5	@ int
 935 00b4 F8EE677A 		vcvt.f32.u32	s15, s15
 936 00b8 06EE900A 		vmov	s13, r0
 937 00bc 87EEA67A 		vdiv.f32	s14, s15, s13
 938 00c0 BCEEC77A 		vcvt.u32.f32	s14, s14
 939 00c4 84ED0B7A 		vstr.32	s14, [r4, #44]	@ int
 940              	.L57:
 937:SYS/task_manager/task_manager.c ****             }
 938:SYS/task_manager/task_manager.c **** 
 939:SYS/task_manager/task_manager.c ****             //stop counting caller using us time
 940:SYS/task_manager/task_manager.c ****             //Task_Set_CountRunnigTime_State(tsk_ptr, DISABLE);
 941:SYS/task_manager/task_manager.c ****         }
 942:SYS/task_manager/task_manager.c ****         //erase currnet runnint task pointer
 943:SYS/task_manager/task_manager.c ****         CurRunTsk_Ptr = NULL;
 941              		.loc 1 943 0
 942 00c8 0022     		movs	r2, #0
 943 00ca 014B     		ldr	r3, .L64
 944 00cc 1A60     		str	r2, [r3]
 944:SYS/task_manager/task_manager.c **** 
 945:SYS/task_manager/task_manager.c ****         //enable systick handler
 946:SYS/task_manager/task_manager.c ****         //Task_SetBASEPRI(0);
 947:SYS/task_manager/task_manager.c ****     }
 945              		.loc 1 947 0
 946 00ce 9DE7     		b	.L62
 947              	.L65:
 948              		.align	2
 949              	.L64:
 950 00d0 00000000 		.word	.LANCHOR5
ARM GAS  C:\Users\why\AppData\Local\Temp\ccNE1a8I.s 			page 35


 951              		.cfi_endproc
 952              	.LFE163:
 954              		.section	.text.Task_Caller,"ax",%progbits
 955              		.align	2
 956              		.global	Task_Caller
 957              		.thumb
 958              		.thumb_func
 960              	Task_Caller:
 961              	.LFB166:
 948:SYS/task_manager/task_manager.c **** }
 949:SYS/task_manager/task_manager.c **** 
 950:SYS/task_manager/task_manager.c **** uint32_t Task_Get_IdleUS(void)
 951:SYS/task_manager/task_manager.c **** {
 952:SYS/task_manager/task_manager.c ****     return TaskSys_Idle_US;
 953:SYS/task_manager/task_manager.c **** }
 954:SYS/task_manager/task_manager.c **** 
 955:SYS/task_manager/task_manager.c **** float Task_Get_IdleOcupy(void)
 956:SYS/task_manager/task_manager.c **** {
 957:SYS/task_manager/task_manager.c ****     return TaskSys_Idle_Ocupy;
 958:SYS/task_manager/task_manager.c **** }
 959:SYS/task_manager/task_manager.c **** 
 960:SYS/task_manager/task_manager.c **** void Task_Caller(void)
 961:SYS/task_manager/task_manager.c **** {
 962              		.loc 1 961 0
 963              		.cfi_startproc
 964              		@ args = 0, pretend = 0, frame = 0
 965              		@ frame_needed = 0, uses_anonymous_args = 0
 966 0000 08B5     		push	{r3, lr}
 967              	.LCFI18:
 968              		.cfi_def_cfa_offset 8
 969              		.cfi_offset 3, -8
 970              		.cfi_offset 14, -4
 962:SYS/task_manager/task_manager.c ****     //if any task in any group is under ready state
 963:SYS/task_manager/task_manager.c ****     if (NxtRunTsk_Ptr != NULL)
 971              		.loc 1 963 0
 972 0002 034B     		ldr	r3, .L69
 973 0004 1868     		ldr	r0, [r3]
 974 0006 08B1     		cbz	r0, .L66
 964:SYS/task_manager/task_manager.c ****     {
 965:SYS/task_manager/task_manager.c ****         //execute task function in function matrix
 966:SYS/task_manager/task_manager.c ****         Task_Exec(NxtRunTsk_Ptr);
 975              		.loc 1 966 0
 976 0008 FFF7FEFF 		bl	Task_Exec
 977              	.LVL86:
 978              	.L66:
 979 000c 08BD     		pop	{r3, pc}
 980              	.L70:
 981 000e 00BF     		.align	2
 982              	.L69:
 983 0010 00000000 		.word	.LANCHOR10
 984              		.cfi_endproc
 985              	.LFE166:
 987              		.section	.text.Task_CrtList_TraversePoll_callback,"ax",%progbits
 988              		.align	2
 989              		.thumb
 990              		.thumb_func
 992              	Task_CrtList_TraversePoll_callback:
ARM GAS  C:\Users\why\AppData\Local\Temp\ccNE1a8I.s 			page 36


 993              	.LFB169:
 967:SYS/task_manager/task_manager.c ****     }
 968:SYS/task_manager/task_manager.c **** }
 969:SYS/task_manager/task_manager.c **** 
 970:SYS/task_manager/task_manager.c **** void TaskSys_Set_State(TaskSys_State state)
 971:SYS/task_manager/task_manager.c **** {
 972:SYS/task_manager/task_manager.c ****     TskSys_state = state;
 973:SYS/task_manager/task_manager.c **** }
 974:SYS/task_manager/task_manager.c **** 
 975:SYS/task_manager/task_manager.c **** TaskSys_State TaskSys_Get_State(void)
 976:SYS/task_manager/task_manager.c **** {
 977:SYS/task_manager/task_manager.c ****     return TskSys_state;
 978:SYS/task_manager/task_manager.c **** }
 979:SYS/task_manager/task_manager.c **** 
 980:SYS/task_manager/task_manager.c **** static void Task_CrtList_TraversePoll_callback(item_obj *item, void *data, void *arg)
 981:SYS/task_manager/task_manager.c **** {
 994              		.loc 1 981 0
 995              		.cfi_startproc
 996              		@ args = 0, pretend = 0, frame = 0
 997              		@ frame_needed = 0, uses_anonymous_args = 0
 998              	.LVL87:
 982:SYS/task_manager/task_manager.c ****     Task *tmp = NULL;
 983:SYS/task_manager/task_manager.c **** 
 984:SYS/task_manager/task_manager.c ****     if (data != NULL)
 999              		.loc 1 984 0
 1000 0000 99B1     		cbz	r1, .L74
 1001              	.LVL88:
 985:SYS/task_manager/task_manager.c ****     {
 986:SYS/task_manager/task_manager.c ****         tmp = (Task *)data;
 987:SYS/task_manager/task_manager.c **** 
 988:SYS/task_manager/task_manager.c ****         //get current highest priority task handler AKA NxtRunTsk_Ptr
 989:SYS/task_manager/task_manager.c ****         if (TskSys_state == TaskSys_Start)
 1002              		.loc 1 989 0
 1003 0002 0A4B     		ldr	r3, .L75
 1004 0004 1B78     		ldrb	r3, [r3]	@ zero_extendqisi2
 1005 0006 DBB2     		uxtb	r3, r3
 1006 0008 022B     		cmp	r3, #2
 1007 000a 0ED1     		bne	.L74
 990:SYS/task_manager/task_manager.c ****         {
 991:SYS/task_manager/task_manager.c ****             if ((tmp->Exec_status.State == Task_Stop) && (!RuntimeObj_CompareWithCurrent(tmp->Exec_
 1008              		.loc 1 991 0
 1009 000c 91F84830 		ldrb	r3, [r1, #72]	@ zero_extendqisi2
 1010 0010 022B     		cmp	r3, #2
 1011 0012 0AD1     		bne	.L74
 981:SYS/task_manager/task_manager.c ****     Task *tmp = NULL;
 1012              		.loc 1 981 0 discriminator 1
 1013 0014 10B5     		push	{r4, lr}
 1014              	.LCFI19:
 1015              		.cfi_def_cfa_offset 8
 1016              		.cfi_offset 4, -8
 1017              		.cfi_offset 14, -4
 1018 0016 0C46     		mov	r4, r1
 1019              		.loc 1 991 0 discriminator 1
 1020 0018 486A     		ldr	r0, [r1, #36]
 1021              	.LVL89:
 1022 001a 896A     		ldr	r1, [r1, #40]
 1023              	.LVL90:
ARM GAS  C:\Users\why\AppData\Local\Temp\ccNE1a8I.s 			page 37


 1024 001c FFF7FEFF 		bl	RuntimeObj_CompareWithCurrent
 1025              	.LVL91:
 1026 0020 10B9     		cbnz	r0, .L71
 992:SYS/task_manager/task_manager.c ****             {
 993:SYS/task_manager/task_manager.c ****                 Task_SetReady(tmp);
 1027              		.loc 1 993 0
 1028 0022 2046     		mov	r0, r4
 1029 0024 FFF7FEFF 		bl	Task_SetReady
 1030              	.LVL92:
 1031              	.L71:
 1032 0028 10BD     		pop	{r4, pc}
 1033              	.LVL93:
 1034              	.L74:
 1035              	.LCFI20:
 1036              		.cfi_def_cfa_offset 0
 1037              		.cfi_restore 4
 1038              		.cfi_restore 14
 1039 002a 7047     		bx	lr
 1040              	.L76:
 1041              		.align	2
 1042              	.L75:
 1043 002c 00000000 		.word	.LANCHOR6
 1044              		.cfi_endproc
 1045              	.LFE169:
 1047              		.section	.text.Task_Resume_FromBlock,"ax",%progbits
 1048              		.align	2
 1049              		.global	Task_Resume_FromBlock
 1050              		.thumb
 1051              		.thumb_func
 1053              	Task_Resume_FromBlock:
 1054              	.LFB129:
 202:SYS/task_manager/task_manager.c ****     Task_ClearBlock(tsk);
 1055              		.loc 1 202 0
 1056              		.cfi_startproc
 1057              		@ args = 0, pretend = 0, frame = 0
 1058              		@ frame_needed = 0, uses_anonymous_args = 0
 1059              	.LVL94:
 1060 0000 10B5     		push	{r4, lr}
 1061              	.LCFI21:
 1062              		.cfi_def_cfa_offset 8
 1063              		.cfi_offset 4, -8
 1064              		.cfi_offset 14, -4
 1065 0002 0446     		mov	r4, r0
 203:SYS/task_manager/task_manager.c ****     Task_SetReady(tsk);
 1066              		.loc 1 203 0
 1067 0004 FFF7FEFF 		bl	Task_ClearBlock
 1068              	.LVL95:
 204:SYS/task_manager/task_manager.c ****     //Task_Set_CountRunnigTime_State(tsk, ENABLE);
 1069              		.loc 1 204 0
 1070 0008 2046     		mov	r0, r4
 1071 000a FFF7FEFF 		bl	Task_SetReady
 1072              	.LVL96:
 207:SYS/task_manager/task_manager.c ****     NxtTsk_TCB.Top_Stk_Ptr = &tsk->TCB.Top_Stk_Ptr;
 1073              		.loc 1 207 0
 1074 000e 0123     		movs	r3, #1
 1075 0010 84F84830 		strb	r3, [r4, #72]
 208:SYS/task_manager/task_manager.c ****     NxtTsk_TCB.Stack = tsk->TCB.Stack;
ARM GAS  C:\Users\why\AppData\Local\Temp\ccNE1a8I.s 			page 38


 1076              		.loc 1 208 0
 1077 0014 04F15002 		add	r2, r4, #80
 1078 0018 034B     		ldr	r3, .L79
 1079 001a 1A60     		str	r2, [r3]
 209:SYS/task_manager/task_manager.c ****     CurRunTsk_Ptr = tsk;
 1080              		.loc 1 209 0
 1081 001c 626D     		ldr	r2, [r4, #84]
 1082 001e 5A60     		str	r2, [r3, #4]
 210:SYS/task_manager/task_manager.c **** }
 1083              		.loc 1 210 0
 1084 0020 024B     		ldr	r3, .L79+4
 1085 0022 1C60     		str	r4, [r3]
 1086 0024 10BD     		pop	{r4, pc}
 1087              	.LVL97:
 1088              	.L80:
 1089 0026 00BF     		.align	2
 1090              	.L79:
 1091 0028 00000000 		.word	NxtTsk_TCB
 1092 002c 00000000 		.word	.LANCHOR5
 1093              		.cfi_endproc
 1094              	.LFE129:
 1096              		.section	.text.Task_SetBlock,"ax",%progbits
 1097              		.align	2
 1098              		.global	Task_SetBlock
 1099              		.thumb
 1100              		.thumb_func
 1102              	Task_SetBlock:
 1103              	.LFB130:
 214:SYS/task_manager/task_manager.c ****     uint8_t grp_id = GET_TASKGROUP_PRIORITY(tsk->priority.Priority);
 1104              		.loc 1 214 0
 1105              		.cfi_startproc
 1106              		@ args = 0, pretend = 0, frame = 0
 1107              		@ frame_needed = 0, uses_anonymous_args = 0
 1108              	.LVL98:
 1109 0000 70B5     		push	{r4, r5, r6, lr}
 1110              	.LCFI22:
 1111              		.cfi_def_cfa_offset 16
 1112              		.cfi_offset 4, -16
 1113              		.cfi_offset 5, -12
 1114              		.cfi_offset 6, -8
 1115              		.cfi_offset 14, -4
 215:SYS/task_manager/task_manager.c ****     uint8_t tsk_id = GET_TASKINGROUP_PRIORITY(tsk->priority.Priority);
 1116              		.loc 1 215 0
 1117 0002 0278     		ldrb	r2, [r0]	@ zero_extendqisi2
 1118 0004 D308     		lsrs	r3, r2, #3
 1119              	.LVL99:
 216:SYS/task_manager/task_manager.c **** 
 1120              		.loc 1 216 0
 1121 0006 02F00706 		and	r6, r2, #7
 1122              	.LVL100:
 219:SYS/task_manager/task_manager.c ****     //set current task under this group flag to block
 1123              		.loc 1 219 0
 1124 000a 1449     		ldr	r1, .L84
 1125 000c 0C78     		ldrb	r4, [r1]	@ zero_extendqisi2
 1126 000e 0122     		movs	r2, #1
 1127 0010 02FA03F5 		lsl	r5, r2, r3
 1128 0014 6DB2     		sxtb	r5, r5
ARM GAS  C:\Users\why\AppData\Local\Temp\ccNE1a8I.s 			page 39


 1129 0016 2C43     		orrs	r4, r4, r5
 1130 0018 E4B2     		uxtb	r4, r4
 1131 001a 0C70     		strb	r4, [r1]
 221:SYS/task_manager/task_manager.c **** 
 1132              		.loc 1 221 0
 1133 001c 1944     		add	r1, r1, r3
 1134 001e 4C78     		ldrb	r4, [r1, #1]	@ zero_extendqisi2
 1135 0020 B240     		lsls	r2, r2, r6
 1136 0022 52B2     		sxtb	r2, r2
 1137 0024 1443     		orrs	r4, r4, r2
 1138 0026 E4B2     		uxtb	r4, r4
 1139 0028 4C70     		strb	r4, [r1, #1]
 224:SYS/task_manager/task_manager.c ****     //if no task ready then clear group reg
 1140              		.loc 1 224 0
 1141 002a 0D49     		ldr	r1, .L84+4
 1142 002c 0B44     		add	r3, r3, r1
 1143              	.LVL101:
 1144 002e 5978     		ldrb	r1, [r3, #1]	@ zero_extendqisi2
 1145 0030 21EA0202 		bic	r2, r1, r2
 1146 0034 5A70     		strb	r2, [r3, #1]
 226:SYS/task_manager/task_manager.c ****     {
 1147              		.loc 1 226 0
 1148 0036 5B78     		ldrb	r3, [r3, #1]	@ zero_extendqisi2
 1149              	.LVL102:
 1150 0038 13F0FF0F 		tst	r3, #255
 1151 003c 04D1     		bne	.L82
 228:SYS/task_manager/task_manager.c ****     }
 1152              		.loc 1 228 0
 1153 003e 084A     		ldr	r2, .L84+4
 1154 0040 1378     		ldrb	r3, [r2]	@ zero_extendqisi2
 1155 0042 23EA0505 		bic	r5, r3, r5
 1156 0046 1570     		strb	r5, [r2]
 1157              	.L82:
 232:SYS/task_manager/task_manager.c **** 
 1158              		.loc 1 232 0
 1159 0048 0323     		movs	r3, #3
 1160 004a 80F84830 		strb	r3, [r0, #72]
 237:SYS/task_manager/task_manager.c **** 
 1161              		.loc 1 237 0
 1162 004e 0020     		movs	r0, #0
 1163              	.LVL103:
 1164 0050 044B     		ldr	r3, .L84+8
 1165 0052 1860     		str	r0, [r3]
 239:SYS/task_manager/task_manager.c **** }
 1166              		.loc 1 239 0
 1167 0054 FFF7FEFF 		bl	Task_SetBASEPRI
 1168              	.LVL104:
 1169 0058 70BD     		pop	{r4, r5, r6, pc}
 1170              	.LVL105:
 1171              	.L85:
 1172 005a 00BF     		.align	2
 1173              	.L84:
 1174 005c 00000000 		.word	.LANCHOR1
 1175 0060 00000000 		.word	.LANCHOR0
 1176 0064 00000000 		.word	.LANCHOR5
 1177              		.cfi_endproc
 1178              	.LFE130:
ARM GAS  C:\Users\why\AppData\Local\Temp\ccNE1a8I.s 			page 40


 1180              		.section	.text.Task_SetPending,"ax",%progbits
 1181              		.align	2
 1182              		.global	Task_SetPending
 1183              		.thumb
 1184              		.thumb_func
 1186              	Task_SetPending:
 1187              	.LFB131:
 243:SYS/task_manager/task_manager.c ****     uint8_t grp_id = GET_TASKGROUP_PRIORITY(tsk->priority.Priority);
 1188              		.loc 1 243 0
 1189              		.cfi_startproc
 1190              		@ args = 0, pretend = 0, frame = 0
 1191              		@ frame_needed = 0, uses_anonymous_args = 0
 1192              		@ link register save eliminated.
 1193              	.LVL106:
 1194 0000 70B4     		push	{r4, r5, r6}
 1195              	.LCFI23:
 1196              		.cfi_def_cfa_offset 12
 1197              		.cfi_offset 4, -12
 1198              		.cfi_offset 5, -8
 1199              		.cfi_offset 6, -4
 244:SYS/task_manager/task_manager.c ****     uint8_t tsk_id = GET_TASKINGROUP_PRIORITY(tsk->priority.Priority);
 1200              		.loc 1 244 0
 1201 0002 0378     		ldrb	r3, [r0]	@ zero_extendqisi2
 1202 0004 DA08     		lsrs	r2, r3, #3
 1203              	.LVL107:
 245:SYS/task_manager/task_manager.c **** 
 1204              		.loc 1 245 0
 1205 0006 03F00704 		and	r4, r3, #7
 1206              	.LVL108:
 248:SYS/task_manager/task_manager.c ****     //set current task under this group flag to ready
 1207              		.loc 1 248 0
 1208 000a 094D     		ldr	r5, .L88
 1209 000c 2E78     		ldrb	r6, [r5]	@ zero_extendqisi2
 1210 000e 0123     		movs	r3, #1
 1211 0010 03FA02F1 		lsl	r1, r3, r2
 1212 0014 3143     		orrs	r1, r1, r6
 1213 0016 C9B2     		uxtb	r1, r1
 1214 0018 2970     		strb	r1, [r5]
 250:SYS/task_manager/task_manager.c **** 
 1215              		.loc 1 250 0
 1216 001a 2A44     		add	r2, r2, r5
 1217              	.LVL109:
 1218 001c 5178     		ldrb	r1, [r2, #1]	@ zero_extendqisi2
 1219 001e A340     		lsls	r3, r3, r4
 1220 0020 0B43     		orrs	r3, r3, r1
 1221 0022 DBB2     		uxtb	r3, r3
 1222 0024 5370     		strb	r3, [r2, #1]
 253:SYS/task_manager/task_manager.c **** }
 1223              		.loc 1 253 0
 1224 0026 0423     		movs	r3, #4
 1225 0028 80F84830 		strb	r3, [r0, #72]
 254:SYS/task_manager/task_manager.c **** 
 1226              		.loc 1 254 0
 1227 002c 70BC     		pop	{r4, r5, r6}
 1228              	.LCFI24:
 1229              		.cfi_restore 6
 1230              		.cfi_restore 5
ARM GAS  C:\Users\why\AppData\Local\Temp\ccNE1a8I.s 			page 41


 1231              		.cfi_restore 4
 1232              		.cfi_def_cfa_offset 0
 1233              	.LVL110:
 1234 002e 7047     		bx	lr
 1235              	.L89:
 1236              		.align	2
 1237              	.L88:
 1238 0030 00000000 		.word	.LANCHOR2
 1239              		.cfi_endproc
 1240              	.LFE131:
 1242              		.section	.text.Task_SwitchStack,"ax",%progbits
 1243              		.align	2
 1244              		.global	Task_SwitchStack
 1245              		.thumb
 1246              		.thumb_func
 1248              	Task_SwitchStack:
 1249              	.LFB132:
 257:SYS/task_manager/task_manager.c ****     CurTsk_TCB = NxtTsk_TCB;
 1250              		.loc 1 257 0
 1251              		.cfi_startproc
 1252              		@ args = 0, pretend = 0, frame = 0
 1253              		@ frame_needed = 0, uses_anonymous_args = 0
 1254              		@ link register save eliminated.
 258:SYS/task_manager/task_manager.c **** }
 1255              		.loc 1 258 0
 1256 0000 034B     		ldr	r3, .L91
 1257 0002 044A     		ldr	r2, .L91+4
 1258 0004 92E80300 		ldmia	r2, {r0, r1}
 1259 0008 83E80300 		stmia	r3, {r0, r1}
 1260 000c 7047     		bx	lr
 1261              	.L92:
 1262 000e 00BF     		.align	2
 1263              	.L91:
 1264 0010 00000000 		.word	CurTsk_TCB
 1265 0014 00000000 		.word	NxtTsk_TCB
 1266              		.cfi_endproc
 1267              	.LFE132:
 1269              		.section	.text.Task_Get_HighestRank_PndTask,"ax",%progbits
 1270              		.align	2
 1271              		.global	Task_Get_HighestRank_PndTask
 1272              		.thumb
 1273              		.thumb_func
 1275              	Task_Get_HighestRank_PndTask:
 1276              	.LFB133:
 262:SYS/task_manager/task_manager.c ****     uint8_t grp_id;
 1277              		.loc 1 262 0
 1278              		.cfi_startproc
 1279              		@ args = 0, pretend = 0, frame = 0
 1280              		@ frame_needed = 0, uses_anonymous_args = 0
 1281              		@ link register save eliminated.
 266:SYS/task_manager/task_manager.c ****     {
 1282              		.loc 1 266 0
 1283 0000 144B     		ldr	r3, .L99
 1284 0002 1B78     		ldrb	r3, [r3]	@ zero_extendqisi2
 1285 0004 13F0FF0F 		tst	r3, #255
 1286 0008 1FD0     		beq	.L95
 269:SYS/task_manager/task_manager.c ****         //find task in group
ARM GAS  C:\Users\why\AppData\Local\Temp\ccNE1a8I.s 			page 42


 1287              		.loc 1 269 0
 1288 000a 124B     		ldr	r3, .L99
 1289 000c 1A78     		ldrb	r2, [r3]	@ zero_extendqisi2
 1290 000e D2B2     		uxtb	r2, r2
 1291 0010 1149     		ldr	r1, .L99+4
 1292 0012 8A5C     		ldrb	r2, [r1, r2]	@ zero_extendqisi2
 271:SYS/task_manager/task_manager.c ****     }
 1293              		.loc 1 271 0
 1294 0014 1344     		add	r3, r3, r2
 1295 0016 5B78     		ldrb	r3, [r3, #1]	@ zero_extendqisi2
 1296 0018 DBB2     		uxtb	r3, r3
 1297 001a CB5C     		ldrb	r3, [r1, r3]	@ zero_extendqisi2
 276:SYS/task_manager/task_manager.c ****     {
 1298              		.loc 1 276 0
 1299 001c 03EBC200 		add	r0, r3, r2, lsl #3
 1300 0020 0E49     		ldr	r1, .L99+8
 1301 0022 51F82000 		ldr	r0, [r1, r0, lsl #2]
 1302 0026 98B9     		cbnz	r0, .L98
 262:SYS/task_manager/task_manager.c ****     uint8_t grp_id;
 1303              		.loc 1 262 0
 1304 0028 70B4     		push	{r4, r5, r6}
 1305              	.LCFI25:
 1306              		.cfi_def_cfa_offset 12
 1307              		.cfi_offset 4, -12
 1308              		.cfi_offset 5, -8
 1309              		.cfi_offset 6, -4
 282:SYS/task_manager/task_manager.c ****         TskHdl_PndMap.TskInGrp[grp_id].Flg &= ~(1 << tsk_id);
 1310              		.loc 1 282 0
 1311 002a 0A4C     		ldr	r4, .L99
 1312 002c 2578     		ldrb	r5, [r4]	@ zero_extendqisi2
 1313 002e 0121     		movs	r1, #1
 1314 0030 01FA02F6 		lsl	r6, r1, r2
 1315 0034 25EA0605 		bic	r5, r5, r6
 1316 0038 2570     		strb	r5, [r4]
 283:SYS/task_manager/task_manager.c ****         return NULL;
 1317              		.loc 1 283 0
 1318 003a 2244     		add	r2, r2, r4
 1319 003c 5478     		ldrb	r4, [r2, #1]	@ zero_extendqisi2
 1320 003e 01FA03F3 		lsl	r3, r1, r3
 1321 0042 24EA0303 		bic	r3, r4, r3
 1322 0046 5370     		strb	r3, [r2, #1]
 284:SYS/task_manager/task_manager.c ****     }
 1323              		.loc 1 284 0
 1324 0048 01E0     		b	.L94
 1325              	.L95:
 1326              	.LCFI26:
 1327              		.cfi_def_cfa_offset 0
 1328              		.cfi_restore 4
 1329              		.cfi_restore 5
 1330              		.cfi_restore 6
 274:SYS/task_manager/task_manager.c **** 
 1331              		.loc 1 274 0
 1332 004a 0020     		movs	r0, #0
 1333 004c 7047     		bx	lr
 1334              	.L94:
 1335              	.LCFI27:
 1336              		.cfi_def_cfa_offset 12
ARM GAS  C:\Users\why\AppData\Local\Temp\ccNE1a8I.s 			page 43


 1337              		.cfi_offset 4, -12
 1338              		.cfi_offset 5, -8
 1339              		.cfi_offset 6, -4
 286:SYS/task_manager/task_manager.c **** 
 1340              		.loc 1 286 0
 1341 004e 70BC     		pop	{r4, r5, r6}
 1342              	.LCFI28:
 1343              		.cfi_restore 6
 1344              		.cfi_restore 5
 1345              		.cfi_restore 4
 1346              		.cfi_def_cfa_offset 0
 1347              	.L98:
 1348 0050 7047     		bx	lr
 1349              	.L100:
 1350 0052 00BF     		.align	2
 1351              	.L99:
 1352 0054 00000000 		.word	.LANCHOR2
 1353 0058 00000000 		.word	.LANCHOR11
 1354 005c 00000000 		.word	Task_Ptr
 1355              		.cfi_endproc
 1356              	.LFE133:
 1358              		.section	.text.Task_SaveCurProc,"ax",%progbits
 1359              		.align	2
 1360              		.global	Task_SaveCurProc
 1361              		.thumb
 1362              		.thumb_func
 1364              	Task_SaveCurProc:
 1365              	.LFB138:
 339:SYS/task_manager/task_manager.c ****     __ASM("MRS    R0, PSP");
 1366              		.loc 1 339 0
 1367              		.cfi_startproc
 1368              		@ args = 0, pretend = 0, frame = 0
 1369              		@ frame_needed = 0, uses_anonymous_args = 0
 1370              		@ link register save eliminated.
 340:SYS/task_manager/task_manager.c ****     __ASM("LDR	  R3, CurrentTCBConst_Tmp3");
 1371              		.loc 1 340 0
 1372              		.syntax unified
 1373              	@ 340 "SYS/task_manager/task_manager.c" 1
 1374 0000 EFF30980 		MRS    R0, PSP
 1375              	@ 0 "" 2
 341:SYS/task_manager/task_manager.c ****     __ASM("LDR    R2, [R3]");
 1376              		.loc 1 341 0
 1377              	@ 341 "SYS/task_manager/task_manager.c" 1
 1378 0004 DFF81C30 		LDR	  R3, CurrentTCBConst_Tmp3
 1379              	@ 0 "" 2
 342:SYS/task_manager/task_manager.c **** 
 1380              		.loc 1 342 0
 1381              	@ 342 "SYS/task_manager/task_manager.c" 1
 1382 0008 1A68     		LDR    R2, [R3]
 1383              	@ 0 "" 2
 344:SYS/task_manager/task_manager.c **** 
 1384              		.loc 1 344 0
 1385              	@ 344 "SYS/task_manager/task_manager.c" 1
 1386 000a BFF36F8F 		ISB
 1387              	@ 0 "" 2
 346:SYS/task_manager/task_manager.c ****     __ASM("STR      R0, [R2]");
 1388              		.loc 1 346 0
ARM GAS  C:\Users\why\AppData\Local\Temp\ccNE1a8I.s 			page 44


 1389              	@ 346 "SYS/task_manager/task_manager.c" 1
 1390 000e 20E9F04F 		STMDB    R0!, {R4-R11, R14}
 1391              	@ 0 "" 2
 347:SYS/task_manager/task_manager.c **** 
 1392              		.loc 1 347 0
 1393              	@ 347 "SYS/task_manager/task_manager.c" 1
 1394 0012 1060     		STR      R0, [R2]
 1395              	@ 0 "" 2
 350:SYS/task_manager/task_manager.c ****     __ASM("IT       EQ");
 1396              		.loc 1 350 0
 1397              	@ 350 "SYS/task_manager/task_manager.c" 1
 1398 0014 1EF0100F 		TST      R14, #0x10
 1399              	@ 0 "" 2
 351:SYS/task_manager/task_manager.c ****     __ASM("VSTMDBEQ R0!, {s16-s31}");
 1400              		.loc 1 351 0
 1401              	@ 351 "SYS/task_manager/task_manager.c" 1
 1402 0018 08BF     		IT       EQ
 1403              	@ 0 "" 2
 352:SYS/task_manager/task_manager.c ****     /******************************  FPU SECTION  *********************************/
 1404              		.loc 1 352 0
 1405              	@ 352 "SYS/task_manager/task_manager.c" 1
 1406 001a 20ED108A 		VSTMDBEQ R0!, {s16-s31}
 1407              	@ 0 "" 2
 355:SYS/task_manager/task_manager.c ****     __ASM("BX       R14");
 1408              		.loc 1 355 0
 1409              	@ 355 "SYS/task_manager/task_manager.c" 1
 1410 001e BFF36F8F 		ISB
 1411              	@ 0 "" 2
 356:SYS/task_manager/task_manager.c **** 
 1412              		.loc 1 356 0
 1413              	@ 356 "SYS/task_manager/task_manager.c" 1
 1414 0022 7047     		BX       R14
 1415              	@ 0 "" 2
 358:SYS/task_manager/task_manager.c **** }
 1416              		.loc 1 358 0
 1417              	@ 358 "SYS/task_manager/task_manager.c" 1
 1418 0024 00000000 		CurrentTCBConst_Tmp3: .word CurTsk_TCB
 1419              	@ 0 "" 2
 1420              		.thumb
 1421              		.syntax unified
 1422 0028 7047     		bx	lr
 1423              		.cfi_endproc
 1424              	.LFE138:
 1426 002a 00BF     		.section	.text.Task_Load,"ax",%progbits
 1427              		.align	2
 1428              		.global	Task_Load
 1429              		.thumb
 1430              		.thumb_func
 1432              	Task_Load:
 1433              	.LFB139:
 362:SYS/task_manager/task_manager.c ****     __ASM("LDR	  R3, =CurTsk_TCB");
 1434              		.loc 1 362 0
 1435              		.cfi_startproc
 1436              		@ args = 0, pretend = 0, frame = 0
 1437              		@ frame_needed = 0, uses_anonymous_args = 0
 1438              		@ link register save eliminated.
 363:SYS/task_manager/task_manager.c ****     __ASM("LDR    R1, [R3]");
ARM GAS  C:\Users\why\AppData\Local\Temp\ccNE1a8I.s 			page 45


 1439              		.loc 1 363 0
 1440              		.syntax unified
 1441              	@ 363 "SYS/task_manager/task_manager.c" 1
 1442 0000 084B     		LDR	  R3, =CurTsk_TCB
 1443              	@ 0 "" 2
 364:SYS/task_manager/task_manager.c ****     __ASM("LDR    R0, [R1]");
 1444              		.loc 1 364 0
 1445              	@ 364 "SYS/task_manager/task_manager.c" 1
 1446 0002 1968     		LDR    R1, [R3]
 1447              	@ 0 "" 2
 365:SYS/task_manager/task_manager.c **** 
 1448              		.loc 1 365 0
 1449              	@ 365 "SYS/task_manager/task_manager.c" 1
 1450 0004 0868     		LDR    R0, [R1]
 1451              	@ 0 "" 2
 367:SYS/task_manager/task_manager.c **** 
 1452              		.loc 1 367 0
 1453              	@ 367 "SYS/task_manager/task_manager.c" 1
 1454 0006 B0E8F04F 		LDMIA  R0!, {R4-R11, R14}
 1455              	@ 0 "" 2
 370:SYS/task_manager/task_manager.c ****     __ASM("IT       EQ");
 1456              		.loc 1 370 0
 1457              	@ 370 "SYS/task_manager/task_manager.c" 1
 1458 000a 1EF0100F 		TST      R14, #0x10
 1459              	@ 0 "" 2
 371:SYS/task_manager/task_manager.c ****     __ASM("VLDMIAEQ R0!, {s16-s31}");
 1460              		.loc 1 371 0
 1461              	@ 371 "SYS/task_manager/task_manager.c" 1
 1462 000e 08BF     		IT       EQ
 1463              	@ 0 "" 2
 372:SYS/task_manager/task_manager.c ****     /******************************  FPU SECTION  *********************************/
 1464              		.loc 1 372 0
 1465              	@ 372 "SYS/task_manager/task_manager.c" 1
 1466 0010 B0EC108A 		VLDMIAEQ R0!, {s16-s31}
 1467              	@ 0 "" 2
 375:SYS/task_manager/task_manager.c ****     __ASM("ISB");
 1468              		.loc 1 375 0
 1469              	@ 375 "SYS/task_manager/task_manager.c" 1
 1470 0014 80F30988 		MSR    PSP, R0
 1471              	@ 0 "" 2
 376:SYS/task_manager/task_manager.c ****     //__ASM("MOV    R0, #240");
 1472              		.loc 1 376 0
 1473              	@ 376 "SYS/task_manager/task_manager.c" 1
 1474 0018 BFF36F8F 		ISB
 1475              	@ 0 "" 2
 379:SYS/task_manager/task_manager.c ****     __ASM(".ALIGN 4");
 1476              		.loc 1 379 0
 1477              	@ 379 "SYS/task_manager/task_manager.c" 1
 1478 001c 7047     		BX     R14
 1479              	@ 0 "" 2
 380:SYS/task_manager/task_manager.c **** }
 1480              		.loc 1 380 0
 1481              	@ 380 "SYS/task_manager/task_manager.c" 1
 1482 001e 00BF     		.ALIGN 4
 1483              	@ 0 "" 2
 1484              		.thumb
 1485              		.syntax unified
ARM GAS  C:\Users\why\AppData\Local\Temp\ccNE1a8I.s 			page 46


 1486 0020 7047     		bx	lr
 1487              		.cfi_endproc
 1488              	.LFE139:
 1490 0022 0000     		.section	.text.Load_FirstTask,"ax",%progbits
 1491              		.align	2
 1492              		.global	Load_FirstTask
 1493              		.thumb
 1494              		.thumb_func
 1496              	Load_FirstTask:
 1497              	.LFB140:
 384:SYS/task_manager/task_manager.c ****     Task_Load();
 1498              		.loc 1 384 0
 1499              		.cfi_startproc
 1500              		@ args = 0, pretend = 0, frame = 0
 1501              		@ frame_needed = 0, uses_anonymous_args = 0
 1502 0000 08B5     		push	{r3, lr}
 1503              	.LCFI29:
 1504              		.cfi_def_cfa_offset 8
 1505              		.cfi_offset 3, -8
 1506              		.cfi_offset 14, -4
 385:SYS/task_manager/task_manager.c **** }
 1507              		.loc 1 385 0
 1508 0002 FFF7FEFF 		bl	Task_Load
 1509              	.LVL111:
 1510 0006 08BD     		pop	{r3, pc}
 1511              		.cfi_endproc
 1512              	.LFE140:
 1514              		.section	.text.Task_SwitchContext,"ax",%progbits
 1515              		.align	2
 1516              		.global	Task_SwitchContext
 1517              		.thumb
 1518              		.thumb_func
 1520              	Task_SwitchContext:
 1521              	.LFB141:
 389:SYS/task_manager/task_manager.c ****     __ASM("MRS      R0, PSP");
 1522              		.loc 1 389 0
 1523              		.cfi_startproc
 1524              		@ args = 0, pretend = 0, frame = 0
 1525              		@ frame_needed = 0, uses_anonymous_args = 0
 1526              		@ link register save eliminated.
 390:SYS/task_manager/task_manager.c ****     __ASM("ISB");
 1527              		.loc 1 390 0
 1528              		.syntax unified
 1529              	@ 390 "SYS/task_manager/task_manager.c" 1
 1530 0000 EFF30980 		MRS      R0, PSP
 1531              	@ 0 "" 2
 391:SYS/task_manager/task_manager.c **** 
 1532              		.loc 1 391 0
 1533              	@ 391 "SYS/task_manager/task_manager.c" 1
 1534 0004 BFF36F8F 		ISB
 1535              	@ 0 "" 2
 393:SYS/task_manager/task_manager.c ****     __ASM("LDR      R2, [R3]");
 1536              		.loc 1 393 0
 1537              	@ 393 "SYS/task_manager/task_manager.c" 1
 1538 0008 DFF85030 		LDR      R3, CurrentTCBConst_Tmp
 1539              	@ 0 "" 2
 394:SYS/task_manager/task_manager.c **** 
ARM GAS  C:\Users\why\AppData\Local\Temp\ccNE1a8I.s 			page 47


 1540              		.loc 1 394 0
 1541              	@ 394 "SYS/task_manager/task_manager.c" 1
 1542 000c 1A68     		LDR      R2, [R3]
 1543              	@ 0 "" 2
 397:SYS/task_manager/task_manager.c ****     __ASM("IT       EQ");
 1544              		.loc 1 397 0
 1545              	@ 397 "SYS/task_manager/task_manager.c" 1
 1546 000e 1EF0100F 		TST      R14, #0x10
 1547              	@ 0 "" 2
 398:SYS/task_manager/task_manager.c ****     __ASM("VSTMDBEQ R0!, {s16-s31}");
 1548              		.loc 1 398 0
 1549              	@ 398 "SYS/task_manager/task_manager.c" 1
 1550 0012 08BF     		IT       EQ
 1551              	@ 0 "" 2
 399:SYS/task_manager/task_manager.c ****     /******************************  FPU SECTION  *********************************/
 1552              		.loc 1 399 0
 1553              	@ 399 "SYS/task_manager/task_manager.c" 1
 1554 0014 20ED108A 		VSTMDBEQ R0!, {s16-s31}
 1555              	@ 0 "" 2
 402:SYS/task_manager/task_manager.c ****     __ASM("STR      R0, [R2]");
 1556              		.loc 1 402 0
 1557              	@ 402 "SYS/task_manager/task_manager.c" 1
 1558 0018 20E9F04F 		STMDB    R0!, {R4-R11, R14}
 1559              	@ 0 "" 2
 403:SYS/task_manager/task_manager.c **** 
 1560              		.loc 1 403 0
 1561              	@ 403 "SYS/task_manager/task_manager.c" 1
 1562 001c 1060     		STR      R0, [R2]
 1563              	@ 0 "" 2
 405:SYS/task_manager/task_manager.c ****     __ASM("MOV      R0, %0" ::"i"(0x50));
 1564              		.loc 1 405 0
 1565              	@ 405 "SYS/task_manager/task_manager.c" 1
 1566 001e 2DE90900 		STMDB    SP!, {R0, R3}
 1567              	@ 0 "" 2
 406:SYS/task_manager/task_manager.c ****     __ASM("MSR      BASEPRI, R0");
 1568              		.loc 1 406 0
 1569              	@ 406 "SYS/task_manager/task_manager.c" 1
 1570 0022 4FF05000 		MOV      R0, #80
 1571              	@ 0 "" 2
 407:SYS/task_manager/task_manager.c **** 
 1572              		.loc 1 407 0
 1573              	@ 407 "SYS/task_manager/task_manager.c" 1
 1574 0026 80F31188 		MSR      BASEPRI, R0
 1575              	@ 0 "" 2
 409:SYS/task_manager/task_manager.c ****     __ASM("ISB");
 1576              		.loc 1 409 0
 1577              	@ 409 "SYS/task_manager/task_manager.c" 1
 1578 002a BFF34F8F 		DSB
 1579              	@ 0 "" 2
 410:SYS/task_manager/task_manager.c **** 
 1580              		.loc 1 410 0
 1581              	@ 410 "SYS/task_manager/task_manager.c" 1
 1582 002e BFF36F8F 		ISB
 1583              	@ 0 "" 2
 412:SYS/task_manager/task_manager.c **** 
 1584              		.loc 1 412 0
 1585              	@ 412 "SYS/task_manager/task_manager.c" 1
ARM GAS  C:\Users\why\AppData\Local\Temp\ccNE1a8I.s 			page 48


 1586 0032 FFF7FEFF 		BL       Task_SwitchStack
 1587              	@ 0 "" 2
 414:SYS/task_manager/task_manager.c ****     __ASM("MSR      BASEPRI, R0");
 1588              		.loc 1 414 0
 1589              	@ 414 "SYS/task_manager/task_manager.c" 1
 1590 0036 4FF00000 		MOV      R0, #0
 1591              	@ 0 "" 2
 415:SYS/task_manager/task_manager.c ****     __ASM("LDMIA    SP!, {R0, R3}");
 1592              		.loc 1 415 0
 1593              	@ 415 "SYS/task_manager/task_manager.c" 1
 1594 003a 80F31188 		MSR      BASEPRI, R0
 1595              	@ 0 "" 2
 416:SYS/task_manager/task_manager.c **** 
 1596              		.loc 1 416 0
 1597              	@ 416 "SYS/task_manager/task_manager.c" 1
 1598 003e 09BC     		LDMIA    SP!, {R0, R3}
 1599              	@ 0 "" 2
 418:SYS/task_manager/task_manager.c ****     __ASM("LDR      R0, [R1]");
 1600              		.loc 1 418 0
 1601              	@ 418 "SYS/task_manager/task_manager.c" 1
 1602 0040 1968     		LDR      R1, [R3]
 1603              	@ 0 "" 2
 419:SYS/task_manager/task_manager.c **** 
 1604              		.loc 1 419 0
 1605              	@ 419 "SYS/task_manager/task_manager.c" 1
 1606 0042 0868     		LDR      R0, [R1]
 1607              	@ 0 "" 2
 421:SYS/task_manager/task_manager.c **** 
 1608              		.loc 1 421 0
 1609              	@ 421 "SYS/task_manager/task_manager.c" 1
 1610 0044 B0E8F04F 		LDMIA    R0!, {R4-R11, R14}
 1611              	@ 0 "" 2
 424:SYS/task_manager/task_manager.c ****     __ASM("IT       EQ");
 1612              		.loc 1 424 0
 1613              	@ 424 "SYS/task_manager/task_manager.c" 1
 1614 0048 1EF0100F 		TST      R14, #0x10
 1615              	@ 0 "" 2
 425:SYS/task_manager/task_manager.c ****     __ASM("VLDMIAEQ R0!, {s16-s31}");
 1616              		.loc 1 425 0
 1617              	@ 425 "SYS/task_manager/task_manager.c" 1
 1618 004c 08BF     		IT       EQ
 1619              	@ 0 "" 2
 426:SYS/task_manager/task_manager.c ****     /******************************  FPU SECTION  *********************************/
 1620              		.loc 1 426 0
 1621              	@ 426 "SYS/task_manager/task_manager.c" 1
 1622 004e B0EC108A 		VLDMIAEQ R0!, {s16-s31}
 1623              	@ 0 "" 2
 429:SYS/task_manager/task_manager.c ****     __ASM("ISB");
 1624              		.loc 1 429 0
 1625              	@ 429 "SYS/task_manager/task_manager.c" 1
 1626 0052 80F30988 		MSR      PSP,R0
 1627              	@ 0 "" 2
 430:SYS/task_manager/task_manager.c ****     //__ASM("MOV      R0, #240");
 1628              		.loc 1 430 0
 1629              	@ 430 "SYS/task_manager/task_manager.c" 1
 1630 0056 BFF36F8F 		ISB
 1631              	@ 0 "" 2
ARM GAS  C:\Users\why\AppData\Local\Temp\ccNE1a8I.s 			page 49


 433:SYS/task_manager/task_manager.c **** 
 1632              		.loc 1 433 0
 1633              	@ 433 "SYS/task_manager/task_manager.c" 1
 1634 005a 7047     		BX       R14
 1635              	@ 0 "" 2
 435:SYS/task_manager/task_manager.c ****     __ASM(".ALIGN 4");
 1636              		.loc 1 435 0
 1637              	@ 435 "SYS/task_manager/task_manager.c" 1
 1638 005c 00000000 		CurrentTCBConst_Tmp: .word CurTsk_TCB
 1639              	@ 0 "" 2
 436:SYS/task_manager/task_manager.c **** }
 1640              		.loc 1 436 0
 1641              	@ 436 "SYS/task_manager/task_manager.c" 1
 1642              		.ALIGN 4
 1643              	@ 0 "" 2
 1644              		.thumb
 1645              		.syntax unified
 1646 0060 7047     		bx	lr
 1647              		.cfi_endproc
 1648              	.LFE141:
 1650 0062 00BF     		.section	.text.Task_Get_HighestRank_RdyTask,"ax",%progbits
 1651              		.align	2
 1652              		.global	Task_Get_HighestRank_RdyTask
 1653              		.thumb
 1654              		.thumb_func
 1656              	Task_Get_HighestRank_RdyTask:
 1657              	.LFB147:
 524:SYS/task_manager/task_manager.c ****     uint8_t grp_id = 0;
 1658              		.loc 1 524 0
 1659              		.cfi_startproc
 1660              		@ args = 0, pretend = 0, frame = 0
 1661              		@ frame_needed = 0, uses_anonymous_args = 0
 1662              		@ link register save eliminated.
 1663              	.LVL112:
 528:SYS/task_manager/task_manager.c ****     {
 1664              		.loc 1 528 0
 1665 0000 144B     		ldr	r3, .L112
 1666 0002 1B78     		ldrb	r3, [r3]	@ zero_extendqisi2
 1667 0004 13F0FF0F 		tst	r3, #255
 1668 0008 1FD0     		beq	.L108
 531:SYS/task_manager/task_manager.c ****         //find task in group
 1669              		.loc 1 531 0
 1670 000a 124B     		ldr	r3, .L112
 1671 000c 1A78     		ldrb	r2, [r3]	@ zero_extendqisi2
 1672 000e D2B2     		uxtb	r2, r2
 1673 0010 1149     		ldr	r1, .L112+4
 1674 0012 8A5C     		ldrb	r2, [r1, r2]	@ zero_extendqisi2
 1675              	.LVL113:
 533:SYS/task_manager/task_manager.c ****     }
 1676              		.loc 1 533 0
 1677 0014 1344     		add	r3, r3, r2
 1678 0016 5B78     		ldrb	r3, [r3, #1]	@ zero_extendqisi2
 1679 0018 DBB2     		uxtb	r3, r3
 1680 001a CB5C     		ldrb	r3, [r1, r3]	@ zero_extendqisi2
 1681              	.LVL114:
 538:SYS/task_manager/task_manager.c ****     {
 1682              		.loc 1 538 0
ARM GAS  C:\Users\why\AppData\Local\Temp\ccNE1a8I.s 			page 50


 1683 001c 03EBC200 		add	r0, r3, r2, lsl #3
 1684 0020 0E49     		ldr	r1, .L112+8
 1685 0022 51F82000 		ldr	r0, [r1, r0, lsl #2]
 1686 0026 98B9     		cbnz	r0, .L111
 524:SYS/task_manager/task_manager.c ****     uint8_t grp_id = 0;
 1687              		.loc 1 524 0
 1688 0028 70B4     		push	{r4, r5, r6}
 1689              	.LCFI30:
 1690              		.cfi_def_cfa_offset 12
 1691              		.cfi_offset 4, -12
 1692              		.cfi_offset 5, -8
 1693              		.cfi_offset 6, -4
 544:SYS/task_manager/task_manager.c ****         TskHdl_RdyMap.TskInGrp[grp_id].Flg &= ~(1 << tsk_id);
 1694              		.loc 1 544 0
 1695 002a 0A4C     		ldr	r4, .L112
 1696 002c 2578     		ldrb	r5, [r4]	@ zero_extendqisi2
 1697 002e 0121     		movs	r1, #1
 1698 0030 01FA02F6 		lsl	r6, r1, r2
 1699 0034 25EA0605 		bic	r5, r5, r6
 1700 0038 2570     		strb	r5, [r4]
 545:SYS/task_manager/task_manager.c ****         return NULL;
 1701              		.loc 1 545 0
 1702 003a 2244     		add	r2, r2, r4
 1703 003c 5478     		ldrb	r4, [r2, #1]	@ zero_extendqisi2
 1704 003e 01FA03F3 		lsl	r3, r1, r3
 1705 0042 24EA0303 		bic	r3, r4, r3
 1706 0046 5370     		strb	r3, [r2, #1]
 546:SYS/task_manager/task_manager.c ****     }
 1707              		.loc 1 546 0
 1708 0048 01E0     		b	.L107
 1709              	.LVL115:
 1710              	.L108:
 1711              	.LCFI31:
 1712              		.cfi_def_cfa_offset 0
 1713              		.cfi_restore 4
 1714              		.cfi_restore 5
 1715              		.cfi_restore 6
 536:SYS/task_manager/task_manager.c **** 
 1716              		.loc 1 536 0
 1717 004a 0020     		movs	r0, #0
 1718 004c 7047     		bx	lr
 1719              	.LVL116:
 1720              	.L107:
 1721              	.LCFI32:
 1722              		.cfi_def_cfa_offset 12
 1723              		.cfi_offset 4, -12
 1724              		.cfi_offset 5, -8
 1725              		.cfi_offset 6, -4
 548:SYS/task_manager/task_manager.c **** 
 1726              		.loc 1 548 0
 1727 004e 70BC     		pop	{r4, r5, r6}
 1728              	.LCFI33:
 1729              		.cfi_restore 6
 1730              		.cfi_restore 5
 1731              		.cfi_restore 4
 1732              		.cfi_def_cfa_offset 0
 1733              	.L111:
ARM GAS  C:\Users\why\AppData\Local\Temp\ccNE1a8I.s 			page 51


 1734 0050 7047     		bx	lr
 1735              	.L113:
 1736 0052 00BF     		.align	2
 1737              	.L112:
 1738 0054 00000000 		.word	.LANCHOR0
 1739 0058 00000000 		.word	.LANCHOR11
 1740 005c 00000000 		.word	Task_Ptr
 1741              		.cfi_endproc
 1742              	.LFE147:
 1744              		.section	.text.Task_SetNextTask_Ptr,"ax",%progbits
 1745              		.align	2
 1746              		.global	Task_SetNextTask_Ptr
 1747              		.thumb
 1748              		.thumb_func
 1750              	Task_SetNextTask_Ptr:
 1751              	.LFB148:
 551:SYS/task_manager/task_manager.c ****     if (nxt != NULL)
 1752              		.loc 1 551 0
 1753              		.cfi_startproc
 1754              		@ args = 0, pretend = 0, frame = 0
 1755              		@ frame_needed = 0, uses_anonymous_args = 0
 1756              		@ link register save eliminated.
 1757              	.LVL117:
 552:SYS/task_manager/task_manager.c ****     {
 1758              		.loc 1 552 0
 1759 0000 38B1     		cbz	r0, .L114
 554:SYS/task_manager/task_manager.c ****         NxtTsk_TCB.Top_Stk_Ptr = &NxtRunTsk_Ptr->TCB.Top_Stk_Ptr;
 1760              		.loc 1 554 0
 1761 0002 044A     		ldr	r2, .L116
 1762 0004 1060     		str	r0, [r2]
 555:SYS/task_manager/task_manager.c ****         NxtTsk_TCB.Stack = NxtRunTsk_Ptr->TCB.Stack;
 1763              		.loc 1 555 0
 1764 0006 00F15001 		add	r1, r0, #80
 1765 000a 034A     		ldr	r2, .L116+4
 1766 000c 1160     		str	r1, [r2]
 556:SYS/task_manager/task_manager.c ****     }
 1767              		.loc 1 556 0
 1768 000e 436D     		ldr	r3, [r0, #84]
 1769 0010 5360     		str	r3, [r2, #4]
 1770              	.L114:
 1771 0012 7047     		bx	lr
 1772              	.L117:
 1773              		.align	2
 1774              	.L116:
 1775 0014 00000000 		.word	.LANCHOR10
 1776 0018 00000000 		.word	NxtTsk_TCB
 1777              		.cfi_endproc
 1778              	.LFE148:
 1780              		.section	.text.Task_TriggerPendSV,"ax",%progbits
 1781              		.align	2
 1782              		.global	Task_TriggerPendSV
 1783              		.thumb
 1784              		.thumb_func
 1786              	Task_TriggerPendSV:
 1787              	.LFB150:
 586:SYS/task_manager/task_manager.c ****     __ASM(".equ NVIC_INT_CTRL, 0xE000ED04");
 1788              		.loc 1 586 0
ARM GAS  C:\Users\why\AppData\Local\Temp\ccNE1a8I.s 			page 52


 1789              		.cfi_startproc
 1790              		@ Naked Function: prologue and epilogue provided by programmer.
 1791              		@ args = 0, pretend = 0, frame = 0
 1792              		@ frame_needed = 0, uses_anonymous_args = 0
 587:SYS/task_manager/task_manager.c ****     __ASM(".equ NVIC_PENDSVSET, 0x10000000");
 1793              		.loc 1 587 0
 1794              		.syntax unified
 1795              	@ 587 "SYS/task_manager/task_manager.c" 1
 1796              		.equ NVIC_INT_CTRL, 0xE000ED04
 1797              	@ 0 "" 2
 588:SYS/task_manager/task_manager.c **** 
 1798              		.loc 1 588 0
 1799              	@ 588 "SYS/task_manager/task_manager.c" 1
 1800              		.equ NVIC_PENDSVSET, 0x10000000
 1801              	@ 0 "" 2
 590:SYS/task_manager/task_manager.c ****     __ASM("LDR      R1, =NVIC_PENDSVSET");
 1802              		.loc 1 590 0
 1803              	@ 590 "SYS/task_manager/task_manager.c" 1
 1804 0000 0248     		LDR      R0, =NVIC_INT_CTRL
 1805              	@ 0 "" 2
 591:SYS/task_manager/task_manager.c ****     __ASM("STR      R1, [R0]");
 1806              		.loc 1 591 0
 1807              	@ 591 "SYS/task_manager/task_manager.c" 1
 1808 0002 4FF08051 		LDR      R1, =NVIC_PENDSVSET
 1809              	@ 0 "" 2
 592:SYS/task_manager/task_manager.c ****     __ASM("BX       LR");
 1810              		.loc 1 592 0
 1811              	@ 592 "SYS/task_manager/task_manager.c" 1
 1812 0006 0160     		STR      R1, [R0]
 1813              	@ 0 "" 2
 593:SYS/task_manager/task_manager.c **** }
 1814              		.loc 1 593 0
 1815              	@ 593 "SYS/task_manager/task_manager.c" 1
 1816 0008 7047     		BX       LR
 1817              	@ 0 "" 2
 594:SYS/task_manager/task_manager.c **** 
 1818              		.loc 1 594 0
 1819              		.thumb
 1820              		.syntax unified
 1821              		.cfi_endproc
 1822              	.LFE150:
 1824 000a 0000     		.section	.text.Task_Scheduler,"ax",%progbits
 1825              		.align	2
 1826              		.global	Task_Scheduler
 1827              		.thumb
 1828              		.thumb_func
 1830              	Task_Scheduler:
 1831              	.LFB170:
 994:SYS/task_manager/task_manager.c ****             }
 995:SYS/task_manager/task_manager.c ****         }
 996:SYS/task_manager/task_manager.c ****     }
 997:SYS/task_manager/task_manager.c **** }
 998:SYS/task_manager/task_manager.c **** 
 999:SYS/task_manager/task_manager.c **** void Task_Scheduler(void)
1000:SYS/task_manager/task_manager.c **** {
 1832              		.loc 1 1000 0
 1833              		.cfi_startproc
ARM GAS  C:\Users\why\AppData\Local\Temp\ccNE1a8I.s 			page 53


 1834              		@ args = 0, pretend = 0, frame = 0
 1835              		@ frame_needed = 0, uses_anonymous_args = 0
1001:SYS/task_manager/task_manager.c ****     if (TskSys_state != TaskSys_Start)
 1836              		.loc 1 1001 0
 1837 0000 4A4B     		ldr	r3, .L130
 1838 0002 1B78     		ldrb	r3, [r3]	@ zero_extendqisi2
 1839 0004 DBB2     		uxtb	r3, r3
 1840 0006 022B     		cmp	r3, #2
 1841 0008 40F08F80 		bne	.L129
1000:SYS/task_manager/task_manager.c ****     if (TskSys_state != TaskSys_Start)
 1842              		.loc 1 1000 0
 1843 000c 70B5     		push	{r4, r5, r6, lr}
 1844              	.LCFI34:
 1845              		.cfi_def_cfa_offset 16
 1846              		.cfi_offset 4, -16
 1847              		.cfi_offset 5, -12
 1848              		.cfi_offset 6, -8
 1849              		.cfi_offset 14, -4
1002:SYS/task_manager/task_manager.c ****         return;
1003:SYS/task_manager/task_manager.c **** 
1004:SYS/task_manager/task_manager.c ****     List_traverse(&TskCrt_RegList.list, Task_CrtList_TraversePoll_callback, NULL, sub_callback);
 1850              		.loc 1 1004 0
 1851 000e 0123     		movs	r3, #1
 1852 0010 0022     		movs	r2, #0
 1853 0012 4749     		ldr	r1, .L130+4
 1854 0014 4748     		ldr	r0, .L130+8
 1855 0016 FFF7FEFF 		bl	List_traverse
 1856              	.LVL118:
1005:SYS/task_manager/task_manager.c **** 
1006:SYS/task_manager/task_manager.c ****     NxtRunTsk_Ptr = Task_Get_HighestRank_RdyTask();
 1857              		.loc 1 1006 0
 1858 001a FFF7FEFF 		bl	Task_Get_HighestRank_RdyTask
 1859              	.LVL119:
 1860 001e 464B     		ldr	r3, .L130+12
 1861 0020 1860     		str	r0, [r3]
1007:SYS/task_manager/task_manager.c **** 
1008:SYS/task_manager/task_manager.c **** #if (TASK_SCHEDULER_TYPE == PREEMPTIVE_SCHDULER)
1009:SYS/task_manager/task_manager.c **** 
1010:SYS/task_manager/task_manager.c ****     PndHstTsk_Ptr = Task_Get_HighestRank_PndTask();
 1862              		.loc 1 1010 0
 1863 0022 FFF7FEFF 		bl	Task_Get_HighestRank_PndTask
 1864              	.LVL120:
 1865 0026 0646     		mov	r6, r0
 1866 0028 444B     		ldr	r3, .L130+16
 1867 002a 1860     		str	r0, [r3]
1011:SYS/task_manager/task_manager.c **** 
1012:SYS/task_manager/task_manager.c ****     if (CurRunTsk_Ptr == NULL)
 1868              		.loc 1 1012 0
 1869 002c 444B     		ldr	r3, .L130+20
 1870 002e 1D68     		ldr	r5, [r3]
 1871 0030 002D     		cmp	r5, #0
 1872 0032 33D1     		bne	.L121
1013:SYS/task_manager/task_manager.c ****     {
1014:SYS/task_manager/task_manager.c ****         if (PndHstTsk_Ptr == NULL)
 1873              		.loc 1 1014 0
 1874 0034 70B9     		cbnz	r0, .L122
1015:SYS/task_manager/task_manager.c ****         {
ARM GAS  C:\Users\why\AppData\Local\Temp\ccNE1a8I.s 			page 54


1016:SYS/task_manager/task_manager.c ****             //Current Run task Pointer is Null also no task In pending mode
1017:SYS/task_manager/task_manager.c ****             //set CurRunTsk_Ptr to NxtRunTsk_Ptr
1018:SYS/task_manager/task_manager.c ****             if (NxtRunTsk_Ptr != NULL)
 1875              		.loc 1 1018 0
 1876 0036 404B     		ldr	r3, .L130+12
 1877 0038 1B68     		ldr	r3, [r3]
 1878 003a 43B1     		cbz	r3, .L123
1019:SYS/task_manager/task_manager.c ****             {
1020:SYS/task_manager/task_manager.c ****                 NxtTsk_TCB.Top_Stk_Ptr = &NxtRunTsk_Ptr->TCB.Top_Stk_Ptr;
 1879              		.loc 1 1020 0
 1880 003c 03F15001 		add	r1, r3, #80
 1881 0040 404A     		ldr	r2, .L130+24
 1882 0042 1160     		str	r1, [r2]
1021:SYS/task_manager/task_manager.c ****                 NxtTsk_TCB.Stack = NxtRunTsk_Ptr->TCB.Stack;
 1883              		.loc 1 1021 0
 1884 0044 5B6D     		ldr	r3, [r3, #84]
 1885 0046 5360     		str	r3, [r2, #4]
1022:SYS/task_manager/task_manager.c **** 
1023:SYS/task_manager/task_manager.c ****                 Task_TriggerPendSV();
 1886              		.loc 1 1023 0
 1887 0048 FFF7FEFF 		bl	Task_TriggerPendSV
 1888              	.LVL121:
1024:SYS/task_manager/task_manager.c ****                 return;
 1889              		.loc 1 1024 0
 1890 004c 70BD     		pop	{r4, r5, r6, pc}
 1891              	.L123:
1025:SYS/task_manager/task_manager.c ****             }
1026:SYS/task_manager/task_manager.c ****             else
1027:SYS/task_manager/task_manager.c ****             {
1028:SYS/task_manager/task_manager.c ****                 //doing idle function
1029:SYS/task_manager/task_manager.c ****                 Task_Idle();
 1892              		.loc 1 1029 0
 1893 004e FFF7FEFF 		bl	Task_Idle
 1894              	.LVL122:
 1895 0052 70BD     		pop	{r4, r5, r6, pc}
 1896              	.L122:
1030:SYS/task_manager/task_manager.c ****             }
1031:SYS/task_manager/task_manager.c ****         }
1032:SYS/task_manager/task_manager.c ****         else
1033:SYS/task_manager/task_manager.c ****         {
1034:SYS/task_manager/task_manager.c ****             if (NxtRunTsk_Ptr != NULL)
 1897              		.loc 1 1034 0
 1898 0054 384B     		ldr	r3, .L130+12
 1899 0056 1868     		ldr	r0, [r3]
 1900 0058 68B1     		cbz	r0, .L124
1035:SYS/task_manager/task_manager.c ****             {
1036:SYS/task_manager/task_manager.c ****                 //if has NxtRunTsk_Ptr is not NULL also have task in pending state
1037:SYS/task_manager/task_manager.c ****                 //then get the highest priority task in pend list
1038:SYS/task_manager/task_manager.c ****                 //compare with NxtRunTsk_Ptr
1039:SYS/task_manager/task_manager.c ****                 if (Task_PriorityCompare(NxtRunTsk_Ptr, PndHstTsk_Ptr) == PndHstTsk_Ptr)
 1901              		.loc 1 1039 0
 1902 005a 3146     		mov	r1, r6
 1903 005c FFF7FEFF 		bl	Task_PriorityCompare
 1904              	.LVL123:
 1905 0060 8642     		cmp	r6, r0
 1906 0062 10D1     		bne	.L125
1040:SYS/task_manager/task_manager.c ****                 {
ARM GAS  C:\Users\why\AppData\Local\Temp\ccNE1a8I.s 			page 55


1041:SYS/task_manager/task_manager.c ****                     PndHstTsk_Ptr->Exec_status.State = Task_Running;
 1907              		.loc 1 1041 0
 1908 0064 0123     		movs	r3, #1
 1909 0066 86F84830 		strb	r3, [r6, #72]
1042:SYS/task_manager/task_manager.c ****                     NxtRunTsk_Ptr = PndHstTsk_Ptr;
 1910              		.loc 1 1042 0
 1911 006a 334B     		ldr	r3, .L130+12
 1912 006c 1E60     		str	r6, [r3]
1043:SYS/task_manager/task_manager.c **** 
1044:SYS/task_manager/task_manager.c ****                     Task_ClearPending(NxtRunTsk_Ptr);
 1913              		.loc 1 1044 0
 1914 006e 3046     		mov	r0, r6
 1915 0070 FFF7FEFF 		bl	Task_ClearPending
 1916              	.LVL124:
 1917 0074 07E0     		b	.L125
 1918              	.L124:
1045:SYS/task_manager/task_manager.c ****                 }
1046:SYS/task_manager/task_manager.c ****             }
1047:SYS/task_manager/task_manager.c ****             else
1048:SYS/task_manager/task_manager.c ****             {
1049:SYS/task_manager/task_manager.c ****                 //if NxtRunTsk_Ptr is NULL
1050:SYS/task_manager/task_manager.c ****                 //then set NxtRunTsk_Ptr PndHstTsk_Ptr
1051:SYS/task_manager/task_manager.c ****                 PndHstTsk_Ptr->Exec_status.State = Task_Running;
 1919              		.loc 1 1051 0
 1920 0076 0123     		movs	r3, #1
 1921 0078 86F84830 		strb	r3, [r6, #72]
1052:SYS/task_manager/task_manager.c ****                 NxtRunTsk_Ptr = PndHstTsk_Ptr;
 1922              		.loc 1 1052 0
 1923 007c 2E4B     		ldr	r3, .L130+12
 1924 007e 1E60     		str	r6, [r3]
1053:SYS/task_manager/task_manager.c **** 
1054:SYS/task_manager/task_manager.c ****                 Task_ClearPending(NxtRunTsk_Ptr);
 1925              		.loc 1 1054 0
 1926 0080 3046     		mov	r0, r6
 1927 0082 FFF7FEFF 		bl	Task_ClearPending
 1928              	.LVL125:
 1929              	.L125:
1055:SYS/task_manager/task_manager.c ****             }
1056:SYS/task_manager/task_manager.c **** 
1057:SYS/task_manager/task_manager.c ****             NxtTsk_TCB.Top_Stk_Ptr = &NxtRunTsk_Ptr->TCB.Top_Stk_Ptr;
 1930              		.loc 1 1057 0
 1931 0086 2C4B     		ldr	r3, .L130+12
 1932 0088 1A68     		ldr	r2, [r3]
 1933 008a 02F15001 		add	r1, r2, #80
 1934 008e 2D4B     		ldr	r3, .L130+24
 1935 0090 1960     		str	r1, [r3]
1058:SYS/task_manager/task_manager.c ****             NxtTsk_TCB.Stack = NxtRunTsk_Ptr->TCB.Stack;
 1936              		.loc 1 1058 0
 1937 0092 526D     		ldr	r2, [r2, #84]
 1938 0094 5A60     		str	r2, [r3, #4]
1059:SYS/task_manager/task_manager.c **** 
1060:SYS/task_manager/task_manager.c ****             Task_TriggerPendSV();
 1939              		.loc 1 1060 0
 1940 0096 FFF7FEFF 		bl	Task_TriggerPendSV
 1941              	.LVL126:
1061:SYS/task_manager/task_manager.c ****             return;
 1942              		.loc 1 1061 0
ARM GAS  C:\Users\why\AppData\Local\Temp\ccNE1a8I.s 			page 56


 1943 009a 70BD     		pop	{r4, r5, r6, pc}
 1944              	.L121:
1062:SYS/task_manager/task_manager.c ****         }
1063:SYS/task_manager/task_manager.c ****     }
1064:SYS/task_manager/task_manager.c ****     else
1065:SYS/task_manager/task_manager.c ****     {
1066:SYS/task_manager/task_manager.c ****         if (CurRunTsk_Ptr != NxtRunTsk_Ptr)
 1945              		.loc 1 1066 0
 1946 009c 264B     		ldr	r3, .L130+12
 1947 009e 1C68     		ldr	r4, [r3]
 1948 00a0 A542     		cmp	r5, r4
 1949 00a2 28D0     		beq	.L126
1067:SYS/task_manager/task_manager.c ****         {
1068:SYS/task_manager/task_manager.c ****             if ((NxtRunTsk_Ptr != NULL) && (Task_PriorityCompare(CurRunTsk_Ptr, NxtRunTsk_Ptr) == N
 1950              		.loc 1 1068 0
 1951 00a4 002C     		cmp	r4, #0
 1952 00a6 3FD0     		beq	.L119
 1953              		.loc 1 1068 0 is_stmt 0 discriminator 1
 1954 00a8 2146     		mov	r1, r4
 1955 00aa 2846     		mov	r0, r5
 1956 00ac FFF7FEFF 		bl	Task_PriorityCompare
 1957              	.LVL127:
 1958 00b0 8442     		cmp	r4, r0
 1959 00b2 39D1     		bne	.L119
1069:SYS/task_manager/task_manager.c ****             {
1070:SYS/task_manager/task_manager.c ****                 //if NxtRunTsk_Ptr group priority is higher then CurRunTsk_Ptr also PndHstTsk_Ptr
1071:SYS/task_manager/task_manager.c ****                 //set current run task as pending state first
1072:SYS/task_manager/task_manager.c ****                 Task_SetPending(CurRunTsk_Ptr);
 1960              		.loc 1 1072 0 is_stmt 1
 1961 00b4 2846     		mov	r0, r5
 1962 00b6 FFF7FEFF 		bl	Task_SetPending
 1963              	.LVL128:
1073:SYS/task_manager/task_manager.c ****                 Task_ClearReady(CurRunTsk_Ptr);
 1964              		.loc 1 1073 0
 1965 00ba 214B     		ldr	r3, .L130+20
 1966 00bc 1868     		ldr	r0, [r3]
 1967 00be FFF7FEFF 		bl	Task_ClearReady
 1968              	.LVL129:
1074:SYS/task_manager/task_manager.c **** 
1075:SYS/task_manager/task_manager.c ****                 //get the highset priority task in pending list
1076:SYS/task_manager/task_manager.c ****                 //if PndHstTsk_Ptr is not NULL
1077:SYS/task_manager/task_manager.c ****                 //then compare the priority between the NxtRunTsk_Ptr and PndHstTsk_Ptr
1078:SYS/task_manager/task_manager.c ****                 if (PndHstTsk_Ptr != NULL)
 1969              		.loc 1 1078 0
 1970 00c2 1E4B     		ldr	r3, .L130+16
 1971 00c4 1C68     		ldr	r4, [r3]
 1972 00c6 44B1     		cbz	r4, .L127
1079:SYS/task_manager/task_manager.c ****                 {
1080:SYS/task_manager/task_manager.c ****                     if (Task_PriorityCompare(PndHstTsk_Ptr, NxtRunTsk_Ptr) == PndHstTsk_Ptr)
 1973              		.loc 1 1080 0
 1974 00c8 1B4B     		ldr	r3, .L130+12
 1975 00ca 1968     		ldr	r1, [r3]
 1976 00cc 2046     		mov	r0, r4
 1977 00ce FFF7FEFF 		bl	Task_PriorityCompare
 1978              	.LVL130:
 1979 00d2 8442     		cmp	r4, r0
 1980 00d4 01D1     		bne	.L127
ARM GAS  C:\Users\why\AppData\Local\Temp\ccNE1a8I.s 			page 57


1081:SYS/task_manager/task_manager.c ****                     {
1082:SYS/task_manager/task_manager.c ****                         NxtRunTsk_Ptr = PndHstTsk_Ptr;
 1981              		.loc 1 1082 0
 1982 00d6 184B     		ldr	r3, .L130+12
 1983 00d8 1C60     		str	r4, [r3]
 1984              	.L127:
1083:SYS/task_manager/task_manager.c ****                     }
1084:SYS/task_manager/task_manager.c ****                 }
1085:SYS/task_manager/task_manager.c **** 
1086:SYS/task_manager/task_manager.c ****                 Task_SetReady(NxtRunTsk_Ptr);
 1985              		.loc 1 1086 0
 1986 00da 174C     		ldr	r4, .L130+12
 1987 00dc 2068     		ldr	r0, [r4]
 1988 00de FFF7FEFF 		bl	Task_SetReady
 1989              	.LVL131:
1087:SYS/task_manager/task_manager.c ****                 NxtTsk_TCB.Top_Stk_Ptr = &NxtRunTsk_Ptr->TCB.Top_Stk_Ptr;
 1990              		.loc 1 1087 0
 1991 00e2 2268     		ldr	r2, [r4]
 1992 00e4 02F15001 		add	r1, r2, #80
 1993 00e8 164B     		ldr	r3, .L130+24
 1994 00ea 1960     		str	r1, [r3]
1088:SYS/task_manager/task_manager.c ****                 NxtTsk_TCB.Stack = NxtRunTsk_Ptr->TCB.Stack;
 1995              		.loc 1 1088 0
 1996 00ec 526D     		ldr	r2, [r2, #84]
 1997 00ee 5A60     		str	r2, [r3, #4]
1089:SYS/task_manager/task_manager.c **** 
1090:SYS/task_manager/task_manager.c ****                 Task_TriggerPendSV();
 1998              		.loc 1 1090 0
 1999 00f0 FFF7FEFF 		bl	Task_TriggerPendSV
 2000              	.LVL132:
1091:SYS/task_manager/task_manager.c ****                 return;
 2001              		.loc 1 1091 0
 2002 00f4 70BD     		pop	{r4, r5, r6, pc}
 2003              	.L126:
1092:SYS/task_manager/task_manager.c ****             }
1093:SYS/task_manager/task_manager.c ****         }
1094:SYS/task_manager/task_manager.c ****         else
1095:SYS/task_manager/task_manager.c ****         {
1096:SYS/task_manager/task_manager.c ****             //compare with the highest priority pending task
1097:SYS/task_manager/task_manager.c ****             if ((PndHstTsk_Ptr != NULL) && (Task_PriorityCompare(CurRunTsk_Ptr, NxtRunTsk_Ptr) == P
 2004              		.loc 1 1097 0
 2005 00f6 B8B1     		cbz	r0, .L119
 2006              		.loc 1 1097 0 is_stmt 0 discriminator 1
 2007 00f8 2146     		mov	r1, r4
 2008 00fa 2846     		mov	r0, r5
 2009 00fc FFF7FEFF 		bl	Task_PriorityCompare
 2010              	.LVL133:
 2011 0100 8642     		cmp	r6, r0
 2012 0102 11D1     		bne	.L119
1098:SYS/task_manager/task_manager.c ****             {
1099:SYS/task_manager/task_manager.c ****                 //if PndHstTsk_Ptr group priority is higher then CurRunTsk_Ptr
1100:SYS/task_manager/task_manager.c ****                 //set current run task as pending state first
1101:SYS/task_manager/task_manager.c ****                 Task_SetPending(CurRunTsk_Ptr);
 2013              		.loc 1 1101 0 is_stmt 1
 2014 0104 2846     		mov	r0, r5
 2015 0106 FFF7FEFF 		bl	Task_SetPending
 2016              	.LVL134:
ARM GAS  C:\Users\why\AppData\Local\Temp\ccNE1a8I.s 			page 58


1102:SYS/task_manager/task_manager.c ****                 Task_SetReady(PndHstTsk_Ptr);
 2017              		.loc 1 1102 0
 2018 010a 0C4C     		ldr	r4, .L130+16
 2019 010c 2068     		ldr	r0, [r4]
 2020 010e FFF7FEFF 		bl	Task_SetReady
 2021              	.LVL135:
1103:SYS/task_manager/task_manager.c **** 
1104:SYS/task_manager/task_manager.c ****                 NxtRunTsk_Ptr = PndHstTsk_Ptr;
 2022              		.loc 1 1104 0
 2023 0112 2368     		ldr	r3, [r4]
 2024 0114 084A     		ldr	r2, .L130+12
 2025 0116 1360     		str	r3, [r2]
1105:SYS/task_manager/task_manager.c ****                 NxtTsk_TCB.Top_Stk_Ptr = &NxtRunTsk_Ptr->TCB.Top_Stk_Ptr;
 2026              		.loc 1 1105 0
 2027 0118 03F15001 		add	r1, r3, #80
 2028 011c 094A     		ldr	r2, .L130+24
 2029 011e 1160     		str	r1, [r2]
1106:SYS/task_manager/task_manager.c ****                 NxtTsk_TCB.Stack = NxtRunTsk_Ptr->TCB.Stack;
 2030              		.loc 1 1106 0
 2031 0120 5B6D     		ldr	r3, [r3, #84]
 2032 0122 5360     		str	r3, [r2, #4]
1107:SYS/task_manager/task_manager.c **** 
1108:SYS/task_manager/task_manager.c ****                 Task_TriggerPendSV();
 2033              		.loc 1 1108 0
 2034 0124 FFF7FEFF 		bl	Task_TriggerPendSV
 2035              	.LVL136:
 2036              	.L119:
 2037 0128 70BD     		pop	{r4, r5, r6, pc}
 2038              	.L129:
 2039              	.LCFI35:
 2040              		.cfi_def_cfa_offset 0
 2041              		.cfi_restore 4
 2042              		.cfi_restore 5
 2043              		.cfi_restore 6
 2044              		.cfi_restore 14
 2045 012a 7047     		bx	lr
 2046              	.L131:
 2047              		.align	2
 2048              	.L130:
 2049 012c 00000000 		.word	.LANCHOR6
 2050 0130 00000000 		.word	Task_CrtList_TraversePoll_callback
 2051 0134 04000000 		.word	.LANCHOR4+4
 2052 0138 00000000 		.word	.LANCHOR10
 2053 013c 00000000 		.word	.LANCHOR12
 2054 0140 00000000 		.word	.LANCHOR5
 2055 0144 00000000 		.word	NxtTsk_TCB
 2056              		.cfi_endproc
 2057              	.LFE170:
 2059              		.section	.text.Task_Force_TriggerPendSV,"ax",%progbits
 2060              		.align	2
 2061              		.global	Task_Force_TriggerPendSV
 2062              		.thumb
 2063              		.thumb_func
 2065              	Task_Force_TriggerPendSV:
 2066              	.LFB151:
 597:SYS/task_manager/task_manager.c ****     /* Barriers are normally not required but do ensure the code is completely \
 2067              		.loc 1 597 0
ARM GAS  C:\Users\why\AppData\Local\Temp\ccNE1a8I.s 			page 59


 2068              		.cfi_startproc
 2069              		@ args = 0, pretend = 0, frame = 0
 2070              		@ frame_needed = 0, uses_anonymous_args = 0
 2071 0000 08B5     		push	{r3, lr}
 2072              	.LCFI36:
 2073              		.cfi_def_cfa_offset 8
 2074              		.cfi_offset 3, -8
 2075              		.cfi_offset 14, -4
 600:SYS/task_manager/task_manager.c ****                        : "memory");
 2076              		.loc 1 600 0
 2077              		.syntax unified
 2078              	@ 600 "SYS/task_manager/task_manager.c" 1
 2079 0002 BFF34F8F 		dsb
 2080              	@ 0 "" 2
 602:SYS/task_manager/task_manager.c ****     Task_TriggerPendSV();
 2081              		.loc 1 602 0
 2082              	@ 602 "SYS/task_manager/task_manager.c" 1
 2083 0006 BFF36F8F 		isb
 2084              	@ 0 "" 2
 603:SYS/task_manager/task_manager.c **** }
 2085              		.loc 1 603 0
 2086              		.thumb
 2087              		.syntax unified
 2088 000a FFF7FEFF 		bl	Task_TriggerPendSV
 2089              	.LVL137:
 2090 000e 08BD     		pop	{r3, pc}
 2091              		.cfi_endproc
 2092              	.LFE151:
 2094              		.section	.text.Task_Get_TaskNum,"ax",%progbits
 2095              		.align	2
 2096              		.global	Task_Get_TaskNum
 2097              		.thumb
 2098              		.thumb_func
 2100              	Task_Get_TaskNum:
 2101              	.LFB152:
 607:SYS/task_manager/task_manager.c ****     return TskCrt_RegList.num;
 2102              		.loc 1 607 0
 2103              		.cfi_startproc
 2104              		@ args = 0, pretend = 0, frame = 0
 2105              		@ frame_needed = 0, uses_anonymous_args = 0
 2106              		@ link register save eliminated.
 609:SYS/task_manager/task_manager.c **** 
 2107              		.loc 1 609 0
 2108 0000 014B     		ldr	r3, .L135
 2109 0002 1878     		ldrb	r0, [r3]	@ zero_extendqisi2
 2110 0004 7047     		bx	lr
 2111              	.L136:
 2112 0006 00BF     		.align	2
 2113              	.L135:
 2114 0008 00000000 		.word	.LANCHOR4
 2115              		.cfi_endproc
 2116              	.LFE152:
 2118              		.global	__aeabi_ui2d
 2119              		.global	__aeabi_ddiv
 2120              		.global	__aeabi_d2uiz
 2121              		.section	.text.Task_Create,"ax",%progbits
 2122              		.align	2
ARM GAS  C:\Users\why\AppData\Local\Temp\ccNE1a8I.s 			page 60


 2123              		.global	Task_Create
 2124              		.thumb
 2125              		.thumb_func
 2127              	Task_Create:
 2128              	.LFB154:
 656:SYS/task_manager/task_manager.c ****     Task_Handler handle;
 2129              		.loc 1 656 0
 2130              		.cfi_startproc
 2131              		@ args = 8, pretend = 0, frame = 0
 2132              		@ frame_needed = 0, uses_anonymous_args = 0
 2133              	.LVL138:
 2134 0000 2DE9F84F 		push	{r3, r4, r5, r6, r7, r8, r9, r10, fp, lr}
 2135              	.LCFI37:
 2136              		.cfi_def_cfa_offset 40
 2137              		.cfi_offset 3, -40
 2138              		.cfi_offset 4, -36
 2139              		.cfi_offset 5, -32
 2140              		.cfi_offset 6, -28
 2141              		.cfi_offset 7, -24
 2142              		.cfi_offset 8, -20
 2143              		.cfi_offset 9, -16
 2144              		.cfi_offset 10, -12
 2145              		.cfi_offset 11, -8
 2146              		.cfi_offset 14, -4
 2147 0004 8046     		mov	r8, r0
 2148 0006 0F46     		mov	r7, r1
 2149 0008 1646     		mov	r6, r2
 2150 000a 1D46     		mov	r5, r3
 2151              	.LVL139:
 662:SYS/task_manager/task_manager.c ****     {
 2152              		.loc 1 662 0
 2153 000c 784B     		ldr	r3, .L146+8
 2154              	.LVL140:
 2155 000e 1B78     		ldrb	r3, [r3]	@ zero_extendqisi2
 2156 0010 23B9     		cbnz	r3, .L138
 664:SYS/task_manager/task_manager.c ****         taskOs_InitState = true;
 2157              		.loc 1 664 0
 2158 0012 FFF7FEFF 		bl	TaskSys_Init
 2159              	.LVL141:
 665:SYS/task_manager/task_manager.c ****     }
 2160              		.loc 1 665 0
 2161 0016 0122     		movs	r2, #1
 2162 0018 754B     		ldr	r3, .L146+8
 2163 001a 1A70     		strb	r2, [r3]
 2164              	.L138:
 669:SYS/task_manager/task_manager.c ****     {
 2165              		.loc 1 669 0
 2166 001c 05EBC603 		add	r3, r5, r6, lsl #3
 2167 0020 744A     		ldr	r2, .L146+12
 2168 0022 52F82330 		ldr	r3, [r2, r3, lsl #2]
 2169 0026 002B     		cmp	r3, #0
 2170 0028 40F0D280 		bne	.L142
 675:SYS/task_manager/task_manager.c **** 
 2171              		.loc 1 675 0
 2172 002c 9020     		movs	r0, #144
 2173 002e FFF7FEFF 		bl	malloc
 2174              	.LVL142:
ARM GAS  C:\Users\why\AppData\Local\Temp\ccNE1a8I.s 			page 61


 2175 0032 0446     		mov	r4, r0
 2176 0034 DFF8BCA1 		ldr	r10, .L146+12
 2177 0038 4FEAC609 		lsl	r9, r6, #3
 2178 003c 09EB050B 		add	fp, r9, r5
 2179 0040 4AF82B00 		str	r0, [r10, fp, lsl #2]
 2180              	.LVL143:
 680:SYS/task_manager/task_manager.c **** 
 2181              		.loc 1 680 0
 2182 0044 C0F80480 		str	r8, [r0, #4]
 682:SYS/task_manager/task_manager.c ****     Task_Ptr[group][priority]->exec_interval_us = RUNTIEM_MAX_TICK_FRQ / frq;
 2183              		.loc 1 682 0
 2184 0048 8760     		str	r7, [r0, #8]
 683:SYS/task_manager/task_manager.c ****     Task_Ptr[group][priority]->Exec_Func = func;
 2185              		.loc 1 683 0
 2186 004a 3846     		mov	r0, r7
 2187              	.LVL144:
 2188 004c FFF7FEFF 		bl	__aeabi_ui2d
 2189              	.LVL145:
 2190 0050 0246     		mov	r2, r0
 2191 0052 0B46     		mov	r3, r1
 2192 0054 64A1     		adr	r1, .L146
 2193 0056 D1E90001 		ldrd	r0, [r1]
 2194 005a FFF7FEFF 		bl	__aeabi_ddiv
 2195              	.LVL146:
 2196 005e FFF7FEFF 		bl	__aeabi_d2uiz
 2197              	.LVL147:
 2198 0062 A081     		strh	r0, [r4, #12]	@ movhi
 684:SYS/task_manager/task_manager.c **** 
 2199              		.loc 1 684 0
 2200 0064 0A9B     		ldr	r3, [sp, #40]
 2201 0066 2361     		str	r3, [r4, #16]
 686:SYS/task_manager/task_manager.c **** 
 2202              		.loc 1 686 0
 2203 0068 49EA0509 		orr	r9, r9, r5
 2204 006c 84F80090 		strb	r9, [r4]
 690:SYS/task_manager/task_manager.c ****     Task_Ptr[group][priority]->delay_info.tsk_hdl = handle;
 2205              		.loc 1 690 0
 2206 0070 0023     		movs	r3, #0
 2207 0072 84F86430 		strb	r3, [r4, #100]
 691:SYS/task_manager/task_manager.c ****     Task_Ptr[group][priority]->delay_info.time_unit = 0;
 2208              		.loc 1 691 0
 2209 0076 A466     		str	r4, [r4, #104]
 692:SYS/task_manager/task_manager.c **** 
 2210              		.loc 1 692 0
 2211 0078 E366     		str	r3, [r4, #108]
 695:SYS/task_manager/task_manager.c ****     Task_Ptr[group][priority]->TCB.Stack = (uint32_t *)malloc(StackDepth * sizeof(uint32_t));
 2212              		.loc 1 695 0
 2213 007a 0B9B     		ldr	r3, [sp, #44]
 2214 007c E364     		str	r3, [r4, #76]
 696:SYS/task_manager/task_manager.c **** 
 2215              		.loc 1 696 0
 2216 007e 9800     		lsls	r0, r3, #2
 2217 0080 FFF7FEFF 		bl	malloc
 2218              	.LVL148:
 2219 0084 6065     		str	r0, [r4, #84]
 698:SYS/task_manager/task_manager.c ****     {
 2220              		.loc 1 698 0
ARM GAS  C:\Users\why\AppData\Local\Temp\ccNE1a8I.s 			page 62


 2221 0086 5AF82B00 		ldr	r0, [r10, fp, lsl #2]
 2222 008a 436D     		ldr	r3, [r0, #84]
 2223 008c 002B     		cmp	r3, #0
 2224 008e 00F0A280 		beq	.L143
 700:SYS/task_manager/task_manager.c ****     }
 2225              		.loc 1 700 0
 2226 0092 FFF7FEFF 		bl	Task_SetStkPtr_Val
 2227              	.LVL149:
 708:SYS/task_manager/task_manager.c ****     Task_Ptr[group][priority]->statistics_reg.Reg.TskFun_Statistics_REG = stop_statistics;
 2228              		.loc 1 708 0
 2229 0096 5746     		mov	r7, r10
 2230              	.LVL150:
 2231 0098 05EBC608 		add	r8, r5, r6, lsl #3
 2232              	.LVL151:
 2233 009c 5AF82830 		ldr	r3, [r10, r8, lsl #2]
 2234 00a0 93F85820 		ldrb	r2, [r3, #88]	@ zero_extendqisi2
 2235 00a4 6FF30302 		bfc	r2, #0, #4
 2236 00a8 83F85820 		strb	r2, [r3, #88]
 709:SYS/task_manager/task_manager.c **** 
 2237              		.loc 1 709 0
 2238 00ac 5AF82830 		ldr	r3, [r10, r8, lsl #2]
 2239 00b0 93F85820 		ldrb	r2, [r3, #88]	@ zero_extendqisi2
 2240 00b4 6FF30712 		bfc	r2, #4, #4
 2241 00b8 83F85820 		strb	r2, [r3, #88]
 712:SYS/task_manager/task_manager.c ****     Task_Ptr[group][priority]->CallerUsing_US = 0;
 2242              		.loc 1 712 0
 2243 00bc 5AF82830 		ldr	r3, [r10, r8, lsl #2]
 2244 00c0 4FF00009 		mov	r9, #0
 2245 00c4 C3F85C90 		str	r9, [r3, #92]
 713:SYS/task_manager/task_manager.c **** 
 2246              		.loc 1 713 0
 2247 00c8 5AF82830 		ldr	r3, [r10, r8, lsl #2]
 2248 00cc C3F86090 		str	r9, [r3, #96]
 716:SYS/task_manager/task_manager.c ****     Task_Ptr[group][priority]->Exec_status.totlal_running_time = 0;
 2249              		.loc 1 716 0
 2250 00d0 5AF82830 		ldr	r3, [r10, r8, lsl #2]
 2251 00d4 0022     		movs	r2, #0
 2252 00d6 5A64     		str	r2, [r3, #68]	@ float
 717:SYS/task_manager/task_manager.c **** 
 2253              		.loc 1 717 0
 2254 00d8 5AF82830 		ldr	r3, [r10, r8, lsl #2]
 2255 00dc C3F84090 		str	r9, [r3, #64]
 720:SYS/task_manager/task_manager.c ****     //set current task under this group flag to ready
 2256              		.loc 1 720 0
 2257 00e0 454A     		ldr	r2, .L146+16
 2258 00e2 92F800E0 		ldrb	lr, [r2]	@ zero_extendqisi2
 2259 00e6 5AF82800 		ldr	r0, [r10, r8, lsl #2]
 2260 00ea 0178     		ldrb	r1, [r0]	@ zero_extendqisi2
 2261 00ec 0123     		movs	r3, #1
 2262 00ee 03FA01F1 		lsl	r1, r3, r1
 2263 00f2 4EEAE101 		orr	r1, lr, r1, asr #3
 2264 00f6 C9B2     		uxtb	r1, r1
 2265 00f8 1170     		strb	r1, [r2]
 722:SYS/task_manager/task_manager.c **** 
 2266              		.loc 1 722 0
 2267 00fa 0178     		ldrb	r1, [r0]	@ zero_extendqisi2
 2268 00fc 02EBD102 		add	r2, r2, r1, lsr #3
ARM GAS  C:\Users\why\AppData\Local\Temp\ccNE1a8I.s 			page 63


 2269 0100 92F801E0 		ldrb	lr, [r2, #1]	@ zero_extendqisi2
 2270 0104 8B40     		lsls	r3, r3, r1
 2271 0106 03F00703 		and	r3, r3, #7
 2272 010a 4EEA0303 		orr	r3, lr, r3
 2273 010e 5370     		strb	r3, [r2, #1]
 724:SYS/task_manager/task_manager.c ****     Task_Ptr[group][priority]->Exec_status.detect_exec_time_arv = 0;
 2274              		.loc 1 724 0
 2275 0110 C0F82C90 		str	r9, [r0, #44]
 725:SYS/task_manager/task_manager.c ****     Task_Ptr[group][priority]->Exec_status.detect_exec_time_max = 0;
 2276              		.loc 1 725 0
 2277 0114 5AF82830 		ldr	r3, [r10, r8, lsl #2]
 2278 0118 C3F83090 		str	r9, [r3, #48]
 726:SYS/task_manager/task_manager.c **** 
 2279              		.loc 1 726 0
 2280 011c 5AF82830 		ldr	r3, [r10, r8, lsl #2]
 2281 0120 C3F83490 		str	r9, [r3, #52]
 728:SYS/task_manager/task_manager.c ****     RuntimeObj_Reset(&(Task_Ptr[group][priority]->Exec_status.Init_Time));
 2282              		.loc 1 728 0
 2283 0124 5AF82800 		ldr	r0, [r10, r8, lsl #2]
 2284 0128 2430     		adds	r0, r0, #36
 2285 012a FFF7FEFF 		bl	RuntimeObj_Reset
 2286              	.LVL152:
 729:SYS/task_manager/task_manager.c ****     RuntimeObj_Reset(&(Task_Ptr[group][priority]->Exec_status.Start_Time));
 2287              		.loc 1 729 0
 2288 012e 5AF82800 		ldr	r0, [r10, r8, lsl #2]
 2289 0132 1430     		adds	r0, r0, #20
 2290 0134 FFF7FEFF 		bl	RuntimeObj_Reset
 2291              	.LVL153:
 730:SYS/task_manager/task_manager.c **** 
 2292              		.loc 1 730 0
 2293 0138 5AF82800 		ldr	r0, [r10, r8, lsl #2]
 2294 013c 1C30     		adds	r0, r0, #28
 2295 013e FFF7FEFF 		bl	RuntimeObj_Reset
 2296              	.LVL154:
 732:SYS/task_manager/task_manager.c **** 
 2297              		.loc 1 732 0
 2298 0142 5AF828A0 		ldr	r10, [r10, r8, lsl #2]
 2299 0146 FFF7FEFF 		bl	Get_CurrentRunningUs
 2300              	.LVL155:
 2301 014a CAF81400 		str	r0, [r10, #20]
 2302 014e CAF81810 		str	r1, [r10, #24]
 734:SYS/task_manager/task_manager.c ****     Task_Ptr[group][priority]->Exec_status.error_code = NOERROR;
 2303              		.loc 1 734 0
 2304 0152 57F82830 		ldr	r3, [r7, r8, lsl #2]
 2305 0156 C3F83890 		str	r9, [r3, #56]
 735:SYS/task_manager/task_manager.c **** 
 2306              		.loc 1 735 0
 2307 015a 57F82830 		ldr	r3, [r7, r8, lsl #2]
 2308 015e 83F83C90 		strb	r9, [r3, #60]
 737:SYS/task_manager/task_manager.c **** 
 2309              		.loc 1 737 0
 2310 0162 57F82800 		ldr	r0, [r7, r8, lsl #2]
 2311 0166 FFF7FEFF 		bl	Task_SetReady
 2312              	.LVL156:
 743:SYS/task_manager/task_manager.c ****     if (Task_Ptr[group][priority]->item_ptr == NULL)
 2313              		.loc 1 743 0
 2314 016a 57F82890 		ldr	r9, [r7, r8, lsl #2]
ARM GAS  C:\Users\why\AppData\Local\Temp\ccNE1a8I.s 			page 64


 2315 016e 1420     		movs	r0, #20
 2316 0170 FFF7FEFF 		bl	malloc
 2317              	.LVL157:
 2318 0174 C9F87800 		str	r0, [r9, #120]
 744:SYS/task_manager/task_manager.c ****     {
 2319              		.loc 1 744 0
 2320 0178 57F82810 		ldr	r1, [r7, r8, lsl #2]
 2321 017c 886F     		ldr	r0, [r1, #120]
 2322 017e 68B3     		cbz	r0, .L144
 749:SYS/task_manager/task_manager.c ****     if (TskCrt_RegList.num == 0)
 2323              		.loc 1 749 0
 2324 0180 FFF7FEFF 		bl	List_ItemInit
 2325              	.LVL158:
 750:SYS/task_manager/task_manager.c ****     {
 2326              		.loc 1 750 0
 2327 0184 1D4B     		ldr	r3, .L146+20
 2328 0186 1B78     		ldrb	r3, [r3]	@ zero_extendqisi2
 2329 0188 43B9     		cbnz	r3, .L140
 752:SYS/task_manager/task_manager.c ****     }
 2330              		.loc 1 752 0
 2331 018a 57F82810 		ldr	r1, [r7, r8, lsl #2]
 2332 018e 1C4B     		ldr	r3, .L146+24
 2333 0190 0222     		movs	r2, #2
 2334 0192 896F     		ldr	r1, [r1, #120]
 2335 0194 1B48     		ldr	r0, .L146+28
 2336 0196 FFF7FEFF 		bl	List_Init
 2337              	.LVL159:
 2338 019a 08E0     		b	.L141
 2339              	.L140:
 756:SYS/task_manager/task_manager.c ****     }
 2340              		.loc 1 756 0
 2341 019c 05EBC603 		add	r3, r5, r6, lsl #3
 2342 01a0 144A     		ldr	r2, .L146+12
 2343 01a2 52F82330 		ldr	r3, [r2, r3, lsl #2]
 2344 01a6 996F     		ldr	r1, [r3, #120]
 2345 01a8 1648     		ldr	r0, .L146+28
 2346 01aa FFF7FEFF 		bl	List_Insert_Item
 2347              	.LVL160:
 2348              	.L141:
 759:SYS/task_manager/task_manager.c **** 
 2349              		.loc 1 759 0
 2350 01ae 05EBC605 		add	r5, r5, r6, lsl #3
 2351 01b2 104B     		ldr	r3, .L146+12
 2352 01b4 53F82500 		ldr	r0, [r3, r5, lsl #2]
 2353 01b8 00F16401 		add	r1, r0, #100
 2354 01bc 7C30     		adds	r0, r0, #124
 2355 01be FFF7FEFF 		bl	List_ItemInit
 2356              	.LVL161:
 761:SYS/task_manager/task_manager.c **** 
 2357              		.loc 1 761 0
 2358 01c2 0E4A     		ldr	r2, .L146+20
 2359 01c4 1378     		ldrb	r3, [r2]	@ zero_extendqisi2
 2360 01c6 0133     		adds	r3, r3, #1
 2361 01c8 1370     		strb	r3, [r2]
 763:SYS/task_manager/task_manager.c **** }
 2362              		.loc 1 763 0
 2363 01ca 2046     		mov	r0, r4
ARM GAS  C:\Users\why\AppData\Local\Temp\ccNE1a8I.s 			page 65


 2364 01cc BDE8F88F 		pop	{r3, r4, r5, r6, r7, r8, r9, r10, fp, pc}
 2365              	.LVL162:
 2366              	.L142:
 671:SYS/task_manager/task_manager.c ****     }
 2367              		.loc 1 671 0
 2368 01d0 0120     		movs	r0, #1
 2369 01d2 BDE8F88F 		pop	{r3, r4, r5, r6, r7, r8, r9, r10, fp, pc}
 2370              	.LVL163:
 2371              	.L143:
 704:SYS/task_manager/task_manager.c ****     }
 2372              		.loc 1 704 0
 2373 01d6 0020     		movs	r0, #0
 2374 01d8 BDE8F88F 		pop	{r3, r4, r5, r6, r7, r8, r9, r10, fp, pc}
 2375              	.LVL164:
 2376              	.L144:
 746:SYS/task_manager/task_manager.c ****     }
 2377              		.loc 1 746 0
 2378 01dc 0020     		movs	r0, #0
 764:SYS/task_manager/task_manager.c **** 
 2379              		.loc 1 764 0
 2380 01de BDE8F88F 		pop	{r3, r4, r5, r6, r7, r8, r9, r10, fp, pc}
 2381              	.LVL165:
 2382              	.L147:
 2383 01e2 00BFAFF3 		.align	3
 2383      0080
 2384              	.L146:
 2385 01e8 00000000 		.word	0
 2386 01ec 80842E41 		.word	1093567616
 2387 01f0 00000000 		.word	.LANCHOR13
 2388 01f4 00000000 		.word	Task_Ptr
 2389 01f8 00000000 		.word	.LANCHOR0
 2390 01fc 00000000 		.word	.LANCHOR4
 2391 0200 00000000 		.word	Task_PriorityCompare
 2392 0204 04000000 		.word	.LANCHOR4+4
 2393              		.cfi_endproc
 2394              	.LFE154:
 2396              		.section	.text.Task_Remove,"ax",%progbits
 2397              		.align	2
 2398              		.global	Task_Remove
 2399              		.thumb
 2400              		.thumb_func
 2402              	Task_Remove:
 2403              	.LFB158:
 793:SYS/task_manager/task_manager.c ****     //convert Tsk_Hdl from uint32_t var to Task Address which we need to delete
 2404              		.loc 1 793 0
 2405              		.cfi_startproc
 2406              		@ args = 0, pretend = 0, frame = 0
 2407              		@ frame_needed = 0, uses_anonymous_args = 0
 2408              	.LVL166:
 2409 0000 70B5     		push	{r4, r5, r6, lr}
 2410              	.LCFI38:
 2411              		.cfi_def_cfa_offset 16
 2412              		.cfi_offset 4, -16
 2413              		.cfi_offset 5, -12
 2414              		.cfi_offset 6, -8
 2415              		.cfi_offset 14, -4
 2416 0002 0546     		mov	r5, r0
ARM GAS  C:\Users\why\AppData\Local\Temp\ccNE1a8I.s 			page 66


 799:SYS/task_manager/task_manager.c ****     uint8_t remove_task = GET_TASKINGROUP_PRIORITY(((Task *)Tsk_Hdl)->priority.Priority);
 2417              		.loc 1 799 0
 2418 0004 0378     		ldrb	r3, [r0]	@ zero_extendqisi2
 2419 0006 DE08     		lsrs	r6, r3, #3
 2420              	.LVL167:
 800:SYS/task_manager/task_manager.c **** 
 2421              		.loc 1 800 0
 2422 0008 03F00704 		and	r4, r3, #7
 2423              	.LVL168:
 802:SYS/task_manager/task_manager.c **** 
 2424              		.loc 1 802 0
 2425 000c FFF7FEFF 		bl	ReSet_Task_Data
 2426              	.LVL169:
 805:SYS/task_manager/task_manager.c ****     free((uint32_t *)((Task *)Tsk_Hdl)->TCB.Top_Stk_Ptr);
 2427              		.loc 1 805 0
 2428 0010 686D     		ldr	r0, [r5, #84]
 2429 0012 FFF7FEFF 		bl	free
 2430              	.LVL170:
 806:SYS/task_manager/task_manager.c **** #endif
 2431              		.loc 1 806 0
 2432 0016 286D     		ldr	r0, [r5, #80]
 2433 0018 FFF7FEFF 		bl	free
 2434              	.LVL171:
 809:SYS/task_manager/task_manager.c ****     Task_Ptr[remove_group][remove_task] = NULL;
 2435              		.loc 1 809 0
 2436 001c 2846     		mov	r0, r5
 2437 001e FFF7FEFF 		bl	free
 2438              	.LVL172:
 810:SYS/task_manager/task_manager.c **** }
 2439              		.loc 1 810 0
 2440 0022 04EBC603 		add	r3, r4, r6, lsl #3
 2441 0026 0021     		movs	r1, #0
 2442 0028 014A     		ldr	r2, .L150
 2443 002a 42F82310 		str	r1, [r2, r3, lsl #2]
 2444 002e 70BD     		pop	{r4, r5, r6, pc}
 2445              	.LVL173:
 2446              	.L151:
 2447              		.align	2
 2448              	.L150:
 2449 0030 00000000 		.word	Task_Ptr
 2450              		.cfi_endproc
 2451              	.LFE158:
 2453              		.section	.text.TaskSystem_Start,"ax",%progbits
 2454              		.align	2
 2455              		.global	TaskSystem_Start
 2456              		.thumb
 2457              		.thumb_func
 2459              	TaskSystem_Start:
 2460              	.LFB159:
 814:SYS/task_manager/task_manager.c ****     Runtime_Config(RUNTIME_TICK_FRQ_40K);
 2461              		.loc 1 814 0
 2462              		.cfi_startproc
 2463              		@ args = 0, pretend = 0, frame = 0
 2464              		@ frame_needed = 0, uses_anonymous_args = 0
 2465 0000 10B5     		push	{r4, lr}
 2466              	.LCFI39:
 2467              		.cfi_def_cfa_offset 8
ARM GAS  C:\Users\why\AppData\Local\Temp\ccNE1a8I.s 			page 67


 2468              		.cfi_offset 4, -8
 2469              		.cfi_offset 14, -4
 815:SYS/task_manager/task_manager.c ****     Runtime_Set_start_Callback(NULL);
 2470              		.loc 1 815 0
 2471 0002 49F64040 		movw	r0, #40000
 2472 0006 FFF7FEFF 		bl	Runtime_Config
 2473              	.LVL174:
 816:SYS/task_manager/task_manager.c ****     Runtime_Set_stop_Callback(NULL);
 2474              		.loc 1 816 0
 2475 000a 0020     		movs	r0, #0
 2476 000c FFF7FEFF 		bl	Runtime_Set_start_Callback
 2477              	.LVL175:
 817:SYS/task_manager/task_manager.c ****     Runtime_Set_tick_Callback(Task_Scheduler); /* 5us cast by calling the scheduler */
 2478              		.loc 1 817 0
 2479 0010 0020     		movs	r0, #0
 2480 0012 FFF7FEFF 		bl	Runtime_Set_stop_Callback
 2481              	.LVL176:
 818:SYS/task_manager/task_manager.c ****     Runtime_Start();
 2482              		.loc 1 818 0
 2483 0016 1148     		ldr	r0, .L155
 2484 0018 FFF7FEFF 		bl	Runtime_Set_tick_Callback
 2485              	.LVL177:
 819:SYS/task_manager/task_manager.c **** 
 2486              		.loc 1 819 0
 2487 001c FFF7FEFF 		bl	Runtime_Start
 2488              	.LVL178:
 821:SYS/task_manager/task_manager.c **** 
 2489              		.loc 1 821 0
 2490 0020 0F4C     		ldr	r4, .L155+4
 2491 0022 2046     		mov	r0, r4
 2492 0024 FFF7FEFF 		bl	RuntimeObj_Reset
 2493              	.LVL179:
 823:SYS/task_manager/task_manager.c **** 
 2494              		.loc 1 823 0
 2495 0028 FFF7FEFF 		bl	Get_CurrentRunningUs
 2496              	.LVL180:
 2497 002c C4E90001 		strd	r0, [r4]
 826:SYS/task_manager/task_manager.c **** 
 2498              		.loc 1 826 0
 2499 0030 FFF7FEFF 		bl	Task_Get_HighestRank_RdyTask
 2500              	.LVL181:
 2501 0034 0B4B     		ldr	r3, .L155+8
 2502 0036 1860     		str	r0, [r3]
 828:SYS/task_manager/task_manager.c ****     {
 2503              		.loc 1 828 0
 2504 0038 50B1     		cbz	r0, .L153
 830:SYS/task_manager/task_manager.c ****         NxtTsk_TCB.Stack = NxtRunTsk_Ptr->TCB.Stack;
 2505              		.loc 1 830 0
 2506 003a 00F15002 		add	r2, r0, #80
 2507 003e 0A4B     		ldr	r3, .L155+12
 2508 0040 1A60     		str	r2, [r3]
 831:SYS/task_manager/task_manager.c **** 
 2509              		.loc 1 831 0
 2510 0042 426D     		ldr	r2, [r0, #84]
 2511 0044 5A60     		str	r2, [r3, #4]
 833:SYS/task_manager/task_manager.c ****     }
 2512              		.loc 1 833 0
ARM GAS  C:\Users\why\AppData\Local\Temp\ccNE1a8I.s 			page 68


 2513 0046 094A     		ldr	r2, .L155+16
 2514 0048 93E80300 		ldmia	r3, {r0, r1}
 2515 004c 82E80300 		stmia	r2, {r0, r1}
 2516              	.L153:
 837:SYS/task_manager/task_manager.c ****     Task_TriggerPendSV();
 2517              		.loc 1 837 0
 2518 0050 FFF7FEFF 		bl	Task_SetPendSVPro
 2519              	.LVL182:
 838:SYS/task_manager/task_manager.c **** 
 2520              		.loc 1 838 0
 2521 0054 FFF7FEFF 		bl	Task_TriggerPendSV
 2522              	.LVL183:
 2523 0058 10BD     		pop	{r4, pc}
 2524              	.L156:
 2525 005a 00BF     		.align	2
 2526              	.L155:
 2527 005c 00000000 		.word	Task_Scheduler
 2528 0060 00000000 		.word	.LANCHOR7
 2529 0064 00000000 		.word	.LANCHOR10
 2530 0068 00000000 		.word	NxtTsk_TCB
 2531 006c 00000000 		.word	CurTsk_TCB
 2532              		.cfi_endproc
 2533              	.LFE159:
 2535              		.section	.text.Task_SetRunState,"ax",%progbits
 2536              		.align	2
 2537              		.global	Task_SetRunState
 2538              		.thumb
 2539              		.thumb_func
 2541              	Task_SetRunState:
 2542              	.LFB160:
 844:SYS/task_manager/task_manager.c ****     ((Task *)Tsk_Handle)->Exec_status.State = state;
 2543              		.loc 1 844 0
 2544              		.cfi_startproc
 2545              		@ args = 0, pretend = 0, frame = 0
 2546              		@ frame_needed = 0, uses_anonymous_args = 0
 2547              		@ link register save eliminated.
 2548              	.LVL184:
 845:SYS/task_manager/task_manager.c **** }
 2549              		.loc 1 845 0
 2550 0000 80F84810 		strb	r1, [r0, #72]
 2551 0004 7047     		bx	lr
 2552              		.cfi_endproc
 2553              	.LFE160:
 2555 0006 00BF     		.section	.text.Task_CountRunningTime,"ax",%progbits
 2556              		.align	2
 2557              		.global	Task_CountRunningTime
 2558              		.thumb
 2559              		.thumb_func
 2561              	Task_CountRunningTime:
 2562              	.LFB161:
 849:SYS/task_manager/task_manager.c ****     if (CurRunTsk_Ptr != NULL)
 2563              		.loc 1 849 0
 2564              		.cfi_startproc
 2565              		@ args = 0, pretend = 0, frame = 0
 2566              		@ frame_needed = 0, uses_anonymous_args = 0
 2567 0000 08B5     		push	{r3, lr}
 2568              	.LCFI40:
ARM GAS  C:\Users\why\AppData\Local\Temp\ccNE1a8I.s 			page 69


 2569              		.cfi_def_cfa_offset 8
 2570              		.cfi_offset 3, -8
 2571              		.cfi_offset 14, -4
 850:SYS/task_manager/task_manager.c ****     {
 2572              		.loc 1 850 0
 2573 0002 0C4B     		ldr	r3, .L162
 2574 0004 1B68     		ldr	r3, [r3]
 2575 0006 9BB1     		cbz	r3, .L158
 2576              	.LBB5:
 852:SYS/task_manager/task_manager.c **** 
 2577              		.loc 1 852 0
 2578 0008 FFF7FEFF 		bl	RunTime_Tick
 2579              	.LVL185:
 854:SYS/task_manager/task_manager.c ****         {
 2580              		.loc 1 854 0
 2581 000c 094B     		ldr	r3, .L162
 2582 000e 1B68     		ldr	r3, [r3]
 2583 0010 93F85820 		ldrb	r2, [r3, #88]	@ zero_extendqisi2
 2584 0014 1209     		lsrs	r2, r2, #4
 2585 0016 012A     		cmp	r2, #1
 2586 0018 02D1     		bne	.L160
 856:SYS/task_manager/task_manager.c ****         }
 2587              		.loc 1 856 0
 2588 001a DA6D     		ldr	r2, [r3, #92]
 2589 001c 0132     		adds	r2, r2, #1
 2590 001e DA65     		str	r2, [r3, #92]
 2591              	.L160:
 859:SYS/task_manager/task_manager.c ****         {
 2592              		.loc 1 859 0
 2593 0020 93F85820 		ldrb	r2, [r3, #88]	@ zero_extendqisi2
 2594 0024 1209     		lsrs	r2, r2, #4
 2595 0026 012A     		cmp	r2, #1
 2596 0028 02D1     		bne	.L158
 861:SYS/task_manager/task_manager.c ****         }
 2597              		.loc 1 861 0
 2598 002a 1A6E     		ldr	r2, [r3, #96]
 2599 002c 0132     		adds	r2, r2, #1
 2600 002e 1A66     		str	r2, [r3, #96]
 2601              	.L158:
 2602 0030 08BD     		pop	{r3, pc}
 2603              	.L163:
 2604 0032 00BF     		.align	2
 2605              	.L162:
 2606 0034 00000000 		.word	.LANCHOR5
 2607              	.LBE5:
 2608              		.cfi_endproc
 2609              	.LFE161:
 2611              		.section	.text.Task_Get_IdleUS,"ax",%progbits
 2612              		.align	2
 2613              		.global	Task_Get_IdleUS
 2614              		.thumb
 2615              		.thumb_func
 2617              	Task_Get_IdleUS:
 2618              	.LFB164:
 951:SYS/task_manager/task_manager.c ****     return TaskSys_Idle_US;
 2619              		.loc 1 951 0
 2620              		.cfi_startproc
ARM GAS  C:\Users\why\AppData\Local\Temp\ccNE1a8I.s 			page 70


 2621              		@ args = 0, pretend = 0, frame = 0
 2622              		@ frame_needed = 0, uses_anonymous_args = 0
 2623              		@ link register save eliminated.
 953:SYS/task_manager/task_manager.c **** 
 2624              		.loc 1 953 0
 2625 0000 014B     		ldr	r3, .L165
 2626 0002 1868     		ldr	r0, [r3]
 2627 0004 7047     		bx	lr
 2628              	.L166:
 2629 0006 00BF     		.align	2
 2630              	.L165:
 2631 0008 00000000 		.word	.LANCHOR8
 2632              		.cfi_endproc
 2633              	.LFE164:
 2635              		.section	.text.Task_Get_IdleOcupy,"ax",%progbits
 2636              		.align	2
 2637              		.global	Task_Get_IdleOcupy
 2638              		.thumb
 2639              		.thumb_func
 2641              	Task_Get_IdleOcupy:
 2642              	.LFB165:
 956:SYS/task_manager/task_manager.c ****     return TaskSys_Idle_Ocupy;
 2643              		.loc 1 956 0
 2644              		.cfi_startproc
 2645              		@ args = 0, pretend = 0, frame = 0
 2646              		@ frame_needed = 0, uses_anonymous_args = 0
 2647              		@ link register save eliminated.
 958:SYS/task_manager/task_manager.c **** 
 2648              		.loc 1 958 0
 2649 0000 014B     		ldr	r3, .L168
 2650 0002 93ED000A 		vldr.32	s0, [r3]
 2651 0006 7047     		bx	lr
 2652              	.L169:
 2653              		.align	2
 2654              	.L168:
 2655 0008 00000000 		.word	.LANCHOR9
 2656              		.cfi_endproc
 2657              	.LFE165:
 2659              		.section	.text.TaskSys_Set_State,"ax",%progbits
 2660              		.align	2
 2661              		.global	TaskSys_Set_State
 2662              		.thumb
 2663              		.thumb_func
 2665              	TaskSys_Set_State:
 2666              	.LFB167:
 971:SYS/task_manager/task_manager.c ****     TskSys_state = state;
 2667              		.loc 1 971 0
 2668              		.cfi_startproc
 2669              		@ args = 0, pretend = 0, frame = 0
 2670              		@ frame_needed = 0, uses_anonymous_args = 0
 2671              		@ link register save eliminated.
 2672              	.LVL186:
 972:SYS/task_manager/task_manager.c **** }
 2673              		.loc 1 972 0
 2674 0000 014B     		ldr	r3, .L171
 2675 0002 1870     		strb	r0, [r3]
 2676 0004 7047     		bx	lr
ARM GAS  C:\Users\why\AppData\Local\Temp\ccNE1a8I.s 			page 71


 2677              	.L172:
 2678 0006 00BF     		.align	2
 2679              	.L171:
 2680 0008 00000000 		.word	.LANCHOR6
 2681              		.cfi_endproc
 2682              	.LFE167:
 2684              		.section	.text.TaskSys_Get_State,"ax",%progbits
 2685              		.align	2
 2686              		.global	TaskSys_Get_State
 2687              		.thumb
 2688              		.thumb_func
 2690              	TaskSys_Get_State:
 2691              	.LFB168:
 976:SYS/task_manager/task_manager.c ****     return TskSys_state;
 2692              		.loc 1 976 0
 2693              		.cfi_startproc
 2694              		@ args = 0, pretend = 0, frame = 0
 2695              		@ frame_needed = 0, uses_anonymous_args = 0
 2696              		@ link register save eliminated.
 977:SYS/task_manager/task_manager.c **** }
 2697              		.loc 1 977 0
 2698 0000 014B     		ldr	r3, .L174
 2699 0002 1878     		ldrb	r0, [r3]	@ zero_extendqisi2
 978:SYS/task_manager/task_manager.c **** 
 2700              		.loc 1 978 0
 2701 0004 7047     		bx	lr
 2702              	.L175:
 2703 0006 00BF     		.align	2
 2704              	.L174:
 2705 0008 00000000 		.word	.LANCHOR6
 2706              		.cfi_endproc
 2707              	.LFE168:
 2709              		.section	.text.Task_GetInfo_ByIndex,"ax",%progbits
 2710              		.align	2
 2711              		.global	Task_GetInfo_ByIndex
 2712              		.thumb
 2713              		.thumb_func
 2715              	Task_GetInfo_ByIndex:
 2716              	.LFB171:
1109:SYS/task_manager/task_manager.c ****                 return;
1110:SYS/task_manager/task_manager.c ****             }
1111:SYS/task_manager/task_manager.c ****         }
1112:SYS/task_manager/task_manager.c ****     }
1113:SYS/task_manager/task_manager.c **** #else
1114:SYS/task_manager/task_manager.c ****     Task_TriggerPendSV();
1115:SYS/task_manager/task_manager.c **** #endif
1116:SYS/task_manager/task_manager.c **** }
1117:SYS/task_manager/task_manager.c **** 
1118:SYS/task_manager/task_manager.c **** Task_Base_Info Task_GetInfo_ByIndex(uint8_t index)
1119:SYS/task_manager/task_manager.c **** {
 2717              		.loc 1 1119 0
 2718              		.cfi_startproc
 2719              		@ args = 0, pretend = 0, frame = 0
 2720              		@ frame_needed = 0, uses_anonymous_args = 0
 2721              		@ link register save eliminated.
 2722              	.LVL187:
1120:SYS/task_manager/task_manager.c ****     Task_Base_Info task_info;
ARM GAS  C:\Users\why\AppData\Local\Temp\ccNE1a8I.s 			page 72


1121:SYS/task_manager/task_manager.c **** 
1122:SYS/task_manager/task_manager.c ****     return task_info;
1123:SYS/task_manager/task_manager.c **** }
 2723              		.loc 1 1123 0
 2724 0000 7047     		bx	lr
 2725              		.cfi_endproc
 2726              	.LFE171:
 2728 0002 00BF     		.section	.text.Task_GetCurrentRunTask,"ax",%progbits
 2729              		.align	2
 2730              		.global	Task_GetCurrentRunTask
 2731              		.thumb
 2732              		.thumb_func
 2734              	Task_GetCurrentRunTask:
 2735              	.LFB172:
1124:SYS/task_manager/task_manager.c **** 
1125:SYS/task_manager/task_manager.c **** Task *Task_GetCurrentRunTask(void)
1126:SYS/task_manager/task_manager.c **** {
 2736              		.loc 1 1126 0
 2737              		.cfi_startproc
 2738              		@ args = 0, pretend = 0, frame = 0
 2739              		@ frame_needed = 0, uses_anonymous_args = 0
 2740              		@ link register save eliminated.
1127:SYS/task_manager/task_manager.c ****     return CurRunTsk_Ptr;
1128:SYS/task_manager/task_manager.c **** }
 2741              		.loc 1 1128 0
 2742 0000 014B     		ldr	r3, .L178
 2743 0002 1868     		ldr	r0, [r3]
 2744 0004 7047     		bx	lr
 2745              	.L179:
 2746 0006 00BF     		.align	2
 2747              	.L178:
 2748 0008 00000000 		.word	.LANCHOR5
 2749              		.cfi_endproc
 2750              	.LFE172:
 2752              		.comm	Task_OS_ExpStkBase,4,4
 2753              		.comm	NxtTsk_TCB,8,4
 2754              		.comm	CurTsk_TCB,8,4
 2755              		.global	PndHstTsk_Ptr
 2756              		.global	NxtRunTsk_Ptr
 2757              		.global	CurRunTsk_Ptr
 2758              		.comm	Task_Ptr,256,4
 2759              		.section	.bss.TskHdl_RdyMap,"aw",%nobits
 2760              		.align	2
 2761              		.set	.LANCHOR0,. + 0
 2764              	TskHdl_RdyMap:
 2765 0000 00000000 		.space	9
 2765      00000000 
 2765      00
 2766              		.section	.bss.taskOs_InitState.10061,"aw",%nobits
 2767              		.set	.LANCHOR13,. + 0
 2770              	taskOs_InitState.10061:
 2771 0000 00       		.space	1
 2772              		.section	.bss.TaskSys_StartTime,"aw",%nobits
 2773              		.align	3
 2774              		.set	.LANCHOR7,. + 0
 2777              	TaskSys_StartTime:
 2778 0000 00000000 		.space	8
ARM GAS  C:\Users\why\AppData\Local\Temp\ccNE1a8I.s 			page 73


 2778      00000000 
 2779              		.section	.bss.TaskSys_Idle_Ocupy,"aw",%nobits
 2780              		.align	2
 2781              		.set	.LANCHOR9,. + 0
 2784              	TaskSys_Idle_Ocupy:
 2785 0000 00000000 		.space	4
 2786              		.section	.bss.Task_OS_StkMem,"aw",%nobits
 2787              		.align	2
 2788              		.set	.LANCHOR3,. + 0
 2791              	Task_OS_StkMem:
 2792 0000 00000000 		.space	40960
 2792      00000000 
 2792      00000000 
 2792      00000000 
 2792      00000000 
 2793              		.section	.bss.TskHdl_PndMap,"aw",%nobits
 2794              		.align	2
 2795              		.set	.LANCHOR2,. + 0
 2798              	TskHdl_PndMap:
 2799 0000 00000000 		.space	9
 2799      00000000 
 2799      00
 2800              		.section	.bss.TaskSys_Idle_US,"aw",%nobits
 2801              		.align	2
 2802              		.set	.LANCHOR8,. + 0
 2805              	TaskSys_Idle_US:
 2806 0000 00000000 		.space	4
 2807              		.section	.bss.TskSys_state,"aw",%nobits
 2808              		.set	.LANCHOR6,. + 0
 2811              	TskSys_state:
 2812 0000 00       		.space	1
 2813              		.section	.bss.TskHdl_BlkMap,"aw",%nobits
 2814              		.align	2
 2815              		.set	.LANCHOR1,. + 0
 2818              	TskHdl_BlkMap:
 2819 0000 00000000 		.space	9
 2819      00000000 
 2819      00
 2820              		.section	.bss.NxtRunTsk_Ptr,"aw",%nobits
 2821              		.align	2
 2822              		.set	.LANCHOR10,. + 0
 2825              	NxtRunTsk_Ptr:
 2826 0000 00000000 		.space	4
 2827              		.section	.bss.TskCrt_RegList,"aw",%nobits
 2828              		.align	2
 2829              		.set	.LANCHOR4,. + 0
 2832              	TskCrt_RegList:
 2833 0000 00000000 		.space	24
 2833      00000000 
 2833      00000000 
 2833      00000000 
 2833      00000000 
 2834              		.section	.rodata.Tsk_Handle,"a",%progbits
 2835              		.align	2
 2836              		.set	.LANCHOR11,. + 0
 2839              	Tsk_Handle:
 2840 0000 00       		.byte	0
ARM GAS  C:\Users\why\AppData\Local\Temp\ccNE1a8I.s 			page 74


 2841 0001 00       		.byte	0
 2842 0002 01       		.byte	1
 2843 0003 00       		.byte	0
 2844 0004 02       		.byte	2
 2845 0005 00       		.byte	0
 2846 0006 01       		.byte	1
 2847 0007 00       		.byte	0
 2848 0008 03       		.byte	3
 2849 0009 00       		.byte	0
 2850 000a 01       		.byte	1
 2851 000b 00       		.byte	0
 2852 000c 02       		.byte	2
 2853 000d 00       		.byte	0
 2854 000e 01       		.byte	1
 2855 000f 00       		.byte	0
 2856 0010 04       		.byte	4
 2857 0011 00       		.byte	0
 2858 0012 01       		.byte	1
 2859 0013 00       		.byte	0
 2860 0014 02       		.byte	2
 2861 0015 00       		.byte	0
 2862 0016 01       		.byte	1
 2863 0017 00       		.byte	0
 2864 0018 03       		.byte	3
 2865 0019 00       		.byte	0
 2866 001a 01       		.byte	1
 2867 001b 00       		.byte	0
 2868 001c 02       		.byte	2
 2869 001d 00       		.byte	0
 2870 001e 01       		.byte	1
 2871 001f 00       		.byte	0
 2872 0020 05       		.byte	5
 2873 0021 00       		.byte	0
 2874 0022 01       		.byte	1
 2875 0023 00       		.byte	0
 2876 0024 02       		.byte	2
 2877 0025 00       		.byte	0
 2878 0026 01       		.byte	1
 2879 0027 00       		.byte	0
 2880 0028 03       		.byte	3
 2881 0029 00       		.byte	0
 2882 002a 01       		.byte	1
 2883 002b 00       		.byte	0
 2884 002c 02       		.byte	2
 2885 002d 00       		.byte	0
 2886 002e 01       		.byte	1
 2887 002f 00       		.byte	0
 2888 0030 04       		.byte	4
 2889 0031 00       		.byte	0
 2890 0032 01       		.byte	1
 2891 0033 00       		.byte	0
 2892 0034 02       		.byte	2
 2893 0035 00       		.byte	0
 2894 0036 01       		.byte	1
 2895 0037 00       		.byte	0
 2896 0038 03       		.byte	3
 2897 0039 00       		.byte	0
ARM GAS  C:\Users\why\AppData\Local\Temp\ccNE1a8I.s 			page 75


 2898 003a 01       		.byte	1
 2899 003b 00       		.byte	0
 2900 003c 02       		.byte	2
 2901 003d 00       		.byte	0
 2902 003e 01       		.byte	1
 2903 003f 00       		.byte	0
 2904 0040 06       		.byte	6
 2905 0041 00       		.byte	0
 2906 0042 01       		.byte	1
 2907 0043 00       		.byte	0
 2908 0044 02       		.byte	2
 2909 0045 00       		.byte	0
 2910 0046 01       		.byte	1
 2911 0047 00       		.byte	0
 2912 0048 03       		.byte	3
 2913 0049 00       		.byte	0
 2914 004a 01       		.byte	1
 2915 004b 00       		.byte	0
 2916 004c 02       		.byte	2
 2917 004d 00       		.byte	0
 2918 004e 01       		.byte	1
 2919 004f 00       		.byte	0
 2920 0050 04       		.byte	4
 2921 0051 00       		.byte	0
 2922 0052 01       		.byte	1
 2923 0053 00       		.byte	0
 2924 0054 02       		.byte	2
 2925 0055 00       		.byte	0
 2926 0056 01       		.byte	1
 2927 0057 00       		.byte	0
 2928 0058 03       		.byte	3
 2929 0059 00       		.byte	0
 2930 005a 01       		.byte	1
 2931 005b 00       		.byte	0
 2932 005c 02       		.byte	2
 2933 005d 00       		.byte	0
 2934 005e 01       		.byte	1
 2935 005f 00       		.byte	0
 2936 0060 05       		.byte	5
 2937 0061 00       		.byte	0
 2938 0062 01       		.byte	1
 2939 0063 00       		.byte	0
 2940 0064 02       		.byte	2
 2941 0065 00       		.byte	0
 2942 0066 01       		.byte	1
 2943 0067 00       		.byte	0
 2944 0068 03       		.byte	3
 2945 0069 00       		.byte	0
 2946 006a 01       		.byte	1
 2947 006b 00       		.byte	0
 2948 006c 02       		.byte	2
 2949 006d 00       		.byte	0
 2950 006e 01       		.byte	1
 2951 006f 00       		.byte	0
 2952 0070 04       		.byte	4
 2953 0071 00       		.byte	0
 2954 0072 01       		.byte	1
ARM GAS  C:\Users\why\AppData\Local\Temp\ccNE1a8I.s 			page 76


 2955 0073 00       		.byte	0
 2956 0074 02       		.byte	2
 2957 0075 00       		.byte	0
 2958 0076 01       		.byte	1
 2959 0077 00       		.byte	0
 2960 0078 03       		.byte	3
 2961 0079 00       		.byte	0
 2962 007a 01       		.byte	1
 2963 007b 00       		.byte	0
 2964 007c 02       		.byte	2
 2965 007d 00       		.byte	0
 2966 007e 01       		.byte	1
 2967 007f 00       		.byte	0
 2968 0080 07       		.byte	7
 2969 0081 00       		.byte	0
 2970 0082 01       		.byte	1
 2971 0083 00       		.byte	0
 2972 0084 02       		.byte	2
 2973 0085 00       		.byte	0
 2974 0086 01       		.byte	1
 2975 0087 00       		.byte	0
 2976 0088 03       		.byte	3
 2977 0089 00       		.byte	0
 2978 008a 01       		.byte	1
 2979 008b 00       		.byte	0
 2980 008c 02       		.byte	2
 2981 008d 00       		.byte	0
 2982 008e 01       		.byte	1
 2983 008f 00       		.byte	0
 2984 0090 04       		.byte	4
 2985 0091 00       		.byte	0
 2986 0092 01       		.byte	1
 2987 0093 00       		.byte	0
 2988 0094 02       		.byte	2
 2989 0095 00       		.byte	0
 2990 0096 01       		.byte	1
 2991 0097 00       		.byte	0
 2992 0098 03       		.byte	3
 2993 0099 00       		.byte	0
 2994 009a 01       		.byte	1
 2995 009b 00       		.byte	0
 2996 009c 02       		.byte	2
 2997 009d 00       		.byte	0
 2998 009e 01       		.byte	1
 2999 009f 00       		.byte	0
 3000 00a0 05       		.byte	5
 3001 00a1 00       		.byte	0
 3002 00a2 01       		.byte	1
 3003 00a3 00       		.byte	0
 3004 00a4 02       		.byte	2
 3005 00a5 00       		.byte	0
 3006 00a6 01       		.byte	1
 3007 00a7 00       		.byte	0
 3008 00a8 03       		.byte	3
 3009 00a9 00       		.byte	0
 3010 00aa 01       		.byte	1
 3011 00ab 00       		.byte	0
ARM GAS  C:\Users\why\AppData\Local\Temp\ccNE1a8I.s 			page 77


 3012 00ac 02       		.byte	2
 3013 00ad 00       		.byte	0
 3014 00ae 01       		.byte	1
 3015 00af 00       		.byte	0
 3016 00b0 04       		.byte	4
 3017 00b1 00       		.byte	0
 3018 00b2 01       		.byte	1
 3019 00b3 00       		.byte	0
 3020 00b4 02       		.byte	2
 3021 00b5 00       		.byte	0
 3022 00b6 01       		.byte	1
 3023 00b7 00       		.byte	0
 3024 00b8 03       		.byte	3
 3025 00b9 00       		.byte	0
 3026 00ba 01       		.byte	1
 3027 00bb 00       		.byte	0
 3028 00bc 02       		.byte	2
 3029 00bd 00       		.byte	0
 3030 00be 01       		.byte	1
 3031 00bf 00       		.byte	0
 3032 00c0 06       		.byte	6
 3033 00c1 00       		.byte	0
 3034 00c2 01       		.byte	1
 3035 00c3 00       		.byte	0
 3036 00c4 02       		.byte	2
 3037 00c5 00       		.byte	0
 3038 00c6 01       		.byte	1
 3039 00c7 00       		.byte	0
 3040 00c8 03       		.byte	3
 3041 00c9 00       		.byte	0
 3042 00ca 01       		.byte	1
 3043 00cb 00       		.byte	0
 3044 00cc 02       		.byte	2
 3045 00cd 00       		.byte	0
 3046 00ce 01       		.byte	1
 3047 00cf 00       		.byte	0
 3048 00d0 04       		.byte	4
 3049 00d1 00       		.byte	0
 3050 00d2 01       		.byte	1
 3051 00d3 00       		.byte	0
 3052 00d4 02       		.byte	2
 3053 00d5 00       		.byte	0
 3054 00d6 01       		.byte	1
 3055 00d7 00       		.byte	0
 3056 00d8 03       		.byte	3
 3057 00d9 00       		.byte	0
 3058 00da 01       		.byte	1
 3059 00db 00       		.byte	0
 3060 00dc 02       		.byte	2
 3061 00dd 00       		.byte	0
 3062 00de 01       		.byte	1
 3063 00df 00       		.byte	0
 3064 00e0 05       		.byte	5
 3065 00e1 00       		.byte	0
 3066 00e2 01       		.byte	1
 3067 00e3 00       		.byte	0
 3068 00e4 02       		.byte	2
ARM GAS  C:\Users\why\AppData\Local\Temp\ccNE1a8I.s 			page 78


 3069 00e5 00       		.byte	0
 3070 00e6 01       		.byte	1
 3071 00e7 00       		.byte	0
 3072 00e8 03       		.byte	3
 3073 00e9 00       		.byte	0
 3074 00ea 01       		.byte	1
 3075 00eb 00       		.byte	0
 3076 00ec 02       		.byte	2
 3077 00ed 00       		.byte	0
 3078 00ee 01       		.byte	1
 3079 00ef 00       		.byte	0
 3080 00f0 04       		.byte	4
 3081 00f1 00       		.byte	0
 3082 00f2 01       		.byte	1
 3083 00f3 00       		.byte	0
 3084 00f4 02       		.byte	2
 3085 00f5 00       		.byte	0
 3086 00f6 01       		.byte	1
 3087 00f7 00       		.byte	0
 3088 00f8 03       		.byte	3
 3089 00f9 00       		.byte	0
 3090 00fa 01       		.byte	1
 3091 00fb 00       		.byte	0
 3092 00fc 02       		.byte	2
 3093 00fd 00       		.byte	0
 3094 00fe 01       		.byte	1
 3095 00ff 00       		.byte	0
 3096              		.section	.bss.PndHstTsk_Ptr,"aw",%nobits
 3097              		.align	2
 3098              		.set	.LANCHOR12,. + 0
 3101              	PndHstTsk_Ptr:
 3102 0000 00000000 		.space	4
 3103              		.section	.bss.CurRunTsk_Ptr,"aw",%nobits
 3104              		.align	2
 3105              		.set	.LANCHOR5,. + 0
 3108              	CurRunTsk_Ptr:
 3109 0000 00000000 		.space	4
 3110              		.text
 3111              	.Letext0:
 3112              		.file 2 "d:\\gcc_arm\\5.4 2016q3\\arm-none-eabi\\include\\machine\\_default_types.h"
 3113              		.file 3 "d:\\gcc_arm\\5.4 2016q3\\arm-none-eabi\\include\\sys\\_stdint.h"
 3114              		.file 4 "SYS/runtime/runtime.h"
 3115              		.file 5 "SYS/data_structure/linked_list.h"
 3116              		.file 6 "SYS/task_manager/task_manager.h"
 3117              		.file 7 "F4_CORE/core_cm4.h"
 3118              		.file 8 "d:\\gcc_arm\\5.4 2016q3\\arm-none-eabi\\include\\stdlib.h"
ARM GAS  C:\Users\why\AppData\Local\Temp\ccNE1a8I.s 			page 79


DEFINED SYMBOLS
                            *ABS*:00000000 task_manager.c
C:\Users\why\AppData\Local\Temp\ccNE1a8I.s:22     .text.Task_Exit:00000000 $t
C:\Users\why\AppData\Local\Temp\ccNE1a8I.s:26     .text.Task_Exit:00000000 Task_Exit
C:\Users\why\AppData\Local\Temp\ccNE1a8I.s:41     .text.Task_SetBASEPRI:00000000 $t
C:\Users\why\AppData\Local\Temp\ccNE1a8I.s:45     .text.Task_SetBASEPRI:00000000 Task_SetBASEPRI
C:\Users\why\AppData\Local\Temp\ccNE1a8I.s:65     .text.Task_SetReady:00000000 $t
C:\Users\why\AppData\Local\Temp\ccNE1a8I.s:69     .text.Task_SetReady:00000000 Task_SetReady
C:\Users\why\AppData\Local\Temp\ccNE1a8I.s:121    .text.Task_SetReady:00000030 $d
C:\Users\why\AppData\Local\Temp\ccNE1a8I.s:126    .text.Task_ClearBlock:00000000 $t
C:\Users\why\AppData\Local\Temp\ccNE1a8I.s:130    .text.Task_ClearBlock:00000000 Task_ClearBlock
C:\Users\why\AppData\Local\Temp\ccNE1a8I.s:181    .text.Task_ClearBlock:00000038 $d
C:\Users\why\AppData\Local\Temp\ccNE1a8I.s:186    .text.Task_ClearPending:00000000 $t
C:\Users\why\AppData\Local\Temp\ccNE1a8I.s:190    .text.Task_ClearPending:00000000 Task_ClearPending
C:\Users\why\AppData\Local\Temp\ccNE1a8I.s:241    .text.Task_ClearPending:00000038 $d
C:\Users\why\AppData\Local\Temp\ccNE1a8I.s:246    .text.Task_ClearReady:00000000 $t
C:\Users\why\AppData\Local\Temp\ccNE1a8I.s:250    .text.Task_ClearReady:00000000 Task_ClearReady
C:\Users\why\AppData\Local\Temp\ccNE1a8I.s:301    .text.Task_ClearReady:00000038 $d
C:\Users\why\AppData\Local\Temp\ccNE1a8I.s:306    .text.Task_SetPendSVPro:00000000 $t
C:\Users\why\AppData\Local\Temp\ccNE1a8I.s:310    .text.Task_SetPendSVPro:00000000 Task_SetPendSVPro
C:\Users\why\AppData\Local\Temp\ccNE1a8I.s:320    *ABS*:e000ed22 NVIC_SYSPRI14
C:\Users\why\AppData\Local\Temp\ccNE1a8I.s:324    *ABS*:000000ff NVIC_PENDSV_PRI
                            *COM*:00000004 Task_OS_ExpStkBase
C:\Users\why\AppData\Local\Temp\ccNE1a8I.s:369    .text.Task_PriorityCompare:00000000 $t
C:\Users\why\AppData\Local\Temp\ccNE1a8I.s:374    .text.Task_PriorityCompare:00000000 Task_PriorityCompare
C:\Users\why\AppData\Local\Temp\ccNE1a8I.s:473    .text.ReSet_Task_Data:00000000 $t
C:\Users\why\AppData\Local\Temp\ccNE1a8I.s:477    .text.ReSet_Task_Data:00000000 ReSet_Task_Data
C:\Users\why\AppData\Local\Temp\ccNE1a8I.s:550    .text.TaskSys_Init:00000000 $t
C:\Users\why\AppData\Local\Temp\ccNE1a8I.s:554    .text.TaskSys_Init:00000000 TaskSys_Init
C:\Users\why\AppData\Local\Temp\ccNE1a8I.s:659    .text.TaskSys_Init:00000074 $d
                            *COM*:00000100 Task_Ptr
C:\Users\why\AppData\Local\Temp\ccNE1a8I.s:669    .text.Task_SetStkPtr_Val:00000000 $t
C:\Users\why\AppData\Local\Temp\ccNE1a8I.s:673    .text.Task_SetStkPtr_Val:00000000 Task_SetStkPtr_Val
C:\Users\why\AppData\Local\Temp\ccNE1a8I.s:734    .text.Task_SetStkPtr_Val:00000050 $d
C:\Users\why\AppData\Local\Temp\ccNE1a8I.s:960    .text.Task_Caller:00000000 Task_Caller
C:\Users\why\AppData\Local\Temp\ccNE1a8I.s:741    .text.Task_Idle:00000000 $t
C:\Users\why\AppData\Local\Temp\ccNE1a8I.s:745    .text.Task_Idle:00000000 Task_Idle
C:\Users\why\AppData\Local\Temp\ccNE1a8I.s:801    .text.Task_Idle:0000004c $d
C:\Users\why\AppData\Local\Temp\ccNE1a8I.s:808    .text.Task_Exec:00000000 $t
C:\Users\why\AppData\Local\Temp\ccNE1a8I.s:812    .text.Task_Exec:00000000 Task_Exec
C:\Users\why\AppData\Local\Temp\ccNE1a8I.s:950    .text.Task_Exec:000000d0 $d
C:\Users\why\AppData\Local\Temp\ccNE1a8I.s:955    .text.Task_Caller:00000000 $t
C:\Users\why\AppData\Local\Temp\ccNE1a8I.s:983    .text.Task_Caller:00000010 $d
C:\Users\why\AppData\Local\Temp\ccNE1a8I.s:988    .text.Task_CrtList_TraversePoll_callback:00000000 $t
C:\Users\why\AppData\Local\Temp\ccNE1a8I.s:992    .text.Task_CrtList_TraversePoll_callback:00000000 Task_CrtList_TraversePoll_callback
C:\Users\why\AppData\Local\Temp\ccNE1a8I.s:1043   .text.Task_CrtList_TraversePoll_callback:0000002c $d
C:\Users\why\AppData\Local\Temp\ccNE1a8I.s:1048   .text.Task_Resume_FromBlock:00000000 $t
C:\Users\why\AppData\Local\Temp\ccNE1a8I.s:1053   .text.Task_Resume_FromBlock:00000000 Task_Resume_FromBlock
C:\Users\why\AppData\Local\Temp\ccNE1a8I.s:1091   .text.Task_Resume_FromBlock:00000028 $d
                            *COM*:00000008 NxtTsk_TCB
C:\Users\why\AppData\Local\Temp\ccNE1a8I.s:1097   .text.Task_SetBlock:00000000 $t
C:\Users\why\AppData\Local\Temp\ccNE1a8I.s:1102   .text.Task_SetBlock:00000000 Task_SetBlock
C:\Users\why\AppData\Local\Temp\ccNE1a8I.s:1174   .text.Task_SetBlock:0000005c $d
C:\Users\why\AppData\Local\Temp\ccNE1a8I.s:1181   .text.Task_SetPending:00000000 $t
C:\Users\why\AppData\Local\Temp\ccNE1a8I.s:1186   .text.Task_SetPending:00000000 Task_SetPending
C:\Users\why\AppData\Local\Temp\ccNE1a8I.s:1238   .text.Task_SetPending:00000030 $d
C:\Users\why\AppData\Local\Temp\ccNE1a8I.s:1243   .text.Task_SwitchStack:00000000 $t
ARM GAS  C:\Users\why\AppData\Local\Temp\ccNE1a8I.s 			page 80


C:\Users\why\AppData\Local\Temp\ccNE1a8I.s:1248   .text.Task_SwitchStack:00000000 Task_SwitchStack
C:\Users\why\AppData\Local\Temp\ccNE1a8I.s:1264   .text.Task_SwitchStack:00000010 $d
                            *COM*:00000008 CurTsk_TCB
C:\Users\why\AppData\Local\Temp\ccNE1a8I.s:1270   .text.Task_Get_HighestRank_PndTask:00000000 $t
C:\Users\why\AppData\Local\Temp\ccNE1a8I.s:1275   .text.Task_Get_HighestRank_PndTask:00000000 Task_Get_HighestRank_PndTask
C:\Users\why\AppData\Local\Temp\ccNE1a8I.s:1352   .text.Task_Get_HighestRank_PndTask:00000054 $d
C:\Users\why\AppData\Local\Temp\ccNE1a8I.s:1359   .text.Task_SaveCurProc:00000000 $t
C:\Users\why\AppData\Local\Temp\ccNE1a8I.s:1364   .text.Task_SaveCurProc:00000000 Task_SaveCurProc
C:\Users\why\AppData\Local\Temp\ccNE1a8I.s:1418   .text.Task_SaveCurProc:00000024 CurrentTCBConst_Tmp3
C:\Users\why\AppData\Local\Temp\ccNE1a8I.s:1418   .text.Task_SaveCurProc:00000024 $d
C:\Users\why\AppData\Local\Temp\ccNE1a8I.s:1422   .text.Task_SaveCurProc:00000028 $t
C:\Users\why\AppData\Local\Temp\ccNE1a8I.s:1427   .text.Task_Load:00000000 $t
C:\Users\why\AppData\Local\Temp\ccNE1a8I.s:1432   .text.Task_Load:00000000 Task_Load
C:\Users\why\AppData\Local\Temp\ccNE1a8I.s:1491   .text.Load_FirstTask:00000000 $t
C:\Users\why\AppData\Local\Temp\ccNE1a8I.s:1496   .text.Load_FirstTask:00000000 Load_FirstTask
C:\Users\why\AppData\Local\Temp\ccNE1a8I.s:1515   .text.Task_SwitchContext:00000000 $t
C:\Users\why\AppData\Local\Temp\ccNE1a8I.s:1520   .text.Task_SwitchContext:00000000 Task_SwitchContext
C:\Users\why\AppData\Local\Temp\ccNE1a8I.s:1638   .text.Task_SwitchContext:0000005c CurrentTCBConst_Tmp
C:\Users\why\AppData\Local\Temp\ccNE1a8I.s:1638   .text.Task_SwitchContext:0000005c $d
C:\Users\why\AppData\Local\Temp\ccNE1a8I.s:1642   .text.Task_SwitchContext:00000060 $t
C:\Users\why\AppData\Local\Temp\ccNE1a8I.s:1651   .text.Task_Get_HighestRank_RdyTask:00000000 $t
C:\Users\why\AppData\Local\Temp\ccNE1a8I.s:1656   .text.Task_Get_HighestRank_RdyTask:00000000 Task_Get_HighestRank_RdyTask
C:\Users\why\AppData\Local\Temp\ccNE1a8I.s:1738   .text.Task_Get_HighestRank_RdyTask:00000054 $d
C:\Users\why\AppData\Local\Temp\ccNE1a8I.s:1745   .text.Task_SetNextTask_Ptr:00000000 $t
C:\Users\why\AppData\Local\Temp\ccNE1a8I.s:1750   .text.Task_SetNextTask_Ptr:00000000 Task_SetNextTask_Ptr
C:\Users\why\AppData\Local\Temp\ccNE1a8I.s:1775   .text.Task_SetNextTask_Ptr:00000014 $d
C:\Users\why\AppData\Local\Temp\ccNE1a8I.s:1781   .text.Task_TriggerPendSV:00000000 $t
C:\Users\why\AppData\Local\Temp\ccNE1a8I.s:1786   .text.Task_TriggerPendSV:00000000 Task_TriggerPendSV
C:\Users\why\AppData\Local\Temp\ccNE1a8I.s:1796   *ABS*:e000ed04 NVIC_INT_CTRL
C:\Users\why\AppData\Local\Temp\ccNE1a8I.s:1800   *ABS*:10000000 NVIC_PENDSVSET
C:\Users\why\AppData\Local\Temp\ccNE1a8I.s:1825   .text.Task_Scheduler:00000000 $t
C:\Users\why\AppData\Local\Temp\ccNE1a8I.s:1830   .text.Task_Scheduler:00000000 Task_Scheduler
C:\Users\why\AppData\Local\Temp\ccNE1a8I.s:2049   .text.Task_Scheduler:0000012c $d
C:\Users\why\AppData\Local\Temp\ccNE1a8I.s:2060   .text.Task_Force_TriggerPendSV:00000000 $t
C:\Users\why\AppData\Local\Temp\ccNE1a8I.s:2065   .text.Task_Force_TriggerPendSV:00000000 Task_Force_TriggerPendSV
C:\Users\why\AppData\Local\Temp\ccNE1a8I.s:2095   .text.Task_Get_TaskNum:00000000 $t
C:\Users\why\AppData\Local\Temp\ccNE1a8I.s:2100   .text.Task_Get_TaskNum:00000000 Task_Get_TaskNum
C:\Users\why\AppData\Local\Temp\ccNE1a8I.s:2114   .text.Task_Get_TaskNum:00000008 $d
C:\Users\why\AppData\Local\Temp\ccNE1a8I.s:2122   .text.Task_Create:00000000 $t
C:\Users\why\AppData\Local\Temp\ccNE1a8I.s:2127   .text.Task_Create:00000000 Task_Create
C:\Users\why\AppData\Local\Temp\ccNE1a8I.s:2385   .text.Task_Create:000001e8 $d
C:\Users\why\AppData\Local\Temp\ccNE1a8I.s:2397   .text.Task_Remove:00000000 $t
C:\Users\why\AppData\Local\Temp\ccNE1a8I.s:2402   .text.Task_Remove:00000000 Task_Remove
C:\Users\why\AppData\Local\Temp\ccNE1a8I.s:2449   .text.Task_Remove:00000030 $d
C:\Users\why\AppData\Local\Temp\ccNE1a8I.s:2454   .text.TaskSystem_Start:00000000 $t
C:\Users\why\AppData\Local\Temp\ccNE1a8I.s:2459   .text.TaskSystem_Start:00000000 TaskSystem_Start
C:\Users\why\AppData\Local\Temp\ccNE1a8I.s:2527   .text.TaskSystem_Start:0000005c $d
C:\Users\why\AppData\Local\Temp\ccNE1a8I.s:2536   .text.Task_SetRunState:00000000 $t
C:\Users\why\AppData\Local\Temp\ccNE1a8I.s:2541   .text.Task_SetRunState:00000000 Task_SetRunState
C:\Users\why\AppData\Local\Temp\ccNE1a8I.s:2556   .text.Task_CountRunningTime:00000000 $t
C:\Users\why\AppData\Local\Temp\ccNE1a8I.s:2561   .text.Task_CountRunningTime:00000000 Task_CountRunningTime
C:\Users\why\AppData\Local\Temp\ccNE1a8I.s:2606   .text.Task_CountRunningTime:00000034 $d
C:\Users\why\AppData\Local\Temp\ccNE1a8I.s:2612   .text.Task_Get_IdleUS:00000000 $t
C:\Users\why\AppData\Local\Temp\ccNE1a8I.s:2617   .text.Task_Get_IdleUS:00000000 Task_Get_IdleUS
C:\Users\why\AppData\Local\Temp\ccNE1a8I.s:2631   .text.Task_Get_IdleUS:00000008 $d
C:\Users\why\AppData\Local\Temp\ccNE1a8I.s:2636   .text.Task_Get_IdleOcupy:00000000 $t
C:\Users\why\AppData\Local\Temp\ccNE1a8I.s:2641   .text.Task_Get_IdleOcupy:00000000 Task_Get_IdleOcupy
ARM GAS  C:\Users\why\AppData\Local\Temp\ccNE1a8I.s 			page 81


C:\Users\why\AppData\Local\Temp\ccNE1a8I.s:2655   .text.Task_Get_IdleOcupy:00000008 $d
C:\Users\why\AppData\Local\Temp\ccNE1a8I.s:2660   .text.TaskSys_Set_State:00000000 $t
C:\Users\why\AppData\Local\Temp\ccNE1a8I.s:2665   .text.TaskSys_Set_State:00000000 TaskSys_Set_State
C:\Users\why\AppData\Local\Temp\ccNE1a8I.s:2680   .text.TaskSys_Set_State:00000008 $d
C:\Users\why\AppData\Local\Temp\ccNE1a8I.s:2685   .text.TaskSys_Get_State:00000000 $t
C:\Users\why\AppData\Local\Temp\ccNE1a8I.s:2690   .text.TaskSys_Get_State:00000000 TaskSys_Get_State
C:\Users\why\AppData\Local\Temp\ccNE1a8I.s:2705   .text.TaskSys_Get_State:00000008 $d
C:\Users\why\AppData\Local\Temp\ccNE1a8I.s:2710   .text.Task_GetInfo_ByIndex:00000000 $t
C:\Users\why\AppData\Local\Temp\ccNE1a8I.s:2715   .text.Task_GetInfo_ByIndex:00000000 Task_GetInfo_ByIndex
C:\Users\why\AppData\Local\Temp\ccNE1a8I.s:2729   .text.Task_GetCurrentRunTask:00000000 $t
C:\Users\why\AppData\Local\Temp\ccNE1a8I.s:2734   .text.Task_GetCurrentRunTask:00000000 Task_GetCurrentRunTask
C:\Users\why\AppData\Local\Temp\ccNE1a8I.s:2748   .text.Task_GetCurrentRunTask:00000008 $d
C:\Users\why\AppData\Local\Temp\ccNE1a8I.s:3101   .bss.PndHstTsk_Ptr:00000000 PndHstTsk_Ptr
C:\Users\why\AppData\Local\Temp\ccNE1a8I.s:2825   .bss.NxtRunTsk_Ptr:00000000 NxtRunTsk_Ptr
C:\Users\why\AppData\Local\Temp\ccNE1a8I.s:3108   .bss.CurRunTsk_Ptr:00000000 CurRunTsk_Ptr
C:\Users\why\AppData\Local\Temp\ccNE1a8I.s:2760   .bss.TskHdl_RdyMap:00000000 $d
C:\Users\why\AppData\Local\Temp\ccNE1a8I.s:2764   .bss.TskHdl_RdyMap:00000000 TskHdl_RdyMap
C:\Users\why\AppData\Local\Temp\ccNE1a8I.s:2770   .bss.taskOs_InitState.10061:00000000 taskOs_InitState.10061
C:\Users\why\AppData\Local\Temp\ccNE1a8I.s:2771   .bss.taskOs_InitState.10061:00000000 $d
C:\Users\why\AppData\Local\Temp\ccNE1a8I.s:2773   .bss.TaskSys_StartTime:00000000 $d
C:\Users\why\AppData\Local\Temp\ccNE1a8I.s:2777   .bss.TaskSys_StartTime:00000000 TaskSys_StartTime
C:\Users\why\AppData\Local\Temp\ccNE1a8I.s:2780   .bss.TaskSys_Idle_Ocupy:00000000 $d
C:\Users\why\AppData\Local\Temp\ccNE1a8I.s:2784   .bss.TaskSys_Idle_Ocupy:00000000 TaskSys_Idle_Ocupy
C:\Users\why\AppData\Local\Temp\ccNE1a8I.s:2787   .bss.Task_OS_StkMem:00000000 $d
C:\Users\why\AppData\Local\Temp\ccNE1a8I.s:2791   .bss.Task_OS_StkMem:00000000 Task_OS_StkMem
C:\Users\why\AppData\Local\Temp\ccNE1a8I.s:2794   .bss.TskHdl_PndMap:00000000 $d
C:\Users\why\AppData\Local\Temp\ccNE1a8I.s:2798   .bss.TskHdl_PndMap:00000000 TskHdl_PndMap
C:\Users\why\AppData\Local\Temp\ccNE1a8I.s:2801   .bss.TaskSys_Idle_US:00000000 $d
C:\Users\why\AppData\Local\Temp\ccNE1a8I.s:2805   .bss.TaskSys_Idle_US:00000000 TaskSys_Idle_US
C:\Users\why\AppData\Local\Temp\ccNE1a8I.s:2811   .bss.TskSys_state:00000000 TskSys_state
C:\Users\why\AppData\Local\Temp\ccNE1a8I.s:2812   .bss.TskSys_state:00000000 $d
C:\Users\why\AppData\Local\Temp\ccNE1a8I.s:2814   .bss.TskHdl_BlkMap:00000000 $d
C:\Users\why\AppData\Local\Temp\ccNE1a8I.s:2818   .bss.TskHdl_BlkMap:00000000 TskHdl_BlkMap
C:\Users\why\AppData\Local\Temp\ccNE1a8I.s:2821   .bss.NxtRunTsk_Ptr:00000000 $d
C:\Users\why\AppData\Local\Temp\ccNE1a8I.s:2828   .bss.TskCrt_RegList:00000000 $d
C:\Users\why\AppData\Local\Temp\ccNE1a8I.s:2832   .bss.TskCrt_RegList:00000000 TskCrt_RegList
C:\Users\why\AppData\Local\Temp\ccNE1a8I.s:2835   .rodata.Tsk_Handle:00000000 $d
C:\Users\why\AppData\Local\Temp\ccNE1a8I.s:2839   .rodata.Tsk_Handle:00000000 Tsk_Handle
C:\Users\why\AppData\Local\Temp\ccNE1a8I.s:3097   .bss.PndHstTsk_Ptr:00000000 $d
C:\Users\why\AppData\Local\Temp\ccNE1a8I.s:3104   .bss.CurRunTsk_Ptr:00000000 $d
C:\Users\why\AppData\Local\Temp\ccNE1a8I.s:1824   .text.Task_TriggerPendSV:0000000a $d
C:\Users\why\AppData\Local\Temp\ccNE1a8I.s:8892   .text.Task_TriggerPendSV:0000000c $d
C:\Users\why\AppData\Local\Temp\ccNE1a8I.s:1490   .text.Task_Load:00000022 $d
C:\Users\why\AppData\Local\Temp\ccNE1a8I.s:8892   .text.Task_Load:00000024 $d
C:\Users\why\AppData\Local\Temp\ccNE1a8I.s:368    .text.Task_SetPendSVPro:00000016 $d
C:\Users\why\AppData\Local\Temp\ccNE1a8I.s:8892   .text.Task_SetPendSVPro:00000018 $d
                     .debug_frame:00000010 $d

UNDEFINED SYMBOLS
List_ItemInit
RuntimeObj_Reset
memset
__aeabi_ul2f
Get_CurrentRunningUs
Get_TimeDifference_Between
Get_TargetRunTime
RuntimeObj_CompareWithCurrent
ARM GAS  C:\Users\why\AppData\Local\Temp\ccNE1a8I.s 			page 82


List_traverse
__aeabi_ui2d
__aeabi_ddiv
__aeabi_d2uiz
malloc
List_Init
List_Insert_Item
free
Runtime_Config
Runtime_Set_start_Callback
Runtime_Set_stop_Callback
Runtime_Set_tick_Callback
Runtime_Start
RunTime_Tick
