ARM GAS  C:\Users\why\AppData\Local\Temp\ccD1LaCy.s 			page 1


   1              		.syntax unified
   2              		.cpu cortex-m4
   3              		.eabi_attribute 27, 1
   4              		.eabi_attribute 28, 1
   5              		.fpu fpv4-sp-d16
   6              		.eabi_attribute 20, 1
   7              		.eabi_attribute 21, 1
   8              		.eabi_attribute 23, 3
   9              		.eabi_attribute 24, 1
  10              		.eabi_attribute 25, 1
  11              		.eabi_attribute 26, 1
  12              		.eabi_attribute 30, 1
  13              		.eabi_attribute 34, 1
  14              		.eabi_attribute 18, 4
  15              		.thumb
  16              		.syntax unified
  17              		.file	"tm_stm32f4_usb_vcp.c"
  18              		.text
  19              	.Ltext0:
  20              		.cfi_sections	.debug_frame
  21              		.section	.text.TM_USB_VCP_BufferEmpty,"ax",%progbits
  22              		.align	2
  23              		.global	TM_USB_VCP_BufferEmpty
  24              		.thumb
  25              		.thumb_func
  27              	TM_USB_VCP_BufferEmpty:
  28              	.LFB125:
  29              		.file 1 "USB/config/tm_stm32f4_usb_vcp.c"
   1:USB/config/tm_stm32f4_usb_vcp.c **** /**	
   2:USB/config/tm_stm32f4_usb_vcp.c ****  * |----------------------------------------------------------------------
   3:USB/config/tm_stm32f4_usb_vcp.c ****  * | Copyright (C) Tilen Majerle, 2014
   4:USB/config/tm_stm32f4_usb_vcp.c ****  * | 
   5:USB/config/tm_stm32f4_usb_vcp.c ****  * | This program is free software: you can redistribute it and/or modify
   6:USB/config/tm_stm32f4_usb_vcp.c ****  * | it under the terms of the GNU General Public License as published by
   7:USB/config/tm_stm32f4_usb_vcp.c ****  * | the Free Software Foundation, either version 3 of the License, or
   8:USB/config/tm_stm32f4_usb_vcp.c ****  * | any later version.
   9:USB/config/tm_stm32f4_usb_vcp.c ****  * |  
  10:USB/config/tm_stm32f4_usb_vcp.c ****  * | This program is distributed in the hope that it will be useful,
  11:USB/config/tm_stm32f4_usb_vcp.c ****  * | but WITHOUT ANY WARRANTY; without even the implied warranty of
  12:USB/config/tm_stm32f4_usb_vcp.c ****  * | MERCHANTABILITY or FITNESS FOR A PARTICULAR PURPOSE.  See the
  13:USB/config/tm_stm32f4_usb_vcp.c ****  * | GNU General Public License for more details.
  14:USB/config/tm_stm32f4_usb_vcp.c ****  * | 
  15:USB/config/tm_stm32f4_usb_vcp.c ****  * | You should have received a copy of the GNU General Public License
  16:USB/config/tm_stm32f4_usb_vcp.c ****  * | along with this program.  If not, see <http://www.gnu.org/licenses/>.
  17:USB/config/tm_stm32f4_usb_vcp.c ****  * |----------------------------------------------------------------------
  18:USB/config/tm_stm32f4_usb_vcp.c ****  */
  19:USB/config/tm_stm32f4_usb_vcp.c **** #include "tm_stm32f4_usb_vcp.h"
  20:USB/config/tm_stm32f4_usb_vcp.c **** #include "usbd_usr.h"
  21:USB/config/tm_stm32f4_usb_vcp.c **** #include "usb_conf.h"
  22:USB/config/tm_stm32f4_usb_vcp.c **** #include "usbd_desc.h"
  23:USB/config/tm_stm32f4_usb_vcp.c **** 
  24:USB/config/tm_stm32f4_usb_vcp.c **** const uint8_t PackEnd[2] = {0X0D, 0X0A};
  25:USB/config/tm_stm32f4_usb_vcp.c **** 
  26:USB/config/tm_stm32f4_usb_vcp.c **** /* Private */
  27:USB/config/tm_stm32f4_usb_vcp.c **** TM_USB_VCP_IRQ_Data TM_IRQ_Data;
  28:USB/config/tm_stm32f4_usb_vcp.c **** TM_USB_VCP_IRQ TM_USB_VCP_IRQ_Status = TM_USB_VCP_IRQ_RESET;
  29:USB/config/tm_stm32f4_usb_vcp.c **** uint8_t TM_INT_USB_VCP_ReceiveBuffer[USB_VCP_RECEIVE_BUFFER_LENGTH];
ARM GAS  C:\Users\why\AppData\Local\Temp\ccD1LaCy.s 			page 2


  30:USB/config/tm_stm32f4_usb_vcp.c **** uint32_t tm_int_usb_vcp_buf_in, tm_int_usb_vcp_buf_out, tm_int_usb_vcp_buf_num;
  31:USB/config/tm_stm32f4_usb_vcp.c **** extern TM_USB_VCP_Result TM_USB_VCP_INT_Status;
  32:USB/config/tm_stm32f4_usb_vcp.c **** extern LINE_CODING linecoding;
  33:USB/config/tm_stm32f4_usb_vcp.c **** uint8_t TM_USB_VCP_INT_Init = 0;
  34:USB/config/tm_stm32f4_usb_vcp.c **** USB_OTG_CORE_HANDLE USB_OTG_dev;
  35:USB/config/tm_stm32f4_usb_vcp.c **** 
  36:USB/config/tm_stm32f4_usb_vcp.c **** /* USB VCP Internal receive buffer */
  37:USB/config/tm_stm32f4_usb_vcp.c **** extern uint8_t TM_INT_USB_VCP_ReceiveBuffer[USB_VCP_RECEIVE_BUFFER_LENGTH];
  38:USB/config/tm_stm32f4_usb_vcp.c **** 
  39:USB/config/tm_stm32f4_usb_vcp.c **** void TM_USB_VCP_Reset_IRQ(void);
  40:USB/config/tm_stm32f4_usb_vcp.c **** 
  41:USB/config/tm_stm32f4_usb_vcp.c **** TM_USB_VCP_Result TM_USB_VCP_Init(void)
  42:USB/config/tm_stm32f4_usb_vcp.c **** {
  43:USB/config/tm_stm32f4_usb_vcp.c **** 	/* Initialize USB */
  44:USB/config/tm_stm32f4_usb_vcp.c **** 	USBD_Init(&USB_OTG_dev,
  45:USB/config/tm_stm32f4_usb_vcp.c **** #ifdef USE_USB_OTG_FS
  46:USB/config/tm_stm32f4_usb_vcp.c **** 			  USB_OTG_FS_CORE_ID,
  47:USB/config/tm_stm32f4_usb_vcp.c **** #else
  48:USB/config/tm_stm32f4_usb_vcp.c **** 			  USB_OTG_HS_CORE_ID,
  49:USB/config/tm_stm32f4_usb_vcp.c **** #endif
  50:USB/config/tm_stm32f4_usb_vcp.c **** 			  &USR_desc,
  51:USB/config/tm_stm32f4_usb_vcp.c **** 			  &USBD_CDC_cb,
  52:USB/config/tm_stm32f4_usb_vcp.c **** 			  &USR_cb);
  53:USB/config/tm_stm32f4_usb_vcp.c **** 
  54:USB/config/tm_stm32f4_usb_vcp.c **** 	/* Reset buffer counters */
  55:USB/config/tm_stm32f4_usb_vcp.c **** 	tm_int_usb_vcp_buf_in = 0;
  56:USB/config/tm_stm32f4_usb_vcp.c **** 	tm_int_usb_vcp_buf_out = 0;
  57:USB/config/tm_stm32f4_usb_vcp.c **** 	tm_int_usb_vcp_buf_num = 0;
  58:USB/config/tm_stm32f4_usb_vcp.c **** 
  59:USB/config/tm_stm32f4_usb_vcp.c **** 	/* Initialized */
  60:USB/config/tm_stm32f4_usb_vcp.c **** 	TM_USB_VCP_INT_Init = 1;
  61:USB/config/tm_stm32f4_usb_vcp.c **** 
  62:USB/config/tm_stm32f4_usb_vcp.c **** 	TM_USB_VCP_Reset_IRQ();
  63:USB/config/tm_stm32f4_usb_vcp.c **** 
  64:USB/config/tm_stm32f4_usb_vcp.c **** 	/* Return OK */
  65:USB/config/tm_stm32f4_usb_vcp.c **** 	return TM_USB_VCP_OK;
  66:USB/config/tm_stm32f4_usb_vcp.c **** }
  67:USB/config/tm_stm32f4_usb_vcp.c **** 
  68:USB/config/tm_stm32f4_usb_vcp.c **** uint8_t TM_USB_VCP_BufferEmpty(void)
  69:USB/config/tm_stm32f4_usb_vcp.c **** {
  30              		.loc 1 69 0
  31              		.cfi_startproc
  32              		@ args = 0, pretend = 0, frame = 0
  33              		@ frame_needed = 0, uses_anonymous_args = 0
  34              		@ link register save eliminated.
  70:USB/config/tm_stm32f4_usb_vcp.c **** 	return (tm_int_usb_vcp_buf_num == 0);
  35              		.loc 1 70 0
  36 0000 024B     		ldr	r3, .L2
  37 0002 1868     		ldr	r0, [r3]
  71:USB/config/tm_stm32f4_usb_vcp.c **** }
  38              		.loc 1 71 0
  39 0004 B0FA80F0 		clz	r0, r0
  40 0008 4009     		lsrs	r0, r0, #5
  41 000a 7047     		bx	lr
  42              	.L3:
  43              		.align	2
  44              	.L2:
ARM GAS  C:\Users\why\AppData\Local\Temp\ccD1LaCy.s 			page 3


  45 000c 00000000 		.word	tm_int_usb_vcp_buf_num
  46              		.cfi_endproc
  47              	.LFE125:
  49              		.section	.text.TM_USB_VCP_BufferFull,"ax",%progbits
  50              		.align	2
  51              		.global	TM_USB_VCP_BufferFull
  52              		.thumb
  53              		.thumb_func
  55              	TM_USB_VCP_BufferFull:
  56              	.LFB126:
  72:USB/config/tm_stm32f4_usb_vcp.c **** 
  73:USB/config/tm_stm32f4_usb_vcp.c **** uint8_t TM_USB_VCP_BufferFull(void)
  74:USB/config/tm_stm32f4_usb_vcp.c **** {
  57              		.loc 1 74 0
  58              		.cfi_startproc
  59              		@ args = 0, pretend = 0, frame = 0
  60              		@ frame_needed = 0, uses_anonymous_args = 0
  61              		@ link register save eliminated.
  75:USB/config/tm_stm32f4_usb_vcp.c **** 	return (tm_int_usb_vcp_buf_num == USB_VCP_RECEIVE_BUFFER_LENGTH);
  62              		.loc 1 75 0
  63 0000 034B     		ldr	r3, .L5
  64 0002 1868     		ldr	r0, [r3]
  76:USB/config/tm_stm32f4_usb_vcp.c **** }
  65              		.loc 1 76 0
  66 0004 B0F5807F 		cmp	r0, #256
  67 0008 14BF     		ite	ne
  68 000a 0020     		movne	r0, #0
  69 000c 0120     		moveq	r0, #1
  70 000e 7047     		bx	lr
  71              	.L6:
  72              		.align	2
  73              	.L5:
  74 0010 00000000 		.word	tm_int_usb_vcp_buf_num
  75              		.cfi_endproc
  76              	.LFE126:
  78              		.section	.text.TM_USB_VCP_FindCharacter,"ax",%progbits
  79              		.align	2
  80              		.global	TM_USB_VCP_FindCharacter
  81              		.thumb
  82              		.thumb_func
  84              	TM_USB_VCP_FindCharacter:
  85              	.LFB127:
  77:USB/config/tm_stm32f4_usb_vcp.c **** 
  78:USB/config/tm_stm32f4_usb_vcp.c **** uint8_t TM_USB_VCP_FindCharacter(volatile char c)
  79:USB/config/tm_stm32f4_usb_vcp.c **** {
  86              		.loc 1 79 0
  87              		.cfi_startproc
  88              		@ args = 0, pretend = 0, frame = 8
  89              		@ frame_needed = 0, uses_anonymous_args = 0
  90              		@ link register save eliminated.
  91              	.LVL0:
  92 0000 82B0     		sub	sp, sp, #8
  93              	.LCFI0:
  94              		.cfi_def_cfa_offset 8
  95 0002 8DF80700 		strb	r0, [sp, #7]
  80:USB/config/tm_stm32f4_usb_vcp.c **** 	uint16_t num, out;
  81:USB/config/tm_stm32f4_usb_vcp.c **** 
ARM GAS  C:\Users\why\AppData\Local\Temp\ccD1LaCy.s 			page 4


  82:USB/config/tm_stm32f4_usb_vcp.c **** 	/* Temp variables */
  83:USB/config/tm_stm32f4_usb_vcp.c **** 	num = tm_int_usb_vcp_buf_num;
  96              		.loc 1 83 0
  97 0006 0D4B     		ldr	r3, .L15
  98 0008 1A88     		ldrh	r2, [r3]
  99              	.LVL1:
  84:USB/config/tm_stm32f4_usb_vcp.c **** 	out = tm_int_usb_vcp_buf_out;
 100              		.loc 1 84 0
 101 000a 0D4B     		ldr	r3, .L15+4
 102 000c 1B88     		ldrh	r3, [r3]
 103              	.LVL2:
  85:USB/config/tm_stm32f4_usb_vcp.c **** 
  86:USB/config/tm_stm32f4_usb_vcp.c **** 	while (num > 0)
 104              		.loc 1 86 0
 105 000e 0EE0     		b	.L8
 106              	.LVL3:
 107              	.L11:
  87:USB/config/tm_stm32f4_usb_vcp.c **** 	{
  88:USB/config/tm_stm32f4_usb_vcp.c **** 		/* Check overflow */
  89:USB/config/tm_stm32f4_usb_vcp.c **** 		if (out == USB_VCP_RECEIVE_BUFFER_LENGTH)
 108              		.loc 1 89 0
 109 0010 B3F5807F 		cmp	r3, #256
 110 0014 00D1     		bne	.L9
  90:USB/config/tm_stm32f4_usb_vcp.c **** 		{
  91:USB/config/tm_stm32f4_usb_vcp.c **** 			out = 0;
 111              		.loc 1 91 0
 112 0016 0023     		movs	r3, #0
 113              	.LVL4:
 114              	.L9:
  92:USB/config/tm_stm32f4_usb_vcp.c **** 		}
  93:USB/config/tm_stm32f4_usb_vcp.c **** 		if (TM_INT_USB_VCP_ReceiveBuffer[out] == c)
 115              		.loc 1 93 0
 116 0018 0A49     		ldr	r1, .L15+8
 117 001a C85C     		ldrb	r0, [r1, r3]	@ zero_extendqisi2
 118 001c 9DF80710 		ldrb	r1, [sp, #7]	@ zero_extendqisi2
 119 0020 C9B2     		uxtb	r1, r1
 120 0022 8842     		cmp	r0, r1
 121 0024 07D0     		beq	.L13
  94:USB/config/tm_stm32f4_usb_vcp.c **** 		{
  95:USB/config/tm_stm32f4_usb_vcp.c **** 			/* Character found */
  96:USB/config/tm_stm32f4_usb_vcp.c **** 			return 1;
  97:USB/config/tm_stm32f4_usb_vcp.c **** 		}
  98:USB/config/tm_stm32f4_usb_vcp.c **** 		out++;
 122              		.loc 1 98 0
 123 0026 0133     		adds	r3, r3, #1
 124              	.LVL5:
 125 0028 9BB2     		uxth	r3, r3
 126              	.LVL6:
  99:USB/config/tm_stm32f4_usb_vcp.c **** 		num--;
 127              		.loc 1 99 0
 128 002a 013A     		subs	r2, r2, #1
 129              	.LVL7:
 130 002c 92B2     		uxth	r2, r2
 131              	.LVL8:
 132              	.L8:
  86:USB/config/tm_stm32f4_usb_vcp.c **** 	{
 133              		.loc 1 86 0
ARM GAS  C:\Users\why\AppData\Local\Temp\ccD1LaCy.s 			page 5


 134 002e 002A     		cmp	r2, #0
 135 0030 EED1     		bne	.L11
 100:USB/config/tm_stm32f4_usb_vcp.c **** 	}
 101:USB/config/tm_stm32f4_usb_vcp.c **** 
 102:USB/config/tm_stm32f4_usb_vcp.c **** 	/* Character is not in buffer */
 103:USB/config/tm_stm32f4_usb_vcp.c **** 	return 0;
 136              		.loc 1 103 0
 137 0032 0020     		movs	r0, #0
 138 0034 00E0     		b	.L10
 139              	.L13:
  96:USB/config/tm_stm32f4_usb_vcp.c **** 		}
 140              		.loc 1 96 0
 141 0036 0120     		movs	r0, #1
 142              	.L10:
 104:USB/config/tm_stm32f4_usb_vcp.c **** }
 143              		.loc 1 104 0
 144 0038 02B0     		add	sp, sp, #8
 145              	.LCFI1:
 146              		.cfi_def_cfa_offset 0
 147              		@ sp needed
 148 003a 7047     		bx	lr
 149              	.L16:
 150              		.align	2
 151              	.L15:
 152 003c 00000000 		.word	tm_int_usb_vcp_buf_num
 153 0040 00000000 		.word	tm_int_usb_vcp_buf_out
 154 0044 00000000 		.word	TM_INT_USB_VCP_ReceiveBuffer
 155              		.cfi_endproc
 156              	.LFE127:
 158              		.section	.text.TM_USB_VCP_Getc,"ax",%progbits
 159              		.align	2
 160              		.global	TM_USB_VCP_Getc
 161              		.thumb
 162              		.thumb_func
 164              	TM_USB_VCP_Getc:
 165              	.LFB128:
 105:USB/config/tm_stm32f4_usb_vcp.c **** 
 106:USB/config/tm_stm32f4_usb_vcp.c **** TM_USB_VCP_Result TM_USB_VCP_Getc(uint8_t *c)
 107:USB/config/tm_stm32f4_usb_vcp.c **** {
 166              		.loc 1 107 0
 167              		.cfi_startproc
 168              		@ args = 0, pretend = 0, frame = 0
 169              		@ frame_needed = 0, uses_anonymous_args = 0
 170              		@ link register save eliminated.
 171              	.LVL9:
 108:USB/config/tm_stm32f4_usb_vcp.c **** 	/* Any data in buffer */
 109:USB/config/tm_stm32f4_usb_vcp.c **** 	if (tm_int_usb_vcp_buf_num > 0)
 172              		.loc 1 109 0
 173 0000 0E4B     		ldr	r3, .L21
 174 0002 1B68     		ldr	r3, [r3]
 175 0004 B3B1     		cbz	r3, .L18
 110:USB/config/tm_stm32f4_usb_vcp.c **** 	{
 111:USB/config/tm_stm32f4_usb_vcp.c **** 		/* Check overflow */
 112:USB/config/tm_stm32f4_usb_vcp.c **** 		if (tm_int_usb_vcp_buf_out >= USB_VCP_RECEIVE_BUFFER_LENGTH)
 176              		.loc 1 112 0
 177 0006 0E4B     		ldr	r3, .L21+4
 178 0008 1B68     		ldr	r3, [r3]
ARM GAS  C:\Users\why\AppData\Local\Temp\ccD1LaCy.s 			page 6


 179 000a FF2B     		cmp	r3, #255
 180 000c 02D9     		bls	.L19
 113:USB/config/tm_stm32f4_usb_vcp.c **** 		{
 114:USB/config/tm_stm32f4_usb_vcp.c **** 			tm_int_usb_vcp_buf_out = 0;
 181              		.loc 1 114 0
 182 000e 0022     		movs	r2, #0
 183 0010 0B4B     		ldr	r3, .L21+4
 184 0012 1A60     		str	r2, [r3]
 185              	.L19:
 115:USB/config/tm_stm32f4_usb_vcp.c **** 		}
 116:USB/config/tm_stm32f4_usb_vcp.c **** 		*c = TM_INT_USB_VCP_ReceiveBuffer[tm_int_usb_vcp_buf_out];
 186              		.loc 1 116 0
 187 0014 0B49     		ldr	r1, .L21+8
 188 0016 0A4A     		ldr	r2, .L21+4
 189 0018 1368     		ldr	r3, [r2]
 190 001a CB5C     		ldrb	r3, [r1, r3]	@ zero_extendqisi2
 191 001c 0370     		strb	r3, [r0]
 117:USB/config/tm_stm32f4_usb_vcp.c **** 		TM_INT_USB_VCP_ReceiveBuffer[tm_int_usb_vcp_buf_out] = 0;
 192              		.loc 1 117 0
 193 001e 1368     		ldr	r3, [r2]
 194 0020 0020     		movs	r0, #0
 195              	.LVL10:
 196 0022 C854     		strb	r0, [r1, r3]
 118:USB/config/tm_stm32f4_usb_vcp.c **** 
 119:USB/config/tm_stm32f4_usb_vcp.c **** 		/* Set counters */
 120:USB/config/tm_stm32f4_usb_vcp.c **** 		tm_int_usb_vcp_buf_out++;
 197              		.loc 1 120 0
 198 0024 0133     		adds	r3, r3, #1
 199 0026 1360     		str	r3, [r2]
 121:USB/config/tm_stm32f4_usb_vcp.c **** 		tm_int_usb_vcp_buf_num--;
 200              		.loc 1 121 0
 201 0028 044A     		ldr	r2, .L21
 202 002a 1368     		ldr	r3, [r2]
 203 002c 013B     		subs	r3, r3, #1
 204 002e 1360     		str	r3, [r2]
 122:USB/config/tm_stm32f4_usb_vcp.c **** 
 123:USB/config/tm_stm32f4_usb_vcp.c **** 		/* Data OK */
 124:USB/config/tm_stm32f4_usb_vcp.c **** 		return TM_USB_VCP_DATA_OK;
 205              		.loc 1 124 0
 206 0030 0320     		movs	r0, #3
 207 0032 7047     		bx	lr
 208              	.LVL11:
 209              	.L18:
 125:USB/config/tm_stm32f4_usb_vcp.c **** 	}
 126:USB/config/tm_stm32f4_usb_vcp.c **** 	*c = 0;
 210              		.loc 1 126 0
 211 0034 0023     		movs	r3, #0
 212 0036 0370     		strb	r3, [r0]
 127:USB/config/tm_stm32f4_usb_vcp.c **** 	/* Data not ready */
 128:USB/config/tm_stm32f4_usb_vcp.c **** 	return TM_USB_VCP_DATA_EMPTY;
 213              		.loc 1 128 0
 214 0038 0420     		movs	r0, #4
 215              	.LVL12:
 129:USB/config/tm_stm32f4_usb_vcp.c **** }
 216              		.loc 1 129 0
 217 003a 7047     		bx	lr
 218              	.L22:
ARM GAS  C:\Users\why\AppData\Local\Temp\ccD1LaCy.s 			page 7


 219              		.align	2
 220              	.L21:
 221 003c 00000000 		.word	tm_int_usb_vcp_buf_num
 222 0040 00000000 		.word	tm_int_usb_vcp_buf_out
 223 0044 00000000 		.word	TM_INT_USB_VCP_ReceiveBuffer
 224              		.cfi_endproc
 225              	.LFE128:
 227              		.section	.text.TM_USB_VCP_Putc,"ax",%progbits
 228              		.align	2
 229              		.global	TM_USB_VCP_Putc
 230              		.thumb
 231              		.thumb_func
 233              	TM_USB_VCP_Putc:
 234              	.LFB129:
 130:USB/config/tm_stm32f4_usb_vcp.c **** 
 131:USB/config/tm_stm32f4_usb_vcp.c **** TM_USB_VCP_Result TM_USB_VCP_Putc(volatile char c)
 132:USB/config/tm_stm32f4_usb_vcp.c **** {
 235              		.loc 1 132 0
 236              		.cfi_startproc
 237              		@ args = 0, pretend = 0, frame = 16
 238              		@ frame_needed = 0, uses_anonymous_args = 0
 239              	.LVL13:
 240 0000 00B5     		push	{lr}
 241              	.LCFI2:
 242              		.cfi_def_cfa_offset 4
 243              		.cfi_offset 14, -4
 244 0002 85B0     		sub	sp, sp, #20
 245              	.LCFI3:
 246              		.cfi_def_cfa_offset 24
 247 0004 8DF80700 		strb	r0, [sp, #7]
 133:USB/config/tm_stm32f4_usb_vcp.c **** 	uint8_t ce = (uint8_t)c;
 248              		.loc 1 133 0
 249 0008 9DF80730 		ldrb	r3, [sp, #7]	@ zero_extendqisi2
 250              	.LVL14:
 251 000c 04A8     		add	r0, sp, #16
 252 000e 00F8013D 		strb	r3, [r0, #-1]!
 134:USB/config/tm_stm32f4_usb_vcp.c **** 
 135:USB/config/tm_stm32f4_usb_vcp.c **** 	/* Send data over USB */
 136:USB/config/tm_stm32f4_usb_vcp.c **** 	VCP_DataTx(&ce, 1);
 253              		.loc 1 136 0
 254 0012 0121     		movs	r1, #1
 255 0014 FFF7FEFF 		bl	VCP_DataTx
 256              	.LVL15:
 137:USB/config/tm_stm32f4_usb_vcp.c **** 
 138:USB/config/tm_stm32f4_usb_vcp.c **** 	/* Return OK */
 139:USB/config/tm_stm32f4_usb_vcp.c **** 	return TM_USB_VCP_OK;
 140:USB/config/tm_stm32f4_usb_vcp.c **** }
 257              		.loc 1 140 0
 258 0018 0020     		movs	r0, #0
 259 001a 05B0     		add	sp, sp, #20
 260              	.LCFI4:
 261              		.cfi_def_cfa_offset 4
 262              		@ sp needed
 263 001c 5DF804FB 		ldr	pc, [sp], #4
 264              		.cfi_endproc
 265              	.LFE129:
 267              		.section	.text.TM_USB_VCP_Puts,"ax",%progbits
ARM GAS  C:\Users\why\AppData\Local\Temp\ccD1LaCy.s 			page 8


 268              		.align	2
 269              		.global	TM_USB_VCP_Puts
 270              		.thumb
 271              		.thumb_func
 273              	TM_USB_VCP_Puts:
 274              	.LFB130:
 141:USB/config/tm_stm32f4_usb_vcp.c **** 
 142:USB/config/tm_stm32f4_usb_vcp.c **** TM_USB_VCP_Result TM_USB_VCP_Puts(char *str)
 143:USB/config/tm_stm32f4_usb_vcp.c **** {
 275              		.loc 1 143 0
 276              		.cfi_startproc
 277              		@ args = 0, pretend = 0, frame = 0
 278              		@ frame_needed = 0, uses_anonymous_args = 0
 279              	.LVL16:
 280 0000 10B5     		push	{r4, lr}
 281              	.LCFI5:
 282              		.cfi_def_cfa_offset 8
 283              		.cfi_offset 4, -8
 284              		.cfi_offset 14, -4
 285 0002 0446     		mov	r4, r0
 144:USB/config/tm_stm32f4_usb_vcp.c **** 	while (*str)
 286              		.loc 1 144 0
 287 0004 02E0     		b	.L26
 288              	.LVL17:
 289              	.L27:
 145:USB/config/tm_stm32f4_usb_vcp.c **** 	{
 146:USB/config/tm_stm32f4_usb_vcp.c **** 		TM_USB_VCP_Putc(*str++);
 290              		.loc 1 146 0
 291 0006 0134     		adds	r4, r4, #1
 292              	.LVL18:
 293 0008 FFF7FEFF 		bl	TM_USB_VCP_Putc
 294              	.LVL19:
 295              	.L26:
 144:USB/config/tm_stm32f4_usb_vcp.c **** 	while (*str)
 296              		.loc 1 144 0
 297 000c 2078     		ldrb	r0, [r4]	@ zero_extendqisi2
 298 000e 0028     		cmp	r0, #0
 299 0010 F9D1     		bne	.L27
 147:USB/config/tm_stm32f4_usb_vcp.c **** 	}
 148:USB/config/tm_stm32f4_usb_vcp.c **** 
 149:USB/config/tm_stm32f4_usb_vcp.c **** 	/* Return OK */
 150:USB/config/tm_stm32f4_usb_vcp.c **** 	return TM_USB_VCP_OK;
 151:USB/config/tm_stm32f4_usb_vcp.c **** }
 300              		.loc 1 151 0
 301 0012 10BD     		pop	{r4, pc}
 302              		.cfi_endproc
 303              	.LFE130:
 305              		.section	.text.TM_USB_VCP_Send,"ax",%progbits
 306              		.align	2
 307              		.global	TM_USB_VCP_Send
 308              		.thumb
 309              		.thumb_func
 311              	TM_USB_VCP_Send:
 312              	.LFB131:
 152:USB/config/tm_stm32f4_usb_vcp.c **** 
 153:USB/config/tm_stm32f4_usb_vcp.c **** TM_USB_VCP_Result TM_USB_VCP_Send(uint8_t *DataArray, uint32_t Length)
 154:USB/config/tm_stm32f4_usb_vcp.c **** {
ARM GAS  C:\Users\why\AppData\Local\Temp\ccD1LaCy.s 			page 9


 313              		.loc 1 154 0
 314              		.cfi_startproc
 315              		@ args = 0, pretend = 0, frame = 0
 316              		@ frame_needed = 0, uses_anonymous_args = 0
 317              	.LVL20:
 318 0000 08B5     		push	{r3, lr}
 319              	.LCFI6:
 320              		.cfi_def_cfa_offset 8
 321              		.cfi_offset 3, -8
 322              		.cfi_offset 14, -4
 155:USB/config/tm_stm32f4_usb_vcp.c **** 	/* Send array */
 156:USB/config/tm_stm32f4_usb_vcp.c **** 	VCP_DataTx(DataArray, Length);
 323              		.loc 1 156 0
 324 0002 FFF7FEFF 		bl	VCP_DataTx
 325              	.LVL21:
 157:USB/config/tm_stm32f4_usb_vcp.c **** 
 158:USB/config/tm_stm32f4_usb_vcp.c **** 	/* Return OK */
 159:USB/config/tm_stm32f4_usb_vcp.c **** 	return TM_USB_VCP_OK;
 160:USB/config/tm_stm32f4_usb_vcp.c **** }
 326              		.loc 1 160 0
 327 0006 0020     		movs	r0, #0
 328 0008 08BD     		pop	{r3, pc}
 329              		.cfi_endproc
 330              	.LFE131:
 332 000a 00BF     		.section	.text.TM_USB_VCP_Gets,"ax",%progbits
 333              		.align	2
 334              		.global	TM_USB_VCP_Gets
 335              		.thumb
 336              		.thumb_func
 338              	TM_USB_VCP_Gets:
 339              	.LFB132:
 161:USB/config/tm_stm32f4_usb_vcp.c **** 
 162:USB/config/tm_stm32f4_usb_vcp.c **** uint16_t TM_USB_VCP_Gets(char *buffer, uint16_t bufsize)
 163:USB/config/tm_stm32f4_usb_vcp.c **** {
 340              		.loc 1 163 0
 341              		.cfi_startproc
 342              		@ args = 0, pretend = 0, frame = 8
 343              		@ frame_needed = 0, uses_anonymous_args = 0
 344              	.LVL22:
 345 0000 70B5     		push	{r4, r5, r6, lr}
 346              	.LCFI7:
 347              		.cfi_def_cfa_offset 16
 348              		.cfi_offset 4, -16
 349              		.cfi_offset 5, -12
 350              		.cfi_offset 6, -8
 351              		.cfi_offset 14, -4
 352 0002 82B0     		sub	sp, sp, #8
 353              	.LCFI8:
 354              		.cfi_def_cfa_offset 24
 355 0004 0546     		mov	r5, r0
 356 0006 0E46     		mov	r6, r1
 357              	.LVL23:
 164:USB/config/tm_stm32f4_usb_vcp.c **** 	uint16_t i = 0;
 165:USB/config/tm_stm32f4_usb_vcp.c **** 	uint8_t c;
 166:USB/config/tm_stm32f4_usb_vcp.c **** 
 167:USB/config/tm_stm32f4_usb_vcp.c **** 	/* Check for any data on USART */
 168:USB/config/tm_stm32f4_usb_vcp.c **** 	if (TM_USB_VCP_BufferEmpty() || (!TM_USB_VCP_FindCharacter('\n') && !TM_USB_VCP_BufferFull()))
ARM GAS  C:\Users\why\AppData\Local\Temp\ccD1LaCy.s 			page 10


 358              		.loc 1 168 0
 359 0008 FFF7FEFF 		bl	TM_USB_VCP_BufferEmpty
 360              	.LVL24:
 361 000c 08BB     		cbnz	r0, .L37
 362              		.loc 1 168 0 is_stmt 0 discriminator 1
 363 000e 0A20     		movs	r0, #10
 364 0010 FFF7FEFF 		bl	TM_USB_VCP_FindCharacter
 365              	.LVL25:
 366 0014 A8B9     		cbnz	r0, .L38
 367              		.loc 1 168 0 discriminator 2
 368 0016 FFF7FEFF 		bl	TM_USB_VCP_BufferFull
 369              	.LVL26:
 370 001a E0B1     		cbz	r0, .L39
 371 001c 0024     		movs	r4, #0
 372 001e 11E0     		b	.L33
 373              	.LVL27:
 374              	.L34:
 169:USB/config/tm_stm32f4_usb_vcp.c **** 	{
 170:USB/config/tm_stm32f4_usb_vcp.c **** 		return 0;
 171:USB/config/tm_stm32f4_usb_vcp.c **** 	}
 172:USB/config/tm_stm32f4_usb_vcp.c **** 
 173:USB/config/tm_stm32f4_usb_vcp.c **** 	/* If available buffer size is more than 0 characters */
 174:USB/config/tm_stm32f4_usb_vcp.c **** 	while (i < (bufsize - 1))
 175:USB/config/tm_stm32f4_usb_vcp.c **** 	{
 176:USB/config/tm_stm32f4_usb_vcp.c **** 		/* We have available data */
 177:USB/config/tm_stm32f4_usb_vcp.c **** 		while (TM_USB_VCP_Getc(&c) != TM_USB_VCP_DATA_OK)
 375              		.loc 1 177 0 is_stmt 1 discriminator 1
 376 0020 0DF10700 		add	r0, sp, #7
 377 0024 FFF7FEFF 		bl	TM_USB_VCP_Getc
 378              	.LVL28:
 379 0028 0328     		cmp	r0, #3
 380 002a F9D1     		bne	.L34
 178:USB/config/tm_stm32f4_usb_vcp.c **** 			;
 179:USB/config/tm_stm32f4_usb_vcp.c **** 		/* Save new data */
 180:USB/config/tm_stm32f4_usb_vcp.c **** 		buffer[i] = (char)c;
 381              		.loc 1 180 0
 382 002c 9DF80730 		ldrb	r3, [sp, #7]	@ zero_extendqisi2
 383 0030 2B55     		strb	r3, [r5, r4]
 181:USB/config/tm_stm32f4_usb_vcp.c **** 		/* Check for end of string */
 182:USB/config/tm_stm32f4_usb_vcp.c **** 		if (buffer[i] == '\n')
 384              		.loc 1 182 0
 385 0032 0A2B     		cmp	r3, #10
 386 0034 02D1     		bne	.L35
 183:USB/config/tm_stm32f4_usb_vcp.c **** 		{
 184:USB/config/tm_stm32f4_usb_vcp.c **** 			i++;
 387              		.loc 1 184 0
 388 0036 0134     		adds	r4, r4, #1
 389              	.LVL29:
 390 0038 A4B2     		uxth	r4, r4
 391              	.LVL30:
 185:USB/config/tm_stm32f4_usb_vcp.c **** 			/* Done */
 186:USB/config/tm_stm32f4_usb_vcp.c **** 			break;
 392              		.loc 1 186 0
 393 003a 06E0     		b	.L36
 394              	.L35:
 187:USB/config/tm_stm32f4_usb_vcp.c **** 		}
 188:USB/config/tm_stm32f4_usb_vcp.c **** 		else
ARM GAS  C:\Users\why\AppData\Local\Temp\ccD1LaCy.s 			page 11


 189:USB/config/tm_stm32f4_usb_vcp.c **** 		{
 190:USB/config/tm_stm32f4_usb_vcp.c **** 			i++;
 395              		.loc 1 190 0
 396 003c 0134     		adds	r4, r4, #1
 397              	.LVL31:
 398 003e A4B2     		uxth	r4, r4
 399              	.LVL32:
 400 0040 00E0     		b	.L33
 401              	.LVL33:
 402              	.L38:
 403 0042 0024     		movs	r4, #0
 404              	.LVL34:
 405              	.L33:
 174:USB/config/tm_stm32f4_usb_vcp.c **** 	{
 406              		.loc 1 174 0
 407 0044 731E     		subs	r3, r6, #1
 408 0046 9C42     		cmp	r4, r3
 409 0048 EADB     		blt	.L34
 410              	.L36:
 191:USB/config/tm_stm32f4_usb_vcp.c **** 		}
 192:USB/config/tm_stm32f4_usb_vcp.c **** 	}
 193:USB/config/tm_stm32f4_usb_vcp.c **** 
 194:USB/config/tm_stm32f4_usb_vcp.c **** 	/* Add zero to the end of string */
 195:USB/config/tm_stm32f4_usb_vcp.c **** 	buffer[i] = 0;
 411              		.loc 1 195 0
 412 004a 0023     		movs	r3, #0
 413 004c 2B55     		strb	r3, [r5, r4]
 196:USB/config/tm_stm32f4_usb_vcp.c **** 
 197:USB/config/tm_stm32f4_usb_vcp.c **** 	/* Return number of characters in string */
 198:USB/config/tm_stm32f4_usb_vcp.c **** 	return i;
 414              		.loc 1 198 0
 415 004e 2046     		mov	r0, r4
 416 0050 02E0     		b	.L32
 417              	.LVL35:
 418              	.L37:
 170:USB/config/tm_stm32f4_usb_vcp.c **** 	}
 419              		.loc 1 170 0
 420 0052 0020     		movs	r0, #0
 421 0054 00E0     		b	.L32
 422              	.L39:
 423 0056 0020     		movs	r0, #0
 424              	.LVL36:
 425              	.L32:
 199:USB/config/tm_stm32f4_usb_vcp.c **** }
 426              		.loc 1 199 0
 427 0058 02B0     		add	sp, sp, #8
 428              	.LCFI9:
 429              		.cfi_def_cfa_offset 16
 430              		@ sp needed
 431 005a 70BD     		pop	{r4, r5, r6, pc}
 432              		.cfi_endproc
 433              	.LFE132:
 435              		.section	.text.TM_INT_USB_VCP_AddReceived,"ax",%progbits
 436              		.align	2
 437              		.global	TM_INT_USB_VCP_AddReceived
 438              		.thumb
 439              		.thumb_func
ARM GAS  C:\Users\why\AppData\Local\Temp\ccD1LaCy.s 			page 12


 441              	TM_INT_USB_VCP_AddReceived:
 442              	.LFB133:
 200:USB/config/tm_stm32f4_usb_vcp.c **** 
 201:USB/config/tm_stm32f4_usb_vcp.c **** TM_USB_VCP_Result TM_INT_USB_VCP_AddReceived(uint8_t c)
 202:USB/config/tm_stm32f4_usb_vcp.c **** {
 443              		.loc 1 202 0
 444              		.cfi_startproc
 445              		@ args = 0, pretend = 0, frame = 0
 446              		@ frame_needed = 0, uses_anonymous_args = 0
 447              		@ link register save eliminated.
 448              	.LVL37:
 203:USB/config/tm_stm32f4_usb_vcp.c **** 	/* Still available data in buffer */
 204:USB/config/tm_stm32f4_usb_vcp.c **** 	if (tm_int_usb_vcp_buf_num < USB_VCP_RECEIVE_BUFFER_LENGTH)
 449              		.loc 1 204 0
 450 0000 0D4B     		ldr	r3, .L47
 451 0002 1B68     		ldr	r3, [r3]
 452 0004 FF2B     		cmp	r3, #255
 453 0006 12D8     		bhi	.L44
 202:USB/config/tm_stm32f4_usb_vcp.c **** 	/* Still available data in buffer */
 454              		.loc 1 202 0
 455 0008 10B4     		push	{r4}
 456              	.LCFI10:
 457              		.cfi_def_cfa_offset 4
 458              		.cfi_offset 4, -4
 205:USB/config/tm_stm32f4_usb_vcp.c **** 	{
 206:USB/config/tm_stm32f4_usb_vcp.c **** 		/* Check for overflow */
 207:USB/config/tm_stm32f4_usb_vcp.c **** 		if (tm_int_usb_vcp_buf_in >= USB_VCP_RECEIVE_BUFFER_LENGTH)
 459              		.loc 1 207 0
 460 000a 0C4A     		ldr	r2, .L47+4
 461 000c 1268     		ldr	r2, [r2]
 462 000e FF2A     		cmp	r2, #255
 463 0010 02D9     		bls	.L43
 208:USB/config/tm_stm32f4_usb_vcp.c **** 		{
 209:USB/config/tm_stm32f4_usb_vcp.c **** 			tm_int_usb_vcp_buf_in = 0;
 464              		.loc 1 209 0
 465 0012 0021     		movs	r1, #0
 466 0014 094A     		ldr	r2, .L47+4
 467 0016 1160     		str	r1, [r2]
 468              	.L43:
 210:USB/config/tm_stm32f4_usb_vcp.c **** 		}
 211:USB/config/tm_stm32f4_usb_vcp.c **** 		/* Add character to buffer */
 212:USB/config/tm_stm32f4_usb_vcp.c **** 		TM_INT_USB_VCP_ReceiveBuffer[tm_int_usb_vcp_buf_in] = c;
 469              		.loc 1 212 0
 470 0018 0849     		ldr	r1, .L47+4
 471 001a 0A68     		ldr	r2, [r1]
 472 001c 084C     		ldr	r4, .L47+8
 473 001e A054     		strb	r0, [r4, r2]
 213:USB/config/tm_stm32f4_usb_vcp.c **** 		/* Increase counters */
 214:USB/config/tm_stm32f4_usb_vcp.c **** 		tm_int_usb_vcp_buf_in++;
 474              		.loc 1 214 0
 475 0020 0132     		adds	r2, r2, #1
 476 0022 0A60     		str	r2, [r1]
 215:USB/config/tm_stm32f4_usb_vcp.c **** 		tm_int_usb_vcp_buf_num++;
 477              		.loc 1 215 0
 478 0024 0133     		adds	r3, r3, #1
 479 0026 044A     		ldr	r2, .L47
 480 0028 1360     		str	r3, [r2]
ARM GAS  C:\Users\why\AppData\Local\Temp\ccD1LaCy.s 			page 13


 216:USB/config/tm_stm32f4_usb_vcp.c **** 
 217:USB/config/tm_stm32f4_usb_vcp.c **** 		/* Return OK */
 218:USB/config/tm_stm32f4_usb_vcp.c **** 		return TM_USB_VCP_OK;
 481              		.loc 1 218 0
 482 002a 0020     		movs	r0, #0
 483              	.LVL38:
 484 002c 01E0     		b	.L42
 485              	.LVL39:
 486              	.L44:
 487              	.LCFI11:
 488              		.cfi_def_cfa_offset 0
 489              		.cfi_restore 4
 219:USB/config/tm_stm32f4_usb_vcp.c **** 	}
 220:USB/config/tm_stm32f4_usb_vcp.c **** 
 221:USB/config/tm_stm32f4_usb_vcp.c **** 	/* Return Buffer full */
 222:USB/config/tm_stm32f4_usb_vcp.c **** 	return TM_USB_VCP_RECEIVE_BUFFER_FULL;
 490              		.loc 1 222 0
 491 002e 0220     		movs	r0, #2
 492              	.LVL40:
 493 0030 7047     		bx	lr
 494              	.LVL41:
 495              	.L42:
 496              	.LCFI12:
 497              		.cfi_def_cfa_offset 4
 498              		.cfi_offset 4, -4
 223:USB/config/tm_stm32f4_usb_vcp.c **** }
 499              		.loc 1 223 0
 500 0032 5DF8044B 		ldr	r4, [sp], #4
 501              	.LCFI13:
 502              		.cfi_restore 4
 503              		.cfi_def_cfa_offset 0
 504              	.LVL42:
 505 0036 7047     		bx	lr
 506              	.L48:
 507              		.align	2
 508              	.L47:
 509 0038 00000000 		.word	tm_int_usb_vcp_buf_num
 510 003c 00000000 		.word	tm_int_usb_vcp_buf_in
 511 0040 00000000 		.word	TM_INT_USB_VCP_ReceiveBuffer
 512              		.cfi_endproc
 513              	.LFE133:
 515              		.section	.text.TM_USB_VCP_GetStatus,"ax",%progbits
 516              		.align	2
 517              		.global	TM_USB_VCP_GetStatus
 518              		.thumb
 519              		.thumb_func
 521              	TM_USB_VCP_GetStatus:
 522              	.LFB134:
 224:USB/config/tm_stm32f4_usb_vcp.c **** 
 225:USB/config/tm_stm32f4_usb_vcp.c **** TM_USB_VCP_Result TM_USB_VCP_GetStatus(void)
 226:USB/config/tm_stm32f4_usb_vcp.c **** {
 523              		.loc 1 226 0
 524              		.cfi_startproc
 525              		@ args = 0, pretend = 0, frame = 0
 526              		@ frame_needed = 0, uses_anonymous_args = 0
 527              		@ link register save eliminated.
 227:USB/config/tm_stm32f4_usb_vcp.c **** 	if (TM_USB_VCP_INT_Init)
ARM GAS  C:\Users\why\AppData\Local\Temp\ccD1LaCy.s 			page 14


 528              		.loc 1 227 0
 529 0000 034B     		ldr	r3, .L52
 530 0002 1B78     		ldrb	r3, [r3]	@ zero_extendqisi2
 531 0004 13B1     		cbz	r3, .L51
 228:USB/config/tm_stm32f4_usb_vcp.c **** 	{
 229:USB/config/tm_stm32f4_usb_vcp.c **** 		return TM_USB_VCP_INT_Status;
 532              		.loc 1 229 0
 533 0006 034B     		ldr	r3, .L52+4
 534 0008 1878     		ldrb	r0, [r3]	@ zero_extendqisi2
 535 000a 7047     		bx	lr
 536              	.L51:
 230:USB/config/tm_stm32f4_usb_vcp.c **** 	}
 231:USB/config/tm_stm32f4_usb_vcp.c **** 	return TM_USB_VCP_ERROR;
 537              		.loc 1 231 0
 538 000c 0120     		movs	r0, #1
 232:USB/config/tm_stm32f4_usb_vcp.c **** }
 539              		.loc 1 232 0
 540 000e 7047     		bx	lr
 541              	.L53:
 542              		.align	2
 543              	.L52:
 544 0010 00000000 		.word	.LANCHOR0
 545 0014 00000000 		.word	TM_USB_VCP_INT_Status
 546              		.cfi_endproc
 547              	.LFE134:
 549              		.section	.text.TM_USB_VCP_GetSettings,"ax",%progbits
 550              		.align	2
 551              		.global	TM_USB_VCP_GetSettings
 552              		.thumb
 553              		.thumb_func
 555              	TM_USB_VCP_GetSettings:
 556              	.LFB135:
 233:USB/config/tm_stm32f4_usb_vcp.c **** 
 234:USB/config/tm_stm32f4_usb_vcp.c **** TM_USB_VCP_Result TM_USB_VCP_GetSettings(TM_USB_VCP_Settings_t *Settings)
 235:USB/config/tm_stm32f4_usb_vcp.c **** {
 557              		.loc 1 235 0
 558              		.cfi_startproc
 559              		@ args = 0, pretend = 0, frame = 0
 560              		@ frame_needed = 0, uses_anonymous_args = 0
 561              		@ link register save eliminated.
 562              	.LVL43:
 236:USB/config/tm_stm32f4_usb_vcp.c **** 	/* Fill data */
 237:USB/config/tm_stm32f4_usb_vcp.c **** 	Settings->Baudrate = linecoding.bitrate;
 563              		.loc 1 237 0
 564 0000 064B     		ldr	r3, .L55
 565 0002 1A68     		ldr	r2, [r3]
 566 0004 0260     		str	r2, [r0]
 238:USB/config/tm_stm32f4_usb_vcp.c **** 	Settings->DataBits = linecoding.datatype;
 567              		.loc 1 238 0
 568 0006 9A79     		ldrb	r2, [r3, #6]	@ zero_extendqisi2
 569 0008 4271     		strb	r2, [r0, #5]
 239:USB/config/tm_stm32f4_usb_vcp.c **** 	Settings->Parity = linecoding.paritytype;
 570              		.loc 1 239 0
 571 000a 5A79     		ldrb	r2, [r3, #5]	@ zero_extendqisi2
 572 000c 8271     		strb	r2, [r0, #6]
 240:USB/config/tm_stm32f4_usb_vcp.c **** 	Settings->Stopbits = linecoding.format;
 573              		.loc 1 240 0
ARM GAS  C:\Users\why\AppData\Local\Temp\ccD1LaCy.s 			page 15


 574 000e 1A79     		ldrb	r2, [r3, #4]	@ zero_extendqisi2
 575 0010 0271     		strb	r2, [r0, #4]
 241:USB/config/tm_stm32f4_usb_vcp.c **** 	Settings->Changed = linecoding.changed;
 576              		.loc 1 241 0
 577 0012 DA79     		ldrb	r2, [r3, #7]	@ zero_extendqisi2
 578 0014 C271     		strb	r2, [r0, #7]
 242:USB/config/tm_stm32f4_usb_vcp.c **** 
 243:USB/config/tm_stm32f4_usb_vcp.c **** 	/* Clear changed flag */
 244:USB/config/tm_stm32f4_usb_vcp.c **** 	linecoding.changed = 0;
 579              		.loc 1 244 0
 580 0016 0020     		movs	r0, #0
 581              	.LVL44:
 582 0018 D871     		strb	r0, [r3, #7]
 245:USB/config/tm_stm32f4_usb_vcp.c **** 
 246:USB/config/tm_stm32f4_usb_vcp.c **** 	/* Return OK */
 247:USB/config/tm_stm32f4_usb_vcp.c **** 	return TM_USB_VCP_OK;
 248:USB/config/tm_stm32f4_usb_vcp.c **** }
 583              		.loc 1 248 0
 584 001a 7047     		bx	lr
 585              	.L56:
 586              		.align	2
 587              	.L55:
 588 001c 00000000 		.word	linecoding
 589              		.cfi_endproc
 590              	.LFE135:
 592              		.section	.text.TM_USB_VCP_Set_IRQ,"ax",%progbits
 593              		.align	2
 594              		.global	TM_USB_VCP_Set_IRQ
 595              		.thumb
 596              		.thumb_func
 598              	TM_USB_VCP_Set_IRQ:
 599              	.LFB136:
 249:USB/config/tm_stm32f4_usb_vcp.c **** 
 250:USB/config/tm_stm32f4_usb_vcp.c **** void TM_USB_VCP_Set_IRQ(uint8_t *data, uint16_t data_len)
 251:USB/config/tm_stm32f4_usb_vcp.c **** {
 600              		.loc 1 251 0
 601              		.cfi_startproc
 602              		@ args = 0, pretend = 0, frame = 0
 603              		@ frame_needed = 0, uses_anonymous_args = 0
 604              		@ link register save eliminated.
 605              	.LVL45:
 606 0000 30B4     		push	{r4, r5}
 607              	.LCFI14:
 608              		.cfi_def_cfa_offset 8
 609              		.cfi_offset 4, -8
 610              		.cfi_offset 5, -4
 611              	.LVL46:
 612              	.LBB2:
 252:USB/config/tm_stm32f4_usb_vcp.c **** 
 253:USB/config/tm_stm32f4_usb_vcp.c **** 	for (uint16_t i = 0; i < data_len; i++)
 613              		.loc 1 253 0
 614 0002 0023     		movs	r3, #0
 615 0004 14E0     		b	.L58
 616              	.LVL47:
 617              	.L61:
 254:USB/config/tm_stm32f4_usb_vcp.c **** 	{
 255:USB/config/tm_stm32f4_usb_vcp.c **** 		TM_IRQ_Data.Buff[TM_IRQ_Data.Data_Len] = data[i];
ARM GAS  C:\Users\why\AppData\Local\Temp\ccD1LaCy.s 			page 16


 618              		.loc 1 255 0
 619 0006 0C4A     		ldr	r2, .L63
 620 0008 1488     		ldrh	r4, [r2]
 621 000a C55C     		ldrb	r5, [r0, r3]	@ zero_extendqisi2
 622 000c 2244     		add	r2, r2, r4
 623 000e 9570     		strb	r5, [r2, #2]
 256:USB/config/tm_stm32f4_usb_vcp.c **** 
 257:USB/config/tm_stm32f4_usb_vcp.c **** 		if ((data[i] == PackEnd[0]) && (data[i + 1] == PackEnd[1]))
 624              		.loc 1 257 0
 625 0010 C25C     		ldrb	r2, [r0, r3]	@ zero_extendqisi2
 626 0012 0D2A     		cmp	r2, #13
 627 0014 07D1     		bne	.L59
 628              		.loc 1 257 0 is_stmt 0 discriminator 1
 629 0016 C218     		adds	r2, r0, r3
 630 0018 5278     		ldrb	r2, [r2, #1]	@ zero_extendqisi2
 631 001a 0A2A     		cmp	r2, #10
 632 001c 03D1     		bne	.L59
 258:USB/config/tm_stm32f4_usb_vcp.c **** 		{
 259:USB/config/tm_stm32f4_usb_vcp.c **** 			TM_USB_VCP_IRQ_Status = TM_USB_VCP_IRQ_SET;
 633              		.loc 1 259 0 is_stmt 1
 634 001e 0122     		movs	r2, #1
 635 0020 064B     		ldr	r3, .L63+4
 636              	.LVL48:
 637 0022 1A70     		strb	r2, [r3]
 260:USB/config/tm_stm32f4_usb_vcp.c **** 			break;
 638              		.loc 1 260 0
 639 0024 06E0     		b	.L57
 640              	.LVL49:
 641              	.L59:
 261:USB/config/tm_stm32f4_usb_vcp.c **** 		}
 262:USB/config/tm_stm32f4_usb_vcp.c **** 		else
 263:USB/config/tm_stm32f4_usb_vcp.c **** 			TM_IRQ_Data.Data_Len++;
 642              		.loc 1 263 0 discriminator 2
 643 0026 0134     		adds	r4, r4, #1
 644 0028 034A     		ldr	r2, .L63
 645 002a 1480     		strh	r4, [r2]	@ movhi
 253:USB/config/tm_stm32f4_usb_vcp.c **** 	{
 646              		.loc 1 253 0 discriminator 2
 647 002c 0133     		adds	r3, r3, #1
 648              	.LVL50:
 649 002e 9BB2     		uxth	r3, r3
 650              	.LVL51:
 651              	.L58:
 253:USB/config/tm_stm32f4_usb_vcp.c **** 	{
 652              		.loc 1 253 0 is_stmt 0 discriminator 1
 653 0030 8B42     		cmp	r3, r1
 654 0032 E8D3     		bcc	.L61
 655              	.LVL52:
 656              	.L57:
 657              	.LBE2:
 264:USB/config/tm_stm32f4_usb_vcp.c **** 	}
 265:USB/config/tm_stm32f4_usb_vcp.c **** }
 658              		.loc 1 265 0 is_stmt 1
 659 0034 30BC     		pop	{r4, r5}
 660              	.LCFI15:
 661              		.cfi_restore 5
 662              		.cfi_restore 4
ARM GAS  C:\Users\why\AppData\Local\Temp\ccD1LaCy.s 			page 17


 663              		.cfi_def_cfa_offset 0
 664 0036 7047     		bx	lr
 665              	.L64:
 666              		.align	2
 667              	.L63:
 668 0038 00000000 		.word	TM_IRQ_Data
 669 003c 00000000 		.word	.LANCHOR1
 670              		.cfi_endproc
 671              	.LFE136:
 673              		.section	.text.TM_USB_VCP_Get_IRQState,"ax",%progbits
 674              		.align	2
 675              		.global	TM_USB_VCP_Get_IRQState
 676              		.thumb
 677              		.thumb_func
 679              	TM_USB_VCP_Get_IRQState:
 680              	.LFB137:
 266:USB/config/tm_stm32f4_usb_vcp.c **** 
 267:USB/config/tm_stm32f4_usb_vcp.c **** TM_USB_VCP_IRQ TM_USB_VCP_Get_IRQState(void)
 268:USB/config/tm_stm32f4_usb_vcp.c **** {
 681              		.loc 1 268 0
 682              		.cfi_startproc
 683              		@ args = 0, pretend = 0, frame = 0
 684              		@ frame_needed = 0, uses_anonymous_args = 0
 685              		@ link register save eliminated.
 269:USB/config/tm_stm32f4_usb_vcp.c **** 	return TM_USB_VCP_IRQ_Status;
 270:USB/config/tm_stm32f4_usb_vcp.c **** }
 686              		.loc 1 270 0
 687 0000 014B     		ldr	r3, .L66
 688 0002 1878     		ldrb	r0, [r3]	@ zero_extendqisi2
 689 0004 7047     		bx	lr
 690              	.L67:
 691 0006 00BF     		.align	2
 692              	.L66:
 693 0008 00000000 		.word	.LANCHOR1
 694              		.cfi_endproc
 695              	.LFE137:
 697              		.section	.text.TM_USB_VCP_Set_IRQPRC,"ax",%progbits
 698              		.align	2
 699              		.global	TM_USB_VCP_Set_IRQPRC
 700              		.thumb
 701              		.thumb_func
 703              	TM_USB_VCP_Set_IRQPRC:
 704              	.LFB138:
 271:USB/config/tm_stm32f4_usb_vcp.c **** 
 272:USB/config/tm_stm32f4_usb_vcp.c **** void TM_USB_VCP_Set_IRQPRC(void)
 273:USB/config/tm_stm32f4_usb_vcp.c **** {
 705              		.loc 1 273 0
 706              		.cfi_startproc
 707              		@ args = 0, pretend = 0, frame = 0
 708              		@ frame_needed = 0, uses_anonymous_args = 0
 709              		@ link register save eliminated.
 274:USB/config/tm_stm32f4_usb_vcp.c **** 	TM_USB_VCP_IRQ_Status = TM_USB_VCP_IRQ_PRC;
 710              		.loc 1 274 0
 711 0000 0222     		movs	r2, #2
 712 0002 014B     		ldr	r3, .L69
 713 0004 1A70     		strb	r2, [r3]
 714 0006 7047     		bx	lr
ARM GAS  C:\Users\why\AppData\Local\Temp\ccD1LaCy.s 			page 18


 715              	.L70:
 716              		.align	2
 717              	.L69:
 718 0008 00000000 		.word	.LANCHOR1
 719              		.cfi_endproc
 720              	.LFE138:
 722              		.section	.text.TM_USB_VCP_Reset_IRQ,"ax",%progbits
 723              		.align	2
 724              		.global	TM_USB_VCP_Reset_IRQ
 725              		.thumb
 726              		.thumb_func
 728              	TM_USB_VCP_Reset_IRQ:
 729              	.LFB139:
 275:USB/config/tm_stm32f4_usb_vcp.c **** }
 276:USB/config/tm_stm32f4_usb_vcp.c **** 
 277:USB/config/tm_stm32f4_usb_vcp.c **** void TM_USB_VCP_Reset_IRQ(void)
 278:USB/config/tm_stm32f4_usb_vcp.c **** {
 730              		.loc 1 278 0
 731              		.cfi_startproc
 732              		@ args = 0, pretend = 0, frame = 0
 733              		@ frame_needed = 0, uses_anonymous_args = 0
 734              		@ link register save eliminated.
 279:USB/config/tm_stm32f4_usb_vcp.c **** 	TM_USB_VCP_IRQ_Status = TM_USB_VCP_IRQ_RESET;
 735              		.loc 1 279 0
 736 0000 0023     		movs	r3, #0
 737 0002 074A     		ldr	r2, .L74
 738 0004 1370     		strb	r3, [r2]
 280:USB/config/tm_stm32f4_usb_vcp.c **** 
 281:USB/config/tm_stm32f4_usb_vcp.c **** 	TM_IRQ_Data.Data_Len = 0;
 739              		.loc 1 281 0
 740 0006 074A     		ldr	r2, .L74+4
 741 0008 1380     		strh	r3, [r2]	@ movhi
 742              	.LVL53:
 743              	.LBB3:
 282:USB/config/tm_stm32f4_usb_vcp.c **** 
 283:USB/config/tm_stm32f4_usb_vcp.c **** 	for (uint16_t i = 0; i < USB_VCP_RECEIVE_BUFFER_LENGTH; i++)
 744              		.loc 1 283 0
 745 000a 05E0     		b	.L72
 746              	.LVL54:
 747              	.L73:
 284:USB/config/tm_stm32f4_usb_vcp.c **** 	{
 285:USB/config/tm_stm32f4_usb_vcp.c **** 		TM_IRQ_Data.Buff[i] = 0;
 748              		.loc 1 285 0 discriminator 3
 749 000c 054A     		ldr	r2, .L74+4
 750 000e 1A44     		add	r2, r2, r3
 751 0010 0021     		movs	r1, #0
 752 0012 9170     		strb	r1, [r2, #2]
 283:USB/config/tm_stm32f4_usb_vcp.c **** 	{
 753              		.loc 1 283 0 discriminator 3
 754 0014 0133     		adds	r3, r3, #1
 755              	.LVL55:
 756 0016 9BB2     		uxth	r3, r3
 757              	.LVL56:
 758              	.L72:
 283:USB/config/tm_stm32f4_usb_vcp.c **** 	{
 759              		.loc 1 283 0 is_stmt 0 discriminator 1
 760 0018 FF2B     		cmp	r3, #255
ARM GAS  C:\Users\why\AppData\Local\Temp\ccD1LaCy.s 			page 19


 761 001a F7D9     		bls	.L73
 762              	.LBE3:
 286:USB/config/tm_stm32f4_usb_vcp.c **** 	}
 287:USB/config/tm_stm32f4_usb_vcp.c **** }
 763              		.loc 1 287 0 is_stmt 1
 764 001c 7047     		bx	lr
 765              	.L75:
 766 001e 00BF     		.align	2
 767              	.L74:
 768 0020 00000000 		.word	.LANCHOR1
 769 0024 00000000 		.word	TM_IRQ_Data
 770              		.cfi_endproc
 771              	.LFE139:
 773              		.section	.text.TM_USB_VCP_Init,"ax",%progbits
 774              		.align	2
 775              		.global	TM_USB_VCP_Init
 776              		.thumb
 777              		.thumb_func
 779              	TM_USB_VCP_Init:
 780              	.LFB124:
  42:USB/config/tm_stm32f4_usb_vcp.c **** 	/* Initialize USB */
 781              		.loc 1 42 0
 782              		.cfi_startproc
 783              		@ args = 0, pretend = 0, frame = 0
 784              		@ frame_needed = 0, uses_anonymous_args = 0
 785 0000 10B5     		push	{r4, lr}
 786              	.LCFI16:
 787              		.cfi_def_cfa_offset 8
 788              		.cfi_offset 4, -8
 789              		.cfi_offset 14, -4
 790 0002 82B0     		sub	sp, sp, #8
 791              	.LCFI17:
 792              		.cfi_def_cfa_offset 16
  44:USB/config/tm_stm32f4_usb_vcp.c **** #ifdef USE_USB_OTG_FS
 793              		.loc 1 44 0
 794 0004 0B4B     		ldr	r3, .L78
 795 0006 0093     		str	r3, [sp]
 796 0008 0B4B     		ldr	r3, .L78+4
 797 000a 0C4A     		ldr	r2, .L78+8
 798 000c 0121     		movs	r1, #1
 799 000e 0C48     		ldr	r0, .L78+12
 800 0010 FFF7FEFF 		bl	USBD_Init
 801              	.LVL57:
  55:USB/config/tm_stm32f4_usb_vcp.c **** 	tm_int_usb_vcp_buf_out = 0;
 802              		.loc 1 55 0
 803 0014 0024     		movs	r4, #0
 804 0016 0B4B     		ldr	r3, .L78+16
 805 0018 1C60     		str	r4, [r3]
  56:USB/config/tm_stm32f4_usb_vcp.c **** 	tm_int_usb_vcp_buf_num = 0;
 806              		.loc 1 56 0
 807 001a 0B4B     		ldr	r3, .L78+20
 808 001c 1C60     		str	r4, [r3]
  57:USB/config/tm_stm32f4_usb_vcp.c **** 
 809              		.loc 1 57 0
 810 001e 0B4B     		ldr	r3, .L78+24
 811 0020 1C60     		str	r4, [r3]
  60:USB/config/tm_stm32f4_usb_vcp.c **** 
ARM GAS  C:\Users\why\AppData\Local\Temp\ccD1LaCy.s 			page 20


 812              		.loc 1 60 0
 813 0022 0122     		movs	r2, #1
 814 0024 0A4B     		ldr	r3, .L78+28
 815 0026 1A70     		strb	r2, [r3]
  62:USB/config/tm_stm32f4_usb_vcp.c **** 
 816              		.loc 1 62 0
 817 0028 FFF7FEFF 		bl	TM_USB_VCP_Reset_IRQ
 818              	.LVL58:
  66:USB/config/tm_stm32f4_usb_vcp.c **** 
 819              		.loc 1 66 0
 820 002c 2046     		mov	r0, r4
 821 002e 02B0     		add	sp, sp, #8
 822              	.LCFI18:
 823              		.cfi_def_cfa_offset 8
 824              		@ sp needed
 825 0030 10BD     		pop	{r4, pc}
 826              	.L79:
 827 0032 00BF     		.align	2
 828              	.L78:
 829 0034 00000000 		.word	USR_cb
 830 0038 00000000 		.word	USBD_CDC_cb
 831 003c 00000000 		.word	USR_desc
 832 0040 00000000 		.word	USB_OTG_dev
 833 0044 00000000 		.word	tm_int_usb_vcp_buf_in
 834 0048 00000000 		.word	tm_int_usb_vcp_buf_out
 835 004c 00000000 		.word	tm_int_usb_vcp_buf_num
 836 0050 00000000 		.word	.LANCHOR0
 837              		.cfi_endproc
 838              	.LFE124:
 840              		.comm	USB_OTG_dev,1524,4
 841              		.global	TM_USB_VCP_INT_Init
 842              		.comm	tm_int_usb_vcp_buf_num,4,4
 843              		.comm	tm_int_usb_vcp_buf_out,4,4
 844              		.comm	tm_int_usb_vcp_buf_in,4,4
 845              		.comm	TM_INT_USB_VCP_ReceiveBuffer,256,4
 846              		.global	TM_USB_VCP_IRQ_Status
 847              		.comm	TM_IRQ_Data,258,4
 848              		.global	PackEnd
 849              		.section	.rodata.PackEnd,"a",%progbits
 850              		.align	2
 853              	PackEnd:
 854 0000 0D       		.byte	13
 855 0001 0A       		.byte	10
 856              		.section	.bss.TM_USB_VCP_INT_Init,"aw",%nobits
 857              		.set	.LANCHOR0,. + 0
 860              	TM_USB_VCP_INT_Init:
 861 0000 00       		.space	1
 862              		.section	.bss.TM_USB_VCP_IRQ_Status,"aw",%nobits
 863              		.set	.LANCHOR1,. + 0
 866              	TM_USB_VCP_IRQ_Status:
 867 0000 00       		.space	1
 868              		.text
 869              	.Letext0:
 870              		.file 2 "d:\\gcc_arm\\5.4 2016q3\\arm-none-eabi\\include\\machine\\_default_types.h"
 871              		.file 3 "d:\\gcc_arm\\5.4 2016q3\\arm-none-eabi\\include\\sys\\_stdint.h"
 872              		.file 4 "USB/core/usb_regs.h"
 873              		.file 5 "USB/core/usb_core.h"
ARM GAS  C:\Users\why\AppData\Local\Temp\ccD1LaCy.s 			page 21


 874              		.file 6 "USB/core/usbd_cdc_vcp.h"
 875              		.file 7 "USB/core/usb_defines.h"
 876              		.file 8 "USB/config/tm_stm32f4_usb_vcp.h"
 877              		.file 9 "F4_CORE/core_cm4.h"
 878              		.file 10 "USB/core/usbd_cdc_core.h"
 879              		.file 11 "USB/core/usbd_desc.h"
 880              		.file 12 "USB/core/usbd_usr.h"
 881              		.file 13 "USB/core/usbd_core.h"
ARM GAS  C:\Users\why\AppData\Local\Temp\ccD1LaCy.s 			page 22


DEFINED SYMBOLS
                            *ABS*:00000000 tm_stm32f4_usb_vcp.c
C:\Users\why\AppData\Local\Temp\ccD1LaCy.s:22     .text.TM_USB_VCP_BufferEmpty:00000000 $t
C:\Users\why\AppData\Local\Temp\ccD1LaCy.s:27     .text.TM_USB_VCP_BufferEmpty:00000000 TM_USB_VCP_BufferEmpty
C:\Users\why\AppData\Local\Temp\ccD1LaCy.s:45     .text.TM_USB_VCP_BufferEmpty:0000000c $d
                            *COM*:00000004 tm_int_usb_vcp_buf_num
C:\Users\why\AppData\Local\Temp\ccD1LaCy.s:50     .text.TM_USB_VCP_BufferFull:00000000 $t
C:\Users\why\AppData\Local\Temp\ccD1LaCy.s:55     .text.TM_USB_VCP_BufferFull:00000000 TM_USB_VCP_BufferFull
C:\Users\why\AppData\Local\Temp\ccD1LaCy.s:74     .text.TM_USB_VCP_BufferFull:00000010 $d
C:\Users\why\AppData\Local\Temp\ccD1LaCy.s:79     .text.TM_USB_VCP_FindCharacter:00000000 $t
C:\Users\why\AppData\Local\Temp\ccD1LaCy.s:84     .text.TM_USB_VCP_FindCharacter:00000000 TM_USB_VCP_FindCharacter
C:\Users\why\AppData\Local\Temp\ccD1LaCy.s:152    .text.TM_USB_VCP_FindCharacter:0000003c $d
                            *COM*:00000004 tm_int_usb_vcp_buf_out
                            *COM*:00000100 TM_INT_USB_VCP_ReceiveBuffer
C:\Users\why\AppData\Local\Temp\ccD1LaCy.s:159    .text.TM_USB_VCP_Getc:00000000 $t
C:\Users\why\AppData\Local\Temp\ccD1LaCy.s:164    .text.TM_USB_VCP_Getc:00000000 TM_USB_VCP_Getc
C:\Users\why\AppData\Local\Temp\ccD1LaCy.s:221    .text.TM_USB_VCP_Getc:0000003c $d
C:\Users\why\AppData\Local\Temp\ccD1LaCy.s:228    .text.TM_USB_VCP_Putc:00000000 $t
C:\Users\why\AppData\Local\Temp\ccD1LaCy.s:233    .text.TM_USB_VCP_Putc:00000000 TM_USB_VCP_Putc
C:\Users\why\AppData\Local\Temp\ccD1LaCy.s:268    .text.TM_USB_VCP_Puts:00000000 $t
C:\Users\why\AppData\Local\Temp\ccD1LaCy.s:273    .text.TM_USB_VCP_Puts:00000000 TM_USB_VCP_Puts
C:\Users\why\AppData\Local\Temp\ccD1LaCy.s:306    .text.TM_USB_VCP_Send:00000000 $t
C:\Users\why\AppData\Local\Temp\ccD1LaCy.s:311    .text.TM_USB_VCP_Send:00000000 TM_USB_VCP_Send
C:\Users\why\AppData\Local\Temp\ccD1LaCy.s:333    .text.TM_USB_VCP_Gets:00000000 $t
C:\Users\why\AppData\Local\Temp\ccD1LaCy.s:338    .text.TM_USB_VCP_Gets:00000000 TM_USB_VCP_Gets
C:\Users\why\AppData\Local\Temp\ccD1LaCy.s:436    .text.TM_INT_USB_VCP_AddReceived:00000000 $t
C:\Users\why\AppData\Local\Temp\ccD1LaCy.s:441    .text.TM_INT_USB_VCP_AddReceived:00000000 TM_INT_USB_VCP_AddReceived
C:\Users\why\AppData\Local\Temp\ccD1LaCy.s:509    .text.TM_INT_USB_VCP_AddReceived:00000038 $d
                            *COM*:00000004 tm_int_usb_vcp_buf_in
C:\Users\why\AppData\Local\Temp\ccD1LaCy.s:516    .text.TM_USB_VCP_GetStatus:00000000 $t
C:\Users\why\AppData\Local\Temp\ccD1LaCy.s:521    .text.TM_USB_VCP_GetStatus:00000000 TM_USB_VCP_GetStatus
C:\Users\why\AppData\Local\Temp\ccD1LaCy.s:544    .text.TM_USB_VCP_GetStatus:00000010 $d
C:\Users\why\AppData\Local\Temp\ccD1LaCy.s:550    .text.TM_USB_VCP_GetSettings:00000000 $t
C:\Users\why\AppData\Local\Temp\ccD1LaCy.s:555    .text.TM_USB_VCP_GetSettings:00000000 TM_USB_VCP_GetSettings
C:\Users\why\AppData\Local\Temp\ccD1LaCy.s:588    .text.TM_USB_VCP_GetSettings:0000001c $d
C:\Users\why\AppData\Local\Temp\ccD1LaCy.s:593    .text.TM_USB_VCP_Set_IRQ:00000000 $t
C:\Users\why\AppData\Local\Temp\ccD1LaCy.s:598    .text.TM_USB_VCP_Set_IRQ:00000000 TM_USB_VCP_Set_IRQ
C:\Users\why\AppData\Local\Temp\ccD1LaCy.s:668    .text.TM_USB_VCP_Set_IRQ:00000038 $d
                            *COM*:00000102 TM_IRQ_Data
C:\Users\why\AppData\Local\Temp\ccD1LaCy.s:674    .text.TM_USB_VCP_Get_IRQState:00000000 $t
C:\Users\why\AppData\Local\Temp\ccD1LaCy.s:679    .text.TM_USB_VCP_Get_IRQState:00000000 TM_USB_VCP_Get_IRQState
C:\Users\why\AppData\Local\Temp\ccD1LaCy.s:693    .text.TM_USB_VCP_Get_IRQState:00000008 $d
C:\Users\why\AppData\Local\Temp\ccD1LaCy.s:698    .text.TM_USB_VCP_Set_IRQPRC:00000000 $t
C:\Users\why\AppData\Local\Temp\ccD1LaCy.s:703    .text.TM_USB_VCP_Set_IRQPRC:00000000 TM_USB_VCP_Set_IRQPRC
C:\Users\why\AppData\Local\Temp\ccD1LaCy.s:718    .text.TM_USB_VCP_Set_IRQPRC:00000008 $d
C:\Users\why\AppData\Local\Temp\ccD1LaCy.s:723    .text.TM_USB_VCP_Reset_IRQ:00000000 $t
C:\Users\why\AppData\Local\Temp\ccD1LaCy.s:728    .text.TM_USB_VCP_Reset_IRQ:00000000 TM_USB_VCP_Reset_IRQ
C:\Users\why\AppData\Local\Temp\ccD1LaCy.s:768    .text.TM_USB_VCP_Reset_IRQ:00000020 $d
C:\Users\why\AppData\Local\Temp\ccD1LaCy.s:774    .text.TM_USB_VCP_Init:00000000 $t
C:\Users\why\AppData\Local\Temp\ccD1LaCy.s:779    .text.TM_USB_VCP_Init:00000000 TM_USB_VCP_Init
C:\Users\why\AppData\Local\Temp\ccD1LaCy.s:829    .text.TM_USB_VCP_Init:00000034 $d
                            *COM*:000005f4 USB_OTG_dev
C:\Users\why\AppData\Local\Temp\ccD1LaCy.s:860    .bss.TM_USB_VCP_INT_Init:00000000 TM_USB_VCP_INT_Init
C:\Users\why\AppData\Local\Temp\ccD1LaCy.s:866    .bss.TM_USB_VCP_IRQ_Status:00000000 TM_USB_VCP_IRQ_Status
C:\Users\why\AppData\Local\Temp\ccD1LaCy.s:853    .rodata.PackEnd:00000000 PackEnd
C:\Users\why\AppData\Local\Temp\ccD1LaCy.s:850    .rodata.PackEnd:00000000 $d
C:\Users\why\AppData\Local\Temp\ccD1LaCy.s:861    .bss.TM_USB_VCP_INT_Init:00000000 $d
ARM GAS  C:\Users\why\AppData\Local\Temp\ccD1LaCy.s 			page 23


C:\Users\why\AppData\Local\Temp\ccD1LaCy.s:867    .bss.TM_USB_VCP_IRQ_Status:00000000 $d
                     .debug_frame:00000010 $d

UNDEFINED SYMBOLS
VCP_DataTx
TM_USB_VCP_INT_Status
linecoding
USBD_Init
USR_cb
USBD_CDC_cb
USR_desc
