ARM GAS  /var/folders/lx/hc4sn_b53233_zkc9xbbl97r0000gp/T//ccGA9DTo.s 			page 1


   1              		.cpu cortex-m4
   2              		.eabi_attribute 27, 1
   3              		.eabi_attribute 28, 1
   4              		.eabi_attribute 20, 1
   5              		.eabi_attribute 21, 1
   6              		.eabi_attribute 23, 3
   7              		.eabi_attribute 24, 1
   8              		.eabi_attribute 25, 1
   9              		.eabi_attribute 26, 1
  10              		.eabi_attribute 30, 1
  11              		.eabi_attribute 34, 1
  12              		.eabi_attribute 18, 4
  13              		.file	"UI_Controller.c"
  14              		.text
  15              	.Ltext0:
  16              		.cfi_sections	.debug_frame
  17              		.section	.text.UI_Draw_HorDotLine,"ax",%progbits
  18              		.align	1
  19              		.arch armv7e-m
  20              		.syntax unified
  21              		.thumb
  22              		.thumb_func
  23              		.fpu fpv4-sp-d16
  25              	UI_Draw_HorDotLine:
  26              	.LVL0:
  27              	.LFB7:
  28              		.file 1 "Dsp/widget/wgt_core/UI_Controller.c"
   1:Dsp/widget/wgt_core/UI_Controller.c **** #include "UI_Controller.h"
   2:Dsp/widget/wgt_core/UI_Controller.c **** #include "runtime.h"
   3:Dsp/widget/wgt_core/UI_Controller.c **** #include <stdlib.h>
   4:Dsp/widget/wgt_core/UI_Controller.c **** #include <string.h>
   5:Dsp/widget/wgt_core/UI_Controller.c **** #include <stdio.h>
   6:Dsp/widget/wgt_core/UI_Controller.c **** #include "mmu.h"
   7:Dsp/widget/wgt_core/UI_Controller.c **** 
   8:Dsp/widget/wgt_core/UI_Controller.c **** /* internal object */
   9:Dsp/widget/wgt_core/UI_Controller.c **** static UI_DrawInterface_TypeDef UI_DspInterface;
  10:Dsp/widget/wgt_core/UI_Controller.c **** static uint8_t base_font = Default_Font;
  11:Dsp/widget/wgt_core/UI_Controller.c **** 
  12:Dsp/widget/wgt_core/UI_Controller.c **** /* external function */
  13:Dsp/widget/wgt_core/UI_Controller.c **** /* UI Get General Get Mathod */
  14:Dsp/widget/wgt_core/UI_Controller.c **** UI_GetWidget_Width UI_Get_WidgetWidth = NULL;
  15:Dsp/widget/wgt_core/UI_Controller.c **** // UI_GetWidget_Height UI_Get_WidgetHeight = NULL;
  16:Dsp/widget/wgt_core/UI_Controller.c **** 
  17:Dsp/widget/wgt_core/UI_Controller.c **** /* UI button section */
  18:Dsp/widget/wgt_core/UI_Controller.c **** static bool UI_Button_Init(UI_ButtonObj_TypeDef *Obj, char *label, int16_t x, int16_t y, uint8_t wi
  19:Dsp/widget/wgt_core/UI_Controller.c **** static bool UI_Button_Set_Label(UI_ButtonObj_TypeDef *Obj, UI_Button_State_List state, char *label)
  20:Dsp/widget/wgt_core/UI_Controller.c **** static bool UI_Button_Set_TriggerCallback(UI_ButtonObj_TypeDef *Obj, UI_Button_Trigger_Type type, U
  21:Dsp/widget/wgt_core/UI_Controller.c **** static bool UI_Button_Push(UI_ButtonObj_TypeDef *Obj);
  22:Dsp/widget/wgt_core/UI_Controller.c **** static bool UI_Button_Release(UI_ButtonObj_TypeDef *Obj);
  23:Dsp/widget/wgt_core/UI_Controller.c **** static bool UI_Button_Move(UI_ButtonObj_TypeDef *Obj, uint16_t x, uint16_t y);
  24:Dsp/widget/wgt_core/UI_Controller.c **** static bool UI_Button_Ctl(UI_ButtonObj_TypeDef *Obj);
  25:Dsp/widget/wgt_core/UI_Controller.c **** 
  26:Dsp/widget/wgt_core/UI_Controller.c **** /* UI check box section */
  27:Dsp/widget/wgt_core/UI_Controller.c **** static bool UI_CheckBox_Init(UI_CheckBoxObj_TypeDef *Obj, char *label, int16_t x, int16_t y, bool s
  28:Dsp/widget/wgt_core/UI_Controller.c **** static bool UI_CheckBox_SetCallback(UI_CheckBoxObj_TypeDef *Obj, UI_CheckBoxTrigger_Callback callba
  29:Dsp/widget/wgt_core/UI_Controller.c **** static bool UI_CheckBox_Move(UI_CheckBoxObj_TypeDef *Obj, int16_t x, int16_t y);
  30:Dsp/widget/wgt_core/UI_Controller.c **** static bool UI_CheckBox_Trigger(UI_CheckBoxObj_TypeDef *Obj);
ARM GAS  /var/folders/lx/hc4sn_b53233_zkc9xbbl97r0000gp/T//ccGA9DTo.s 			page 2


  31:Dsp/widget/wgt_core/UI_Controller.c **** static bool UI_CheckBox_Ctl(UI_CheckBoxObj_TypeDef *Obj);
  32:Dsp/widget/wgt_core/UI_Controller.c **** 
  33:Dsp/widget/wgt_core/UI_Controller.c **** /* UI slider bar section */
  34:Dsp/widget/wgt_core/UI_Controller.c **** static bool UI_SlideBar_Init(UI_SlideBarObj_TypeDef *Obj, UI_SliderBar_Mode_List mode, char *label,
  35:Dsp/widget/wgt_core/UI_Controller.c **** static bool UI_SlideBar_Move(UI_SlideBarObj_TypeDef *Obj, int16_t x, int16_t y);
  36:Dsp/widget/wgt_core/UI_Controller.c **** static bool UI_SlideBar_SetCallBack(UI_SlideBarObj_TypeDef *Obj, UI_SliderBarTrigger_Callback callb
  37:Dsp/widget/wgt_core/UI_Controller.c **** static bool UI_SlideBar_Input(UI_SlideBarObj_TypeDef *Obj, int16_t *step);
  38:Dsp/widget/wgt_core/UI_Controller.c **** static bool UI_SlideBar_Trigger(UI_SlideBarObj_TypeDef *Obj);
  39:Dsp/widget/wgt_core/UI_Controller.c **** static bool UI_SlideBar_CTL(UI_SlideBarObj_TypeDef *Obj);
  40:Dsp/widget/wgt_core/UI_Controller.c **** static void UI_SlideBar_SetSelect(UI_SlideBarObj_TypeDef *Obj, bool select);
  41:Dsp/widget/wgt_core/UI_Controller.c **** static bool UI_SlideBar_IsSelected(UI_SlideBarObj_TypeDef *Obj);
  42:Dsp/widget/wgt_core/UI_Controller.c **** 
  43:Dsp/widget/wgt_core/UI_Controller.c **** /* UI Process bar section */
  44:Dsp/widget/wgt_core/UI_Controller.c **** static bool UI_ProcessBar_Init(UI_ProcessBarObj_TypeDef *Obj, UI_ProcessBar_DspType_List dsp_type, 
  45:Dsp/widget/wgt_core/UI_Controller.c **** static bool UI_ProcessBar_SetDspDir(UI_ProcessBarObj_TypeDef *Obj, UI_ProcessBar_MoveDir_TypeDef Di
  46:Dsp/widget/wgt_core/UI_Controller.c **** static bool UI_ProcessBar_SetCurVal(UI_ProcessBarObj_TypeDef *Obj, int32_t val);
  47:Dsp/widget/wgt_core/UI_Controller.c **** static bool UI_ProcessBar_Ctl(UI_ProcessBarObj_TypeDef *Obj);
  48:Dsp/widget/wgt_core/UI_Controller.c **** static bool UI_ProcessBar_Move(UI_ProcessBarObj_TypeDef *Obj, uint16_t x, uint16_t y);
  49:Dsp/widget/wgt_core/UI_Controller.c **** static bool UI_ProcessBar_SetLabelPos(UI_ProcessBarObj_TypeDef *Obj, UI_ProcessBar_LabelPos_List Po
  50:Dsp/widget/wgt_core/UI_Controller.c **** 
  51:Dsp/widget/wgt_core/UI_Controller.c **** /* UI Drop Section */
  52:Dsp/widget/wgt_core/UI_Controller.c **** static bool UI_Drop_Init(UI_DropObj_TypeDef *Obj, char *label, int16_t x, int16_t y);
  53:Dsp/widget/wgt_core/UI_Controller.c **** static bool UI_Drop_Move(UI_DropObj_TypeDef *Obj, int16_t x, int16_t y);
  54:Dsp/widget/wgt_core/UI_Controller.c **** static bool UI_Drop_AddDropItem(UI_DropObj_TypeDef *Obj, char *item_desc, void *data, uint16_t data
  55:Dsp/widget/wgt_core/UI_Controller.c **** static bool UI_Drop_SetSelect(UI_DropObj_TypeDef *Obj, bool state);
  56:Dsp/widget/wgt_core/UI_Controller.c **** static bool UI_Drop_GetSelect(UI_DropObj_TypeDef *Obj);
  57:Dsp/widget/wgt_core/UI_Controller.c **** static bool UI_Drop_SelectItem(UI_DropObj_TypeDef *Obj, int8_t *offset);
  58:Dsp/widget/wgt_core/UI_Controller.c **** static bool UI_Drop_Ctl(UI_DropObj_TypeDef *Obj);
  59:Dsp/widget/wgt_core/UI_Controller.c **** 
  60:Dsp/widget/wgt_core/UI_Controller.c **** /* UI Digital Input Section */
  61:Dsp/widget/wgt_core/UI_Controller.c **** static bool UI_DigInput_Init(UI_DigInputObj_TypeDef *Obj, char *label, int16_t x, int16_t y, UI_Dig
  62:Dsp/widget/wgt_core/UI_Controller.c **** static bool UI_DigInput_SetIntRange(UI_DigInputObj_TypeDef *Obj, uint8_t efft_int_len, int32_t max,
  63:Dsp/widget/wgt_core/UI_Controller.c **** static bool UI_DigInput_SetDouRange(UI_DigInputObj_TypeDef *Obj, uint8_t efft_int_len, uint8_t efft
  64:Dsp/widget/wgt_core/UI_Controller.c **** static bool UI_DigInput_GetDoubleVal(UI_DigInputObj_TypeDef *Obj, double *Out);
  65:Dsp/widget/wgt_core/UI_Controller.c **** static bool UI_DigInput_GetIntVal(UI_DigInputObj_TypeDef *Obj, int32_t *Out);
  66:Dsp/widget/wgt_core/UI_Controller.c **** static bool UI_DigInput_Move(UI_DigInputObj_TypeDef *Obj, int16_t x, int16_t y);
  67:Dsp/widget/wgt_core/UI_Controller.c **** static bool UI_DigInput_SetSelectStatus(UI_DigInputObj_TypeDef *Obj, bool status);
  68:Dsp/widget/wgt_core/UI_Controller.c **** static bool UI_DigInput_GetSelectStatus(UI_DigInputObj_TypeDef *Obj);
  69:Dsp/widget/wgt_core/UI_Controller.c **** 
  70:Dsp/widget/wgt_core/UI_Controller.c **** /* general function */
  71:Dsp/widget/wgt_core/UI_Controller.c **** static bool UI_Get_InitSate(UI_GeneralData_TypeDef GenData);
  72:Dsp/widget/wgt_core/UI_Controller.c **** static bool UI_Selecte(UI_GeneralData_TypeDef *GenData, bool select);
  73:Dsp/widget/wgt_core/UI_Controller.c **** static bool UI_Get_Selected(UI_GeneralData_TypeDef GenData);
  74:Dsp/widget/wgt_core/UI_Controller.c **** static bool UI_Move(UI_GeneralData_TypeDef *GenUI_Info, int16_t dst_x, int16_t dst_y);
  75:Dsp/widget/wgt_core/UI_Controller.c **** 
  76:Dsp/widget/wgt_core/UI_Controller.c **** /* UI custom display mathod */
  77:Dsp/widget/wgt_core/UI_Controller.c **** static bool UI_Draw_HorDotLine(int16_t x, int16_t y, uint8_t len, uint8_t line_width);
  78:Dsp/widget/wgt_core/UI_Controller.c **** 
  79:Dsp/widget/wgt_core/UI_Controller.c **** /* external Object var */
  80:Dsp/widget/wgt_core/UI_Controller.c **** UI_Button_Interface_TypeDef UI_Button = {
  81:Dsp/widget/wgt_core/UI_Controller.c ****     .ctl = UI_Button_Ctl,
  82:Dsp/widget/wgt_core/UI_Controller.c ****     .init = UI_Button_Init,
  83:Dsp/widget/wgt_core/UI_Controller.c ****     .push = UI_Button_Push,
  84:Dsp/widget/wgt_core/UI_Controller.c ****     .move = UI_Button_Move,
  85:Dsp/widget/wgt_core/UI_Controller.c ****     .release = UI_Button_Release,
  86:Dsp/widget/wgt_core/UI_Controller.c ****     .set_label = UI_Button_Set_Label,
  87:Dsp/widget/wgt_core/UI_Controller.c ****     .set_trogger_callback = UI_Button_Set_TriggerCallback,
ARM GAS  /var/folders/lx/hc4sn_b53233_zkc9xbbl97r0000gp/T//ccGA9DTo.s 			page 3


  88:Dsp/widget/wgt_core/UI_Controller.c **** };
  89:Dsp/widget/wgt_core/UI_Controller.c **** 
  90:Dsp/widget/wgt_core/UI_Controller.c **** UI_CheckBox_Interface_TypeDef UI_CheckBox = {
  91:Dsp/widget/wgt_core/UI_Controller.c ****     .ctl = UI_CheckBox_Ctl,
  92:Dsp/widget/wgt_core/UI_Controller.c ****     .init = UI_CheckBox_Init,
  93:Dsp/widget/wgt_core/UI_Controller.c ****     .Set_Callback = UI_CheckBox_SetCallback,
  94:Dsp/widget/wgt_core/UI_Controller.c ****     .Move = UI_CheckBox_Move,
  95:Dsp/widget/wgt_core/UI_Controller.c ****     .Trigger = UI_CheckBox_Trigger,
  96:Dsp/widget/wgt_core/UI_Controller.c **** };
  97:Dsp/widget/wgt_core/UI_Controller.c **** 
  98:Dsp/widget/wgt_core/UI_Controller.c **** UI_SliderBar_Interface_TypeDef UI_SlideBar = {
  99:Dsp/widget/wgt_core/UI_Controller.c ****     .init = UI_SlideBar_Init,
 100:Dsp/widget/wgt_core/UI_Controller.c ****     .Move = UI_SlideBar_Move,
 101:Dsp/widget/wgt_core/UI_Controller.c ****     .Set_Callbak = UI_SlideBar_SetCallBack,
 102:Dsp/widget/wgt_core/UI_Controller.c ****     .Input = UI_SlideBar_Input,
 103:Dsp/widget/wgt_core/UI_Controller.c ****     .Trigger = UI_SlideBar_Trigger,
 104:Dsp/widget/wgt_core/UI_Controller.c ****     .ctl = UI_SlideBar_CTL,
 105:Dsp/widget/wgt_core/UI_Controller.c ****     .Set_Select = UI_SlideBar_SetSelect,
 106:Dsp/widget/wgt_core/UI_Controller.c ****     .Get_Select = UI_SlideBar_IsSelected,
 107:Dsp/widget/wgt_core/UI_Controller.c **** };
 108:Dsp/widget/wgt_core/UI_Controller.c **** 
 109:Dsp/widget/wgt_core/UI_Controller.c **** UI_ProcessBar_Interface_TypeDef UI_ProcessBar = {
 110:Dsp/widget/wgt_core/UI_Controller.c ****     .init = UI_ProcessBar_Init,
 111:Dsp/widget/wgt_core/UI_Controller.c ****     .Move = UI_ProcessBar_Move,
 112:Dsp/widget/wgt_core/UI_Controller.c ****     .set_CurVal = UI_ProcessBar_SetCurVal,
 113:Dsp/widget/wgt_core/UI_Controller.c ****     .set_DspDir = UI_ProcessBar_SetDspDir,
 114:Dsp/widget/wgt_core/UI_Controller.c ****     .ctl = UI_ProcessBar_Ctl,
 115:Dsp/widget/wgt_core/UI_Controller.c ****     .Set_LabelPos = UI_ProcessBar_SetLabelPos,
 116:Dsp/widget/wgt_core/UI_Controller.c **** };
 117:Dsp/widget/wgt_core/UI_Controller.c **** 
 118:Dsp/widget/wgt_core/UI_Controller.c **** UI_Drop_Interface_TypeDef UI_Drop = {
 119:Dsp/widget/wgt_core/UI_Controller.c ****     .init = UI_Drop_Init,
 120:Dsp/widget/wgt_core/UI_Controller.c ****     .Move = UI_Drop_Move,
 121:Dsp/widget/wgt_core/UI_Controller.c ****     .Select_DropItem = UI_Drop_SelectItem,
 122:Dsp/widget/wgt_core/UI_Controller.c ****     .Set_Select = UI_Drop_SetSelect,
 123:Dsp/widget/wgt_core/UI_Controller.c ****     .Get_Select = UI_Drop_GetSelect,
 124:Dsp/widget/wgt_core/UI_Controller.c ****     .Add_drop_item = UI_Drop_AddDropItem,
 125:Dsp/widget/wgt_core/UI_Controller.c ****     .ctl = UI_Drop_Ctl,
 126:Dsp/widget/wgt_core/UI_Controller.c **** };
 127:Dsp/widget/wgt_core/UI_Controller.c **** 
 128:Dsp/widget/wgt_core/UI_Controller.c **** UI_DigInput_Interface_TypeDef UI_DigInput = {
 129:Dsp/widget/wgt_core/UI_Controller.c ****     .init = UI_DigInput_Init,
 130:Dsp/widget/wgt_core/UI_Controller.c ****     .input_part_select = NULL,
 131:Dsp/widget/wgt_core/UI_Controller.c ****     .Select_UI = UI_DigInput_SetSelectStatus,
 132:Dsp/widget/wgt_core/UI_Controller.c ****     .set_range_DouInput = UI_DigInput_SetDouRange,
 133:Dsp/widget/wgt_core/UI_Controller.c ****     .set_range_IntInput = UI_DigInput_SetIntRange,
 134:Dsp/widget/wgt_core/UI_Controller.c ****     .get_CurInout_Double = UI_DigInput_GetDoubleVal,
 135:Dsp/widget/wgt_core/UI_Controller.c ****     .get_CurInput_Int = UI_DigInput_GetIntVal,
 136:Dsp/widget/wgt_core/UI_Controller.c ****     .Move = UI_DigInput_Move,
 137:Dsp/widget/wgt_core/UI_Controller.c ****     .ctl = NULL,
 138:Dsp/widget/wgt_core/UI_Controller.c **** };
 139:Dsp/widget/wgt_core/UI_Controller.c **** 
 140:Dsp/widget/wgt_core/UI_Controller.c **** /******************************* general function *********************************/
 141:Dsp/widget/wgt_core/UI_Controller.c **** 
 142:Dsp/widget/wgt_core/UI_Controller.c **** bool UI_Set_FontType(uint8_t font)
 143:Dsp/widget/wgt_core/UI_Controller.c **** {
 144:Dsp/widget/wgt_core/UI_Controller.c ****     if (font < Font_8 || font > Font_16)
ARM GAS  /var/folders/lx/hc4sn_b53233_zkc9xbbl97r0000gp/T//ccGA9DTo.s 			page 4


 145:Dsp/widget/wgt_core/UI_Controller.c ****         return false;
 146:Dsp/widget/wgt_core/UI_Controller.c **** 
 147:Dsp/widget/wgt_core/UI_Controller.c ****     base_font = font;
 148:Dsp/widget/wgt_core/UI_Controller.c **** 
 149:Dsp/widget/wgt_core/UI_Controller.c ****     return true;
 150:Dsp/widget/wgt_core/UI_Controller.c **** }
 151:Dsp/widget/wgt_core/UI_Controller.c **** 
 152:Dsp/widget/wgt_core/UI_Controller.c **** uint8_t UI_Get_FontType(void)
 153:Dsp/widget/wgt_core/UI_Controller.c **** {
 154:Dsp/widget/wgt_core/UI_Controller.c ****     return base_font;
 155:Dsp/widget/wgt_core/UI_Controller.c **** }
 156:Dsp/widget/wgt_core/UI_Controller.c **** 
 157:Dsp/widget/wgt_core/UI_Controller.c **** void UI_Set_DspInterface(UI_DrawPoint point,
 158:Dsp/widget/wgt_core/UI_Controller.c ****                          UI_DrawHLine line_h,
 159:Dsp/widget/wgt_core/UI_Controller.c ****                          UI_DrawVLine line_v,
 160:Dsp/widget/wgt_core/UI_Controller.c ****                          UI_DrawRectangle rectangle,
 161:Dsp/widget/wgt_core/UI_Controller.c ****                          UI_DrawRadiusRectangle radius_rectangle,
 162:Dsp/widget/wgt_core/UI_Controller.c ****                          UI_DrawCircle circle,
 163:Dsp/widget/wgt_core/UI_Controller.c ****                          UI_DrawCircleSection circle_section,
 164:Dsp/widget/wgt_core/UI_Controller.c ****                          UI_DrawStr str,
 165:Dsp/widget/wgt_core/UI_Controller.c ****                          UI_DrawDig dig,
 166:Dsp/widget/wgt_core/UI_Controller.c ****                          UI_FillCircle fill_circle,
 167:Dsp/widget/wgt_core/UI_Controller.c ****                          UI_FillCircle_Section fillcircle_section,
 168:Dsp/widget/wgt_core/UI_Controller.c ****                          UI_FillRectangle fill_rectangle,
 169:Dsp/widget/wgt_core/UI_Controller.c ****                          UI_FillRadiusRectangle fill_radius_rectangle)
 170:Dsp/widget/wgt_core/UI_Controller.c **** {
 171:Dsp/widget/wgt_core/UI_Controller.c ****     UI_DspInterface.draw_circle = circle;
 172:Dsp/widget/wgt_core/UI_Controller.c ****     UI_DspInterface.draw_circle_section = circle_section;
 173:Dsp/widget/wgt_core/UI_Controller.c ****     UI_DspInterface.draw_line_h = line_h;
 174:Dsp/widget/wgt_core/UI_Controller.c ****     UI_DspInterface.draw_line_v = line_v;
 175:Dsp/widget/wgt_core/UI_Controller.c ****     UI_DspInterface.draw_point = point;
 176:Dsp/widget/wgt_core/UI_Controller.c ****     UI_DspInterface.draw_rectangle = rectangle;
 177:Dsp/widget/wgt_core/UI_Controller.c ****     UI_DspInterface.draw_radius_rectangle = radius_rectangle;
 178:Dsp/widget/wgt_core/UI_Controller.c ****     UI_DspInterface.draw_str = str;
 179:Dsp/widget/wgt_core/UI_Controller.c ****     UI_DspInterface.draw_dig = dig;
 180:Dsp/widget/wgt_core/UI_Controller.c **** 
 181:Dsp/widget/wgt_core/UI_Controller.c ****     UI_DspInterface.fill_circle = fill_circle;
 182:Dsp/widget/wgt_core/UI_Controller.c ****     UI_DspInterface.fill_circle_section = fillcircle_section;
 183:Dsp/widget/wgt_core/UI_Controller.c ****     UI_DspInterface.fill_radius_rectangle = fill_radius_rectangle;
 184:Dsp/widget/wgt_core/UI_Controller.c ****     UI_DspInterface.fill_rectangle = fill_rectangle;
 185:Dsp/widget/wgt_core/UI_Controller.c **** }
 186:Dsp/widget/wgt_core/UI_Controller.c **** 
 187:Dsp/widget/wgt_core/UI_Controller.c **** void UI_Set_GetWidgetWidthMathod(UI_GetWidget_Width mathod)
 188:Dsp/widget/wgt_core/UI_Controller.c **** {
 189:Dsp/widget/wgt_core/UI_Controller.c ****     UI_Get_WidgetWidth = mathod;
 190:Dsp/widget/wgt_core/UI_Controller.c **** }
 191:Dsp/widget/wgt_core/UI_Controller.c **** 
 192:Dsp/widget/wgt_core/UI_Controller.c **** static bool UI_Draw_HorDotLine(int16_t x, int16_t y, uint8_t len, uint8_t line_width)
 193:Dsp/widget/wgt_core/UI_Controller.c **** {
  29              		.loc 1 193 1 view -0
  30              		.cfi_startproc
  31              		@ args = 0, pretend = 0, frame = 0
  32              		@ frame_needed = 0, uses_anonymous_args = 0
  33              		.loc 1 193 1 is_stmt 0 view .LVU1
  34 0000 2DE9F843 		push	{r3, r4, r5, r6, r7, r8, r9, lr}
  35              	.LCFI0:
  36              		.cfi_def_cfa_offset 32
ARM GAS  /var/folders/lx/hc4sn_b53233_zkc9xbbl97r0000gp/T//ccGA9DTo.s 			page 5


  37              		.cfi_offset 3, -32
  38              		.cfi_offset 4, -28
  39              		.cfi_offset 5, -24
  40              		.cfi_offset 6, -20
  41              		.cfi_offset 7, -16
  42              		.cfi_offset 8, -12
  43              		.cfi_offset 9, -8
  44              		.cfi_offset 14, -4
  45 0004 1E46     		mov	r6, r3
 194:Dsp/widget/wgt_core/UI_Controller.c ****     if ((UI_DspInterface.draw_point == NULL) || (UI_Get_WidgetWidth == NULL))
  46              		.loc 1 194 5 is_stmt 1 view .LVU2
  47              		.loc 1 194 25 is_stmt 0 view .LVU3
  48 0006 164B     		ldr	r3, .L14
  49              	.LVL1:
  50              		.loc 1 194 25 view .LVU4
  51 0008 9B68     		ldr	r3, [r3, #8]
  52              		.loc 1 194 8 view .LVU5
  53 000a 2BB3     		cbz	r3, .L7
  54 000c 0546     		mov	r5, r0
  55 000e 0F46     		mov	r7, r1
  56 0010 9046     		mov	r8, r2
  57              		.loc 1 194 69 discriminator 1 view .LVU6
  58 0012 144B     		ldr	r3, .L14+4
  59 0014 1B68     		ldr	r3, [r3]
  60              		.loc 1 194 46 discriminator 1 view .LVU7
  61 0016 0BB3     		cbz	r3, .L8
 195:Dsp/widget/wgt_core/UI_Controller.c ****         return false;
 196:Dsp/widget/wgt_core/UI_Controller.c **** 
 197:Dsp/widget/wgt_core/UI_Controller.c ****     if (x > UI_Get_WidgetWidth())
  62              		.loc 1 197 5 is_stmt 1 view .LVU8
  63              		.loc 1 197 11 is_stmt 0 view .LVU9
  64 0018 8146     		mov	r9, r0
  65              		.loc 1 197 13 view .LVU10
  66 001a 9847     		blx	r3
  67              	.LVL2:
  68              		.loc 1 197 8 view .LVU11
  69 001c 8542     		cmp	r5, r0
  70 001e 12DD     		ble	.L3
 198:Dsp/widget/wgt_core/UI_Controller.c ****         return true;
  71              		.loc 1 198 16 view .LVU12
  72 0020 0120     		movs	r0, #1
  73 0022 17E0     		b	.L2
  74              	.LVL3:
  75              	.L4:
  76              	.LBB2:
  77              	.LBB3:
 199:Dsp/widget/wgt_core/UI_Controller.c **** 
 200:Dsp/widget/wgt_core/UI_Controller.c ****     for (int16_t i = x; i < x + len; i++)
 201:Dsp/widget/wgt_core/UI_Controller.c ****     {
 202:Dsp/widget/wgt_core/UI_Controller.c ****         for (uint8_t width = 0; width < line_width; width++)
  78              		.loc 1 202 53 is_stmt 1 discriminator 2 view .LVU13
  79              		.loc 1 202 58 is_stmt 0 discriminator 2 view .LVU14
  80 0024 0134     		adds	r4, r4, #1
  81              	.LVL4:
  82              		.loc 1 202 58 discriminator 2 view .LVU15
  83 0026 E4B2     		uxtb	r4, r4
  84              	.LVL5:
ARM GAS  /var/folders/lx/hc4sn_b53233_zkc9xbbl97r0000gp/T//ccGA9DTo.s 			page 6


  85              	.L6:
  86              		.loc 1 202 33 is_stmt 1 discriminator 1 view .LVU16
  87              		.loc 1 202 9 is_stmt 0 discriminator 1 view .LVU17
  88 0028 B442     		cmp	r4, r6
  89 002a 0AD2     		bcs	.L12
 203:Dsp/widget/wgt_core/UI_Controller.c ****         {
 204:Dsp/widget/wgt_core/UI_Controller.c ****             if (i % 2)
  90              		.loc 1 204 13 is_stmt 1 view .LVU18
  91              		.loc 1 204 16 is_stmt 0 view .LVU19
  92 002c 15F0010F 		tst	r5, #1
  93 0030 F8D0     		beq	.L4
 205:Dsp/widget/wgt_core/UI_Controller.c ****             {
 206:Dsp/widget/wgt_core/UI_Controller.c ****                 UI_DspInterface.draw_point(i, y + width, true);
  94              		.loc 1 206 17 is_stmt 1 view .LVU20
  95              		.loc 1 206 32 is_stmt 0 view .LVU21
  96 0032 0B4B     		ldr	r3, .L14
  97 0034 9B68     		ldr	r3, [r3, #8]
  98              		.loc 1 206 49 view .LVU22
  99 0036 E119     		adds	r1, r4, r7
 100              		.loc 1 206 17 view .LVU23
 101 0038 0122     		movs	r2, #1
 102 003a 09B2     		sxth	r1, r1
 103 003c 2846     		mov	r0, r5
 104 003e 9847     		blx	r3
 105              	.LVL6:
 106 0040 F0E7     		b	.L4
 107              	.L12:
 108              	.LBE3:
 200:Dsp/widget/wgt_core/UI_Controller.c ****     {
 109              		.loc 1 200 38 is_stmt 1 discriminator 2 view .LVU24
 200:Dsp/widget/wgt_core/UI_Controller.c ****     {
 110              		.loc 1 200 39 is_stmt 0 discriminator 2 view .LVU25
 111 0042 0135     		adds	r5, r5, #1
 112              	.LVL7:
 200:Dsp/widget/wgt_core/UI_Controller.c ****     {
 113              		.loc 1 200 39 discriminator 2 view .LVU26
 114 0044 2DB2     		sxth	r5, r5
 115              	.LVL8:
 116              	.L3:
 200:Dsp/widget/wgt_core/UI_Controller.c ****     {
 117              		.loc 1 200 25 is_stmt 1 discriminator 1 view .LVU27
 200:Dsp/widget/wgt_core/UI_Controller.c ****     {
 118              		.loc 1 200 31 is_stmt 0 discriminator 1 view .LVU28
 119 0046 08EB0903 		add	r3, r8, r9
 200:Dsp/widget/wgt_core/UI_Controller.c ****     {
 120              		.loc 1 200 5 discriminator 1 view .LVU29
 121 004a 9D42     		cmp	r5, r3
 122 004c 01DA     		bge	.L13
 123              	.LBB4:
 202:Dsp/widget/wgt_core/UI_Controller.c ****         {
 124              		.loc 1 202 22 view .LVU30
 125 004e 0024     		movs	r4, #0
 126 0050 EAE7     		b	.L6
 127              	.L13:
 128              	.LBE4:
 129              	.LBE2:
 207:Dsp/widget/wgt_core/UI_Controller.c ****             }
ARM GAS  /var/folders/lx/hc4sn_b53233_zkc9xbbl97r0000gp/T//ccGA9DTo.s 			page 7


 208:Dsp/widget/wgt_core/UI_Controller.c ****         }
 209:Dsp/widget/wgt_core/UI_Controller.c ****     }
 210:Dsp/widget/wgt_core/UI_Controller.c **** 
 211:Dsp/widget/wgt_core/UI_Controller.c ****     return true;
 130              		.loc 1 211 12 view .LVU31
 131 0052 0120     		movs	r0, #1
 132              	.LVL9:
 133              	.L2:
 212:Dsp/widget/wgt_core/UI_Controller.c **** }
 134              		.loc 1 212 1 view .LVU32
 135 0054 BDE8F883 		pop	{r3, r4, r5, r6, r7, r8, r9, pc}
 136              	.LVL10:
 137              	.L7:
 195:Dsp/widget/wgt_core/UI_Controller.c **** 
 138              		.loc 1 195 16 view .LVU33
 139 0058 0020     		movs	r0, #0
 140              	.LVL11:
 195:Dsp/widget/wgt_core/UI_Controller.c **** 
 141              		.loc 1 195 16 view .LVU34
 142 005a FBE7     		b	.L2
 143              	.LVL12:
 144              	.L8:
 195:Dsp/widget/wgt_core/UI_Controller.c **** 
 145              		.loc 1 195 16 view .LVU35
 146 005c 0020     		movs	r0, #0
 147              	.LVL13:
 195:Dsp/widget/wgt_core/UI_Controller.c **** 
 148              		.loc 1 195 16 view .LVU36
 149 005e F9E7     		b	.L2
 150              	.L15:
 151              		.align	2
 152              	.L14:
 153 0060 00000000 		.word	.LANCHOR0
 154 0064 00000000 		.word	.LANCHOR1
 155              		.cfi_endproc
 156              	.LFE7:
 158              		.section	.text.UI_GenData_Init,"ax",%progbits
 159              		.align	1
 160              		.syntax unified
 161              		.thumb
 162              		.thumb_func
 163              		.fpu fpv4-sp-d16
 165              	UI_GenData_Init:
 166              	.LVL14:
 167              	.LFB9:
 213:Dsp/widget/wgt_core/UI_Controller.c **** 
 214:Dsp/widget/wgt_core/UI_Controller.c **** /* still in developing about this selector */
 215:Dsp/widget/wgt_core/UI_Controller.c **** /* FYI different UI Item Got different selector */
 216:Dsp/widget/wgt_core/UI_Controller.c **** WidgetUI_FreshState_List UI_ShowSelector(WidgetUI_Item_TypeDef *item)
 217:Dsp/widget/wgt_core/UI_Controller.c **** {
 218:Dsp/widget/wgt_core/UI_Controller.c ****     /* button selector coordinate */
 219:Dsp/widget/wgt_core/UI_Controller.c ****     int16_t Btn_Slct_LftUp_X = 0;
 220:Dsp/widget/wgt_core/UI_Controller.c ****     int16_t Btn_Slct_LftUp_Y = 0;
 221:Dsp/widget/wgt_core/UI_Controller.c ****     int16_t Btn_Slct_LftDwn_X = 0;
 222:Dsp/widget/wgt_core/UI_Controller.c ****     int16_t Btn_Slct_LftDwn_Y = 0;
 223:Dsp/widget/wgt_core/UI_Controller.c ****     int16_t Btn_Slct_RgtUp_X = 0;
 224:Dsp/widget/wgt_core/UI_Controller.c ****     int16_t Btn_Slct_RgtUp_Y = 0;
ARM GAS  /var/folders/lx/hc4sn_b53233_zkc9xbbl97r0000gp/T//ccGA9DTo.s 			page 8


 225:Dsp/widget/wgt_core/UI_Controller.c ****     int16_t Btn_Slct_RgtDwn_X = 0;
 226:Dsp/widget/wgt_core/UI_Controller.c ****     int16_t Btn_Slct_RgtDwn_Y = 0;
 227:Dsp/widget/wgt_core/UI_Controller.c **** 
 228:Dsp/widget/wgt_core/UI_Controller.c ****     /* selector block coordinate */
 229:Dsp/widget/wgt_core/UI_Controller.c ****     int16_t block_x;
 230:Dsp/widget/wgt_core/UI_Controller.c ****     int16_t block_y;
 231:Dsp/widget/wgt_core/UI_Controller.c **** 
 232:Dsp/widget/wgt_core/UI_Controller.c ****     uint8_t widget_width = 128;
 233:Dsp/widget/wgt_core/UI_Controller.c ****     uint8_t selector_height = 0;
 234:Dsp/widget/wgt_core/UI_Controller.c **** 
 235:Dsp/widget/wgt_core/UI_Controller.c ****     if (UI_Get_WidgetWidth != NULL)
 236:Dsp/widget/wgt_core/UI_Controller.c ****     {
 237:Dsp/widget/wgt_core/UI_Controller.c ****         widget_width = UI_Get_WidgetWidth();
 238:Dsp/widget/wgt_core/UI_Controller.c **** 
 239:Dsp/widget/wgt_core/UI_Controller.c ****         if (widget_width == 0)
 240:Dsp/widget/wgt_core/UI_Controller.c ****             return UI_Fresh_Error;
 241:Dsp/widget/wgt_core/UI_Controller.c ****     }
 242:Dsp/widget/wgt_core/UI_Controller.c **** 
 243:Dsp/widget/wgt_core/UI_Controller.c ****     if (item == NULL)
 244:Dsp/widget/wgt_core/UI_Controller.c ****         return UI_Fresh_Error;
 245:Dsp/widget/wgt_core/UI_Controller.c **** 
 246:Dsp/widget/wgt_core/UI_Controller.c ****     switch (base_font)
 247:Dsp/widget/wgt_core/UI_Controller.c ****     {
 248:Dsp/widget/wgt_core/UI_Controller.c ****     case Font_8:
 249:Dsp/widget/wgt_core/UI_Controller.c ****         selector_height = Font_8 + 2;
 250:Dsp/widget/wgt_core/UI_Controller.c ****         break;
 251:Dsp/widget/wgt_core/UI_Controller.c **** 
 252:Dsp/widget/wgt_core/UI_Controller.c ****     case Font_12:
 253:Dsp/widget/wgt_core/UI_Controller.c ****     case Font_16:
 254:Dsp/widget/wgt_core/UI_Controller.c ****         selector_height = Font_12 - 1;
 255:Dsp/widget/wgt_core/UI_Controller.c ****         break;
 256:Dsp/widget/wgt_core/UI_Controller.c **** 
 257:Dsp/widget/wgt_core/UI_Controller.c ****     default:
 258:Dsp/widget/wgt_core/UI_Controller.c ****         return UI_Fresh_Error;
 259:Dsp/widget/wgt_core/UI_Controller.c ****     }
 260:Dsp/widget/wgt_core/UI_Controller.c **** 
 261:Dsp/widget/wgt_core/UI_Controller.c ****     switch ((uint8_t)(item->type))
 262:Dsp/widget/wgt_core/UI_Controller.c ****     {
 263:Dsp/widget/wgt_core/UI_Controller.c ****     case UI_Type_Button:
 264:Dsp/widget/wgt_core/UI_Controller.c **** 
 265:Dsp/widget/wgt_core/UI_Controller.c ****         if (UI_DspInterface.fill_circle_section == NULL)
 266:Dsp/widget/wgt_core/UI_Controller.c ****             return UI_Fresh_Error;
 267:Dsp/widget/wgt_core/UI_Controller.c **** 
 268:Dsp/widget/wgt_core/UI_Controller.c ****         /* comput button selector coordinate first */
 269:Dsp/widget/wgt_core/UI_Controller.c ****         Btn_Slct_LftUp_X = HandleToButtonObj(item->Handler)->Gen_Data.x;
 270:Dsp/widget/wgt_core/UI_Controller.c ****         Btn_Slct_LftUp_Y = HandleToButtonObj(item->Handler)->Gen_Data.y + HandleToButtonObj(item->H
 271:Dsp/widget/wgt_core/UI_Controller.c **** 
 272:Dsp/widget/wgt_core/UI_Controller.c ****         Btn_Slct_LftDwn_X = Btn_Slct_LftUp_X;
 273:Dsp/widget/wgt_core/UI_Controller.c ****         Btn_Slct_LftDwn_Y = HandleToButtonObj(item->Handler)->Gen_Data.y;
 274:Dsp/widget/wgt_core/UI_Controller.c **** 
 275:Dsp/widget/wgt_core/UI_Controller.c ****         Btn_Slct_RgtUp_X = HandleToButtonObj(item->Handler)->Gen_Data.x + HandleToButtonObj(item->H
 276:Dsp/widget/wgt_core/UI_Controller.c ****         Btn_Slct_RgtUp_Y = Btn_Slct_LftUp_Y;
 277:Dsp/widget/wgt_core/UI_Controller.c **** 
 278:Dsp/widget/wgt_core/UI_Controller.c ****         Btn_Slct_RgtDwn_X = Btn_Slct_RgtUp_X;
 279:Dsp/widget/wgt_core/UI_Controller.c ****         Btn_Slct_RgtDwn_Y = Btn_Slct_LftDwn_Y;
 280:Dsp/widget/wgt_core/UI_Controller.c **** 
 281:Dsp/widget/wgt_core/UI_Controller.c ****         // show button selector
ARM GAS  /var/folders/lx/hc4sn_b53233_zkc9xbbl97r0000gp/T//ccGA9DTo.s 			page 9


 282:Dsp/widget/wgt_core/UI_Controller.c ****         UI_DspInterface.draw_circle_section(Btn_Slct_LftUp_X, Btn_Slct_LftUp_Y, BUTTON_SELECTOR_RAD
 283:Dsp/widget/wgt_core/UI_Controller.c ****         UI_DspInterface.draw_circle_section(Btn_Slct_LftDwn_X, Btn_Slct_LftDwn_Y, BUTTON_SELECTOR_R
 284:Dsp/widget/wgt_core/UI_Controller.c ****         UI_DspInterface.draw_circle_section(Btn_Slct_RgtUp_X, Btn_Slct_RgtUp_Y, BUTTON_SELECTOR_RAD
 285:Dsp/widget/wgt_core/UI_Controller.c ****         UI_DspInterface.draw_circle_section(Btn_Slct_RgtDwn_X, Btn_Slct_RgtDwn_Y, BUTTON_SELECTOR_R
 286:Dsp/widget/wgt_core/UI_Controller.c ****         break;
 287:Dsp/widget/wgt_core/UI_Controller.c **** 
 288:Dsp/widget/wgt_core/UI_Controller.c ****     case UI_Type_CheckBox:
 289:Dsp/widget/wgt_core/UI_Controller.c ****         block_x = HandleToCheckBoxObj(item->Handler)->Gen_Data.x + 3;
 290:Dsp/widget/wgt_core/UI_Controller.c ****         block_y = HandleToCheckBoxObj(item->Handler)->Gen_Data.y + 1;
 291:Dsp/widget/wgt_core/UI_Controller.c **** 
 292:Dsp/widget/wgt_core/UI_Controller.c ****         UI_DspInterface.fill_rectangle(block_x, block_y, (widget_width - 6), selector_height, true)
 293:Dsp/widget/wgt_core/UI_Controller.c ****         break;
 294:Dsp/widget/wgt_core/UI_Controller.c **** 
 295:Dsp/widget/wgt_core/UI_Controller.c ****     case UI_Type_SlideBar:
 296:Dsp/widget/wgt_core/UI_Controller.c ****         block_y = HandleToSlideBarObj(item->Handler)->Gen_Data.y + 1;
 297:Dsp/widget/wgt_core/UI_Controller.c **** 
 298:Dsp/widget/wgt_core/UI_Controller.c ****         if (!UI_SlideBar_IsSelected(HandleToButtonObj(item->Handler)))
 299:Dsp/widget/wgt_core/UI_Controller.c ****         {
 300:Dsp/widget/wgt_core/UI_Controller.c ****             block_x = HandleToSlideBarObj(item->Handler)->Gen_Data.x + 3;
 301:Dsp/widget/wgt_core/UI_Controller.c **** 
 302:Dsp/widget/wgt_core/UI_Controller.c ****             UI_DspInterface.fill_rectangle(block_x, block_y, (widget_width - 6), selector_height, t
 303:Dsp/widget/wgt_core/UI_Controller.c ****         }
 304:Dsp/widget/wgt_core/UI_Controller.c ****         else
 305:Dsp/widget/wgt_core/UI_Controller.c ****         {
 306:Dsp/widget/wgt_core/UI_Controller.c ****             block_x = HandleToSlideBarObj(item->Handler)->BarCoord_X - 3;
 307:Dsp/widget/wgt_core/UI_Controller.c **** 
 308:Dsp/widget/wgt_core/UI_Controller.c ****             UI_DspInterface.fill_rectangle(block_x, block_y, (widget_width - block_x - 6), selector
 309:Dsp/widget/wgt_core/UI_Controller.c ****         }
 310:Dsp/widget/wgt_core/UI_Controller.c ****         break;
 311:Dsp/widget/wgt_core/UI_Controller.c **** 
 312:Dsp/widget/wgt_core/UI_Controller.c ****     case UI_Type_ProcBar:
 313:Dsp/widget/wgt_core/UI_Controller.c ****         /* show next */
 314:Dsp/widget/wgt_core/UI_Controller.c ****         return UI_Fresh_Skip;
 315:Dsp/widget/wgt_core/UI_Controller.c **** 
 316:Dsp/widget/wgt_core/UI_Controller.c ****     case UI_Type_Drop:
 317:Dsp/widget/wgt_core/UI_Controller.c ****         block_x = HandleToDropObj(item->Handler)->Gen_Data.x + 3;
 318:Dsp/widget/wgt_core/UI_Controller.c **** 
 319:Dsp/widget/wgt_core/UI_Controller.c ****         if (HandleToDropObj(item->Handler)->is_selected)
 320:Dsp/widget/wgt_core/UI_Controller.c ****         {
 321:Dsp/widget/wgt_core/UI_Controller.c ****             block_y = HandleToDropObj(item->Handler)->Gen_Data.y;
 322:Dsp/widget/wgt_core/UI_Controller.c ****         }
 323:Dsp/widget/wgt_core/UI_Controller.c ****         else
 324:Dsp/widget/wgt_core/UI_Controller.c ****         {
 325:Dsp/widget/wgt_core/UI_Controller.c ****             block_y = HandleToDropObj(item->Handler)->Gen_Data.y + base_font + 2;
 326:Dsp/widget/wgt_core/UI_Controller.c ****             UI_DspInterface.fill_rectangle(block_x, block_y, (widget_width - 6), selector_height, t
 327:Dsp/widget/wgt_core/UI_Controller.c ****         }
 328:Dsp/widget/wgt_core/UI_Controller.c ****         break;
 329:Dsp/widget/wgt_core/UI_Controller.c **** 
 330:Dsp/widget/wgt_core/UI_Controller.c ****     default:
 331:Dsp/widget/wgt_core/UI_Controller.c ****         return UI_Fresh_Error;
 332:Dsp/widget/wgt_core/UI_Controller.c ****     }
 333:Dsp/widget/wgt_core/UI_Controller.c **** 
 334:Dsp/widget/wgt_core/UI_Controller.c ****     return UI_Fresh_Done;
 335:Dsp/widget/wgt_core/UI_Controller.c **** }
 336:Dsp/widget/wgt_core/UI_Controller.c **** 
 337:Dsp/widget/wgt_core/UI_Controller.c **** static void UI_GenData_Init(UI_GeneralData_TypeDef *GenData, char *label, int16_t x, int16_t y)
 338:Dsp/widget/wgt_core/UI_Controller.c **** {
ARM GAS  /var/folders/lx/hc4sn_b53233_zkc9xbbl97r0000gp/T//ccGA9DTo.s 			page 10


 168              		.loc 1 338 1 is_stmt 1 view -0
 169              		.cfi_startproc
 170              		@ args = 0, pretend = 0, frame = 0
 171              		@ frame_needed = 0, uses_anonymous_args = 0
 172              		@ link register save eliminated.
 339:Dsp/widget/wgt_core/UI_Controller.c ****     GenData->label = label;
 173              		.loc 1 339 5 view .LVU38
 174              		.loc 1 339 20 is_stmt 0 view .LVU39
 175 0000 0160     		str	r1, [r0]
 340:Dsp/widget/wgt_core/UI_Controller.c **** 
 341:Dsp/widget/wgt_core/UI_Controller.c ****     GenData->x = x;
 176              		.loc 1 341 5 is_stmt 1 view .LVU40
 177              		.loc 1 341 16 is_stmt 0 view .LVU41
 178 0002 8280     		strh	r2, [r0, #4]	@ movhi
 342:Dsp/widget/wgt_core/UI_Controller.c ****     GenData->y = y;
 179              		.loc 1 342 5 is_stmt 1 view .LVU42
 180              		.loc 1 342 16 is_stmt 0 view .LVU43
 181 0004 C380     		strh	r3, [r0, #6]	@ movhi
 343:Dsp/widget/wgt_core/UI_Controller.c ****     GenData->height = 0;
 182              		.loc 1 343 5 is_stmt 1 view .LVU44
 183              		.loc 1 343 21 is_stmt 0 view .LVU45
 184 0006 0023     		movs	r3, #0
 185              	.LVL15:
 186              		.loc 1 343 21 view .LVU46
 187 0008 0372     		strb	r3, [r0, #8]
 344:Dsp/widget/wgt_core/UI_Controller.c **** 
 345:Dsp/widget/wgt_core/UI_Controller.c ****     GenData->operatable = false;
 188              		.loc 1 345 5 is_stmt 1 view .LVU47
 189              		.loc 1 345 25 is_stmt 0 view .LVU48
 190 000a 4372     		strb	r3, [r0, #9]
 346:Dsp/widget/wgt_core/UI_Controller.c **** }
 191              		.loc 1 346 1 view .LVU49
 192 000c 7047     		bx	lr
 193              		.cfi_endproc
 194              	.LFE9:
 196              		.section	.text.UI_Move,"ax",%progbits
 197              		.align	1
 198              		.syntax unified
 199              		.thumb
 200              		.thumb_func
 201              		.fpu fpv4-sp-d16
 203              	UI_Move:
 204              	.LVL16:
 205              	.LFB10:
 347:Dsp/widget/wgt_core/UI_Controller.c **** 
 348:Dsp/widget/wgt_core/UI_Controller.c **** static bool UI_Move(UI_GeneralData_TypeDef *GenUI_Info, int16_t dst_x, int16_t dst_y)
 349:Dsp/widget/wgt_core/UI_Controller.c **** {
 206              		.loc 1 349 1 is_stmt 1 view -0
 207              		.cfi_startproc
 208              		@ args = 0, pretend = 0, frame = 0
 209              		@ frame_needed = 0, uses_anonymous_args = 0
 210              		@ link register save eliminated.
 350:Dsp/widget/wgt_core/UI_Controller.c ****     if (GenUI_Info == NULL)
 211              		.loc 1 350 5 view .LVU51
 212              		.loc 1 350 8 is_stmt 0 view .LVU52
 213 0000 18B1     		cbz	r0, .L19
 351:Dsp/widget/wgt_core/UI_Controller.c ****         return false;
ARM GAS  /var/folders/lx/hc4sn_b53233_zkc9xbbl97r0000gp/T//ccGA9DTo.s 			page 11


 352:Dsp/widget/wgt_core/UI_Controller.c **** 
 353:Dsp/widget/wgt_core/UI_Controller.c ****     GenUI_Info->x = dst_x;
 214              		.loc 1 353 5 is_stmt 1 view .LVU53
 215              		.loc 1 353 19 is_stmt 0 view .LVU54
 216 0002 8180     		strh	r1, [r0, #4]	@ movhi
 354:Dsp/widget/wgt_core/UI_Controller.c ****     GenUI_Info->y = dst_y;
 217              		.loc 1 354 5 is_stmt 1 view .LVU55
 218              		.loc 1 354 19 is_stmt 0 view .LVU56
 219 0004 C280     		strh	r2, [r0, #6]	@ movhi
 355:Dsp/widget/wgt_core/UI_Controller.c **** 
 356:Dsp/widget/wgt_core/UI_Controller.c ****     return true;
 220              		.loc 1 356 5 is_stmt 1 view .LVU57
 221              		.loc 1 356 12 is_stmt 0 view .LVU58
 222 0006 0120     		movs	r0, #1
 223              	.LVL17:
 224              		.loc 1 356 12 view .LVU59
 225 0008 7047     		bx	lr
 226              	.LVL18:
 227              	.L19:
 351:Dsp/widget/wgt_core/UI_Controller.c **** 
 228              		.loc 1 351 16 view .LVU60
 229 000a 0020     		movs	r0, #0
 230              	.LVL19:
 357:Dsp/widget/wgt_core/UI_Controller.c **** }
 231              		.loc 1 357 1 view .LVU61
 232 000c 7047     		bx	lr
 233              		.cfi_endproc
 234              	.LFE10:
 236              		.section	.rodata.UI_Button_Init.str1.4,"aMS",%progbits,1
 237              		.align	2
 238              	.LC0:
 239 0000 79657300 		.ascii	"yes\000"
 240              		.align	2
 241              	.LC1:
 242 0004 6E6F00   		.ascii	"no\000"
 243              		.section	.text.UI_Button_Init,"ax",%progbits
 244              		.align	1
 245              		.syntax unified
 246              		.thumb
 247              		.thumb_func
 248              		.fpu fpv4-sp-d16
 250              	UI_Button_Init:
 251              	.LVL20:
 252              	.LFB11:
 358:Dsp/widget/wgt_core/UI_Controller.c **** 
 359:Dsp/widget/wgt_core/UI_Controller.c **** /********************************************** UI Button Object **********************************
 360:Dsp/widget/wgt_core/UI_Controller.c **** static bool UI_Button_Init(UI_ButtonObj_TypeDef *Obj, char *label, int16_t x, int16_t y, uint8_t wi
 361:Dsp/widget/wgt_core/UI_Controller.c **** {
 253              		.loc 1 361 1 is_stmt 1 view -0
 254              		.cfi_startproc
 255              		@ args = 16, pretend = 0, frame = 0
 256              		@ frame_needed = 0, uses_anonymous_args = 0
 257              		.loc 1 361 1 is_stmt 0 view .LVU63
 258 0000 10B5     		push	{r4, lr}
 259              	.LCFI1:
 260              		.cfi_def_cfa_offset 8
 261              		.cfi_offset 4, -8
ARM GAS  /var/folders/lx/hc4sn_b53233_zkc9xbbl97r0000gp/T//ccGA9DTo.s 			page 12


 262              		.cfi_offset 14, -4
 263 0002 9DF814C0 		ldrb	ip, [sp, #20]	@ zero_extendqisi2
 362:Dsp/widget/wgt_core/UI_Controller.c ****     if (Obj == NULL)
 264              		.loc 1 362 5 is_stmt 1 view .LVU64
 265              		.loc 1 362 8 is_stmt 0 view .LVU65
 266 0006 C8B1     		cbz	r0, .L22
 267 0008 0446     		mov	r4, r0
 363:Dsp/widget/wgt_core/UI_Controller.c ****         return false;
 364:Dsp/widget/wgt_core/UI_Controller.c **** 
 365:Dsp/widget/wgt_core/UI_Controller.c ****     Obj->default_state = state;
 268              		.loc 1 365 5 is_stmt 1 view .LVU66
 269              		.loc 1 365 24 is_stmt 0 view .LVU67
 270 000a 80F80CC0 		strb	ip, [r0, #12]
 366:Dsp/widget/wgt_core/UI_Controller.c ****     Obj->state = state;
 271              		.loc 1 366 5 is_stmt 1 view .LVU68
 272              		.loc 1 366 16 is_stmt 0 view .LVU69
 273 000e 80F80DC0 		strb	ip, [r0, #13]
 367:Dsp/widget/wgt_core/UI_Controller.c ****     Obj->type = type;
 274              		.loc 1 367 5 is_stmt 1 view .LVU70
 275              		.loc 1 367 15 is_stmt 0 view .LVU71
 276 0012 9DF81000 		ldrb	r0, [sp, #16]	@ zero_extendqisi2
 277              	.LVL21:
 278              		.loc 1 367 15 view .LVU72
 279 0016 A073     		strb	r0, [r4, #14]
 368:Dsp/widget/wgt_core/UI_Controller.c **** 
 369:Dsp/widget/wgt_core/UI_Controller.c ****     UI_GenData_Init(&Obj->Gen_Data, label, x, y);
 280              		.loc 1 369 5 is_stmt 1 view .LVU73
 281 0018 2046     		mov	r0, r4
 282 001a FFF7FEFF 		bl	UI_GenData_Init
 283              	.LVL22:
 370:Dsp/widget/wgt_core/UI_Controller.c **** 
 371:Dsp/widget/wgt_core/UI_Controller.c ****     Obj->width = width;
 284              		.loc 1 371 5 view .LVU74
 285              		.loc 1 371 16 is_stmt 0 view .LVU75
 286 001e 9DF80830 		ldrb	r3, [sp, #8]	@ zero_extendqisi2
 287 0022 E377     		strb	r3, [r4, #31]
 372:Dsp/widget/wgt_core/UI_Controller.c ****     Obj->height = height;
 288              		.loc 1 372 5 is_stmt 1 view .LVU76
 289              		.loc 1 372 17 is_stmt 0 view .LVU77
 290 0024 9DF80C30 		ldrb	r3, [sp, #12]	@ zero_extendqisi2
 291 0028 84F82030 		strb	r3, [r4, #32]
 373:Dsp/widget/wgt_core/UI_Controller.c **** 
 374:Dsp/widget/wgt_core/UI_Controller.c ****     Obj->PushDown_Label = DEFAULT_BUTTON_PUSH_LABEL;
 292              		.loc 1 374 5 is_stmt 1 view .LVU78
 293              		.loc 1 374 25 is_stmt 0 view .LVU79
 294 002c 044B     		ldr	r3, .L24
 295 002e C4F81730 		str	r3, [r4, #23]	@ unaligned
 375:Dsp/widget/wgt_core/UI_Controller.c ****     Obj->Release_Label = DEFAULT_BUTTON_RELEASE_LABEL;
 296              		.loc 1 375 5 is_stmt 1 view .LVU80
 297              		.loc 1 375 24 is_stmt 0 view .LVU81
 298 0032 044B     		ldr	r3, .L24+4
 299 0034 C4F81B30 		str	r3, [r4, #27]	@ unaligned
 376:Dsp/widget/wgt_core/UI_Controller.c **** 
 377:Dsp/widget/wgt_core/UI_Controller.c ****     return true;
 300              		.loc 1 377 5 is_stmt 1 view .LVU82
 301              		.loc 1 377 12 is_stmt 0 view .LVU83
 302 0038 0120     		movs	r0, #1
ARM GAS  /var/folders/lx/hc4sn_b53233_zkc9xbbl97r0000gp/T//ccGA9DTo.s 			page 13


 303              	.LVL23:
 304              	.L21:
 378:Dsp/widget/wgt_core/UI_Controller.c **** }
 305              		.loc 1 378 1 view .LVU84
 306 003a 10BD     		pop	{r4, pc}
 307              	.LVL24:
 308              	.L22:
 363:Dsp/widget/wgt_core/UI_Controller.c **** 
 309              		.loc 1 363 16 view .LVU85
 310 003c 0020     		movs	r0, #0
 311              	.LVL25:
 363:Dsp/widget/wgt_core/UI_Controller.c **** 
 312              		.loc 1 363 16 view .LVU86
 313 003e FCE7     		b	.L21
 314              	.L25:
 315              		.align	2
 316              	.L24:
 317 0040 00000000 		.word	.LC0
 318 0044 04000000 		.word	.LC1
 319              		.cfi_endproc
 320              	.LFE11:
 322              		.section	.text.UI_Button_Set_Label,"ax",%progbits
 323              		.align	1
 324              		.syntax unified
 325              		.thumb
 326              		.thumb_func
 327              		.fpu fpv4-sp-d16
 329              	UI_Button_Set_Label:
 330              	.LVL26:
 331              	.LFB12:
 379:Dsp/widget/wgt_core/UI_Controller.c **** 
 380:Dsp/widget/wgt_core/UI_Controller.c **** static bool UI_Button_Set_Label(UI_ButtonObj_TypeDef *Obj, UI_Button_State_List state, char *label)
 381:Dsp/widget/wgt_core/UI_Controller.c **** {
 332              		.loc 1 381 1 is_stmt 1 view -0
 333              		.cfi_startproc
 334              		@ args = 0, pretend = 0, frame = 0
 335              		@ frame_needed = 0, uses_anonymous_args = 0
 336              		@ link register save eliminated.
 382:Dsp/widget/wgt_core/UI_Controller.c ****     if (Obj == NULL)
 337              		.loc 1 382 5 view .LVU88
 338              		.loc 1 382 8 is_stmt 0 view .LVU89
 339 0000 48B1     		cbz	r0, .L29
 383:Dsp/widget/wgt_core/UI_Controller.c ****         return false;
 384:Dsp/widget/wgt_core/UI_Controller.c **** 
 385:Dsp/widget/wgt_core/UI_Controller.c ****     if (state == UI_Btn_PushDwn)
 340              		.loc 1 385 5 is_stmt 1 view .LVU90
 341              		.loc 1 385 8 is_stmt 0 view .LVU91
 342 0002 0129     		cmp	r1, #1
 343 0004 03D0     		beq	.L30
 386:Dsp/widget/wgt_core/UI_Controller.c ****         Obj->PushDown_Label = label;
 387:Dsp/widget/wgt_core/UI_Controller.c ****     else
 388:Dsp/widget/wgt_core/UI_Controller.c ****         Obj->Release_Label = label;
 344              		.loc 1 388 9 is_stmt 1 view .LVU92
 345              		.loc 1 388 28 is_stmt 0 view .LVU93
 346 0006 C0F81B20 		str	r2, [r0, #27]	@ unaligned
 389:Dsp/widget/wgt_core/UI_Controller.c **** 
 390:Dsp/widget/wgt_core/UI_Controller.c ****     return true;
ARM GAS  /var/folders/lx/hc4sn_b53233_zkc9xbbl97r0000gp/T//ccGA9DTo.s 			page 14


 347              		.loc 1 390 12 view .LVU94
 348 000a 0120     		movs	r0, #1
 349              	.LVL27:
 350              		.loc 1 390 12 view .LVU95
 351 000c 7047     		bx	lr
 352              	.LVL28:
 353              	.L30:
 386:Dsp/widget/wgt_core/UI_Controller.c ****         Obj->PushDown_Label = label;
 354              		.loc 1 386 9 is_stmt 1 view .LVU96
 386:Dsp/widget/wgt_core/UI_Controller.c ****         Obj->PushDown_Label = label;
 355              		.loc 1 386 29 is_stmt 0 view .LVU97
 356 000e C0F81720 		str	r2, [r0, #23]	@ unaligned
 357              		.loc 1 390 12 view .LVU98
 358 0012 0120     		movs	r0, #1
 359              	.LVL29:
 360              		.loc 1 390 12 view .LVU99
 361 0014 7047     		bx	lr
 362              	.LVL30:
 363              	.L29:
 383:Dsp/widget/wgt_core/UI_Controller.c **** 
 364              		.loc 1 383 16 view .LVU100
 365 0016 0020     		movs	r0, #0
 366              	.LVL31:
 391:Dsp/widget/wgt_core/UI_Controller.c **** }
 367              		.loc 1 391 1 view .LVU101
 368 0018 7047     		bx	lr
 369              		.cfi_endproc
 370              	.LFE12:
 372              		.section	.text.UI_Button_Set_TriggerCallback,"ax",%progbits
 373              		.align	1
 374              		.syntax unified
 375              		.thumb
 376              		.thumb_func
 377              		.fpu fpv4-sp-d16
 379              	UI_Button_Set_TriggerCallback:
 380              	.LVL32:
 381              	.LFB13:
 392:Dsp/widget/wgt_core/UI_Controller.c **** 
 393:Dsp/widget/wgt_core/UI_Controller.c **** static bool UI_Button_Set_TriggerCallback(UI_ButtonObj_TypeDef *Obj, UI_Button_Trigger_Type type, U
 394:Dsp/widget/wgt_core/UI_Controller.c **** {
 382              		.loc 1 394 1 is_stmt 1 view -0
 383              		.cfi_startproc
 384              		@ args = 0, pretend = 0, frame = 0
 385              		@ frame_needed = 0, uses_anonymous_args = 0
 386              		@ link register save eliminated.
 395:Dsp/widget/wgt_core/UI_Controller.c ****     if (Obj == NULL)
 387              		.loc 1 395 5 view .LVU103
 388              		.loc 1 395 8 is_stmt 0 view .LVU104
 389 0000 50B1     		cbz	r0, .L34
 396:Dsp/widget/wgt_core/UI_Controller.c ****         return false;
 397:Dsp/widget/wgt_core/UI_Controller.c **** 
 398:Dsp/widget/wgt_core/UI_Controller.c ****     if (type == Push_Trigger)
 390              		.loc 1 398 5 is_stmt 1 view .LVU105
 391              		.loc 1 398 8 is_stmt 0 view .LVU106
 392 0002 0129     		cmp	r1, #1
 393 0004 04D0     		beq	.L36
 399:Dsp/widget/wgt_core/UI_Controller.c ****     {
ARM GAS  /var/folders/lx/hc4sn_b53233_zkc9xbbl97r0000gp/T//ccGA9DTo.s 			page 15


 400:Dsp/widget/wgt_core/UI_Controller.c ****         Obj->push_callback = callback;
 401:Dsp/widget/wgt_core/UI_Controller.c ****     }
 402:Dsp/widget/wgt_core/UI_Controller.c ****     else if (type == Release_Trigger)
 394              		.loc 1 402 10 is_stmt 1 view .LVU107
 395              		.loc 1 402 13 is_stmt 0 view .LVU108
 396 0006 49B9     		cbnz	r1, .L35
 403:Dsp/widget/wgt_core/UI_Controller.c ****     {
 404:Dsp/widget/wgt_core/UI_Controller.c ****         Obj->release_callback = callback;
 397              		.loc 1 404 9 is_stmt 1 view .LVU109
 398              		.loc 1 404 31 is_stmt 0 view .LVU110
 399 0008 C0F81320 		str	r2, [r0, #19]	@ unaligned
 405:Dsp/widget/wgt_core/UI_Controller.c ****     }
 406:Dsp/widget/wgt_core/UI_Controller.c ****     else
 407:Dsp/widget/wgt_core/UI_Controller.c ****         return false;
 408:Dsp/widget/wgt_core/UI_Controller.c **** 
 409:Dsp/widget/wgt_core/UI_Controller.c ****     return true;
 400              		.loc 1 409 12 view .LVU111
 401 000c 0120     		movs	r0, #1
 402              	.LVL33:
 403              		.loc 1 409 12 view .LVU112
 404 000e 7047     		bx	lr
 405              	.LVL34:
 406              	.L36:
 400:Dsp/widget/wgt_core/UI_Controller.c ****     }
 407              		.loc 1 400 9 is_stmt 1 view .LVU113
 400:Dsp/widget/wgt_core/UI_Controller.c ****     }
 408              		.loc 1 400 28 is_stmt 0 view .LVU114
 409 0010 C0F80F20 		str	r2, [r0, #15]	@ unaligned
 410              		.loc 1 409 12 view .LVU115
 411 0014 0120     		movs	r0, #1
 412              	.LVL35:
 413              		.loc 1 409 12 view .LVU116
 414 0016 7047     		bx	lr
 415              	.LVL36:
 416              	.L34:
 396:Dsp/widget/wgt_core/UI_Controller.c **** 
 417              		.loc 1 396 16 view .LVU117
 418 0018 0020     		movs	r0, #0
 419              	.LVL37:
 396:Dsp/widget/wgt_core/UI_Controller.c **** 
 420              		.loc 1 396 16 view .LVU118
 421 001a 7047     		bx	lr
 422              	.LVL38:
 423              	.L35:
 407:Dsp/widget/wgt_core/UI_Controller.c **** 
 424              		.loc 1 407 16 view .LVU119
 425 001c 0020     		movs	r0, #0
 426              	.LVL39:
 410:Dsp/widget/wgt_core/UI_Controller.c **** }
 427              		.loc 1 410 1 view .LVU120
 428 001e 7047     		bx	lr
 429              		.cfi_endproc
 430              	.LFE13:
 432              		.section	.text.UI_Button_Push,"ax",%progbits
 433              		.align	1
 434              		.syntax unified
 435              		.thumb
ARM GAS  /var/folders/lx/hc4sn_b53233_zkc9xbbl97r0000gp/T//ccGA9DTo.s 			page 16


 436              		.thumb_func
 437              		.fpu fpv4-sp-d16
 439              	UI_Button_Push:
 440              	.LVL40:
 441              	.LFB14:
 411:Dsp/widget/wgt_core/UI_Controller.c **** 
 412:Dsp/widget/wgt_core/UI_Controller.c **** static bool UI_Button_Push(UI_ButtonObj_TypeDef *Obj)
 413:Dsp/widget/wgt_core/UI_Controller.c **** {
 442              		.loc 1 413 1 is_stmt 1 view -0
 443              		.cfi_startproc
 444              		@ args = 0, pretend = 0, frame = 0
 445              		@ frame_needed = 0, uses_anonymous_args = 0
 414:Dsp/widget/wgt_core/UI_Controller.c ****     if (Obj == NULL)
 446              		.loc 1 414 5 view .LVU122
 447              		.loc 1 414 8 is_stmt 0 view .LVU123
 448 0000 F0B1     		cbz	r0, .L41
 413:Dsp/widget/wgt_core/UI_Controller.c ****     if (Obj == NULL)
 449              		.loc 1 413 1 view .LVU124
 450 0002 08B5     		push	{r3, lr}
 451              	.LCFI2:
 452              		.cfi_def_cfa_offset 8
 453              		.cfi_offset 3, -8
 454              		.cfi_offset 14, -4
 455 0004 0346     		mov	r3, r0
 415:Dsp/widget/wgt_core/UI_Controller.c ****         return false;
 416:Dsp/widget/wgt_core/UI_Controller.c **** 
 417:Dsp/widget/wgt_core/UI_Controller.c ****     if (Obj->type == Lock_Btn)
 456              		.loc 1 417 5 is_stmt 1 view .LVU125
 457              		.loc 1 417 12 is_stmt 0 view .LVU126
 458 0006 827B     		ldrb	r2, [r0, #14]	@ zero_extendqisi2
 459              		.loc 1 417 8 view .LVU127
 460 0008 012A     		cmp	r2, #1
 461 000a 06D0     		beq	.L49
 418:Dsp/widget/wgt_core/UI_Controller.c ****     {
 419:Dsp/widget/wgt_core/UI_Controller.c ****         if (Obj->state == UI_Btn_RlsUp)
 420:Dsp/widget/wgt_core/UI_Controller.c ****             Obj->state = UI_Btn_PushDwn;
 421:Dsp/widget/wgt_core/UI_Controller.c ****         else
 422:Dsp/widget/wgt_core/UI_Controller.c ****             Obj->state = UI_Btn_RlsUp;
 423:Dsp/widget/wgt_core/UI_Controller.c ****     }
 424:Dsp/widget/wgt_core/UI_Controller.c ****     else if (Obj->type == Reset_Btn)
 462              		.loc 1 424 10 is_stmt 1 view .LVU128
 463              		.loc 1 424 13 is_stmt 0 view .LVU129
 464 000c D2B9     		cbnz	r2, .L42
 425:Dsp/widget/wgt_core/UI_Controller.c ****     {
 426:Dsp/widget/wgt_core/UI_Controller.c ****         if (Obj->default_state == Obj->state)
 465              		.loc 1 426 9 is_stmt 1 view .LVU130
 466              		.loc 1 426 16 is_stmt 0 view .LVU131
 467 000e 027B     		ldrb	r2, [r0, #12]	@ zero_extendqisi2
 468              		.loc 1 426 38 view .LVU132
 469 0010 417B     		ldrb	r1, [r0, #13]	@ zero_extendqisi2
 470              		.loc 1 426 12 view .LVU133
 471 0012 8A42     		cmp	r2, r1
 472 0014 0AD0     		beq	.L50
 427:Dsp/widget/wgt_core/UI_Controller.c ****         {
 428:Dsp/widget/wgt_core/UI_Controller.c ****             Obj->state = !Obj->default_state;
 429:Dsp/widget/wgt_core/UI_Controller.c **** 
 430:Dsp/widget/wgt_core/UI_Controller.c ****             if (Obj->push_callback != NULL)
ARM GAS  /var/folders/lx/hc4sn_b53233_zkc9xbbl97r0000gp/T//ccGA9DTo.s 			page 17


 431:Dsp/widget/wgt_core/UI_Controller.c ****                 Obj->push_callback();
 432:Dsp/widget/wgt_core/UI_Controller.c ****         }
 433:Dsp/widget/wgt_core/UI_Controller.c ****     }
 434:Dsp/widget/wgt_core/UI_Controller.c ****     else
 435:Dsp/widget/wgt_core/UI_Controller.c ****         return false;
 436:Dsp/widget/wgt_core/UI_Controller.c **** 
 437:Dsp/widget/wgt_core/UI_Controller.c ****     return true;
 473              		.loc 1 437 12 view .LVU134
 474 0016 0120     		movs	r0, #1
 475              	.LVL41:
 476              	.L38:
 438:Dsp/widget/wgt_core/UI_Controller.c **** }
 477              		.loc 1 438 1 view .LVU135
 478 0018 08BD     		pop	{r3, pc}
 479              	.LVL42:
 480              	.L49:
 419:Dsp/widget/wgt_core/UI_Controller.c ****             Obj->state = UI_Btn_PushDwn;
 481              		.loc 1 419 9 is_stmt 1 view .LVU136
 419:Dsp/widget/wgt_core/UI_Controller.c ****             Obj->state = UI_Btn_PushDwn;
 482              		.loc 1 419 16 is_stmt 0 view .LVU137
 483 001a 427B     		ldrb	r2, [r0, #13]	@ zero_extendqisi2
 419:Dsp/widget/wgt_core/UI_Controller.c ****             Obj->state = UI_Btn_PushDwn;
 484              		.loc 1 419 12 view .LVU138
 485 001c 12B9     		cbnz	r2, .L40
 420:Dsp/widget/wgt_core/UI_Controller.c ****         else
 486              		.loc 1 420 13 is_stmt 1 view .LVU139
 420:Dsp/widget/wgt_core/UI_Controller.c ****         else
 487              		.loc 1 420 24 is_stmt 0 view .LVU140
 488 001e 0120     		movs	r0, #1
 489              	.LVL43:
 420:Dsp/widget/wgt_core/UI_Controller.c ****         else
 490              		.loc 1 420 24 view .LVU141
 491 0020 5873     		strb	r0, [r3, #13]
 492 0022 F9E7     		b	.L38
 493              	.LVL44:
 494              	.L40:
 422:Dsp/widget/wgt_core/UI_Controller.c ****     }
 495              		.loc 1 422 13 is_stmt 1 view .LVU142
 422:Dsp/widget/wgt_core/UI_Controller.c ****     }
 496              		.loc 1 422 24 is_stmt 0 view .LVU143
 497 0024 0022     		movs	r2, #0
 498 0026 4273     		strb	r2, [r0, #13]
 437:Dsp/widget/wgt_core/UI_Controller.c **** }
 499              		.loc 1 437 12 view .LVU144
 500 0028 0120     		movs	r0, #1
 501              	.LVL45:
 437:Dsp/widget/wgt_core/UI_Controller.c **** }
 502              		.loc 1 437 12 view .LVU145
 503 002a F5E7     		b	.L38
 504              	.LVL46:
 505              	.L50:
 428:Dsp/widget/wgt_core/UI_Controller.c **** 
 506              		.loc 1 428 13 is_stmt 1 view .LVU146
 428:Dsp/widget/wgt_core/UI_Controller.c **** 
 507              		.loc 1 428 26 is_stmt 0 view .LVU147
 508 002c B2FA82F2 		clz	r2, r2
 509 0030 5209     		lsrs	r2, r2, #5
ARM GAS  /var/folders/lx/hc4sn_b53233_zkc9xbbl97r0000gp/T//ccGA9DTo.s 			page 18


 428:Dsp/widget/wgt_core/UI_Controller.c **** 
 510              		.loc 1 428 24 view .LVU148
 511 0032 4273     		strb	r2, [r0, #13]
 430:Dsp/widget/wgt_core/UI_Controller.c ****                 Obj->push_callback();
 512              		.loc 1 430 13 is_stmt 1 view .LVU149
 430:Dsp/widget/wgt_core/UI_Controller.c ****                 Obj->push_callback();
 513              		.loc 1 430 20 is_stmt 0 view .LVU150
 514 0034 D0F80F30 		ldr	r3, [r0, #15]	@ unaligned
 430:Dsp/widget/wgt_core/UI_Controller.c ****                 Obj->push_callback();
 515              		.loc 1 430 16 view .LVU151
 516 0038 33B1     		cbz	r3, .L44
 431:Dsp/widget/wgt_core/UI_Controller.c ****         }
 517              		.loc 1 431 17 is_stmt 1 view .LVU152
 518 003a 9847     		blx	r3
 519              	.LVL47:
 437:Dsp/widget/wgt_core/UI_Controller.c **** }
 520              		.loc 1 437 12 is_stmt 0 view .LVU153
 521 003c 0120     		movs	r0, #1
 522 003e EBE7     		b	.L38
 523              	.LVL48:
 524              	.L41:
 525              	.LCFI3:
 526              		.cfi_def_cfa_offset 0
 527              		.cfi_restore 3
 528              		.cfi_restore 14
 415:Dsp/widget/wgt_core/UI_Controller.c **** 
 529              		.loc 1 415 16 view .LVU154
 530 0040 0020     		movs	r0, #0
 531              	.LVL49:
 532              		.loc 1 438 1 view .LVU155
 533 0042 7047     		bx	lr
 534              	.LVL50:
 535              	.L42:
 536              	.LCFI4:
 537              		.cfi_def_cfa_offset 8
 538              		.cfi_offset 3, -8
 539              		.cfi_offset 14, -4
 435:Dsp/widget/wgt_core/UI_Controller.c **** 
 540              		.loc 1 435 16 view .LVU156
 541 0044 0020     		movs	r0, #0
 542              	.LVL51:
 435:Dsp/widget/wgt_core/UI_Controller.c **** 
 543              		.loc 1 435 16 view .LVU157
 544 0046 E7E7     		b	.L38
 545              	.LVL52:
 546              	.L44:
 437:Dsp/widget/wgt_core/UI_Controller.c **** }
 547              		.loc 1 437 12 view .LVU158
 548 0048 0120     		movs	r0, #1
 549              	.LVL53:
 437:Dsp/widget/wgt_core/UI_Controller.c **** }
 550              		.loc 1 437 12 view .LVU159
 551 004a E5E7     		b	.L38
 552              		.cfi_endproc
 553              	.LFE14:
 555              		.section	.text.UI_Button_Release,"ax",%progbits
 556              		.align	1
ARM GAS  /var/folders/lx/hc4sn_b53233_zkc9xbbl97r0000gp/T//ccGA9DTo.s 			page 19


 557              		.syntax unified
 558              		.thumb
 559              		.thumb_func
 560              		.fpu fpv4-sp-d16
 562              	UI_Button_Release:
 563              	.LVL54:
 564              	.LFB15:
 439:Dsp/widget/wgt_core/UI_Controller.c **** 
 440:Dsp/widget/wgt_core/UI_Controller.c **** static bool UI_Button_Release(UI_ButtonObj_TypeDef *Obj)
 441:Dsp/widget/wgt_core/UI_Controller.c **** {
 565              		.loc 1 441 1 is_stmt 1 view -0
 566              		.cfi_startproc
 567              		@ args = 0, pretend = 0, frame = 0
 568              		@ frame_needed = 0, uses_anonymous_args = 0
 442:Dsp/widget/wgt_core/UI_Controller.c ****     if (Obj == NULL)
 569              		.loc 1 442 5 view .LVU161
 570              		.loc 1 442 8 is_stmt 0 view .LVU162
 571 0000 70B1     		cbz	r0, .L53
 441:Dsp/widget/wgt_core/UI_Controller.c ****     if (Obj == NULL)
 572              		.loc 1 441 1 view .LVU163
 573 0002 08B5     		push	{r3, lr}
 574              	.LCFI5:
 575              		.cfi_def_cfa_offset 8
 576              		.cfi_offset 3, -8
 577              		.cfi_offset 14, -4
 443:Dsp/widget/wgt_core/UI_Controller.c ****         return false;
 444:Dsp/widget/wgt_core/UI_Controller.c **** 
 445:Dsp/widget/wgt_core/UI_Controller.c ****     if (Obj->type == Lock_Btn)
 578              		.loc 1 445 5 is_stmt 1 view .LVU164
 579              		.loc 1 445 12 is_stmt 0 view .LVU165
 580 0004 827B     		ldrb	r2, [r0, #14]	@ zero_extendqisi2
 581              		.loc 1 445 8 view .LVU166
 582 0006 012A     		cmp	r2, #1
 583 0008 0CD0     		beq	.L54
 446:Dsp/widget/wgt_core/UI_Controller.c ****         return true;
 447:Dsp/widget/wgt_core/UI_Controller.c **** 
 448:Dsp/widget/wgt_core/UI_Controller.c ****     if (Obj->default_state != Obj->state)
 584              		.loc 1 448 5 is_stmt 1 view .LVU167
 585              		.loc 1 448 12 is_stmt 0 view .LVU168
 586 000a 027B     		ldrb	r2, [r0, #12]	@ zero_extendqisi2
 587              		.loc 1 448 34 view .LVU169
 588 000c 417B     		ldrb	r1, [r0, #13]	@ zero_extendqisi2
 589              		.loc 1 448 8 view .LVU170
 590 000e 8A42     		cmp	r2, r1
 591 0010 0AD0     		beq	.L55
 449:Dsp/widget/wgt_core/UI_Controller.c ****     {
 450:Dsp/widget/wgt_core/UI_Controller.c ****         Obj->state = Obj->default_state;
 592              		.loc 1 450 9 is_stmt 1 view .LVU171
 593              		.loc 1 450 20 is_stmt 0 view .LVU172
 594 0012 4273     		strb	r2, [r0, #13]
 451:Dsp/widget/wgt_core/UI_Controller.c **** 
 452:Dsp/widget/wgt_core/UI_Controller.c ****         if (Obj->release_callback != NULL)
 595              		.loc 1 452 9 is_stmt 1 view .LVU173
 596              		.loc 1 452 16 is_stmt 0 view .LVU174
 597 0014 D0F81330 		ldr	r3, [r0, #19]	@ unaligned
 598              		.loc 1 452 12 view .LVU175
 599 0018 43B1     		cbz	r3, .L56
ARM GAS  /var/folders/lx/hc4sn_b53233_zkc9xbbl97r0000gp/T//ccGA9DTo.s 			page 20


 453:Dsp/widget/wgt_core/UI_Controller.c ****             Obj->release_callback();
 600              		.loc 1 453 13 is_stmt 1 view .LVU176
 601 001a 9847     		blx	r3
 602              	.LVL55:
 454:Dsp/widget/wgt_core/UI_Controller.c ****     }
 455:Dsp/widget/wgt_core/UI_Controller.c **** 
 456:Dsp/widget/wgt_core/UI_Controller.c ****     return true;
 603              		.loc 1 456 12 is_stmt 0 view .LVU177
 604 001c 0120     		movs	r0, #1
 605              	.L52:
 457:Dsp/widget/wgt_core/UI_Controller.c **** }
 606              		.loc 1 457 1 view .LVU178
 607 001e 08BD     		pop	{r3, pc}
 608              	.LVL56:
 609              	.L53:
 610              	.LCFI6:
 611              		.cfi_def_cfa_offset 0
 612              		.cfi_restore 3
 613              		.cfi_restore 14
 443:Dsp/widget/wgt_core/UI_Controller.c **** 
 614              		.loc 1 443 16 view .LVU179
 615 0020 0020     		movs	r0, #0
 616              	.LVL57:
 617              		.loc 1 457 1 view .LVU180
 618 0022 7047     		bx	lr
 619              	.LVL58:
 620              	.L54:
 621              	.LCFI7:
 622              		.cfi_def_cfa_offset 8
 623              		.cfi_offset 3, -8
 624              		.cfi_offset 14, -4
 446:Dsp/widget/wgt_core/UI_Controller.c **** 
 625              		.loc 1 446 16 view .LVU181
 626 0024 0120     		movs	r0, #1
 627              	.LVL59:
 446:Dsp/widget/wgt_core/UI_Controller.c **** 
 628              		.loc 1 446 16 view .LVU182
 629 0026 FAE7     		b	.L52
 630              	.LVL60:
 631              	.L55:
 456:Dsp/widget/wgt_core/UI_Controller.c **** }
 632              		.loc 1 456 12 view .LVU183
 633 0028 0120     		movs	r0, #1
 634              	.LVL61:
 456:Dsp/widget/wgt_core/UI_Controller.c **** }
 635              		.loc 1 456 12 view .LVU184
 636 002a F8E7     		b	.L52
 637              	.LVL62:
 638              	.L56:
 456:Dsp/widget/wgt_core/UI_Controller.c **** }
 639              		.loc 1 456 12 view .LVU185
 640 002c 0120     		movs	r0, #1
 641              	.LVL63:
 456:Dsp/widget/wgt_core/UI_Controller.c **** }
 642              		.loc 1 456 12 view .LVU186
 643 002e F6E7     		b	.L52
 644              		.cfi_endproc
ARM GAS  /var/folders/lx/hc4sn_b53233_zkc9xbbl97r0000gp/T//ccGA9DTo.s 			page 21


 645              	.LFE15:
 647              		.section	.text.UI_Button_Move,"ax",%progbits
 648              		.align	1
 649              		.syntax unified
 650              		.thumb
 651              		.thumb_func
 652              		.fpu fpv4-sp-d16
 654              	UI_Button_Move:
 655              	.LVL64:
 656              	.LFB16:
 458:Dsp/widget/wgt_core/UI_Controller.c **** 
 459:Dsp/widget/wgt_core/UI_Controller.c **** static bool UI_Button_Move(UI_ButtonObj_TypeDef *Obj, uint16_t x, uint16_t y)
 460:Dsp/widget/wgt_core/UI_Controller.c **** {
 657              		.loc 1 460 1 is_stmt 1 view -0
 658              		.cfi_startproc
 659              		@ args = 0, pretend = 0, frame = 0
 660              		@ frame_needed = 0, uses_anonymous_args = 0
 461:Dsp/widget/wgt_core/UI_Controller.c ****     if (Obj == NULL)
 661              		.loc 1 461 5 view .LVU188
 662              		.loc 1 461 8 is_stmt 0 view .LVU189
 663 0000 28B1     		cbz	r0, .L63
 460:Dsp/widget/wgt_core/UI_Controller.c ****     if (Obj == NULL)
 664              		.loc 1 460 1 view .LVU190
 665 0002 08B5     		push	{r3, lr}
 666              	.LCFI8:
 667              		.cfi_def_cfa_offset 8
 668              		.cfi_offset 3, -8
 669              		.cfi_offset 14, -4
 462:Dsp/widget/wgt_core/UI_Controller.c ****         return false;
 463:Dsp/widget/wgt_core/UI_Controller.c **** 
 464:Dsp/widget/wgt_core/UI_Controller.c ****     return UI_Move(&(Obj->Gen_Data), x, y);
 670              		.loc 1 464 5 is_stmt 1 view .LVU191
 671              		.loc 1 464 12 is_stmt 0 view .LVU192
 672 0004 12B2     		sxth	r2, r2
 673              		.loc 1 464 12 view .LVU193
 674 0006 09B2     		sxth	r1, r1
 675              		.loc 1 464 12 view .LVU194
 676 0008 FFF7FEFF 		bl	UI_Move
 677              	.LVL65:
 465:Dsp/widget/wgt_core/UI_Controller.c **** }
 678              		.loc 1 465 1 view .LVU195
 679 000c 08BD     		pop	{r3, pc}
 680              	.LVL66:
 681              	.L63:
 682              	.LCFI9:
 683              		.cfi_def_cfa_offset 0
 684              		.cfi_restore 3
 685              		.cfi_restore 14
 462:Dsp/widget/wgt_core/UI_Controller.c ****         return false;
 686              		.loc 1 462 16 view .LVU196
 687 000e 0020     		movs	r0, #0
 688              	.LVL67:
 689              		.loc 1 465 1 view .LVU197
 690 0010 7047     		bx	lr
 691              		.cfi_endproc
 692              	.LFE16:
 694              		.section	.text.UI_Button_Ctl,"ax",%progbits
ARM GAS  /var/folders/lx/hc4sn_b53233_zkc9xbbl97r0000gp/T//ccGA9DTo.s 			page 22


 695              		.align	1
 696              		.syntax unified
 697              		.thumb
 698              		.thumb_func
 699              		.fpu fpv4-sp-d16
 701              	UI_Button_Ctl:
 702              	.LVL68:
 703              	.LFB17:
 466:Dsp/widget/wgt_core/UI_Controller.c **** 
 467:Dsp/widget/wgt_core/UI_Controller.c **** static bool UI_Button_Ctl(UI_ButtonObj_TypeDef *Obj)
 468:Dsp/widget/wgt_core/UI_Controller.c **** {
 704              		.loc 1 468 1 is_stmt 1 view -0
 705              		.cfi_startproc
 706              		@ args = 0, pretend = 0, frame = 0
 707              		@ frame_needed = 0, uses_anonymous_args = 0
 469:Dsp/widget/wgt_core/UI_Controller.c ****     if (Obj == NULL)
 708              		.loc 1 469 5 view .LVU199
 709              		.loc 1 469 8 is_stmt 0 view .LVU200
 710 0000 0028     		cmp	r0, #0
 711 0002 73D0     		beq	.L74
 468:Dsp/widget/wgt_core/UI_Controller.c ****     if (Obj == NULL)
 712              		.loc 1 468 1 view .LVU201
 713 0004 70B5     		push	{r4, r5, r6, lr}
 714              	.LCFI10:
 715              		.cfi_def_cfa_offset 16
 716              		.cfi_offset 4, -16
 717              		.cfi_offset 5, -12
 718              		.cfi_offset 6, -8
 719              		.cfi_offset 14, -4
 720 0006 84B0     		sub	sp, sp, #16
 721              	.LCFI11:
 722              		.cfi_def_cfa_offset 32
 723 0008 0446     		mov	r4, r0
 470:Dsp/widget/wgt_core/UI_Controller.c ****         return false;
 471:Dsp/widget/wgt_core/UI_Controller.c **** 
 472:Dsp/widget/wgt_core/UI_Controller.c ****     if (Obj->type == Lock_Btn)
 724              		.loc 1 472 5 is_stmt 1 view .LVU202
 725              		.loc 1 472 12 is_stmt 0 view .LVU203
 726 000a 837B     		ldrb	r3, [r0, #14]	@ zero_extendqisi2
 727              		.loc 1 472 8 view .LVU204
 728 000c 012B     		cmp	r3, #1
 729 000e 2FD0     		beq	.L86
 730              	.LVL69:
 731              	.L70:
 473:Dsp/widget/wgt_core/UI_Controller.c ****     {
 474:Dsp/widget/wgt_core/UI_Controller.c ****         if (Obj->state == UI_Btn_PushDwn)
 475:Dsp/widget/wgt_core/UI_Controller.c ****         {
 476:Dsp/widget/wgt_core/UI_Controller.c ****             if (Obj->push_callback)
 477:Dsp/widget/wgt_core/UI_Controller.c ****                 Obj->push_callback();
 478:Dsp/widget/wgt_core/UI_Controller.c ****         }
 479:Dsp/widget/wgt_core/UI_Controller.c ****         else if (Obj->state == UI_Btn_RlsUp)
 480:Dsp/widget/wgt_core/UI_Controller.c ****         {
 481:Dsp/widget/wgt_core/UI_Controller.c ****             if (Obj->release_callback)
 482:Dsp/widget/wgt_core/UI_Controller.c ****                 Obj->release_callback();
 483:Dsp/widget/wgt_core/UI_Controller.c ****         }
 484:Dsp/widget/wgt_core/UI_Controller.c ****         else
 485:Dsp/widget/wgt_core/UI_Controller.c ****             return false;
ARM GAS  /var/folders/lx/hc4sn_b53233_zkc9xbbl97r0000gp/T//ccGA9DTo.s 			page 23


 486:Dsp/widget/wgt_core/UI_Controller.c ****     }
 487:Dsp/widget/wgt_core/UI_Controller.c **** 
 488:Dsp/widget/wgt_core/UI_Controller.c ****     /* display button on screen object */
 489:Dsp/widget/wgt_core/UI_Controller.c ****     /* invert display color when button been push down */
 490:Dsp/widget/wgt_core/UI_Controller.c ****     if ((UI_DspInterface.draw_str != NULL) && (UI_DspInterface.fill_radius_rectangle != NULL) && (U
 732              		.loc 1 490 5 is_stmt 1 view .LVU205
 733              		.loc 1 490 25 is_stmt 0 view .LVU206
 734 0010 3F4B     		ldr	r3, .L90
 735 0012 1B68     		ldr	r3, [r3]
 736              		.loc 1 490 8 view .LVU207
 737 0014 002B     		cmp	r3, #0
 738 0016 6DD0     		beq	.L76
 739              		.loc 1 490 63 discriminator 1 view .LVU208
 740 0018 3D4B     		ldr	r3, .L90
 741 001a 1D6B     		ldr	r5, [r3, #48]
 742              		.loc 1 490 44 discriminator 1 view .LVU209
 743 001c 002D     		cmp	r5, #0
 744 001e 6CD0     		beq	.L77
 745              		.loc 1 490 114 discriminator 2 view .LVU210
 746 0020 5E69     		ldr	r6, [r3, #20]
 747              		.loc 1 490 95 discriminator 2 view .LVU211
 748 0022 002E     		cmp	r6, #0
 749 0024 6BD0     		beq	.L78
 491:Dsp/widget/wgt_core/UI_Controller.c ****     {
 492:Dsp/widget/wgt_core/UI_Controller.c ****         if (Obj->state == UI_Btn_PushDwn)
 750              		.loc 1 492 9 is_stmt 1 view .LVU212
 751              		.loc 1 492 16 is_stmt 0 view .LVU213
 752 0026 637B     		ldrb	r3, [r4, #13]	@ zero_extendqisi2
 753              		.loc 1 492 12 view .LVU214
 754 0028 012B     		cmp	r3, #1
 755 002a 32D0     		beq	.L87
 493:Dsp/widget/wgt_core/UI_Controller.c ****         {
 494:Dsp/widget/wgt_core/UI_Controller.c ****             /* fill button frame */
 495:Dsp/widget/wgt_core/UI_Controller.c ****             UI_DspInterface.fill_radius_rectangle(Obj->Gen_Data.x, Obj->Gen_Data.y, Obj->width, Obj
 496:Dsp/widget/wgt_core/UI_Controller.c **** 
 497:Dsp/widget/wgt_core/UI_Controller.c ****             /* invert string display */
 498:Dsp/widget/wgt_core/UI_Controller.c ****             if (Obj->PushDown_Label != NULL)
 499:Dsp/widget/wgt_core/UI_Controller.c ****                 UI_DspInterface.draw_str(base_font, Obj->PushDown_Label, Obj->Gen_Data.x + 5, Obj->
 500:Dsp/widget/wgt_core/UI_Controller.c ****         }
 501:Dsp/widget/wgt_core/UI_Controller.c ****         else
 502:Dsp/widget/wgt_core/UI_Controller.c ****         {
 503:Dsp/widget/wgt_core/UI_Controller.c ****             /* draw button frame */
 504:Dsp/widget/wgt_core/UI_Controller.c ****             UI_DspInterface.draw_radius_rectangle(Obj->Gen_Data.x, Obj->Gen_Data.y, Obj->width, Obj
 756              		.loc 1 504 13 is_stmt 1 view .LVU215
 757 002c 0123     		movs	r3, #1
 758 002e 0293     		str	r3, [sp, #8]
 759 0030 0193     		str	r3, [sp, #4]
 760 0032 0323     		movs	r3, #3
 761 0034 0093     		str	r3, [sp]
 762 0036 94F82030 		ldrb	r3, [r4, #32]	@ zero_extendqisi2
 763 003a E27F     		ldrb	r2, [r4, #31]	@ zero_extendqisi2
 764 003c B4F90610 		ldrsh	r1, [r4, #6]	@ unaligned
 765 0040 B4F90400 		ldrsh	r0, [r4, #4]	@ unaligned
 766 0044 B047     		blx	r6
 767              	.LVL70:
 505:Dsp/widget/wgt_core/UI_Controller.c **** 
 506:Dsp/widget/wgt_core/UI_Controller.c ****             if (Obj->type == Lock_Btn)
ARM GAS  /var/folders/lx/hc4sn_b53233_zkc9xbbl97r0000gp/T//ccGA9DTo.s 			page 24


 768              		.loc 1 506 13 view .LVU216
 769              		.loc 1 506 20 is_stmt 0 view .LVU217
 770 0046 A37B     		ldrb	r3, [r4, #14]	@ zero_extendqisi2
 771              		.loc 1 506 16 view .LVU218
 772 0048 012B     		cmp	r3, #1
 773 004a 3ED0     		beq	.L88
 507:Dsp/widget/wgt_core/UI_Controller.c ****             {
 508:Dsp/widget/wgt_core/UI_Controller.c ****                 /* display label normally */
 509:Dsp/widget/wgt_core/UI_Controller.c ****                 if (Obj->Release_Label != NULL)
 510:Dsp/widget/wgt_core/UI_Controller.c ****                     UI_DspInterface.draw_str(base_font, Obj->Release_Label, Obj->Gen_Data.x + 9, Ob
 511:Dsp/widget/wgt_core/UI_Controller.c ****             }
 512:Dsp/widget/wgt_core/UI_Controller.c ****             else
 513:Dsp/widget/wgt_core/UI_Controller.c ****             {
 514:Dsp/widget/wgt_core/UI_Controller.c ****                 if (Obj->PushDown_Label != NULL)
 774              		.loc 1 514 17 is_stmt 1 view .LVU219
 775              		.loc 1 514 24 is_stmt 0 view .LVU220
 776 004c D4F81710 		ldr	r1, [r4, #23]	@ unaligned
 777              		.loc 1 514 20 view .LVU221
 778 0050 0029     		cmp	r1, #0
 779 0052 5AD0     		beq	.L81
 515:Dsp/widget/wgt_core/UI_Controller.c ****                     UI_DspInterface.draw_str(base_font, Obj->PushDown_Label, Obj->Gen_Data.x + 5, O
 780              		.loc 1 515 21 is_stmt 1 view .LVU222
 781              		.loc 1 515 36 is_stmt 0 view .LVU223
 782 0054 2E4B     		ldr	r3, .L90
 783 0056 1E68     		ldr	r6, [r3]
 784              		.loc 1 515 91 view .LVU224
 785 0058 A288     		ldrh	r2, [r4, #4]	@ unaligned
 786              		.loc 1 515 94 view .LVU225
 787 005a 0532     		adds	r2, r2, #5
 788              		.loc 1 515 21 view .LVU226
 789 005c 0125     		movs	r5, #1
 790 005e 0095     		str	r5, [sp]
 791 0060 B4F90630 		ldrsh	r3, [r4, #6]	@ unaligned
 792 0064 12B2     		sxth	r2, r2
 793 0066 2B48     		ldr	r0, .L90+4
 794 0068 0078     		ldrb	r0, [r0]	@ zero_extendqisi2
 795 006a B047     		blx	r6
 796              	.LVL71:
 516:Dsp/widget/wgt_core/UI_Controller.c ****             }
 517:Dsp/widget/wgt_core/UI_Controller.c ****         }
 518:Dsp/widget/wgt_core/UI_Controller.c ****     }
 519:Dsp/widget/wgt_core/UI_Controller.c ****     else
 520:Dsp/widget/wgt_core/UI_Controller.c ****         return false;
 521:Dsp/widget/wgt_core/UI_Controller.c **** 
 522:Dsp/widget/wgt_core/UI_Controller.c ****     return true;
 797              		.loc 1 522 12 view .LVU227
 798 006c 2846     		mov	r0, r5
 799 006e 42E0     		b	.L69
 800              	.LVL72:
 801              	.L86:
 474:Dsp/widget/wgt_core/UI_Controller.c ****         {
 802              		.loc 1 474 9 is_stmt 1 view .LVU228
 474:Dsp/widget/wgt_core/UI_Controller.c ****         {
 803              		.loc 1 474 16 is_stmt 0 view .LVU229
 804 0070 437B     		ldrb	r3, [r0, #13]	@ zero_extendqisi2
 474:Dsp/widget/wgt_core/UI_Controller.c ****         {
 805              		.loc 1 474 12 view .LVU230
ARM GAS  /var/folders/lx/hc4sn_b53233_zkc9xbbl97r0000gp/T//ccGA9DTo.s 			page 25


 806 0072 012B     		cmp	r3, #1
 807 0074 07D0     		beq	.L89
 479:Dsp/widget/wgt_core/UI_Controller.c ****         {
 808              		.loc 1 479 14 is_stmt 1 view .LVU231
 479:Dsp/widget/wgt_core/UI_Controller.c ****         {
 809              		.loc 1 479 17 is_stmt 0 view .LVU232
 810 0076 002B     		cmp	r3, #0
 811 0078 3AD1     		bne	.L75
 481:Dsp/widget/wgt_core/UI_Controller.c ****                 Obj->release_callback();
 812              		.loc 1 481 13 is_stmt 1 view .LVU233
 481:Dsp/widget/wgt_core/UI_Controller.c ****                 Obj->release_callback();
 813              		.loc 1 481 20 is_stmt 0 view .LVU234
 814 007a D0F81330 		ldr	r3, [r0, #19]	@ unaligned
 481:Dsp/widget/wgt_core/UI_Controller.c ****                 Obj->release_callback();
 815              		.loc 1 481 16 view .LVU235
 816 007e 002B     		cmp	r3, #0
 817 0080 C6D0     		beq	.L70
 482:Dsp/widget/wgt_core/UI_Controller.c ****         }
 818              		.loc 1 482 17 is_stmt 1 view .LVU236
 819 0082 9847     		blx	r3
 820              	.LVL73:
 482:Dsp/widget/wgt_core/UI_Controller.c ****         }
 821              		.loc 1 482 17 is_stmt 0 view .LVU237
 822 0084 C4E7     		b	.L70
 823              	.LVL74:
 824              	.L89:
 476:Dsp/widget/wgt_core/UI_Controller.c ****                 Obj->push_callback();
 825              		.loc 1 476 13 is_stmt 1 view .LVU238
 476:Dsp/widget/wgt_core/UI_Controller.c ****                 Obj->push_callback();
 826              		.loc 1 476 20 is_stmt 0 view .LVU239
 827 0086 D0F80F30 		ldr	r3, [r0, #15]	@ unaligned
 476:Dsp/widget/wgt_core/UI_Controller.c ****                 Obj->push_callback();
 828              		.loc 1 476 16 view .LVU240
 829 008a 002B     		cmp	r3, #0
 830 008c C0D0     		beq	.L70
 477:Dsp/widget/wgt_core/UI_Controller.c ****         }
 831              		.loc 1 477 17 is_stmt 1 view .LVU241
 832 008e 9847     		blx	r3
 833              	.LVL75:
 477:Dsp/widget/wgt_core/UI_Controller.c ****         }
 834              		.loc 1 477 17 is_stmt 0 view .LVU242
 835 0090 BEE7     		b	.L70
 836              	.L87:
 495:Dsp/widget/wgt_core/UI_Controller.c **** 
 837              		.loc 1 495 13 is_stmt 1 view .LVU243
 838 0092 0193     		str	r3, [sp, #4]
 839 0094 0323     		movs	r3, #3
 840 0096 0093     		str	r3, [sp]
 841 0098 94F82030 		ldrb	r3, [r4, #32]	@ zero_extendqisi2
 842 009c E27F     		ldrb	r2, [r4, #31]	@ zero_extendqisi2
 843 009e B4F90610 		ldrsh	r1, [r4, #6]	@ unaligned
 844 00a2 B4F90400 		ldrsh	r0, [r4, #4]	@ unaligned
 845 00a6 A847     		blx	r5
 846              	.LVL76:
 498:Dsp/widget/wgt_core/UI_Controller.c ****                 UI_DspInterface.draw_str(base_font, Obj->PushDown_Label, Obj->Gen_Data.x + 5, Obj->
 847              		.loc 1 498 13 view .LVU244
 498:Dsp/widget/wgt_core/UI_Controller.c ****                 UI_DspInterface.draw_str(base_font, Obj->PushDown_Label, Obj->Gen_Data.x + 5, Obj->
ARM GAS  /var/folders/lx/hc4sn_b53233_zkc9xbbl97r0000gp/T//ccGA9DTo.s 			page 26


 848              		.loc 1 498 20 is_stmt 0 view .LVU245
 849 00a8 D4F81710 		ldr	r1, [r4, #23]	@ unaligned
 498:Dsp/widget/wgt_core/UI_Controller.c ****                 UI_DspInterface.draw_str(base_font, Obj->PushDown_Label, Obj->Gen_Data.x + 5, Obj->
 850              		.loc 1 498 16 view .LVU246
 851 00ac 49B3     		cbz	r1, .L79
 499:Dsp/widget/wgt_core/UI_Controller.c ****         }
 852              		.loc 1 499 17 is_stmt 1 view .LVU247
 499:Dsp/widget/wgt_core/UI_Controller.c ****         }
 853              		.loc 1 499 32 is_stmt 0 view .LVU248
 854 00ae 184B     		ldr	r3, .L90
 855 00b0 1E68     		ldr	r6, [r3]
 499:Dsp/widget/wgt_core/UI_Controller.c ****         }
 856              		.loc 1 499 87 view .LVU249
 857 00b2 A288     		ldrh	r2, [r4, #4]	@ unaligned
 499:Dsp/widget/wgt_core/UI_Controller.c ****         }
 858              		.loc 1 499 90 view .LVU250
 859 00b4 0532     		adds	r2, r2, #5
 499:Dsp/widget/wgt_core/UI_Controller.c ****         }
 860              		.loc 1 499 17 view .LVU251
 861 00b6 0125     		movs	r5, #1
 862 00b8 0095     		str	r5, [sp]
 863 00ba B4F90630 		ldrsh	r3, [r4, #6]	@ unaligned
 864 00be 12B2     		sxth	r2, r2
 865 00c0 1448     		ldr	r0, .L90+4
 866 00c2 0078     		ldrb	r0, [r0]	@ zero_extendqisi2
 867 00c4 B047     		blx	r6
 868              	.LVL77:
 869              		.loc 1 522 12 view .LVU252
 870 00c6 2846     		mov	r0, r5
 871 00c8 15E0     		b	.L69
 872              	.L88:
 509:Dsp/widget/wgt_core/UI_Controller.c ****                     UI_DspInterface.draw_str(base_font, Obj->Release_Label, Obj->Gen_Data.x + 9, Ob
 873              		.loc 1 509 17 is_stmt 1 view .LVU253
 509:Dsp/widget/wgt_core/UI_Controller.c ****                     UI_DspInterface.draw_str(base_font, Obj->Release_Label, Obj->Gen_Data.x + 9, Ob
 874              		.loc 1 509 24 is_stmt 0 view .LVU254
 875 00ca D4F81B10 		ldr	r1, [r4, #27]	@ unaligned
 509:Dsp/widget/wgt_core/UI_Controller.c ****                     UI_DspInterface.draw_str(base_font, Obj->Release_Label, Obj->Gen_Data.x + 9, Ob
 876              		.loc 1 509 20 view .LVU255
 877 00ce D1B1     		cbz	r1, .L80
 510:Dsp/widget/wgt_core/UI_Controller.c ****             }
 878              		.loc 1 510 21 is_stmt 1 view .LVU256
 510:Dsp/widget/wgt_core/UI_Controller.c ****             }
 879              		.loc 1 510 36 is_stmt 0 view .LVU257
 880 00d0 0F4B     		ldr	r3, .L90
 881 00d2 1E68     		ldr	r6, [r3]
 510:Dsp/widget/wgt_core/UI_Controller.c ****             }
 882              		.loc 1 510 90 view .LVU258
 883 00d4 A288     		ldrh	r2, [r4, #4]	@ unaligned
 510:Dsp/widget/wgt_core/UI_Controller.c ****             }
 884              		.loc 1 510 93 view .LVU259
 885 00d6 0932     		adds	r2, r2, #9
 510:Dsp/widget/wgt_core/UI_Controller.c ****             }
 886              		.loc 1 510 21 view .LVU260
 887 00d8 0125     		movs	r5, #1
 888 00da 0095     		str	r5, [sp]
 889 00dc B4F90630 		ldrsh	r3, [r4, #6]	@ unaligned
 890 00e0 12B2     		sxth	r2, r2
ARM GAS  /var/folders/lx/hc4sn_b53233_zkc9xbbl97r0000gp/T//ccGA9DTo.s 			page 27


 891 00e2 0C48     		ldr	r0, .L90+4
 892 00e4 0078     		ldrb	r0, [r0]	@ zero_extendqisi2
 893 00e6 B047     		blx	r6
 894              	.LVL78:
 895              		.loc 1 522 12 view .LVU261
 896 00e8 2846     		mov	r0, r5
 897 00ea 04E0     		b	.L69
 898              	.LVL79:
 899              	.L74:
 900              	.LCFI12:
 901              		.cfi_def_cfa_offset 0
 902              		.cfi_restore 4
 903              		.cfi_restore 5
 904              		.cfi_restore 6
 905              		.cfi_restore 14
 470:Dsp/widget/wgt_core/UI_Controller.c **** 
 906              		.loc 1 470 16 view .LVU262
 907 00ec 0020     		movs	r0, #0
 908              	.LVL80:
 523:Dsp/widget/wgt_core/UI_Controller.c **** }
 909              		.loc 1 523 1 view .LVU263
 910 00ee 7047     		bx	lr
 911              	.LVL81:
 912              	.L75:
 913              	.LCFI13:
 914              		.cfi_def_cfa_offset 32
 915              		.cfi_offset 4, -16
 916              		.cfi_offset 5, -12
 917              		.cfi_offset 6, -8
 918              		.cfi_offset 14, -4
 485:Dsp/widget/wgt_core/UI_Controller.c ****     }
 919              		.loc 1 485 20 view .LVU264
 920 00f0 0020     		movs	r0, #0
 921              	.LVL82:
 485:Dsp/widget/wgt_core/UI_Controller.c ****     }
 922              		.loc 1 485 20 view .LVU265
 923 00f2 00E0     		b	.L69
 924              	.L76:
 520:Dsp/widget/wgt_core/UI_Controller.c **** 
 925              		.loc 1 520 16 view .LVU266
 926 00f4 0020     		movs	r0, #0
 927              	.L69:
 928              		.loc 1 523 1 view .LVU267
 929 00f6 04B0     		add	sp, sp, #16
 930              	.LCFI14:
 931              		.cfi_remember_state
 932              		.cfi_def_cfa_offset 16
 933              		@ sp needed
 934 00f8 70BD     		pop	{r4, r5, r6, pc}
 935              	.LVL83:
 936              	.L77:
 937              	.LCFI15:
 938              		.cfi_restore_state
 520:Dsp/widget/wgt_core/UI_Controller.c **** 
 939              		.loc 1 520 16 view .LVU268
 940 00fa 0020     		movs	r0, #0
 941 00fc FBE7     		b	.L69
ARM GAS  /var/folders/lx/hc4sn_b53233_zkc9xbbl97r0000gp/T//ccGA9DTo.s 			page 28


 942              	.L78:
 943 00fe 0020     		movs	r0, #0
 944 0100 F9E7     		b	.L69
 945              	.L79:
 522:Dsp/widget/wgt_core/UI_Controller.c **** }
 946              		.loc 1 522 12 view .LVU269
 947 0102 0120     		movs	r0, #1
 948 0104 F7E7     		b	.L69
 949              	.L80:
 522:Dsp/widget/wgt_core/UI_Controller.c **** }
 950              		.loc 1 522 12 view .LVU270
 951 0106 0120     		movs	r0, #1
 952 0108 F5E7     		b	.L69
 953              	.L81:
 522:Dsp/widget/wgt_core/UI_Controller.c **** }
 954              		.loc 1 522 12 view .LVU271
 955 010a 0120     		movs	r0, #1
 956 010c F3E7     		b	.L69
 957              	.L91:
 958 010e 00BF     		.align	2
 959              	.L90:
 960 0110 00000000 		.word	.LANCHOR0
 961 0114 00000000 		.word	.LANCHOR2
 962              		.cfi_endproc
 963              	.LFE17:
 965              		.section	.text.UI_CheckBox_Init,"ax",%progbits
 966              		.align	1
 967              		.syntax unified
 968              		.thumb
 969              		.thumb_func
 970              		.fpu fpv4-sp-d16
 972              	UI_CheckBox_Init:
 973              	.LVL84:
 974              	.LFB18:
 524:Dsp/widget/wgt_core/UI_Controller.c **** 
 525:Dsp/widget/wgt_core/UI_Controller.c **** static bool UI_CheckBox_Init(UI_CheckBoxObj_TypeDef *Obj, char *label, int16_t x, int16_t y, bool s
 526:Dsp/widget/wgt_core/UI_Controller.c **** {
 975              		.loc 1 526 1 is_stmt 1 view -0
 976              		.cfi_startproc
 977              		@ args = 4, pretend = 0, frame = 0
 978              		@ frame_needed = 0, uses_anonymous_args = 0
 527:Dsp/widget/wgt_core/UI_Controller.c ****     if (Obj == NULL)
 979              		.loc 1 527 5 view .LVU273
 980              		.loc 1 527 8 is_stmt 0 view .LVU274
 981 0000 68B1     		cbz	r0, .L94
 526:Dsp/widget/wgt_core/UI_Controller.c ****     if (Obj == NULL)
 982              		.loc 1 526 1 view .LVU275
 983 0002 10B5     		push	{r4, lr}
 984              	.LCFI16:
 985              		.cfi_def_cfa_offset 8
 986              		.cfi_offset 4, -8
 987              		.cfi_offset 14, -4
 988 0004 0446     		mov	r4, r0
 528:Dsp/widget/wgt_core/UI_Controller.c ****         return false;
 529:Dsp/widget/wgt_core/UI_Controller.c **** 
 530:Dsp/widget/wgt_core/UI_Controller.c ****     UI_GenData_Init(&Obj->Gen_Data, label, x, y);
 989              		.loc 1 530 5 is_stmt 1 view .LVU276
ARM GAS  /var/folders/lx/hc4sn_b53233_zkc9xbbl97r0000gp/T//ccGA9DTo.s 			page 29


 990 0006 FFF7FEFF 		bl	UI_GenData_Init
 991              	.LVL85:
 531:Dsp/widget/wgt_core/UI_Controller.c **** 
 532:Dsp/widget/wgt_core/UI_Controller.c ****     Obj->checked = state;
 992              		.loc 1 532 5 view .LVU277
 993              		.loc 1 532 18 is_stmt 0 view .LVU278
 994 000a 9DF80830 		ldrb	r3, [sp, #8]	@ zero_extendqisi2
 995 000e 2374     		strb	r3, [r4, #16]
 533:Dsp/widget/wgt_core/UI_Controller.c ****     Obj->callback = NULL;
 996              		.loc 1 533 5 is_stmt 1 view .LVU279
 997              		.loc 1 533 19 is_stmt 0 view .LVU280
 998 0010 0023     		movs	r3, #0
 999 0012 2373     		strb	r3, [r4, #12]
 1000 0014 6373     		strb	r3, [r4, #13]
 1001 0016 A373     		strb	r3, [r4, #14]
 1002 0018 E373     		strb	r3, [r4, #15]
 534:Dsp/widget/wgt_core/UI_Controller.c **** 
 535:Dsp/widget/wgt_core/UI_Controller.c ****     return true;
 1003              		.loc 1 535 5 is_stmt 1 view .LVU281
 1004              		.loc 1 535 12 is_stmt 0 view .LVU282
 1005 001a 0120     		movs	r0, #1
 536:Dsp/widget/wgt_core/UI_Controller.c **** }
 1006              		.loc 1 536 1 view .LVU283
 1007 001c 10BD     		pop	{r4, pc}
 1008              	.LVL86:
 1009              	.L94:
 1010              	.LCFI17:
 1011              		.cfi_def_cfa_offset 0
 1012              		.cfi_restore 4
 1013              		.cfi_restore 14
 528:Dsp/widget/wgt_core/UI_Controller.c **** 
 1014              		.loc 1 528 16 view .LVU284
 1015 001e 0020     		movs	r0, #0
 1016              	.LVL87:
 1017              		.loc 1 536 1 view .LVU285
 1018 0020 7047     		bx	lr
 1019              		.cfi_endproc
 1020              	.LFE18:
 1022              		.section	.text.UI_CheckBox_SetCallback,"ax",%progbits
 1023              		.align	1
 1024              		.syntax unified
 1025              		.thumb
 1026              		.thumb_func
 1027              		.fpu fpv4-sp-d16
 1029              	UI_CheckBox_SetCallback:
 1030              	.LVL88:
 1031              	.LFB19:
 537:Dsp/widget/wgt_core/UI_Controller.c **** 
 538:Dsp/widget/wgt_core/UI_Controller.c **** static bool UI_CheckBox_SetCallback(UI_CheckBoxObj_TypeDef *Obj, UI_CheckBoxTrigger_Callback callba
 539:Dsp/widget/wgt_core/UI_Controller.c **** {
 1032              		.loc 1 539 1 is_stmt 1 view -0
 1033              		.cfi_startproc
 1034              		@ args = 0, pretend = 0, frame = 0
 1035              		@ frame_needed = 0, uses_anonymous_args = 0
 1036              		@ link register save eliminated.
 540:Dsp/widget/wgt_core/UI_Controller.c ****     if (Obj == NULL)
 1037              		.loc 1 540 5 view .LVU287
ARM GAS  /var/folders/lx/hc4sn_b53233_zkc9xbbl97r0000gp/T//ccGA9DTo.s 			page 30


 1038              		.loc 1 540 8 is_stmt 0 view .LVU288
 1039 0000 10B1     		cbz	r0, .L101
 541:Dsp/widget/wgt_core/UI_Controller.c ****         return false;
 542:Dsp/widget/wgt_core/UI_Controller.c **** 
 543:Dsp/widget/wgt_core/UI_Controller.c ****     Obj->callback = callback;
 1040              		.loc 1 543 5 is_stmt 1 view .LVU289
 1041              		.loc 1 543 19 is_stmt 0 view .LVU290
 1042 0002 C160     		str	r1, [r0, #12]	@ unaligned
 544:Dsp/widget/wgt_core/UI_Controller.c **** 
 545:Dsp/widget/wgt_core/UI_Controller.c ****     return true;
 1043              		.loc 1 545 5 is_stmt 1 view .LVU291
 1044              		.loc 1 545 12 is_stmt 0 view .LVU292
 1045 0004 0120     		movs	r0, #1
 1046              	.LVL89:
 1047              		.loc 1 545 12 view .LVU293
 1048 0006 7047     		bx	lr
 1049              	.LVL90:
 1050              	.L101:
 541:Dsp/widget/wgt_core/UI_Controller.c ****         return false;
 1051              		.loc 1 541 16 view .LVU294
 1052 0008 0020     		movs	r0, #0
 1053              	.LVL91:
 546:Dsp/widget/wgt_core/UI_Controller.c **** }
 1054              		.loc 1 546 1 view .LVU295
 1055 000a 7047     		bx	lr
 1056              		.cfi_endproc
 1057              	.LFE19:
 1059              		.section	.text.UI_CheckBox_Move,"ax",%progbits
 1060              		.align	1
 1061              		.syntax unified
 1062              		.thumb
 1063              		.thumb_func
 1064              		.fpu fpv4-sp-d16
 1066              	UI_CheckBox_Move:
 1067              	.LVL92:
 1068              	.LFB20:
 547:Dsp/widget/wgt_core/UI_Controller.c **** 
 548:Dsp/widget/wgt_core/UI_Controller.c **** static bool UI_CheckBox_Move(UI_CheckBoxObj_TypeDef *Obj, int16_t x, int16_t y)
 549:Dsp/widget/wgt_core/UI_Controller.c **** {
 1069              		.loc 1 549 1 is_stmt 1 view -0
 1070              		.cfi_startproc
 1071              		@ args = 0, pretend = 0, frame = 0
 1072              		@ frame_needed = 0, uses_anonymous_args = 0
 550:Dsp/widget/wgt_core/UI_Controller.c ****     if (Obj == NULL)
 1073              		.loc 1 550 5 view .LVU297
 1074              		.loc 1 550 8 is_stmt 0 view .LVU298
 1075 0000 18B1     		cbz	r0, .L104
 549:Dsp/widget/wgt_core/UI_Controller.c ****     if (Obj == NULL)
 1076              		.loc 1 549 1 view .LVU299
 1077 0002 08B5     		push	{r3, lr}
 1078              	.LCFI18:
 1079              		.cfi_def_cfa_offset 8
 1080              		.cfi_offset 3, -8
 1081              		.cfi_offset 14, -4
 551:Dsp/widget/wgt_core/UI_Controller.c ****         return false;
 552:Dsp/widget/wgt_core/UI_Controller.c **** 
 553:Dsp/widget/wgt_core/UI_Controller.c ****     return UI_Move(&(Obj->Gen_Data), x, y);
ARM GAS  /var/folders/lx/hc4sn_b53233_zkc9xbbl97r0000gp/T//ccGA9DTo.s 			page 31


 1082              		.loc 1 553 5 is_stmt 1 view .LVU300
 1083              		.loc 1 553 12 is_stmt 0 view .LVU301
 1084 0004 FFF7FEFF 		bl	UI_Move
 1085              	.LVL93:
 554:Dsp/widget/wgt_core/UI_Controller.c **** }
 1086              		.loc 1 554 1 view .LVU302
 1087 0008 08BD     		pop	{r3, pc}
 1088              	.LVL94:
 1089              	.L104:
 1090              	.LCFI19:
 1091              		.cfi_def_cfa_offset 0
 1092              		.cfi_restore 3
 1093              		.cfi_restore 14
 551:Dsp/widget/wgt_core/UI_Controller.c ****         return false;
 1094              		.loc 1 551 16 view .LVU303
 1095 000a 0020     		movs	r0, #0
 1096              	.LVL95:
 1097              		.loc 1 554 1 view .LVU304
 1098 000c 7047     		bx	lr
 1099              		.cfi_endproc
 1100              	.LFE20:
 1102              		.section	.text.UI_CheckBox_Trigger,"ax",%progbits
 1103              		.align	1
 1104              		.syntax unified
 1105              		.thumb
 1106              		.thumb_func
 1107              		.fpu fpv4-sp-d16
 1109              	UI_CheckBox_Trigger:
 1110              	.LVL96:
 1111              	.LFB21:
 555:Dsp/widget/wgt_core/UI_Controller.c **** 
 556:Dsp/widget/wgt_core/UI_Controller.c **** static bool UI_CheckBox_Trigger(UI_CheckBoxObj_TypeDef *Obj)
 557:Dsp/widget/wgt_core/UI_Controller.c **** {
 1112              		.loc 1 557 1 is_stmt 1 view -0
 1113              		.cfi_startproc
 1114              		@ args = 0, pretend = 0, frame = 0
 1115              		@ frame_needed = 0, uses_anonymous_args = 0
 558:Dsp/widget/wgt_core/UI_Controller.c ****     if (Obj == NULL)
 1116              		.loc 1 558 5 view .LVU306
 1117              		.loc 1 558 8 is_stmt 0 view .LVU307
 1118 0000 50B1     		cbz	r0, .L111
 557:Dsp/widget/wgt_core/UI_Controller.c ****     if (Obj == NULL)
 1119              		.loc 1 557 1 view .LVU308
 1120 0002 08B5     		push	{r3, lr}
 1121              	.LCFI20:
 1122              		.cfi_def_cfa_offset 8
 1123              		.cfi_offset 3, -8
 1124              		.cfi_offset 14, -4
 1125 0004 0346     		mov	r3, r0
 559:Dsp/widget/wgt_core/UI_Controller.c ****         return false;
 560:Dsp/widget/wgt_core/UI_Controller.c **** 
 561:Dsp/widget/wgt_core/UI_Controller.c ****     Obj->checked = !Obj->checked;
 1126              		.loc 1 561 5 is_stmt 1 view .LVU309
 1127              		.loc 1 561 24 is_stmt 0 view .LVU310
 1128 0006 007C     		ldrb	r0, [r0, #16]	@ zero_extendqisi2
 1129              	.LVL97:
 1130              		.loc 1 561 5 view .LVU311
ARM GAS  /var/folders/lx/hc4sn_b53233_zkc9xbbl97r0000gp/T//ccGA9DTo.s 			page 32


 1131 0008 80F00100 		eor	r0, r0, #1
 1132              		.loc 1 561 18 view .LVU312
 1133 000c 1874     		strb	r0, [r3, #16]
 562:Dsp/widget/wgt_core/UI_Controller.c **** 
 563:Dsp/widget/wgt_core/UI_Controller.c ****     if (Obj->callback)
 1134              		.loc 1 563 5 is_stmt 1 view .LVU313
 1135              		.loc 1 563 12 is_stmt 0 view .LVU314
 1136 000e DB68     		ldr	r3, [r3, #12]	@ unaligned
 1137              	.LVL98:
 1138              		.loc 1 563 8 view .LVU315
 1139 0010 23B1     		cbz	r3, .L112
 564:Dsp/widget/wgt_core/UI_Controller.c ****         Obj->callback(Obj->checked);
 1140              		.loc 1 564 9 is_stmt 1 view .LVU316
 1141 0012 9847     		blx	r3
 1142              	.LVL99:
 565:Dsp/widget/wgt_core/UI_Controller.c **** 
 566:Dsp/widget/wgt_core/UI_Controller.c ****     return true;
 1143              		.loc 1 566 12 is_stmt 0 view .LVU317
 1144 0014 0120     		movs	r0, #1
 1145              	.L110:
 567:Dsp/widget/wgt_core/UI_Controller.c **** }
 1146              		.loc 1 567 1 view .LVU318
 1147 0016 08BD     		pop	{r3, pc}
 1148              	.LVL100:
 1149              	.L111:
 1150              	.LCFI21:
 1151              		.cfi_def_cfa_offset 0
 1152              		.cfi_restore 3
 1153              		.cfi_restore 14
 559:Dsp/widget/wgt_core/UI_Controller.c **** 
 1154              		.loc 1 559 16 view .LVU319
 1155 0018 0020     		movs	r0, #0
 1156              	.LVL101:
 1157              		.loc 1 567 1 view .LVU320
 1158 001a 7047     		bx	lr
 1159              	.L112:
 1160              	.LCFI22:
 1161              		.cfi_def_cfa_offset 8
 1162              		.cfi_offset 3, -8
 1163              		.cfi_offset 14, -4
 566:Dsp/widget/wgt_core/UI_Controller.c **** }
 1164              		.loc 1 566 12 view .LVU321
 1165 001c 0120     		movs	r0, #1
 1166 001e FAE7     		b	.L110
 1167              		.cfi_endproc
 1168              	.LFE21:
 1170              		.section	.text.UI_SlideBar_Init,"ax",%progbits
 1171              		.align	1
 1172              		.syntax unified
 1173              		.thumb
 1174              		.thumb_func
 1175              		.fpu fpv4-sp-d16
 1177              	UI_SlideBar_Init:
 1178              	.LVL102:
 1179              	.LFB23:
 568:Dsp/widget/wgt_core/UI_Controller.c **** 
 569:Dsp/widget/wgt_core/UI_Controller.c **** static bool UI_CheckBox_Ctl(UI_CheckBoxObj_TypeDef *Obj)
ARM GAS  /var/folders/lx/hc4sn_b53233_zkc9xbbl97r0000gp/T//ccGA9DTo.s 			page 33


 570:Dsp/widget/wgt_core/UI_Controller.c **** {
 571:Dsp/widget/wgt_core/UI_Controller.c ****     int16_t frame_x = 0;
 572:Dsp/widget/wgt_core/UI_Controller.c ****     int16_t frame_y = 0;
 573:Dsp/widget/wgt_core/UI_Controller.c ****     int16_t str_x = 0;
 574:Dsp/widget/wgt_core/UI_Controller.c ****     int16_t str_y = 0;
 575:Dsp/widget/wgt_core/UI_Controller.c **** 
 576:Dsp/widget/wgt_core/UI_Controller.c ****     if ((Obj == NULL) ||
 577:Dsp/widget/wgt_core/UI_Controller.c ****         (UI_DspInterface.draw_str == NULL) ||
 578:Dsp/widget/wgt_core/UI_Controller.c ****         (UI_DspInterface.fill_rectangle == NULL) ||
 579:Dsp/widget/wgt_core/UI_Controller.c ****         (UI_DspInterface.draw_rectangle == NULL))
 580:Dsp/widget/wgt_core/UI_Controller.c ****         return false;
 581:Dsp/widget/wgt_core/UI_Controller.c **** 
 582:Dsp/widget/wgt_core/UI_Controller.c ****     frame_x = strlen(Obj->Gen_Data.label) * STR_DIS;
 583:Dsp/widget/wgt_core/UI_Controller.c ****     frame_y = Obj->Gen_Data.y + 3;
 584:Dsp/widget/wgt_core/UI_Controller.c ****     frame_x += DEFAULT_CHECKBOX_OFFSET;
 585:Dsp/widget/wgt_core/UI_Controller.c **** 
 586:Dsp/widget/wgt_core/UI_Controller.c ****     str_x = Obj->Gen_Data.x + 3;
 587:Dsp/widget/wgt_core/UI_Controller.c ****     str_y = Obj->Gen_Data.y;
 588:Dsp/widget/wgt_core/UI_Controller.c **** 
 589:Dsp/widget/wgt_core/UI_Controller.c ****     if (base_font == Font_8)
 590:Dsp/widget/wgt_core/UI_Controller.c ****         str_y += 1;
 591:Dsp/widget/wgt_core/UI_Controller.c **** 
 592:Dsp/widget/wgt_core/UI_Controller.c ****     UI_DspInterface.draw_str(base_font, Obj->Gen_Data.label, str_x, str_y, true);
 593:Dsp/widget/wgt_core/UI_Controller.c ****     UI_DspInterface.draw_rectangle(frame_x, frame_y, DEFAULT_CHECKBOX_FRAME_SIZE, DEFAULT_CHECKBOX_
 594:Dsp/widget/wgt_core/UI_Controller.c **** 
 595:Dsp/widget/wgt_core/UI_Controller.c ****     if (Obj->checked)
 596:Dsp/widget/wgt_core/UI_Controller.c ****         UI_DspInterface.fill_rectangle(frame_x + 2, frame_y + 2, DEFAULT_CHECKBOX_FILLFRAME, DEFAUL
 597:Dsp/widget/wgt_core/UI_Controller.c **** 
 598:Dsp/widget/wgt_core/UI_Controller.c ****     return true;
 599:Dsp/widget/wgt_core/UI_Controller.c **** }
 600:Dsp/widget/wgt_core/UI_Controller.c **** 
 601:Dsp/widget/wgt_core/UI_Controller.c **** static bool UI_SlideBar_Init(UI_SlideBarObj_TypeDef *Obj, UI_SliderBar_Mode_List mode, char *label,
 602:Dsp/widget/wgt_core/UI_Controller.c **** {
 1180              		.loc 1 602 1 is_stmt 1 view -0
 1181              		.cfi_startproc
 1182              		@ args = 20, pretend = 0, frame = 0
 1183              		@ frame_needed = 0, uses_anonymous_args = 0
 1184              		.loc 1 602 1 is_stmt 0 view .LVU323
 1185 0000 2DE9F843 		push	{r3, r4, r5, r6, r7, r8, r9, lr}
 1186              	.LCFI23:
 1187              		.cfi_def_cfa_offset 32
 1188              		.cfi_offset 3, -32
 1189              		.cfi_offset 4, -28
 1190              		.cfi_offset 5, -24
 1191              		.cfi_offset 6, -20
 1192              		.cfi_offset 7, -16
 1193              		.cfi_offset 8, -12
 1194              		.cfi_offset 9, -8
 1195              		.cfi_offset 14, -4
 1196 0004 BDF92440 		ldrsh	r4, [sp, #36]
 1197 0008 BDF92850 		ldrsh	r5, [sp, #40]
 1198 000c BDF92C60 		ldrsh	r6, [sp, #44]
 1199 0010 BDF93080 		ldrsh	r8, [sp, #48]
 603:Dsp/widget/wgt_core/UI_Controller.c ****     if ((Obj == NULL) ||
 1200              		.loc 1 603 5 is_stmt 1 view .LVU324
 1201              		.loc 1 603 8 is_stmt 0 view .LVU325
 1202 0014 0028     		cmp	r0, #0
ARM GAS  /var/folders/lx/hc4sn_b53233_zkc9xbbl97r0000gp/T//ccGA9DTo.s 			page 34


 1203 0016 49D0     		beq	.L119
 1204 0018 9446     		mov	ip, r2
 1205 001a 1A46     		mov	r2, r3
 1206              	.LVL103:
 1207              		.loc 1 603 8 view .LVU326
 1208 001c 0746     		mov	r7, r0
 1209              		.loc 1 603 23 discriminator 1 view .LVU327
 1210 001e AC42     		cmp	r4, r5
 1211 0020 46DD     		ble	.L120
 604:Dsp/widget/wgt_core/UI_Controller.c ****         (limit_max <= limit_min) ||
 1212              		.loc 1 604 34 view .LVU328
 1213 0022 B542     		cmp	r5, r6
 1214 0024 47DC     		bgt	.L121
 605:Dsp/widget/wgt_core/UI_Controller.c ****         (start_val < limit_min) ||
 1215              		.loc 1 605 33 view .LVU329
 1216 0026 B442     		cmp	r4, r6
 1217 0028 47DB     		blt	.L122
 606:Dsp/widget/wgt_core/UI_Controller.c ****         (start_val > limit_max) ||
 1218              		.loc 1 606 33 view .LVU330
 1219 002a 0129     		cmp	r1, #1
 1220 002c 01D9     		bls	.L125
 607:Dsp/widget/wgt_core/UI_Controller.c ****         (mode > SliderBar_Vertical_Mode))
 608:Dsp/widget/wgt_core/UI_Controller.c ****         return false;
 1221              		.loc 1 608 16 view .LVU331
 1222 002e 0020     		movs	r0, #0
 1223              	.LVL104:
 1224              		.loc 1 608 16 view .LVU332
 1225 0030 3FE0     		b	.L118
 1226              	.LVL105:
 1227              	.L125:
 609:Dsp/widget/wgt_core/UI_Controller.c **** 
 610:Dsp/widget/wgt_core/UI_Controller.c ****     Obj->mode = mode;
 1228              		.loc 1 610 5 is_stmt 1 view .LVU333
 1229              		.loc 1 610 15 is_stmt 0 view .LVU334
 1230 0032 0173     		strb	r1, [r0, #12]
 611:Dsp/widget/wgt_core/UI_Controller.c ****     Obj->is_selected = false;
 1231              		.loc 1 611 5 is_stmt 1 view .LVU335
 1232              		.loc 1 611 22 is_stmt 0 view .LVU336
 1233 0034 4FF00009 		mov	r9, #0
 1234 0038 80F82390 		strb	r9, [r0, #35]
 612:Dsp/widget/wgt_core/UI_Controller.c **** 
 613:Dsp/widget/wgt_core/UI_Controller.c ****     UI_GenData_Init(&(Obj->Gen_Data), label, x, y);
 1235              		.loc 1 613 5 is_stmt 1 view .LVU337
 1236 003c BDF92030 		ldrsh	r3, [sp, #32]
 1237              	.LVL106:
 1238              		.loc 1 613 5 is_stmt 0 view .LVU338
 1239 0040 6146     		mov	r1, ip
 1240              	.LVL107:
 1241              		.loc 1 613 5 view .LVU339
 1242 0042 FFF7FEFF 		bl	UI_GenData_Init
 1243              	.LVL108:
 614:Dsp/widget/wgt_core/UI_Controller.c **** 
 615:Dsp/widget/wgt_core/UI_Controller.c ****     Obj->limit_max = limit_max;
 1244              		.loc 1 615 5 is_stmt 1 view .LVU340
 1245              		.loc 1 615 20 is_stmt 0 view .LVU341
 1246 0046 07EE904A 		vmov	s15, r4	@ int
 1247 004a F8EEE77A 		vcvt.f32.s32	s15, s15
ARM GAS  /var/folders/lx/hc4sn_b53233_zkc9xbbl97r0000gp/T//ccGA9DTo.s 			page 35


 1248 004e 17EE903A 		vmov	r3, s15
 1249 0052 C7F81530 		str	r3, [r7, #21]	@ unaligned
 616:Dsp/widget/wgt_core/UI_Controller.c ****     Obj->limit_min = limit_min;
 1250              		.loc 1 616 5 is_stmt 1 view .LVU342
 1251              		.loc 1 616 20 is_stmt 0 view .LVU343
 1252 0056 07EE905A 		vmov	s15, r5	@ int
 1253 005a F8EEE77A 		vcvt.f32.s32	s15, s15
 1254 005e 17EE903A 		vmov	r3, s15
 1255 0062 C7F81130 		str	r3, [r7, #17]	@ unaligned
 617:Dsp/widget/wgt_core/UI_Controller.c **** 
 618:Dsp/widget/wgt_core/UI_Controller.c ****     Obj->step_len = step_len;
 1256              		.loc 1 618 5 is_stmt 1 view .LVU344
 1257              		.loc 1 618 19 is_stmt 0 view .LVU345
 1258 0066 A7F81D80 		strh	r8, [r7, #29]	@ unaligned
 619:Dsp/widget/wgt_core/UI_Controller.c ****     Obj->scale = (limit_max - limit_min) / (float)step_len;
 1259              		.loc 1 619 5 is_stmt 1 view .LVU346
 1260              		.loc 1 619 29 is_stmt 0 view .LVU347
 1261 006a 641B     		subs	r4, r4, r5
 1262              		.loc 1 619 44 view .LVU348
 1263 006c 07EE908A 		vmov	s15, r8	@ int
 1264 0070 B8EEE77A 		vcvt.f32.s32	s14, s15
 1265              		.loc 1 619 42 view .LVU349
 1266 0074 07EE904A 		vmov	s15, r4	@ int
 1267 0078 F8EEE77A 		vcvt.f32.s32	s15, s15
 1268              		.loc 1 619 16 view .LVU350
 1269 007c C7EE877A 		vdiv.f32	s15, s15, s14
 1270 0080 17EE903A 		vmov	r3, s15
 1271 0084 C7F81930 		str	r3, [r7, #25]	@ unaligned
 620:Dsp/widget/wgt_core/UI_Controller.c ****     Obj->cur_val = start_val;
 1272              		.loc 1 620 5 is_stmt 1 view .LVU351
 1273              		.loc 1 620 18 is_stmt 0 view .LVU352
 1274 0088 07EE906A 		vmov	s15, r6	@ int
 1275 008c F8EEE77A 		vcvt.f32.s32	s15, s15
 1276 0090 17EE906A 		vmov	r6, s15
 1277 0094 C7F81F60 		str	r6, [r7, #31]	@ unaligned
 621:Dsp/widget/wgt_core/UI_Controller.c **** 
 622:Dsp/widget/wgt_core/UI_Controller.c ****     Obj->BarCoord_X = 0;
 1278              		.loc 1 622 5 is_stmt 1 view .LVU353
 1279              		.loc 1 622 21 is_stmt 0 view .LVU354
 1280 0098 87F82490 		strb	r9, [r7, #36]
 1281 009c 87F82590 		strb	r9, [r7, #37]
 623:Dsp/widget/wgt_core/UI_Controller.c ****     Obj->BarCoord_Y = 0;
 1282              		.loc 1 623 5 is_stmt 1 view .LVU355
 1283              		.loc 1 623 21 is_stmt 0 view .LVU356
 1284 00a0 87F82690 		strb	r9, [r7, #38]
 1285 00a4 87F82790 		strb	r9, [r7, #39]
 624:Dsp/widget/wgt_core/UI_Controller.c **** 
 625:Dsp/widget/wgt_core/UI_Controller.c ****     return true;
 1286              		.loc 1 625 5 is_stmt 1 view .LVU357
 1287              		.loc 1 625 12 is_stmt 0 view .LVU358
 1288 00a8 0120     		movs	r0, #1
 1289 00aa 02E0     		b	.L118
 1290              	.LVL109:
 1291              	.L119:
 608:Dsp/widget/wgt_core/UI_Controller.c **** 
 1292              		.loc 1 608 16 view .LVU359
 1293 00ac 0020     		movs	r0, #0
ARM GAS  /var/folders/lx/hc4sn_b53233_zkc9xbbl97r0000gp/T//ccGA9DTo.s 			page 36


 1294              	.LVL110:
 608:Dsp/widget/wgt_core/UI_Controller.c **** 
 1295              		.loc 1 608 16 view .LVU360
 1296 00ae 00E0     		b	.L118
 1297              	.LVL111:
 1298              	.L120:
 608:Dsp/widget/wgt_core/UI_Controller.c **** 
 1299              		.loc 1 608 16 view .LVU361
 1300 00b0 0020     		movs	r0, #0
 1301              	.LVL112:
 1302              	.L118:
 626:Dsp/widget/wgt_core/UI_Controller.c **** }
 1303              		.loc 1 626 1 view .LVU362
 1304 00b2 BDE8F883 		pop	{r3, r4, r5, r6, r7, r8, r9, pc}
 1305              	.LVL113:
 1306              	.L121:
 608:Dsp/widget/wgt_core/UI_Controller.c **** 
 1307              		.loc 1 608 16 view .LVU363
 1308 00b6 0020     		movs	r0, #0
 1309              	.LVL114:
 608:Dsp/widget/wgt_core/UI_Controller.c **** 
 1310              		.loc 1 608 16 view .LVU364
 1311 00b8 FBE7     		b	.L118
 1312              	.LVL115:
 1313              	.L122:
 608:Dsp/widget/wgt_core/UI_Controller.c **** 
 1314              		.loc 1 608 16 view .LVU365
 1315 00ba 0020     		movs	r0, #0
 1316              	.LVL116:
 608:Dsp/widget/wgt_core/UI_Controller.c **** 
 1317              		.loc 1 608 16 view .LVU366
 1318 00bc F9E7     		b	.L118
 1319              		.cfi_endproc
 1320              	.LFE23:
 1322              		.section	.text.UI_SlideBar_Move,"ax",%progbits
 1323              		.align	1
 1324              		.syntax unified
 1325              		.thumb
 1326              		.thumb_func
 1327              		.fpu fpv4-sp-d16
 1329              	UI_SlideBar_Move:
 1330              	.LVL117:
 1331              	.LFB24:
 627:Dsp/widget/wgt_core/UI_Controller.c **** 
 628:Dsp/widget/wgt_core/UI_Controller.c **** static bool UI_SlideBar_Move(UI_SlideBarObj_TypeDef *Obj, int16_t x, int16_t y)
 629:Dsp/widget/wgt_core/UI_Controller.c **** {
 1332              		.loc 1 629 1 is_stmt 1 view -0
 1333              		.cfi_startproc
 1334              		@ args = 0, pretend = 0, frame = 0
 1335              		@ frame_needed = 0, uses_anonymous_args = 0
 630:Dsp/widget/wgt_core/UI_Controller.c ****     if (Obj == NULL)
 1336              		.loc 1 630 5 view .LVU368
 1337              		.loc 1 630 8 is_stmt 0 view .LVU369
 1338 0000 18B1     		cbz	r0, .L128
 629:Dsp/widget/wgt_core/UI_Controller.c ****     if (Obj == NULL)
 1339              		.loc 1 629 1 view .LVU370
 1340 0002 08B5     		push	{r3, lr}
ARM GAS  /var/folders/lx/hc4sn_b53233_zkc9xbbl97r0000gp/T//ccGA9DTo.s 			page 37


 1341              	.LCFI24:
 1342              		.cfi_def_cfa_offset 8
 1343              		.cfi_offset 3, -8
 1344              		.cfi_offset 14, -4
 631:Dsp/widget/wgt_core/UI_Controller.c ****         return false;
 632:Dsp/widget/wgt_core/UI_Controller.c **** 
 633:Dsp/widget/wgt_core/UI_Controller.c ****     return UI_Move(&(Obj->Gen_Data), x, y);
 1345              		.loc 1 633 5 is_stmt 1 view .LVU371
 1346              		.loc 1 633 12 is_stmt 0 view .LVU372
 1347 0004 FFF7FEFF 		bl	UI_Move
 1348              	.LVL118:
 634:Dsp/widget/wgt_core/UI_Controller.c **** }
 1349              		.loc 1 634 1 view .LVU373
 1350 0008 08BD     		pop	{r3, pc}
 1351              	.LVL119:
 1352              	.L128:
 1353              	.LCFI25:
 1354              		.cfi_def_cfa_offset 0
 1355              		.cfi_restore 3
 1356              		.cfi_restore 14
 631:Dsp/widget/wgt_core/UI_Controller.c ****         return false;
 1357              		.loc 1 631 16 view .LVU374
 1358 000a 0020     		movs	r0, #0
 1359              	.LVL120:
 1360              		.loc 1 634 1 view .LVU375
 1361 000c 7047     		bx	lr
 1362              		.cfi_endproc
 1363              	.LFE24:
 1365              		.section	.text.UI_SlideBar_SetCallBack,"ax",%progbits
 1366              		.align	1
 1367              		.syntax unified
 1368              		.thumb
 1369              		.thumb_func
 1370              		.fpu fpv4-sp-d16
 1372              	UI_SlideBar_SetCallBack:
 1373              	.LVL121:
 1374              	.LFB25:
 635:Dsp/widget/wgt_core/UI_Controller.c **** 
 636:Dsp/widget/wgt_core/UI_Controller.c **** static bool UI_SlideBar_SetCallBack(UI_SlideBarObj_TypeDef *Obj, UI_SliderBarTrigger_Callback callb
 637:Dsp/widget/wgt_core/UI_Controller.c **** {
 1375              		.loc 1 637 1 is_stmt 1 view -0
 1376              		.cfi_startproc
 1377              		@ args = 0, pretend = 0, frame = 0
 1378              		@ frame_needed = 0, uses_anonymous_args = 0
 1379              		@ link register save eliminated.
 638:Dsp/widget/wgt_core/UI_Controller.c ****     if (Obj == NULL)
 1380              		.loc 1 638 5 view .LVU377
 1381              		.loc 1 638 8 is_stmt 0 view .LVU378
 1382 0000 18B1     		cbz	r0, .L135
 639:Dsp/widget/wgt_core/UI_Controller.c ****         return false;
 640:Dsp/widget/wgt_core/UI_Controller.c **** 
 641:Dsp/widget/wgt_core/UI_Controller.c ****     Obj->callback = callback;
 1383              		.loc 1 641 5 is_stmt 1 view .LVU379
 1384              		.loc 1 641 19 is_stmt 0 view .LVU380
 1385 0002 C0F80D10 		str	r1, [r0, #13]	@ unaligned
 642:Dsp/widget/wgt_core/UI_Controller.c **** 
 643:Dsp/widget/wgt_core/UI_Controller.c ****     return true;
ARM GAS  /var/folders/lx/hc4sn_b53233_zkc9xbbl97r0000gp/T//ccGA9DTo.s 			page 38


 1386              		.loc 1 643 5 is_stmt 1 view .LVU381
 1387              		.loc 1 643 12 is_stmt 0 view .LVU382
 1388 0006 0120     		movs	r0, #1
 1389              	.LVL122:
 1390              		.loc 1 643 12 view .LVU383
 1391 0008 7047     		bx	lr
 1392              	.LVL123:
 1393              	.L135:
 639:Dsp/widget/wgt_core/UI_Controller.c ****         return false;
 1394              		.loc 1 639 16 view .LVU384
 1395 000a 0020     		movs	r0, #0
 1396              	.LVL124:
 644:Dsp/widget/wgt_core/UI_Controller.c **** }
 1397              		.loc 1 644 1 view .LVU385
 1398 000c 7047     		bx	lr
 1399              		.cfi_endproc
 1400              	.LFE25:
 1402              		.section	.text.UI_SlideBar_Input,"ax",%progbits
 1403              		.align	1
 1404              		.syntax unified
 1405              		.thumb
 1406              		.thumb_func
 1407              		.fpu fpv4-sp-d16
 1409              	UI_SlideBar_Input:
 1410              	.LVL125:
 1411              	.LFB26:
 645:Dsp/widget/wgt_core/UI_Controller.c **** 
 646:Dsp/widget/wgt_core/UI_Controller.c **** static bool UI_SlideBar_Input(UI_SlideBarObj_TypeDef *Obj, int16_t *step)
 647:Dsp/widget/wgt_core/UI_Controller.c **** {
 1412              		.loc 1 647 1 is_stmt 1 view -0
 1413              		.cfi_startproc
 1414              		@ args = 0, pretend = 0, frame = 0
 1415              		@ frame_needed = 0, uses_anonymous_args = 0
 1416              		@ link register save eliminated.
 648:Dsp/widget/wgt_core/UI_Controller.c ****     float val_tmp = 0;
 1417              		.loc 1 648 5 view .LVU387
 649:Dsp/widget/wgt_core/UI_Controller.c **** 
 650:Dsp/widget/wgt_core/UI_Controller.c ****     if ((Obj == NULL) || (step == NULL))
 1418              		.loc 1 650 5 view .LVU388
 1419              		.loc 1 650 8 is_stmt 0 view .LVU389
 1420 0000 0346     		mov	r3, r0
 1421 0002 90B3     		cbz	r0, .L143
 1422              		.loc 1 650 23 discriminator 1 view .LVU390
 1423 0004 99B3     		cbz	r1, .L144
 651:Dsp/widget/wgt_core/UI_Controller.c ****         return false;
 652:Dsp/widget/wgt_core/UI_Controller.c **** 
 653:Dsp/widget/wgt_core/UI_Controller.c ****     val_tmp = Obj->cur_val + ((*step) * Obj->scale);
 1424              		.loc 1 653 5 is_stmt 1 view .LVU391
 1425              		.loc 1 653 18 is_stmt 0 view .LVU392
 1426 0006 D0F81F20 		ldr	r2, [r0, #31]	@ unaligned
 1427              		.loc 1 653 32 view .LVU393
 1428 000a B1F90000 		ldrsh	r0, [r1]
 1429              	.LVL126:
 1430              		.loc 1 653 32 view .LVU394
 1431 000e 07EE900A 		vmov	s15, r0	@ int
 1432              		.loc 1 653 44 view .LVU395
 1433 0012 D3F81900 		ldr	r0, [r3, #25]	@ unaligned
ARM GAS  /var/folders/lx/hc4sn_b53233_zkc9xbbl97r0000gp/T//ccGA9DTo.s 			page 39


 1434              		.loc 1 653 39 view .LVU396
 1435 0016 B8EEE77A 		vcvt.f32.s32	s14, s15
 1436 001a 07EE900A 		vmov	s15, r0
 1437 001e 67EE277A 		vmul.f32	s15, s14, s15
 1438              		.loc 1 653 13 view .LVU397
 1439 0022 07EE102A 		vmov	s14, r2
 1440 0026 77EE277A 		vadd.f32	s15, s14, s15
 1441              	.LVL127:
 654:Dsp/widget/wgt_core/UI_Controller.c **** 
 655:Dsp/widget/wgt_core/UI_Controller.c ****     if (val_tmp >= Obj->limit_max)
 1442              		.loc 1 655 5 is_stmt 1 view .LVU398
 1443              		.loc 1 655 23 is_stmt 0 view .LVU399
 1444 002a D3F81520 		ldr	r2, [r3, #21]	@ unaligned
 1445              		.loc 1 655 8 view .LVU400
 1446 002e 07EE102A 		vmov	s14, r2
 1447 0032 B4EEE77A 		vcmpe.f32	s14, s15
 1448 0036 F1EE10FA 		vmrs	APSR_nzcv, FPSCR
 1449 003a 05D8     		bhi	.L147
 656:Dsp/widget/wgt_core/UI_Controller.c ****     {
 657:Dsp/widget/wgt_core/UI_Controller.c ****         Obj->cur_val = Obj->limit_max;
 1450              		.loc 1 657 9 is_stmt 1 view .LVU401
 1451              		.loc 1 657 22 is_stmt 0 view .LVU402
 1452 003c C3F81F20 		str	r2, [r3, #31]	@ unaligned
 1453              	.L140:
 658:Dsp/widget/wgt_core/UI_Controller.c ****     }
 659:Dsp/widget/wgt_core/UI_Controller.c ****     else if (val_tmp <= Obj->limit_min)
 660:Dsp/widget/wgt_core/UI_Controller.c ****     {
 661:Dsp/widget/wgt_core/UI_Controller.c ****         Obj->cur_val = Obj->limit_min;
 662:Dsp/widget/wgt_core/UI_Controller.c ****     }
 663:Dsp/widget/wgt_core/UI_Controller.c ****     else
 664:Dsp/widget/wgt_core/UI_Controller.c ****         Obj->cur_val = val_tmp;
 665:Dsp/widget/wgt_core/UI_Controller.c **** 
 666:Dsp/widget/wgt_core/UI_Controller.c ****     (*step) = 0;
 1454              		.loc 1 666 5 is_stmt 1 view .LVU403
 1455              		.loc 1 666 13 is_stmt 0 view .LVU404
 1456 0040 0023     		movs	r3, #0
 1457              	.LVL128:
 1458              		.loc 1 666 13 view .LVU405
 1459 0042 0B80     		strh	r3, [r1]	@ movhi
 667:Dsp/widget/wgt_core/UI_Controller.c **** 
 668:Dsp/widget/wgt_core/UI_Controller.c ****     return true;
 1460              		.loc 1 668 5 is_stmt 1 view .LVU406
 1461              		.loc 1 668 12 is_stmt 0 view .LVU407
 1462 0044 0120     		movs	r0, #1
 1463 0046 7047     		bx	lr
 1464              	.LVL129:
 1465              	.L147:
 659:Dsp/widget/wgt_core/UI_Controller.c ****     {
 1466              		.loc 1 659 10 is_stmt 1 view .LVU408
 659:Dsp/widget/wgt_core/UI_Controller.c ****     {
 1467              		.loc 1 659 28 is_stmt 0 view .LVU409
 1468 0048 D3F81120 		ldr	r2, [r3, #17]	@ unaligned
 659:Dsp/widget/wgt_core/UI_Controller.c ****     {
 1469              		.loc 1 659 13 view .LVU410
 1470 004c 07EE102A 		vmov	s14, r2
 1471 0050 B4EEE77A 		vcmpe.f32	s14, s15
 1472 0054 F1EE10FA 		vmrs	APSR_nzcv, FPSCR
ARM GAS  /var/folders/lx/hc4sn_b53233_zkc9xbbl97r0000gp/T//ccGA9DTo.s 			page 40


 1473 0058 02DB     		blt	.L148
 661:Dsp/widget/wgt_core/UI_Controller.c ****     }
 1474              		.loc 1 661 9 is_stmt 1 view .LVU411
 661:Dsp/widget/wgt_core/UI_Controller.c ****     }
 1475              		.loc 1 661 22 is_stmt 0 view .LVU412
 1476 005a C3F81F20 		str	r2, [r3, #31]	@ unaligned
 1477 005e EFE7     		b	.L140
 1478              	.L148:
 664:Dsp/widget/wgt_core/UI_Controller.c **** 
 1479              		.loc 1 664 9 is_stmt 1 view .LVU413
 664:Dsp/widget/wgt_core/UI_Controller.c **** 
 1480              		.loc 1 664 22 is_stmt 0 view .LVU414
 1481 0060 17EE902A 		vmov	r2, s15
 1482 0064 C3F81F20 		str	r2, [r3, #31]	@ unaligned
 1483 0068 EAE7     		b	.L140
 1484              	.LVL130:
 1485              	.L143:
 651:Dsp/widget/wgt_core/UI_Controller.c **** 
 1486              		.loc 1 651 16 view .LVU415
 1487 006a 0020     		movs	r0, #0
 1488              	.LVL131:
 651:Dsp/widget/wgt_core/UI_Controller.c **** 
 1489              		.loc 1 651 16 view .LVU416
 1490 006c 7047     		bx	lr
 1491              	.LVL132:
 1492              	.L144:
 651:Dsp/widget/wgt_core/UI_Controller.c **** 
 1493              		.loc 1 651 16 view .LVU417
 1494 006e 0020     		movs	r0, #0
 1495              	.LVL133:
 669:Dsp/widget/wgt_core/UI_Controller.c **** }
 1496              		.loc 1 669 1 view .LVU418
 1497 0070 7047     		bx	lr
 1498              		.cfi_endproc
 1499              	.LFE26:
 1501              		.section	.text.UI_SlideBar_Trigger,"ax",%progbits
 1502              		.align	1
 1503              		.syntax unified
 1504              		.thumb
 1505              		.thumb_func
 1506              		.fpu fpv4-sp-d16
 1508              	UI_SlideBar_Trigger:
 1509              	.LVL134:
 1510              	.LFB27:
 670:Dsp/widget/wgt_core/UI_Controller.c **** 
 671:Dsp/widget/wgt_core/UI_Controller.c **** static bool UI_SlideBar_Trigger(UI_SlideBarObj_TypeDef *Obj)
 672:Dsp/widget/wgt_core/UI_Controller.c **** {
 1511              		.loc 1 672 1 is_stmt 1 view -0
 1512              		.cfi_startproc
 1513              		@ args = 0, pretend = 0, frame = 0
 1514              		@ frame_needed = 0, uses_anonymous_args = 0
 673:Dsp/widget/wgt_core/UI_Controller.c ****     if (Obj == NULL)
 1515              		.loc 1 673 5 view .LVU420
 1516              		.loc 1 673 8 is_stmt 0 view .LVU421
 1517 0000 78B1     		cbz	r0, .L151
 672:Dsp/widget/wgt_core/UI_Controller.c ****     if (Obj == NULL)
 1518              		.loc 1 672 1 view .LVU422
ARM GAS  /var/folders/lx/hc4sn_b53233_zkc9xbbl97r0000gp/T//ccGA9DTo.s 			page 41


 1519 0002 08B5     		push	{r3, lr}
 1520              	.LCFI26:
 1521              		.cfi_def_cfa_offset 8
 1522              		.cfi_offset 3, -8
 1523              		.cfi_offset 14, -4
 674:Dsp/widget/wgt_core/UI_Controller.c ****         return false;
 675:Dsp/widget/wgt_core/UI_Controller.c **** 
 676:Dsp/widget/wgt_core/UI_Controller.c ****     if (Obj->callback != NULL)
 1524              		.loc 1 676 5 is_stmt 1 view .LVU423
 1525              		.loc 1 676 12 is_stmt 0 view .LVU424
 1526 0004 D0F80D20 		ldr	r2, [r0, #13]	@ unaligned
 1527              		.loc 1 676 8 view .LVU425
 1528 0008 6AB1     		cbz	r2, .L152
 677:Dsp/widget/wgt_core/UI_Controller.c ****         Obj->callback(Obj->cur_val);
 1529              		.loc 1 677 9 is_stmt 1 view .LVU426
 1530              		.loc 1 677 26 is_stmt 0 view .LVU427
 1531 000a D0F81F30 		ldr	r3, [r0, #31]	@ unaligned
 1532 000e 07EE903A 		vmov	s15, r3	@ int
 1533              		.loc 1 677 9 view .LVU428
 1534 0012 FDEEE77A 		vcvt.s32.f32	s15, s15
 1535 0016 17EE903A 		vmov	r3, s15	@ int
 1536 001a 18B2     		sxth	r0, r3
 1537              	.LVL135:
 1538              		.loc 1 677 9 view .LVU429
 1539 001c 9047     		blx	r2
 1540              	.LVL136:
 678:Dsp/widget/wgt_core/UI_Controller.c **** 
 679:Dsp/widget/wgt_core/UI_Controller.c ****     return true;
 1541              		.loc 1 679 12 view .LVU430
 1542 001e 0120     		movs	r0, #1
 1543              	.L150:
 680:Dsp/widget/wgt_core/UI_Controller.c **** }
 1544              		.loc 1 680 1 view .LVU431
 1545 0020 08BD     		pop	{r3, pc}
 1546              	.LVL137:
 1547              	.L151:
 1548              	.LCFI27:
 1549              		.cfi_def_cfa_offset 0
 1550              		.cfi_restore 3
 1551              		.cfi_restore 14
 674:Dsp/widget/wgt_core/UI_Controller.c **** 
 1552              		.loc 1 674 16 view .LVU432
 1553 0022 0020     		movs	r0, #0
 1554              	.LVL138:
 1555              		.loc 1 680 1 view .LVU433
 1556 0024 7047     		bx	lr
 1557              	.LVL139:
 1558              	.L152:
 1559              	.LCFI28:
 1560              		.cfi_def_cfa_offset 8
 1561              		.cfi_offset 3, -8
 1562              		.cfi_offset 14, -4
 679:Dsp/widget/wgt_core/UI_Controller.c **** }
 1563              		.loc 1 679 12 view .LVU434
 1564 0026 0120     		movs	r0, #1
 1565              	.LVL140:
 679:Dsp/widget/wgt_core/UI_Controller.c **** }
ARM GAS  /var/folders/lx/hc4sn_b53233_zkc9xbbl97r0000gp/T//ccGA9DTo.s 			page 42


 1566              		.loc 1 679 12 view .LVU435
 1567 0028 FAE7     		b	.L150
 1568              		.cfi_endproc
 1569              	.LFE27:
 1571              		.section	.text.UI_SlideBar_SetSelect,"ax",%progbits
 1572              		.align	1
 1573              		.syntax unified
 1574              		.thumb
 1575              		.thumb_func
 1576              		.fpu fpv4-sp-d16
 1578              	UI_SlideBar_SetSelect:
 1579              	.LVL141:
 1580              	.LFB29:
 681:Dsp/widget/wgt_core/UI_Controller.c **** 
 682:Dsp/widget/wgt_core/UI_Controller.c **** static bool UI_SlideBar_CTL(UI_SlideBarObj_TypeDef *Obj)
 683:Dsp/widget/wgt_core/UI_Controller.c **** {
 684:Dsp/widget/wgt_core/UI_Controller.c ****     int16_t Block_CoordX = 0;
 685:Dsp/widget/wgt_core/UI_Controller.c ****     int16_t Block_CoordY = 0;
 686:Dsp/widget/wgt_core/UI_Controller.c ****     int16_t input_trip = 0;
 687:Dsp/widget/wgt_core/UI_Controller.c ****     int16_t str_y = Obj->Gen_Data.y;
 688:Dsp/widget/wgt_core/UI_Controller.c **** 
 689:Dsp/widget/wgt_core/UI_Controller.c ****     if ((Obj == NULL) ||
 690:Dsp/widget/wgt_core/UI_Controller.c ****         (UI_DspInterface.draw_str == NULL) ||
 691:Dsp/widget/wgt_core/UI_Controller.c ****         (UI_DspInterface.fill_rectangle == NULL))
 692:Dsp/widget/wgt_core/UI_Controller.c ****         return false;
 693:Dsp/widget/wgt_core/UI_Controller.c **** 
 694:Dsp/widget/wgt_core/UI_Controller.c ****     if (base_font == Font_8)
 695:Dsp/widget/wgt_core/UI_Controller.c ****         str_y += 1;
 696:Dsp/widget/wgt_core/UI_Controller.c **** 
 697:Dsp/widget/wgt_core/UI_Controller.c ****     input_trip = Obj->limit_max - Obj->limit_min;
 698:Dsp/widget/wgt_core/UI_Controller.c **** 
 699:Dsp/widget/wgt_core/UI_Controller.c ****     UI_DspInterface.draw_str(base_font, Obj->Gen_Data.label, Obj->Gen_Data.x + 3, str_y, true);
 700:Dsp/widget/wgt_core/UI_Controller.c **** 
 701:Dsp/widget/wgt_core/UI_Controller.c ****     if (Obj->mode == SliderBar_Horizon_Mode)
 702:Dsp/widget/wgt_core/UI_Controller.c ****     {
 703:Dsp/widget/wgt_core/UI_Controller.c ****         Obj->BarCoord_X = Obj->Gen_Data.x + strlen(Obj->Gen_Data.label) * STR_DIS + DEFAULT_SLIDERB
 704:Dsp/widget/wgt_core/UI_Controller.c ****         Obj->BarCoord_Y = Obj->Gen_Data.y + 5;
 705:Dsp/widget/wgt_core/UI_Controller.c **** 
 706:Dsp/widget/wgt_core/UI_Controller.c ****         Block_CoordX = Obj->BarCoord_X;
 707:Dsp/widget/wgt_core/UI_Controller.c ****         Block_CoordX += (Obj->cur_val - Obj->limit_min) / ((float)(input_trip)) * (DEFAULT_SLIDERBA
 708:Dsp/widget/wgt_core/UI_Controller.c **** 
 709:Dsp/widget/wgt_core/UI_Controller.c ****         UI_DspInterface.fill_rectangle(Obj->BarCoord_X, Obj->BarCoord_Y, DEFAULT_SLIDERBAR_LEN, DEF
 710:Dsp/widget/wgt_core/UI_Controller.c **** 
 711:Dsp/widget/wgt_core/UI_Controller.c ****         Block_CoordY = Obj->Gen_Data.y + 3;
 712:Dsp/widget/wgt_core/UI_Controller.c ****         UI_DspInterface.fill_rectangle(Block_CoordX, Block_CoordY, DEFAULT_SLIDERBAR_BLOCK_WIDTH, D
 713:Dsp/widget/wgt_core/UI_Controller.c ****         UI_DspInterface.fill_rectangle(Block_CoordX, Block_CoordY + (DEFAULT_SLIDERBAR_BLOCK_HIGH /
 714:Dsp/widget/wgt_core/UI_Controller.c ****     }
 715:Dsp/widget/wgt_core/UI_Controller.c ****     else if (Obj->mode == SliderBar_Vertical_Mode)
 716:Dsp/widget/wgt_core/UI_Controller.c ****     {
 717:Dsp/widget/wgt_core/UI_Controller.c ****     }
 718:Dsp/widget/wgt_core/UI_Controller.c ****     else
 719:Dsp/widget/wgt_core/UI_Controller.c ****         return false;
 720:Dsp/widget/wgt_core/UI_Controller.c **** 
 721:Dsp/widget/wgt_core/UI_Controller.c ****     return true;
 722:Dsp/widget/wgt_core/UI_Controller.c **** }
 723:Dsp/widget/wgt_core/UI_Controller.c **** 
 724:Dsp/widget/wgt_core/UI_Controller.c **** static void UI_SlideBar_SetSelect(UI_SlideBarObj_TypeDef *Obj, bool select)
ARM GAS  /var/folders/lx/hc4sn_b53233_zkc9xbbl97r0000gp/T//ccGA9DTo.s 			page 43


 725:Dsp/widget/wgt_core/UI_Controller.c **** {
 1581              		.loc 1 725 1 is_stmt 1 view -0
 1582              		.cfi_startproc
 1583              		@ args = 0, pretend = 0, frame = 0
 1584              		@ frame_needed = 0, uses_anonymous_args = 0
 1585              		@ link register save eliminated.
 726:Dsp/widget/wgt_core/UI_Controller.c ****     if (Obj == NULL)
 1586              		.loc 1 726 5 view .LVU437
 1587              		.loc 1 726 8 is_stmt 0 view .LVU438
 1588 0000 10B1     		cbz	r0, .L157
 727:Dsp/widget/wgt_core/UI_Controller.c ****         return;
 728:Dsp/widget/wgt_core/UI_Controller.c **** 
 729:Dsp/widget/wgt_core/UI_Controller.c ****     Obj->is_selected = true;
 1589              		.loc 1 729 5 is_stmt 1 view .LVU439
 1590              		.loc 1 729 22 is_stmt 0 view .LVU440
 1591 0002 0122     		movs	r2, #1
 1592 0004 80F82320 		strb	r2, [r0, #35]
 1593              	.L157:
 730:Dsp/widget/wgt_core/UI_Controller.c **** }
 1594              		.loc 1 730 1 view .LVU441
 1595 0008 7047     		bx	lr
 1596              		.cfi_endproc
 1597              	.LFE29:
 1599              		.section	.text.UI_SlideBar_IsSelected,"ax",%progbits
 1600              		.align	1
 1601              		.syntax unified
 1602              		.thumb
 1603              		.thumb_func
 1604              		.fpu fpv4-sp-d16
 1606              	UI_SlideBar_IsSelected:
 1607              	.LVL142:
 1608              	.LFB30:
 731:Dsp/widget/wgt_core/UI_Controller.c **** 
 732:Dsp/widget/wgt_core/UI_Controller.c **** static bool UI_SlideBar_IsSelected(UI_SlideBarObj_TypeDef *Obj)
 733:Dsp/widget/wgt_core/UI_Controller.c **** {
 1609              		.loc 1 733 1 is_stmt 1 view -0
 1610              		.cfi_startproc
 1611              		@ args = 0, pretend = 0, frame = 0
 1612              		@ frame_needed = 0, uses_anonymous_args = 0
 1613              		@ link register save eliminated.
 734:Dsp/widget/wgt_core/UI_Controller.c ****     if (Obj == NULL)
 1614              		.loc 1 734 5 view .LVU443
 1615              		.loc 1 734 8 is_stmt 0 view .LVU444
 1616 0000 10B1     		cbz	r0, .L161
 735:Dsp/widget/wgt_core/UI_Controller.c ****         return false;
 736:Dsp/widget/wgt_core/UI_Controller.c **** 
 737:Dsp/widget/wgt_core/UI_Controller.c ****     return Obj->is_selected;
 1617              		.loc 1 737 5 is_stmt 1 view .LVU445
 1618              		.loc 1 737 15 is_stmt 0 view .LVU446
 1619 0002 90F82300 		ldrb	r0, [r0, #35]	@ zero_extendqisi2
 1620              	.LVL143:
 1621              		.loc 1 737 15 view .LVU447
 1622 0006 7047     		bx	lr
 1623              	.LVL144:
 1624              	.L161:
 735:Dsp/widget/wgt_core/UI_Controller.c ****         return false;
 1625              		.loc 1 735 16 view .LVU448
ARM GAS  /var/folders/lx/hc4sn_b53233_zkc9xbbl97r0000gp/T//ccGA9DTo.s 			page 44


 1626 0008 0020     		movs	r0, #0
 1627              	.LVL145:
 738:Dsp/widget/wgt_core/UI_Controller.c **** }
 1628              		.loc 1 738 1 view .LVU449
 1629 000a 7047     		bx	lr
 1630              		.cfi_endproc
 1631              	.LFE30:
 1633              		.section	.text.UI_ProcessBar_Init,"ax",%progbits
 1634              		.align	1
 1635              		.syntax unified
 1636              		.thumb
 1637              		.thumb_func
 1638              		.fpu fpv4-sp-d16
 1640              	UI_ProcessBar_Init:
 1641              	.LVL146:
 1642              	.LFB31:
 739:Dsp/widget/wgt_core/UI_Controller.c **** 
 740:Dsp/widget/wgt_core/UI_Controller.c **** static bool UI_ProcessBar_Init(UI_ProcessBarObj_TypeDef *Obj, UI_ProcessBar_DspType_List dsp_type, 
 741:Dsp/widget/wgt_core/UI_Controller.c **** {
 1643              		.loc 1 741 1 is_stmt 1 view -0
 1644              		.cfi_startproc
 1645              		@ args = 16, pretend = 0, frame = 0
 1646              		@ frame_needed = 0, uses_anonymous_args = 0
 1647              		.loc 1 741 1 is_stmt 0 view .LVU451
 1648 0000 F8B5     		push	{r3, r4, r5, r6, r7, lr}
 1649              	.LCFI29:
 1650              		.cfi_def_cfa_offset 24
 1651              		.cfi_offset 3, -24
 1652              		.cfi_offset 4, -20
 1653              		.cfi_offset 5, -16
 1654              		.cfi_offset 6, -12
 1655              		.cfi_offset 7, -8
 1656              		.cfi_offset 14, -4
 1657 0002 089F     		ldr	r7, [sp, #32]
 1658 0004 099D     		ldr	r5, [sp, #36]
 742:Dsp/widget/wgt_core/UI_Controller.c ****     if ((Obj == NULL) || (min > max))
 1659              		.loc 1 742 5 is_stmt 1 view .LVU452
 1660              		.loc 1 742 8 is_stmt 0 view .LVU453
 1661 0006 B0B3     		cbz	r0, .L167
 1662 0008 0E46     		mov	r6, r1
 1663 000a 1146     		mov	r1, r2
 1664              	.LVL147:
 1665              		.loc 1 742 8 view .LVU454
 1666 000c 1A46     		mov	r2, r3
 1667              	.LVL148:
 1668              		.loc 1 742 8 view .LVU455
 1669 000e 0446     		mov	r4, r0
 1670              		.loc 1 742 23 discriminator 1 view .LVU456
 1671 0010 AF42     		cmp	r7, r5
 1672 0012 01DD     		ble	.L170
 743:Dsp/widget/wgt_core/UI_Controller.c ****         return false;
 1673              		.loc 1 743 16 view .LVU457
 1674 0014 0020     		movs	r0, #0
 1675              	.LVL149:
 1676              	.L163:
 744:Dsp/widget/wgt_core/UI_Controller.c **** 
 745:Dsp/widget/wgt_core/UI_Controller.c ****     UI_GenData_Init(&Obj->Gen_Data, label, x, y);
ARM GAS  /var/folders/lx/hc4sn_b53233_zkc9xbbl97r0000gp/T//ccGA9DTo.s 			page 45


 746:Dsp/widget/wgt_core/UI_Controller.c **** 
 747:Dsp/widget/wgt_core/UI_Controller.c ****     Obj->width = width;
 748:Dsp/widget/wgt_core/UI_Controller.c **** 
 749:Dsp/widget/wgt_core/UI_Controller.c ****     switch (base_font)
 750:Dsp/widget/wgt_core/UI_Controller.c ****     {
 751:Dsp/widget/wgt_core/UI_Controller.c ****     case Font_8:
 752:Dsp/widget/wgt_core/UI_Controller.c ****         Obj->height = base_font + 6;
 753:Dsp/widget/wgt_core/UI_Controller.c ****         break;
 754:Dsp/widget/wgt_core/UI_Controller.c **** 
 755:Dsp/widget/wgt_core/UI_Controller.c ****     case Font_12:
 756:Dsp/widget/wgt_core/UI_Controller.c ****     case Font_16:
 757:Dsp/widget/wgt_core/UI_Controller.c ****         /* need modify */
 758:Dsp/widget/wgt_core/UI_Controller.c ****         Obj->height = base_font + 6;
 759:Dsp/widget/wgt_core/UI_Controller.c ****         break;
 760:Dsp/widget/wgt_core/UI_Controller.c **** 
 761:Dsp/widget/wgt_core/UI_Controller.c ****     default:
 762:Dsp/widget/wgt_core/UI_Controller.c ****         Obj->height = base_font + 6;
 763:Dsp/widget/wgt_core/UI_Controller.c ****         break;
 764:Dsp/widget/wgt_core/UI_Controller.c ****     }
 765:Dsp/widget/wgt_core/UI_Controller.c **** 
 766:Dsp/widget/wgt_core/UI_Controller.c ****     Obj->height = base_font + 6;
 767:Dsp/widget/wgt_core/UI_Controller.c **** 
 768:Dsp/widget/wgt_core/UI_Controller.c ****     Obj->cur_val = 0;
 769:Dsp/widget/wgt_core/UI_Controller.c ****     Obj->max = max;
 770:Dsp/widget/wgt_core/UI_Controller.c ****     Obj->min = min;
 771:Dsp/widget/wgt_core/UI_Controller.c ****     Obj->range = max - min;
 772:Dsp/widget/wgt_core/UI_Controller.c **** 
 773:Dsp/widget/wgt_core/UI_Controller.c ****     Obj->percent = 0.0;
 774:Dsp/widget/wgt_core/UI_Controller.c **** 
 775:Dsp/widget/wgt_core/UI_Controller.c ****     Obj->Dsp_Type = dsp_type;
 776:Dsp/widget/wgt_core/UI_Controller.c ****     Obj->Mv_Dir = UI_ProcBar_GrothDir_Default;
 777:Dsp/widget/wgt_core/UI_Controller.c **** 
 778:Dsp/widget/wgt_core/UI_Controller.c ****     return true;
 779:Dsp/widget/wgt_core/UI_Controller.c **** }
 1677              		.loc 1 779 1 view .LVU458
 1678 0016 F8BD     		pop	{r3, r4, r5, r6, r7, pc}
 1679              	.LVL150:
 1680              	.L170:
 745:Dsp/widget/wgt_core/UI_Controller.c **** 
 1681              		.loc 1 745 5 is_stmt 1 view .LVU459
 1682 0018 BDF91830 		ldrsh	r3, [sp, #24]
 1683              	.LVL151:
 745:Dsp/widget/wgt_core/UI_Controller.c **** 
 1684              		.loc 1 745 5 is_stmt 0 view .LVU460
 1685 001c FFF7FEFF 		bl	UI_GenData_Init
 1686              	.LVL152:
 747:Dsp/widget/wgt_core/UI_Controller.c **** 
 1687              		.loc 1 747 5 is_stmt 1 view .LVU461
 747:Dsp/widget/wgt_core/UI_Controller.c **** 
 1688              		.loc 1 747 16 is_stmt 0 view .LVU462
 1689 0020 9DF81C30 		ldrb	r3, [sp, #28]	@ zero_extendqisi2
 1690 0024 84F82030 		strb	r3, [r4, #32]
 749:Dsp/widget/wgt_core/UI_Controller.c ****     {
 1691              		.loc 1 749 5 is_stmt 1 view .LVU463
 1692 0028 144B     		ldr	r3, .L172
 1693 002a 1B78     		ldrb	r3, [r3]	@ zero_extendqisi2
 1694 002c 0C2B     		cmp	r3, #12
ARM GAS  /var/folders/lx/hc4sn_b53233_zkc9xbbl97r0000gp/T//ccGA9DTo.s 			page 46


 1695 002e 1ED0     		beq	.L164
 1696 0030 102B     		cmp	r3, #16
 1697 0032 1CD0     		beq	.L164
 1698 0034 082B     		cmp	r3, #8
 1699 0036 03D0     		beq	.L171
 762:Dsp/widget/wgt_core/UI_Controller.c ****         break;
 1700              		.loc 1 762 9 view .LVU464
 762:Dsp/widget/wgt_core/UI_Controller.c ****         break;
 1701              		.loc 1 762 33 is_stmt 0 view .LVU465
 1702 0038 9A1D     		adds	r2, r3, #6
 762:Dsp/widget/wgt_core/UI_Controller.c ****         break;
 1703              		.loc 1 762 21 view .LVU466
 1704 003a 84F82120 		strb	r2, [r4, #33]
 763:Dsp/widget/wgt_core/UI_Controller.c ****     }
 1705              		.loc 1 763 9 is_stmt 1 view .LVU467
 1706 003e 02E0     		b	.L166
 1707              	.L171:
 752:Dsp/widget/wgt_core/UI_Controller.c ****         break;
 1708              		.loc 1 752 9 view .LVU468
 752:Dsp/widget/wgt_core/UI_Controller.c ****         break;
 1709              		.loc 1 752 33 is_stmt 0 view .LVU469
 1710 0040 9A1D     		adds	r2, r3, #6
 752:Dsp/widget/wgt_core/UI_Controller.c ****         break;
 1711              		.loc 1 752 21 view .LVU470
 1712 0042 84F82120 		strb	r2, [r4, #33]
 753:Dsp/widget/wgt_core/UI_Controller.c **** 
 1713              		.loc 1 753 9 is_stmt 1 view .LVU471
 1714              	.L166:
 766:Dsp/widget/wgt_core/UI_Controller.c **** 
 1715              		.loc 1 766 5 view .LVU472
 766:Dsp/widget/wgt_core/UI_Controller.c **** 
 1716              		.loc 1 766 29 is_stmt 0 view .LVU473
 1717 0046 0633     		adds	r3, r3, #6
 766:Dsp/widget/wgt_core/UI_Controller.c **** 
 1718              		.loc 1 766 17 view .LVU474
 1719 0048 84F82130 		strb	r3, [r4, #33]
 768:Dsp/widget/wgt_core/UI_Controller.c ****     Obj->max = max;
 1720              		.loc 1 768 5 is_stmt 1 view .LVU475
 768:Dsp/widget/wgt_core/UI_Controller.c ****     Obj->max = max;
 1721              		.loc 1 768 18 is_stmt 0 view .LVU476
 1722 004c 0023     		movs	r3, #0
 1723 004e 2377     		strb	r3, [r4, #28]
 1724 0050 6377     		strb	r3, [r4, #29]
 1725 0052 A377     		strb	r3, [r4, #30]
 1726 0054 E377     		strb	r3, [r4, #31]
 769:Dsp/widget/wgt_core/UI_Controller.c ****     Obj->min = min;
 1727              		.loc 1 769 5 is_stmt 1 view .LVU477
 769:Dsp/widget/wgt_core/UI_Controller.c ****     Obj->min = min;
 1728              		.loc 1 769 14 is_stmt 0 view .LVU478
 1729 0056 6561     		str	r5, [r4, #20]	@ unaligned
 770:Dsp/widget/wgt_core/UI_Controller.c ****     Obj->range = max - min;
 1730              		.loc 1 770 5 is_stmt 1 view .LVU479
 770:Dsp/widget/wgt_core/UI_Controller.c ****     Obj->range = max - min;
 1731              		.loc 1 770 14 is_stmt 0 view .LVU480
 1732 0058 2761     		str	r7, [r4, #16]	@ unaligned
 771:Dsp/widget/wgt_core/UI_Controller.c **** 
 1733              		.loc 1 771 5 is_stmt 1 view .LVU481
ARM GAS  /var/folders/lx/hc4sn_b53233_zkc9xbbl97r0000gp/T//ccGA9DTo.s 			page 47


 771:Dsp/widget/wgt_core/UI_Controller.c **** 
 1734              		.loc 1 771 22 is_stmt 0 view .LVU482
 1735 005a ED1B     		subs	r5, r5, r7
 771:Dsp/widget/wgt_core/UI_Controller.c **** 
 1736              		.loc 1 771 16 view .LVU483
 1737 005c A561     		str	r5, [r4, #24]	@ unaligned
 773:Dsp/widget/wgt_core/UI_Controller.c **** 
 1738              		.loc 1 773 5 is_stmt 1 view .LVU484
 773:Dsp/widget/wgt_core/UI_Controller.c **** 
 1739              		.loc 1 773 18 is_stmt 0 view .LVU485
 1740 005e 0022     		movs	r2, #0
 1741 0060 E260     		str	r2, [r4, #12]	@ unaligned
 775:Dsp/widget/wgt_core/UI_Controller.c ****     Obj->Mv_Dir = UI_ProcBar_GrothDir_Default;
 1742              		.loc 1 775 5 is_stmt 1 view .LVU486
 775:Dsp/widget/wgt_core/UI_Controller.c ****     Obj->Mv_Dir = UI_ProcBar_GrothDir_Default;
 1743              		.loc 1 775 19 is_stmt 0 view .LVU487
 1744 0062 84F82360 		strb	r6, [r4, #35]
 776:Dsp/widget/wgt_core/UI_Controller.c **** 
 1745              		.loc 1 776 5 is_stmt 1 view .LVU488
 776:Dsp/widget/wgt_core/UI_Controller.c **** 
 1746              		.loc 1 776 17 is_stmt 0 view .LVU489
 1747 0066 84F82430 		strb	r3, [r4, #36]
 778:Dsp/widget/wgt_core/UI_Controller.c **** }
 1748              		.loc 1 778 5 is_stmt 1 view .LVU490
 778:Dsp/widget/wgt_core/UI_Controller.c **** }
 1749              		.loc 1 778 12 is_stmt 0 view .LVU491
 1750 006a 0120     		movs	r0, #1
 1751 006c D3E7     		b	.L163
 1752              	.L164:
 758:Dsp/widget/wgt_core/UI_Controller.c ****         break;
 1753              		.loc 1 758 9 is_stmt 1 view .LVU492
 758:Dsp/widget/wgt_core/UI_Controller.c ****         break;
 1754              		.loc 1 758 33 is_stmt 0 view .LVU493
 1755 006e 9A1D     		adds	r2, r3, #6
 758:Dsp/widget/wgt_core/UI_Controller.c ****         break;
 1756              		.loc 1 758 21 view .LVU494
 1757 0070 84F82120 		strb	r2, [r4, #33]
 759:Dsp/widget/wgt_core/UI_Controller.c **** 
 1758              		.loc 1 759 9 is_stmt 1 view .LVU495
 1759 0074 E7E7     		b	.L166
 1760              	.LVL153:
 1761              	.L167:
 743:Dsp/widget/wgt_core/UI_Controller.c **** 
 1762              		.loc 1 743 16 is_stmt 0 view .LVU496
 1763 0076 0020     		movs	r0, #0
 1764              	.LVL154:
 743:Dsp/widget/wgt_core/UI_Controller.c **** 
 1765              		.loc 1 743 16 view .LVU497
 1766 0078 CDE7     		b	.L163
 1767              	.L173:
 1768 007a 00BF     		.align	2
 1769              	.L172:
 1770 007c 00000000 		.word	.LANCHOR2
 1771              		.cfi_endproc
 1772              	.LFE31:
 1774              		.section	.text.UI_ProcessBar_SetDspDir,"ax",%progbits
 1775              		.align	1
ARM GAS  /var/folders/lx/hc4sn_b53233_zkc9xbbl97r0000gp/T//ccGA9DTo.s 			page 48


 1776              		.syntax unified
 1777              		.thumb
 1778              		.thumb_func
 1779              		.fpu fpv4-sp-d16
 1781              	UI_ProcessBar_SetDspDir:
 1782              	.LVL155:
 1783              	.LFB32:
 780:Dsp/widget/wgt_core/UI_Controller.c **** 
 781:Dsp/widget/wgt_core/UI_Controller.c **** static bool UI_ProcessBar_SetDspDir(UI_ProcessBarObj_TypeDef *Obj, UI_ProcessBar_MoveDir_TypeDef Di
 782:Dsp/widget/wgt_core/UI_Controller.c **** {
 1784              		.loc 1 782 1 is_stmt 1 view -0
 1785              		.cfi_startproc
 1786              		@ args = 0, pretend = 0, frame = 0
 1787              		@ frame_needed = 0, uses_anonymous_args = 0
 1788              		@ link register save eliminated.
 783:Dsp/widget/wgt_core/UI_Controller.c ****     if (Obj == NULL)
 1789              		.loc 1 783 5 view .LVU499
 1790              		.loc 1 783 8 is_stmt 0 view .LVU500
 1791 0000 50B1     		cbz	r0, .L177
 784:Dsp/widget/wgt_core/UI_Controller.c ****         return false;
 785:Dsp/widget/wgt_core/UI_Controller.c **** 
 786:Dsp/widget/wgt_core/UI_Controller.c ****     if ((Dir > UI_ProcBar_GrothFrom_Mid) || (Dir < 0))
 1792              		.loc 1 786 5 is_stmt 1 view .LVU501
 1793              		.loc 1 786 8 is_stmt 0 view .LVU502
 1794 0002 0129     		cmp	r1, #1
 1795 0004 04D9     		bls	.L176
 787:Dsp/widget/wgt_core/UI_Controller.c ****         Obj->Mv_Dir = UI_ProcBar_GrothDir_Default;
 1796              		.loc 1 787 9 is_stmt 1 view .LVU503
 1797              		.loc 1 787 21 is_stmt 0 view .LVU504
 1798 0006 0022     		movs	r2, #0
 1799 0008 80F82420 		strb	r2, [r0, #36]
 788:Dsp/widget/wgt_core/UI_Controller.c ****     else
 789:Dsp/widget/wgt_core/UI_Controller.c ****         Obj->Mv_Dir = Dir;
 790:Dsp/widget/wgt_core/UI_Controller.c **** 
 791:Dsp/widget/wgt_core/UI_Controller.c ****     return true;
 1800              		.loc 1 791 12 view .LVU505
 1801 000c 0120     		movs	r0, #1
 1802              	.LVL156:
 1803              		.loc 1 791 12 view .LVU506
 1804 000e 7047     		bx	lr
 1805              	.LVL157:
 1806              	.L176:
 789:Dsp/widget/wgt_core/UI_Controller.c **** 
 1807              		.loc 1 789 9 is_stmt 1 view .LVU507
 789:Dsp/widget/wgt_core/UI_Controller.c **** 
 1808              		.loc 1 789 21 is_stmt 0 view .LVU508
 1809 0010 80F82410 		strb	r1, [r0, #36]
 1810              		.loc 1 791 12 view .LVU509
 1811 0014 0120     		movs	r0, #1
 1812              	.LVL158:
 1813              		.loc 1 791 12 view .LVU510
 1814 0016 7047     		bx	lr
 1815              	.LVL159:
 1816              	.L177:
 784:Dsp/widget/wgt_core/UI_Controller.c **** 
 1817              		.loc 1 784 16 view .LVU511
 1818 0018 0020     		movs	r0, #0
ARM GAS  /var/folders/lx/hc4sn_b53233_zkc9xbbl97r0000gp/T//ccGA9DTo.s 			page 49


 1819              	.LVL160:
 792:Dsp/widget/wgt_core/UI_Controller.c **** }
 1820              		.loc 1 792 1 view .LVU512
 1821 001a 7047     		bx	lr
 1822              		.cfi_endproc
 1823              	.LFE32:
 1825              		.section	.text.UI_ProcessBar_SetCurVal,"ax",%progbits
 1826              		.align	1
 1827              		.syntax unified
 1828              		.thumb
 1829              		.thumb_func
 1830              		.fpu fpv4-sp-d16
 1832              	UI_ProcessBar_SetCurVal:
 1833              	.LVL161:
 1834              	.LFB33:
 793:Dsp/widget/wgt_core/UI_Controller.c **** 
 794:Dsp/widget/wgt_core/UI_Controller.c **** static bool UI_ProcessBar_SetCurVal(UI_ProcessBarObj_TypeDef *Obj, int32_t val)
 795:Dsp/widget/wgt_core/UI_Controller.c **** {
 1835              		.loc 1 795 1 is_stmt 1 view -0
 1836              		.cfi_startproc
 1837              		@ args = 0, pretend = 0, frame = 0
 1838              		@ frame_needed = 0, uses_anonymous_args = 0
 1839              		@ link register save eliminated.
 796:Dsp/widget/wgt_core/UI_Controller.c ****     if (Obj == NULL)
 1840              		.loc 1 796 5 view .LVU514
 1841              		.loc 1 796 8 is_stmt 0 view .LVU515
 1842 0000 F0B1     		cbz	r0, .L183
 795:Dsp/widget/wgt_core/UI_Controller.c ****     if (Obj == NULL)
 1843              		.loc 1 795 1 view .LVU516
 1844 0002 10B4     		push	{r4}
 1845              	.LCFI30:
 1846              		.cfi_def_cfa_offset 4
 1847              		.cfi_offset 4, -4
 1848 0004 0346     		mov	r3, r0
 797:Dsp/widget/wgt_core/UI_Controller.c ****         return false;
 798:Dsp/widget/wgt_core/UI_Controller.c **** 
 799:Dsp/widget/wgt_core/UI_Controller.c ****     int32_t range = Obj->max - Obj->min;
 1849              		.loc 1 799 5 is_stmt 1 view .LVU517
 1850              		.loc 1 799 24 is_stmt 0 view .LVU518
 1851 0006 4269     		ldr	r2, [r0, #20]	@ unaligned
 1852              		.loc 1 799 35 view .LVU519
 1853 0008 0069     		ldr	r0, [r0, #16]	@ unaligned
 1854              	.LVL162:
 1855              		.loc 1 799 13 view .LVU520
 1856 000a 141A     		subs	r4, r2, r0
 1857 000c 07EE104A 		vmov	s14, r4	@ int
 1858              	.LVL163:
 800:Dsp/widget/wgt_core/UI_Controller.c **** 
 801:Dsp/widget/wgt_core/UI_Controller.c ****     if (val >= Obj->max)
 1859              		.loc 1 801 5 is_stmt 1 view .LVU521
 1860              		.loc 1 801 8 is_stmt 0 view .LVU522
 1861 0010 8A42     		cmp	r2, r1
 1862 0012 0FDC     		bgt	.L180
 802:Dsp/widget/wgt_core/UI_Controller.c ****         Obj->cur_val = Obj->max;
 1863              		.loc 1 802 9 is_stmt 1 view .LVU523
 1864              		.loc 1 802 22 is_stmt 0 view .LVU524
 1865 0014 DA61     		str	r2, [r3, #28]	@ unaligned
ARM GAS  /var/folders/lx/hc4sn_b53233_zkc9xbbl97r0000gp/T//ccGA9DTo.s 			page 50


 1866              	.L181:
 803:Dsp/widget/wgt_core/UI_Controller.c ****     else if (val <= Obj->min)
 804:Dsp/widget/wgt_core/UI_Controller.c ****         Obj->cur_val = Obj->min;
 805:Dsp/widget/wgt_core/UI_Controller.c ****     else
 806:Dsp/widget/wgt_core/UI_Controller.c ****         Obj->cur_val = val;
 807:Dsp/widget/wgt_core/UI_Controller.c **** 
 808:Dsp/widget/wgt_core/UI_Controller.c ****     Obj->percent = ((float)val) / range;
 1867              		.loc 1 808 5 is_stmt 1 view .LVU525
 1868              		.loc 1 808 21 is_stmt 0 view .LVU526
 1869 0016 07EE901A 		vmov	s15, r1	@ int
 1870 001a F8EEE77A 		vcvt.f32.s32	s15, s15
 1871              		.loc 1 808 33 view .LVU527
 1872 001e B8EEC77A 		vcvt.f32.s32	s14, s14
 1873              		.loc 1 808 18 view .LVU528
 1874 0022 C7EE877A 		vdiv.f32	s15, s15, s14
 1875 0026 17EE902A 		vmov	r2, s15
 1876 002a DA60     		str	r2, [r3, #12]	@ unaligned
 809:Dsp/widget/wgt_core/UI_Controller.c **** 
 810:Dsp/widget/wgt_core/UI_Controller.c ****     return true;
 1877              		.loc 1 810 5 is_stmt 1 view .LVU529
 1878              		.loc 1 810 12 is_stmt 0 view .LVU530
 1879 002c 0120     		movs	r0, #1
 811:Dsp/widget/wgt_core/UI_Controller.c **** }
 1880              		.loc 1 811 1 view .LVU531
 1881 002e 5DF8044B 		ldr	r4, [sp], #4
 1882              	.LCFI31:
 1883              		.cfi_remember_state
 1884              		.cfi_restore 4
 1885              		.cfi_def_cfa_offset 0
 1886              	.LVL164:
 1887              		.loc 1 811 1 view .LVU532
 1888 0032 7047     		bx	lr
 1889              	.LVL165:
 1890              	.L180:
 1891              	.LCFI32:
 1892              		.cfi_restore_state
 803:Dsp/widget/wgt_core/UI_Controller.c ****     else if (val <= Obj->min)
 1893              		.loc 1 803 10 is_stmt 1 view .LVU533
 803:Dsp/widget/wgt_core/UI_Controller.c ****     else if (val <= Obj->min)
 1894              		.loc 1 803 13 is_stmt 0 view .LVU534
 1895 0034 8842     		cmp	r0, r1
 1896 0036 01DB     		blt	.L182
 804:Dsp/widget/wgt_core/UI_Controller.c ****     else
 1897              		.loc 1 804 9 is_stmt 1 view .LVU535
 804:Dsp/widget/wgt_core/UI_Controller.c ****     else
 1898              		.loc 1 804 22 is_stmt 0 view .LVU536
 1899 0038 D861     		str	r0, [r3, #28]	@ unaligned
 1900 003a ECE7     		b	.L181
 1901              	.L182:
 806:Dsp/widget/wgt_core/UI_Controller.c **** 
 1902              		.loc 1 806 9 is_stmt 1 view .LVU537
 806:Dsp/widget/wgt_core/UI_Controller.c **** 
 1903              		.loc 1 806 22 is_stmt 0 view .LVU538
 1904 003c D961     		str	r1, [r3, #28]	@ unaligned
 1905 003e EAE7     		b	.L181
 1906              	.LVL166:
 1907              	.L183:
ARM GAS  /var/folders/lx/hc4sn_b53233_zkc9xbbl97r0000gp/T//ccGA9DTo.s 			page 51


 1908              	.LCFI33:
 1909              		.cfi_def_cfa_offset 0
 1910              		.cfi_restore 4
 797:Dsp/widget/wgt_core/UI_Controller.c **** 
 1911              		.loc 1 797 16 view .LVU539
 1912 0040 0020     		movs	r0, #0
 1913              	.LVL167:
 1914              		.loc 1 811 1 view .LVU540
 1915 0042 7047     		bx	lr
 1916              		.cfi_endproc
 1917              	.LFE33:
 1919              		.section	.text.UI_ProcessBar_Move,"ax",%progbits
 1920              		.align	1
 1921              		.syntax unified
 1922              		.thumb
 1923              		.thumb_func
 1924              		.fpu fpv4-sp-d16
 1926              	UI_ProcessBar_Move:
 1927              	.LVL168:
 1928              	.LFB34:
 812:Dsp/widget/wgt_core/UI_Controller.c **** 
 813:Dsp/widget/wgt_core/UI_Controller.c **** static bool UI_ProcessBar_Move(UI_ProcessBarObj_TypeDef *Obj, uint16_t x, uint16_t y)
 814:Dsp/widget/wgt_core/UI_Controller.c **** {
 1929              		.loc 1 814 1 is_stmt 1 view -0
 1930              		.cfi_startproc
 1931              		@ args = 0, pretend = 0, frame = 0
 1932              		@ frame_needed = 0, uses_anonymous_args = 0
 815:Dsp/widget/wgt_core/UI_Controller.c ****     if (Obj == NULL)
 1933              		.loc 1 815 5 view .LVU542
 1934              		.loc 1 815 8 is_stmt 0 view .LVU543
 1935 0000 28B1     		cbz	r0, .L190
 814:Dsp/widget/wgt_core/UI_Controller.c ****     if (Obj == NULL)
 1936              		.loc 1 814 1 view .LVU544
 1937 0002 08B5     		push	{r3, lr}
 1938              	.LCFI34:
 1939              		.cfi_def_cfa_offset 8
 1940              		.cfi_offset 3, -8
 1941              		.cfi_offset 14, -4
 816:Dsp/widget/wgt_core/UI_Controller.c ****         return false;
 817:Dsp/widget/wgt_core/UI_Controller.c **** 
 818:Dsp/widget/wgt_core/UI_Controller.c ****     return UI_Move(&(Obj->Gen_Data), x, y);
 1942              		.loc 1 818 5 is_stmt 1 view .LVU545
 1943              		.loc 1 818 12 is_stmt 0 view .LVU546
 1944 0004 12B2     		sxth	r2, r2
 1945              		.loc 1 818 12 view .LVU547
 1946 0006 09B2     		sxth	r1, r1
 1947              		.loc 1 818 12 view .LVU548
 1948 0008 FFF7FEFF 		bl	UI_Move
 1949              	.LVL169:
 819:Dsp/widget/wgt_core/UI_Controller.c **** }
 1950              		.loc 1 819 1 view .LVU549
 1951 000c 08BD     		pop	{r3, pc}
 1952              	.LVL170:
 1953              	.L190:
 1954              	.LCFI35:
 1955              		.cfi_def_cfa_offset 0
 1956              		.cfi_restore 3
ARM GAS  /var/folders/lx/hc4sn_b53233_zkc9xbbl97r0000gp/T//ccGA9DTo.s 			page 52


 1957              		.cfi_restore 14
 816:Dsp/widget/wgt_core/UI_Controller.c ****         return false;
 1958              		.loc 1 816 16 view .LVU550
 1959 000e 0020     		movs	r0, #0
 1960              	.LVL171:
 1961              		.loc 1 819 1 view .LVU551
 1962 0010 7047     		bx	lr
 1963              		.cfi_endproc
 1964              	.LFE34:
 1966              		.section	.text.UI_ProcessBar_DspDotBar,"ax",%progbits
 1967              		.align	1
 1968              		.syntax unified
 1969              		.thumb
 1970              		.thumb_func
 1971              		.fpu fpv4-sp-d16
 1973              	UI_ProcessBar_DspDotBar:
 1974              	.LVL172:
 1975              	.LFB36:
 820:Dsp/widget/wgt_core/UI_Controller.c **** 
 821:Dsp/widget/wgt_core/UI_Controller.c **** static bool UI_ProcessBar_DspLoadBar(UI_ProcessBarObj_TypeDef *Obj)
 822:Dsp/widget/wgt_core/UI_Controller.c **** {
 823:Dsp/widget/wgt_core/UI_Controller.c ****     uint8_t frame_radius = 0;
 824:Dsp/widget/wgt_core/UI_Controller.c ****     int16_t Str_CoordX = 0;
 825:Dsp/widget/wgt_core/UI_Controller.c ****     int16_t Str_CoordY = 0;
 826:Dsp/widget/wgt_core/UI_Controller.c ****     float Pcnt_Val = 0;
 827:Dsp/widget/wgt_core/UI_Controller.c ****     char dsp_str[20];
 828:Dsp/widget/wgt_core/UI_Controller.c **** 
 829:Dsp/widget/wgt_core/UI_Controller.c ****     if (Obj == NULL)
 830:Dsp/widget/wgt_core/UI_Controller.c ****         return false;
 831:Dsp/widget/wgt_core/UI_Controller.c **** 
 832:Dsp/widget/wgt_core/UI_Controller.c ****     memset(dsp_str, '\0', 20);
 833:Dsp/widget/wgt_core/UI_Controller.c **** 
 834:Dsp/widget/wgt_core/UI_Controller.c ****     Pcnt_Val = (Obj->cur_val / (float)Obj->range);
 835:Dsp/widget/wgt_core/UI_Controller.c ****     sprintf(dsp_str, "On Process : %d%%", (uint8_t)(Pcnt_Val * 100));
 836:Dsp/widget/wgt_core/UI_Controller.c **** 
 837:Dsp/widget/wgt_core/UI_Controller.c ****     Str_CoordX = Obj->Gen_Data.x + (Obj->width - (strlen(dsp_str) * STR_DIS)) / 2;
 838:Dsp/widget/wgt_core/UI_Controller.c ****     Str_CoordY = Obj->Gen_Data.y - base_font - 2;
 839:Dsp/widget/wgt_core/UI_Controller.c **** 
 840:Dsp/widget/wgt_core/UI_Controller.c ****     //display direction from left
 841:Dsp/widget/wgt_core/UI_Controller.c ****     UI_DspInterface.draw_radius_rectangle(Obj->Gen_Data.x, Obj->Gen_Data.y, Obj->width, DEFAULT_PRO
 842:Dsp/widget/wgt_core/UI_Controller.c ****     UI_DspInterface.draw_str(base_font, dsp_str, Str_CoordX, Str_CoordY, true);
 843:Dsp/widget/wgt_core/UI_Controller.c ****     UI_DspInterface.draw_line_h(Obj->Gen_Data.x + 2, Obj->Gen_Data.y + 2, Pcnt_Val * (Obj->width - 
 844:Dsp/widget/wgt_core/UI_Controller.c **** 
 845:Dsp/widget/wgt_core/UI_Controller.c ****     return true;
 846:Dsp/widget/wgt_core/UI_Controller.c **** }
 847:Dsp/widget/wgt_core/UI_Controller.c **** 
 848:Dsp/widget/wgt_core/UI_Controller.c **** static bool UI_ProcessBar_DspDotBar(UI_ProcessBarObj_TypeDef *Obj)
 849:Dsp/widget/wgt_core/UI_Controller.c **** {
 1976              		.loc 1 849 1 is_stmt 1 view -0
 1977              		.cfi_startproc
 1978              		@ args = 0, pretend = 0, frame = 8
 1979              		@ frame_needed = 0, uses_anonymous_args = 0
 1980              		.loc 1 849 1 is_stmt 0 view .LVU553
 1981 0000 2DE9F04F 		push	{r4, r5, r6, r7, r8, r9, r10, fp, lr}
 1982              	.LCFI36:
 1983              		.cfi_def_cfa_offset 36
 1984              		.cfi_offset 4, -36
ARM GAS  /var/folders/lx/hc4sn_b53233_zkc9xbbl97r0000gp/T//ccGA9DTo.s 			page 53


 1985              		.cfi_offset 5, -32
 1986              		.cfi_offset 6, -28
 1987              		.cfi_offset 7, -24
 1988              		.cfi_offset 8, -20
 1989              		.cfi_offset 9, -16
 1990              		.cfi_offset 10, -12
 1991              		.cfi_offset 11, -8
 1992              		.cfi_offset 14, -4
 1993 0004 2DED028B 		vpush.64	{d8}
 1994              	.LCFI37:
 1995              		.cfi_def_cfa_offset 44
 1996              		.cfi_offset 80, -44
 1997              		.cfi_offset 81, -40
 1998 0008 85B0     		sub	sp, sp, #20
 1999              	.LCFI38:
 2000              		.cfi_def_cfa_offset 64
 850:Dsp/widget/wgt_core/UI_Controller.c ****     uint8_t bar_width = 0;
 2001              		.loc 1 850 5 is_stmt 1 view .LVU554
 2002              	.LVL173:
 851:Dsp/widget/wgt_core/UI_Controller.c ****     int16_t bar_start_x = 0;
 2003              		.loc 1 851 5 view .LVU555
 852:Dsp/widget/wgt_core/UI_Controller.c ****     int16_t mid_val = Obj->min + Obj->range / 2;
 2004              		.loc 1 852 5 view .LVU556
 2005              		.loc 1 852 26 is_stmt 0 view .LVU557
 2006 000a 0769     		ldr	r7, [r0, #16]	@ unaligned
 2007              		.loc 1 852 37 view .LVU558
 2008 000c 8369     		ldr	r3, [r0, #24]	@ unaligned
 2009              		.loc 1 852 45 view .LVU559
 2010 000e 03EBD373 		add	r3, r3, r3, lsr #31
 2011              		.loc 1 852 32 view .LVU560
 2012 0012 07EB6303 		add	r3, r7, r3, asr #1
 2013              	.LVL174:
 853:Dsp/widget/wgt_core/UI_Controller.c ****     int16_t dorbar_dsp = 0;
 2014              		.loc 1 853 5 is_stmt 1 view .LVU561
 854:Dsp/widget/wgt_core/UI_Controller.c ****     float Pcnt_Val = 0;
 2015              		.loc 1 854 5 view .LVU562
 855:Dsp/widget/wgt_core/UI_Controller.c **** 
 856:Dsp/widget/wgt_core/UI_Controller.c ****     if (Obj == NULL)
 2016              		.loc 1 856 5 view .LVU563
 2017              		.loc 1 856 8 is_stmt 0 view .LVU564
 2018 0016 0028     		cmp	r0, #0
 2019 0018 00F00C81 		beq	.L200
 2020 001c 0446     		mov	r4, r0
 2021 001e 1FB2     		sxth	r7, r3
 857:Dsp/widget/wgt_core/UI_Controller.c ****         return false;
 858:Dsp/widget/wgt_core/UI_Controller.c **** 
 859:Dsp/widget/wgt_core/UI_Controller.c ****     if (Obj->width % 2 == 0)
 2022              		.loc 1 859 5 is_stmt 1 view .LVU565
 2023              		.loc 1 859 12 is_stmt 0 view .LVU566
 2024 0020 90F82060 		ldrb	r6, [r0, #32]	@ zero_extendqisi2
 2025              		.loc 1 859 8 view .LVU567
 2026 0024 16F0010F 		tst	r6, #1
 2027 0028 02D1     		bne	.L201
 860:Dsp/widget/wgt_core/UI_Controller.c ****         bar_width = Obj->width + 1;
 2028              		.loc 1 860 9 is_stmt 1 view .LVU568
 2029              		.loc 1 860 19 is_stmt 0 view .LVU569
 2030 002a 0136     		adds	r6, r6, #1
ARM GAS  /var/folders/lx/hc4sn_b53233_zkc9xbbl97r0000gp/T//ccGA9DTo.s 			page 54


 2031 002c F6B2     		uxtb	r6, r6
 2032              	.LVL175:
 2033              		.loc 1 860 19 view .LVU570
 2034 002e 00E0     		b	.L197
 2035              	.LVL176:
 2036              	.L201:
 850:Dsp/widget/wgt_core/UI_Controller.c ****     int16_t bar_start_x = 0;
 2037              		.loc 1 850 13 view .LVU571
 2038 0030 0026     		movs	r6, #0
 2039              	.LVL177:
 2040              	.L197:
 861:Dsp/widget/wgt_core/UI_Controller.c **** 
 862:Dsp/widget/wgt_core/UI_Controller.c ****     dorbar_dsp = Obj->Gen_Data.x + 3;
 2041              		.loc 1 862 5 is_stmt 1 view .LVU572
 2042              		.loc 1 862 31 is_stmt 0 view .LVU573
 2043 0032 A588     		ldrh	r5, [r4, #4]	@ unaligned
 2044              		.loc 1 862 34 view .LVU574
 2045 0034 EA1C     		adds	r2, r5, #3
 2046              	.LVL178:
 863:Dsp/widget/wgt_core/UI_Controller.c ****     UI_DspInterface.draw_str(base_font, Obj->Gen_Data.label, dorbar_dsp, Obj->Gen_Data.y - base_fon
 2047              		.loc 1 863 5 is_stmt 1 view .LVU575
 2048              		.loc 1 863 20 is_stmt 0 view .LVU576
 2049 0036 824B     		ldr	r3, .L205
 2050              	.LVL179:
 2051              		.loc 1 863 20 view .LVU577
 2052 0038 D3F80080 		ldr	r8, [r3]
 2053              		.loc 1 863 5 view .LVU578
 2054 003c 814B     		ldr	r3, .L205+4
 2055 003e 1878     		ldrb	r0, [r3]	@ zero_extendqisi2
 2056              	.LVL180:
 2057              		.loc 1 863 87 view .LVU579
 2058 0040 E388     		ldrh	r3, [r4, #6]	@ unaligned
 2059              		.loc 1 863 90 view .LVU580
 2060 0042 1B1A     		subs	r3, r3, r0
 2061 0044 9BB2     		uxth	r3, r3
 2062              		.loc 1 863 102 view .LVU581
 2063 0046 043B     		subs	r3, r3, #4
 2064              		.loc 1 863 5 view .LVU582
 2065 0048 4FF00109 		mov	r9, #1
 2066 004c CDF80090 		str	r9, [sp]
 2067 0050 1BB2     		sxth	r3, r3
 2068 0052 12B2     		sxth	r2, r2
 2069              		.loc 1 863 5 view .LVU583
 2070 0054 2168     		ldr	r1, [r4]	@ unaligned
 2071 0056 C047     		blx	r8
 2072              	.LVL181:
 864:Dsp/widget/wgt_core/UI_Controller.c **** 
 865:Dsp/widget/wgt_core/UI_Controller.c ****     dorbar_dsp += 2;
 2073              		.loc 1 865 5 is_stmt 1 view .LVU584
 2074              		.loc 1 865 16 is_stmt 0 view .LVU585
 2075 0058 0535     		adds	r5, r5, #5
 2076              	.LVL182:
 2077              		.loc 1 865 16 view .LVU586
 2078 005a 1FFA85F8 		uxth	r8, r5
 2079 005e 2DB2     		sxth	r5, r5
 2080              	.LVL183:
 866:Dsp/widget/wgt_core/UI_Controller.c ****     /* step  1 draw dot line */
ARM GAS  /var/folders/lx/hc4sn_b53233_zkc9xbbl97r0000gp/T//ccGA9DTo.s 			page 55


 867:Dsp/widget/wgt_core/UI_Controller.c ****     UI_Draw_HorDotLine(dorbar_dsp, Obj->Gen_Data.y + 1, Obj->width, DEFAULT_PROCESSBAR_LINE_WIDTH);
 2081              		.loc 1 867 5 is_stmt 1 view .LVU587
 2082              		.loc 1 867 49 is_stmt 0 view .LVU588
 2083 0060 E188     		ldrh	r1, [r4, #6]	@ unaligned
 2084              		.loc 1 867 52 view .LVU589
 2085 0062 4944     		add	r1, r1, r9
 2086              		.loc 1 867 5 view .LVU590
 2087 0064 4B46     		mov	r3, r9
 2088 0066 94F82020 		ldrb	r2, [r4, #32]	@ zero_extendqisi2
 2089 006a 09B2     		sxth	r1, r1
 2090 006c 2846     		mov	r0, r5
 2091 006e FFF7FEFF 		bl	UI_Draw_HorDotLine
 2092              	.LVL184:
 868:Dsp/widget/wgt_core/UI_Controller.c **** 
 869:Dsp/widget/wgt_core/UI_Controller.c ****     if (Obj->Mv_Dir == UI_ProcBar_GrothFrom_Left)
 2093              		.loc 1 869 5 is_stmt 1 view .LVU591
 2094              		.loc 1 869 12 is_stmt 0 view .LVU592
 2095 0072 94F82430 		ldrb	r3, [r4, #36]	@ zero_extendqisi2
 2096              		.loc 1 869 8 view .LVU593
 2097 0076 002B     		cmp	r3, #0
 2098 0078 49D1     		bne	.L198
 870:Dsp/widget/wgt_core/UI_Controller.c ****     {
 871:Dsp/widget/wgt_core/UI_Controller.c ****         bar_start_x = dorbar_dsp;
 2099              		.loc 1 871 9 is_stmt 1 view .LVU594
 2100              	.LVL185:
 872:Dsp/widget/wgt_core/UI_Controller.c ****         Pcnt_Val = (Obj->cur_val / (float)Obj->range);
 2101              		.loc 1 872 9 view .LVU595
 2102              		.loc 1 872 24 is_stmt 0 view .LVU596
 2103 007a E369     		ldr	r3, [r4, #28]	@ unaligned
 2104 007c 07EE103A 		vmov	s14, r3	@ int
 2105              		.loc 1 872 34 view .LVU597
 2106 0080 B8EEC77A 		vcvt.f32.s32	s14, s14
 2107              		.loc 1 872 46 view .LVU598
 2108 0084 A369     		ldr	r3, [r4, #24]	@ unaligned
 2109 0086 07EE903A 		vmov	s15, r3	@ int
 2110              		.loc 1 872 36 view .LVU599
 2111 008a F8EEE77A 		vcvt.f32.s32	s15, s15
 2112              		.loc 1 872 18 view .LVU600
 2113 008e 87EE278A 		vdiv.f32	s16, s14, s15
 2114              	.LVL186:
 873:Dsp/widget/wgt_core/UI_Controller.c **** 
 874:Dsp/widget/wgt_core/UI_Controller.c ****         UI_DspInterface.draw_line_v(bar_start_x, Obj->Gen_Data.y - 1, 4, DEFAULT_PROCESSBAR_LINE_WI
 2115              		.loc 1 874 9 is_stmt 1 view .LVU601
 2116              		.loc 1 874 24 is_stmt 0 view .LVU602
 2117 0092 6B4F     		ldr	r7, .L205
 2118              	.LVL187:
 2119              		.loc 1 874 63 view .LVU603
 2120 0094 E188     		ldrh	r1, [r4, #6]	@ unaligned
 2121              		.loc 1 874 66 view .LVU604
 2122 0096 0139     		subs	r1, r1, #1
 2123              		.loc 1 874 9 view .LVU605
 2124 0098 CDF80090 		str	r9, [sp]
 2125 009c 4B46     		mov	r3, r9
 2126 009e 0422     		movs	r2, #4
 2127 00a0 09B2     		sxth	r1, r1
 2128 00a2 2846     		mov	r0, r5
 2129 00a4 3E69     		ldr	r6, [r7, #16]
ARM GAS  /var/folders/lx/hc4sn_b53233_zkc9xbbl97r0000gp/T//ccGA9DTo.s 			page 56


 2130              	.LVL188:
 2131              		.loc 1 874 9 view .LVU606
 2132 00a6 B047     		blx	r6
 2133              	.LVL189:
 875:Dsp/widget/wgt_core/UI_Controller.c ****         UI_DspInterface.draw_line_h(bar_start_x, Obj->Gen_Data.y, Obj->width * Pcnt_Val, DEFAULT_PR
 2134              		.loc 1 875 9 is_stmt 1 view .LVU607
 2135              		.loc 1 875 70 is_stmt 0 view .LVU608
 2136 00a8 94F82030 		ldrb	r3, [r4, #32]	@ zero_extendqisi2
 2137 00ac 07EE903A 		vmov	s15, r3	@ int
 2138              		.loc 1 875 78 view .LVU609
 2139 00b0 F8EEE77A 		vcvt.f32.s32	s15, s15
 2140 00b4 67EE887A 		vmul.f32	s15, s15, s16
 2141              		.loc 1 875 9 view .LVU610
 2142 00b8 FCEEE77A 		vcvt.u32.f32	s15, s15
 2143 00bc CDED037A 		vstr.32	s15, [sp, #12]	@ int
 2144 00c0 CDF80090 		str	r9, [sp]
 2145 00c4 4B46     		mov	r3, r9
 2146 00c6 9DF80C20 		ldrb	r2, [sp, #12]	@ zero_extendqisi2
 2147 00ca B4F90610 		ldrsh	r1, [r4, #6]	@ unaligned
 2148 00ce 2846     		mov	r0, r5
 2149 00d0 FE68     		ldr	r6, [r7, #12]
 2150 00d2 B047     		blx	r6
 2151              	.LVL190:
 876:Dsp/widget/wgt_core/UI_Controller.c ****         UI_DspInterface.draw_line_h(bar_start_x, Obj->Gen_Data.y + 2, Obj->width * Pcnt_Val, DEFAUL
 2152              		.loc 1 876 9 is_stmt 1 view .LVU611
 2153              		.loc 1 876 24 is_stmt 0 view .LVU612
 2154 00d4 FF68     		ldr	r7, [r7, #12]
 2155              		.loc 1 876 63 view .LVU613
 2156 00d6 E188     		ldrh	r1, [r4, #6]	@ unaligned
 2157              		.loc 1 876 66 view .LVU614
 2158 00d8 0231     		adds	r1, r1, #2
 2159              		.loc 1 876 74 view .LVU615
 2160 00da 94F82030 		ldrb	r3, [r4, #32]	@ zero_extendqisi2
 2161 00de 07EE903A 		vmov	s15, r3	@ int
 2162              		.loc 1 876 82 view .LVU616
 2163 00e2 F8EEE77A 		vcvt.f32.s32	s15, s15
 2164 00e6 67EE887A 		vmul.f32	s15, s15, s16
 2165              		.loc 1 876 9 view .LVU617
 2166 00ea FCEEE77A 		vcvt.u32.f32	s15, s15
 2167 00ee CDED037A 		vstr.32	s15, [sp, #12]	@ int
 2168 00f2 CDF80090 		str	r9, [sp]
 2169 00f6 4B46     		mov	r3, r9
 2170 00f8 9DF80C20 		ldrb	r2, [sp, #12]	@ zero_extendqisi2
 2171 00fc 09B2     		sxth	r1, r1
 2172 00fe 2846     		mov	r0, r5
 2173 0100 B847     		blx	r7
 2174              	.LVL191:
 877:Dsp/widget/wgt_core/UI_Controller.c ****     }
 878:Dsp/widget/wgt_core/UI_Controller.c ****     else if (Obj->Mv_Dir == UI_ProcBar_GrothFrom_Mid)
 879:Dsp/widget/wgt_core/UI_Controller.c ****     {
 880:Dsp/widget/wgt_core/UI_Controller.c ****         UI_DspInterface.draw_line_v(Obj->Gen_Data.x + bar_width / 2, Obj->Gen_Data.y - 1, 4, DEFAUL
 881:Dsp/widget/wgt_core/UI_Controller.c **** 
 882:Dsp/widget/wgt_core/UI_Controller.c ****         if (Obj->cur_val < mid_val)
 883:Dsp/widget/wgt_core/UI_Controller.c ****         {
 884:Dsp/widget/wgt_core/UI_Controller.c ****             Pcnt_Val = (((Obj->range / 2) - Obj->cur_val) / ((float)(Obj->range / 2)));
 885:Dsp/widget/wgt_core/UI_Controller.c ****             bar_start_x = dorbar_dsp + bar_width / 2 - (Pcnt_Val * bar_width / 2);
 886:Dsp/widget/wgt_core/UI_Controller.c ****             UI_DspInterface.draw_line_h(bar_start_x, Obj->Gen_Data.y, (Pcnt_Val * bar_width / 2), D
ARM GAS  /var/folders/lx/hc4sn_b53233_zkc9xbbl97r0000gp/T//ccGA9DTo.s 			page 57


 887:Dsp/widget/wgt_core/UI_Controller.c ****             UI_DspInterface.draw_line_h(bar_start_x, Obj->Gen_Data.y + 2, (Pcnt_Val * bar_width / 2
 888:Dsp/widget/wgt_core/UI_Controller.c ****         }
 889:Dsp/widget/wgt_core/UI_Controller.c ****         else if (Obj->cur_val > mid_val)
 890:Dsp/widget/wgt_core/UI_Controller.c ****         {
 891:Dsp/widget/wgt_core/UI_Controller.c ****             Pcnt_Val = ((Obj->cur_val - (Obj->range / 2)) / ((float)(Obj->range / 2)));
 892:Dsp/widget/wgt_core/UI_Controller.c ****             bar_start_x = dorbar_dsp + bar_width / 2;
 893:Dsp/widget/wgt_core/UI_Controller.c ****             UI_DspInterface.draw_line_h(bar_start_x, Obj->Gen_Data.y, (Pcnt_Val * bar_width / 2), D
 894:Dsp/widget/wgt_core/UI_Controller.c ****             UI_DspInterface.draw_line_h(bar_start_x, Obj->Gen_Data.y + 2, (Pcnt_Val * bar_width / 2
 895:Dsp/widget/wgt_core/UI_Controller.c ****         }
 896:Dsp/widget/wgt_core/UI_Controller.c ****     }
 897:Dsp/widget/wgt_core/UI_Controller.c ****     else
 898:Dsp/widget/wgt_core/UI_Controller.c ****         return false;
 899:Dsp/widget/wgt_core/UI_Controller.c **** 
 900:Dsp/widget/wgt_core/UI_Controller.c ****     return true;
 2175              		.loc 1 900 12 view .LVU618
 2176 0102 4846     		mov	r0, r9
 2177              	.LVL192:
 2178              	.L196:
 901:Dsp/widget/wgt_core/UI_Controller.c **** }
 2179              		.loc 1 901 1 view .LVU619
 2180 0104 05B0     		add	sp, sp, #20
 2181              	.LCFI39:
 2182              		.cfi_remember_state
 2183              		.cfi_def_cfa_offset 44
 2184              		@ sp needed
 2185 0106 BDEC028B 		vldm	sp!, {d8}
 2186              	.LCFI40:
 2187              		.cfi_restore 80
 2188              		.cfi_restore 81
 2189              		.cfi_def_cfa_offset 36
 2190 010a BDE8F08F 		pop	{r4, r5, r6, r7, r8, r9, r10, fp, pc}
 2191              	.LVL193:
 2192              	.L198:
 2193              	.LCFI41:
 2194              		.cfi_restore_state
 878:Dsp/widget/wgt_core/UI_Controller.c ****     {
 2195              		.loc 1 878 10 is_stmt 1 view .LVU620
 878:Dsp/widget/wgt_core/UI_Controller.c ****     {
 2196              		.loc 1 878 13 is_stmt 0 view .LVU621
 2197 010e 012B     		cmp	r3, #1
 2198 0110 40F09280 		bne	.L202
 880:Dsp/widget/wgt_core/UI_Controller.c **** 
 2199              		.loc 1 880 9 is_stmt 1 view .LVU622
 880:Dsp/widget/wgt_core/UI_Controller.c **** 
 2200              		.loc 1 880 24 is_stmt 0 view .LVU623
 2201 0114 4A4B     		ldr	r3, .L205
 2202 0116 D3F810B0 		ldr	fp, [r3, #16]
 880:Dsp/widget/wgt_core/UI_Controller.c **** 
 2203              		.loc 1 880 50 view .LVU624
 2204 011a A088     		ldrh	r0, [r4, #4]	@ unaligned
 880:Dsp/widget/wgt_core/UI_Controller.c **** 
 2205              		.loc 1 880 53 view .LVU625
 2206 011c 4FEA5609 		lsr	r9, r6, #1
 2207 0120 00EB5600 		add	r0, r0, r6, lsr #1
 880:Dsp/widget/wgt_core/UI_Controller.c **** 
 2208              		.loc 1 880 83 view .LVU626
 2209 0124 E188     		ldrh	r1, [r4, #6]	@ unaligned
ARM GAS  /var/folders/lx/hc4sn_b53233_zkc9xbbl97r0000gp/T//ccGA9DTo.s 			page 58


 880:Dsp/widget/wgt_core/UI_Controller.c **** 
 2210              		.loc 1 880 86 view .LVU627
 2211 0126 0139     		subs	r1, r1, #1
 880:Dsp/widget/wgt_core/UI_Controller.c **** 
 2212              		.loc 1 880 9 view .LVU628
 2213 0128 0123     		movs	r3, #1
 2214 012a 0093     		str	r3, [sp]
 2215 012c 0422     		movs	r2, #4
 2216 012e 09B2     		sxth	r1, r1
 2217 0130 00B2     		sxth	r0, r0
 2218 0132 D847     		blx	fp
 2219              	.LVL194:
 882:Dsp/widget/wgt_core/UI_Controller.c ****         {
 2220              		.loc 1 882 9 is_stmt 1 view .LVU629
 882:Dsp/widget/wgt_core/UI_Controller.c ****         {
 2221              		.loc 1 882 16 is_stmt 0 view .LVU630
 2222 0134 E369     		ldr	r3, [r4, #28]	@ unaligned
 882:Dsp/widget/wgt_core/UI_Controller.c ****         {
 2223              		.loc 1 882 12 view .LVU631
 2224 0136 BB42     		cmp	r3, r7
 2225 0138 42DA     		bge	.L199
 884:Dsp/widget/wgt_core/UI_Controller.c ****             bar_start_x = dorbar_dsp + bar_width / 2 - (Pcnt_Val * bar_width / 2);
 2226              		.loc 1 884 13 is_stmt 1 view .LVU632
 884:Dsp/widget/wgt_core/UI_Controller.c ****             bar_start_x = dorbar_dsp + bar_width / 2 - (Pcnt_Val * bar_width / 2);
 2227              		.loc 1 884 30 is_stmt 0 view .LVU633
 2228 013a A269     		ldr	r2, [r4, #24]	@ unaligned
 884:Dsp/widget/wgt_core/UI_Controller.c ****             bar_start_x = dorbar_dsp + bar_width / 2 - (Pcnt_Val * bar_width / 2);
 2229              		.loc 1 884 38 view .LVU634
 2230 013c 02EBD272 		add	r2, r2, r2, lsr #31
 2231 0140 5110     		asrs	r1, r2, #1
 2232 0142 06EE901A 		vmov	s13, r1	@ int
 884:Dsp/widget/wgt_core/UI_Controller.c ****             bar_start_x = dorbar_dsp + bar_width / 2 - (Pcnt_Val * bar_width / 2);
 2233              		.loc 1 884 43 view .LVU635
 2234 0146 C3EB6203 		rsb	r3, r3, r2, asr #1
 884:Dsp/widget/wgt_core/UI_Controller.c ****             bar_start_x = dorbar_dsp + bar_width / 2 - (Pcnt_Val * bar_width / 2);
 2235              		.loc 1 884 59 view .LVU636
 2236 014a 07EE903A 		vmov	s15, r3	@ int
 2237 014e F8EEE77A 		vcvt.f32.s32	s15, s15
 884:Dsp/widget/wgt_core/UI_Controller.c ****             bar_start_x = dorbar_dsp + bar_width / 2 - (Pcnt_Val * bar_width / 2);
 2238              		.loc 1 884 62 view .LVU637
 2239 0152 F8EEE66A 		vcvt.f32.s32	s13, s13
 884:Dsp/widget/wgt_core/UI_Controller.c ****             bar_start_x = dorbar_dsp + bar_width / 2 - (Pcnt_Val * bar_width / 2);
 2240              		.loc 1 884 22 view .LVU638
 2241 0156 87EEA66A 		vdiv.f32	s12, s15, s13
 2242              	.LVL195:
 885:Dsp/widget/wgt_core/UI_Controller.c ****             UI_DspInterface.draw_line_h(bar_start_x, Obj->Gen_Data.y, (Pcnt_Val * bar_width / 2), D
 2243              		.loc 1 885 13 is_stmt 1 view .LVU639
 885:Dsp/widget/wgt_core/UI_Controller.c ****             UI_DspInterface.draw_line_h(bar_start_x, Obj->Gen_Data.y, (Pcnt_Val * bar_width / 2), D
 2244              		.loc 1 885 38 is_stmt 0 view .LVU640
 2245 015a 05EB0903 		add	r3, r5, r9
 2246 015e 07EE903A 		vmov	s15, r3	@ int
 885:Dsp/widget/wgt_core/UI_Controller.c ****             UI_DspInterface.draw_line_h(bar_start_x, Obj->Gen_Data.y, (Pcnt_Val * bar_width / 2), D
 2247              		.loc 1 885 66 view .LVU641
 2248 0162 07EE106A 		vmov	s14, r6	@ int
 2249 0166 B8EEC77A 		vcvt.f32.s32	s14, s14
 2250 016a 27EE067A 		vmul.f32	s14, s14, s12
 885:Dsp/widget/wgt_core/UI_Controller.c ****             UI_DspInterface.draw_line_h(bar_start_x, Obj->Gen_Data.y, (Pcnt_Val * bar_width / 2), D
ARM GAS  /var/folders/lx/hc4sn_b53233_zkc9xbbl97r0000gp/T//ccGA9DTo.s 			page 59


 2251              		.loc 1 885 78 view .LVU642
 2252 016e F6EE006A 		vmov.f32	s13, #5.0e-1
 2253 0172 27EE267A 		vmul.f32	s14, s14, s13
 885:Dsp/widget/wgt_core/UI_Controller.c ****             UI_DspInterface.draw_line_h(bar_start_x, Obj->Gen_Data.y, (Pcnt_Val * bar_width / 2), D
 2254              		.loc 1 885 54 view .LVU643
 2255 0176 F8EEE77A 		vcvt.f32.s32	s15, s15
 2256 017a 77EEC77A 		vsub.f32	s15, s15, s14
 885:Dsp/widget/wgt_core/UI_Controller.c ****             UI_DspInterface.draw_line_h(bar_start_x, Obj->Gen_Data.y, (Pcnt_Val * bar_width / 2), D
 2257              		.loc 1 885 25 view .LVU644
 2258 017e FDEEE77A 		vcvt.s32.f32	s15, s15
 2259 0182 17EE903A 		vmov	r3, s15	@ int
 2260 0186 0FFA83F9 		sxth	r9, r3
 2261              	.LVL196:
 886:Dsp/widget/wgt_core/UI_Controller.c ****             UI_DspInterface.draw_line_h(bar_start_x, Obj->Gen_Data.y + 2, (Pcnt_Val * bar_width / 2
 2262              		.loc 1 886 13 is_stmt 1 view .LVU645
 886:Dsp/widget/wgt_core/UI_Controller.c ****             UI_DspInterface.draw_line_h(bar_start_x, Obj->Gen_Data.y + 2, (Pcnt_Val * bar_width / 2
 2263              		.loc 1 886 28 is_stmt 0 view .LVU646
 2264 018a 2D4F     		ldr	r7, .L205
 2265              	.LVL197:
 886:Dsp/widget/wgt_core/UI_Controller.c ****             UI_DspInterface.draw_line_h(bar_start_x, Obj->Gen_Data.y + 2, (Pcnt_Val * bar_width / 2
 2266              		.loc 1 886 13 view .LVU647
 2267 018c FCEEC77A 		vcvt.u32.f32	s15, s14
 2268 0190 CDED037A 		vstr.32	s15, [sp, #12]	@ int
 2269 0194 9DF80C80 		ldrb	r8, [sp, #12]	@ zero_extendqisi2
 2270 0198 0126     		movs	r6, #1
 2271              	.LVL198:
 886:Dsp/widget/wgt_core/UI_Controller.c ****             UI_DspInterface.draw_line_h(bar_start_x, Obj->Gen_Data.y + 2, (Pcnt_Val * bar_width / 2
 2272              		.loc 1 886 13 view .LVU648
 2273 019a 0096     		str	r6, [sp]
 2274 019c 3346     		mov	r3, r6
 2275 019e 4246     		mov	r2, r8
 2276 01a0 B4F90610 		ldrsh	r1, [r4, #6]	@ unaligned
 2277 01a4 4846     		mov	r0, r9
 2278 01a6 FD68     		ldr	r5, [r7, #12]
 2279              	.LVL199:
 886:Dsp/widget/wgt_core/UI_Controller.c ****             UI_DspInterface.draw_line_h(bar_start_x, Obj->Gen_Data.y + 2, (Pcnt_Val * bar_width / 2
 2280              		.loc 1 886 13 view .LVU649
 2281 01a8 A847     		blx	r5
 2282              	.LVL200:
 887:Dsp/widget/wgt_core/UI_Controller.c ****         }
 2283              		.loc 1 887 13 is_stmt 1 view .LVU650
 887:Dsp/widget/wgt_core/UI_Controller.c ****         }
 2284              		.loc 1 887 28 is_stmt 0 view .LVU651
 2285 01aa FF68     		ldr	r7, [r7, #12]
 887:Dsp/widget/wgt_core/UI_Controller.c ****         }
 2286              		.loc 1 887 67 view .LVU652
 2287 01ac E188     		ldrh	r1, [r4, #6]	@ unaligned
 887:Dsp/widget/wgt_core/UI_Controller.c ****         }
 2288              		.loc 1 887 70 view .LVU653
 2289 01ae 0231     		adds	r1, r1, #2
 887:Dsp/widget/wgt_core/UI_Controller.c ****         }
 2290              		.loc 1 887 13 view .LVU654
 2291 01b0 0096     		str	r6, [sp]
 2292 01b2 3346     		mov	r3, r6
 2293 01b4 4246     		mov	r2, r8
 2294 01b6 09B2     		sxth	r1, r1
 2295 01b8 4846     		mov	r0, r9
ARM GAS  /var/folders/lx/hc4sn_b53233_zkc9xbbl97r0000gp/T//ccGA9DTo.s 			page 60


 2296 01ba B847     		blx	r7
 2297              	.LVL201:
 900:Dsp/widget/wgt_core/UI_Controller.c **** }
 2298              		.loc 1 900 12 view .LVU655
 2299 01bc 3046     		mov	r0, r6
 2300 01be A1E7     		b	.L196
 2301              	.LVL202:
 2302              	.L199:
 889:Dsp/widget/wgt_core/UI_Controller.c ****         {
 2303              		.loc 1 889 14 is_stmt 1 view .LVU656
 889:Dsp/widget/wgt_core/UI_Controller.c ****         {
 2304              		.loc 1 889 17 is_stmt 0 view .LVU657
 2305 01c0 BB42     		cmp	r3, r7
 2306 01c2 3BDD     		ble	.L203
 891:Dsp/widget/wgt_core/UI_Controller.c ****             bar_start_x = dorbar_dsp + bar_width / 2;
 2307              		.loc 1 891 13 is_stmt 1 view .LVU658
 891:Dsp/widget/wgt_core/UI_Controller.c ****             bar_start_x = dorbar_dsp + bar_width / 2;
 2308              		.loc 1 891 45 is_stmt 0 view .LVU659
 2309 01c4 A269     		ldr	r2, [r4, #24]	@ unaligned
 891:Dsp/widget/wgt_core/UI_Controller.c ****             bar_start_x = dorbar_dsp + bar_width / 2;
 2310              		.loc 1 891 53 view .LVU660
 2311 01c6 02EBD272 		add	r2, r2, r2, lsr #31
 891:Dsp/widget/wgt_core/UI_Controller.c ****             bar_start_x = dorbar_dsp + bar_width / 2;
 2312              		.loc 1 891 39 view .LVU661
 2313 01ca A3EB6203 		sub	r3, r3, r2, asr #1
 891:Dsp/widget/wgt_core/UI_Controller.c ****             bar_start_x = dorbar_dsp + bar_width / 2;
 2314              		.loc 1 891 59 view .LVU662
 2315 01ce 07EE903A 		vmov	s15, r3	@ int
 2316 01d2 B8EEE77A 		vcvt.f32.s32	s14, s15
 891:Dsp/widget/wgt_core/UI_Controller.c ****             bar_start_x = dorbar_dsp + bar_width / 2;
 2317              		.loc 1 891 81 view .LVU663
 2318 01d6 5210     		asrs	r2, r2, #1
 891:Dsp/widget/wgt_core/UI_Controller.c ****             bar_start_x = dorbar_dsp + bar_width / 2;
 2319              		.loc 1 891 62 view .LVU664
 2320 01d8 07EE902A 		vmov	s15, r2	@ int
 2321 01dc F8EEE76A 		vcvt.f32.s32	s13, s15
 891:Dsp/widget/wgt_core/UI_Controller.c ****             bar_start_x = dorbar_dsp + bar_width / 2;
 2322              		.loc 1 891 22 view .LVU665
 2323 01e0 87EE266A 		vdiv.f32	s12, s14, s13
 2324              	.LVL203:
 892:Dsp/widget/wgt_core/UI_Controller.c ****             UI_DspInterface.draw_line_h(bar_start_x, Obj->Gen_Data.y, (Pcnt_Val * bar_width / 2), D
 2325              		.loc 1 892 13 is_stmt 1 view .LVU666
 892:Dsp/widget/wgt_core/UI_Controller.c ****             UI_DspInterface.draw_line_h(bar_start_x, Obj->Gen_Data.y, (Pcnt_Val * bar_width / 2), D
 2326              		.loc 1 892 38 is_stmt 0 view .LVU667
 2327 01e4 C844     		add	r8, r8, r9
 892:Dsp/widget/wgt_core/UI_Controller.c ****             UI_DspInterface.draw_line_h(bar_start_x, Obj->Gen_Data.y, (Pcnt_Val * bar_width / 2), D
 2328              		.loc 1 892 25 view .LVU668
 2329 01e6 0FFA88F8 		sxth	r8, r8
 2330              	.LVL204:
 893:Dsp/widget/wgt_core/UI_Controller.c ****             UI_DspInterface.draw_line_h(bar_start_x, Obj->Gen_Data.y + 2, (Pcnt_Val * bar_width / 2
 2331              		.loc 1 893 13 is_stmt 1 view .LVU669
 893:Dsp/widget/wgt_core/UI_Controller.c ****             UI_DspInterface.draw_line_h(bar_start_x, Obj->Gen_Data.y + 2, (Pcnt_Val * bar_width / 2
 2332              		.loc 1 893 28 is_stmt 0 view .LVU670
 2333 01ea 154D     		ldr	r5, .L205
 2334              	.LVL205:
 893:Dsp/widget/wgt_core/UI_Controller.c ****             UI_DspInterface.draw_line_h(bar_start_x, Obj->Gen_Data.y + 2, (Pcnt_Val * bar_width / 2
 2335              		.loc 1 893 81 view .LVU671
ARM GAS  /var/folders/lx/hc4sn_b53233_zkc9xbbl97r0000gp/T//ccGA9DTo.s 			page 61


 2336 01ec 07EE906A 		vmov	s15, r6	@ int
 2337 01f0 F8EEE77A 		vcvt.f32.s32	s15, s15
 2338 01f4 67EE867A 		vmul.f32	s15, s15, s12
 893:Dsp/widget/wgt_core/UI_Controller.c ****             UI_DspInterface.draw_line_h(bar_start_x, Obj->Gen_Data.y + 2, (Pcnt_Val * bar_width / 2
 2339              		.loc 1 893 93 view .LVU672
 2340 01f8 B6EE007A 		vmov.f32	s14, #5.0e-1
 2341 01fc 67EE877A 		vmul.f32	s15, s15, s14
 893:Dsp/widget/wgt_core/UI_Controller.c ****             UI_DspInterface.draw_line_h(bar_start_x, Obj->Gen_Data.y + 2, (Pcnt_Val * bar_width / 2
 2342              		.loc 1 893 13 view .LVU673
 2343 0200 FCEEE77A 		vcvt.u32.f32	s15, s15
 2344 0204 CDED037A 		vstr.32	s15, [sp, #12]	@ int
 2345 0208 9DF80C90 		ldrb	r9, [sp, #12]	@ zero_extendqisi2
 2346 020c 0126     		movs	r6, #1
 2347              	.LVL206:
 893:Dsp/widget/wgt_core/UI_Controller.c ****             UI_DspInterface.draw_line_h(bar_start_x, Obj->Gen_Data.y + 2, (Pcnt_Val * bar_width / 2
 2348              		.loc 1 893 13 view .LVU674
 2349 020e 0096     		str	r6, [sp]
 2350 0210 3346     		mov	r3, r6
 2351 0212 4A46     		mov	r2, r9
 2352 0214 B4F90610 		ldrsh	r1, [r4, #6]	@ unaligned
 2353 0218 4046     		mov	r0, r8
 2354 021a EF68     		ldr	r7, [r5, #12]
 2355              	.LVL207:
 893:Dsp/widget/wgt_core/UI_Controller.c ****             UI_DspInterface.draw_line_h(bar_start_x, Obj->Gen_Data.y + 2, (Pcnt_Val * bar_width / 2
 2356              		.loc 1 893 13 view .LVU675
 2357 021c B847     		blx	r7
 2358              	.LVL208:
 894:Dsp/widget/wgt_core/UI_Controller.c ****         }
 2359              		.loc 1 894 13 is_stmt 1 view .LVU676
 894:Dsp/widget/wgt_core/UI_Controller.c ****         }
 2360              		.loc 1 894 28 is_stmt 0 view .LVU677
 2361 021e ED68     		ldr	r5, [r5, #12]
 894:Dsp/widget/wgt_core/UI_Controller.c ****         }
 2362              		.loc 1 894 67 view .LVU678
 2363 0220 E188     		ldrh	r1, [r4, #6]	@ unaligned
 894:Dsp/widget/wgt_core/UI_Controller.c ****         }
 2364              		.loc 1 894 70 view .LVU679
 2365 0222 0231     		adds	r1, r1, #2
 894:Dsp/widget/wgt_core/UI_Controller.c ****         }
 2366              		.loc 1 894 13 view .LVU680
 2367 0224 0096     		str	r6, [sp]
 2368 0226 3346     		mov	r3, r6
 2369 0228 4A46     		mov	r2, r9
 2370 022a 09B2     		sxth	r1, r1
 2371 022c 4046     		mov	r0, r8
 2372 022e A847     		blx	r5
 2373              	.LVL209:
 900:Dsp/widget/wgt_core/UI_Controller.c **** }
 2374              		.loc 1 900 12 view .LVU681
 2375 0230 3046     		mov	r0, r6
 2376 0232 67E7     		b	.L196
 2377              	.LVL210:
 2378              	.L200:
 857:Dsp/widget/wgt_core/UI_Controller.c **** 
 2379              		.loc 1 857 16 view .LVU682
 2380 0234 0020     		movs	r0, #0
 2381              	.LVL211:
ARM GAS  /var/folders/lx/hc4sn_b53233_zkc9xbbl97r0000gp/T//ccGA9DTo.s 			page 62


 857:Dsp/widget/wgt_core/UI_Controller.c **** 
 2382              		.loc 1 857 16 view .LVU683
 2383 0236 65E7     		b	.L196
 2384              	.LVL212:
 2385              	.L202:
 898:Dsp/widget/wgt_core/UI_Controller.c **** 
 2386              		.loc 1 898 16 view .LVU684
 2387 0238 0020     		movs	r0, #0
 2388 023a 63E7     		b	.L196
 2389              	.L203:
 900:Dsp/widget/wgt_core/UI_Controller.c **** }
 2390              		.loc 1 900 12 view .LVU685
 2391 023c 0120     		movs	r0, #1
 2392 023e 61E7     		b	.L196
 2393              	.L206:
 2394              		.align	2
 2395              	.L205:
 2396 0240 00000000 		.word	.LANCHOR0
 2397 0244 00000000 		.word	.LANCHOR2
 2398              		.cfi_endproc
 2399              	.LFE36:
 2401              		.section	.text.UI_ProcessBar_DspFrameBar,"ax",%progbits
 2402              		.align	1
 2403              		.syntax unified
 2404              		.thumb
 2405              		.thumb_func
 2406              		.fpu fpv4-sp-d16
 2408              	UI_ProcessBar_DspFrameBar:
 2409              	.LVL213:
 2410              	.LFB37:
 902:Dsp/widget/wgt_core/UI_Controller.c **** 
 903:Dsp/widget/wgt_core/UI_Controller.c **** static bool UI_ProcessBar_DspFrameBar(UI_ProcessBarObj_TypeDef *Obj)
 904:Dsp/widget/wgt_core/UI_Controller.c **** {
 2411              		.loc 1 904 1 is_stmt 1 view -0
 2412              		.cfi_startproc
 2413              		@ args = 0, pretend = 0, frame = 8
 2414              		@ frame_needed = 0, uses_anonymous_args = 0
 2415              		.loc 1 904 1 is_stmt 0 view .LVU687
 2416 0000 2DE9F047 		push	{r4, r5, r6, r7, r8, r9, r10, lr}
 2417              	.LCFI42:
 2418              		.cfi_def_cfa_offset 32
 2419              		.cfi_offset 4, -32
 2420              		.cfi_offset 5, -28
 2421              		.cfi_offset 6, -24
 2422              		.cfi_offset 7, -20
 2423              		.cfi_offset 8, -16
 2424              		.cfi_offset 9, -12
 2425              		.cfi_offset 10, -8
 2426              		.cfi_offset 14, -4
 2427 0004 84B0     		sub	sp, sp, #16
 2428              	.LCFI43:
 2429              		.cfi_def_cfa_offset 48
 2430 0006 0446     		mov	r4, r0
 905:Dsp/widget/wgt_core/UI_Controller.c ****     int16_t frame_CoordX = 0;
 2431              		.loc 1 905 5 is_stmt 1 view .LVU688
 2432              	.LVL214:
 906:Dsp/widget/wgt_core/UI_Controller.c ****     uint8_t frame_width = 0;
ARM GAS  /var/folders/lx/hc4sn_b53233_zkc9xbbl97r0000gp/T//ccGA9DTo.s 			page 63


 2433              		.loc 1 906 5 view .LVU689
 907:Dsp/widget/wgt_core/UI_Controller.c ****     uint8_t frame_Height = 0;
 2434              		.loc 1 907 5 view .LVU690
 908:Dsp/widget/wgt_core/UI_Controller.c ****     int16_t block_start_CoordX = 0;
 2435              		.loc 1 908 5 view .LVU691
 909:Dsp/widget/wgt_core/UI_Controller.c ****     int16_t block_start_CoordY = 0;
 2436              		.loc 1 909 5 view .LVU692
 910:Dsp/widget/wgt_core/UI_Controller.c ****     int16_t bar_len = 0;
 2437              		.loc 1 910 5 view .LVU693
 911:Dsp/widget/wgt_core/UI_Controller.c ****     int16_t mid_val = Obj->min + (Obj->range / 2);
 2438              		.loc 1 911 5 view .LVU694
 2439              		.loc 1 911 26 is_stmt 0 view .LVU695
 2440 0008 0269     		ldr	r2, [r0, #16]	@ unaligned
 2441              		.loc 1 911 38 view .LVU696
 2442 000a 8369     		ldr	r3, [r0, #24]	@ unaligned
 2443              		.loc 1 911 46 view .LVU697
 2444 000c 03EBD373 		add	r3, r3, r3, lsr #31
 2445              		.loc 1 911 32 view .LVU698
 2446 0010 02EB6303 		add	r3, r2, r3, asr #1
 2447              		.loc 1 911 13 view .LVU699
 2448 0014 0FFA83FA 		sxth	r10, r3
 2449              	.LVL215:
 912:Dsp/widget/wgt_core/UI_Controller.c ****     float Pcnt_Val = 0;
 2450              		.loc 1 912 5 is_stmt 1 view .LVU700
 913:Dsp/widget/wgt_core/UI_Controller.c **** 
 914:Dsp/widget/wgt_core/UI_Controller.c ****     if ((Obj == NULL) &&
 2451              		.loc 1 914 5 view .LVU701
 2452              		.loc 1 914 8 is_stmt 0 view .LVU702
 2453 0018 50B1     		cbz	r0, .L219
 2454              	.L208:
 915:Dsp/widget/wgt_core/UI_Controller.c ****         (UI_DspInterface.draw_str == NULL) &&
 916:Dsp/widget/wgt_core/UI_Controller.c ****         (UI_DspInterface.draw_rectangle == NULL) &&
 917:Dsp/widget/wgt_core/UI_Controller.c ****         (UI_DspInterface.draw_line_h == NULL) &&
 918:Dsp/widget/wgt_core/UI_Controller.c ****         (UI_DspInterface.fill_rectangle == NULL))
 919:Dsp/widget/wgt_core/UI_Controller.c ****         return false;
 920:Dsp/widget/wgt_core/UI_Controller.c **** 
 921:Dsp/widget/wgt_core/UI_Controller.c ****     frame_CoordX = Obj->Gen_Data.x + strlen(Obj->Gen_Data.label) * STR_DIS + 5;
 2455              		.loc 1 921 5 is_stmt 1 view .LVU703
 2456              		.loc 1 921 33 is_stmt 0 view .LVU704
 2457 001a B4F90420 		ldrsh	r2, [r4, #4]	@ unaligned
 2458              		.loc 1 921 58 view .LVU705
 2459 001e 2168     		ldr	r1, [r4]	@ unaligned
 2460              	.LVL216:
 922:Dsp/widget/wgt_core/UI_Controller.c **** 
 923:Dsp/widget/wgt_core/UI_Controller.c ****     switch (base_font)
 2461              		.loc 1 923 5 is_stmt 1 view .LVU706
 2462 0020 724B     		ldr	r3, .L221
 2463 0022 1878     		ldrb	r0, [r3]	@ zero_extendqisi2
 2464              	.LVL217:
 2465              		.loc 1 923 5 is_stmt 0 view .LVU707
 2466 0024 0828     		cmp	r0, #8
 2467 0026 15D0     		beq	.L220
 924:Dsp/widget/wgt_core/UI_Controller.c ****     {
 925:Dsp/widget/wgt_core/UI_Controller.c ****     case Font_8:
 926:Dsp/widget/wgt_core/UI_Controller.c ****         frame_Height = 5;
 927:Dsp/widget/wgt_core/UI_Controller.c ****         break;
 928:Dsp/widget/wgt_core/UI_Controller.c **** 
ARM GAS  /var/folders/lx/hc4sn_b53233_zkc9xbbl97r0000gp/T//ccGA9DTo.s 			page 64


 929:Dsp/widget/wgt_core/UI_Controller.c ****     case Font_12:
 930:Dsp/widget/wgt_core/UI_Controller.c ****     case Font_16:
 931:Dsp/widget/wgt_core/UI_Controller.c ****     default:
 932:Dsp/widget/wgt_core/UI_Controller.c ****         return false;
 2468              		.loc 1 932 16 view .LVU708
 2469 0028 0020     		movs	r0, #0
 2470              	.LVL218:
 2471              	.L209:
 933:Dsp/widget/wgt_core/UI_Controller.c ****     }
 934:Dsp/widget/wgt_core/UI_Controller.c **** 
 935:Dsp/widget/wgt_core/UI_Controller.c ****     if (Obj->width % 2 == 0)
 936:Dsp/widget/wgt_core/UI_Controller.c ****         frame_width = Obj->width + 1;
 937:Dsp/widget/wgt_core/UI_Controller.c **** 
 938:Dsp/widget/wgt_core/UI_Controller.c ****     UI_DspInterface.draw_str(base_font, Obj->Gen_Data.label, Obj->Gen_Data.x, Obj->Gen_Data.y - bas
 939:Dsp/widget/wgt_core/UI_Controller.c ****     UI_DspInterface.draw_rectangle(Obj->Gen_Data.x, Obj->Gen_Data.y, frame_width, frame_Height, DEF
 940:Dsp/widget/wgt_core/UI_Controller.c **** 
 941:Dsp/widget/wgt_core/UI_Controller.c ****     if (Obj->Mv_Dir == UI_ProcBar_GrothFrom_Left)
 942:Dsp/widget/wgt_core/UI_Controller.c ****     {
 943:Dsp/widget/wgt_core/UI_Controller.c ****         block_start_CoordX = Obj->Gen_Data.x + 2;
 944:Dsp/widget/wgt_core/UI_Controller.c ****         block_start_CoordY = Obj->Gen_Data.y + 2;
 945:Dsp/widget/wgt_core/UI_Controller.c **** 
 946:Dsp/widget/wgt_core/UI_Controller.c ****         bar_len = (Obj->cur_val / (float)Obj->range) * (frame_width - 5);
 947:Dsp/widget/wgt_core/UI_Controller.c **** 
 948:Dsp/widget/wgt_core/UI_Controller.c ****         UI_DspInterface.draw_line_h(block_start_CoordX, block_start_CoordY, bar_len, DEFAULT_PROCES
 949:Dsp/widget/wgt_core/UI_Controller.c ****     }
 950:Dsp/widget/wgt_core/UI_Controller.c ****     else if (Obj->Mv_Dir == UI_ProcBar_GrothFrom_Mid)
 951:Dsp/widget/wgt_core/UI_Controller.c ****     {
 952:Dsp/widget/wgt_core/UI_Controller.c ****         UI_DspInterface.draw_line_v(Obj->Gen_Data.x + frame_width / 2, Obj->Gen_Data.y, frame_Heigh
 953:Dsp/widget/wgt_core/UI_Controller.c ****         block_start_CoordY = Obj->Gen_Data.y + 2;
 954:Dsp/widget/wgt_core/UI_Controller.c **** 
 955:Dsp/widget/wgt_core/UI_Controller.c ****         if (Obj->cur_val < mid_val)
 956:Dsp/widget/wgt_core/UI_Controller.c ****         {
 957:Dsp/widget/wgt_core/UI_Controller.c ****             Pcnt_Val = (((Obj->range / 2) - Obj->cur_val) / ((float)(Obj->range / 2)));
 958:Dsp/widget/wgt_core/UI_Controller.c ****             block_start_CoordX = Obj->Gen_Data.x + 1 + frame_width / 2 - (Pcnt_Val * (frame_width -
 959:Dsp/widget/wgt_core/UI_Controller.c ****             UI_DspInterface.draw_line_h(block_start_CoordX, block_start_CoordY, (Pcnt_Val * (frame_
 960:Dsp/widget/wgt_core/UI_Controller.c ****         }
 961:Dsp/widget/wgt_core/UI_Controller.c ****         else if (Obj->cur_val > mid_val)
 962:Dsp/widget/wgt_core/UI_Controller.c ****         {
 963:Dsp/widget/wgt_core/UI_Controller.c ****             Pcnt_Val = ((Obj->cur_val - (Obj->range / 2)) / ((float)(Obj->range / 2)));
 964:Dsp/widget/wgt_core/UI_Controller.c **** 
 965:Dsp/widget/wgt_core/UI_Controller.c ****             block_start_CoordX = Obj->Gen_Data.x + frame_width / 2;
 966:Dsp/widget/wgt_core/UI_Controller.c ****             UI_DspInterface.draw_line_h(block_start_CoordX, block_start_CoordY, (Pcnt_Val * (frame_
 967:Dsp/widget/wgt_core/UI_Controller.c ****         }
 968:Dsp/widget/wgt_core/UI_Controller.c ****     }
 969:Dsp/widget/wgt_core/UI_Controller.c ****     else
 970:Dsp/widget/wgt_core/UI_Controller.c ****         return false;
 971:Dsp/widget/wgt_core/UI_Controller.c **** 
 972:Dsp/widget/wgt_core/UI_Controller.c ****     return true;
 973:Dsp/widget/wgt_core/UI_Controller.c **** }
 2472              		.loc 1 973 1 view .LVU709
 2473 002a 04B0     		add	sp, sp, #16
 2474              	.LCFI44:
 2475              		.cfi_remember_state
 2476              		.cfi_def_cfa_offset 32
 2477              		@ sp needed
 2478 002c BDE8F087 		pop	{r4, r5, r6, r7, r8, r9, r10, pc}
 2479              	.LVL219:
ARM GAS  /var/folders/lx/hc4sn_b53233_zkc9xbbl97r0000gp/T//ccGA9DTo.s 			page 65


 2480              	.L219:
 2481              	.LCFI45:
 2482              		.cfi_restore_state
 915:Dsp/widget/wgt_core/UI_Controller.c ****         (UI_DspInterface.draw_rectangle == NULL) &&
 2483              		.loc 1 915 25 discriminator 1 view .LVU710
 2484 0030 6F4B     		ldr	r3, .L221+4
 2485 0032 1B68     		ldr	r3, [r3]
 914:Dsp/widget/wgt_core/UI_Controller.c ****         (UI_DspInterface.draw_str == NULL) &&
 2486              		.loc 1 914 23 discriminator 1 view .LVU711
 2487 0034 002B     		cmp	r3, #0
 2488 0036 F0D1     		bne	.L208
 916:Dsp/widget/wgt_core/UI_Controller.c ****         (UI_DspInterface.draw_line_h == NULL) &&
 2489              		.loc 1 916 25 view .LVU712
 2490 0038 6D4B     		ldr	r3, .L221+4
 2491 003a 9B69     		ldr	r3, [r3, #24]
 915:Dsp/widget/wgt_core/UI_Controller.c ****         (UI_DspInterface.draw_rectangle == NULL) &&
 2492              		.loc 1 915 44 view .LVU713
 2493 003c 002B     		cmp	r3, #0
 2494 003e ECD1     		bne	.L208
 917:Dsp/widget/wgt_core/UI_Controller.c ****         (UI_DspInterface.fill_rectangle == NULL))
 2495              		.loc 1 917 25 view .LVU714
 2496 0040 6B4B     		ldr	r3, .L221+4
 2497 0042 DB68     		ldr	r3, [r3, #12]
 916:Dsp/widget/wgt_core/UI_Controller.c ****         (UI_DspInterface.draw_line_h == NULL) &&
 2498              		.loc 1 916 50 view .LVU715
 2499 0044 002B     		cmp	r3, #0
 2500 0046 E8D1     		bne	.L208
 918:Dsp/widget/wgt_core/UI_Controller.c ****         return false;
 2501              		.loc 1 918 25 view .LVU716
 2502 0048 694B     		ldr	r3, .L221+4
 2503 004a 5B6A     		ldr	r3, [r3, #36]
 917:Dsp/widget/wgt_core/UI_Controller.c ****         (UI_DspInterface.fill_rectangle == NULL))
 2504              		.loc 1 917 47 view .LVU717
 2505 004c 002B     		cmp	r3, #0
 2506 004e E4D1     		bne	.L208
 919:Dsp/widget/wgt_core/UI_Controller.c **** 
 2507              		.loc 1 919 16 view .LVU718
 2508 0050 0020     		movs	r0, #0
 2509              	.LVL220:
 919:Dsp/widget/wgt_core/UI_Controller.c **** 
 2510              		.loc 1 919 16 view .LVU719
 2511 0052 EAE7     		b	.L209
 2512              	.LVL221:
 2513              	.L220:
 926:Dsp/widget/wgt_core/UI_Controller.c ****         break;
 2514              		.loc 1 926 9 is_stmt 1 view .LVU720
 927:Dsp/widget/wgt_core/UI_Controller.c **** 
 2515              		.loc 1 927 9 view .LVU721
 935:Dsp/widget/wgt_core/UI_Controller.c ****         frame_width = Obj->width + 1;
 2516              		.loc 1 935 5 view .LVU722
 935:Dsp/widget/wgt_core/UI_Controller.c ****         frame_width = Obj->width + 1;
 2517              		.loc 1 935 12 is_stmt 0 view .LVU723
 2518 0054 94F82060 		ldrb	r6, [r4, #32]	@ zero_extendqisi2
 935:Dsp/widget/wgt_core/UI_Controller.c ****         frame_width = Obj->width + 1;
 2519              		.loc 1 935 8 view .LVU724
 2520 0058 16F0010F 		tst	r6, #1
 2521 005c 43D1     		bne	.L215
ARM GAS  /var/folders/lx/hc4sn_b53233_zkc9xbbl97r0000gp/T//ccGA9DTo.s 			page 66


 936:Dsp/widget/wgt_core/UI_Controller.c **** 
 2522              		.loc 1 936 9 is_stmt 1 view .LVU725
 936:Dsp/widget/wgt_core/UI_Controller.c **** 
 2523              		.loc 1 936 21 is_stmt 0 view .LVU726
 2524 005e 0136     		adds	r6, r6, #1
 2525 0060 F6B2     		uxtb	r6, r6
 2526              	.LVL222:
 2527              	.L210:
 938:Dsp/widget/wgt_core/UI_Controller.c ****     UI_DspInterface.draw_rectangle(Obj->Gen_Data.x, Obj->Gen_Data.y, frame_width, frame_Height, DEF
 2528              		.loc 1 938 5 is_stmt 1 view .LVU727
 938:Dsp/widget/wgt_core/UI_Controller.c ****     UI_DspInterface.draw_rectangle(Obj->Gen_Data.x, Obj->Gen_Data.y, frame_width, frame_Height, DEF
 2529              		.loc 1 938 20 is_stmt 0 view .LVU728
 2530 0062 634F     		ldr	r7, .L221+4
 938:Dsp/widget/wgt_core/UI_Controller.c ****     UI_DspInterface.draw_rectangle(Obj->Gen_Data.x, Obj->Gen_Data.y, frame_width, frame_Height, DEF
 2531              		.loc 1 938 92 view .LVU729
 2532 0064 E388     		ldrh	r3, [r4, #6]	@ unaligned
 938:Dsp/widget/wgt_core/UI_Controller.c ****     UI_DspInterface.draw_rectangle(Obj->Gen_Data.x, Obj->Gen_Data.y, frame_width, frame_Height, DEF
 2533              		.loc 1 938 95 view .LVU730
 2534 0066 1B1A     		subs	r3, r3, r0
 2535 0068 9BB2     		uxth	r3, r3
 938:Dsp/widget/wgt_core/UI_Controller.c ****     UI_DspInterface.draw_rectangle(Obj->Gen_Data.x, Obj->Gen_Data.y, frame_width, frame_Height, DEF
 2536              		.loc 1 938 107 view .LVU731
 2537 006a 033B     		subs	r3, r3, #3
 938:Dsp/widget/wgt_core/UI_Controller.c ****     UI_DspInterface.draw_rectangle(Obj->Gen_Data.x, Obj->Gen_Data.y, frame_width, frame_Height, DEF
 2538              		.loc 1 938 5 view .LVU732
 2539 006c 4FF00108 		mov	r8, #1
 2540 0070 CDF80080 		str	r8, [sp]
 938:Dsp/widget/wgt_core/UI_Controller.c ****     UI_DspInterface.draw_rectangle(Obj->Gen_Data.x, Obj->Gen_Data.y, frame_width, frame_Height, DEF
 2541              		.loc 1 938 5 view .LVU733
 2542 0074 1BB2     		sxth	r3, r3
 2543 0076 3D68     		ldr	r5, [r7]
 2544 0078 A847     		blx	r5
 2545              	.LVL223:
 939:Dsp/widget/wgt_core/UI_Controller.c **** 
 2546              		.loc 1 939 5 is_stmt 1 view .LVU734
 939:Dsp/widget/wgt_core/UI_Controller.c **** 
 2547              		.loc 1 939 20 is_stmt 0 view .LVU735
 2548 007a BF69     		ldr	r7, [r7, #24]
 939:Dsp/widget/wgt_core/UI_Controller.c **** 
 2549              		.loc 1 939 5 view .LVU736
 2550 007c CDF80480 		str	r8, [sp, #4]
 2551 0080 CDF80080 		str	r8, [sp]
 2552 0084 0523     		movs	r3, #5
 2553 0086 3246     		mov	r2, r6
 2554 0088 B4F90610 		ldrsh	r1, [r4, #6]	@ unaligned
 2555 008c B4F90400 		ldrsh	r0, [r4, #4]	@ unaligned
 2556 0090 B847     		blx	r7
 2557              	.LVL224:
 941:Dsp/widget/wgt_core/UI_Controller.c ****     {
 2558              		.loc 1 941 5 is_stmt 1 view .LVU737
 941:Dsp/widget/wgt_core/UI_Controller.c ****     {
 2559              		.loc 1 941 12 is_stmt 0 view .LVU738
 2560 0092 94F82430 		ldrb	r3, [r4, #36]	@ zero_extendqisi2
 941:Dsp/widget/wgt_core/UI_Controller.c ****     {
 2561              		.loc 1 941 8 view .LVU739
 2562 0096 43BB     		cbnz	r3, .L211
 943:Dsp/widget/wgt_core/UI_Controller.c ****         block_start_CoordY = Obj->Gen_Data.y + 2;
ARM GAS  /var/folders/lx/hc4sn_b53233_zkc9xbbl97r0000gp/T//ccGA9DTo.s 			page 67


 2563              		.loc 1 943 9 is_stmt 1 view .LVU740
 943:Dsp/widget/wgt_core/UI_Controller.c ****         block_start_CoordY = Obj->Gen_Data.y + 2;
 2564              		.loc 1 943 43 is_stmt 0 view .LVU741
 2565 0098 A088     		ldrh	r0, [r4, #4]	@ unaligned
 943:Dsp/widget/wgt_core/UI_Controller.c ****         block_start_CoordY = Obj->Gen_Data.y + 2;
 2566              		.loc 1 943 46 view .LVU742
 2567 009a 0230     		adds	r0, r0, #2
 2568              	.LVL225:
 944:Dsp/widget/wgt_core/UI_Controller.c **** 
 2569              		.loc 1 944 9 is_stmt 1 view .LVU743
 944:Dsp/widget/wgt_core/UI_Controller.c **** 
 2570              		.loc 1 944 43 is_stmt 0 view .LVU744
 2571 009c E188     		ldrh	r1, [r4, #6]	@ unaligned
 944:Dsp/widget/wgt_core/UI_Controller.c **** 
 2572              		.loc 1 944 46 view .LVU745
 2573 009e 0231     		adds	r1, r1, #2
 2574              	.LVL226:
 946:Dsp/widget/wgt_core/UI_Controller.c **** 
 2575              		.loc 1 946 9 is_stmt 1 view .LVU746
 946:Dsp/widget/wgt_core/UI_Controller.c **** 
 2576              		.loc 1 946 23 is_stmt 0 view .LVU747
 2577 00a0 E369     		ldr	r3, [r4, #28]	@ unaligned
 2578 00a2 06EE903A 		vmov	s13, r3	@ int
 946:Dsp/widget/wgt_core/UI_Controller.c **** 
 2579              		.loc 1 946 45 view .LVU748
 2580 00a6 A369     		ldr	r3, [r4, #24]	@ unaligned
 2581 00a8 07EE103A 		vmov	s14, r3	@ int
 946:Dsp/widget/wgt_core/UI_Controller.c **** 
 2582              		.loc 1 946 35 view .LVU749
 2583 00ac B8EEC77A 		vcvt.f32.s32	s14, s14
 946:Dsp/widget/wgt_core/UI_Controller.c **** 
 2584              		.loc 1 946 33 view .LVU750
 2585 00b0 F8EEE66A 		vcvt.f32.s32	s13, s13
 2586 00b4 86EE876A 		vdiv.f32	s12, s13, s14
 946:Dsp/widget/wgt_core/UI_Controller.c **** 
 2587              		.loc 1 946 69 view .LVU751
 2588 00b8 731F     		subs	r3, r6, #5
 2589 00ba 07EE903A 		vmov	s15, r3	@ int
 946:Dsp/widget/wgt_core/UI_Controller.c **** 
 2590              		.loc 1 946 54 view .LVU752
 2591 00be F8EEE77A 		vcvt.f32.s32	s15, s15
 2592 00c2 67EE867A 		vmul.f32	s15, s15, s12
 946:Dsp/widget/wgt_core/UI_Controller.c **** 
 2593              		.loc 1 946 17 view .LVU753
 2594 00c6 FDEEE77A 		vcvt.s32.f32	s15, s15
 2595 00ca CDED037A 		vstr.32	s15, [sp, #12]	@ int
 2596              	.LVL227:
 948:Dsp/widget/wgt_core/UI_Controller.c ****     }
 2597              		.loc 1 948 9 is_stmt 1 view .LVU754
 948:Dsp/widget/wgt_core/UI_Controller.c ****     }
 2598              		.loc 1 948 24 is_stmt 0 view .LVU755
 2599 00ce 484B     		ldr	r3, .L221+4
 2600 00d0 DD68     		ldr	r5, [r3, #12]
 948:Dsp/widget/wgt_core/UI_Controller.c ****     }
 2601              		.loc 1 948 9 view .LVU756
 2602 00d2 CDF80080 		str	r8, [sp]
 2603 00d6 4346     		mov	r3, r8
ARM GAS  /var/folders/lx/hc4sn_b53233_zkc9xbbl97r0000gp/T//ccGA9DTo.s 			page 68


 2604 00d8 9DF80C20 		ldrb	r2, [sp, #12]	@ zero_extendqisi2
 2605 00dc 09B2     		sxth	r1, r1
 948:Dsp/widget/wgt_core/UI_Controller.c ****     }
 2606              		.loc 1 948 9 view .LVU757
 2607 00de 00B2     		sxth	r0, r0
 948:Dsp/widget/wgt_core/UI_Controller.c ****     }
 2608              		.loc 1 948 9 view .LVU758
 2609 00e0 A847     		blx	r5
 2610              	.LVL228:
 972:Dsp/widget/wgt_core/UI_Controller.c **** }
 2611              		.loc 1 972 12 view .LVU759
 2612 00e2 4046     		mov	r0, r8
 2613 00e4 A1E7     		b	.L209
 2614              	.LVL229:
 2615              	.L215:
 906:Dsp/widget/wgt_core/UI_Controller.c ****     uint8_t frame_Height = 0;
 2616              		.loc 1 906 13 view .LVU760
 2617 00e6 0026     		movs	r6, #0
 2618 00e8 BBE7     		b	.L210
 2619              	.LVL230:
 2620              	.L211:
 950:Dsp/widget/wgt_core/UI_Controller.c ****     {
 2621              		.loc 1 950 10 is_stmt 1 view .LVU761
 950:Dsp/widget/wgt_core/UI_Controller.c ****     {
 2622              		.loc 1 950 13 is_stmt 0 view .LVU762
 2623 00ea 012B     		cmp	r3, #1
 2624 00ec 79D1     		bne	.L216
 952:Dsp/widget/wgt_core/UI_Controller.c ****         block_start_CoordY = Obj->Gen_Data.y + 2;
 2625              		.loc 1 952 9 is_stmt 1 view .LVU763
 952:Dsp/widget/wgt_core/UI_Controller.c ****         block_start_CoordY = Obj->Gen_Data.y + 2;
 2626              		.loc 1 952 24 is_stmt 0 view .LVU764
 2627 00ee 404B     		ldr	r3, .L221+4
 2628 00f0 D3F81090 		ldr	r9, [r3, #16]
 952:Dsp/widget/wgt_core/UI_Controller.c ****         block_start_CoordY = Obj->Gen_Data.y + 2;
 2629              		.loc 1 952 50 view .LVU765
 2630 00f4 A088     		ldrh	r0, [r4, #4]	@ unaligned
 952:Dsp/widget/wgt_core/UI_Controller.c ****         block_start_CoordY = Obj->Gen_Data.y + 2;
 2631              		.loc 1 952 53 view .LVU766
 2632 00f6 7708     		lsrs	r7, r6, #1
 2633 00f8 00EB5600 		add	r0, r0, r6, lsr #1
 952:Dsp/widget/wgt_core/UI_Controller.c ****         block_start_CoordY = Obj->Gen_Data.y + 2;
 2634              		.loc 1 952 9 view .LVU767
 2635 00fc 0123     		movs	r3, #1
 2636 00fe 0093     		str	r3, [sp]
 2637 0100 0422     		movs	r2, #4
 2638 0102 B4F90610 		ldrsh	r1, [r4, #6]	@ unaligned
 2639 0106 00B2     		sxth	r0, r0
 2640 0108 C847     		blx	r9
 2641              	.LVL231:
 953:Dsp/widget/wgt_core/UI_Controller.c **** 
 2642              		.loc 1 953 9 is_stmt 1 view .LVU768
 953:Dsp/widget/wgt_core/UI_Controller.c **** 
 2643              		.loc 1 953 43 is_stmt 0 view .LVU769
 2644 010a E188     		ldrh	r1, [r4, #6]	@ unaligned
 953:Dsp/widget/wgt_core/UI_Controller.c **** 
 2645              		.loc 1 953 46 view .LVU770
 2646 010c 0231     		adds	r1, r1, #2
ARM GAS  /var/folders/lx/hc4sn_b53233_zkc9xbbl97r0000gp/T//ccGA9DTo.s 			page 69


 953:Dsp/widget/wgt_core/UI_Controller.c **** 
 2647              		.loc 1 953 28 view .LVU771
 2648 010e 09B2     		sxth	r1, r1
 2649              	.LVL232:
 955:Dsp/widget/wgt_core/UI_Controller.c ****         {
 2650              		.loc 1 955 9 is_stmt 1 view .LVU772
 955:Dsp/widget/wgt_core/UI_Controller.c ****         {
 2651              		.loc 1 955 16 is_stmt 0 view .LVU773
 2652 0110 E369     		ldr	r3, [r4, #28]	@ unaligned
 955:Dsp/widget/wgt_core/UI_Controller.c ****         {
 2653              		.loc 1 955 12 view .LVU774
 2654 0112 5345     		cmp	r3, r10
 2655 0114 37DA     		bge	.L212
 957:Dsp/widget/wgt_core/UI_Controller.c ****             block_start_CoordX = Obj->Gen_Data.x + 1 + frame_width / 2 - (Pcnt_Val * (frame_width -
 2656              		.loc 1 957 13 is_stmt 1 view .LVU775
 957:Dsp/widget/wgt_core/UI_Controller.c ****             block_start_CoordX = Obj->Gen_Data.x + 1 + frame_width / 2 - (Pcnt_Val * (frame_width -
 2657              		.loc 1 957 30 is_stmt 0 view .LVU776
 2658 0116 A269     		ldr	r2, [r4, #24]	@ unaligned
 957:Dsp/widget/wgt_core/UI_Controller.c ****             block_start_CoordX = Obj->Gen_Data.x + 1 + frame_width / 2 - (Pcnt_Val * (frame_width -
 2659              		.loc 1 957 38 view .LVU777
 2660 0118 02EBD272 		add	r2, r2, r2, lsr #31
 2661 011c 5010     		asrs	r0, r2, #1
 2662 011e 06EE900A 		vmov	s13, r0	@ int
 957:Dsp/widget/wgt_core/UI_Controller.c ****             block_start_CoordX = Obj->Gen_Data.x + 1 + frame_width / 2 - (Pcnt_Val * (frame_width -
 2663              		.loc 1 957 43 view .LVU778
 2664 0122 C3EB6203 		rsb	r3, r3, r2, asr #1
 957:Dsp/widget/wgt_core/UI_Controller.c ****             block_start_CoordX = Obj->Gen_Data.x + 1 + frame_width / 2 - (Pcnt_Val * (frame_width -
 2665              		.loc 1 957 59 view .LVU779
 2666 0126 07EE903A 		vmov	s15, r3	@ int
 2667 012a F8EEE77A 		vcvt.f32.s32	s15, s15
 957:Dsp/widget/wgt_core/UI_Controller.c ****             block_start_CoordX = Obj->Gen_Data.x + 1 + frame_width / 2 - (Pcnt_Val * (frame_width -
 2668              		.loc 1 957 62 view .LVU780
 2669 012e F8EEE66A 		vcvt.f32.s32	s13, s13
 957:Dsp/widget/wgt_core/UI_Controller.c ****             block_start_CoordX = Obj->Gen_Data.x + 1 + frame_width / 2 - (Pcnt_Val * (frame_width -
 2670              		.loc 1 957 22 view .LVU781
 2671 0132 87EEA66A 		vdiv.f32	s12, s15, s13
 2672              	.LVL233:
 958:Dsp/widget/wgt_core/UI_Controller.c ****             UI_DspInterface.draw_line_h(block_start_CoordX, block_start_CoordY, (Pcnt_Val * (frame_
 2673              		.loc 1 958 13 is_stmt 1 view .LVU782
 958:Dsp/widget/wgt_core/UI_Controller.c ****             UI_DspInterface.draw_line_h(block_start_CoordX, block_start_CoordY, (Pcnt_Val * (frame_
 2674              		.loc 1 958 47 is_stmt 0 view .LVU783
 2675 0136 B4F90430 		ldrsh	r3, [r4, #4]	@ unaligned
 958:Dsp/widget/wgt_core/UI_Controller.c ****             UI_DspInterface.draw_line_h(block_start_CoordX, block_start_CoordY, (Pcnt_Val * (frame_
 2676              		.loc 1 958 50 view .LVU784
 2677 013a 0133     		adds	r3, r3, #1
 958:Dsp/widget/wgt_core/UI_Controller.c ****             UI_DspInterface.draw_line_h(block_start_CoordX, block_start_CoordY, (Pcnt_Val * (frame_
 2678              		.loc 1 958 54 view .LVU785
 2679 013c 3B44     		add	r3, r3, r7
 2680 013e 07EE903A 		vmov	s15, r3	@ int
 958:Dsp/widget/wgt_core/UI_Controller.c ****             UI_DspInterface.draw_line_h(block_start_CoordX, block_start_CoordY, (Pcnt_Val * (frame_
 2681              		.loc 1 958 99 view .LVU786
 2682 0142 331F     		subs	r3, r6, #4
 2683 0144 07EE103A 		vmov	s14, r3	@ int
 958:Dsp/widget/wgt_core/UI_Controller.c ****             UI_DspInterface.draw_line_h(block_start_CoordX, block_start_CoordY, (Pcnt_Val * (frame_
 2684              		.loc 1 958 84 view .LVU787
 2685 0148 B8EEC77A 		vcvt.f32.s32	s14, s14
 2686 014c 27EE067A 		vmul.f32	s14, s14, s12
ARM GAS  /var/folders/lx/hc4sn_b53233_zkc9xbbl97r0000gp/T//ccGA9DTo.s 			page 70


 958:Dsp/widget/wgt_core/UI_Controller.c ****             UI_DspInterface.draw_line_h(block_start_CoordX, block_start_CoordY, (Pcnt_Val * (frame_
 2687              		.loc 1 958 104 view .LVU788
 2688 0150 F6EE006A 		vmov.f32	s13, #5.0e-1
 2689 0154 27EE267A 		vmul.f32	s14, s14, s13
 958:Dsp/widget/wgt_core/UI_Controller.c ****             UI_DspInterface.draw_line_h(block_start_CoordX, block_start_CoordY, (Pcnt_Val * (frame_
 2690              		.loc 1 958 72 view .LVU789
 2691 0158 F8EEE77A 		vcvt.f32.s32	s15, s15
 2692 015c 77EEC77A 		vsub.f32	s15, s15, s14
 958:Dsp/widget/wgt_core/UI_Controller.c ****             UI_DspInterface.draw_line_h(block_start_CoordX, block_start_CoordY, (Pcnt_Val * (frame_
 2693              		.loc 1 958 32 view .LVU790
 2694 0160 FDEEE77A 		vcvt.s32.f32	s15, s15
 2695              	.LVL234:
 959:Dsp/widget/wgt_core/UI_Controller.c ****         }
 2696              		.loc 1 959 13 is_stmt 1 view .LVU791
 959:Dsp/widget/wgt_core/UI_Controller.c ****         }
 2697              		.loc 1 959 28 is_stmt 0 view .LVU792
 2698 0164 224B     		ldr	r3, .L221+4
 2699 0166 DD68     		ldr	r5, [r3, #12]
 959:Dsp/widget/wgt_core/UI_Controller.c ****         }
 2700              		.loc 1 959 13 view .LVU793
 2701 0168 BCEEC77A 		vcvt.u32.f32	s14, s14
 2702 016c 8DED037A 		vstr.32	s14, [sp, #12]	@ int
 2703 0170 0124     		movs	r4, #1
 2704              	.LVL235:
 959:Dsp/widget/wgt_core/UI_Controller.c ****         }
 2705              		.loc 1 959 13 view .LVU794
 2706 0172 0094     		str	r4, [sp]
 2707 0174 2346     		mov	r3, r4
 2708 0176 9DF80C20 		ldrb	r2, [sp, #12]	@ zero_extendqisi2
 2709 017a 17EE900A 		vmov	r0, s15	@ int
 2710 017e 00B2     		sxth	r0, r0
 2711 0180 A847     		blx	r5
 2712              	.LVL236:
 972:Dsp/widget/wgt_core/UI_Controller.c **** }
 2713              		.loc 1 972 12 view .LVU795
 2714 0182 2046     		mov	r0, r4
 2715 0184 51E7     		b	.L209
 2716              	.LVL237:
 2717              	.L212:
 961:Dsp/widget/wgt_core/UI_Controller.c ****         {
 2718              		.loc 1 961 14 is_stmt 1 view .LVU796
 961:Dsp/widget/wgt_core/UI_Controller.c ****         {
 2719              		.loc 1 961 17 is_stmt 0 view .LVU797
 2720 0186 5345     		cmp	r3, r10
 2721 0188 2DDD     		ble	.L217
 963:Dsp/widget/wgt_core/UI_Controller.c **** 
 2722              		.loc 1 963 13 is_stmt 1 view .LVU798
 963:Dsp/widget/wgt_core/UI_Controller.c **** 
 2723              		.loc 1 963 45 is_stmt 0 view .LVU799
 2724 018a A269     		ldr	r2, [r4, #24]	@ unaligned
 963:Dsp/widget/wgt_core/UI_Controller.c **** 
 2725              		.loc 1 963 53 view .LVU800
 2726 018c 02EBD272 		add	r2, r2, r2, lsr #31
 963:Dsp/widget/wgt_core/UI_Controller.c **** 
 2727              		.loc 1 963 39 view .LVU801
 2728 0190 A3EB6203 		sub	r3, r3, r2, asr #1
 963:Dsp/widget/wgt_core/UI_Controller.c **** 
ARM GAS  /var/folders/lx/hc4sn_b53233_zkc9xbbl97r0000gp/T//ccGA9DTo.s 			page 71


 2729              		.loc 1 963 59 view .LVU802
 2730 0194 07EE903A 		vmov	s15, r3	@ int
 2731 0198 B8EEE77A 		vcvt.f32.s32	s14, s15
 963:Dsp/widget/wgt_core/UI_Controller.c **** 
 2732              		.loc 1 963 81 view .LVU803
 2733 019c 5210     		asrs	r2, r2, #1
 963:Dsp/widget/wgt_core/UI_Controller.c **** 
 2734              		.loc 1 963 62 view .LVU804
 2735 019e 07EE902A 		vmov	s15, r2	@ int
 2736 01a2 F8EEE76A 		vcvt.f32.s32	s13, s15
 963:Dsp/widget/wgt_core/UI_Controller.c **** 
 2737              		.loc 1 963 22 view .LVU805
 2738 01a6 87EE266A 		vdiv.f32	s12, s14, s13
 2739              	.LVL238:
 965:Dsp/widget/wgt_core/UI_Controller.c ****             UI_DspInterface.draw_line_h(block_start_CoordX, block_start_CoordY, (Pcnt_Val * (frame_
 2740              		.loc 1 965 13 is_stmt 1 view .LVU806
 965:Dsp/widget/wgt_core/UI_Controller.c ****             UI_DspInterface.draw_line_h(block_start_CoordX, block_start_CoordY, (Pcnt_Val * (frame_
 2741              		.loc 1 965 47 is_stmt 0 view .LVU807
 2742 01aa A088     		ldrh	r0, [r4, #4]	@ unaligned
 965:Dsp/widget/wgt_core/UI_Controller.c ****             UI_DspInterface.draw_line_h(block_start_CoordX, block_start_CoordY, (Pcnt_Val * (frame_
 2743              		.loc 1 965 50 view .LVU808
 2744 01ac 3844     		add	r0, r0, r7
 2745              	.LVL239:
 966:Dsp/widget/wgt_core/UI_Controller.c ****         }
 2746              		.loc 1 966 13 is_stmt 1 view .LVU809
 966:Dsp/widget/wgt_core/UI_Controller.c ****         }
 2747              		.loc 1 966 28 is_stmt 0 view .LVU810
 2748 01ae 104B     		ldr	r3, .L221+4
 2749 01b0 DD68     		ldr	r5, [r3, #12]
 966:Dsp/widget/wgt_core/UI_Controller.c ****         }
 2750              		.loc 1 966 106 view .LVU811
 2751 01b2 331F     		subs	r3, r6, #4
 2752 01b4 07EE903A 		vmov	s15, r3	@ int
 966:Dsp/widget/wgt_core/UI_Controller.c ****         }
 2753              		.loc 1 966 91 view .LVU812
 2754 01b8 F8EEE77A 		vcvt.f32.s32	s15, s15
 2755 01bc 67EE867A 		vmul.f32	s15, s15, s12
 966:Dsp/widget/wgt_core/UI_Controller.c ****         }
 2756              		.loc 1 966 111 view .LVU813
 2757 01c0 B6EE007A 		vmov.f32	s14, #5.0e-1
 2758 01c4 67EE877A 		vmul.f32	s15, s15, s14
 966:Dsp/widget/wgt_core/UI_Controller.c ****         }
 2759              		.loc 1 966 13 view .LVU814
 2760 01c8 FCEEE77A 		vcvt.u32.f32	s15, s15
 2761 01cc CDED037A 		vstr.32	s15, [sp, #12]	@ int
 2762 01d0 0124     		movs	r4, #1
 2763              	.LVL240:
 966:Dsp/widget/wgt_core/UI_Controller.c ****         }
 2764              		.loc 1 966 13 view .LVU815
 2765 01d2 0094     		str	r4, [sp]
 2766 01d4 2346     		mov	r3, r4
 2767 01d6 9DF80C20 		ldrb	r2, [sp, #12]	@ zero_extendqisi2
 2768 01da 00B2     		sxth	r0, r0
 966:Dsp/widget/wgt_core/UI_Controller.c ****         }
 2769              		.loc 1 966 13 view .LVU816
 2770 01dc A847     		blx	r5
 2771              	.LVL241:
ARM GAS  /var/folders/lx/hc4sn_b53233_zkc9xbbl97r0000gp/T//ccGA9DTo.s 			page 72


 972:Dsp/widget/wgt_core/UI_Controller.c **** }
 2772              		.loc 1 972 12 view .LVU817
 2773 01de 2046     		mov	r0, r4
 2774 01e0 23E7     		b	.L209
 2775              	.LVL242:
 2776              	.L216:
 970:Dsp/widget/wgt_core/UI_Controller.c **** 
 2777              		.loc 1 970 16 view .LVU818
 2778 01e2 0020     		movs	r0, #0
 2779 01e4 21E7     		b	.L209
 2780              	.LVL243:
 2781              	.L217:
 972:Dsp/widget/wgt_core/UI_Controller.c **** }
 2782              		.loc 1 972 12 view .LVU819
 2783 01e6 0120     		movs	r0, #1
 2784 01e8 1FE7     		b	.L209
 2785              	.L222:
 2786 01ea 00BF     		.align	2
 2787              	.L221:
 2788 01ec 00000000 		.word	.LANCHOR2
 2789 01f0 00000000 		.word	.LANCHOR0
 2790              		.cfi_endproc
 2791              	.LFE37:
 2793              		.section	.text.UI_ProcessBar_SetLabelPos,"ax",%progbits
 2794              		.align	1
 2795              		.syntax unified
 2796              		.thumb
 2797              		.thumb_func
 2798              		.fpu fpv4-sp-d16
 2800              	UI_ProcessBar_SetLabelPos:
 2801              	.LVL244:
 2802              	.LFB38:
 974:Dsp/widget/wgt_core/UI_Controller.c **** 
 975:Dsp/widget/wgt_core/UI_Controller.c **** static bool UI_ProcessBar_SetLabelPos(UI_ProcessBarObj_TypeDef *Obj, UI_ProcessBar_LabelPos_List Po
 976:Dsp/widget/wgt_core/UI_Controller.c **** {
 2803              		.loc 1 976 1 is_stmt 1 view -0
 2804              		.cfi_startproc
 2805              		@ args = 0, pretend = 0, frame = 0
 2806              		@ frame_needed = 0, uses_anonymous_args = 0
 2807              		@ link register save eliminated.
 977:Dsp/widget/wgt_core/UI_Controller.c ****     if ((Obj == NULL) || (Obj->Dsp_Type == UI_ProcBar_DspType_LoadBar))
 2808              		.loc 1 977 5 view .LVU821
 2809              		.loc 1 977 8 is_stmt 0 view .LVU822
 2810 0000 20B1     		cbz	r0, .L225
 2811              		.loc 1 977 30 discriminator 1 view .LVU823
 2812 0002 90F82330 		ldrb	r3, [r0, #35]	@ zero_extendqisi2
 2813              		.loc 1 977 23 discriminator 1 view .LVU824
 2814 0006 1BB1     		cbz	r3, .L226
 978:Dsp/widget/wgt_core/UI_Controller.c ****         return false;
 979:Dsp/widget/wgt_core/UI_Controller.c **** 
 980:Dsp/widget/wgt_core/UI_Controller.c ****     return true;
 2815              		.loc 1 980 12 view .LVU825
 2816 0008 0120     		movs	r0, #1
 2817              	.LVL245:
 2818              		.loc 1 980 12 view .LVU826
 2819 000a 7047     		bx	lr
 2820              	.LVL246:
ARM GAS  /var/folders/lx/hc4sn_b53233_zkc9xbbl97r0000gp/T//ccGA9DTo.s 			page 73


 2821              	.L225:
 978:Dsp/widget/wgt_core/UI_Controller.c ****         return false;
 2822              		.loc 1 978 16 view .LVU827
 2823 000c 0020     		movs	r0, #0
 2824              	.LVL247:
 978:Dsp/widget/wgt_core/UI_Controller.c ****         return false;
 2825              		.loc 1 978 16 view .LVU828
 2826 000e 7047     		bx	lr
 2827              	.LVL248:
 2828              	.L226:
 978:Dsp/widget/wgt_core/UI_Controller.c ****         return false;
 2829              		.loc 1 978 16 view .LVU829
 2830 0010 0020     		movs	r0, #0
 2831              	.LVL249:
 981:Dsp/widget/wgt_core/UI_Controller.c **** }
 2832              		.loc 1 981 1 view .LVU830
 2833 0012 7047     		bx	lr
 2834              		.cfi_endproc
 2835              	.LFE38:
 2837              		.section	.text.UI_Drop_Init,"ax",%progbits
 2838              		.align	1
 2839              		.syntax unified
 2840              		.thumb
 2841              		.thumb_func
 2842              		.fpu fpv4-sp-d16
 2844              	UI_Drop_Init:
 2845              	.LVL250:
 2846              	.LFB40:
 982:Dsp/widget/wgt_core/UI_Controller.c **** 
 983:Dsp/widget/wgt_core/UI_Controller.c **** static bool UI_ProcessBar_Ctl(UI_ProcessBarObj_TypeDef *Obj)
 984:Dsp/widget/wgt_core/UI_Controller.c **** {
 985:Dsp/widget/wgt_core/UI_Controller.c ****     char dig_str[3];
 986:Dsp/widget/wgt_core/UI_Controller.c ****     memset(dig_str, NULL, 3);
 987:Dsp/widget/wgt_core/UI_Controller.c **** 
 988:Dsp/widget/wgt_core/UI_Controller.c ****     if ((UI_DspInterface.draw_radius_rectangle == NULL) ||
 989:Dsp/widget/wgt_core/UI_Controller.c ****         (UI_DspInterface.draw_str == NULL))
 990:Dsp/widget/wgt_core/UI_Controller.c ****         return false;
 991:Dsp/widget/wgt_core/UI_Controller.c **** 
 992:Dsp/widget/wgt_core/UI_Controller.c ****     switch (Obj->Dsp_Type)
 993:Dsp/widget/wgt_core/UI_Controller.c ****     {
 994:Dsp/widget/wgt_core/UI_Controller.c ****     case UI_ProcBar_DspType_LoadBar:
 995:Dsp/widget/wgt_core/UI_Controller.c ****         return UI_ProcessBar_DspLoadBar(Obj);
 996:Dsp/widget/wgt_core/UI_Controller.c **** 
 997:Dsp/widget/wgt_core/UI_Controller.c ****     case UI_ProcBar_DspType_DotBar:
 998:Dsp/widget/wgt_core/UI_Controller.c ****         return UI_ProcessBar_DspDotBar(Obj);
 999:Dsp/widget/wgt_core/UI_Controller.c **** 
1000:Dsp/widget/wgt_core/UI_Controller.c ****     case UI_ProcBar_DspType_FrameBar:
1001:Dsp/widget/wgt_core/UI_Controller.c ****         return UI_ProcessBar_DspFrameBar(Obj);
1002:Dsp/widget/wgt_core/UI_Controller.c **** 
1003:Dsp/widget/wgt_core/UI_Controller.c ****     default:
1004:Dsp/widget/wgt_core/UI_Controller.c ****         return false;
1005:Dsp/widget/wgt_core/UI_Controller.c ****     }
1006:Dsp/widget/wgt_core/UI_Controller.c **** }
1007:Dsp/widget/wgt_core/UI_Controller.c **** 
1008:Dsp/widget/wgt_core/UI_Controller.c **** static bool UI_Drop_Init(UI_DropObj_TypeDef *Obj, char *label, int16_t x, int16_t y)
1009:Dsp/widget/wgt_core/UI_Controller.c **** {
 2847              		.loc 1 1009 1 is_stmt 1 view -0
ARM GAS  /var/folders/lx/hc4sn_b53233_zkc9xbbl97r0000gp/T//ccGA9DTo.s 			page 74


 2848              		.cfi_startproc
 2849              		@ args = 0, pretend = 0, frame = 0
 2850              		@ frame_needed = 0, uses_anonymous_args = 0
1010:Dsp/widget/wgt_core/UI_Controller.c ****     if (Obj == NULL)
 2851              		.loc 1 1010 5 view .LVU832
 2852              		.loc 1 1010 8 is_stmt 0 view .LVU833
 2853 0000 80B1     		cbz	r0, .L229
1009:Dsp/widget/wgt_core/UI_Controller.c ****     if (Obj == NULL)
 2854              		.loc 1 1009 1 view .LVU834
 2855 0002 10B5     		push	{r4, lr}
 2856              	.LCFI46:
 2857              		.cfi_def_cfa_offset 8
 2858              		.cfi_offset 4, -8
 2859              		.cfi_offset 14, -4
 2860 0004 0446     		mov	r4, r0
1011:Dsp/widget/wgt_core/UI_Controller.c ****         return false;
1012:Dsp/widget/wgt_core/UI_Controller.c **** 
1013:Dsp/widget/wgt_core/UI_Controller.c ****     UI_GenData_Init(&Obj->Gen_Data, label, x, y);
 2861              		.loc 1 1013 5 is_stmt 1 view .LVU835
 2862 0006 FFF7FEFF 		bl	UI_GenData_Init
 2863              	.LVL251:
1014:Dsp/widget/wgt_core/UI_Controller.c **** 
1015:Dsp/widget/wgt_core/UI_Controller.c ****     Obj->CurDrop_Item = NULL;
 2864              		.loc 1 1015 5 view .LVU836
 2865              		.loc 1 1015 23 is_stmt 0 view .LVU837
 2866 000a 0023     		movs	r3, #0
 2867 000c 6374     		strb	r3, [r4, #17]
 2868 000e A374     		strb	r3, [r4, #18]
 2869 0010 E374     		strb	r3, [r4, #19]
 2870 0012 2375     		strb	r3, [r4, #20]
1016:Dsp/widget/wgt_core/UI_Controller.c ****     Obj->item_cnt = 0;
 2871              		.loc 1 1016 5 is_stmt 1 view .LVU838
 2872              		.loc 1 1016 19 is_stmt 0 view .LVU839
 2873 0014 2373     		strb	r3, [r4, #12]
1017:Dsp/widget/wgt_core/UI_Controller.c ****     Obj->DropList = NULL;
 2874              		.loc 1 1017 5 is_stmt 1 view .LVU840
 2875              		.loc 1 1017 19 is_stmt 0 view .LVU841
 2876 0016 6373     		strb	r3, [r4, #13]
 2877 0018 A373     		strb	r3, [r4, #14]
 2878 001a E373     		strb	r3, [r4, #15]
 2879 001c 2374     		strb	r3, [r4, #16]
1018:Dsp/widget/wgt_core/UI_Controller.c ****     Obj->is_selected = false;
 2880              		.loc 1 1018 5 is_stmt 1 view .LVU842
 2881              		.loc 1 1018 22 is_stmt 0 view .LVU843
 2882 001e 6375     		strb	r3, [r4, #21]
1019:Dsp/widget/wgt_core/UI_Controller.c **** 
1020:Dsp/widget/wgt_core/UI_Controller.c ****     return true;
 2883              		.loc 1 1020 5 is_stmt 1 view .LVU844
 2884              		.loc 1 1020 12 is_stmt 0 view .LVU845
 2885 0020 0120     		movs	r0, #1
1021:Dsp/widget/wgt_core/UI_Controller.c **** }
 2886              		.loc 1 1021 1 view .LVU846
 2887 0022 10BD     		pop	{r4, pc}
 2888              	.LVL252:
 2889              	.L229:
 2890              	.LCFI47:
 2891              		.cfi_def_cfa_offset 0
ARM GAS  /var/folders/lx/hc4sn_b53233_zkc9xbbl97r0000gp/T//ccGA9DTo.s 			page 75


 2892              		.cfi_restore 4
 2893              		.cfi_restore 14
1011:Dsp/widget/wgt_core/UI_Controller.c **** 
 2894              		.loc 1 1011 16 view .LVU847
 2895 0024 0020     		movs	r0, #0
 2896              	.LVL253:
 2897              		.loc 1 1021 1 view .LVU848
 2898 0026 7047     		bx	lr
 2899              		.cfi_endproc
 2900              	.LFE40:
 2902              		.section	.text.UI_Drop_Move,"ax",%progbits
 2903              		.align	1
 2904              		.syntax unified
 2905              		.thumb
 2906              		.thumb_func
 2907              		.fpu fpv4-sp-d16
 2909              	UI_Drop_Move:
 2910              	.LVL254:
 2911              	.LFB41:
1022:Dsp/widget/wgt_core/UI_Controller.c **** 
1023:Dsp/widget/wgt_core/UI_Controller.c **** static bool UI_Drop_Move(UI_DropObj_TypeDef *Obj, int16_t x, int16_t y)
1024:Dsp/widget/wgt_core/UI_Controller.c **** {
 2912              		.loc 1 1024 1 is_stmt 1 view -0
 2913              		.cfi_startproc
 2914              		@ args = 0, pretend = 0, frame = 0
 2915              		@ frame_needed = 0, uses_anonymous_args = 0
1025:Dsp/widget/wgt_core/UI_Controller.c ****     if (Obj == NULL)
 2916              		.loc 1 1025 5 view .LVU850
 2917              		.loc 1 1025 8 is_stmt 0 view .LVU851
 2918 0000 18B1     		cbz	r0, .L236
1024:Dsp/widget/wgt_core/UI_Controller.c ****     if (Obj == NULL)
 2919              		.loc 1 1024 1 view .LVU852
 2920 0002 08B5     		push	{r3, lr}
 2921              	.LCFI48:
 2922              		.cfi_def_cfa_offset 8
 2923              		.cfi_offset 3, -8
 2924              		.cfi_offset 14, -4
1026:Dsp/widget/wgt_core/UI_Controller.c ****         return false;
1027:Dsp/widget/wgt_core/UI_Controller.c **** 
1028:Dsp/widget/wgt_core/UI_Controller.c ****     return UI_Move(&(Obj->Gen_Data), x, y);
 2925              		.loc 1 1028 5 is_stmt 1 view .LVU853
 2926              		.loc 1 1028 12 is_stmt 0 view .LVU854
 2927 0004 FFF7FEFF 		bl	UI_Move
 2928              	.LVL255:
1029:Dsp/widget/wgt_core/UI_Controller.c **** }
 2929              		.loc 1 1029 1 view .LVU855
 2930 0008 08BD     		pop	{r3, pc}
 2931              	.LVL256:
 2932              	.L236:
 2933              	.LCFI49:
 2934              		.cfi_def_cfa_offset 0
 2935              		.cfi_restore 3
 2936              		.cfi_restore 14
1026:Dsp/widget/wgt_core/UI_Controller.c ****         return false;
 2937              		.loc 1 1026 16 view .LVU856
 2938 000a 0020     		movs	r0, #0
 2939              	.LVL257:
ARM GAS  /var/folders/lx/hc4sn_b53233_zkc9xbbl97r0000gp/T//ccGA9DTo.s 			page 76


 2940              		.loc 1 1029 1 view .LVU857
 2941 000c 7047     		bx	lr
 2942              		.cfi_endproc
 2943              	.LFE41:
 2945              		.section	.text.UI_Drop_SetSelect,"ax",%progbits
 2946              		.align	1
 2947              		.syntax unified
 2948              		.thumb
 2949              		.thumb_func
 2950              		.fpu fpv4-sp-d16
 2952              	UI_Drop_SetSelect:
 2953              	.LVL258:
 2954              	.LFB44:
1030:Dsp/widget/wgt_core/UI_Controller.c **** 
1031:Dsp/widget/wgt_core/UI_Controller.c **** static item_obj *UI_Drop_CreateDropItem(uint8_t id, char *item_desc, void *data, uint16_t data_size
1032:Dsp/widget/wgt_core/UI_Controller.c **** {
1033:Dsp/widget/wgt_core/UI_Controller.c ****     item_obj *item_tmp = NULL;
1034:Dsp/widget/wgt_core/UI_Controller.c ****     UI_DropItemDataObj_TypeDef *itemdata_tmp = NULL;
1035:Dsp/widget/wgt_core/UI_Controller.c **** 
1036:Dsp/widget/wgt_core/UI_Controller.c ****     itemdata_tmp = (UI_DropItemDataObj_TypeDef *)MMU_Malloc(sizeof(UI_DropItemDataObj_TypeDef));
1037:Dsp/widget/wgt_core/UI_Controller.c ****     item_tmp = (item_obj *)MMU_Malloc(sizeof(item_obj));
1038:Dsp/widget/wgt_core/UI_Controller.c **** 
1039:Dsp/widget/wgt_core/UI_Controller.c ****     if ((item_tmp == NULL) || (itemdata_tmp == NULL))
1040:Dsp/widget/wgt_core/UI_Controller.c ****         return NULL;
1041:Dsp/widget/wgt_core/UI_Controller.c **** 
1042:Dsp/widget/wgt_core/UI_Controller.c ****     itemdata_tmp->callback = callback;
1043:Dsp/widget/wgt_core/UI_Controller.c ****     itemdata_tmp->data = data;
1044:Dsp/widget/wgt_core/UI_Controller.c ****     itemdata_tmp->describe = item_desc;
1045:Dsp/widget/wgt_core/UI_Controller.c ****     itemdata_tmp->id = id;
1046:Dsp/widget/wgt_core/UI_Controller.c ****     itemdata_tmp->data_size = data_size;
1047:Dsp/widget/wgt_core/UI_Controller.c **** 
1048:Dsp/widget/wgt_core/UI_Controller.c ****     List_ItemInit(item_tmp, itemdata_tmp);
1049:Dsp/widget/wgt_core/UI_Controller.c **** 
1050:Dsp/widget/wgt_core/UI_Controller.c ****     return item_tmp;
1051:Dsp/widget/wgt_core/UI_Controller.c **** }
1052:Dsp/widget/wgt_core/UI_Controller.c **** 
1053:Dsp/widget/wgt_core/UI_Controller.c **** static bool UI_Drop_AddDropItem(UI_DropObj_TypeDef *Obj, char *item_desc, void *data, uint16_t data
1054:Dsp/widget/wgt_core/UI_Controller.c **** {
1055:Dsp/widget/wgt_core/UI_Controller.c ****     item_obj *item_temp = NULL;
1056:Dsp/widget/wgt_core/UI_Controller.c **** 
1057:Dsp/widget/wgt_core/UI_Controller.c ****     if (Obj == NULL)
1058:Dsp/widget/wgt_core/UI_Controller.c ****         return false;
1059:Dsp/widget/wgt_core/UI_Controller.c **** 
1060:Dsp/widget/wgt_core/UI_Controller.c ****     item_temp = UI_Drop_CreateDropItem(Obj->item_cnt, item_desc, data, data_size, callback);
1061:Dsp/widget/wgt_core/UI_Controller.c **** 
1062:Dsp/widget/wgt_core/UI_Controller.c ****     if (item_temp == NULL)
1063:Dsp/widget/wgt_core/UI_Controller.c ****         return false;
1064:Dsp/widget/wgt_core/UI_Controller.c **** 
1065:Dsp/widget/wgt_core/UI_Controller.c ****     if (Obj->DropList == NULL)
1066:Dsp/widget/wgt_core/UI_Controller.c ****     {
1067:Dsp/widget/wgt_core/UI_Controller.c ****         Obj->DropList = item_temp;
1068:Dsp/widget/wgt_core/UI_Controller.c ****         Obj->CurDrop_Item = Obj->DropList;
1069:Dsp/widget/wgt_core/UI_Controller.c ****         List_Init(Obj->DropList, item_temp, by_order, NULL);
1070:Dsp/widget/wgt_core/UI_Controller.c ****     }
1071:Dsp/widget/wgt_core/UI_Controller.c ****     else
1072:Dsp/widget/wgt_core/UI_Controller.c ****         List_Insert_Item(Obj->DropList, item_temp);
1073:Dsp/widget/wgt_core/UI_Controller.c **** 
ARM GAS  /var/folders/lx/hc4sn_b53233_zkc9xbbl97r0000gp/T//ccGA9DTo.s 			page 77


1074:Dsp/widget/wgt_core/UI_Controller.c ****     Obj->item_cnt++;
1075:Dsp/widget/wgt_core/UI_Controller.c **** 
1076:Dsp/widget/wgt_core/UI_Controller.c ****     return true;
1077:Dsp/widget/wgt_core/UI_Controller.c **** }
1078:Dsp/widget/wgt_core/UI_Controller.c **** 
1079:Dsp/widget/wgt_core/UI_Controller.c **** static bool UI_Drop_SetSelect(UI_DropObj_TypeDef *Obj, bool state)
1080:Dsp/widget/wgt_core/UI_Controller.c **** {
 2955              		.loc 1 1080 1 is_stmt 1 view -0
 2956              		.cfi_startproc
 2957              		@ args = 0, pretend = 0, frame = 0
 2958              		@ frame_needed = 0, uses_anonymous_args = 0
1081:Dsp/widget/wgt_core/UI_Controller.c ****     if (Obj == NULL)
 2959              		.loc 1 1081 5 view .LVU859
 2960              		.loc 1 1081 8 is_stmt 0 view .LVU860
 2961 0000 70B1     		cbz	r0, .L243
1080:Dsp/widget/wgt_core/UI_Controller.c ****     if (Obj == NULL)
 2962              		.loc 1 1080 1 view .LVU861
 2963 0002 08B5     		push	{r3, lr}
 2964              	.LCFI50:
 2965              		.cfi_def_cfa_offset 8
 2966              		.cfi_offset 3, -8
 2967              		.cfi_offset 14, -4
1082:Dsp/widget/wgt_core/UI_Controller.c ****         return false;
1083:Dsp/widget/wgt_core/UI_Controller.c **** 
1084:Dsp/widget/wgt_core/UI_Controller.c ****     Obj->is_selected = state;
 2968              		.loc 1 1084 5 is_stmt 1 view .LVU862
 2969              		.loc 1 1084 22 is_stmt 0 view .LVU863
 2970 0004 4175     		strb	r1, [r0, #21]
1085:Dsp/widget/wgt_core/UI_Controller.c **** 
1086:Dsp/widget/wgt_core/UI_Controller.c ****     if (!state && (Obj->CurDrop_Item->data != NULL) && (((UI_DropItemDataObj_TypeDef *)Obj->CurDrop
 2971              		.loc 1 1086 5 is_stmt 1 view .LVU864
 2972              		.loc 1 1086 8 is_stmt 0 view .LVU865
 2973 0006 69B9     		cbnz	r1, .L244
 2974              		.loc 1 1086 23 discriminator 1 view .LVU866
 2975 0008 D0F81130 		ldr	r3, [r0, #17]	@ unaligned
 2976              		.loc 1 1086 37 discriminator 1 view .LVU867
 2977 000c 1B69     		ldr	r3, [r3, #16]
 2978              		.loc 1 1086 16 discriminator 1 view .LVU868
 2979 000e 5BB1     		cbz	r3, .L245
 2980              		.loc 1 1086 112 discriminator 2 view .LVU869
 2981 0010 D3F80B20 		ldr	r2, [r3, #11]	@ unaligned
 2982              		.loc 1 1086 53 discriminator 2 view .LVU870
 2983 0014 52B1     		cbz	r2, .L246
1087:Dsp/widget/wgt_core/UI_Controller.c ****     {
1088:Dsp/widget/wgt_core/UI_Controller.c ****         /* trigger drop item callback */
1089:Dsp/widget/wgt_core/UI_Controller.c ****         ((UI_DropItemDataObj_TypeDef *)Obj->CurDrop_Item->data)->callback(((UI_DropItemDataObj_Type
 2984              		.loc 1 1089 9 is_stmt 1 view .LVU871
 2985              		.loc 1 1089 10 is_stmt 0 view .LVU872
 2986 0016 D3F80500 		ldr	r0, [r3, #5]	@ unaligned
 2987              	.LVL259:
 2988              		.loc 1 1089 10 view .LVU873
 2989 001a 9047     		blx	r2
 2990              	.LVL260:
1090:Dsp/widget/wgt_core/UI_Controller.c ****     }
1091:Dsp/widget/wgt_core/UI_Controller.c **** 
1092:Dsp/widget/wgt_core/UI_Controller.c ****     return true;
 2991              		.loc 1 1092 12 view .LVU874
ARM GAS  /var/folders/lx/hc4sn_b53233_zkc9xbbl97r0000gp/T//ccGA9DTo.s 			page 78


 2992 001c 0120     		movs	r0, #1
 2993 001e 02E0     		b	.L242
 2994              	.LVL261:
 2995              	.L243:
 2996              	.LCFI51:
 2997              		.cfi_def_cfa_offset 0
 2998              		.cfi_restore 3
 2999              		.cfi_restore 14
1082:Dsp/widget/wgt_core/UI_Controller.c **** 
 3000              		.loc 1 1082 16 view .LVU875
 3001 0020 0020     		movs	r0, #0
 3002              	.LVL262:
1093:Dsp/widget/wgt_core/UI_Controller.c **** }
 3003              		.loc 1 1093 1 view .LVU876
 3004 0022 7047     		bx	lr
 3005              	.LVL263:
 3006              	.L244:
 3007              	.LCFI52:
 3008              		.cfi_def_cfa_offset 8
 3009              		.cfi_offset 3, -8
 3010              		.cfi_offset 14, -4
1092:Dsp/widget/wgt_core/UI_Controller.c **** }
 3011              		.loc 1 1092 12 view .LVU877
 3012 0024 0846     		mov	r0, r1
 3013              	.LVL264:
 3014              	.L242:
 3015              		.loc 1 1093 1 view .LVU878
 3016 0026 08BD     		pop	{r3, pc}
 3017              	.LVL265:
 3018              	.L245:
1092:Dsp/widget/wgt_core/UI_Controller.c **** }
 3019              		.loc 1 1092 12 view .LVU879
 3020 0028 0120     		movs	r0, #1
 3021              	.LVL266:
1092:Dsp/widget/wgt_core/UI_Controller.c **** }
 3022              		.loc 1 1092 12 view .LVU880
 3023 002a FCE7     		b	.L242
 3024              	.LVL267:
 3025              	.L246:
1092:Dsp/widget/wgt_core/UI_Controller.c **** }
 3026              		.loc 1 1092 12 view .LVU881
 3027 002c 0120     		movs	r0, #1
 3028              	.LVL268:
1092:Dsp/widget/wgt_core/UI_Controller.c **** }
 3029              		.loc 1 1092 12 view .LVU882
 3030 002e FAE7     		b	.L242
 3031              		.cfi_endproc
 3032              	.LFE44:
 3034              		.section	.text.UI_Drop_GetSelect,"ax",%progbits
 3035              		.align	1
 3036              		.syntax unified
 3037              		.thumb
 3038              		.thumb_func
 3039              		.fpu fpv4-sp-d16
 3041              	UI_Drop_GetSelect:
 3042              	.LVL269:
 3043              	.LFB45:
ARM GAS  /var/folders/lx/hc4sn_b53233_zkc9xbbl97r0000gp/T//ccGA9DTo.s 			page 79


1094:Dsp/widget/wgt_core/UI_Controller.c **** 
1095:Dsp/widget/wgt_core/UI_Controller.c **** static bool UI_Drop_GetSelect(UI_DropObj_TypeDef *Obj)
1096:Dsp/widget/wgt_core/UI_Controller.c **** {
 3044              		.loc 1 1096 1 is_stmt 1 view -0
 3045              		.cfi_startproc
 3046              		@ args = 0, pretend = 0, frame = 0
 3047              		@ frame_needed = 0, uses_anonymous_args = 0
 3048              		@ link register save eliminated.
1097:Dsp/widget/wgt_core/UI_Controller.c ****     if (Obj == NULL)
 3049              		.loc 1 1097 5 view .LVU884
 3050              		.loc 1 1097 8 is_stmt 0 view .LVU885
 3051 0000 08B1     		cbz	r0, .L253
1098:Dsp/widget/wgt_core/UI_Controller.c ****         return false;
1099:Dsp/widget/wgt_core/UI_Controller.c **** 
1100:Dsp/widget/wgt_core/UI_Controller.c ****     return Obj->is_selected;
 3052              		.loc 1 1100 5 is_stmt 1 view .LVU886
 3053              		.loc 1 1100 15 is_stmt 0 view .LVU887
 3054 0002 407D     		ldrb	r0, [r0, #21]	@ zero_extendqisi2
 3055              	.LVL270:
 3056              		.loc 1 1100 15 view .LVU888
 3057 0004 7047     		bx	lr
 3058              	.LVL271:
 3059              	.L253:
1098:Dsp/widget/wgt_core/UI_Controller.c ****         return false;
 3060              		.loc 1 1098 16 view .LVU889
 3061 0006 0020     		movs	r0, #0
 3062              	.LVL272:
1101:Dsp/widget/wgt_core/UI_Controller.c **** }
 3063              		.loc 1 1101 1 view .LVU890
 3064 0008 7047     		bx	lr
 3065              		.cfi_endproc
 3066              	.LFE45:
 3068              		.section	.text.UI_Drop_SelectItem,"ax",%progbits
 3069              		.align	1
 3070              		.syntax unified
 3071              		.thumb
 3072              		.thumb_func
 3073              		.fpu fpv4-sp-d16
 3075              	UI_Drop_SelectItem:
 3076              	.LVL273:
 3077              	.LFB46:
1102:Dsp/widget/wgt_core/UI_Controller.c **** 
1103:Dsp/widget/wgt_core/UI_Controller.c **** static bool UI_Drop_SelectItem(UI_DropObj_TypeDef *Obj, int8_t *offset)
1104:Dsp/widget/wgt_core/UI_Controller.c **** {
 3078              		.loc 1 1104 1 is_stmt 1 view -0
 3079              		.cfi_startproc
 3080              		@ args = 0, pretend = 0, frame = 0
 3081              		@ frame_needed = 0, uses_anonymous_args = 0
 3082              		@ link register save eliminated.
1105:Dsp/widget/wgt_core/UI_Controller.c ****     item_obj *tmp = NULL;
 3083              		.loc 1 1105 5 view .LVU892
1106:Dsp/widget/wgt_core/UI_Controller.c **** 
1107:Dsp/widget/wgt_core/UI_Controller.c ****     if ((Obj == NULL) || (offset > Obj->item_cnt) || (Obj->CurDrop_Item == NULL))
 3084              		.loc 1 1107 5 view .LVU893
 3085              		.loc 1 1107 8 is_stmt 0 view .LVU894
 3086 0000 8446     		mov	ip, r0
 3087 0002 C8B1     		cbz	r0, .L260
ARM GAS  /var/folders/lx/hc4sn_b53233_zkc9xbbl97r0000gp/T//ccGA9DTo.s 			page 80


 3088              		.loc 1 1107 39 discriminator 1 view .LVU895
 3089 0004 037B     		ldrb	r3, [r0, #12]	@ zero_extendqisi2
 3090              		.loc 1 1107 23 discriminator 1 view .LVU896
 3091 0006 8B42     		cmp	r3, r1
 3092 0008 18D3     		bcc	.L261
 3093              		.loc 1 1107 58 discriminator 2 view .LVU897
 3094 000a D0F81120 		ldr	r2, [r0, #17]	@ unaligned
 3095              		.loc 1 1107 51 discriminator 2 view .LVU898
 3096 000e 1AB9     		cbnz	r2, .L256
1108:Dsp/widget/wgt_core/UI_Controller.c ****         return false;
 3097              		.loc 1 1108 16 view .LVU899
 3098 0010 0020     		movs	r0, #0
 3099              	.LVL274:
 3100              		.loc 1 1108 16 view .LVU900
 3101 0012 7047     		bx	lr
 3102              	.LVL275:
 3103              	.L257:
1109:Dsp/widget/wgt_core/UI_Controller.c **** 
1110:Dsp/widget/wgt_core/UI_Controller.c ****     tmp = Obj->CurDrop_Item;
1111:Dsp/widget/wgt_core/UI_Controller.c **** 
1112:Dsp/widget/wgt_core/UI_Controller.c ****     while (*offset)
1113:Dsp/widget/wgt_core/UI_Controller.c ****     {
1114:Dsp/widget/wgt_core/UI_Controller.c ****         if (tmp == NULL)
1115:Dsp/widget/wgt_core/UI_Controller.c ****             return false;
1116:Dsp/widget/wgt_core/UI_Controller.c **** 
1117:Dsp/widget/wgt_core/UI_Controller.c ****         if (*offset > 0)
1118:Dsp/widget/wgt_core/UI_Controller.c ****         {
1119:Dsp/widget/wgt_core/UI_Controller.c ****             tmp = tmp->nxt;
1120:Dsp/widget/wgt_core/UI_Controller.c ****             *offset--;
1121:Dsp/widget/wgt_core/UI_Controller.c ****         }
1122:Dsp/widget/wgt_core/UI_Controller.c ****         else if (*offset < 0)
 3104              		.loc 1 1122 14 is_stmt 1 view .LVU901
 3105              		.loc 1 1122 17 is_stmt 0 view .LVU902
 3106 0014 002B     		cmp	r3, #0
 3107 0016 08DB     		blt	.L264
 3108              	.LVL276:
 3109              	.L256:
1112:Dsp/widget/wgt_core/UI_Controller.c ****     {
 3110              		.loc 1 1112 11 is_stmt 1 view .LVU903
1112:Dsp/widget/wgt_core/UI_Controller.c ****     {
 3111              		.loc 1 1112 12 is_stmt 0 view .LVU904
 3112 0018 91F90030 		ldrsb	r3, [r1]
1112:Dsp/widget/wgt_core/UI_Controller.c ****     {
 3113              		.loc 1 1112 11 view .LVU905
 3114 001c 43B1     		cbz	r3, .L265
1114:Dsp/widget/wgt_core/UI_Controller.c ****             return false;
 3115              		.loc 1 1114 9 is_stmt 1 view .LVU906
1114:Dsp/widget/wgt_core/UI_Controller.c ****             return false;
 3116              		.loc 1 1114 12 is_stmt 0 view .LVU907
 3117 001e 7AB1     		cbz	r2, .L263
1117:Dsp/widget/wgt_core/UI_Controller.c ****         {
 3118              		.loc 1 1117 9 is_stmt 1 view .LVU908
1117:Dsp/widget/wgt_core/UI_Controller.c ****         {
 3119              		.loc 1 1117 12 is_stmt 0 view .LVU909
 3120 0020 002B     		cmp	r3, #0
 3121 0022 F7DD     		ble	.L257
1119:Dsp/widget/wgt_core/UI_Controller.c ****             *offset--;
ARM GAS  /var/folders/lx/hc4sn_b53233_zkc9xbbl97r0000gp/T//ccGA9DTo.s 			page 81


 3122              		.loc 1 1119 13 is_stmt 1 view .LVU910
1119:Dsp/widget/wgt_core/UI_Controller.c ****             *offset--;
 3123              		.loc 1 1119 17 is_stmt 0 view .LVU911
 3124 0024 D268     		ldr	r2, [r2, #12]
 3125              	.LVL277:
1120:Dsp/widget/wgt_core/UI_Controller.c ****         }
 3126              		.loc 1 1120 13 is_stmt 1 view .LVU912
1120:Dsp/widget/wgt_core/UI_Controller.c ****         }
 3127              		.loc 1 1120 20 is_stmt 0 view .LVU913
 3128 0026 0139     		subs	r1, r1, #1
 3129              	.LVL278:
1120:Dsp/widget/wgt_core/UI_Controller.c ****         }
 3130              		.loc 1 1120 20 view .LVU914
 3131 0028 F6E7     		b	.L256
 3132              	.L264:
1123:Dsp/widget/wgt_core/UI_Controller.c ****         {
1124:Dsp/widget/wgt_core/UI_Controller.c ****             tmp = tmp->prv;
 3133              		.loc 1 1124 13 is_stmt 1 view .LVU915
 3134              		.loc 1 1124 17 is_stmt 0 view .LVU916
 3135 002a 9268     		ldr	r2, [r2, #8]
 3136              	.LVL279:
1125:Dsp/widget/wgt_core/UI_Controller.c ****             *offset++;
 3137              		.loc 1 1125 13 is_stmt 1 view .LVU917
 3138              		.loc 1 1125 20 is_stmt 0 view .LVU918
 3139 002c 0131     		adds	r1, r1, #1
 3140              	.LVL280:
 3141              		.loc 1 1125 20 view .LVU919
 3142 002e F3E7     		b	.L256
 3143              	.L265:
1126:Dsp/widget/wgt_core/UI_Controller.c ****         }
1127:Dsp/widget/wgt_core/UI_Controller.c ****     }
1128:Dsp/widget/wgt_core/UI_Controller.c **** 
1129:Dsp/widget/wgt_core/UI_Controller.c ****     Obj->CurDrop_Item = tmp;
 3144              		.loc 1 1129 5 is_stmt 1 view .LVU920
 3145              		.loc 1 1129 23 is_stmt 0 view .LVU921
 3146 0030 CCF81120 		str	r2, [ip, #17]	@ unaligned
1130:Dsp/widget/wgt_core/UI_Controller.c **** 
1131:Dsp/widget/wgt_core/UI_Controller.c ****     return true;
 3147              		.loc 1 1131 5 is_stmt 1 view .LVU922
 3148              		.loc 1 1131 12 is_stmt 0 view .LVU923
 3149 0034 0120     		movs	r0, #1
 3150              	.LVL281:
 3151              		.loc 1 1131 12 view .LVU924
 3152 0036 7047     		bx	lr
 3153              	.LVL282:
 3154              	.L260:
1108:Dsp/widget/wgt_core/UI_Controller.c **** 
 3155              		.loc 1 1108 16 view .LVU925
 3156 0038 0020     		movs	r0, #0
 3157              	.LVL283:
1108:Dsp/widget/wgt_core/UI_Controller.c **** 
 3158              		.loc 1 1108 16 view .LVU926
 3159 003a 7047     		bx	lr
 3160              	.LVL284:
 3161              	.L261:
1108:Dsp/widget/wgt_core/UI_Controller.c **** 
 3162              		.loc 1 1108 16 view .LVU927
ARM GAS  /var/folders/lx/hc4sn_b53233_zkc9xbbl97r0000gp/T//ccGA9DTo.s 			page 82


 3163 003c 0020     		movs	r0, #0
 3164              	.LVL285:
1108:Dsp/widget/wgt_core/UI_Controller.c **** 
 3165              		.loc 1 1108 16 view .LVU928
 3166 003e 7047     		bx	lr
 3167              	.LVL286:
 3168              	.L263:
1115:Dsp/widget/wgt_core/UI_Controller.c **** 
 3169              		.loc 1 1115 20 view .LVU929
 3170 0040 0020     		movs	r0, #0
 3171              	.LVL287:
1132:Dsp/widget/wgt_core/UI_Controller.c **** }
 3172              		.loc 1 1132 1 view .LVU930
 3173 0042 7047     		bx	lr
 3174              		.cfi_endproc
 3175              	.LFE46:
 3177              		.section	.text.UI_Drop_Ctl,"ax",%progbits
 3178              		.align	1
 3179              		.syntax unified
 3180              		.thumb
 3181              		.thumb_func
 3182              		.fpu fpv4-sp-d16
 3184              	UI_Drop_Ctl:
 3185              	.LVL288:
 3186              	.LFB47:
1133:Dsp/widget/wgt_core/UI_Controller.c **** 
1134:Dsp/widget/wgt_core/UI_Controller.c **** static bool UI_Drop_Ctl(UI_DropObj_TypeDef *Obj)
1135:Dsp/widget/wgt_core/UI_Controller.c **** {
 3187              		.loc 1 1135 1 is_stmt 1 view -0
 3188              		.cfi_startproc
 3189              		@ args = 0, pretend = 0, frame = 0
 3190              		@ frame_needed = 0, uses_anonymous_args = 0
 3191              		.loc 1 1135 1 is_stmt 0 view .LVU932
 3192 0000 2DE9F047 		push	{r4, r5, r6, r7, r8, r9, r10, lr}
 3193              	.LCFI53:
 3194              		.cfi_def_cfa_offset 32
 3195              		.cfi_offset 4, -32
 3196              		.cfi_offset 5, -28
 3197              		.cfi_offset 6, -24
 3198              		.cfi_offset 7, -20
 3199              		.cfi_offset 8, -16
 3200              		.cfi_offset 9, -12
 3201              		.cfi_offset 10, -8
 3202              		.cfi_offset 14, -4
 3203 0004 82B0     		sub	sp, sp, #8
 3204              	.LCFI54:
 3205              		.cfi_def_cfa_offset 40
1136:Dsp/widget/wgt_core/UI_Controller.c ****     int16_t str_x = 0;
 3206              		.loc 1 1136 5 is_stmt 1 view .LVU933
 3207              	.LVL289:
1137:Dsp/widget/wgt_core/UI_Controller.c ****     int16_t str_y = 0;
 3208              		.loc 1 1137 5 view .LVU934
1138:Dsp/widget/wgt_core/UI_Controller.c ****     int16_t dropitem_x = 0;
 3209              		.loc 1 1138 5 view .LVU935
1139:Dsp/widget/wgt_core/UI_Controller.c ****     int16_t dropitem_y = 0;
 3210              		.loc 1 1139 5 view .LVU936
1140:Dsp/widget/wgt_core/UI_Controller.c **** 
ARM GAS  /var/folders/lx/hc4sn_b53233_zkc9xbbl97r0000gp/T//ccGA9DTo.s 			page 83


1141:Dsp/widget/wgt_core/UI_Controller.c ****     if ((Obj == NULL) &&
 3211              		.loc 1 1141 5 view .LVU937
 3212              		.loc 1 1141 8 is_stmt 0 view .LVU938
 3213 0006 0646     		mov	r6, r0
 3214 0008 0028     		cmp	r0, #0
 3215 000a 3ED0     		beq	.L272
 3216              	.L267:
1142:Dsp/widget/wgt_core/UI_Controller.c ****         (UI_DspInterface.draw_str == NULL) &&
1143:Dsp/widget/wgt_core/UI_Controller.c ****         (UI_DspInterface.draw_dig == NULL))
1144:Dsp/widget/wgt_core/UI_Controller.c ****         return false;
1145:Dsp/widget/wgt_core/UI_Controller.c **** 
1146:Dsp/widget/wgt_core/UI_Controller.c ****     str_x = Obj->Gen_Data.x + 3;
 3217              		.loc 1 1146 5 is_stmt 1 view .LVU939
 3218              		.loc 1 1146 26 is_stmt 0 view .LVU940
 3219 000c B288     		ldrh	r2, [r6, #4]	@ unaligned
 3220              		.loc 1 1146 29 view .LVU941
 3221 000e 0332     		adds	r2, r2, #3
 3222              		.loc 1 1146 11 view .LVU942
 3223 0010 12B2     		sxth	r2, r2
 3224              	.LVL290:
1147:Dsp/widget/wgt_core/UI_Controller.c ****     str_y = Obj->Gen_Data.y;
 3225              		.loc 1 1147 5 is_stmt 1 view .LVU943
 3226              		.loc 1 1147 11 is_stmt 0 view .LVU944
 3227 0012 B6F90630 		ldrsh	r3, [r6, #6]	@ unaligned
 3228 0016 1C46     		mov	r4, r3
 3229              	.LVL291:
1148:Dsp/widget/wgt_core/UI_Controller.c **** 
1149:Dsp/widget/wgt_core/UI_Controller.c ****     if (base_font == Font_8)
 3230              		.loc 1 1149 5 is_stmt 1 view .LVU945
 3231              		.loc 1 1149 19 is_stmt 0 view .LVU946
 3232 0018 2249     		ldr	r1, .L274
 3233 001a 0878     		ldrb	r0, [r1]	@ zero_extendqisi2
 3234              	.LVL292:
 3235              		.loc 1 1149 8 view .LVU947
 3236 001c 0828     		cmp	r0, #8
 3237 001e 3ED0     		beq	.L273
 3238              	.LVL293:
 3239              	.L269:
1150:Dsp/widget/wgt_core/UI_Controller.c ****         str_y += 1;
1151:Dsp/widget/wgt_core/UI_Controller.c **** 
1152:Dsp/widget/wgt_core/UI_Controller.c ****     /* show label */
1153:Dsp/widget/wgt_core/UI_Controller.c ****     UI_DspInterface.draw_str(base_font, Obj->Gen_Data.label, str_x, str_y, true);
 3240              		.loc 1 1153 5 is_stmt 1 view .LVU948
 3241              		.loc 1 1153 20 is_stmt 0 view .LVU949
 3242 0020 214F     		ldr	r7, .L274+4
 3243              		.loc 1 1153 5 view .LVU950
 3244 0022 4FF0010A 		mov	r10, #1
 3245 0026 CDF800A0 		str	r10, [sp]
 3246 002a 2346     		mov	r3, r4
 3247 002c 3168     		ldr	r1, [r6]	@ unaligned
 3248 002e 3D68     		ldr	r5, [r7]
 3249 0030 A847     		blx	r5
 3250              	.LVL294:
1154:Dsp/widget/wgt_core/UI_Controller.c **** 
1155:Dsp/widget/wgt_core/UI_Controller.c ****     dropitem_y = str_y + base_font + 2;
 3251              		.loc 1 1155 5 is_stmt 1 view .LVU951
 3252              		.loc 1 1155 24 is_stmt 0 view .LVU952
ARM GAS  /var/folders/lx/hc4sn_b53233_zkc9xbbl97r0000gp/T//ccGA9DTo.s 			page 84


 3253 0032 DFF87080 		ldr	r8, .L274
 3254 0036 98F80000 		ldrb	r0, [r8]	@ zero_extendqisi2
 3255 003a 0444     		add	r4, r4, r0
 3256              	.LVL295:
 3257              		.loc 1 1155 24 view .LVU953
 3258 003c A4B2     		uxth	r4, r4
 3259              		.loc 1 1155 36 view .LVU954
 3260 003e 0234     		adds	r4, r4, #2
 3261              		.loc 1 1155 16 view .LVU955
 3262 0040 24B2     		sxth	r4, r4
 3263              	.LVL296:
1156:Dsp/widget/wgt_core/UI_Controller.c ****     dropitem_x = Obj->Gen_Data.x + base_font * 2;
 3264              		.loc 1 1156 5 is_stmt 1 view .LVU956
 3265              		.loc 1 1156 31 is_stmt 0 view .LVU957
 3266 0042 B288     		ldrh	r2, [r6, #4]	@ unaligned
 3267              		.loc 1 1156 34 view .LVU958
 3268 0044 02EB4002 		add	r2, r2, r0, lsl #1
 3269 0048 1FFA82F9 		uxth	r9, r2
 3270              	.LVL297:
1157:Dsp/widget/wgt_core/UI_Controller.c **** 
1158:Dsp/widget/wgt_core/UI_Controller.c ****     /* show drop item id */
1159:Dsp/widget/wgt_core/UI_Controller.c ****     UI_DspInterface.draw_dig(base_font, ((UI_DropItemDataObj_TypeDef *)(Obj->CurDrop_Item->data))->
 3271              		.loc 1 1159 5 is_stmt 1 view .LVU959
 3272              		.loc 1 1159 76 is_stmt 0 view .LVU960
 3273 004c D6F81130 		ldr	r3, [r6, #17]	@ unaligned
 3274              		.loc 1 1159 90 view .LVU961
 3275 0050 1B69     		ldr	r3, [r3, #16]
 3276              		.loc 1 1159 98 view .LVU962
 3277 0052 1978     		ldrb	r1, [r3]	@ zero_extendqisi2
 3278              		.loc 1 1159 5 view .LVU963
 3279 0054 CDF800A0 		str	r10, [sp]
 3280 0058 2346     		mov	r3, r4
 3281 005a 12B2     		sxth	r2, r2
 3282              		.loc 1 1159 5 view .LVU964
 3283 005c 5144     		add	r1, r1, r10
 3284 005e 7D68     		ldr	r5, [r7, #4]
 3285 0060 A847     		blx	r5
 3286              	.LVL298:
1160:Dsp/widget/wgt_core/UI_Controller.c **** 
1161:Dsp/widget/wgt_core/UI_Controller.c ****     /* show drop item label */
1162:Dsp/widget/wgt_core/UI_Controller.c ****     dropitem_x += base_font + 2;
 3287              		.loc 1 1162 5 is_stmt 1 view .LVU965
 3288              		.loc 1 1162 16 is_stmt 0 view .LVU966
 3289 0062 98F80000 		ldrb	r0, [r8]	@ zero_extendqisi2
 3290 0066 09EB0002 		add	r2, r9, r0
 3291 006a 0232     		adds	r2, r2, #2
 3292              	.LVL299:
1163:Dsp/widget/wgt_core/UI_Controller.c ****     UI_DspInterface.draw_str(base_font, ((UI_DropItemDataObj_TypeDef *)(Obj->CurDrop_Item->data))->
 3293              		.loc 1 1163 5 is_stmt 1 view .LVU967
 3294              		.loc 1 1163 20 is_stmt 0 view .LVU968
 3295 006c 3F68     		ldr	r7, [r7]
 3296              		.loc 1 1163 76 view .LVU969
 3297 006e D6F81130 		ldr	r3, [r6, #17]	@ unaligned
 3298              		.loc 1 1163 90 view .LVU970
 3299 0072 1B69     		ldr	r3, [r3, #16]
 3300              		.loc 1 1163 5 view .LVU971
 3301 0074 D3F80110 		ldr	r1, [r3, #1]	@ unaligned
ARM GAS  /var/folders/lx/hc4sn_b53233_zkc9xbbl97r0000gp/T//ccGA9DTo.s 			page 85


 3302 0078 CDF800A0 		str	r10, [sp]
 3303 007c 2346     		mov	r3, r4
 3304 007e 12B2     		sxth	r2, r2
 3305              		.loc 1 1163 5 view .LVU972
 3306 0080 B847     		blx	r7
 3307              	.LVL300:
1164:Dsp/widget/wgt_core/UI_Controller.c **** 
1165:Dsp/widget/wgt_core/UI_Controller.c ****     return true;
 3308              		.loc 1 1165 5 is_stmt 1 view .LVU973
 3309              		.loc 1 1165 12 is_stmt 0 view .LVU974
 3310 0082 5046     		mov	r0, r10
 3311              	.LVL301:
 3312              	.L268:
1166:Dsp/widget/wgt_core/UI_Controller.c **** }
 3313              		.loc 1 1166 1 view .LVU975
 3314 0084 02B0     		add	sp, sp, #8
 3315              	.LCFI55:
 3316              		.cfi_remember_state
 3317              		.cfi_def_cfa_offset 32
 3318              		@ sp needed
 3319 0086 BDE8F087 		pop	{r4, r5, r6, r7, r8, r9, r10, pc}
 3320              	.LVL302:
 3321              	.L272:
 3322              	.LCFI56:
 3323              		.cfi_restore_state
1142:Dsp/widget/wgt_core/UI_Controller.c ****         (UI_DspInterface.draw_dig == NULL))
 3324              		.loc 1 1142 25 discriminator 1 view .LVU976
 3325 008a 074B     		ldr	r3, .L274+4
 3326 008c 1B68     		ldr	r3, [r3]
1141:Dsp/widget/wgt_core/UI_Controller.c ****         (UI_DspInterface.draw_str == NULL) &&
 3327              		.loc 1 1141 23 discriminator 1 view .LVU977
 3328 008e 002B     		cmp	r3, #0
 3329 0090 BCD1     		bne	.L267
1143:Dsp/widget/wgt_core/UI_Controller.c ****         return false;
 3330              		.loc 1 1143 25 view .LVU978
 3331 0092 054B     		ldr	r3, .L274+4
 3332 0094 5B68     		ldr	r3, [r3, #4]
1142:Dsp/widget/wgt_core/UI_Controller.c ****         (UI_DspInterface.draw_dig == NULL))
 3333              		.loc 1 1142 44 view .LVU979
 3334 0096 002B     		cmp	r3, #0
 3335 0098 B8D1     		bne	.L267
1144:Dsp/widget/wgt_core/UI_Controller.c **** 
 3336              		.loc 1 1144 16 view .LVU980
 3337 009a 0020     		movs	r0, #0
 3338              	.LVL303:
1144:Dsp/widget/wgt_core/UI_Controller.c **** 
 3339              		.loc 1 1144 16 view .LVU981
 3340 009c F2E7     		b	.L268
 3341              	.LVL304:
 3342              	.L273:
1150:Dsp/widget/wgt_core/UI_Controller.c **** 
 3343              		.loc 1 1150 9 is_stmt 1 view .LVU982
1150:Dsp/widget/wgt_core/UI_Controller.c **** 
 3344              		.loc 1 1150 15 is_stmt 0 view .LVU983
 3345 009e 0133     		adds	r3, r3, #1
 3346              	.LVL305:
1150:Dsp/widget/wgt_core/UI_Controller.c **** 
ARM GAS  /var/folders/lx/hc4sn_b53233_zkc9xbbl97r0000gp/T//ccGA9DTo.s 			page 86


 3347              		.loc 1 1150 15 view .LVU984
 3348 00a0 1CB2     		sxth	r4, r3
 3349              	.LVL306:
1150:Dsp/widget/wgt_core/UI_Controller.c **** 
 3350              		.loc 1 1150 15 view .LVU985
 3351 00a2 BDE7     		b	.L269
 3352              	.L275:
 3353              		.align	2
 3354              	.L274:
 3355 00a4 00000000 		.word	.LANCHOR2
 3356 00a8 00000000 		.word	.LANCHOR0
 3357              		.cfi_endproc
 3358              	.LFE47:
 3360              		.section	.text.UI_DigInput_Init,"ax",%progbits
 3361              		.align	1
 3362              		.syntax unified
 3363              		.thumb
 3364              		.thumb_func
 3365              		.fpu fpv4-sp-d16
 3367              	UI_DigInput_Init:
 3368              	.LVL307:
 3369              	.LFB48:
1167:Dsp/widget/wgt_core/UI_Controller.c **** 
1168:Dsp/widget/wgt_core/UI_Controller.c **** static bool UI_DigInput_Init(UI_DigInputObj_TypeDef *Obj, char *label, int16_t x, int16_t y, UI_Dig
1169:Dsp/widget/wgt_core/UI_Controller.c **** {
 3370              		.loc 1 1169 1 is_stmt 1 view -0
 3371              		.cfi_startproc
 3372              		@ args = 4, pretend = 0, frame = 0
 3373              		@ frame_needed = 0, uses_anonymous_args = 0
1170:Dsp/widget/wgt_core/UI_Controller.c ****     if (Obj == NULL)
 3374              		.loc 1 1170 5 view .LVU987
 3375              		.loc 1 1170 8 is_stmt 0 view .LVU988
 3376 0000 0028     		cmp	r0, #0
 3377 0002 53D0     		beq	.L278
1169:Dsp/widget/wgt_core/UI_Controller.c ****     if (Obj == NULL)
 3378              		.loc 1 1169 1 view .LVU989
 3379 0004 10B5     		push	{r4, lr}
 3380              	.LCFI57:
 3381              		.cfi_def_cfa_offset 8
 3382              		.cfi_offset 4, -8
 3383              		.cfi_offset 14, -4
 3384 0006 0446     		mov	r4, r0
1171:Dsp/widget/wgt_core/UI_Controller.c ****         return false;
1172:Dsp/widget/wgt_core/UI_Controller.c **** 
1173:Dsp/widget/wgt_core/UI_Controller.c ****     UI_GenData_Init(&(Obj->Gen_Data), label, x, y);
 3385              		.loc 1 1173 5 is_stmt 1 view .LVU990
 3386 0008 FFF7FEFF 		bl	UI_GenData_Init
 3387              	.LVL308:
1174:Dsp/widget/wgt_core/UI_Controller.c **** 
1175:Dsp/widget/wgt_core/UI_Controller.c ****     Obj->type = type;
 3388              		.loc 1 1175 5 view .LVU991
 3389              		.loc 1 1175 15 is_stmt 0 view .LVU992
 3390 000c 9DF80830 		ldrb	r3, [sp, #8]	@ zero_extendqisi2
 3391 0010 2373     		strb	r3, [r4, #12]
1176:Dsp/widget/wgt_core/UI_Controller.c ****     Obj->selected = false;
 3392              		.loc 1 1176 5 is_stmt 1 view .LVU993
 3393              		.loc 1 1176 19 is_stmt 0 view .LVU994
ARM GAS  /var/folders/lx/hc4sn_b53233_zkc9xbbl97r0000gp/T//ccGA9DTo.s 			page 87


 3394 0012 0023     		movs	r3, #0
 3395 0014 84F83D30 		strb	r3, [r4, #61]
1177:Dsp/widget/wgt_core/UI_Controller.c ****     Obj->InputData_Int.CurVal = 0;
 3396              		.loc 1 1177 5 is_stmt 1 view .LVU995
 3397              		.loc 1 1177 31 is_stmt 0 view .LVU996
 3398 0018 A375     		strb	r3, [r4, #22]
 3399 001a E375     		strb	r3, [r4, #23]
 3400 001c 2376     		strb	r3, [r4, #24]
 3401 001e 6376     		strb	r3, [r4, #25]
1178:Dsp/widget/wgt_core/UI_Controller.c **** 
1179:Dsp/widget/wgt_core/UI_Controller.c ****     Obj->InputData_Int.Max = 0;
 3402              		.loc 1 1179 5 is_stmt 1 view .LVU997
 3403              		.loc 1 1179 28 is_stmt 0 view .LVU998
 3404 0020 6373     		strb	r3, [r4, #13]
 3405 0022 A373     		strb	r3, [r4, #14]
 3406 0024 E373     		strb	r3, [r4, #15]
 3407 0026 2374     		strb	r3, [r4, #16]
1180:Dsp/widget/wgt_core/UI_Controller.c ****     Obj->InputData_Int.Min = 0;
 3408              		.loc 1 1180 5 is_stmt 1 view .LVU999
 3409              		.loc 1 1180 28 is_stmt 0 view .LVU1000
 3410 0028 6374     		strb	r3, [r4, #17]
 3411 002a A374     		strb	r3, [r4, #18]
 3412 002c E374     		strb	r3, [r4, #19]
 3413 002e 2375     		strb	r3, [r4, #20]
1181:Dsp/widget/wgt_core/UI_Controller.c ****     Obj->InputData_Int.CurVal = 0;
 3414              		.loc 1 1181 5 is_stmt 1 view .LVU1001
1182:Dsp/widget/wgt_core/UI_Controller.c **** 
1183:Dsp/widget/wgt_core/UI_Controller.c ****     Obj->InputData_Dou.Max = 0.0;
 3415              		.loc 1 1183 5 view .LVU1002
 3416              		.loc 1 1183 28 is_stmt 0 view .LVU1003
 3417 0030 A376     		strb	r3, [r4, #26]
 3418 0032 E376     		strb	r3, [r4, #27]
 3419 0034 2377     		strb	r3, [r4, #28]
 3420 0036 6377     		strb	r3, [r4, #29]
 3421 0038 A377     		strb	r3, [r4, #30]
 3422 003a E377     		strb	r3, [r4, #31]
 3423 003c 84F82030 		strb	r3, [r4, #32]
 3424 0040 84F82130 		strb	r3, [r4, #33]
1184:Dsp/widget/wgt_core/UI_Controller.c ****     Obj->InputData_Dou.Min = 0.0;
 3425              		.loc 1 1184 5 is_stmt 1 view .LVU1004
 3426              		.loc 1 1184 28 is_stmt 0 view .LVU1005
 3427 0044 84F82230 		strb	r3, [r4, #34]
 3428 0048 84F82330 		strb	r3, [r4, #35]
 3429 004c 84F82430 		strb	r3, [r4, #36]
 3430 0050 84F82530 		strb	r3, [r4, #37]
 3431 0054 84F82630 		strb	r3, [r4, #38]
 3432 0058 84F82730 		strb	r3, [r4, #39]
 3433 005c 84F82830 		strb	r3, [r4, #40]
 3434 0060 84F82930 		strb	r3, [r4, #41]
1185:Dsp/widget/wgt_core/UI_Controller.c ****     Obj->InputData_Dou.CurVal = 0.0;
 3435              		.loc 1 1185 5 is_stmt 1 view .LVU1006
 3436              		.loc 1 1185 31 is_stmt 0 view .LVU1007
 3437 0064 84F82A30 		strb	r3, [r4, #42]
 3438 0068 84F82B30 		strb	r3, [r4, #43]
 3439 006c 84F82C30 		strb	r3, [r4, #44]
 3440 0070 84F82D30 		strb	r3, [r4, #45]
 3441 0074 84F82E30 		strb	r3, [r4, #46]
ARM GAS  /var/folders/lx/hc4sn_b53233_zkc9xbbl97r0000gp/T//ccGA9DTo.s 			page 88


 3442 0078 84F82F30 		strb	r3, [r4, #47]
 3443 007c 84F83030 		strb	r3, [r4, #48]
 3444 0080 84F83130 		strb	r3, [r4, #49]
1186:Dsp/widget/wgt_core/UI_Controller.c **** 
1187:Dsp/widget/wgt_core/UI_Controller.c ****     Obj->InputData_Dou.IntPart = 0;
 3445              		.loc 1 1187 5 is_stmt 1 view .LVU1008
 3446              		.loc 1 1187 32 is_stmt 0 view .LVU1009
 3447 0084 84F83530 		strb	r3, [r4, #53]
 3448 0088 84F83630 		strb	r3, [r4, #54]
 3449 008c 84F83730 		strb	r3, [r4, #55]
 3450 0090 84F83830 		strb	r3, [r4, #56]
1188:Dsp/widget/wgt_core/UI_Controller.c ****     Obj->InputData_Dou.PointPart = 0;
 3451              		.loc 1 1188 5 is_stmt 1 view .LVU1010
 3452              		.loc 1 1188 34 is_stmt 0 view .LVU1011
 3453 0094 84F83930 		strb	r3, [r4, #57]
 3454 0098 84F83A30 		strb	r3, [r4, #58]
 3455 009c 84F83B30 		strb	r3, [r4, #59]
 3456 00a0 84F83C30 		strb	r3, [r4, #60]
1189:Dsp/widget/wgt_core/UI_Controller.c ****     Obj->InputData_Dou.selected_part = DigInput_DefaultPart;
 3457              		.loc 1 1189 5 is_stmt 1 view .LVU1012
 3458              		.loc 1 1189 38 is_stmt 0 view .LVU1013
 3459 00a4 84F83230 		strb	r3, [r4, #50]
1190:Dsp/widget/wgt_core/UI_Controller.c **** 
1191:Dsp/widget/wgt_core/UI_Controller.c ****     return true;
 3460              		.loc 1 1191 5 is_stmt 1 view .LVU1014
 3461              		.loc 1 1191 12 is_stmt 0 view .LVU1015
 3462 00a8 0120     		movs	r0, #1
1192:Dsp/widget/wgt_core/UI_Controller.c **** }
 3463              		.loc 1 1192 1 view .LVU1016
 3464 00aa 10BD     		pop	{r4, pc}
 3465              	.LVL309:
 3466              	.L278:
 3467              	.LCFI58:
 3468              		.cfi_def_cfa_offset 0
 3469              		.cfi_restore 4
 3470              		.cfi_restore 14
1171:Dsp/widget/wgt_core/UI_Controller.c **** 
 3471              		.loc 1 1171 16 view .LVU1017
 3472 00ac 0020     		movs	r0, #0
 3473              	.LVL310:
 3474              		.loc 1 1192 1 view .LVU1018
 3475 00ae 7047     		bx	lr
 3476              		.cfi_endproc
 3477              	.LFE48:
 3479              		.section	.text.UI_DigInput_SetIntRange,"ax",%progbits
 3480              		.align	1
 3481              		.syntax unified
 3482              		.thumb
 3483              		.thumb_func
 3484              		.fpu fpv4-sp-d16
 3486              	UI_DigInput_SetIntRange:
 3487              	.LVL311:
 3488              	.LFB49:
1193:Dsp/widget/wgt_core/UI_Controller.c **** 
1194:Dsp/widget/wgt_core/UI_Controller.c **** static bool UI_DigInput_SetIntRange(UI_DigInputObj_TypeDef *Obj, uint8_t efft_int_len, int32_t max,
1195:Dsp/widget/wgt_core/UI_Controller.c **** {
 3489              		.loc 1 1195 1 is_stmt 1 view -0
ARM GAS  /var/folders/lx/hc4sn_b53233_zkc9xbbl97r0000gp/T//ccGA9DTo.s 			page 89


 3490              		.cfi_startproc
 3491              		@ args = 4, pretend = 0, frame = 0
 3492              		@ frame_needed = 0, uses_anonymous_args = 0
 3493              		@ link register save eliminated.
1196:Dsp/widget/wgt_core/UI_Controller.c ****     if ((Obj == NULL) ||
 3494              		.loc 1 1196 5 view .LVU1020
 3495              		.loc 1 1196 8 is_stmt 0 view .LVU1021
 3496 0000 8446     		mov	ip, r0
 3497 0002 78B1     		cbz	r0, .L285
 3498              		.loc 1 1196 23 discriminator 1 view .LVU1022
 3499 0004 9A42     		cmp	r2, r3
 3500 0006 0FDD     		ble	.L286
1197:Dsp/widget/wgt_core/UI_Controller.c ****         (max <= min) ||
1198:Dsp/widget/wgt_core/UI_Controller.c ****         (Obj->type == UI_DoubleDig_Input))
 3501              		.loc 1 1198 13 view .LVU1023
 3502 0008 007B     		ldrb	r0, [r0, #12]	@ zero_extendqisi2
 3503              	.LVL312:
1197:Dsp/widget/wgt_core/UI_Controller.c ****         (max <= min) ||
 3504              		.loc 1 1197 22 view .LVU1024
 3505 000a 0128     		cmp	r0, #1
 3506 000c 0ED0     		beq	.L287
1199:Dsp/widget/wgt_core/UI_Controller.c ****         return false;
1200:Dsp/widget/wgt_core/UI_Controller.c **** 
1201:Dsp/widget/wgt_core/UI_Controller.c ****     Obj->InputData_Int.Max = max;
 3507              		.loc 1 1201 5 is_stmt 1 view .LVU1025
 3508              		.loc 1 1201 28 is_stmt 0 view .LVU1026
 3509 000e CCF80D20 		str	r2, [ip, #13]	@ unaligned
1202:Dsp/widget/wgt_core/UI_Controller.c ****     Obj->InputData_Int.Min = min;
 3510              		.loc 1 1202 5 is_stmt 1 view .LVU1027
 3511              		.loc 1 1202 28 is_stmt 0 view .LVU1028
 3512 0012 CCF81130 		str	r3, [ip, #17]	@ unaligned
1203:Dsp/widget/wgt_core/UI_Controller.c ****     Obj->InputData_Int.effective_len = efft_int_len;
 3513              		.loc 1 1203 5 is_stmt 1 view .LVU1029
 3514              		.loc 1 1203 38 is_stmt 0 view .LVU1030
 3515 0016 8CF81510 		strb	r1, [ip, #21]
1204:Dsp/widget/wgt_core/UI_Controller.c ****     Obj->InputData_Int.CurVal = cur;
 3516              		.loc 1 1204 5 is_stmt 1 view .LVU1031
 3517              		.loc 1 1204 31 is_stmt 0 view .LVU1032
 3518 001a 009B     		ldr	r3, [sp]
 3519              	.LVL313:
 3520              		.loc 1 1204 31 view .LVU1033
 3521 001c CCF81630 		str	r3, [ip, #22]	@ unaligned
1205:Dsp/widget/wgt_core/UI_Controller.c **** 
1206:Dsp/widget/wgt_core/UI_Controller.c ****     return true;
 3522              		.loc 1 1206 5 is_stmt 1 view .LVU1034
 3523              		.loc 1 1206 12 is_stmt 0 view .LVU1035
 3524 0020 0120     		movs	r0, #1
 3525 0022 7047     		bx	lr
 3526              	.LVL314:
 3527              	.L285:
1199:Dsp/widget/wgt_core/UI_Controller.c **** 
 3528              		.loc 1 1199 16 view .LVU1036
 3529 0024 0020     		movs	r0, #0
 3530              	.LVL315:
1199:Dsp/widget/wgt_core/UI_Controller.c **** 
 3531              		.loc 1 1199 16 view .LVU1037
 3532 0026 7047     		bx	lr
ARM GAS  /var/folders/lx/hc4sn_b53233_zkc9xbbl97r0000gp/T//ccGA9DTo.s 			page 90


 3533              	.LVL316:
 3534              	.L286:
1199:Dsp/widget/wgt_core/UI_Controller.c **** 
 3535              		.loc 1 1199 16 view .LVU1038
 3536 0028 0020     		movs	r0, #0
 3537              	.LVL317:
1199:Dsp/widget/wgt_core/UI_Controller.c **** 
 3538              		.loc 1 1199 16 view .LVU1039
 3539 002a 7047     		bx	lr
 3540              	.L287:
 3541 002c 0020     		movs	r0, #0
1207:Dsp/widget/wgt_core/UI_Controller.c **** }
 3542              		.loc 1 1207 1 view .LVU1040
 3543 002e 7047     		bx	lr
 3544              		.cfi_endproc
 3545              	.LFE49:
 3547              		.global	__aeabi_dsub
 3548              		.global	__aeabi_dcmple
 3549              		.global	__aeabi_d2iz
 3550              		.global	__aeabi_i2d
 3551              		.global	__aeabi_d2uiz
 3552              		.section	.text.UI_DigInput_SetDouRange,"ax",%progbits
 3553              		.align	1
 3554              		.syntax unified
 3555              		.thumb
 3556              		.thumb_func
 3557              		.fpu fpv4-sp-d16
 3559              	UI_DigInput_SetDouRange:
 3560              	.LVL318:
 3561              	.LFB50:
1208:Dsp/widget/wgt_core/UI_Controller.c **** 
1209:Dsp/widget/wgt_core/UI_Controller.c **** static bool UI_DigInput_SetDouRange(UI_DigInputObj_TypeDef *Obj, uint8_t efft_int_len, uint8_t efft
1210:Dsp/widget/wgt_core/UI_Controller.c **** {
 3562              		.loc 1 1210 1 is_stmt 1 view -0
 3563              		.cfi_startproc
 3564              		@ args = 0, pretend = 0, frame = 8
 3565              		@ frame_needed = 0, uses_anonymous_args = 0
 3566              		.loc 1 1210 1 is_stmt 0 view .LVU1042
 3567 0000 2DE9F04F 		push	{r4, r5, r6, r7, r8, r9, r10, fp, lr}
 3568              	.LCFI59:
 3569              		.cfi_def_cfa_offset 36
 3570              		.cfi_offset 4, -36
 3571              		.cfi_offset 5, -32
 3572              		.cfi_offset 6, -28
 3573              		.cfi_offset 7, -24
 3574              		.cfi_offset 8, -20
 3575              		.cfi_offset 9, -16
 3576              		.cfi_offset 10, -12
 3577              		.cfi_offset 11, -8
 3578              		.cfi_offset 14, -4
 3579 0004 83B0     		sub	sp, sp, #12
 3580              	.LCFI60:
 3581              		.cfi_def_cfa_offset 48
 3582 0006 0191     		str	r1, [sp, #4]
1211:Dsp/widget/wgt_core/UI_Controller.c ****     if ((Obj == NULL) ||
 3583              		.loc 1 1211 5 is_stmt 1 view .LVU1043
 3584              		.loc 1 1211 8 is_stmt 0 view .LVU1044
ARM GAS  /var/folders/lx/hc4sn_b53233_zkc9xbbl97r0000gp/T//ccGA9DTo.s 			page 91


 3585 0008 0028     		cmp	r0, #0
 3586 000a 3FD0     		beq	.L290
 3587 000c 1446     		mov	r4, r2
 3588 000e 57EC106B 		vmov	r6, r7, d0
 3589 0012 5BEC11AB 		vmov	r10, fp, d1
 3590 0016 59EC128B 		vmov	r8, r9, d2
 3591 001a 0546     		mov	r5, r0
 3592              		.loc 1 1211 23 discriminator 1 view .LVU1045
 3593 001c C2B3     		cbz	r2, .L291
1212:Dsp/widget/wgt_core/UI_Controller.c ****         (efft_point_len == 0) ||
1213:Dsp/widget/wgt_core/UI_Controller.c ****         (max - min <= 0.00001) ||
 3594              		.loc 1 1213 14 view .LVU1046
 3595 001e 11EE102A 		vmov	r2, s2	@ int
 3596              	.LVL319:
 3597              		.loc 1 1213 14 view .LVU1047
 3598 0022 5B46     		mov	r3, fp
 3599 0024 10EE100A 		vmov	r0, s0	@ int
 3600              	.LVL320:
 3601              		.loc 1 1213 14 view .LVU1048
 3602 0028 3946     		mov	r1, r7
 3603              	.LVL321:
 3604              		.loc 1 1213 14 view .LVU1049
 3605 002a FFF7FEFF 		bl	__aeabi_dsub
 3606              	.LVL322:
1212:Dsp/widget/wgt_core/UI_Controller.c ****         (efft_point_len == 0) ||
 3607              		.loc 1 1212 31 view .LVU1050
 3608 002e 1CA3     		adr	r3, .L295
 3609 0030 D3E90023 		ldrd	r2, [r3]
 3610 0034 FFF7FEFF 		bl	__aeabi_dcmple
 3611              	.LVL323:
 3612 0038 70BB     		cbnz	r0, .L292
1214:Dsp/widget/wgt_core/UI_Controller.c ****         (Obj->type == UI_IntDig_Input))
 3613              		.loc 1 1214 13 view .LVU1051
 3614 003a 2B7B     		ldrb	r3, [r5, #12]	@ zero_extendqisi2
1213:Dsp/widget/wgt_core/UI_Controller.c ****         (Obj->type == UI_IntDig_Input))
 3615              		.loc 1 1213 32 view .LVU1052
 3616 003c 73B3     		cbz	r3, .L293
1215:Dsp/widget/wgt_core/UI_Controller.c ****         return false;
1216:Dsp/widget/wgt_core/UI_Controller.c **** 
1217:Dsp/widget/wgt_core/UI_Controller.c ****     Obj->InputData_Dou.Max = max;
 3617              		.loc 1 1217 5 is_stmt 1 view .LVU1053
 3618              		.loc 1 1217 28 is_stmt 0 view .LVU1054
 3619 003e C5F81A60 		str	r6, [r5, #26]	@ unaligned
 3620 0042 C5F81E70 		str	r7, [r5, #30]	@ unaligned
1218:Dsp/widget/wgt_core/UI_Controller.c ****     Obj->InputData_Dou.Min = min;
 3621              		.loc 1 1218 5 is_stmt 1 view .LVU1055
 3622              		.loc 1 1218 28 is_stmt 0 view .LVU1056
 3623 0046 C5F822A0 		str	r10, [r5, #34]	@ unaligned
 3624 004a C5F826B0 		str	fp, [r5, #38]	@ unaligned
1219:Dsp/widget/wgt_core/UI_Controller.c ****     Obj->InputData_Dou.CurVal = cur;
 3625              		.loc 1 1219 5 is_stmt 1 view .LVU1057
 3626              		.loc 1 1219 31 is_stmt 0 view .LVU1058
 3627 004e C5F82A80 		str	r8, [r5, #42]	@ unaligned
 3628 0052 C5F82E90 		str	r9, [r5, #46]	@ unaligned
1220:Dsp/widget/wgt_core/UI_Controller.c ****     Obj->InputData_Dou.effective_int_len = efft_int_len;
 3629              		.loc 1 1220 5 is_stmt 1 view .LVU1059
 3630              		.loc 1 1220 42 is_stmt 0 view .LVU1060
ARM GAS  /var/folders/lx/hc4sn_b53233_zkc9xbbl97r0000gp/T//ccGA9DTo.s 			page 92


 3631 0056 019B     		ldr	r3, [sp, #4]
 3632 0058 85F83330 		strb	r3, [r5, #51]
1221:Dsp/widget/wgt_core/UI_Controller.c ****     Obj->InputData_Dou.effective_point_len = efft_point_len;
 3633              		.loc 1 1221 5 is_stmt 1 view .LVU1061
 3634              		.loc 1 1221 44 is_stmt 0 view .LVU1062
 3635 005c 85F83440 		strb	r4, [r5, #52]
1222:Dsp/widget/wgt_core/UI_Controller.c **** 
1223:Dsp/widget/wgt_core/UI_Controller.c ****     Obj->InputData_Dou.IntPart = (int32_t)cur;
 3636              		.loc 1 1223 5 is_stmt 1 view .LVU1063
 3637              		.loc 1 1223 34 is_stmt 0 view .LVU1064
 3638 0060 4046     		mov	r0, r8
 3639 0062 4946     		mov	r1, r9
 3640 0064 FFF7FEFF 		bl	__aeabi_d2iz
 3641              	.LVL324:
 3642              		.loc 1 1223 32 view .LVU1065
 3643 0068 C5F83500 		str	r0, [r5, #53]	@ unaligned
1224:Dsp/widget/wgt_core/UI_Controller.c ****     Obj->InputData_Dou.PointPart = cur - (int32_t)cur;
 3644              		.loc 1 1224 5 is_stmt 1 view .LVU1066
 3645              		.loc 1 1224 40 is_stmt 0 view .LVU1067
 3646 006c FFF7FEFF 		bl	__aeabi_i2d
 3647              	.LVL325:
 3648 0070 0246     		mov	r2, r0
 3649 0072 0B46     		mov	r3, r1
 3650 0074 4046     		mov	r0, r8
 3651 0076 4946     		mov	r1, r9
 3652 0078 FFF7FEFF 		bl	__aeabi_dsub
 3653              	.LVL326:
 3654              		.loc 1 1224 34 view .LVU1068
 3655 007c FFF7FEFF 		bl	__aeabi_d2uiz
 3656              	.LVL327:
 3657 0080 C5F83900 		str	r0, [r5, #57]	@ unaligned
1225:Dsp/widget/wgt_core/UI_Controller.c **** 
1226:Dsp/widget/wgt_core/UI_Controller.c ****     Obj->InputData_Dou.selected_part = DigInput_PointPart;
 3658              		.loc 1 1226 5 is_stmt 1 view .LVU1069
 3659              		.loc 1 1226 38 is_stmt 0 view .LVU1070
 3660 0084 0120     		movs	r0, #1
 3661 0086 85F83200 		strb	r0, [r5, #50]
1227:Dsp/widget/wgt_core/UI_Controller.c **** 
1228:Dsp/widget/wgt_core/UI_Controller.c ****     return true;
 3662              		.loc 1 1228 5 is_stmt 1 view .LVU1071
 3663              		.loc 1 1228 12 is_stmt 0 view .LVU1072
 3664 008a 02E0     		b	.L289
 3665              	.LVL328:
 3666              	.L290:
1215:Dsp/widget/wgt_core/UI_Controller.c **** 
 3667              		.loc 1 1215 16 view .LVU1073
 3668 008c 0020     		movs	r0, #0
 3669              	.LVL329:
1215:Dsp/widget/wgt_core/UI_Controller.c **** 
 3670              		.loc 1 1215 16 view .LVU1074
 3671 008e 00E0     		b	.L289
 3672              	.LVL330:
 3673              	.L291:
1215:Dsp/widget/wgt_core/UI_Controller.c **** 
 3674              		.loc 1 1215 16 view .LVU1075
 3675 0090 0020     		movs	r0, #0
 3676              	.LVL331:
ARM GAS  /var/folders/lx/hc4sn_b53233_zkc9xbbl97r0000gp/T//ccGA9DTo.s 			page 93


 3677              	.L289:
1229:Dsp/widget/wgt_core/UI_Controller.c **** }
 3678              		.loc 1 1229 1 view .LVU1076
 3679 0092 03B0     		add	sp, sp, #12
 3680              	.LCFI61:
 3681              		.cfi_remember_state
 3682              		.cfi_def_cfa_offset 36
 3683              		@ sp needed
 3684 0094 BDE8F08F 		pop	{r4, r5, r6, r7, r8, r9, r10, fp, pc}
 3685              	.LVL332:
 3686              	.L292:
 3687              	.LCFI62:
 3688              		.cfi_restore_state
1215:Dsp/widget/wgt_core/UI_Controller.c **** 
 3689              		.loc 1 1215 16 view .LVU1077
 3690 0098 0020     		movs	r0, #0
 3691 009a FAE7     		b	.L289
 3692              	.L293:
 3693 009c 0020     		movs	r0, #0
 3694 009e F8E7     		b	.L289
 3695              	.L296:
 3696              		.align	3
 3697              	.L295:
 3698 00a0 F168E388 		.word	-1998362383
 3699 00a4 B5F8E43E 		.word	1055193269
 3700              		.cfi_endproc
 3701              	.LFE50:
 3703              		.section	.text.UI_DigInput_GetDoubleVal,"ax",%progbits
 3704              		.align	1
 3705              		.syntax unified
 3706              		.thumb
 3707              		.thumb_func
 3708              		.fpu fpv4-sp-d16
 3710              	UI_DigInput_GetDoubleVal:
 3711              	.LVL333:
 3712              	.LFB51:
1230:Dsp/widget/wgt_core/UI_Controller.c **** 
1231:Dsp/widget/wgt_core/UI_Controller.c **** static bool UI_DigInput_GetDoubleVal(UI_DigInputObj_TypeDef *Obj, double *Out)
1232:Dsp/widget/wgt_core/UI_Controller.c **** {
 3713              		.loc 1 1232 1 is_stmt 1 view -0
 3714              		.cfi_startproc
 3715              		@ args = 0, pretend = 0, frame = 0
 3716              		@ frame_needed = 0, uses_anonymous_args = 0
 3717              		@ link register save eliminated.
1233:Dsp/widget/wgt_core/UI_Controller.c ****     if ((Obj == NULL) || (Obj->type == UI_IntDig_Input))
 3718              		.loc 1 1233 5 view .LVU1079
 3719              		.loc 1 1233 8 is_stmt 0 view .LVU1080
 3720 0000 58B1     		cbz	r0, .L299
 3721              		.loc 1 1233 30 discriminator 1 view .LVU1081
 3722 0002 027B     		ldrb	r2, [r0, #12]	@ zero_extendqisi2
 3723              		.loc 1 1233 23 discriminator 1 view .LVU1082
 3724 0004 5AB1     		cbz	r2, .L300
1232:Dsp/widget/wgt_core/UI_Controller.c ****     if ((Obj == NULL) || (Obj->type == UI_IntDig_Input))
 3725              		.loc 1 1232 1 view .LVU1083
 3726 0006 30B4     		push	{r4, r5}
 3727              	.LCFI63:
 3728              		.cfi_def_cfa_offset 8
ARM GAS  /var/folders/lx/hc4sn_b53233_zkc9xbbl97r0000gp/T//ccGA9DTo.s 			page 94


 3729              		.cfi_offset 4, -8
 3730              		.cfi_offset 5, -4
1234:Dsp/widget/wgt_core/UI_Controller.c ****         return false;
1235:Dsp/widget/wgt_core/UI_Controller.c **** 
1236:Dsp/widget/wgt_core/UI_Controller.c ****     *Out = Obj->InputData_Dou.CurVal;
 3731              		.loc 1 1236 5 is_stmt 1 view .LVU1084
 3732              		.loc 1 1236 30 is_stmt 0 view .LVU1085
 3733 0008 D0F82A40 		ldr	r4, [r0, #42]	@ unaligned
 3734 000c D0F82E50 		ldr	r5, [r0, #46]	@ unaligned
 3735              		.loc 1 1236 10 view .LVU1086
 3736 0010 C1E90045 		strd	r4, [r1]
1237:Dsp/widget/wgt_core/UI_Controller.c **** 
1238:Dsp/widget/wgt_core/UI_Controller.c ****     return true;
 3737              		.loc 1 1238 5 is_stmt 1 view .LVU1087
 3738              		.loc 1 1238 12 is_stmt 0 view .LVU1088
 3739 0014 0120     		movs	r0, #1
 3740              	.LVL334:
1239:Dsp/widget/wgt_core/UI_Controller.c **** }
 3741              		.loc 1 1239 1 view .LVU1089
 3742 0016 30BC     		pop	{r4, r5}
 3743              	.LCFI64:
 3744              		.cfi_restore 5
 3745              		.cfi_restore 4
 3746              		.cfi_def_cfa_offset 0
 3747 0018 7047     		bx	lr
 3748              	.LVL335:
 3749              	.L299:
1234:Dsp/widget/wgt_core/UI_Controller.c ****         return false;
 3750              		.loc 1 1234 16 view .LVU1090
 3751 001a 0020     		movs	r0, #0
 3752              	.LVL336:
1234:Dsp/widget/wgt_core/UI_Controller.c ****         return false;
 3753              		.loc 1 1234 16 view .LVU1091
 3754 001c 7047     		bx	lr
 3755              	.LVL337:
 3756              	.L300:
1234:Dsp/widget/wgt_core/UI_Controller.c ****         return false;
 3757              		.loc 1 1234 16 view .LVU1092
 3758 001e 0020     		movs	r0, #0
 3759              	.LVL338:
 3760              		.loc 1 1239 1 view .LVU1093
 3761 0020 7047     		bx	lr
 3762              		.cfi_endproc
 3763              	.LFE51:
 3765              		.section	.text.UI_DigInput_GetIntVal,"ax",%progbits
 3766              		.align	1
 3767              		.syntax unified
 3768              		.thumb
 3769              		.thumb_func
 3770              		.fpu fpv4-sp-d16
 3772              	UI_DigInput_GetIntVal:
 3773              	.LVL339:
 3774              	.LFB52:
1240:Dsp/widget/wgt_core/UI_Controller.c **** 
1241:Dsp/widget/wgt_core/UI_Controller.c **** static bool UI_DigInput_GetIntVal(UI_DigInputObj_TypeDef *Obj, int32_t *Out)
1242:Dsp/widget/wgt_core/UI_Controller.c **** {
 3775              		.loc 1 1242 1 is_stmt 1 view -0
ARM GAS  /var/folders/lx/hc4sn_b53233_zkc9xbbl97r0000gp/T//ccGA9DTo.s 			page 95


 3776              		.cfi_startproc
 3777              		@ args = 0, pretend = 0, frame = 0
 3778              		@ frame_needed = 0, uses_anonymous_args = 0
 3779              		@ link register save eliminated.
1243:Dsp/widget/wgt_core/UI_Controller.c ****     if ((Obj == NULL) || (Obj->type == UI_DoubleDig_Input))
 3780              		.loc 1 1243 5 view .LVU1095
 3781              		.loc 1 1243 8 is_stmt 0 view .LVU1096
 3782 0000 38B1     		cbz	r0, .L307
 3783              		.loc 1 1243 30 discriminator 1 view .LVU1097
 3784 0002 027B     		ldrb	r2, [r0, #12]	@ zero_extendqisi2
 3785              		.loc 1 1243 23 discriminator 1 view .LVU1098
 3786 0004 012A     		cmp	r2, #1
 3787 0006 06D0     		beq	.L308
1244:Dsp/widget/wgt_core/UI_Controller.c ****         return false;
1245:Dsp/widget/wgt_core/UI_Controller.c **** 
1246:Dsp/widget/wgt_core/UI_Controller.c ****     *Out = Obj->InputData_Int.CurVal;
 3788              		.loc 1 1246 5 is_stmt 1 view .LVU1099
 3789              		.loc 1 1246 30 is_stmt 0 view .LVU1100
 3790 0008 D0F81630 		ldr	r3, [r0, #22]	@ unaligned
 3791              		.loc 1 1246 10 view .LVU1101
 3792 000c 0B60     		str	r3, [r1]
1247:Dsp/widget/wgt_core/UI_Controller.c **** 
1248:Dsp/widget/wgt_core/UI_Controller.c ****     return true;
 3793              		.loc 1 1248 5 is_stmt 1 view .LVU1102
 3794              		.loc 1 1248 12 is_stmt 0 view .LVU1103
 3795 000e 0120     		movs	r0, #1
 3796              	.LVL340:
 3797              		.loc 1 1248 12 view .LVU1104
 3798 0010 7047     		bx	lr
 3799              	.LVL341:
 3800              	.L307:
1244:Dsp/widget/wgt_core/UI_Controller.c ****         return false;
 3801              		.loc 1 1244 16 view .LVU1105
 3802 0012 0020     		movs	r0, #0
 3803              	.LVL342:
1244:Dsp/widget/wgt_core/UI_Controller.c ****         return false;
 3804              		.loc 1 1244 16 view .LVU1106
 3805 0014 7047     		bx	lr
 3806              	.LVL343:
 3807              	.L308:
1244:Dsp/widget/wgt_core/UI_Controller.c ****         return false;
 3808              		.loc 1 1244 16 view .LVU1107
 3809 0016 0020     		movs	r0, #0
 3810              	.LVL344:
1249:Dsp/widget/wgt_core/UI_Controller.c **** }
 3811              		.loc 1 1249 1 view .LVU1108
 3812 0018 7047     		bx	lr
 3813              		.cfi_endproc
 3814              	.LFE52:
 3816              		.section	.text.UI_DigInput_SetSelectStatus,"ax",%progbits
 3817              		.align	1
 3818              		.syntax unified
 3819              		.thumb
 3820              		.thumb_func
 3821              		.fpu fpv4-sp-d16
 3823              	UI_DigInput_SetSelectStatus:
 3824              	.LVL345:
ARM GAS  /var/folders/lx/hc4sn_b53233_zkc9xbbl97r0000gp/T//ccGA9DTo.s 			page 96


 3825              	.LFB53:
1250:Dsp/widget/wgt_core/UI_Controller.c **** 
1251:Dsp/widget/wgt_core/UI_Controller.c **** static bool UI_DigInput_SetSelectStatus(UI_DigInputObj_TypeDef *Obj, bool status)
1252:Dsp/widget/wgt_core/UI_Controller.c **** {
 3826              		.loc 1 1252 1 is_stmt 1 view -0
 3827              		.cfi_startproc
 3828              		@ args = 0, pretend = 0, frame = 0
 3829              		@ frame_needed = 0, uses_anonymous_args = 0
 3830              		@ link register save eliminated.
1253:Dsp/widget/wgt_core/UI_Controller.c ****     if (Obj == NULL)
 3831              		.loc 1 1253 5 view .LVU1110
 3832              		.loc 1 1253 8 is_stmt 0 view .LVU1111
 3833 0000 18B1     		cbz	r0, .L311
1254:Dsp/widget/wgt_core/UI_Controller.c ****         return false;
1255:Dsp/widget/wgt_core/UI_Controller.c **** 
1256:Dsp/widget/wgt_core/UI_Controller.c ****     Obj->selected = status;
 3834              		.loc 1 1256 5 is_stmt 1 view .LVU1112
 3835              		.loc 1 1256 19 is_stmt 0 view .LVU1113
 3836 0002 80F83D10 		strb	r1, [r0, #61]
1257:Dsp/widget/wgt_core/UI_Controller.c **** 
1258:Dsp/widget/wgt_core/UI_Controller.c ****     return true;
 3837              		.loc 1 1258 5 is_stmt 1 view .LVU1114
 3838              		.loc 1 1258 12 is_stmt 0 view .LVU1115
 3839 0006 0120     		movs	r0, #1
 3840              	.LVL346:
 3841              		.loc 1 1258 12 view .LVU1116
 3842 0008 7047     		bx	lr
 3843              	.LVL347:
 3844              	.L311:
1254:Dsp/widget/wgt_core/UI_Controller.c ****         return false;
 3845              		.loc 1 1254 16 view .LVU1117
 3846 000a 0020     		movs	r0, #0
 3847              	.LVL348:
1259:Dsp/widget/wgt_core/UI_Controller.c **** }
 3848              		.loc 1 1259 1 view .LVU1118
 3849 000c 7047     		bx	lr
 3850              		.cfi_endproc
 3851              	.LFE53:
 3853              		.section	.text.UI_DigInput_Move,"ax",%progbits
 3854              		.align	1
 3855              		.syntax unified
 3856              		.thumb
 3857              		.thumb_func
 3858              		.fpu fpv4-sp-d16
 3860              	UI_DigInput_Move:
 3861              	.LVL349:
 3862              	.LFB55:
1260:Dsp/widget/wgt_core/UI_Controller.c **** 
1261:Dsp/widget/wgt_core/UI_Controller.c **** static bool UI_DigInput_GetSelectStatus(UI_DigInputObj_TypeDef *Obj)
1262:Dsp/widget/wgt_core/UI_Controller.c **** {
1263:Dsp/widget/wgt_core/UI_Controller.c ****     if (Obj == NULL)
1264:Dsp/widget/wgt_core/UI_Controller.c ****         return false;
1265:Dsp/widget/wgt_core/UI_Controller.c **** 
1266:Dsp/widget/wgt_core/UI_Controller.c ****     return Obj->selected;
1267:Dsp/widget/wgt_core/UI_Controller.c **** }
1268:Dsp/widget/wgt_core/UI_Controller.c **** 
1269:Dsp/widget/wgt_core/UI_Controller.c **** static bool UI_DigInput_Move(UI_DigInputObj_TypeDef *Obj, int16_t x, int16_t y)
ARM GAS  /var/folders/lx/hc4sn_b53233_zkc9xbbl97r0000gp/T//ccGA9DTo.s 			page 97


1270:Dsp/widget/wgt_core/UI_Controller.c **** {
 3863              		.loc 1 1270 1 is_stmt 1 view -0
 3864              		.cfi_startproc
 3865              		@ args = 0, pretend = 0, frame = 0
 3866              		@ frame_needed = 0, uses_anonymous_args = 0
1271:Dsp/widget/wgt_core/UI_Controller.c ****     if (Obj == NULL)
 3867              		.loc 1 1271 5 view .LVU1120
 3868              		.loc 1 1271 8 is_stmt 0 view .LVU1121
 3869 0000 18B1     		cbz	r0, .L314
1270:Dsp/widget/wgt_core/UI_Controller.c ****     if (Obj == NULL)
 3870              		.loc 1 1270 1 view .LVU1122
 3871 0002 08B5     		push	{r3, lr}
 3872              	.LCFI65:
 3873              		.cfi_def_cfa_offset 8
 3874              		.cfi_offset 3, -8
 3875              		.cfi_offset 14, -4
1272:Dsp/widget/wgt_core/UI_Controller.c ****         return false;
1273:Dsp/widget/wgt_core/UI_Controller.c **** 
1274:Dsp/widget/wgt_core/UI_Controller.c ****     return UI_Move(&(Obj->Gen_Data), x, y);
 3876              		.loc 1 1274 5 is_stmt 1 view .LVU1123
 3877              		.loc 1 1274 12 is_stmt 0 view .LVU1124
 3878 0004 FFF7FEFF 		bl	UI_Move
 3879              	.LVL350:
1275:Dsp/widget/wgt_core/UI_Controller.c **** }
 3880              		.loc 1 1275 1 view .LVU1125
 3881 0008 08BD     		pop	{r3, pc}
 3882              	.LVL351:
 3883              	.L314:
 3884              	.LCFI66:
 3885              		.cfi_def_cfa_offset 0
 3886              		.cfi_restore 3
 3887              		.cfi_restore 14
1272:Dsp/widget/wgt_core/UI_Controller.c ****         return false;
 3888              		.loc 1 1272 16 view .LVU1126
 3889 000a 0020     		movs	r0, #0
 3890              	.LVL352:
 3891              		.loc 1 1275 1 view .LVU1127
 3892 000c 7047     		bx	lr
 3893              		.cfi_endproc
 3894              	.LFE55:
 3896              		.section	.text.UI_CheckBox_Ctl,"ax",%progbits
 3897              		.align	1
 3898              		.syntax unified
 3899              		.thumb
 3900              		.thumb_func
 3901              		.fpu fpv4-sp-d16
 3903              	UI_CheckBox_Ctl:
 3904              	.LVL353:
 3905              	.LFB22:
 570:Dsp/widget/wgt_core/UI_Controller.c ****     int16_t frame_x = 0;
 3906              		.loc 1 570 1 is_stmt 1 view -0
 3907              		.cfi_startproc
 3908              		@ args = 0, pretend = 0, frame = 0
 3909              		@ frame_needed = 0, uses_anonymous_args = 0
 570:Dsp/widget/wgt_core/UI_Controller.c ****     int16_t frame_x = 0;
 3910              		.loc 1 570 1 is_stmt 0 view .LVU1129
 3911 0000 2DE9F04F 		push	{r4, r5, r6, r7, r8, r9, r10, fp, lr}
ARM GAS  /var/folders/lx/hc4sn_b53233_zkc9xbbl97r0000gp/T//ccGA9DTo.s 			page 98


 3912              	.LCFI67:
 3913              		.cfi_def_cfa_offset 36
 3914              		.cfi_offset 4, -36
 3915              		.cfi_offset 5, -32
 3916              		.cfi_offset 6, -28
 3917              		.cfi_offset 7, -24
 3918              		.cfi_offset 8, -20
 3919              		.cfi_offset 9, -16
 3920              		.cfi_offset 10, -12
 3921              		.cfi_offset 11, -8
 3922              		.cfi_offset 14, -4
 3923 0004 83B0     		sub	sp, sp, #12
 3924              	.LCFI68:
 3925              		.cfi_def_cfa_offset 48
 571:Dsp/widget/wgt_core/UI_Controller.c ****     int16_t frame_y = 0;
 3926              		.loc 1 571 5 is_stmt 1 view .LVU1130
 3927              	.LVL354:
 572:Dsp/widget/wgt_core/UI_Controller.c ****     int16_t str_x = 0;
 3928              		.loc 1 572 5 view .LVU1131
 573:Dsp/widget/wgt_core/UI_Controller.c ****     int16_t str_y = 0;
 3929              		.loc 1 573 5 view .LVU1132
 574:Dsp/widget/wgt_core/UI_Controller.c **** 
 3930              		.loc 1 574 5 view .LVU1133
 576:Dsp/widget/wgt_core/UI_Controller.c ****         (UI_DspInterface.draw_str == NULL) ||
 3931              		.loc 1 576 5 view .LVU1134
 576:Dsp/widget/wgt_core/UI_Controller.c ****         (UI_DspInterface.draw_str == NULL) ||
 3932              		.loc 1 576 8 is_stmt 0 view .LVU1135
 3933 0006 0028     		cmp	r0, #0
 3934 0008 49D0     		beq	.L322
 3935 000a 0646     		mov	r6, r0
 577:Dsp/widget/wgt_core/UI_Controller.c ****         (UI_DspInterface.fill_rectangle == NULL) ||
 3936              		.loc 1 577 25 discriminator 1 view .LVU1136
 3937 000c 2A4B     		ldr	r3, .L329
 3938 000e 1F68     		ldr	r7, [r3]
 576:Dsp/widget/wgt_core/UI_Controller.c ****         (UI_DspInterface.draw_str == NULL) ||
 3939              		.loc 1 576 23 discriminator 1 view .LVU1137
 3940 0010 002F     		cmp	r7, #0
 3941 0012 46D0     		beq	.L323
 578:Dsp/widget/wgt_core/UI_Controller.c ****         (UI_DspInterface.draw_rectangle == NULL))
 3942              		.loc 1 578 25 view .LVU1138
 3943 0014 5B6A     		ldr	r3, [r3, #36]
 577:Dsp/widget/wgt_core/UI_Controller.c ****         (UI_DspInterface.fill_rectangle == NULL) ||
 3944              		.loc 1 577 44 view .LVU1139
 3945 0016 002B     		cmp	r3, #0
 3946 0018 45D0     		beq	.L324
 579:Dsp/widget/wgt_core/UI_Controller.c ****         return false;
 3947              		.loc 1 579 25 view .LVU1140
 3948 001a 274B     		ldr	r3, .L329
 3949 001c 9B69     		ldr	r3, [r3, #24]
 578:Dsp/widget/wgt_core/UI_Controller.c ****         (UI_DspInterface.draw_rectangle == NULL))
 3950              		.loc 1 578 50 view .LVU1141
 3951 001e 002B     		cmp	r3, #0
 3952 0020 43D0     		beq	.L325
 582:Dsp/widget/wgt_core/UI_Controller.c ****     frame_y = Obj->Gen_Data.y + 3;
 3953              		.loc 1 582 5 is_stmt 1 view .LVU1142
 582:Dsp/widget/wgt_core/UI_Controller.c ****     frame_y = Obj->Gen_Data.y + 3;
 3954              		.loc 1 582 35 is_stmt 0 view .LVU1143
ARM GAS  /var/folders/lx/hc4sn_b53233_zkc9xbbl97r0000gp/T//ccGA9DTo.s 			page 99


 3955 0022 D0F80080 		ldr	r8, [r0]	@ unaligned
 582:Dsp/widget/wgt_core/UI_Controller.c ****     frame_y = Obj->Gen_Data.y + 3;
 3956              		.loc 1 582 15 view .LVU1144
 3957 0026 4046     		mov	r0, r8
 3958              	.LVL355:
 582:Dsp/widget/wgt_core/UI_Controller.c ****     frame_y = Obj->Gen_Data.y + 3;
 3959              		.loc 1 582 15 view .LVU1145
 3960 0028 FFF7FEFF 		bl	strlen
 3961              	.LVL356:
 582:Dsp/widget/wgt_core/UI_Controller.c ****     frame_y = Obj->Gen_Data.y + 3;
 3962              		.loc 1 582 13 view .LVU1146
 3963 002c 00EB4000 		add	r0, r0, r0, lsl #1
 3964 0030 4400     		lsls	r4, r0, #1
 3965 0032 A4B2     		uxth	r4, r4
 3966              	.LVL357:
 583:Dsp/widget/wgt_core/UI_Controller.c ****     frame_x += DEFAULT_CHECKBOX_OFFSET;
 3967              		.loc 1 583 5 is_stmt 1 view .LVU1147
 583:Dsp/widget/wgt_core/UI_Controller.c ****     frame_x += DEFAULT_CHECKBOX_OFFSET;
 3968              		.loc 1 583 28 is_stmt 0 view .LVU1148
 3969 0034 B6F90650 		ldrsh	r5, [r6, #6]	@ unaligned
 3970 0038 2BB2     		sxth	r3, r5
 3971 003a ADB2     		uxth	r5, r5
 583:Dsp/widget/wgt_core/UI_Controller.c ****     frame_x += DEFAULT_CHECKBOX_OFFSET;
 3972              		.loc 1 583 31 view .LVU1149
 3973 003c 05F1030A 		add	r10, r5, #3
 583:Dsp/widget/wgt_core/UI_Controller.c ****     frame_x += DEFAULT_CHECKBOX_OFFSET;
 3974              		.loc 1 583 13 view .LVU1150
 3975 0040 0FFA8AFA 		sxth	r10, r10
 3976              	.LVL358:
 584:Dsp/widget/wgt_core/UI_Controller.c **** 
 3977              		.loc 1 584 5 is_stmt 1 view .LVU1151
 584:Dsp/widget/wgt_core/UI_Controller.c **** 
 3978              		.loc 1 584 13 is_stmt 0 view .LVU1152
 3979 0044 04F10509 		add	r9, r4, #5
 3980 0048 0FFA89F9 		sxth	r9, r9
 3981              	.LVL359:
 586:Dsp/widget/wgt_core/UI_Controller.c ****     str_y = Obj->Gen_Data.y;
 3982              		.loc 1 586 5 is_stmt 1 view .LVU1153
 586:Dsp/widget/wgt_core/UI_Controller.c ****     str_y = Obj->Gen_Data.y;
 3983              		.loc 1 586 26 is_stmt 0 view .LVU1154
 3984 004c B288     		ldrh	r2, [r6, #4]	@ unaligned
 586:Dsp/widget/wgt_core/UI_Controller.c ****     str_y = Obj->Gen_Data.y;
 3985              		.loc 1 586 29 view .LVU1155
 3986 004e 0332     		adds	r2, r2, #3
 586:Dsp/widget/wgt_core/UI_Controller.c ****     str_y = Obj->Gen_Data.y;
 3987              		.loc 1 586 11 view .LVU1156
 3988 0050 12B2     		sxth	r2, r2
 3989              	.LVL360:
 587:Dsp/widget/wgt_core/UI_Controller.c **** 
 3990              		.loc 1 587 5 is_stmt 1 view .LVU1157
 589:Dsp/widget/wgt_core/UI_Controller.c ****         str_y += 1;
 3991              		.loc 1 589 5 view .LVU1158
 589:Dsp/widget/wgt_core/UI_Controller.c ****         str_y += 1;
 3992              		.loc 1 589 19 is_stmt 0 view .LVU1159
 3993 0052 1A49     		ldr	r1, .L329+4
 3994 0054 0878     		ldrb	r0, [r1]	@ zero_extendqisi2
 589:Dsp/widget/wgt_core/UI_Controller.c ****         str_y += 1;
ARM GAS  /var/folders/lx/hc4sn_b53233_zkc9xbbl97r0000gp/T//ccGA9DTo.s 			page 100


 3995              		.loc 1 589 8 view .LVU1160
 3996 0056 0828     		cmp	r0, #8
 3997 0058 1ED0     		beq	.L328
 3998              	.LVL361:
 3999              	.L321:
 592:Dsp/widget/wgt_core/UI_Controller.c ****     UI_DspInterface.draw_rectangle(frame_x, frame_y, DEFAULT_CHECKBOX_FRAME_SIZE, DEFAULT_CHECKBOX_
 4000              		.loc 1 592 5 is_stmt 1 view .LVU1161
 4001 005a 4FF0010B 		mov	fp, #1
 4002 005e CDF800B0 		str	fp, [sp]
 4003 0062 4146     		mov	r1, r8
 4004 0064 B847     		blx	r7
 4005              	.LVL362:
 593:Dsp/widget/wgt_core/UI_Controller.c **** 
 4006              		.loc 1 593 5 view .LVU1162
 593:Dsp/widget/wgt_core/UI_Controller.c **** 
 4007              		.loc 1 593 20 is_stmt 0 view .LVU1163
 4008 0066 144B     		ldr	r3, .L329
 4009 0068 9F69     		ldr	r7, [r3, #24]
 593:Dsp/widget/wgt_core/UI_Controller.c **** 
 4010              		.loc 1 593 5 view .LVU1164
 4011 006a CDF804B0 		str	fp, [sp, #4]
 4012 006e CDF800B0 		str	fp, [sp]
 4013 0072 0723     		movs	r3, #7
 4014 0074 1A46     		mov	r2, r3
 4015 0076 5146     		mov	r1, r10
 4016 0078 4846     		mov	r0, r9
 4017 007a B847     		blx	r7
 4018              	.LVL363:
 595:Dsp/widget/wgt_core/UI_Controller.c ****         UI_DspInterface.fill_rectangle(frame_x + 2, frame_y + 2, DEFAULT_CHECKBOX_FILLFRAME, DEFAUL
 4019              		.loc 1 595 5 is_stmt 1 view .LVU1165
 595:Dsp/widget/wgt_core/UI_Controller.c ****         UI_DspInterface.fill_rectangle(frame_x + 2, frame_y + 2, DEFAULT_CHECKBOX_FILLFRAME, DEFAUL
 4020              		.loc 1 595 12 is_stmt 0 view .LVU1166
 4021 007c 367C     		ldrb	r6, [r6, #16]	@ zero_extendqisi2
 4022              	.LVL364:
 595:Dsp/widget/wgt_core/UI_Controller.c ****         UI_DspInterface.fill_rectangle(frame_x + 2, frame_y + 2, DEFAULT_CHECKBOX_FILLFRAME, DEFAUL
 4023              		.loc 1 595 8 view .LVU1167
 4024 007e B6B1     		cbz	r6, .L326
 596:Dsp/widget/wgt_core/UI_Controller.c **** 
 4025              		.loc 1 596 9 is_stmt 1 view .LVU1168
 596:Dsp/widget/wgt_core/UI_Controller.c **** 
 4026              		.loc 1 596 24 is_stmt 0 view .LVU1169
 4027 0080 0D4B     		ldr	r3, .L329
 4028 0082 5F6A     		ldr	r7, [r3, #36]
 596:Dsp/widget/wgt_core/UI_Controller.c **** 
 4029              		.loc 1 596 48 view .LVU1170
 4030 0084 E01D     		adds	r0, r4, #7
 596:Dsp/widget/wgt_core/UI_Controller.c **** 
 4031              		.loc 1 596 61 view .LVU1171
 4032 0086 691D     		adds	r1, r5, #5
 596:Dsp/widget/wgt_core/UI_Controller.c **** 
 4033              		.loc 1 596 9 view .LVU1172
 4034 0088 CDF800B0 		str	fp, [sp]
 4035 008c 0323     		movs	r3, #3
 4036 008e 1A46     		mov	r2, r3
 4037 0090 09B2     		sxth	r1, r1
 4038 0092 00B2     		sxth	r0, r0
 4039 0094 B847     		blx	r7
ARM GAS  /var/folders/lx/hc4sn_b53233_zkc9xbbl97r0000gp/T//ccGA9DTo.s 			page 101


 4040              	.LVL365:
 4041 0096 0BE0     		b	.L320
 4042              	.LVL366:
 4043              	.L328:
 590:Dsp/widget/wgt_core/UI_Controller.c **** 
 4044              		.loc 1 590 9 is_stmt 1 view .LVU1173
 590:Dsp/widget/wgt_core/UI_Controller.c **** 
 4045              		.loc 1 590 15 is_stmt 0 view .LVU1174
 4046 0098 6B1C     		adds	r3, r5, #1
 4047 009a 1BB2     		sxth	r3, r3
 4048              	.LVL367:
 590:Dsp/widget/wgt_core/UI_Controller.c **** 
 4049              		.loc 1 590 15 view .LVU1175
 4050 009c DDE7     		b	.L321
 4051              	.LVL368:
 4052              	.L322:
 580:Dsp/widget/wgt_core/UI_Controller.c **** 
 4053              		.loc 1 580 16 view .LVU1176
 4054 009e 0026     		movs	r6, #0
 4055 00a0 06E0     		b	.L320
 4056              	.L323:
 580:Dsp/widget/wgt_core/UI_Controller.c **** 
 4057              		.loc 1 580 16 view .LVU1177
 4058 00a2 0026     		movs	r6, #0
 4059 00a4 04E0     		b	.L320
 4060              	.L324:
 580:Dsp/widget/wgt_core/UI_Controller.c **** 
 4061              		.loc 1 580 16 view .LVU1178
 4062 00a6 0026     		movs	r6, #0
 4063 00a8 02E0     		b	.L320
 4064              	.L325:
 580:Dsp/widget/wgt_core/UI_Controller.c **** 
 4065              		.loc 1 580 16 view .LVU1179
 4066 00aa 0026     		movs	r6, #0
 4067 00ac 00E0     		b	.L320
 4068              	.LVL369:
 4069              	.L326:
 598:Dsp/widget/wgt_core/UI_Controller.c **** }
 4070              		.loc 1 598 12 view .LVU1180
 4071 00ae 0126     		movs	r6, #1
 4072              	.LVL370:
 4073              	.L320:
 599:Dsp/widget/wgt_core/UI_Controller.c **** 
 4074              		.loc 1 599 1 view .LVU1181
 4075 00b0 3046     		mov	r0, r6
 4076 00b2 03B0     		add	sp, sp, #12
 4077              	.LCFI69:
 4078              		.cfi_def_cfa_offset 36
 4079              		@ sp needed
 4080 00b4 BDE8F08F 		pop	{r4, r5, r6, r7, r8, r9, r10, fp, pc}
 4081              	.L330:
 4082              		.align	2
 4083              	.L329:
 4084 00b8 00000000 		.word	.LANCHOR0
 4085 00bc 00000000 		.word	.LANCHOR2
 4086              		.cfi_endproc
 4087              	.LFE22:
ARM GAS  /var/folders/lx/hc4sn_b53233_zkc9xbbl97r0000gp/T//ccGA9DTo.s 			page 102


 4089              		.section	.text.UI_SlideBar_CTL,"ax",%progbits
 4090              		.align	1
 4091              		.syntax unified
 4092              		.thumb
 4093              		.thumb_func
 4094              		.fpu fpv4-sp-d16
 4096              	UI_SlideBar_CTL:
 4097              	.LVL371:
 4098              	.LFB28:
 683:Dsp/widget/wgt_core/UI_Controller.c ****     int16_t Block_CoordX = 0;
 4099              		.loc 1 683 1 is_stmt 1 view -0
 4100              		.cfi_startproc
 4101              		@ args = 0, pretend = 0, frame = 0
 4102              		@ frame_needed = 0, uses_anonymous_args = 0
 684:Dsp/widget/wgt_core/UI_Controller.c ****     int16_t Block_CoordY = 0;
 4103              		.loc 1 684 5 view .LVU1183
 685:Dsp/widget/wgt_core/UI_Controller.c ****     int16_t input_trip = 0;
 4104              		.loc 1 685 5 view .LVU1184
 686:Dsp/widget/wgt_core/UI_Controller.c ****     int16_t str_y = Obj->Gen_Data.y;
 4105              		.loc 1 686 5 view .LVU1185
 687:Dsp/widget/wgt_core/UI_Controller.c **** 
 4106              		.loc 1 687 5 view .LVU1186
 687:Dsp/widget/wgt_core/UI_Controller.c **** 
 4107              		.loc 1 687 13 is_stmt 0 view .LVU1187
 4108 0000 B0F90620 		ldrsh	r2, [r0, #6]	@ unaligned
 4109              	.LVL372:
 689:Dsp/widget/wgt_core/UI_Controller.c ****         (UI_DspInterface.draw_str == NULL) ||
 4110              		.loc 1 689 5 is_stmt 1 view .LVU1188
 689:Dsp/widget/wgt_core/UI_Controller.c ****         (UI_DspInterface.draw_str == NULL) ||
 4111              		.loc 1 689 8 is_stmt 0 view .LVU1189
 4112 0004 0028     		cmp	r0, #0
 4113 0006 7BD0     		beq	.L335
 683:Dsp/widget/wgt_core/UI_Controller.c ****     int16_t Block_CoordX = 0;
 4114              		.loc 1 683 1 discriminator 1 view .LVU1190
 4115 0008 2DE9F041 		push	{r4, r5, r6, r7, r8, lr}
 4116              	.LCFI70:
 4117              		.cfi_def_cfa_offset 24
 4118              		.cfi_offset 4, -24
 4119              		.cfi_offset 5, -20
 4120              		.cfi_offset 6, -16
 4121              		.cfi_offset 7, -12
 4122              		.cfi_offset 8, -8
 4123              		.cfi_offset 14, -4
 4124 000c 82B0     		sub	sp, sp, #8
 4125              	.LCFI71:
 4126              		.cfi_def_cfa_offset 32
 4127 000e 0446     		mov	r4, r0
 4128 0010 1346     		mov	r3, r2
 690:Dsp/widget/wgt_core/UI_Controller.c ****         (UI_DspInterface.fill_rectangle == NULL))
 4129              		.loc 1 690 25 discriminator 1 view .LVU1191
 4130 0012 3F49     		ldr	r1, .L344
 4131 0014 0E68     		ldr	r6, [r1]
 689:Dsp/widget/wgt_core/UI_Controller.c ****         (UI_DspInterface.draw_str == NULL) ||
 4132              		.loc 1 689 23 discriminator 1 view .LVU1192
 4133 0016 002E     		cmp	r6, #0
 4134 0018 74D0     		beq	.L336
 691:Dsp/widget/wgt_core/UI_Controller.c ****         return false;
ARM GAS  /var/folders/lx/hc4sn_b53233_zkc9xbbl97r0000gp/T//ccGA9DTo.s 			page 103


 4135              		.loc 1 691 25 view .LVU1193
 4136 001a 496A     		ldr	r1, [r1, #36]
 690:Dsp/widget/wgt_core/UI_Controller.c ****         (UI_DspInterface.fill_rectangle == NULL))
 4137              		.loc 1 690 44 view .LVU1194
 4138 001c 0029     		cmp	r1, #0
 4139 001e 73D0     		beq	.L337
 694:Dsp/widget/wgt_core/UI_Controller.c ****         str_y += 1;
 4140              		.loc 1 694 5 is_stmt 1 view .LVU1195
 694:Dsp/widget/wgt_core/UI_Controller.c ****         str_y += 1;
 4141              		.loc 1 694 19 is_stmt 0 view .LVU1196
 4142 0020 3C49     		ldr	r1, .L344+4
 4143 0022 0878     		ldrb	r0, [r1]	@ zero_extendqisi2
 4144              	.LVL373:
 694:Dsp/widget/wgt_core/UI_Controller.c ****         str_y += 1;
 4145              		.loc 1 694 8 view .LVU1197
 4146 0024 0828     		cmp	r0, #8
 4147 0026 64D0     		beq	.L343
 4148              	.LVL374:
 4149              	.L333:
 697:Dsp/widget/wgt_core/UI_Controller.c **** 
 4150              		.loc 1 697 5 is_stmt 1 view .LVU1198
 697:Dsp/widget/wgt_core/UI_Controller.c **** 
 4151              		.loc 1 697 21 is_stmt 0 view .LVU1199
 4152 0028 D4F81520 		ldr	r2, [r4, #21]	@ unaligned
 4153 002c 07EE902A 		vmov	s15, r2	@ int
 697:Dsp/widget/wgt_core/UI_Controller.c **** 
 4154              		.loc 1 697 38 view .LVU1200
 4155 0030 D4F81120 		ldr	r2, [r4, #17]	@ unaligned
 697:Dsp/widget/wgt_core/UI_Controller.c **** 
 4156              		.loc 1 697 33 view .LVU1201
 4157 0034 07EE102A 		vmov	s14, r2
 4158 0038 77EEC77A 		vsub.f32	s15, s15, s14
 697:Dsp/widget/wgt_core/UI_Controller.c **** 
 4159              		.loc 1 697 16 view .LVU1202
 4160 003c FDEEE77A 		vcvt.s32.f32	s15, s15
 4161 0040 17EE902A 		vmov	r2, s15	@ int
 4162 0044 15B2     		sxth	r5, r2
 4163              	.LVL375:
 699:Dsp/widget/wgt_core/UI_Controller.c **** 
 4164              		.loc 1 699 5 is_stmt 1 view .LVU1203
 699:Dsp/widget/wgt_core/UI_Controller.c **** 
 4165              		.loc 1 699 75 is_stmt 0 view .LVU1204
 4166 0046 A288     		ldrh	r2, [r4, #4]	@ unaligned
 699:Dsp/widget/wgt_core/UI_Controller.c **** 
 4167              		.loc 1 699 78 view .LVU1205
 4168 0048 0332     		adds	r2, r2, #3
 699:Dsp/widget/wgt_core/UI_Controller.c **** 
 4169              		.loc 1 699 5 view .LVU1206
 4170 004a 0121     		movs	r1, #1
 4171 004c 0091     		str	r1, [sp]
 4172 004e 12B2     		sxth	r2, r2
 4173 0050 2168     		ldr	r1, [r4]	@ unaligned
 4174 0052 B047     		blx	r6
 4175              	.LVL376:
 701:Dsp/widget/wgt_core/UI_Controller.c ****     {
 4176              		.loc 1 701 5 is_stmt 1 view .LVU1207
 701:Dsp/widget/wgt_core/UI_Controller.c ****     {
ARM GAS  /var/folders/lx/hc4sn_b53233_zkc9xbbl97r0000gp/T//ccGA9DTo.s 			page 104


 4177              		.loc 1 701 12 is_stmt 0 view .LVU1208
 4178 0054 237B     		ldrb	r3, [r4, #12]	@ zero_extendqisi2
 701:Dsp/widget/wgt_core/UI_Controller.c ****     {
 4179              		.loc 1 701 8 view .LVU1209
 4180 0056 002B     		cmp	r3, #0
 4181 0058 4ED1     		bne	.L334
 703:Dsp/widget/wgt_core/UI_Controller.c ****         Obj->BarCoord_Y = Obj->Gen_Data.y + 5;
 4182              		.loc 1 703 9 is_stmt 1 view .LVU1210
 703:Dsp/widget/wgt_core/UI_Controller.c ****         Obj->BarCoord_Y = Obj->Gen_Data.y + 5;
 4183              		.loc 1 703 40 is_stmt 0 view .LVU1211
 4184 005a A688     		ldrh	r6, [r4, #4]	@ unaligned
 703:Dsp/widget/wgt_core/UI_Controller.c ****         Obj->BarCoord_Y = Obj->Gen_Data.y + 5;
 4185              		.loc 1 703 45 view .LVU1212
 4186 005c 2068     		ldr	r0, [r4]	@ unaligned
 4187 005e FFF7FEFF 		bl	strlen
 4188              	.LVL377:
 703:Dsp/widget/wgt_core/UI_Controller.c ****         Obj->BarCoord_Y = Obj->Gen_Data.y + 5;
 4189              		.loc 1 703 43 view .LVU1213
 4190 0062 00EB4003 		add	r3, r0, r0, lsl #1
 4191 0066 06EB4303 		add	r3, r6, r3, lsl #1
 4192 006a 9BB2     		uxth	r3, r3
 703:Dsp/widget/wgt_core/UI_Controller.c ****         Obj->BarCoord_Y = Obj->Gen_Data.y + 5;
 4193              		.loc 1 703 83 view .LVU1214
 4194 006c 0533     		adds	r3, r3, #5
 4195 006e 18B2     		sxth	r0, r3
 703:Dsp/widget/wgt_core/UI_Controller.c ****         Obj->BarCoord_Y = Obj->Gen_Data.y + 5;
 4196              		.loc 1 703 25 view .LVU1215
 4197 0070 A384     		strh	r3, [r4, #36]	@ unaligned
 704:Dsp/widget/wgt_core/UI_Controller.c **** 
 4198              		.loc 1 704 9 is_stmt 1 view .LVU1216
 704:Dsp/widget/wgt_core/UI_Controller.c **** 
 4199              		.loc 1 704 40 is_stmt 0 view .LVU1217
 4200 0072 E188     		ldrh	r1, [r4, #6]	@ unaligned
 704:Dsp/widget/wgt_core/UI_Controller.c **** 
 4201              		.loc 1 704 43 view .LVU1218
 4202 0074 0531     		adds	r1, r1, #5
 704:Dsp/widget/wgt_core/UI_Controller.c **** 
 4203              		.loc 1 704 25 view .LVU1219
 4204 0076 E184     		strh	r1, [r4, #38]	@ unaligned
 706:Dsp/widget/wgt_core/UI_Controller.c ****         Block_CoordX += (Obj->cur_val - Obj->limit_min) / ((float)(input_trip)) * (DEFAULT_SLIDERBA
 4205              		.loc 1 706 9 is_stmt 1 view .LVU1220
 4206              	.LVL378:
 707:Dsp/widget/wgt_core/UI_Controller.c **** 
 4207              		.loc 1 707 9 view .LVU1221
 707:Dsp/widget/wgt_core/UI_Controller.c **** 
 4208              		.loc 1 707 29 is_stmt 0 view .LVU1222
 4209 0078 D4F81F30 		ldr	r3, [r4, #31]	@ unaligned
 4210 007c 06EE903A 		vmov	s13, r3	@ int
 707:Dsp/widget/wgt_core/UI_Controller.c **** 
 4211              		.loc 1 707 44 view .LVU1223
 4212 0080 D4F81130 		ldr	r3, [r4, #17]	@ unaligned
 707:Dsp/widget/wgt_core/UI_Controller.c **** 
 4213              		.loc 1 707 39 view .LVU1224
 4214 0084 07EE903A 		vmov	s15, r3
 4215 0088 76EEE76A 		vsub.f32	s13, s13, s15
 707:Dsp/widget/wgt_core/UI_Controller.c **** 
 4216              		.loc 1 707 60 view .LVU1225
ARM GAS  /var/folders/lx/hc4sn_b53233_zkc9xbbl97r0000gp/T//ccGA9DTo.s 			page 105


 4217 008c 07EE905A 		vmov	s15, r5	@ int
 4218 0090 B8EEE77A 		vcvt.f32.s32	s14, s15
 707:Dsp/widget/wgt_core/UI_Controller.c **** 
 4219              		.loc 1 707 57 view .LVU1226
 4220 0094 C6EE877A 		vdiv.f32	s15, s13, s14
 707:Dsp/widget/wgt_core/UI_Controller.c **** 
 4221              		.loc 1 707 81 view .LVU1227
 4222 0098 9FED1F7A 		vldr.32	s14, .L344+8
 4223 009c 27EE877A 		vmul.f32	s14, s15, s14
 707:Dsp/widget/wgt_core/UI_Controller.c **** 
 4224              		.loc 1 707 22 view .LVU1228
 4225 00a0 07EE900A 		vmov	s15, r0	@ int
 4226 00a4 F8EEE77A 		vcvt.f32.s32	s15, s15
 4227 00a8 77EE877A 		vadd.f32	s15, s15, s14
 4228 00ac FDEEE77A 		vcvt.s32.f32	s15, s15
 4229 00b0 17EE903A 		vmov	r3, s15	@ int
 4230 00b4 0FFA83F8 		sxth	r8, r3
 4231              	.LVL379:
 709:Dsp/widget/wgt_core/UI_Controller.c **** 
 4232              		.loc 1 709 9 is_stmt 1 view .LVU1229
 709:Dsp/widget/wgt_core/UI_Controller.c **** 
 4233              		.loc 1 709 24 is_stmt 0 view .LVU1230
 4234 00b8 154F     		ldr	r7, .L344
 709:Dsp/widget/wgt_core/UI_Controller.c **** 
 4235              		.loc 1 709 9 view .LVU1231
 4236 00ba 0125     		movs	r5, #1
 4237              	.LVL380:
 709:Dsp/widget/wgt_core/UI_Controller.c **** 
 4238              		.loc 1 709 9 view .LVU1232
 4239 00bc 0095     		str	r5, [sp]
 4240 00be 0223     		movs	r3, #2
 4241 00c0 2822     		movs	r2, #40
 4242 00c2 09B2     		sxth	r1, r1
 4243 00c4 7E6A     		ldr	r6, [r7, #36]
 4244 00c6 B047     		blx	r6
 4245              	.LVL381:
 711:Dsp/widget/wgt_core/UI_Controller.c ****         UI_DspInterface.fill_rectangle(Block_CoordX, Block_CoordY, DEFAULT_SLIDERBAR_BLOCK_WIDTH, D
 4246              		.loc 1 711 9 is_stmt 1 view .LVU1233
 711:Dsp/widget/wgt_core/UI_Controller.c ****         UI_DspInterface.fill_rectangle(Block_CoordX, Block_CoordY, DEFAULT_SLIDERBAR_BLOCK_WIDTH, D
 4247              		.loc 1 711 37 is_stmt 0 view .LVU1234
 4248 00c8 E488     		ldrh	r4, [r4, #6]	@ unaligned
 4249              	.LVL382:
 711:Dsp/widget/wgt_core/UI_Controller.c ****         UI_DspInterface.fill_rectangle(Block_CoordX, Block_CoordY, DEFAULT_SLIDERBAR_BLOCK_WIDTH, D
 4250              		.loc 1 711 40 view .LVU1235
 4251 00ca E11C     		adds	r1, r4, #3
 4252              	.LVL383:
 712:Dsp/widget/wgt_core/UI_Controller.c ****         UI_DspInterface.fill_rectangle(Block_CoordX, Block_CoordY + (DEFAULT_SLIDERBAR_BLOCK_HIGH /
 4253              		.loc 1 712 9 is_stmt 1 view .LVU1236
 4254 00cc 0095     		str	r5, [sp]
 4255 00ce 0623     		movs	r3, #6
 4256 00d0 0322     		movs	r2, #3
 4257 00d2 09B2     		sxth	r1, r1
 712:Dsp/widget/wgt_core/UI_Controller.c ****         UI_DspInterface.fill_rectangle(Block_CoordX, Block_CoordY + (DEFAULT_SLIDERBAR_BLOCK_HIGH /
 4258              		.loc 1 712 9 is_stmt 0 view .LVU1237
 4259 00d4 4046     		mov	r0, r8
 4260 00d6 7E6A     		ldr	r6, [r7, #36]
 4261 00d8 B047     		blx	r6
ARM GAS  /var/folders/lx/hc4sn_b53233_zkc9xbbl97r0000gp/T//ccGA9DTo.s 			page 106


 4262              	.LVL384:
 713:Dsp/widget/wgt_core/UI_Controller.c ****     }
 4263              		.loc 1 713 9 is_stmt 1 view .LVU1238
 713:Dsp/widget/wgt_core/UI_Controller.c ****     }
 4264              		.loc 1 713 24 is_stmt 0 view .LVU1239
 4265 00da 7F6A     		ldr	r7, [r7, #36]
 713:Dsp/widget/wgt_core/UI_Controller.c ****     }
 4266              		.loc 1 713 67 view .LVU1240
 4267 00dc 611D     		adds	r1, r4, #5
 713:Dsp/widget/wgt_core/UI_Controller.c ****     }
 4268              		.loc 1 713 9 view .LVU1241
 4269 00de 0095     		str	r5, [sp]
 4270 00e0 0223     		movs	r3, #2
 4271 00e2 0322     		movs	r2, #3
 4272 00e4 09B2     		sxth	r1, r1
 4273 00e6 4046     		mov	r0, r8
 4274 00e8 B847     		blx	r7
 4275              	.LVL385:
 721:Dsp/widget/wgt_core/UI_Controller.c **** }
 4276              		.loc 1 721 12 view .LVU1242
 4277 00ea 2846     		mov	r0, r5
 4278              	.LVL386:
 4279              	.L332:
 722:Dsp/widget/wgt_core/UI_Controller.c **** 
 4280              		.loc 1 722 1 view .LVU1243
 4281 00ec 02B0     		add	sp, sp, #8
 4282              	.LCFI72:
 4283              		.cfi_remember_state
 4284              		.cfi_def_cfa_offset 24
 4285              		@ sp needed
 4286 00ee BDE8F081 		pop	{r4, r5, r6, r7, r8, pc}
 4287              	.LVL387:
 4288              	.L343:
 4289              	.LCFI73:
 4290              		.cfi_restore_state
 695:Dsp/widget/wgt_core/UI_Controller.c **** 
 4291              		.loc 1 695 9 is_stmt 1 view .LVU1244
 695:Dsp/widget/wgt_core/UI_Controller.c **** 
 4292              		.loc 1 695 15 is_stmt 0 view .LVU1245
 4293 00f2 0132     		adds	r2, r2, #1
 4294              	.LVL388:
 695:Dsp/widget/wgt_core/UI_Controller.c **** 
 4295              		.loc 1 695 15 view .LVU1246
 4296 00f4 13B2     		sxth	r3, r2
 4297              	.LVL389:
 695:Dsp/widget/wgt_core/UI_Controller.c **** 
 4298              		.loc 1 695 15 view .LVU1247
 4299 00f6 97E7     		b	.L333
 4300              	.LVL390:
 4301              	.L334:
 715:Dsp/widget/wgt_core/UI_Controller.c ****     {
 4302              		.loc 1 715 10 is_stmt 1 view .LVU1248
 715:Dsp/widget/wgt_core/UI_Controller.c ****     {
 4303              		.loc 1 715 13 is_stmt 0 view .LVU1249
 4304 00f8 012B     		cmp	r3, #1
 4305 00fa 07D1     		bne	.L338
 721:Dsp/widget/wgt_core/UI_Controller.c **** }
ARM GAS  /var/folders/lx/hc4sn_b53233_zkc9xbbl97r0000gp/T//ccGA9DTo.s 			page 107


 4306              		.loc 1 721 12 view .LVU1250
 4307 00fc 0120     		movs	r0, #1
 4308 00fe F5E7     		b	.L332
 4309              	.LVL391:
 4310              	.L335:
 4311              	.LCFI74:
 4312              		.cfi_def_cfa_offset 0
 4313              		.cfi_restore 4
 4314              		.cfi_restore 5
 4315              		.cfi_restore 6
 4316              		.cfi_restore 7
 4317              		.cfi_restore 8
 4318              		.cfi_restore 14
 692:Dsp/widget/wgt_core/UI_Controller.c **** 
 4319              		.loc 1 692 16 view .LVU1251
 4320 0100 0020     		movs	r0, #0
 4321              	.LVL392:
 722:Dsp/widget/wgt_core/UI_Controller.c **** 
 4322              		.loc 1 722 1 view .LVU1252
 4323 0102 7047     		bx	lr
 4324              	.LVL393:
 4325              	.L336:
 4326              	.LCFI75:
 4327              		.cfi_def_cfa_offset 32
 4328              		.cfi_offset 4, -24
 4329              		.cfi_offset 5, -20
 4330              		.cfi_offset 6, -16
 4331              		.cfi_offset 7, -12
 4332              		.cfi_offset 8, -8
 4333              		.cfi_offset 14, -4
 692:Dsp/widget/wgt_core/UI_Controller.c **** 
 4334              		.loc 1 692 16 view .LVU1253
 4335 0104 0020     		movs	r0, #0
 4336              	.LVL394:
 692:Dsp/widget/wgt_core/UI_Controller.c **** 
 4337              		.loc 1 692 16 view .LVU1254
 4338 0106 F1E7     		b	.L332
 4339              	.LVL395:
 4340              	.L337:
 692:Dsp/widget/wgt_core/UI_Controller.c **** 
 4341              		.loc 1 692 16 view .LVU1255
 4342 0108 0020     		movs	r0, #0
 4343              	.LVL396:
 692:Dsp/widget/wgt_core/UI_Controller.c **** 
 4344              		.loc 1 692 16 view .LVU1256
 4345 010a EFE7     		b	.L332
 4346              	.LVL397:
 4347              	.L338:
 719:Dsp/widget/wgt_core/UI_Controller.c **** 
 4348              		.loc 1 719 16 view .LVU1257
 4349 010c 0020     		movs	r0, #0
 4350 010e EDE7     		b	.L332
 4351              	.L345:
 4352              		.align	2
 4353              	.L344:
 4354 0110 00000000 		.word	.LANCHOR0
 4355 0114 00000000 		.word	.LANCHOR2
ARM GAS  /var/folders/lx/hc4sn_b53233_zkc9xbbl97r0000gp/T//ccGA9DTo.s 			page 108


 4356 0118 00001442 		.word	1108606976
 4357              		.cfi_endproc
 4358              	.LFE28:
 4360              		.section	.rodata.UI_ProcessBar_DspLoadBar.str1.4,"aMS",%progbits,1
 4361              		.align	2
 4362              	.LC2:
 4363 0000 4F6E2050 		.ascii	"On Process : %d%%\000"
 4363      726F6365 
 4363      7373203A 
 4363      20256425 
 4363      2500
 4364              		.section	.text.UI_ProcessBar_DspLoadBar,"ax",%progbits
 4365              		.align	1
 4366              		.syntax unified
 4367              		.thumb
 4368              		.thumb_func
 4369              		.fpu fpv4-sp-d16
 4371              	UI_ProcessBar_DspLoadBar:
 4372              	.LVL398:
 4373              	.LFB35:
 822:Dsp/widget/wgt_core/UI_Controller.c ****     uint8_t frame_radius = 0;
 4374              		.loc 1 822 1 is_stmt 1 view -0
 4375              		.cfi_startproc
 4376              		@ args = 0, pretend = 0, frame = 32
 4377              		@ frame_needed = 0, uses_anonymous_args = 0
 823:Dsp/widget/wgt_core/UI_Controller.c ****     int16_t Str_CoordX = 0;
 4378              		.loc 1 823 5 view .LVU1259
 824:Dsp/widget/wgt_core/UI_Controller.c ****     int16_t Str_CoordY = 0;
 4379              		.loc 1 824 5 view .LVU1260
 825:Dsp/widget/wgt_core/UI_Controller.c ****     float Pcnt_Val = 0;
 4380              		.loc 1 825 5 view .LVU1261
 826:Dsp/widget/wgt_core/UI_Controller.c ****     char dsp_str[20];
 4381              		.loc 1 826 5 view .LVU1262
 827:Dsp/widget/wgt_core/UI_Controller.c **** 
 4382              		.loc 1 827 5 view .LVU1263
 829:Dsp/widget/wgt_core/UI_Controller.c ****         return false;
 4383              		.loc 1 829 5 view .LVU1264
 829:Dsp/widget/wgt_core/UI_Controller.c ****         return false;
 4384              		.loc 1 829 8 is_stmt 0 view .LVU1265
 4385 0000 0028     		cmp	r0, #0
 4386 0002 77D0     		beq	.L348
 822:Dsp/widget/wgt_core/UI_Controller.c ****     uint8_t frame_radius = 0;
 4387              		.loc 1 822 1 view .LVU1266
 4388 0004 2DE9F04F 		push	{r4, r5, r6, r7, r8, r9, r10, fp, lr}
 4389              	.LCFI76:
 4390              		.cfi_def_cfa_offset 36
 4391              		.cfi_offset 4, -36
 4392              		.cfi_offset 5, -32
 4393              		.cfi_offset 6, -28
 4394              		.cfi_offset 7, -24
 4395              		.cfi_offset 8, -20
 4396              		.cfi_offset 9, -16
 4397              		.cfi_offset 10, -12
 4398              		.cfi_offset 11, -8
 4399              		.cfi_offset 14, -4
 4400 0008 2DED028B 		vpush.64	{d8}
 4401              	.LCFI77:
ARM GAS  /var/folders/lx/hc4sn_b53233_zkc9xbbl97r0000gp/T//ccGA9DTo.s 			page 109


 4402              		.cfi_def_cfa_offset 44
 4403              		.cfi_offset 80, -44
 4404              		.cfi_offset 81, -40
 4405 000c 8DB0     		sub	sp, sp, #52
 4406              	.LCFI78:
 4407              		.cfi_def_cfa_offset 96
 4408 000e 0646     		mov	r6, r0
 832:Dsp/widget/wgt_core/UI_Controller.c **** 
 4409              		.loc 1 832 5 is_stmt 1 view .LVU1267
 4410 0010 0023     		movs	r3, #0
 4411 0012 0793     		str	r3, [sp, #28]
 4412 0014 0893     		str	r3, [sp, #32]
 4413 0016 0993     		str	r3, [sp, #36]
 4414 0018 0A93     		str	r3, [sp, #40]
 4415 001a 0B93     		str	r3, [sp, #44]
 834:Dsp/widget/wgt_core/UI_Controller.c ****     sprintf(dsp_str, "On Process : %d%%", (uint8_t)(Pcnt_Val * 100));
 4416              		.loc 1 834 5 view .LVU1268
 834:Dsp/widget/wgt_core/UI_Controller.c ****     sprintf(dsp_str, "On Process : %d%%", (uint8_t)(Pcnt_Val * 100));
 4417              		.loc 1 834 20 is_stmt 0 view .LVU1269
 4418 001c C369     		ldr	r3, [r0, #28]	@ unaligned
 4419 001e 07EE103A 		vmov	s14, r3	@ int
 834:Dsp/widget/wgt_core/UI_Controller.c ****     sprintf(dsp_str, "On Process : %d%%", (uint8_t)(Pcnt_Val * 100));
 4420              		.loc 1 834 30 view .LVU1270
 4421 0022 B8EEC77A 		vcvt.f32.s32	s14, s14
 834:Dsp/widget/wgt_core/UI_Controller.c ****     sprintf(dsp_str, "On Process : %d%%", (uint8_t)(Pcnt_Val * 100));
 4422              		.loc 1 834 42 view .LVU1271
 4423 0026 8369     		ldr	r3, [r0, #24]	@ unaligned
 4424 0028 07EE903A 		vmov	s15, r3	@ int
 834:Dsp/widget/wgt_core/UI_Controller.c ****     sprintf(dsp_str, "On Process : %d%%", (uint8_t)(Pcnt_Val * 100));
 4425              		.loc 1 834 32 view .LVU1272
 4426 002c F8EEE77A 		vcvt.f32.s32	s15, s15
 834:Dsp/widget/wgt_core/UI_Controller.c ****     sprintf(dsp_str, "On Process : %d%%", (uint8_t)(Pcnt_Val * 100));
 4427              		.loc 1 834 14 view .LVU1273
 4428 0030 87EE278A 		vdiv.f32	s16, s14, s15
 4429              	.LVL399:
 835:Dsp/widget/wgt_core/UI_Controller.c **** 
 4430              		.loc 1 835 5 is_stmt 1 view .LVU1274
 835:Dsp/widget/wgt_core/UI_Controller.c **** 
 4431              		.loc 1 835 62 is_stmt 0 view .LVU1275
 4432 0034 DFED307A 		vldr.32	s15, .L353
 4433 0038 68EE277A 		vmul.f32	s15, s16, s15
 835:Dsp/widget/wgt_core/UI_Controller.c **** 
 4434              		.loc 1 835 43 view .LVU1276
 4435 003c FCEEE77A 		vcvt.u32.f32	s15, s15
 4436 0040 CDED057A 		vstr.32	s15, [sp, #20]	@ int
 835:Dsp/widget/wgt_core/UI_Controller.c **** 
 4437              		.loc 1 835 5 view .LVU1277
 4438 0044 9DF81420 		ldrb	r2, [sp, #20]	@ zero_extendqisi2
 4439 0048 2C49     		ldr	r1, .L353+4
 4440 004a 07A8     		add	r0, sp, #28
 4441              	.LVL400:
 835:Dsp/widget/wgt_core/UI_Controller.c **** 
 4442              		.loc 1 835 5 view .LVU1278
 4443 004c FFF7FEFF 		bl	sprintf
 4444              	.LVL401:
 837:Dsp/widget/wgt_core/UI_Controller.c ****     Str_CoordY = Obj->Gen_Data.y - base_font - 2;
 4445              		.loc 1 837 5 is_stmt 1 view .LVU1279
ARM GAS  /var/folders/lx/hc4sn_b53233_zkc9xbbl97r0000gp/T//ccGA9DTo.s 			page 110


 837:Dsp/widget/wgt_core/UI_Controller.c ****     Str_CoordY = Obj->Gen_Data.y - base_font - 2;
 4446              		.loc 1 837 31 is_stmt 0 view .LVU1280
 4447 0050 B6F904B0 		ldrsh	fp, [r6, #4]	@ unaligned
 4448 0054 0FFA8BFA 		sxth	r10, fp
 4449 0058 1FFA8BFB 		uxth	fp, fp
 837:Dsp/widget/wgt_core/UI_Controller.c ****     Str_CoordY = Obj->Gen_Data.y - base_font - 2;
 4450              		.loc 1 837 40 view .LVU1281
 4451 005c 96F82090 		ldrb	r9, [r6, #32]	@ zero_extendqisi2
 837:Dsp/widget/wgt_core/UI_Controller.c ****     Str_CoordY = Obj->Gen_Data.y - base_font - 2;
 4452              		.loc 1 837 51 view .LVU1282
 4453 0060 07A8     		add	r0, sp, #28
 4454 0062 FFF7FEFF 		bl	strlen
 4455              	.LVL402:
 837:Dsp/widget/wgt_core/UI_Controller.c ****     Str_CoordY = Obj->Gen_Data.y - base_font - 2;
 4456              		.loc 1 837 67 view .LVU1283
 4457 0066 00EB4000 		add	r0, r0, r0, lsl #1
 837:Dsp/widget/wgt_core/UI_Controller.c ****     Str_CoordY = Obj->Gen_Data.y - base_font - 2;
 4458              		.loc 1 837 48 view .LVU1284
 4459 006a A9EB4000 		sub	r0, r9, r0, lsl #1
 837:Dsp/widget/wgt_core/UI_Controller.c ****     Str_CoordY = Obj->Gen_Data.y - base_font - 2;
 4460              		.loc 1 837 34 view .LVU1285
 4461 006e 0BEB500B 		add	fp, fp, r0, lsr #1
 837:Dsp/widget/wgt_core/UI_Controller.c ****     Str_CoordY = Obj->Gen_Data.y - base_font - 2;
 4462              		.loc 1 837 16 view .LVU1286
 4463 0072 0FFA8BFB 		sxth	fp, fp
 4464              	.LVL403:
 838:Dsp/widget/wgt_core/UI_Controller.c **** 
 4465              		.loc 1 838 5 is_stmt 1 view .LVU1287
 838:Dsp/widget/wgt_core/UI_Controller.c **** 
 4466              		.loc 1 838 31 is_stmt 0 view .LVU1288
 4467 0076 B6F90610 		ldrsh	r1, [r6, #6]	@ unaligned
 4468 007a 8CB2     		uxth	r4, r1
 838:Dsp/widget/wgt_core/UI_Controller.c **** 
 4469              		.loc 1 838 34 view .LVU1289
 4470 007c DFF88480 		ldr	r8, .L353+12
 4471 0080 98F80030 		ldrb	r3, [r8]	@ zero_extendqisi2
 4472 0084 E41A     		subs	r4, r4, r3
 4473 0086 A4B2     		uxth	r4, r4
 838:Dsp/widget/wgt_core/UI_Controller.c **** 
 4474              		.loc 1 838 46 view .LVU1290
 4475 0088 023C     		subs	r4, r4, #2
 838:Dsp/widget/wgt_core/UI_Controller.c **** 
 4476              		.loc 1 838 16 view .LVU1291
 4477 008a 23B2     		sxth	r3, r4
 4478 008c 0593     		str	r3, [sp, #20]
 4479              	.LVL404:
 841:Dsp/widget/wgt_core/UI_Controller.c ****     UI_DspInterface.draw_str(base_font, dsp_str, Str_CoordX, Str_CoordY, true);
 4480              		.loc 1 841 5 is_stmt 1 view .LVU1292
 841:Dsp/widget/wgt_core/UI_Controller.c ****     UI_DspInterface.draw_str(base_font, dsp_str, Str_CoordX, Str_CoordY, true);
 4481              		.loc 1 841 20 is_stmt 0 view .LVU1293
 4482 008e 1C4F     		ldr	r7, .L353+8
 841:Dsp/widget/wgt_core/UI_Controller.c ****     UI_DspInterface.draw_str(base_font, dsp_str, Str_CoordX, Str_CoordY, true);
 4483              		.loc 1 841 5 view .LVU1294
 4484 0090 0125     		movs	r5, #1
 4485 0092 0295     		str	r5, [sp, #8]
 4486 0094 0195     		str	r5, [sp, #4]
 4487 0096 0223     		movs	r3, #2
ARM GAS  /var/folders/lx/hc4sn_b53233_zkc9xbbl97r0000gp/T//ccGA9DTo.s 			page 111


 4488 0098 0093     		str	r3, [sp]
 4489 009a 0523     		movs	r3, #5
 4490 009c 4A46     		mov	r2, r9
 4491 009e 09B2     		sxth	r1, r1
 4492 00a0 5046     		mov	r0, r10
 4493 00a2 7C69     		ldr	r4, [r7, #20]
 4494 00a4 A047     		blx	r4
 4495              	.LVL405:
 842:Dsp/widget/wgt_core/UI_Controller.c ****     UI_DspInterface.draw_line_h(Obj->Gen_Data.x + 2, Obj->Gen_Data.y + 2, Pcnt_Val * (Obj->width - 
 4496              		.loc 1 842 5 is_stmt 1 view .LVU1295
 4497 00a6 0095     		str	r5, [sp]
 4498 00a8 059B     		ldr	r3, [sp, #20]
 4499 00aa 5A46     		mov	r2, fp
 4500 00ac 07A9     		add	r1, sp, #28
 4501 00ae 98F80000 		ldrb	r0, [r8]	@ zero_extendqisi2
 4502 00b2 3C68     		ldr	r4, [r7]
 4503 00b4 A047     		blx	r4
 4504              	.LVL406:
 843:Dsp/widget/wgt_core/UI_Controller.c **** 
 4505              		.loc 1 843 5 view .LVU1296
 843:Dsp/widget/wgt_core/UI_Controller.c **** 
 4506              		.loc 1 843 20 is_stmt 0 view .LVU1297
 4507 00b6 FC68     		ldr	r4, [r7, #12]
 843:Dsp/widget/wgt_core/UI_Controller.c **** 
 4508              		.loc 1 843 46 view .LVU1298
 4509 00b8 B088     		ldrh	r0, [r6, #4]	@ unaligned
 843:Dsp/widget/wgt_core/UI_Controller.c **** 
 4510              		.loc 1 843 49 view .LVU1299
 4511 00ba 0230     		adds	r0, r0, #2
 843:Dsp/widget/wgt_core/UI_Controller.c **** 
 4512              		.loc 1 843 67 view .LVU1300
 4513 00bc F188     		ldrh	r1, [r6, #6]	@ unaligned
 843:Dsp/widget/wgt_core/UI_Controller.c **** 
 4514              		.loc 1 843 70 view .LVU1301
 4515 00be 0231     		adds	r1, r1, #2
 843:Dsp/widget/wgt_core/UI_Controller.c **** 
 4516              		.loc 1 843 90 view .LVU1302
 4517 00c0 96F82030 		ldrb	r3, [r6, #32]	@ zero_extendqisi2
 843:Dsp/widget/wgt_core/UI_Controller.c **** 
 4518              		.loc 1 843 98 view .LVU1303
 4519 00c4 063B     		subs	r3, r3, #6
 4520 00c6 07EE903A 		vmov	s15, r3	@ int
 843:Dsp/widget/wgt_core/UI_Controller.c **** 
 4521              		.loc 1 843 84 view .LVU1304
 4522 00ca F8EEE77A 		vcvt.f32.s32	s15, s15
 4523 00ce 67EE887A 		vmul.f32	s15, s15, s16
 843:Dsp/widget/wgt_core/UI_Controller.c **** 
 4524              		.loc 1 843 5 view .LVU1305
 4525 00d2 FCEEE77A 		vcvt.u32.f32	s15, s15
 4526 00d6 CDED057A 		vstr.32	s15, [sp, #20]	@ int
 4527              	.LVL407:
 843:Dsp/widget/wgt_core/UI_Controller.c **** 
 4528              		.loc 1 843 5 view .LVU1306
 4529 00da 0095     		str	r5, [sp]
 4530 00dc 2B46     		mov	r3, r5
 4531 00de 9DF81420 		ldrb	r2, [sp, #20]	@ zero_extendqisi2
 4532 00e2 09B2     		sxth	r1, r1
ARM GAS  /var/folders/lx/hc4sn_b53233_zkc9xbbl97r0000gp/T//ccGA9DTo.s 			page 112


 4533 00e4 00B2     		sxth	r0, r0
 4534 00e6 A047     		blx	r4
 4535              	.LVL408:
 845:Dsp/widget/wgt_core/UI_Controller.c **** }
 4536              		.loc 1 845 5 is_stmt 1 view .LVU1307
 845:Dsp/widget/wgt_core/UI_Controller.c **** }
 4537              		.loc 1 845 12 is_stmt 0 view .LVU1308
 4538 00e8 2846     		mov	r0, r5
 846:Dsp/widget/wgt_core/UI_Controller.c **** 
 4539              		.loc 1 846 1 view .LVU1309
 4540 00ea 0DB0     		add	sp, sp, #52
 4541              	.LCFI79:
 4542              		.cfi_def_cfa_offset 44
 4543              		@ sp needed
 4544 00ec BDEC028B 		vldm	sp!, {d8}
 4545              	.LCFI80:
 4546              		.cfi_restore 80
 4547              		.cfi_restore 81
 4548              		.cfi_def_cfa_offset 36
 4549              	.LVL409:
 846:Dsp/widget/wgt_core/UI_Controller.c **** 
 4550              		.loc 1 846 1 view .LVU1310
 4551 00f0 BDE8F08F 		pop	{r4, r5, r6, r7, r8, r9, r10, fp, pc}
 4552              	.LVL410:
 4553              	.L348:
 4554              	.LCFI81:
 4555              		.cfi_def_cfa_offset 0
 4556              		.cfi_restore 4
 4557              		.cfi_restore 5
 4558              		.cfi_restore 6
 4559              		.cfi_restore 7
 4560              		.cfi_restore 8
 4561              		.cfi_restore 9
 4562              		.cfi_restore 10
 4563              		.cfi_restore 11
 4564              		.cfi_restore 14
 830:Dsp/widget/wgt_core/UI_Controller.c **** 
 4565              		.loc 1 830 16 view .LVU1311
 4566 00f4 0020     		movs	r0, #0
 4567              	.LVL411:
 846:Dsp/widget/wgt_core/UI_Controller.c **** 
 4568              		.loc 1 846 1 view .LVU1312
 4569 00f6 7047     		bx	lr
 4570              	.L354:
 4571              		.align	2
 4572              	.L353:
 4573 00f8 0000C842 		.word	1120403456
 4574 00fc 00000000 		.word	.LC2
 4575 0100 00000000 		.word	.LANCHOR0
 4576 0104 00000000 		.word	.LANCHOR2
 4577              		.cfi_endproc
 4578              	.LFE35:
 4580              		.section	.text.UI_ProcessBar_Ctl,"ax",%progbits
 4581              		.align	1
 4582              		.syntax unified
 4583              		.thumb
 4584              		.thumb_func
ARM GAS  /var/folders/lx/hc4sn_b53233_zkc9xbbl97r0000gp/T//ccGA9DTo.s 			page 113


 4585              		.fpu fpv4-sp-d16
 4587              	UI_ProcessBar_Ctl:
 4588              	.LVL412:
 4589              	.LFB39:
 984:Dsp/widget/wgt_core/UI_Controller.c ****     char dig_str[3];
 4590              		.loc 1 984 1 is_stmt 1 view -0
 4591              		.cfi_startproc
 4592              		@ args = 0, pretend = 0, frame = 8
 4593              		@ frame_needed = 0, uses_anonymous_args = 0
 984:Dsp/widget/wgt_core/UI_Controller.c ****     char dig_str[3];
 4594              		.loc 1 984 1 is_stmt 0 view .LVU1314
 4595 0000 00B5     		push	{lr}
 4596              	.LCFI82:
 4597              		.cfi_def_cfa_offset 4
 4598              		.cfi_offset 14, -4
 4599 0002 83B0     		sub	sp, sp, #12
 4600              	.LCFI83:
 4601              		.cfi_def_cfa_offset 16
 985:Dsp/widget/wgt_core/UI_Controller.c ****     memset(dig_str, NULL, 3);
 4602              		.loc 1 985 5 is_stmt 1 view .LVU1315
 986:Dsp/widget/wgt_core/UI_Controller.c **** 
 4603              		.loc 1 986 5 view .LVU1316
 4604 0004 0023     		movs	r3, #0
 4605 0006 ADF80430 		strh	r3, [sp, #4]	@ movhi
 4606 000a 8DF80630 		strb	r3, [sp, #6]
 988:Dsp/widget/wgt_core/UI_Controller.c ****         (UI_DspInterface.draw_str == NULL))
 4607              		.loc 1 988 5 view .LVU1317
 988:Dsp/widget/wgt_core/UI_Controller.c ****         (UI_DspInterface.draw_str == NULL))
 4608              		.loc 1 988 25 is_stmt 0 view .LVU1318
 4609 000e 0F4B     		ldr	r3, .L364
 4610 0010 5B69     		ldr	r3, [r3, #20]
 988:Dsp/widget/wgt_core/UI_Controller.c ****         (UI_DspInterface.draw_str == NULL))
 4611              		.loc 1 988 8 view .LVU1319
 4612 0012 B3B1     		cbz	r3, .L359
 989:Dsp/widget/wgt_core/UI_Controller.c ****         return false;
 4613              		.loc 1 989 25 discriminator 1 view .LVU1320
 4614 0014 0D4B     		ldr	r3, .L364
 4615 0016 1B68     		ldr	r3, [r3]
 988:Dsp/widget/wgt_core/UI_Controller.c ****         (UI_DspInterface.draw_str == NULL))
 4616              		.loc 1 988 57 discriminator 1 view .LVU1321
 4617 0018 ABB1     		cbz	r3, .L360
 992:Dsp/widget/wgt_core/UI_Controller.c ****     {
 4618              		.loc 1 992 5 is_stmt 1 view .LVU1322
 992:Dsp/widget/wgt_core/UI_Controller.c ****     {
 4619              		.loc 1 992 16 is_stmt 0 view .LVU1323
 4620 001a 90F82330 		ldrb	r3, [r0, #35]	@ zero_extendqisi2
 992:Dsp/widget/wgt_core/UI_Controller.c ****     {
 4621              		.loc 1 992 5 view .LVU1324
 4622 001e 012B     		cmp	r3, #1
 4623 0020 09D0     		beq	.L357
 4624 0022 022B     		cmp	r3, #2
 4625 0024 0AD0     		beq	.L358
 4626 0026 1BB1     		cbz	r3, .L363
 4627 0028 0020     		movs	r0, #0
 4628              	.LVL413:
 4629              	.L356:
1006:Dsp/widget/wgt_core/UI_Controller.c **** 
ARM GAS  /var/folders/lx/hc4sn_b53233_zkc9xbbl97r0000gp/T//ccGA9DTo.s 			page 114


 4630              		.loc 1 1006 1 view .LVU1325
 4631 002a 03B0     		add	sp, sp, #12
 4632              	.LCFI84:
 4633              		.cfi_remember_state
 4634              		.cfi_def_cfa_offset 4
 4635              		@ sp needed
 4636 002c 5DF804FB 		ldr	pc, [sp], #4
 4637              	.LVL414:
 4638              	.L363:
 4639              	.LCFI85:
 4640              		.cfi_restore_state
 995:Dsp/widget/wgt_core/UI_Controller.c **** 
 4641              		.loc 1 995 9 is_stmt 1 view .LVU1326
 995:Dsp/widget/wgt_core/UI_Controller.c **** 
 4642              		.loc 1 995 16 is_stmt 0 view .LVU1327
 4643 0030 FFF7FEFF 		bl	UI_ProcessBar_DspLoadBar
 4644              	.LVL415:
 995:Dsp/widget/wgt_core/UI_Controller.c **** 
 4645              		.loc 1 995 16 view .LVU1328
 4646 0034 F9E7     		b	.L356
 4647              	.LVL416:
 4648              	.L357:
 998:Dsp/widget/wgt_core/UI_Controller.c **** 
 4649              		.loc 1 998 9 is_stmt 1 view .LVU1329
 998:Dsp/widget/wgt_core/UI_Controller.c **** 
 4650              		.loc 1 998 16 is_stmt 0 view .LVU1330
 4651 0036 FFF7FEFF 		bl	UI_ProcessBar_DspDotBar
 4652              	.LVL417:
 998:Dsp/widget/wgt_core/UI_Controller.c **** 
 4653              		.loc 1 998 16 view .LVU1331
 4654 003a F6E7     		b	.L356
 4655              	.LVL418:
 4656              	.L358:
1001:Dsp/widget/wgt_core/UI_Controller.c **** 
 4657              		.loc 1 1001 9 is_stmt 1 view .LVU1332
1001:Dsp/widget/wgt_core/UI_Controller.c **** 
 4658              		.loc 1 1001 16 is_stmt 0 view .LVU1333
 4659 003c FFF7FEFF 		bl	UI_ProcessBar_DspFrameBar
 4660              	.LVL419:
1001:Dsp/widget/wgt_core/UI_Controller.c **** 
 4661              		.loc 1 1001 16 view .LVU1334
 4662 0040 F3E7     		b	.L356
 4663              	.LVL420:
 4664              	.L359:
 990:Dsp/widget/wgt_core/UI_Controller.c **** 
 4665              		.loc 1 990 16 view .LVU1335
 4666 0042 0020     		movs	r0, #0
 4667              	.LVL421:
 990:Dsp/widget/wgt_core/UI_Controller.c **** 
 4668              		.loc 1 990 16 view .LVU1336
 4669 0044 F1E7     		b	.L356
 4670              	.LVL422:
 4671              	.L360:
 990:Dsp/widget/wgt_core/UI_Controller.c **** 
 4672              		.loc 1 990 16 view .LVU1337
 4673 0046 0020     		movs	r0, #0
 4674              	.LVL423:
ARM GAS  /var/folders/lx/hc4sn_b53233_zkc9xbbl97r0000gp/T//ccGA9DTo.s 			page 115


 990:Dsp/widget/wgt_core/UI_Controller.c **** 
 4675              		.loc 1 990 16 view .LVU1338
 4676 0048 EFE7     		b	.L356
 4677              	.L365:
 4678 004a 00BF     		.align	2
 4679              	.L364:
 4680 004c 00000000 		.word	.LANCHOR0
 4681              		.cfi_endproc
 4682              	.LFE39:
 4684              		.section	.text.UI_Drop_CreateDropItem,"ax",%progbits
 4685              		.align	1
 4686              		.syntax unified
 4687              		.thumb
 4688              		.thumb_func
 4689              		.fpu fpv4-sp-d16
 4691              	UI_Drop_CreateDropItem:
 4692              	.LVL424:
 4693              	.LFB42:
1032:Dsp/widget/wgt_core/UI_Controller.c ****     item_obj *item_tmp = NULL;
 4694              		.loc 1 1032 1 is_stmt 1 view -0
 4695              		.cfi_startproc
 4696              		@ args = 4, pretend = 0, frame = 0
 4697              		@ frame_needed = 0, uses_anonymous_args = 0
1032:Dsp/widget/wgt_core/UI_Controller.c ****     item_obj *item_tmp = NULL;
 4698              		.loc 1 1032 1 is_stmt 0 view .LVU1340
 4699 0000 2DE9F843 		push	{r3, r4, r5, r6, r7, r8, r9, lr}
 4700              	.LCFI86:
 4701              		.cfi_def_cfa_offset 32
 4702              		.cfi_offset 3, -32
 4703              		.cfi_offset 4, -28
 4704              		.cfi_offset 5, -24
 4705              		.cfi_offset 6, -20
 4706              		.cfi_offset 7, -16
 4707              		.cfi_offset 8, -12
 4708              		.cfi_offset 9, -8
 4709              		.cfi_offset 14, -4
 4710 0004 0646     		mov	r6, r0
 4711 0006 0F46     		mov	r7, r1
 4712 0008 9046     		mov	r8, r2
 4713 000a 9946     		mov	r9, r3
1033:Dsp/widget/wgt_core/UI_Controller.c ****     UI_DropItemDataObj_TypeDef *itemdata_tmp = NULL;
 4714              		.loc 1 1033 5 is_stmt 1 view .LVU1341
 4715              	.LVL425:
1034:Dsp/widget/wgt_core/UI_Controller.c **** 
 4716              		.loc 1 1034 5 view .LVU1342
1036:Dsp/widget/wgt_core/UI_Controller.c ****     item_tmp = (item_obj *)MMU_Malloc(sizeof(item_obj));
 4717              		.loc 1 1036 5 view .LVU1343
1036:Dsp/widget/wgt_core/UI_Controller.c ****     item_tmp = (item_obj *)MMU_Malloc(sizeof(item_obj));
 4718              		.loc 1 1036 50 is_stmt 0 view .LVU1344
 4719 000c 0F20     		movs	r0, #15
 4720              	.LVL426:
1036:Dsp/widget/wgt_core/UI_Controller.c ****     item_tmp = (item_obj *)MMU_Malloc(sizeof(item_obj));
 4721              		.loc 1 1036 50 view .LVU1345
 4722 000e FFF7FEFF 		bl	MMU_Malloc
 4723              	.LVL427:
1036:Dsp/widget/wgt_core/UI_Controller.c ****     item_tmp = (item_obj *)MMU_Malloc(sizeof(item_obj));
 4724              		.loc 1 1036 50 view .LVU1346
ARM GAS  /var/folders/lx/hc4sn_b53233_zkc9xbbl97r0000gp/T//ccGA9DTo.s 			page 116


 4725 0012 0446     		mov	r4, r0
 4726              	.LVL428:
1037:Dsp/widget/wgt_core/UI_Controller.c **** 
 4727              		.loc 1 1037 5 is_stmt 1 view .LVU1347
1037:Dsp/widget/wgt_core/UI_Controller.c **** 
 4728              		.loc 1 1037 28 is_stmt 0 view .LVU1348
 4729 0014 1420     		movs	r0, #20
 4730              	.LVL429:
1037:Dsp/widget/wgt_core/UI_Controller.c **** 
 4731              		.loc 1 1037 28 view .LVU1349
 4732 0016 FFF7FEFF 		bl	MMU_Malloc
 4733              	.LVL430:
1039:Dsp/widget/wgt_core/UI_Controller.c ****         return NULL;
 4734              		.loc 1 1039 5 is_stmt 1 view .LVU1350
1039:Dsp/widget/wgt_core/UI_Controller.c ****         return NULL;
 4735              		.loc 1 1039 8 is_stmt 0 view .LVU1351
 4736 001a 0546     		mov	r5, r0
 4737 001c 68B1     		cbz	r0, .L366
1039:Dsp/widget/wgt_core/UI_Controller.c ****         return NULL;
 4738              		.loc 1 1039 28 discriminator 1 view .LVU1352
 4739 001e 7CB1     		cbz	r4, .L368
1042:Dsp/widget/wgt_core/UI_Controller.c ****     itemdata_tmp->data = data;
 4740              		.loc 1 1042 5 is_stmt 1 view .LVU1353
1042:Dsp/widget/wgt_core/UI_Controller.c ****     itemdata_tmp->data = data;
 4741              		.loc 1 1042 28 is_stmt 0 view .LVU1354
 4742 0020 089B     		ldr	r3, [sp, #32]
 4743 0022 C4F80B30 		str	r3, [r4, #11]	@ unaligned
1043:Dsp/widget/wgt_core/UI_Controller.c ****     itemdata_tmp->describe = item_desc;
 4744              		.loc 1 1043 5 is_stmt 1 view .LVU1355
1043:Dsp/widget/wgt_core/UI_Controller.c ****     itemdata_tmp->describe = item_desc;
 4745              		.loc 1 1043 24 is_stmt 0 view .LVU1356
 4746 0026 C4F80580 		str	r8, [r4, #5]	@ unaligned
1044:Dsp/widget/wgt_core/UI_Controller.c ****     itemdata_tmp->id = id;
 4747              		.loc 1 1044 5 is_stmt 1 view .LVU1357
1044:Dsp/widget/wgt_core/UI_Controller.c ****     itemdata_tmp->id = id;
 4748              		.loc 1 1044 28 is_stmt 0 view .LVU1358
 4749 002a C4F80170 		str	r7, [r4, #1]	@ unaligned
1045:Dsp/widget/wgt_core/UI_Controller.c ****     itemdata_tmp->data_size = data_size;
 4750              		.loc 1 1045 5 is_stmt 1 view .LVU1359
1045:Dsp/widget/wgt_core/UI_Controller.c ****     itemdata_tmp->data_size = data_size;
 4751              		.loc 1 1045 22 is_stmt 0 view .LVU1360
 4752 002e 2670     		strb	r6, [r4]
1046:Dsp/widget/wgt_core/UI_Controller.c **** 
 4753              		.loc 1 1046 5 is_stmt 1 view .LVU1361
1046:Dsp/widget/wgt_core/UI_Controller.c **** 
 4754              		.loc 1 1046 29 is_stmt 0 view .LVU1362
 4755 0030 A4F80990 		strh	r9, [r4, #9]	@ unaligned
1048:Dsp/widget/wgt_core/UI_Controller.c **** 
 4756              		.loc 1 1048 5 is_stmt 1 view .LVU1363
 4757 0034 2146     		mov	r1, r4
 4758 0036 FFF7FEFF 		bl	List_ItemInit
 4759              	.LVL431:
1050:Dsp/widget/wgt_core/UI_Controller.c **** }
 4760              		.loc 1 1050 5 view .LVU1364
 4761              	.L366:
1051:Dsp/widget/wgt_core/UI_Controller.c **** 
 4762              		.loc 1 1051 1 is_stmt 0 view .LVU1365
ARM GAS  /var/folders/lx/hc4sn_b53233_zkc9xbbl97r0000gp/T//ccGA9DTo.s 			page 117


 4763 003a 2846     		mov	r0, r5
 4764 003c BDE8F883 		pop	{r3, r4, r5, r6, r7, r8, r9, pc}
 4765              	.LVL432:
 4766              	.L368:
1040:Dsp/widget/wgt_core/UI_Controller.c **** 
 4767              		.loc 1 1040 16 view .LVU1366
 4768 0040 2546     		mov	r5, r4
 4769 0042 FAE7     		b	.L366
 4770              		.cfi_endproc
 4771              	.LFE42:
 4773              		.section	.text.UI_Drop_AddDropItem,"ax",%progbits
 4774              		.align	1
 4775              		.syntax unified
 4776              		.thumb
 4777              		.thumb_func
 4778              		.fpu fpv4-sp-d16
 4780              	UI_Drop_AddDropItem:
 4781              	.LVL433:
 4782              	.LFB43:
1054:Dsp/widget/wgt_core/UI_Controller.c ****     item_obj *item_temp = NULL;
 4783              		.loc 1 1054 1 is_stmt 1 view -0
 4784              		.cfi_startproc
 4785              		@ args = 4, pretend = 0, frame = 0
 4786              		@ frame_needed = 0, uses_anonymous_args = 0
1055:Dsp/widget/wgt_core/UI_Controller.c **** 
 4787              		.loc 1 1055 5 view .LVU1368
1057:Dsp/widget/wgt_core/UI_Controller.c ****         return false;
 4788              		.loc 1 1057 5 view .LVU1369
1057:Dsp/widget/wgt_core/UI_Controller.c ****         return false;
 4789              		.loc 1 1057 8 is_stmt 0 view .LVU1370
 4790 0000 F0B1     		cbz	r0, .L374
1054:Dsp/widget/wgt_core/UI_Controller.c ****     item_obj *item_temp = NULL;
 4791              		.loc 1 1054 1 view .LVU1371
 4792 0002 10B5     		push	{r4, lr}
 4793              	.LCFI87:
 4794              		.cfi_def_cfa_offset 8
 4795              		.cfi_offset 4, -8
 4796              		.cfi_offset 14, -4
 4797 0004 82B0     		sub	sp, sp, #8
 4798              	.LCFI88:
 4799              		.cfi_def_cfa_offset 16
 4800 0006 0446     		mov	r4, r0
1060:Dsp/widget/wgt_core/UI_Controller.c **** 
 4801              		.loc 1 1060 5 is_stmt 1 view .LVU1372
1060:Dsp/widget/wgt_core/UI_Controller.c **** 
 4802              		.loc 1 1060 17 is_stmt 0 view .LVU1373
 4803 0008 0498     		ldr	r0, [sp, #16]
 4804              	.LVL434:
1060:Dsp/widget/wgt_core/UI_Controller.c **** 
 4805              		.loc 1 1060 17 view .LVU1374
 4806 000a 0090     		str	r0, [sp]
 4807 000c 207B     		ldrb	r0, [r4, #12]	@ zero_extendqisi2
 4808 000e FFF7FEFF 		bl	UI_Drop_CreateDropItem
 4809              	.LVL435:
1062:Dsp/widget/wgt_core/UI_Controller.c ****         return false;
 4810              		.loc 1 1062 5 is_stmt 1 view .LVU1375
1062:Dsp/widget/wgt_core/UI_Controller.c ****         return false;
ARM GAS  /var/folders/lx/hc4sn_b53233_zkc9xbbl97r0000gp/T//ccGA9DTo.s 			page 118


 4811              		.loc 1 1062 8 is_stmt 0 view .LVU1376
 4812 0012 0146     		mov	r1, r0
 4813 0014 B0B1     		cbz	r0, .L375
1065:Dsp/widget/wgt_core/UI_Controller.c ****     {
 4814              		.loc 1 1065 5 is_stmt 1 view .LVU1377
1065:Dsp/widget/wgt_core/UI_Controller.c ****     {
 4815              		.loc 1 1065 12 is_stmt 0 view .LVU1378
 4816 0016 D4F80D00 		ldr	r0, [r4, #13]	@ unaligned
 4817              	.LVL436:
1065:Dsp/widget/wgt_core/UI_Controller.c ****     {
 4818              		.loc 1 1065 8 view .LVU1379
 4819 001a 38B1     		cbz	r0, .L380
1072:Dsp/widget/wgt_core/UI_Controller.c **** 
 4820              		.loc 1 1072 9 is_stmt 1 view .LVU1380
 4821 001c FFF7FEFF 		bl	List_Insert_Item
 4822              	.LVL437:
 4823              	.L373:
1074:Dsp/widget/wgt_core/UI_Controller.c **** 
 4824              		.loc 1 1074 5 view .LVU1381
1074:Dsp/widget/wgt_core/UI_Controller.c **** 
 4825              		.loc 1 1074 8 is_stmt 0 view .LVU1382
 4826 0020 237B     		ldrb	r3, [r4, #12]	@ zero_extendqisi2
1074:Dsp/widget/wgt_core/UI_Controller.c **** 
 4827              		.loc 1 1074 18 view .LVU1383
 4828 0022 0133     		adds	r3, r3, #1
 4829 0024 2373     		strb	r3, [r4, #12]
1076:Dsp/widget/wgt_core/UI_Controller.c **** }
 4830              		.loc 1 1076 5 is_stmt 1 view .LVU1384
1076:Dsp/widget/wgt_core/UI_Controller.c **** }
 4831              		.loc 1 1076 12 is_stmt 0 view .LVU1385
 4832 0026 0120     		movs	r0, #1
 4833              	.L371:
1077:Dsp/widget/wgt_core/UI_Controller.c **** 
 4834              		.loc 1 1077 1 view .LVU1386
 4835 0028 02B0     		add	sp, sp, #8
 4836              	.LCFI89:
 4837              		.cfi_remember_state
 4838              		.cfi_def_cfa_offset 8
 4839              		@ sp needed
 4840 002a 10BD     		pop	{r4, pc}
 4841              	.LVL438:
 4842              	.L380:
 4843              	.LCFI90:
 4844              		.cfi_restore_state
1067:Dsp/widget/wgt_core/UI_Controller.c ****         Obj->CurDrop_Item = Obj->DropList;
 4845              		.loc 1 1067 9 is_stmt 1 view .LVU1387
1067:Dsp/widget/wgt_core/UI_Controller.c ****         Obj->CurDrop_Item = Obj->DropList;
 4846              		.loc 1 1067 23 is_stmt 0 view .LVU1388
 4847 002c C4F80D10 		str	r1, [r4, #13]	@ unaligned
1068:Dsp/widget/wgt_core/UI_Controller.c ****         List_Init(Obj->DropList, item_temp, by_order, NULL);
 4848              		.loc 1 1068 9 is_stmt 1 view .LVU1389
1068:Dsp/widget/wgt_core/UI_Controller.c ****         List_Init(Obj->DropList, item_temp, by_order, NULL);
 4849              		.loc 1 1068 27 is_stmt 0 view .LVU1390
 4850 0030 C4F81110 		str	r1, [r4, #17]	@ unaligned
1069:Dsp/widget/wgt_core/UI_Controller.c ****     }
 4851              		.loc 1 1069 9 is_stmt 1 view .LVU1391
 4852 0034 0023     		movs	r3, #0
ARM GAS  /var/folders/lx/hc4sn_b53233_zkc9xbbl97r0000gp/T//ccGA9DTo.s 			page 119


 4853 0036 0122     		movs	r2, #1
 4854 0038 0846     		mov	r0, r1
 4855 003a FFF7FEFF 		bl	List_Init
 4856              	.LVL439:
1069:Dsp/widget/wgt_core/UI_Controller.c ****     }
 4857              		.loc 1 1069 9 is_stmt 0 view .LVU1392
 4858 003e EFE7     		b	.L373
 4859              	.LVL440:
 4860              	.L374:
 4861              	.LCFI91:
 4862              		.cfi_def_cfa_offset 0
 4863              		.cfi_restore 4
 4864              		.cfi_restore 14
1058:Dsp/widget/wgt_core/UI_Controller.c **** 
 4865              		.loc 1 1058 16 view .LVU1393
 4866 0040 0020     		movs	r0, #0
 4867              	.LVL441:
1077:Dsp/widget/wgt_core/UI_Controller.c **** 
 4868              		.loc 1 1077 1 view .LVU1394
 4869 0042 7047     		bx	lr
 4870              	.LVL442:
 4871              	.L375:
 4872              	.LCFI92:
 4873              		.cfi_def_cfa_offset 16
 4874              		.cfi_offset 4, -8
 4875              		.cfi_offset 14, -4
1063:Dsp/widget/wgt_core/UI_Controller.c **** 
 4876              		.loc 1 1063 16 view .LVU1395
 4877 0044 0020     		movs	r0, #0
 4878              	.LVL443:
1063:Dsp/widget/wgt_core/UI_Controller.c **** 
 4879              		.loc 1 1063 16 view .LVU1396
 4880 0046 EFE7     		b	.L371
 4881              		.cfi_endproc
 4882              	.LFE43:
 4884              		.section	.text.UI_Set_FontType,"ax",%progbits
 4885              		.align	1
 4886              		.global	UI_Set_FontType
 4887              		.syntax unified
 4888              		.thumb
 4889              		.thumb_func
 4890              		.fpu fpv4-sp-d16
 4892              	UI_Set_FontType:
 4893              	.LVL444:
 4894              	.LFB3:
 143:Dsp/widget/wgt_core/UI_Controller.c ****     if (font < Font_8 || font > Font_16)
 4895              		.loc 1 143 1 is_stmt 1 view -0
 4896              		.cfi_startproc
 4897              		@ args = 0, pretend = 0, frame = 0
 4898              		@ frame_needed = 0, uses_anonymous_args = 0
 4899              		@ link register save eliminated.
 144:Dsp/widget/wgt_core/UI_Controller.c ****         return false;
 4900              		.loc 1 144 5 view .LVU1398
 144:Dsp/widget/wgt_core/UI_Controller.c ****         return false;
 4901              		.loc 1 144 23 is_stmt 0 view .LVU1399
 4902 0000 A0F10803 		sub	r3, r0, #8
 4903 0004 DBB2     		uxtb	r3, r3
ARM GAS  /var/folders/lx/hc4sn_b53233_zkc9xbbl97r0000gp/T//ccGA9DTo.s 			page 120


 144:Dsp/widget/wgt_core/UI_Controller.c ****         return false;
 4904              		.loc 1 144 8 view .LVU1400
 4905 0006 082B     		cmp	r3, #8
 4906 0008 03D8     		bhi	.L383
 147:Dsp/widget/wgt_core/UI_Controller.c **** 
 4907              		.loc 1 147 5 is_stmt 1 view .LVU1401
 147:Dsp/widget/wgt_core/UI_Controller.c **** 
 4908              		.loc 1 147 15 is_stmt 0 view .LVU1402
 4909 000a 034B     		ldr	r3, .L384
 4910 000c 1870     		strb	r0, [r3]
 149:Dsp/widget/wgt_core/UI_Controller.c **** }
 4911              		.loc 1 149 5 is_stmt 1 view .LVU1403
 149:Dsp/widget/wgt_core/UI_Controller.c **** }
 4912              		.loc 1 149 12 is_stmt 0 view .LVU1404
 4913 000e 0120     		movs	r0, #1
 4914              	.LVL445:
 149:Dsp/widget/wgt_core/UI_Controller.c **** }
 4915              		.loc 1 149 12 view .LVU1405
 4916 0010 7047     		bx	lr
 4917              	.LVL446:
 4918              	.L383:
 145:Dsp/widget/wgt_core/UI_Controller.c **** 
 4919              		.loc 1 145 16 view .LVU1406
 4920 0012 0020     		movs	r0, #0
 4921              	.LVL447:
 150:Dsp/widget/wgt_core/UI_Controller.c **** 
 4922              		.loc 1 150 1 view .LVU1407
 4923 0014 7047     		bx	lr
 4924              	.L385:
 4925 0016 00BF     		.align	2
 4926              	.L384:
 4927 0018 00000000 		.word	.LANCHOR2
 4928              		.cfi_endproc
 4929              	.LFE3:
 4931              		.section	.text.UI_Get_FontType,"ax",%progbits
 4932              		.align	1
 4933              		.global	UI_Get_FontType
 4934              		.syntax unified
 4935              		.thumb
 4936              		.thumb_func
 4937              		.fpu fpv4-sp-d16
 4939              	UI_Get_FontType:
 4940              	.LFB4:
 153:Dsp/widget/wgt_core/UI_Controller.c ****     return base_font;
 4941              		.loc 1 153 1 is_stmt 1 view -0
 4942              		.cfi_startproc
 4943              		@ args = 0, pretend = 0, frame = 0
 4944              		@ frame_needed = 0, uses_anonymous_args = 0
 4945              		@ link register save eliminated.
 154:Dsp/widget/wgt_core/UI_Controller.c **** }
 4946              		.loc 1 154 5 view .LVU1409
 155:Dsp/widget/wgt_core/UI_Controller.c **** 
 4947              		.loc 1 155 1 is_stmt 0 view .LVU1410
 4948 0000 014B     		ldr	r3, .L387
 4949 0002 1878     		ldrb	r0, [r3]	@ zero_extendqisi2
 4950 0004 7047     		bx	lr
 4951              	.L388:
ARM GAS  /var/folders/lx/hc4sn_b53233_zkc9xbbl97r0000gp/T//ccGA9DTo.s 			page 121


 4952 0006 00BF     		.align	2
 4953              	.L387:
 4954 0008 00000000 		.word	.LANCHOR2
 4955              		.cfi_endproc
 4956              	.LFE4:
 4958              		.section	.text.UI_Set_DspInterface,"ax",%progbits
 4959              		.align	1
 4960              		.global	UI_Set_DspInterface
 4961              		.syntax unified
 4962              		.thumb
 4963              		.thumb_func
 4964              		.fpu fpv4-sp-d16
 4966              	UI_Set_DspInterface:
 4967              	.LVL448:
 4968              	.LFB5:
 170:Dsp/widget/wgt_core/UI_Controller.c ****     UI_DspInterface.draw_circle = circle;
 4969              		.loc 1 170 1 is_stmt 1 view -0
 4970              		.cfi_startproc
 4971              		@ args = 36, pretend = 0, frame = 0
 4972              		@ frame_needed = 0, uses_anonymous_args = 0
 4973              		@ link register save eliminated.
 170:Dsp/widget/wgt_core/UI_Controller.c ****     UI_DspInterface.draw_circle = circle;
 4974              		.loc 1 170 1 is_stmt 0 view .LVU1412
 4975 0000 30B4     		push	{r4, r5}
 4976              	.LCFI93:
 4977              		.cfi_def_cfa_offset 8
 4978              		.cfi_offset 4, -8
 4979              		.cfi_offset 5, -4
 171:Dsp/widget/wgt_core/UI_Controller.c ****     UI_DspInterface.draw_circle_section = circle_section;
 4980              		.loc 1 171 5 is_stmt 1 view .LVU1413
 171:Dsp/widget/wgt_core/UI_Controller.c ****     UI_DspInterface.draw_circle_section = circle_section;
 4981              		.loc 1 171 33 is_stmt 0 view .LVU1414
 4982 0002 0C4C     		ldr	r4, .L391
 4983 0004 039D     		ldr	r5, [sp, #12]
 4984 0006 E561     		str	r5, [r4, #28]
 172:Dsp/widget/wgt_core/UI_Controller.c ****     UI_DspInterface.draw_line_h = line_h;
 4985              		.loc 1 172 5 is_stmt 1 view .LVU1415
 172:Dsp/widget/wgt_core/UI_Controller.c ****     UI_DspInterface.draw_line_h = line_h;
 4986              		.loc 1 172 41 is_stmt 0 view .LVU1416
 4987 0008 049D     		ldr	r5, [sp, #16]
 4988 000a 2562     		str	r5, [r4, #32]
 173:Dsp/widget/wgt_core/UI_Controller.c ****     UI_DspInterface.draw_line_v = line_v;
 4989              		.loc 1 173 5 is_stmt 1 view .LVU1417
 173:Dsp/widget/wgt_core/UI_Controller.c ****     UI_DspInterface.draw_line_v = line_v;
 4990              		.loc 1 173 33 is_stmt 0 view .LVU1418
 4991 000c E160     		str	r1, [r4, #12]
 174:Dsp/widget/wgt_core/UI_Controller.c ****     UI_DspInterface.draw_point = point;
 4992              		.loc 1 174 5 is_stmt 1 view .LVU1419
 174:Dsp/widget/wgt_core/UI_Controller.c ****     UI_DspInterface.draw_point = point;
 4993              		.loc 1 174 33 is_stmt 0 view .LVU1420
 4994 000e 2261     		str	r2, [r4, #16]
 175:Dsp/widget/wgt_core/UI_Controller.c ****     UI_DspInterface.draw_rectangle = rectangle;
 4995              		.loc 1 175 5 is_stmt 1 view .LVU1421
 175:Dsp/widget/wgt_core/UI_Controller.c ****     UI_DspInterface.draw_rectangle = rectangle;
 4996              		.loc 1 175 32 is_stmt 0 view .LVU1422
 4997 0010 A060     		str	r0, [r4, #8]
 176:Dsp/widget/wgt_core/UI_Controller.c ****     UI_DspInterface.draw_radius_rectangle = radius_rectangle;
ARM GAS  /var/folders/lx/hc4sn_b53233_zkc9xbbl97r0000gp/T//ccGA9DTo.s 			page 122


 4998              		.loc 1 176 5 is_stmt 1 view .LVU1423
 176:Dsp/widget/wgt_core/UI_Controller.c ****     UI_DspInterface.draw_radius_rectangle = radius_rectangle;
 4999              		.loc 1 176 36 is_stmt 0 view .LVU1424
 5000 0012 A361     		str	r3, [r4, #24]
 177:Dsp/widget/wgt_core/UI_Controller.c ****     UI_DspInterface.draw_str = str;
 5001              		.loc 1 177 5 is_stmt 1 view .LVU1425
 177:Dsp/widget/wgt_core/UI_Controller.c ****     UI_DspInterface.draw_str = str;
 5002              		.loc 1 177 43 is_stmt 0 view .LVU1426
 5003 0014 029B     		ldr	r3, [sp, #8]
 5004              	.LVL449:
 177:Dsp/widget/wgt_core/UI_Controller.c ****     UI_DspInterface.draw_str = str;
 5005              		.loc 1 177 43 view .LVU1427
 5006 0016 6361     		str	r3, [r4, #20]
 178:Dsp/widget/wgt_core/UI_Controller.c ****     UI_DspInterface.draw_dig = dig;
 5007              		.loc 1 178 5 is_stmt 1 view .LVU1428
 178:Dsp/widget/wgt_core/UI_Controller.c ****     UI_DspInterface.draw_dig = dig;
 5008              		.loc 1 178 30 is_stmt 0 view .LVU1429
 5009 0018 059B     		ldr	r3, [sp, #20]
 5010 001a 2360     		str	r3, [r4]
 179:Dsp/widget/wgt_core/UI_Controller.c **** 
 5011              		.loc 1 179 5 is_stmt 1 view .LVU1430
 179:Dsp/widget/wgt_core/UI_Controller.c **** 
 5012              		.loc 1 179 30 is_stmt 0 view .LVU1431
 5013 001c 069B     		ldr	r3, [sp, #24]
 5014 001e 6360     		str	r3, [r4, #4]
 181:Dsp/widget/wgt_core/UI_Controller.c ****     UI_DspInterface.fill_circle_section = fillcircle_section;
 5015              		.loc 1 181 5 is_stmt 1 view .LVU1432
 181:Dsp/widget/wgt_core/UI_Controller.c ****     UI_DspInterface.fill_circle_section = fillcircle_section;
 5016              		.loc 1 181 33 is_stmt 0 view .LVU1433
 5017 0020 079B     		ldr	r3, [sp, #28]
 5018 0022 A362     		str	r3, [r4, #40]
 182:Dsp/widget/wgt_core/UI_Controller.c ****     UI_DspInterface.fill_radius_rectangle = fill_radius_rectangle;
 5019              		.loc 1 182 5 is_stmt 1 view .LVU1434
 182:Dsp/widget/wgt_core/UI_Controller.c ****     UI_DspInterface.fill_radius_rectangle = fill_radius_rectangle;
 5020              		.loc 1 182 41 is_stmt 0 view .LVU1435
 5021 0024 089B     		ldr	r3, [sp, #32]
 5022 0026 E362     		str	r3, [r4, #44]
 183:Dsp/widget/wgt_core/UI_Controller.c ****     UI_DspInterface.fill_rectangle = fill_rectangle;
 5023              		.loc 1 183 5 is_stmt 1 view .LVU1436
 183:Dsp/widget/wgt_core/UI_Controller.c ****     UI_DspInterface.fill_rectangle = fill_rectangle;
 5024              		.loc 1 183 43 is_stmt 0 view .LVU1437
 5025 0028 0A9B     		ldr	r3, [sp, #40]
 5026 002a 2363     		str	r3, [r4, #48]
 184:Dsp/widget/wgt_core/UI_Controller.c **** }
 5027              		.loc 1 184 5 is_stmt 1 view .LVU1438
 184:Dsp/widget/wgt_core/UI_Controller.c **** }
 5028              		.loc 1 184 36 is_stmt 0 view .LVU1439
 5029 002c 099B     		ldr	r3, [sp, #36]
 5030 002e 6362     		str	r3, [r4, #36]
 185:Dsp/widget/wgt_core/UI_Controller.c **** 
 5031              		.loc 1 185 1 view .LVU1440
 5032 0030 30BC     		pop	{r4, r5}
 5033              	.LCFI94:
 5034              		.cfi_restore 5
 5035              		.cfi_restore 4
 5036              		.cfi_def_cfa_offset 0
 5037              	.LVL450:
ARM GAS  /var/folders/lx/hc4sn_b53233_zkc9xbbl97r0000gp/T//ccGA9DTo.s 			page 123


 185:Dsp/widget/wgt_core/UI_Controller.c **** 
 5038              		.loc 1 185 1 view .LVU1441
 5039 0032 7047     		bx	lr
 5040              	.L392:
 5041              		.align	2
 5042              	.L391:
 5043 0034 00000000 		.word	.LANCHOR0
 5044              		.cfi_endproc
 5045              	.LFE5:
 5047              		.section	.text.UI_Set_GetWidgetWidthMathod,"ax",%progbits
 5048              		.align	1
 5049              		.global	UI_Set_GetWidgetWidthMathod
 5050              		.syntax unified
 5051              		.thumb
 5052              		.thumb_func
 5053              		.fpu fpv4-sp-d16
 5055              	UI_Set_GetWidgetWidthMathod:
 5056              	.LVL451:
 5057              	.LFB6:
 188:Dsp/widget/wgt_core/UI_Controller.c ****     UI_Get_WidgetWidth = mathod;
 5058              		.loc 1 188 1 is_stmt 1 view -0
 5059              		.cfi_startproc
 5060              		@ args = 0, pretend = 0, frame = 0
 5061              		@ frame_needed = 0, uses_anonymous_args = 0
 5062              		@ link register save eliminated.
 189:Dsp/widget/wgt_core/UI_Controller.c **** }
 5063              		.loc 1 189 5 view .LVU1443
 189:Dsp/widget/wgt_core/UI_Controller.c **** }
 5064              		.loc 1 189 24 is_stmt 0 view .LVU1444
 5065 0000 014B     		ldr	r3, .L394
 5066 0002 1860     		str	r0, [r3]
 190:Dsp/widget/wgt_core/UI_Controller.c **** 
 5067              		.loc 1 190 1 view .LVU1445
 5068 0004 7047     		bx	lr
 5069              	.L395:
 5070 0006 00BF     		.align	2
 5071              	.L394:
 5072 0008 00000000 		.word	.LANCHOR1
 5073              		.cfi_endproc
 5074              	.LFE6:
 5076              		.section	.text.UI_ShowSelector,"ax",%progbits
 5077              		.align	1
 5078              		.global	UI_ShowSelector
 5079              		.syntax unified
 5080              		.thumb
 5081              		.thumb_func
 5082              		.fpu fpv4-sp-d16
 5084              	UI_ShowSelector:
 5085              	.LVL452:
 5086              	.LFB8:
 217:Dsp/widget/wgt_core/UI_Controller.c ****     /* button selector coordinate */
 5087              		.loc 1 217 1 is_stmt 1 view -0
 5088              		.cfi_startproc
 5089              		@ args = 0, pretend = 0, frame = 0
 5090              		@ frame_needed = 0, uses_anonymous_args = 0
 217:Dsp/widget/wgt_core/UI_Controller.c ****     /* button selector coordinate */
 5091              		.loc 1 217 1 is_stmt 0 view .LVU1447
ARM GAS  /var/folders/lx/hc4sn_b53233_zkc9xbbl97r0000gp/T//ccGA9DTo.s 			page 124


 5092 0000 2DE9F047 		push	{r4, r5, r6, r7, r8, r9, r10, lr}
 5093              	.LCFI95:
 5094              		.cfi_def_cfa_offset 32
 5095              		.cfi_offset 4, -32
 5096              		.cfi_offset 5, -28
 5097              		.cfi_offset 6, -24
 5098              		.cfi_offset 7, -20
 5099              		.cfi_offset 8, -16
 5100              		.cfi_offset 9, -12
 5101              		.cfi_offset 10, -8
 5102              		.cfi_offset 14, -4
 5103 0004 82B0     		sub	sp, sp, #8
 5104              	.LCFI96:
 5105              		.cfi_def_cfa_offset 40
 5106 0006 0446     		mov	r4, r0
 219:Dsp/widget/wgt_core/UI_Controller.c ****     int16_t Btn_Slct_LftUp_Y = 0;
 5107              		.loc 1 219 5 is_stmt 1 view .LVU1448
 5108              	.LVL453:
 220:Dsp/widget/wgt_core/UI_Controller.c ****     int16_t Btn_Slct_LftDwn_X = 0;
 5109              		.loc 1 220 5 view .LVU1449
 221:Dsp/widget/wgt_core/UI_Controller.c ****     int16_t Btn_Slct_LftDwn_Y = 0;
 5110              		.loc 1 221 5 view .LVU1450
 222:Dsp/widget/wgt_core/UI_Controller.c ****     int16_t Btn_Slct_RgtUp_X = 0;
 5111              		.loc 1 222 5 view .LVU1451
 223:Dsp/widget/wgt_core/UI_Controller.c ****     int16_t Btn_Slct_RgtUp_Y = 0;
 5112              		.loc 1 223 5 view .LVU1452
 224:Dsp/widget/wgt_core/UI_Controller.c ****     int16_t Btn_Slct_RgtDwn_X = 0;
 5113              		.loc 1 224 5 view .LVU1453
 225:Dsp/widget/wgt_core/UI_Controller.c ****     int16_t Btn_Slct_RgtDwn_Y = 0;
 5114              		.loc 1 225 5 view .LVU1454
 226:Dsp/widget/wgt_core/UI_Controller.c **** 
 5115              		.loc 1 226 5 view .LVU1455
 229:Dsp/widget/wgt_core/UI_Controller.c ****     int16_t block_y;
 5116              		.loc 1 229 5 view .LVU1456
 230:Dsp/widget/wgt_core/UI_Controller.c **** 
 5117              		.loc 1 230 5 view .LVU1457
 232:Dsp/widget/wgt_core/UI_Controller.c ****     uint8_t selector_height = 0;
 5118              		.loc 1 232 5 view .LVU1458
 233:Dsp/widget/wgt_core/UI_Controller.c **** 
 5119              		.loc 1 233 5 view .LVU1459
 235:Dsp/widget/wgt_core/UI_Controller.c ****     {
 5120              		.loc 1 235 5 view .LVU1460
 235:Dsp/widget/wgt_core/UI_Controller.c ****     {
 5121              		.loc 1 235 28 is_stmt 0 view .LVU1461
 5122 0008 5B4B     		ldr	r3, .L417
 5123 000a 1B68     		ldr	r3, [r3]
 235:Dsp/widget/wgt_core/UI_Controller.c ****     {
 5124              		.loc 1 235 8 view .LVU1462
 5125 000c 93B1     		cbz	r3, .L407
 237:Dsp/widget/wgt_core/UI_Controller.c **** 
 5126              		.loc 1 237 9 is_stmt 1 view .LVU1463
 237:Dsp/widget/wgt_core/UI_Controller.c **** 
 5127              		.loc 1 237 24 is_stmt 0 view .LVU1464
 5128 000e 9847     		blx	r3
 5129              	.LVL454:
 239:Dsp/widget/wgt_core/UI_Controller.c ****             return UI_Fresh_Error;
 5130              		.loc 1 239 9 is_stmt 1 view .LVU1465
ARM GAS  /var/folders/lx/hc4sn_b53233_zkc9xbbl97r0000gp/T//ccGA9DTo.s 			page 125


 239:Dsp/widget/wgt_core/UI_Controller.c ****             return UI_Fresh_Error;
 5131              		.loc 1 239 12 is_stmt 0 view .LVU1466
 5132 0010 0546     		mov	r5, r0
 5133 0012 58B1     		cbz	r0, .L398
 5134              	.LVL455:
 5135              	.L397:
 243:Dsp/widget/wgt_core/UI_Controller.c ****         return UI_Fresh_Error;
 5136              		.loc 1 243 5 is_stmt 1 view .LVU1467
 243:Dsp/widget/wgt_core/UI_Controller.c ****         return UI_Fresh_Error;
 5137              		.loc 1 243 8 is_stmt 0 view .LVU1468
 5138 0014 002C     		cmp	r4, #0
 5139 0016 00F0A680 		beq	.L408
 246:Dsp/widget/wgt_core/UI_Controller.c ****     {
 5140              		.loc 1 246 5 is_stmt 1 view .LVU1469
 5141 001a 584B     		ldr	r3, .L417+4
 5142 001c 1B78     		ldrb	r3, [r3]	@ zero_extendqisi2
 5143 001e 0C2B     		cmp	r3, #12
 5144 0020 14D0     		beq	.L409
 5145 0022 102B     		cmp	r3, #16
 5146 0024 14D0     		beq	.L410
 5147 0026 082B     		cmp	r3, #8
 5148 0028 06D0     		beq	.L416
 5149 002a 0025     		movs	r5, #0
 5150              	.LVL456:
 5151              	.L398:
 335:Dsp/widget/wgt_core/UI_Controller.c **** 
 5152              		.loc 1 335 1 is_stmt 0 view .LVU1470
 5153 002c 2846     		mov	r0, r5
 5154 002e 02B0     		add	sp, sp, #8
 5155              	.LCFI97:
 5156              		.cfi_remember_state
 5157              		.cfi_def_cfa_offset 32
 5158              		@ sp needed
 5159 0030 BDE8F087 		pop	{r4, r5, r6, r7, r8, r9, r10, pc}
 5160              	.LVL457:
 5161              	.L407:
 5162              	.LCFI98:
 5163              		.cfi_restore_state
 232:Dsp/widget/wgt_core/UI_Controller.c ****     uint8_t selector_height = 0;
 5164              		.loc 1 232 13 view .LVU1471
 5165 0034 8025     		movs	r5, #128
 5166 0036 EDE7     		b	.L397
 5167              	.LVL458:
 5168              	.L416:
 246:Dsp/widget/wgt_core/UI_Controller.c ****     {
 5169              		.loc 1 246 5 view .LVU1472
 5170 0038 0A27     		movs	r7, #10
 5171              	.L399:
 5172              	.LVL459:
 261:Dsp/widget/wgt_core/UI_Controller.c ****     {
 5173              		.loc 1 261 5 is_stmt 1 view .LVU1473
 261:Dsp/widget/wgt_core/UI_Controller.c ****     {
 5174              		.loc 1 261 27 is_stmt 0 view .LVU1474
 5175 003a 2678     		ldrb	r6, [r4]	@ zero_extendqisi2
 5176 003c 042E     		cmp	r6, #4
 5177 003e 00F29480 		bhi	.L412
 5178 0042 DFE806F0 		tbb	[pc, r6]
ARM GAS  /var/folders/lx/hc4sn_b53233_zkc9xbbl97r0000gp/T//ccGA9DTo.s 			page 126


 5179              	.L401:
 5180 0046 09       		.byte	(.L405-.L401)/2
 5181 0047 46       		.byte	(.L404-.L401)/2
 5182 0048 57       		.byte	(.L403-.L401)/2
 5183 0049 07       		.byte	(.L402-.L401)/2
 5184 004a 7C       		.byte	(.L400-.L401)/2
 5185              	.LVL460:
 5186 004b 00       		.p2align 1
 5187              	.L409:
 254:Dsp/widget/wgt_core/UI_Controller.c ****         break;
 5188              		.loc 1 254 25 view .LVU1475
 5189 004c 0B27     		movs	r7, #11
 5190 004e F4E7     		b	.L399
 5191              	.L410:
 5192 0050 0B27     		movs	r7, #11
 5193 0052 F2E7     		b	.L399
 5194              	.LVL461:
 5195              	.L402:
 261:Dsp/widget/wgt_core/UI_Controller.c ****     {
 5196              		.loc 1 261 27 view .LVU1476
 5197 0054 0225     		movs	r5, #2
 5198              	.LVL462:
 261:Dsp/widget/wgt_core/UI_Controller.c ****     {
 5199              		.loc 1 261 27 view .LVU1477
 5200 0056 E9E7     		b	.L398
 5201              	.LVL463:
 5202              	.L405:
 265:Dsp/widget/wgt_core/UI_Controller.c ****             return UI_Fresh_Error;
 5203              		.loc 1 265 9 is_stmt 1 view .LVU1478
 265:Dsp/widget/wgt_core/UI_Controller.c ****             return UI_Fresh_Error;
 5204              		.loc 1 265 28 is_stmt 0 view .LVU1479
 5205 0058 494B     		ldr	r3, .L417+8
 5206 005a DB6A     		ldr	r3, [r3, #44]
 265:Dsp/widget/wgt_core/UI_Controller.c ****             return UI_Fresh_Error;
 5207              		.loc 1 265 12 view .LVU1480
 5208 005c 002B     		cmp	r3, #0
 5209 005e 00F08680 		beq	.L413
 269:Dsp/widget/wgt_core/UI_Controller.c ****         Btn_Slct_LftUp_Y = HandleToButtonObj(item->Handler)->Gen_Data.y + HandleToButtonObj(item->H
 5210              		.loc 1 269 9 is_stmt 1 view .LVU1481
 269:Dsp/widget/wgt_core/UI_Controller.c ****         Btn_Slct_LftUp_Y = HandleToButtonObj(item->Handler)->Gen_Data.y + HandleToButtonObj(item->H
 5211              		.loc 1 269 28 is_stmt 0 view .LVU1482
 5212 0062 6268     		ldr	r2, [r4, #4]
 269:Dsp/widget/wgt_core/UI_Controller.c ****         Btn_Slct_LftUp_Y = HandleToButtonObj(item->Handler)->Gen_Data.y + HandleToButtonObj(item->H
 5213              		.loc 1 269 26 view .LVU1483
 5214 0064 B2F90460 		ldrsh	r6, [r2, #4]	@ unaligned
 5215 0068 0FFA86FA 		sxth	r10, r6
 5216              	.LVL464:
 270:Dsp/widget/wgt_core/UI_Controller.c **** 
 5217              		.loc 1 270 9 is_stmt 1 view .LVU1484
 270:Dsp/widget/wgt_core/UI_Controller.c **** 
 5218              		.loc 1 270 70 is_stmt 0 view .LVU1485
 5219 006c B2F90630 		ldrsh	r3, [r2, #6]	@ unaligned
 5220 0070 0FFA83F9 		sxth	r9, r3
 270:Dsp/widget/wgt_core/UI_Controller.c **** 
 5221              		.loc 1 270 107 view .LVU1486
 5222 0074 92F82040 		ldrb	r4, [r2, #32]	@ zero_extendqisi2
 5223              	.LVL465:
ARM GAS  /var/folders/lx/hc4sn_b53233_zkc9xbbl97r0000gp/T//ccGA9DTo.s 			page 127


 270:Dsp/widget/wgt_core/UI_Controller.c **** 
 5224              		.loc 1 270 73 view .LVU1487
 5225 0078 14FA83F4 		uxtah	r4, r4, r3
 5226 007c A4B2     		uxth	r4, r4
 270:Dsp/widget/wgt_core/UI_Controller.c **** 
 5227              		.loc 1 270 116 view .LVU1488
 5228 007e 013C     		subs	r4, r4, #1
 270:Dsp/widget/wgt_core/UI_Controller.c **** 
 5229              		.loc 1 270 26 view .LVU1489
 5230 0080 0FFA84F8 		sxth	r8, r4
 5231              	.LVL466:
 272:Dsp/widget/wgt_core/UI_Controller.c ****         Btn_Slct_LftDwn_Y = HandleToButtonObj(item->Handler)->Gen_Data.y;
 5232              		.loc 1 272 9 is_stmt 1 view .LVU1490
 273:Dsp/widget/wgt_core/UI_Controller.c **** 
 5233              		.loc 1 273 9 view .LVU1491
 275:Dsp/widget/wgt_core/UI_Controller.c ****         Btn_Slct_RgtUp_Y = Btn_Slct_LftUp_Y;
 5234              		.loc 1 275 9 view .LVU1492
 275:Dsp/widget/wgt_core/UI_Controller.c ****         Btn_Slct_RgtUp_Y = Btn_Slct_LftUp_Y;
 5235              		.loc 1 275 107 is_stmt 0 view .LVU1493
 5236 0084 D37F     		ldrb	r3, [r2, #31]	@ zero_extendqisi2
 5237              	.LVL467:
 275:Dsp/widget/wgt_core/UI_Controller.c ****         Btn_Slct_RgtUp_Y = Btn_Slct_LftUp_Y;
 5238              		.loc 1 275 73 view .LVU1494
 5239 0086 13FA86F6 		uxtah	r6, r3, r6
 5240              	.LVL468:
 275:Dsp/widget/wgt_core/UI_Controller.c ****         Btn_Slct_RgtUp_Y = Btn_Slct_LftUp_Y;
 5241              		.loc 1 275 26 view .LVU1495
 5242 008a 36B2     		sxth	r6, r6
 5243              	.LVL469:
 276:Dsp/widget/wgt_core/UI_Controller.c **** 
 5244              		.loc 1 276 9 is_stmt 1 view .LVU1496
 278:Dsp/widget/wgt_core/UI_Controller.c ****         Btn_Slct_RgtDwn_Y = Btn_Slct_LftDwn_Y;
 5245              		.loc 1 278 9 view .LVU1497
 279:Dsp/widget/wgt_core/UI_Controller.c **** 
 5246              		.loc 1 279 9 view .LVU1498
 282:Dsp/widget/wgt_core/UI_Controller.c ****         UI_DspInterface.draw_circle_section(Btn_Slct_LftDwn_X, Btn_Slct_LftDwn_Y, BUTTON_SELECTOR_R
 5247              		.loc 1 282 9 view .LVU1499
 282:Dsp/widget/wgt_core/UI_Controller.c ****         UI_DspInterface.draw_circle_section(Btn_Slct_LftDwn_X, Btn_Slct_LftDwn_Y, BUTTON_SELECTOR_R
 5248              		.loc 1 282 24 is_stmt 0 view .LVU1500
 5249 008c 3C4F     		ldr	r7, .L417+8
 5250              	.LVL470:
 282:Dsp/widget/wgt_core/UI_Controller.c ****         UI_DspInterface.draw_circle_section(Btn_Slct_LftDwn_X, Btn_Slct_LftDwn_Y, BUTTON_SELECTOR_R
 5251              		.loc 1 282 9 view .LVU1501
 5252 008e 0125     		movs	r5, #1
 5253              	.LVL471:
 282:Dsp/widget/wgt_core/UI_Controller.c ****         UI_DspInterface.draw_circle_section(Btn_Slct_LftDwn_X, Btn_Slct_LftDwn_Y, BUTTON_SELECTOR_R
 5254              		.loc 1 282 9 view .LVU1502
 5255 0090 0195     		str	r5, [sp, #4]
 5256 0092 0095     		str	r5, [sp]
 5257 0094 0423     		movs	r3, #4
 5258 0096 0222     		movs	r2, #2
 5259 0098 4146     		mov	r1, r8
 5260 009a 5046     		mov	r0, r10
 5261 009c 3C6A     		ldr	r4, [r7, #32]
 5262 009e A047     		blx	r4
 5263              	.LVL472:
 283:Dsp/widget/wgt_core/UI_Controller.c ****         UI_DspInterface.draw_circle_section(Btn_Slct_RgtUp_X, Btn_Slct_RgtUp_Y, BUTTON_SELECTOR_RAD
ARM GAS  /var/folders/lx/hc4sn_b53233_zkc9xbbl97r0000gp/T//ccGA9DTo.s 			page 128


 5264              		.loc 1 283 9 is_stmt 1 view .LVU1503
 5265 00a0 0195     		str	r5, [sp, #4]
 5266 00a2 0095     		str	r5, [sp]
 5267 00a4 0223     		movs	r3, #2
 5268 00a6 1A46     		mov	r2, r3
 5269 00a8 4946     		mov	r1, r9
 5270 00aa 5046     		mov	r0, r10
 5271 00ac 3C6A     		ldr	r4, [r7, #32]
 5272 00ae A047     		blx	r4
 5273              	.LVL473:
 284:Dsp/widget/wgt_core/UI_Controller.c ****         UI_DspInterface.draw_circle_section(Btn_Slct_RgtDwn_X, Btn_Slct_RgtDwn_Y, BUTTON_SELECTOR_R
 5274              		.loc 1 284 9 view .LVU1504
 5275 00b0 0195     		str	r5, [sp, #4]
 5276 00b2 0095     		str	r5, [sp]
 5277 00b4 0823     		movs	r3, #8
 5278 00b6 0222     		movs	r2, #2
 5279 00b8 4146     		mov	r1, r8
 5280 00ba 3046     		mov	r0, r6
 5281 00bc 3C6A     		ldr	r4, [r7, #32]
 5282 00be A047     		blx	r4
 5283              	.LVL474:
 285:Dsp/widget/wgt_core/UI_Controller.c ****         break;
 5284              		.loc 1 285 9 view .LVU1505
 285:Dsp/widget/wgt_core/UI_Controller.c ****         break;
 5285              		.loc 1 285 24 is_stmt 0 view .LVU1506
 5286 00c0 3C6A     		ldr	r4, [r7, #32]
 285:Dsp/widget/wgt_core/UI_Controller.c ****         break;
 5287              		.loc 1 285 9 view .LVU1507
 5288 00c2 0195     		str	r5, [sp, #4]
 5289 00c4 0095     		str	r5, [sp]
 5290 00c6 2B46     		mov	r3, r5
 5291 00c8 0222     		movs	r2, #2
 5292 00ca 4946     		mov	r1, r9
 5293 00cc 3046     		mov	r0, r6
 5294 00ce A047     		blx	r4
 5295              	.LVL475:
 286:Dsp/widget/wgt_core/UI_Controller.c **** 
 5296              		.loc 1 286 9 is_stmt 1 view .LVU1508
 5297 00d0 ACE7     		b	.L398
 5298              	.LVL476:
 5299              	.L404:
 289:Dsp/widget/wgt_core/UI_Controller.c ****         block_y = HandleToCheckBoxObj(item->Handler)->Gen_Data.y + 1;
 5300              		.loc 1 289 9 view .LVU1509
 289:Dsp/widget/wgt_core/UI_Controller.c ****         block_y = HandleToCheckBoxObj(item->Handler)->Gen_Data.y + 1;
 5301              		.loc 1 289 19 is_stmt 0 view .LVU1510
 5302 00d2 6368     		ldr	r3, [r4, #4]
 289:Dsp/widget/wgt_core/UI_Controller.c ****         block_y = HandleToCheckBoxObj(item->Handler)->Gen_Data.y + 1;
 5303              		.loc 1 289 63 view .LVU1511
 5304 00d4 9888     		ldrh	r0, [r3, #4]	@ unaligned
 289:Dsp/widget/wgt_core/UI_Controller.c ****         block_y = HandleToCheckBoxObj(item->Handler)->Gen_Data.y + 1;
 5305              		.loc 1 289 66 view .LVU1512
 5306 00d6 0330     		adds	r0, r0, #3
 5307              	.LVL477:
 290:Dsp/widget/wgt_core/UI_Controller.c **** 
 5308              		.loc 1 290 9 is_stmt 1 view .LVU1513
 290:Dsp/widget/wgt_core/UI_Controller.c **** 
 5309              		.loc 1 290 63 is_stmt 0 view .LVU1514
ARM GAS  /var/folders/lx/hc4sn_b53233_zkc9xbbl97r0000gp/T//ccGA9DTo.s 			page 129


 5310 00d8 D988     		ldrh	r1, [r3, #6]	@ unaligned
 290:Dsp/widget/wgt_core/UI_Controller.c **** 
 5311              		.loc 1 290 66 view .LVU1515
 5312 00da 0131     		adds	r1, r1, #1
 5313              	.LVL478:
 292:Dsp/widget/wgt_core/UI_Controller.c ****         break;
 5314              		.loc 1 292 9 is_stmt 1 view .LVU1516
 292:Dsp/widget/wgt_core/UI_Controller.c ****         break;
 5315              		.loc 1 292 24 is_stmt 0 view .LVU1517
 5316 00dc 284B     		ldr	r3, .L417+8
 5317 00de 5C6A     		ldr	r4, [r3, #36]
 5318              	.LVL479:
 292:Dsp/widget/wgt_core/UI_Controller.c ****         break;
 5319              		.loc 1 292 9 view .LVU1518
 5320 00e0 AA1F     		subs	r2, r5, #6
 5321 00e2 0123     		movs	r3, #1
 5322 00e4 0093     		str	r3, [sp]
 5323 00e6 3B46     		mov	r3, r7
 5324 00e8 D2B2     		uxtb	r2, r2
 5325 00ea 09B2     		sxth	r1, r1
 292:Dsp/widget/wgt_core/UI_Controller.c ****         break;
 5326              		.loc 1 292 9 view .LVU1519
 5327 00ec 00B2     		sxth	r0, r0
 292:Dsp/widget/wgt_core/UI_Controller.c ****         break;
 5328              		.loc 1 292 9 view .LVU1520
 5329 00ee A047     		blx	r4
 5330              	.LVL480:
 293:Dsp/widget/wgt_core/UI_Controller.c **** 
 5331              		.loc 1 293 9 is_stmt 1 view .LVU1521
 334:Dsp/widget/wgt_core/UI_Controller.c **** }
 5332              		.loc 1 334 12 is_stmt 0 view .LVU1522
 5333 00f0 3546     		mov	r5, r6
 5334              	.LVL481:
 293:Dsp/widget/wgt_core/UI_Controller.c **** 
 5335              		.loc 1 293 9 view .LVU1523
 5336 00f2 9BE7     		b	.L398
 5337              	.LVL482:
 5338              	.L403:
 296:Dsp/widget/wgt_core/UI_Controller.c **** 
 5339              		.loc 1 296 9 is_stmt 1 view .LVU1524
 296:Dsp/widget/wgt_core/UI_Controller.c **** 
 5340              		.loc 1 296 19 is_stmt 0 view .LVU1525
 5341 00f4 6668     		ldr	r6, [r4, #4]
 296:Dsp/widget/wgt_core/UI_Controller.c **** 
 5342              		.loc 1 296 63 view .LVU1526
 5343 00f6 F188     		ldrh	r1, [r6, #6]	@ unaligned
 296:Dsp/widget/wgt_core/UI_Controller.c **** 
 5344              		.loc 1 296 66 view .LVU1527
 5345 00f8 0131     		adds	r1, r1, #1
 296:Dsp/widget/wgt_core/UI_Controller.c **** 
 5346              		.loc 1 296 17 view .LVU1528
 5347 00fa 0CB2     		sxth	r4, r1
 5348              	.LVL483:
 298:Dsp/widget/wgt_core/UI_Controller.c ****         {
 5349              		.loc 1 298 9 is_stmt 1 view .LVU1529
 298:Dsp/widget/wgt_core/UI_Controller.c ****         {
 5350              		.loc 1 298 14 is_stmt 0 view .LVU1530
ARM GAS  /var/folders/lx/hc4sn_b53233_zkc9xbbl97r0000gp/T//ccGA9DTo.s 			page 130


 5351 00fc 3046     		mov	r0, r6
 5352 00fe FFF7FEFF 		bl	UI_SlideBar_IsSelected
 5353              	.LVL484:
 298:Dsp/widget/wgt_core/UI_Controller.c ****         {
 5354              		.loc 1 298 12 view .LVU1531
 5355 0102 60B9     		cbnz	r0, .L406
 300:Dsp/widget/wgt_core/UI_Controller.c **** 
 5356              		.loc 1 300 13 is_stmt 1 view .LVU1532
 300:Dsp/widget/wgt_core/UI_Controller.c **** 
 5357              		.loc 1 300 67 is_stmt 0 view .LVU1533
 5358 0104 B088     		ldrh	r0, [r6, #4]	@ unaligned
 300:Dsp/widget/wgt_core/UI_Controller.c **** 
 5359              		.loc 1 300 70 view .LVU1534
 5360 0106 0330     		adds	r0, r0, #3
 5361              	.LVL485:
 302:Dsp/widget/wgt_core/UI_Controller.c ****         }
 5362              		.loc 1 302 13 is_stmt 1 view .LVU1535
 302:Dsp/widget/wgt_core/UI_Controller.c ****         }
 5363              		.loc 1 302 28 is_stmt 0 view .LVU1536
 5364 0108 1D4B     		ldr	r3, .L417+8
 5365 010a 5E6A     		ldr	r6, [r3, #36]
 302:Dsp/widget/wgt_core/UI_Controller.c ****         }
 5366              		.loc 1 302 13 view .LVU1537
 5367 010c AA1F     		subs	r2, r5, #6
 5368 010e 0125     		movs	r5, #1
 5369              	.LVL486:
 302:Dsp/widget/wgt_core/UI_Controller.c ****         }
 5370              		.loc 1 302 13 view .LVU1538
 5371 0110 0095     		str	r5, [sp]
 5372 0112 3B46     		mov	r3, r7
 5373 0114 D2B2     		uxtb	r2, r2
 5374 0116 2146     		mov	r1, r4
 5375 0118 00B2     		sxth	r0, r0
 302:Dsp/widget/wgt_core/UI_Controller.c ****         }
 5376              		.loc 1 302 13 view .LVU1539
 5377 011a B047     		blx	r6
 5378              	.LVL487:
 302:Dsp/widget/wgt_core/UI_Controller.c ****         }
 5379              		.loc 1 302 13 view .LVU1540
 5380 011c 86E7     		b	.L398
 5381              	.LVL488:
 5382              	.L406:
 306:Dsp/widget/wgt_core/UI_Controller.c **** 
 5383              		.loc 1 306 13 is_stmt 1 view .LVU1541
 306:Dsp/widget/wgt_core/UI_Controller.c **** 
 5384              		.loc 1 306 57 is_stmt 0 view .LVU1542
 5385 011e B08C     		ldrh	r0, [r6, #36]	@ unaligned
 306:Dsp/widget/wgt_core/UI_Controller.c **** 
 5386              		.loc 1 306 70 view .LVU1543
 5387 0120 0338     		subs	r0, r0, #3
 5388 0122 82B2     		uxth	r2, r0
 5389              	.LVL489:
 308:Dsp/widget/wgt_core/UI_Controller.c ****         }
 5390              		.loc 1 308 13 is_stmt 1 view .LVU1544
 308:Dsp/widget/wgt_core/UI_Controller.c ****         }
 5391              		.loc 1 308 28 is_stmt 0 view .LVU1545
 5392 0124 164B     		ldr	r3, .L417+8
ARM GAS  /var/folders/lx/hc4sn_b53233_zkc9xbbl97r0000gp/T//ccGA9DTo.s 			page 131


 5393 0126 5E6A     		ldr	r6, [r3, #36]
 308:Dsp/widget/wgt_core/UI_Controller.c ****         }
 5394              		.loc 1 308 76 view .LVU1546
 5395 0128 AA1A     		subs	r2, r5, r2
 5396 012a D2B2     		uxtb	r2, r2
 308:Dsp/widget/wgt_core/UI_Controller.c ****         }
 5397              		.loc 1 308 13 view .LVU1547
 5398 012c 063A     		subs	r2, r2, #6
 5399 012e 0125     		movs	r5, #1
 5400              	.LVL490:
 308:Dsp/widget/wgt_core/UI_Controller.c ****         }
 5401              		.loc 1 308 13 view .LVU1548
 5402 0130 0095     		str	r5, [sp]
 5403 0132 3B46     		mov	r3, r7
 5404 0134 D2B2     		uxtb	r2, r2
 5405 0136 2146     		mov	r1, r4
 5406 0138 00B2     		sxth	r0, r0
 308:Dsp/widget/wgt_core/UI_Controller.c ****         }
 5407              		.loc 1 308 13 view .LVU1549
 5408 013a B047     		blx	r6
 5409              	.LVL491:
 308:Dsp/widget/wgt_core/UI_Controller.c ****         }
 5410              		.loc 1 308 13 view .LVU1550
 5411 013c 76E7     		b	.L398
 5412              	.LVL492:
 5413              	.L400:
 317:Dsp/widget/wgt_core/UI_Controller.c **** 
 5414              		.loc 1 317 9 is_stmt 1 view .LVU1551
 317:Dsp/widget/wgt_core/UI_Controller.c **** 
 5415              		.loc 1 317 19 is_stmt 0 view .LVU1552
 5416 013e 6268     		ldr	r2, [r4, #4]
 317:Dsp/widget/wgt_core/UI_Controller.c **** 
 5417              		.loc 1 317 59 view .LVU1553
 5418 0140 9088     		ldrh	r0, [r2, #4]	@ unaligned
 317:Dsp/widget/wgt_core/UI_Controller.c **** 
 5419              		.loc 1 317 62 view .LVU1554
 5420 0142 0330     		adds	r0, r0, #3
 317:Dsp/widget/wgt_core/UI_Controller.c **** 
 5421              		.loc 1 317 17 view .LVU1555
 5422 0144 00B2     		sxth	r0, r0
 5423              	.LVL493:
 319:Dsp/widget/wgt_core/UI_Controller.c ****         {
 5424              		.loc 1 319 9 is_stmt 1 view .LVU1556
 319:Dsp/widget/wgt_core/UI_Controller.c ****         {
 5425              		.loc 1 319 43 is_stmt 0 view .LVU1557
 5426 0146 517D     		ldrb	r1, [r2, #21]	@ zero_extendqisi2
 319:Dsp/widget/wgt_core/UI_Controller.c ****         {
 5427              		.loc 1 319 12 view .LVU1558
 5428 0148 99B9     		cbnz	r1, .L414
 325:Dsp/widget/wgt_core/UI_Controller.c ****             UI_DspInterface.fill_rectangle(block_x, block_y, (widget_width - 6), selector_height, t
 5429              		.loc 1 325 13 is_stmt 1 view .LVU1559
 325:Dsp/widget/wgt_core/UI_Controller.c ****             UI_DspInterface.fill_rectangle(block_x, block_y, (widget_width - 6), selector_height, t
 5430              		.loc 1 325 63 is_stmt 0 view .LVU1560
 5431 014a D188     		ldrh	r1, [r2, #6]	@ unaligned
 325:Dsp/widget/wgt_core/UI_Controller.c ****             UI_DspInterface.fill_rectangle(block_x, block_y, (widget_width - 6), selector_height, t
 5432              		.loc 1 325 66 view .LVU1561
 5433 014c 1944     		add	r1, r1, r3
ARM GAS  /var/folders/lx/hc4sn_b53233_zkc9xbbl97r0000gp/T//ccGA9DTo.s 			page 132


 5434 014e 89B2     		uxth	r1, r1
 325:Dsp/widget/wgt_core/UI_Controller.c ****             UI_DspInterface.fill_rectangle(block_x, block_y, (widget_width - 6), selector_height, t
 5435              		.loc 1 325 78 view .LVU1562
 5436 0150 0231     		adds	r1, r1, #2
 5437              	.LVL494:
 326:Dsp/widget/wgt_core/UI_Controller.c ****         }
 5438              		.loc 1 326 13 is_stmt 1 view .LVU1563
 326:Dsp/widget/wgt_core/UI_Controller.c ****         }
 5439              		.loc 1 326 28 is_stmt 0 view .LVU1564
 5440 0152 0B4B     		ldr	r3, .L417+8
 5441 0154 5C6A     		ldr	r4, [r3, #36]
 5442              	.LVL495:
 326:Dsp/widget/wgt_core/UI_Controller.c ****         }
 5443              		.loc 1 326 13 view .LVU1565
 5444 0156 AA1F     		subs	r2, r5, #6
 5445 0158 0125     		movs	r5, #1
 5446              	.LVL496:
 326:Dsp/widget/wgt_core/UI_Controller.c ****         }
 5447              		.loc 1 326 13 view .LVU1566
 5448 015a 0095     		str	r5, [sp]
 5449 015c 3B46     		mov	r3, r7
 5450 015e D2B2     		uxtb	r2, r2
 5451 0160 09B2     		sxth	r1, r1
 326:Dsp/widget/wgt_core/UI_Controller.c ****         }
 5452              		.loc 1 326 13 view .LVU1567
 5453 0162 A047     		blx	r4
 5454              	.LVL497:
 326:Dsp/widget/wgt_core/UI_Controller.c ****         }
 5455              		.loc 1 326 13 view .LVU1568
 5456 0164 62E7     		b	.L398
 5457              	.LVL498:
 5458              	.L408:
 244:Dsp/widget/wgt_core/UI_Controller.c **** 
 5459              		.loc 1 244 16 view .LVU1569
 5460 0166 0025     		movs	r5, #0
 5461              	.LVL499:
 244:Dsp/widget/wgt_core/UI_Controller.c **** 
 5462              		.loc 1 244 16 view .LVU1570
 5463 0168 60E7     		b	.L398
 5464              	.LVL500:
 5465              	.L412:
 331:Dsp/widget/wgt_core/UI_Controller.c ****     }
 5466              		.loc 1 331 16 view .LVU1571
 5467 016a 0025     		movs	r5, #0
 5468              	.LVL501:
 331:Dsp/widget/wgt_core/UI_Controller.c ****     }
 5469              		.loc 1 331 16 view .LVU1572
 5470 016c 5EE7     		b	.L398
 5471              	.LVL502:
 5472              	.L413:
 266:Dsp/widget/wgt_core/UI_Controller.c **** 
 5473              		.loc 1 266 20 view .LVU1573
 5474 016e 3546     		mov	r5, r6
 5475              	.LVL503:
 266:Dsp/widget/wgt_core/UI_Controller.c **** 
 5476              		.loc 1 266 20 view .LVU1574
 5477 0170 5CE7     		b	.L398
ARM GAS  /var/folders/lx/hc4sn_b53233_zkc9xbbl97r0000gp/T//ccGA9DTo.s 			page 133


 5478              	.LVL504:
 5479              	.L414:
 334:Dsp/widget/wgt_core/UI_Controller.c **** }
 5480              		.loc 1 334 12 view .LVU1575
 5481 0172 0125     		movs	r5, #1
 5482              	.LVL505:
 334:Dsp/widget/wgt_core/UI_Controller.c **** }
 5483              		.loc 1 334 12 view .LVU1576
 5484 0174 5AE7     		b	.L398
 5485              	.L418:
 5486 0176 00BF     		.align	2
 5487              	.L417:
 5488 0178 00000000 		.word	.LANCHOR1
 5489 017c 00000000 		.word	.LANCHOR2
 5490 0180 00000000 		.word	.LANCHOR0
 5491              		.cfi_endproc
 5492              	.LFE8:
 5494              		.global	UI_DigInput
 5495              		.global	UI_Drop
 5496              		.global	UI_ProcessBar
 5497              		.global	UI_SlideBar
 5498              		.global	UI_CheckBox
 5499              		.global	UI_Button
 5500              		.global	UI_Get_WidgetWidth
 5501              		.section	.bss.UI_DspInterface,"aw",%nobits
 5502              		.align	2
 5503              		.set	.LANCHOR0,. + 0
 5506              	UI_DspInterface:
 5507 0000 00000000 		.space	52
 5507      00000000 
 5507      00000000 
 5507      00000000 
 5507      00000000 
 5508              		.section	.bss.UI_Get_WidgetWidth,"aw",%nobits
 5509              		.align	2
 5510              		.set	.LANCHOR1,. + 0
 5513              	UI_Get_WidgetWidth:
 5514 0000 00000000 		.space	4
 5515              		.section	.data.UI_Button,"aw"
 5516              		.align	2
 5519              	UI_Button:
 5520 0000 00000000 		.word	UI_Button_Init
 5521 0004 00000000 		.word	UI_Button_Set_TriggerCallback
 5522 0008 00000000 		.word	UI_Button_Set_Label
 5523 000c 00000000 		.word	UI_Button_Push
 5524 0010 00000000 		.word	UI_Button_Release
 5525 0014 00000000 		.word	UI_Button_Ctl
 5526 0018 00000000 		.word	UI_Button_Move
 5527              		.section	.data.UI_CheckBox,"aw"
 5528              		.align	2
 5531              	UI_CheckBox:
 5532 0000 00000000 		.word	UI_CheckBox_Init
 5533 0004 00000000 		.word	UI_CheckBox_SetCallback
 5534 0008 00000000 		.word	UI_CheckBox_Move
 5535 000c 00000000 		.word	UI_CheckBox_Trigger
 5536 0010 00000000 		.word	UI_CheckBox_Ctl
 5537              		.section	.data.UI_DigInput,"aw"
ARM GAS  /var/folders/lx/hc4sn_b53233_zkc9xbbl97r0000gp/T//ccGA9DTo.s 			page 134


 5538              		.align	2
 5541              	UI_DigInput:
 5542 0000 00000000 		.word	UI_DigInput_Init
 5543 0004 00000000 		.word	UI_DigInput_SetIntRange
 5544 0008 00000000 		.word	UI_DigInput_SetDouRange
 5545 000c 00000000 		.word	UI_DigInput_Move
 5546 0010 00000000 		.word	UI_DigInput_GetIntVal
 5547 0014 00000000 		.word	UI_DigInput_GetDoubleVal
 5548 0018 00000000 		.word	UI_DigInput_SetSelectStatus
 5549 001c 00000000 		.word	0
 5550 0020 00000000 		.word	0
 5551              		.section	.data.UI_Drop,"aw"
 5552              		.align	2
 5555              	UI_Drop:
 5556 0000 00000000 		.word	UI_Drop_Init
 5557 0004 00000000 		.word	UI_Drop_AddDropItem
 5558 0008 00000000 		.word	UI_Drop_Move
 5559 000c 00000000 		.word	UI_Drop_SelectItem
 5560 0010 00000000 		.word	UI_Drop_SetSelect
 5561 0014 00000000 		.word	UI_Drop_GetSelect
 5562 0018 00000000 		.word	UI_Drop_Ctl
 5563              		.section	.data.UI_ProcessBar,"aw"
 5564              		.align	2
 5567              	UI_ProcessBar:
 5568 0000 00000000 		.word	UI_ProcessBar_Init
 5569 0004 00000000 		.word	UI_ProcessBar_Move
 5570 0008 00000000 		.word	UI_ProcessBar_SetDspDir
 5571 000c 00000000 		.word	UI_ProcessBar_SetCurVal
 5572 0010 00000000 		.word	UI_ProcessBar_Ctl
 5573 0014 00000000 		.space	8
 5573      00000000 
 5574 001c 00000000 		.word	UI_ProcessBar_SetLabelPos
 5575              		.section	.data.UI_SlideBar,"aw"
 5576              		.align	2
 5579              	UI_SlideBar:
 5580 0000 00000000 		.word	UI_SlideBar_Init
 5581 0004 00000000 		.word	UI_SlideBar_SetCallBack
 5582 0008 00000000 		.word	UI_SlideBar_Move
 5583 000c 00000000 		.word	UI_SlideBar_Input
 5584 0010 00000000 		.word	UI_SlideBar_Trigger
 5585 0014 00000000 		.word	UI_SlideBar_CTL
 5586 0018 00000000 		.word	UI_SlideBar_SetSelect
 5587 001c 00000000 		.word	UI_SlideBar_IsSelected
 5588              		.section	.data.base_font,"aw"
 5589              		.set	.LANCHOR2,. + 0
 5592              	base_font:
 5593 0000 08       		.byte	8
 5594              		.text
 5595              	.Letext0:
 5596              		.file 2 "/usr/local/arm-none-eabi-gcc/gcc-arm-none-eabi-10-2020-q4-major/arm-none-eabi/include/mac
 5597              		.file 3 "/usr/local/arm-none-eabi-gcc/gcc-arm-none-eabi-10-2020-q4-major/arm-none-eabi/include/sys
 5598              		.file 4 "Dsp/screen/font/oledfont.h"
 5599              		.file 5 "SYS/data_structure/linked_list.h"
 5600              		.file 6 "Dsp/widget/wgt_core/UI_Controller.h"
 5601              		.file 7 "SYS/memng/mmu.h"
 5602              		.file 8 "/usr/local/arm-none-eabi-gcc/gcc-arm-none-eabi-10-2020-q4-major/arm-none-eabi/include/std
 5603              		.file 9 "/usr/local/arm-none-eabi-gcc/gcc-arm-none-eabi-10-2020-q4-major/arm-none-eabi/include/str
ARM GAS  /var/folders/lx/hc4sn_b53233_zkc9xbbl97r0000gp/T//ccGA9DTo.s 			page 135


ARM GAS  /var/folders/lx/hc4sn_b53233_zkc9xbbl97r0000gp/T//ccGA9DTo.s 			page 136


DEFINED SYMBOLS
                            *ABS*:0000000000000000 UI_Controller.c
/var/folders/lx/hc4sn_b53233_zkc9xbbl97r0000gp/T//ccGA9DTo.s:18     .text.UI_Draw_HorDotLine:0000000000000000 $t
/var/folders/lx/hc4sn_b53233_zkc9xbbl97r0000gp/T//ccGA9DTo.s:25     .text.UI_Draw_HorDotLine:0000000000000000 UI_Draw_HorDotLine
/var/folders/lx/hc4sn_b53233_zkc9xbbl97r0000gp/T//ccGA9DTo.s:153    .text.UI_Draw_HorDotLine:0000000000000060 $d
/var/folders/lx/hc4sn_b53233_zkc9xbbl97r0000gp/T//ccGA9DTo.s:159    .text.UI_GenData_Init:0000000000000000 $t
/var/folders/lx/hc4sn_b53233_zkc9xbbl97r0000gp/T//ccGA9DTo.s:165    .text.UI_GenData_Init:0000000000000000 UI_GenData_Init
/var/folders/lx/hc4sn_b53233_zkc9xbbl97r0000gp/T//ccGA9DTo.s:197    .text.UI_Move:0000000000000000 $t
/var/folders/lx/hc4sn_b53233_zkc9xbbl97r0000gp/T//ccGA9DTo.s:203    .text.UI_Move:0000000000000000 UI_Move
/var/folders/lx/hc4sn_b53233_zkc9xbbl97r0000gp/T//ccGA9DTo.s:237    .rodata.UI_Button_Init.str1.4:0000000000000000 $d
/var/folders/lx/hc4sn_b53233_zkc9xbbl97r0000gp/T//ccGA9DTo.s:244    .text.UI_Button_Init:0000000000000000 $t
/var/folders/lx/hc4sn_b53233_zkc9xbbl97r0000gp/T//ccGA9DTo.s:250    .text.UI_Button_Init:0000000000000000 UI_Button_Init
/var/folders/lx/hc4sn_b53233_zkc9xbbl97r0000gp/T//ccGA9DTo.s:317    .text.UI_Button_Init:0000000000000040 $d
/var/folders/lx/hc4sn_b53233_zkc9xbbl97r0000gp/T//ccGA9DTo.s:323    .text.UI_Button_Set_Label:0000000000000000 $t
/var/folders/lx/hc4sn_b53233_zkc9xbbl97r0000gp/T//ccGA9DTo.s:329    .text.UI_Button_Set_Label:0000000000000000 UI_Button_Set_Label
/var/folders/lx/hc4sn_b53233_zkc9xbbl97r0000gp/T//ccGA9DTo.s:373    .text.UI_Button_Set_TriggerCallback:0000000000000000 $t
/var/folders/lx/hc4sn_b53233_zkc9xbbl97r0000gp/T//ccGA9DTo.s:379    .text.UI_Button_Set_TriggerCallback:0000000000000000 UI_Button_Set_TriggerCallback
/var/folders/lx/hc4sn_b53233_zkc9xbbl97r0000gp/T//ccGA9DTo.s:433    .text.UI_Button_Push:0000000000000000 $t
/var/folders/lx/hc4sn_b53233_zkc9xbbl97r0000gp/T//ccGA9DTo.s:439    .text.UI_Button_Push:0000000000000000 UI_Button_Push
/var/folders/lx/hc4sn_b53233_zkc9xbbl97r0000gp/T//ccGA9DTo.s:556    .text.UI_Button_Release:0000000000000000 $t
/var/folders/lx/hc4sn_b53233_zkc9xbbl97r0000gp/T//ccGA9DTo.s:562    .text.UI_Button_Release:0000000000000000 UI_Button_Release
/var/folders/lx/hc4sn_b53233_zkc9xbbl97r0000gp/T//ccGA9DTo.s:648    .text.UI_Button_Move:0000000000000000 $t
/var/folders/lx/hc4sn_b53233_zkc9xbbl97r0000gp/T//ccGA9DTo.s:654    .text.UI_Button_Move:0000000000000000 UI_Button_Move
/var/folders/lx/hc4sn_b53233_zkc9xbbl97r0000gp/T//ccGA9DTo.s:695    .text.UI_Button_Ctl:0000000000000000 $t
/var/folders/lx/hc4sn_b53233_zkc9xbbl97r0000gp/T//ccGA9DTo.s:701    .text.UI_Button_Ctl:0000000000000000 UI_Button_Ctl
/var/folders/lx/hc4sn_b53233_zkc9xbbl97r0000gp/T//ccGA9DTo.s:960    .text.UI_Button_Ctl:0000000000000110 $d
/var/folders/lx/hc4sn_b53233_zkc9xbbl97r0000gp/T//ccGA9DTo.s:966    .text.UI_CheckBox_Init:0000000000000000 $t
/var/folders/lx/hc4sn_b53233_zkc9xbbl97r0000gp/T//ccGA9DTo.s:972    .text.UI_CheckBox_Init:0000000000000000 UI_CheckBox_Init
/var/folders/lx/hc4sn_b53233_zkc9xbbl97r0000gp/T//ccGA9DTo.s:1023   .text.UI_CheckBox_SetCallback:0000000000000000 $t
/var/folders/lx/hc4sn_b53233_zkc9xbbl97r0000gp/T//ccGA9DTo.s:1029   .text.UI_CheckBox_SetCallback:0000000000000000 UI_CheckBox_SetCallback
/var/folders/lx/hc4sn_b53233_zkc9xbbl97r0000gp/T//ccGA9DTo.s:1060   .text.UI_CheckBox_Move:0000000000000000 $t
/var/folders/lx/hc4sn_b53233_zkc9xbbl97r0000gp/T//ccGA9DTo.s:1066   .text.UI_CheckBox_Move:0000000000000000 UI_CheckBox_Move
/var/folders/lx/hc4sn_b53233_zkc9xbbl97r0000gp/T//ccGA9DTo.s:1103   .text.UI_CheckBox_Trigger:0000000000000000 $t
/var/folders/lx/hc4sn_b53233_zkc9xbbl97r0000gp/T//ccGA9DTo.s:1109   .text.UI_CheckBox_Trigger:0000000000000000 UI_CheckBox_Trigger
/var/folders/lx/hc4sn_b53233_zkc9xbbl97r0000gp/T//ccGA9DTo.s:1171   .text.UI_SlideBar_Init:0000000000000000 $t
/var/folders/lx/hc4sn_b53233_zkc9xbbl97r0000gp/T//ccGA9DTo.s:1177   .text.UI_SlideBar_Init:0000000000000000 UI_SlideBar_Init
/var/folders/lx/hc4sn_b53233_zkc9xbbl97r0000gp/T//ccGA9DTo.s:1323   .text.UI_SlideBar_Move:0000000000000000 $t
/var/folders/lx/hc4sn_b53233_zkc9xbbl97r0000gp/T//ccGA9DTo.s:1329   .text.UI_SlideBar_Move:0000000000000000 UI_SlideBar_Move
/var/folders/lx/hc4sn_b53233_zkc9xbbl97r0000gp/T//ccGA9DTo.s:1366   .text.UI_SlideBar_SetCallBack:0000000000000000 $t
/var/folders/lx/hc4sn_b53233_zkc9xbbl97r0000gp/T//ccGA9DTo.s:1372   .text.UI_SlideBar_SetCallBack:0000000000000000 UI_SlideBar_SetCallBack
/var/folders/lx/hc4sn_b53233_zkc9xbbl97r0000gp/T//ccGA9DTo.s:1403   .text.UI_SlideBar_Input:0000000000000000 $t
/var/folders/lx/hc4sn_b53233_zkc9xbbl97r0000gp/T//ccGA9DTo.s:1409   .text.UI_SlideBar_Input:0000000000000000 UI_SlideBar_Input
/var/folders/lx/hc4sn_b53233_zkc9xbbl97r0000gp/T//ccGA9DTo.s:1502   .text.UI_SlideBar_Trigger:0000000000000000 $t
/var/folders/lx/hc4sn_b53233_zkc9xbbl97r0000gp/T//ccGA9DTo.s:1508   .text.UI_SlideBar_Trigger:0000000000000000 UI_SlideBar_Trigger
/var/folders/lx/hc4sn_b53233_zkc9xbbl97r0000gp/T//ccGA9DTo.s:1572   .text.UI_SlideBar_SetSelect:0000000000000000 $t
/var/folders/lx/hc4sn_b53233_zkc9xbbl97r0000gp/T//ccGA9DTo.s:1578   .text.UI_SlideBar_SetSelect:0000000000000000 UI_SlideBar_SetSelect
/var/folders/lx/hc4sn_b53233_zkc9xbbl97r0000gp/T//ccGA9DTo.s:1600   .text.UI_SlideBar_IsSelected:0000000000000000 $t
/var/folders/lx/hc4sn_b53233_zkc9xbbl97r0000gp/T//ccGA9DTo.s:1606   .text.UI_SlideBar_IsSelected:0000000000000000 UI_SlideBar_IsSelected
/var/folders/lx/hc4sn_b53233_zkc9xbbl97r0000gp/T//ccGA9DTo.s:1634   .text.UI_ProcessBar_Init:0000000000000000 $t
/var/folders/lx/hc4sn_b53233_zkc9xbbl97r0000gp/T//ccGA9DTo.s:1640   .text.UI_ProcessBar_Init:0000000000000000 UI_ProcessBar_Init
/var/folders/lx/hc4sn_b53233_zkc9xbbl97r0000gp/T//ccGA9DTo.s:1770   .text.UI_ProcessBar_Init:000000000000007c $d
/var/folders/lx/hc4sn_b53233_zkc9xbbl97r0000gp/T//ccGA9DTo.s:1775   .text.UI_ProcessBar_SetDspDir:0000000000000000 $t
/var/folders/lx/hc4sn_b53233_zkc9xbbl97r0000gp/T//ccGA9DTo.s:1781   .text.UI_ProcessBar_SetDspDir:0000000000000000 UI_ProcessBar_SetDspDir
/var/folders/lx/hc4sn_b53233_zkc9xbbl97r0000gp/T//ccGA9DTo.s:1826   .text.UI_ProcessBar_SetCurVal:0000000000000000 $t
/var/folders/lx/hc4sn_b53233_zkc9xbbl97r0000gp/T//ccGA9DTo.s:1832   .text.UI_ProcessBar_SetCurVal:0000000000000000 UI_ProcessBar_SetCurVal
/var/folders/lx/hc4sn_b53233_zkc9xbbl97r0000gp/T//ccGA9DTo.s:1920   .text.UI_ProcessBar_Move:0000000000000000 $t
/var/folders/lx/hc4sn_b53233_zkc9xbbl97r0000gp/T//ccGA9DTo.s:1926   .text.UI_ProcessBar_Move:0000000000000000 UI_ProcessBar_Move
ARM GAS  /var/folders/lx/hc4sn_b53233_zkc9xbbl97r0000gp/T//ccGA9DTo.s 			page 137


/var/folders/lx/hc4sn_b53233_zkc9xbbl97r0000gp/T//ccGA9DTo.s:1967   .text.UI_ProcessBar_DspDotBar:0000000000000000 $t
/var/folders/lx/hc4sn_b53233_zkc9xbbl97r0000gp/T//ccGA9DTo.s:1973   .text.UI_ProcessBar_DspDotBar:0000000000000000 UI_ProcessBar_DspDotBar
/var/folders/lx/hc4sn_b53233_zkc9xbbl97r0000gp/T//ccGA9DTo.s:2396   .text.UI_ProcessBar_DspDotBar:0000000000000240 $d
/var/folders/lx/hc4sn_b53233_zkc9xbbl97r0000gp/T//ccGA9DTo.s:2402   .text.UI_ProcessBar_DspFrameBar:0000000000000000 $t
/var/folders/lx/hc4sn_b53233_zkc9xbbl97r0000gp/T//ccGA9DTo.s:2408   .text.UI_ProcessBar_DspFrameBar:0000000000000000 UI_ProcessBar_DspFrameBar
/var/folders/lx/hc4sn_b53233_zkc9xbbl97r0000gp/T//ccGA9DTo.s:2788   .text.UI_ProcessBar_DspFrameBar:00000000000001ec $d
/var/folders/lx/hc4sn_b53233_zkc9xbbl97r0000gp/T//ccGA9DTo.s:2794   .text.UI_ProcessBar_SetLabelPos:0000000000000000 $t
/var/folders/lx/hc4sn_b53233_zkc9xbbl97r0000gp/T//ccGA9DTo.s:2800   .text.UI_ProcessBar_SetLabelPos:0000000000000000 UI_ProcessBar_SetLabelPos
/var/folders/lx/hc4sn_b53233_zkc9xbbl97r0000gp/T//ccGA9DTo.s:2838   .text.UI_Drop_Init:0000000000000000 $t
/var/folders/lx/hc4sn_b53233_zkc9xbbl97r0000gp/T//ccGA9DTo.s:2844   .text.UI_Drop_Init:0000000000000000 UI_Drop_Init
/var/folders/lx/hc4sn_b53233_zkc9xbbl97r0000gp/T//ccGA9DTo.s:2903   .text.UI_Drop_Move:0000000000000000 $t
/var/folders/lx/hc4sn_b53233_zkc9xbbl97r0000gp/T//ccGA9DTo.s:2909   .text.UI_Drop_Move:0000000000000000 UI_Drop_Move
/var/folders/lx/hc4sn_b53233_zkc9xbbl97r0000gp/T//ccGA9DTo.s:2946   .text.UI_Drop_SetSelect:0000000000000000 $t
/var/folders/lx/hc4sn_b53233_zkc9xbbl97r0000gp/T//ccGA9DTo.s:2952   .text.UI_Drop_SetSelect:0000000000000000 UI_Drop_SetSelect
/var/folders/lx/hc4sn_b53233_zkc9xbbl97r0000gp/T//ccGA9DTo.s:3035   .text.UI_Drop_GetSelect:0000000000000000 $t
/var/folders/lx/hc4sn_b53233_zkc9xbbl97r0000gp/T//ccGA9DTo.s:3041   .text.UI_Drop_GetSelect:0000000000000000 UI_Drop_GetSelect
/var/folders/lx/hc4sn_b53233_zkc9xbbl97r0000gp/T//ccGA9DTo.s:3069   .text.UI_Drop_SelectItem:0000000000000000 $t
/var/folders/lx/hc4sn_b53233_zkc9xbbl97r0000gp/T//ccGA9DTo.s:3075   .text.UI_Drop_SelectItem:0000000000000000 UI_Drop_SelectItem
/var/folders/lx/hc4sn_b53233_zkc9xbbl97r0000gp/T//ccGA9DTo.s:3178   .text.UI_Drop_Ctl:0000000000000000 $t
/var/folders/lx/hc4sn_b53233_zkc9xbbl97r0000gp/T//ccGA9DTo.s:3184   .text.UI_Drop_Ctl:0000000000000000 UI_Drop_Ctl
/var/folders/lx/hc4sn_b53233_zkc9xbbl97r0000gp/T//ccGA9DTo.s:3355   .text.UI_Drop_Ctl:00000000000000a4 $d
/var/folders/lx/hc4sn_b53233_zkc9xbbl97r0000gp/T//ccGA9DTo.s:3361   .text.UI_DigInput_Init:0000000000000000 $t
/var/folders/lx/hc4sn_b53233_zkc9xbbl97r0000gp/T//ccGA9DTo.s:3367   .text.UI_DigInput_Init:0000000000000000 UI_DigInput_Init
/var/folders/lx/hc4sn_b53233_zkc9xbbl97r0000gp/T//ccGA9DTo.s:3480   .text.UI_DigInput_SetIntRange:0000000000000000 $t
/var/folders/lx/hc4sn_b53233_zkc9xbbl97r0000gp/T//ccGA9DTo.s:3486   .text.UI_DigInput_SetIntRange:0000000000000000 UI_DigInput_SetIntRange
/var/folders/lx/hc4sn_b53233_zkc9xbbl97r0000gp/T//ccGA9DTo.s:3553   .text.UI_DigInput_SetDouRange:0000000000000000 $t
/var/folders/lx/hc4sn_b53233_zkc9xbbl97r0000gp/T//ccGA9DTo.s:3559   .text.UI_DigInput_SetDouRange:0000000000000000 UI_DigInput_SetDouRange
/var/folders/lx/hc4sn_b53233_zkc9xbbl97r0000gp/T//ccGA9DTo.s:3698   .text.UI_DigInput_SetDouRange:00000000000000a0 $d
/var/folders/lx/hc4sn_b53233_zkc9xbbl97r0000gp/T//ccGA9DTo.s:3704   .text.UI_DigInput_GetDoubleVal:0000000000000000 $t
/var/folders/lx/hc4sn_b53233_zkc9xbbl97r0000gp/T//ccGA9DTo.s:3710   .text.UI_DigInput_GetDoubleVal:0000000000000000 UI_DigInput_GetDoubleVal
/var/folders/lx/hc4sn_b53233_zkc9xbbl97r0000gp/T//ccGA9DTo.s:3766   .text.UI_DigInput_GetIntVal:0000000000000000 $t
/var/folders/lx/hc4sn_b53233_zkc9xbbl97r0000gp/T//ccGA9DTo.s:3772   .text.UI_DigInput_GetIntVal:0000000000000000 UI_DigInput_GetIntVal
/var/folders/lx/hc4sn_b53233_zkc9xbbl97r0000gp/T//ccGA9DTo.s:3817   .text.UI_DigInput_SetSelectStatus:0000000000000000 $t
/var/folders/lx/hc4sn_b53233_zkc9xbbl97r0000gp/T//ccGA9DTo.s:3823   .text.UI_DigInput_SetSelectStatus:0000000000000000 UI_DigInput_SetSelectStatus
/var/folders/lx/hc4sn_b53233_zkc9xbbl97r0000gp/T//ccGA9DTo.s:3854   .text.UI_DigInput_Move:0000000000000000 $t
/var/folders/lx/hc4sn_b53233_zkc9xbbl97r0000gp/T//ccGA9DTo.s:3860   .text.UI_DigInput_Move:0000000000000000 UI_DigInput_Move
/var/folders/lx/hc4sn_b53233_zkc9xbbl97r0000gp/T//ccGA9DTo.s:3897   .text.UI_CheckBox_Ctl:0000000000000000 $t
/var/folders/lx/hc4sn_b53233_zkc9xbbl97r0000gp/T//ccGA9DTo.s:3903   .text.UI_CheckBox_Ctl:0000000000000000 UI_CheckBox_Ctl
/var/folders/lx/hc4sn_b53233_zkc9xbbl97r0000gp/T//ccGA9DTo.s:4084   .text.UI_CheckBox_Ctl:00000000000000b8 $d
/var/folders/lx/hc4sn_b53233_zkc9xbbl97r0000gp/T//ccGA9DTo.s:4090   .text.UI_SlideBar_CTL:0000000000000000 $t
/var/folders/lx/hc4sn_b53233_zkc9xbbl97r0000gp/T//ccGA9DTo.s:4096   .text.UI_SlideBar_CTL:0000000000000000 UI_SlideBar_CTL
/var/folders/lx/hc4sn_b53233_zkc9xbbl97r0000gp/T//ccGA9DTo.s:4354   .text.UI_SlideBar_CTL:0000000000000110 $d
/var/folders/lx/hc4sn_b53233_zkc9xbbl97r0000gp/T//ccGA9DTo.s:4361   .rodata.UI_ProcessBar_DspLoadBar.str1.4:0000000000000000 $d
/var/folders/lx/hc4sn_b53233_zkc9xbbl97r0000gp/T//ccGA9DTo.s:4365   .text.UI_ProcessBar_DspLoadBar:0000000000000000 $t
/var/folders/lx/hc4sn_b53233_zkc9xbbl97r0000gp/T//ccGA9DTo.s:4371   .text.UI_ProcessBar_DspLoadBar:0000000000000000 UI_ProcessBar_DspLoadBar
/var/folders/lx/hc4sn_b53233_zkc9xbbl97r0000gp/T//ccGA9DTo.s:4573   .text.UI_ProcessBar_DspLoadBar:00000000000000f8 $d
/var/folders/lx/hc4sn_b53233_zkc9xbbl97r0000gp/T//ccGA9DTo.s:4581   .text.UI_ProcessBar_Ctl:0000000000000000 $t
/var/folders/lx/hc4sn_b53233_zkc9xbbl97r0000gp/T//ccGA9DTo.s:4587   .text.UI_ProcessBar_Ctl:0000000000000000 UI_ProcessBar_Ctl
/var/folders/lx/hc4sn_b53233_zkc9xbbl97r0000gp/T//ccGA9DTo.s:4680   .text.UI_ProcessBar_Ctl:000000000000004c $d
/var/folders/lx/hc4sn_b53233_zkc9xbbl97r0000gp/T//ccGA9DTo.s:4685   .text.UI_Drop_CreateDropItem:0000000000000000 $t
/var/folders/lx/hc4sn_b53233_zkc9xbbl97r0000gp/T//ccGA9DTo.s:4691   .text.UI_Drop_CreateDropItem:0000000000000000 UI_Drop_CreateDropItem
/var/folders/lx/hc4sn_b53233_zkc9xbbl97r0000gp/T//ccGA9DTo.s:4774   .text.UI_Drop_AddDropItem:0000000000000000 $t
/var/folders/lx/hc4sn_b53233_zkc9xbbl97r0000gp/T//ccGA9DTo.s:4780   .text.UI_Drop_AddDropItem:0000000000000000 UI_Drop_AddDropItem
/var/folders/lx/hc4sn_b53233_zkc9xbbl97r0000gp/T//ccGA9DTo.s:4885   .text.UI_Set_FontType:0000000000000000 $t
/var/folders/lx/hc4sn_b53233_zkc9xbbl97r0000gp/T//ccGA9DTo.s:4892   .text.UI_Set_FontType:0000000000000000 UI_Set_FontType
/var/folders/lx/hc4sn_b53233_zkc9xbbl97r0000gp/T//ccGA9DTo.s:4927   .text.UI_Set_FontType:0000000000000018 $d
/var/folders/lx/hc4sn_b53233_zkc9xbbl97r0000gp/T//ccGA9DTo.s:4932   .text.UI_Get_FontType:0000000000000000 $t
ARM GAS  /var/folders/lx/hc4sn_b53233_zkc9xbbl97r0000gp/T//ccGA9DTo.s 			page 138


/var/folders/lx/hc4sn_b53233_zkc9xbbl97r0000gp/T//ccGA9DTo.s:4939   .text.UI_Get_FontType:0000000000000000 UI_Get_FontType
/var/folders/lx/hc4sn_b53233_zkc9xbbl97r0000gp/T//ccGA9DTo.s:4954   .text.UI_Get_FontType:0000000000000008 $d
/var/folders/lx/hc4sn_b53233_zkc9xbbl97r0000gp/T//ccGA9DTo.s:4959   .text.UI_Set_DspInterface:0000000000000000 $t
/var/folders/lx/hc4sn_b53233_zkc9xbbl97r0000gp/T//ccGA9DTo.s:4966   .text.UI_Set_DspInterface:0000000000000000 UI_Set_DspInterface
/var/folders/lx/hc4sn_b53233_zkc9xbbl97r0000gp/T//ccGA9DTo.s:5043   .text.UI_Set_DspInterface:0000000000000034 $d
/var/folders/lx/hc4sn_b53233_zkc9xbbl97r0000gp/T//ccGA9DTo.s:5048   .text.UI_Set_GetWidgetWidthMathod:0000000000000000 $t
/var/folders/lx/hc4sn_b53233_zkc9xbbl97r0000gp/T//ccGA9DTo.s:5055   .text.UI_Set_GetWidgetWidthMathod:0000000000000000 UI_Set_GetWidgetWidthMathod
/var/folders/lx/hc4sn_b53233_zkc9xbbl97r0000gp/T//ccGA9DTo.s:5072   .text.UI_Set_GetWidgetWidthMathod:0000000000000008 $d
/var/folders/lx/hc4sn_b53233_zkc9xbbl97r0000gp/T//ccGA9DTo.s:5077   .text.UI_ShowSelector:0000000000000000 $t
/var/folders/lx/hc4sn_b53233_zkc9xbbl97r0000gp/T//ccGA9DTo.s:5084   .text.UI_ShowSelector:0000000000000000 UI_ShowSelector
/var/folders/lx/hc4sn_b53233_zkc9xbbl97r0000gp/T//ccGA9DTo.s:5180   .text.UI_ShowSelector:0000000000000046 $d
/var/folders/lx/hc4sn_b53233_zkc9xbbl97r0000gp/T//ccGA9DTo.s:5488   .text.UI_ShowSelector:0000000000000178 $d
/var/folders/lx/hc4sn_b53233_zkc9xbbl97r0000gp/T//ccGA9DTo.s:5541   .data.UI_DigInput:0000000000000000 UI_DigInput
/var/folders/lx/hc4sn_b53233_zkc9xbbl97r0000gp/T//ccGA9DTo.s:5555   .data.UI_Drop:0000000000000000 UI_Drop
/var/folders/lx/hc4sn_b53233_zkc9xbbl97r0000gp/T//ccGA9DTo.s:5567   .data.UI_ProcessBar:0000000000000000 UI_ProcessBar
/var/folders/lx/hc4sn_b53233_zkc9xbbl97r0000gp/T//ccGA9DTo.s:5579   .data.UI_SlideBar:0000000000000000 UI_SlideBar
/var/folders/lx/hc4sn_b53233_zkc9xbbl97r0000gp/T//ccGA9DTo.s:5531   .data.UI_CheckBox:0000000000000000 UI_CheckBox
/var/folders/lx/hc4sn_b53233_zkc9xbbl97r0000gp/T//ccGA9DTo.s:5519   .data.UI_Button:0000000000000000 UI_Button
/var/folders/lx/hc4sn_b53233_zkc9xbbl97r0000gp/T//ccGA9DTo.s:5513   .bss.UI_Get_WidgetWidth:0000000000000000 UI_Get_WidgetWidth
/var/folders/lx/hc4sn_b53233_zkc9xbbl97r0000gp/T//ccGA9DTo.s:5502   .bss.UI_DspInterface:0000000000000000 $d
/var/folders/lx/hc4sn_b53233_zkc9xbbl97r0000gp/T//ccGA9DTo.s:5506   .bss.UI_DspInterface:0000000000000000 UI_DspInterface
/var/folders/lx/hc4sn_b53233_zkc9xbbl97r0000gp/T//ccGA9DTo.s:5509   .bss.UI_Get_WidgetWidth:0000000000000000 $d
/var/folders/lx/hc4sn_b53233_zkc9xbbl97r0000gp/T//ccGA9DTo.s:5516   .data.UI_Button:0000000000000000 $d
/var/folders/lx/hc4sn_b53233_zkc9xbbl97r0000gp/T//ccGA9DTo.s:5528   .data.UI_CheckBox:0000000000000000 $d
/var/folders/lx/hc4sn_b53233_zkc9xbbl97r0000gp/T//ccGA9DTo.s:5538   .data.UI_DigInput:0000000000000000 $d
/var/folders/lx/hc4sn_b53233_zkc9xbbl97r0000gp/T//ccGA9DTo.s:5552   .data.UI_Drop:0000000000000000 $d
/var/folders/lx/hc4sn_b53233_zkc9xbbl97r0000gp/T//ccGA9DTo.s:5564   .data.UI_ProcessBar:0000000000000000 $d
/var/folders/lx/hc4sn_b53233_zkc9xbbl97r0000gp/T//ccGA9DTo.s:5576   .data.UI_SlideBar:0000000000000000 $d
/var/folders/lx/hc4sn_b53233_zkc9xbbl97r0000gp/T//ccGA9DTo.s:5592   .data.base_font:0000000000000000 base_font
/var/folders/lx/hc4sn_b53233_zkc9xbbl97r0000gp/T//ccGA9DTo.s:5186   .text.UI_ShowSelector:000000000000004b $d
/var/folders/lx/hc4sn_b53233_zkc9xbbl97r0000gp/T//ccGA9DTo.s:5186   .text.UI_ShowSelector:000000000000004c $t

UNDEFINED SYMBOLS
__aeabi_dsub
__aeabi_dcmple
__aeabi_d2iz
__aeabi_i2d
__aeabi_d2uiz
strlen
sprintf
MMU_Malloc
List_ItemInit
List_Insert_Item
List_Init
