ARM GAS  /var/folders/lx/hc4sn_b53233_zkc9xbbl97r0000gp/T//cc4iWlrc.s 			page 1


   1              		.cpu cortex-m4
   2              		.eabi_attribute 27, 1
   3              		.eabi_attribute 28, 1
   4              		.eabi_attribute 20, 1
   5              		.eabi_attribute 21, 1
   6              		.eabi_attribute 23, 3
   7              		.eabi_attribute 24, 1
   8              		.eabi_attribute 25, 1
   9              		.eabi_attribute 26, 1
  10              		.eabi_attribute 30, 1
  11              		.eabi_attribute 34, 1
  12              		.eabi_attribute 18, 4
  13              		.file	"UI_Controller.c"
  14              		.text
  15              	.Ltext0:
  16              		.cfi_sections	.debug_frame
  17              		.section	.text.UI_Draw_HorDotLine,"ax",%progbits
  18              		.align	1
  19              		.arch armv7e-m
  20              		.syntax unified
  21              		.thumb
  22              		.thumb_func
  23              		.fpu fpv4-sp-d16
  25              	UI_Draw_HorDotLine:
  26              	.LVL0:
  27              	.LFB6:
  28              		.file 1 "Dsp/widget/wgt_core/UI_Controller.c"
   1:Dsp/widget/wgt_core/UI_Controller.c **** #include "UI_Controller.h"
   2:Dsp/widget/wgt_core/UI_Controller.c **** #include "runtime.h"
   3:Dsp/widget/wgt_core/UI_Controller.c **** #include <stdlib.h>
   4:Dsp/widget/wgt_core/UI_Controller.c **** #include <string.h>
   5:Dsp/widget/wgt_core/UI_Controller.c **** #include <stdio.h>
   6:Dsp/widget/wgt_core/UI_Controller.c **** 
   7:Dsp/widget/wgt_core/UI_Controller.c **** /* internal object */
   8:Dsp/widget/wgt_core/UI_Controller.c **** static UI_DrawInterface_TypeDef UI_DspInterface;
   9:Dsp/widget/wgt_core/UI_Controller.c **** static uint8_t base_font = Default_Font;
  10:Dsp/widget/wgt_core/UI_Controller.c **** 
  11:Dsp/widget/wgt_core/UI_Controller.c **** /* external function */
  12:Dsp/widget/wgt_core/UI_Controller.c **** /* UI Get General Get Mathod */
  13:Dsp/widget/wgt_core/UI_Controller.c **** UI_GetWidget_Width UI_Get_WidgetWidth = NULL;
  14:Dsp/widget/wgt_core/UI_Controller.c **** // UI_GetWidget_Height UI_Get_WidgetHeight = NULL;
  15:Dsp/widget/wgt_core/UI_Controller.c **** 
  16:Dsp/widget/wgt_core/UI_Controller.c **** /* UI button section */
  17:Dsp/widget/wgt_core/UI_Controller.c **** static bool UI_Button_Init(UI_ButtonObj_TypeDef *Obj, char *label, int16_t x, int16_t y, uint8_t wi
  18:Dsp/widget/wgt_core/UI_Controller.c **** static bool UI_Button_Set_Label(UI_ButtonObj_TypeDef *Obj, UI_Button_State_List state, char *label)
  19:Dsp/widget/wgt_core/UI_Controller.c **** static bool UI_Button_Set_TriggerCallback(UI_ButtonObj_TypeDef *Obj, UI_Button_Trigger_Type type, U
  20:Dsp/widget/wgt_core/UI_Controller.c **** static bool UI_Button_Push(UI_ButtonObj_TypeDef *Obj);
  21:Dsp/widget/wgt_core/UI_Controller.c **** static bool UI_Button_Release(UI_ButtonObj_TypeDef *Obj);
  22:Dsp/widget/wgt_core/UI_Controller.c **** static bool UI_Button_Move(UI_ButtonObj_TypeDef *Obj, uint16_t x, uint16_t y);
  23:Dsp/widget/wgt_core/UI_Controller.c **** static bool UI_Button_Ctl(UI_ButtonObj_TypeDef *Obj);
  24:Dsp/widget/wgt_core/UI_Controller.c **** 
  25:Dsp/widget/wgt_core/UI_Controller.c **** /* UI check box section */
  26:Dsp/widget/wgt_core/UI_Controller.c **** static bool UI_CheckBox_Init(UI_CheckBoxObj_TypeDef *Obj, char *label, int16_t x, int16_t y, bool s
  27:Dsp/widget/wgt_core/UI_Controller.c **** static bool UI_CheckBox_SetCallback(UI_CheckBoxObj_TypeDef *Obj, UI_CheckBoxTrigger_Callback callba
  28:Dsp/widget/wgt_core/UI_Controller.c **** static bool UI_CheckBox_Move(UI_CheckBoxObj_TypeDef *Obj, int16_t x, int16_t y);
  29:Dsp/widget/wgt_core/UI_Controller.c **** static bool UI_CheckBox_Trigger(UI_CheckBoxObj_TypeDef *Obj);
  30:Dsp/widget/wgt_core/UI_Controller.c **** static bool UI_CheckBox_Ctl(UI_CheckBoxObj_TypeDef *Obj);
ARM GAS  /var/folders/lx/hc4sn_b53233_zkc9xbbl97r0000gp/T//cc4iWlrc.s 			page 2


  31:Dsp/widget/wgt_core/UI_Controller.c **** 
  32:Dsp/widget/wgt_core/UI_Controller.c **** /* UI slider bar section */
  33:Dsp/widget/wgt_core/UI_Controller.c **** static bool UI_SlideBar_Init(UI_SlideBarObj_TypeDef *Obj, UI_SliderBar_Mode_List mode, char *label,
  34:Dsp/widget/wgt_core/UI_Controller.c **** static bool UI_SlideBar_Move(UI_SlideBarObj_TypeDef *Obj, int16_t x, int16_t y);
  35:Dsp/widget/wgt_core/UI_Controller.c **** static bool UI_SlideBar_SetCallBack(UI_SlideBarObj_TypeDef *Obj, UI_SliderBarTrigger_Callback callb
  36:Dsp/widget/wgt_core/UI_Controller.c **** static bool UI_SlideBar_Input(UI_SlideBarObj_TypeDef *Obj, int16_t *step);
  37:Dsp/widget/wgt_core/UI_Controller.c **** static bool UI_SlideBar_Trigger(UI_SlideBarObj_TypeDef *Obj);
  38:Dsp/widget/wgt_core/UI_Controller.c **** static bool UI_SlideBar_CTL(UI_SlideBarObj_TypeDef *Obj);
  39:Dsp/widget/wgt_core/UI_Controller.c **** static void UI_SlideBar_SetSelect(UI_SlideBarObj_TypeDef *Obj, bool select);
  40:Dsp/widget/wgt_core/UI_Controller.c **** static bool UI_SlideBar_IsSelected(UI_SlideBarObj_TypeDef *Obj);
  41:Dsp/widget/wgt_core/UI_Controller.c **** 
  42:Dsp/widget/wgt_core/UI_Controller.c **** /* UI Process bar section */
  43:Dsp/widget/wgt_core/UI_Controller.c **** static bool UI_ProcessBar_Init(UI_ProcessBarObj_TypeDef *Obj, UI_ProcessBar_DspType_List dsp_type, 
  44:Dsp/widget/wgt_core/UI_Controller.c **** static bool UI_ProcessBar_SetDspDir(UI_ProcessBarObj_TypeDef *Obj, UI_ProcessBar_MoveDir_TypeDef Di
  45:Dsp/widget/wgt_core/UI_Controller.c **** static bool UI_ProcessBar_SetCurVal(UI_ProcessBarObj_TypeDef *Obj, int32_t val);
  46:Dsp/widget/wgt_core/UI_Controller.c **** static bool UI_ProcessBar_Ctl(UI_ProcessBarObj_TypeDef *Obj);
  47:Dsp/widget/wgt_core/UI_Controller.c **** static bool UI_ProcessBar_Move(UI_ProcessBarObj_TypeDef *Obj, uint16_t x, uint16_t y);
  48:Dsp/widget/wgt_core/UI_Controller.c **** static bool UI_ProcessBar_SetLabelPos(UI_ProcessBarObj_TypeDef *Obj, UI_ProcessBar_LabelPos_List Po
  49:Dsp/widget/wgt_core/UI_Controller.c **** 
  50:Dsp/widget/wgt_core/UI_Controller.c **** /* UI Drop Section */
  51:Dsp/widget/wgt_core/UI_Controller.c **** static bool UI_Drop_Init(UI_DropObj_TypeDef *Obj, char *label, int16_t x, int16_t y);
  52:Dsp/widget/wgt_core/UI_Controller.c **** static bool UI_Drop_Move(UI_DropObj_TypeDef *Obj, int16_t x, int16_t y);
  53:Dsp/widget/wgt_core/UI_Controller.c **** static bool UI_Drop_AddDropItem(UI_DropObj_TypeDef *Obj, char *item_desc, void *data, uint16_t data
  54:Dsp/widget/wgt_core/UI_Controller.c **** static bool UI_Drop_SetSelect(UI_DropObj_TypeDef *Obj, bool state);
  55:Dsp/widget/wgt_core/UI_Controller.c **** static bool UI_Drop_GetSelect(UI_DropObj_TypeDef *Obj);
  56:Dsp/widget/wgt_core/UI_Controller.c **** static bool UI_Drop_SelectItem(UI_DropObj_TypeDef *Obj, int8_t *offset);
  57:Dsp/widget/wgt_core/UI_Controller.c **** static bool UI_Drop_Ctl(UI_DropObj_TypeDef *Obj);
  58:Dsp/widget/wgt_core/UI_Controller.c **** 
  59:Dsp/widget/wgt_core/UI_Controller.c **** /* UI Digital Input Section */
  60:Dsp/widget/wgt_core/UI_Controller.c **** static bool UI_DigInput_Init(UI_DigInputObj_TypeDef *Obj, char *label, int16_t x, int16_t y, UI_Dig
  61:Dsp/widget/wgt_core/UI_Controller.c **** static bool UI_DigInput_SetIntRange(UI_DigInputObj_TypeDef *Obj, uint8_t efft_int_len, int32_t max,
  62:Dsp/widget/wgt_core/UI_Controller.c **** static bool UI_DigInput_SetDouRange(UI_DigInputObj_TypeDef *Obj, uint8_t efft_int_len, uint8_t efft
  63:Dsp/widget/wgt_core/UI_Controller.c **** static bool UI_DigInput_GetDoubleVal(UI_DigInputObj_TypeDef *Obj, double *Out);
  64:Dsp/widget/wgt_core/UI_Controller.c **** static bool UI_DigInput_GetIntVal(UI_DigInputObj_TypeDef *Obj, int32_t *Out);
  65:Dsp/widget/wgt_core/UI_Controller.c **** static bool UI_DigInput_Move(UI_DigInputObj_TypeDef *Obj, int16_t x, int16_t y);
  66:Dsp/widget/wgt_core/UI_Controller.c **** static bool UI_DigInput_SetSelectStatus(UI_DigInputObj_TypeDef *Obj, bool status);
  67:Dsp/widget/wgt_core/UI_Controller.c **** static bool UI_DigInput_GetSelectStatus(UI_DigInputObj_TypeDef *Obj);
  68:Dsp/widget/wgt_core/UI_Controller.c **** 
  69:Dsp/widget/wgt_core/UI_Controller.c **** /* general function */
  70:Dsp/widget/wgt_core/UI_Controller.c **** static bool UI_Get_InitSate(UI_GeneralData_TypeDef GenData);
  71:Dsp/widget/wgt_core/UI_Controller.c **** static bool UI_Selecte(UI_GeneralData_TypeDef *GenData, bool select);
  72:Dsp/widget/wgt_core/UI_Controller.c **** static bool UI_Get_Selected(UI_GeneralData_TypeDef GenData);
  73:Dsp/widget/wgt_core/UI_Controller.c **** static bool UI_Move(UI_GeneralData_TypeDef *GenUI_Info, int16_t dst_x, int16_t dst_y);
  74:Dsp/widget/wgt_core/UI_Controller.c **** 
  75:Dsp/widget/wgt_core/UI_Controller.c **** /* UI custom display mathod */
  76:Dsp/widget/wgt_core/UI_Controller.c **** static bool UI_Draw_HorDotLine(int16_t x, int16_t y, uint8_t len, uint8_t line_width);
  77:Dsp/widget/wgt_core/UI_Controller.c **** 
  78:Dsp/widget/wgt_core/UI_Controller.c **** /* external Object var */
  79:Dsp/widget/wgt_core/UI_Controller.c **** UI_Button_Interface_TypeDef UI_Button = {
  80:Dsp/widget/wgt_core/UI_Controller.c ****     .ctl = UI_Button_Ctl,
  81:Dsp/widget/wgt_core/UI_Controller.c ****     .init = UI_Button_Init,
  82:Dsp/widget/wgt_core/UI_Controller.c ****     .push = UI_Button_Push,
  83:Dsp/widget/wgt_core/UI_Controller.c ****     .move = UI_Button_Move,
  84:Dsp/widget/wgt_core/UI_Controller.c ****     .release = UI_Button_Release,
  85:Dsp/widget/wgt_core/UI_Controller.c ****     .set_label = UI_Button_Set_Label,
  86:Dsp/widget/wgt_core/UI_Controller.c ****     .set_trogger_callback = UI_Button_Set_TriggerCallback,
  87:Dsp/widget/wgt_core/UI_Controller.c **** };
ARM GAS  /var/folders/lx/hc4sn_b53233_zkc9xbbl97r0000gp/T//cc4iWlrc.s 			page 3


  88:Dsp/widget/wgt_core/UI_Controller.c **** 
  89:Dsp/widget/wgt_core/UI_Controller.c **** UI_CheckBox_Interface_TypeDef UI_CheckBox = {
  90:Dsp/widget/wgt_core/UI_Controller.c ****     .ctl = UI_CheckBox_Ctl,
  91:Dsp/widget/wgt_core/UI_Controller.c ****     .init = UI_CheckBox_Init,
  92:Dsp/widget/wgt_core/UI_Controller.c ****     .Set_Callback = UI_CheckBox_SetCallback,
  93:Dsp/widget/wgt_core/UI_Controller.c ****     .Move = UI_CheckBox_Move,
  94:Dsp/widget/wgt_core/UI_Controller.c ****     .Trigger = UI_CheckBox_Trigger,
  95:Dsp/widget/wgt_core/UI_Controller.c **** };
  96:Dsp/widget/wgt_core/UI_Controller.c **** 
  97:Dsp/widget/wgt_core/UI_Controller.c **** UI_SliderBar_Interface_TypeDef UI_SlideBar = {
  98:Dsp/widget/wgt_core/UI_Controller.c ****     .init = UI_SlideBar_Init,
  99:Dsp/widget/wgt_core/UI_Controller.c ****     .Move = UI_SlideBar_Move,
 100:Dsp/widget/wgt_core/UI_Controller.c ****     .Set_Callbak = UI_SlideBar_SetCallBack,
 101:Dsp/widget/wgt_core/UI_Controller.c ****     .Input = UI_SlideBar_Input,
 102:Dsp/widget/wgt_core/UI_Controller.c ****     .Trigger = UI_SlideBar_Trigger,
 103:Dsp/widget/wgt_core/UI_Controller.c ****     .ctl = UI_SlideBar_CTL,
 104:Dsp/widget/wgt_core/UI_Controller.c ****     .Set_Select = UI_SlideBar_SetSelect,
 105:Dsp/widget/wgt_core/UI_Controller.c ****     .Get_Select = UI_SlideBar_IsSelected,
 106:Dsp/widget/wgt_core/UI_Controller.c **** };
 107:Dsp/widget/wgt_core/UI_Controller.c **** 
 108:Dsp/widget/wgt_core/UI_Controller.c **** UI_ProcessBar_Interface_TypeDef UI_ProcessBar = {
 109:Dsp/widget/wgt_core/UI_Controller.c ****     .init = UI_ProcessBar_Init,
 110:Dsp/widget/wgt_core/UI_Controller.c ****     .Move = UI_ProcessBar_Move,
 111:Dsp/widget/wgt_core/UI_Controller.c ****     .set_CurVal = UI_ProcessBar_SetCurVal,
 112:Dsp/widget/wgt_core/UI_Controller.c ****     .set_DspDir = UI_ProcessBar_SetDspDir,
 113:Dsp/widget/wgt_core/UI_Controller.c ****     .ctl = UI_ProcessBar_Ctl,
 114:Dsp/widget/wgt_core/UI_Controller.c ****     .Set_LabelPos = UI_ProcessBar_SetLabelPos,
 115:Dsp/widget/wgt_core/UI_Controller.c **** };
 116:Dsp/widget/wgt_core/UI_Controller.c **** 
 117:Dsp/widget/wgt_core/UI_Controller.c **** UI_Drop_Interface_TypeDef UI_Drop = {
 118:Dsp/widget/wgt_core/UI_Controller.c ****     .init = UI_Drop_Init,
 119:Dsp/widget/wgt_core/UI_Controller.c ****     .Move = UI_Drop_Move,
 120:Dsp/widget/wgt_core/UI_Controller.c ****     .Select_DropItem = UI_Drop_SelectItem,
 121:Dsp/widget/wgt_core/UI_Controller.c ****     .Set_Select = UI_Drop_SetSelect,
 122:Dsp/widget/wgt_core/UI_Controller.c ****     .Get_Select = UI_Drop_GetSelect,
 123:Dsp/widget/wgt_core/UI_Controller.c ****     .Add_drop_item = UI_Drop_AddDropItem,
 124:Dsp/widget/wgt_core/UI_Controller.c ****     .ctl = UI_Drop_Ctl,
 125:Dsp/widget/wgt_core/UI_Controller.c **** };
 126:Dsp/widget/wgt_core/UI_Controller.c **** 
 127:Dsp/widget/wgt_core/UI_Controller.c **** UI_DigInput_Interface_TypeDef UI_DigInput = {
 128:Dsp/widget/wgt_core/UI_Controller.c ****     .init = UI_DigInput_Init,
 129:Dsp/widget/wgt_core/UI_Controller.c ****     .input_part_select = NULL,
 130:Dsp/widget/wgt_core/UI_Controller.c ****     .Select_UI = UI_DigInput_SetSelectStatus,
 131:Dsp/widget/wgt_core/UI_Controller.c ****     .set_range_DouInput = UI_DigInput_SetDouRange,
 132:Dsp/widget/wgt_core/UI_Controller.c ****     .set_range_IntInput = UI_DigInput_SetIntRange,
 133:Dsp/widget/wgt_core/UI_Controller.c ****     .get_CurInout_Double = UI_DigInput_GetDoubleVal,
 134:Dsp/widget/wgt_core/UI_Controller.c ****     .get_CurInput_Int = UI_DigInput_GetIntVal,
 135:Dsp/widget/wgt_core/UI_Controller.c ****     .Move = UI_DigInput_Move,
 136:Dsp/widget/wgt_core/UI_Controller.c ****     .ctl = NULL,
 137:Dsp/widget/wgt_core/UI_Controller.c **** };
 138:Dsp/widget/wgt_core/UI_Controller.c **** 
 139:Dsp/widget/wgt_core/UI_Controller.c **** /******************************* general function *********************************/
 140:Dsp/widget/wgt_core/UI_Controller.c **** 
 141:Dsp/widget/wgt_core/UI_Controller.c **** bool UI_Set_FontType(uint8_t font)
 142:Dsp/widget/wgt_core/UI_Controller.c **** {
 143:Dsp/widget/wgt_core/UI_Controller.c ****     if (font < Font_8 || font > Font_16)
 144:Dsp/widget/wgt_core/UI_Controller.c ****         return false;
ARM GAS  /var/folders/lx/hc4sn_b53233_zkc9xbbl97r0000gp/T//cc4iWlrc.s 			page 4


 145:Dsp/widget/wgt_core/UI_Controller.c **** 
 146:Dsp/widget/wgt_core/UI_Controller.c ****     base_font = font;
 147:Dsp/widget/wgt_core/UI_Controller.c **** 
 148:Dsp/widget/wgt_core/UI_Controller.c ****     return true;
 149:Dsp/widget/wgt_core/UI_Controller.c **** }
 150:Dsp/widget/wgt_core/UI_Controller.c **** 
 151:Dsp/widget/wgt_core/UI_Controller.c **** void UI_Set_DspInterface(UI_DrawPoint point,
 152:Dsp/widget/wgt_core/UI_Controller.c ****                          UI_DrawHLine line_h,
 153:Dsp/widget/wgt_core/UI_Controller.c ****                          UI_DrawVLine line_v,
 154:Dsp/widget/wgt_core/UI_Controller.c ****                          UI_DrawRectangle rectangle,
 155:Dsp/widget/wgt_core/UI_Controller.c ****                          UI_DrawRadiusRectangle radius_rectangle,
 156:Dsp/widget/wgt_core/UI_Controller.c ****                          UI_DrawCircle circle,
 157:Dsp/widget/wgt_core/UI_Controller.c ****                          UI_DrawCircleSection circle_section,
 158:Dsp/widget/wgt_core/UI_Controller.c ****                          UI_DrawStr str,
 159:Dsp/widget/wgt_core/UI_Controller.c ****                          UI_DrawDig dig,
 160:Dsp/widget/wgt_core/UI_Controller.c ****                          UI_FillCircle fill_circle,
 161:Dsp/widget/wgt_core/UI_Controller.c ****                          UI_FillCircle_Section fillcircle_section,
 162:Dsp/widget/wgt_core/UI_Controller.c ****                          UI_FillRectangle fill_rectangle,
 163:Dsp/widget/wgt_core/UI_Controller.c ****                          UI_FillRadiusRectangle fill_radius_rectangle)
 164:Dsp/widget/wgt_core/UI_Controller.c **** {
 165:Dsp/widget/wgt_core/UI_Controller.c ****     UI_DspInterface.draw_circle = circle;
 166:Dsp/widget/wgt_core/UI_Controller.c ****     UI_DspInterface.draw_circle_section = circle_section;
 167:Dsp/widget/wgt_core/UI_Controller.c ****     UI_DspInterface.draw_line_h = line_h;
 168:Dsp/widget/wgt_core/UI_Controller.c ****     UI_DspInterface.draw_line_v = line_v;
 169:Dsp/widget/wgt_core/UI_Controller.c ****     UI_DspInterface.draw_point = point;
 170:Dsp/widget/wgt_core/UI_Controller.c ****     UI_DspInterface.draw_rectangle = rectangle;
 171:Dsp/widget/wgt_core/UI_Controller.c ****     UI_DspInterface.draw_radius_rectangle = radius_rectangle;
 172:Dsp/widget/wgt_core/UI_Controller.c ****     UI_DspInterface.draw_str = str;
 173:Dsp/widget/wgt_core/UI_Controller.c ****     UI_DspInterface.draw_dig = dig;
 174:Dsp/widget/wgt_core/UI_Controller.c **** 
 175:Dsp/widget/wgt_core/UI_Controller.c ****     UI_DspInterface.fill_circle = fill_circle;
 176:Dsp/widget/wgt_core/UI_Controller.c ****     UI_DspInterface.fill_circle_section = fillcircle_section;
 177:Dsp/widget/wgt_core/UI_Controller.c ****     UI_DspInterface.fill_radius_rectangle = fill_radius_rectangle;
 178:Dsp/widget/wgt_core/UI_Controller.c ****     UI_DspInterface.fill_rectangle = fill_rectangle;
 179:Dsp/widget/wgt_core/UI_Controller.c **** }
 180:Dsp/widget/wgt_core/UI_Controller.c **** 
 181:Dsp/widget/wgt_core/UI_Controller.c **** void UI_Set_GetWidgetWidthMathod(UI_GetWidget_Width mathod)
 182:Dsp/widget/wgt_core/UI_Controller.c **** {
 183:Dsp/widget/wgt_core/UI_Controller.c ****     UI_Get_WidgetWidth = mathod;
 184:Dsp/widget/wgt_core/UI_Controller.c **** }
 185:Dsp/widget/wgt_core/UI_Controller.c **** 
 186:Dsp/widget/wgt_core/UI_Controller.c **** static bool UI_Draw_HorDotLine(int16_t x, int16_t y, uint8_t len, uint8_t line_width)
 187:Dsp/widget/wgt_core/UI_Controller.c **** {
  29              		.loc 1 187 1 view -0
  30              		.cfi_startproc
  31              		@ args = 0, pretend = 0, frame = 0
  32              		@ frame_needed = 0, uses_anonymous_args = 0
  33              		.loc 1 187 1 is_stmt 0 view .LVU1
  34 0000 2DE9F843 		push	{r3, r4, r5, r6, r7, r8, r9, lr}
  35              	.LCFI0:
  36              		.cfi_def_cfa_offset 32
  37              		.cfi_offset 3, -32
  38              		.cfi_offset 4, -28
  39              		.cfi_offset 5, -24
  40              		.cfi_offset 6, -20
  41              		.cfi_offset 7, -16
  42              		.cfi_offset 8, -12
ARM GAS  /var/folders/lx/hc4sn_b53233_zkc9xbbl97r0000gp/T//cc4iWlrc.s 			page 5


  43              		.cfi_offset 9, -8
  44              		.cfi_offset 14, -4
  45 0004 1E46     		mov	r6, r3
 188:Dsp/widget/wgt_core/UI_Controller.c ****     if ((UI_DspInterface.draw_point == NULL) || (UI_Get_WidgetWidth == NULL))
  46              		.loc 1 188 5 is_stmt 1 view .LVU2
  47              		.loc 1 188 25 is_stmt 0 view .LVU3
  48 0006 164B     		ldr	r3, .L14
  49              	.LVL1:
  50              		.loc 1 188 25 view .LVU4
  51 0008 9B68     		ldr	r3, [r3, #8]
  52              		.loc 1 188 8 view .LVU5
  53 000a 2BB3     		cbz	r3, .L7
  54 000c 0546     		mov	r5, r0
  55 000e 0F46     		mov	r7, r1
  56 0010 9046     		mov	r8, r2
  57              		.loc 1 188 69 discriminator 1 view .LVU6
  58 0012 144B     		ldr	r3, .L14+4
  59 0014 1B68     		ldr	r3, [r3]
  60              		.loc 1 188 46 discriminator 1 view .LVU7
  61 0016 0BB3     		cbz	r3, .L8
 189:Dsp/widget/wgt_core/UI_Controller.c ****         return false;
 190:Dsp/widget/wgt_core/UI_Controller.c **** 
 191:Dsp/widget/wgt_core/UI_Controller.c ****     if (x > UI_Get_WidgetWidth())
  62              		.loc 1 191 5 is_stmt 1 view .LVU8
  63              		.loc 1 191 11 is_stmt 0 view .LVU9
  64 0018 8146     		mov	r9, r0
  65              		.loc 1 191 13 view .LVU10
  66 001a 9847     		blx	r3
  67              	.LVL2:
  68              		.loc 1 191 8 view .LVU11
  69 001c 8542     		cmp	r5, r0
  70 001e 12DD     		ble	.L3
 192:Dsp/widget/wgt_core/UI_Controller.c ****         return true;
  71              		.loc 1 192 16 view .LVU12
  72 0020 0120     		movs	r0, #1
  73 0022 17E0     		b	.L2
  74              	.LVL3:
  75              	.L4:
  76              	.LBB2:
  77              	.LBB3:
 193:Dsp/widget/wgt_core/UI_Controller.c **** 
 194:Dsp/widget/wgt_core/UI_Controller.c ****     for (int16_t i = x; i < x + len; i++)
 195:Dsp/widget/wgt_core/UI_Controller.c ****     {
 196:Dsp/widget/wgt_core/UI_Controller.c ****         for (uint8_t width = 0; width < line_width; width++)
  78              		.loc 1 196 53 is_stmt 1 discriminator 2 view .LVU13
  79              		.loc 1 196 58 is_stmt 0 discriminator 2 view .LVU14
  80 0024 0134     		adds	r4, r4, #1
  81              	.LVL4:
  82              		.loc 1 196 58 discriminator 2 view .LVU15
  83 0026 E4B2     		uxtb	r4, r4
  84              	.LVL5:
  85              	.L6:
  86              		.loc 1 196 33 is_stmt 1 discriminator 1 view .LVU16
  87              		.loc 1 196 9 is_stmt 0 discriminator 1 view .LVU17
  88 0028 B442     		cmp	r4, r6
  89 002a 0AD2     		bcs	.L12
 197:Dsp/widget/wgt_core/UI_Controller.c ****         {
ARM GAS  /var/folders/lx/hc4sn_b53233_zkc9xbbl97r0000gp/T//cc4iWlrc.s 			page 6


 198:Dsp/widget/wgt_core/UI_Controller.c ****             if (i % 2)
  90              		.loc 1 198 13 is_stmt 1 view .LVU18
  91              		.loc 1 198 16 is_stmt 0 view .LVU19
  92 002c 15F0010F 		tst	r5, #1
  93 0030 F8D0     		beq	.L4
 199:Dsp/widget/wgt_core/UI_Controller.c ****             {
 200:Dsp/widget/wgt_core/UI_Controller.c ****                 UI_DspInterface.draw_point(i, y + width, true);
  94              		.loc 1 200 17 is_stmt 1 view .LVU20
  95              		.loc 1 200 32 is_stmt 0 view .LVU21
  96 0032 0B4B     		ldr	r3, .L14
  97 0034 9B68     		ldr	r3, [r3, #8]
  98              		.loc 1 200 49 view .LVU22
  99 0036 E119     		adds	r1, r4, r7
 100              		.loc 1 200 17 view .LVU23
 101 0038 0122     		movs	r2, #1
 102 003a 09B2     		sxth	r1, r1
 103 003c 2846     		mov	r0, r5
 104 003e 9847     		blx	r3
 105              	.LVL6:
 106 0040 F0E7     		b	.L4
 107              	.L12:
 108              	.LBE3:
 194:Dsp/widget/wgt_core/UI_Controller.c ****     {
 109              		.loc 1 194 38 is_stmt 1 discriminator 2 view .LVU24
 194:Dsp/widget/wgt_core/UI_Controller.c ****     {
 110              		.loc 1 194 39 is_stmt 0 discriminator 2 view .LVU25
 111 0042 0135     		adds	r5, r5, #1
 112              	.LVL7:
 194:Dsp/widget/wgt_core/UI_Controller.c ****     {
 113              		.loc 1 194 39 discriminator 2 view .LVU26
 114 0044 2DB2     		sxth	r5, r5
 115              	.LVL8:
 116              	.L3:
 194:Dsp/widget/wgt_core/UI_Controller.c ****     {
 117              		.loc 1 194 25 is_stmt 1 discriminator 1 view .LVU27
 194:Dsp/widget/wgt_core/UI_Controller.c ****     {
 118              		.loc 1 194 31 is_stmt 0 discriminator 1 view .LVU28
 119 0046 08EB0903 		add	r3, r8, r9
 194:Dsp/widget/wgt_core/UI_Controller.c ****     {
 120              		.loc 1 194 5 discriminator 1 view .LVU29
 121 004a 9D42     		cmp	r5, r3
 122 004c 01DA     		bge	.L13
 123              	.LBB4:
 196:Dsp/widget/wgt_core/UI_Controller.c ****         {
 124              		.loc 1 196 22 view .LVU30
 125 004e 0024     		movs	r4, #0
 126 0050 EAE7     		b	.L6
 127              	.L13:
 128              	.LBE4:
 129              	.LBE2:
 201:Dsp/widget/wgt_core/UI_Controller.c ****             }
 202:Dsp/widget/wgt_core/UI_Controller.c ****         }
 203:Dsp/widget/wgt_core/UI_Controller.c ****     }
 204:Dsp/widget/wgt_core/UI_Controller.c **** 
 205:Dsp/widget/wgt_core/UI_Controller.c ****     return true;
 130              		.loc 1 205 12 view .LVU31
 131 0052 0120     		movs	r0, #1
ARM GAS  /var/folders/lx/hc4sn_b53233_zkc9xbbl97r0000gp/T//cc4iWlrc.s 			page 7


 132              	.LVL9:
 133              	.L2:
 206:Dsp/widget/wgt_core/UI_Controller.c **** }
 134              		.loc 1 206 1 view .LVU32
 135 0054 BDE8F883 		pop	{r3, r4, r5, r6, r7, r8, r9, pc}
 136              	.LVL10:
 137              	.L7:
 189:Dsp/widget/wgt_core/UI_Controller.c **** 
 138              		.loc 1 189 16 view .LVU33
 139 0058 0020     		movs	r0, #0
 140              	.LVL11:
 189:Dsp/widget/wgt_core/UI_Controller.c **** 
 141              		.loc 1 189 16 view .LVU34
 142 005a FBE7     		b	.L2
 143              	.LVL12:
 144              	.L8:
 189:Dsp/widget/wgt_core/UI_Controller.c **** 
 145              		.loc 1 189 16 view .LVU35
 146 005c 0020     		movs	r0, #0
 147              	.LVL13:
 189:Dsp/widget/wgt_core/UI_Controller.c **** 
 148              		.loc 1 189 16 view .LVU36
 149 005e F9E7     		b	.L2
 150              	.L15:
 151              		.align	2
 152              	.L14:
 153 0060 00000000 		.word	.LANCHOR0
 154 0064 00000000 		.word	.LANCHOR1
 155              		.cfi_endproc
 156              	.LFE6:
 158              		.section	.text.UI_GenData_Init,"ax",%progbits
 159              		.align	1
 160              		.syntax unified
 161              		.thumb
 162              		.thumb_func
 163              		.fpu fpv4-sp-d16
 165              	UI_GenData_Init:
 166              	.LVL14:
 167              	.LFB8:
 207:Dsp/widget/wgt_core/UI_Controller.c **** 
 208:Dsp/widget/wgt_core/UI_Controller.c **** /* still in developing about this selector */
 209:Dsp/widget/wgt_core/UI_Controller.c **** /* FYI different UI Item Got different selector */
 210:Dsp/widget/wgt_core/UI_Controller.c **** bool UI_ShowSelector(WidgetUI_Item_TypeDef *item)
 211:Dsp/widget/wgt_core/UI_Controller.c **** {
 212:Dsp/widget/wgt_core/UI_Controller.c ****     /* button selector coordinate */
 213:Dsp/widget/wgt_core/UI_Controller.c ****     int16_t Btn_Slct_LftUp_X = 0;
 214:Dsp/widget/wgt_core/UI_Controller.c ****     int16_t Btn_Slct_LftUp_Y = 0;
 215:Dsp/widget/wgt_core/UI_Controller.c ****     int16_t Btn_Slct_LftDwn_X = 0;
 216:Dsp/widget/wgt_core/UI_Controller.c ****     int16_t Btn_Slct_LftDwn_Y = 0;
 217:Dsp/widget/wgt_core/UI_Controller.c ****     int16_t Btn_Slct_RgtUp_X = 0;
 218:Dsp/widget/wgt_core/UI_Controller.c ****     int16_t Btn_Slct_RgtUp_Y = 0;
 219:Dsp/widget/wgt_core/UI_Controller.c ****     int16_t Btn_Slct_RgtDwn_X = 0;
 220:Dsp/widget/wgt_core/UI_Controller.c ****     int16_t Btn_Slct_RgtDwn_Y = 0;
 221:Dsp/widget/wgt_core/UI_Controller.c **** 
 222:Dsp/widget/wgt_core/UI_Controller.c ****     /* selector block coordinate */
 223:Dsp/widget/wgt_core/UI_Controller.c ****     int16_t block_x;
 224:Dsp/widget/wgt_core/UI_Controller.c ****     int16_t block_y;
ARM GAS  /var/folders/lx/hc4sn_b53233_zkc9xbbl97r0000gp/T//cc4iWlrc.s 			page 8


 225:Dsp/widget/wgt_core/UI_Controller.c **** 
 226:Dsp/widget/wgt_core/UI_Controller.c ****     uint8_t widget_width = 128;
 227:Dsp/widget/wgt_core/UI_Controller.c ****     uint8_t selector_height = 0;
 228:Dsp/widget/wgt_core/UI_Controller.c **** 
 229:Dsp/widget/wgt_core/UI_Controller.c ****     if (UI_Get_WidgetWidth != NULL)
 230:Dsp/widget/wgt_core/UI_Controller.c ****     {
 231:Dsp/widget/wgt_core/UI_Controller.c ****         widget_width = UI_Get_WidgetWidth();
 232:Dsp/widget/wgt_core/UI_Controller.c **** 
 233:Dsp/widget/wgt_core/UI_Controller.c ****         if (widget_width == 0)
 234:Dsp/widget/wgt_core/UI_Controller.c ****             return false;
 235:Dsp/widget/wgt_core/UI_Controller.c ****     }
 236:Dsp/widget/wgt_core/UI_Controller.c **** 
 237:Dsp/widget/wgt_core/UI_Controller.c ****     if (item == NULL)
 238:Dsp/widget/wgt_core/UI_Controller.c ****         return false;
 239:Dsp/widget/wgt_core/UI_Controller.c **** 
 240:Dsp/widget/wgt_core/UI_Controller.c ****     switch (base_font)
 241:Dsp/widget/wgt_core/UI_Controller.c ****     {
 242:Dsp/widget/wgt_core/UI_Controller.c ****     case Font_8:
 243:Dsp/widget/wgt_core/UI_Controller.c ****         selector_height = Font_8 + 2;
 244:Dsp/widget/wgt_core/UI_Controller.c ****         break;
 245:Dsp/widget/wgt_core/UI_Controller.c **** 
 246:Dsp/widget/wgt_core/UI_Controller.c ****     case Font_12:
 247:Dsp/widget/wgt_core/UI_Controller.c ****     case Font_16:
 248:Dsp/widget/wgt_core/UI_Controller.c ****         selector_height = Font_12 - 1;
 249:Dsp/widget/wgt_core/UI_Controller.c ****         break;
 250:Dsp/widget/wgt_core/UI_Controller.c **** 
 251:Dsp/widget/wgt_core/UI_Controller.c ****     default:
 252:Dsp/widget/wgt_core/UI_Controller.c ****         return false;
 253:Dsp/widget/wgt_core/UI_Controller.c ****     }
 254:Dsp/widget/wgt_core/UI_Controller.c **** 
 255:Dsp/widget/wgt_core/UI_Controller.c ****     switch ((uint8_t)(item->type))
 256:Dsp/widget/wgt_core/UI_Controller.c ****     {
 257:Dsp/widget/wgt_core/UI_Controller.c ****     case UI_Type_Button:
 258:Dsp/widget/wgt_core/UI_Controller.c **** 
 259:Dsp/widget/wgt_core/UI_Controller.c ****         if (UI_DspInterface.fill_circle_section == NULL)
 260:Dsp/widget/wgt_core/UI_Controller.c ****             return false;
 261:Dsp/widget/wgt_core/UI_Controller.c **** 
 262:Dsp/widget/wgt_core/UI_Controller.c ****         /* comput button selector coordinate first */
 263:Dsp/widget/wgt_core/UI_Controller.c ****         Btn_Slct_LftUp_X = HandleToButtonObj(item->Handler)->Gen_Data.x;
 264:Dsp/widget/wgt_core/UI_Controller.c ****         Btn_Slct_LftUp_Y = HandleToButtonObj(item->Handler)->Gen_Data.y + HandleToButtonObj(item->H
 265:Dsp/widget/wgt_core/UI_Controller.c **** 
 266:Dsp/widget/wgt_core/UI_Controller.c ****         Btn_Slct_LftDwn_X = Btn_Slct_LftUp_X;
 267:Dsp/widget/wgt_core/UI_Controller.c ****         Btn_Slct_LftDwn_Y = HandleToButtonObj(item->Handler)->Gen_Data.y;
 268:Dsp/widget/wgt_core/UI_Controller.c **** 
 269:Dsp/widget/wgt_core/UI_Controller.c ****         Btn_Slct_RgtUp_X = HandleToButtonObj(item->Handler)->Gen_Data.x + HandleToButtonObj(item->H
 270:Dsp/widget/wgt_core/UI_Controller.c ****         Btn_Slct_RgtUp_Y = Btn_Slct_LftUp_Y;
 271:Dsp/widget/wgt_core/UI_Controller.c **** 
 272:Dsp/widget/wgt_core/UI_Controller.c ****         Btn_Slct_RgtDwn_X = Btn_Slct_RgtUp_X;
 273:Dsp/widget/wgt_core/UI_Controller.c ****         Btn_Slct_RgtDwn_Y = Btn_Slct_LftDwn_Y;
 274:Dsp/widget/wgt_core/UI_Controller.c **** 
 275:Dsp/widget/wgt_core/UI_Controller.c ****         // show button selector
 276:Dsp/widget/wgt_core/UI_Controller.c ****         UI_DspInterface.draw_circle_section(Btn_Slct_LftUp_X, Btn_Slct_LftUp_Y, BUTTON_SELECTOR_RAD
 277:Dsp/widget/wgt_core/UI_Controller.c ****         UI_DspInterface.draw_circle_section(Btn_Slct_LftDwn_X, Btn_Slct_LftDwn_Y, BUTTON_SELECTOR_R
 278:Dsp/widget/wgt_core/UI_Controller.c ****         UI_DspInterface.draw_circle_section(Btn_Slct_RgtUp_X, Btn_Slct_RgtUp_Y, BUTTON_SELECTOR_RAD
 279:Dsp/widget/wgt_core/UI_Controller.c ****         UI_DspInterface.draw_circle_section(Btn_Slct_RgtDwn_X, Btn_Slct_RgtDwn_Y, BUTTON_SELECTOR_R
 280:Dsp/widget/wgt_core/UI_Controller.c ****         break;
 281:Dsp/widget/wgt_core/UI_Controller.c **** 
ARM GAS  /var/folders/lx/hc4sn_b53233_zkc9xbbl97r0000gp/T//cc4iWlrc.s 			page 9


 282:Dsp/widget/wgt_core/UI_Controller.c ****     case UI_Type_CheckBox:
 283:Dsp/widget/wgt_core/UI_Controller.c ****         block_x = HandleToCheckBoxObj(item->Handler)->Gen_Data.x + 3;
 284:Dsp/widget/wgt_core/UI_Controller.c ****         block_y = HandleToCheckBoxObj(item->Handler)->Gen_Data.y + 1;
 285:Dsp/widget/wgt_core/UI_Controller.c **** 
 286:Dsp/widget/wgt_core/UI_Controller.c ****         UI_DspInterface.fill_rectangle(block_x, block_y, (widget_width - 6), selector_height, true)
 287:Dsp/widget/wgt_core/UI_Controller.c ****         break;
 288:Dsp/widget/wgt_core/UI_Controller.c **** 
 289:Dsp/widget/wgt_core/UI_Controller.c ****     case UI_Type_SlideBar:
 290:Dsp/widget/wgt_core/UI_Controller.c ****         block_y = HandleToSlideBarObj(item->Handler)->Gen_Data.y + 1;
 291:Dsp/widget/wgt_core/UI_Controller.c **** 
 292:Dsp/widget/wgt_core/UI_Controller.c ****         if (!UI_SlideBar_IsSelected(HandleToButtonObj(item->Handler)))
 293:Dsp/widget/wgt_core/UI_Controller.c ****         {
 294:Dsp/widget/wgt_core/UI_Controller.c ****             block_x = HandleToSlideBarObj(item->Handler)->Gen_Data.x + 3;
 295:Dsp/widget/wgt_core/UI_Controller.c **** 
 296:Dsp/widget/wgt_core/UI_Controller.c ****             UI_DspInterface.fill_rectangle(block_x, block_y, (widget_width - 6), selector_height, t
 297:Dsp/widget/wgt_core/UI_Controller.c ****         }
 298:Dsp/widget/wgt_core/UI_Controller.c ****         else
 299:Dsp/widget/wgt_core/UI_Controller.c ****         {
 300:Dsp/widget/wgt_core/UI_Controller.c ****             block_x = HandleToSlideBarObj(item->Handler)->BarCoord_X - 3;
 301:Dsp/widget/wgt_core/UI_Controller.c **** 
 302:Dsp/widget/wgt_core/UI_Controller.c ****             UI_DspInterface.fill_rectangle(block_x, block_y, (widget_width - block_x - 6), selector
 303:Dsp/widget/wgt_core/UI_Controller.c ****         }
 304:Dsp/widget/wgt_core/UI_Controller.c ****         break;
 305:Dsp/widget/wgt_core/UI_Controller.c **** 
 306:Dsp/widget/wgt_core/UI_Controller.c ****     case UI_Type_Drop:
 307:Dsp/widget/wgt_core/UI_Controller.c ****         block_y = HandleToDropObj(item->Handler)->Gen_Data.y;
 308:Dsp/widget/wgt_core/UI_Controller.c **** 
 309:Dsp/widget/wgt_core/UI_Controller.c ****         if (HandleToDropObj(item->Handler)->is_selected)
 310:Dsp/widget/wgt_core/UI_Controller.c ****         {
 311:Dsp/widget/wgt_core/UI_Controller.c ****             block_x = HandleToDropObj(item->Handler)->Gen_Data.x;
 312:Dsp/widget/wgt_core/UI_Controller.c ****         }
 313:Dsp/widget/wgt_core/UI_Controller.c ****         else
 314:Dsp/widget/wgt_core/UI_Controller.c ****         {
 315:Dsp/widget/wgt_core/UI_Controller.c ****             block_x = HandleToDropObj(item->Handler)->Gen_Data.x;
 316:Dsp/widget/wgt_core/UI_Controller.c ****         }
 317:Dsp/widget/wgt_core/UI_Controller.c ****         break;
 318:Dsp/widget/wgt_core/UI_Controller.c **** 
 319:Dsp/widget/wgt_core/UI_Controller.c ****     default:
 320:Dsp/widget/wgt_core/UI_Controller.c ****         return false;
 321:Dsp/widget/wgt_core/UI_Controller.c ****     }
 322:Dsp/widget/wgt_core/UI_Controller.c **** 
 323:Dsp/widget/wgt_core/UI_Controller.c ****     return true;
 324:Dsp/widget/wgt_core/UI_Controller.c **** }
 325:Dsp/widget/wgt_core/UI_Controller.c **** 
 326:Dsp/widget/wgt_core/UI_Controller.c **** static void UI_GenData_Init(UI_GeneralData_TypeDef *GenData, char *label, int16_t x, int16_t y)
 327:Dsp/widget/wgt_core/UI_Controller.c **** {
 168              		.loc 1 327 1 is_stmt 1 view -0
 169              		.cfi_startproc
 170              		@ args = 0, pretend = 0, frame = 0
 171              		@ frame_needed = 0, uses_anonymous_args = 0
 172              		@ link register save eliminated.
 328:Dsp/widget/wgt_core/UI_Controller.c ****     GenData->label = label;
 173              		.loc 1 328 5 view .LVU38
 174              		.loc 1 328 20 is_stmt 0 view .LVU39
 175 0000 0160     		str	r1, [r0]
 329:Dsp/widget/wgt_core/UI_Controller.c **** 
 330:Dsp/widget/wgt_core/UI_Controller.c ****     GenData->x = x;
ARM GAS  /var/folders/lx/hc4sn_b53233_zkc9xbbl97r0000gp/T//cc4iWlrc.s 			page 10


 176              		.loc 1 330 5 is_stmt 1 view .LVU40
 177              		.loc 1 330 16 is_stmt 0 view .LVU41
 178 0002 8280     		strh	r2, [r0, #4]	@ movhi
 331:Dsp/widget/wgt_core/UI_Controller.c ****     GenData->y = y;
 179              		.loc 1 331 5 is_stmt 1 view .LVU42
 180              		.loc 1 331 16 is_stmt 0 view .LVU43
 181 0004 C380     		strh	r3, [r0, #6]	@ movhi
 332:Dsp/widget/wgt_core/UI_Controller.c **** 
 333:Dsp/widget/wgt_core/UI_Controller.c ****     GenData->operatable = false;
 182              		.loc 1 333 5 is_stmt 1 view .LVU44
 183              		.loc 1 333 25 is_stmt 0 view .LVU45
 184 0006 0023     		movs	r3, #0
 185              	.LVL15:
 186              		.loc 1 333 25 view .LVU46
 187 0008 0372     		strb	r3, [r0, #8]
 334:Dsp/widget/wgt_core/UI_Controller.c **** }
 188              		.loc 1 334 1 view .LVU47
 189 000a 7047     		bx	lr
 190              		.cfi_endproc
 191              	.LFE8:
 193              		.section	.text.UI_Move,"ax",%progbits
 194              		.align	1
 195              		.syntax unified
 196              		.thumb
 197              		.thumb_func
 198              		.fpu fpv4-sp-d16
 200              	UI_Move:
 201              	.LVL16:
 202              	.LFB9:
 335:Dsp/widget/wgt_core/UI_Controller.c **** 
 336:Dsp/widget/wgt_core/UI_Controller.c **** static bool UI_Move(UI_GeneralData_TypeDef *GenUI_Info, int16_t dst_x, int16_t dst_y)
 337:Dsp/widget/wgt_core/UI_Controller.c **** {
 203              		.loc 1 337 1 is_stmt 1 view -0
 204              		.cfi_startproc
 205              		@ args = 0, pretend = 0, frame = 0
 206              		@ frame_needed = 0, uses_anonymous_args = 0
 207              		@ link register save eliminated.
 338:Dsp/widget/wgt_core/UI_Controller.c ****     if (GenUI_Info == NULL)
 208              		.loc 1 338 5 view .LVU49
 209              		.loc 1 338 8 is_stmt 0 view .LVU50
 210 0000 18B1     		cbz	r0, .L19
 339:Dsp/widget/wgt_core/UI_Controller.c ****         return false;
 340:Dsp/widget/wgt_core/UI_Controller.c **** 
 341:Dsp/widget/wgt_core/UI_Controller.c ****     GenUI_Info->x = dst_x;
 211              		.loc 1 341 5 is_stmt 1 view .LVU51
 212              		.loc 1 341 19 is_stmt 0 view .LVU52
 213 0002 8180     		strh	r1, [r0, #4]	@ movhi
 342:Dsp/widget/wgt_core/UI_Controller.c ****     GenUI_Info->y = dst_y;
 214              		.loc 1 342 5 is_stmt 1 view .LVU53
 215              		.loc 1 342 19 is_stmt 0 view .LVU54
 216 0004 C280     		strh	r2, [r0, #6]	@ movhi
 343:Dsp/widget/wgt_core/UI_Controller.c **** 
 344:Dsp/widget/wgt_core/UI_Controller.c ****     return true;
 217              		.loc 1 344 5 is_stmt 1 view .LVU55
 218              		.loc 1 344 12 is_stmt 0 view .LVU56
 219 0006 0120     		movs	r0, #1
 220              	.LVL17:
ARM GAS  /var/folders/lx/hc4sn_b53233_zkc9xbbl97r0000gp/T//cc4iWlrc.s 			page 11


 221              		.loc 1 344 12 view .LVU57
 222 0008 7047     		bx	lr
 223              	.LVL18:
 224              	.L19:
 339:Dsp/widget/wgt_core/UI_Controller.c **** 
 225              		.loc 1 339 16 view .LVU58
 226 000a 0020     		movs	r0, #0
 227              	.LVL19:
 345:Dsp/widget/wgt_core/UI_Controller.c **** }
 228              		.loc 1 345 1 view .LVU59
 229 000c 7047     		bx	lr
 230              		.cfi_endproc
 231              	.LFE9:
 233              		.section	.rodata.UI_Button_Init.str1.4,"aMS",%progbits,1
 234              		.align	2
 235              	.LC0:
 236 0000 79657300 		.ascii	"yes\000"
 237              		.align	2
 238              	.LC1:
 239 0004 6E6F00   		.ascii	"no\000"
 240              		.section	.text.UI_Button_Init,"ax",%progbits
 241              		.align	1
 242              		.syntax unified
 243              		.thumb
 244              		.thumb_func
 245              		.fpu fpv4-sp-d16
 247              	UI_Button_Init:
 248              	.LVL20:
 249              	.LFB10:
 346:Dsp/widget/wgt_core/UI_Controller.c **** 
 347:Dsp/widget/wgt_core/UI_Controller.c **** /********************************************** UI Button Object **********************************
 348:Dsp/widget/wgt_core/UI_Controller.c **** static bool UI_Button_Init(UI_ButtonObj_TypeDef *Obj, char *label, int16_t x, int16_t y, uint8_t wi
 349:Dsp/widget/wgt_core/UI_Controller.c **** {
 250              		.loc 1 349 1 is_stmt 1 view -0
 251              		.cfi_startproc
 252              		@ args = 16, pretend = 0, frame = 0
 253              		@ frame_needed = 0, uses_anonymous_args = 0
 254              		.loc 1 349 1 is_stmt 0 view .LVU61
 255 0000 10B5     		push	{r4, lr}
 256              	.LCFI1:
 257              		.cfi_def_cfa_offset 8
 258              		.cfi_offset 4, -8
 259              		.cfi_offset 14, -4
 260 0002 9DF814C0 		ldrb	ip, [sp, #20]	@ zero_extendqisi2
 350:Dsp/widget/wgt_core/UI_Controller.c ****     if (Obj == NULL)
 261              		.loc 1 350 5 is_stmt 1 view .LVU62
 262              		.loc 1 350 8 is_stmt 0 view .LVU63
 263 0006 C8B1     		cbz	r0, .L22
 264 0008 0446     		mov	r4, r0
 351:Dsp/widget/wgt_core/UI_Controller.c ****         return false;
 352:Dsp/widget/wgt_core/UI_Controller.c **** 
 353:Dsp/widget/wgt_core/UI_Controller.c ****     Obj->default_state = state;
 265              		.loc 1 353 5 is_stmt 1 view .LVU64
 266              		.loc 1 353 24 is_stmt 0 view .LVU65
 267 000a 80F80CC0 		strb	ip, [r0, #12]
 354:Dsp/widget/wgt_core/UI_Controller.c ****     Obj->state = state;
 268              		.loc 1 354 5 is_stmt 1 view .LVU66
ARM GAS  /var/folders/lx/hc4sn_b53233_zkc9xbbl97r0000gp/T//cc4iWlrc.s 			page 12


 269              		.loc 1 354 16 is_stmt 0 view .LVU67
 270 000e 80F80DC0 		strb	ip, [r0, #13]
 355:Dsp/widget/wgt_core/UI_Controller.c ****     Obj->type = type;
 271              		.loc 1 355 5 is_stmt 1 view .LVU68
 272              		.loc 1 355 15 is_stmt 0 view .LVU69
 273 0012 9DF81000 		ldrb	r0, [sp, #16]	@ zero_extendqisi2
 274              	.LVL21:
 275              		.loc 1 355 15 view .LVU70
 276 0016 A073     		strb	r0, [r4, #14]
 356:Dsp/widget/wgt_core/UI_Controller.c **** 
 357:Dsp/widget/wgt_core/UI_Controller.c ****     UI_GenData_Init(&Obj->Gen_Data, label, x, y);
 277              		.loc 1 357 5 is_stmt 1 view .LVU71
 278 0018 2046     		mov	r0, r4
 279 001a FFF7FEFF 		bl	UI_GenData_Init
 280              	.LVL22:
 358:Dsp/widget/wgt_core/UI_Controller.c **** 
 359:Dsp/widget/wgt_core/UI_Controller.c ****     Obj->width = width;
 281              		.loc 1 359 5 view .LVU72
 282              		.loc 1 359 16 is_stmt 0 view .LVU73
 283 001e 9DF80830 		ldrb	r3, [sp, #8]	@ zero_extendqisi2
 284 0022 E377     		strb	r3, [r4, #31]
 360:Dsp/widget/wgt_core/UI_Controller.c ****     Obj->height = height;
 285              		.loc 1 360 5 is_stmt 1 view .LVU74
 286              		.loc 1 360 17 is_stmt 0 view .LVU75
 287 0024 9DF80C30 		ldrb	r3, [sp, #12]	@ zero_extendqisi2
 288 0028 84F82030 		strb	r3, [r4, #32]
 361:Dsp/widget/wgt_core/UI_Controller.c **** 
 362:Dsp/widget/wgt_core/UI_Controller.c ****     Obj->PushDown_Label = DEFAULT_BUTTON_PUSH_LABEL;
 289              		.loc 1 362 5 is_stmt 1 view .LVU76
 290              		.loc 1 362 25 is_stmt 0 view .LVU77
 291 002c 044B     		ldr	r3, .L24
 292 002e C4F81730 		str	r3, [r4, #23]	@ unaligned
 363:Dsp/widget/wgt_core/UI_Controller.c ****     Obj->Release_Label = DEFAULT_BUTTON_RELEASE_LABEL;
 293              		.loc 1 363 5 is_stmt 1 view .LVU78
 294              		.loc 1 363 24 is_stmt 0 view .LVU79
 295 0032 044B     		ldr	r3, .L24+4
 296 0034 C4F81B30 		str	r3, [r4, #27]	@ unaligned
 364:Dsp/widget/wgt_core/UI_Controller.c **** 
 365:Dsp/widget/wgt_core/UI_Controller.c ****     return true;
 297              		.loc 1 365 5 is_stmt 1 view .LVU80
 298              		.loc 1 365 12 is_stmt 0 view .LVU81
 299 0038 0120     		movs	r0, #1
 300              	.LVL23:
 301              	.L21:
 366:Dsp/widget/wgt_core/UI_Controller.c **** }
 302              		.loc 1 366 1 view .LVU82
 303 003a 10BD     		pop	{r4, pc}
 304              	.LVL24:
 305              	.L22:
 351:Dsp/widget/wgt_core/UI_Controller.c **** 
 306              		.loc 1 351 16 view .LVU83
 307 003c 0020     		movs	r0, #0
 308              	.LVL25:
 351:Dsp/widget/wgt_core/UI_Controller.c **** 
 309              		.loc 1 351 16 view .LVU84
 310 003e FCE7     		b	.L21
 311              	.L25:
ARM GAS  /var/folders/lx/hc4sn_b53233_zkc9xbbl97r0000gp/T//cc4iWlrc.s 			page 13


 312              		.align	2
 313              	.L24:
 314 0040 00000000 		.word	.LC0
 315 0044 04000000 		.word	.LC1
 316              		.cfi_endproc
 317              	.LFE10:
 319              		.section	.text.UI_Button_Set_Label,"ax",%progbits
 320              		.align	1
 321              		.syntax unified
 322              		.thumb
 323              		.thumb_func
 324              		.fpu fpv4-sp-d16
 326              	UI_Button_Set_Label:
 327              	.LVL26:
 328              	.LFB11:
 367:Dsp/widget/wgt_core/UI_Controller.c **** 
 368:Dsp/widget/wgt_core/UI_Controller.c **** static bool UI_Button_Set_Label(UI_ButtonObj_TypeDef *Obj, UI_Button_State_List state, char *label)
 369:Dsp/widget/wgt_core/UI_Controller.c **** {
 329              		.loc 1 369 1 is_stmt 1 view -0
 330              		.cfi_startproc
 331              		@ args = 0, pretend = 0, frame = 0
 332              		@ frame_needed = 0, uses_anonymous_args = 0
 333              		@ link register save eliminated.
 370:Dsp/widget/wgt_core/UI_Controller.c ****     if (Obj == NULL)
 334              		.loc 1 370 5 view .LVU86
 335              		.loc 1 370 8 is_stmt 0 view .LVU87
 336 0000 48B1     		cbz	r0, .L29
 371:Dsp/widget/wgt_core/UI_Controller.c ****         return false;
 372:Dsp/widget/wgt_core/UI_Controller.c **** 
 373:Dsp/widget/wgt_core/UI_Controller.c ****     if (state == UI_Btn_PushDwn)
 337              		.loc 1 373 5 is_stmt 1 view .LVU88
 338              		.loc 1 373 8 is_stmt 0 view .LVU89
 339 0002 0129     		cmp	r1, #1
 340 0004 03D0     		beq	.L30
 374:Dsp/widget/wgt_core/UI_Controller.c ****         Obj->PushDown_Label = label;
 375:Dsp/widget/wgt_core/UI_Controller.c ****     else
 376:Dsp/widget/wgt_core/UI_Controller.c ****         Obj->Release_Label = label;
 341              		.loc 1 376 9 is_stmt 1 view .LVU90
 342              		.loc 1 376 28 is_stmt 0 view .LVU91
 343 0006 C0F81B20 		str	r2, [r0, #27]	@ unaligned
 377:Dsp/widget/wgt_core/UI_Controller.c **** 
 378:Dsp/widget/wgt_core/UI_Controller.c ****     return true;
 344              		.loc 1 378 12 view .LVU92
 345 000a 0120     		movs	r0, #1
 346              	.LVL27:
 347              		.loc 1 378 12 view .LVU93
 348 000c 7047     		bx	lr
 349              	.LVL28:
 350              	.L30:
 374:Dsp/widget/wgt_core/UI_Controller.c ****         Obj->PushDown_Label = label;
 351              		.loc 1 374 9 is_stmt 1 view .LVU94
 374:Dsp/widget/wgt_core/UI_Controller.c ****         Obj->PushDown_Label = label;
 352              		.loc 1 374 29 is_stmt 0 view .LVU95
 353 000e C0F81720 		str	r2, [r0, #23]	@ unaligned
 354              		.loc 1 378 12 view .LVU96
 355 0012 0120     		movs	r0, #1
 356              	.LVL29:
ARM GAS  /var/folders/lx/hc4sn_b53233_zkc9xbbl97r0000gp/T//cc4iWlrc.s 			page 14


 357              		.loc 1 378 12 view .LVU97
 358 0014 7047     		bx	lr
 359              	.LVL30:
 360              	.L29:
 371:Dsp/widget/wgt_core/UI_Controller.c **** 
 361              		.loc 1 371 16 view .LVU98
 362 0016 0020     		movs	r0, #0
 363              	.LVL31:
 379:Dsp/widget/wgt_core/UI_Controller.c **** }
 364              		.loc 1 379 1 view .LVU99
 365 0018 7047     		bx	lr
 366              		.cfi_endproc
 367              	.LFE11:
 369              		.section	.text.UI_Button_Set_TriggerCallback,"ax",%progbits
 370              		.align	1
 371              		.syntax unified
 372              		.thumb
 373              		.thumb_func
 374              		.fpu fpv4-sp-d16
 376              	UI_Button_Set_TriggerCallback:
 377              	.LVL32:
 378              	.LFB12:
 380:Dsp/widget/wgt_core/UI_Controller.c **** 
 381:Dsp/widget/wgt_core/UI_Controller.c **** static bool UI_Button_Set_TriggerCallback(UI_ButtonObj_TypeDef *Obj, UI_Button_Trigger_Type type, U
 382:Dsp/widget/wgt_core/UI_Controller.c **** {
 379              		.loc 1 382 1 is_stmt 1 view -0
 380              		.cfi_startproc
 381              		@ args = 0, pretend = 0, frame = 0
 382              		@ frame_needed = 0, uses_anonymous_args = 0
 383              		@ link register save eliminated.
 383:Dsp/widget/wgt_core/UI_Controller.c ****     if (Obj == NULL)
 384              		.loc 1 383 5 view .LVU101
 385              		.loc 1 383 8 is_stmt 0 view .LVU102
 386 0000 50B1     		cbz	r0, .L34
 384:Dsp/widget/wgt_core/UI_Controller.c ****         return false;
 385:Dsp/widget/wgt_core/UI_Controller.c **** 
 386:Dsp/widget/wgt_core/UI_Controller.c ****     if (type == Push_Trigger)
 387              		.loc 1 386 5 is_stmt 1 view .LVU103
 388              		.loc 1 386 8 is_stmt 0 view .LVU104
 389 0002 0129     		cmp	r1, #1
 390 0004 04D0     		beq	.L36
 387:Dsp/widget/wgt_core/UI_Controller.c ****     {
 388:Dsp/widget/wgt_core/UI_Controller.c ****         Obj->push_callback = callback;
 389:Dsp/widget/wgt_core/UI_Controller.c ****     }
 390:Dsp/widget/wgt_core/UI_Controller.c ****     else if (type == Release_Trigger)
 391              		.loc 1 390 10 is_stmt 1 view .LVU105
 392              		.loc 1 390 13 is_stmt 0 view .LVU106
 393 0006 49B9     		cbnz	r1, .L35
 391:Dsp/widget/wgt_core/UI_Controller.c ****     {
 392:Dsp/widget/wgt_core/UI_Controller.c ****         Obj->release_callback = callback;
 394              		.loc 1 392 9 is_stmt 1 view .LVU107
 395              		.loc 1 392 31 is_stmt 0 view .LVU108
 396 0008 C0F81320 		str	r2, [r0, #19]	@ unaligned
 393:Dsp/widget/wgt_core/UI_Controller.c ****     }
 394:Dsp/widget/wgt_core/UI_Controller.c ****     else
 395:Dsp/widget/wgt_core/UI_Controller.c ****         return false;
 396:Dsp/widget/wgt_core/UI_Controller.c **** 
ARM GAS  /var/folders/lx/hc4sn_b53233_zkc9xbbl97r0000gp/T//cc4iWlrc.s 			page 15


 397:Dsp/widget/wgt_core/UI_Controller.c ****     return true;
 397              		.loc 1 397 12 view .LVU109
 398 000c 0120     		movs	r0, #1
 399              	.LVL33:
 400              		.loc 1 397 12 view .LVU110
 401 000e 7047     		bx	lr
 402              	.LVL34:
 403              	.L36:
 388:Dsp/widget/wgt_core/UI_Controller.c ****     }
 404              		.loc 1 388 9 is_stmt 1 view .LVU111
 388:Dsp/widget/wgt_core/UI_Controller.c ****     }
 405              		.loc 1 388 28 is_stmt 0 view .LVU112
 406 0010 C0F80F20 		str	r2, [r0, #15]	@ unaligned
 407              		.loc 1 397 12 view .LVU113
 408 0014 0120     		movs	r0, #1
 409              	.LVL35:
 410              		.loc 1 397 12 view .LVU114
 411 0016 7047     		bx	lr
 412              	.LVL36:
 413              	.L34:
 384:Dsp/widget/wgt_core/UI_Controller.c **** 
 414              		.loc 1 384 16 view .LVU115
 415 0018 0020     		movs	r0, #0
 416              	.LVL37:
 384:Dsp/widget/wgt_core/UI_Controller.c **** 
 417              		.loc 1 384 16 view .LVU116
 418 001a 7047     		bx	lr
 419              	.LVL38:
 420              	.L35:
 395:Dsp/widget/wgt_core/UI_Controller.c **** 
 421              		.loc 1 395 16 view .LVU117
 422 001c 0020     		movs	r0, #0
 423              	.LVL39:
 398:Dsp/widget/wgt_core/UI_Controller.c **** }
 424              		.loc 1 398 1 view .LVU118
 425 001e 7047     		bx	lr
 426              		.cfi_endproc
 427              	.LFE12:
 429              		.section	.text.UI_Button_Push,"ax",%progbits
 430              		.align	1
 431              		.syntax unified
 432              		.thumb
 433              		.thumb_func
 434              		.fpu fpv4-sp-d16
 436              	UI_Button_Push:
 437              	.LVL40:
 438              	.LFB13:
 399:Dsp/widget/wgt_core/UI_Controller.c **** 
 400:Dsp/widget/wgt_core/UI_Controller.c **** static bool UI_Button_Push(UI_ButtonObj_TypeDef *Obj)
 401:Dsp/widget/wgt_core/UI_Controller.c **** {
 439              		.loc 1 401 1 is_stmt 1 view -0
 440              		.cfi_startproc
 441              		@ args = 0, pretend = 0, frame = 0
 442              		@ frame_needed = 0, uses_anonymous_args = 0
 402:Dsp/widget/wgt_core/UI_Controller.c ****     if (Obj == NULL)
 443              		.loc 1 402 5 view .LVU120
 444              		.loc 1 402 8 is_stmt 0 view .LVU121
ARM GAS  /var/folders/lx/hc4sn_b53233_zkc9xbbl97r0000gp/T//cc4iWlrc.s 			page 16


 445 0000 F0B1     		cbz	r0, .L41
 401:Dsp/widget/wgt_core/UI_Controller.c ****     if (Obj == NULL)
 446              		.loc 1 401 1 view .LVU122
 447 0002 08B5     		push	{r3, lr}
 448              	.LCFI2:
 449              		.cfi_def_cfa_offset 8
 450              		.cfi_offset 3, -8
 451              		.cfi_offset 14, -4
 452 0004 0346     		mov	r3, r0
 403:Dsp/widget/wgt_core/UI_Controller.c ****         return false;
 404:Dsp/widget/wgt_core/UI_Controller.c **** 
 405:Dsp/widget/wgt_core/UI_Controller.c ****     if (Obj->type == Lock_Btn)
 453              		.loc 1 405 5 is_stmt 1 view .LVU123
 454              		.loc 1 405 12 is_stmt 0 view .LVU124
 455 0006 827B     		ldrb	r2, [r0, #14]	@ zero_extendqisi2
 456              		.loc 1 405 8 view .LVU125
 457 0008 012A     		cmp	r2, #1
 458 000a 06D0     		beq	.L49
 406:Dsp/widget/wgt_core/UI_Controller.c ****     {
 407:Dsp/widget/wgt_core/UI_Controller.c ****         if (Obj->state == UI_Btn_RlsUp)
 408:Dsp/widget/wgt_core/UI_Controller.c ****             Obj->state = UI_Btn_PushDwn;
 409:Dsp/widget/wgt_core/UI_Controller.c ****         else
 410:Dsp/widget/wgt_core/UI_Controller.c ****             Obj->state = UI_Btn_RlsUp;
 411:Dsp/widget/wgt_core/UI_Controller.c ****     }
 412:Dsp/widget/wgt_core/UI_Controller.c ****     else if (Obj->type == Reset_Btn)
 459              		.loc 1 412 10 is_stmt 1 view .LVU126
 460              		.loc 1 412 13 is_stmt 0 view .LVU127
 461 000c D2B9     		cbnz	r2, .L42
 413:Dsp/widget/wgt_core/UI_Controller.c ****     {
 414:Dsp/widget/wgt_core/UI_Controller.c ****         if (Obj->default_state == Obj->state)
 462              		.loc 1 414 9 is_stmt 1 view .LVU128
 463              		.loc 1 414 16 is_stmt 0 view .LVU129
 464 000e 027B     		ldrb	r2, [r0, #12]	@ zero_extendqisi2
 465              		.loc 1 414 38 view .LVU130
 466 0010 417B     		ldrb	r1, [r0, #13]	@ zero_extendqisi2
 467              		.loc 1 414 12 view .LVU131
 468 0012 8A42     		cmp	r2, r1
 469 0014 0AD0     		beq	.L50
 415:Dsp/widget/wgt_core/UI_Controller.c ****         {
 416:Dsp/widget/wgt_core/UI_Controller.c ****             Obj->state = !Obj->default_state;
 417:Dsp/widget/wgt_core/UI_Controller.c **** 
 418:Dsp/widget/wgt_core/UI_Controller.c ****             if (Obj->push_callback != NULL)
 419:Dsp/widget/wgt_core/UI_Controller.c ****                 Obj->push_callback();
 420:Dsp/widget/wgt_core/UI_Controller.c ****         }
 421:Dsp/widget/wgt_core/UI_Controller.c ****     }
 422:Dsp/widget/wgt_core/UI_Controller.c ****     else
 423:Dsp/widget/wgt_core/UI_Controller.c ****         return false;
 424:Dsp/widget/wgt_core/UI_Controller.c **** 
 425:Dsp/widget/wgt_core/UI_Controller.c ****     return true;
 470              		.loc 1 425 12 view .LVU132
 471 0016 0120     		movs	r0, #1
 472              	.LVL41:
 473              	.L38:
 426:Dsp/widget/wgt_core/UI_Controller.c **** }
 474              		.loc 1 426 1 view .LVU133
 475 0018 08BD     		pop	{r3, pc}
 476              	.LVL42:
ARM GAS  /var/folders/lx/hc4sn_b53233_zkc9xbbl97r0000gp/T//cc4iWlrc.s 			page 17


 477              	.L49:
 407:Dsp/widget/wgt_core/UI_Controller.c ****             Obj->state = UI_Btn_PushDwn;
 478              		.loc 1 407 9 is_stmt 1 view .LVU134
 407:Dsp/widget/wgt_core/UI_Controller.c ****             Obj->state = UI_Btn_PushDwn;
 479              		.loc 1 407 16 is_stmt 0 view .LVU135
 480 001a 427B     		ldrb	r2, [r0, #13]	@ zero_extendqisi2
 407:Dsp/widget/wgt_core/UI_Controller.c ****             Obj->state = UI_Btn_PushDwn;
 481              		.loc 1 407 12 view .LVU136
 482 001c 12B9     		cbnz	r2, .L40
 408:Dsp/widget/wgt_core/UI_Controller.c ****         else
 483              		.loc 1 408 13 is_stmt 1 view .LVU137
 408:Dsp/widget/wgt_core/UI_Controller.c ****         else
 484              		.loc 1 408 24 is_stmt 0 view .LVU138
 485 001e 0120     		movs	r0, #1
 486              	.LVL43:
 408:Dsp/widget/wgt_core/UI_Controller.c ****         else
 487              		.loc 1 408 24 view .LVU139
 488 0020 5873     		strb	r0, [r3, #13]
 489 0022 F9E7     		b	.L38
 490              	.LVL44:
 491              	.L40:
 410:Dsp/widget/wgt_core/UI_Controller.c ****     }
 492              		.loc 1 410 13 is_stmt 1 view .LVU140
 410:Dsp/widget/wgt_core/UI_Controller.c ****     }
 493              		.loc 1 410 24 is_stmt 0 view .LVU141
 494 0024 0022     		movs	r2, #0
 495 0026 4273     		strb	r2, [r0, #13]
 425:Dsp/widget/wgt_core/UI_Controller.c **** }
 496              		.loc 1 425 12 view .LVU142
 497 0028 0120     		movs	r0, #1
 498              	.LVL45:
 425:Dsp/widget/wgt_core/UI_Controller.c **** }
 499              		.loc 1 425 12 view .LVU143
 500 002a F5E7     		b	.L38
 501              	.LVL46:
 502              	.L50:
 416:Dsp/widget/wgt_core/UI_Controller.c **** 
 503              		.loc 1 416 13 is_stmt 1 view .LVU144
 416:Dsp/widget/wgt_core/UI_Controller.c **** 
 504              		.loc 1 416 26 is_stmt 0 view .LVU145
 505 002c B2FA82F2 		clz	r2, r2
 506 0030 5209     		lsrs	r2, r2, #5
 416:Dsp/widget/wgt_core/UI_Controller.c **** 
 507              		.loc 1 416 24 view .LVU146
 508 0032 4273     		strb	r2, [r0, #13]
 418:Dsp/widget/wgt_core/UI_Controller.c ****                 Obj->push_callback();
 509              		.loc 1 418 13 is_stmt 1 view .LVU147
 418:Dsp/widget/wgt_core/UI_Controller.c ****                 Obj->push_callback();
 510              		.loc 1 418 20 is_stmt 0 view .LVU148
 511 0034 D0F80F30 		ldr	r3, [r0, #15]	@ unaligned
 418:Dsp/widget/wgt_core/UI_Controller.c ****                 Obj->push_callback();
 512              		.loc 1 418 16 view .LVU149
 513 0038 33B1     		cbz	r3, .L44
 419:Dsp/widget/wgt_core/UI_Controller.c ****         }
 514              		.loc 1 419 17 is_stmt 1 view .LVU150
 515 003a 9847     		blx	r3
 516              	.LVL47:
ARM GAS  /var/folders/lx/hc4sn_b53233_zkc9xbbl97r0000gp/T//cc4iWlrc.s 			page 18


 425:Dsp/widget/wgt_core/UI_Controller.c **** }
 517              		.loc 1 425 12 is_stmt 0 view .LVU151
 518 003c 0120     		movs	r0, #1
 519 003e EBE7     		b	.L38
 520              	.LVL48:
 521              	.L41:
 522              	.LCFI3:
 523              		.cfi_def_cfa_offset 0
 524              		.cfi_restore 3
 525              		.cfi_restore 14
 403:Dsp/widget/wgt_core/UI_Controller.c **** 
 526              		.loc 1 403 16 view .LVU152
 527 0040 0020     		movs	r0, #0
 528              	.LVL49:
 529              		.loc 1 426 1 view .LVU153
 530 0042 7047     		bx	lr
 531              	.LVL50:
 532              	.L42:
 533              	.LCFI4:
 534              		.cfi_def_cfa_offset 8
 535              		.cfi_offset 3, -8
 536              		.cfi_offset 14, -4
 423:Dsp/widget/wgt_core/UI_Controller.c **** 
 537              		.loc 1 423 16 view .LVU154
 538 0044 0020     		movs	r0, #0
 539              	.LVL51:
 423:Dsp/widget/wgt_core/UI_Controller.c **** 
 540              		.loc 1 423 16 view .LVU155
 541 0046 E7E7     		b	.L38
 542              	.LVL52:
 543              	.L44:
 425:Dsp/widget/wgt_core/UI_Controller.c **** }
 544              		.loc 1 425 12 view .LVU156
 545 0048 0120     		movs	r0, #1
 546              	.LVL53:
 425:Dsp/widget/wgt_core/UI_Controller.c **** }
 547              		.loc 1 425 12 view .LVU157
 548 004a E5E7     		b	.L38
 549              		.cfi_endproc
 550              	.LFE13:
 552              		.section	.text.UI_Button_Release,"ax",%progbits
 553              		.align	1
 554              		.syntax unified
 555              		.thumb
 556              		.thumb_func
 557              		.fpu fpv4-sp-d16
 559              	UI_Button_Release:
 560              	.LVL54:
 561              	.LFB14:
 427:Dsp/widget/wgt_core/UI_Controller.c **** 
 428:Dsp/widget/wgt_core/UI_Controller.c **** static bool UI_Button_Release(UI_ButtonObj_TypeDef *Obj)
 429:Dsp/widget/wgt_core/UI_Controller.c **** {
 562              		.loc 1 429 1 is_stmt 1 view -0
 563              		.cfi_startproc
 564              		@ args = 0, pretend = 0, frame = 0
 565              		@ frame_needed = 0, uses_anonymous_args = 0
 430:Dsp/widget/wgt_core/UI_Controller.c ****     if (Obj == NULL)
ARM GAS  /var/folders/lx/hc4sn_b53233_zkc9xbbl97r0000gp/T//cc4iWlrc.s 			page 19


 566              		.loc 1 430 5 view .LVU159
 567              		.loc 1 430 8 is_stmt 0 view .LVU160
 568 0000 70B1     		cbz	r0, .L53
 429:Dsp/widget/wgt_core/UI_Controller.c ****     if (Obj == NULL)
 569              		.loc 1 429 1 view .LVU161
 570 0002 08B5     		push	{r3, lr}
 571              	.LCFI5:
 572              		.cfi_def_cfa_offset 8
 573              		.cfi_offset 3, -8
 574              		.cfi_offset 14, -4
 431:Dsp/widget/wgt_core/UI_Controller.c ****         return false;
 432:Dsp/widget/wgt_core/UI_Controller.c **** 
 433:Dsp/widget/wgt_core/UI_Controller.c ****     if (Obj->type == Lock_Btn)
 575              		.loc 1 433 5 is_stmt 1 view .LVU162
 576              		.loc 1 433 12 is_stmt 0 view .LVU163
 577 0004 827B     		ldrb	r2, [r0, #14]	@ zero_extendqisi2
 578              		.loc 1 433 8 view .LVU164
 579 0006 012A     		cmp	r2, #1
 580 0008 0CD0     		beq	.L54
 434:Dsp/widget/wgt_core/UI_Controller.c ****         return true;
 435:Dsp/widget/wgt_core/UI_Controller.c **** 
 436:Dsp/widget/wgt_core/UI_Controller.c ****     if (Obj->default_state != Obj->state)
 581              		.loc 1 436 5 is_stmt 1 view .LVU165
 582              		.loc 1 436 12 is_stmt 0 view .LVU166
 583 000a 027B     		ldrb	r2, [r0, #12]	@ zero_extendqisi2
 584              		.loc 1 436 34 view .LVU167
 585 000c 417B     		ldrb	r1, [r0, #13]	@ zero_extendqisi2
 586              		.loc 1 436 8 view .LVU168
 587 000e 8A42     		cmp	r2, r1
 588 0010 0AD0     		beq	.L55
 437:Dsp/widget/wgt_core/UI_Controller.c ****     {
 438:Dsp/widget/wgt_core/UI_Controller.c ****         Obj->state = Obj->default_state;
 589              		.loc 1 438 9 is_stmt 1 view .LVU169
 590              		.loc 1 438 20 is_stmt 0 view .LVU170
 591 0012 4273     		strb	r2, [r0, #13]
 439:Dsp/widget/wgt_core/UI_Controller.c **** 
 440:Dsp/widget/wgt_core/UI_Controller.c ****         if (Obj->release_callback != NULL)
 592              		.loc 1 440 9 is_stmt 1 view .LVU171
 593              		.loc 1 440 16 is_stmt 0 view .LVU172
 594 0014 D0F81330 		ldr	r3, [r0, #19]	@ unaligned
 595              		.loc 1 440 12 view .LVU173
 596 0018 43B1     		cbz	r3, .L56
 441:Dsp/widget/wgt_core/UI_Controller.c ****             Obj->release_callback();
 597              		.loc 1 441 13 is_stmt 1 view .LVU174
 598 001a 9847     		blx	r3
 599              	.LVL55:
 442:Dsp/widget/wgt_core/UI_Controller.c ****     }
 443:Dsp/widget/wgt_core/UI_Controller.c **** 
 444:Dsp/widget/wgt_core/UI_Controller.c ****     return true;
 600              		.loc 1 444 12 is_stmt 0 view .LVU175
 601 001c 0120     		movs	r0, #1
 602              	.L52:
 445:Dsp/widget/wgt_core/UI_Controller.c **** }
 603              		.loc 1 445 1 view .LVU176
 604 001e 08BD     		pop	{r3, pc}
 605              	.LVL56:
 606              	.L53:
ARM GAS  /var/folders/lx/hc4sn_b53233_zkc9xbbl97r0000gp/T//cc4iWlrc.s 			page 20


 607              	.LCFI6:
 608              		.cfi_def_cfa_offset 0
 609              		.cfi_restore 3
 610              		.cfi_restore 14
 431:Dsp/widget/wgt_core/UI_Controller.c **** 
 611              		.loc 1 431 16 view .LVU177
 612 0020 0020     		movs	r0, #0
 613              	.LVL57:
 614              		.loc 1 445 1 view .LVU178
 615 0022 7047     		bx	lr
 616              	.LVL58:
 617              	.L54:
 618              	.LCFI7:
 619              		.cfi_def_cfa_offset 8
 620              		.cfi_offset 3, -8
 621              		.cfi_offset 14, -4
 434:Dsp/widget/wgt_core/UI_Controller.c **** 
 622              		.loc 1 434 16 view .LVU179
 623 0024 0120     		movs	r0, #1
 624              	.LVL59:
 434:Dsp/widget/wgt_core/UI_Controller.c **** 
 625              		.loc 1 434 16 view .LVU180
 626 0026 FAE7     		b	.L52
 627              	.LVL60:
 628              	.L55:
 444:Dsp/widget/wgt_core/UI_Controller.c **** }
 629              		.loc 1 444 12 view .LVU181
 630 0028 0120     		movs	r0, #1
 631              	.LVL61:
 444:Dsp/widget/wgt_core/UI_Controller.c **** }
 632              		.loc 1 444 12 view .LVU182
 633 002a F8E7     		b	.L52
 634              	.LVL62:
 635              	.L56:
 444:Dsp/widget/wgt_core/UI_Controller.c **** }
 636              		.loc 1 444 12 view .LVU183
 637 002c 0120     		movs	r0, #1
 638              	.LVL63:
 444:Dsp/widget/wgt_core/UI_Controller.c **** }
 639              		.loc 1 444 12 view .LVU184
 640 002e F6E7     		b	.L52
 641              		.cfi_endproc
 642              	.LFE14:
 644              		.section	.text.UI_Button_Move,"ax",%progbits
 645              		.align	1
 646              		.syntax unified
 647              		.thumb
 648              		.thumb_func
 649              		.fpu fpv4-sp-d16
 651              	UI_Button_Move:
 652              	.LVL64:
 653              	.LFB15:
 446:Dsp/widget/wgt_core/UI_Controller.c **** 
 447:Dsp/widget/wgt_core/UI_Controller.c **** static bool UI_Button_Move(UI_ButtonObj_TypeDef *Obj, uint16_t x, uint16_t y)
 448:Dsp/widget/wgt_core/UI_Controller.c **** {
 654              		.loc 1 448 1 is_stmt 1 view -0
 655              		.cfi_startproc
ARM GAS  /var/folders/lx/hc4sn_b53233_zkc9xbbl97r0000gp/T//cc4iWlrc.s 			page 21


 656              		@ args = 0, pretend = 0, frame = 0
 657              		@ frame_needed = 0, uses_anonymous_args = 0
 449:Dsp/widget/wgt_core/UI_Controller.c ****     if (Obj == NULL)
 658              		.loc 1 449 5 view .LVU186
 659              		.loc 1 449 8 is_stmt 0 view .LVU187
 660 0000 28B1     		cbz	r0, .L63
 448:Dsp/widget/wgt_core/UI_Controller.c ****     if (Obj == NULL)
 661              		.loc 1 448 1 view .LVU188
 662 0002 08B5     		push	{r3, lr}
 663              	.LCFI8:
 664              		.cfi_def_cfa_offset 8
 665              		.cfi_offset 3, -8
 666              		.cfi_offset 14, -4
 450:Dsp/widget/wgt_core/UI_Controller.c ****         return false;
 451:Dsp/widget/wgt_core/UI_Controller.c **** 
 452:Dsp/widget/wgt_core/UI_Controller.c ****     return UI_Move(&(Obj->Gen_Data), x, y);
 667              		.loc 1 452 5 is_stmt 1 view .LVU189
 668              		.loc 1 452 12 is_stmt 0 view .LVU190
 669 0004 12B2     		sxth	r2, r2
 670              		.loc 1 452 12 view .LVU191
 671 0006 09B2     		sxth	r1, r1
 672              		.loc 1 452 12 view .LVU192
 673 0008 FFF7FEFF 		bl	UI_Move
 674              	.LVL65:
 453:Dsp/widget/wgt_core/UI_Controller.c **** }
 675              		.loc 1 453 1 view .LVU193
 676 000c 08BD     		pop	{r3, pc}
 677              	.LVL66:
 678              	.L63:
 679              	.LCFI9:
 680              		.cfi_def_cfa_offset 0
 681              		.cfi_restore 3
 682              		.cfi_restore 14
 450:Dsp/widget/wgt_core/UI_Controller.c ****         return false;
 683              		.loc 1 450 16 view .LVU194
 684 000e 0020     		movs	r0, #0
 685              	.LVL67:
 686              		.loc 1 453 1 view .LVU195
 687 0010 7047     		bx	lr
 688              		.cfi_endproc
 689              	.LFE15:
 691              		.section	.text.UI_Button_Ctl,"ax",%progbits
 692              		.align	1
 693              		.syntax unified
 694              		.thumb
 695              		.thumb_func
 696              		.fpu fpv4-sp-d16
 698              	UI_Button_Ctl:
 699              	.LVL68:
 700              	.LFB16:
 454:Dsp/widget/wgt_core/UI_Controller.c **** 
 455:Dsp/widget/wgt_core/UI_Controller.c **** static bool UI_Button_Ctl(UI_ButtonObj_TypeDef *Obj)
 456:Dsp/widget/wgt_core/UI_Controller.c **** {
 701              		.loc 1 456 1 is_stmt 1 view -0
 702              		.cfi_startproc
 703              		@ args = 0, pretend = 0, frame = 0
 704              		@ frame_needed = 0, uses_anonymous_args = 0
ARM GAS  /var/folders/lx/hc4sn_b53233_zkc9xbbl97r0000gp/T//cc4iWlrc.s 			page 22


 457:Dsp/widget/wgt_core/UI_Controller.c ****     if (Obj == NULL)
 705              		.loc 1 457 5 view .LVU197
 706              		.loc 1 457 8 is_stmt 0 view .LVU198
 707 0000 0028     		cmp	r0, #0
 708 0002 73D0     		beq	.L74
 456:Dsp/widget/wgt_core/UI_Controller.c ****     if (Obj == NULL)
 709              		.loc 1 456 1 view .LVU199
 710 0004 70B5     		push	{r4, r5, r6, lr}
 711              	.LCFI10:
 712              		.cfi_def_cfa_offset 16
 713              		.cfi_offset 4, -16
 714              		.cfi_offset 5, -12
 715              		.cfi_offset 6, -8
 716              		.cfi_offset 14, -4
 717 0006 84B0     		sub	sp, sp, #16
 718              	.LCFI11:
 719              		.cfi_def_cfa_offset 32
 720 0008 0446     		mov	r4, r0
 458:Dsp/widget/wgt_core/UI_Controller.c ****         return false;
 459:Dsp/widget/wgt_core/UI_Controller.c **** 
 460:Dsp/widget/wgt_core/UI_Controller.c ****     if (Obj->type == Lock_Btn)
 721              		.loc 1 460 5 is_stmt 1 view .LVU200
 722              		.loc 1 460 12 is_stmt 0 view .LVU201
 723 000a 837B     		ldrb	r3, [r0, #14]	@ zero_extendqisi2
 724              		.loc 1 460 8 view .LVU202
 725 000c 012B     		cmp	r3, #1
 726 000e 2FD0     		beq	.L86
 727              	.LVL69:
 728              	.L70:
 461:Dsp/widget/wgt_core/UI_Controller.c ****     {
 462:Dsp/widget/wgt_core/UI_Controller.c ****         if (Obj->state == UI_Btn_PushDwn)
 463:Dsp/widget/wgt_core/UI_Controller.c ****         {
 464:Dsp/widget/wgt_core/UI_Controller.c ****             if (Obj->push_callback)
 465:Dsp/widget/wgt_core/UI_Controller.c ****                 Obj->push_callback();
 466:Dsp/widget/wgt_core/UI_Controller.c ****         }
 467:Dsp/widget/wgt_core/UI_Controller.c ****         else if (Obj->state == UI_Btn_RlsUp)
 468:Dsp/widget/wgt_core/UI_Controller.c ****         {
 469:Dsp/widget/wgt_core/UI_Controller.c ****             if (Obj->release_callback)
 470:Dsp/widget/wgt_core/UI_Controller.c ****                 Obj->release_callback();
 471:Dsp/widget/wgt_core/UI_Controller.c ****         }
 472:Dsp/widget/wgt_core/UI_Controller.c ****         else
 473:Dsp/widget/wgt_core/UI_Controller.c ****             return false;
 474:Dsp/widget/wgt_core/UI_Controller.c ****     }
 475:Dsp/widget/wgt_core/UI_Controller.c **** 
 476:Dsp/widget/wgt_core/UI_Controller.c ****     /* display button on screen object */
 477:Dsp/widget/wgt_core/UI_Controller.c ****     /* invert display color when button been push down */
 478:Dsp/widget/wgt_core/UI_Controller.c ****     if ((UI_DspInterface.draw_str != NULL) && (UI_DspInterface.fill_radius_rectangle != NULL) && (U
 729              		.loc 1 478 5 is_stmt 1 view .LVU203
 730              		.loc 1 478 25 is_stmt 0 view .LVU204
 731 0010 3F4B     		ldr	r3, .L90
 732 0012 1B68     		ldr	r3, [r3]
 733              		.loc 1 478 8 view .LVU205
 734 0014 002B     		cmp	r3, #0
 735 0016 6DD0     		beq	.L76
 736              		.loc 1 478 63 discriminator 1 view .LVU206
 737 0018 3D4B     		ldr	r3, .L90
 738 001a 1D6B     		ldr	r5, [r3, #48]
ARM GAS  /var/folders/lx/hc4sn_b53233_zkc9xbbl97r0000gp/T//cc4iWlrc.s 			page 23


 739              		.loc 1 478 44 discriminator 1 view .LVU207
 740 001c 002D     		cmp	r5, #0
 741 001e 6CD0     		beq	.L77
 742              		.loc 1 478 114 discriminator 2 view .LVU208
 743 0020 5E69     		ldr	r6, [r3, #20]
 744              		.loc 1 478 95 discriminator 2 view .LVU209
 745 0022 002E     		cmp	r6, #0
 746 0024 6BD0     		beq	.L78
 479:Dsp/widget/wgt_core/UI_Controller.c ****     {
 480:Dsp/widget/wgt_core/UI_Controller.c ****         if (Obj->state == UI_Btn_PushDwn)
 747              		.loc 1 480 9 is_stmt 1 view .LVU210
 748              		.loc 1 480 16 is_stmt 0 view .LVU211
 749 0026 637B     		ldrb	r3, [r4, #13]	@ zero_extendqisi2
 750              		.loc 1 480 12 view .LVU212
 751 0028 012B     		cmp	r3, #1
 752 002a 32D0     		beq	.L87
 481:Dsp/widget/wgt_core/UI_Controller.c ****         {
 482:Dsp/widget/wgt_core/UI_Controller.c ****             /* fill button frame */
 483:Dsp/widget/wgt_core/UI_Controller.c ****             UI_DspInterface.fill_radius_rectangle(Obj->Gen_Data.x, Obj->Gen_Data.y, Obj->width, Obj
 484:Dsp/widget/wgt_core/UI_Controller.c **** 
 485:Dsp/widget/wgt_core/UI_Controller.c ****             /* invert string display */
 486:Dsp/widget/wgt_core/UI_Controller.c ****             if (Obj->PushDown_Label != NULL)
 487:Dsp/widget/wgt_core/UI_Controller.c ****                 UI_DspInterface.draw_str(base_font, Obj->PushDown_Label, Obj->Gen_Data.x + 5, Obj->
 488:Dsp/widget/wgt_core/UI_Controller.c ****         }
 489:Dsp/widget/wgt_core/UI_Controller.c ****         else
 490:Dsp/widget/wgt_core/UI_Controller.c ****         {
 491:Dsp/widget/wgt_core/UI_Controller.c ****             /* draw button frame */
 492:Dsp/widget/wgt_core/UI_Controller.c ****             UI_DspInterface.draw_radius_rectangle(Obj->Gen_Data.x, Obj->Gen_Data.y, Obj->width, Obj
 753              		.loc 1 492 13 is_stmt 1 view .LVU213
 754 002c 0123     		movs	r3, #1
 755 002e 0293     		str	r3, [sp, #8]
 756 0030 0193     		str	r3, [sp, #4]
 757 0032 0323     		movs	r3, #3
 758 0034 0093     		str	r3, [sp]
 759 0036 94F82030 		ldrb	r3, [r4, #32]	@ zero_extendqisi2
 760 003a E27F     		ldrb	r2, [r4, #31]	@ zero_extendqisi2
 761 003c B4F90610 		ldrsh	r1, [r4, #6]	@ unaligned
 762 0040 B4F90400 		ldrsh	r0, [r4, #4]	@ unaligned
 763 0044 B047     		blx	r6
 764              	.LVL70:
 493:Dsp/widget/wgt_core/UI_Controller.c **** 
 494:Dsp/widget/wgt_core/UI_Controller.c ****             if (Obj->type == Lock_Btn)
 765              		.loc 1 494 13 view .LVU214
 766              		.loc 1 494 20 is_stmt 0 view .LVU215
 767 0046 A37B     		ldrb	r3, [r4, #14]	@ zero_extendqisi2
 768              		.loc 1 494 16 view .LVU216
 769 0048 012B     		cmp	r3, #1
 770 004a 3ED0     		beq	.L88
 495:Dsp/widget/wgt_core/UI_Controller.c ****             {
 496:Dsp/widget/wgt_core/UI_Controller.c ****                 /* display label normally */
 497:Dsp/widget/wgt_core/UI_Controller.c ****                 if (Obj->Release_Label != NULL)
 498:Dsp/widget/wgt_core/UI_Controller.c ****                     UI_DspInterface.draw_str(base_font, Obj->Release_Label, Obj->Gen_Data.x + 9, Ob
 499:Dsp/widget/wgt_core/UI_Controller.c ****             }
 500:Dsp/widget/wgt_core/UI_Controller.c ****             else
 501:Dsp/widget/wgt_core/UI_Controller.c ****             {
 502:Dsp/widget/wgt_core/UI_Controller.c ****                 if (Obj->PushDown_Label != NULL)
 771              		.loc 1 502 17 is_stmt 1 view .LVU217
ARM GAS  /var/folders/lx/hc4sn_b53233_zkc9xbbl97r0000gp/T//cc4iWlrc.s 			page 24


 772              		.loc 1 502 24 is_stmt 0 view .LVU218
 773 004c D4F81710 		ldr	r1, [r4, #23]	@ unaligned
 774              		.loc 1 502 20 view .LVU219
 775 0050 0029     		cmp	r1, #0
 776 0052 5AD0     		beq	.L81
 503:Dsp/widget/wgt_core/UI_Controller.c ****                     UI_DspInterface.draw_str(base_font, Obj->PushDown_Label, Obj->Gen_Data.x + 5, O
 777              		.loc 1 503 21 is_stmt 1 view .LVU220
 778              		.loc 1 503 36 is_stmt 0 view .LVU221
 779 0054 2E4B     		ldr	r3, .L90
 780 0056 1E68     		ldr	r6, [r3]
 781              		.loc 1 503 91 view .LVU222
 782 0058 A288     		ldrh	r2, [r4, #4]	@ unaligned
 783              		.loc 1 503 94 view .LVU223
 784 005a 0532     		adds	r2, r2, #5
 785              		.loc 1 503 21 view .LVU224
 786 005c 0125     		movs	r5, #1
 787 005e 0095     		str	r5, [sp]
 788 0060 B4F90630 		ldrsh	r3, [r4, #6]	@ unaligned
 789 0064 12B2     		sxth	r2, r2
 790 0066 2B48     		ldr	r0, .L90+4
 791 0068 0078     		ldrb	r0, [r0]	@ zero_extendqisi2
 792 006a B047     		blx	r6
 793              	.LVL71:
 504:Dsp/widget/wgt_core/UI_Controller.c ****             }
 505:Dsp/widget/wgt_core/UI_Controller.c ****         }
 506:Dsp/widget/wgt_core/UI_Controller.c ****     }
 507:Dsp/widget/wgt_core/UI_Controller.c ****     else
 508:Dsp/widget/wgt_core/UI_Controller.c ****         return false;
 509:Dsp/widget/wgt_core/UI_Controller.c **** 
 510:Dsp/widget/wgt_core/UI_Controller.c ****     return true;
 794              		.loc 1 510 12 view .LVU225
 795 006c 2846     		mov	r0, r5
 796 006e 42E0     		b	.L69
 797              	.LVL72:
 798              	.L86:
 462:Dsp/widget/wgt_core/UI_Controller.c ****         {
 799              		.loc 1 462 9 is_stmt 1 view .LVU226
 462:Dsp/widget/wgt_core/UI_Controller.c ****         {
 800              		.loc 1 462 16 is_stmt 0 view .LVU227
 801 0070 437B     		ldrb	r3, [r0, #13]	@ zero_extendqisi2
 462:Dsp/widget/wgt_core/UI_Controller.c ****         {
 802              		.loc 1 462 12 view .LVU228
 803 0072 012B     		cmp	r3, #1
 804 0074 07D0     		beq	.L89
 467:Dsp/widget/wgt_core/UI_Controller.c ****         {
 805              		.loc 1 467 14 is_stmt 1 view .LVU229
 467:Dsp/widget/wgt_core/UI_Controller.c ****         {
 806              		.loc 1 467 17 is_stmt 0 view .LVU230
 807 0076 002B     		cmp	r3, #0
 808 0078 3AD1     		bne	.L75
 469:Dsp/widget/wgt_core/UI_Controller.c ****                 Obj->release_callback();
 809              		.loc 1 469 13 is_stmt 1 view .LVU231
 469:Dsp/widget/wgt_core/UI_Controller.c ****                 Obj->release_callback();
 810              		.loc 1 469 20 is_stmt 0 view .LVU232
 811 007a D0F81330 		ldr	r3, [r0, #19]	@ unaligned
 469:Dsp/widget/wgt_core/UI_Controller.c ****                 Obj->release_callback();
 812              		.loc 1 469 16 view .LVU233
ARM GAS  /var/folders/lx/hc4sn_b53233_zkc9xbbl97r0000gp/T//cc4iWlrc.s 			page 25


 813 007e 002B     		cmp	r3, #0
 814 0080 C6D0     		beq	.L70
 470:Dsp/widget/wgt_core/UI_Controller.c ****         }
 815              		.loc 1 470 17 is_stmt 1 view .LVU234
 816 0082 9847     		blx	r3
 817              	.LVL73:
 470:Dsp/widget/wgt_core/UI_Controller.c ****         }
 818              		.loc 1 470 17 is_stmt 0 view .LVU235
 819 0084 C4E7     		b	.L70
 820              	.LVL74:
 821              	.L89:
 464:Dsp/widget/wgt_core/UI_Controller.c ****                 Obj->push_callback();
 822              		.loc 1 464 13 is_stmt 1 view .LVU236
 464:Dsp/widget/wgt_core/UI_Controller.c ****                 Obj->push_callback();
 823              		.loc 1 464 20 is_stmt 0 view .LVU237
 824 0086 D0F80F30 		ldr	r3, [r0, #15]	@ unaligned
 464:Dsp/widget/wgt_core/UI_Controller.c ****                 Obj->push_callback();
 825              		.loc 1 464 16 view .LVU238
 826 008a 002B     		cmp	r3, #0
 827 008c C0D0     		beq	.L70
 465:Dsp/widget/wgt_core/UI_Controller.c ****         }
 828              		.loc 1 465 17 is_stmt 1 view .LVU239
 829 008e 9847     		blx	r3
 830              	.LVL75:
 465:Dsp/widget/wgt_core/UI_Controller.c ****         }
 831              		.loc 1 465 17 is_stmt 0 view .LVU240
 832 0090 BEE7     		b	.L70
 833              	.L87:
 483:Dsp/widget/wgt_core/UI_Controller.c **** 
 834              		.loc 1 483 13 is_stmt 1 view .LVU241
 835 0092 0193     		str	r3, [sp, #4]
 836 0094 0323     		movs	r3, #3
 837 0096 0093     		str	r3, [sp]
 838 0098 94F82030 		ldrb	r3, [r4, #32]	@ zero_extendqisi2
 839 009c E27F     		ldrb	r2, [r4, #31]	@ zero_extendqisi2
 840 009e B4F90610 		ldrsh	r1, [r4, #6]	@ unaligned
 841 00a2 B4F90400 		ldrsh	r0, [r4, #4]	@ unaligned
 842 00a6 A847     		blx	r5
 843              	.LVL76:
 486:Dsp/widget/wgt_core/UI_Controller.c ****                 UI_DspInterface.draw_str(base_font, Obj->PushDown_Label, Obj->Gen_Data.x + 5, Obj->
 844              		.loc 1 486 13 view .LVU242
 486:Dsp/widget/wgt_core/UI_Controller.c ****                 UI_DspInterface.draw_str(base_font, Obj->PushDown_Label, Obj->Gen_Data.x + 5, Obj->
 845              		.loc 1 486 20 is_stmt 0 view .LVU243
 846 00a8 D4F81710 		ldr	r1, [r4, #23]	@ unaligned
 486:Dsp/widget/wgt_core/UI_Controller.c ****                 UI_DspInterface.draw_str(base_font, Obj->PushDown_Label, Obj->Gen_Data.x + 5, Obj->
 847              		.loc 1 486 16 view .LVU244
 848 00ac 49B3     		cbz	r1, .L79
 487:Dsp/widget/wgt_core/UI_Controller.c ****         }
 849              		.loc 1 487 17 is_stmt 1 view .LVU245
 487:Dsp/widget/wgt_core/UI_Controller.c ****         }
 850              		.loc 1 487 32 is_stmt 0 view .LVU246
 851 00ae 184B     		ldr	r3, .L90
 852 00b0 1E68     		ldr	r6, [r3]
 487:Dsp/widget/wgt_core/UI_Controller.c ****         }
 853              		.loc 1 487 87 view .LVU247
 854 00b2 A288     		ldrh	r2, [r4, #4]	@ unaligned
 487:Dsp/widget/wgt_core/UI_Controller.c ****         }
ARM GAS  /var/folders/lx/hc4sn_b53233_zkc9xbbl97r0000gp/T//cc4iWlrc.s 			page 26


 855              		.loc 1 487 90 view .LVU248
 856 00b4 0532     		adds	r2, r2, #5
 487:Dsp/widget/wgt_core/UI_Controller.c ****         }
 857              		.loc 1 487 17 view .LVU249
 858 00b6 0125     		movs	r5, #1
 859 00b8 0095     		str	r5, [sp]
 860 00ba B4F90630 		ldrsh	r3, [r4, #6]	@ unaligned
 861 00be 12B2     		sxth	r2, r2
 862 00c0 1448     		ldr	r0, .L90+4
 863 00c2 0078     		ldrb	r0, [r0]	@ zero_extendqisi2
 864 00c4 B047     		blx	r6
 865              	.LVL77:
 866              		.loc 1 510 12 view .LVU250
 867 00c6 2846     		mov	r0, r5
 868 00c8 15E0     		b	.L69
 869              	.L88:
 497:Dsp/widget/wgt_core/UI_Controller.c ****                     UI_DspInterface.draw_str(base_font, Obj->Release_Label, Obj->Gen_Data.x + 9, Ob
 870              		.loc 1 497 17 is_stmt 1 view .LVU251
 497:Dsp/widget/wgt_core/UI_Controller.c ****                     UI_DspInterface.draw_str(base_font, Obj->Release_Label, Obj->Gen_Data.x + 9, Ob
 871              		.loc 1 497 24 is_stmt 0 view .LVU252
 872 00ca D4F81B10 		ldr	r1, [r4, #27]	@ unaligned
 497:Dsp/widget/wgt_core/UI_Controller.c ****                     UI_DspInterface.draw_str(base_font, Obj->Release_Label, Obj->Gen_Data.x + 9, Ob
 873              		.loc 1 497 20 view .LVU253
 874 00ce D1B1     		cbz	r1, .L80
 498:Dsp/widget/wgt_core/UI_Controller.c ****             }
 875              		.loc 1 498 21 is_stmt 1 view .LVU254
 498:Dsp/widget/wgt_core/UI_Controller.c ****             }
 876              		.loc 1 498 36 is_stmt 0 view .LVU255
 877 00d0 0F4B     		ldr	r3, .L90
 878 00d2 1E68     		ldr	r6, [r3]
 498:Dsp/widget/wgt_core/UI_Controller.c ****             }
 879              		.loc 1 498 90 view .LVU256
 880 00d4 A288     		ldrh	r2, [r4, #4]	@ unaligned
 498:Dsp/widget/wgt_core/UI_Controller.c ****             }
 881              		.loc 1 498 93 view .LVU257
 882 00d6 0932     		adds	r2, r2, #9
 498:Dsp/widget/wgt_core/UI_Controller.c ****             }
 883              		.loc 1 498 21 view .LVU258
 884 00d8 0125     		movs	r5, #1
 885 00da 0095     		str	r5, [sp]
 886 00dc B4F90630 		ldrsh	r3, [r4, #6]	@ unaligned
 887 00e0 12B2     		sxth	r2, r2
 888 00e2 0C48     		ldr	r0, .L90+4
 889 00e4 0078     		ldrb	r0, [r0]	@ zero_extendqisi2
 890 00e6 B047     		blx	r6
 891              	.LVL78:
 892              		.loc 1 510 12 view .LVU259
 893 00e8 2846     		mov	r0, r5
 894 00ea 04E0     		b	.L69
 895              	.LVL79:
 896              	.L74:
 897              	.LCFI12:
 898              		.cfi_def_cfa_offset 0
 899              		.cfi_restore 4
 900              		.cfi_restore 5
 901              		.cfi_restore 6
 902              		.cfi_restore 14
ARM GAS  /var/folders/lx/hc4sn_b53233_zkc9xbbl97r0000gp/T//cc4iWlrc.s 			page 27


 458:Dsp/widget/wgt_core/UI_Controller.c **** 
 903              		.loc 1 458 16 view .LVU260
 904 00ec 0020     		movs	r0, #0
 905              	.LVL80:
 511:Dsp/widget/wgt_core/UI_Controller.c **** }
 906              		.loc 1 511 1 view .LVU261
 907 00ee 7047     		bx	lr
 908              	.LVL81:
 909              	.L75:
 910              	.LCFI13:
 911              		.cfi_def_cfa_offset 32
 912              		.cfi_offset 4, -16
 913              		.cfi_offset 5, -12
 914              		.cfi_offset 6, -8
 915              		.cfi_offset 14, -4
 473:Dsp/widget/wgt_core/UI_Controller.c ****     }
 916              		.loc 1 473 20 view .LVU262
 917 00f0 0020     		movs	r0, #0
 918              	.LVL82:
 473:Dsp/widget/wgt_core/UI_Controller.c ****     }
 919              		.loc 1 473 20 view .LVU263
 920 00f2 00E0     		b	.L69
 921              	.L76:
 508:Dsp/widget/wgt_core/UI_Controller.c **** 
 922              		.loc 1 508 16 view .LVU264
 923 00f4 0020     		movs	r0, #0
 924              	.L69:
 925              		.loc 1 511 1 view .LVU265
 926 00f6 04B0     		add	sp, sp, #16
 927              	.LCFI14:
 928              		.cfi_remember_state
 929              		.cfi_def_cfa_offset 16
 930              		@ sp needed
 931 00f8 70BD     		pop	{r4, r5, r6, pc}
 932              	.LVL83:
 933              	.L77:
 934              	.LCFI15:
 935              		.cfi_restore_state
 508:Dsp/widget/wgt_core/UI_Controller.c **** 
 936              		.loc 1 508 16 view .LVU266
 937 00fa 0020     		movs	r0, #0
 938 00fc FBE7     		b	.L69
 939              	.L78:
 940 00fe 0020     		movs	r0, #0
 941 0100 F9E7     		b	.L69
 942              	.L79:
 510:Dsp/widget/wgt_core/UI_Controller.c **** }
 943              		.loc 1 510 12 view .LVU267
 944 0102 0120     		movs	r0, #1
 945 0104 F7E7     		b	.L69
 946              	.L80:
 510:Dsp/widget/wgt_core/UI_Controller.c **** }
 947              		.loc 1 510 12 view .LVU268
 948 0106 0120     		movs	r0, #1
 949 0108 F5E7     		b	.L69
 950              	.L81:
 510:Dsp/widget/wgt_core/UI_Controller.c **** }
ARM GAS  /var/folders/lx/hc4sn_b53233_zkc9xbbl97r0000gp/T//cc4iWlrc.s 			page 28


 951              		.loc 1 510 12 view .LVU269
 952 010a 0120     		movs	r0, #1
 953 010c F3E7     		b	.L69
 954              	.L91:
 955 010e 00BF     		.align	2
 956              	.L90:
 957 0110 00000000 		.word	.LANCHOR0
 958 0114 00000000 		.word	.LANCHOR2
 959              		.cfi_endproc
 960              	.LFE16:
 962              		.section	.text.UI_CheckBox_Init,"ax",%progbits
 963              		.align	1
 964              		.syntax unified
 965              		.thumb
 966              		.thumb_func
 967              		.fpu fpv4-sp-d16
 969              	UI_CheckBox_Init:
 970              	.LVL84:
 971              	.LFB17:
 512:Dsp/widget/wgt_core/UI_Controller.c **** 
 513:Dsp/widget/wgt_core/UI_Controller.c **** static bool UI_CheckBox_Init(UI_CheckBoxObj_TypeDef *Obj, char *label, int16_t x, int16_t y, bool s
 514:Dsp/widget/wgt_core/UI_Controller.c **** {
 972              		.loc 1 514 1 is_stmt 1 view -0
 973              		.cfi_startproc
 974              		@ args = 4, pretend = 0, frame = 0
 975              		@ frame_needed = 0, uses_anonymous_args = 0
 515:Dsp/widget/wgt_core/UI_Controller.c ****     if (Obj == NULL)
 976              		.loc 1 515 5 view .LVU271
 977              		.loc 1 515 8 is_stmt 0 view .LVU272
 978 0000 68B1     		cbz	r0, .L94
 514:Dsp/widget/wgt_core/UI_Controller.c ****     if (Obj == NULL)
 979              		.loc 1 514 1 view .LVU273
 980 0002 10B5     		push	{r4, lr}
 981              	.LCFI16:
 982              		.cfi_def_cfa_offset 8
 983              		.cfi_offset 4, -8
 984              		.cfi_offset 14, -4
 985 0004 0446     		mov	r4, r0
 516:Dsp/widget/wgt_core/UI_Controller.c ****         return false;
 517:Dsp/widget/wgt_core/UI_Controller.c **** 
 518:Dsp/widget/wgt_core/UI_Controller.c ****     UI_GenData_Init(&Obj->Gen_Data, label, x, y);
 986              		.loc 1 518 5 is_stmt 1 view .LVU274
 987 0006 FFF7FEFF 		bl	UI_GenData_Init
 988              	.LVL85:
 519:Dsp/widget/wgt_core/UI_Controller.c **** 
 520:Dsp/widget/wgt_core/UI_Controller.c ****     Obj->checked = state;
 989              		.loc 1 520 5 view .LVU275
 990              		.loc 1 520 18 is_stmt 0 view .LVU276
 991 000a 9DF80830 		ldrb	r3, [sp, #8]	@ zero_extendqisi2
 992 000e 2374     		strb	r3, [r4, #16]
 521:Dsp/widget/wgt_core/UI_Controller.c ****     Obj->callback = NULL;
 993              		.loc 1 521 5 is_stmt 1 view .LVU277
 994              		.loc 1 521 19 is_stmt 0 view .LVU278
 995 0010 0023     		movs	r3, #0
 996 0012 2373     		strb	r3, [r4, #12]
 997 0014 6373     		strb	r3, [r4, #13]
 998 0016 A373     		strb	r3, [r4, #14]
ARM GAS  /var/folders/lx/hc4sn_b53233_zkc9xbbl97r0000gp/T//cc4iWlrc.s 			page 29


 999 0018 E373     		strb	r3, [r4, #15]
 522:Dsp/widget/wgt_core/UI_Controller.c **** 
 523:Dsp/widget/wgt_core/UI_Controller.c ****     return true;
 1000              		.loc 1 523 5 is_stmt 1 view .LVU279
 1001              		.loc 1 523 12 is_stmt 0 view .LVU280
 1002 001a 0120     		movs	r0, #1
 524:Dsp/widget/wgt_core/UI_Controller.c **** }
 1003              		.loc 1 524 1 view .LVU281
 1004 001c 10BD     		pop	{r4, pc}
 1005              	.LVL86:
 1006              	.L94:
 1007              	.LCFI17:
 1008              		.cfi_def_cfa_offset 0
 1009              		.cfi_restore 4
 1010              		.cfi_restore 14
 516:Dsp/widget/wgt_core/UI_Controller.c **** 
 1011              		.loc 1 516 16 view .LVU282
 1012 001e 0020     		movs	r0, #0
 1013              	.LVL87:
 1014              		.loc 1 524 1 view .LVU283
 1015 0020 7047     		bx	lr
 1016              		.cfi_endproc
 1017              	.LFE17:
 1019              		.section	.text.UI_CheckBox_SetCallback,"ax",%progbits
 1020              		.align	1
 1021              		.syntax unified
 1022              		.thumb
 1023              		.thumb_func
 1024              		.fpu fpv4-sp-d16
 1026              	UI_CheckBox_SetCallback:
 1027              	.LVL88:
 1028              	.LFB18:
 525:Dsp/widget/wgt_core/UI_Controller.c **** 
 526:Dsp/widget/wgt_core/UI_Controller.c **** static bool UI_CheckBox_SetCallback(UI_CheckBoxObj_TypeDef *Obj, UI_CheckBoxTrigger_Callback callba
 527:Dsp/widget/wgt_core/UI_Controller.c **** {
 1029              		.loc 1 527 1 is_stmt 1 view -0
 1030              		.cfi_startproc
 1031              		@ args = 0, pretend = 0, frame = 0
 1032              		@ frame_needed = 0, uses_anonymous_args = 0
 1033              		@ link register save eliminated.
 528:Dsp/widget/wgt_core/UI_Controller.c ****     if (Obj == NULL)
 1034              		.loc 1 528 5 view .LVU285
 1035              		.loc 1 528 8 is_stmt 0 view .LVU286
 1036 0000 10B1     		cbz	r0, .L101
 529:Dsp/widget/wgt_core/UI_Controller.c ****         return false;
 530:Dsp/widget/wgt_core/UI_Controller.c **** 
 531:Dsp/widget/wgt_core/UI_Controller.c ****     Obj->callback = callback;
 1037              		.loc 1 531 5 is_stmt 1 view .LVU287
 1038              		.loc 1 531 19 is_stmt 0 view .LVU288
 1039 0002 C160     		str	r1, [r0, #12]	@ unaligned
 532:Dsp/widget/wgt_core/UI_Controller.c **** 
 533:Dsp/widget/wgt_core/UI_Controller.c ****     return true;
 1040              		.loc 1 533 5 is_stmt 1 view .LVU289
 1041              		.loc 1 533 12 is_stmt 0 view .LVU290
 1042 0004 0120     		movs	r0, #1
 1043              	.LVL89:
 1044              		.loc 1 533 12 view .LVU291
ARM GAS  /var/folders/lx/hc4sn_b53233_zkc9xbbl97r0000gp/T//cc4iWlrc.s 			page 30


 1045 0006 7047     		bx	lr
 1046              	.LVL90:
 1047              	.L101:
 529:Dsp/widget/wgt_core/UI_Controller.c ****         return false;
 1048              		.loc 1 529 16 view .LVU292
 1049 0008 0020     		movs	r0, #0
 1050              	.LVL91:
 534:Dsp/widget/wgt_core/UI_Controller.c **** }
 1051              		.loc 1 534 1 view .LVU293
 1052 000a 7047     		bx	lr
 1053              		.cfi_endproc
 1054              	.LFE18:
 1056              		.section	.text.UI_CheckBox_Move,"ax",%progbits
 1057              		.align	1
 1058              		.syntax unified
 1059              		.thumb
 1060              		.thumb_func
 1061              		.fpu fpv4-sp-d16
 1063              	UI_CheckBox_Move:
 1064              	.LVL92:
 1065              	.LFB19:
 535:Dsp/widget/wgt_core/UI_Controller.c **** 
 536:Dsp/widget/wgt_core/UI_Controller.c **** static bool UI_CheckBox_Move(UI_CheckBoxObj_TypeDef *Obj, int16_t x, int16_t y)
 537:Dsp/widget/wgt_core/UI_Controller.c **** {
 1066              		.loc 1 537 1 is_stmt 1 view -0
 1067              		.cfi_startproc
 1068              		@ args = 0, pretend = 0, frame = 0
 1069              		@ frame_needed = 0, uses_anonymous_args = 0
 538:Dsp/widget/wgt_core/UI_Controller.c ****     if (Obj == NULL)
 1070              		.loc 1 538 5 view .LVU295
 1071              		.loc 1 538 8 is_stmt 0 view .LVU296
 1072 0000 18B1     		cbz	r0, .L104
 537:Dsp/widget/wgt_core/UI_Controller.c ****     if (Obj == NULL)
 1073              		.loc 1 537 1 view .LVU297
 1074 0002 08B5     		push	{r3, lr}
 1075              	.LCFI18:
 1076              		.cfi_def_cfa_offset 8
 1077              		.cfi_offset 3, -8
 1078              		.cfi_offset 14, -4
 539:Dsp/widget/wgt_core/UI_Controller.c ****         return false;
 540:Dsp/widget/wgt_core/UI_Controller.c **** 
 541:Dsp/widget/wgt_core/UI_Controller.c ****     return UI_Move(&(Obj->Gen_Data), x, y);
 1079              		.loc 1 541 5 is_stmt 1 view .LVU298
 1080              		.loc 1 541 12 is_stmt 0 view .LVU299
 1081 0004 FFF7FEFF 		bl	UI_Move
 1082              	.LVL93:
 542:Dsp/widget/wgt_core/UI_Controller.c **** }
 1083              		.loc 1 542 1 view .LVU300
 1084 0008 08BD     		pop	{r3, pc}
 1085              	.LVL94:
 1086              	.L104:
 1087              	.LCFI19:
 1088              		.cfi_def_cfa_offset 0
 1089              		.cfi_restore 3
 1090              		.cfi_restore 14
 539:Dsp/widget/wgt_core/UI_Controller.c ****         return false;
 1091              		.loc 1 539 16 view .LVU301
ARM GAS  /var/folders/lx/hc4sn_b53233_zkc9xbbl97r0000gp/T//cc4iWlrc.s 			page 31


 1092 000a 0020     		movs	r0, #0
 1093              	.LVL95:
 1094              		.loc 1 542 1 view .LVU302
 1095 000c 7047     		bx	lr
 1096              		.cfi_endproc
 1097              	.LFE19:
 1099              		.section	.text.UI_CheckBox_Trigger,"ax",%progbits
 1100              		.align	1
 1101              		.syntax unified
 1102              		.thumb
 1103              		.thumb_func
 1104              		.fpu fpv4-sp-d16
 1106              	UI_CheckBox_Trigger:
 1107              	.LVL96:
 1108              	.LFB20:
 543:Dsp/widget/wgt_core/UI_Controller.c **** 
 544:Dsp/widget/wgt_core/UI_Controller.c **** static bool UI_CheckBox_Trigger(UI_CheckBoxObj_TypeDef *Obj)
 545:Dsp/widget/wgt_core/UI_Controller.c **** {
 1109              		.loc 1 545 1 is_stmt 1 view -0
 1110              		.cfi_startproc
 1111              		@ args = 0, pretend = 0, frame = 0
 1112              		@ frame_needed = 0, uses_anonymous_args = 0
 546:Dsp/widget/wgt_core/UI_Controller.c ****     if (Obj == NULL)
 1113              		.loc 1 546 5 view .LVU304
 1114              		.loc 1 546 8 is_stmt 0 view .LVU305
 1115 0000 50B1     		cbz	r0, .L111
 545:Dsp/widget/wgt_core/UI_Controller.c ****     if (Obj == NULL)
 1116              		.loc 1 545 1 view .LVU306
 1117 0002 08B5     		push	{r3, lr}
 1118              	.LCFI20:
 1119              		.cfi_def_cfa_offset 8
 1120              		.cfi_offset 3, -8
 1121              		.cfi_offset 14, -4
 1122 0004 0346     		mov	r3, r0
 547:Dsp/widget/wgt_core/UI_Controller.c ****         return false;
 548:Dsp/widget/wgt_core/UI_Controller.c **** 
 549:Dsp/widget/wgt_core/UI_Controller.c ****     Obj->checked = !Obj->checked;
 1123              		.loc 1 549 5 is_stmt 1 view .LVU307
 1124              		.loc 1 549 24 is_stmt 0 view .LVU308
 1125 0006 007C     		ldrb	r0, [r0, #16]	@ zero_extendqisi2
 1126              	.LVL97:
 1127              		.loc 1 549 5 view .LVU309
 1128 0008 80F00100 		eor	r0, r0, #1
 1129              		.loc 1 549 18 view .LVU310
 1130 000c 1874     		strb	r0, [r3, #16]
 550:Dsp/widget/wgt_core/UI_Controller.c **** 
 551:Dsp/widget/wgt_core/UI_Controller.c ****     if (Obj->callback)
 1131              		.loc 1 551 5 is_stmt 1 view .LVU311
 1132              		.loc 1 551 12 is_stmt 0 view .LVU312
 1133 000e DB68     		ldr	r3, [r3, #12]	@ unaligned
 1134              	.LVL98:
 1135              		.loc 1 551 8 view .LVU313
 1136 0010 23B1     		cbz	r3, .L112
 552:Dsp/widget/wgt_core/UI_Controller.c ****         Obj->callback(Obj->checked);
 1137              		.loc 1 552 9 is_stmt 1 view .LVU314
 1138 0012 9847     		blx	r3
 1139              	.LVL99:
ARM GAS  /var/folders/lx/hc4sn_b53233_zkc9xbbl97r0000gp/T//cc4iWlrc.s 			page 32


 553:Dsp/widget/wgt_core/UI_Controller.c **** 
 554:Dsp/widget/wgt_core/UI_Controller.c ****     return true;
 1140              		.loc 1 554 12 is_stmt 0 view .LVU315
 1141 0014 0120     		movs	r0, #1
 1142              	.L110:
 555:Dsp/widget/wgt_core/UI_Controller.c **** }
 1143              		.loc 1 555 1 view .LVU316
 1144 0016 08BD     		pop	{r3, pc}
 1145              	.LVL100:
 1146              	.L111:
 1147              	.LCFI21:
 1148              		.cfi_def_cfa_offset 0
 1149              		.cfi_restore 3
 1150              		.cfi_restore 14
 547:Dsp/widget/wgt_core/UI_Controller.c **** 
 1151              		.loc 1 547 16 view .LVU317
 1152 0018 0020     		movs	r0, #0
 1153              	.LVL101:
 1154              		.loc 1 555 1 view .LVU318
 1155 001a 7047     		bx	lr
 1156              	.L112:
 1157              	.LCFI22:
 1158              		.cfi_def_cfa_offset 8
 1159              		.cfi_offset 3, -8
 1160              		.cfi_offset 14, -4
 554:Dsp/widget/wgt_core/UI_Controller.c **** }
 1161              		.loc 1 554 12 view .LVU319
 1162 001c 0120     		movs	r0, #1
 1163 001e FAE7     		b	.L110
 1164              		.cfi_endproc
 1165              	.LFE20:
 1167              		.section	.text.UI_SlideBar_Init,"ax",%progbits
 1168              		.align	1
 1169              		.syntax unified
 1170              		.thumb
 1171              		.thumb_func
 1172              		.fpu fpv4-sp-d16
 1174              	UI_SlideBar_Init:
 1175              	.LVL102:
 1176              	.LFB22:
 556:Dsp/widget/wgt_core/UI_Controller.c **** 
 557:Dsp/widget/wgt_core/UI_Controller.c **** static bool UI_CheckBox_Ctl(UI_CheckBoxObj_TypeDef *Obj)
 558:Dsp/widget/wgt_core/UI_Controller.c **** {
 559:Dsp/widget/wgt_core/UI_Controller.c ****     int16_t frame_x = 0;
 560:Dsp/widget/wgt_core/UI_Controller.c ****     int16_t frame_y = 0;
 561:Dsp/widget/wgt_core/UI_Controller.c ****     int16_t str_x = 0;
 562:Dsp/widget/wgt_core/UI_Controller.c ****     int16_t str_y = 0;
 563:Dsp/widget/wgt_core/UI_Controller.c **** 
 564:Dsp/widget/wgt_core/UI_Controller.c ****     if ((Obj == NULL) ||
 565:Dsp/widget/wgt_core/UI_Controller.c ****         (UI_DspInterface.draw_str == NULL) ||
 566:Dsp/widget/wgt_core/UI_Controller.c ****         (UI_DspInterface.fill_rectangle == NULL) ||
 567:Dsp/widget/wgt_core/UI_Controller.c ****         (UI_DspInterface.draw_rectangle == NULL))
 568:Dsp/widget/wgt_core/UI_Controller.c ****         return false;
 569:Dsp/widget/wgt_core/UI_Controller.c **** 
 570:Dsp/widget/wgt_core/UI_Controller.c ****     frame_x = strlen(Obj->Gen_Data.label) * STR_DIS;
 571:Dsp/widget/wgt_core/UI_Controller.c ****     frame_y = Obj->Gen_Data.y + 3;
 572:Dsp/widget/wgt_core/UI_Controller.c ****     frame_x += DEFAULT_CHECKBOX_OFFSET;
ARM GAS  /var/folders/lx/hc4sn_b53233_zkc9xbbl97r0000gp/T//cc4iWlrc.s 			page 33


 573:Dsp/widget/wgt_core/UI_Controller.c **** 
 574:Dsp/widget/wgt_core/UI_Controller.c ****     str_x = Obj->Gen_Data.x + 3;
 575:Dsp/widget/wgt_core/UI_Controller.c ****     str_y = Obj->Gen_Data.y;
 576:Dsp/widget/wgt_core/UI_Controller.c **** 
 577:Dsp/widget/wgt_core/UI_Controller.c ****     if (base_font == Font_8)
 578:Dsp/widget/wgt_core/UI_Controller.c ****         str_y += 1;
 579:Dsp/widget/wgt_core/UI_Controller.c **** 
 580:Dsp/widget/wgt_core/UI_Controller.c ****     UI_DspInterface.draw_str(base_font, Obj->Gen_Data.label, str_x, str_y, true);
 581:Dsp/widget/wgt_core/UI_Controller.c ****     UI_DspInterface.draw_rectangle(frame_x, frame_y, DEFAULT_CHECKBOX_FRAME_SIZE, DEFAULT_CHECKBOX_
 582:Dsp/widget/wgt_core/UI_Controller.c **** 
 583:Dsp/widget/wgt_core/UI_Controller.c ****     if (Obj->checked)
 584:Dsp/widget/wgt_core/UI_Controller.c ****         UI_DspInterface.fill_rectangle(frame_x + 2, frame_y + 2, DEFAULT_CHECKBOX_FILLFRAME, DEFAUL
 585:Dsp/widget/wgt_core/UI_Controller.c **** 
 586:Dsp/widget/wgt_core/UI_Controller.c ****     return true;
 587:Dsp/widget/wgt_core/UI_Controller.c **** }
 588:Dsp/widget/wgt_core/UI_Controller.c **** 
 589:Dsp/widget/wgt_core/UI_Controller.c **** static bool UI_SlideBar_Init(UI_SlideBarObj_TypeDef *Obj, UI_SliderBar_Mode_List mode, char *label,
 590:Dsp/widget/wgt_core/UI_Controller.c **** {
 1177              		.loc 1 590 1 is_stmt 1 view -0
 1178              		.cfi_startproc
 1179              		@ args = 20, pretend = 0, frame = 0
 1180              		@ frame_needed = 0, uses_anonymous_args = 0
 1181              		.loc 1 590 1 is_stmt 0 view .LVU321
 1182 0000 2DE9F843 		push	{r3, r4, r5, r6, r7, r8, r9, lr}
 1183              	.LCFI23:
 1184              		.cfi_def_cfa_offset 32
 1185              		.cfi_offset 3, -32
 1186              		.cfi_offset 4, -28
 1187              		.cfi_offset 5, -24
 1188              		.cfi_offset 6, -20
 1189              		.cfi_offset 7, -16
 1190              		.cfi_offset 8, -12
 1191              		.cfi_offset 9, -8
 1192              		.cfi_offset 14, -4
 1193 0004 BDF92440 		ldrsh	r4, [sp, #36]
 1194 0008 BDF92850 		ldrsh	r5, [sp, #40]
 1195 000c BDF92C60 		ldrsh	r6, [sp, #44]
 1196 0010 BDF93080 		ldrsh	r8, [sp, #48]
 591:Dsp/widget/wgt_core/UI_Controller.c ****     if ((Obj == NULL) ||
 1197              		.loc 1 591 5 is_stmt 1 view .LVU322
 1198              		.loc 1 591 8 is_stmt 0 view .LVU323
 1199 0014 0028     		cmp	r0, #0
 1200 0016 49D0     		beq	.L119
 1201 0018 9446     		mov	ip, r2
 1202 001a 1A46     		mov	r2, r3
 1203              	.LVL103:
 1204              		.loc 1 591 8 view .LVU324
 1205 001c 0746     		mov	r7, r0
 1206              		.loc 1 591 23 discriminator 1 view .LVU325
 1207 001e AC42     		cmp	r4, r5
 1208 0020 46DD     		ble	.L120
 592:Dsp/widget/wgt_core/UI_Controller.c ****         (limit_max <= limit_min) ||
 1209              		.loc 1 592 34 view .LVU326
 1210 0022 B542     		cmp	r5, r6
 1211 0024 47DC     		bgt	.L121
 593:Dsp/widget/wgt_core/UI_Controller.c ****         (start_val < limit_min) ||
 1212              		.loc 1 593 33 view .LVU327
ARM GAS  /var/folders/lx/hc4sn_b53233_zkc9xbbl97r0000gp/T//cc4iWlrc.s 			page 34


 1213 0026 B442     		cmp	r4, r6
 1214 0028 47DB     		blt	.L122
 594:Dsp/widget/wgt_core/UI_Controller.c ****         (start_val > limit_max) ||
 1215              		.loc 1 594 33 view .LVU328
 1216 002a 0129     		cmp	r1, #1
 1217 002c 01D9     		bls	.L125
 595:Dsp/widget/wgt_core/UI_Controller.c ****         (mode > SliderBar_Vertical_Mode))
 596:Dsp/widget/wgt_core/UI_Controller.c ****         return false;
 1218              		.loc 1 596 16 view .LVU329
 1219 002e 0020     		movs	r0, #0
 1220              	.LVL104:
 1221              		.loc 1 596 16 view .LVU330
 1222 0030 3FE0     		b	.L118
 1223              	.LVL105:
 1224              	.L125:
 597:Dsp/widget/wgt_core/UI_Controller.c **** 
 598:Dsp/widget/wgt_core/UI_Controller.c ****     Obj->mode = mode;
 1225              		.loc 1 598 5 is_stmt 1 view .LVU331
 1226              		.loc 1 598 15 is_stmt 0 view .LVU332
 1227 0032 0173     		strb	r1, [r0, #12]
 599:Dsp/widget/wgt_core/UI_Controller.c ****     Obj->is_selected = false;
 1228              		.loc 1 599 5 is_stmt 1 view .LVU333
 1229              		.loc 1 599 22 is_stmt 0 view .LVU334
 1230 0034 4FF00009 		mov	r9, #0
 1231 0038 80F82390 		strb	r9, [r0, #35]
 600:Dsp/widget/wgt_core/UI_Controller.c **** 
 601:Dsp/widget/wgt_core/UI_Controller.c ****     UI_GenData_Init(&(Obj->Gen_Data), label, x, y);
 1232              		.loc 1 601 5 is_stmt 1 view .LVU335
 1233 003c BDF92030 		ldrsh	r3, [sp, #32]
 1234              	.LVL106:
 1235              		.loc 1 601 5 is_stmt 0 view .LVU336
 1236 0040 6146     		mov	r1, ip
 1237              	.LVL107:
 1238              		.loc 1 601 5 view .LVU337
 1239 0042 FFF7FEFF 		bl	UI_GenData_Init
 1240              	.LVL108:
 602:Dsp/widget/wgt_core/UI_Controller.c **** 
 603:Dsp/widget/wgt_core/UI_Controller.c ****     Obj->limit_max = limit_max;
 1241              		.loc 1 603 5 is_stmt 1 view .LVU338
 1242              		.loc 1 603 20 is_stmt 0 view .LVU339
 1243 0046 07EE904A 		vmov	s15, r4	@ int
 1244 004a F8EEE77A 		vcvt.f32.s32	s15, s15
 1245 004e 17EE903A 		vmov	r3, s15
 1246 0052 C7F81530 		str	r3, [r7, #21]	@ unaligned
 604:Dsp/widget/wgt_core/UI_Controller.c ****     Obj->limit_min = limit_min;
 1247              		.loc 1 604 5 is_stmt 1 view .LVU340
 1248              		.loc 1 604 20 is_stmt 0 view .LVU341
 1249 0056 07EE905A 		vmov	s15, r5	@ int
 1250 005a F8EEE77A 		vcvt.f32.s32	s15, s15
 1251 005e 17EE903A 		vmov	r3, s15
 1252 0062 C7F81130 		str	r3, [r7, #17]	@ unaligned
 605:Dsp/widget/wgt_core/UI_Controller.c **** 
 606:Dsp/widget/wgt_core/UI_Controller.c ****     Obj->step_len = step_len;
 1253              		.loc 1 606 5 is_stmt 1 view .LVU342
 1254              		.loc 1 606 19 is_stmt 0 view .LVU343
 1255 0066 A7F81D80 		strh	r8, [r7, #29]	@ unaligned
 607:Dsp/widget/wgt_core/UI_Controller.c ****     Obj->scale = (limit_max - limit_min) / (float)step_len;
ARM GAS  /var/folders/lx/hc4sn_b53233_zkc9xbbl97r0000gp/T//cc4iWlrc.s 			page 35


 1256              		.loc 1 607 5 is_stmt 1 view .LVU344
 1257              		.loc 1 607 29 is_stmt 0 view .LVU345
 1258 006a 641B     		subs	r4, r4, r5
 1259              		.loc 1 607 44 view .LVU346
 1260 006c 07EE908A 		vmov	s15, r8	@ int
 1261 0070 B8EEE77A 		vcvt.f32.s32	s14, s15
 1262              		.loc 1 607 42 view .LVU347
 1263 0074 07EE904A 		vmov	s15, r4	@ int
 1264 0078 F8EEE77A 		vcvt.f32.s32	s15, s15
 1265              		.loc 1 607 16 view .LVU348
 1266 007c C7EE877A 		vdiv.f32	s15, s15, s14
 1267 0080 17EE903A 		vmov	r3, s15
 1268 0084 C7F81930 		str	r3, [r7, #25]	@ unaligned
 608:Dsp/widget/wgt_core/UI_Controller.c ****     Obj->cur_val = start_val;
 1269              		.loc 1 608 5 is_stmt 1 view .LVU349
 1270              		.loc 1 608 18 is_stmt 0 view .LVU350
 1271 0088 07EE906A 		vmov	s15, r6	@ int
 1272 008c F8EEE77A 		vcvt.f32.s32	s15, s15
 1273 0090 17EE906A 		vmov	r6, s15
 1274 0094 C7F81F60 		str	r6, [r7, #31]	@ unaligned
 609:Dsp/widget/wgt_core/UI_Controller.c **** 
 610:Dsp/widget/wgt_core/UI_Controller.c ****     Obj->BarCoord_X = 0;
 1275              		.loc 1 610 5 is_stmt 1 view .LVU351
 1276              		.loc 1 610 21 is_stmt 0 view .LVU352
 1277 0098 87F82490 		strb	r9, [r7, #36]
 1278 009c 87F82590 		strb	r9, [r7, #37]
 611:Dsp/widget/wgt_core/UI_Controller.c ****     Obj->BarCoord_Y = 0;
 1279              		.loc 1 611 5 is_stmt 1 view .LVU353
 1280              		.loc 1 611 21 is_stmt 0 view .LVU354
 1281 00a0 87F82690 		strb	r9, [r7, #38]
 1282 00a4 87F82790 		strb	r9, [r7, #39]
 612:Dsp/widget/wgt_core/UI_Controller.c **** 
 613:Dsp/widget/wgt_core/UI_Controller.c ****     return true;
 1283              		.loc 1 613 5 is_stmt 1 view .LVU355
 1284              		.loc 1 613 12 is_stmt 0 view .LVU356
 1285 00a8 0120     		movs	r0, #1
 1286 00aa 02E0     		b	.L118
 1287              	.LVL109:
 1288              	.L119:
 596:Dsp/widget/wgt_core/UI_Controller.c **** 
 1289              		.loc 1 596 16 view .LVU357
 1290 00ac 0020     		movs	r0, #0
 1291              	.LVL110:
 596:Dsp/widget/wgt_core/UI_Controller.c **** 
 1292              		.loc 1 596 16 view .LVU358
 1293 00ae 00E0     		b	.L118
 1294              	.LVL111:
 1295              	.L120:
 596:Dsp/widget/wgt_core/UI_Controller.c **** 
 1296              		.loc 1 596 16 view .LVU359
 1297 00b0 0020     		movs	r0, #0
 1298              	.LVL112:
 1299              	.L118:
 614:Dsp/widget/wgt_core/UI_Controller.c **** }
 1300              		.loc 1 614 1 view .LVU360
 1301 00b2 BDE8F883 		pop	{r3, r4, r5, r6, r7, r8, r9, pc}
 1302              	.LVL113:
ARM GAS  /var/folders/lx/hc4sn_b53233_zkc9xbbl97r0000gp/T//cc4iWlrc.s 			page 36


 1303              	.L121:
 596:Dsp/widget/wgt_core/UI_Controller.c **** 
 1304              		.loc 1 596 16 view .LVU361
 1305 00b6 0020     		movs	r0, #0
 1306              	.LVL114:
 596:Dsp/widget/wgt_core/UI_Controller.c **** 
 1307              		.loc 1 596 16 view .LVU362
 1308 00b8 FBE7     		b	.L118
 1309              	.LVL115:
 1310              	.L122:
 596:Dsp/widget/wgt_core/UI_Controller.c **** 
 1311              		.loc 1 596 16 view .LVU363
 1312 00ba 0020     		movs	r0, #0
 1313              	.LVL116:
 596:Dsp/widget/wgt_core/UI_Controller.c **** 
 1314              		.loc 1 596 16 view .LVU364
 1315 00bc F9E7     		b	.L118
 1316              		.cfi_endproc
 1317              	.LFE22:
 1319              		.section	.text.UI_SlideBar_Move,"ax",%progbits
 1320              		.align	1
 1321              		.syntax unified
 1322              		.thumb
 1323              		.thumb_func
 1324              		.fpu fpv4-sp-d16
 1326              	UI_SlideBar_Move:
 1327              	.LVL117:
 1328              	.LFB23:
 615:Dsp/widget/wgt_core/UI_Controller.c **** 
 616:Dsp/widget/wgt_core/UI_Controller.c **** static bool UI_SlideBar_Move(UI_SlideBarObj_TypeDef *Obj, int16_t x, int16_t y)
 617:Dsp/widget/wgt_core/UI_Controller.c **** {
 1329              		.loc 1 617 1 is_stmt 1 view -0
 1330              		.cfi_startproc
 1331              		@ args = 0, pretend = 0, frame = 0
 1332              		@ frame_needed = 0, uses_anonymous_args = 0
 618:Dsp/widget/wgt_core/UI_Controller.c ****     if (Obj == NULL)
 1333              		.loc 1 618 5 view .LVU366
 1334              		.loc 1 618 8 is_stmt 0 view .LVU367
 1335 0000 18B1     		cbz	r0, .L128
 617:Dsp/widget/wgt_core/UI_Controller.c ****     if (Obj == NULL)
 1336              		.loc 1 617 1 view .LVU368
 1337 0002 08B5     		push	{r3, lr}
 1338              	.LCFI24:
 1339              		.cfi_def_cfa_offset 8
 1340              		.cfi_offset 3, -8
 1341              		.cfi_offset 14, -4
 619:Dsp/widget/wgt_core/UI_Controller.c ****         return false;
 620:Dsp/widget/wgt_core/UI_Controller.c **** 
 621:Dsp/widget/wgt_core/UI_Controller.c ****     return UI_Move(&(Obj->Gen_Data), x, y);
 1342              		.loc 1 621 5 is_stmt 1 view .LVU369
 1343              		.loc 1 621 12 is_stmt 0 view .LVU370
 1344 0004 FFF7FEFF 		bl	UI_Move
 1345              	.LVL118:
 622:Dsp/widget/wgt_core/UI_Controller.c **** }
 1346              		.loc 1 622 1 view .LVU371
 1347 0008 08BD     		pop	{r3, pc}
 1348              	.LVL119:
ARM GAS  /var/folders/lx/hc4sn_b53233_zkc9xbbl97r0000gp/T//cc4iWlrc.s 			page 37


 1349              	.L128:
 1350              	.LCFI25:
 1351              		.cfi_def_cfa_offset 0
 1352              		.cfi_restore 3
 1353              		.cfi_restore 14
 619:Dsp/widget/wgt_core/UI_Controller.c ****         return false;
 1354              		.loc 1 619 16 view .LVU372
 1355 000a 0020     		movs	r0, #0
 1356              	.LVL120:
 1357              		.loc 1 622 1 view .LVU373
 1358 000c 7047     		bx	lr
 1359              		.cfi_endproc
 1360              	.LFE23:
 1362              		.section	.text.UI_SlideBar_SetCallBack,"ax",%progbits
 1363              		.align	1
 1364              		.syntax unified
 1365              		.thumb
 1366              		.thumb_func
 1367              		.fpu fpv4-sp-d16
 1369              	UI_SlideBar_SetCallBack:
 1370              	.LVL121:
 1371              	.LFB24:
 623:Dsp/widget/wgt_core/UI_Controller.c **** 
 624:Dsp/widget/wgt_core/UI_Controller.c **** static bool UI_SlideBar_SetCallBack(UI_SlideBarObj_TypeDef *Obj, UI_SliderBarTrigger_Callback callb
 625:Dsp/widget/wgt_core/UI_Controller.c **** {
 1372              		.loc 1 625 1 is_stmt 1 view -0
 1373              		.cfi_startproc
 1374              		@ args = 0, pretend = 0, frame = 0
 1375              		@ frame_needed = 0, uses_anonymous_args = 0
 1376              		@ link register save eliminated.
 626:Dsp/widget/wgt_core/UI_Controller.c ****     if (Obj == NULL)
 1377              		.loc 1 626 5 view .LVU375
 1378              		.loc 1 626 8 is_stmt 0 view .LVU376
 1379 0000 18B1     		cbz	r0, .L135
 627:Dsp/widget/wgt_core/UI_Controller.c ****         return false;
 628:Dsp/widget/wgt_core/UI_Controller.c **** 
 629:Dsp/widget/wgt_core/UI_Controller.c ****     Obj->callback = callback;
 1380              		.loc 1 629 5 is_stmt 1 view .LVU377
 1381              		.loc 1 629 19 is_stmt 0 view .LVU378
 1382 0002 C0F80D10 		str	r1, [r0, #13]	@ unaligned
 630:Dsp/widget/wgt_core/UI_Controller.c **** 
 631:Dsp/widget/wgt_core/UI_Controller.c ****     return true;
 1383              		.loc 1 631 5 is_stmt 1 view .LVU379
 1384              		.loc 1 631 12 is_stmt 0 view .LVU380
 1385 0006 0120     		movs	r0, #1
 1386              	.LVL122:
 1387              		.loc 1 631 12 view .LVU381
 1388 0008 7047     		bx	lr
 1389              	.LVL123:
 1390              	.L135:
 627:Dsp/widget/wgt_core/UI_Controller.c ****         return false;
 1391              		.loc 1 627 16 view .LVU382
 1392 000a 0020     		movs	r0, #0
 1393              	.LVL124:
 632:Dsp/widget/wgt_core/UI_Controller.c **** }
 1394              		.loc 1 632 1 view .LVU383
 1395 000c 7047     		bx	lr
ARM GAS  /var/folders/lx/hc4sn_b53233_zkc9xbbl97r0000gp/T//cc4iWlrc.s 			page 38


 1396              		.cfi_endproc
 1397              	.LFE24:
 1399              		.section	.text.UI_SlideBar_Input,"ax",%progbits
 1400              		.align	1
 1401              		.syntax unified
 1402              		.thumb
 1403              		.thumb_func
 1404              		.fpu fpv4-sp-d16
 1406              	UI_SlideBar_Input:
 1407              	.LVL125:
 1408              	.LFB25:
 633:Dsp/widget/wgt_core/UI_Controller.c **** 
 634:Dsp/widget/wgt_core/UI_Controller.c **** static bool UI_SlideBar_Input(UI_SlideBarObj_TypeDef *Obj, int16_t *step)
 635:Dsp/widget/wgt_core/UI_Controller.c **** {
 1409              		.loc 1 635 1 is_stmt 1 view -0
 1410              		.cfi_startproc
 1411              		@ args = 0, pretend = 0, frame = 0
 1412              		@ frame_needed = 0, uses_anonymous_args = 0
 1413              		@ link register save eliminated.
 636:Dsp/widget/wgt_core/UI_Controller.c ****     float val_tmp = 0;
 1414              		.loc 1 636 5 view .LVU385
 637:Dsp/widget/wgt_core/UI_Controller.c **** 
 638:Dsp/widget/wgt_core/UI_Controller.c ****     if ((Obj == NULL) || (step == NULL))
 1415              		.loc 1 638 5 view .LVU386
 1416              		.loc 1 638 8 is_stmt 0 view .LVU387
 1417 0000 0346     		mov	r3, r0
 1418 0002 90B3     		cbz	r0, .L143
 1419              		.loc 1 638 23 discriminator 1 view .LVU388
 1420 0004 99B3     		cbz	r1, .L144
 639:Dsp/widget/wgt_core/UI_Controller.c ****         return false;
 640:Dsp/widget/wgt_core/UI_Controller.c **** 
 641:Dsp/widget/wgt_core/UI_Controller.c ****     val_tmp = Obj->cur_val + ((*step) * Obj->scale);
 1421              		.loc 1 641 5 is_stmt 1 view .LVU389
 1422              		.loc 1 641 18 is_stmt 0 view .LVU390
 1423 0006 D0F81F20 		ldr	r2, [r0, #31]	@ unaligned
 1424              		.loc 1 641 32 view .LVU391
 1425 000a B1F90000 		ldrsh	r0, [r1]
 1426              	.LVL126:
 1427              		.loc 1 641 32 view .LVU392
 1428 000e 07EE900A 		vmov	s15, r0	@ int
 1429              		.loc 1 641 44 view .LVU393
 1430 0012 D3F81900 		ldr	r0, [r3, #25]	@ unaligned
 1431              		.loc 1 641 39 view .LVU394
 1432 0016 B8EEE77A 		vcvt.f32.s32	s14, s15
 1433 001a 07EE900A 		vmov	s15, r0
 1434 001e 67EE277A 		vmul.f32	s15, s14, s15
 1435              		.loc 1 641 13 view .LVU395
 1436 0022 07EE102A 		vmov	s14, r2
 1437 0026 77EE277A 		vadd.f32	s15, s14, s15
 1438              	.LVL127:
 642:Dsp/widget/wgt_core/UI_Controller.c **** 
 643:Dsp/widget/wgt_core/UI_Controller.c ****     if (val_tmp >= Obj->limit_max)
 1439              		.loc 1 643 5 is_stmt 1 view .LVU396
 1440              		.loc 1 643 23 is_stmt 0 view .LVU397
 1441 002a D3F81520 		ldr	r2, [r3, #21]	@ unaligned
 1442              		.loc 1 643 8 view .LVU398
 1443 002e 07EE102A 		vmov	s14, r2
ARM GAS  /var/folders/lx/hc4sn_b53233_zkc9xbbl97r0000gp/T//cc4iWlrc.s 			page 39


 1444 0032 B4EEE77A 		vcmpe.f32	s14, s15
 1445 0036 F1EE10FA 		vmrs	APSR_nzcv, FPSCR
 1446 003a 05D8     		bhi	.L147
 644:Dsp/widget/wgt_core/UI_Controller.c ****     {
 645:Dsp/widget/wgt_core/UI_Controller.c ****         Obj->cur_val = Obj->limit_max;
 1447              		.loc 1 645 9 is_stmt 1 view .LVU399
 1448              		.loc 1 645 22 is_stmt 0 view .LVU400
 1449 003c C3F81F20 		str	r2, [r3, #31]	@ unaligned
 1450              	.L140:
 646:Dsp/widget/wgt_core/UI_Controller.c ****     }
 647:Dsp/widget/wgt_core/UI_Controller.c ****     else if (val_tmp <= Obj->limit_min)
 648:Dsp/widget/wgt_core/UI_Controller.c ****     {
 649:Dsp/widget/wgt_core/UI_Controller.c ****         Obj->cur_val = Obj->limit_min;
 650:Dsp/widget/wgt_core/UI_Controller.c ****     }
 651:Dsp/widget/wgt_core/UI_Controller.c ****     else
 652:Dsp/widget/wgt_core/UI_Controller.c ****         Obj->cur_val = val_tmp;
 653:Dsp/widget/wgt_core/UI_Controller.c **** 
 654:Dsp/widget/wgt_core/UI_Controller.c ****     (*step) = 0;
 1451              		.loc 1 654 5 is_stmt 1 view .LVU401
 1452              		.loc 1 654 13 is_stmt 0 view .LVU402
 1453 0040 0023     		movs	r3, #0
 1454              	.LVL128:
 1455              		.loc 1 654 13 view .LVU403
 1456 0042 0B80     		strh	r3, [r1]	@ movhi
 655:Dsp/widget/wgt_core/UI_Controller.c **** 
 656:Dsp/widget/wgt_core/UI_Controller.c ****     return true;
 1457              		.loc 1 656 5 is_stmt 1 view .LVU404
 1458              		.loc 1 656 12 is_stmt 0 view .LVU405
 1459 0044 0120     		movs	r0, #1
 1460 0046 7047     		bx	lr
 1461              	.LVL129:
 1462              	.L147:
 647:Dsp/widget/wgt_core/UI_Controller.c ****     {
 1463              		.loc 1 647 10 is_stmt 1 view .LVU406
 647:Dsp/widget/wgt_core/UI_Controller.c ****     {
 1464              		.loc 1 647 28 is_stmt 0 view .LVU407
 1465 0048 D3F81120 		ldr	r2, [r3, #17]	@ unaligned
 647:Dsp/widget/wgt_core/UI_Controller.c ****     {
 1466              		.loc 1 647 13 view .LVU408
 1467 004c 07EE102A 		vmov	s14, r2
 1468 0050 B4EEE77A 		vcmpe.f32	s14, s15
 1469 0054 F1EE10FA 		vmrs	APSR_nzcv, FPSCR
 1470 0058 02DB     		blt	.L148
 649:Dsp/widget/wgt_core/UI_Controller.c ****     }
 1471              		.loc 1 649 9 is_stmt 1 view .LVU409
 649:Dsp/widget/wgt_core/UI_Controller.c ****     }
 1472              		.loc 1 649 22 is_stmt 0 view .LVU410
 1473 005a C3F81F20 		str	r2, [r3, #31]	@ unaligned
 1474 005e EFE7     		b	.L140
 1475              	.L148:
 652:Dsp/widget/wgt_core/UI_Controller.c **** 
 1476              		.loc 1 652 9 is_stmt 1 view .LVU411
 652:Dsp/widget/wgt_core/UI_Controller.c **** 
 1477              		.loc 1 652 22 is_stmt 0 view .LVU412
 1478 0060 17EE902A 		vmov	r2, s15
 1479 0064 C3F81F20 		str	r2, [r3, #31]	@ unaligned
 1480 0068 EAE7     		b	.L140
ARM GAS  /var/folders/lx/hc4sn_b53233_zkc9xbbl97r0000gp/T//cc4iWlrc.s 			page 40


 1481              	.LVL130:
 1482              	.L143:
 639:Dsp/widget/wgt_core/UI_Controller.c **** 
 1483              		.loc 1 639 16 view .LVU413
 1484 006a 0020     		movs	r0, #0
 1485              	.LVL131:
 639:Dsp/widget/wgt_core/UI_Controller.c **** 
 1486              		.loc 1 639 16 view .LVU414
 1487 006c 7047     		bx	lr
 1488              	.LVL132:
 1489              	.L144:
 639:Dsp/widget/wgt_core/UI_Controller.c **** 
 1490              		.loc 1 639 16 view .LVU415
 1491 006e 0020     		movs	r0, #0
 1492              	.LVL133:
 657:Dsp/widget/wgt_core/UI_Controller.c **** }
 1493              		.loc 1 657 1 view .LVU416
 1494 0070 7047     		bx	lr
 1495              		.cfi_endproc
 1496              	.LFE25:
 1498              		.section	.text.UI_SlideBar_Trigger,"ax",%progbits
 1499              		.align	1
 1500              		.syntax unified
 1501              		.thumb
 1502              		.thumb_func
 1503              		.fpu fpv4-sp-d16
 1505              	UI_SlideBar_Trigger:
 1506              	.LVL134:
 1507              	.LFB26:
 658:Dsp/widget/wgt_core/UI_Controller.c **** 
 659:Dsp/widget/wgt_core/UI_Controller.c **** static bool UI_SlideBar_Trigger(UI_SlideBarObj_TypeDef *Obj)
 660:Dsp/widget/wgt_core/UI_Controller.c **** {
 1508              		.loc 1 660 1 is_stmt 1 view -0
 1509              		.cfi_startproc
 1510              		@ args = 0, pretend = 0, frame = 0
 1511              		@ frame_needed = 0, uses_anonymous_args = 0
 661:Dsp/widget/wgt_core/UI_Controller.c ****     if (Obj == NULL)
 1512              		.loc 1 661 5 view .LVU418
 1513              		.loc 1 661 8 is_stmt 0 view .LVU419
 1514 0000 78B1     		cbz	r0, .L151
 660:Dsp/widget/wgt_core/UI_Controller.c ****     if (Obj == NULL)
 1515              		.loc 1 660 1 view .LVU420
 1516 0002 08B5     		push	{r3, lr}
 1517              	.LCFI26:
 1518              		.cfi_def_cfa_offset 8
 1519              		.cfi_offset 3, -8
 1520              		.cfi_offset 14, -4
 662:Dsp/widget/wgt_core/UI_Controller.c ****         return false;
 663:Dsp/widget/wgt_core/UI_Controller.c **** 
 664:Dsp/widget/wgt_core/UI_Controller.c ****     if (Obj->callback != NULL)
 1521              		.loc 1 664 5 is_stmt 1 view .LVU421
 1522              		.loc 1 664 12 is_stmt 0 view .LVU422
 1523 0004 D0F80D20 		ldr	r2, [r0, #13]	@ unaligned
 1524              		.loc 1 664 8 view .LVU423
 1525 0008 6AB1     		cbz	r2, .L152
 665:Dsp/widget/wgt_core/UI_Controller.c ****         Obj->callback(Obj->cur_val);
 1526              		.loc 1 665 9 is_stmt 1 view .LVU424
ARM GAS  /var/folders/lx/hc4sn_b53233_zkc9xbbl97r0000gp/T//cc4iWlrc.s 			page 41


 1527              		.loc 1 665 26 is_stmt 0 view .LVU425
 1528 000a D0F81F30 		ldr	r3, [r0, #31]	@ unaligned
 1529 000e 07EE903A 		vmov	s15, r3	@ int
 1530              		.loc 1 665 9 view .LVU426
 1531 0012 FDEEE77A 		vcvt.s32.f32	s15, s15
 1532 0016 17EE903A 		vmov	r3, s15	@ int
 1533 001a 18B2     		sxth	r0, r3
 1534              	.LVL135:
 1535              		.loc 1 665 9 view .LVU427
 1536 001c 9047     		blx	r2
 1537              	.LVL136:
 666:Dsp/widget/wgt_core/UI_Controller.c **** 
 667:Dsp/widget/wgt_core/UI_Controller.c ****     return true;
 1538              		.loc 1 667 12 view .LVU428
 1539 001e 0120     		movs	r0, #1
 1540              	.L150:
 668:Dsp/widget/wgt_core/UI_Controller.c **** }
 1541              		.loc 1 668 1 view .LVU429
 1542 0020 08BD     		pop	{r3, pc}
 1543              	.LVL137:
 1544              	.L151:
 1545              	.LCFI27:
 1546              		.cfi_def_cfa_offset 0
 1547              		.cfi_restore 3
 1548              		.cfi_restore 14
 662:Dsp/widget/wgt_core/UI_Controller.c **** 
 1549              		.loc 1 662 16 view .LVU430
 1550 0022 0020     		movs	r0, #0
 1551              	.LVL138:
 1552              		.loc 1 668 1 view .LVU431
 1553 0024 7047     		bx	lr
 1554              	.LVL139:
 1555              	.L152:
 1556              	.LCFI28:
 1557              		.cfi_def_cfa_offset 8
 1558              		.cfi_offset 3, -8
 1559              		.cfi_offset 14, -4
 667:Dsp/widget/wgt_core/UI_Controller.c **** }
 1560              		.loc 1 667 12 view .LVU432
 1561 0026 0120     		movs	r0, #1
 1562              	.LVL140:
 667:Dsp/widget/wgt_core/UI_Controller.c **** }
 1563              		.loc 1 667 12 view .LVU433
 1564 0028 FAE7     		b	.L150
 1565              		.cfi_endproc
 1566              	.LFE26:
 1568              		.section	.text.UI_SlideBar_SetSelect,"ax",%progbits
 1569              		.align	1
 1570              		.syntax unified
 1571              		.thumb
 1572              		.thumb_func
 1573              		.fpu fpv4-sp-d16
 1575              	UI_SlideBar_SetSelect:
 1576              	.LVL141:
 1577              	.LFB28:
 669:Dsp/widget/wgt_core/UI_Controller.c **** 
 670:Dsp/widget/wgt_core/UI_Controller.c **** static bool UI_SlideBar_CTL(UI_SlideBarObj_TypeDef *Obj)
ARM GAS  /var/folders/lx/hc4sn_b53233_zkc9xbbl97r0000gp/T//cc4iWlrc.s 			page 42


 671:Dsp/widget/wgt_core/UI_Controller.c **** {
 672:Dsp/widget/wgt_core/UI_Controller.c ****     int16_t Block_CoordX = 0;
 673:Dsp/widget/wgt_core/UI_Controller.c ****     int16_t Block_CoordY = 0;
 674:Dsp/widget/wgt_core/UI_Controller.c ****     int16_t input_trip = 0;
 675:Dsp/widget/wgt_core/UI_Controller.c ****     int16_t str_y = Obj->Gen_Data.y;
 676:Dsp/widget/wgt_core/UI_Controller.c **** 
 677:Dsp/widget/wgt_core/UI_Controller.c ****     if ((Obj == NULL) ||
 678:Dsp/widget/wgt_core/UI_Controller.c ****         (UI_DspInterface.draw_str == NULL) ||
 679:Dsp/widget/wgt_core/UI_Controller.c ****         (UI_DspInterface.fill_rectangle == NULL))
 680:Dsp/widget/wgt_core/UI_Controller.c ****         return false;
 681:Dsp/widget/wgt_core/UI_Controller.c **** 
 682:Dsp/widget/wgt_core/UI_Controller.c ****     if (base_font == Font_8)
 683:Dsp/widget/wgt_core/UI_Controller.c ****         str_y += 1;
 684:Dsp/widget/wgt_core/UI_Controller.c **** 
 685:Dsp/widget/wgt_core/UI_Controller.c ****     input_trip = Obj->limit_max - Obj->limit_min;
 686:Dsp/widget/wgt_core/UI_Controller.c **** 
 687:Dsp/widget/wgt_core/UI_Controller.c ****     UI_DspInterface.draw_str(base_font, Obj->Gen_Data.label, Obj->Gen_Data.x + 3, str_y, true);
 688:Dsp/widget/wgt_core/UI_Controller.c **** 
 689:Dsp/widget/wgt_core/UI_Controller.c ****     if (Obj->mode == SliderBar_Horizon_Mode)
 690:Dsp/widget/wgt_core/UI_Controller.c ****     {
 691:Dsp/widget/wgt_core/UI_Controller.c ****         if (Obj->BarCoord_X == 0)
 692:Dsp/widget/wgt_core/UI_Controller.c ****         {
 693:Dsp/widget/wgt_core/UI_Controller.c ****             Obj->BarCoord_X = Obj->Gen_Data.x + strlen(Obj->Gen_Data.label) * STR_DIS + DEFAULT_SLI
 694:Dsp/widget/wgt_core/UI_Controller.c ****         }
 695:Dsp/widget/wgt_core/UI_Controller.c **** 
 696:Dsp/widget/wgt_core/UI_Controller.c ****         if (Obj->BarCoord_Y == 0)
 697:Dsp/widget/wgt_core/UI_Controller.c ****         {
 698:Dsp/widget/wgt_core/UI_Controller.c ****             Obj->BarCoord_Y = Obj->Gen_Data.y + 5;
 699:Dsp/widget/wgt_core/UI_Controller.c ****         }
 700:Dsp/widget/wgt_core/UI_Controller.c **** 
 701:Dsp/widget/wgt_core/UI_Controller.c ****         Block_CoordX = Obj->BarCoord_X;
 702:Dsp/widget/wgt_core/UI_Controller.c ****         Block_CoordX += (Obj->cur_val - Obj->limit_min) / ((float)(input_trip)) * (DEFAULT_SLIDERBA
 703:Dsp/widget/wgt_core/UI_Controller.c **** 
 704:Dsp/widget/wgt_core/UI_Controller.c ****         UI_DspInterface.fill_rectangle(Obj->BarCoord_X, Obj->BarCoord_Y, DEFAULT_SLIDERBAR_LEN, DEF
 705:Dsp/widget/wgt_core/UI_Controller.c **** 
 706:Dsp/widget/wgt_core/UI_Controller.c ****         Block_CoordY = Obj->Gen_Data.y + 3;
 707:Dsp/widget/wgt_core/UI_Controller.c ****         UI_DspInterface.fill_rectangle(Block_CoordX, Block_CoordY, DEFAULT_SLIDERBAR_BLOCK_WIDTH, D
 708:Dsp/widget/wgt_core/UI_Controller.c ****         UI_DspInterface.fill_rectangle(Block_CoordX, Block_CoordY + (DEFAULT_SLIDERBAR_BLOCK_HIGH /
 709:Dsp/widget/wgt_core/UI_Controller.c ****     }
 710:Dsp/widget/wgt_core/UI_Controller.c ****     else if (Obj->mode == SliderBar_Vertical_Mode)
 711:Dsp/widget/wgt_core/UI_Controller.c ****     {
 712:Dsp/widget/wgt_core/UI_Controller.c ****     }
 713:Dsp/widget/wgt_core/UI_Controller.c ****     else
 714:Dsp/widget/wgt_core/UI_Controller.c ****         return false;
 715:Dsp/widget/wgt_core/UI_Controller.c **** 
 716:Dsp/widget/wgt_core/UI_Controller.c ****     return true;
 717:Dsp/widget/wgt_core/UI_Controller.c **** }
 718:Dsp/widget/wgt_core/UI_Controller.c **** 
 719:Dsp/widget/wgt_core/UI_Controller.c **** static void UI_SlideBar_SetSelect(UI_SlideBarObj_TypeDef *Obj, bool select)
 720:Dsp/widget/wgt_core/UI_Controller.c **** {
 1578              		.loc 1 720 1 is_stmt 1 view -0
 1579              		.cfi_startproc
 1580              		@ args = 0, pretend = 0, frame = 0
 1581              		@ frame_needed = 0, uses_anonymous_args = 0
 1582              		@ link register save eliminated.
 721:Dsp/widget/wgt_core/UI_Controller.c ****     if (Obj == NULL)
 1583              		.loc 1 721 5 view .LVU435
ARM GAS  /var/folders/lx/hc4sn_b53233_zkc9xbbl97r0000gp/T//cc4iWlrc.s 			page 43


 1584              		.loc 1 721 8 is_stmt 0 view .LVU436
 1585 0000 10B1     		cbz	r0, .L157
 722:Dsp/widget/wgt_core/UI_Controller.c ****         return;
 723:Dsp/widget/wgt_core/UI_Controller.c **** 
 724:Dsp/widget/wgt_core/UI_Controller.c ****     Obj->is_selected = true;
 1586              		.loc 1 724 5 is_stmt 1 view .LVU437
 1587              		.loc 1 724 22 is_stmt 0 view .LVU438
 1588 0002 0122     		movs	r2, #1
 1589 0004 80F82320 		strb	r2, [r0, #35]
 1590              	.L157:
 725:Dsp/widget/wgt_core/UI_Controller.c **** }
 1591              		.loc 1 725 1 view .LVU439
 1592 0008 7047     		bx	lr
 1593              		.cfi_endproc
 1594              	.LFE28:
 1596              		.section	.text.UI_SlideBar_IsSelected,"ax",%progbits
 1597              		.align	1
 1598              		.syntax unified
 1599              		.thumb
 1600              		.thumb_func
 1601              		.fpu fpv4-sp-d16
 1603              	UI_SlideBar_IsSelected:
 1604              	.LVL142:
 1605              	.LFB29:
 726:Dsp/widget/wgt_core/UI_Controller.c **** 
 727:Dsp/widget/wgt_core/UI_Controller.c **** static bool UI_SlideBar_IsSelected(UI_SlideBarObj_TypeDef *Obj)
 728:Dsp/widget/wgt_core/UI_Controller.c **** {
 1606              		.loc 1 728 1 is_stmt 1 view -0
 1607              		.cfi_startproc
 1608              		@ args = 0, pretend = 0, frame = 0
 1609              		@ frame_needed = 0, uses_anonymous_args = 0
 1610              		@ link register save eliminated.
 729:Dsp/widget/wgt_core/UI_Controller.c ****     if (Obj == NULL)
 1611              		.loc 1 729 5 view .LVU441
 1612              		.loc 1 729 8 is_stmt 0 view .LVU442
 1613 0000 10B1     		cbz	r0, .L161
 730:Dsp/widget/wgt_core/UI_Controller.c ****         return false;
 731:Dsp/widget/wgt_core/UI_Controller.c **** 
 732:Dsp/widget/wgt_core/UI_Controller.c ****     return Obj->is_selected;
 1614              		.loc 1 732 5 is_stmt 1 view .LVU443
 1615              		.loc 1 732 15 is_stmt 0 view .LVU444
 1616 0002 90F82300 		ldrb	r0, [r0, #35]	@ zero_extendqisi2
 1617              	.LVL143:
 1618              		.loc 1 732 15 view .LVU445
 1619 0006 7047     		bx	lr
 1620              	.LVL144:
 1621              	.L161:
 730:Dsp/widget/wgt_core/UI_Controller.c ****         return false;
 1622              		.loc 1 730 16 view .LVU446
 1623 0008 0020     		movs	r0, #0
 1624              	.LVL145:
 733:Dsp/widget/wgt_core/UI_Controller.c **** }
 1625              		.loc 1 733 1 view .LVU447
 1626 000a 7047     		bx	lr
 1627              		.cfi_endproc
 1628              	.LFE29:
 1630              		.section	.text.UI_ProcessBar_Init,"ax",%progbits
ARM GAS  /var/folders/lx/hc4sn_b53233_zkc9xbbl97r0000gp/T//cc4iWlrc.s 			page 44


 1631              		.align	1
 1632              		.syntax unified
 1633              		.thumb
 1634              		.thumb_func
 1635              		.fpu fpv4-sp-d16
 1637              	UI_ProcessBar_Init:
 1638              	.LVL146:
 1639              	.LFB30:
 734:Dsp/widget/wgt_core/UI_Controller.c **** 
 735:Dsp/widget/wgt_core/UI_Controller.c **** static bool UI_ProcessBar_Init(UI_ProcessBarObj_TypeDef *Obj, UI_ProcessBar_DspType_List dsp_type, 
 736:Dsp/widget/wgt_core/UI_Controller.c **** {
 1640              		.loc 1 736 1 is_stmt 1 view -0
 1641              		.cfi_startproc
 1642              		@ args = 16, pretend = 0, frame = 0
 1643              		@ frame_needed = 0, uses_anonymous_args = 0
 1644              		.loc 1 736 1 is_stmt 0 view .LVU449
 1645 0000 F8B5     		push	{r3, r4, r5, r6, r7, lr}
 1646              	.LCFI29:
 1647              		.cfi_def_cfa_offset 24
 1648              		.cfi_offset 3, -24
 1649              		.cfi_offset 4, -20
 1650              		.cfi_offset 5, -16
 1651              		.cfi_offset 6, -12
 1652              		.cfi_offset 7, -8
 1653              		.cfi_offset 14, -4
 1654 0002 089F     		ldr	r7, [sp, #32]
 1655 0004 099D     		ldr	r5, [sp, #36]
 737:Dsp/widget/wgt_core/UI_Controller.c ****     if ((Obj == NULL) || (min > max))
 1656              		.loc 1 737 5 is_stmt 1 view .LVU450
 1657              		.loc 1 737 8 is_stmt 0 view .LVU451
 1658 0006 B0B3     		cbz	r0, .L167
 1659 0008 0E46     		mov	r6, r1
 1660 000a 1146     		mov	r1, r2
 1661              	.LVL147:
 1662              		.loc 1 737 8 view .LVU452
 1663 000c 1A46     		mov	r2, r3
 1664              	.LVL148:
 1665              		.loc 1 737 8 view .LVU453
 1666 000e 0446     		mov	r4, r0
 1667              		.loc 1 737 23 discriminator 1 view .LVU454
 1668 0010 AF42     		cmp	r7, r5
 1669 0012 01DD     		ble	.L170
 738:Dsp/widget/wgt_core/UI_Controller.c ****         return false;
 1670              		.loc 1 738 16 view .LVU455
 1671 0014 0020     		movs	r0, #0
 1672              	.LVL149:
 1673              	.L163:
 739:Dsp/widget/wgt_core/UI_Controller.c **** 
 740:Dsp/widget/wgt_core/UI_Controller.c ****     UI_GenData_Init(&Obj->Gen_Data, label, x, y);
 741:Dsp/widget/wgt_core/UI_Controller.c **** 
 742:Dsp/widget/wgt_core/UI_Controller.c ****     Obj->width = width;
 743:Dsp/widget/wgt_core/UI_Controller.c **** 
 744:Dsp/widget/wgt_core/UI_Controller.c ****     switch (base_font)
 745:Dsp/widget/wgt_core/UI_Controller.c ****     {
 746:Dsp/widget/wgt_core/UI_Controller.c ****     case Font_8:
 747:Dsp/widget/wgt_core/UI_Controller.c ****         Obj->height = base_font + 6;
 748:Dsp/widget/wgt_core/UI_Controller.c ****         break;
ARM GAS  /var/folders/lx/hc4sn_b53233_zkc9xbbl97r0000gp/T//cc4iWlrc.s 			page 45


 749:Dsp/widget/wgt_core/UI_Controller.c **** 
 750:Dsp/widget/wgt_core/UI_Controller.c ****     case Font_12:
 751:Dsp/widget/wgt_core/UI_Controller.c ****     case Font_16:
 752:Dsp/widget/wgt_core/UI_Controller.c ****         /* need modify */
 753:Dsp/widget/wgt_core/UI_Controller.c ****         Obj->height = base_font + 6;
 754:Dsp/widget/wgt_core/UI_Controller.c ****         break;
 755:Dsp/widget/wgt_core/UI_Controller.c **** 
 756:Dsp/widget/wgt_core/UI_Controller.c ****     default:
 757:Dsp/widget/wgt_core/UI_Controller.c ****         Obj->height = base_font + 6;
 758:Dsp/widget/wgt_core/UI_Controller.c ****         break;
 759:Dsp/widget/wgt_core/UI_Controller.c ****     }
 760:Dsp/widget/wgt_core/UI_Controller.c **** 
 761:Dsp/widget/wgt_core/UI_Controller.c ****     Obj->height = base_font + 6;
 762:Dsp/widget/wgt_core/UI_Controller.c **** 
 763:Dsp/widget/wgt_core/UI_Controller.c ****     Obj->cur_val = 0;
 764:Dsp/widget/wgt_core/UI_Controller.c ****     Obj->max = max;
 765:Dsp/widget/wgt_core/UI_Controller.c ****     Obj->min = min;
 766:Dsp/widget/wgt_core/UI_Controller.c ****     Obj->range = max - min;
 767:Dsp/widget/wgt_core/UI_Controller.c **** 
 768:Dsp/widget/wgt_core/UI_Controller.c ****     Obj->percent = 0.0;
 769:Dsp/widget/wgt_core/UI_Controller.c **** 
 770:Dsp/widget/wgt_core/UI_Controller.c ****     Obj->Dsp_Type = dsp_type;
 771:Dsp/widget/wgt_core/UI_Controller.c ****     Obj->Mv_Dir = UI_ProcBar_GrothDir_Default;
 772:Dsp/widget/wgt_core/UI_Controller.c **** 
 773:Dsp/widget/wgt_core/UI_Controller.c ****     return true;
 774:Dsp/widget/wgt_core/UI_Controller.c **** }
 1674              		.loc 1 774 1 view .LVU456
 1675 0016 F8BD     		pop	{r3, r4, r5, r6, r7, pc}
 1676              	.LVL150:
 1677              	.L170:
 740:Dsp/widget/wgt_core/UI_Controller.c **** 
 1678              		.loc 1 740 5 is_stmt 1 view .LVU457
 1679 0018 BDF91830 		ldrsh	r3, [sp, #24]
 1680              	.LVL151:
 740:Dsp/widget/wgt_core/UI_Controller.c **** 
 1681              		.loc 1 740 5 is_stmt 0 view .LVU458
 1682 001c FFF7FEFF 		bl	UI_GenData_Init
 1683              	.LVL152:
 742:Dsp/widget/wgt_core/UI_Controller.c **** 
 1684              		.loc 1 742 5 is_stmt 1 view .LVU459
 742:Dsp/widget/wgt_core/UI_Controller.c **** 
 1685              		.loc 1 742 16 is_stmt 0 view .LVU460
 1686 0020 9DF81C30 		ldrb	r3, [sp, #28]	@ zero_extendqisi2
 1687 0024 84F82030 		strb	r3, [r4, #32]
 744:Dsp/widget/wgt_core/UI_Controller.c ****     {
 1688              		.loc 1 744 5 is_stmt 1 view .LVU461
 1689 0028 144B     		ldr	r3, .L172
 1690 002a 1B78     		ldrb	r3, [r3]	@ zero_extendqisi2
 1691 002c 0C2B     		cmp	r3, #12
 1692 002e 1ED0     		beq	.L164
 1693 0030 102B     		cmp	r3, #16
 1694 0032 1CD0     		beq	.L164
 1695 0034 082B     		cmp	r3, #8
 1696 0036 03D0     		beq	.L171
 757:Dsp/widget/wgt_core/UI_Controller.c ****         break;
 1697              		.loc 1 757 9 view .LVU462
 757:Dsp/widget/wgt_core/UI_Controller.c ****         break;
ARM GAS  /var/folders/lx/hc4sn_b53233_zkc9xbbl97r0000gp/T//cc4iWlrc.s 			page 46


 1698              		.loc 1 757 33 is_stmt 0 view .LVU463
 1699 0038 9A1D     		adds	r2, r3, #6
 757:Dsp/widget/wgt_core/UI_Controller.c ****         break;
 1700              		.loc 1 757 21 view .LVU464
 1701 003a 84F82120 		strb	r2, [r4, #33]
 758:Dsp/widget/wgt_core/UI_Controller.c ****     }
 1702              		.loc 1 758 9 is_stmt 1 view .LVU465
 1703 003e 02E0     		b	.L166
 1704              	.L171:
 747:Dsp/widget/wgt_core/UI_Controller.c ****         break;
 1705              		.loc 1 747 9 view .LVU466
 747:Dsp/widget/wgt_core/UI_Controller.c ****         break;
 1706              		.loc 1 747 33 is_stmt 0 view .LVU467
 1707 0040 9A1D     		adds	r2, r3, #6
 747:Dsp/widget/wgt_core/UI_Controller.c ****         break;
 1708              		.loc 1 747 21 view .LVU468
 1709 0042 84F82120 		strb	r2, [r4, #33]
 748:Dsp/widget/wgt_core/UI_Controller.c **** 
 1710              		.loc 1 748 9 is_stmt 1 view .LVU469
 1711              	.L166:
 761:Dsp/widget/wgt_core/UI_Controller.c **** 
 1712              		.loc 1 761 5 view .LVU470
 761:Dsp/widget/wgt_core/UI_Controller.c **** 
 1713              		.loc 1 761 29 is_stmt 0 view .LVU471
 1714 0046 0633     		adds	r3, r3, #6
 761:Dsp/widget/wgt_core/UI_Controller.c **** 
 1715              		.loc 1 761 17 view .LVU472
 1716 0048 84F82130 		strb	r3, [r4, #33]
 763:Dsp/widget/wgt_core/UI_Controller.c ****     Obj->max = max;
 1717              		.loc 1 763 5 is_stmt 1 view .LVU473
 763:Dsp/widget/wgt_core/UI_Controller.c ****     Obj->max = max;
 1718              		.loc 1 763 18 is_stmt 0 view .LVU474
 1719 004c 0023     		movs	r3, #0
 1720 004e 2377     		strb	r3, [r4, #28]
 1721 0050 6377     		strb	r3, [r4, #29]
 1722 0052 A377     		strb	r3, [r4, #30]
 1723 0054 E377     		strb	r3, [r4, #31]
 764:Dsp/widget/wgt_core/UI_Controller.c ****     Obj->min = min;
 1724              		.loc 1 764 5 is_stmt 1 view .LVU475
 764:Dsp/widget/wgt_core/UI_Controller.c ****     Obj->min = min;
 1725              		.loc 1 764 14 is_stmt 0 view .LVU476
 1726 0056 6561     		str	r5, [r4, #20]	@ unaligned
 765:Dsp/widget/wgt_core/UI_Controller.c ****     Obj->range = max - min;
 1727              		.loc 1 765 5 is_stmt 1 view .LVU477
 765:Dsp/widget/wgt_core/UI_Controller.c ****     Obj->range = max - min;
 1728              		.loc 1 765 14 is_stmt 0 view .LVU478
 1729 0058 2761     		str	r7, [r4, #16]	@ unaligned
 766:Dsp/widget/wgt_core/UI_Controller.c **** 
 1730              		.loc 1 766 5 is_stmt 1 view .LVU479
 766:Dsp/widget/wgt_core/UI_Controller.c **** 
 1731              		.loc 1 766 22 is_stmt 0 view .LVU480
 1732 005a ED1B     		subs	r5, r5, r7
 766:Dsp/widget/wgt_core/UI_Controller.c **** 
 1733              		.loc 1 766 16 view .LVU481
 1734 005c A561     		str	r5, [r4, #24]	@ unaligned
 768:Dsp/widget/wgt_core/UI_Controller.c **** 
 1735              		.loc 1 768 5 is_stmt 1 view .LVU482
ARM GAS  /var/folders/lx/hc4sn_b53233_zkc9xbbl97r0000gp/T//cc4iWlrc.s 			page 47


 768:Dsp/widget/wgt_core/UI_Controller.c **** 
 1736              		.loc 1 768 18 is_stmt 0 view .LVU483
 1737 005e 0022     		movs	r2, #0
 1738 0060 E260     		str	r2, [r4, #12]	@ unaligned
 770:Dsp/widget/wgt_core/UI_Controller.c ****     Obj->Mv_Dir = UI_ProcBar_GrothDir_Default;
 1739              		.loc 1 770 5 is_stmt 1 view .LVU484
 770:Dsp/widget/wgt_core/UI_Controller.c ****     Obj->Mv_Dir = UI_ProcBar_GrothDir_Default;
 1740              		.loc 1 770 19 is_stmt 0 view .LVU485
 1741 0062 84F82360 		strb	r6, [r4, #35]
 771:Dsp/widget/wgt_core/UI_Controller.c **** 
 1742              		.loc 1 771 5 is_stmt 1 view .LVU486
 771:Dsp/widget/wgt_core/UI_Controller.c **** 
 1743              		.loc 1 771 17 is_stmt 0 view .LVU487
 1744 0066 84F82430 		strb	r3, [r4, #36]
 773:Dsp/widget/wgt_core/UI_Controller.c **** }
 1745              		.loc 1 773 5 is_stmt 1 view .LVU488
 773:Dsp/widget/wgt_core/UI_Controller.c **** }
 1746              		.loc 1 773 12 is_stmt 0 view .LVU489
 1747 006a 0120     		movs	r0, #1
 1748 006c D3E7     		b	.L163
 1749              	.L164:
 753:Dsp/widget/wgt_core/UI_Controller.c ****         break;
 1750              		.loc 1 753 9 is_stmt 1 view .LVU490
 753:Dsp/widget/wgt_core/UI_Controller.c ****         break;
 1751              		.loc 1 753 33 is_stmt 0 view .LVU491
 1752 006e 9A1D     		adds	r2, r3, #6
 753:Dsp/widget/wgt_core/UI_Controller.c ****         break;
 1753              		.loc 1 753 21 view .LVU492
 1754 0070 84F82120 		strb	r2, [r4, #33]
 754:Dsp/widget/wgt_core/UI_Controller.c **** 
 1755              		.loc 1 754 9 is_stmt 1 view .LVU493
 1756 0074 E7E7     		b	.L166
 1757              	.LVL153:
 1758              	.L167:
 738:Dsp/widget/wgt_core/UI_Controller.c **** 
 1759              		.loc 1 738 16 is_stmt 0 view .LVU494
 1760 0076 0020     		movs	r0, #0
 1761              	.LVL154:
 738:Dsp/widget/wgt_core/UI_Controller.c **** 
 1762              		.loc 1 738 16 view .LVU495
 1763 0078 CDE7     		b	.L163
 1764              	.L173:
 1765 007a 00BF     		.align	2
 1766              	.L172:
 1767 007c 00000000 		.word	.LANCHOR2
 1768              		.cfi_endproc
 1769              	.LFE30:
 1771              		.section	.text.UI_ProcessBar_SetDspDir,"ax",%progbits
 1772              		.align	1
 1773              		.syntax unified
 1774              		.thumb
 1775              		.thumb_func
 1776              		.fpu fpv4-sp-d16
 1778              	UI_ProcessBar_SetDspDir:
 1779              	.LVL155:
 1780              	.LFB31:
 775:Dsp/widget/wgt_core/UI_Controller.c **** 
ARM GAS  /var/folders/lx/hc4sn_b53233_zkc9xbbl97r0000gp/T//cc4iWlrc.s 			page 48


 776:Dsp/widget/wgt_core/UI_Controller.c **** static bool UI_ProcessBar_SetDspDir(UI_ProcessBarObj_TypeDef *Obj, UI_ProcessBar_MoveDir_TypeDef Di
 777:Dsp/widget/wgt_core/UI_Controller.c **** {
 1781              		.loc 1 777 1 is_stmt 1 view -0
 1782              		.cfi_startproc
 1783              		@ args = 0, pretend = 0, frame = 0
 1784              		@ frame_needed = 0, uses_anonymous_args = 0
 1785              		@ link register save eliminated.
 778:Dsp/widget/wgt_core/UI_Controller.c ****     if (Obj == NULL)
 1786              		.loc 1 778 5 view .LVU497
 1787              		.loc 1 778 8 is_stmt 0 view .LVU498
 1788 0000 50B1     		cbz	r0, .L177
 779:Dsp/widget/wgt_core/UI_Controller.c ****         return false;
 780:Dsp/widget/wgt_core/UI_Controller.c **** 
 781:Dsp/widget/wgt_core/UI_Controller.c ****     if ((Dir > UI_ProcBar_GrothFrom_Mid) || (Dir < 0))
 1789              		.loc 1 781 5 is_stmt 1 view .LVU499
 1790              		.loc 1 781 8 is_stmt 0 view .LVU500
 1791 0002 0129     		cmp	r1, #1
 1792 0004 04D9     		bls	.L176
 782:Dsp/widget/wgt_core/UI_Controller.c ****         Obj->Mv_Dir = UI_ProcBar_GrothDir_Default;
 1793              		.loc 1 782 9 is_stmt 1 view .LVU501
 1794              		.loc 1 782 21 is_stmt 0 view .LVU502
 1795 0006 0022     		movs	r2, #0
 1796 0008 80F82420 		strb	r2, [r0, #36]
 783:Dsp/widget/wgt_core/UI_Controller.c ****     else
 784:Dsp/widget/wgt_core/UI_Controller.c ****         Obj->Mv_Dir = Dir;
 785:Dsp/widget/wgt_core/UI_Controller.c **** 
 786:Dsp/widget/wgt_core/UI_Controller.c ****     return true;
 1797              		.loc 1 786 12 view .LVU503
 1798 000c 0120     		movs	r0, #1
 1799              	.LVL156:
 1800              		.loc 1 786 12 view .LVU504
 1801 000e 7047     		bx	lr
 1802              	.LVL157:
 1803              	.L176:
 784:Dsp/widget/wgt_core/UI_Controller.c **** 
 1804              		.loc 1 784 9 is_stmt 1 view .LVU505
 784:Dsp/widget/wgt_core/UI_Controller.c **** 
 1805              		.loc 1 784 21 is_stmt 0 view .LVU506
 1806 0010 80F82410 		strb	r1, [r0, #36]
 1807              		.loc 1 786 12 view .LVU507
 1808 0014 0120     		movs	r0, #1
 1809              	.LVL158:
 1810              		.loc 1 786 12 view .LVU508
 1811 0016 7047     		bx	lr
 1812              	.LVL159:
 1813              	.L177:
 779:Dsp/widget/wgt_core/UI_Controller.c **** 
 1814              		.loc 1 779 16 view .LVU509
 1815 0018 0020     		movs	r0, #0
 1816              	.LVL160:
 787:Dsp/widget/wgt_core/UI_Controller.c **** }
 1817              		.loc 1 787 1 view .LVU510
 1818 001a 7047     		bx	lr
 1819              		.cfi_endproc
 1820              	.LFE31:
 1822              		.section	.text.UI_ProcessBar_SetCurVal,"ax",%progbits
 1823              		.align	1
ARM GAS  /var/folders/lx/hc4sn_b53233_zkc9xbbl97r0000gp/T//cc4iWlrc.s 			page 49


 1824              		.syntax unified
 1825              		.thumb
 1826              		.thumb_func
 1827              		.fpu fpv4-sp-d16
 1829              	UI_ProcessBar_SetCurVal:
 1830              	.LVL161:
 1831              	.LFB32:
 788:Dsp/widget/wgt_core/UI_Controller.c **** 
 789:Dsp/widget/wgt_core/UI_Controller.c **** static bool UI_ProcessBar_SetCurVal(UI_ProcessBarObj_TypeDef *Obj, int32_t val)
 790:Dsp/widget/wgt_core/UI_Controller.c **** {
 1832              		.loc 1 790 1 is_stmt 1 view -0
 1833              		.cfi_startproc
 1834              		@ args = 0, pretend = 0, frame = 0
 1835              		@ frame_needed = 0, uses_anonymous_args = 0
 1836              		@ link register save eliminated.
 791:Dsp/widget/wgt_core/UI_Controller.c ****     if (Obj == NULL)
 1837              		.loc 1 791 5 view .LVU512
 1838              		.loc 1 791 8 is_stmt 0 view .LVU513
 1839 0000 F0B1     		cbz	r0, .L183
 790:Dsp/widget/wgt_core/UI_Controller.c ****     if (Obj == NULL)
 1840              		.loc 1 790 1 view .LVU514
 1841 0002 10B4     		push	{r4}
 1842              	.LCFI30:
 1843              		.cfi_def_cfa_offset 4
 1844              		.cfi_offset 4, -4
 1845 0004 0346     		mov	r3, r0
 792:Dsp/widget/wgt_core/UI_Controller.c ****         return false;
 793:Dsp/widget/wgt_core/UI_Controller.c **** 
 794:Dsp/widget/wgt_core/UI_Controller.c ****     int32_t range = Obj->max - Obj->min;
 1846              		.loc 1 794 5 is_stmt 1 view .LVU515
 1847              		.loc 1 794 24 is_stmt 0 view .LVU516
 1848 0006 4269     		ldr	r2, [r0, #20]	@ unaligned
 1849              		.loc 1 794 35 view .LVU517
 1850 0008 0069     		ldr	r0, [r0, #16]	@ unaligned
 1851              	.LVL162:
 1852              		.loc 1 794 13 view .LVU518
 1853 000a 141A     		subs	r4, r2, r0
 1854 000c 07EE104A 		vmov	s14, r4	@ int
 1855              	.LVL163:
 795:Dsp/widget/wgt_core/UI_Controller.c **** 
 796:Dsp/widget/wgt_core/UI_Controller.c ****     if (val >= Obj->max)
 1856              		.loc 1 796 5 is_stmt 1 view .LVU519
 1857              		.loc 1 796 8 is_stmt 0 view .LVU520
 1858 0010 8A42     		cmp	r2, r1
 1859 0012 0FDC     		bgt	.L180
 797:Dsp/widget/wgt_core/UI_Controller.c ****         Obj->cur_val = Obj->max;
 1860              		.loc 1 797 9 is_stmt 1 view .LVU521
 1861              		.loc 1 797 22 is_stmt 0 view .LVU522
 1862 0014 DA61     		str	r2, [r3, #28]	@ unaligned
 1863              	.L181:
 798:Dsp/widget/wgt_core/UI_Controller.c ****     else if (val <= Obj->min)
 799:Dsp/widget/wgt_core/UI_Controller.c ****         Obj->cur_val = Obj->min;
 800:Dsp/widget/wgt_core/UI_Controller.c ****     else
 801:Dsp/widget/wgt_core/UI_Controller.c ****         Obj->cur_val = val;
 802:Dsp/widget/wgt_core/UI_Controller.c **** 
 803:Dsp/widget/wgt_core/UI_Controller.c ****     Obj->percent = ((float)val) / range;
 1864              		.loc 1 803 5 is_stmt 1 view .LVU523
ARM GAS  /var/folders/lx/hc4sn_b53233_zkc9xbbl97r0000gp/T//cc4iWlrc.s 			page 50


 1865              		.loc 1 803 21 is_stmt 0 view .LVU524
 1866 0016 07EE901A 		vmov	s15, r1	@ int
 1867 001a F8EEE77A 		vcvt.f32.s32	s15, s15
 1868              		.loc 1 803 33 view .LVU525
 1869 001e B8EEC77A 		vcvt.f32.s32	s14, s14
 1870              		.loc 1 803 18 view .LVU526
 1871 0022 C7EE877A 		vdiv.f32	s15, s15, s14
 1872 0026 17EE902A 		vmov	r2, s15
 1873 002a DA60     		str	r2, [r3, #12]	@ unaligned
 804:Dsp/widget/wgt_core/UI_Controller.c **** 
 805:Dsp/widget/wgt_core/UI_Controller.c ****     return true;
 1874              		.loc 1 805 5 is_stmt 1 view .LVU527
 1875              		.loc 1 805 12 is_stmt 0 view .LVU528
 1876 002c 0120     		movs	r0, #1
 806:Dsp/widget/wgt_core/UI_Controller.c **** }
 1877              		.loc 1 806 1 view .LVU529
 1878 002e 5DF8044B 		ldr	r4, [sp], #4
 1879              	.LCFI31:
 1880              		.cfi_remember_state
 1881              		.cfi_restore 4
 1882              		.cfi_def_cfa_offset 0
 1883              	.LVL164:
 1884              		.loc 1 806 1 view .LVU530
 1885 0032 7047     		bx	lr
 1886              	.LVL165:
 1887              	.L180:
 1888              	.LCFI32:
 1889              		.cfi_restore_state
 798:Dsp/widget/wgt_core/UI_Controller.c ****     else if (val <= Obj->min)
 1890              		.loc 1 798 10 is_stmt 1 view .LVU531
 798:Dsp/widget/wgt_core/UI_Controller.c ****     else if (val <= Obj->min)
 1891              		.loc 1 798 13 is_stmt 0 view .LVU532
 1892 0034 8842     		cmp	r0, r1
 1893 0036 01DB     		blt	.L182
 799:Dsp/widget/wgt_core/UI_Controller.c ****     else
 1894              		.loc 1 799 9 is_stmt 1 view .LVU533
 799:Dsp/widget/wgt_core/UI_Controller.c ****     else
 1895              		.loc 1 799 22 is_stmt 0 view .LVU534
 1896 0038 D861     		str	r0, [r3, #28]	@ unaligned
 1897 003a ECE7     		b	.L181
 1898              	.L182:
 801:Dsp/widget/wgt_core/UI_Controller.c **** 
 1899              		.loc 1 801 9 is_stmt 1 view .LVU535
 801:Dsp/widget/wgt_core/UI_Controller.c **** 
 1900              		.loc 1 801 22 is_stmt 0 view .LVU536
 1901 003c D961     		str	r1, [r3, #28]	@ unaligned
 1902 003e EAE7     		b	.L181
 1903              	.LVL166:
 1904              	.L183:
 1905              	.LCFI33:
 1906              		.cfi_def_cfa_offset 0
 1907              		.cfi_restore 4
 792:Dsp/widget/wgt_core/UI_Controller.c **** 
 1908              		.loc 1 792 16 view .LVU537
 1909 0040 0020     		movs	r0, #0
 1910              	.LVL167:
 1911              		.loc 1 806 1 view .LVU538
ARM GAS  /var/folders/lx/hc4sn_b53233_zkc9xbbl97r0000gp/T//cc4iWlrc.s 			page 51


 1912 0042 7047     		bx	lr
 1913              		.cfi_endproc
 1914              	.LFE32:
 1916              		.section	.text.UI_ProcessBar_Move,"ax",%progbits
 1917              		.align	1
 1918              		.syntax unified
 1919              		.thumb
 1920              		.thumb_func
 1921              		.fpu fpv4-sp-d16
 1923              	UI_ProcessBar_Move:
 1924              	.LVL168:
 1925              	.LFB33:
 807:Dsp/widget/wgt_core/UI_Controller.c **** 
 808:Dsp/widget/wgt_core/UI_Controller.c **** static bool UI_ProcessBar_Move(UI_ProcessBarObj_TypeDef *Obj, uint16_t x, uint16_t y)
 809:Dsp/widget/wgt_core/UI_Controller.c **** {
 1926              		.loc 1 809 1 is_stmt 1 view -0
 1927              		.cfi_startproc
 1928              		@ args = 0, pretend = 0, frame = 0
 1929              		@ frame_needed = 0, uses_anonymous_args = 0
 810:Dsp/widget/wgt_core/UI_Controller.c ****     if (Obj == NULL)
 1930              		.loc 1 810 5 view .LVU540
 1931              		.loc 1 810 8 is_stmt 0 view .LVU541
 1932 0000 28B1     		cbz	r0, .L190
 809:Dsp/widget/wgt_core/UI_Controller.c ****     if (Obj == NULL)
 1933              		.loc 1 809 1 view .LVU542
 1934 0002 08B5     		push	{r3, lr}
 1935              	.LCFI34:
 1936              		.cfi_def_cfa_offset 8
 1937              		.cfi_offset 3, -8
 1938              		.cfi_offset 14, -4
 811:Dsp/widget/wgt_core/UI_Controller.c ****         return false;
 812:Dsp/widget/wgt_core/UI_Controller.c **** 
 813:Dsp/widget/wgt_core/UI_Controller.c ****     return UI_Move(&(Obj->Gen_Data), x, y);
 1939              		.loc 1 813 5 is_stmt 1 view .LVU543
 1940              		.loc 1 813 12 is_stmt 0 view .LVU544
 1941 0004 12B2     		sxth	r2, r2
 1942              		.loc 1 813 12 view .LVU545
 1943 0006 09B2     		sxth	r1, r1
 1944              		.loc 1 813 12 view .LVU546
 1945 0008 FFF7FEFF 		bl	UI_Move
 1946              	.LVL169:
 814:Dsp/widget/wgt_core/UI_Controller.c **** }
 1947              		.loc 1 814 1 view .LVU547
 1948 000c 08BD     		pop	{r3, pc}
 1949              	.LVL170:
 1950              	.L190:
 1951              	.LCFI35:
 1952              		.cfi_def_cfa_offset 0
 1953              		.cfi_restore 3
 1954              		.cfi_restore 14
 811:Dsp/widget/wgt_core/UI_Controller.c ****         return false;
 1955              		.loc 1 811 16 view .LVU548
 1956 000e 0020     		movs	r0, #0
 1957              	.LVL171:
 1958              		.loc 1 814 1 view .LVU549
 1959 0010 7047     		bx	lr
 1960              		.cfi_endproc
ARM GAS  /var/folders/lx/hc4sn_b53233_zkc9xbbl97r0000gp/T//cc4iWlrc.s 			page 52


 1961              	.LFE33:
 1963              		.section	.text.UI_ProcessBar_DspDotBar,"ax",%progbits
 1964              		.align	1
 1965              		.syntax unified
 1966              		.thumb
 1967              		.thumb_func
 1968              		.fpu fpv4-sp-d16
 1970              	UI_ProcessBar_DspDotBar:
 1971              	.LVL172:
 1972              	.LFB35:
 815:Dsp/widget/wgt_core/UI_Controller.c **** 
 816:Dsp/widget/wgt_core/UI_Controller.c **** static bool UI_ProcessBar_DspLoadBar(UI_ProcessBarObj_TypeDef *Obj)
 817:Dsp/widget/wgt_core/UI_Controller.c **** {
 818:Dsp/widget/wgt_core/UI_Controller.c ****     uint8_t frame_radius = 0;
 819:Dsp/widget/wgt_core/UI_Controller.c ****     int16_t Str_CoordX = 0;
 820:Dsp/widget/wgt_core/UI_Controller.c ****     int16_t Str_CoordY = 0;
 821:Dsp/widget/wgt_core/UI_Controller.c ****     float Pcnt_Val = 0;
 822:Dsp/widget/wgt_core/UI_Controller.c ****     char dsp_str[20];
 823:Dsp/widget/wgt_core/UI_Controller.c **** 
 824:Dsp/widget/wgt_core/UI_Controller.c ****     if (Obj == NULL)
 825:Dsp/widget/wgt_core/UI_Controller.c ****         return false;
 826:Dsp/widget/wgt_core/UI_Controller.c **** 
 827:Dsp/widget/wgt_core/UI_Controller.c ****     memset(dsp_str, '\0', 20);
 828:Dsp/widget/wgt_core/UI_Controller.c **** 
 829:Dsp/widget/wgt_core/UI_Controller.c ****     Pcnt_Val = (Obj->cur_val / (float)Obj->range);
 830:Dsp/widget/wgt_core/UI_Controller.c ****     sprintf(dsp_str, "On Process : %d%%", (uint8_t)(Pcnt_Val * 100));
 831:Dsp/widget/wgt_core/UI_Controller.c **** 
 832:Dsp/widget/wgt_core/UI_Controller.c ****     Str_CoordX = Obj->Gen_Data.x + (Obj->width - (strlen(dsp_str) * STR_DIS)) / 2;
 833:Dsp/widget/wgt_core/UI_Controller.c ****     Str_CoordY = Obj->Gen_Data.y - base_font - 2;
 834:Dsp/widget/wgt_core/UI_Controller.c **** 
 835:Dsp/widget/wgt_core/UI_Controller.c ****     //display direction from left
 836:Dsp/widget/wgt_core/UI_Controller.c ****     UI_DspInterface.draw_radius_rectangle(Obj->Gen_Data.x, Obj->Gen_Data.y, Obj->width, DEFAULT_PRO
 837:Dsp/widget/wgt_core/UI_Controller.c ****     UI_DspInterface.draw_str(base_font, dsp_str, Str_CoordX, Str_CoordY, true);
 838:Dsp/widget/wgt_core/UI_Controller.c ****     UI_DspInterface.draw_line_h(Obj->Gen_Data.x + 2, Obj->Gen_Data.y + 2, Pcnt_Val * (Obj->width - 
 839:Dsp/widget/wgt_core/UI_Controller.c **** 
 840:Dsp/widget/wgt_core/UI_Controller.c ****     return true;
 841:Dsp/widget/wgt_core/UI_Controller.c **** }
 842:Dsp/widget/wgt_core/UI_Controller.c **** 
 843:Dsp/widget/wgt_core/UI_Controller.c **** static bool UI_ProcessBar_DspDotBar(UI_ProcessBarObj_TypeDef *Obj)
 844:Dsp/widget/wgt_core/UI_Controller.c **** {
 1973              		.loc 1 844 1 is_stmt 1 view -0
 1974              		.cfi_startproc
 1975              		@ args = 0, pretend = 0, frame = 8
 1976              		@ frame_needed = 0, uses_anonymous_args = 0
 845:Dsp/widget/wgt_core/UI_Controller.c ****     uint8_t bar_width = 0;
 1977              		.loc 1 845 5 view .LVU551
 846:Dsp/widget/wgt_core/UI_Controller.c ****     int16_t bar_start_x = 0;
 1978              		.loc 1 846 5 view .LVU552
 847:Dsp/widget/wgt_core/UI_Controller.c ****     int16_t mid_val = Obj->min + Obj->range / 2;
 1979              		.loc 1 847 5 view .LVU553
 1980              		.loc 1 847 26 is_stmt 0 view .LVU554
 1981 0000 0269     		ldr	r2, [r0, #16]	@ unaligned
 1982              		.loc 1 847 37 view .LVU555
 1983 0002 8369     		ldr	r3, [r0, #24]	@ unaligned
 1984              		.loc 1 847 45 view .LVU556
 1985 0004 03EBD373 		add	r3, r3, r3, lsr #31
 1986              		.loc 1 847 32 view .LVU557
ARM GAS  /var/folders/lx/hc4sn_b53233_zkc9xbbl97r0000gp/T//cc4iWlrc.s 			page 53


 1987 0008 02EB6303 		add	r3, r2, r3, asr #1
 1988              	.LVL173:
 848:Dsp/widget/wgt_core/UI_Controller.c ****     float Pcnt_Val = 0;
 1989              		.loc 1 848 5 is_stmt 1 view .LVU558
 849:Dsp/widget/wgt_core/UI_Controller.c **** 
 850:Dsp/widget/wgt_core/UI_Controller.c ****     if (Obj == NULL)
 1990              		.loc 1 850 5 view .LVU559
 1991              		.loc 1 850 8 is_stmt 0 view .LVU560
 1992 000c 0028     		cmp	r0, #0
 1993 000e 00F00A81 		beq	.L200
 844:Dsp/widget/wgt_core/UI_Controller.c ****     uint8_t bar_width = 0;
 1994              		.loc 1 844 1 view .LVU561
 1995 0012 2DE9F043 		push	{r4, r5, r6, r7, r8, r9, lr}
 1996              	.LCFI36:
 1997              		.cfi_def_cfa_offset 28
 1998              		.cfi_offset 4, -28
 1999              		.cfi_offset 5, -24
 2000              		.cfi_offset 6, -20
 2001              		.cfi_offset 7, -16
 2002              		.cfi_offset 8, -12
 2003              		.cfi_offset 9, -8
 2004              		.cfi_offset 14, -4
 2005 0016 2DED028B 		vpush.64	{d8}
 2006              	.LCFI37:
 2007              		.cfi_def_cfa_offset 36
 2008              		.cfi_offset 80, -36
 2009              		.cfi_offset 81, -32
 2010 001a 85B0     		sub	sp, sp, #20
 2011              	.LCFI38:
 2012              		.cfi_def_cfa_offset 56
 2013 001c 0446     		mov	r4, r0
 2014 001e 1DB2     		sxth	r5, r3
 851:Dsp/widget/wgt_core/UI_Controller.c ****         return false;
 852:Dsp/widget/wgt_core/UI_Controller.c **** 
 853:Dsp/widget/wgt_core/UI_Controller.c ****     if (Obj->width % 2 == 0)
 2015              		.loc 1 853 5 is_stmt 1 view .LVU562
 2016              		.loc 1 853 12 is_stmt 0 view .LVU563
 2017 0020 90F82020 		ldrb	r2, [r0, #32]	@ zero_extendqisi2
 2018              		.loc 1 853 8 view .LVU564
 2019 0024 12F0010F 		tst	r2, #1
 2020 0028 02D1     		bne	.L201
 854:Dsp/widget/wgt_core/UI_Controller.c ****         bar_width = Obj->width + 1;
 2021              		.loc 1 854 9 is_stmt 1 view .LVU565
 2022              		.loc 1 854 19 is_stmt 0 view .LVU566
 2023 002a 561C     		adds	r6, r2, #1
 2024 002c F6B2     		uxtb	r6, r6
 2025              	.LVL174:
 2026              		.loc 1 854 19 view .LVU567
 2027 002e 00E0     		b	.L197
 2028              	.LVL175:
 2029              	.L201:
 845:Dsp/widget/wgt_core/UI_Controller.c ****     int16_t bar_start_x = 0;
 2030              		.loc 1 845 13 view .LVU568
 2031 0030 0026     		movs	r6, #0
 2032              	.LVL176:
 2033              	.L197:
 855:Dsp/widget/wgt_core/UI_Controller.c **** 
ARM GAS  /var/folders/lx/hc4sn_b53233_zkc9xbbl97r0000gp/T//cc4iWlrc.s 			page 54


 856:Dsp/widget/wgt_core/UI_Controller.c ****     /* step  1 draw dot line */
 857:Dsp/widget/wgt_core/UI_Controller.c ****     UI_Draw_HorDotLine(Obj->Gen_Data.x, Obj->Gen_Data.y + 1, Obj->width, DEFAULT_PROCESSBAR_LINE_WI
 2034              		.loc 1 857 5 is_stmt 1 view .LVU569
 2035              		.loc 1 857 54 is_stmt 0 view .LVU570
 2036 0032 E188     		ldrh	r1, [r4, #6]	@ unaligned
 2037              		.loc 1 857 57 view .LVU571
 2038 0034 0131     		adds	r1, r1, #1
 2039              		.loc 1 857 5 view .LVU572
 2040 0036 0123     		movs	r3, #1
 2041              	.LVL177:
 2042              		.loc 1 857 5 view .LVU573
 2043 0038 09B2     		sxth	r1, r1
 2044 003a B4F90400 		ldrsh	r0, [r4, #4]	@ unaligned
 2045              	.LVL178:
 2046              		.loc 1 857 5 view .LVU574
 2047 003e FFF7FEFF 		bl	UI_Draw_HorDotLine
 2048              	.LVL179:
 858:Dsp/widget/wgt_core/UI_Controller.c **** 
 859:Dsp/widget/wgt_core/UI_Controller.c ****     UI_DspInterface.draw_str(base_font, Obj->Gen_Data.label, Obj->Gen_Data.x, Obj->Gen_Data.y - bas
 2049              		.loc 1 859 5 is_stmt 1 view .LVU575
 2050              		.loc 1 859 20 is_stmt 0 view .LVU576
 2051 0042 7C4B     		ldr	r3, .L208
 2052 0044 1F68     		ldr	r7, [r3]
 2053              		.loc 1 859 5 view .LVU577
 2054 0046 7C4B     		ldr	r3, .L208+4
 2055 0048 1878     		ldrb	r0, [r3]	@ zero_extendqisi2
 2056              		.loc 1 859 92 view .LVU578
 2057 004a E388     		ldrh	r3, [r4, #6]	@ unaligned
 2058              		.loc 1 859 95 view .LVU579
 2059 004c 1B1A     		subs	r3, r3, r0
 2060 004e 9BB2     		uxth	r3, r3
 2061              		.loc 1 859 107 view .LVU580
 2062 0050 033B     		subs	r3, r3, #3
 2063              		.loc 1 859 5 view .LVU581
 2064 0052 0122     		movs	r2, #1
 2065 0054 0092     		str	r2, [sp]
 2066 0056 1BB2     		sxth	r3, r3
 2067 0058 B4F90420 		ldrsh	r2, [r4, #4]	@ unaligned
 2068 005c 2168     		ldr	r1, [r4]	@ unaligned
 2069 005e B847     		blx	r7
 2070              	.LVL180:
 860:Dsp/widget/wgt_core/UI_Controller.c **** 
 861:Dsp/widget/wgt_core/UI_Controller.c ****     if (Obj->Mv_Dir == UI_ProcBar_GrothFrom_Left)
 2071              		.loc 1 861 5 is_stmt 1 view .LVU582
 2072              		.loc 1 861 12 is_stmt 0 view .LVU583
 2073 0060 94F82430 		ldrb	r3, [r4, #36]	@ zero_extendqisi2
 2074              		.loc 1 861 8 view .LVU584
 2075 0064 002B     		cmp	r3, #0
 2076 0066 49D1     		bne	.L198
 862:Dsp/widget/wgt_core/UI_Controller.c ****     {
 863:Dsp/widget/wgt_core/UI_Controller.c ****         bar_start_x = Obj->Gen_Data.x;
 2077              		.loc 1 863 9 is_stmt 1 view .LVU585
 2078              		.loc 1 863 21 is_stmt 0 view .LVU586
 2079 0068 B4F90480 		ldrsh	r8, [r4, #4]	@ unaligned
 2080              	.LVL181:
 864:Dsp/widget/wgt_core/UI_Controller.c ****         Pcnt_Val = (Obj->cur_val / (float)Obj->range);
 2081              		.loc 1 864 9 is_stmt 1 view .LVU587
ARM GAS  /var/folders/lx/hc4sn_b53233_zkc9xbbl97r0000gp/T//cc4iWlrc.s 			page 55


 2082              		.loc 1 864 24 is_stmt 0 view .LVU588
 2083 006c E369     		ldr	r3, [r4, #28]	@ unaligned
 2084 006e 07EE103A 		vmov	s14, r3	@ int
 2085              		.loc 1 864 34 view .LVU589
 2086 0072 B8EEC77A 		vcvt.f32.s32	s14, s14
 2087              		.loc 1 864 46 view .LVU590
 2088 0076 A369     		ldr	r3, [r4, #24]	@ unaligned
 2089 0078 07EE903A 		vmov	s15, r3	@ int
 2090              		.loc 1 864 36 view .LVU591
 2091 007c F8EEE77A 		vcvt.f32.s32	s15, s15
 2092              		.loc 1 864 18 view .LVU592
 2093 0080 87EE278A 		vdiv.f32	s16, s14, s15
 2094              	.LVL182:
 865:Dsp/widget/wgt_core/UI_Controller.c **** 
 866:Dsp/widget/wgt_core/UI_Controller.c ****         UI_DspInterface.draw_line_v(Obj->Gen_Data.x, Obj->Gen_Data.y - 1, 4, DEFAULT_PROCESSBAR_LIN
 2095              		.loc 1 866 9 is_stmt 1 view .LVU593
 2096              		.loc 1 866 24 is_stmt 0 view .LVU594
 2097 0084 6B4E     		ldr	r6, .L208
 2098              	.LVL183:
 2099              		.loc 1 866 67 view .LVU595
 2100 0086 E188     		ldrh	r1, [r4, #6]	@ unaligned
 2101              		.loc 1 866 70 view .LVU596
 2102 0088 0139     		subs	r1, r1, #1
 2103              		.loc 1 866 9 view .LVU597
 2104 008a 0125     		movs	r5, #1
 2105              	.LVL184:
 2106              		.loc 1 866 9 view .LVU598
 2107 008c 0095     		str	r5, [sp]
 2108              	.LVL185:
 2109              		.loc 1 866 9 view .LVU599
 2110 008e 2B46     		mov	r3, r5
 2111 0090 0422     		movs	r2, #4
 2112 0092 09B2     		sxth	r1, r1
 2113 0094 4046     		mov	r0, r8
 2114 0096 3769     		ldr	r7, [r6, #16]
 2115 0098 B847     		blx	r7
 2116              	.LVL186:
 867:Dsp/widget/wgt_core/UI_Controller.c ****         UI_DspInterface.draw_line_h(bar_start_x, Obj->Gen_Data.y, Obj->width * Pcnt_Val, DEFAULT_PR
 2117              		.loc 1 867 9 is_stmt 1 view .LVU600
 2118              		.loc 1 867 70 is_stmt 0 view .LVU601
 2119 009a 94F82030 		ldrb	r3, [r4, #32]	@ zero_extendqisi2
 2120 009e 07EE903A 		vmov	s15, r3	@ int
 2121              		.loc 1 867 78 view .LVU602
 2122 00a2 F8EEE77A 		vcvt.f32.s32	s15, s15
 2123 00a6 67EE887A 		vmul.f32	s15, s15, s16
 2124              		.loc 1 867 9 view .LVU603
 2125 00aa FCEEE77A 		vcvt.u32.f32	s15, s15
 2126 00ae CDED037A 		vstr.32	s15, [sp, #12]	@ int
 2127 00b2 0095     		str	r5, [sp]
 2128 00b4 2B46     		mov	r3, r5
 2129 00b6 9DF80C20 		ldrb	r2, [sp, #12]	@ zero_extendqisi2
 2130 00ba B4F90610 		ldrsh	r1, [r4, #6]	@ unaligned
 2131 00be 4046     		mov	r0, r8
 2132 00c0 F768     		ldr	r7, [r6, #12]
 2133 00c2 B847     		blx	r7
 2134              	.LVL187:
 868:Dsp/widget/wgt_core/UI_Controller.c ****         UI_DspInterface.draw_line_h(bar_start_x, Obj->Gen_Data.y + 2, Obj->width * Pcnt_Val, DEFAUL
ARM GAS  /var/folders/lx/hc4sn_b53233_zkc9xbbl97r0000gp/T//cc4iWlrc.s 			page 56


 2135              		.loc 1 868 9 is_stmt 1 view .LVU604
 2136              		.loc 1 868 24 is_stmt 0 view .LVU605
 2137 00c4 F668     		ldr	r6, [r6, #12]
 2138              		.loc 1 868 63 view .LVU606
 2139 00c6 E188     		ldrh	r1, [r4, #6]	@ unaligned
 2140              		.loc 1 868 66 view .LVU607
 2141 00c8 0231     		adds	r1, r1, #2
 2142              		.loc 1 868 74 view .LVU608
 2143 00ca 94F82030 		ldrb	r3, [r4, #32]	@ zero_extendqisi2
 2144 00ce 07EE903A 		vmov	s15, r3	@ int
 2145              		.loc 1 868 82 view .LVU609
 2146 00d2 F8EEE77A 		vcvt.f32.s32	s15, s15
 2147 00d6 67EE887A 		vmul.f32	s15, s15, s16
 2148              		.loc 1 868 9 view .LVU610
 2149 00da FCEEE77A 		vcvt.u32.f32	s15, s15
 2150 00de CDED037A 		vstr.32	s15, [sp, #12]	@ int
 2151 00e2 0095     		str	r5, [sp]
 2152 00e4 2B46     		mov	r3, r5
 2153 00e6 9DF80C20 		ldrb	r2, [sp, #12]	@ zero_extendqisi2
 2154 00ea 09B2     		sxth	r1, r1
 2155 00ec 4046     		mov	r0, r8
 2156 00ee B047     		blx	r6
 2157              	.LVL188:
 869:Dsp/widget/wgt_core/UI_Controller.c ****     }
 870:Dsp/widget/wgt_core/UI_Controller.c ****     else if (Obj->Mv_Dir == UI_ProcBar_GrothFrom_Mid)
 871:Dsp/widget/wgt_core/UI_Controller.c ****     {
 872:Dsp/widget/wgt_core/UI_Controller.c ****         UI_DspInterface.draw_line_v(Obj->Gen_Data.x + bar_width / 2, Obj->Gen_Data.y - 1, 4, DEFAUL
 873:Dsp/widget/wgt_core/UI_Controller.c **** 
 874:Dsp/widget/wgt_core/UI_Controller.c ****         if (Obj->cur_val < mid_val)
 875:Dsp/widget/wgt_core/UI_Controller.c ****         {
 876:Dsp/widget/wgt_core/UI_Controller.c ****             Pcnt_Val = (((Obj->range / 2) - Obj->cur_val) / ((float)(Obj->range / 2)));
 877:Dsp/widget/wgt_core/UI_Controller.c ****             bar_start_x = Obj->Gen_Data.x + bar_width / 2 - (Pcnt_Val * bar_width / 2);
 878:Dsp/widget/wgt_core/UI_Controller.c ****             UI_DspInterface.draw_line_h(bar_start_x, Obj->Gen_Data.y, (Pcnt_Val * bar_width / 2), D
 879:Dsp/widget/wgt_core/UI_Controller.c ****             UI_DspInterface.draw_line_h(bar_start_x, Obj->Gen_Data.y + 2, (Pcnt_Val * bar_width / 2
 880:Dsp/widget/wgt_core/UI_Controller.c ****         }
 881:Dsp/widget/wgt_core/UI_Controller.c ****         else if (Obj->cur_val > mid_val)
 882:Dsp/widget/wgt_core/UI_Controller.c ****         {
 883:Dsp/widget/wgt_core/UI_Controller.c ****             Pcnt_Val = ((Obj->cur_val - (Obj->range / 2)) / ((float)(Obj->range / 2)));
 884:Dsp/widget/wgt_core/UI_Controller.c ****             bar_start_x = Obj->Gen_Data.x + bar_width / 2;
 885:Dsp/widget/wgt_core/UI_Controller.c ****             UI_DspInterface.draw_line_h(bar_start_x, Obj->Gen_Data.y, (Pcnt_Val * bar_width / 2), D
 886:Dsp/widget/wgt_core/UI_Controller.c ****             UI_DspInterface.draw_line_h(bar_start_x, Obj->Gen_Data.y + 2, (Pcnt_Val * bar_width / 2
 887:Dsp/widget/wgt_core/UI_Controller.c ****         }
 888:Dsp/widget/wgt_core/UI_Controller.c ****     }
 889:Dsp/widget/wgt_core/UI_Controller.c ****     else
 890:Dsp/widget/wgt_core/UI_Controller.c ****         return false;
 891:Dsp/widget/wgt_core/UI_Controller.c **** 
 892:Dsp/widget/wgt_core/UI_Controller.c ****     return true;
 2158              		.loc 1 892 12 view .LVU611
 2159 00f0 2846     		mov	r0, r5
 2160              	.LVL189:
 2161              	.L196:
 893:Dsp/widget/wgt_core/UI_Controller.c **** }
 2162              		.loc 1 893 1 view .LVU612
 2163 00f2 05B0     		add	sp, sp, #20
 2164              	.LCFI39:
 2165              		.cfi_remember_state
 2166              		.cfi_def_cfa_offset 36
ARM GAS  /var/folders/lx/hc4sn_b53233_zkc9xbbl97r0000gp/T//cc4iWlrc.s 			page 57


 2167              		@ sp needed
 2168 00f4 BDEC028B 		vldm	sp!, {d8}
 2169              	.LCFI40:
 2170              		.cfi_restore 80
 2171              		.cfi_restore 81
 2172              		.cfi_def_cfa_offset 28
 2173 00f8 BDE8F083 		pop	{r4, r5, r6, r7, r8, r9, pc}
 2174              	.LVL190:
 2175              	.L198:
 2176              	.LCFI41:
 2177              		.cfi_restore_state
 870:Dsp/widget/wgt_core/UI_Controller.c ****     {
 2178              		.loc 1 870 10 is_stmt 1 view .LVU613
 870:Dsp/widget/wgt_core/UI_Controller.c ****     {
 2179              		.loc 1 870 13 is_stmt 0 view .LVU614
 2180 00fc 012B     		cmp	r3, #1
 2181 00fe 40F09480 		bne	.L202
 872:Dsp/widget/wgt_core/UI_Controller.c **** 
 2182              		.loc 1 872 9 is_stmt 1 view .LVU615
 872:Dsp/widget/wgt_core/UI_Controller.c **** 
 2183              		.loc 1 872 24 is_stmt 0 view .LVU616
 2184 0102 4C4B     		ldr	r3, .L208
 2185 0104 D3F81090 		ldr	r9, [r3, #16]
 872:Dsp/widget/wgt_core/UI_Controller.c **** 
 2186              		.loc 1 872 50 view .LVU617
 2187 0108 A088     		ldrh	r0, [r4, #4]	@ unaligned
 872:Dsp/widget/wgt_core/UI_Controller.c **** 
 2188              		.loc 1 872 53 view .LVU618
 2189 010a 7708     		lsrs	r7, r6, #1
 2190 010c B846     		mov	r8, r7
 2191 010e 00EB5600 		add	r0, r0, r6, lsr #1
 872:Dsp/widget/wgt_core/UI_Controller.c **** 
 2192              		.loc 1 872 83 view .LVU619
 2193 0112 E188     		ldrh	r1, [r4, #6]	@ unaligned
 872:Dsp/widget/wgt_core/UI_Controller.c **** 
 2194              		.loc 1 872 86 view .LVU620
 2195 0114 0139     		subs	r1, r1, #1
 872:Dsp/widget/wgt_core/UI_Controller.c **** 
 2196              		.loc 1 872 9 view .LVU621
 2197 0116 0123     		movs	r3, #1
 2198 0118 0093     		str	r3, [sp]
 2199 011a 0422     		movs	r2, #4
 2200 011c 09B2     		sxth	r1, r1
 2201 011e 00B2     		sxth	r0, r0
 2202 0120 C847     		blx	r9
 2203              	.LVL191:
 874:Dsp/widget/wgt_core/UI_Controller.c ****         {
 2204              		.loc 1 874 9 is_stmt 1 view .LVU622
 874:Dsp/widget/wgt_core/UI_Controller.c ****         {
 2205              		.loc 1 874 16 is_stmt 0 view .LVU623
 2206 0122 E369     		ldr	r3, [r4, #28]	@ unaligned
 874:Dsp/widget/wgt_core/UI_Controller.c ****         {
 2207              		.loc 1 874 12 view .LVU624
 2208 0124 AB42     		cmp	r3, r5
 2209 0126 43DA     		bge	.L199
 876:Dsp/widget/wgt_core/UI_Controller.c ****             bar_start_x = Obj->Gen_Data.x + bar_width / 2 - (Pcnt_Val * bar_width / 2);
 2210              		.loc 1 876 13 is_stmt 1 view .LVU625
ARM GAS  /var/folders/lx/hc4sn_b53233_zkc9xbbl97r0000gp/T//cc4iWlrc.s 			page 58


 876:Dsp/widget/wgt_core/UI_Controller.c ****             bar_start_x = Obj->Gen_Data.x + bar_width / 2 - (Pcnt_Val * bar_width / 2);
 2211              		.loc 1 876 30 is_stmt 0 view .LVU626
 2212 0128 A269     		ldr	r2, [r4, #24]	@ unaligned
 876:Dsp/widget/wgt_core/UI_Controller.c ****             bar_start_x = Obj->Gen_Data.x + bar_width / 2 - (Pcnt_Val * bar_width / 2);
 2213              		.loc 1 876 38 view .LVU627
 2214 012a 02EBD272 		add	r2, r2, r2, lsr #31
 2215 012e 5110     		asrs	r1, r2, #1
 2216 0130 06EE901A 		vmov	s13, r1	@ int
 876:Dsp/widget/wgt_core/UI_Controller.c ****             bar_start_x = Obj->Gen_Data.x + bar_width / 2 - (Pcnt_Val * bar_width / 2);
 2217              		.loc 1 876 43 view .LVU628
 2218 0134 C3EB6203 		rsb	r3, r3, r2, asr #1
 876:Dsp/widget/wgt_core/UI_Controller.c ****             bar_start_x = Obj->Gen_Data.x + bar_width / 2 - (Pcnt_Val * bar_width / 2);
 2219              		.loc 1 876 59 view .LVU629
 2220 0138 07EE903A 		vmov	s15, r3	@ int
 2221 013c F8EEE77A 		vcvt.f32.s32	s15, s15
 876:Dsp/widget/wgt_core/UI_Controller.c ****             bar_start_x = Obj->Gen_Data.x + bar_width / 2 - (Pcnt_Val * bar_width / 2);
 2222              		.loc 1 876 62 view .LVU630
 2223 0140 F8EEE66A 		vcvt.f32.s32	s13, s13
 876:Dsp/widget/wgt_core/UI_Controller.c ****             bar_start_x = Obj->Gen_Data.x + bar_width / 2 - (Pcnt_Val * bar_width / 2);
 2224              		.loc 1 876 22 view .LVU631
 2225 0144 87EEA66A 		vdiv.f32	s12, s15, s13
 2226              	.LVL192:
 877:Dsp/widget/wgt_core/UI_Controller.c ****             UI_DspInterface.draw_line_h(bar_start_x, Obj->Gen_Data.y, (Pcnt_Val * bar_width / 2), D
 2227              		.loc 1 877 13 is_stmt 1 view .LVU632
 877:Dsp/widget/wgt_core/UI_Controller.c ****             UI_DspInterface.draw_line_h(bar_start_x, Obj->Gen_Data.y, (Pcnt_Val * bar_width / 2), D
 2228              		.loc 1 877 40 is_stmt 0 view .LVU633
 2229 0148 B4F90430 		ldrsh	r3, [r4, #4]	@ unaligned
 877:Dsp/widget/wgt_core/UI_Controller.c ****             UI_DspInterface.draw_line_h(bar_start_x, Obj->Gen_Data.y, (Pcnt_Val * bar_width / 2), D
 2230              		.loc 1 877 43 view .LVU634
 2231 014c 3B44     		add	r3, r3, r7
 2232 014e 07EE903A 		vmov	s15, r3	@ int
 877:Dsp/widget/wgt_core/UI_Controller.c ****             UI_DspInterface.draw_line_h(bar_start_x, Obj->Gen_Data.y, (Pcnt_Val * bar_width / 2), D
 2233              		.loc 1 877 71 view .LVU635
 2234 0152 07EE106A 		vmov	s14, r6	@ int
 2235 0156 B8EEC77A 		vcvt.f32.s32	s14, s14
 2236 015a 27EE067A 		vmul.f32	s14, s14, s12
 877:Dsp/widget/wgt_core/UI_Controller.c ****             UI_DspInterface.draw_line_h(bar_start_x, Obj->Gen_Data.y, (Pcnt_Val * bar_width / 2), D
 2237              		.loc 1 877 83 view .LVU636
 2238 015e F6EE006A 		vmov.f32	s13, #5.0e-1
 2239 0162 27EE267A 		vmul.f32	s14, s14, s13
 877:Dsp/widget/wgt_core/UI_Controller.c ****             UI_DspInterface.draw_line_h(bar_start_x, Obj->Gen_Data.y, (Pcnt_Val * bar_width / 2), D
 2240              		.loc 1 877 59 view .LVU637
 2241 0166 F8EEE77A 		vcvt.f32.s32	s15, s15
 2242 016a 77EEC77A 		vsub.f32	s15, s15, s14
 877:Dsp/widget/wgt_core/UI_Controller.c ****             UI_DspInterface.draw_line_h(bar_start_x, Obj->Gen_Data.y, (Pcnt_Val * bar_width / 2), D
 2243              		.loc 1 877 25 view .LVU638
 2244 016e FDEEE77A 		vcvt.s32.f32	s15, s15
 2245 0172 17EE903A 		vmov	r3, s15	@ int
 2246 0176 0FFA83F9 		sxth	r9, r3
 2247              	.LVL193:
 878:Dsp/widget/wgt_core/UI_Controller.c ****             UI_DspInterface.draw_line_h(bar_start_x, Obj->Gen_Data.y + 2, (Pcnt_Val * bar_width / 2
 2248              		.loc 1 878 13 is_stmt 1 view .LVU639
 878:Dsp/widget/wgt_core/UI_Controller.c ****             UI_DspInterface.draw_line_h(bar_start_x, Obj->Gen_Data.y + 2, (Pcnt_Val * bar_width / 2
 2249              		.loc 1 878 28 is_stmt 0 view .LVU640
 2250 017a 2E4F     		ldr	r7, .L208
 878:Dsp/widget/wgt_core/UI_Controller.c ****             UI_DspInterface.draw_line_h(bar_start_x, Obj->Gen_Data.y + 2, (Pcnt_Val * bar_width / 2
 2251              		.loc 1 878 13 view .LVU641
ARM GAS  /var/folders/lx/hc4sn_b53233_zkc9xbbl97r0000gp/T//cc4iWlrc.s 			page 59


 2252 017c FCEEC77A 		vcvt.u32.f32	s15, s14
 2253 0180 CDED037A 		vstr.32	s15, [sp, #12]	@ int
 2254 0184 9DF80C80 		ldrb	r8, [sp, #12]	@ zero_extendqisi2
 2255 0188 0125     		movs	r5, #1
 2256              	.LVL194:
 878:Dsp/widget/wgt_core/UI_Controller.c ****             UI_DspInterface.draw_line_h(bar_start_x, Obj->Gen_Data.y + 2, (Pcnt_Val * bar_width / 2
 2257              		.loc 1 878 13 view .LVU642
 2258 018a 0095     		str	r5, [sp]
 2259 018c 2B46     		mov	r3, r5
 2260 018e 4246     		mov	r2, r8
 2261 0190 B4F90610 		ldrsh	r1, [r4, #6]	@ unaligned
 2262 0194 4846     		mov	r0, r9
 2263 0196 FE68     		ldr	r6, [r7, #12]
 2264              	.LVL195:
 878:Dsp/widget/wgt_core/UI_Controller.c ****             UI_DspInterface.draw_line_h(bar_start_x, Obj->Gen_Data.y + 2, (Pcnt_Val * bar_width / 2
 2265              		.loc 1 878 13 view .LVU643
 2266 0198 B047     		blx	r6
 2267              	.LVL196:
 879:Dsp/widget/wgt_core/UI_Controller.c ****         }
 2268              		.loc 1 879 13 is_stmt 1 view .LVU644
 879:Dsp/widget/wgt_core/UI_Controller.c ****         }
 2269              		.loc 1 879 28 is_stmt 0 view .LVU645
 2270 019a FF68     		ldr	r7, [r7, #12]
 879:Dsp/widget/wgt_core/UI_Controller.c ****         }
 2271              		.loc 1 879 67 view .LVU646
 2272 019c E188     		ldrh	r1, [r4, #6]	@ unaligned
 879:Dsp/widget/wgt_core/UI_Controller.c ****         }
 2273              		.loc 1 879 70 view .LVU647
 2274 019e 0231     		adds	r1, r1, #2
 879:Dsp/widget/wgt_core/UI_Controller.c ****         }
 2275              		.loc 1 879 13 view .LVU648
 2276 01a0 0095     		str	r5, [sp]
 2277 01a2 2B46     		mov	r3, r5
 2278 01a4 4246     		mov	r2, r8
 2279 01a6 09B2     		sxth	r1, r1
 2280 01a8 4846     		mov	r0, r9
 2281 01aa B847     		blx	r7
 2282              	.LVL197:
 892:Dsp/widget/wgt_core/UI_Controller.c **** }
 2283              		.loc 1 892 12 view .LVU649
 2284 01ac 2846     		mov	r0, r5
 2285 01ae A0E7     		b	.L196
 2286              	.LVL198:
 2287              	.L199:
 881:Dsp/widget/wgt_core/UI_Controller.c ****         {
 2288              		.loc 1 881 14 is_stmt 1 view .LVU650
 881:Dsp/widget/wgt_core/UI_Controller.c ****         {
 2289              		.loc 1 881 17 is_stmt 0 view .LVU651
 2290 01b0 AB42     		cmp	r3, r5
 2291 01b2 3CDD     		ble	.L203
 883:Dsp/widget/wgt_core/UI_Controller.c ****             bar_start_x = Obj->Gen_Data.x + bar_width / 2;
 2292              		.loc 1 883 13 is_stmt 1 view .LVU652
 883:Dsp/widget/wgt_core/UI_Controller.c ****             bar_start_x = Obj->Gen_Data.x + bar_width / 2;
 2293              		.loc 1 883 45 is_stmt 0 view .LVU653
 2294 01b4 A269     		ldr	r2, [r4, #24]	@ unaligned
 883:Dsp/widget/wgt_core/UI_Controller.c ****             bar_start_x = Obj->Gen_Data.x + bar_width / 2;
 2295              		.loc 1 883 53 view .LVU654
ARM GAS  /var/folders/lx/hc4sn_b53233_zkc9xbbl97r0000gp/T//cc4iWlrc.s 			page 60


 2296 01b6 02EBD272 		add	r2, r2, r2, lsr #31
 883:Dsp/widget/wgt_core/UI_Controller.c ****             bar_start_x = Obj->Gen_Data.x + bar_width / 2;
 2297              		.loc 1 883 39 view .LVU655
 2298 01ba A3EB6203 		sub	r3, r3, r2, asr #1
 883:Dsp/widget/wgt_core/UI_Controller.c ****             bar_start_x = Obj->Gen_Data.x + bar_width / 2;
 2299              		.loc 1 883 59 view .LVU656
 2300 01be 07EE903A 		vmov	s15, r3	@ int
 2301 01c2 B8EEE77A 		vcvt.f32.s32	s14, s15
 883:Dsp/widget/wgt_core/UI_Controller.c ****             bar_start_x = Obj->Gen_Data.x + bar_width / 2;
 2302              		.loc 1 883 81 view .LVU657
 2303 01c6 5210     		asrs	r2, r2, #1
 883:Dsp/widget/wgt_core/UI_Controller.c ****             bar_start_x = Obj->Gen_Data.x + bar_width / 2;
 2304              		.loc 1 883 62 view .LVU658
 2305 01c8 07EE902A 		vmov	s15, r2	@ int
 2306 01cc F8EEE76A 		vcvt.f32.s32	s13, s15
 883:Dsp/widget/wgt_core/UI_Controller.c ****             bar_start_x = Obj->Gen_Data.x + bar_width / 2;
 2307              		.loc 1 883 22 view .LVU659
 2308 01d0 87EE266A 		vdiv.f32	s12, s14, s13
 2309              	.LVL199:
 884:Dsp/widget/wgt_core/UI_Controller.c ****             UI_DspInterface.draw_line_h(bar_start_x, Obj->Gen_Data.y, (Pcnt_Val * bar_width / 2), D
 2310              		.loc 1 884 13 is_stmt 1 view .LVU660
 884:Dsp/widget/wgt_core/UI_Controller.c ****             UI_DspInterface.draw_line_h(bar_start_x, Obj->Gen_Data.y, (Pcnt_Val * bar_width / 2), D
 2311              		.loc 1 884 40 is_stmt 0 view .LVU661
 2312 01d4 A388     		ldrh	r3, [r4, #4]	@ unaligned
 884:Dsp/widget/wgt_core/UI_Controller.c ****             UI_DspInterface.draw_line_h(bar_start_x, Obj->Gen_Data.y, (Pcnt_Val * bar_width / 2), D
 2313              		.loc 1 884 43 view .LVU662
 2314 01d6 9844     		add	r8, r8, r3
 884:Dsp/widget/wgt_core/UI_Controller.c ****             UI_DspInterface.draw_line_h(bar_start_x, Obj->Gen_Data.y, (Pcnt_Val * bar_width / 2), D
 2315              		.loc 1 884 25 view .LVU663
 2316 01d8 0FFA88F8 		sxth	r8, r8
 2317              	.LVL200:
 885:Dsp/widget/wgt_core/UI_Controller.c ****             UI_DspInterface.draw_line_h(bar_start_x, Obj->Gen_Data.y + 2, (Pcnt_Val * bar_width / 2
 2318              		.loc 1 885 13 is_stmt 1 view .LVU664
 885:Dsp/widget/wgt_core/UI_Controller.c ****             UI_DspInterface.draw_line_h(bar_start_x, Obj->Gen_Data.y + 2, (Pcnt_Val * bar_width / 2
 2319              		.loc 1 885 28 is_stmt 0 view .LVU665
 2320 01dc 154F     		ldr	r7, .L208
 885:Dsp/widget/wgt_core/UI_Controller.c ****             UI_DspInterface.draw_line_h(bar_start_x, Obj->Gen_Data.y + 2, (Pcnt_Val * bar_width / 2
 2321              		.loc 1 885 81 view .LVU666
 2322 01de 07EE906A 		vmov	s15, r6	@ int
 2323 01e2 F8EEE77A 		vcvt.f32.s32	s15, s15
 2324 01e6 67EE867A 		vmul.f32	s15, s15, s12
 885:Dsp/widget/wgt_core/UI_Controller.c ****             UI_DspInterface.draw_line_h(bar_start_x, Obj->Gen_Data.y + 2, (Pcnt_Val * bar_width / 2
 2325              		.loc 1 885 93 view .LVU667
 2326 01ea B6EE007A 		vmov.f32	s14, #5.0e-1
 2327 01ee 67EE877A 		vmul.f32	s15, s15, s14
 885:Dsp/widget/wgt_core/UI_Controller.c ****             UI_DspInterface.draw_line_h(bar_start_x, Obj->Gen_Data.y + 2, (Pcnt_Val * bar_width / 2
 2328              		.loc 1 885 13 view .LVU668
 2329 01f2 FCEEE77A 		vcvt.u32.f32	s15, s15
 2330 01f6 CDED037A 		vstr.32	s15, [sp, #12]	@ int
 2331 01fa 9DF80C90 		ldrb	r9, [sp, #12]	@ zero_extendqisi2
 2332 01fe 0125     		movs	r5, #1
 2333              	.LVL201:
 885:Dsp/widget/wgt_core/UI_Controller.c ****             UI_DspInterface.draw_line_h(bar_start_x, Obj->Gen_Data.y + 2, (Pcnt_Val * bar_width / 2
 2334              		.loc 1 885 13 view .LVU669
 2335 0200 0095     		str	r5, [sp]
 2336 0202 2B46     		mov	r3, r5
 2337 0204 4A46     		mov	r2, r9
ARM GAS  /var/folders/lx/hc4sn_b53233_zkc9xbbl97r0000gp/T//cc4iWlrc.s 			page 61


 2338 0206 B4F90610 		ldrsh	r1, [r4, #6]	@ unaligned
 2339 020a 4046     		mov	r0, r8
 2340 020c FE68     		ldr	r6, [r7, #12]
 2341              	.LVL202:
 885:Dsp/widget/wgt_core/UI_Controller.c ****             UI_DspInterface.draw_line_h(bar_start_x, Obj->Gen_Data.y + 2, (Pcnt_Val * bar_width / 2
 2342              		.loc 1 885 13 view .LVU670
 2343 020e B047     		blx	r6
 2344              	.LVL203:
 886:Dsp/widget/wgt_core/UI_Controller.c ****         }
 2345              		.loc 1 886 13 is_stmt 1 view .LVU671
 886:Dsp/widget/wgt_core/UI_Controller.c ****         }
 2346              		.loc 1 886 28 is_stmt 0 view .LVU672
 2347 0210 FF68     		ldr	r7, [r7, #12]
 886:Dsp/widget/wgt_core/UI_Controller.c ****         }
 2348              		.loc 1 886 67 view .LVU673
 2349 0212 E188     		ldrh	r1, [r4, #6]	@ unaligned
 886:Dsp/widget/wgt_core/UI_Controller.c ****         }
 2350              		.loc 1 886 70 view .LVU674
 2351 0214 0231     		adds	r1, r1, #2
 886:Dsp/widget/wgt_core/UI_Controller.c ****         }
 2352              		.loc 1 886 13 view .LVU675
 2353 0216 0095     		str	r5, [sp]
 2354 0218 2B46     		mov	r3, r5
 2355 021a 4A46     		mov	r2, r9
 2356 021c 09B2     		sxth	r1, r1
 2357 021e 4046     		mov	r0, r8
 2358 0220 B847     		blx	r7
 2359              	.LVL204:
 892:Dsp/widget/wgt_core/UI_Controller.c **** }
 2360              		.loc 1 892 12 view .LVU676
 2361 0222 2846     		mov	r0, r5
 2362 0224 65E7     		b	.L196
 2363              	.LVL205:
 2364              	.L200:
 2365              	.LCFI42:
 2366              		.cfi_def_cfa_offset 0
 2367              		.cfi_restore 4
 2368              		.cfi_restore 5
 2369              		.cfi_restore 6
 2370              		.cfi_restore 7
 2371              		.cfi_restore 8
 2372              		.cfi_restore 9
 2373              		.cfi_restore 14
 2374              		.cfi_restore 80
 2375              		.cfi_restore 81
 851:Dsp/widget/wgt_core/UI_Controller.c **** 
 2376              		.loc 1 851 16 view .LVU677
 2377 0226 0020     		movs	r0, #0
 2378              	.LVL206:
 2379              		.loc 1 893 1 view .LVU678
 2380 0228 7047     		bx	lr
 2381              	.LVL207:
 2382              	.L202:
 2383              	.LCFI43:
 2384              		.cfi_def_cfa_offset 56
 2385              		.cfi_offset 4, -28
 2386              		.cfi_offset 5, -24
ARM GAS  /var/folders/lx/hc4sn_b53233_zkc9xbbl97r0000gp/T//cc4iWlrc.s 			page 62


 2387              		.cfi_offset 6, -20
 2388              		.cfi_offset 7, -16
 2389              		.cfi_offset 8, -12
 2390              		.cfi_offset 9, -8
 2391              		.cfi_offset 14, -4
 2392              		.cfi_offset 80, -36
 2393              		.cfi_offset 81, -32
 890:Dsp/widget/wgt_core/UI_Controller.c **** 
 2394              		.loc 1 890 16 view .LVU679
 2395 022a 0020     		movs	r0, #0
 2396 022c 61E7     		b	.L196
 2397              	.L203:
 892:Dsp/widget/wgt_core/UI_Controller.c **** }
 2398              		.loc 1 892 12 view .LVU680
 2399 022e 0120     		movs	r0, #1
 2400 0230 5FE7     		b	.L196
 2401              	.L209:
 2402 0232 00BF     		.align	2
 2403              	.L208:
 2404 0234 00000000 		.word	.LANCHOR0
 2405 0238 00000000 		.word	.LANCHOR2
 2406              		.cfi_endproc
 2407              	.LFE35:
 2409              		.section	.text.UI_ProcessBar_DspFrameBar,"ax",%progbits
 2410              		.align	1
 2411              		.syntax unified
 2412              		.thumb
 2413              		.thumb_func
 2414              		.fpu fpv4-sp-d16
 2416              	UI_ProcessBar_DspFrameBar:
 2417              	.LVL208:
 2418              	.LFB36:
 894:Dsp/widget/wgt_core/UI_Controller.c **** 
 895:Dsp/widget/wgt_core/UI_Controller.c **** static bool UI_ProcessBar_DspFrameBar(UI_ProcessBarObj_TypeDef *Obj)
 896:Dsp/widget/wgt_core/UI_Controller.c **** {
 2419              		.loc 1 896 1 is_stmt 1 view -0
 2420              		.cfi_startproc
 2421              		@ args = 0, pretend = 0, frame = 8
 2422              		@ frame_needed = 0, uses_anonymous_args = 0
 2423              		.loc 1 896 1 is_stmt 0 view .LVU682
 2424 0000 2DE9F047 		push	{r4, r5, r6, r7, r8, r9, r10, lr}
 2425              	.LCFI44:
 2426              		.cfi_def_cfa_offset 32
 2427              		.cfi_offset 4, -32
 2428              		.cfi_offset 5, -28
 2429              		.cfi_offset 6, -24
 2430              		.cfi_offset 7, -20
 2431              		.cfi_offset 8, -16
 2432              		.cfi_offset 9, -12
 2433              		.cfi_offset 10, -8
 2434              		.cfi_offset 14, -4
 2435 0004 84B0     		sub	sp, sp, #16
 2436              	.LCFI45:
 2437              		.cfi_def_cfa_offset 48
 2438 0006 0446     		mov	r4, r0
 897:Dsp/widget/wgt_core/UI_Controller.c ****     int16_t frame_CoordX = 0;
 2439              		.loc 1 897 5 is_stmt 1 view .LVU683
ARM GAS  /var/folders/lx/hc4sn_b53233_zkc9xbbl97r0000gp/T//cc4iWlrc.s 			page 63


 2440              	.LVL209:
 898:Dsp/widget/wgt_core/UI_Controller.c ****     uint8_t frame_width = 0;
 2441              		.loc 1 898 5 view .LVU684
 899:Dsp/widget/wgt_core/UI_Controller.c ****     uint8_t frame_Height = 0;
 2442              		.loc 1 899 5 view .LVU685
 900:Dsp/widget/wgt_core/UI_Controller.c ****     int16_t block_start_CoordX = 0;
 2443              		.loc 1 900 5 view .LVU686
 901:Dsp/widget/wgt_core/UI_Controller.c ****     int16_t block_start_CoordY = 0;
 2444              		.loc 1 901 5 view .LVU687
 902:Dsp/widget/wgt_core/UI_Controller.c ****     int16_t bar_len = 0;
 2445              		.loc 1 902 5 view .LVU688
 903:Dsp/widget/wgt_core/UI_Controller.c ****     int16_t mid_val = Obj->min + (Obj->range / 2);
 2446              		.loc 1 903 5 view .LVU689
 2447              		.loc 1 903 26 is_stmt 0 view .LVU690
 2448 0008 0269     		ldr	r2, [r0, #16]	@ unaligned
 2449              		.loc 1 903 38 view .LVU691
 2450 000a 8369     		ldr	r3, [r0, #24]	@ unaligned
 2451              		.loc 1 903 46 view .LVU692
 2452 000c 03EBD373 		add	r3, r3, r3, lsr #31
 2453              		.loc 1 903 32 view .LVU693
 2454 0010 02EB6303 		add	r3, r2, r3, asr #1
 2455              		.loc 1 903 13 view .LVU694
 2456 0014 0FFA83FA 		sxth	r10, r3
 2457              	.LVL210:
 904:Dsp/widget/wgt_core/UI_Controller.c ****     float Pcnt_Val = 0;
 2458              		.loc 1 904 5 is_stmt 1 view .LVU695
 905:Dsp/widget/wgt_core/UI_Controller.c **** 
 906:Dsp/widget/wgt_core/UI_Controller.c ****     if ((Obj == NULL) &&
 2459              		.loc 1 906 5 view .LVU696
 2460              		.loc 1 906 8 is_stmt 0 view .LVU697
 2461 0018 50B1     		cbz	r0, .L222
 2462              	.L211:
 907:Dsp/widget/wgt_core/UI_Controller.c ****         (UI_DspInterface.draw_str == NULL) &&
 908:Dsp/widget/wgt_core/UI_Controller.c ****         (UI_DspInterface.draw_rectangle == NULL) &&
 909:Dsp/widget/wgt_core/UI_Controller.c ****         (UI_DspInterface.draw_line_h == NULL) &&
 910:Dsp/widget/wgt_core/UI_Controller.c ****         (UI_DspInterface.fill_rectangle == NULL))
 911:Dsp/widget/wgt_core/UI_Controller.c ****         return false;
 912:Dsp/widget/wgt_core/UI_Controller.c **** 
 913:Dsp/widget/wgt_core/UI_Controller.c ****     frame_CoordX = Obj->Gen_Data.x + strlen(Obj->Gen_Data.label) * STR_DIS + 5;
 2463              		.loc 1 913 5 is_stmt 1 view .LVU698
 2464              		.loc 1 913 33 is_stmt 0 view .LVU699
 2465 001a B4F90420 		ldrsh	r2, [r4, #4]	@ unaligned
 2466              		.loc 1 913 58 view .LVU700
 2467 001e 2168     		ldr	r1, [r4]	@ unaligned
 2468              	.LVL211:
 914:Dsp/widget/wgt_core/UI_Controller.c **** 
 915:Dsp/widget/wgt_core/UI_Controller.c ****     switch (base_font)
 2469              		.loc 1 915 5 is_stmt 1 view .LVU701
 2470 0020 724B     		ldr	r3, .L224
 2471 0022 1878     		ldrb	r0, [r3]	@ zero_extendqisi2
 2472              	.LVL212:
 2473              		.loc 1 915 5 is_stmt 0 view .LVU702
 2474 0024 0828     		cmp	r0, #8
 2475 0026 15D0     		beq	.L223
 916:Dsp/widget/wgt_core/UI_Controller.c ****     {
 917:Dsp/widget/wgt_core/UI_Controller.c ****     case Font_8:
 918:Dsp/widget/wgt_core/UI_Controller.c ****         frame_Height = 5;
ARM GAS  /var/folders/lx/hc4sn_b53233_zkc9xbbl97r0000gp/T//cc4iWlrc.s 			page 64


 919:Dsp/widget/wgt_core/UI_Controller.c ****         break;
 920:Dsp/widget/wgt_core/UI_Controller.c **** 
 921:Dsp/widget/wgt_core/UI_Controller.c ****     case Font_12:
 922:Dsp/widget/wgt_core/UI_Controller.c ****     case Font_16:
 923:Dsp/widget/wgt_core/UI_Controller.c ****     default:
 924:Dsp/widget/wgt_core/UI_Controller.c ****         return false;
 2476              		.loc 1 924 16 view .LVU703
 2477 0028 0020     		movs	r0, #0
 2478              	.LVL213:
 2479              	.L212:
 925:Dsp/widget/wgt_core/UI_Controller.c ****     }
 926:Dsp/widget/wgt_core/UI_Controller.c **** 
 927:Dsp/widget/wgt_core/UI_Controller.c ****     if (Obj->width % 2 == 0)
 928:Dsp/widget/wgt_core/UI_Controller.c ****         frame_width = Obj->width + 1;
 929:Dsp/widget/wgt_core/UI_Controller.c **** 
 930:Dsp/widget/wgt_core/UI_Controller.c ****     UI_DspInterface.draw_str(base_font, Obj->Gen_Data.label, Obj->Gen_Data.x, Obj->Gen_Data.y - bas
 931:Dsp/widget/wgt_core/UI_Controller.c ****     UI_DspInterface.draw_rectangle(Obj->Gen_Data.x, Obj->Gen_Data.y, frame_width, frame_Height, DEF
 932:Dsp/widget/wgt_core/UI_Controller.c **** 
 933:Dsp/widget/wgt_core/UI_Controller.c ****     if (Obj->Mv_Dir == UI_ProcBar_GrothFrom_Left)
 934:Dsp/widget/wgt_core/UI_Controller.c ****     {
 935:Dsp/widget/wgt_core/UI_Controller.c ****         block_start_CoordX = Obj->Gen_Data.x + 2;
 936:Dsp/widget/wgt_core/UI_Controller.c ****         block_start_CoordY = Obj->Gen_Data.y + 2;
 937:Dsp/widget/wgt_core/UI_Controller.c **** 
 938:Dsp/widget/wgt_core/UI_Controller.c ****         bar_len = (Obj->cur_val / (float)Obj->range) * (frame_width - 5);
 939:Dsp/widget/wgt_core/UI_Controller.c **** 
 940:Dsp/widget/wgt_core/UI_Controller.c ****         UI_DspInterface.draw_line_h(block_start_CoordX, block_start_CoordY, bar_len, DEFAULT_PROCES
 941:Dsp/widget/wgt_core/UI_Controller.c ****     }
 942:Dsp/widget/wgt_core/UI_Controller.c ****     else if (Obj->Mv_Dir == UI_ProcBar_GrothFrom_Mid)
 943:Dsp/widget/wgt_core/UI_Controller.c ****     {
 944:Dsp/widget/wgt_core/UI_Controller.c ****         UI_DspInterface.draw_line_v(Obj->Gen_Data.x + frame_width / 2, Obj->Gen_Data.y, frame_Heigh
 945:Dsp/widget/wgt_core/UI_Controller.c ****         block_start_CoordY = Obj->Gen_Data.y + 2;
 946:Dsp/widget/wgt_core/UI_Controller.c **** 
 947:Dsp/widget/wgt_core/UI_Controller.c ****         if (Obj->cur_val < mid_val)
 948:Dsp/widget/wgt_core/UI_Controller.c ****         {
 949:Dsp/widget/wgt_core/UI_Controller.c ****             Pcnt_Val = (((Obj->range / 2) - Obj->cur_val) / ((float)(Obj->range / 2)));
 950:Dsp/widget/wgt_core/UI_Controller.c ****             block_start_CoordX = Obj->Gen_Data.x + 1 + frame_width / 2 - (Pcnt_Val * (frame_width -
 951:Dsp/widget/wgt_core/UI_Controller.c ****             UI_DspInterface.draw_line_h(block_start_CoordX, block_start_CoordY, (Pcnt_Val * (frame_
 952:Dsp/widget/wgt_core/UI_Controller.c ****         }
 953:Dsp/widget/wgt_core/UI_Controller.c ****         else if (Obj->cur_val > mid_val)
 954:Dsp/widget/wgt_core/UI_Controller.c ****         {
 955:Dsp/widget/wgt_core/UI_Controller.c ****             Pcnt_Val = ((Obj->cur_val - (Obj->range / 2)) / ((float)(Obj->range / 2)));
 956:Dsp/widget/wgt_core/UI_Controller.c **** 
 957:Dsp/widget/wgt_core/UI_Controller.c ****             block_start_CoordX = Obj->Gen_Data.x + frame_width / 2;
 958:Dsp/widget/wgt_core/UI_Controller.c ****             UI_DspInterface.draw_line_h(block_start_CoordX, block_start_CoordY, (Pcnt_Val * (frame_
 959:Dsp/widget/wgt_core/UI_Controller.c ****         }
 960:Dsp/widget/wgt_core/UI_Controller.c ****     }
 961:Dsp/widget/wgt_core/UI_Controller.c ****     else
 962:Dsp/widget/wgt_core/UI_Controller.c ****         return false;
 963:Dsp/widget/wgt_core/UI_Controller.c **** 
 964:Dsp/widget/wgt_core/UI_Controller.c ****     return true;
 965:Dsp/widget/wgt_core/UI_Controller.c **** }
 2480              		.loc 1 965 1 view .LVU704
 2481 002a 04B0     		add	sp, sp, #16
 2482              	.LCFI46:
 2483              		.cfi_remember_state
 2484              		.cfi_def_cfa_offset 32
 2485              		@ sp needed
ARM GAS  /var/folders/lx/hc4sn_b53233_zkc9xbbl97r0000gp/T//cc4iWlrc.s 			page 65


 2486 002c BDE8F087 		pop	{r4, r5, r6, r7, r8, r9, r10, pc}
 2487              	.LVL214:
 2488              	.L222:
 2489              	.LCFI47:
 2490              		.cfi_restore_state
 907:Dsp/widget/wgt_core/UI_Controller.c ****         (UI_DspInterface.draw_rectangle == NULL) &&
 2491              		.loc 1 907 25 discriminator 1 view .LVU705
 2492 0030 6F4B     		ldr	r3, .L224+4
 2493 0032 1B68     		ldr	r3, [r3]
 906:Dsp/widget/wgt_core/UI_Controller.c ****         (UI_DspInterface.draw_str == NULL) &&
 2494              		.loc 1 906 23 discriminator 1 view .LVU706
 2495 0034 002B     		cmp	r3, #0
 2496 0036 F0D1     		bne	.L211
 908:Dsp/widget/wgt_core/UI_Controller.c ****         (UI_DspInterface.draw_line_h == NULL) &&
 2497              		.loc 1 908 25 view .LVU707
 2498 0038 6D4B     		ldr	r3, .L224+4
 2499 003a 9B69     		ldr	r3, [r3, #24]
 907:Dsp/widget/wgt_core/UI_Controller.c ****         (UI_DspInterface.draw_rectangle == NULL) &&
 2500              		.loc 1 907 44 view .LVU708
 2501 003c 002B     		cmp	r3, #0
 2502 003e ECD1     		bne	.L211
 909:Dsp/widget/wgt_core/UI_Controller.c ****         (UI_DspInterface.fill_rectangle == NULL))
 2503              		.loc 1 909 25 view .LVU709
 2504 0040 6B4B     		ldr	r3, .L224+4
 2505 0042 DB68     		ldr	r3, [r3, #12]
 908:Dsp/widget/wgt_core/UI_Controller.c ****         (UI_DspInterface.draw_line_h == NULL) &&
 2506              		.loc 1 908 50 view .LVU710
 2507 0044 002B     		cmp	r3, #0
 2508 0046 E8D1     		bne	.L211
 910:Dsp/widget/wgt_core/UI_Controller.c ****         return false;
 2509              		.loc 1 910 25 view .LVU711
 2510 0048 694B     		ldr	r3, .L224+4
 2511 004a 5B6A     		ldr	r3, [r3, #36]
 909:Dsp/widget/wgt_core/UI_Controller.c ****         (UI_DspInterface.fill_rectangle == NULL))
 2512              		.loc 1 909 47 view .LVU712
 2513 004c 002B     		cmp	r3, #0
 2514 004e E4D1     		bne	.L211
 911:Dsp/widget/wgt_core/UI_Controller.c **** 
 2515              		.loc 1 911 16 view .LVU713
 2516 0050 0020     		movs	r0, #0
 2517              	.LVL215:
 911:Dsp/widget/wgt_core/UI_Controller.c **** 
 2518              		.loc 1 911 16 view .LVU714
 2519 0052 EAE7     		b	.L212
 2520              	.LVL216:
 2521              	.L223:
 918:Dsp/widget/wgt_core/UI_Controller.c ****         break;
 2522              		.loc 1 918 9 is_stmt 1 view .LVU715
 919:Dsp/widget/wgt_core/UI_Controller.c **** 
 2523              		.loc 1 919 9 view .LVU716
 927:Dsp/widget/wgt_core/UI_Controller.c ****         frame_width = Obj->width + 1;
 2524              		.loc 1 927 5 view .LVU717
 927:Dsp/widget/wgt_core/UI_Controller.c ****         frame_width = Obj->width + 1;
 2525              		.loc 1 927 12 is_stmt 0 view .LVU718
 2526 0054 94F82060 		ldrb	r6, [r4, #32]	@ zero_extendqisi2
 927:Dsp/widget/wgt_core/UI_Controller.c ****         frame_width = Obj->width + 1;
 2527              		.loc 1 927 8 view .LVU719
ARM GAS  /var/folders/lx/hc4sn_b53233_zkc9xbbl97r0000gp/T//cc4iWlrc.s 			page 66


 2528 0058 16F0010F 		tst	r6, #1
 2529 005c 43D1     		bne	.L218
 928:Dsp/widget/wgt_core/UI_Controller.c **** 
 2530              		.loc 1 928 9 is_stmt 1 view .LVU720
 928:Dsp/widget/wgt_core/UI_Controller.c **** 
 2531              		.loc 1 928 21 is_stmt 0 view .LVU721
 2532 005e 0136     		adds	r6, r6, #1
 2533 0060 F6B2     		uxtb	r6, r6
 2534              	.LVL217:
 2535              	.L213:
 930:Dsp/widget/wgt_core/UI_Controller.c ****     UI_DspInterface.draw_rectangle(Obj->Gen_Data.x, Obj->Gen_Data.y, frame_width, frame_Height, DEF
 2536              		.loc 1 930 5 is_stmt 1 view .LVU722
 930:Dsp/widget/wgt_core/UI_Controller.c ****     UI_DspInterface.draw_rectangle(Obj->Gen_Data.x, Obj->Gen_Data.y, frame_width, frame_Height, DEF
 2537              		.loc 1 930 20 is_stmt 0 view .LVU723
 2538 0062 634F     		ldr	r7, .L224+4
 930:Dsp/widget/wgt_core/UI_Controller.c ****     UI_DspInterface.draw_rectangle(Obj->Gen_Data.x, Obj->Gen_Data.y, frame_width, frame_Height, DEF
 2539              		.loc 1 930 92 view .LVU724
 2540 0064 E388     		ldrh	r3, [r4, #6]	@ unaligned
 930:Dsp/widget/wgt_core/UI_Controller.c ****     UI_DspInterface.draw_rectangle(Obj->Gen_Data.x, Obj->Gen_Data.y, frame_width, frame_Height, DEF
 2541              		.loc 1 930 95 view .LVU725
 2542 0066 1B1A     		subs	r3, r3, r0
 2543 0068 9BB2     		uxth	r3, r3
 930:Dsp/widget/wgt_core/UI_Controller.c ****     UI_DspInterface.draw_rectangle(Obj->Gen_Data.x, Obj->Gen_Data.y, frame_width, frame_Height, DEF
 2544              		.loc 1 930 107 view .LVU726
 2545 006a 033B     		subs	r3, r3, #3
 930:Dsp/widget/wgt_core/UI_Controller.c ****     UI_DspInterface.draw_rectangle(Obj->Gen_Data.x, Obj->Gen_Data.y, frame_width, frame_Height, DEF
 2546              		.loc 1 930 5 view .LVU727
 2547 006c 4FF00108 		mov	r8, #1
 2548 0070 CDF80080 		str	r8, [sp]
 930:Dsp/widget/wgt_core/UI_Controller.c ****     UI_DspInterface.draw_rectangle(Obj->Gen_Data.x, Obj->Gen_Data.y, frame_width, frame_Height, DEF
 2549              		.loc 1 930 5 view .LVU728
 2550 0074 1BB2     		sxth	r3, r3
 2551 0076 3D68     		ldr	r5, [r7]
 2552 0078 A847     		blx	r5
 2553              	.LVL218:
 931:Dsp/widget/wgt_core/UI_Controller.c **** 
 2554              		.loc 1 931 5 is_stmt 1 view .LVU729
 931:Dsp/widget/wgt_core/UI_Controller.c **** 
 2555              		.loc 1 931 20 is_stmt 0 view .LVU730
 2556 007a BF69     		ldr	r7, [r7, #24]
 931:Dsp/widget/wgt_core/UI_Controller.c **** 
 2557              		.loc 1 931 5 view .LVU731
 2558 007c CDF80480 		str	r8, [sp, #4]
 2559 0080 CDF80080 		str	r8, [sp]
 2560 0084 0523     		movs	r3, #5
 2561 0086 3246     		mov	r2, r6
 2562 0088 B4F90610 		ldrsh	r1, [r4, #6]	@ unaligned
 2563 008c B4F90400 		ldrsh	r0, [r4, #4]	@ unaligned
 2564 0090 B847     		blx	r7
 2565              	.LVL219:
 933:Dsp/widget/wgt_core/UI_Controller.c ****     {
 2566              		.loc 1 933 5 is_stmt 1 view .LVU732
 933:Dsp/widget/wgt_core/UI_Controller.c ****     {
 2567              		.loc 1 933 12 is_stmt 0 view .LVU733
 2568 0092 94F82430 		ldrb	r3, [r4, #36]	@ zero_extendqisi2
 933:Dsp/widget/wgt_core/UI_Controller.c ****     {
 2569              		.loc 1 933 8 view .LVU734
ARM GAS  /var/folders/lx/hc4sn_b53233_zkc9xbbl97r0000gp/T//cc4iWlrc.s 			page 67


 2570 0096 43BB     		cbnz	r3, .L214
 935:Dsp/widget/wgt_core/UI_Controller.c ****         block_start_CoordY = Obj->Gen_Data.y + 2;
 2571              		.loc 1 935 9 is_stmt 1 view .LVU735
 935:Dsp/widget/wgt_core/UI_Controller.c ****         block_start_CoordY = Obj->Gen_Data.y + 2;
 2572              		.loc 1 935 43 is_stmt 0 view .LVU736
 2573 0098 A088     		ldrh	r0, [r4, #4]	@ unaligned
 935:Dsp/widget/wgt_core/UI_Controller.c ****         block_start_CoordY = Obj->Gen_Data.y + 2;
 2574              		.loc 1 935 46 view .LVU737
 2575 009a 0230     		adds	r0, r0, #2
 2576              	.LVL220:
 936:Dsp/widget/wgt_core/UI_Controller.c **** 
 2577              		.loc 1 936 9 is_stmt 1 view .LVU738
 936:Dsp/widget/wgt_core/UI_Controller.c **** 
 2578              		.loc 1 936 43 is_stmt 0 view .LVU739
 2579 009c E188     		ldrh	r1, [r4, #6]	@ unaligned
 936:Dsp/widget/wgt_core/UI_Controller.c **** 
 2580              		.loc 1 936 46 view .LVU740
 2581 009e 0231     		adds	r1, r1, #2
 2582              	.LVL221:
 938:Dsp/widget/wgt_core/UI_Controller.c **** 
 2583              		.loc 1 938 9 is_stmt 1 view .LVU741
 938:Dsp/widget/wgt_core/UI_Controller.c **** 
 2584              		.loc 1 938 23 is_stmt 0 view .LVU742
 2585 00a0 E369     		ldr	r3, [r4, #28]	@ unaligned
 2586 00a2 06EE903A 		vmov	s13, r3	@ int
 938:Dsp/widget/wgt_core/UI_Controller.c **** 
 2587              		.loc 1 938 45 view .LVU743
 2588 00a6 A369     		ldr	r3, [r4, #24]	@ unaligned
 2589 00a8 07EE103A 		vmov	s14, r3	@ int
 938:Dsp/widget/wgt_core/UI_Controller.c **** 
 2590              		.loc 1 938 35 view .LVU744
 2591 00ac B8EEC77A 		vcvt.f32.s32	s14, s14
 938:Dsp/widget/wgt_core/UI_Controller.c **** 
 2592              		.loc 1 938 33 view .LVU745
 2593 00b0 F8EEE66A 		vcvt.f32.s32	s13, s13
 2594 00b4 86EE876A 		vdiv.f32	s12, s13, s14
 938:Dsp/widget/wgt_core/UI_Controller.c **** 
 2595              		.loc 1 938 69 view .LVU746
 2596 00b8 731F     		subs	r3, r6, #5
 2597 00ba 07EE903A 		vmov	s15, r3	@ int
 938:Dsp/widget/wgt_core/UI_Controller.c **** 
 2598              		.loc 1 938 54 view .LVU747
 2599 00be F8EEE77A 		vcvt.f32.s32	s15, s15
 2600 00c2 67EE867A 		vmul.f32	s15, s15, s12
 938:Dsp/widget/wgt_core/UI_Controller.c **** 
 2601              		.loc 1 938 17 view .LVU748
 2602 00c6 FDEEE77A 		vcvt.s32.f32	s15, s15
 2603 00ca CDED037A 		vstr.32	s15, [sp, #12]	@ int
 2604              	.LVL222:
 940:Dsp/widget/wgt_core/UI_Controller.c ****     }
 2605              		.loc 1 940 9 is_stmt 1 view .LVU749
 940:Dsp/widget/wgt_core/UI_Controller.c ****     }
 2606              		.loc 1 940 24 is_stmt 0 view .LVU750
 2607 00ce 484B     		ldr	r3, .L224+4
 2608 00d0 DD68     		ldr	r5, [r3, #12]
 940:Dsp/widget/wgt_core/UI_Controller.c ****     }
 2609              		.loc 1 940 9 view .LVU751
ARM GAS  /var/folders/lx/hc4sn_b53233_zkc9xbbl97r0000gp/T//cc4iWlrc.s 			page 68


 2610 00d2 CDF80080 		str	r8, [sp]
 2611 00d6 4346     		mov	r3, r8
 2612 00d8 9DF80C20 		ldrb	r2, [sp, #12]	@ zero_extendqisi2
 2613 00dc 09B2     		sxth	r1, r1
 940:Dsp/widget/wgt_core/UI_Controller.c ****     }
 2614              		.loc 1 940 9 view .LVU752
 2615 00de 00B2     		sxth	r0, r0
 940:Dsp/widget/wgt_core/UI_Controller.c ****     }
 2616              		.loc 1 940 9 view .LVU753
 2617 00e0 A847     		blx	r5
 2618              	.LVL223:
 964:Dsp/widget/wgt_core/UI_Controller.c **** }
 2619              		.loc 1 964 12 view .LVU754
 2620 00e2 4046     		mov	r0, r8
 2621 00e4 A1E7     		b	.L212
 2622              	.LVL224:
 2623              	.L218:
 898:Dsp/widget/wgt_core/UI_Controller.c ****     uint8_t frame_Height = 0;
 2624              		.loc 1 898 13 view .LVU755
 2625 00e6 0026     		movs	r6, #0
 2626 00e8 BBE7     		b	.L213
 2627              	.LVL225:
 2628              	.L214:
 942:Dsp/widget/wgt_core/UI_Controller.c ****     {
 2629              		.loc 1 942 10 is_stmt 1 view .LVU756
 942:Dsp/widget/wgt_core/UI_Controller.c ****     {
 2630              		.loc 1 942 13 is_stmt 0 view .LVU757
 2631 00ea 012B     		cmp	r3, #1
 2632 00ec 79D1     		bne	.L219
 944:Dsp/widget/wgt_core/UI_Controller.c ****         block_start_CoordY = Obj->Gen_Data.y + 2;
 2633              		.loc 1 944 9 is_stmt 1 view .LVU758
 944:Dsp/widget/wgt_core/UI_Controller.c ****         block_start_CoordY = Obj->Gen_Data.y + 2;
 2634              		.loc 1 944 24 is_stmt 0 view .LVU759
 2635 00ee 404B     		ldr	r3, .L224+4
 2636 00f0 D3F81090 		ldr	r9, [r3, #16]
 944:Dsp/widget/wgt_core/UI_Controller.c ****         block_start_CoordY = Obj->Gen_Data.y + 2;
 2637              		.loc 1 944 50 view .LVU760
 2638 00f4 A088     		ldrh	r0, [r4, #4]	@ unaligned
 944:Dsp/widget/wgt_core/UI_Controller.c ****         block_start_CoordY = Obj->Gen_Data.y + 2;
 2639              		.loc 1 944 53 view .LVU761
 2640 00f6 7708     		lsrs	r7, r6, #1
 2641 00f8 00EB5600 		add	r0, r0, r6, lsr #1
 944:Dsp/widget/wgt_core/UI_Controller.c ****         block_start_CoordY = Obj->Gen_Data.y + 2;
 2642              		.loc 1 944 9 view .LVU762
 2643 00fc 0123     		movs	r3, #1
 2644 00fe 0093     		str	r3, [sp]
 2645 0100 0422     		movs	r2, #4
 2646 0102 B4F90610 		ldrsh	r1, [r4, #6]	@ unaligned
 2647 0106 00B2     		sxth	r0, r0
 2648 0108 C847     		blx	r9
 2649              	.LVL226:
 945:Dsp/widget/wgt_core/UI_Controller.c **** 
 2650              		.loc 1 945 9 is_stmt 1 view .LVU763
 945:Dsp/widget/wgt_core/UI_Controller.c **** 
 2651              		.loc 1 945 43 is_stmt 0 view .LVU764
 2652 010a E188     		ldrh	r1, [r4, #6]	@ unaligned
 945:Dsp/widget/wgt_core/UI_Controller.c **** 
ARM GAS  /var/folders/lx/hc4sn_b53233_zkc9xbbl97r0000gp/T//cc4iWlrc.s 			page 69


 2653              		.loc 1 945 46 view .LVU765
 2654 010c 0231     		adds	r1, r1, #2
 945:Dsp/widget/wgt_core/UI_Controller.c **** 
 2655              		.loc 1 945 28 view .LVU766
 2656 010e 09B2     		sxth	r1, r1
 2657              	.LVL227:
 947:Dsp/widget/wgt_core/UI_Controller.c ****         {
 2658              		.loc 1 947 9 is_stmt 1 view .LVU767
 947:Dsp/widget/wgt_core/UI_Controller.c ****         {
 2659              		.loc 1 947 16 is_stmt 0 view .LVU768
 2660 0110 E369     		ldr	r3, [r4, #28]	@ unaligned
 947:Dsp/widget/wgt_core/UI_Controller.c ****         {
 2661              		.loc 1 947 12 view .LVU769
 2662 0112 5345     		cmp	r3, r10
 2663 0114 37DA     		bge	.L215
 949:Dsp/widget/wgt_core/UI_Controller.c ****             block_start_CoordX = Obj->Gen_Data.x + 1 + frame_width / 2 - (Pcnt_Val * (frame_width -
 2664              		.loc 1 949 13 is_stmt 1 view .LVU770
 949:Dsp/widget/wgt_core/UI_Controller.c ****             block_start_CoordX = Obj->Gen_Data.x + 1 + frame_width / 2 - (Pcnt_Val * (frame_width -
 2665              		.loc 1 949 30 is_stmt 0 view .LVU771
 2666 0116 A269     		ldr	r2, [r4, #24]	@ unaligned
 949:Dsp/widget/wgt_core/UI_Controller.c ****             block_start_CoordX = Obj->Gen_Data.x + 1 + frame_width / 2 - (Pcnt_Val * (frame_width -
 2667              		.loc 1 949 38 view .LVU772
 2668 0118 02EBD272 		add	r2, r2, r2, lsr #31
 2669 011c 5010     		asrs	r0, r2, #1
 2670 011e 06EE900A 		vmov	s13, r0	@ int
 949:Dsp/widget/wgt_core/UI_Controller.c ****             block_start_CoordX = Obj->Gen_Data.x + 1 + frame_width / 2 - (Pcnt_Val * (frame_width -
 2671              		.loc 1 949 43 view .LVU773
 2672 0122 C3EB6203 		rsb	r3, r3, r2, asr #1
 949:Dsp/widget/wgt_core/UI_Controller.c ****             block_start_CoordX = Obj->Gen_Data.x + 1 + frame_width / 2 - (Pcnt_Val * (frame_width -
 2673              		.loc 1 949 59 view .LVU774
 2674 0126 07EE903A 		vmov	s15, r3	@ int
 2675 012a F8EEE77A 		vcvt.f32.s32	s15, s15
 949:Dsp/widget/wgt_core/UI_Controller.c ****             block_start_CoordX = Obj->Gen_Data.x + 1 + frame_width / 2 - (Pcnt_Val * (frame_width -
 2676              		.loc 1 949 62 view .LVU775
 2677 012e F8EEE66A 		vcvt.f32.s32	s13, s13
 949:Dsp/widget/wgt_core/UI_Controller.c ****             block_start_CoordX = Obj->Gen_Data.x + 1 + frame_width / 2 - (Pcnt_Val * (frame_width -
 2678              		.loc 1 949 22 view .LVU776
 2679 0132 87EEA66A 		vdiv.f32	s12, s15, s13
 2680              	.LVL228:
 950:Dsp/widget/wgt_core/UI_Controller.c ****             UI_DspInterface.draw_line_h(block_start_CoordX, block_start_CoordY, (Pcnt_Val * (frame_
 2681              		.loc 1 950 13 is_stmt 1 view .LVU777
 950:Dsp/widget/wgt_core/UI_Controller.c ****             UI_DspInterface.draw_line_h(block_start_CoordX, block_start_CoordY, (Pcnt_Val * (frame_
 2682              		.loc 1 950 47 is_stmt 0 view .LVU778
 2683 0136 B4F90430 		ldrsh	r3, [r4, #4]	@ unaligned
 950:Dsp/widget/wgt_core/UI_Controller.c ****             UI_DspInterface.draw_line_h(block_start_CoordX, block_start_CoordY, (Pcnt_Val * (frame_
 2684              		.loc 1 950 50 view .LVU779
 2685 013a 0133     		adds	r3, r3, #1
 950:Dsp/widget/wgt_core/UI_Controller.c ****             UI_DspInterface.draw_line_h(block_start_CoordX, block_start_CoordY, (Pcnt_Val * (frame_
 2686              		.loc 1 950 54 view .LVU780
 2687 013c 3B44     		add	r3, r3, r7
 2688 013e 07EE903A 		vmov	s15, r3	@ int
 950:Dsp/widget/wgt_core/UI_Controller.c ****             UI_DspInterface.draw_line_h(block_start_CoordX, block_start_CoordY, (Pcnt_Val * (frame_
 2689              		.loc 1 950 99 view .LVU781
 2690 0142 331F     		subs	r3, r6, #4
 2691 0144 07EE103A 		vmov	s14, r3	@ int
 950:Dsp/widget/wgt_core/UI_Controller.c ****             UI_DspInterface.draw_line_h(block_start_CoordX, block_start_CoordY, (Pcnt_Val * (frame_
 2692              		.loc 1 950 84 view .LVU782
ARM GAS  /var/folders/lx/hc4sn_b53233_zkc9xbbl97r0000gp/T//cc4iWlrc.s 			page 70


 2693 0148 B8EEC77A 		vcvt.f32.s32	s14, s14
 2694 014c 27EE067A 		vmul.f32	s14, s14, s12
 950:Dsp/widget/wgt_core/UI_Controller.c ****             UI_DspInterface.draw_line_h(block_start_CoordX, block_start_CoordY, (Pcnt_Val * (frame_
 2695              		.loc 1 950 104 view .LVU783
 2696 0150 F6EE006A 		vmov.f32	s13, #5.0e-1
 2697 0154 27EE267A 		vmul.f32	s14, s14, s13
 950:Dsp/widget/wgt_core/UI_Controller.c ****             UI_DspInterface.draw_line_h(block_start_CoordX, block_start_CoordY, (Pcnt_Val * (frame_
 2698              		.loc 1 950 72 view .LVU784
 2699 0158 F8EEE77A 		vcvt.f32.s32	s15, s15
 2700 015c 77EEC77A 		vsub.f32	s15, s15, s14
 950:Dsp/widget/wgt_core/UI_Controller.c ****             UI_DspInterface.draw_line_h(block_start_CoordX, block_start_CoordY, (Pcnt_Val * (frame_
 2701              		.loc 1 950 32 view .LVU785
 2702 0160 FDEEE77A 		vcvt.s32.f32	s15, s15
 2703              	.LVL229:
 951:Dsp/widget/wgt_core/UI_Controller.c ****         }
 2704              		.loc 1 951 13 is_stmt 1 view .LVU786
 951:Dsp/widget/wgt_core/UI_Controller.c ****         }
 2705              		.loc 1 951 28 is_stmt 0 view .LVU787
 2706 0164 224B     		ldr	r3, .L224+4
 2707 0166 DD68     		ldr	r5, [r3, #12]
 951:Dsp/widget/wgt_core/UI_Controller.c ****         }
 2708              		.loc 1 951 13 view .LVU788
 2709 0168 BCEEC77A 		vcvt.u32.f32	s14, s14
 2710 016c 8DED037A 		vstr.32	s14, [sp, #12]	@ int
 2711 0170 0124     		movs	r4, #1
 2712              	.LVL230:
 951:Dsp/widget/wgt_core/UI_Controller.c ****         }
 2713              		.loc 1 951 13 view .LVU789
 2714 0172 0094     		str	r4, [sp]
 2715 0174 2346     		mov	r3, r4
 2716 0176 9DF80C20 		ldrb	r2, [sp, #12]	@ zero_extendqisi2
 2717 017a 17EE900A 		vmov	r0, s15	@ int
 2718 017e 00B2     		sxth	r0, r0
 2719 0180 A847     		blx	r5
 2720              	.LVL231:
 964:Dsp/widget/wgt_core/UI_Controller.c **** }
 2721              		.loc 1 964 12 view .LVU790
 2722 0182 2046     		mov	r0, r4
 2723 0184 51E7     		b	.L212
 2724              	.LVL232:
 2725              	.L215:
 953:Dsp/widget/wgt_core/UI_Controller.c ****         {
 2726              		.loc 1 953 14 is_stmt 1 view .LVU791
 953:Dsp/widget/wgt_core/UI_Controller.c ****         {
 2727              		.loc 1 953 17 is_stmt 0 view .LVU792
 2728 0186 5345     		cmp	r3, r10
 2729 0188 2DDD     		ble	.L220
 955:Dsp/widget/wgt_core/UI_Controller.c **** 
 2730              		.loc 1 955 13 is_stmt 1 view .LVU793
 955:Dsp/widget/wgt_core/UI_Controller.c **** 
 2731              		.loc 1 955 45 is_stmt 0 view .LVU794
 2732 018a A269     		ldr	r2, [r4, #24]	@ unaligned
 955:Dsp/widget/wgt_core/UI_Controller.c **** 
 2733              		.loc 1 955 53 view .LVU795
 2734 018c 02EBD272 		add	r2, r2, r2, lsr #31
 955:Dsp/widget/wgt_core/UI_Controller.c **** 
 2735              		.loc 1 955 39 view .LVU796
ARM GAS  /var/folders/lx/hc4sn_b53233_zkc9xbbl97r0000gp/T//cc4iWlrc.s 			page 71


 2736 0190 A3EB6203 		sub	r3, r3, r2, asr #1
 955:Dsp/widget/wgt_core/UI_Controller.c **** 
 2737              		.loc 1 955 59 view .LVU797
 2738 0194 07EE903A 		vmov	s15, r3	@ int
 2739 0198 B8EEE77A 		vcvt.f32.s32	s14, s15
 955:Dsp/widget/wgt_core/UI_Controller.c **** 
 2740              		.loc 1 955 81 view .LVU798
 2741 019c 5210     		asrs	r2, r2, #1
 955:Dsp/widget/wgt_core/UI_Controller.c **** 
 2742              		.loc 1 955 62 view .LVU799
 2743 019e 07EE902A 		vmov	s15, r2	@ int
 2744 01a2 F8EEE76A 		vcvt.f32.s32	s13, s15
 955:Dsp/widget/wgt_core/UI_Controller.c **** 
 2745              		.loc 1 955 22 view .LVU800
 2746 01a6 87EE266A 		vdiv.f32	s12, s14, s13
 2747              	.LVL233:
 957:Dsp/widget/wgt_core/UI_Controller.c ****             UI_DspInterface.draw_line_h(block_start_CoordX, block_start_CoordY, (Pcnt_Val * (frame_
 2748              		.loc 1 957 13 is_stmt 1 view .LVU801
 957:Dsp/widget/wgt_core/UI_Controller.c ****             UI_DspInterface.draw_line_h(block_start_CoordX, block_start_CoordY, (Pcnt_Val * (frame_
 2749              		.loc 1 957 47 is_stmt 0 view .LVU802
 2750 01aa A088     		ldrh	r0, [r4, #4]	@ unaligned
 957:Dsp/widget/wgt_core/UI_Controller.c ****             UI_DspInterface.draw_line_h(block_start_CoordX, block_start_CoordY, (Pcnt_Val * (frame_
 2751              		.loc 1 957 50 view .LVU803
 2752 01ac 3844     		add	r0, r0, r7
 2753              	.LVL234:
 958:Dsp/widget/wgt_core/UI_Controller.c ****         }
 2754              		.loc 1 958 13 is_stmt 1 view .LVU804
 958:Dsp/widget/wgt_core/UI_Controller.c ****         }
 2755              		.loc 1 958 28 is_stmt 0 view .LVU805
 2756 01ae 104B     		ldr	r3, .L224+4
 2757 01b0 DD68     		ldr	r5, [r3, #12]
 958:Dsp/widget/wgt_core/UI_Controller.c ****         }
 2758              		.loc 1 958 106 view .LVU806
 2759 01b2 331F     		subs	r3, r6, #4
 2760 01b4 07EE903A 		vmov	s15, r3	@ int
 958:Dsp/widget/wgt_core/UI_Controller.c ****         }
 2761              		.loc 1 958 91 view .LVU807
 2762 01b8 F8EEE77A 		vcvt.f32.s32	s15, s15
 2763 01bc 67EE867A 		vmul.f32	s15, s15, s12
 958:Dsp/widget/wgt_core/UI_Controller.c ****         }
 2764              		.loc 1 958 111 view .LVU808
 2765 01c0 B6EE007A 		vmov.f32	s14, #5.0e-1
 2766 01c4 67EE877A 		vmul.f32	s15, s15, s14
 958:Dsp/widget/wgt_core/UI_Controller.c ****         }
 2767              		.loc 1 958 13 view .LVU809
 2768 01c8 FCEEE77A 		vcvt.u32.f32	s15, s15
 2769 01cc CDED037A 		vstr.32	s15, [sp, #12]	@ int
 2770 01d0 0124     		movs	r4, #1
 2771              	.LVL235:
 958:Dsp/widget/wgt_core/UI_Controller.c ****         }
 2772              		.loc 1 958 13 view .LVU810
 2773 01d2 0094     		str	r4, [sp]
 2774 01d4 2346     		mov	r3, r4
 2775 01d6 9DF80C20 		ldrb	r2, [sp, #12]	@ zero_extendqisi2
 2776 01da 00B2     		sxth	r0, r0
 958:Dsp/widget/wgt_core/UI_Controller.c ****         }
 2777              		.loc 1 958 13 view .LVU811
ARM GAS  /var/folders/lx/hc4sn_b53233_zkc9xbbl97r0000gp/T//cc4iWlrc.s 			page 72


 2778 01dc A847     		blx	r5
 2779              	.LVL236:
 964:Dsp/widget/wgt_core/UI_Controller.c **** }
 2780              		.loc 1 964 12 view .LVU812
 2781 01de 2046     		mov	r0, r4
 2782 01e0 23E7     		b	.L212
 2783              	.LVL237:
 2784              	.L219:
 962:Dsp/widget/wgt_core/UI_Controller.c **** 
 2785              		.loc 1 962 16 view .LVU813
 2786 01e2 0020     		movs	r0, #0
 2787 01e4 21E7     		b	.L212
 2788              	.LVL238:
 2789              	.L220:
 964:Dsp/widget/wgt_core/UI_Controller.c **** }
 2790              		.loc 1 964 12 view .LVU814
 2791 01e6 0120     		movs	r0, #1
 2792 01e8 1FE7     		b	.L212
 2793              	.L225:
 2794 01ea 00BF     		.align	2
 2795              	.L224:
 2796 01ec 00000000 		.word	.LANCHOR2
 2797 01f0 00000000 		.word	.LANCHOR0
 2798              		.cfi_endproc
 2799              	.LFE36:
 2801              		.section	.text.UI_ProcessBar_SetLabelPos,"ax",%progbits
 2802              		.align	1
 2803              		.syntax unified
 2804              		.thumb
 2805              		.thumb_func
 2806              		.fpu fpv4-sp-d16
 2808              	UI_ProcessBar_SetLabelPos:
 2809              	.LVL239:
 2810              	.LFB37:
 966:Dsp/widget/wgt_core/UI_Controller.c **** 
 967:Dsp/widget/wgt_core/UI_Controller.c **** static bool UI_ProcessBar_SetLabelPos(UI_ProcessBarObj_TypeDef *Obj, UI_ProcessBar_LabelPos_List Po
 968:Dsp/widget/wgt_core/UI_Controller.c **** {
 2811              		.loc 1 968 1 is_stmt 1 view -0
 2812              		.cfi_startproc
 2813              		@ args = 0, pretend = 0, frame = 0
 2814              		@ frame_needed = 0, uses_anonymous_args = 0
 2815              		@ link register save eliminated.
 969:Dsp/widget/wgt_core/UI_Controller.c ****     if ((Obj == NULL) || (Obj->Dsp_Type == UI_ProcBar_DspType_LoadBar))
 2816              		.loc 1 969 5 view .LVU816
 2817              		.loc 1 969 8 is_stmt 0 view .LVU817
 2818 0000 20B1     		cbz	r0, .L228
 2819              		.loc 1 969 30 discriminator 1 view .LVU818
 2820 0002 90F82330 		ldrb	r3, [r0, #35]	@ zero_extendqisi2
 2821              		.loc 1 969 23 discriminator 1 view .LVU819
 2822 0006 1BB1     		cbz	r3, .L229
 970:Dsp/widget/wgt_core/UI_Controller.c ****         return false;
 971:Dsp/widget/wgt_core/UI_Controller.c **** 
 972:Dsp/widget/wgt_core/UI_Controller.c ****     return true;
 2823              		.loc 1 972 12 view .LVU820
 2824 0008 0120     		movs	r0, #1
 2825              	.LVL240:
 2826              		.loc 1 972 12 view .LVU821
ARM GAS  /var/folders/lx/hc4sn_b53233_zkc9xbbl97r0000gp/T//cc4iWlrc.s 			page 73


 2827 000a 7047     		bx	lr
 2828              	.LVL241:
 2829              	.L228:
 970:Dsp/widget/wgt_core/UI_Controller.c ****         return false;
 2830              		.loc 1 970 16 view .LVU822
 2831 000c 0020     		movs	r0, #0
 2832              	.LVL242:
 970:Dsp/widget/wgt_core/UI_Controller.c ****         return false;
 2833              		.loc 1 970 16 view .LVU823
 2834 000e 7047     		bx	lr
 2835              	.LVL243:
 2836              	.L229:
 970:Dsp/widget/wgt_core/UI_Controller.c ****         return false;
 2837              		.loc 1 970 16 view .LVU824
 2838 0010 0020     		movs	r0, #0
 2839              	.LVL244:
 973:Dsp/widget/wgt_core/UI_Controller.c **** }
 2840              		.loc 1 973 1 view .LVU825
 2841 0012 7047     		bx	lr
 2842              		.cfi_endproc
 2843              	.LFE37:
 2845              		.section	.text.UI_Drop_Init,"ax",%progbits
 2846              		.align	1
 2847              		.syntax unified
 2848              		.thumb
 2849              		.thumb_func
 2850              		.fpu fpv4-sp-d16
 2852              	UI_Drop_Init:
 2853              	.LVL245:
 2854              	.LFB39:
 974:Dsp/widget/wgt_core/UI_Controller.c **** 
 975:Dsp/widget/wgt_core/UI_Controller.c **** static bool UI_ProcessBar_Ctl(UI_ProcessBarObj_TypeDef *Obj)
 976:Dsp/widget/wgt_core/UI_Controller.c **** {
 977:Dsp/widget/wgt_core/UI_Controller.c ****     char dig_str[3];
 978:Dsp/widget/wgt_core/UI_Controller.c ****     memset(dig_str, NULL, 3);
 979:Dsp/widget/wgt_core/UI_Controller.c **** 
 980:Dsp/widget/wgt_core/UI_Controller.c ****     if ((UI_DspInterface.draw_radius_rectangle == NULL) ||
 981:Dsp/widget/wgt_core/UI_Controller.c ****         (UI_DspInterface.draw_str == NULL))
 982:Dsp/widget/wgt_core/UI_Controller.c ****         return false;
 983:Dsp/widget/wgt_core/UI_Controller.c **** 
 984:Dsp/widget/wgt_core/UI_Controller.c ****     switch (Obj->Dsp_Type)
 985:Dsp/widget/wgt_core/UI_Controller.c ****     {
 986:Dsp/widget/wgt_core/UI_Controller.c ****     case UI_ProcBar_DspType_LoadBar:
 987:Dsp/widget/wgt_core/UI_Controller.c ****         return UI_ProcessBar_DspLoadBar(Obj);
 988:Dsp/widget/wgt_core/UI_Controller.c **** 
 989:Dsp/widget/wgt_core/UI_Controller.c ****     case UI_ProcBar_DspType_DotBar:
 990:Dsp/widget/wgt_core/UI_Controller.c ****         return UI_ProcessBar_DspDotBar(Obj);
 991:Dsp/widget/wgt_core/UI_Controller.c **** 
 992:Dsp/widget/wgt_core/UI_Controller.c ****     case UI_ProcBar_DspType_FrameBar:
 993:Dsp/widget/wgt_core/UI_Controller.c ****         return UI_ProcessBar_DspFrameBar(Obj);
 994:Dsp/widget/wgt_core/UI_Controller.c **** 
 995:Dsp/widget/wgt_core/UI_Controller.c ****     default:
 996:Dsp/widget/wgt_core/UI_Controller.c ****         return false;
 997:Dsp/widget/wgt_core/UI_Controller.c ****     }
 998:Dsp/widget/wgt_core/UI_Controller.c **** }
 999:Dsp/widget/wgt_core/UI_Controller.c **** 
1000:Dsp/widget/wgt_core/UI_Controller.c **** static bool UI_Drop_Init(UI_DropObj_TypeDef *Obj, char *label, int16_t x, int16_t y)
ARM GAS  /var/folders/lx/hc4sn_b53233_zkc9xbbl97r0000gp/T//cc4iWlrc.s 			page 74


1001:Dsp/widget/wgt_core/UI_Controller.c **** {
 2855              		.loc 1 1001 1 is_stmt 1 view -0
 2856              		.cfi_startproc
 2857              		@ args = 0, pretend = 0, frame = 0
 2858              		@ frame_needed = 0, uses_anonymous_args = 0
1002:Dsp/widget/wgt_core/UI_Controller.c ****     if (Obj == NULL)
 2859              		.loc 1 1002 5 view .LVU827
 2860              		.loc 1 1002 8 is_stmt 0 view .LVU828
 2861 0000 80B1     		cbz	r0, .L232
1001:Dsp/widget/wgt_core/UI_Controller.c ****     if (Obj == NULL)
 2862              		.loc 1 1001 1 view .LVU829
 2863 0002 10B5     		push	{r4, lr}
 2864              	.LCFI48:
 2865              		.cfi_def_cfa_offset 8
 2866              		.cfi_offset 4, -8
 2867              		.cfi_offset 14, -4
 2868 0004 0446     		mov	r4, r0
1003:Dsp/widget/wgt_core/UI_Controller.c ****         return false;
1004:Dsp/widget/wgt_core/UI_Controller.c **** 
1005:Dsp/widget/wgt_core/UI_Controller.c ****     UI_GenData_Init(&Obj->Gen_Data, label, x, y);
 2869              		.loc 1 1005 5 is_stmt 1 view .LVU830
 2870 0006 FFF7FEFF 		bl	UI_GenData_Init
 2871              	.LVL246:
1006:Dsp/widget/wgt_core/UI_Controller.c **** 
1007:Dsp/widget/wgt_core/UI_Controller.c ****     Obj->CurDrop_Item = NULL;
 2872              		.loc 1 1007 5 view .LVU831
 2873              		.loc 1 1007 23 is_stmt 0 view .LVU832
 2874 000a 0023     		movs	r3, #0
 2875 000c 6374     		strb	r3, [r4, #17]
 2876 000e A374     		strb	r3, [r4, #18]
 2877 0010 E374     		strb	r3, [r4, #19]
 2878 0012 2375     		strb	r3, [r4, #20]
1008:Dsp/widget/wgt_core/UI_Controller.c ****     Obj->item_cnt = 0;
 2879              		.loc 1 1008 5 is_stmt 1 view .LVU833
 2880              		.loc 1 1008 19 is_stmt 0 view .LVU834
 2881 0014 2373     		strb	r3, [r4, #12]
1009:Dsp/widget/wgt_core/UI_Controller.c ****     Obj->DropList = NULL;
 2882              		.loc 1 1009 5 is_stmt 1 view .LVU835
 2883              		.loc 1 1009 19 is_stmt 0 view .LVU836
 2884 0016 6373     		strb	r3, [r4, #13]
 2885 0018 A373     		strb	r3, [r4, #14]
 2886 001a E373     		strb	r3, [r4, #15]
 2887 001c 2374     		strb	r3, [r4, #16]
1010:Dsp/widget/wgt_core/UI_Controller.c ****     Obj->is_selected = false;
 2888              		.loc 1 1010 5 is_stmt 1 view .LVU837
 2889              		.loc 1 1010 22 is_stmt 0 view .LVU838
 2890 001e 6375     		strb	r3, [r4, #21]
1011:Dsp/widget/wgt_core/UI_Controller.c **** 
1012:Dsp/widget/wgt_core/UI_Controller.c ****     return true;
 2891              		.loc 1 1012 5 is_stmt 1 view .LVU839
 2892              		.loc 1 1012 12 is_stmt 0 view .LVU840
 2893 0020 0120     		movs	r0, #1
1013:Dsp/widget/wgt_core/UI_Controller.c **** }
 2894              		.loc 1 1013 1 view .LVU841
 2895 0022 10BD     		pop	{r4, pc}
 2896              	.LVL247:
 2897              	.L232:
ARM GAS  /var/folders/lx/hc4sn_b53233_zkc9xbbl97r0000gp/T//cc4iWlrc.s 			page 75


 2898              	.LCFI49:
 2899              		.cfi_def_cfa_offset 0
 2900              		.cfi_restore 4
 2901              		.cfi_restore 14
1003:Dsp/widget/wgt_core/UI_Controller.c **** 
 2902              		.loc 1 1003 16 view .LVU842
 2903 0024 0020     		movs	r0, #0
 2904              	.LVL248:
 2905              		.loc 1 1013 1 view .LVU843
 2906 0026 7047     		bx	lr
 2907              		.cfi_endproc
 2908              	.LFE39:
 2910              		.section	.text.UI_Drop_Move,"ax",%progbits
 2911              		.align	1
 2912              		.syntax unified
 2913              		.thumb
 2914              		.thumb_func
 2915              		.fpu fpv4-sp-d16
 2917              	UI_Drop_Move:
 2918              	.LVL249:
 2919              	.LFB40:
1014:Dsp/widget/wgt_core/UI_Controller.c **** 
1015:Dsp/widget/wgt_core/UI_Controller.c **** static bool UI_Drop_Move(UI_DropObj_TypeDef *Obj, int16_t x, int16_t y)
1016:Dsp/widget/wgt_core/UI_Controller.c **** {
 2920              		.loc 1 1016 1 is_stmt 1 view -0
 2921              		.cfi_startproc
 2922              		@ args = 0, pretend = 0, frame = 0
 2923              		@ frame_needed = 0, uses_anonymous_args = 0
1017:Dsp/widget/wgt_core/UI_Controller.c ****     if (Obj == NULL)
 2924              		.loc 1 1017 5 view .LVU845
 2925              		.loc 1 1017 8 is_stmt 0 view .LVU846
 2926 0000 18B1     		cbz	r0, .L239
1016:Dsp/widget/wgt_core/UI_Controller.c ****     if (Obj == NULL)
 2927              		.loc 1 1016 1 view .LVU847
 2928 0002 08B5     		push	{r3, lr}
 2929              	.LCFI50:
 2930              		.cfi_def_cfa_offset 8
 2931              		.cfi_offset 3, -8
 2932              		.cfi_offset 14, -4
1018:Dsp/widget/wgt_core/UI_Controller.c ****         return false;
1019:Dsp/widget/wgt_core/UI_Controller.c **** 
1020:Dsp/widget/wgt_core/UI_Controller.c ****     return UI_Move(&(Obj->Gen_Data), x, y);
 2933              		.loc 1 1020 5 is_stmt 1 view .LVU848
 2934              		.loc 1 1020 12 is_stmt 0 view .LVU849
 2935 0004 FFF7FEFF 		bl	UI_Move
 2936              	.LVL250:
1021:Dsp/widget/wgt_core/UI_Controller.c **** }
 2937              		.loc 1 1021 1 view .LVU850
 2938 0008 08BD     		pop	{r3, pc}
 2939              	.LVL251:
 2940              	.L239:
 2941              	.LCFI51:
 2942              		.cfi_def_cfa_offset 0
 2943              		.cfi_restore 3
 2944              		.cfi_restore 14
1018:Dsp/widget/wgt_core/UI_Controller.c ****         return false;
 2945              		.loc 1 1018 16 view .LVU851
ARM GAS  /var/folders/lx/hc4sn_b53233_zkc9xbbl97r0000gp/T//cc4iWlrc.s 			page 76


 2946 000a 0020     		movs	r0, #0
 2947              	.LVL252:
 2948              		.loc 1 1021 1 view .LVU852
 2949 000c 7047     		bx	lr
 2950              		.cfi_endproc
 2951              	.LFE40:
 2953              		.section	.text.UI_Drop_SetSelect,"ax",%progbits
 2954              		.align	1
 2955              		.syntax unified
 2956              		.thumb
 2957              		.thumb_func
 2958              		.fpu fpv4-sp-d16
 2960              	UI_Drop_SetSelect:
 2961              	.LVL253:
 2962              	.LFB43:
1022:Dsp/widget/wgt_core/UI_Controller.c **** 
1023:Dsp/widget/wgt_core/UI_Controller.c **** static item_obj *UI_Drop_CreateDropItem(uint8_t id, char *item_desc, void *data, uint16_t data_size
1024:Dsp/widget/wgt_core/UI_Controller.c **** {
1025:Dsp/widget/wgt_core/UI_Controller.c ****     item_obj *item_tmp = NULL;
1026:Dsp/widget/wgt_core/UI_Controller.c ****     UI_DropItemDataObj_TypeDef *itemdata_tmp = NULL;
1027:Dsp/widget/wgt_core/UI_Controller.c **** 
1028:Dsp/widget/wgt_core/UI_Controller.c ****     itemdata_tmp = (UI_DropItemDataObj_TypeDef *)MMU_malloc(sizeof(UI_DropItemDataObj_TypeDef));
1029:Dsp/widget/wgt_core/UI_Controller.c ****     item_tmp = (item_obj *)MMU_malloc(sizeof(item_obj));
1030:Dsp/widget/wgt_core/UI_Controller.c **** 
1031:Dsp/widget/wgt_core/UI_Controller.c ****     if ((item_tmp == NULL) || (itemdata_tmp == NULL))
1032:Dsp/widget/wgt_core/UI_Controller.c ****         return NULL;
1033:Dsp/widget/wgt_core/UI_Controller.c **** 
1034:Dsp/widget/wgt_core/UI_Controller.c ****     itemdata_tmp->callback = callback;
1035:Dsp/widget/wgt_core/UI_Controller.c ****     itemdata_tmp->data = data;
1036:Dsp/widget/wgt_core/UI_Controller.c ****     itemdata_tmp->describe = item_desc;
1037:Dsp/widget/wgt_core/UI_Controller.c ****     itemdata_tmp->id = id;
1038:Dsp/widget/wgt_core/UI_Controller.c ****     itemdata_tmp->data_size = data_size;
1039:Dsp/widget/wgt_core/UI_Controller.c **** 
1040:Dsp/widget/wgt_core/UI_Controller.c ****     List_ItemInit(item_tmp, itemdata_tmp);
1041:Dsp/widget/wgt_core/UI_Controller.c **** 
1042:Dsp/widget/wgt_core/UI_Controller.c ****     return item_tmp;
1043:Dsp/widget/wgt_core/UI_Controller.c **** }
1044:Dsp/widget/wgt_core/UI_Controller.c **** 
1045:Dsp/widget/wgt_core/UI_Controller.c **** static bool UI_Drop_AddDropItem(UI_DropObj_TypeDef *Obj, char *item_desc, void *data, uint16_t data
1046:Dsp/widget/wgt_core/UI_Controller.c **** {
1047:Dsp/widget/wgt_core/UI_Controller.c ****     item_obj *item_temp = NULL;
1048:Dsp/widget/wgt_core/UI_Controller.c **** 
1049:Dsp/widget/wgt_core/UI_Controller.c ****     if (Obj == NULL)
1050:Dsp/widget/wgt_core/UI_Controller.c ****         return false;
1051:Dsp/widget/wgt_core/UI_Controller.c **** 
1052:Dsp/widget/wgt_core/UI_Controller.c ****     item_temp = UI_Drop_CreateDropItem(Obj->item_cnt, item_desc, data, data_size, callback);
1053:Dsp/widget/wgt_core/UI_Controller.c **** 
1054:Dsp/widget/wgt_core/UI_Controller.c ****     if (item_temp == NULL)
1055:Dsp/widget/wgt_core/UI_Controller.c ****         return false;
1056:Dsp/widget/wgt_core/UI_Controller.c **** 
1057:Dsp/widget/wgt_core/UI_Controller.c ****     if (Obj->DropList == NULL)
1058:Dsp/widget/wgt_core/UI_Controller.c ****     {
1059:Dsp/widget/wgt_core/UI_Controller.c ****         Obj->DropList = item_temp;
1060:Dsp/widget/wgt_core/UI_Controller.c ****         Obj->CurDrop_Item = Obj->DropList;
1061:Dsp/widget/wgt_core/UI_Controller.c ****         List_Init(Obj->DropList, item_temp, by_order, NULL);
1062:Dsp/widget/wgt_core/UI_Controller.c ****     }
1063:Dsp/widget/wgt_core/UI_Controller.c ****     else
ARM GAS  /var/folders/lx/hc4sn_b53233_zkc9xbbl97r0000gp/T//cc4iWlrc.s 			page 77


1064:Dsp/widget/wgt_core/UI_Controller.c ****         List_Insert_Item(Obj->DropList, item_temp);
1065:Dsp/widget/wgt_core/UI_Controller.c **** 
1066:Dsp/widget/wgt_core/UI_Controller.c ****     Obj->item_cnt++;
1067:Dsp/widget/wgt_core/UI_Controller.c **** 
1068:Dsp/widget/wgt_core/UI_Controller.c ****     return true;
1069:Dsp/widget/wgt_core/UI_Controller.c **** }
1070:Dsp/widget/wgt_core/UI_Controller.c **** 
1071:Dsp/widget/wgt_core/UI_Controller.c **** static bool UI_Drop_SetSelect(UI_DropObj_TypeDef *Obj, bool state)
1072:Dsp/widget/wgt_core/UI_Controller.c **** {
 2963              		.loc 1 1072 1 is_stmt 1 view -0
 2964              		.cfi_startproc
 2965              		@ args = 0, pretend = 0, frame = 0
 2966              		@ frame_needed = 0, uses_anonymous_args = 0
1073:Dsp/widget/wgt_core/UI_Controller.c ****     if (Obj == NULL)
 2967              		.loc 1 1073 5 view .LVU854
 2968              		.loc 1 1073 8 is_stmt 0 view .LVU855
 2969 0000 70B1     		cbz	r0, .L246
1072:Dsp/widget/wgt_core/UI_Controller.c ****     if (Obj == NULL)
 2970              		.loc 1 1072 1 view .LVU856
 2971 0002 08B5     		push	{r3, lr}
 2972              	.LCFI52:
 2973              		.cfi_def_cfa_offset 8
 2974              		.cfi_offset 3, -8
 2975              		.cfi_offset 14, -4
1074:Dsp/widget/wgt_core/UI_Controller.c ****         return false;
1075:Dsp/widget/wgt_core/UI_Controller.c **** 
1076:Dsp/widget/wgt_core/UI_Controller.c ****     Obj->is_selected = state;
 2976              		.loc 1 1076 5 is_stmt 1 view .LVU857
 2977              		.loc 1 1076 22 is_stmt 0 view .LVU858
 2978 0004 4175     		strb	r1, [r0, #21]
1077:Dsp/widget/wgt_core/UI_Controller.c **** 
1078:Dsp/widget/wgt_core/UI_Controller.c ****     if (!state && (Obj->CurDrop_Item->data != NULL) && (((UI_DropItemDataObj_TypeDef *)Obj->CurDrop
 2979              		.loc 1 1078 5 is_stmt 1 view .LVU859
 2980              		.loc 1 1078 8 is_stmt 0 view .LVU860
 2981 0006 69B9     		cbnz	r1, .L247
 2982              		.loc 1 1078 23 discriminator 1 view .LVU861
 2983 0008 D0F81130 		ldr	r3, [r0, #17]	@ unaligned
 2984              		.loc 1 1078 37 discriminator 1 view .LVU862
 2985 000c 1B69     		ldr	r3, [r3, #16]
 2986              		.loc 1 1078 16 discriminator 1 view .LVU863
 2987 000e 5BB1     		cbz	r3, .L248
 2988              		.loc 1 1078 112 discriminator 2 view .LVU864
 2989 0010 D3F80B20 		ldr	r2, [r3, #11]	@ unaligned
 2990              		.loc 1 1078 53 discriminator 2 view .LVU865
 2991 0014 52B1     		cbz	r2, .L249
1079:Dsp/widget/wgt_core/UI_Controller.c ****     {
1080:Dsp/widget/wgt_core/UI_Controller.c ****         /* trigger drop item callback */
1081:Dsp/widget/wgt_core/UI_Controller.c ****         ((UI_DropItemDataObj_TypeDef *)Obj->CurDrop_Item->data)->callback(((UI_DropItemDataObj_Type
 2992              		.loc 1 1081 9 is_stmt 1 view .LVU866
 2993              		.loc 1 1081 10 is_stmt 0 view .LVU867
 2994 0016 D3F80500 		ldr	r0, [r3, #5]	@ unaligned
 2995              	.LVL254:
 2996              		.loc 1 1081 10 view .LVU868
 2997 001a 9047     		blx	r2
 2998              	.LVL255:
1082:Dsp/widget/wgt_core/UI_Controller.c ****     }
1083:Dsp/widget/wgt_core/UI_Controller.c **** 
ARM GAS  /var/folders/lx/hc4sn_b53233_zkc9xbbl97r0000gp/T//cc4iWlrc.s 			page 78


1084:Dsp/widget/wgt_core/UI_Controller.c ****     return true;
 2999              		.loc 1 1084 12 view .LVU869
 3000 001c 0120     		movs	r0, #1
 3001 001e 02E0     		b	.L245
 3002              	.LVL256:
 3003              	.L246:
 3004              	.LCFI53:
 3005              		.cfi_def_cfa_offset 0
 3006              		.cfi_restore 3
 3007              		.cfi_restore 14
1074:Dsp/widget/wgt_core/UI_Controller.c **** 
 3008              		.loc 1 1074 16 view .LVU870
 3009 0020 0020     		movs	r0, #0
 3010              	.LVL257:
1085:Dsp/widget/wgt_core/UI_Controller.c **** }
 3011              		.loc 1 1085 1 view .LVU871
 3012 0022 7047     		bx	lr
 3013              	.LVL258:
 3014              	.L247:
 3015              	.LCFI54:
 3016              		.cfi_def_cfa_offset 8
 3017              		.cfi_offset 3, -8
 3018              		.cfi_offset 14, -4
1084:Dsp/widget/wgt_core/UI_Controller.c **** }
 3019              		.loc 1 1084 12 view .LVU872
 3020 0024 0846     		mov	r0, r1
 3021              	.LVL259:
 3022              	.L245:
 3023              		.loc 1 1085 1 view .LVU873
 3024 0026 08BD     		pop	{r3, pc}
 3025              	.LVL260:
 3026              	.L248:
1084:Dsp/widget/wgt_core/UI_Controller.c **** }
 3027              		.loc 1 1084 12 view .LVU874
 3028 0028 0120     		movs	r0, #1
 3029              	.LVL261:
1084:Dsp/widget/wgt_core/UI_Controller.c **** }
 3030              		.loc 1 1084 12 view .LVU875
 3031 002a FCE7     		b	.L245
 3032              	.LVL262:
 3033              	.L249:
1084:Dsp/widget/wgt_core/UI_Controller.c **** }
 3034              		.loc 1 1084 12 view .LVU876
 3035 002c 0120     		movs	r0, #1
 3036              	.LVL263:
1084:Dsp/widget/wgt_core/UI_Controller.c **** }
 3037              		.loc 1 1084 12 view .LVU877
 3038 002e FAE7     		b	.L245
 3039              		.cfi_endproc
 3040              	.LFE43:
 3042              		.section	.text.UI_Drop_GetSelect,"ax",%progbits
 3043              		.align	1
 3044              		.syntax unified
 3045              		.thumb
 3046              		.thumb_func
 3047              		.fpu fpv4-sp-d16
 3049              	UI_Drop_GetSelect:
ARM GAS  /var/folders/lx/hc4sn_b53233_zkc9xbbl97r0000gp/T//cc4iWlrc.s 			page 79


 3050              	.LVL264:
 3051              	.LFB44:
1086:Dsp/widget/wgt_core/UI_Controller.c **** 
1087:Dsp/widget/wgt_core/UI_Controller.c **** static bool UI_Drop_GetSelect(UI_DropObj_TypeDef *Obj)
1088:Dsp/widget/wgt_core/UI_Controller.c **** {
 3052              		.loc 1 1088 1 is_stmt 1 view -0
 3053              		.cfi_startproc
 3054              		@ args = 0, pretend = 0, frame = 0
 3055              		@ frame_needed = 0, uses_anonymous_args = 0
 3056              		@ link register save eliminated.
1089:Dsp/widget/wgt_core/UI_Controller.c ****     if (Obj == NULL)
 3057              		.loc 1 1089 5 view .LVU879
 3058              		.loc 1 1089 8 is_stmt 0 view .LVU880
 3059 0000 08B1     		cbz	r0, .L256
1090:Dsp/widget/wgt_core/UI_Controller.c ****         return false;
1091:Dsp/widget/wgt_core/UI_Controller.c **** 
1092:Dsp/widget/wgt_core/UI_Controller.c ****     return Obj->is_selected;
 3060              		.loc 1 1092 5 is_stmt 1 view .LVU881
 3061              		.loc 1 1092 15 is_stmt 0 view .LVU882
 3062 0002 407D     		ldrb	r0, [r0, #21]	@ zero_extendqisi2
 3063              	.LVL265:
 3064              		.loc 1 1092 15 view .LVU883
 3065 0004 7047     		bx	lr
 3066              	.LVL266:
 3067              	.L256:
1090:Dsp/widget/wgt_core/UI_Controller.c ****         return false;
 3068              		.loc 1 1090 16 view .LVU884
 3069 0006 0020     		movs	r0, #0
 3070              	.LVL267:
1093:Dsp/widget/wgt_core/UI_Controller.c **** }
 3071              		.loc 1 1093 1 view .LVU885
 3072 0008 7047     		bx	lr
 3073              		.cfi_endproc
 3074              	.LFE44:
 3076              		.section	.text.UI_Drop_SelectItem,"ax",%progbits
 3077              		.align	1
 3078              		.syntax unified
 3079              		.thumb
 3080              		.thumb_func
 3081              		.fpu fpv4-sp-d16
 3083              	UI_Drop_SelectItem:
 3084              	.LVL268:
 3085              	.LFB45:
1094:Dsp/widget/wgt_core/UI_Controller.c **** 
1095:Dsp/widget/wgt_core/UI_Controller.c **** static bool UI_Drop_SelectItem(UI_DropObj_TypeDef *Obj, int8_t *offset)
1096:Dsp/widget/wgt_core/UI_Controller.c **** {
 3086              		.loc 1 1096 1 is_stmt 1 view -0
 3087              		.cfi_startproc
 3088              		@ args = 0, pretend = 0, frame = 0
 3089              		@ frame_needed = 0, uses_anonymous_args = 0
 3090              		@ link register save eliminated.
1097:Dsp/widget/wgt_core/UI_Controller.c ****     item_obj *tmp = NULL;
 3091              		.loc 1 1097 5 view .LVU887
1098:Dsp/widget/wgt_core/UI_Controller.c **** 
1099:Dsp/widget/wgt_core/UI_Controller.c ****     if ((Obj == NULL) || (offset > Obj->item_cnt) || (Obj->CurDrop_Item == NULL))
 3092              		.loc 1 1099 5 view .LVU888
 3093              		.loc 1 1099 8 is_stmt 0 view .LVU889
ARM GAS  /var/folders/lx/hc4sn_b53233_zkc9xbbl97r0000gp/T//cc4iWlrc.s 			page 80


 3094 0000 8446     		mov	ip, r0
 3095 0002 C8B1     		cbz	r0, .L263
 3096              		.loc 1 1099 39 discriminator 1 view .LVU890
 3097 0004 037B     		ldrb	r3, [r0, #12]	@ zero_extendqisi2
 3098              		.loc 1 1099 23 discriminator 1 view .LVU891
 3099 0006 8B42     		cmp	r3, r1
 3100 0008 18D3     		bcc	.L264
 3101              		.loc 1 1099 58 discriminator 2 view .LVU892
 3102 000a D0F81120 		ldr	r2, [r0, #17]	@ unaligned
 3103              		.loc 1 1099 51 discriminator 2 view .LVU893
 3104 000e 1AB9     		cbnz	r2, .L259
1100:Dsp/widget/wgt_core/UI_Controller.c ****         return false;
 3105              		.loc 1 1100 16 view .LVU894
 3106 0010 0020     		movs	r0, #0
 3107              	.LVL269:
 3108              		.loc 1 1100 16 view .LVU895
 3109 0012 7047     		bx	lr
 3110              	.LVL270:
 3111              	.L260:
1101:Dsp/widget/wgt_core/UI_Controller.c **** 
1102:Dsp/widget/wgt_core/UI_Controller.c ****     tmp = Obj->CurDrop_Item;
1103:Dsp/widget/wgt_core/UI_Controller.c **** 
1104:Dsp/widget/wgt_core/UI_Controller.c ****     while (*offset)
1105:Dsp/widget/wgt_core/UI_Controller.c ****     {
1106:Dsp/widget/wgt_core/UI_Controller.c ****         if (tmp == NULL)
1107:Dsp/widget/wgt_core/UI_Controller.c ****             return false;
1108:Dsp/widget/wgt_core/UI_Controller.c **** 
1109:Dsp/widget/wgt_core/UI_Controller.c ****         if (*offset > 0)
1110:Dsp/widget/wgt_core/UI_Controller.c ****         {
1111:Dsp/widget/wgt_core/UI_Controller.c ****             tmp = tmp->nxt;
1112:Dsp/widget/wgt_core/UI_Controller.c ****             *offset--;
1113:Dsp/widget/wgt_core/UI_Controller.c ****         }
1114:Dsp/widget/wgt_core/UI_Controller.c ****         else if (*offset < 0)
 3112              		.loc 1 1114 14 is_stmt 1 view .LVU896
 3113              		.loc 1 1114 17 is_stmt 0 view .LVU897
 3114 0014 002B     		cmp	r3, #0
 3115 0016 08DB     		blt	.L267
 3116              	.LVL271:
 3117              	.L259:
1104:Dsp/widget/wgt_core/UI_Controller.c ****     {
 3118              		.loc 1 1104 11 is_stmt 1 view .LVU898
1104:Dsp/widget/wgt_core/UI_Controller.c ****     {
 3119              		.loc 1 1104 12 is_stmt 0 view .LVU899
 3120 0018 91F90030 		ldrsb	r3, [r1]
1104:Dsp/widget/wgt_core/UI_Controller.c ****     {
 3121              		.loc 1 1104 11 view .LVU900
 3122 001c 43B1     		cbz	r3, .L268
1106:Dsp/widget/wgt_core/UI_Controller.c ****             return false;
 3123              		.loc 1 1106 9 is_stmt 1 view .LVU901
1106:Dsp/widget/wgt_core/UI_Controller.c ****             return false;
 3124              		.loc 1 1106 12 is_stmt 0 view .LVU902
 3125 001e 7AB1     		cbz	r2, .L266
1109:Dsp/widget/wgt_core/UI_Controller.c ****         {
 3126              		.loc 1 1109 9 is_stmt 1 view .LVU903
1109:Dsp/widget/wgt_core/UI_Controller.c ****         {
 3127              		.loc 1 1109 12 is_stmt 0 view .LVU904
 3128 0020 002B     		cmp	r3, #0
ARM GAS  /var/folders/lx/hc4sn_b53233_zkc9xbbl97r0000gp/T//cc4iWlrc.s 			page 81


 3129 0022 F7DD     		ble	.L260
1111:Dsp/widget/wgt_core/UI_Controller.c ****             *offset--;
 3130              		.loc 1 1111 13 is_stmt 1 view .LVU905
1111:Dsp/widget/wgt_core/UI_Controller.c ****             *offset--;
 3131              		.loc 1 1111 17 is_stmt 0 view .LVU906
 3132 0024 D268     		ldr	r2, [r2, #12]
 3133              	.LVL272:
1112:Dsp/widget/wgt_core/UI_Controller.c ****         }
 3134              		.loc 1 1112 13 is_stmt 1 view .LVU907
1112:Dsp/widget/wgt_core/UI_Controller.c ****         }
 3135              		.loc 1 1112 20 is_stmt 0 view .LVU908
 3136 0026 0139     		subs	r1, r1, #1
 3137              	.LVL273:
1112:Dsp/widget/wgt_core/UI_Controller.c ****         }
 3138              		.loc 1 1112 20 view .LVU909
 3139 0028 F6E7     		b	.L259
 3140              	.L267:
1115:Dsp/widget/wgt_core/UI_Controller.c ****         {
1116:Dsp/widget/wgt_core/UI_Controller.c ****             tmp = tmp->prv;
 3141              		.loc 1 1116 13 is_stmt 1 view .LVU910
 3142              		.loc 1 1116 17 is_stmt 0 view .LVU911
 3143 002a 9268     		ldr	r2, [r2, #8]
 3144              	.LVL274:
1117:Dsp/widget/wgt_core/UI_Controller.c ****             *offset++;
 3145              		.loc 1 1117 13 is_stmt 1 view .LVU912
 3146              		.loc 1 1117 20 is_stmt 0 view .LVU913
 3147 002c 0131     		adds	r1, r1, #1
 3148              	.LVL275:
 3149              		.loc 1 1117 20 view .LVU914
 3150 002e F3E7     		b	.L259
 3151              	.L268:
1118:Dsp/widget/wgt_core/UI_Controller.c ****         }
1119:Dsp/widget/wgt_core/UI_Controller.c ****     }
1120:Dsp/widget/wgt_core/UI_Controller.c **** 
1121:Dsp/widget/wgt_core/UI_Controller.c ****     Obj->CurDrop_Item = tmp;
 3152              		.loc 1 1121 5 is_stmt 1 view .LVU915
 3153              		.loc 1 1121 23 is_stmt 0 view .LVU916
 3154 0030 CCF81120 		str	r2, [ip, #17]	@ unaligned
1122:Dsp/widget/wgt_core/UI_Controller.c **** 
1123:Dsp/widget/wgt_core/UI_Controller.c ****     return true;
 3155              		.loc 1 1123 5 is_stmt 1 view .LVU917
 3156              		.loc 1 1123 12 is_stmt 0 view .LVU918
 3157 0034 0120     		movs	r0, #1
 3158              	.LVL276:
 3159              		.loc 1 1123 12 view .LVU919
 3160 0036 7047     		bx	lr
 3161              	.LVL277:
 3162              	.L263:
1100:Dsp/widget/wgt_core/UI_Controller.c **** 
 3163              		.loc 1 1100 16 view .LVU920
 3164 0038 0020     		movs	r0, #0
 3165              	.LVL278:
1100:Dsp/widget/wgt_core/UI_Controller.c **** 
 3166              		.loc 1 1100 16 view .LVU921
 3167 003a 7047     		bx	lr
 3168              	.LVL279:
 3169              	.L264:
ARM GAS  /var/folders/lx/hc4sn_b53233_zkc9xbbl97r0000gp/T//cc4iWlrc.s 			page 82


1100:Dsp/widget/wgt_core/UI_Controller.c **** 
 3170              		.loc 1 1100 16 view .LVU922
 3171 003c 0020     		movs	r0, #0
 3172              	.LVL280:
1100:Dsp/widget/wgt_core/UI_Controller.c **** 
 3173              		.loc 1 1100 16 view .LVU923
 3174 003e 7047     		bx	lr
 3175              	.LVL281:
 3176              	.L266:
1107:Dsp/widget/wgt_core/UI_Controller.c **** 
 3177              		.loc 1 1107 20 view .LVU924
 3178 0040 0020     		movs	r0, #0
 3179              	.LVL282:
1124:Dsp/widget/wgt_core/UI_Controller.c **** }
 3180              		.loc 1 1124 1 view .LVU925
 3181 0042 7047     		bx	lr
 3182              		.cfi_endproc
 3183              	.LFE45:
 3185              		.section	.text.UI_Drop_Ctl,"ax",%progbits
 3186              		.align	1
 3187              		.syntax unified
 3188              		.thumb
 3189              		.thumb_func
 3190              		.fpu fpv4-sp-d16
 3192              	UI_Drop_Ctl:
 3193              	.LVL283:
 3194              	.LFB46:
1125:Dsp/widget/wgt_core/UI_Controller.c **** 
1126:Dsp/widget/wgt_core/UI_Controller.c **** static bool UI_Drop_Ctl(UI_DropObj_TypeDef *Obj)
1127:Dsp/widget/wgt_core/UI_Controller.c **** {
 3195              		.loc 1 1127 1 is_stmt 1 view -0
 3196              		.cfi_startproc
 3197              		@ args = 0, pretend = 0, frame = 0
 3198              		@ frame_needed = 0, uses_anonymous_args = 0
 3199              		.loc 1 1127 1 is_stmt 0 view .LVU927
 3200 0000 2DE9F047 		push	{r4, r5, r6, r7, r8, r9, r10, lr}
 3201              	.LCFI55:
 3202              		.cfi_def_cfa_offset 32
 3203              		.cfi_offset 4, -32
 3204              		.cfi_offset 5, -28
 3205              		.cfi_offset 6, -24
 3206              		.cfi_offset 7, -20
 3207              		.cfi_offset 8, -16
 3208              		.cfi_offset 9, -12
 3209              		.cfi_offset 10, -8
 3210              		.cfi_offset 14, -4
 3211 0004 82B0     		sub	sp, sp, #8
 3212              	.LCFI56:
 3213              		.cfi_def_cfa_offset 40
1128:Dsp/widget/wgt_core/UI_Controller.c ****     int16_t str_x = 0;
 3214              		.loc 1 1128 5 is_stmt 1 view .LVU928
 3215              	.LVL284:
1129:Dsp/widget/wgt_core/UI_Controller.c ****     int16_t str_y = 0;
 3216              		.loc 1 1129 5 view .LVU929
1130:Dsp/widget/wgt_core/UI_Controller.c ****     int16_t dropitem_x = 0;
 3217              		.loc 1 1130 5 view .LVU930
1131:Dsp/widget/wgt_core/UI_Controller.c ****     int16_t dropitem_y = 0;
ARM GAS  /var/folders/lx/hc4sn_b53233_zkc9xbbl97r0000gp/T//cc4iWlrc.s 			page 83


 3218              		.loc 1 1131 5 view .LVU931
1132:Dsp/widget/wgt_core/UI_Controller.c **** 
1133:Dsp/widget/wgt_core/UI_Controller.c ****     if ((Obj == NULL) &&
 3219              		.loc 1 1133 5 view .LVU932
 3220              		.loc 1 1133 8 is_stmt 0 view .LVU933
 3221 0006 0546     		mov	r5, r0
 3222 0008 0028     		cmp	r0, #0
 3223 000a 37D0     		beq	.L275
 3224              	.L270:
1134:Dsp/widget/wgt_core/UI_Controller.c ****         (UI_DspInterface.draw_str == NULL) &&
1135:Dsp/widget/wgt_core/UI_Controller.c ****         (UI_DspInterface.draw_dig == NULL))
1136:Dsp/widget/wgt_core/UI_Controller.c ****         return false;
1137:Dsp/widget/wgt_core/UI_Controller.c **** 
1138:Dsp/widget/wgt_core/UI_Controller.c ****     str_x = Obj->Gen_Data.x + 3;
 3225              		.loc 1 1138 5 is_stmt 1 view .LVU934
 3226              		.loc 1 1138 26 is_stmt 0 view .LVU935
 3227 000c AA88     		ldrh	r2, [r5, #4]	@ unaligned
 3228              		.loc 1 1138 29 view .LVU936
 3229 000e 0332     		adds	r2, r2, #3
 3230              		.loc 1 1138 11 view .LVU937
 3231 0010 12B2     		sxth	r2, r2
 3232              	.LVL285:
1139:Dsp/widget/wgt_core/UI_Controller.c ****     str_y = Obj->Gen_Data.y;
 3233              		.loc 1 1139 5 is_stmt 1 view .LVU938
 3234              		.loc 1 1139 11 is_stmt 0 view .LVU939
 3235 0012 B5F90630 		ldrsh	r3, [r5, #6]	@ unaligned
 3236 0016 9846     		mov	r8, r3
 3237              	.LVL286:
1140:Dsp/widget/wgt_core/UI_Controller.c **** 
1141:Dsp/widget/wgt_core/UI_Controller.c ****     if (base_font == Font_8)
 3238              		.loc 1 1141 5 is_stmt 1 view .LVU940
 3239              		.loc 1 1141 19 is_stmt 0 view .LVU941
 3240 0018 1F49     		ldr	r1, .L277
 3241 001a 0878     		ldrb	r0, [r1]	@ zero_extendqisi2
 3242              	.LVL287:
 3243              		.loc 1 1141 8 view .LVU942
 3244 001c 0828     		cmp	r0, #8
 3245 001e 37D0     		beq	.L276
 3246              	.LVL288:
 3247              	.L272:
1142:Dsp/widget/wgt_core/UI_Controller.c ****         str_y += 1;
1143:Dsp/widget/wgt_core/UI_Controller.c **** 
1144:Dsp/widget/wgt_core/UI_Controller.c ****     /* show label */
1145:Dsp/widget/wgt_core/UI_Controller.c ****     UI_DspInterface.draw_str(base_font, Obj->Gen_Data.label, str_x, str_y, true);
 3248              		.loc 1 1145 5 is_stmt 1 view .LVU943
 3249              		.loc 1 1145 20 is_stmt 0 view .LVU944
 3250 0020 1E4F     		ldr	r7, .L277+4
 3251 0022 3E68     		ldr	r6, [r7]
 3252              		.loc 1 1145 5 view .LVU945
 3253 0024 0124     		movs	r4, #1
 3254 0026 0094     		str	r4, [sp]
 3255 0028 4346     		mov	r3, r8
 3256 002a 2968     		ldr	r1, [r5]	@ unaligned
 3257 002c B047     		blx	r6
 3258              	.LVL289:
1146:Dsp/widget/wgt_core/UI_Controller.c **** 
1147:Dsp/widget/wgt_core/UI_Controller.c ****     dropitem_y = str_y + base_font;
ARM GAS  /var/folders/lx/hc4sn_b53233_zkc9xbbl97r0000gp/T//cc4iWlrc.s 			page 84


 3259              		.loc 1 1147 5 is_stmt 1 view .LVU946
 3260              		.loc 1 1147 24 is_stmt 0 view .LVU947
 3261 002e DFF86890 		ldr	r9, .L277
 3262 0032 99F80000 		ldrb	r0, [r9]	@ zero_extendqisi2
 3263 0036 8044     		add	r8, r8, r0
 3264              	.LVL290:
 3265              		.loc 1 1147 16 view .LVU948
 3266 0038 0FFA88F8 		sxth	r8, r8
 3267              	.LVL291:
1148:Dsp/widget/wgt_core/UI_Controller.c ****     dropitem_x = Obj->Gen_Data.x + base_font;
 3268              		.loc 1 1148 5 is_stmt 1 view .LVU949
 3269              		.loc 1 1148 31 is_stmt 0 view .LVU950
 3270 003c AA88     		ldrh	r2, [r5, #4]	@ unaligned
 3271              		.loc 1 1148 34 view .LVU951
 3272 003e 0244     		add	r2, r2, r0
 3273 0040 1FFA82FA 		uxth	r10, r2
 3274              	.LVL292:
1149:Dsp/widget/wgt_core/UI_Controller.c **** 
1150:Dsp/widget/wgt_core/UI_Controller.c ****     /* show drop item id */
1151:Dsp/widget/wgt_core/UI_Controller.c ****     UI_DspInterface.draw_dig(base_font, ((UI_DropItemDataObj_TypeDef *)(Obj->CurDrop_Item->data))->
 3275              		.loc 1 1151 5 is_stmt 1 view .LVU952
 3276              		.loc 1 1151 76 is_stmt 0 view .LVU953
 3277 0044 D5F81130 		ldr	r3, [r5, #17]	@ unaligned
 3278              		.loc 1 1151 90 view .LVU954
 3279 0048 1B69     		ldr	r3, [r3, #16]
 3280              		.loc 1 1151 5 view .LVU955
 3281 004a 1978     		ldrb	r1, [r3]	@ zero_extendqisi2
 3282 004c 0094     		str	r4, [sp]
 3283 004e 4346     		mov	r3, r8
 3284 0050 12B2     		sxth	r2, r2
 3285              		.loc 1 1151 5 view .LVU956
 3286 0052 7E68     		ldr	r6, [r7, #4]
 3287 0054 B047     		blx	r6
 3288              	.LVL293:
1152:Dsp/widget/wgt_core/UI_Controller.c **** 
1153:Dsp/widget/wgt_core/UI_Controller.c ****     /* show drop item label */
1154:Dsp/widget/wgt_core/UI_Controller.c ****     dropitem_x += base_font + 2;
 3289              		.loc 1 1154 5 is_stmt 1 view .LVU957
 3290              		.loc 1 1154 16 is_stmt 0 view .LVU958
 3291 0056 99F80000 		ldrb	r0, [r9]	@ zero_extendqisi2
 3292 005a 0AEB0002 		add	r2, r10, r0
 3293 005e 0232     		adds	r2, r2, #2
 3294              	.LVL294:
1155:Dsp/widget/wgt_core/UI_Controller.c ****     UI_DspInterface.draw_str(base_font, ((UI_DropItemDataObj_TypeDef *)(Obj->CurDrop_Item->data))->
 3295              		.loc 1 1155 5 is_stmt 1 view .LVU959
 3296              		.loc 1 1155 20 is_stmt 0 view .LVU960
 3297 0060 3E68     		ldr	r6, [r7]
 3298              		.loc 1 1155 76 view .LVU961
 3299 0062 D5F81130 		ldr	r3, [r5, #17]	@ unaligned
 3300              		.loc 1 1155 90 view .LVU962
 3301 0066 1B69     		ldr	r3, [r3, #16]
 3302              		.loc 1 1155 5 view .LVU963
 3303 0068 D3F80110 		ldr	r1, [r3, #1]	@ unaligned
 3304 006c 0094     		str	r4, [sp]
 3305 006e 4346     		mov	r3, r8
 3306 0070 12B2     		sxth	r2, r2
 3307              		.loc 1 1155 5 view .LVU964
ARM GAS  /var/folders/lx/hc4sn_b53233_zkc9xbbl97r0000gp/T//cc4iWlrc.s 			page 85


 3308 0072 B047     		blx	r6
 3309              	.LVL295:
1156:Dsp/widget/wgt_core/UI_Controller.c **** 
1157:Dsp/widget/wgt_core/UI_Controller.c ****     return true;
 3310              		.loc 1 1157 5 is_stmt 1 view .LVU965
 3311              		.loc 1 1157 12 is_stmt 0 view .LVU966
 3312 0074 2046     		mov	r0, r4
 3313              	.LVL296:
 3314              	.L271:
1158:Dsp/widget/wgt_core/UI_Controller.c **** }
 3315              		.loc 1 1158 1 view .LVU967
 3316 0076 02B0     		add	sp, sp, #8
 3317              	.LCFI57:
 3318              		.cfi_remember_state
 3319              		.cfi_def_cfa_offset 32
 3320              		@ sp needed
 3321 0078 BDE8F087 		pop	{r4, r5, r6, r7, r8, r9, r10, pc}
 3322              	.LVL297:
 3323              	.L275:
 3324              	.LCFI58:
 3325              		.cfi_restore_state
1134:Dsp/widget/wgt_core/UI_Controller.c ****         (UI_DspInterface.draw_dig == NULL))
 3326              		.loc 1 1134 25 discriminator 1 view .LVU968
 3327 007c 074B     		ldr	r3, .L277+4
 3328 007e 1B68     		ldr	r3, [r3]
1133:Dsp/widget/wgt_core/UI_Controller.c ****         (UI_DspInterface.draw_str == NULL) &&
 3329              		.loc 1 1133 23 discriminator 1 view .LVU969
 3330 0080 002B     		cmp	r3, #0
 3331 0082 C3D1     		bne	.L270
1135:Dsp/widget/wgt_core/UI_Controller.c ****         return false;
 3332              		.loc 1 1135 25 view .LVU970
 3333 0084 054B     		ldr	r3, .L277+4
 3334 0086 5B68     		ldr	r3, [r3, #4]
1134:Dsp/widget/wgt_core/UI_Controller.c ****         (UI_DspInterface.draw_dig == NULL))
 3335              		.loc 1 1134 44 view .LVU971
 3336 0088 002B     		cmp	r3, #0
 3337 008a BFD1     		bne	.L270
1136:Dsp/widget/wgt_core/UI_Controller.c **** 
 3338              		.loc 1 1136 16 view .LVU972
 3339 008c 0020     		movs	r0, #0
 3340              	.LVL298:
1136:Dsp/widget/wgt_core/UI_Controller.c **** 
 3341              		.loc 1 1136 16 view .LVU973
 3342 008e F2E7     		b	.L271
 3343              	.LVL299:
 3344              	.L276:
1142:Dsp/widget/wgt_core/UI_Controller.c **** 
 3345              		.loc 1 1142 9 is_stmt 1 view .LVU974
1142:Dsp/widget/wgt_core/UI_Controller.c **** 
 3346              		.loc 1 1142 15 is_stmt 0 view .LVU975
 3347 0090 0133     		adds	r3, r3, #1
 3348              	.LVL300:
1142:Dsp/widget/wgt_core/UI_Controller.c **** 
 3349              		.loc 1 1142 15 view .LVU976
 3350 0092 0FFA83F8 		sxth	r8, r3
 3351              	.LVL301:
1142:Dsp/widget/wgt_core/UI_Controller.c **** 
ARM GAS  /var/folders/lx/hc4sn_b53233_zkc9xbbl97r0000gp/T//cc4iWlrc.s 			page 86


 3352              		.loc 1 1142 15 view .LVU977
 3353 0096 C3E7     		b	.L272
 3354              	.L278:
 3355              		.align	2
 3356              	.L277:
 3357 0098 00000000 		.word	.LANCHOR2
 3358 009c 00000000 		.word	.LANCHOR0
 3359              		.cfi_endproc
 3360              	.LFE46:
 3362              		.section	.text.UI_DigInput_Init,"ax",%progbits
 3363              		.align	1
 3364              		.syntax unified
 3365              		.thumb
 3366              		.thumb_func
 3367              		.fpu fpv4-sp-d16
 3369              	UI_DigInput_Init:
 3370              	.LVL302:
 3371              	.LFB47:
1159:Dsp/widget/wgt_core/UI_Controller.c **** 
1160:Dsp/widget/wgt_core/UI_Controller.c **** static bool UI_DigInput_Init(UI_DigInputObj_TypeDef *Obj, char *label, int16_t x, int16_t y, UI_Dig
1161:Dsp/widget/wgt_core/UI_Controller.c **** {
 3372              		.loc 1 1161 1 is_stmt 1 view -0
 3373              		.cfi_startproc
 3374              		@ args = 4, pretend = 0, frame = 0
 3375              		@ frame_needed = 0, uses_anonymous_args = 0
1162:Dsp/widget/wgt_core/UI_Controller.c ****     if (Obj == NULL)
 3376              		.loc 1 1162 5 view .LVU979
 3377              		.loc 1 1162 8 is_stmt 0 view .LVU980
 3378 0000 0028     		cmp	r0, #0
 3379 0002 53D0     		beq	.L281
1161:Dsp/widget/wgt_core/UI_Controller.c ****     if (Obj == NULL)
 3380              		.loc 1 1161 1 view .LVU981
 3381 0004 10B5     		push	{r4, lr}
 3382              	.LCFI59:
 3383              		.cfi_def_cfa_offset 8
 3384              		.cfi_offset 4, -8
 3385              		.cfi_offset 14, -4
 3386 0006 0446     		mov	r4, r0
1163:Dsp/widget/wgt_core/UI_Controller.c ****         return false;
1164:Dsp/widget/wgt_core/UI_Controller.c **** 
1165:Dsp/widget/wgt_core/UI_Controller.c ****     UI_GenData_Init(&(Obj->Gen_Data), label, x, y);
 3387              		.loc 1 1165 5 is_stmt 1 view .LVU982
 3388 0008 FFF7FEFF 		bl	UI_GenData_Init
 3389              	.LVL303:
1166:Dsp/widget/wgt_core/UI_Controller.c **** 
1167:Dsp/widget/wgt_core/UI_Controller.c ****     Obj->type = type;
 3390              		.loc 1 1167 5 view .LVU983
 3391              		.loc 1 1167 15 is_stmt 0 view .LVU984
 3392 000c 9DF80830 		ldrb	r3, [sp, #8]	@ zero_extendqisi2
 3393 0010 2373     		strb	r3, [r4, #12]
1168:Dsp/widget/wgt_core/UI_Controller.c ****     Obj->selected = false;
 3394              		.loc 1 1168 5 is_stmt 1 view .LVU985
 3395              		.loc 1 1168 19 is_stmt 0 view .LVU986
 3396 0012 0023     		movs	r3, #0
 3397 0014 84F83D30 		strb	r3, [r4, #61]
1169:Dsp/widget/wgt_core/UI_Controller.c ****     Obj->InputData_Int.CurVal = 0;
 3398              		.loc 1 1169 5 is_stmt 1 view .LVU987
ARM GAS  /var/folders/lx/hc4sn_b53233_zkc9xbbl97r0000gp/T//cc4iWlrc.s 			page 87


 3399              		.loc 1 1169 31 is_stmt 0 view .LVU988
 3400 0018 A375     		strb	r3, [r4, #22]
 3401 001a E375     		strb	r3, [r4, #23]
 3402 001c 2376     		strb	r3, [r4, #24]
 3403 001e 6376     		strb	r3, [r4, #25]
1170:Dsp/widget/wgt_core/UI_Controller.c **** 
1171:Dsp/widget/wgt_core/UI_Controller.c ****     Obj->InputData_Int.Max = 0;
 3404              		.loc 1 1171 5 is_stmt 1 view .LVU989
 3405              		.loc 1 1171 28 is_stmt 0 view .LVU990
 3406 0020 6373     		strb	r3, [r4, #13]
 3407 0022 A373     		strb	r3, [r4, #14]
 3408 0024 E373     		strb	r3, [r4, #15]
 3409 0026 2374     		strb	r3, [r4, #16]
1172:Dsp/widget/wgt_core/UI_Controller.c ****     Obj->InputData_Int.Min = 0;
 3410              		.loc 1 1172 5 is_stmt 1 view .LVU991
 3411              		.loc 1 1172 28 is_stmt 0 view .LVU992
 3412 0028 6374     		strb	r3, [r4, #17]
 3413 002a A374     		strb	r3, [r4, #18]
 3414 002c E374     		strb	r3, [r4, #19]
 3415 002e 2375     		strb	r3, [r4, #20]
1173:Dsp/widget/wgt_core/UI_Controller.c ****     Obj->InputData_Int.CurVal = 0;
 3416              		.loc 1 1173 5 is_stmt 1 view .LVU993
1174:Dsp/widget/wgt_core/UI_Controller.c **** 
1175:Dsp/widget/wgt_core/UI_Controller.c ****     Obj->InputData_Dou.Max = 0.0;
 3417              		.loc 1 1175 5 view .LVU994
 3418              		.loc 1 1175 28 is_stmt 0 view .LVU995
 3419 0030 A376     		strb	r3, [r4, #26]
 3420 0032 E376     		strb	r3, [r4, #27]
 3421 0034 2377     		strb	r3, [r4, #28]
 3422 0036 6377     		strb	r3, [r4, #29]
 3423 0038 A377     		strb	r3, [r4, #30]
 3424 003a E377     		strb	r3, [r4, #31]
 3425 003c 84F82030 		strb	r3, [r4, #32]
 3426 0040 84F82130 		strb	r3, [r4, #33]
1176:Dsp/widget/wgt_core/UI_Controller.c ****     Obj->InputData_Dou.Min = 0.0;
 3427              		.loc 1 1176 5 is_stmt 1 view .LVU996
 3428              		.loc 1 1176 28 is_stmt 0 view .LVU997
 3429 0044 84F82230 		strb	r3, [r4, #34]
 3430 0048 84F82330 		strb	r3, [r4, #35]
 3431 004c 84F82430 		strb	r3, [r4, #36]
 3432 0050 84F82530 		strb	r3, [r4, #37]
 3433 0054 84F82630 		strb	r3, [r4, #38]
 3434 0058 84F82730 		strb	r3, [r4, #39]
 3435 005c 84F82830 		strb	r3, [r4, #40]
 3436 0060 84F82930 		strb	r3, [r4, #41]
1177:Dsp/widget/wgt_core/UI_Controller.c ****     Obj->InputData_Dou.CurVal = 0.0;
 3437              		.loc 1 1177 5 is_stmt 1 view .LVU998
 3438              		.loc 1 1177 31 is_stmt 0 view .LVU999
 3439 0064 84F82A30 		strb	r3, [r4, #42]
 3440 0068 84F82B30 		strb	r3, [r4, #43]
 3441 006c 84F82C30 		strb	r3, [r4, #44]
 3442 0070 84F82D30 		strb	r3, [r4, #45]
 3443 0074 84F82E30 		strb	r3, [r4, #46]
 3444 0078 84F82F30 		strb	r3, [r4, #47]
 3445 007c 84F83030 		strb	r3, [r4, #48]
 3446 0080 84F83130 		strb	r3, [r4, #49]
1178:Dsp/widget/wgt_core/UI_Controller.c **** 
ARM GAS  /var/folders/lx/hc4sn_b53233_zkc9xbbl97r0000gp/T//cc4iWlrc.s 			page 88


1179:Dsp/widget/wgt_core/UI_Controller.c ****     Obj->InputData_Dou.IntPart = 0;
 3447              		.loc 1 1179 5 is_stmt 1 view .LVU1000
 3448              		.loc 1 1179 32 is_stmt 0 view .LVU1001
 3449 0084 84F83530 		strb	r3, [r4, #53]
 3450 0088 84F83630 		strb	r3, [r4, #54]
 3451 008c 84F83730 		strb	r3, [r4, #55]
 3452 0090 84F83830 		strb	r3, [r4, #56]
1180:Dsp/widget/wgt_core/UI_Controller.c ****     Obj->InputData_Dou.PointPart = 0;
 3453              		.loc 1 1180 5 is_stmt 1 view .LVU1002
 3454              		.loc 1 1180 34 is_stmt 0 view .LVU1003
 3455 0094 84F83930 		strb	r3, [r4, #57]
 3456 0098 84F83A30 		strb	r3, [r4, #58]
 3457 009c 84F83B30 		strb	r3, [r4, #59]
 3458 00a0 84F83C30 		strb	r3, [r4, #60]
1181:Dsp/widget/wgt_core/UI_Controller.c ****     Obj->InputData_Dou.selected_part = DigInput_DefaultPart;
 3459              		.loc 1 1181 5 is_stmt 1 view .LVU1004
 3460              		.loc 1 1181 38 is_stmt 0 view .LVU1005
 3461 00a4 84F83230 		strb	r3, [r4, #50]
1182:Dsp/widget/wgt_core/UI_Controller.c **** 
1183:Dsp/widget/wgt_core/UI_Controller.c ****     return true;
 3462              		.loc 1 1183 5 is_stmt 1 view .LVU1006
 3463              		.loc 1 1183 12 is_stmt 0 view .LVU1007
 3464 00a8 0120     		movs	r0, #1
1184:Dsp/widget/wgt_core/UI_Controller.c **** }
 3465              		.loc 1 1184 1 view .LVU1008
 3466 00aa 10BD     		pop	{r4, pc}
 3467              	.LVL304:
 3468              	.L281:
 3469              	.LCFI60:
 3470              		.cfi_def_cfa_offset 0
 3471              		.cfi_restore 4
 3472              		.cfi_restore 14
1163:Dsp/widget/wgt_core/UI_Controller.c **** 
 3473              		.loc 1 1163 16 view .LVU1009
 3474 00ac 0020     		movs	r0, #0
 3475              	.LVL305:
 3476              		.loc 1 1184 1 view .LVU1010
 3477 00ae 7047     		bx	lr
 3478              		.cfi_endproc
 3479              	.LFE47:
 3481              		.section	.text.UI_DigInput_SetIntRange,"ax",%progbits
 3482              		.align	1
 3483              		.syntax unified
 3484              		.thumb
 3485              		.thumb_func
 3486              		.fpu fpv4-sp-d16
 3488              	UI_DigInput_SetIntRange:
 3489              	.LVL306:
 3490              	.LFB48:
1185:Dsp/widget/wgt_core/UI_Controller.c **** 
1186:Dsp/widget/wgt_core/UI_Controller.c **** static bool UI_DigInput_SetIntRange(UI_DigInputObj_TypeDef *Obj, uint8_t efft_int_len, int32_t max,
1187:Dsp/widget/wgt_core/UI_Controller.c **** {
 3491              		.loc 1 1187 1 is_stmt 1 view -0
 3492              		.cfi_startproc
 3493              		@ args = 4, pretend = 0, frame = 0
 3494              		@ frame_needed = 0, uses_anonymous_args = 0
 3495              		@ link register save eliminated.
ARM GAS  /var/folders/lx/hc4sn_b53233_zkc9xbbl97r0000gp/T//cc4iWlrc.s 			page 89


1188:Dsp/widget/wgt_core/UI_Controller.c ****     if ((Obj == NULL) ||
 3496              		.loc 1 1188 5 view .LVU1012
 3497              		.loc 1 1188 8 is_stmt 0 view .LVU1013
 3498 0000 8446     		mov	ip, r0
 3499 0002 78B1     		cbz	r0, .L288
 3500              		.loc 1 1188 23 discriminator 1 view .LVU1014
 3501 0004 9A42     		cmp	r2, r3
 3502 0006 0FDD     		ble	.L289
1189:Dsp/widget/wgt_core/UI_Controller.c ****         (max <= min) ||
1190:Dsp/widget/wgt_core/UI_Controller.c ****         (Obj->type == UI_DoubleDig_Input))
 3503              		.loc 1 1190 13 view .LVU1015
 3504 0008 007B     		ldrb	r0, [r0, #12]	@ zero_extendqisi2
 3505              	.LVL307:
1189:Dsp/widget/wgt_core/UI_Controller.c ****         (max <= min) ||
 3506              		.loc 1 1189 22 view .LVU1016
 3507 000a 0128     		cmp	r0, #1
 3508 000c 0ED0     		beq	.L290
1191:Dsp/widget/wgt_core/UI_Controller.c ****         return false;
1192:Dsp/widget/wgt_core/UI_Controller.c **** 
1193:Dsp/widget/wgt_core/UI_Controller.c ****     Obj->InputData_Int.Max = max;
 3509              		.loc 1 1193 5 is_stmt 1 view .LVU1017
 3510              		.loc 1 1193 28 is_stmt 0 view .LVU1018
 3511 000e CCF80D20 		str	r2, [ip, #13]	@ unaligned
1194:Dsp/widget/wgt_core/UI_Controller.c ****     Obj->InputData_Int.Min = min;
 3512              		.loc 1 1194 5 is_stmt 1 view .LVU1019
 3513              		.loc 1 1194 28 is_stmt 0 view .LVU1020
 3514 0012 CCF81130 		str	r3, [ip, #17]	@ unaligned
1195:Dsp/widget/wgt_core/UI_Controller.c ****     Obj->InputData_Int.effective_len = efft_int_len;
 3515              		.loc 1 1195 5 is_stmt 1 view .LVU1021
 3516              		.loc 1 1195 38 is_stmt 0 view .LVU1022
 3517 0016 8CF81510 		strb	r1, [ip, #21]
1196:Dsp/widget/wgt_core/UI_Controller.c ****     Obj->InputData_Int.CurVal = cur;
 3518              		.loc 1 1196 5 is_stmt 1 view .LVU1023
 3519              		.loc 1 1196 31 is_stmt 0 view .LVU1024
 3520 001a 009B     		ldr	r3, [sp]
 3521              	.LVL308:
 3522              		.loc 1 1196 31 view .LVU1025
 3523 001c CCF81630 		str	r3, [ip, #22]	@ unaligned
1197:Dsp/widget/wgt_core/UI_Controller.c **** 
1198:Dsp/widget/wgt_core/UI_Controller.c ****     return true;
 3524              		.loc 1 1198 5 is_stmt 1 view .LVU1026
 3525              		.loc 1 1198 12 is_stmt 0 view .LVU1027
 3526 0020 0120     		movs	r0, #1
 3527 0022 7047     		bx	lr
 3528              	.LVL309:
 3529              	.L288:
1191:Dsp/widget/wgt_core/UI_Controller.c **** 
 3530              		.loc 1 1191 16 view .LVU1028
 3531 0024 0020     		movs	r0, #0
 3532              	.LVL310:
1191:Dsp/widget/wgt_core/UI_Controller.c **** 
 3533              		.loc 1 1191 16 view .LVU1029
 3534 0026 7047     		bx	lr
 3535              	.LVL311:
 3536              	.L289:
1191:Dsp/widget/wgt_core/UI_Controller.c **** 
 3537              		.loc 1 1191 16 view .LVU1030
ARM GAS  /var/folders/lx/hc4sn_b53233_zkc9xbbl97r0000gp/T//cc4iWlrc.s 			page 90


 3538 0028 0020     		movs	r0, #0
 3539              	.LVL312:
1191:Dsp/widget/wgt_core/UI_Controller.c **** 
 3540              		.loc 1 1191 16 view .LVU1031
 3541 002a 7047     		bx	lr
 3542              	.L290:
 3543 002c 0020     		movs	r0, #0
1199:Dsp/widget/wgt_core/UI_Controller.c **** }
 3544              		.loc 1 1199 1 view .LVU1032
 3545 002e 7047     		bx	lr
 3546              		.cfi_endproc
 3547              	.LFE48:
 3549              		.global	__aeabi_dsub
 3550              		.global	__aeabi_dcmple
 3551              		.global	__aeabi_d2iz
 3552              		.global	__aeabi_i2d
 3553              		.global	__aeabi_d2uiz
 3554              		.section	.text.UI_DigInput_SetDouRange,"ax",%progbits
 3555              		.align	1
 3556              		.syntax unified
 3557              		.thumb
 3558              		.thumb_func
 3559              		.fpu fpv4-sp-d16
 3561              	UI_DigInput_SetDouRange:
 3562              	.LVL313:
 3563              	.LFB49:
1200:Dsp/widget/wgt_core/UI_Controller.c **** 
1201:Dsp/widget/wgt_core/UI_Controller.c **** static bool UI_DigInput_SetDouRange(UI_DigInputObj_TypeDef *Obj, uint8_t efft_int_len, uint8_t efft
1202:Dsp/widget/wgt_core/UI_Controller.c **** {
 3564              		.loc 1 1202 1 is_stmt 1 view -0
 3565              		.cfi_startproc
 3566              		@ args = 0, pretend = 0, frame = 8
 3567              		@ frame_needed = 0, uses_anonymous_args = 0
 3568              		.loc 1 1202 1 is_stmt 0 view .LVU1034
 3569 0000 2DE9F04F 		push	{r4, r5, r6, r7, r8, r9, r10, fp, lr}
 3570              	.LCFI61:
 3571              		.cfi_def_cfa_offset 36
 3572              		.cfi_offset 4, -36
 3573              		.cfi_offset 5, -32
 3574              		.cfi_offset 6, -28
 3575              		.cfi_offset 7, -24
 3576              		.cfi_offset 8, -20
 3577              		.cfi_offset 9, -16
 3578              		.cfi_offset 10, -12
 3579              		.cfi_offset 11, -8
 3580              		.cfi_offset 14, -4
 3581 0004 83B0     		sub	sp, sp, #12
 3582              	.LCFI62:
 3583              		.cfi_def_cfa_offset 48
 3584 0006 0191     		str	r1, [sp, #4]
1203:Dsp/widget/wgt_core/UI_Controller.c ****     if ((Obj == NULL) ||
 3585              		.loc 1 1203 5 is_stmt 1 view .LVU1035
 3586              		.loc 1 1203 8 is_stmt 0 view .LVU1036
 3587 0008 0028     		cmp	r0, #0
 3588 000a 3FD0     		beq	.L293
 3589 000c 1446     		mov	r4, r2
 3590 000e 57EC106B 		vmov	r6, r7, d0
ARM GAS  /var/folders/lx/hc4sn_b53233_zkc9xbbl97r0000gp/T//cc4iWlrc.s 			page 91


 3591 0012 5BEC11AB 		vmov	r10, fp, d1
 3592 0016 59EC128B 		vmov	r8, r9, d2
 3593 001a 0546     		mov	r5, r0
 3594              		.loc 1 1203 23 discriminator 1 view .LVU1037
 3595 001c C2B3     		cbz	r2, .L294
1204:Dsp/widget/wgt_core/UI_Controller.c ****         (efft_point_len == 0) ||
1205:Dsp/widget/wgt_core/UI_Controller.c ****         (max - min <= 0.00001) ||
 3596              		.loc 1 1205 14 view .LVU1038
 3597 001e 11EE102A 		vmov	r2, s2	@ int
 3598              	.LVL314:
 3599              		.loc 1 1205 14 view .LVU1039
 3600 0022 5B46     		mov	r3, fp
 3601 0024 10EE100A 		vmov	r0, s0	@ int
 3602              	.LVL315:
 3603              		.loc 1 1205 14 view .LVU1040
 3604 0028 3946     		mov	r1, r7
 3605              	.LVL316:
 3606              		.loc 1 1205 14 view .LVU1041
 3607 002a FFF7FEFF 		bl	__aeabi_dsub
 3608              	.LVL317:
1204:Dsp/widget/wgt_core/UI_Controller.c ****         (efft_point_len == 0) ||
 3609              		.loc 1 1204 31 view .LVU1042
 3610 002e 1CA3     		adr	r3, .L298
 3611 0030 D3E90023 		ldrd	r2, [r3]
 3612 0034 FFF7FEFF 		bl	__aeabi_dcmple
 3613              	.LVL318:
 3614 0038 70BB     		cbnz	r0, .L295
1206:Dsp/widget/wgt_core/UI_Controller.c ****         (Obj->type == UI_IntDig_Input))
 3615              		.loc 1 1206 13 view .LVU1043
 3616 003a 2B7B     		ldrb	r3, [r5, #12]	@ zero_extendqisi2
1205:Dsp/widget/wgt_core/UI_Controller.c ****         (Obj->type == UI_IntDig_Input))
 3617              		.loc 1 1205 32 view .LVU1044
 3618 003c 73B3     		cbz	r3, .L296
1207:Dsp/widget/wgt_core/UI_Controller.c ****         return false;
1208:Dsp/widget/wgt_core/UI_Controller.c **** 
1209:Dsp/widget/wgt_core/UI_Controller.c ****     Obj->InputData_Dou.Max = max;
 3619              		.loc 1 1209 5 is_stmt 1 view .LVU1045
 3620              		.loc 1 1209 28 is_stmt 0 view .LVU1046
 3621 003e C5F81A60 		str	r6, [r5, #26]	@ unaligned
 3622 0042 C5F81E70 		str	r7, [r5, #30]	@ unaligned
1210:Dsp/widget/wgt_core/UI_Controller.c ****     Obj->InputData_Dou.Min = min;
 3623              		.loc 1 1210 5 is_stmt 1 view .LVU1047
 3624              		.loc 1 1210 28 is_stmt 0 view .LVU1048
 3625 0046 C5F822A0 		str	r10, [r5, #34]	@ unaligned
 3626 004a C5F826B0 		str	fp, [r5, #38]	@ unaligned
1211:Dsp/widget/wgt_core/UI_Controller.c ****     Obj->InputData_Dou.CurVal = cur;
 3627              		.loc 1 1211 5 is_stmt 1 view .LVU1049
 3628              		.loc 1 1211 31 is_stmt 0 view .LVU1050
 3629 004e C5F82A80 		str	r8, [r5, #42]	@ unaligned
 3630 0052 C5F82E90 		str	r9, [r5, #46]	@ unaligned
1212:Dsp/widget/wgt_core/UI_Controller.c ****     Obj->InputData_Dou.effective_int_len = efft_int_len;
 3631              		.loc 1 1212 5 is_stmt 1 view .LVU1051
 3632              		.loc 1 1212 42 is_stmt 0 view .LVU1052
 3633 0056 019B     		ldr	r3, [sp, #4]
 3634 0058 85F83330 		strb	r3, [r5, #51]
1213:Dsp/widget/wgt_core/UI_Controller.c ****     Obj->InputData_Dou.effective_point_len = efft_point_len;
 3635              		.loc 1 1213 5 is_stmt 1 view .LVU1053
ARM GAS  /var/folders/lx/hc4sn_b53233_zkc9xbbl97r0000gp/T//cc4iWlrc.s 			page 92


 3636              		.loc 1 1213 44 is_stmt 0 view .LVU1054
 3637 005c 85F83440 		strb	r4, [r5, #52]
1214:Dsp/widget/wgt_core/UI_Controller.c **** 
1215:Dsp/widget/wgt_core/UI_Controller.c ****     Obj->InputData_Dou.IntPart = (int32_t)cur;
 3638              		.loc 1 1215 5 is_stmt 1 view .LVU1055
 3639              		.loc 1 1215 34 is_stmt 0 view .LVU1056
 3640 0060 4046     		mov	r0, r8
 3641 0062 4946     		mov	r1, r9
 3642 0064 FFF7FEFF 		bl	__aeabi_d2iz
 3643              	.LVL319:
 3644              		.loc 1 1215 32 view .LVU1057
 3645 0068 C5F83500 		str	r0, [r5, #53]	@ unaligned
1216:Dsp/widget/wgt_core/UI_Controller.c ****     Obj->InputData_Dou.PointPart = cur - (int32_t)cur;
 3646              		.loc 1 1216 5 is_stmt 1 view .LVU1058
 3647              		.loc 1 1216 40 is_stmt 0 view .LVU1059
 3648 006c FFF7FEFF 		bl	__aeabi_i2d
 3649              	.LVL320:
 3650 0070 0246     		mov	r2, r0
 3651 0072 0B46     		mov	r3, r1
 3652 0074 4046     		mov	r0, r8
 3653 0076 4946     		mov	r1, r9
 3654 0078 FFF7FEFF 		bl	__aeabi_dsub
 3655              	.LVL321:
 3656              		.loc 1 1216 34 view .LVU1060
 3657 007c FFF7FEFF 		bl	__aeabi_d2uiz
 3658              	.LVL322:
 3659 0080 C5F83900 		str	r0, [r5, #57]	@ unaligned
1217:Dsp/widget/wgt_core/UI_Controller.c **** 
1218:Dsp/widget/wgt_core/UI_Controller.c ****     Obj->InputData_Dou.selected_part = DigInput_PointPart;
 3660              		.loc 1 1218 5 is_stmt 1 view .LVU1061
 3661              		.loc 1 1218 38 is_stmt 0 view .LVU1062
 3662 0084 0120     		movs	r0, #1
 3663 0086 85F83200 		strb	r0, [r5, #50]
1219:Dsp/widget/wgt_core/UI_Controller.c **** 
1220:Dsp/widget/wgt_core/UI_Controller.c ****     return true;
 3664              		.loc 1 1220 5 is_stmt 1 view .LVU1063
 3665              		.loc 1 1220 12 is_stmt 0 view .LVU1064
 3666 008a 02E0     		b	.L292
 3667              	.LVL323:
 3668              	.L293:
1207:Dsp/widget/wgt_core/UI_Controller.c **** 
 3669              		.loc 1 1207 16 view .LVU1065
 3670 008c 0020     		movs	r0, #0
 3671              	.LVL324:
1207:Dsp/widget/wgt_core/UI_Controller.c **** 
 3672              		.loc 1 1207 16 view .LVU1066
 3673 008e 00E0     		b	.L292
 3674              	.LVL325:
 3675              	.L294:
1207:Dsp/widget/wgt_core/UI_Controller.c **** 
 3676              		.loc 1 1207 16 view .LVU1067
 3677 0090 0020     		movs	r0, #0
 3678              	.LVL326:
 3679              	.L292:
1221:Dsp/widget/wgt_core/UI_Controller.c **** }
 3680              		.loc 1 1221 1 view .LVU1068
 3681 0092 03B0     		add	sp, sp, #12
ARM GAS  /var/folders/lx/hc4sn_b53233_zkc9xbbl97r0000gp/T//cc4iWlrc.s 			page 93


 3682              	.LCFI63:
 3683              		.cfi_remember_state
 3684              		.cfi_def_cfa_offset 36
 3685              		@ sp needed
 3686 0094 BDE8F08F 		pop	{r4, r5, r6, r7, r8, r9, r10, fp, pc}
 3687              	.LVL327:
 3688              	.L295:
 3689              	.LCFI64:
 3690              		.cfi_restore_state
1207:Dsp/widget/wgt_core/UI_Controller.c **** 
 3691              		.loc 1 1207 16 view .LVU1069
 3692 0098 0020     		movs	r0, #0
 3693 009a FAE7     		b	.L292
 3694              	.L296:
 3695 009c 0020     		movs	r0, #0
 3696 009e F8E7     		b	.L292
 3697              	.L299:
 3698              		.align	3
 3699              	.L298:
 3700 00a0 F168E388 		.word	-1998362383
 3701 00a4 B5F8E43E 		.word	1055193269
 3702              		.cfi_endproc
 3703              	.LFE49:
 3705              		.section	.text.UI_DigInput_GetDoubleVal,"ax",%progbits
 3706              		.align	1
 3707              		.syntax unified
 3708              		.thumb
 3709              		.thumb_func
 3710              		.fpu fpv4-sp-d16
 3712              	UI_DigInput_GetDoubleVal:
 3713              	.LVL328:
 3714              	.LFB50:
1222:Dsp/widget/wgt_core/UI_Controller.c **** 
1223:Dsp/widget/wgt_core/UI_Controller.c **** static bool UI_DigInput_GetDoubleVal(UI_DigInputObj_TypeDef *Obj, double *Out)
1224:Dsp/widget/wgt_core/UI_Controller.c **** {
 3715              		.loc 1 1224 1 is_stmt 1 view -0
 3716              		.cfi_startproc
 3717              		@ args = 0, pretend = 0, frame = 0
 3718              		@ frame_needed = 0, uses_anonymous_args = 0
 3719              		@ link register save eliminated.
1225:Dsp/widget/wgt_core/UI_Controller.c ****     if ((Obj == NULL) || (Obj->type == UI_IntDig_Input))
 3720              		.loc 1 1225 5 view .LVU1071
 3721              		.loc 1 1225 8 is_stmt 0 view .LVU1072
 3722 0000 58B1     		cbz	r0, .L302
 3723              		.loc 1 1225 30 discriminator 1 view .LVU1073
 3724 0002 027B     		ldrb	r2, [r0, #12]	@ zero_extendqisi2
 3725              		.loc 1 1225 23 discriminator 1 view .LVU1074
 3726 0004 5AB1     		cbz	r2, .L303
1224:Dsp/widget/wgt_core/UI_Controller.c ****     if ((Obj == NULL) || (Obj->type == UI_IntDig_Input))
 3727              		.loc 1 1224 1 view .LVU1075
 3728 0006 30B4     		push	{r4, r5}
 3729              	.LCFI65:
 3730              		.cfi_def_cfa_offset 8
 3731              		.cfi_offset 4, -8
 3732              		.cfi_offset 5, -4
1226:Dsp/widget/wgt_core/UI_Controller.c ****         return false;
1227:Dsp/widget/wgt_core/UI_Controller.c **** 
ARM GAS  /var/folders/lx/hc4sn_b53233_zkc9xbbl97r0000gp/T//cc4iWlrc.s 			page 94


1228:Dsp/widget/wgt_core/UI_Controller.c ****     *Out = Obj->InputData_Dou.CurVal;
 3733              		.loc 1 1228 5 is_stmt 1 view .LVU1076
 3734              		.loc 1 1228 30 is_stmt 0 view .LVU1077
 3735 0008 D0F82A40 		ldr	r4, [r0, #42]	@ unaligned
 3736 000c D0F82E50 		ldr	r5, [r0, #46]	@ unaligned
 3737              		.loc 1 1228 10 view .LVU1078
 3738 0010 C1E90045 		strd	r4, [r1]
1229:Dsp/widget/wgt_core/UI_Controller.c **** 
1230:Dsp/widget/wgt_core/UI_Controller.c ****     return true;
 3739              		.loc 1 1230 5 is_stmt 1 view .LVU1079
 3740              		.loc 1 1230 12 is_stmt 0 view .LVU1080
 3741 0014 0120     		movs	r0, #1
 3742              	.LVL329:
1231:Dsp/widget/wgt_core/UI_Controller.c **** }
 3743              		.loc 1 1231 1 view .LVU1081
 3744 0016 30BC     		pop	{r4, r5}
 3745              	.LCFI66:
 3746              		.cfi_restore 5
 3747              		.cfi_restore 4
 3748              		.cfi_def_cfa_offset 0
 3749 0018 7047     		bx	lr
 3750              	.LVL330:
 3751              	.L302:
1226:Dsp/widget/wgt_core/UI_Controller.c ****         return false;
 3752              		.loc 1 1226 16 view .LVU1082
 3753 001a 0020     		movs	r0, #0
 3754              	.LVL331:
1226:Dsp/widget/wgt_core/UI_Controller.c ****         return false;
 3755              		.loc 1 1226 16 view .LVU1083
 3756 001c 7047     		bx	lr
 3757              	.LVL332:
 3758              	.L303:
1226:Dsp/widget/wgt_core/UI_Controller.c ****         return false;
 3759              		.loc 1 1226 16 view .LVU1084
 3760 001e 0020     		movs	r0, #0
 3761              	.LVL333:
 3762              		.loc 1 1231 1 view .LVU1085
 3763 0020 7047     		bx	lr
 3764              		.cfi_endproc
 3765              	.LFE50:
 3767              		.section	.text.UI_DigInput_GetIntVal,"ax",%progbits
 3768              		.align	1
 3769              		.syntax unified
 3770              		.thumb
 3771              		.thumb_func
 3772              		.fpu fpv4-sp-d16
 3774              	UI_DigInput_GetIntVal:
 3775              	.LVL334:
 3776              	.LFB51:
1232:Dsp/widget/wgt_core/UI_Controller.c **** 
1233:Dsp/widget/wgt_core/UI_Controller.c **** static bool UI_DigInput_GetIntVal(UI_DigInputObj_TypeDef *Obj, int32_t *Out)
1234:Dsp/widget/wgt_core/UI_Controller.c **** {
 3777              		.loc 1 1234 1 is_stmt 1 view -0
 3778              		.cfi_startproc
 3779              		@ args = 0, pretend = 0, frame = 0
 3780              		@ frame_needed = 0, uses_anonymous_args = 0
 3781              		@ link register save eliminated.
ARM GAS  /var/folders/lx/hc4sn_b53233_zkc9xbbl97r0000gp/T//cc4iWlrc.s 			page 95


1235:Dsp/widget/wgt_core/UI_Controller.c ****     if ((Obj == NULL) || (Obj->type == UI_DoubleDig_Input))
 3782              		.loc 1 1235 5 view .LVU1087
 3783              		.loc 1 1235 8 is_stmt 0 view .LVU1088
 3784 0000 38B1     		cbz	r0, .L310
 3785              		.loc 1 1235 30 discriminator 1 view .LVU1089
 3786 0002 027B     		ldrb	r2, [r0, #12]	@ zero_extendqisi2
 3787              		.loc 1 1235 23 discriminator 1 view .LVU1090
 3788 0004 012A     		cmp	r2, #1
 3789 0006 06D0     		beq	.L311
1236:Dsp/widget/wgt_core/UI_Controller.c ****         return false;
1237:Dsp/widget/wgt_core/UI_Controller.c **** 
1238:Dsp/widget/wgt_core/UI_Controller.c ****     *Out = Obj->InputData_Int.CurVal;
 3790              		.loc 1 1238 5 is_stmt 1 view .LVU1091
 3791              		.loc 1 1238 30 is_stmt 0 view .LVU1092
 3792 0008 D0F81630 		ldr	r3, [r0, #22]	@ unaligned
 3793              		.loc 1 1238 10 view .LVU1093
 3794 000c 0B60     		str	r3, [r1]
1239:Dsp/widget/wgt_core/UI_Controller.c **** 
1240:Dsp/widget/wgt_core/UI_Controller.c ****     return true;
 3795              		.loc 1 1240 5 is_stmt 1 view .LVU1094
 3796              		.loc 1 1240 12 is_stmt 0 view .LVU1095
 3797 000e 0120     		movs	r0, #1
 3798              	.LVL335:
 3799              		.loc 1 1240 12 view .LVU1096
 3800 0010 7047     		bx	lr
 3801              	.LVL336:
 3802              	.L310:
1236:Dsp/widget/wgt_core/UI_Controller.c ****         return false;
 3803              		.loc 1 1236 16 view .LVU1097
 3804 0012 0020     		movs	r0, #0
 3805              	.LVL337:
1236:Dsp/widget/wgt_core/UI_Controller.c ****         return false;
 3806              		.loc 1 1236 16 view .LVU1098
 3807 0014 7047     		bx	lr
 3808              	.LVL338:
 3809              	.L311:
1236:Dsp/widget/wgt_core/UI_Controller.c ****         return false;
 3810              		.loc 1 1236 16 view .LVU1099
 3811 0016 0020     		movs	r0, #0
 3812              	.LVL339:
1241:Dsp/widget/wgt_core/UI_Controller.c **** }
 3813              		.loc 1 1241 1 view .LVU1100
 3814 0018 7047     		bx	lr
 3815              		.cfi_endproc
 3816              	.LFE51:
 3818              		.section	.text.UI_DigInput_SetSelectStatus,"ax",%progbits
 3819              		.align	1
 3820              		.syntax unified
 3821              		.thumb
 3822              		.thumb_func
 3823              		.fpu fpv4-sp-d16
 3825              	UI_DigInput_SetSelectStatus:
 3826              	.LVL340:
 3827              	.LFB52:
1242:Dsp/widget/wgt_core/UI_Controller.c **** 
1243:Dsp/widget/wgt_core/UI_Controller.c **** static bool UI_DigInput_SetSelectStatus(UI_DigInputObj_TypeDef *Obj, bool status)
1244:Dsp/widget/wgt_core/UI_Controller.c **** {
ARM GAS  /var/folders/lx/hc4sn_b53233_zkc9xbbl97r0000gp/T//cc4iWlrc.s 			page 96


 3828              		.loc 1 1244 1 is_stmt 1 view -0
 3829              		.cfi_startproc
 3830              		@ args = 0, pretend = 0, frame = 0
 3831              		@ frame_needed = 0, uses_anonymous_args = 0
 3832              		@ link register save eliminated.
1245:Dsp/widget/wgt_core/UI_Controller.c ****     if (Obj == NULL)
 3833              		.loc 1 1245 5 view .LVU1102
 3834              		.loc 1 1245 8 is_stmt 0 view .LVU1103
 3835 0000 18B1     		cbz	r0, .L314
1246:Dsp/widget/wgt_core/UI_Controller.c ****         return false;
1247:Dsp/widget/wgt_core/UI_Controller.c **** 
1248:Dsp/widget/wgt_core/UI_Controller.c ****     Obj->selected = status;
 3836              		.loc 1 1248 5 is_stmt 1 view .LVU1104
 3837              		.loc 1 1248 19 is_stmt 0 view .LVU1105
 3838 0002 80F83D10 		strb	r1, [r0, #61]
1249:Dsp/widget/wgt_core/UI_Controller.c **** 
1250:Dsp/widget/wgt_core/UI_Controller.c ****     return true;
 3839              		.loc 1 1250 5 is_stmt 1 view .LVU1106
 3840              		.loc 1 1250 12 is_stmt 0 view .LVU1107
 3841 0006 0120     		movs	r0, #1
 3842              	.LVL341:
 3843              		.loc 1 1250 12 view .LVU1108
 3844 0008 7047     		bx	lr
 3845              	.LVL342:
 3846              	.L314:
1246:Dsp/widget/wgt_core/UI_Controller.c ****         return false;
 3847              		.loc 1 1246 16 view .LVU1109
 3848 000a 0020     		movs	r0, #0
 3849              	.LVL343:
1251:Dsp/widget/wgt_core/UI_Controller.c **** }
 3850              		.loc 1 1251 1 view .LVU1110
 3851 000c 7047     		bx	lr
 3852              		.cfi_endproc
 3853              	.LFE52:
 3855              		.section	.text.UI_DigInput_Move,"ax",%progbits
 3856              		.align	1
 3857              		.syntax unified
 3858              		.thumb
 3859              		.thumb_func
 3860              		.fpu fpv4-sp-d16
 3862              	UI_DigInput_Move:
 3863              	.LVL344:
 3864              	.LFB54:
1252:Dsp/widget/wgt_core/UI_Controller.c **** 
1253:Dsp/widget/wgt_core/UI_Controller.c **** static bool UI_DigInput_GetSelectStatus(UI_DigInputObj_TypeDef *Obj)
1254:Dsp/widget/wgt_core/UI_Controller.c **** {
1255:Dsp/widget/wgt_core/UI_Controller.c ****     if (Obj == NULL)
1256:Dsp/widget/wgt_core/UI_Controller.c ****         return false;
1257:Dsp/widget/wgt_core/UI_Controller.c **** 
1258:Dsp/widget/wgt_core/UI_Controller.c ****     return Obj->selected;
1259:Dsp/widget/wgt_core/UI_Controller.c **** }
1260:Dsp/widget/wgt_core/UI_Controller.c **** 
1261:Dsp/widget/wgt_core/UI_Controller.c **** static bool UI_DigInput_Move(UI_DigInputObj_TypeDef *Obj, int16_t x, int16_t y)
1262:Dsp/widget/wgt_core/UI_Controller.c **** {
 3865              		.loc 1 1262 1 is_stmt 1 view -0
 3866              		.cfi_startproc
 3867              		@ args = 0, pretend = 0, frame = 0
ARM GAS  /var/folders/lx/hc4sn_b53233_zkc9xbbl97r0000gp/T//cc4iWlrc.s 			page 97


 3868              		@ frame_needed = 0, uses_anonymous_args = 0
1263:Dsp/widget/wgt_core/UI_Controller.c ****     if (Obj == NULL)
 3869              		.loc 1 1263 5 view .LVU1112
 3870              		.loc 1 1263 8 is_stmt 0 view .LVU1113
 3871 0000 18B1     		cbz	r0, .L317
1262:Dsp/widget/wgt_core/UI_Controller.c ****     if (Obj == NULL)
 3872              		.loc 1 1262 1 view .LVU1114
 3873 0002 08B5     		push	{r3, lr}
 3874              	.LCFI67:
 3875              		.cfi_def_cfa_offset 8
 3876              		.cfi_offset 3, -8
 3877              		.cfi_offset 14, -4
1264:Dsp/widget/wgt_core/UI_Controller.c ****         return false;
1265:Dsp/widget/wgt_core/UI_Controller.c **** 
1266:Dsp/widget/wgt_core/UI_Controller.c ****     return UI_Move(&(Obj->Gen_Data), x, y);
 3878              		.loc 1 1266 5 is_stmt 1 view .LVU1115
 3879              		.loc 1 1266 12 is_stmt 0 view .LVU1116
 3880 0004 FFF7FEFF 		bl	UI_Move
 3881              	.LVL345:
1267:Dsp/widget/wgt_core/UI_Controller.c **** }
 3882              		.loc 1 1267 1 view .LVU1117
 3883 0008 08BD     		pop	{r3, pc}
 3884              	.LVL346:
 3885              	.L317:
 3886              	.LCFI68:
 3887              		.cfi_def_cfa_offset 0
 3888              		.cfi_restore 3
 3889              		.cfi_restore 14
1264:Dsp/widget/wgt_core/UI_Controller.c ****         return false;
 3890              		.loc 1 1264 16 view .LVU1118
 3891 000a 0020     		movs	r0, #0
 3892              	.LVL347:
 3893              		.loc 1 1267 1 view .LVU1119
 3894 000c 7047     		bx	lr
 3895              		.cfi_endproc
 3896              	.LFE54:
 3898              		.section	.text.UI_CheckBox_Ctl,"ax",%progbits
 3899              		.align	1
 3900              		.syntax unified
 3901              		.thumb
 3902              		.thumb_func
 3903              		.fpu fpv4-sp-d16
 3905              	UI_CheckBox_Ctl:
 3906              	.LVL348:
 3907              	.LFB21:
 558:Dsp/widget/wgt_core/UI_Controller.c ****     int16_t frame_x = 0;
 3908              		.loc 1 558 1 is_stmt 1 view -0
 3909              		.cfi_startproc
 3910              		@ args = 0, pretend = 0, frame = 0
 3911              		@ frame_needed = 0, uses_anonymous_args = 0
 558:Dsp/widget/wgt_core/UI_Controller.c ****     int16_t frame_x = 0;
 3912              		.loc 1 558 1 is_stmt 0 view .LVU1121
 3913 0000 2DE9F04F 		push	{r4, r5, r6, r7, r8, r9, r10, fp, lr}
 3914              	.LCFI69:
 3915              		.cfi_def_cfa_offset 36
 3916              		.cfi_offset 4, -36
 3917              		.cfi_offset 5, -32
ARM GAS  /var/folders/lx/hc4sn_b53233_zkc9xbbl97r0000gp/T//cc4iWlrc.s 			page 98


 3918              		.cfi_offset 6, -28
 3919              		.cfi_offset 7, -24
 3920              		.cfi_offset 8, -20
 3921              		.cfi_offset 9, -16
 3922              		.cfi_offset 10, -12
 3923              		.cfi_offset 11, -8
 3924              		.cfi_offset 14, -4
 3925 0004 83B0     		sub	sp, sp, #12
 3926              	.LCFI70:
 3927              		.cfi_def_cfa_offset 48
 559:Dsp/widget/wgt_core/UI_Controller.c ****     int16_t frame_y = 0;
 3928              		.loc 1 559 5 is_stmt 1 view .LVU1122
 3929              	.LVL349:
 560:Dsp/widget/wgt_core/UI_Controller.c ****     int16_t str_x = 0;
 3930              		.loc 1 560 5 view .LVU1123
 561:Dsp/widget/wgt_core/UI_Controller.c ****     int16_t str_y = 0;
 3931              		.loc 1 561 5 view .LVU1124
 562:Dsp/widget/wgt_core/UI_Controller.c **** 
 3932              		.loc 1 562 5 view .LVU1125
 564:Dsp/widget/wgt_core/UI_Controller.c ****         (UI_DspInterface.draw_str == NULL) ||
 3933              		.loc 1 564 5 view .LVU1126
 564:Dsp/widget/wgt_core/UI_Controller.c ****         (UI_DspInterface.draw_str == NULL) ||
 3934              		.loc 1 564 8 is_stmt 0 view .LVU1127
 3935 0006 0028     		cmp	r0, #0
 3936 0008 49D0     		beq	.L325
 3937 000a 0646     		mov	r6, r0
 565:Dsp/widget/wgt_core/UI_Controller.c ****         (UI_DspInterface.fill_rectangle == NULL) ||
 3938              		.loc 1 565 25 discriminator 1 view .LVU1128
 3939 000c 2A4B     		ldr	r3, .L332
 3940 000e 1F68     		ldr	r7, [r3]
 564:Dsp/widget/wgt_core/UI_Controller.c ****         (UI_DspInterface.draw_str == NULL) ||
 3941              		.loc 1 564 23 discriminator 1 view .LVU1129
 3942 0010 002F     		cmp	r7, #0
 3943 0012 46D0     		beq	.L326
 566:Dsp/widget/wgt_core/UI_Controller.c ****         (UI_DspInterface.draw_rectangle == NULL))
 3944              		.loc 1 566 25 view .LVU1130
 3945 0014 5B6A     		ldr	r3, [r3, #36]
 565:Dsp/widget/wgt_core/UI_Controller.c ****         (UI_DspInterface.fill_rectangle == NULL) ||
 3946              		.loc 1 565 44 view .LVU1131
 3947 0016 002B     		cmp	r3, #0
 3948 0018 45D0     		beq	.L327
 567:Dsp/widget/wgt_core/UI_Controller.c ****         return false;
 3949              		.loc 1 567 25 view .LVU1132
 3950 001a 274B     		ldr	r3, .L332
 3951 001c 9B69     		ldr	r3, [r3, #24]
 566:Dsp/widget/wgt_core/UI_Controller.c ****         (UI_DspInterface.draw_rectangle == NULL))
 3952              		.loc 1 566 50 view .LVU1133
 3953 001e 002B     		cmp	r3, #0
 3954 0020 43D0     		beq	.L328
 570:Dsp/widget/wgt_core/UI_Controller.c ****     frame_y = Obj->Gen_Data.y + 3;
 3955              		.loc 1 570 5 is_stmt 1 view .LVU1134
 570:Dsp/widget/wgt_core/UI_Controller.c ****     frame_y = Obj->Gen_Data.y + 3;
 3956              		.loc 1 570 35 is_stmt 0 view .LVU1135
 3957 0022 D0F80080 		ldr	r8, [r0]	@ unaligned
 570:Dsp/widget/wgt_core/UI_Controller.c ****     frame_y = Obj->Gen_Data.y + 3;
 3958              		.loc 1 570 15 view .LVU1136
 3959 0026 4046     		mov	r0, r8
ARM GAS  /var/folders/lx/hc4sn_b53233_zkc9xbbl97r0000gp/T//cc4iWlrc.s 			page 99


 3960              	.LVL350:
 570:Dsp/widget/wgt_core/UI_Controller.c ****     frame_y = Obj->Gen_Data.y + 3;
 3961              		.loc 1 570 15 view .LVU1137
 3962 0028 FFF7FEFF 		bl	strlen
 3963              	.LVL351:
 570:Dsp/widget/wgt_core/UI_Controller.c ****     frame_y = Obj->Gen_Data.y + 3;
 3964              		.loc 1 570 13 view .LVU1138
 3965 002c 00EB4000 		add	r0, r0, r0, lsl #1
 3966 0030 4400     		lsls	r4, r0, #1
 3967 0032 A4B2     		uxth	r4, r4
 3968              	.LVL352:
 571:Dsp/widget/wgt_core/UI_Controller.c ****     frame_x += DEFAULT_CHECKBOX_OFFSET;
 3969              		.loc 1 571 5 is_stmt 1 view .LVU1139
 571:Dsp/widget/wgt_core/UI_Controller.c ****     frame_x += DEFAULT_CHECKBOX_OFFSET;
 3970              		.loc 1 571 28 is_stmt 0 view .LVU1140
 3971 0034 B6F90650 		ldrsh	r5, [r6, #6]	@ unaligned
 3972 0038 2BB2     		sxth	r3, r5
 3973 003a ADB2     		uxth	r5, r5
 571:Dsp/widget/wgt_core/UI_Controller.c ****     frame_x += DEFAULT_CHECKBOX_OFFSET;
 3974              		.loc 1 571 31 view .LVU1141
 3975 003c 05F1030A 		add	r10, r5, #3
 571:Dsp/widget/wgt_core/UI_Controller.c ****     frame_x += DEFAULT_CHECKBOX_OFFSET;
 3976              		.loc 1 571 13 view .LVU1142
 3977 0040 0FFA8AFA 		sxth	r10, r10
 3978              	.LVL353:
 572:Dsp/widget/wgt_core/UI_Controller.c **** 
 3979              		.loc 1 572 5 is_stmt 1 view .LVU1143
 572:Dsp/widget/wgt_core/UI_Controller.c **** 
 3980              		.loc 1 572 13 is_stmt 0 view .LVU1144
 3981 0044 04F10509 		add	r9, r4, #5
 3982 0048 0FFA89F9 		sxth	r9, r9
 3983              	.LVL354:
 574:Dsp/widget/wgt_core/UI_Controller.c ****     str_y = Obj->Gen_Data.y;
 3984              		.loc 1 574 5 is_stmt 1 view .LVU1145
 574:Dsp/widget/wgt_core/UI_Controller.c ****     str_y = Obj->Gen_Data.y;
 3985              		.loc 1 574 26 is_stmt 0 view .LVU1146
 3986 004c B288     		ldrh	r2, [r6, #4]	@ unaligned
 574:Dsp/widget/wgt_core/UI_Controller.c ****     str_y = Obj->Gen_Data.y;
 3987              		.loc 1 574 29 view .LVU1147
 3988 004e 0332     		adds	r2, r2, #3
 574:Dsp/widget/wgt_core/UI_Controller.c ****     str_y = Obj->Gen_Data.y;
 3989              		.loc 1 574 11 view .LVU1148
 3990 0050 12B2     		sxth	r2, r2
 3991              	.LVL355:
 575:Dsp/widget/wgt_core/UI_Controller.c **** 
 3992              		.loc 1 575 5 is_stmt 1 view .LVU1149
 577:Dsp/widget/wgt_core/UI_Controller.c ****         str_y += 1;
 3993              		.loc 1 577 5 view .LVU1150
 577:Dsp/widget/wgt_core/UI_Controller.c ****         str_y += 1;
 3994              		.loc 1 577 19 is_stmt 0 view .LVU1151
 3995 0052 1A49     		ldr	r1, .L332+4
 3996 0054 0878     		ldrb	r0, [r1]	@ zero_extendqisi2
 577:Dsp/widget/wgt_core/UI_Controller.c ****         str_y += 1;
 3997              		.loc 1 577 8 view .LVU1152
 3998 0056 0828     		cmp	r0, #8
 3999 0058 1ED0     		beq	.L331
 4000              	.LVL356:
ARM GAS  /var/folders/lx/hc4sn_b53233_zkc9xbbl97r0000gp/T//cc4iWlrc.s 			page 100


 4001              	.L324:
 580:Dsp/widget/wgt_core/UI_Controller.c ****     UI_DspInterface.draw_rectangle(frame_x, frame_y, DEFAULT_CHECKBOX_FRAME_SIZE, DEFAULT_CHECKBOX_
 4002              		.loc 1 580 5 is_stmt 1 view .LVU1153
 4003 005a 4FF0010B 		mov	fp, #1
 4004 005e CDF800B0 		str	fp, [sp]
 4005 0062 4146     		mov	r1, r8
 4006 0064 B847     		blx	r7
 4007              	.LVL357:
 581:Dsp/widget/wgt_core/UI_Controller.c **** 
 4008              		.loc 1 581 5 view .LVU1154
 581:Dsp/widget/wgt_core/UI_Controller.c **** 
 4009              		.loc 1 581 20 is_stmt 0 view .LVU1155
 4010 0066 144B     		ldr	r3, .L332
 4011 0068 9F69     		ldr	r7, [r3, #24]
 581:Dsp/widget/wgt_core/UI_Controller.c **** 
 4012              		.loc 1 581 5 view .LVU1156
 4013 006a CDF804B0 		str	fp, [sp, #4]
 4014 006e CDF800B0 		str	fp, [sp]
 4015 0072 0723     		movs	r3, #7
 4016 0074 1A46     		mov	r2, r3
 4017 0076 5146     		mov	r1, r10
 4018 0078 4846     		mov	r0, r9
 4019 007a B847     		blx	r7
 4020              	.LVL358:
 583:Dsp/widget/wgt_core/UI_Controller.c ****         UI_DspInterface.fill_rectangle(frame_x + 2, frame_y + 2, DEFAULT_CHECKBOX_FILLFRAME, DEFAUL
 4021              		.loc 1 583 5 is_stmt 1 view .LVU1157
 583:Dsp/widget/wgt_core/UI_Controller.c ****         UI_DspInterface.fill_rectangle(frame_x + 2, frame_y + 2, DEFAULT_CHECKBOX_FILLFRAME, DEFAUL
 4022              		.loc 1 583 12 is_stmt 0 view .LVU1158
 4023 007c 367C     		ldrb	r6, [r6, #16]	@ zero_extendqisi2
 4024              	.LVL359:
 583:Dsp/widget/wgt_core/UI_Controller.c ****         UI_DspInterface.fill_rectangle(frame_x + 2, frame_y + 2, DEFAULT_CHECKBOX_FILLFRAME, DEFAUL
 4025              		.loc 1 583 8 view .LVU1159
 4026 007e B6B1     		cbz	r6, .L329
 584:Dsp/widget/wgt_core/UI_Controller.c **** 
 4027              		.loc 1 584 9 is_stmt 1 view .LVU1160
 584:Dsp/widget/wgt_core/UI_Controller.c **** 
 4028              		.loc 1 584 24 is_stmt 0 view .LVU1161
 4029 0080 0D4B     		ldr	r3, .L332
 4030 0082 5F6A     		ldr	r7, [r3, #36]
 584:Dsp/widget/wgt_core/UI_Controller.c **** 
 4031              		.loc 1 584 48 view .LVU1162
 4032 0084 E01D     		adds	r0, r4, #7
 584:Dsp/widget/wgt_core/UI_Controller.c **** 
 4033              		.loc 1 584 61 view .LVU1163
 4034 0086 691D     		adds	r1, r5, #5
 584:Dsp/widget/wgt_core/UI_Controller.c **** 
 4035              		.loc 1 584 9 view .LVU1164
 4036 0088 CDF800B0 		str	fp, [sp]
 4037 008c 0323     		movs	r3, #3
 4038 008e 1A46     		mov	r2, r3
 4039 0090 09B2     		sxth	r1, r1
 4040 0092 00B2     		sxth	r0, r0
 4041 0094 B847     		blx	r7
 4042              	.LVL360:
 4043 0096 0BE0     		b	.L323
 4044              	.LVL361:
 4045              	.L331:
ARM GAS  /var/folders/lx/hc4sn_b53233_zkc9xbbl97r0000gp/T//cc4iWlrc.s 			page 101


 578:Dsp/widget/wgt_core/UI_Controller.c **** 
 4046              		.loc 1 578 9 is_stmt 1 view .LVU1165
 578:Dsp/widget/wgt_core/UI_Controller.c **** 
 4047              		.loc 1 578 15 is_stmt 0 view .LVU1166
 4048 0098 6B1C     		adds	r3, r5, #1
 4049 009a 1BB2     		sxth	r3, r3
 4050              	.LVL362:
 578:Dsp/widget/wgt_core/UI_Controller.c **** 
 4051              		.loc 1 578 15 view .LVU1167
 4052 009c DDE7     		b	.L324
 4053              	.LVL363:
 4054              	.L325:
 568:Dsp/widget/wgt_core/UI_Controller.c **** 
 4055              		.loc 1 568 16 view .LVU1168
 4056 009e 0026     		movs	r6, #0
 4057 00a0 06E0     		b	.L323
 4058              	.L326:
 568:Dsp/widget/wgt_core/UI_Controller.c **** 
 4059              		.loc 1 568 16 view .LVU1169
 4060 00a2 0026     		movs	r6, #0
 4061 00a4 04E0     		b	.L323
 4062              	.L327:
 568:Dsp/widget/wgt_core/UI_Controller.c **** 
 4063              		.loc 1 568 16 view .LVU1170
 4064 00a6 0026     		movs	r6, #0
 4065 00a8 02E0     		b	.L323
 4066              	.L328:
 568:Dsp/widget/wgt_core/UI_Controller.c **** 
 4067              		.loc 1 568 16 view .LVU1171
 4068 00aa 0026     		movs	r6, #0
 4069 00ac 00E0     		b	.L323
 4070              	.LVL364:
 4071              	.L329:
 586:Dsp/widget/wgt_core/UI_Controller.c **** }
 4072              		.loc 1 586 12 view .LVU1172
 4073 00ae 0126     		movs	r6, #1
 4074              	.LVL365:
 4075              	.L323:
 587:Dsp/widget/wgt_core/UI_Controller.c **** 
 4076              		.loc 1 587 1 view .LVU1173
 4077 00b0 3046     		mov	r0, r6
 4078 00b2 03B0     		add	sp, sp, #12
 4079              	.LCFI71:
 4080              		.cfi_def_cfa_offset 36
 4081              		@ sp needed
 4082 00b4 BDE8F08F 		pop	{r4, r5, r6, r7, r8, r9, r10, fp, pc}
 4083              	.L333:
 4084              		.align	2
 4085              	.L332:
 4086 00b8 00000000 		.word	.LANCHOR0
 4087 00bc 00000000 		.word	.LANCHOR2
 4088              		.cfi_endproc
 4089              	.LFE21:
 4091              		.section	.text.UI_SlideBar_CTL,"ax",%progbits
 4092              		.align	1
 4093              		.syntax unified
 4094              		.thumb
ARM GAS  /var/folders/lx/hc4sn_b53233_zkc9xbbl97r0000gp/T//cc4iWlrc.s 			page 102


 4095              		.thumb_func
 4096              		.fpu fpv4-sp-d16
 4098              	UI_SlideBar_CTL:
 4099              	.LVL366:
 4100              	.LFB27:
 671:Dsp/widget/wgt_core/UI_Controller.c ****     int16_t Block_CoordX = 0;
 4101              		.loc 1 671 1 is_stmt 1 view -0
 4102              		.cfi_startproc
 4103              		@ args = 0, pretend = 0, frame = 0
 4104              		@ frame_needed = 0, uses_anonymous_args = 0
 672:Dsp/widget/wgt_core/UI_Controller.c ****     int16_t Block_CoordY = 0;
 4105              		.loc 1 672 5 view .LVU1175
 673:Dsp/widget/wgt_core/UI_Controller.c ****     int16_t input_trip = 0;
 4106              		.loc 1 673 5 view .LVU1176
 674:Dsp/widget/wgt_core/UI_Controller.c ****     int16_t str_y = Obj->Gen_Data.y;
 4107              		.loc 1 674 5 view .LVU1177
 675:Dsp/widget/wgt_core/UI_Controller.c **** 
 4108              		.loc 1 675 5 view .LVU1178
 675:Dsp/widget/wgt_core/UI_Controller.c **** 
 4109              		.loc 1 675 13 is_stmt 0 view .LVU1179
 4110 0000 B0F90620 		ldrsh	r2, [r0, #6]	@ unaligned
 4111              	.LVL367:
 677:Dsp/widget/wgt_core/UI_Controller.c ****         (UI_DspInterface.draw_str == NULL) ||
 4112              		.loc 1 677 5 is_stmt 1 view .LVU1180
 677:Dsp/widget/wgt_core/UI_Controller.c ****         (UI_DspInterface.draw_str == NULL) ||
 4113              		.loc 1 677 8 is_stmt 0 view .LVU1181
 4114 0004 0028     		cmp	r0, #0
 4115 0006 00F08480 		beq	.L340
 671:Dsp/widget/wgt_core/UI_Controller.c ****     int16_t Block_CoordX = 0;
 4116              		.loc 1 671 1 discriminator 1 view .LVU1182
 4117 000a 2DE9F041 		push	{r4, r5, r6, r7, r8, lr}
 4118              	.LCFI72:
 4119              		.cfi_def_cfa_offset 24
 4120              		.cfi_offset 4, -24
 4121              		.cfi_offset 5, -20
 4122              		.cfi_offset 6, -16
 4123              		.cfi_offset 7, -12
 4124              		.cfi_offset 8, -8
 4125              		.cfi_offset 14, -4
 4126 000e 82B0     		sub	sp, sp, #8
 4127              	.LCFI73:
 4128              		.cfi_def_cfa_offset 32
 4129 0010 0446     		mov	r4, r0
 4130 0012 1346     		mov	r3, r2
 678:Dsp/widget/wgt_core/UI_Controller.c ****         (UI_DspInterface.fill_rectangle == NULL))
 4131              		.loc 1 678 25 discriminator 1 view .LVU1183
 4132 0014 4349     		ldr	r1, .L349
 4133 0016 0E68     		ldr	r6, [r1]
 677:Dsp/widget/wgt_core/UI_Controller.c ****         (UI_DspInterface.draw_str == NULL) ||
 4134              		.loc 1 677 23 discriminator 1 view .LVU1184
 4135 0018 002E     		cmp	r6, #0
 4136 001a 7CD0     		beq	.L341
 679:Dsp/widget/wgt_core/UI_Controller.c ****         return false;
 4137              		.loc 1 679 25 view .LVU1185
 4138 001c 496A     		ldr	r1, [r1, #36]
 678:Dsp/widget/wgt_core/UI_Controller.c ****         (UI_DspInterface.fill_rectangle == NULL))
 4139              		.loc 1 678 44 view .LVU1186
ARM GAS  /var/folders/lx/hc4sn_b53233_zkc9xbbl97r0000gp/T//cc4iWlrc.s 			page 103


 4140 001e 0029     		cmp	r1, #0
 4141 0020 7BD0     		beq	.L342
 682:Dsp/widget/wgt_core/UI_Controller.c ****         str_y += 1;
 4142              		.loc 1 682 5 is_stmt 1 view .LVU1187
 682:Dsp/widget/wgt_core/UI_Controller.c ****         str_y += 1;
 4143              		.loc 1 682 19 is_stmt 0 view .LVU1188
 4144 0022 4149     		ldr	r1, .L349+4
 4145 0024 0878     		ldrb	r0, [r1]	@ zero_extendqisi2
 4146              	.LVL368:
 682:Dsp/widget/wgt_core/UI_Controller.c ****         str_y += 1;
 4147              		.loc 1 682 8 view .LVU1189
 4148 0026 0828     		cmp	r0, #8
 4149 0028 6CD0     		beq	.L348
 4150              	.LVL369:
 4151              	.L336:
 685:Dsp/widget/wgt_core/UI_Controller.c **** 
 4152              		.loc 1 685 5 is_stmt 1 view .LVU1190
 685:Dsp/widget/wgt_core/UI_Controller.c **** 
 4153              		.loc 1 685 21 is_stmt 0 view .LVU1191
 4154 002a D4F81520 		ldr	r2, [r4, #21]	@ unaligned
 4155 002e 07EE902A 		vmov	s15, r2	@ int
 685:Dsp/widget/wgt_core/UI_Controller.c **** 
 4156              		.loc 1 685 38 view .LVU1192
 4157 0032 D4F81120 		ldr	r2, [r4, #17]	@ unaligned
 685:Dsp/widget/wgt_core/UI_Controller.c **** 
 4158              		.loc 1 685 33 view .LVU1193
 4159 0036 07EE102A 		vmov	s14, r2
 4160 003a 77EEC77A 		vsub.f32	s15, s15, s14
 685:Dsp/widget/wgt_core/UI_Controller.c **** 
 4161              		.loc 1 685 16 view .LVU1194
 4162 003e FDEEE77A 		vcvt.s32.f32	s15, s15
 4163 0042 17EE902A 		vmov	r2, s15	@ int
 4164 0046 15B2     		sxth	r5, r2
 4165              	.LVL370:
 687:Dsp/widget/wgt_core/UI_Controller.c **** 
 4166              		.loc 1 687 5 is_stmt 1 view .LVU1195
 687:Dsp/widget/wgt_core/UI_Controller.c **** 
 4167              		.loc 1 687 75 is_stmt 0 view .LVU1196
 4168 0048 A288     		ldrh	r2, [r4, #4]	@ unaligned
 687:Dsp/widget/wgt_core/UI_Controller.c **** 
 4169              		.loc 1 687 78 view .LVU1197
 4170 004a 0332     		adds	r2, r2, #3
 687:Dsp/widget/wgt_core/UI_Controller.c **** 
 4171              		.loc 1 687 5 view .LVU1198
 4172 004c 0121     		movs	r1, #1
 4173 004e 0091     		str	r1, [sp]
 4174 0050 12B2     		sxth	r2, r2
 4175 0052 2168     		ldr	r1, [r4]	@ unaligned
 4176 0054 B047     		blx	r6
 4177              	.LVL371:
 689:Dsp/widget/wgt_core/UI_Controller.c ****     {
 4178              		.loc 1 689 5 is_stmt 1 view .LVU1199
 689:Dsp/widget/wgt_core/UI_Controller.c ****     {
 4179              		.loc 1 689 12 is_stmt 0 view .LVU1200
 4180 0056 237B     		ldrb	r3, [r4, #12]	@ zero_extendqisi2
 689:Dsp/widget/wgt_core/UI_Controller.c ****     {
 4181              		.loc 1 689 8 view .LVU1201
ARM GAS  /var/folders/lx/hc4sn_b53233_zkc9xbbl97r0000gp/T//cc4iWlrc.s 			page 104


 4182 0058 002B     		cmp	r3, #0
 4183 005a 56D1     		bne	.L337
 691:Dsp/widget/wgt_core/UI_Controller.c ****         {
 4184              		.loc 1 691 9 is_stmt 1 view .LVU1202
 691:Dsp/widget/wgt_core/UI_Controller.c ****         {
 4185              		.loc 1 691 16 is_stmt 0 view .LVU1203
 4186 005c B4F92430 		ldrsh	r3, [r4, #36]	@ unaligned
 691:Dsp/widget/wgt_core/UI_Controller.c ****         {
 4187              		.loc 1 691 12 view .LVU1204
 4188 0060 53B9     		cbnz	r3, .L338
 693:Dsp/widget/wgt_core/UI_Controller.c ****         }
 4189              		.loc 1 693 13 is_stmt 1 view .LVU1205
 693:Dsp/widget/wgt_core/UI_Controller.c ****         }
 4190              		.loc 1 693 44 is_stmt 0 view .LVU1206
 4191 0062 A688     		ldrh	r6, [r4, #4]	@ unaligned
 693:Dsp/widget/wgt_core/UI_Controller.c ****         }
 4192              		.loc 1 693 49 view .LVU1207
 4193 0064 2068     		ldr	r0, [r4]	@ unaligned
 4194 0066 FFF7FEFF 		bl	strlen
 4195              	.LVL372:
 693:Dsp/widget/wgt_core/UI_Controller.c ****         }
 4196              		.loc 1 693 47 view .LVU1208
 4197 006a 00EB4000 		add	r0, r0, r0, lsl #1
 4198 006e 06EB4006 		add	r6, r6, r0, lsl #1
 4199 0072 B6B2     		uxth	r6, r6
 693:Dsp/widget/wgt_core/UI_Controller.c ****         }
 4200              		.loc 1 693 87 view .LVU1209
 4201 0074 0536     		adds	r6, r6, #5
 693:Dsp/widget/wgt_core/UI_Controller.c ****         }
 4202              		.loc 1 693 29 view .LVU1210
 4203 0076 A684     		strh	r6, [r4, #36]	@ unaligned
 4204              	.L338:
 696:Dsp/widget/wgt_core/UI_Controller.c ****         {
 4205              		.loc 1 696 9 is_stmt 1 view .LVU1211
 696:Dsp/widget/wgt_core/UI_Controller.c ****         {
 4206              		.loc 1 696 16 is_stmt 0 view .LVU1212
 4207 0078 B4F92630 		ldrsh	r3, [r4, #38]	@ unaligned
 696:Dsp/widget/wgt_core/UI_Controller.c ****         {
 4208              		.loc 1 696 12 view .LVU1213
 4209 007c 13B9     		cbnz	r3, .L339
 698:Dsp/widget/wgt_core/UI_Controller.c ****         }
 4210              		.loc 1 698 13 is_stmt 1 view .LVU1214
 698:Dsp/widget/wgt_core/UI_Controller.c ****         }
 4211              		.loc 1 698 44 is_stmt 0 view .LVU1215
 4212 007e E388     		ldrh	r3, [r4, #6]	@ unaligned
 698:Dsp/widget/wgt_core/UI_Controller.c ****         }
 4213              		.loc 1 698 47 view .LVU1216
 4214 0080 0533     		adds	r3, r3, #5
 698:Dsp/widget/wgt_core/UI_Controller.c ****         }
 4215              		.loc 1 698 29 view .LVU1217
 4216 0082 E384     		strh	r3, [r4, #38]	@ unaligned
 4217              	.L339:
 701:Dsp/widget/wgt_core/UI_Controller.c ****         Block_CoordX += (Obj->cur_val - Obj->limit_min) / ((float)(input_trip)) * (DEFAULT_SLIDERBA
 4218              		.loc 1 701 9 is_stmt 1 view .LVU1218
 701:Dsp/widget/wgt_core/UI_Controller.c ****         Block_CoordX += (Obj->cur_val - Obj->limit_min) / ((float)(input_trip)) * (DEFAULT_SLIDERBA
 4219              		.loc 1 701 22 is_stmt 0 view .LVU1219
 4220 0084 B4F92400 		ldrsh	r0, [r4, #36]	@ unaligned
ARM GAS  /var/folders/lx/hc4sn_b53233_zkc9xbbl97r0000gp/T//cc4iWlrc.s 			page 105


 4221              	.LVL373:
 702:Dsp/widget/wgt_core/UI_Controller.c **** 
 4222              		.loc 1 702 9 is_stmt 1 view .LVU1220
 702:Dsp/widget/wgt_core/UI_Controller.c **** 
 4223              		.loc 1 702 29 is_stmt 0 view .LVU1221
 4224 0088 D4F81F30 		ldr	r3, [r4, #31]	@ unaligned
 4225 008c 06EE903A 		vmov	s13, r3	@ int
 702:Dsp/widget/wgt_core/UI_Controller.c **** 
 4226              		.loc 1 702 44 view .LVU1222
 4227 0090 D4F81130 		ldr	r3, [r4, #17]	@ unaligned
 702:Dsp/widget/wgt_core/UI_Controller.c **** 
 4228              		.loc 1 702 39 view .LVU1223
 4229 0094 07EE903A 		vmov	s15, r3
 4230 0098 76EEE76A 		vsub.f32	s13, s13, s15
 702:Dsp/widget/wgt_core/UI_Controller.c **** 
 4231              		.loc 1 702 60 view .LVU1224
 4232 009c 07EE905A 		vmov	s15, r5	@ int
 4233 00a0 B8EEE77A 		vcvt.f32.s32	s14, s15
 702:Dsp/widget/wgt_core/UI_Controller.c **** 
 4234              		.loc 1 702 57 view .LVU1225
 4235 00a4 C6EE877A 		vdiv.f32	s15, s13, s14
 702:Dsp/widget/wgt_core/UI_Controller.c **** 
 4236              		.loc 1 702 81 view .LVU1226
 4237 00a8 9FED207A 		vldr.32	s14, .L349+8
 4238 00ac 27EE877A 		vmul.f32	s14, s15, s14
 702:Dsp/widget/wgt_core/UI_Controller.c **** 
 4239              		.loc 1 702 22 view .LVU1227
 4240 00b0 07EE900A 		vmov	s15, r0	@ int
 4241 00b4 F8EEE77A 		vcvt.f32.s32	s15, s15
 4242 00b8 77EE877A 		vadd.f32	s15, s15, s14
 4243 00bc FDEEE77A 		vcvt.s32.f32	s15, s15
 4244 00c0 17EE903A 		vmov	r3, s15	@ int
 4245 00c4 0FFA83F8 		sxth	r8, r3
 4246              	.LVL374:
 704:Dsp/widget/wgt_core/UI_Controller.c **** 
 4247              		.loc 1 704 9 is_stmt 1 view .LVU1228
 704:Dsp/widget/wgt_core/UI_Controller.c **** 
 4248              		.loc 1 704 24 is_stmt 0 view .LVU1229
 4249 00c8 164F     		ldr	r7, .L349
 704:Dsp/widget/wgt_core/UI_Controller.c **** 
 4250              		.loc 1 704 9 view .LVU1230
 4251 00ca 0125     		movs	r5, #1
 4252              	.LVL375:
 704:Dsp/widget/wgt_core/UI_Controller.c **** 
 4253              		.loc 1 704 9 view .LVU1231
 4254 00cc 0095     		str	r5, [sp]
 4255 00ce 0223     		movs	r3, #2
 4256 00d0 2822     		movs	r2, #40
 4257 00d2 B4F92610 		ldrsh	r1, [r4, #38]	@ unaligned
 4258 00d6 7E6A     		ldr	r6, [r7, #36]
 4259 00d8 B047     		blx	r6
 4260              	.LVL376:
 706:Dsp/widget/wgt_core/UI_Controller.c ****         UI_DspInterface.fill_rectangle(Block_CoordX, Block_CoordY, DEFAULT_SLIDERBAR_BLOCK_WIDTH, D
 4261              		.loc 1 706 9 is_stmt 1 view .LVU1232
 706:Dsp/widget/wgt_core/UI_Controller.c ****         UI_DspInterface.fill_rectangle(Block_CoordX, Block_CoordY, DEFAULT_SLIDERBAR_BLOCK_WIDTH, D
 4262              		.loc 1 706 37 is_stmt 0 view .LVU1233
 4263 00da E488     		ldrh	r4, [r4, #6]	@ unaligned
ARM GAS  /var/folders/lx/hc4sn_b53233_zkc9xbbl97r0000gp/T//cc4iWlrc.s 			page 106


 4264              	.LVL377:
 706:Dsp/widget/wgt_core/UI_Controller.c ****         UI_DspInterface.fill_rectangle(Block_CoordX, Block_CoordY, DEFAULT_SLIDERBAR_BLOCK_WIDTH, D
 4265              		.loc 1 706 40 view .LVU1234
 4266 00dc E11C     		adds	r1, r4, #3
 4267              	.LVL378:
 707:Dsp/widget/wgt_core/UI_Controller.c ****         UI_DspInterface.fill_rectangle(Block_CoordX, Block_CoordY + (DEFAULT_SLIDERBAR_BLOCK_HIGH /
 4268              		.loc 1 707 9 is_stmt 1 view .LVU1235
 4269 00de 0095     		str	r5, [sp]
 4270 00e0 0623     		movs	r3, #6
 4271 00e2 0322     		movs	r2, #3
 4272 00e4 09B2     		sxth	r1, r1
 707:Dsp/widget/wgt_core/UI_Controller.c ****         UI_DspInterface.fill_rectangle(Block_CoordX, Block_CoordY + (DEFAULT_SLIDERBAR_BLOCK_HIGH /
 4273              		.loc 1 707 9 is_stmt 0 view .LVU1236
 4274 00e6 4046     		mov	r0, r8
 4275 00e8 7E6A     		ldr	r6, [r7, #36]
 4276 00ea B047     		blx	r6
 4277              	.LVL379:
 708:Dsp/widget/wgt_core/UI_Controller.c ****     }
 4278              		.loc 1 708 9 is_stmt 1 view .LVU1237
 708:Dsp/widget/wgt_core/UI_Controller.c ****     }
 4279              		.loc 1 708 24 is_stmt 0 view .LVU1238
 4280 00ec 7F6A     		ldr	r7, [r7, #36]
 708:Dsp/widget/wgt_core/UI_Controller.c ****     }
 4281              		.loc 1 708 67 view .LVU1239
 4282 00ee 611D     		adds	r1, r4, #5
 708:Dsp/widget/wgt_core/UI_Controller.c ****     }
 4283              		.loc 1 708 9 view .LVU1240
 4284 00f0 0095     		str	r5, [sp]
 4285 00f2 0223     		movs	r3, #2
 4286 00f4 0322     		movs	r2, #3
 4287 00f6 09B2     		sxth	r1, r1
 4288 00f8 4046     		mov	r0, r8
 4289 00fa B847     		blx	r7
 4290              	.LVL380:
 716:Dsp/widget/wgt_core/UI_Controller.c **** }
 4291              		.loc 1 716 12 view .LVU1241
 4292 00fc 2846     		mov	r0, r5
 4293              	.LVL381:
 4294              	.L335:
 717:Dsp/widget/wgt_core/UI_Controller.c **** 
 4295              		.loc 1 717 1 view .LVU1242
 4296 00fe 02B0     		add	sp, sp, #8
 4297              	.LCFI74:
 4298              		.cfi_remember_state
 4299              		.cfi_def_cfa_offset 24
 4300              		@ sp needed
 4301 0100 BDE8F081 		pop	{r4, r5, r6, r7, r8, pc}
 4302              	.LVL382:
 4303              	.L348:
 4304              	.LCFI75:
 4305              		.cfi_restore_state
 683:Dsp/widget/wgt_core/UI_Controller.c **** 
 4306              		.loc 1 683 9 is_stmt 1 view .LVU1243
 683:Dsp/widget/wgt_core/UI_Controller.c **** 
 4307              		.loc 1 683 15 is_stmt 0 view .LVU1244
 4308 0104 0132     		adds	r2, r2, #1
 4309              	.LVL383:
ARM GAS  /var/folders/lx/hc4sn_b53233_zkc9xbbl97r0000gp/T//cc4iWlrc.s 			page 107


 683:Dsp/widget/wgt_core/UI_Controller.c **** 
 4310              		.loc 1 683 15 view .LVU1245
 4311 0106 13B2     		sxth	r3, r2
 4312              	.LVL384:
 683:Dsp/widget/wgt_core/UI_Controller.c **** 
 4313              		.loc 1 683 15 view .LVU1246
 4314 0108 8FE7     		b	.L336
 4315              	.LVL385:
 4316              	.L337:
 710:Dsp/widget/wgt_core/UI_Controller.c ****     {
 4317              		.loc 1 710 10 is_stmt 1 view .LVU1247
 710:Dsp/widget/wgt_core/UI_Controller.c ****     {
 4318              		.loc 1 710 13 is_stmt 0 view .LVU1248
 4319 010a 012B     		cmp	r3, #1
 4320 010c 07D1     		bne	.L343
 716:Dsp/widget/wgt_core/UI_Controller.c **** }
 4321              		.loc 1 716 12 view .LVU1249
 4322 010e 0120     		movs	r0, #1
 4323 0110 F5E7     		b	.L335
 4324              	.LVL386:
 4325              	.L340:
 4326              	.LCFI76:
 4327              		.cfi_def_cfa_offset 0
 4328              		.cfi_restore 4
 4329              		.cfi_restore 5
 4330              		.cfi_restore 6
 4331              		.cfi_restore 7
 4332              		.cfi_restore 8
 4333              		.cfi_restore 14
 680:Dsp/widget/wgt_core/UI_Controller.c **** 
 4334              		.loc 1 680 16 view .LVU1250
 4335 0112 0020     		movs	r0, #0
 4336              	.LVL387:
 717:Dsp/widget/wgt_core/UI_Controller.c **** 
 4337              		.loc 1 717 1 view .LVU1251
 4338 0114 7047     		bx	lr
 4339              	.LVL388:
 4340              	.L341:
 4341              	.LCFI77:
 4342              		.cfi_def_cfa_offset 32
 4343              		.cfi_offset 4, -24
 4344              		.cfi_offset 5, -20
 4345              		.cfi_offset 6, -16
 4346              		.cfi_offset 7, -12
 4347              		.cfi_offset 8, -8
 4348              		.cfi_offset 14, -4
 680:Dsp/widget/wgt_core/UI_Controller.c **** 
 4349              		.loc 1 680 16 view .LVU1252
 4350 0116 0020     		movs	r0, #0
 4351              	.LVL389:
 680:Dsp/widget/wgt_core/UI_Controller.c **** 
 4352              		.loc 1 680 16 view .LVU1253
 4353 0118 F1E7     		b	.L335
 4354              	.LVL390:
 4355              	.L342:
 680:Dsp/widget/wgt_core/UI_Controller.c **** 
 4356              		.loc 1 680 16 view .LVU1254
ARM GAS  /var/folders/lx/hc4sn_b53233_zkc9xbbl97r0000gp/T//cc4iWlrc.s 			page 108


 4357 011a 0020     		movs	r0, #0
 4358              	.LVL391:
 680:Dsp/widget/wgt_core/UI_Controller.c **** 
 4359              		.loc 1 680 16 view .LVU1255
 4360 011c EFE7     		b	.L335
 4361              	.LVL392:
 4362              	.L343:
 714:Dsp/widget/wgt_core/UI_Controller.c **** 
 4363              		.loc 1 714 16 view .LVU1256
 4364 011e 0020     		movs	r0, #0
 4365 0120 EDE7     		b	.L335
 4366              	.L350:
 4367 0122 00BF     		.align	2
 4368              	.L349:
 4369 0124 00000000 		.word	.LANCHOR0
 4370 0128 00000000 		.word	.LANCHOR2
 4371 012c 00001442 		.word	1108606976
 4372              		.cfi_endproc
 4373              	.LFE27:
 4375              		.section	.rodata.UI_ProcessBar_DspLoadBar.str1.4,"aMS",%progbits,1
 4376              		.align	2
 4377              	.LC2:
 4378 0000 4F6E2050 		.ascii	"On Process : %d%%\000"
 4378      726F6365 
 4378      7373203A 
 4378      20256425 
 4378      2500
 4379              		.section	.text.UI_ProcessBar_DspLoadBar,"ax",%progbits
 4380              		.align	1
 4381              		.syntax unified
 4382              		.thumb
 4383              		.thumb_func
 4384              		.fpu fpv4-sp-d16
 4386              	UI_ProcessBar_DspLoadBar:
 4387              	.LVL393:
 4388              	.LFB34:
 817:Dsp/widget/wgt_core/UI_Controller.c ****     uint8_t frame_radius = 0;
 4389              		.loc 1 817 1 is_stmt 1 view -0
 4390              		.cfi_startproc
 4391              		@ args = 0, pretend = 0, frame = 32
 4392              		@ frame_needed = 0, uses_anonymous_args = 0
 818:Dsp/widget/wgt_core/UI_Controller.c ****     int16_t Str_CoordX = 0;
 4393              		.loc 1 818 5 view .LVU1258
 819:Dsp/widget/wgt_core/UI_Controller.c ****     int16_t Str_CoordY = 0;
 4394              		.loc 1 819 5 view .LVU1259
 820:Dsp/widget/wgt_core/UI_Controller.c ****     float Pcnt_Val = 0;
 4395              		.loc 1 820 5 view .LVU1260
 821:Dsp/widget/wgt_core/UI_Controller.c ****     char dsp_str[20];
 4396              		.loc 1 821 5 view .LVU1261
 822:Dsp/widget/wgt_core/UI_Controller.c **** 
 4397              		.loc 1 822 5 view .LVU1262
 824:Dsp/widget/wgt_core/UI_Controller.c ****         return false;
 4398              		.loc 1 824 5 view .LVU1263
 824:Dsp/widget/wgt_core/UI_Controller.c ****         return false;
 4399              		.loc 1 824 8 is_stmt 0 view .LVU1264
 4400 0000 0028     		cmp	r0, #0
 4401 0002 77D0     		beq	.L353
ARM GAS  /var/folders/lx/hc4sn_b53233_zkc9xbbl97r0000gp/T//cc4iWlrc.s 			page 109


 817:Dsp/widget/wgt_core/UI_Controller.c ****     uint8_t frame_radius = 0;
 4402              		.loc 1 817 1 view .LVU1265
 4403 0004 2DE9F04F 		push	{r4, r5, r6, r7, r8, r9, r10, fp, lr}
 4404              	.LCFI78:
 4405              		.cfi_def_cfa_offset 36
 4406              		.cfi_offset 4, -36
 4407              		.cfi_offset 5, -32
 4408              		.cfi_offset 6, -28
 4409              		.cfi_offset 7, -24
 4410              		.cfi_offset 8, -20
 4411              		.cfi_offset 9, -16
 4412              		.cfi_offset 10, -12
 4413              		.cfi_offset 11, -8
 4414              		.cfi_offset 14, -4
 4415 0008 2DED028B 		vpush.64	{d8}
 4416              	.LCFI79:
 4417              		.cfi_def_cfa_offset 44
 4418              		.cfi_offset 80, -44
 4419              		.cfi_offset 81, -40
 4420 000c 8DB0     		sub	sp, sp, #52
 4421              	.LCFI80:
 4422              		.cfi_def_cfa_offset 96
 4423 000e 0646     		mov	r6, r0
 827:Dsp/widget/wgt_core/UI_Controller.c **** 
 4424              		.loc 1 827 5 is_stmt 1 view .LVU1266
 4425 0010 0023     		movs	r3, #0
 4426 0012 0793     		str	r3, [sp, #28]
 4427 0014 0893     		str	r3, [sp, #32]
 4428 0016 0993     		str	r3, [sp, #36]
 4429 0018 0A93     		str	r3, [sp, #40]
 4430 001a 0B93     		str	r3, [sp, #44]
 829:Dsp/widget/wgt_core/UI_Controller.c ****     sprintf(dsp_str, "On Process : %d%%", (uint8_t)(Pcnt_Val * 100));
 4431              		.loc 1 829 5 view .LVU1267
 829:Dsp/widget/wgt_core/UI_Controller.c ****     sprintf(dsp_str, "On Process : %d%%", (uint8_t)(Pcnt_Val * 100));
 4432              		.loc 1 829 20 is_stmt 0 view .LVU1268
 4433 001c C369     		ldr	r3, [r0, #28]	@ unaligned
 4434 001e 07EE103A 		vmov	s14, r3	@ int
 829:Dsp/widget/wgt_core/UI_Controller.c ****     sprintf(dsp_str, "On Process : %d%%", (uint8_t)(Pcnt_Val * 100));
 4435              		.loc 1 829 30 view .LVU1269
 4436 0022 B8EEC77A 		vcvt.f32.s32	s14, s14
 829:Dsp/widget/wgt_core/UI_Controller.c ****     sprintf(dsp_str, "On Process : %d%%", (uint8_t)(Pcnt_Val * 100));
 4437              		.loc 1 829 42 view .LVU1270
 4438 0026 8369     		ldr	r3, [r0, #24]	@ unaligned
 4439 0028 07EE903A 		vmov	s15, r3	@ int
 829:Dsp/widget/wgt_core/UI_Controller.c ****     sprintf(dsp_str, "On Process : %d%%", (uint8_t)(Pcnt_Val * 100));
 4440              		.loc 1 829 32 view .LVU1271
 4441 002c F8EEE77A 		vcvt.f32.s32	s15, s15
 829:Dsp/widget/wgt_core/UI_Controller.c ****     sprintf(dsp_str, "On Process : %d%%", (uint8_t)(Pcnt_Val * 100));
 4442              		.loc 1 829 14 view .LVU1272
 4443 0030 87EE278A 		vdiv.f32	s16, s14, s15
 4444              	.LVL394:
 830:Dsp/widget/wgt_core/UI_Controller.c **** 
 4445              		.loc 1 830 5 is_stmt 1 view .LVU1273
 830:Dsp/widget/wgt_core/UI_Controller.c **** 
 4446              		.loc 1 830 62 is_stmt 0 view .LVU1274
 4447 0034 DFED307A 		vldr.32	s15, .L358
 4448 0038 68EE277A 		vmul.f32	s15, s16, s15
ARM GAS  /var/folders/lx/hc4sn_b53233_zkc9xbbl97r0000gp/T//cc4iWlrc.s 			page 110


 830:Dsp/widget/wgt_core/UI_Controller.c **** 
 4449              		.loc 1 830 43 view .LVU1275
 4450 003c FCEEE77A 		vcvt.u32.f32	s15, s15
 4451 0040 CDED057A 		vstr.32	s15, [sp, #20]	@ int
 830:Dsp/widget/wgt_core/UI_Controller.c **** 
 4452              		.loc 1 830 5 view .LVU1276
 4453 0044 9DF81420 		ldrb	r2, [sp, #20]	@ zero_extendqisi2
 4454 0048 2C49     		ldr	r1, .L358+4
 4455 004a 07A8     		add	r0, sp, #28
 4456              	.LVL395:
 830:Dsp/widget/wgt_core/UI_Controller.c **** 
 4457              		.loc 1 830 5 view .LVU1277
 4458 004c FFF7FEFF 		bl	sprintf
 4459              	.LVL396:
 832:Dsp/widget/wgt_core/UI_Controller.c ****     Str_CoordY = Obj->Gen_Data.y - base_font - 2;
 4460              		.loc 1 832 5 is_stmt 1 view .LVU1278
 832:Dsp/widget/wgt_core/UI_Controller.c ****     Str_CoordY = Obj->Gen_Data.y - base_font - 2;
 4461              		.loc 1 832 31 is_stmt 0 view .LVU1279
 4462 0050 B6F904B0 		ldrsh	fp, [r6, #4]	@ unaligned
 4463 0054 0FFA8BFA 		sxth	r10, fp
 4464 0058 1FFA8BFB 		uxth	fp, fp
 832:Dsp/widget/wgt_core/UI_Controller.c ****     Str_CoordY = Obj->Gen_Data.y - base_font - 2;
 4465              		.loc 1 832 40 view .LVU1280
 4466 005c 96F82090 		ldrb	r9, [r6, #32]	@ zero_extendqisi2
 832:Dsp/widget/wgt_core/UI_Controller.c ****     Str_CoordY = Obj->Gen_Data.y - base_font - 2;
 4467              		.loc 1 832 51 view .LVU1281
 4468 0060 07A8     		add	r0, sp, #28
 4469 0062 FFF7FEFF 		bl	strlen
 4470              	.LVL397:
 832:Dsp/widget/wgt_core/UI_Controller.c ****     Str_CoordY = Obj->Gen_Data.y - base_font - 2;
 4471              		.loc 1 832 67 view .LVU1282
 4472 0066 00EB4000 		add	r0, r0, r0, lsl #1
 832:Dsp/widget/wgt_core/UI_Controller.c ****     Str_CoordY = Obj->Gen_Data.y - base_font - 2;
 4473              		.loc 1 832 48 view .LVU1283
 4474 006a A9EB4000 		sub	r0, r9, r0, lsl #1
 832:Dsp/widget/wgt_core/UI_Controller.c ****     Str_CoordY = Obj->Gen_Data.y - base_font - 2;
 4475              		.loc 1 832 34 view .LVU1284
 4476 006e 0BEB500B 		add	fp, fp, r0, lsr #1
 832:Dsp/widget/wgt_core/UI_Controller.c ****     Str_CoordY = Obj->Gen_Data.y - base_font - 2;
 4477              		.loc 1 832 16 view .LVU1285
 4478 0072 0FFA8BFB 		sxth	fp, fp
 4479              	.LVL398:
 833:Dsp/widget/wgt_core/UI_Controller.c **** 
 4480              		.loc 1 833 5 is_stmt 1 view .LVU1286
 833:Dsp/widget/wgt_core/UI_Controller.c **** 
 4481              		.loc 1 833 31 is_stmt 0 view .LVU1287
 4482 0076 B6F90610 		ldrsh	r1, [r6, #6]	@ unaligned
 4483 007a 8CB2     		uxth	r4, r1
 833:Dsp/widget/wgt_core/UI_Controller.c **** 
 4484              		.loc 1 833 34 view .LVU1288
 4485 007c DFF88480 		ldr	r8, .L358+12
 4486 0080 98F80030 		ldrb	r3, [r8]	@ zero_extendqisi2
 4487 0084 E41A     		subs	r4, r4, r3
 4488 0086 A4B2     		uxth	r4, r4
 833:Dsp/widget/wgt_core/UI_Controller.c **** 
 4489              		.loc 1 833 46 view .LVU1289
 4490 0088 023C     		subs	r4, r4, #2
ARM GAS  /var/folders/lx/hc4sn_b53233_zkc9xbbl97r0000gp/T//cc4iWlrc.s 			page 111


 833:Dsp/widget/wgt_core/UI_Controller.c **** 
 4491              		.loc 1 833 16 view .LVU1290
 4492 008a 23B2     		sxth	r3, r4
 4493 008c 0593     		str	r3, [sp, #20]
 4494              	.LVL399:
 836:Dsp/widget/wgt_core/UI_Controller.c ****     UI_DspInterface.draw_str(base_font, dsp_str, Str_CoordX, Str_CoordY, true);
 4495              		.loc 1 836 5 is_stmt 1 view .LVU1291
 836:Dsp/widget/wgt_core/UI_Controller.c ****     UI_DspInterface.draw_str(base_font, dsp_str, Str_CoordX, Str_CoordY, true);
 4496              		.loc 1 836 20 is_stmt 0 view .LVU1292
 4497 008e 1C4F     		ldr	r7, .L358+8
 836:Dsp/widget/wgt_core/UI_Controller.c ****     UI_DspInterface.draw_str(base_font, dsp_str, Str_CoordX, Str_CoordY, true);
 4498              		.loc 1 836 5 view .LVU1293
 4499 0090 0125     		movs	r5, #1
 4500 0092 0295     		str	r5, [sp, #8]
 4501 0094 0195     		str	r5, [sp, #4]
 4502 0096 0223     		movs	r3, #2
 4503 0098 0093     		str	r3, [sp]
 4504 009a 0523     		movs	r3, #5
 4505 009c 4A46     		mov	r2, r9
 4506 009e 09B2     		sxth	r1, r1
 4507 00a0 5046     		mov	r0, r10
 4508 00a2 7C69     		ldr	r4, [r7, #20]
 4509 00a4 A047     		blx	r4
 4510              	.LVL400:
 837:Dsp/widget/wgt_core/UI_Controller.c ****     UI_DspInterface.draw_line_h(Obj->Gen_Data.x + 2, Obj->Gen_Data.y + 2, Pcnt_Val * (Obj->width - 
 4511              		.loc 1 837 5 is_stmt 1 view .LVU1294
 4512 00a6 0095     		str	r5, [sp]
 4513 00a8 059B     		ldr	r3, [sp, #20]
 4514 00aa 5A46     		mov	r2, fp
 4515 00ac 07A9     		add	r1, sp, #28
 4516 00ae 98F80000 		ldrb	r0, [r8]	@ zero_extendqisi2
 4517 00b2 3C68     		ldr	r4, [r7]
 4518 00b4 A047     		blx	r4
 4519              	.LVL401:
 838:Dsp/widget/wgt_core/UI_Controller.c **** 
 4520              		.loc 1 838 5 view .LVU1295
 838:Dsp/widget/wgt_core/UI_Controller.c **** 
 4521              		.loc 1 838 20 is_stmt 0 view .LVU1296
 4522 00b6 FC68     		ldr	r4, [r7, #12]
 838:Dsp/widget/wgt_core/UI_Controller.c **** 
 4523              		.loc 1 838 46 view .LVU1297
 4524 00b8 B088     		ldrh	r0, [r6, #4]	@ unaligned
 838:Dsp/widget/wgt_core/UI_Controller.c **** 
 4525              		.loc 1 838 49 view .LVU1298
 4526 00ba 0230     		adds	r0, r0, #2
 838:Dsp/widget/wgt_core/UI_Controller.c **** 
 4527              		.loc 1 838 67 view .LVU1299
 4528 00bc F188     		ldrh	r1, [r6, #6]	@ unaligned
 838:Dsp/widget/wgt_core/UI_Controller.c **** 
 4529              		.loc 1 838 70 view .LVU1300
 4530 00be 0231     		adds	r1, r1, #2
 838:Dsp/widget/wgt_core/UI_Controller.c **** 
 4531              		.loc 1 838 90 view .LVU1301
 4532 00c0 96F82030 		ldrb	r3, [r6, #32]	@ zero_extendqisi2
 838:Dsp/widget/wgt_core/UI_Controller.c **** 
 4533              		.loc 1 838 98 view .LVU1302
 4534 00c4 063B     		subs	r3, r3, #6
ARM GAS  /var/folders/lx/hc4sn_b53233_zkc9xbbl97r0000gp/T//cc4iWlrc.s 			page 112


 4535 00c6 07EE903A 		vmov	s15, r3	@ int
 838:Dsp/widget/wgt_core/UI_Controller.c **** 
 4536              		.loc 1 838 84 view .LVU1303
 4537 00ca F8EEE77A 		vcvt.f32.s32	s15, s15
 4538 00ce 67EE887A 		vmul.f32	s15, s15, s16
 838:Dsp/widget/wgt_core/UI_Controller.c **** 
 4539              		.loc 1 838 5 view .LVU1304
 4540 00d2 FCEEE77A 		vcvt.u32.f32	s15, s15
 4541 00d6 CDED057A 		vstr.32	s15, [sp, #20]	@ int
 4542              	.LVL402:
 838:Dsp/widget/wgt_core/UI_Controller.c **** 
 4543              		.loc 1 838 5 view .LVU1305
 4544 00da 0095     		str	r5, [sp]
 4545 00dc 2B46     		mov	r3, r5
 4546 00de 9DF81420 		ldrb	r2, [sp, #20]	@ zero_extendqisi2
 4547 00e2 09B2     		sxth	r1, r1
 4548 00e4 00B2     		sxth	r0, r0
 4549 00e6 A047     		blx	r4
 4550              	.LVL403:
 840:Dsp/widget/wgt_core/UI_Controller.c **** }
 4551              		.loc 1 840 5 is_stmt 1 view .LVU1306
 840:Dsp/widget/wgt_core/UI_Controller.c **** }
 4552              		.loc 1 840 12 is_stmt 0 view .LVU1307
 4553 00e8 2846     		mov	r0, r5
 841:Dsp/widget/wgt_core/UI_Controller.c **** 
 4554              		.loc 1 841 1 view .LVU1308
 4555 00ea 0DB0     		add	sp, sp, #52
 4556              	.LCFI81:
 4557              		.cfi_def_cfa_offset 44
 4558              		@ sp needed
 4559 00ec BDEC028B 		vldm	sp!, {d8}
 4560              	.LCFI82:
 4561              		.cfi_restore 80
 4562              		.cfi_restore 81
 4563              		.cfi_def_cfa_offset 36
 4564              	.LVL404:
 841:Dsp/widget/wgt_core/UI_Controller.c **** 
 4565              		.loc 1 841 1 view .LVU1309
 4566 00f0 BDE8F08F 		pop	{r4, r5, r6, r7, r8, r9, r10, fp, pc}
 4567              	.LVL405:
 4568              	.L353:
 4569              	.LCFI83:
 4570              		.cfi_def_cfa_offset 0
 4571              		.cfi_restore 4
 4572              		.cfi_restore 5
 4573              		.cfi_restore 6
 4574              		.cfi_restore 7
 4575              		.cfi_restore 8
 4576              		.cfi_restore 9
 4577              		.cfi_restore 10
 4578              		.cfi_restore 11
 4579              		.cfi_restore 14
 825:Dsp/widget/wgt_core/UI_Controller.c **** 
 4580              		.loc 1 825 16 view .LVU1310
 4581 00f4 0020     		movs	r0, #0
 4582              	.LVL406:
 841:Dsp/widget/wgt_core/UI_Controller.c **** 
ARM GAS  /var/folders/lx/hc4sn_b53233_zkc9xbbl97r0000gp/T//cc4iWlrc.s 			page 113


 4583              		.loc 1 841 1 view .LVU1311
 4584 00f6 7047     		bx	lr
 4585              	.L359:
 4586              		.align	2
 4587              	.L358:
 4588 00f8 0000C842 		.word	1120403456
 4589 00fc 00000000 		.word	.LC2
 4590 0100 00000000 		.word	.LANCHOR0
 4591 0104 00000000 		.word	.LANCHOR2
 4592              		.cfi_endproc
 4593              	.LFE34:
 4595              		.section	.text.UI_ProcessBar_Ctl,"ax",%progbits
 4596              		.align	1
 4597              		.syntax unified
 4598              		.thumb
 4599              		.thumb_func
 4600              		.fpu fpv4-sp-d16
 4602              	UI_ProcessBar_Ctl:
 4603              	.LVL407:
 4604              	.LFB38:
 976:Dsp/widget/wgt_core/UI_Controller.c ****     char dig_str[3];
 4605              		.loc 1 976 1 is_stmt 1 view -0
 4606              		.cfi_startproc
 4607              		@ args = 0, pretend = 0, frame = 8
 4608              		@ frame_needed = 0, uses_anonymous_args = 0
 976:Dsp/widget/wgt_core/UI_Controller.c ****     char dig_str[3];
 4609              		.loc 1 976 1 is_stmt 0 view .LVU1313
 4610 0000 00B5     		push	{lr}
 4611              	.LCFI84:
 4612              		.cfi_def_cfa_offset 4
 4613              		.cfi_offset 14, -4
 4614 0002 83B0     		sub	sp, sp, #12
 4615              	.LCFI85:
 4616              		.cfi_def_cfa_offset 16
 977:Dsp/widget/wgt_core/UI_Controller.c ****     memset(dig_str, NULL, 3);
 4617              		.loc 1 977 5 is_stmt 1 view .LVU1314
 978:Dsp/widget/wgt_core/UI_Controller.c **** 
 4618              		.loc 1 978 5 view .LVU1315
 4619 0004 0023     		movs	r3, #0
 4620 0006 ADF80430 		strh	r3, [sp, #4]	@ movhi
 4621 000a 8DF80630 		strb	r3, [sp, #6]
 980:Dsp/widget/wgt_core/UI_Controller.c ****         (UI_DspInterface.draw_str == NULL))
 4622              		.loc 1 980 5 view .LVU1316
 980:Dsp/widget/wgt_core/UI_Controller.c ****         (UI_DspInterface.draw_str == NULL))
 4623              		.loc 1 980 25 is_stmt 0 view .LVU1317
 4624 000e 0F4B     		ldr	r3, .L369
 4625 0010 5B69     		ldr	r3, [r3, #20]
 980:Dsp/widget/wgt_core/UI_Controller.c ****         (UI_DspInterface.draw_str == NULL))
 4626              		.loc 1 980 8 view .LVU1318
 4627 0012 B3B1     		cbz	r3, .L364
 981:Dsp/widget/wgt_core/UI_Controller.c ****         return false;
 4628              		.loc 1 981 25 discriminator 1 view .LVU1319
 4629 0014 0D4B     		ldr	r3, .L369
 4630 0016 1B68     		ldr	r3, [r3]
 980:Dsp/widget/wgt_core/UI_Controller.c ****         (UI_DspInterface.draw_str == NULL))
 4631              		.loc 1 980 57 discriminator 1 view .LVU1320
 4632 0018 ABB1     		cbz	r3, .L365
ARM GAS  /var/folders/lx/hc4sn_b53233_zkc9xbbl97r0000gp/T//cc4iWlrc.s 			page 114


 984:Dsp/widget/wgt_core/UI_Controller.c ****     {
 4633              		.loc 1 984 5 is_stmt 1 view .LVU1321
 984:Dsp/widget/wgt_core/UI_Controller.c ****     {
 4634              		.loc 1 984 16 is_stmt 0 view .LVU1322
 4635 001a 90F82330 		ldrb	r3, [r0, #35]	@ zero_extendqisi2
 984:Dsp/widget/wgt_core/UI_Controller.c ****     {
 4636              		.loc 1 984 5 view .LVU1323
 4637 001e 012B     		cmp	r3, #1
 4638 0020 09D0     		beq	.L362
 4639 0022 022B     		cmp	r3, #2
 4640 0024 0AD0     		beq	.L363
 4641 0026 1BB1     		cbz	r3, .L368
 4642 0028 0020     		movs	r0, #0
 4643              	.LVL408:
 4644              	.L361:
 998:Dsp/widget/wgt_core/UI_Controller.c **** 
 4645              		.loc 1 998 1 view .LVU1324
 4646 002a 03B0     		add	sp, sp, #12
 4647              	.LCFI86:
 4648              		.cfi_remember_state
 4649              		.cfi_def_cfa_offset 4
 4650              		@ sp needed
 4651 002c 5DF804FB 		ldr	pc, [sp], #4
 4652              	.LVL409:
 4653              	.L368:
 4654              	.LCFI87:
 4655              		.cfi_restore_state
 987:Dsp/widget/wgt_core/UI_Controller.c **** 
 4656              		.loc 1 987 9 is_stmt 1 view .LVU1325
 987:Dsp/widget/wgt_core/UI_Controller.c **** 
 4657              		.loc 1 987 16 is_stmt 0 view .LVU1326
 4658 0030 FFF7FEFF 		bl	UI_ProcessBar_DspLoadBar
 4659              	.LVL410:
 987:Dsp/widget/wgt_core/UI_Controller.c **** 
 4660              		.loc 1 987 16 view .LVU1327
 4661 0034 F9E7     		b	.L361
 4662              	.LVL411:
 4663              	.L362:
 990:Dsp/widget/wgt_core/UI_Controller.c **** 
 4664              		.loc 1 990 9 is_stmt 1 view .LVU1328
 990:Dsp/widget/wgt_core/UI_Controller.c **** 
 4665              		.loc 1 990 16 is_stmt 0 view .LVU1329
 4666 0036 FFF7FEFF 		bl	UI_ProcessBar_DspDotBar
 4667              	.LVL412:
 990:Dsp/widget/wgt_core/UI_Controller.c **** 
 4668              		.loc 1 990 16 view .LVU1330
 4669 003a F6E7     		b	.L361
 4670              	.LVL413:
 4671              	.L363:
 993:Dsp/widget/wgt_core/UI_Controller.c **** 
 4672              		.loc 1 993 9 is_stmt 1 view .LVU1331
 993:Dsp/widget/wgt_core/UI_Controller.c **** 
 4673              		.loc 1 993 16 is_stmt 0 view .LVU1332
 4674 003c FFF7FEFF 		bl	UI_ProcessBar_DspFrameBar
 4675              	.LVL414:
 993:Dsp/widget/wgt_core/UI_Controller.c **** 
 4676              		.loc 1 993 16 view .LVU1333
ARM GAS  /var/folders/lx/hc4sn_b53233_zkc9xbbl97r0000gp/T//cc4iWlrc.s 			page 115


 4677 0040 F3E7     		b	.L361
 4678              	.LVL415:
 4679              	.L364:
 982:Dsp/widget/wgt_core/UI_Controller.c **** 
 4680              		.loc 1 982 16 view .LVU1334
 4681 0042 0020     		movs	r0, #0
 4682              	.LVL416:
 982:Dsp/widget/wgt_core/UI_Controller.c **** 
 4683              		.loc 1 982 16 view .LVU1335
 4684 0044 F1E7     		b	.L361
 4685              	.LVL417:
 4686              	.L365:
 982:Dsp/widget/wgt_core/UI_Controller.c **** 
 4687              		.loc 1 982 16 view .LVU1336
 4688 0046 0020     		movs	r0, #0
 4689              	.LVL418:
 982:Dsp/widget/wgt_core/UI_Controller.c **** 
 4690              		.loc 1 982 16 view .LVU1337
 4691 0048 EFE7     		b	.L361
 4692              	.L370:
 4693 004a 00BF     		.align	2
 4694              	.L369:
 4695 004c 00000000 		.word	.LANCHOR0
 4696              		.cfi_endproc
 4697              	.LFE38:
 4699              		.section	.text.UI_Drop_CreateDropItem,"ax",%progbits
 4700              		.align	1
 4701              		.syntax unified
 4702              		.thumb
 4703              		.thumb_func
 4704              		.fpu fpv4-sp-d16
 4706              	UI_Drop_CreateDropItem:
 4707              	.LVL419:
 4708              	.LFB41:
1024:Dsp/widget/wgt_core/UI_Controller.c ****     item_obj *item_tmp = NULL;
 4709              		.loc 1 1024 1 is_stmt 1 view -0
 4710              		.cfi_startproc
 4711              		@ args = 4, pretend = 0, frame = 0
 4712              		@ frame_needed = 0, uses_anonymous_args = 0
1024:Dsp/widget/wgt_core/UI_Controller.c ****     item_obj *item_tmp = NULL;
 4713              		.loc 1 1024 1 is_stmt 0 view .LVU1339
 4714 0000 2DE9F843 		push	{r3, r4, r5, r6, r7, r8, r9, lr}
 4715              	.LCFI88:
 4716              		.cfi_def_cfa_offset 32
 4717              		.cfi_offset 3, -32
 4718              		.cfi_offset 4, -28
 4719              		.cfi_offset 5, -24
 4720              		.cfi_offset 6, -20
 4721              		.cfi_offset 7, -16
 4722              		.cfi_offset 8, -12
 4723              		.cfi_offset 9, -8
 4724              		.cfi_offset 14, -4
 4725 0004 0646     		mov	r6, r0
 4726 0006 0F46     		mov	r7, r1
 4727 0008 9046     		mov	r8, r2
 4728 000a 9946     		mov	r9, r3
1025:Dsp/widget/wgt_core/UI_Controller.c ****     UI_DropItemDataObj_TypeDef *itemdata_tmp = NULL;
ARM GAS  /var/folders/lx/hc4sn_b53233_zkc9xbbl97r0000gp/T//cc4iWlrc.s 			page 116


 4729              		.loc 1 1025 5 is_stmt 1 view .LVU1340
 4730              	.LVL420:
1026:Dsp/widget/wgt_core/UI_Controller.c **** 
 4731              		.loc 1 1026 5 view .LVU1341
1028:Dsp/widget/wgt_core/UI_Controller.c ****     item_tmp = (item_obj *)MMU_malloc(sizeof(item_obj));
 4732              		.loc 1 1028 5 view .LVU1342
1028:Dsp/widget/wgt_core/UI_Controller.c ****     item_tmp = (item_obj *)MMU_malloc(sizeof(item_obj));
 4733              		.loc 1 1028 50 is_stmt 0 view .LVU1343
 4734 000c 0F20     		movs	r0, #15
 4735              	.LVL421:
1028:Dsp/widget/wgt_core/UI_Controller.c ****     item_tmp = (item_obj *)MMU_malloc(sizeof(item_obj));
 4736              		.loc 1 1028 50 view .LVU1344
 4737 000e FFF7FEFF 		bl	MMU_malloc
 4738              	.LVL422:
1028:Dsp/widget/wgt_core/UI_Controller.c ****     item_tmp = (item_obj *)MMU_malloc(sizeof(item_obj));
 4739              		.loc 1 1028 50 view .LVU1345
 4740 0012 0446     		mov	r4, r0
 4741              	.LVL423:
1029:Dsp/widget/wgt_core/UI_Controller.c **** 
 4742              		.loc 1 1029 5 is_stmt 1 view .LVU1346
1029:Dsp/widget/wgt_core/UI_Controller.c **** 
 4743              		.loc 1 1029 28 is_stmt 0 view .LVU1347
 4744 0014 1420     		movs	r0, #20
 4745              	.LVL424:
1029:Dsp/widget/wgt_core/UI_Controller.c **** 
 4746              		.loc 1 1029 28 view .LVU1348
 4747 0016 FFF7FEFF 		bl	MMU_malloc
 4748              	.LVL425:
1031:Dsp/widget/wgt_core/UI_Controller.c ****         return NULL;
 4749              		.loc 1 1031 5 is_stmt 1 view .LVU1349
1031:Dsp/widget/wgt_core/UI_Controller.c ****         return NULL;
 4750              		.loc 1 1031 8 is_stmt 0 view .LVU1350
 4751 001a 88B1     		cbz	r0, .L373
 4752 001c 0546     		mov	r5, r0
1031:Dsp/widget/wgt_core/UI_Controller.c ****         return NULL;
 4753              		.loc 1 1031 28 discriminator 1 view .LVU1351
 4754 001e 8CB1     		cbz	r4, .L374
1034:Dsp/widget/wgt_core/UI_Controller.c ****     itemdata_tmp->data = data;
 4755              		.loc 1 1034 5 is_stmt 1 view .LVU1352
1034:Dsp/widget/wgt_core/UI_Controller.c ****     itemdata_tmp->data = data;
 4756              		.loc 1 1034 28 is_stmt 0 view .LVU1353
 4757 0020 089B     		ldr	r3, [sp, #32]
 4758 0022 C4F80B30 		str	r3, [r4, #11]	@ unaligned
1035:Dsp/widget/wgt_core/UI_Controller.c ****     itemdata_tmp->describe = item_desc;
 4759              		.loc 1 1035 5 is_stmt 1 view .LVU1354
1035:Dsp/widget/wgt_core/UI_Controller.c ****     itemdata_tmp->describe = item_desc;
 4760              		.loc 1 1035 24 is_stmt 0 view .LVU1355
 4761 0026 C4F80580 		str	r8, [r4, #5]	@ unaligned
1036:Dsp/widget/wgt_core/UI_Controller.c ****     itemdata_tmp->id = id;
 4762              		.loc 1 1036 5 is_stmt 1 view .LVU1356
1036:Dsp/widget/wgt_core/UI_Controller.c ****     itemdata_tmp->id = id;
 4763              		.loc 1 1036 28 is_stmt 0 view .LVU1357
 4764 002a C4F80170 		str	r7, [r4, #1]	@ unaligned
1037:Dsp/widget/wgt_core/UI_Controller.c ****     itemdata_tmp->data_size = data_size;
 4765              		.loc 1 1037 5 is_stmt 1 view .LVU1358
1037:Dsp/widget/wgt_core/UI_Controller.c ****     itemdata_tmp->data_size = data_size;
 4766              		.loc 1 1037 22 is_stmt 0 view .LVU1359
ARM GAS  /var/folders/lx/hc4sn_b53233_zkc9xbbl97r0000gp/T//cc4iWlrc.s 			page 117


 4767 002e 2670     		strb	r6, [r4]
1038:Dsp/widget/wgt_core/UI_Controller.c **** 
 4768              		.loc 1 1038 5 is_stmt 1 view .LVU1360
1038:Dsp/widget/wgt_core/UI_Controller.c **** 
 4769              		.loc 1 1038 29 is_stmt 0 view .LVU1361
 4770 0030 A4F80990 		strh	r9, [r4, #9]	@ unaligned
1040:Dsp/widget/wgt_core/UI_Controller.c **** 
 4771              		.loc 1 1040 5 is_stmt 1 view .LVU1362
 4772 0034 2146     		mov	r1, r4
 4773 0036 FFF7FEFF 		bl	List_ItemInit
 4774              	.LVL426:
1042:Dsp/widget/wgt_core/UI_Controller.c **** }
 4775              		.loc 1 1042 5 view .LVU1363
 4776              	.L371:
1043:Dsp/widget/wgt_core/UI_Controller.c **** 
 4777              		.loc 1 1043 1 is_stmt 0 view .LVU1364
 4778 003a 2846     		mov	r0, r5
 4779 003c BDE8F883 		pop	{r3, r4, r5, r6, r7, r8, r9, pc}
 4780              	.LVL427:
 4781              	.L373:
1032:Dsp/widget/wgt_core/UI_Controller.c **** 
 4782              		.loc 1 1032 16 view .LVU1365
 4783 0040 0025     		movs	r5, #0
 4784 0042 FAE7     		b	.L371
 4785              	.L374:
1032:Dsp/widget/wgt_core/UI_Controller.c **** 
 4786              		.loc 1 1032 16 view .LVU1366
 4787 0044 0025     		movs	r5, #0
 4788 0046 F8E7     		b	.L371
 4789              		.cfi_endproc
 4790              	.LFE41:
 4792              		.section	.text.UI_Drop_AddDropItem,"ax",%progbits
 4793              		.align	1
 4794              		.syntax unified
 4795              		.thumb
 4796              		.thumb_func
 4797              		.fpu fpv4-sp-d16
 4799              	UI_Drop_AddDropItem:
 4800              	.LVL428:
 4801              	.LFB42:
1046:Dsp/widget/wgt_core/UI_Controller.c ****     item_obj *item_temp = NULL;
 4802              		.loc 1 1046 1 is_stmt 1 view -0
 4803              		.cfi_startproc
 4804              		@ args = 4, pretend = 0, frame = 0
 4805              		@ frame_needed = 0, uses_anonymous_args = 0
1047:Dsp/widget/wgt_core/UI_Controller.c **** 
 4806              		.loc 1 1047 5 view .LVU1368
1049:Dsp/widget/wgt_core/UI_Controller.c ****         return false;
 4807              		.loc 1 1049 5 view .LVU1369
1049:Dsp/widget/wgt_core/UI_Controller.c ****         return false;
 4808              		.loc 1 1049 8 is_stmt 0 view .LVU1370
 4809 0000 F0B1     		cbz	r0, .L380
1046:Dsp/widget/wgt_core/UI_Controller.c ****     item_obj *item_temp = NULL;
 4810              		.loc 1 1046 1 view .LVU1371
 4811 0002 10B5     		push	{r4, lr}
 4812              	.LCFI89:
 4813              		.cfi_def_cfa_offset 8
ARM GAS  /var/folders/lx/hc4sn_b53233_zkc9xbbl97r0000gp/T//cc4iWlrc.s 			page 118


 4814              		.cfi_offset 4, -8
 4815              		.cfi_offset 14, -4
 4816 0004 82B0     		sub	sp, sp, #8
 4817              	.LCFI90:
 4818              		.cfi_def_cfa_offset 16
 4819 0006 0446     		mov	r4, r0
1052:Dsp/widget/wgt_core/UI_Controller.c **** 
 4820              		.loc 1 1052 5 is_stmt 1 view .LVU1372
1052:Dsp/widget/wgt_core/UI_Controller.c **** 
 4821              		.loc 1 1052 17 is_stmt 0 view .LVU1373
 4822 0008 0498     		ldr	r0, [sp, #16]
 4823              	.LVL429:
1052:Dsp/widget/wgt_core/UI_Controller.c **** 
 4824              		.loc 1 1052 17 view .LVU1374
 4825 000a 0090     		str	r0, [sp]
 4826 000c 207B     		ldrb	r0, [r4, #12]	@ zero_extendqisi2
 4827 000e FFF7FEFF 		bl	UI_Drop_CreateDropItem
 4828              	.LVL430:
1054:Dsp/widget/wgt_core/UI_Controller.c ****         return false;
 4829              		.loc 1 1054 5 is_stmt 1 view .LVU1375
1054:Dsp/widget/wgt_core/UI_Controller.c ****         return false;
 4830              		.loc 1 1054 8 is_stmt 0 view .LVU1376
 4831 0012 0146     		mov	r1, r0
 4832 0014 B0B1     		cbz	r0, .L381
1057:Dsp/widget/wgt_core/UI_Controller.c ****     {
 4833              		.loc 1 1057 5 is_stmt 1 view .LVU1377
1057:Dsp/widget/wgt_core/UI_Controller.c ****     {
 4834              		.loc 1 1057 12 is_stmt 0 view .LVU1378
 4835 0016 D4F80D00 		ldr	r0, [r4, #13]	@ unaligned
 4836              	.LVL431:
1057:Dsp/widget/wgt_core/UI_Controller.c ****     {
 4837              		.loc 1 1057 8 view .LVU1379
 4838 001a 38B1     		cbz	r0, .L386
1064:Dsp/widget/wgt_core/UI_Controller.c **** 
 4839              		.loc 1 1064 9 is_stmt 1 view .LVU1380
 4840 001c FFF7FEFF 		bl	List_Insert_Item
 4841              	.LVL432:
 4842              	.L379:
1066:Dsp/widget/wgt_core/UI_Controller.c **** 
 4843              		.loc 1 1066 5 view .LVU1381
1066:Dsp/widget/wgt_core/UI_Controller.c **** 
 4844              		.loc 1 1066 8 is_stmt 0 view .LVU1382
 4845 0020 237B     		ldrb	r3, [r4, #12]	@ zero_extendqisi2
1066:Dsp/widget/wgt_core/UI_Controller.c **** 
 4846              		.loc 1 1066 18 view .LVU1383
 4847 0022 0133     		adds	r3, r3, #1
 4848 0024 2373     		strb	r3, [r4, #12]
1068:Dsp/widget/wgt_core/UI_Controller.c **** }
 4849              		.loc 1 1068 5 is_stmt 1 view .LVU1384
1068:Dsp/widget/wgt_core/UI_Controller.c **** }
 4850              		.loc 1 1068 12 is_stmt 0 view .LVU1385
 4851 0026 0120     		movs	r0, #1
 4852              	.L377:
1069:Dsp/widget/wgt_core/UI_Controller.c **** 
 4853              		.loc 1 1069 1 view .LVU1386
 4854 0028 02B0     		add	sp, sp, #8
 4855              	.LCFI91:
ARM GAS  /var/folders/lx/hc4sn_b53233_zkc9xbbl97r0000gp/T//cc4iWlrc.s 			page 119


 4856              		.cfi_remember_state
 4857              		.cfi_def_cfa_offset 8
 4858              		@ sp needed
 4859 002a 10BD     		pop	{r4, pc}
 4860              	.LVL433:
 4861              	.L386:
 4862              	.LCFI92:
 4863              		.cfi_restore_state
1059:Dsp/widget/wgt_core/UI_Controller.c ****         Obj->CurDrop_Item = Obj->DropList;
 4864              		.loc 1 1059 9 is_stmt 1 view .LVU1387
1059:Dsp/widget/wgt_core/UI_Controller.c ****         Obj->CurDrop_Item = Obj->DropList;
 4865              		.loc 1 1059 23 is_stmt 0 view .LVU1388
 4866 002c C4F80D10 		str	r1, [r4, #13]	@ unaligned
1060:Dsp/widget/wgt_core/UI_Controller.c ****         List_Init(Obj->DropList, item_temp, by_order, NULL);
 4867              		.loc 1 1060 9 is_stmt 1 view .LVU1389
1060:Dsp/widget/wgt_core/UI_Controller.c ****         List_Init(Obj->DropList, item_temp, by_order, NULL);
 4868              		.loc 1 1060 27 is_stmt 0 view .LVU1390
 4869 0030 C4F81110 		str	r1, [r4, #17]	@ unaligned
1061:Dsp/widget/wgt_core/UI_Controller.c ****     }
 4870              		.loc 1 1061 9 is_stmt 1 view .LVU1391
 4871 0034 0023     		movs	r3, #0
 4872 0036 0122     		movs	r2, #1
 4873 0038 0846     		mov	r0, r1
 4874 003a FFF7FEFF 		bl	List_Init
 4875              	.LVL434:
1061:Dsp/widget/wgt_core/UI_Controller.c ****     }
 4876              		.loc 1 1061 9 is_stmt 0 view .LVU1392
 4877 003e EFE7     		b	.L379
 4878              	.LVL435:
 4879              	.L380:
 4880              	.LCFI93:
 4881              		.cfi_def_cfa_offset 0
 4882              		.cfi_restore 4
 4883              		.cfi_restore 14
1050:Dsp/widget/wgt_core/UI_Controller.c **** 
 4884              		.loc 1 1050 16 view .LVU1393
 4885 0040 0020     		movs	r0, #0
 4886              	.LVL436:
1069:Dsp/widget/wgt_core/UI_Controller.c **** 
 4887              		.loc 1 1069 1 view .LVU1394
 4888 0042 7047     		bx	lr
 4889              	.LVL437:
 4890              	.L381:
 4891              	.LCFI94:
 4892              		.cfi_def_cfa_offset 16
 4893              		.cfi_offset 4, -8
 4894              		.cfi_offset 14, -4
1055:Dsp/widget/wgt_core/UI_Controller.c **** 
 4895              		.loc 1 1055 16 view .LVU1395
 4896 0044 0020     		movs	r0, #0
 4897              	.LVL438:
1055:Dsp/widget/wgt_core/UI_Controller.c **** 
 4898              		.loc 1 1055 16 view .LVU1396
 4899 0046 EFE7     		b	.L377
 4900              		.cfi_endproc
 4901              	.LFE42:
 4903              		.section	.text.UI_Set_FontType,"ax",%progbits
ARM GAS  /var/folders/lx/hc4sn_b53233_zkc9xbbl97r0000gp/T//cc4iWlrc.s 			page 120


 4904              		.align	1
 4905              		.global	UI_Set_FontType
 4906              		.syntax unified
 4907              		.thumb
 4908              		.thumb_func
 4909              		.fpu fpv4-sp-d16
 4911              	UI_Set_FontType:
 4912              	.LVL439:
 4913              	.LFB3:
 142:Dsp/widget/wgt_core/UI_Controller.c ****     if (font < Font_8 || font > Font_16)
 4914              		.loc 1 142 1 is_stmt 1 view -0
 4915              		.cfi_startproc
 4916              		@ args = 0, pretend = 0, frame = 0
 4917              		@ frame_needed = 0, uses_anonymous_args = 0
 4918              		@ link register save eliminated.
 143:Dsp/widget/wgt_core/UI_Controller.c ****         return false;
 4919              		.loc 1 143 5 view .LVU1398
 143:Dsp/widget/wgt_core/UI_Controller.c ****         return false;
 4920              		.loc 1 143 23 is_stmt 0 view .LVU1399
 4921 0000 A0F10803 		sub	r3, r0, #8
 4922 0004 DBB2     		uxtb	r3, r3
 143:Dsp/widget/wgt_core/UI_Controller.c ****         return false;
 4923              		.loc 1 143 8 view .LVU1400
 4924 0006 082B     		cmp	r3, #8
 4925 0008 03D8     		bhi	.L389
 146:Dsp/widget/wgt_core/UI_Controller.c **** 
 4926              		.loc 1 146 5 is_stmt 1 view .LVU1401
 146:Dsp/widget/wgt_core/UI_Controller.c **** 
 4927              		.loc 1 146 15 is_stmt 0 view .LVU1402
 4928 000a 034B     		ldr	r3, .L390
 4929 000c 1870     		strb	r0, [r3]
 148:Dsp/widget/wgt_core/UI_Controller.c **** }
 4930              		.loc 1 148 5 is_stmt 1 view .LVU1403
 148:Dsp/widget/wgt_core/UI_Controller.c **** }
 4931              		.loc 1 148 12 is_stmt 0 view .LVU1404
 4932 000e 0120     		movs	r0, #1
 4933              	.LVL440:
 148:Dsp/widget/wgt_core/UI_Controller.c **** }
 4934              		.loc 1 148 12 view .LVU1405
 4935 0010 7047     		bx	lr
 4936              	.LVL441:
 4937              	.L389:
 144:Dsp/widget/wgt_core/UI_Controller.c **** 
 4938              		.loc 1 144 16 view .LVU1406
 4939 0012 0020     		movs	r0, #0
 4940              	.LVL442:
 149:Dsp/widget/wgt_core/UI_Controller.c **** 
 4941              		.loc 1 149 1 view .LVU1407
 4942 0014 7047     		bx	lr
 4943              	.L391:
 4944 0016 00BF     		.align	2
 4945              	.L390:
 4946 0018 00000000 		.word	.LANCHOR2
 4947              		.cfi_endproc
 4948              	.LFE3:
 4950              		.section	.text.UI_Set_DspInterface,"ax",%progbits
 4951              		.align	1
ARM GAS  /var/folders/lx/hc4sn_b53233_zkc9xbbl97r0000gp/T//cc4iWlrc.s 			page 121


 4952              		.global	UI_Set_DspInterface
 4953              		.syntax unified
 4954              		.thumb
 4955              		.thumb_func
 4956              		.fpu fpv4-sp-d16
 4958              	UI_Set_DspInterface:
 4959              	.LVL443:
 4960              	.LFB4:
 164:Dsp/widget/wgt_core/UI_Controller.c ****     UI_DspInterface.draw_circle = circle;
 4961              		.loc 1 164 1 is_stmt 1 view -0
 4962              		.cfi_startproc
 4963              		@ args = 36, pretend = 0, frame = 0
 4964              		@ frame_needed = 0, uses_anonymous_args = 0
 4965              		@ link register save eliminated.
 164:Dsp/widget/wgt_core/UI_Controller.c ****     UI_DspInterface.draw_circle = circle;
 4966              		.loc 1 164 1 is_stmt 0 view .LVU1409
 4967 0000 30B4     		push	{r4, r5}
 4968              	.LCFI95:
 4969              		.cfi_def_cfa_offset 8
 4970              		.cfi_offset 4, -8
 4971              		.cfi_offset 5, -4
 165:Dsp/widget/wgt_core/UI_Controller.c ****     UI_DspInterface.draw_circle_section = circle_section;
 4972              		.loc 1 165 5 is_stmt 1 view .LVU1410
 165:Dsp/widget/wgt_core/UI_Controller.c ****     UI_DspInterface.draw_circle_section = circle_section;
 4973              		.loc 1 165 33 is_stmt 0 view .LVU1411
 4974 0002 0C4C     		ldr	r4, .L394
 4975 0004 039D     		ldr	r5, [sp, #12]
 4976 0006 E561     		str	r5, [r4, #28]
 166:Dsp/widget/wgt_core/UI_Controller.c ****     UI_DspInterface.draw_line_h = line_h;
 4977              		.loc 1 166 5 is_stmt 1 view .LVU1412
 166:Dsp/widget/wgt_core/UI_Controller.c ****     UI_DspInterface.draw_line_h = line_h;
 4978              		.loc 1 166 41 is_stmt 0 view .LVU1413
 4979 0008 049D     		ldr	r5, [sp, #16]
 4980 000a 2562     		str	r5, [r4, #32]
 167:Dsp/widget/wgt_core/UI_Controller.c ****     UI_DspInterface.draw_line_v = line_v;
 4981              		.loc 1 167 5 is_stmt 1 view .LVU1414
 167:Dsp/widget/wgt_core/UI_Controller.c ****     UI_DspInterface.draw_line_v = line_v;
 4982              		.loc 1 167 33 is_stmt 0 view .LVU1415
 4983 000c E160     		str	r1, [r4, #12]
 168:Dsp/widget/wgt_core/UI_Controller.c ****     UI_DspInterface.draw_point = point;
 4984              		.loc 1 168 5 is_stmt 1 view .LVU1416
 168:Dsp/widget/wgt_core/UI_Controller.c ****     UI_DspInterface.draw_point = point;
 4985              		.loc 1 168 33 is_stmt 0 view .LVU1417
 4986 000e 2261     		str	r2, [r4, #16]
 169:Dsp/widget/wgt_core/UI_Controller.c ****     UI_DspInterface.draw_rectangle = rectangle;
 4987              		.loc 1 169 5 is_stmt 1 view .LVU1418
 169:Dsp/widget/wgt_core/UI_Controller.c ****     UI_DspInterface.draw_rectangle = rectangle;
 4988              		.loc 1 169 32 is_stmt 0 view .LVU1419
 4989 0010 A060     		str	r0, [r4, #8]
 170:Dsp/widget/wgt_core/UI_Controller.c ****     UI_DspInterface.draw_radius_rectangle = radius_rectangle;
 4990              		.loc 1 170 5 is_stmt 1 view .LVU1420
 170:Dsp/widget/wgt_core/UI_Controller.c ****     UI_DspInterface.draw_radius_rectangle = radius_rectangle;
 4991              		.loc 1 170 36 is_stmt 0 view .LVU1421
 4992 0012 A361     		str	r3, [r4, #24]
 171:Dsp/widget/wgt_core/UI_Controller.c ****     UI_DspInterface.draw_str = str;
 4993              		.loc 1 171 5 is_stmt 1 view .LVU1422
 171:Dsp/widget/wgt_core/UI_Controller.c ****     UI_DspInterface.draw_str = str;
ARM GAS  /var/folders/lx/hc4sn_b53233_zkc9xbbl97r0000gp/T//cc4iWlrc.s 			page 122


 4994              		.loc 1 171 43 is_stmt 0 view .LVU1423
 4995 0014 029B     		ldr	r3, [sp, #8]
 4996              	.LVL444:
 171:Dsp/widget/wgt_core/UI_Controller.c ****     UI_DspInterface.draw_str = str;
 4997              		.loc 1 171 43 view .LVU1424
 4998 0016 6361     		str	r3, [r4, #20]
 172:Dsp/widget/wgt_core/UI_Controller.c ****     UI_DspInterface.draw_dig = dig;
 4999              		.loc 1 172 5 is_stmt 1 view .LVU1425
 172:Dsp/widget/wgt_core/UI_Controller.c ****     UI_DspInterface.draw_dig = dig;
 5000              		.loc 1 172 30 is_stmt 0 view .LVU1426
 5001 0018 059B     		ldr	r3, [sp, #20]
 5002 001a 2360     		str	r3, [r4]
 173:Dsp/widget/wgt_core/UI_Controller.c **** 
 5003              		.loc 1 173 5 is_stmt 1 view .LVU1427
 173:Dsp/widget/wgt_core/UI_Controller.c **** 
 5004              		.loc 1 173 30 is_stmt 0 view .LVU1428
 5005 001c 069B     		ldr	r3, [sp, #24]
 5006 001e 6360     		str	r3, [r4, #4]
 175:Dsp/widget/wgt_core/UI_Controller.c ****     UI_DspInterface.fill_circle_section = fillcircle_section;
 5007              		.loc 1 175 5 is_stmt 1 view .LVU1429
 175:Dsp/widget/wgt_core/UI_Controller.c ****     UI_DspInterface.fill_circle_section = fillcircle_section;
 5008              		.loc 1 175 33 is_stmt 0 view .LVU1430
 5009 0020 079B     		ldr	r3, [sp, #28]
 5010 0022 A362     		str	r3, [r4, #40]
 176:Dsp/widget/wgt_core/UI_Controller.c ****     UI_DspInterface.fill_radius_rectangle = fill_radius_rectangle;
 5011              		.loc 1 176 5 is_stmt 1 view .LVU1431
 176:Dsp/widget/wgt_core/UI_Controller.c ****     UI_DspInterface.fill_radius_rectangle = fill_radius_rectangle;
 5012              		.loc 1 176 41 is_stmt 0 view .LVU1432
 5013 0024 089B     		ldr	r3, [sp, #32]
 5014 0026 E362     		str	r3, [r4, #44]
 177:Dsp/widget/wgt_core/UI_Controller.c ****     UI_DspInterface.fill_rectangle = fill_rectangle;
 5015              		.loc 1 177 5 is_stmt 1 view .LVU1433
 177:Dsp/widget/wgt_core/UI_Controller.c ****     UI_DspInterface.fill_rectangle = fill_rectangle;
 5016              		.loc 1 177 43 is_stmt 0 view .LVU1434
 5017 0028 0A9B     		ldr	r3, [sp, #40]
 5018 002a 2363     		str	r3, [r4, #48]
 178:Dsp/widget/wgt_core/UI_Controller.c **** }
 5019              		.loc 1 178 5 is_stmt 1 view .LVU1435
 178:Dsp/widget/wgt_core/UI_Controller.c **** }
 5020              		.loc 1 178 36 is_stmt 0 view .LVU1436
 5021 002c 099B     		ldr	r3, [sp, #36]
 5022 002e 6362     		str	r3, [r4, #36]
 179:Dsp/widget/wgt_core/UI_Controller.c **** 
 5023              		.loc 1 179 1 view .LVU1437
 5024 0030 30BC     		pop	{r4, r5}
 5025              	.LCFI96:
 5026              		.cfi_restore 5
 5027              		.cfi_restore 4
 5028              		.cfi_def_cfa_offset 0
 5029              	.LVL445:
 179:Dsp/widget/wgt_core/UI_Controller.c **** 
 5030              		.loc 1 179 1 view .LVU1438
 5031 0032 7047     		bx	lr
 5032              	.L395:
 5033              		.align	2
 5034              	.L394:
 5035 0034 00000000 		.word	.LANCHOR0
ARM GAS  /var/folders/lx/hc4sn_b53233_zkc9xbbl97r0000gp/T//cc4iWlrc.s 			page 123


 5036              		.cfi_endproc
 5037              	.LFE4:
 5039              		.section	.text.UI_Set_GetWidgetWidthMathod,"ax",%progbits
 5040              		.align	1
 5041              		.global	UI_Set_GetWidgetWidthMathod
 5042              		.syntax unified
 5043              		.thumb
 5044              		.thumb_func
 5045              		.fpu fpv4-sp-d16
 5047              	UI_Set_GetWidgetWidthMathod:
 5048              	.LVL446:
 5049              	.LFB5:
 182:Dsp/widget/wgt_core/UI_Controller.c ****     UI_Get_WidgetWidth = mathod;
 5050              		.loc 1 182 1 is_stmt 1 view -0
 5051              		.cfi_startproc
 5052              		@ args = 0, pretend = 0, frame = 0
 5053              		@ frame_needed = 0, uses_anonymous_args = 0
 5054              		@ link register save eliminated.
 183:Dsp/widget/wgt_core/UI_Controller.c **** }
 5055              		.loc 1 183 5 view .LVU1440
 183:Dsp/widget/wgt_core/UI_Controller.c **** }
 5056              		.loc 1 183 24 is_stmt 0 view .LVU1441
 5057 0000 014B     		ldr	r3, .L397
 5058 0002 1860     		str	r0, [r3]
 184:Dsp/widget/wgt_core/UI_Controller.c **** 
 5059              		.loc 1 184 1 view .LVU1442
 5060 0004 7047     		bx	lr
 5061              	.L398:
 5062 0006 00BF     		.align	2
 5063              	.L397:
 5064 0008 00000000 		.word	.LANCHOR1
 5065              		.cfi_endproc
 5066              	.LFE5:
 5068              		.section	.text.UI_ShowSelector,"ax",%progbits
 5069              		.align	1
 5070              		.global	UI_ShowSelector
 5071              		.syntax unified
 5072              		.thumb
 5073              		.thumb_func
 5074              		.fpu fpv4-sp-d16
 5076              	UI_ShowSelector:
 5077              	.LVL447:
 5078              	.LFB7:
 211:Dsp/widget/wgt_core/UI_Controller.c ****     /* button selector coordinate */
 5079              		.loc 1 211 1 is_stmt 1 view -0
 5080              		.cfi_startproc
 5081              		@ args = 0, pretend = 0, frame = 0
 5082              		@ frame_needed = 0, uses_anonymous_args = 0
 211:Dsp/widget/wgt_core/UI_Controller.c ****     /* button selector coordinate */
 5083              		.loc 1 211 1 is_stmt 0 view .LVU1444
 5084 0000 2DE9F047 		push	{r4, r5, r6, r7, r8, r9, r10, lr}
 5085              	.LCFI97:
 5086              		.cfi_def_cfa_offset 32
 5087              		.cfi_offset 4, -32
 5088              		.cfi_offset 5, -28
 5089              		.cfi_offset 6, -24
 5090              		.cfi_offset 7, -20
ARM GAS  /var/folders/lx/hc4sn_b53233_zkc9xbbl97r0000gp/T//cc4iWlrc.s 			page 124


 5091              		.cfi_offset 8, -16
 5092              		.cfi_offset 9, -12
 5093              		.cfi_offset 10, -8
 5094              		.cfi_offset 14, -4
 5095 0004 82B0     		sub	sp, sp, #8
 5096              	.LCFI98:
 5097              		.cfi_def_cfa_offset 40
 5098 0006 0446     		mov	r4, r0
 213:Dsp/widget/wgt_core/UI_Controller.c ****     int16_t Btn_Slct_LftUp_Y = 0;
 5099              		.loc 1 213 5 is_stmt 1 view .LVU1445
 5100              	.LVL448:
 214:Dsp/widget/wgt_core/UI_Controller.c ****     int16_t Btn_Slct_LftDwn_X = 0;
 5101              		.loc 1 214 5 view .LVU1446
 215:Dsp/widget/wgt_core/UI_Controller.c ****     int16_t Btn_Slct_LftDwn_Y = 0;
 5102              		.loc 1 215 5 view .LVU1447
 216:Dsp/widget/wgt_core/UI_Controller.c ****     int16_t Btn_Slct_RgtUp_X = 0;
 5103              		.loc 1 216 5 view .LVU1448
 217:Dsp/widget/wgt_core/UI_Controller.c ****     int16_t Btn_Slct_RgtUp_Y = 0;
 5104              		.loc 1 217 5 view .LVU1449
 218:Dsp/widget/wgt_core/UI_Controller.c ****     int16_t Btn_Slct_RgtDwn_X = 0;
 5105              		.loc 1 218 5 view .LVU1450
 219:Dsp/widget/wgt_core/UI_Controller.c ****     int16_t Btn_Slct_RgtDwn_Y = 0;
 5106              		.loc 1 219 5 view .LVU1451
 220:Dsp/widget/wgt_core/UI_Controller.c **** 
 5107              		.loc 1 220 5 view .LVU1452
 223:Dsp/widget/wgt_core/UI_Controller.c ****     int16_t block_y;
 5108              		.loc 1 223 5 view .LVU1453
 224:Dsp/widget/wgt_core/UI_Controller.c **** 
 5109              		.loc 1 224 5 view .LVU1454
 226:Dsp/widget/wgt_core/UI_Controller.c ****     uint8_t selector_height = 0;
 5110              		.loc 1 226 5 view .LVU1455
 227:Dsp/widget/wgt_core/UI_Controller.c **** 
 5111              		.loc 1 227 5 view .LVU1456
 229:Dsp/widget/wgt_core/UI_Controller.c ****     {
 5112              		.loc 1 229 5 view .LVU1457
 229:Dsp/widget/wgt_core/UI_Controller.c ****     {
 5113              		.loc 1 229 28 is_stmt 0 view .LVU1458
 5114 0008 544B     		ldr	r3, .L420
 5115 000a 1B68     		ldr	r3, [r3]
 229:Dsp/widget/wgt_core/UI_Controller.c ****     {
 5116              		.loc 1 229 8 view .LVU1459
 5117 000c A3B1     		cbz	r3, .L409
 231:Dsp/widget/wgt_core/UI_Controller.c **** 
 5118              		.loc 1 231 9 is_stmt 1 view .LVU1460
 231:Dsp/widget/wgt_core/UI_Controller.c **** 
 5119              		.loc 1 231 24 is_stmt 0 view .LVU1461
 5120 000e 9847     		blx	r3
 5121              	.LVL449:
 233:Dsp/widget/wgt_core/UI_Controller.c ****             return false;
 5122              		.loc 1 233 9 is_stmt 1 view .LVU1462
 233:Dsp/widget/wgt_core/UI_Controller.c ****             return false;
 5123              		.loc 1 233 12 is_stmt 0 view .LVU1463
 5124 0010 0546     		mov	r5, r0
 5125 0012 0028     		cmp	r0, #0
 5126 0014 00F09980 		beq	.L418
 5127              	.LVL450:
 5128              	.L400:
ARM GAS  /var/folders/lx/hc4sn_b53233_zkc9xbbl97r0000gp/T//cc4iWlrc.s 			page 125


 237:Dsp/widget/wgt_core/UI_Controller.c ****         return false;
 5129              		.loc 1 237 5 is_stmt 1 view .LVU1464
 237:Dsp/widget/wgt_core/UI_Controller.c ****         return false;
 5130              		.loc 1 237 8 is_stmt 0 view .LVU1465
 5131 0018 002C     		cmp	r4, #0
 5132 001a 00F09880 		beq	.L411
 240:Dsp/widget/wgt_core/UI_Controller.c ****     {
 5133              		.loc 1 240 5 is_stmt 1 view .LVU1466
 5134 001e 504B     		ldr	r3, .L420+4
 5135 0020 1B78     		ldrb	r3, [r3]	@ zero_extendqisi2
 5136 0022 0C2B     		cmp	r3, #12
 5137 0024 13D0     		beq	.L412
 5138 0026 102B     		cmp	r3, #16
 5139 0028 13D0     		beq	.L413
 5140 002a 082B     		cmp	r3, #8
 5141 002c 06D0     		beq	.L419
 5142 002e 0024     		movs	r4, #0
 5143              	.LVL451:
 5144              	.L401:
 324:Dsp/widget/wgt_core/UI_Controller.c **** 
 5145              		.loc 1 324 1 is_stmt 0 view .LVU1467
 5146 0030 2046     		mov	r0, r4
 5147 0032 02B0     		add	sp, sp, #8
 5148              	.LCFI99:
 5149              		.cfi_remember_state
 5150              		.cfi_def_cfa_offset 32
 5151              		@ sp needed
 5152 0034 BDE8F087 		pop	{r4, r5, r6, r7, r8, r9, r10, pc}
 5153              	.LVL452:
 5154              	.L409:
 5155              	.LCFI100:
 5156              		.cfi_restore_state
 226:Dsp/widget/wgt_core/UI_Controller.c ****     uint8_t selector_height = 0;
 5157              		.loc 1 226 13 view .LVU1468
 5158 0038 8025     		movs	r5, #128
 5159 003a EDE7     		b	.L400
 5160              	.LVL453:
 5161              	.L419:
 240:Dsp/widget/wgt_core/UI_Controller.c ****     {
 5162              		.loc 1 240 5 view .LVU1469
 5163 003c 0A26     		movs	r6, #10
 5164              	.L402:
 5165              	.LVL454:
 255:Dsp/widget/wgt_core/UI_Controller.c ****     {
 5166              		.loc 1 255 5 is_stmt 1 view .LVU1470
 255:Dsp/widget/wgt_core/UI_Controller.c ****     {
 5167              		.loc 1 255 27 is_stmt 0 view .LVU1471
 5168 003e 2378     		ldrb	r3, [r4]	@ zero_extendqisi2
 5169 0040 042B     		cmp	r3, #4
 5170 0042 08D8     		bhi	.L403
 5171 0044 DFE803F0 		tbb	[pc, r3]
 5172              	.L404:
 5173 0048 09       		.byte	(.L407-.L404)/2
 5174 0049 45       		.byte	(.L406-.L404)/2
 5175 004a 55       		.byte	(.L405-.L404)/2
 5176 004b 07       		.byte	(.L403-.L404)/2
 5177 004c 85       		.byte	(.L415-.L404)/2
ARM GAS  /var/folders/lx/hc4sn_b53233_zkc9xbbl97r0000gp/T//cc4iWlrc.s 			page 126


 5178              	.LVL455:
 5179 004d 00       		.p2align 1
 5180              	.L412:
 248:Dsp/widget/wgt_core/UI_Controller.c ****         break;
 5181              		.loc 1 248 25 view .LVU1472
 5182 004e 0B26     		movs	r6, #11
 5183 0050 F5E7     		b	.L402
 5184              	.L413:
 5185 0052 0B26     		movs	r6, #11
 5186 0054 F3E7     		b	.L402
 5187              	.LVL456:
 5188              	.L403:
 255:Dsp/widget/wgt_core/UI_Controller.c ****     {
 5189              		.loc 1 255 27 view .LVU1473
 5190 0056 0024     		movs	r4, #0
 5191              	.LVL457:
 255:Dsp/widget/wgt_core/UI_Controller.c ****     {
 5192              		.loc 1 255 27 view .LVU1474
 5193 0058 EAE7     		b	.L401
 5194              	.LVL458:
 5195              	.L407:
 259:Dsp/widget/wgt_core/UI_Controller.c ****             return false;
 5196              		.loc 1 259 9 is_stmt 1 view .LVU1475
 259:Dsp/widget/wgt_core/UI_Controller.c ****             return false;
 5197              		.loc 1 259 28 is_stmt 0 view .LVU1476
 5198 005a 424B     		ldr	r3, .L420+8
 5199 005c DB6A     		ldr	r3, [r3, #44]
 259:Dsp/widget/wgt_core/UI_Controller.c ****             return false;
 5200              		.loc 1 259 12 view .LVU1477
 5201 005e 002B     		cmp	r3, #0
 5202 0060 79D0     		beq	.L416
 263:Dsp/widget/wgt_core/UI_Controller.c ****         Btn_Slct_LftUp_Y = HandleToButtonObj(item->Handler)->Gen_Data.y + HandleToButtonObj(item->H
 5203              		.loc 1 263 9 is_stmt 1 view .LVU1478
 263:Dsp/widget/wgt_core/UI_Controller.c ****         Btn_Slct_LftUp_Y = HandleToButtonObj(item->Handler)->Gen_Data.y + HandleToButtonObj(item->H
 5204              		.loc 1 263 28 is_stmt 0 view .LVU1479
 5205 0062 6268     		ldr	r2, [r4, #4]
 263:Dsp/widget/wgt_core/UI_Controller.c ****         Btn_Slct_LftUp_Y = HandleToButtonObj(item->Handler)->Gen_Data.y + HandleToButtonObj(item->H
 5206              		.loc 1 263 26 view .LVU1480
 5207 0064 B2F90460 		ldrsh	r6, [r2, #4]	@ unaligned
 5208              	.LVL459:
 263:Dsp/widget/wgt_core/UI_Controller.c ****         Btn_Slct_LftUp_Y = HandleToButtonObj(item->Handler)->Gen_Data.y + HandleToButtonObj(item->H
 5209              		.loc 1 263 26 view .LVU1481
 5210 0068 0FFA86F9 		sxth	r9, r6
 5211              	.LVL460:
 264:Dsp/widget/wgt_core/UI_Controller.c **** 
 5212              		.loc 1 264 9 is_stmt 1 view .LVU1482
 264:Dsp/widget/wgt_core/UI_Controller.c **** 
 5213              		.loc 1 264 70 is_stmt 0 view .LVU1483
 5214 006c B2F90630 		ldrsh	r3, [r2, #6]	@ unaligned
 5215 0070 0FFA83F8 		sxth	r8, r3
 264:Dsp/widget/wgt_core/UI_Controller.c **** 
 5216              		.loc 1 264 107 view .LVU1484
 5217 0074 92F82050 		ldrb	r5, [r2, #32]	@ zero_extendqisi2
 5218              	.LVL461:
 264:Dsp/widget/wgt_core/UI_Controller.c **** 
 5219              		.loc 1 264 73 view .LVU1485
 5220 0078 15FA83F5 		uxtah	r5, r5, r3
ARM GAS  /var/folders/lx/hc4sn_b53233_zkc9xbbl97r0000gp/T//cc4iWlrc.s 			page 127


 5221 007c ADB2     		uxth	r5, r5
 264:Dsp/widget/wgt_core/UI_Controller.c **** 
 5222              		.loc 1 264 116 view .LVU1486
 5223 007e 013D     		subs	r5, r5, #1
 264:Dsp/widget/wgt_core/UI_Controller.c **** 
 5224              		.loc 1 264 26 view .LVU1487
 5225 0080 0FFA85FA 		sxth	r10, r5
 5226              	.LVL462:
 266:Dsp/widget/wgt_core/UI_Controller.c ****         Btn_Slct_LftDwn_Y = HandleToButtonObj(item->Handler)->Gen_Data.y;
 5227              		.loc 1 266 9 is_stmt 1 view .LVU1488
 267:Dsp/widget/wgt_core/UI_Controller.c **** 
 5228              		.loc 1 267 9 view .LVU1489
 269:Dsp/widget/wgt_core/UI_Controller.c ****         Btn_Slct_RgtUp_Y = Btn_Slct_LftUp_Y;
 5229              		.loc 1 269 9 view .LVU1490
 269:Dsp/widget/wgt_core/UI_Controller.c ****         Btn_Slct_RgtUp_Y = Btn_Slct_LftUp_Y;
 5230              		.loc 1 269 107 is_stmt 0 view .LVU1491
 5231 0084 D37F     		ldrb	r3, [r2, #31]	@ zero_extendqisi2
 5232              	.LVL463:
 269:Dsp/widget/wgt_core/UI_Controller.c ****         Btn_Slct_RgtUp_Y = Btn_Slct_LftUp_Y;
 5233              		.loc 1 269 73 view .LVU1492
 5234 0086 13FA86F6 		uxtah	r6, r3, r6
 5235              	.LVL464:
 269:Dsp/widget/wgt_core/UI_Controller.c ****         Btn_Slct_RgtUp_Y = Btn_Slct_LftUp_Y;
 5236              		.loc 1 269 26 view .LVU1493
 5237 008a 36B2     		sxth	r6, r6
 5238              	.LVL465:
 270:Dsp/widget/wgt_core/UI_Controller.c **** 
 5239              		.loc 1 270 9 is_stmt 1 view .LVU1494
 272:Dsp/widget/wgt_core/UI_Controller.c ****         Btn_Slct_RgtDwn_Y = Btn_Slct_LftDwn_Y;
 5240              		.loc 1 272 9 view .LVU1495
 273:Dsp/widget/wgt_core/UI_Controller.c **** 
 5241              		.loc 1 273 9 view .LVU1496
 276:Dsp/widget/wgt_core/UI_Controller.c ****         UI_DspInterface.draw_circle_section(Btn_Slct_LftDwn_X, Btn_Slct_LftDwn_Y, BUTTON_SELECTOR_R
 5242              		.loc 1 276 9 view .LVU1497
 276:Dsp/widget/wgt_core/UI_Controller.c ****         UI_DspInterface.draw_circle_section(Btn_Slct_LftDwn_X, Btn_Slct_LftDwn_Y, BUTTON_SELECTOR_R
 5243              		.loc 1 276 24 is_stmt 0 view .LVU1498
 5244 008c 354F     		ldr	r7, .L420+8
 276:Dsp/widget/wgt_core/UI_Controller.c ****         UI_DspInterface.draw_circle_section(Btn_Slct_LftDwn_X, Btn_Slct_LftDwn_Y, BUTTON_SELECTOR_R
 5245              		.loc 1 276 9 view .LVU1499
 5246 008e 0124     		movs	r4, #1
 5247              	.LVL466:
 276:Dsp/widget/wgt_core/UI_Controller.c ****         UI_DspInterface.draw_circle_section(Btn_Slct_LftDwn_X, Btn_Slct_LftDwn_Y, BUTTON_SELECTOR_R
 5248              		.loc 1 276 9 view .LVU1500
 5249 0090 0194     		str	r4, [sp, #4]
 5250 0092 0094     		str	r4, [sp]
 5251 0094 0423     		movs	r3, #4
 5252 0096 0222     		movs	r2, #2
 5253 0098 5146     		mov	r1, r10
 5254 009a 4846     		mov	r0, r9
 5255 009c 3D6A     		ldr	r5, [r7, #32]
 5256 009e A847     		blx	r5
 5257              	.LVL467:
 277:Dsp/widget/wgt_core/UI_Controller.c ****         UI_DspInterface.draw_circle_section(Btn_Slct_RgtUp_X, Btn_Slct_RgtUp_Y, BUTTON_SELECTOR_RAD
 5258              		.loc 1 277 9 is_stmt 1 view .LVU1501
 5259 00a0 0194     		str	r4, [sp, #4]
 5260 00a2 0094     		str	r4, [sp]
 5261 00a4 0223     		movs	r3, #2
ARM GAS  /var/folders/lx/hc4sn_b53233_zkc9xbbl97r0000gp/T//cc4iWlrc.s 			page 128


 5262 00a6 1A46     		mov	r2, r3
 5263 00a8 4146     		mov	r1, r8
 5264 00aa 4846     		mov	r0, r9
 5265 00ac 3D6A     		ldr	r5, [r7, #32]
 5266 00ae A847     		blx	r5
 5267              	.LVL468:
 278:Dsp/widget/wgt_core/UI_Controller.c ****         UI_DspInterface.draw_circle_section(Btn_Slct_RgtDwn_X, Btn_Slct_RgtDwn_Y, BUTTON_SELECTOR_R
 5268              		.loc 1 278 9 view .LVU1502
 5269 00b0 0194     		str	r4, [sp, #4]
 5270 00b2 0094     		str	r4, [sp]
 5271 00b4 0823     		movs	r3, #8
 5272 00b6 0222     		movs	r2, #2
 5273 00b8 5146     		mov	r1, r10
 5274 00ba 3046     		mov	r0, r6
 5275 00bc 3D6A     		ldr	r5, [r7, #32]
 5276 00be A847     		blx	r5
 5277              	.LVL469:
 279:Dsp/widget/wgt_core/UI_Controller.c ****         break;
 5278              		.loc 1 279 9 view .LVU1503
 279:Dsp/widget/wgt_core/UI_Controller.c ****         break;
 5279              		.loc 1 279 24 is_stmt 0 view .LVU1504
 5280 00c0 3D6A     		ldr	r5, [r7, #32]
 279:Dsp/widget/wgt_core/UI_Controller.c ****         break;
 5281              		.loc 1 279 9 view .LVU1505
 5282 00c2 0194     		str	r4, [sp, #4]
 5283 00c4 0094     		str	r4, [sp]
 5284 00c6 2346     		mov	r3, r4
 5285 00c8 0222     		movs	r2, #2
 5286 00ca 4146     		mov	r1, r8
 5287 00cc 3046     		mov	r0, r6
 5288 00ce A847     		blx	r5
 5289              	.LVL470:
 280:Dsp/widget/wgt_core/UI_Controller.c **** 
 5290              		.loc 1 280 9 is_stmt 1 view .LVU1506
 5291 00d0 AEE7     		b	.L401
 5292              	.LVL471:
 5293              	.L406:
 283:Dsp/widget/wgt_core/UI_Controller.c ****         block_y = HandleToCheckBoxObj(item->Handler)->Gen_Data.y + 1;
 5294              		.loc 1 283 9 view .LVU1507
 283:Dsp/widget/wgt_core/UI_Controller.c ****         block_y = HandleToCheckBoxObj(item->Handler)->Gen_Data.y + 1;
 5295              		.loc 1 283 19 is_stmt 0 view .LVU1508
 5296 00d2 6368     		ldr	r3, [r4, #4]
 283:Dsp/widget/wgt_core/UI_Controller.c ****         block_y = HandleToCheckBoxObj(item->Handler)->Gen_Data.y + 1;
 5297              		.loc 1 283 63 view .LVU1509
 5298 00d4 9888     		ldrh	r0, [r3, #4]	@ unaligned
 283:Dsp/widget/wgt_core/UI_Controller.c ****         block_y = HandleToCheckBoxObj(item->Handler)->Gen_Data.y + 1;
 5299              		.loc 1 283 66 view .LVU1510
 5300 00d6 0330     		adds	r0, r0, #3
 5301              	.LVL472:
 284:Dsp/widget/wgt_core/UI_Controller.c **** 
 5302              		.loc 1 284 9 is_stmt 1 view .LVU1511
 284:Dsp/widget/wgt_core/UI_Controller.c **** 
 5303              		.loc 1 284 63 is_stmt 0 view .LVU1512
 5304 00d8 D988     		ldrh	r1, [r3, #6]	@ unaligned
 284:Dsp/widget/wgt_core/UI_Controller.c **** 
 5305              		.loc 1 284 66 view .LVU1513
 5306 00da 0131     		adds	r1, r1, #1
ARM GAS  /var/folders/lx/hc4sn_b53233_zkc9xbbl97r0000gp/T//cc4iWlrc.s 			page 129


 5307              	.LVL473:
 286:Dsp/widget/wgt_core/UI_Controller.c ****         break;
 5308              		.loc 1 286 9 is_stmt 1 view .LVU1514
 286:Dsp/widget/wgt_core/UI_Controller.c ****         break;
 5309              		.loc 1 286 24 is_stmt 0 view .LVU1515
 5310 00dc 214B     		ldr	r3, .L420+8
 5311 00de 5F6A     		ldr	r7, [r3, #36]
 286:Dsp/widget/wgt_core/UI_Controller.c ****         break;
 5312              		.loc 1 286 9 view .LVU1516
 5313 00e0 AA1F     		subs	r2, r5, #6
 5314 00e2 0124     		movs	r4, #1
 5315              	.LVL474:
 286:Dsp/widget/wgt_core/UI_Controller.c ****         break;
 5316              		.loc 1 286 9 view .LVU1517
 5317 00e4 0094     		str	r4, [sp]
 5318 00e6 3346     		mov	r3, r6
 5319 00e8 D2B2     		uxtb	r2, r2
 5320 00ea 09B2     		sxth	r1, r1
 286:Dsp/widget/wgt_core/UI_Controller.c ****         break;
 5321              		.loc 1 286 9 view .LVU1518
 5322 00ec 00B2     		sxth	r0, r0
 286:Dsp/widget/wgt_core/UI_Controller.c ****         break;
 5323              		.loc 1 286 9 view .LVU1519
 5324 00ee B847     		blx	r7
 5325              	.LVL475:
 287:Dsp/widget/wgt_core/UI_Controller.c **** 
 5326              		.loc 1 287 9 is_stmt 1 view .LVU1520
 5327 00f0 9EE7     		b	.L401
 5328              	.LVL476:
 5329              	.L405:
 290:Dsp/widget/wgt_core/UI_Controller.c **** 
 5330              		.loc 1 290 9 view .LVU1521
 290:Dsp/widget/wgt_core/UI_Controller.c **** 
 5331              		.loc 1 290 19 is_stmt 0 view .LVU1522
 5332 00f2 D4F80480 		ldr	r8, [r4, #4]
 290:Dsp/widget/wgt_core/UI_Controller.c **** 
 5333              		.loc 1 290 63 view .LVU1523
 5334 00f6 B8F80610 		ldrh	r1, [r8, #6]	@ unaligned
 290:Dsp/widget/wgt_core/UI_Controller.c **** 
 5335              		.loc 1 290 66 view .LVU1524
 5336 00fa 0131     		adds	r1, r1, #1
 290:Dsp/widget/wgt_core/UI_Controller.c **** 
 5337              		.loc 1 290 17 view .LVU1525
 5338 00fc 0FB2     		sxth	r7, r1
 5339              	.LVL477:
 292:Dsp/widget/wgt_core/UI_Controller.c ****         {
 5340              		.loc 1 292 9 is_stmt 1 view .LVU1526
 292:Dsp/widget/wgt_core/UI_Controller.c ****         {
 5341              		.loc 1 292 14 is_stmt 0 view .LVU1527
 5342 00fe 4046     		mov	r0, r8
 5343 0100 FFF7FEFF 		bl	UI_SlideBar_IsSelected
 5344              	.LVL478:
 292:Dsp/widget/wgt_core/UI_Controller.c ****         {
 5345              		.loc 1 292 12 view .LVU1528
 5346 0104 0446     		mov	r4, r0
 5347              	.LVL479:
 292:Dsp/widget/wgt_core/UI_Controller.c ****         {
ARM GAS  /var/folders/lx/hc4sn_b53233_zkc9xbbl97r0000gp/T//cc4iWlrc.s 			page 130


 5348              		.loc 1 292 12 view .LVU1529
 5349 0106 70B9     		cbnz	r0, .L408
 294:Dsp/widget/wgt_core/UI_Controller.c **** 
 5350              		.loc 1 294 13 is_stmt 1 view .LVU1530
 294:Dsp/widget/wgt_core/UI_Controller.c **** 
 5351              		.loc 1 294 67 is_stmt 0 view .LVU1531
 5352 0108 B8F80400 		ldrh	r0, [r8, #4]	@ unaligned
 294:Dsp/widget/wgt_core/UI_Controller.c **** 
 5353              		.loc 1 294 70 view .LVU1532
 5354 010c 0330     		adds	r0, r0, #3
 5355              	.LVL480:
 296:Dsp/widget/wgt_core/UI_Controller.c ****         }
 5356              		.loc 1 296 13 is_stmt 1 view .LVU1533
 296:Dsp/widget/wgt_core/UI_Controller.c ****         }
 5357              		.loc 1 296 28 is_stmt 0 view .LVU1534
 5358 010e 154B     		ldr	r3, .L420+8
 5359 0110 D3F82480 		ldr	r8, [r3, #36]
 296:Dsp/widget/wgt_core/UI_Controller.c ****         }
 5360              		.loc 1 296 13 view .LVU1535
 5361 0114 AA1F     		subs	r2, r5, #6
 5362 0116 0124     		movs	r4, #1
 5363 0118 0094     		str	r4, [sp]
 5364 011a 3346     		mov	r3, r6
 5365 011c D2B2     		uxtb	r2, r2
 5366 011e 3946     		mov	r1, r7
 5367 0120 00B2     		sxth	r0, r0
 296:Dsp/widget/wgt_core/UI_Controller.c ****         }
 5368              		.loc 1 296 13 view .LVU1536
 5369 0122 C047     		blx	r8
 5370              	.LVL481:
 296:Dsp/widget/wgt_core/UI_Controller.c ****         }
 5371              		.loc 1 296 13 view .LVU1537
 5372 0124 84E7     		b	.L401
 5373              	.L408:
 300:Dsp/widget/wgt_core/UI_Controller.c **** 
 5374              		.loc 1 300 13 is_stmt 1 view .LVU1538
 300:Dsp/widget/wgt_core/UI_Controller.c **** 
 5375              		.loc 1 300 57 is_stmt 0 view .LVU1539
 5376 0126 B8F82400 		ldrh	r0, [r8, #36]	@ unaligned
 300:Dsp/widget/wgt_core/UI_Controller.c **** 
 5377              		.loc 1 300 70 view .LVU1540
 5378 012a 0338     		subs	r0, r0, #3
 5379 012c 82B2     		uxth	r2, r0
 5380              	.LVL482:
 302:Dsp/widget/wgt_core/UI_Controller.c ****         }
 5381              		.loc 1 302 13 is_stmt 1 view .LVU1541
 302:Dsp/widget/wgt_core/UI_Controller.c ****         }
 5382              		.loc 1 302 28 is_stmt 0 view .LVU1542
 5383 012e 0D4B     		ldr	r3, .L420+8
 5384 0130 D3F82480 		ldr	r8, [r3, #36]
 302:Dsp/widget/wgt_core/UI_Controller.c ****         }
 5385              		.loc 1 302 76 view .LVU1543
 5386 0134 AA1A     		subs	r2, r5, r2
 5387 0136 D2B2     		uxtb	r2, r2
 302:Dsp/widget/wgt_core/UI_Controller.c ****         }
 5388              		.loc 1 302 13 view .LVU1544
 5389 0138 063A     		subs	r2, r2, #6
ARM GAS  /var/folders/lx/hc4sn_b53233_zkc9xbbl97r0000gp/T//cc4iWlrc.s 			page 131


 5390 013a 0123     		movs	r3, #1
 5391 013c 0093     		str	r3, [sp]
 5392 013e 3346     		mov	r3, r6
 5393 0140 D2B2     		uxtb	r2, r2
 5394 0142 3946     		mov	r1, r7
 5395 0144 00B2     		sxth	r0, r0
 302:Dsp/widget/wgt_core/UI_Controller.c ****         }
 5396              		.loc 1 302 13 view .LVU1545
 5397 0146 C047     		blx	r8
 5398              	.LVL483:
 302:Dsp/widget/wgt_core/UI_Controller.c ****         }
 5399              		.loc 1 302 13 view .LVU1546
 5400 0148 72E7     		b	.L401
 5401              	.LVL484:
 5402              	.L418:
 234:Dsp/widget/wgt_core/UI_Controller.c ****     }
 5403              		.loc 1 234 20 view .LVU1547
 5404 014a 0024     		movs	r4, #0
 5405              	.LVL485:
 234:Dsp/widget/wgt_core/UI_Controller.c ****     }
 5406              		.loc 1 234 20 view .LVU1548
 5407 014c 70E7     		b	.L401
 5408              	.LVL486:
 5409              	.L411:
 238:Dsp/widget/wgt_core/UI_Controller.c **** 
 5410              		.loc 1 238 16 view .LVU1549
 5411 014e 0024     		movs	r4, #0
 5412              	.LVL487:
 238:Dsp/widget/wgt_core/UI_Controller.c **** 
 5413              		.loc 1 238 16 view .LVU1550
 5414 0150 6EE7     		b	.L401
 5415              	.LVL488:
 5416              	.L415:
 323:Dsp/widget/wgt_core/UI_Controller.c **** }
 5417              		.loc 1 323 12 view .LVU1551
 5418 0152 0124     		movs	r4, #1
 5419              	.LVL489:
 323:Dsp/widget/wgt_core/UI_Controller.c **** }
 5420              		.loc 1 323 12 view .LVU1552
 5421 0154 6CE7     		b	.L401
 5422              	.LVL490:
 5423              	.L416:
 260:Dsp/widget/wgt_core/UI_Controller.c **** 
 5424              		.loc 1 260 20 view .LVU1553
 5425 0156 0024     		movs	r4, #0
 5426              	.LVL491:
 260:Dsp/widget/wgt_core/UI_Controller.c **** 
 5427              		.loc 1 260 20 view .LVU1554
 5428 0158 6AE7     		b	.L401
 5429              	.L421:
 5430 015a 00BF     		.align	2
 5431              	.L420:
 5432 015c 00000000 		.word	.LANCHOR1
 5433 0160 00000000 		.word	.LANCHOR2
 5434 0164 00000000 		.word	.LANCHOR0
 5435              		.cfi_endproc
 5436              	.LFE7:
ARM GAS  /var/folders/lx/hc4sn_b53233_zkc9xbbl97r0000gp/T//cc4iWlrc.s 			page 132


 5438              		.global	UI_DigInput
 5439              		.global	UI_Drop
 5440              		.global	UI_ProcessBar
 5441              		.global	UI_SlideBar
 5442              		.global	UI_CheckBox
 5443              		.global	UI_Button
 5444              		.global	UI_Get_WidgetWidth
 5445              		.section	.bss.UI_DspInterface,"aw",%nobits
 5446              		.align	2
 5447              		.set	.LANCHOR0,. + 0
 5450              	UI_DspInterface:
 5451 0000 00000000 		.space	52
 5451      00000000 
 5451      00000000 
 5451      00000000 
 5451      00000000 
 5452              		.section	.bss.UI_Get_WidgetWidth,"aw",%nobits
 5453              		.align	2
 5454              		.set	.LANCHOR1,. + 0
 5457              	UI_Get_WidgetWidth:
 5458 0000 00000000 		.space	4
 5459              		.section	.data.UI_Button,"aw"
 5460              		.align	2
 5463              	UI_Button:
 5464 0000 00000000 		.word	UI_Button_Init
 5465 0004 00000000 		.word	UI_Button_Set_TriggerCallback
 5466 0008 00000000 		.word	UI_Button_Set_Label
 5467 000c 00000000 		.word	UI_Button_Push
 5468 0010 00000000 		.word	UI_Button_Release
 5469 0014 00000000 		.word	UI_Button_Ctl
 5470 0018 00000000 		.word	UI_Button_Move
 5471              		.section	.data.UI_CheckBox,"aw"
 5472              		.align	2
 5475              	UI_CheckBox:
 5476 0000 00000000 		.word	UI_CheckBox_Init
 5477 0004 00000000 		.word	UI_CheckBox_SetCallback
 5478 0008 00000000 		.word	UI_CheckBox_Move
 5479 000c 00000000 		.word	UI_CheckBox_Trigger
 5480 0010 00000000 		.word	UI_CheckBox_Ctl
 5481              		.section	.data.UI_DigInput,"aw"
 5482              		.align	2
 5485              	UI_DigInput:
 5486 0000 00000000 		.word	UI_DigInput_Init
 5487 0004 00000000 		.word	UI_DigInput_SetIntRange
 5488 0008 00000000 		.word	UI_DigInput_SetDouRange
 5489 000c 00000000 		.word	UI_DigInput_Move
 5490 0010 00000000 		.word	UI_DigInput_GetIntVal
 5491 0014 00000000 		.word	UI_DigInput_GetDoubleVal
 5492 0018 00000000 		.word	UI_DigInput_SetSelectStatus
 5493 001c 00000000 		.word	0
 5494 0020 00000000 		.word	0
 5495              		.section	.data.UI_Drop,"aw"
 5496              		.align	2
 5499              	UI_Drop:
 5500 0000 00000000 		.word	UI_Drop_Init
 5501 0004 00000000 		.word	UI_Drop_AddDropItem
 5502 0008 00000000 		.word	UI_Drop_Move
ARM GAS  /var/folders/lx/hc4sn_b53233_zkc9xbbl97r0000gp/T//cc4iWlrc.s 			page 133


 5503 000c 00000000 		.word	UI_Drop_SelectItem
 5504 0010 00000000 		.word	UI_Drop_SetSelect
 5505 0014 00000000 		.word	UI_Drop_GetSelect
 5506 0018 00000000 		.word	UI_Drop_Ctl
 5507              		.section	.data.UI_ProcessBar,"aw"
 5508              		.align	2
 5511              	UI_ProcessBar:
 5512 0000 00000000 		.word	UI_ProcessBar_Init
 5513 0004 00000000 		.word	UI_ProcessBar_Move
 5514 0008 00000000 		.word	UI_ProcessBar_SetDspDir
 5515 000c 00000000 		.word	UI_ProcessBar_SetCurVal
 5516 0010 00000000 		.word	UI_ProcessBar_Ctl
 5517 0014 00000000 		.space	8
 5517      00000000 
 5518 001c 00000000 		.word	UI_ProcessBar_SetLabelPos
 5519              		.section	.data.UI_SlideBar,"aw"
 5520              		.align	2
 5523              	UI_SlideBar:
 5524 0000 00000000 		.word	UI_SlideBar_Init
 5525 0004 00000000 		.word	UI_SlideBar_SetCallBack
 5526 0008 00000000 		.word	UI_SlideBar_Move
 5527 000c 00000000 		.word	UI_SlideBar_Input
 5528 0010 00000000 		.word	UI_SlideBar_Trigger
 5529 0014 00000000 		.word	UI_SlideBar_CTL
 5530 0018 00000000 		.word	UI_SlideBar_SetSelect
 5531 001c 00000000 		.word	UI_SlideBar_IsSelected
 5532              		.section	.data.base_font,"aw"
 5533              		.set	.LANCHOR2,. + 0
 5536              	base_font:
 5537 0000 08       		.byte	8
 5538              		.text
 5539              	.Letext0:
 5540              		.file 2 "/usr/local/arm-none-eabi-gcc/gcc-arm-none-eabi-10-2020-q4-major/arm-none-eabi/include/mac
 5541              		.file 3 "/usr/local/arm-none-eabi-gcc/gcc-arm-none-eabi-10-2020-q4-major/arm-none-eabi/include/sys
 5542              		.file 4 "Dsp/screen/font/oledfont.h"
 5543              		.file 5 "SYS/data_structure/linked_list.h"
 5544              		.file 6 "Dsp/widget/wgt_core/UI_Controller.h"
 5545              		.file 7 "/usr/local/arm-none-eabi-gcc/gcc-arm-none-eabi-10-2020-q4-major/arm-none-eabi/include/std
 5546              		.file 8 "/usr/local/arm-none-eabi-gcc/gcc-arm-none-eabi-10-2020-q4-major/arm-none-eabi/include/str
ARM GAS  /var/folders/lx/hc4sn_b53233_zkc9xbbl97r0000gp/T//cc4iWlrc.s 			page 134


DEFINED SYMBOLS
                            *ABS*:0000000000000000 UI_Controller.c
/var/folders/lx/hc4sn_b53233_zkc9xbbl97r0000gp/T//cc4iWlrc.s:18     .text.UI_Draw_HorDotLine:0000000000000000 $t
/var/folders/lx/hc4sn_b53233_zkc9xbbl97r0000gp/T//cc4iWlrc.s:25     .text.UI_Draw_HorDotLine:0000000000000000 UI_Draw_HorDotLine
/var/folders/lx/hc4sn_b53233_zkc9xbbl97r0000gp/T//cc4iWlrc.s:153    .text.UI_Draw_HorDotLine:0000000000000060 $d
/var/folders/lx/hc4sn_b53233_zkc9xbbl97r0000gp/T//cc4iWlrc.s:159    .text.UI_GenData_Init:0000000000000000 $t
/var/folders/lx/hc4sn_b53233_zkc9xbbl97r0000gp/T//cc4iWlrc.s:165    .text.UI_GenData_Init:0000000000000000 UI_GenData_Init
/var/folders/lx/hc4sn_b53233_zkc9xbbl97r0000gp/T//cc4iWlrc.s:194    .text.UI_Move:0000000000000000 $t
/var/folders/lx/hc4sn_b53233_zkc9xbbl97r0000gp/T//cc4iWlrc.s:200    .text.UI_Move:0000000000000000 UI_Move
/var/folders/lx/hc4sn_b53233_zkc9xbbl97r0000gp/T//cc4iWlrc.s:234    .rodata.UI_Button_Init.str1.4:0000000000000000 $d
/var/folders/lx/hc4sn_b53233_zkc9xbbl97r0000gp/T//cc4iWlrc.s:241    .text.UI_Button_Init:0000000000000000 $t
/var/folders/lx/hc4sn_b53233_zkc9xbbl97r0000gp/T//cc4iWlrc.s:247    .text.UI_Button_Init:0000000000000000 UI_Button_Init
/var/folders/lx/hc4sn_b53233_zkc9xbbl97r0000gp/T//cc4iWlrc.s:314    .text.UI_Button_Init:0000000000000040 $d
/var/folders/lx/hc4sn_b53233_zkc9xbbl97r0000gp/T//cc4iWlrc.s:320    .text.UI_Button_Set_Label:0000000000000000 $t
/var/folders/lx/hc4sn_b53233_zkc9xbbl97r0000gp/T//cc4iWlrc.s:326    .text.UI_Button_Set_Label:0000000000000000 UI_Button_Set_Label
/var/folders/lx/hc4sn_b53233_zkc9xbbl97r0000gp/T//cc4iWlrc.s:370    .text.UI_Button_Set_TriggerCallback:0000000000000000 $t
/var/folders/lx/hc4sn_b53233_zkc9xbbl97r0000gp/T//cc4iWlrc.s:376    .text.UI_Button_Set_TriggerCallback:0000000000000000 UI_Button_Set_TriggerCallback
/var/folders/lx/hc4sn_b53233_zkc9xbbl97r0000gp/T//cc4iWlrc.s:430    .text.UI_Button_Push:0000000000000000 $t
/var/folders/lx/hc4sn_b53233_zkc9xbbl97r0000gp/T//cc4iWlrc.s:436    .text.UI_Button_Push:0000000000000000 UI_Button_Push
/var/folders/lx/hc4sn_b53233_zkc9xbbl97r0000gp/T//cc4iWlrc.s:553    .text.UI_Button_Release:0000000000000000 $t
/var/folders/lx/hc4sn_b53233_zkc9xbbl97r0000gp/T//cc4iWlrc.s:559    .text.UI_Button_Release:0000000000000000 UI_Button_Release
/var/folders/lx/hc4sn_b53233_zkc9xbbl97r0000gp/T//cc4iWlrc.s:645    .text.UI_Button_Move:0000000000000000 $t
/var/folders/lx/hc4sn_b53233_zkc9xbbl97r0000gp/T//cc4iWlrc.s:651    .text.UI_Button_Move:0000000000000000 UI_Button_Move
/var/folders/lx/hc4sn_b53233_zkc9xbbl97r0000gp/T//cc4iWlrc.s:692    .text.UI_Button_Ctl:0000000000000000 $t
/var/folders/lx/hc4sn_b53233_zkc9xbbl97r0000gp/T//cc4iWlrc.s:698    .text.UI_Button_Ctl:0000000000000000 UI_Button_Ctl
/var/folders/lx/hc4sn_b53233_zkc9xbbl97r0000gp/T//cc4iWlrc.s:957    .text.UI_Button_Ctl:0000000000000110 $d
/var/folders/lx/hc4sn_b53233_zkc9xbbl97r0000gp/T//cc4iWlrc.s:963    .text.UI_CheckBox_Init:0000000000000000 $t
/var/folders/lx/hc4sn_b53233_zkc9xbbl97r0000gp/T//cc4iWlrc.s:969    .text.UI_CheckBox_Init:0000000000000000 UI_CheckBox_Init
/var/folders/lx/hc4sn_b53233_zkc9xbbl97r0000gp/T//cc4iWlrc.s:1020   .text.UI_CheckBox_SetCallback:0000000000000000 $t
/var/folders/lx/hc4sn_b53233_zkc9xbbl97r0000gp/T//cc4iWlrc.s:1026   .text.UI_CheckBox_SetCallback:0000000000000000 UI_CheckBox_SetCallback
/var/folders/lx/hc4sn_b53233_zkc9xbbl97r0000gp/T//cc4iWlrc.s:1057   .text.UI_CheckBox_Move:0000000000000000 $t
/var/folders/lx/hc4sn_b53233_zkc9xbbl97r0000gp/T//cc4iWlrc.s:1063   .text.UI_CheckBox_Move:0000000000000000 UI_CheckBox_Move
/var/folders/lx/hc4sn_b53233_zkc9xbbl97r0000gp/T//cc4iWlrc.s:1100   .text.UI_CheckBox_Trigger:0000000000000000 $t
/var/folders/lx/hc4sn_b53233_zkc9xbbl97r0000gp/T//cc4iWlrc.s:1106   .text.UI_CheckBox_Trigger:0000000000000000 UI_CheckBox_Trigger
/var/folders/lx/hc4sn_b53233_zkc9xbbl97r0000gp/T//cc4iWlrc.s:1168   .text.UI_SlideBar_Init:0000000000000000 $t
/var/folders/lx/hc4sn_b53233_zkc9xbbl97r0000gp/T//cc4iWlrc.s:1174   .text.UI_SlideBar_Init:0000000000000000 UI_SlideBar_Init
/var/folders/lx/hc4sn_b53233_zkc9xbbl97r0000gp/T//cc4iWlrc.s:1320   .text.UI_SlideBar_Move:0000000000000000 $t
/var/folders/lx/hc4sn_b53233_zkc9xbbl97r0000gp/T//cc4iWlrc.s:1326   .text.UI_SlideBar_Move:0000000000000000 UI_SlideBar_Move
/var/folders/lx/hc4sn_b53233_zkc9xbbl97r0000gp/T//cc4iWlrc.s:1363   .text.UI_SlideBar_SetCallBack:0000000000000000 $t
/var/folders/lx/hc4sn_b53233_zkc9xbbl97r0000gp/T//cc4iWlrc.s:1369   .text.UI_SlideBar_SetCallBack:0000000000000000 UI_SlideBar_SetCallBack
/var/folders/lx/hc4sn_b53233_zkc9xbbl97r0000gp/T//cc4iWlrc.s:1400   .text.UI_SlideBar_Input:0000000000000000 $t
/var/folders/lx/hc4sn_b53233_zkc9xbbl97r0000gp/T//cc4iWlrc.s:1406   .text.UI_SlideBar_Input:0000000000000000 UI_SlideBar_Input
/var/folders/lx/hc4sn_b53233_zkc9xbbl97r0000gp/T//cc4iWlrc.s:1499   .text.UI_SlideBar_Trigger:0000000000000000 $t
/var/folders/lx/hc4sn_b53233_zkc9xbbl97r0000gp/T//cc4iWlrc.s:1505   .text.UI_SlideBar_Trigger:0000000000000000 UI_SlideBar_Trigger
/var/folders/lx/hc4sn_b53233_zkc9xbbl97r0000gp/T//cc4iWlrc.s:1569   .text.UI_SlideBar_SetSelect:0000000000000000 $t
/var/folders/lx/hc4sn_b53233_zkc9xbbl97r0000gp/T//cc4iWlrc.s:1575   .text.UI_SlideBar_SetSelect:0000000000000000 UI_SlideBar_SetSelect
/var/folders/lx/hc4sn_b53233_zkc9xbbl97r0000gp/T//cc4iWlrc.s:1597   .text.UI_SlideBar_IsSelected:0000000000000000 $t
/var/folders/lx/hc4sn_b53233_zkc9xbbl97r0000gp/T//cc4iWlrc.s:1603   .text.UI_SlideBar_IsSelected:0000000000000000 UI_SlideBar_IsSelected
/var/folders/lx/hc4sn_b53233_zkc9xbbl97r0000gp/T//cc4iWlrc.s:1631   .text.UI_ProcessBar_Init:0000000000000000 $t
/var/folders/lx/hc4sn_b53233_zkc9xbbl97r0000gp/T//cc4iWlrc.s:1637   .text.UI_ProcessBar_Init:0000000000000000 UI_ProcessBar_Init
/var/folders/lx/hc4sn_b53233_zkc9xbbl97r0000gp/T//cc4iWlrc.s:1767   .text.UI_ProcessBar_Init:000000000000007c $d
/var/folders/lx/hc4sn_b53233_zkc9xbbl97r0000gp/T//cc4iWlrc.s:1772   .text.UI_ProcessBar_SetDspDir:0000000000000000 $t
/var/folders/lx/hc4sn_b53233_zkc9xbbl97r0000gp/T//cc4iWlrc.s:1778   .text.UI_ProcessBar_SetDspDir:0000000000000000 UI_ProcessBar_SetDspDir
/var/folders/lx/hc4sn_b53233_zkc9xbbl97r0000gp/T//cc4iWlrc.s:1823   .text.UI_ProcessBar_SetCurVal:0000000000000000 $t
/var/folders/lx/hc4sn_b53233_zkc9xbbl97r0000gp/T//cc4iWlrc.s:1829   .text.UI_ProcessBar_SetCurVal:0000000000000000 UI_ProcessBar_SetCurVal
/var/folders/lx/hc4sn_b53233_zkc9xbbl97r0000gp/T//cc4iWlrc.s:1917   .text.UI_ProcessBar_Move:0000000000000000 $t
/var/folders/lx/hc4sn_b53233_zkc9xbbl97r0000gp/T//cc4iWlrc.s:1923   .text.UI_ProcessBar_Move:0000000000000000 UI_ProcessBar_Move
ARM GAS  /var/folders/lx/hc4sn_b53233_zkc9xbbl97r0000gp/T//cc4iWlrc.s 			page 135


/var/folders/lx/hc4sn_b53233_zkc9xbbl97r0000gp/T//cc4iWlrc.s:1964   .text.UI_ProcessBar_DspDotBar:0000000000000000 $t
/var/folders/lx/hc4sn_b53233_zkc9xbbl97r0000gp/T//cc4iWlrc.s:1970   .text.UI_ProcessBar_DspDotBar:0000000000000000 UI_ProcessBar_DspDotBar
/var/folders/lx/hc4sn_b53233_zkc9xbbl97r0000gp/T//cc4iWlrc.s:2404   .text.UI_ProcessBar_DspDotBar:0000000000000234 $d
/var/folders/lx/hc4sn_b53233_zkc9xbbl97r0000gp/T//cc4iWlrc.s:2410   .text.UI_ProcessBar_DspFrameBar:0000000000000000 $t
/var/folders/lx/hc4sn_b53233_zkc9xbbl97r0000gp/T//cc4iWlrc.s:2416   .text.UI_ProcessBar_DspFrameBar:0000000000000000 UI_ProcessBar_DspFrameBar
/var/folders/lx/hc4sn_b53233_zkc9xbbl97r0000gp/T//cc4iWlrc.s:2796   .text.UI_ProcessBar_DspFrameBar:00000000000001ec $d
/var/folders/lx/hc4sn_b53233_zkc9xbbl97r0000gp/T//cc4iWlrc.s:2802   .text.UI_ProcessBar_SetLabelPos:0000000000000000 $t
/var/folders/lx/hc4sn_b53233_zkc9xbbl97r0000gp/T//cc4iWlrc.s:2808   .text.UI_ProcessBar_SetLabelPos:0000000000000000 UI_ProcessBar_SetLabelPos
/var/folders/lx/hc4sn_b53233_zkc9xbbl97r0000gp/T//cc4iWlrc.s:2846   .text.UI_Drop_Init:0000000000000000 $t
/var/folders/lx/hc4sn_b53233_zkc9xbbl97r0000gp/T//cc4iWlrc.s:2852   .text.UI_Drop_Init:0000000000000000 UI_Drop_Init
/var/folders/lx/hc4sn_b53233_zkc9xbbl97r0000gp/T//cc4iWlrc.s:2911   .text.UI_Drop_Move:0000000000000000 $t
/var/folders/lx/hc4sn_b53233_zkc9xbbl97r0000gp/T//cc4iWlrc.s:2917   .text.UI_Drop_Move:0000000000000000 UI_Drop_Move
/var/folders/lx/hc4sn_b53233_zkc9xbbl97r0000gp/T//cc4iWlrc.s:2954   .text.UI_Drop_SetSelect:0000000000000000 $t
/var/folders/lx/hc4sn_b53233_zkc9xbbl97r0000gp/T//cc4iWlrc.s:2960   .text.UI_Drop_SetSelect:0000000000000000 UI_Drop_SetSelect
/var/folders/lx/hc4sn_b53233_zkc9xbbl97r0000gp/T//cc4iWlrc.s:3043   .text.UI_Drop_GetSelect:0000000000000000 $t
/var/folders/lx/hc4sn_b53233_zkc9xbbl97r0000gp/T//cc4iWlrc.s:3049   .text.UI_Drop_GetSelect:0000000000000000 UI_Drop_GetSelect
/var/folders/lx/hc4sn_b53233_zkc9xbbl97r0000gp/T//cc4iWlrc.s:3077   .text.UI_Drop_SelectItem:0000000000000000 $t
/var/folders/lx/hc4sn_b53233_zkc9xbbl97r0000gp/T//cc4iWlrc.s:3083   .text.UI_Drop_SelectItem:0000000000000000 UI_Drop_SelectItem
/var/folders/lx/hc4sn_b53233_zkc9xbbl97r0000gp/T//cc4iWlrc.s:3186   .text.UI_Drop_Ctl:0000000000000000 $t
/var/folders/lx/hc4sn_b53233_zkc9xbbl97r0000gp/T//cc4iWlrc.s:3192   .text.UI_Drop_Ctl:0000000000000000 UI_Drop_Ctl
/var/folders/lx/hc4sn_b53233_zkc9xbbl97r0000gp/T//cc4iWlrc.s:3357   .text.UI_Drop_Ctl:0000000000000098 $d
/var/folders/lx/hc4sn_b53233_zkc9xbbl97r0000gp/T//cc4iWlrc.s:3363   .text.UI_DigInput_Init:0000000000000000 $t
/var/folders/lx/hc4sn_b53233_zkc9xbbl97r0000gp/T//cc4iWlrc.s:3369   .text.UI_DigInput_Init:0000000000000000 UI_DigInput_Init
/var/folders/lx/hc4sn_b53233_zkc9xbbl97r0000gp/T//cc4iWlrc.s:3482   .text.UI_DigInput_SetIntRange:0000000000000000 $t
/var/folders/lx/hc4sn_b53233_zkc9xbbl97r0000gp/T//cc4iWlrc.s:3488   .text.UI_DigInput_SetIntRange:0000000000000000 UI_DigInput_SetIntRange
/var/folders/lx/hc4sn_b53233_zkc9xbbl97r0000gp/T//cc4iWlrc.s:3555   .text.UI_DigInput_SetDouRange:0000000000000000 $t
/var/folders/lx/hc4sn_b53233_zkc9xbbl97r0000gp/T//cc4iWlrc.s:3561   .text.UI_DigInput_SetDouRange:0000000000000000 UI_DigInput_SetDouRange
/var/folders/lx/hc4sn_b53233_zkc9xbbl97r0000gp/T//cc4iWlrc.s:3700   .text.UI_DigInput_SetDouRange:00000000000000a0 $d
/var/folders/lx/hc4sn_b53233_zkc9xbbl97r0000gp/T//cc4iWlrc.s:3706   .text.UI_DigInput_GetDoubleVal:0000000000000000 $t
/var/folders/lx/hc4sn_b53233_zkc9xbbl97r0000gp/T//cc4iWlrc.s:3712   .text.UI_DigInput_GetDoubleVal:0000000000000000 UI_DigInput_GetDoubleVal
/var/folders/lx/hc4sn_b53233_zkc9xbbl97r0000gp/T//cc4iWlrc.s:3768   .text.UI_DigInput_GetIntVal:0000000000000000 $t
/var/folders/lx/hc4sn_b53233_zkc9xbbl97r0000gp/T//cc4iWlrc.s:3774   .text.UI_DigInput_GetIntVal:0000000000000000 UI_DigInput_GetIntVal
/var/folders/lx/hc4sn_b53233_zkc9xbbl97r0000gp/T//cc4iWlrc.s:3819   .text.UI_DigInput_SetSelectStatus:0000000000000000 $t
/var/folders/lx/hc4sn_b53233_zkc9xbbl97r0000gp/T//cc4iWlrc.s:3825   .text.UI_DigInput_SetSelectStatus:0000000000000000 UI_DigInput_SetSelectStatus
/var/folders/lx/hc4sn_b53233_zkc9xbbl97r0000gp/T//cc4iWlrc.s:3856   .text.UI_DigInput_Move:0000000000000000 $t
/var/folders/lx/hc4sn_b53233_zkc9xbbl97r0000gp/T//cc4iWlrc.s:3862   .text.UI_DigInput_Move:0000000000000000 UI_DigInput_Move
/var/folders/lx/hc4sn_b53233_zkc9xbbl97r0000gp/T//cc4iWlrc.s:3899   .text.UI_CheckBox_Ctl:0000000000000000 $t
/var/folders/lx/hc4sn_b53233_zkc9xbbl97r0000gp/T//cc4iWlrc.s:3905   .text.UI_CheckBox_Ctl:0000000000000000 UI_CheckBox_Ctl
/var/folders/lx/hc4sn_b53233_zkc9xbbl97r0000gp/T//cc4iWlrc.s:4086   .text.UI_CheckBox_Ctl:00000000000000b8 $d
/var/folders/lx/hc4sn_b53233_zkc9xbbl97r0000gp/T//cc4iWlrc.s:4092   .text.UI_SlideBar_CTL:0000000000000000 $t
/var/folders/lx/hc4sn_b53233_zkc9xbbl97r0000gp/T//cc4iWlrc.s:4098   .text.UI_SlideBar_CTL:0000000000000000 UI_SlideBar_CTL
/var/folders/lx/hc4sn_b53233_zkc9xbbl97r0000gp/T//cc4iWlrc.s:4369   .text.UI_SlideBar_CTL:0000000000000124 $d
/var/folders/lx/hc4sn_b53233_zkc9xbbl97r0000gp/T//cc4iWlrc.s:4376   .rodata.UI_ProcessBar_DspLoadBar.str1.4:0000000000000000 $d
/var/folders/lx/hc4sn_b53233_zkc9xbbl97r0000gp/T//cc4iWlrc.s:4380   .text.UI_ProcessBar_DspLoadBar:0000000000000000 $t
/var/folders/lx/hc4sn_b53233_zkc9xbbl97r0000gp/T//cc4iWlrc.s:4386   .text.UI_ProcessBar_DspLoadBar:0000000000000000 UI_ProcessBar_DspLoadBar
/var/folders/lx/hc4sn_b53233_zkc9xbbl97r0000gp/T//cc4iWlrc.s:4588   .text.UI_ProcessBar_DspLoadBar:00000000000000f8 $d
/var/folders/lx/hc4sn_b53233_zkc9xbbl97r0000gp/T//cc4iWlrc.s:4596   .text.UI_ProcessBar_Ctl:0000000000000000 $t
/var/folders/lx/hc4sn_b53233_zkc9xbbl97r0000gp/T//cc4iWlrc.s:4602   .text.UI_ProcessBar_Ctl:0000000000000000 UI_ProcessBar_Ctl
/var/folders/lx/hc4sn_b53233_zkc9xbbl97r0000gp/T//cc4iWlrc.s:4695   .text.UI_ProcessBar_Ctl:000000000000004c $d
/var/folders/lx/hc4sn_b53233_zkc9xbbl97r0000gp/T//cc4iWlrc.s:4700   .text.UI_Drop_CreateDropItem:0000000000000000 $t
/var/folders/lx/hc4sn_b53233_zkc9xbbl97r0000gp/T//cc4iWlrc.s:4706   .text.UI_Drop_CreateDropItem:0000000000000000 UI_Drop_CreateDropItem
/var/folders/lx/hc4sn_b53233_zkc9xbbl97r0000gp/T//cc4iWlrc.s:4793   .text.UI_Drop_AddDropItem:0000000000000000 $t
/var/folders/lx/hc4sn_b53233_zkc9xbbl97r0000gp/T//cc4iWlrc.s:4799   .text.UI_Drop_AddDropItem:0000000000000000 UI_Drop_AddDropItem
/var/folders/lx/hc4sn_b53233_zkc9xbbl97r0000gp/T//cc4iWlrc.s:4904   .text.UI_Set_FontType:0000000000000000 $t
/var/folders/lx/hc4sn_b53233_zkc9xbbl97r0000gp/T//cc4iWlrc.s:4911   .text.UI_Set_FontType:0000000000000000 UI_Set_FontType
/var/folders/lx/hc4sn_b53233_zkc9xbbl97r0000gp/T//cc4iWlrc.s:4946   .text.UI_Set_FontType:0000000000000018 $d
/var/folders/lx/hc4sn_b53233_zkc9xbbl97r0000gp/T//cc4iWlrc.s:4951   .text.UI_Set_DspInterface:0000000000000000 $t
ARM GAS  /var/folders/lx/hc4sn_b53233_zkc9xbbl97r0000gp/T//cc4iWlrc.s 			page 136


/var/folders/lx/hc4sn_b53233_zkc9xbbl97r0000gp/T//cc4iWlrc.s:4958   .text.UI_Set_DspInterface:0000000000000000 UI_Set_DspInterface
/var/folders/lx/hc4sn_b53233_zkc9xbbl97r0000gp/T//cc4iWlrc.s:5035   .text.UI_Set_DspInterface:0000000000000034 $d
/var/folders/lx/hc4sn_b53233_zkc9xbbl97r0000gp/T//cc4iWlrc.s:5040   .text.UI_Set_GetWidgetWidthMathod:0000000000000000 $t
/var/folders/lx/hc4sn_b53233_zkc9xbbl97r0000gp/T//cc4iWlrc.s:5047   .text.UI_Set_GetWidgetWidthMathod:0000000000000000 UI_Set_GetWidgetWidthMathod
/var/folders/lx/hc4sn_b53233_zkc9xbbl97r0000gp/T//cc4iWlrc.s:5064   .text.UI_Set_GetWidgetWidthMathod:0000000000000008 $d
/var/folders/lx/hc4sn_b53233_zkc9xbbl97r0000gp/T//cc4iWlrc.s:5069   .text.UI_ShowSelector:0000000000000000 $t
/var/folders/lx/hc4sn_b53233_zkc9xbbl97r0000gp/T//cc4iWlrc.s:5076   .text.UI_ShowSelector:0000000000000000 UI_ShowSelector
/var/folders/lx/hc4sn_b53233_zkc9xbbl97r0000gp/T//cc4iWlrc.s:5173   .text.UI_ShowSelector:0000000000000048 $d
/var/folders/lx/hc4sn_b53233_zkc9xbbl97r0000gp/T//cc4iWlrc.s:5432   .text.UI_ShowSelector:000000000000015c $d
/var/folders/lx/hc4sn_b53233_zkc9xbbl97r0000gp/T//cc4iWlrc.s:5485   .data.UI_DigInput:0000000000000000 UI_DigInput
/var/folders/lx/hc4sn_b53233_zkc9xbbl97r0000gp/T//cc4iWlrc.s:5499   .data.UI_Drop:0000000000000000 UI_Drop
/var/folders/lx/hc4sn_b53233_zkc9xbbl97r0000gp/T//cc4iWlrc.s:5511   .data.UI_ProcessBar:0000000000000000 UI_ProcessBar
/var/folders/lx/hc4sn_b53233_zkc9xbbl97r0000gp/T//cc4iWlrc.s:5523   .data.UI_SlideBar:0000000000000000 UI_SlideBar
/var/folders/lx/hc4sn_b53233_zkc9xbbl97r0000gp/T//cc4iWlrc.s:5475   .data.UI_CheckBox:0000000000000000 UI_CheckBox
/var/folders/lx/hc4sn_b53233_zkc9xbbl97r0000gp/T//cc4iWlrc.s:5463   .data.UI_Button:0000000000000000 UI_Button
/var/folders/lx/hc4sn_b53233_zkc9xbbl97r0000gp/T//cc4iWlrc.s:5457   .bss.UI_Get_WidgetWidth:0000000000000000 UI_Get_WidgetWidth
/var/folders/lx/hc4sn_b53233_zkc9xbbl97r0000gp/T//cc4iWlrc.s:5446   .bss.UI_DspInterface:0000000000000000 $d
/var/folders/lx/hc4sn_b53233_zkc9xbbl97r0000gp/T//cc4iWlrc.s:5450   .bss.UI_DspInterface:0000000000000000 UI_DspInterface
/var/folders/lx/hc4sn_b53233_zkc9xbbl97r0000gp/T//cc4iWlrc.s:5453   .bss.UI_Get_WidgetWidth:0000000000000000 $d
/var/folders/lx/hc4sn_b53233_zkc9xbbl97r0000gp/T//cc4iWlrc.s:5460   .data.UI_Button:0000000000000000 $d
/var/folders/lx/hc4sn_b53233_zkc9xbbl97r0000gp/T//cc4iWlrc.s:5472   .data.UI_CheckBox:0000000000000000 $d
/var/folders/lx/hc4sn_b53233_zkc9xbbl97r0000gp/T//cc4iWlrc.s:5482   .data.UI_DigInput:0000000000000000 $d
/var/folders/lx/hc4sn_b53233_zkc9xbbl97r0000gp/T//cc4iWlrc.s:5496   .data.UI_Drop:0000000000000000 $d
/var/folders/lx/hc4sn_b53233_zkc9xbbl97r0000gp/T//cc4iWlrc.s:5508   .data.UI_ProcessBar:0000000000000000 $d
/var/folders/lx/hc4sn_b53233_zkc9xbbl97r0000gp/T//cc4iWlrc.s:5520   .data.UI_SlideBar:0000000000000000 $d
/var/folders/lx/hc4sn_b53233_zkc9xbbl97r0000gp/T//cc4iWlrc.s:5536   .data.base_font:0000000000000000 base_font
/var/folders/lx/hc4sn_b53233_zkc9xbbl97r0000gp/T//cc4iWlrc.s:5179   .text.UI_ShowSelector:000000000000004d $d
/var/folders/lx/hc4sn_b53233_zkc9xbbl97r0000gp/T//cc4iWlrc.s:5179   .text.UI_ShowSelector:000000000000004e $t

UNDEFINED SYMBOLS
__aeabi_dsub
__aeabi_dcmple
__aeabi_d2iz
__aeabi_i2d
__aeabi_d2uiz
strlen
sprintf
MMU_malloc
List_ItemInit
List_Insert_Item
List_Init
