ARM GAS  /var/folders/lx/hc4sn_b53233_zkc9xbbl97r0000gp/T//cchcMLLT.s 			page 1


   1              		.cpu cortex-m4
   2              		.eabi_attribute 27, 1
   3              		.eabi_attribute 28, 1
   4              		.eabi_attribute 20, 1
   5              		.eabi_attribute 21, 1
   6              		.eabi_attribute 23, 3
   7              		.eabi_attribute 24, 1
   8              		.eabi_attribute 25, 1
   9              		.eabi_attribute 26, 1
  10              		.eabi_attribute 30, 1
  11              		.eabi_attribute 34, 1
  12              		.eabi_attribute 18, 4
  13              		.file	"UI_Controller.c"
  14              		.text
  15              	.Ltext0:
  16              		.cfi_sections	.debug_frame
  17              		.section	.text.UI_GenData_Init,"ax",%progbits
  18              		.align	1
  19              		.arch armv7e-m
  20              		.syntax unified
  21              		.thumb
  22              		.thumb_func
  23              		.fpu fpv4-sp-d16
  25              	UI_GenData_Init:
  26              	.LVL0:
  27              	.LFB2:
  28              		.file 1 "Dsp/widget/wgt_core/UI_Controller.c"
   1:Dsp/widget/wgt_core/UI_Controller.c **** #include "UI_Controller.h"
   2:Dsp/widget/wgt_core/UI_Controller.c **** #include "runtime.h"
   3:Dsp/widget/wgt_core/UI_Controller.c **** #include <stdlib.h>
   4:Dsp/widget/wgt_core/UI_Controller.c **** 
   5:Dsp/widget/wgt_core/UI_Controller.c **** /* internal object */
   6:Dsp/widget/wgt_core/UI_Controller.c **** static UI_DrawInterface_TypeDef UI_DspInterface;
   7:Dsp/widget/wgt_core/UI_Controller.c **** 
   8:Dsp/widget/wgt_core/UI_Controller.c **** /* external function */
   9:Dsp/widget/wgt_core/UI_Controller.c **** /* UI button section */
  10:Dsp/widget/wgt_core/UI_Controller.c **** static bool UI_Button_Init(UI_ButtonObj_TypeDef *Obj, char *label, int8_t x, int8_t y, uint8_t widt
  11:Dsp/widget/wgt_core/UI_Controller.c **** static bool UI_Button_Set_Label(UI_ButtonObj_TypeDef *Obj, UI_Button_State_List state, char *label)
  12:Dsp/widget/wgt_core/UI_Controller.c **** static bool UI_Button_Set_TriggerCallback(UI_ButtonObj_TypeDef *Obj, UI_Button_Trigger_Type type, U
  13:Dsp/widget/wgt_core/UI_Controller.c **** static bool UI_Button_Push(UI_ButtonObj_TypeDef *Obj);
  14:Dsp/widget/wgt_core/UI_Controller.c **** static bool UI_Button_Release(UI_ButtonObj_TypeDef *Obj);
  15:Dsp/widget/wgt_core/UI_Controller.c **** static bool UI_Button_Move(UI_ButtonObj_TypeDef *Obj, uint8_t x, uint8_t y);
  16:Dsp/widget/wgt_core/UI_Controller.c **** static bool UI_Button_Ctl(UI_ButtonObj_TypeDef *Obj);
  17:Dsp/widget/wgt_core/UI_Controller.c **** 
  18:Dsp/widget/wgt_core/UI_Controller.c **** /* UI check box section */
  19:Dsp/widget/wgt_core/UI_Controller.c **** static bool UI_CheckBox_Init(UI_CheckBoxObj_TypeDef *Obj, char *label, int8_t x, int8_t y, bool sta
  20:Dsp/widget/wgt_core/UI_Controller.c **** static bool UI_CheckBox_SetCallback(UI_CheckBoxObj_TypeDef *Obj, UI_CheckBoxTrigger_Callback callba
  21:Dsp/widget/wgt_core/UI_Controller.c **** static bool UI_CheckBox_Move(UI_CheckBoxObj_TypeDef *Obj, int8_t x, int8_t y);
  22:Dsp/widget/wgt_core/UI_Controller.c **** static bool UI_CheckBox_Trigger(UI_CheckBoxObj_TypeDef *Obj);
  23:Dsp/widget/wgt_core/UI_Controller.c **** static bool UI_CheckBox_Ctl(UI_CheckBoxObj_TypeDef *Obj);
  24:Dsp/widget/wgt_core/UI_Controller.c **** 
  25:Dsp/widget/wgt_core/UI_Controller.c **** /* general function */
  26:Dsp/widget/wgt_core/UI_Controller.c **** static bool UI_Get_InitSate(UI_GeneralData_TypeDef GenData);
  27:Dsp/widget/wgt_core/UI_Controller.c **** static bool UI_Selecte(UI_GeneralData_TypeDef *GenData, bool select);
  28:Dsp/widget/wgt_core/UI_Controller.c **** static bool UI_Get_Selected(UI_GeneralData_TypeDef GenData);
  29:Dsp/widget/wgt_core/UI_Controller.c **** static bool UI_Move(UI_GeneralData_TypeDef *GenUI_Info, int8_t dst_x, int8_t dst_y);
  30:Dsp/widget/wgt_core/UI_Controller.c **** 
ARM GAS  /var/folders/lx/hc4sn_b53233_zkc9xbbl97r0000gp/T//cchcMLLT.s 			page 2


  31:Dsp/widget/wgt_core/UI_Controller.c **** /* external Object var */
  32:Dsp/widget/wgt_core/UI_Controller.c **** UI_Button_Interface_TypeDef UI_Button = {
  33:Dsp/widget/wgt_core/UI_Controller.c ****     .ctl = UI_Button_Ctl,
  34:Dsp/widget/wgt_core/UI_Controller.c ****     .init = UI_Button_Init,
  35:Dsp/widget/wgt_core/UI_Controller.c ****     .push = UI_Button_Push,
  36:Dsp/widget/wgt_core/UI_Controller.c ****     .move = UI_Button_Move,
  37:Dsp/widget/wgt_core/UI_Controller.c ****     .release = UI_Button_Release,
  38:Dsp/widget/wgt_core/UI_Controller.c ****     .set_label = UI_Button_Set_Label,
  39:Dsp/widget/wgt_core/UI_Controller.c ****     .set_trogger_callback = UI_Button_Set_TriggerCallback,
  40:Dsp/widget/wgt_core/UI_Controller.c **** };
  41:Dsp/widget/wgt_core/UI_Controller.c **** 
  42:Dsp/widget/wgt_core/UI_Controller.c **** UI_CheckBox_Interface_TypeDef UI_CheckBox = {
  43:Dsp/widget/wgt_core/UI_Controller.c ****     .ctl = UI_CheckBox_Ctl,
  44:Dsp/widget/wgt_core/UI_Controller.c ****     .init = UI_CheckBox_Init,
  45:Dsp/widget/wgt_core/UI_Controller.c ****     .Set_Callback = UI_CheckBox_SetCallback,
  46:Dsp/widget/wgt_core/UI_Controller.c ****     .Move = UI_CheckBox_Move,
  47:Dsp/widget/wgt_core/UI_Controller.c ****     .Trigger = UI_CheckBox_Trigger,
  48:Dsp/widget/wgt_core/UI_Controller.c **** };
  49:Dsp/widget/wgt_core/UI_Controller.c **** 
  50:Dsp/widget/wgt_core/UI_Controller.c **** /******************************* general function *********************************/
  51:Dsp/widget/wgt_core/UI_Controller.c **** 
  52:Dsp/widget/wgt_core/UI_Controller.c **** void UI_Set_DspInterface(UI_DrawPoint point,
  53:Dsp/widget/wgt_core/UI_Controller.c ****                          UI_DrawLine line,
  54:Dsp/widget/wgt_core/UI_Controller.c ****                          UI_DrawRectangle rectangle,
  55:Dsp/widget/wgt_core/UI_Controller.c ****                          UI_DrawRadiusRectangle radius_rectangle,
  56:Dsp/widget/wgt_core/UI_Controller.c ****                          UI_DrawCircle circle,
  57:Dsp/widget/wgt_core/UI_Controller.c ****                          UI_DrawCircleSection circle_section,
  58:Dsp/widget/wgt_core/UI_Controller.c ****                          UI_DrawStr str,
  59:Dsp/widget/wgt_core/UI_Controller.c ****                          UI_FillCircle fill_circle,
  60:Dsp/widget/wgt_core/UI_Controller.c ****                          UI_FillCircle_Section fillcircle_section,
  61:Dsp/widget/wgt_core/UI_Controller.c ****                          UI_FillRectangle fill_rectangle,
  62:Dsp/widget/wgt_core/UI_Controller.c ****                          UI_FillRadiusRectangle fill_radius_rectangle)
  63:Dsp/widget/wgt_core/UI_Controller.c **** {
  64:Dsp/widget/wgt_core/UI_Controller.c ****     UI_DspInterface.draw_circle = circle;
  65:Dsp/widget/wgt_core/UI_Controller.c ****     UI_DspInterface.draw_circle_section = circle_section;
  66:Dsp/widget/wgt_core/UI_Controller.c ****     UI_DspInterface.draw_line = line;
  67:Dsp/widget/wgt_core/UI_Controller.c ****     UI_DspInterface.draw_point = point;
  68:Dsp/widget/wgt_core/UI_Controller.c ****     UI_DspInterface.draw_rectangle = rectangle;
  69:Dsp/widget/wgt_core/UI_Controller.c ****     UI_DspInterface.draw_radius_rectangle = radius_rectangle;
  70:Dsp/widget/wgt_core/UI_Controller.c ****     UI_DspInterface.draw_str = str;
  71:Dsp/widget/wgt_core/UI_Controller.c **** 
  72:Dsp/widget/wgt_core/UI_Controller.c ****     UI_DspInterface.fill_circle = fill_circle;
  73:Dsp/widget/wgt_core/UI_Controller.c ****     UI_DspInterface.fill_circle_section = fillcircle_section;
  74:Dsp/widget/wgt_core/UI_Controller.c ****     UI_DspInterface.fill_radius_rectangle = fill_radius_rectangle;
  75:Dsp/widget/wgt_core/UI_Controller.c ****     UI_DspInterface.fill_rectangle = fill_rectangle;
  76:Dsp/widget/wgt_core/UI_Controller.c **** }
  77:Dsp/widget/wgt_core/UI_Controller.c **** 
  78:Dsp/widget/wgt_core/UI_Controller.c **** /* still in developing about this selector */
  79:Dsp/widget/wgt_core/UI_Controller.c **** /* FYI different UI Item Got different selector */
  80:Dsp/widget/wgt_core/UI_Controller.c **** bool UI_ShowSelector(WidgetUI_Item_TypeDef *item)
  81:Dsp/widget/wgt_core/UI_Controller.c **** {
  82:Dsp/widget/wgt_core/UI_Controller.c ****     /* button selector coordinate */
  83:Dsp/widget/wgt_core/UI_Controller.c ****     int16_t Btn_Slct_LftUp_X = 0;
  84:Dsp/widget/wgt_core/UI_Controller.c ****     int16_t Btn_Slct_LftUp_Y = 0;
  85:Dsp/widget/wgt_core/UI_Controller.c ****     int16_t Btn_Slct_LftDwn_X = 0;
  86:Dsp/widget/wgt_core/UI_Controller.c ****     int16_t Btn_Slct_LftDwn_Y = 0;
  87:Dsp/widget/wgt_core/UI_Controller.c ****     int16_t Btn_Slct_RgtUp_X = 0;
ARM GAS  /var/folders/lx/hc4sn_b53233_zkc9xbbl97r0000gp/T//cchcMLLT.s 			page 3


  88:Dsp/widget/wgt_core/UI_Controller.c ****     int16_t Btn_Slct_RgtUp_Y = 0;
  89:Dsp/widget/wgt_core/UI_Controller.c ****     int16_t Btn_Slct_RgtDwn_X = 0;
  90:Dsp/widget/wgt_core/UI_Controller.c ****     int16_t Btn_Slct_RgtDwn_Y = 0;
  91:Dsp/widget/wgt_core/UI_Controller.c **** 
  92:Dsp/widget/wgt_core/UI_Controller.c ****     /* selector block coordinate */
  93:Dsp/widget/wgt_core/UI_Controller.c ****     int16_t block_x;
  94:Dsp/widget/wgt_core/UI_Controller.c ****     int16_t block_y;
  95:Dsp/widget/wgt_core/UI_Controller.c **** 
  96:Dsp/widget/wgt_core/UI_Controller.c ****     if ((item == NULL) ||
  97:Dsp/widget/wgt_core/UI_Controller.c ****         (UI_DspInterface.fill_circle_section == NULL))
  98:Dsp/widget/wgt_core/UI_Controller.c ****         return false;
  99:Dsp/widget/wgt_core/UI_Controller.c **** 
 100:Dsp/widget/wgt_core/UI_Controller.c ****     switch ((uint8_t)(item->type))
 101:Dsp/widget/wgt_core/UI_Controller.c ****     {
 102:Dsp/widget/wgt_core/UI_Controller.c ****     case UI_Type_Button:
 103:Dsp/widget/wgt_core/UI_Controller.c ****         /* comput button selector coordinate first */
 104:Dsp/widget/wgt_core/UI_Controller.c ****         Btn_Slct_LftUp_X = ((UI_ButtonObj_TypeDef *)(item->Handler))->Gen_Data.x;
 105:Dsp/widget/wgt_core/UI_Controller.c ****         Btn_Slct_LftUp_Y = ((UI_ButtonObj_TypeDef *)(item->Handler))->Gen_Data.y + ((UI_ButtonObj_T
 106:Dsp/widget/wgt_core/UI_Controller.c **** 
 107:Dsp/widget/wgt_core/UI_Controller.c ****         Btn_Slct_LftDwn_X = Btn_Slct_LftUp_X;
 108:Dsp/widget/wgt_core/UI_Controller.c ****         Btn_Slct_LftDwn_Y = ((UI_ButtonObj_TypeDef *)(item->Handler))->Gen_Data.y;
 109:Dsp/widget/wgt_core/UI_Controller.c **** 
 110:Dsp/widget/wgt_core/UI_Controller.c ****         Btn_Slct_RgtUp_X = ((UI_ButtonObj_TypeDef *)(item->Handler))->Gen_Data.x + ((UI_ButtonObj_T
 111:Dsp/widget/wgt_core/UI_Controller.c ****         Btn_Slct_RgtUp_Y = Btn_Slct_LftUp_Y;
 112:Dsp/widget/wgt_core/UI_Controller.c **** 
 113:Dsp/widget/wgt_core/UI_Controller.c ****         Btn_Slct_RgtDwn_X = Btn_Slct_RgtUp_X;
 114:Dsp/widget/wgt_core/UI_Controller.c ****         Btn_Slct_RgtDwn_Y = Btn_Slct_LftDwn_Y;
 115:Dsp/widget/wgt_core/UI_Controller.c **** 
 116:Dsp/widget/wgt_core/UI_Controller.c ****         // show button selector
 117:Dsp/widget/wgt_core/UI_Controller.c ****         UI_DspInterface.draw_circle_section(Btn_Slct_LftUp_X, Btn_Slct_LftUp_Y, BUTTON_SELECTOR_RAD
 118:Dsp/widget/wgt_core/UI_Controller.c ****         UI_DspInterface.draw_circle_section(Btn_Slct_LftDwn_X, Btn_Slct_LftDwn_Y, BUTTON_SELECTOR_R
 119:Dsp/widget/wgt_core/UI_Controller.c ****         UI_DspInterface.draw_circle_section(Btn_Slct_RgtUp_X, Btn_Slct_RgtUp_Y, BUTTON_SELECTOR_RAD
 120:Dsp/widget/wgt_core/UI_Controller.c ****         UI_DspInterface.draw_circle_section(Btn_Slct_RgtDwn_X, Btn_Slct_RgtDwn_Y, BUTTON_SELECTOR_R
 121:Dsp/widget/wgt_core/UI_Controller.c ****         break;
 122:Dsp/widget/wgt_core/UI_Controller.c **** 
 123:Dsp/widget/wgt_core/UI_Controller.c ****     case UI_Type_CheckBox:
 124:Dsp/widget/wgt_core/UI_Controller.c ****         block_x = ((UI_CheckBoxObj_TypeDef *)(item->Handler))->Gen_Data.x + 3;
 125:Dsp/widget/wgt_core/UI_Controller.c ****         block_y = ((UI_CheckBoxObj_TypeDef *)(item->Handler))->Gen_Data.y + 1;
 126:Dsp/widget/wgt_core/UI_Controller.c **** 
 127:Dsp/widget/wgt_core/UI_Controller.c ****         UI_DspInterface.fill_rectangle(block_x, block_y, 128 - 6, Default_Font - 1, true);
 128:Dsp/widget/wgt_core/UI_Controller.c ****         break;
 129:Dsp/widget/wgt_core/UI_Controller.c **** 
 130:Dsp/widget/wgt_core/UI_Controller.c ****     default:
 131:Dsp/widget/wgt_core/UI_Controller.c ****         break;
 132:Dsp/widget/wgt_core/UI_Controller.c ****     }
 133:Dsp/widget/wgt_core/UI_Controller.c ****     return true;
 134:Dsp/widget/wgt_core/UI_Controller.c **** }
 135:Dsp/widget/wgt_core/UI_Controller.c **** 
 136:Dsp/widget/wgt_core/UI_Controller.c **** static void UI_GenData_Init(UI_GeneralData_TypeDef *GenData, char *label, uint8_t x, uint8_t y)
 137:Dsp/widget/wgt_core/UI_Controller.c **** {
  29              		.loc 1 137 1 view -0
  30              		.cfi_startproc
  31              		@ args = 0, pretend = 0, frame = 0
  32              		@ frame_needed = 0, uses_anonymous_args = 0
  33              		@ link register save eliminated.
 138:Dsp/widget/wgt_core/UI_Controller.c ****     GenData->label = label;
  34              		.loc 1 138 5 view .LVU1
ARM GAS  /var/folders/lx/hc4sn_b53233_zkc9xbbl97r0000gp/T//cchcMLLT.s 			page 4


  35              		.loc 1 138 20 is_stmt 0 view .LVU2
  36 0000 0160     		str	r1, [r0]
 139:Dsp/widget/wgt_core/UI_Controller.c **** 
 140:Dsp/widget/wgt_core/UI_Controller.c ****     GenData->x = x;
  37              		.loc 1 140 5 is_stmt 1 view .LVU3
  38              		.loc 1 140 16 is_stmt 0 view .LVU4
  39 0002 8280     		strh	r2, [r0, #4]	@ movhi
 141:Dsp/widget/wgt_core/UI_Controller.c ****     GenData->y = y;
  40              		.loc 1 141 5 is_stmt 1 view .LVU5
  41              		.loc 1 141 16 is_stmt 0 view .LVU6
  42 0004 C380     		strh	r3, [r0, #6]	@ movhi
 142:Dsp/widget/wgt_core/UI_Controller.c **** 
 143:Dsp/widget/wgt_core/UI_Controller.c ****     GenData->operatable = false;
  43              		.loc 1 143 5 is_stmt 1 view .LVU7
  44              		.loc 1 143 25 is_stmt 0 view .LVU8
  45 0006 0023     		movs	r3, #0
  46              	.LVL1:
  47              		.loc 1 143 25 view .LVU9
  48 0008 0372     		strb	r3, [r0, #8]
 144:Dsp/widget/wgt_core/UI_Controller.c **** }
  49              		.loc 1 144 1 view .LVU10
  50 000a 7047     		bx	lr
  51              		.cfi_endproc
  52              	.LFE2:
  54              		.section	.text.UI_Move,"ax",%progbits
  55              		.align	1
  56              		.syntax unified
  57              		.thumb
  58              		.thumb_func
  59              		.fpu fpv4-sp-d16
  61              	UI_Move:
  62              	.LVL2:
  63              	.LFB3:
 145:Dsp/widget/wgt_core/UI_Controller.c **** 
 146:Dsp/widget/wgt_core/UI_Controller.c **** static bool UI_Move(UI_GeneralData_TypeDef *GenUI_Info, int8_t dst_x, int8_t dst_y)
 147:Dsp/widget/wgt_core/UI_Controller.c **** {
  64              		.loc 1 147 1 is_stmt 1 view -0
  65              		.cfi_startproc
  66              		@ args = 0, pretend = 0, frame = 0
  67              		@ frame_needed = 0, uses_anonymous_args = 0
  68              		@ link register save eliminated.
 148:Dsp/widget/wgt_core/UI_Controller.c ****     if (GenUI_Info == NULL)
  69              		.loc 1 148 5 view .LVU12
  70              		.loc 1 148 8 is_stmt 0 view .LVU13
  71 0000 18B1     		cbz	r0, .L4
 149:Dsp/widget/wgt_core/UI_Controller.c ****         return false;
 150:Dsp/widget/wgt_core/UI_Controller.c **** 
 151:Dsp/widget/wgt_core/UI_Controller.c ****     GenUI_Info->x = dst_x;
  72              		.loc 1 151 5 is_stmt 1 view .LVU14
  73              		.loc 1 151 19 is_stmt 0 view .LVU15
  74 0002 8180     		strh	r1, [r0, #4]	@ movhi
 152:Dsp/widget/wgt_core/UI_Controller.c ****     GenUI_Info->y = dst_y;
  75              		.loc 1 152 5 is_stmt 1 view .LVU16
  76              		.loc 1 152 19 is_stmt 0 view .LVU17
  77 0004 C280     		strh	r2, [r0, #6]	@ movhi
 153:Dsp/widget/wgt_core/UI_Controller.c **** 
 154:Dsp/widget/wgt_core/UI_Controller.c ****     return true;
ARM GAS  /var/folders/lx/hc4sn_b53233_zkc9xbbl97r0000gp/T//cchcMLLT.s 			page 5


  78              		.loc 1 154 5 is_stmt 1 view .LVU18
  79              		.loc 1 154 12 is_stmt 0 view .LVU19
  80 0006 0120     		movs	r0, #1
  81              	.LVL3:
  82              		.loc 1 154 12 view .LVU20
  83 0008 7047     		bx	lr
  84              	.LVL4:
  85              	.L4:
 149:Dsp/widget/wgt_core/UI_Controller.c **** 
  86              		.loc 1 149 16 view .LVU21
  87 000a 0020     		movs	r0, #0
  88              	.LVL5:
 155:Dsp/widget/wgt_core/UI_Controller.c **** }
  89              		.loc 1 155 1 view .LVU22
  90 000c 7047     		bx	lr
  91              		.cfi_endproc
  92              	.LFE3:
  94              		.section	.rodata.UI_Button_Init.str1.4,"aMS",%progbits,1
  95              		.align	2
  96              	.LC0:
  97 0000 79657300 		.ascii	"yes\000"
  98              		.align	2
  99              	.LC1:
 100 0004 6E6F00   		.ascii	"no\000"
 101              		.section	.text.UI_Button_Init,"ax",%progbits
 102              		.align	1
 103              		.syntax unified
 104              		.thumb
 105              		.thumb_func
 106              		.fpu fpv4-sp-d16
 108              	UI_Button_Init:
 109              	.LVL6:
 110              	.LFB4:
 156:Dsp/widget/wgt_core/UI_Controller.c **** 
 157:Dsp/widget/wgt_core/UI_Controller.c **** /********************************************** UI Button Object **********************************
 158:Dsp/widget/wgt_core/UI_Controller.c **** /*
 159:Dsp/widget/wgt_core/UI_Controller.c **** *  the operation of button ctl is a async operation
 160:Dsp/widget/wgt_core/UI_Controller.c **** *  exti irq or input signal triiger first then out of the trigger code 
 161:Dsp/widget/wgt_core/UI_Controller.c **** *  check signal value doing process
 162:Dsp/widget/wgt_core/UI_Controller.c **** */
 163:Dsp/widget/wgt_core/UI_Controller.c **** static bool UI_Button_Init(UI_ButtonObj_TypeDef *Obj, char *label, int8_t x, int8_t y, uint8_t widt
 164:Dsp/widget/wgt_core/UI_Controller.c **** {
 111              		.loc 1 164 1 is_stmt 1 view -0
 112              		.cfi_startproc
 113              		@ args = 16, pretend = 0, frame = 0
 114              		@ frame_needed = 0, uses_anonymous_args = 0
 115              		.loc 1 164 1 is_stmt 0 view .LVU24
 116 0000 10B5     		push	{r4, lr}
 117              	.LCFI0:
 118              		.cfi_def_cfa_offset 8
 119              		.cfi_offset 4, -8
 120              		.cfi_offset 14, -4
 121 0002 9DF814C0 		ldrb	ip, [sp, #20]	@ zero_extendqisi2
 165:Dsp/widget/wgt_core/UI_Controller.c ****     if (Obj == NULL)
 122              		.loc 1 165 5 is_stmt 1 view .LVU25
 123              		.loc 1 165 8 is_stmt 0 view .LVU26
 124 0006 D8B1     		cbz	r0, .L7
ARM GAS  /var/folders/lx/hc4sn_b53233_zkc9xbbl97r0000gp/T//cchcMLLT.s 			page 6


 125 0008 0446     		mov	r4, r0
 166:Dsp/widget/wgt_core/UI_Controller.c ****         return false;
 167:Dsp/widget/wgt_core/UI_Controller.c **** 
 168:Dsp/widget/wgt_core/UI_Controller.c ****     Obj->default_state = state;
 126              		.loc 1 168 5 is_stmt 1 view .LVU27
 127              		.loc 1 168 24 is_stmt 0 view .LVU28
 128 000a 80F80CC0 		strb	ip, [r0, #12]
 169:Dsp/widget/wgt_core/UI_Controller.c ****     Obj->state = state;
 129              		.loc 1 169 5 is_stmt 1 view .LVU29
 130              		.loc 1 169 16 is_stmt 0 view .LVU30
 131 000e 80F80DC0 		strb	ip, [r0, #13]
 170:Dsp/widget/wgt_core/UI_Controller.c ****     Obj->type = type;
 132              		.loc 1 170 5 is_stmt 1 view .LVU31
 133              		.loc 1 170 15 is_stmt 0 view .LVU32
 134 0012 9DF81000 		ldrb	r0, [sp, #16]	@ zero_extendqisi2
 135              	.LVL7:
 136              		.loc 1 170 15 view .LVU33
 137 0016 A073     		strb	r0, [r4, #14]
 171:Dsp/widget/wgt_core/UI_Controller.c **** 
 172:Dsp/widget/wgt_core/UI_Controller.c ****     UI_GenData_Init(&Obj->Gen_Data, label, x, y);
 138              		.loc 1 172 5 is_stmt 1 view .LVU34
 139 0018 DBB2     		uxtb	r3, r3
 140              		.loc 1 172 5 is_stmt 0 view .LVU35
 141 001a D2B2     		uxtb	r2, r2
 142              		.loc 1 172 5 view .LVU36
 143 001c 2046     		mov	r0, r4
 144 001e FFF7FEFF 		bl	UI_GenData_Init
 145              	.LVL8:
 173:Dsp/widget/wgt_core/UI_Controller.c **** 
 174:Dsp/widget/wgt_core/UI_Controller.c ****     Obj->width = width;
 146              		.loc 1 174 5 is_stmt 1 view .LVU37
 147              		.loc 1 174 16 is_stmt 0 view .LVU38
 148 0022 9DF80830 		ldrb	r3, [sp, #8]	@ zero_extendqisi2
 149 0026 E377     		strb	r3, [r4, #31]
 175:Dsp/widget/wgt_core/UI_Controller.c ****     Obj->height = height;
 150              		.loc 1 175 5 is_stmt 1 view .LVU39
 151              		.loc 1 175 17 is_stmt 0 view .LVU40
 152 0028 9DF80C30 		ldrb	r3, [sp, #12]	@ zero_extendqisi2
 153 002c 84F82030 		strb	r3, [r4, #32]
 176:Dsp/widget/wgt_core/UI_Controller.c **** 
 177:Dsp/widget/wgt_core/UI_Controller.c ****     Obj->PushDown_Label = DEFAULT_BUTTON_PUSH_LABEL;
 154              		.loc 1 177 5 is_stmt 1 view .LVU41
 155              		.loc 1 177 25 is_stmt 0 view .LVU42
 156 0030 044B     		ldr	r3, .L9
 157 0032 C4F81730 		str	r3, [r4, #23]	@ unaligned
 178:Dsp/widget/wgt_core/UI_Controller.c ****     Obj->Release_Label = DEFAULT_BUTTON_RELEASE_LABEL;
 158              		.loc 1 178 5 is_stmt 1 view .LVU43
 159              		.loc 1 178 24 is_stmt 0 view .LVU44
 160 0036 044B     		ldr	r3, .L9+4
 161 0038 C4F81B30 		str	r3, [r4, #27]	@ unaligned
 179:Dsp/widget/wgt_core/UI_Controller.c **** 
 180:Dsp/widget/wgt_core/UI_Controller.c ****     return true;
 162              		.loc 1 180 5 is_stmt 1 view .LVU45
 163              		.loc 1 180 12 is_stmt 0 view .LVU46
 164 003c 0120     		movs	r0, #1
 165              	.LVL9:
 166              	.L6:
ARM GAS  /var/folders/lx/hc4sn_b53233_zkc9xbbl97r0000gp/T//cchcMLLT.s 			page 7


 181:Dsp/widget/wgt_core/UI_Controller.c **** }
 167              		.loc 1 181 1 view .LVU47
 168 003e 10BD     		pop	{r4, pc}
 169              	.LVL10:
 170              	.L7:
 166:Dsp/widget/wgt_core/UI_Controller.c **** 
 171              		.loc 1 166 16 view .LVU48
 172 0040 0020     		movs	r0, #0
 173              	.LVL11:
 166:Dsp/widget/wgt_core/UI_Controller.c **** 
 174              		.loc 1 166 16 view .LVU49
 175 0042 FCE7     		b	.L6
 176              	.L10:
 177              		.align	2
 178              	.L9:
 179 0044 00000000 		.word	.LC0
 180 0048 04000000 		.word	.LC1
 181              		.cfi_endproc
 182              	.LFE4:
 184              		.section	.text.UI_Button_Set_Label,"ax",%progbits
 185              		.align	1
 186              		.syntax unified
 187              		.thumb
 188              		.thumb_func
 189              		.fpu fpv4-sp-d16
 191              	UI_Button_Set_Label:
 192              	.LVL12:
 193              	.LFB5:
 182:Dsp/widget/wgt_core/UI_Controller.c **** 
 183:Dsp/widget/wgt_core/UI_Controller.c **** static bool UI_Button_Set_Label(UI_ButtonObj_TypeDef *Obj, UI_Button_State_List state, char *label)
 184:Dsp/widget/wgt_core/UI_Controller.c **** {
 194              		.loc 1 184 1 is_stmt 1 view -0
 195              		.cfi_startproc
 196              		@ args = 0, pretend = 0, frame = 0
 197              		@ frame_needed = 0, uses_anonymous_args = 0
 198              		@ link register save eliminated.
 185:Dsp/widget/wgt_core/UI_Controller.c ****     if (Obj == NULL)
 199              		.loc 1 185 5 view .LVU51
 200              		.loc 1 185 8 is_stmt 0 view .LVU52
 201 0000 48B1     		cbz	r0, .L14
 186:Dsp/widget/wgt_core/UI_Controller.c ****         return false;
 187:Dsp/widget/wgt_core/UI_Controller.c **** 
 188:Dsp/widget/wgt_core/UI_Controller.c ****     if (state == UI_Btn_PushDwn)
 202              		.loc 1 188 5 is_stmt 1 view .LVU53
 203              		.loc 1 188 8 is_stmt 0 view .LVU54
 204 0002 0129     		cmp	r1, #1
 205 0004 03D0     		beq	.L15
 189:Dsp/widget/wgt_core/UI_Controller.c ****         Obj->PushDown_Label = label;
 190:Dsp/widget/wgt_core/UI_Controller.c ****     else
 191:Dsp/widget/wgt_core/UI_Controller.c ****         Obj->Release_Label = label;
 206              		.loc 1 191 9 is_stmt 1 view .LVU55
 207              		.loc 1 191 28 is_stmt 0 view .LVU56
 208 0006 C0F81B20 		str	r2, [r0, #27]	@ unaligned
 192:Dsp/widget/wgt_core/UI_Controller.c **** 
 193:Dsp/widget/wgt_core/UI_Controller.c ****     return true;
 209              		.loc 1 193 12 view .LVU57
 210 000a 0120     		movs	r0, #1
ARM GAS  /var/folders/lx/hc4sn_b53233_zkc9xbbl97r0000gp/T//cchcMLLT.s 			page 8


 211              	.LVL13:
 212              		.loc 1 193 12 view .LVU58
 213 000c 7047     		bx	lr
 214              	.LVL14:
 215              	.L15:
 189:Dsp/widget/wgt_core/UI_Controller.c ****         Obj->PushDown_Label = label;
 216              		.loc 1 189 9 is_stmt 1 view .LVU59
 189:Dsp/widget/wgt_core/UI_Controller.c ****         Obj->PushDown_Label = label;
 217              		.loc 1 189 29 is_stmt 0 view .LVU60
 218 000e C0F81720 		str	r2, [r0, #23]	@ unaligned
 219              		.loc 1 193 12 view .LVU61
 220 0012 0120     		movs	r0, #1
 221              	.LVL15:
 222              		.loc 1 193 12 view .LVU62
 223 0014 7047     		bx	lr
 224              	.LVL16:
 225              	.L14:
 186:Dsp/widget/wgt_core/UI_Controller.c **** 
 226              		.loc 1 186 16 view .LVU63
 227 0016 0020     		movs	r0, #0
 228              	.LVL17:
 194:Dsp/widget/wgt_core/UI_Controller.c **** }
 229              		.loc 1 194 1 view .LVU64
 230 0018 7047     		bx	lr
 231              		.cfi_endproc
 232              	.LFE5:
 234              		.section	.text.UI_Button_Set_TriggerCallback,"ax",%progbits
 235              		.align	1
 236              		.syntax unified
 237              		.thumb
 238              		.thumb_func
 239              		.fpu fpv4-sp-d16
 241              	UI_Button_Set_TriggerCallback:
 242              	.LVL18:
 243              	.LFB6:
 195:Dsp/widget/wgt_core/UI_Controller.c **** 
 196:Dsp/widget/wgt_core/UI_Controller.c **** static bool UI_Button_Set_TriggerCallback(UI_ButtonObj_TypeDef *Obj, UI_Button_Trigger_Type type, U
 197:Dsp/widget/wgt_core/UI_Controller.c **** {
 244              		.loc 1 197 1 is_stmt 1 view -0
 245              		.cfi_startproc
 246              		@ args = 0, pretend = 0, frame = 0
 247              		@ frame_needed = 0, uses_anonymous_args = 0
 248              		@ link register save eliminated.
 198:Dsp/widget/wgt_core/UI_Controller.c ****     if (Obj == NULL)
 249              		.loc 1 198 5 view .LVU66
 250              		.loc 1 198 8 is_stmt 0 view .LVU67
 251 0000 50B1     		cbz	r0, .L19
 199:Dsp/widget/wgt_core/UI_Controller.c ****         return false;
 200:Dsp/widget/wgt_core/UI_Controller.c **** 
 201:Dsp/widget/wgt_core/UI_Controller.c ****     if (type == Push_Trigger)
 252              		.loc 1 201 5 is_stmt 1 view .LVU68
 253              		.loc 1 201 8 is_stmt 0 view .LVU69
 254 0002 0129     		cmp	r1, #1
 255 0004 04D0     		beq	.L21
 202:Dsp/widget/wgt_core/UI_Controller.c ****     {
 203:Dsp/widget/wgt_core/UI_Controller.c ****         Obj->push_callback = callback;
 204:Dsp/widget/wgt_core/UI_Controller.c ****     }
ARM GAS  /var/folders/lx/hc4sn_b53233_zkc9xbbl97r0000gp/T//cchcMLLT.s 			page 9


 205:Dsp/widget/wgt_core/UI_Controller.c ****     else if (type == Release_Trigger)
 256              		.loc 1 205 10 is_stmt 1 view .LVU70
 257              		.loc 1 205 13 is_stmt 0 view .LVU71
 258 0006 49B9     		cbnz	r1, .L20
 206:Dsp/widget/wgt_core/UI_Controller.c ****     {
 207:Dsp/widget/wgt_core/UI_Controller.c ****         Obj->release_callback = callback;
 259              		.loc 1 207 9 is_stmt 1 view .LVU72
 260              		.loc 1 207 31 is_stmt 0 view .LVU73
 261 0008 C0F81320 		str	r2, [r0, #19]	@ unaligned
 208:Dsp/widget/wgt_core/UI_Controller.c ****     }
 209:Dsp/widget/wgt_core/UI_Controller.c ****     else
 210:Dsp/widget/wgt_core/UI_Controller.c ****         return false;
 211:Dsp/widget/wgt_core/UI_Controller.c **** 
 212:Dsp/widget/wgt_core/UI_Controller.c ****     return true;
 262              		.loc 1 212 12 view .LVU74
 263 000c 0120     		movs	r0, #1
 264              	.LVL19:
 265              		.loc 1 212 12 view .LVU75
 266 000e 7047     		bx	lr
 267              	.LVL20:
 268              	.L21:
 203:Dsp/widget/wgt_core/UI_Controller.c ****     }
 269              		.loc 1 203 9 is_stmt 1 view .LVU76
 203:Dsp/widget/wgt_core/UI_Controller.c ****     }
 270              		.loc 1 203 28 is_stmt 0 view .LVU77
 271 0010 C0F80F20 		str	r2, [r0, #15]	@ unaligned
 272              		.loc 1 212 12 view .LVU78
 273 0014 0120     		movs	r0, #1
 274              	.LVL21:
 275              		.loc 1 212 12 view .LVU79
 276 0016 7047     		bx	lr
 277              	.LVL22:
 278              	.L19:
 199:Dsp/widget/wgt_core/UI_Controller.c **** 
 279              		.loc 1 199 16 view .LVU80
 280 0018 0020     		movs	r0, #0
 281              	.LVL23:
 199:Dsp/widget/wgt_core/UI_Controller.c **** 
 282              		.loc 1 199 16 view .LVU81
 283 001a 7047     		bx	lr
 284              	.LVL24:
 285              	.L20:
 210:Dsp/widget/wgt_core/UI_Controller.c **** 
 286              		.loc 1 210 16 view .LVU82
 287 001c 0020     		movs	r0, #0
 288              	.LVL25:
 213:Dsp/widget/wgt_core/UI_Controller.c **** }
 289              		.loc 1 213 1 view .LVU83
 290 001e 7047     		bx	lr
 291              		.cfi_endproc
 292              	.LFE6:
 294              		.section	.text.UI_Button_Push,"ax",%progbits
 295              		.align	1
 296              		.syntax unified
 297              		.thumb
 298              		.thumb_func
 299              		.fpu fpv4-sp-d16
ARM GAS  /var/folders/lx/hc4sn_b53233_zkc9xbbl97r0000gp/T//cchcMLLT.s 			page 10


 301              	UI_Button_Push:
 302              	.LVL26:
 303              	.LFB7:
 214:Dsp/widget/wgt_core/UI_Controller.c **** 
 215:Dsp/widget/wgt_core/UI_Controller.c **** static bool UI_Button_Push(UI_ButtonObj_TypeDef *Obj)
 216:Dsp/widget/wgt_core/UI_Controller.c **** {
 304              		.loc 1 216 1 is_stmt 1 view -0
 305              		.cfi_startproc
 306              		@ args = 0, pretend = 0, frame = 0
 307              		@ frame_needed = 0, uses_anonymous_args = 0
 217:Dsp/widget/wgt_core/UI_Controller.c ****     if (Obj == NULL)
 308              		.loc 1 217 5 view .LVU85
 309              		.loc 1 217 8 is_stmt 0 view .LVU86
 310 0000 F0B1     		cbz	r0, .L26
 216:Dsp/widget/wgt_core/UI_Controller.c ****     if (Obj == NULL)
 311              		.loc 1 216 1 view .LVU87
 312 0002 08B5     		push	{r3, lr}
 313              	.LCFI1:
 314              		.cfi_def_cfa_offset 8
 315              		.cfi_offset 3, -8
 316              		.cfi_offset 14, -4
 317 0004 0346     		mov	r3, r0
 218:Dsp/widget/wgt_core/UI_Controller.c ****         return false;
 219:Dsp/widget/wgt_core/UI_Controller.c **** 
 220:Dsp/widget/wgt_core/UI_Controller.c ****     if (Obj->type == Lock_Btn)
 318              		.loc 1 220 5 is_stmt 1 view .LVU88
 319              		.loc 1 220 12 is_stmt 0 view .LVU89
 320 0006 827B     		ldrb	r2, [r0, #14]	@ zero_extendqisi2
 321              		.loc 1 220 8 view .LVU90
 322 0008 012A     		cmp	r2, #1
 323 000a 06D0     		beq	.L34
 221:Dsp/widget/wgt_core/UI_Controller.c ****     {
 222:Dsp/widget/wgt_core/UI_Controller.c ****         if (Obj->state == UI_Btn_RlsUp)
 223:Dsp/widget/wgt_core/UI_Controller.c ****             Obj->state = UI_Btn_PushDwn;
 224:Dsp/widget/wgt_core/UI_Controller.c ****         else
 225:Dsp/widget/wgt_core/UI_Controller.c ****             Obj->state = UI_Btn_RlsUp;
 226:Dsp/widget/wgt_core/UI_Controller.c ****     }
 227:Dsp/widget/wgt_core/UI_Controller.c ****     else if (Obj->type == Reset_Btn)
 324              		.loc 1 227 10 is_stmt 1 view .LVU91
 325              		.loc 1 227 13 is_stmt 0 view .LVU92
 326 000c D2B9     		cbnz	r2, .L27
 228:Dsp/widget/wgt_core/UI_Controller.c ****     {
 229:Dsp/widget/wgt_core/UI_Controller.c ****         if (Obj->default_state == Obj->state)
 327              		.loc 1 229 9 is_stmt 1 view .LVU93
 328              		.loc 1 229 16 is_stmt 0 view .LVU94
 329 000e 027B     		ldrb	r2, [r0, #12]	@ zero_extendqisi2
 330              		.loc 1 229 38 view .LVU95
 331 0010 417B     		ldrb	r1, [r0, #13]	@ zero_extendqisi2
 332              		.loc 1 229 12 view .LVU96
 333 0012 8A42     		cmp	r2, r1
 334 0014 0AD0     		beq	.L35
 230:Dsp/widget/wgt_core/UI_Controller.c ****         {
 231:Dsp/widget/wgt_core/UI_Controller.c ****             Obj->state = !Obj->default_state;
 232:Dsp/widget/wgt_core/UI_Controller.c **** 
 233:Dsp/widget/wgt_core/UI_Controller.c ****             if (Obj->push_callback != NULL)
 234:Dsp/widget/wgt_core/UI_Controller.c ****                 Obj->push_callback();
 235:Dsp/widget/wgt_core/UI_Controller.c ****         }
ARM GAS  /var/folders/lx/hc4sn_b53233_zkc9xbbl97r0000gp/T//cchcMLLT.s 			page 11


 236:Dsp/widget/wgt_core/UI_Controller.c ****     }
 237:Dsp/widget/wgt_core/UI_Controller.c ****     else
 238:Dsp/widget/wgt_core/UI_Controller.c ****         return false;
 239:Dsp/widget/wgt_core/UI_Controller.c **** 
 240:Dsp/widget/wgt_core/UI_Controller.c ****     return true;
 335              		.loc 1 240 12 view .LVU97
 336 0016 0120     		movs	r0, #1
 337              	.LVL27:
 338              	.L23:
 241:Dsp/widget/wgt_core/UI_Controller.c **** }
 339              		.loc 1 241 1 view .LVU98
 340 0018 08BD     		pop	{r3, pc}
 341              	.LVL28:
 342              	.L34:
 222:Dsp/widget/wgt_core/UI_Controller.c ****             Obj->state = UI_Btn_PushDwn;
 343              		.loc 1 222 9 is_stmt 1 view .LVU99
 222:Dsp/widget/wgt_core/UI_Controller.c ****             Obj->state = UI_Btn_PushDwn;
 344              		.loc 1 222 16 is_stmt 0 view .LVU100
 345 001a 427B     		ldrb	r2, [r0, #13]	@ zero_extendqisi2
 222:Dsp/widget/wgt_core/UI_Controller.c ****             Obj->state = UI_Btn_PushDwn;
 346              		.loc 1 222 12 view .LVU101
 347 001c 12B9     		cbnz	r2, .L25
 223:Dsp/widget/wgt_core/UI_Controller.c ****         else
 348              		.loc 1 223 13 is_stmt 1 view .LVU102
 223:Dsp/widget/wgt_core/UI_Controller.c ****         else
 349              		.loc 1 223 24 is_stmt 0 view .LVU103
 350 001e 0120     		movs	r0, #1
 351              	.LVL29:
 223:Dsp/widget/wgt_core/UI_Controller.c ****         else
 352              		.loc 1 223 24 view .LVU104
 353 0020 5873     		strb	r0, [r3, #13]
 354 0022 F9E7     		b	.L23
 355              	.LVL30:
 356              	.L25:
 225:Dsp/widget/wgt_core/UI_Controller.c ****     }
 357              		.loc 1 225 13 is_stmt 1 view .LVU105
 225:Dsp/widget/wgt_core/UI_Controller.c ****     }
 358              		.loc 1 225 24 is_stmt 0 view .LVU106
 359 0024 0022     		movs	r2, #0
 360 0026 4273     		strb	r2, [r0, #13]
 240:Dsp/widget/wgt_core/UI_Controller.c **** }
 361              		.loc 1 240 12 view .LVU107
 362 0028 0120     		movs	r0, #1
 363              	.LVL31:
 240:Dsp/widget/wgt_core/UI_Controller.c **** }
 364              		.loc 1 240 12 view .LVU108
 365 002a F5E7     		b	.L23
 366              	.LVL32:
 367              	.L35:
 231:Dsp/widget/wgt_core/UI_Controller.c **** 
 368              		.loc 1 231 13 is_stmt 1 view .LVU109
 231:Dsp/widget/wgt_core/UI_Controller.c **** 
 369              		.loc 1 231 26 is_stmt 0 view .LVU110
 370 002c B2FA82F2 		clz	r2, r2
 371 0030 5209     		lsrs	r2, r2, #5
 231:Dsp/widget/wgt_core/UI_Controller.c **** 
 372              		.loc 1 231 24 view .LVU111
ARM GAS  /var/folders/lx/hc4sn_b53233_zkc9xbbl97r0000gp/T//cchcMLLT.s 			page 12


 373 0032 4273     		strb	r2, [r0, #13]
 233:Dsp/widget/wgt_core/UI_Controller.c ****                 Obj->push_callback();
 374              		.loc 1 233 13 is_stmt 1 view .LVU112
 233:Dsp/widget/wgt_core/UI_Controller.c ****                 Obj->push_callback();
 375              		.loc 1 233 20 is_stmt 0 view .LVU113
 376 0034 D0F80F30 		ldr	r3, [r0, #15]	@ unaligned
 233:Dsp/widget/wgt_core/UI_Controller.c ****                 Obj->push_callback();
 377              		.loc 1 233 16 view .LVU114
 378 0038 33B1     		cbz	r3, .L29
 234:Dsp/widget/wgt_core/UI_Controller.c ****         }
 379              		.loc 1 234 17 is_stmt 1 view .LVU115
 380 003a 9847     		blx	r3
 381              	.LVL33:
 240:Dsp/widget/wgt_core/UI_Controller.c **** }
 382              		.loc 1 240 12 is_stmt 0 view .LVU116
 383 003c 0120     		movs	r0, #1
 384 003e EBE7     		b	.L23
 385              	.LVL34:
 386              	.L26:
 387              	.LCFI2:
 388              		.cfi_def_cfa_offset 0
 389              		.cfi_restore 3
 390              		.cfi_restore 14
 218:Dsp/widget/wgt_core/UI_Controller.c **** 
 391              		.loc 1 218 16 view .LVU117
 392 0040 0020     		movs	r0, #0
 393              	.LVL35:
 394              		.loc 1 241 1 view .LVU118
 395 0042 7047     		bx	lr
 396              	.LVL36:
 397              	.L27:
 398              	.LCFI3:
 399              		.cfi_def_cfa_offset 8
 400              		.cfi_offset 3, -8
 401              		.cfi_offset 14, -4
 238:Dsp/widget/wgt_core/UI_Controller.c **** 
 402              		.loc 1 238 16 view .LVU119
 403 0044 0020     		movs	r0, #0
 404              	.LVL37:
 238:Dsp/widget/wgt_core/UI_Controller.c **** 
 405              		.loc 1 238 16 view .LVU120
 406 0046 E7E7     		b	.L23
 407              	.LVL38:
 408              	.L29:
 240:Dsp/widget/wgt_core/UI_Controller.c **** }
 409              		.loc 1 240 12 view .LVU121
 410 0048 0120     		movs	r0, #1
 411              	.LVL39:
 240:Dsp/widget/wgt_core/UI_Controller.c **** }
 412              		.loc 1 240 12 view .LVU122
 413 004a E5E7     		b	.L23
 414              		.cfi_endproc
 415              	.LFE7:
 417              		.section	.text.UI_Button_Release,"ax",%progbits
 418              		.align	1
 419              		.syntax unified
 420              		.thumb
ARM GAS  /var/folders/lx/hc4sn_b53233_zkc9xbbl97r0000gp/T//cchcMLLT.s 			page 13


 421              		.thumb_func
 422              		.fpu fpv4-sp-d16
 424              	UI_Button_Release:
 425              	.LVL40:
 426              	.LFB8:
 242:Dsp/widget/wgt_core/UI_Controller.c **** 
 243:Dsp/widget/wgt_core/UI_Controller.c **** static bool UI_Button_Release(UI_ButtonObj_TypeDef *Obj)
 244:Dsp/widget/wgt_core/UI_Controller.c **** {
 427              		.loc 1 244 1 is_stmt 1 view -0
 428              		.cfi_startproc
 429              		@ args = 0, pretend = 0, frame = 0
 430              		@ frame_needed = 0, uses_anonymous_args = 0
 245:Dsp/widget/wgt_core/UI_Controller.c ****     if (Obj == NULL)
 431              		.loc 1 245 5 view .LVU124
 432              		.loc 1 245 8 is_stmt 0 view .LVU125
 433 0000 70B1     		cbz	r0, .L38
 244:Dsp/widget/wgt_core/UI_Controller.c ****     if (Obj == NULL)
 434              		.loc 1 244 1 view .LVU126
 435 0002 08B5     		push	{r3, lr}
 436              	.LCFI4:
 437              		.cfi_def_cfa_offset 8
 438              		.cfi_offset 3, -8
 439              		.cfi_offset 14, -4
 246:Dsp/widget/wgt_core/UI_Controller.c ****         return false;
 247:Dsp/widget/wgt_core/UI_Controller.c **** 
 248:Dsp/widget/wgt_core/UI_Controller.c ****     if (Obj->type == Lock_Btn)
 440              		.loc 1 248 5 is_stmt 1 view .LVU127
 441              		.loc 1 248 12 is_stmt 0 view .LVU128
 442 0004 827B     		ldrb	r2, [r0, #14]	@ zero_extendqisi2
 443              		.loc 1 248 8 view .LVU129
 444 0006 012A     		cmp	r2, #1
 445 0008 0CD0     		beq	.L39
 249:Dsp/widget/wgt_core/UI_Controller.c ****         return true;
 250:Dsp/widget/wgt_core/UI_Controller.c **** 
 251:Dsp/widget/wgt_core/UI_Controller.c ****     if (Obj->default_state != Obj->state)
 446              		.loc 1 251 5 is_stmt 1 view .LVU130
 447              		.loc 1 251 12 is_stmt 0 view .LVU131
 448 000a 027B     		ldrb	r2, [r0, #12]	@ zero_extendqisi2
 449              		.loc 1 251 34 view .LVU132
 450 000c 417B     		ldrb	r1, [r0, #13]	@ zero_extendqisi2
 451              		.loc 1 251 8 view .LVU133
 452 000e 8A42     		cmp	r2, r1
 453 0010 0AD0     		beq	.L40
 252:Dsp/widget/wgt_core/UI_Controller.c ****     {
 253:Dsp/widget/wgt_core/UI_Controller.c ****         Obj->state = Obj->default_state;
 454              		.loc 1 253 9 is_stmt 1 view .LVU134
 455              		.loc 1 253 20 is_stmt 0 view .LVU135
 456 0012 4273     		strb	r2, [r0, #13]
 254:Dsp/widget/wgt_core/UI_Controller.c **** 
 255:Dsp/widget/wgt_core/UI_Controller.c ****         if (Obj->release_callback != NULL)
 457              		.loc 1 255 9 is_stmt 1 view .LVU136
 458              		.loc 1 255 16 is_stmt 0 view .LVU137
 459 0014 D0F81330 		ldr	r3, [r0, #19]	@ unaligned
 460              		.loc 1 255 12 view .LVU138
 461 0018 43B1     		cbz	r3, .L41
 256:Dsp/widget/wgt_core/UI_Controller.c ****             Obj->release_callback();
 462              		.loc 1 256 13 is_stmt 1 view .LVU139
ARM GAS  /var/folders/lx/hc4sn_b53233_zkc9xbbl97r0000gp/T//cchcMLLT.s 			page 14


 463 001a 9847     		blx	r3
 464              	.LVL41:
 257:Dsp/widget/wgt_core/UI_Controller.c ****     }
 258:Dsp/widget/wgt_core/UI_Controller.c **** 
 259:Dsp/widget/wgt_core/UI_Controller.c ****     return true;
 465              		.loc 1 259 12 is_stmt 0 view .LVU140
 466 001c 0120     		movs	r0, #1
 467              	.L37:
 260:Dsp/widget/wgt_core/UI_Controller.c **** }
 468              		.loc 1 260 1 view .LVU141
 469 001e 08BD     		pop	{r3, pc}
 470              	.LVL42:
 471              	.L38:
 472              	.LCFI5:
 473              		.cfi_def_cfa_offset 0
 474              		.cfi_restore 3
 475              		.cfi_restore 14
 246:Dsp/widget/wgt_core/UI_Controller.c **** 
 476              		.loc 1 246 16 view .LVU142
 477 0020 0020     		movs	r0, #0
 478              	.LVL43:
 479              		.loc 1 260 1 view .LVU143
 480 0022 7047     		bx	lr
 481              	.LVL44:
 482              	.L39:
 483              	.LCFI6:
 484              		.cfi_def_cfa_offset 8
 485              		.cfi_offset 3, -8
 486              		.cfi_offset 14, -4
 249:Dsp/widget/wgt_core/UI_Controller.c **** 
 487              		.loc 1 249 16 view .LVU144
 488 0024 0120     		movs	r0, #1
 489              	.LVL45:
 249:Dsp/widget/wgt_core/UI_Controller.c **** 
 490              		.loc 1 249 16 view .LVU145
 491 0026 FAE7     		b	.L37
 492              	.LVL46:
 493              	.L40:
 259:Dsp/widget/wgt_core/UI_Controller.c **** }
 494              		.loc 1 259 12 view .LVU146
 495 0028 0120     		movs	r0, #1
 496              	.LVL47:
 259:Dsp/widget/wgt_core/UI_Controller.c **** }
 497              		.loc 1 259 12 view .LVU147
 498 002a F8E7     		b	.L37
 499              	.LVL48:
 500              	.L41:
 259:Dsp/widget/wgt_core/UI_Controller.c **** }
 501              		.loc 1 259 12 view .LVU148
 502 002c 0120     		movs	r0, #1
 503              	.LVL49:
 259:Dsp/widget/wgt_core/UI_Controller.c **** }
 504              		.loc 1 259 12 view .LVU149
 505 002e F6E7     		b	.L37
 506              		.cfi_endproc
 507              	.LFE8:
 509              		.section	.text.UI_Button_Move,"ax",%progbits
ARM GAS  /var/folders/lx/hc4sn_b53233_zkc9xbbl97r0000gp/T//cchcMLLT.s 			page 15


 510              		.align	1
 511              		.syntax unified
 512              		.thumb
 513              		.thumb_func
 514              		.fpu fpv4-sp-d16
 516              	UI_Button_Move:
 517              	.LVL50:
 518              	.LFB9:
 261:Dsp/widget/wgt_core/UI_Controller.c **** 
 262:Dsp/widget/wgt_core/UI_Controller.c **** static bool UI_Button_Move(UI_ButtonObj_TypeDef *Obj, uint8_t x, uint8_t y)
 263:Dsp/widget/wgt_core/UI_Controller.c **** {
 519              		.loc 1 263 1 is_stmt 1 view -0
 520              		.cfi_startproc
 521              		@ args = 0, pretend = 0, frame = 0
 522              		@ frame_needed = 0, uses_anonymous_args = 0
 264:Dsp/widget/wgt_core/UI_Controller.c ****     if (Obj == NULL)
 523              		.loc 1 264 5 view .LVU151
 524              		.loc 1 264 8 is_stmt 0 view .LVU152
 525 0000 28B1     		cbz	r0, .L48
 263:Dsp/widget/wgt_core/UI_Controller.c ****     if (Obj == NULL)
 526              		.loc 1 263 1 view .LVU153
 527 0002 08B5     		push	{r3, lr}
 528              	.LCFI7:
 529              		.cfi_def_cfa_offset 8
 530              		.cfi_offset 3, -8
 531              		.cfi_offset 14, -4
 265:Dsp/widget/wgt_core/UI_Controller.c ****         return false;
 266:Dsp/widget/wgt_core/UI_Controller.c **** 
 267:Dsp/widget/wgt_core/UI_Controller.c ****     return UI_Move(&(Obj->Gen_Data), x, y);
 532              		.loc 1 267 5 is_stmt 1 view .LVU154
 533              		.loc 1 267 12 is_stmt 0 view .LVU155
 534 0004 52B2     		sxtb	r2, r2
 535              		.loc 1 267 12 view .LVU156
 536 0006 49B2     		sxtb	r1, r1
 537              		.loc 1 267 12 view .LVU157
 538 0008 FFF7FEFF 		bl	UI_Move
 539              	.LVL51:
 268:Dsp/widget/wgt_core/UI_Controller.c **** }
 540              		.loc 1 268 1 view .LVU158
 541 000c 08BD     		pop	{r3, pc}
 542              	.LVL52:
 543              	.L48:
 544              	.LCFI8:
 545              		.cfi_def_cfa_offset 0
 546              		.cfi_restore 3
 547              		.cfi_restore 14
 265:Dsp/widget/wgt_core/UI_Controller.c ****         return false;
 548              		.loc 1 265 16 view .LVU159
 549 000e 0020     		movs	r0, #0
 550              	.LVL53:
 551              		.loc 1 268 1 view .LVU160
 552 0010 7047     		bx	lr
 553              		.cfi_endproc
 554              	.LFE9:
 556              		.section	.text.UI_Button_Ctl,"ax",%progbits
 557              		.align	1
 558              		.syntax unified
ARM GAS  /var/folders/lx/hc4sn_b53233_zkc9xbbl97r0000gp/T//cchcMLLT.s 			page 16


 559              		.thumb
 560              		.thumb_func
 561              		.fpu fpv4-sp-d16
 563              	UI_Button_Ctl:
 564              	.LVL54:
 565              	.LFB10:
 269:Dsp/widget/wgt_core/UI_Controller.c **** 
 270:Dsp/widget/wgt_core/UI_Controller.c **** static bool UI_Button_Ctl(UI_ButtonObj_TypeDef *Obj)
 271:Dsp/widget/wgt_core/UI_Controller.c **** {
 566              		.loc 1 271 1 is_stmt 1 view -0
 567              		.cfi_startproc
 568              		@ args = 0, pretend = 0, frame = 0
 569              		@ frame_needed = 0, uses_anonymous_args = 0
 272:Dsp/widget/wgt_core/UI_Controller.c ****     if (Obj == NULL)
 570              		.loc 1 272 5 view .LVU162
 571              		.loc 1 272 8 is_stmt 0 view .LVU163
 572 0000 0028     		cmp	r0, #0
 573 0002 7AD0     		beq	.L59
 271:Dsp/widget/wgt_core/UI_Controller.c ****     if (Obj == NULL)
 574              		.loc 1 271 1 view .LVU164
 575 0004 70B5     		push	{r4, r5, r6, lr}
 576              	.LCFI9:
 577              		.cfi_def_cfa_offset 16
 578              		.cfi_offset 4, -16
 579              		.cfi_offset 5, -12
 580              		.cfi_offset 6, -8
 581              		.cfi_offset 14, -4
 582 0006 84B0     		sub	sp, sp, #16
 583              	.LCFI10:
 584              		.cfi_def_cfa_offset 32
 585 0008 0446     		mov	r4, r0
 273:Dsp/widget/wgt_core/UI_Controller.c ****         return false;
 274:Dsp/widget/wgt_core/UI_Controller.c **** 
 275:Dsp/widget/wgt_core/UI_Controller.c ****     if (Obj->type == Lock_Btn)
 586              		.loc 1 275 5 is_stmt 1 view .LVU165
 587              		.loc 1 275 12 is_stmt 0 view .LVU166
 588 000a 837B     		ldrb	r3, [r0, #14]	@ zero_extendqisi2
 589              		.loc 1 275 8 view .LVU167
 590 000c 012B     		cmp	r3, #1
 591 000e 32D0     		beq	.L71
 592              	.LVL55:
 593              	.L55:
 276:Dsp/widget/wgt_core/UI_Controller.c ****     {
 277:Dsp/widget/wgt_core/UI_Controller.c ****         if (Obj->state == UI_Btn_PushDwn)
 278:Dsp/widget/wgt_core/UI_Controller.c ****         {
 279:Dsp/widget/wgt_core/UI_Controller.c ****             if (Obj->push_callback)
 280:Dsp/widget/wgt_core/UI_Controller.c ****                 Obj->push_callback();
 281:Dsp/widget/wgt_core/UI_Controller.c ****         }
 282:Dsp/widget/wgt_core/UI_Controller.c ****         else if (Obj->state == UI_Btn_RlsUp)
 283:Dsp/widget/wgt_core/UI_Controller.c ****         {
 284:Dsp/widget/wgt_core/UI_Controller.c ****             if (Obj->release_callback)
 285:Dsp/widget/wgt_core/UI_Controller.c ****                 Obj->release_callback();
 286:Dsp/widget/wgt_core/UI_Controller.c ****         }
 287:Dsp/widget/wgt_core/UI_Controller.c ****         else
 288:Dsp/widget/wgt_core/UI_Controller.c ****             return false;
 289:Dsp/widget/wgt_core/UI_Controller.c ****     }
 290:Dsp/widget/wgt_core/UI_Controller.c **** 
ARM GAS  /var/folders/lx/hc4sn_b53233_zkc9xbbl97r0000gp/T//cchcMLLT.s 			page 17


 291:Dsp/widget/wgt_core/UI_Controller.c ****     /* display button on screen object */
 292:Dsp/widget/wgt_core/UI_Controller.c ****     /* invert display color when button been push down */
 293:Dsp/widget/wgt_core/UI_Controller.c ****     if ((UI_DspInterface.draw_str != NULL) && (UI_DspInterface.fill_radius_rectangle != NULL) && (U
 594              		.loc 1 293 5 is_stmt 1 view .LVU168
 595              		.loc 1 293 25 is_stmt 0 view .LVU169
 596 0010 424B     		ldr	r3, .L75
 597 0012 1B68     		ldr	r3, [r3]
 598              		.loc 1 293 8 view .LVU170
 599 0014 002B     		cmp	r3, #0
 600 0016 74D0     		beq	.L61
 601              		.loc 1 293 63 discriminator 1 view .LVU171
 602 0018 404B     		ldr	r3, .L75
 603 001a 9D6A     		ldr	r5, [r3, #40]
 604              		.loc 1 293 44 discriminator 1 view .LVU172
 605 001c 002D     		cmp	r5, #0
 606 001e 73D0     		beq	.L62
 607              		.loc 1 293 114 discriminator 2 view .LVU173
 608 0020 DE68     		ldr	r6, [r3, #12]
 609              		.loc 1 293 95 discriminator 2 view .LVU174
 610 0022 002E     		cmp	r6, #0
 611 0024 72D0     		beq	.L63
 294:Dsp/widget/wgt_core/UI_Controller.c ****     {
 295:Dsp/widget/wgt_core/UI_Controller.c ****         if (Obj->state == UI_Btn_PushDwn)
 612              		.loc 1 295 9 is_stmt 1 view .LVU175
 613              		.loc 1 295 16 is_stmt 0 view .LVU176
 614 0026 637B     		ldrb	r3, [r4, #13]	@ zero_extendqisi2
 615              		.loc 1 295 12 view .LVU177
 616 0028 012B     		cmp	r3, #1
 617 002a 35D0     		beq	.L72
 296:Dsp/widget/wgt_core/UI_Controller.c ****         {
 297:Dsp/widget/wgt_core/UI_Controller.c ****             /* fill button frame */
 298:Dsp/widget/wgt_core/UI_Controller.c ****             UI_DspInterface.fill_radius_rectangle(Obj->Gen_Data.x, Obj->Gen_Data.y, Obj->width, Obj
 299:Dsp/widget/wgt_core/UI_Controller.c **** 
 300:Dsp/widget/wgt_core/UI_Controller.c ****             /* invert string display */
 301:Dsp/widget/wgt_core/UI_Controller.c ****             if (Obj->PushDown_Label != NULL)
 302:Dsp/widget/wgt_core/UI_Controller.c ****                 UI_DspInterface.draw_str(Default_Font, Obj->PushDown_Label, Obj->Gen_Data.x + 5, Ob
 303:Dsp/widget/wgt_core/UI_Controller.c ****         }
 304:Dsp/widget/wgt_core/UI_Controller.c ****         else
 305:Dsp/widget/wgt_core/UI_Controller.c ****         {
 306:Dsp/widget/wgt_core/UI_Controller.c ****             /* draw button frame */
 307:Dsp/widget/wgt_core/UI_Controller.c ****             UI_DspInterface.draw_radius_rectangle(Obj->Gen_Data.x, Obj->Gen_Data.y, Obj->width, Obj
 618              		.loc 1 307 13 is_stmt 1 view .LVU178
 619              		.loc 1 307 64 is_stmt 0 view .LVU179
 620 002c B4F90400 		ldrsh	r0, [r4, #4]	@ unaligned
 621              		.loc 1 307 81 view .LVU180
 622 0030 B4F90610 		ldrsh	r1, [r4, #6]	@ unaligned
 623              		.loc 1 307 13 view .LVU181
 624 0034 0123     		movs	r3, #1
 625 0036 0293     		str	r3, [sp, #8]
 626 0038 0193     		str	r3, [sp, #4]
 627 003a 0323     		movs	r3, #3
 628 003c 0093     		str	r3, [sp]
 629 003e 94F82030 		ldrb	r3, [r4, #32]	@ zero_extendqisi2
 630 0042 E27F     		ldrb	r2, [r4, #31]	@ zero_extendqisi2
 631 0044 49B2     		sxtb	r1, r1
 632 0046 40B2     		sxtb	r0, r0
 633 0048 B047     		blx	r6
ARM GAS  /var/folders/lx/hc4sn_b53233_zkc9xbbl97r0000gp/T//cchcMLLT.s 			page 18


 634              	.LVL56:
 308:Dsp/widget/wgt_core/UI_Controller.c **** 
 309:Dsp/widget/wgt_core/UI_Controller.c ****             if (Obj->type == Lock_Btn)
 635              		.loc 1 309 13 is_stmt 1 view .LVU182
 636              		.loc 1 309 20 is_stmt 0 view .LVU183
 637 004a A37B     		ldrb	r3, [r4, #14]	@ zero_extendqisi2
 638              		.loc 1 309 16 view .LVU184
 639 004c 012B     		cmp	r3, #1
 640 004e 42D0     		beq	.L73
 310:Dsp/widget/wgt_core/UI_Controller.c ****             {
 311:Dsp/widget/wgt_core/UI_Controller.c ****                 /* display label normally */
 312:Dsp/widget/wgt_core/UI_Controller.c ****                 if (Obj->Release_Label != NULL)
 313:Dsp/widget/wgt_core/UI_Controller.c ****                     UI_DspInterface.draw_str(Default_Font, Obj->Release_Label, Obj->Gen_Data.x + 9,
 314:Dsp/widget/wgt_core/UI_Controller.c ****             }
 315:Dsp/widget/wgt_core/UI_Controller.c ****             else
 316:Dsp/widget/wgt_core/UI_Controller.c ****             {
 317:Dsp/widget/wgt_core/UI_Controller.c ****                 if (Obj->PushDown_Label != NULL)
 641              		.loc 1 317 17 is_stmt 1 view .LVU185
 642              		.loc 1 317 24 is_stmt 0 view .LVU186
 643 0050 D4F81710 		ldr	r1, [r4, #23]	@ unaligned
 644              		.loc 1 317 20 view .LVU187
 645 0054 0029     		cmp	r1, #0
 646 0056 5FD0     		beq	.L66
 318:Dsp/widget/wgt_core/UI_Controller.c ****                     UI_DspInterface.draw_str(Default_Font, Obj->PushDown_Label, Obj->Gen_Data.x + 5
 647              		.loc 1 318 21 is_stmt 1 view .LVU188
 648              		.loc 1 318 36 is_stmt 0 view .LVU189
 649 0058 304B     		ldr	r3, .L75
 650 005a 1D68     		ldr	r5, [r3]
 651              		.loc 1 318 94 view .LVU190
 652 005c B4F90420 		ldrsh	r2, [r4, #4]	@ unaligned
 653              		.loc 1 318 97 view .LVU191
 654 0060 0532     		adds	r2, r2, #5
 655              		.loc 1 318 115 view .LVU192
 656 0062 B4F90630 		ldrsh	r3, [r4, #6]	@ unaligned
 657              		.loc 1 318 21 view .LVU193
 658 0066 0124     		movs	r4, #1
 659              	.LVL57:
 660              		.loc 1 318 21 view .LVU194
 661 0068 0094     		str	r4, [sp]
 662 006a 5BB2     		sxtb	r3, r3
 663 006c 52B2     		sxtb	r2, r2
 664 006e 0C20     		movs	r0, #12
 665 0070 A847     		blx	r5
 666              	.LVL58:
 319:Dsp/widget/wgt_core/UI_Controller.c ****             }
 320:Dsp/widget/wgt_core/UI_Controller.c ****         }
 321:Dsp/widget/wgt_core/UI_Controller.c ****     }
 322:Dsp/widget/wgt_core/UI_Controller.c ****     else
 323:Dsp/widget/wgt_core/UI_Controller.c ****         return false;
 324:Dsp/widget/wgt_core/UI_Controller.c **** 
 325:Dsp/widget/wgt_core/UI_Controller.c ****     return true;
 667              		.loc 1 325 12 view .LVU195
 668 0072 2046     		mov	r0, r4
 669 0074 46E0     		b	.L54
 670              	.LVL59:
 671              	.L71:
 277:Dsp/widget/wgt_core/UI_Controller.c ****         {
ARM GAS  /var/folders/lx/hc4sn_b53233_zkc9xbbl97r0000gp/T//cchcMLLT.s 			page 19


 672              		.loc 1 277 9 is_stmt 1 view .LVU196
 277:Dsp/widget/wgt_core/UI_Controller.c ****         {
 673              		.loc 1 277 16 is_stmt 0 view .LVU197
 674 0076 437B     		ldrb	r3, [r0, #13]	@ zero_extendqisi2
 277:Dsp/widget/wgt_core/UI_Controller.c ****         {
 675              		.loc 1 277 12 view .LVU198
 676 0078 012B     		cmp	r3, #1
 677 007a 07D0     		beq	.L74
 282:Dsp/widget/wgt_core/UI_Controller.c ****         {
 678              		.loc 1 282 14 is_stmt 1 view .LVU199
 282:Dsp/widget/wgt_core/UI_Controller.c ****         {
 679              		.loc 1 282 17 is_stmt 0 view .LVU200
 680 007c 002B     		cmp	r3, #0
 681 007e 3ED1     		bne	.L60
 284:Dsp/widget/wgt_core/UI_Controller.c ****                 Obj->release_callback();
 682              		.loc 1 284 13 is_stmt 1 view .LVU201
 284:Dsp/widget/wgt_core/UI_Controller.c ****                 Obj->release_callback();
 683              		.loc 1 284 20 is_stmt 0 view .LVU202
 684 0080 D0F81330 		ldr	r3, [r0, #19]	@ unaligned
 284:Dsp/widget/wgt_core/UI_Controller.c ****                 Obj->release_callback();
 685              		.loc 1 284 16 view .LVU203
 686 0084 002B     		cmp	r3, #0
 687 0086 C3D0     		beq	.L55
 285:Dsp/widget/wgt_core/UI_Controller.c ****         }
 688              		.loc 1 285 17 is_stmt 1 view .LVU204
 689 0088 9847     		blx	r3
 690              	.LVL60:
 285:Dsp/widget/wgt_core/UI_Controller.c ****         }
 691              		.loc 1 285 17 is_stmt 0 view .LVU205
 692 008a C1E7     		b	.L55
 693              	.LVL61:
 694              	.L74:
 279:Dsp/widget/wgt_core/UI_Controller.c ****                 Obj->push_callback();
 695              		.loc 1 279 13 is_stmt 1 view .LVU206
 279:Dsp/widget/wgt_core/UI_Controller.c ****                 Obj->push_callback();
 696              		.loc 1 279 20 is_stmt 0 view .LVU207
 697 008c D0F80F30 		ldr	r3, [r0, #15]	@ unaligned
 279:Dsp/widget/wgt_core/UI_Controller.c ****                 Obj->push_callback();
 698              		.loc 1 279 16 view .LVU208
 699 0090 002B     		cmp	r3, #0
 700 0092 BDD0     		beq	.L55
 280:Dsp/widget/wgt_core/UI_Controller.c ****         }
 701              		.loc 1 280 17 is_stmt 1 view .LVU209
 702 0094 9847     		blx	r3
 703              	.LVL62:
 280:Dsp/widget/wgt_core/UI_Controller.c ****         }
 704              		.loc 1 280 17 is_stmt 0 view .LVU210
 705 0096 BBE7     		b	.L55
 706              	.L72:
 298:Dsp/widget/wgt_core/UI_Controller.c **** 
 707              		.loc 1 298 13 is_stmt 1 view .LVU211
 298:Dsp/widget/wgt_core/UI_Controller.c **** 
 708              		.loc 1 298 64 is_stmt 0 view .LVU212
 709 0098 B4F90400 		ldrsh	r0, [r4, #4]	@ unaligned
 298:Dsp/widget/wgt_core/UI_Controller.c **** 
 710              		.loc 1 298 81 view .LVU213
 711 009c B4F90610 		ldrsh	r1, [r4, #6]	@ unaligned
ARM GAS  /var/folders/lx/hc4sn_b53233_zkc9xbbl97r0000gp/T//cchcMLLT.s 			page 20


 298:Dsp/widget/wgt_core/UI_Controller.c **** 
 712              		.loc 1 298 13 view .LVU214
 713 00a0 0193     		str	r3, [sp, #4]
 714 00a2 0323     		movs	r3, #3
 715 00a4 0093     		str	r3, [sp]
 716 00a6 94F82030 		ldrb	r3, [r4, #32]	@ zero_extendqisi2
 717 00aa E27F     		ldrb	r2, [r4, #31]	@ zero_extendqisi2
 718 00ac 49B2     		sxtb	r1, r1
 719 00ae 40B2     		sxtb	r0, r0
 720 00b0 A847     		blx	r5
 721              	.LVL63:
 301:Dsp/widget/wgt_core/UI_Controller.c ****                 UI_DspInterface.draw_str(Default_Font, Obj->PushDown_Label, Obj->Gen_Data.x + 5, Ob
 722              		.loc 1 301 13 is_stmt 1 view .LVU215
 301:Dsp/widget/wgt_core/UI_Controller.c ****                 UI_DspInterface.draw_str(Default_Font, Obj->PushDown_Label, Obj->Gen_Data.x + 5, Ob
 723              		.loc 1 301 20 is_stmt 0 view .LVU216
 724 00b2 D4F81710 		ldr	r1, [r4, #23]	@ unaligned
 301:Dsp/widget/wgt_core/UI_Controller.c ****                 UI_DspInterface.draw_str(Default_Font, Obj->PushDown_Label, Obj->Gen_Data.x + 5, Ob
 725              		.loc 1 301 16 view .LVU217
 726 00b6 59B3     		cbz	r1, .L64
 302:Dsp/widget/wgt_core/UI_Controller.c ****         }
 727              		.loc 1 302 17 is_stmt 1 view .LVU218
 302:Dsp/widget/wgt_core/UI_Controller.c ****         }
 728              		.loc 1 302 32 is_stmt 0 view .LVU219
 729 00b8 184B     		ldr	r3, .L75
 730 00ba 1D68     		ldr	r5, [r3]
 302:Dsp/widget/wgt_core/UI_Controller.c ****         }
 731              		.loc 1 302 90 view .LVU220
 732 00bc B4F90420 		ldrsh	r2, [r4, #4]	@ unaligned
 302:Dsp/widget/wgt_core/UI_Controller.c ****         }
 733              		.loc 1 302 93 view .LVU221
 734 00c0 0532     		adds	r2, r2, #5
 302:Dsp/widget/wgt_core/UI_Controller.c ****         }
 735              		.loc 1 302 111 view .LVU222
 736 00c2 B4F90630 		ldrsh	r3, [r4, #6]	@ unaligned
 302:Dsp/widget/wgt_core/UI_Controller.c ****         }
 737              		.loc 1 302 17 view .LVU223
 738 00c6 0124     		movs	r4, #1
 739              	.LVL64:
 302:Dsp/widget/wgt_core/UI_Controller.c ****         }
 740              		.loc 1 302 17 view .LVU224
 741 00c8 0094     		str	r4, [sp]
 742 00ca 5BB2     		sxtb	r3, r3
 743 00cc 52B2     		sxtb	r2, r2
 744 00ce 0C20     		movs	r0, #12
 745 00d0 A847     		blx	r5
 746              	.LVL65:
 747              		.loc 1 325 12 view .LVU225
 748 00d2 2046     		mov	r0, r4
 749 00d4 16E0     		b	.L54
 750              	.LVL66:
 751              	.L73:
 312:Dsp/widget/wgt_core/UI_Controller.c ****                     UI_DspInterface.draw_str(Default_Font, Obj->Release_Label, Obj->Gen_Data.x + 9,
 752              		.loc 1 312 17 is_stmt 1 view .LVU226
 312:Dsp/widget/wgt_core/UI_Controller.c ****                     UI_DspInterface.draw_str(Default_Font, Obj->Release_Label, Obj->Gen_Data.x + 9,
 753              		.loc 1 312 24 is_stmt 0 view .LVU227
 754 00d6 D4F81B10 		ldr	r1, [r4, #27]	@ unaligned
 312:Dsp/widget/wgt_core/UI_Controller.c ****                     UI_DspInterface.draw_str(Default_Font, Obj->Release_Label, Obj->Gen_Data.x + 9,
ARM GAS  /var/folders/lx/hc4sn_b53233_zkc9xbbl97r0000gp/T//cchcMLLT.s 			page 21


 755              		.loc 1 312 20 view .LVU228
 756 00da D9B1     		cbz	r1, .L65
 313:Dsp/widget/wgt_core/UI_Controller.c ****             }
 757              		.loc 1 313 21 is_stmt 1 view .LVU229
 313:Dsp/widget/wgt_core/UI_Controller.c ****             }
 758              		.loc 1 313 36 is_stmt 0 view .LVU230
 759 00dc 0F4B     		ldr	r3, .L75
 760 00de 1D68     		ldr	r5, [r3]
 313:Dsp/widget/wgt_core/UI_Controller.c ****             }
 761              		.loc 1 313 93 view .LVU231
 762 00e0 B4F90420 		ldrsh	r2, [r4, #4]	@ unaligned
 313:Dsp/widget/wgt_core/UI_Controller.c ****             }
 763              		.loc 1 313 96 view .LVU232
 764 00e4 0932     		adds	r2, r2, #9
 313:Dsp/widget/wgt_core/UI_Controller.c ****             }
 765              		.loc 1 313 114 view .LVU233
 766 00e6 B4F90630 		ldrsh	r3, [r4, #6]	@ unaligned
 313:Dsp/widget/wgt_core/UI_Controller.c ****             }
 767              		.loc 1 313 21 view .LVU234
 768 00ea 0124     		movs	r4, #1
 769              	.LVL67:
 313:Dsp/widget/wgt_core/UI_Controller.c ****             }
 770              		.loc 1 313 21 view .LVU235
 771 00ec 0094     		str	r4, [sp]
 772 00ee 5BB2     		sxtb	r3, r3
 773 00f0 52B2     		sxtb	r2, r2
 774 00f2 0C20     		movs	r0, #12
 775 00f4 A847     		blx	r5
 776              	.LVL68:
 777              		.loc 1 325 12 view .LVU236
 778 00f6 2046     		mov	r0, r4
 779 00f8 04E0     		b	.L54
 780              	.LVL69:
 781              	.L59:
 782              	.LCFI11:
 783              		.cfi_def_cfa_offset 0
 784              		.cfi_restore 4
 785              		.cfi_restore 5
 786              		.cfi_restore 6
 787              		.cfi_restore 14
 273:Dsp/widget/wgt_core/UI_Controller.c **** 
 788              		.loc 1 273 16 view .LVU237
 789 00fa 0020     		movs	r0, #0
 790              	.LVL70:
 326:Dsp/widget/wgt_core/UI_Controller.c **** }
 791              		.loc 1 326 1 view .LVU238
 792 00fc 7047     		bx	lr
 793              	.LVL71:
 794              	.L60:
 795              	.LCFI12:
 796              		.cfi_def_cfa_offset 32
 797              		.cfi_offset 4, -16
 798              		.cfi_offset 5, -12
 799              		.cfi_offset 6, -8
 800              		.cfi_offset 14, -4
 288:Dsp/widget/wgt_core/UI_Controller.c ****     }
 801              		.loc 1 288 20 view .LVU239
ARM GAS  /var/folders/lx/hc4sn_b53233_zkc9xbbl97r0000gp/T//cchcMLLT.s 			page 22


 802 00fe 0020     		movs	r0, #0
 803              	.LVL72:
 288:Dsp/widget/wgt_core/UI_Controller.c ****     }
 804              		.loc 1 288 20 view .LVU240
 805 0100 00E0     		b	.L54
 806              	.L61:
 323:Dsp/widget/wgt_core/UI_Controller.c **** 
 807              		.loc 1 323 16 view .LVU241
 808 0102 0020     		movs	r0, #0
 809              	.LVL73:
 810              	.L54:
 811              		.loc 1 326 1 view .LVU242
 812 0104 04B0     		add	sp, sp, #16
 813              	.LCFI13:
 814              		.cfi_remember_state
 815              		.cfi_def_cfa_offset 16
 816              		@ sp needed
 817 0106 70BD     		pop	{r4, r5, r6, pc}
 818              	.LVL74:
 819              	.L62:
 820              	.LCFI14:
 821              		.cfi_restore_state
 323:Dsp/widget/wgt_core/UI_Controller.c **** 
 822              		.loc 1 323 16 view .LVU243
 823 0108 0020     		movs	r0, #0
 824 010a FBE7     		b	.L54
 825              	.L63:
 826 010c 0020     		movs	r0, #0
 827 010e F9E7     		b	.L54
 828              	.L64:
 325:Dsp/widget/wgt_core/UI_Controller.c **** }
 829              		.loc 1 325 12 view .LVU244
 830 0110 0120     		movs	r0, #1
 831 0112 F7E7     		b	.L54
 832              	.L65:
 325:Dsp/widget/wgt_core/UI_Controller.c **** }
 833              		.loc 1 325 12 view .LVU245
 834 0114 0120     		movs	r0, #1
 835 0116 F5E7     		b	.L54
 836              	.L66:
 325:Dsp/widget/wgt_core/UI_Controller.c **** }
 837              		.loc 1 325 12 view .LVU246
 838 0118 0120     		movs	r0, #1
 839 011a F3E7     		b	.L54
 840              	.L76:
 841              		.align	2
 842              	.L75:
 843 011c 00000000 		.word	.LANCHOR0
 844              		.cfi_endproc
 845              	.LFE10:
 847              		.section	.text.UI_CheckBox_Init,"ax",%progbits
 848              		.align	1
 849              		.syntax unified
 850              		.thumb
 851              		.thumb_func
 852              		.fpu fpv4-sp-d16
 854              	UI_CheckBox_Init:
ARM GAS  /var/folders/lx/hc4sn_b53233_zkc9xbbl97r0000gp/T//cchcMLLT.s 			page 23


 855              	.LVL75:
 856              	.LFB11:
 327:Dsp/widget/wgt_core/UI_Controller.c **** 
 328:Dsp/widget/wgt_core/UI_Controller.c **** static bool UI_CheckBox_Init(UI_CheckBoxObj_TypeDef *Obj, char *label, int8_t x, int8_t y, bool sta
 329:Dsp/widget/wgt_core/UI_Controller.c **** {
 857              		.loc 1 329 1 is_stmt 1 view -0
 858              		.cfi_startproc
 859              		@ args = 4, pretend = 0, frame = 0
 860              		@ frame_needed = 0, uses_anonymous_args = 0
 330:Dsp/widget/wgt_core/UI_Controller.c ****     if (Obj == NULL)
 861              		.loc 1 330 5 view .LVU248
 862              		.loc 1 330 8 is_stmt 0 view .LVU249
 863 0000 78B1     		cbz	r0, .L79
 329:Dsp/widget/wgt_core/UI_Controller.c ****     if (Obj == NULL)
 864              		.loc 1 329 1 view .LVU250
 865 0002 10B5     		push	{r4, lr}
 866              	.LCFI15:
 867              		.cfi_def_cfa_offset 8
 868              		.cfi_offset 4, -8
 869              		.cfi_offset 14, -4
 870 0004 0446     		mov	r4, r0
 331:Dsp/widget/wgt_core/UI_Controller.c ****         return false;
 332:Dsp/widget/wgt_core/UI_Controller.c **** 
 333:Dsp/widget/wgt_core/UI_Controller.c ****     UI_GenData_Init(&Obj->Gen_Data, label, x, y);
 871              		.loc 1 333 5 is_stmt 1 view .LVU251
 872 0006 DBB2     		uxtb	r3, r3
 873              		.loc 1 333 5 is_stmt 0 view .LVU252
 874 0008 D2B2     		uxtb	r2, r2
 875              		.loc 1 333 5 view .LVU253
 876 000a FFF7FEFF 		bl	UI_GenData_Init
 877              	.LVL76:
 334:Dsp/widget/wgt_core/UI_Controller.c **** 
 335:Dsp/widget/wgt_core/UI_Controller.c ****     Obj->checked = state;
 878              		.loc 1 335 5 is_stmt 1 view .LVU254
 879              		.loc 1 335 18 is_stmt 0 view .LVU255
 880 000e 9DF80830 		ldrb	r3, [sp, #8]	@ zero_extendqisi2
 881 0012 2374     		strb	r3, [r4, #16]
 336:Dsp/widget/wgt_core/UI_Controller.c ****     Obj->callback = NULL;
 882              		.loc 1 336 5 is_stmt 1 view .LVU256
 883              		.loc 1 336 19 is_stmt 0 view .LVU257
 884 0014 0023     		movs	r3, #0
 885 0016 2373     		strb	r3, [r4, #12]
 886 0018 6373     		strb	r3, [r4, #13]
 887 001a A373     		strb	r3, [r4, #14]
 888 001c E373     		strb	r3, [r4, #15]
 337:Dsp/widget/wgt_core/UI_Controller.c **** 
 338:Dsp/widget/wgt_core/UI_Controller.c ****     return true;
 889              		.loc 1 338 5 is_stmt 1 view .LVU258
 890              		.loc 1 338 12 is_stmt 0 view .LVU259
 891 001e 0120     		movs	r0, #1
 339:Dsp/widget/wgt_core/UI_Controller.c **** }
 892              		.loc 1 339 1 view .LVU260
 893 0020 10BD     		pop	{r4, pc}
 894              	.LVL77:
 895              	.L79:
 896              	.LCFI16:
 897              		.cfi_def_cfa_offset 0
ARM GAS  /var/folders/lx/hc4sn_b53233_zkc9xbbl97r0000gp/T//cchcMLLT.s 			page 24


 898              		.cfi_restore 4
 899              		.cfi_restore 14
 331:Dsp/widget/wgt_core/UI_Controller.c **** 
 900              		.loc 1 331 16 view .LVU261
 901 0022 0020     		movs	r0, #0
 902              	.LVL78:
 903              		.loc 1 339 1 view .LVU262
 904 0024 7047     		bx	lr
 905              		.cfi_endproc
 906              	.LFE11:
 908              		.section	.text.UI_CheckBox_SetCallback,"ax",%progbits
 909              		.align	1
 910              		.syntax unified
 911              		.thumb
 912              		.thumb_func
 913              		.fpu fpv4-sp-d16
 915              	UI_CheckBox_SetCallback:
 916              	.LVL79:
 917              	.LFB12:
 340:Dsp/widget/wgt_core/UI_Controller.c **** 
 341:Dsp/widget/wgt_core/UI_Controller.c **** static bool UI_CheckBox_SetCallback(UI_CheckBoxObj_TypeDef *Obj, UI_CheckBoxTrigger_Callback callba
 342:Dsp/widget/wgt_core/UI_Controller.c **** {
 918              		.loc 1 342 1 is_stmt 1 view -0
 919              		.cfi_startproc
 920              		@ args = 0, pretend = 0, frame = 0
 921              		@ frame_needed = 0, uses_anonymous_args = 0
 922              		@ link register save eliminated.
 343:Dsp/widget/wgt_core/UI_Controller.c ****     if (Obj == NULL)
 923              		.loc 1 343 5 view .LVU264
 924              		.loc 1 343 8 is_stmt 0 view .LVU265
 925 0000 10B1     		cbz	r0, .L86
 344:Dsp/widget/wgt_core/UI_Controller.c ****         return false;
 345:Dsp/widget/wgt_core/UI_Controller.c **** 
 346:Dsp/widget/wgt_core/UI_Controller.c ****     Obj->callback = callback;
 926              		.loc 1 346 5 is_stmt 1 view .LVU266
 927              		.loc 1 346 19 is_stmt 0 view .LVU267
 928 0002 C160     		str	r1, [r0, #12]	@ unaligned
 347:Dsp/widget/wgt_core/UI_Controller.c **** 
 348:Dsp/widget/wgt_core/UI_Controller.c ****     return true;
 929              		.loc 1 348 5 is_stmt 1 view .LVU268
 930              		.loc 1 348 12 is_stmt 0 view .LVU269
 931 0004 0120     		movs	r0, #1
 932              	.LVL80:
 933              		.loc 1 348 12 view .LVU270
 934 0006 7047     		bx	lr
 935              	.LVL81:
 936              	.L86:
 344:Dsp/widget/wgt_core/UI_Controller.c ****         return false;
 937              		.loc 1 344 16 view .LVU271
 938 0008 0020     		movs	r0, #0
 939              	.LVL82:
 349:Dsp/widget/wgt_core/UI_Controller.c **** }
 940              		.loc 1 349 1 view .LVU272
 941 000a 7047     		bx	lr
 942              		.cfi_endproc
 943              	.LFE12:
 945              		.section	.text.UI_CheckBox_Move,"ax",%progbits
ARM GAS  /var/folders/lx/hc4sn_b53233_zkc9xbbl97r0000gp/T//cchcMLLT.s 			page 25


 946              		.align	1
 947              		.syntax unified
 948              		.thumb
 949              		.thumb_func
 950              		.fpu fpv4-sp-d16
 952              	UI_CheckBox_Move:
 953              	.LVL83:
 954              	.LFB13:
 350:Dsp/widget/wgt_core/UI_Controller.c **** 
 351:Dsp/widget/wgt_core/UI_Controller.c **** static bool UI_CheckBox_Move(UI_CheckBoxObj_TypeDef *Obj, int8_t x, int8_t y)
 352:Dsp/widget/wgt_core/UI_Controller.c **** {
 955              		.loc 1 352 1 is_stmt 1 view -0
 956              		.cfi_startproc
 957              		@ args = 0, pretend = 0, frame = 0
 958              		@ frame_needed = 0, uses_anonymous_args = 0
 353:Dsp/widget/wgt_core/UI_Controller.c ****     if (Obj == NULL)
 959              		.loc 1 353 5 view .LVU274
 960              		.loc 1 353 8 is_stmt 0 view .LVU275
 961 0000 18B1     		cbz	r0, .L89
 352:Dsp/widget/wgt_core/UI_Controller.c ****     if (Obj == NULL)
 962              		.loc 1 352 1 view .LVU276
 963 0002 08B5     		push	{r3, lr}
 964              	.LCFI17:
 965              		.cfi_def_cfa_offset 8
 966              		.cfi_offset 3, -8
 967              		.cfi_offset 14, -4
 354:Dsp/widget/wgt_core/UI_Controller.c ****         return false;
 355:Dsp/widget/wgt_core/UI_Controller.c **** 
 356:Dsp/widget/wgt_core/UI_Controller.c ****     return UI_Move(&(Obj->Gen_Data), x, y);
 968              		.loc 1 356 5 is_stmt 1 view .LVU277
 969              		.loc 1 356 12 is_stmt 0 view .LVU278
 970 0004 FFF7FEFF 		bl	UI_Move
 971              	.LVL84:
 357:Dsp/widget/wgt_core/UI_Controller.c **** }
 972              		.loc 1 357 1 view .LVU279
 973 0008 08BD     		pop	{r3, pc}
 974              	.LVL85:
 975              	.L89:
 976              	.LCFI18:
 977              		.cfi_def_cfa_offset 0
 978              		.cfi_restore 3
 979              		.cfi_restore 14
 354:Dsp/widget/wgt_core/UI_Controller.c ****         return false;
 980              		.loc 1 354 16 view .LVU280
 981 000a 0020     		movs	r0, #0
 982              	.LVL86:
 983              		.loc 1 357 1 view .LVU281
 984 000c 7047     		bx	lr
 985              		.cfi_endproc
 986              	.LFE13:
 988              		.section	.text.UI_CheckBox_Trigger,"ax",%progbits
 989              		.align	1
 990              		.syntax unified
 991              		.thumb
 992              		.thumb_func
 993              		.fpu fpv4-sp-d16
 995              	UI_CheckBox_Trigger:
ARM GAS  /var/folders/lx/hc4sn_b53233_zkc9xbbl97r0000gp/T//cchcMLLT.s 			page 26


 996              	.LVL87:
 997              	.LFB14:
 358:Dsp/widget/wgt_core/UI_Controller.c **** 
 359:Dsp/widget/wgt_core/UI_Controller.c **** static bool UI_CheckBox_Trigger(UI_CheckBoxObj_TypeDef *Obj)
 360:Dsp/widget/wgt_core/UI_Controller.c **** {
 998              		.loc 1 360 1 is_stmt 1 view -0
 999              		.cfi_startproc
 1000              		@ args = 0, pretend = 0, frame = 0
 1001              		@ frame_needed = 0, uses_anonymous_args = 0
 361:Dsp/widget/wgt_core/UI_Controller.c ****     if (Obj == NULL)
 1002              		.loc 1 361 5 view .LVU283
 1003              		.loc 1 361 8 is_stmt 0 view .LVU284
 1004 0000 50B1     		cbz	r0, .L96
 360:Dsp/widget/wgt_core/UI_Controller.c ****     if (Obj == NULL)
 1005              		.loc 1 360 1 view .LVU285
 1006 0002 08B5     		push	{r3, lr}
 1007              	.LCFI19:
 1008              		.cfi_def_cfa_offset 8
 1009              		.cfi_offset 3, -8
 1010              		.cfi_offset 14, -4
 1011 0004 0346     		mov	r3, r0
 362:Dsp/widget/wgt_core/UI_Controller.c ****         return false;
 363:Dsp/widget/wgt_core/UI_Controller.c **** 
 364:Dsp/widget/wgt_core/UI_Controller.c ****     Obj->checked = !Obj->checked;
 1012              		.loc 1 364 5 is_stmt 1 view .LVU286
 1013              		.loc 1 364 24 is_stmt 0 view .LVU287
 1014 0006 007C     		ldrb	r0, [r0, #16]	@ zero_extendqisi2
 1015              	.LVL88:
 1016              		.loc 1 364 5 view .LVU288
 1017 0008 80F00100 		eor	r0, r0, #1
 1018              		.loc 1 364 18 view .LVU289
 1019 000c 1874     		strb	r0, [r3, #16]
 365:Dsp/widget/wgt_core/UI_Controller.c **** 
 366:Dsp/widget/wgt_core/UI_Controller.c ****     if (Obj->callback)
 1020              		.loc 1 366 5 is_stmt 1 view .LVU290
 1021              		.loc 1 366 12 is_stmt 0 view .LVU291
 1022 000e DB68     		ldr	r3, [r3, #12]	@ unaligned
 1023              	.LVL89:
 1024              		.loc 1 366 8 view .LVU292
 1025 0010 23B1     		cbz	r3, .L97
 367:Dsp/widget/wgt_core/UI_Controller.c ****         Obj->callback(Obj->checked);
 1026              		.loc 1 367 9 is_stmt 1 view .LVU293
 1027 0012 9847     		blx	r3
 1028              	.LVL90:
 368:Dsp/widget/wgt_core/UI_Controller.c **** 
 369:Dsp/widget/wgt_core/UI_Controller.c ****     return true;
 1029              		.loc 1 369 12 is_stmt 0 view .LVU294
 1030 0014 0120     		movs	r0, #1
 1031              	.L95:
 370:Dsp/widget/wgt_core/UI_Controller.c **** }
 1032              		.loc 1 370 1 view .LVU295
 1033 0016 08BD     		pop	{r3, pc}
 1034              	.LVL91:
 1035              	.L96:
 1036              	.LCFI20:
 1037              		.cfi_def_cfa_offset 0
 1038              		.cfi_restore 3
ARM GAS  /var/folders/lx/hc4sn_b53233_zkc9xbbl97r0000gp/T//cchcMLLT.s 			page 27


 1039              		.cfi_restore 14
 362:Dsp/widget/wgt_core/UI_Controller.c **** 
 1040              		.loc 1 362 16 view .LVU296
 1041 0018 0020     		movs	r0, #0
 1042              	.LVL92:
 1043              		.loc 1 370 1 view .LVU297
 1044 001a 7047     		bx	lr
 1045              	.L97:
 1046              	.LCFI21:
 1047              		.cfi_def_cfa_offset 8
 1048              		.cfi_offset 3, -8
 1049              		.cfi_offset 14, -4
 369:Dsp/widget/wgt_core/UI_Controller.c **** }
 1050              		.loc 1 369 12 view .LVU298
 1051 001c 0120     		movs	r0, #1
 1052 001e FAE7     		b	.L95
 1053              		.cfi_endproc
 1054              	.LFE14:
 1056              		.section	.text.UI_CheckBox_Ctl,"ax",%progbits
 1057              		.align	1
 1058              		.syntax unified
 1059              		.thumb
 1060              		.thumb_func
 1061              		.fpu fpv4-sp-d16
 1063              	UI_CheckBox_Ctl:
 1064              	.LVL93:
 1065              	.LFB15:
 371:Dsp/widget/wgt_core/UI_Controller.c **** 
 372:Dsp/widget/wgt_core/UI_Controller.c **** static bool UI_CheckBox_Ctl(UI_CheckBoxObj_TypeDef *Obj)
 373:Dsp/widget/wgt_core/UI_Controller.c **** {
 1066              		.loc 1 373 1 is_stmt 1 view -0
 1067              		.cfi_startproc
 1068              		@ args = 0, pretend = 0, frame = 0
 1069              		@ frame_needed = 0, uses_anonymous_args = 0
 1070              		.loc 1 373 1 is_stmt 0 view .LVU300
 1071 0000 2DE9F043 		push	{r4, r5, r6, r7, r8, r9, lr}
 1072              	.LCFI22:
 1073              		.cfi_def_cfa_offset 28
 1074              		.cfi_offset 4, -28
 1075              		.cfi_offset 5, -24
 1076              		.cfi_offset 6, -20
 1077              		.cfi_offset 7, -16
 1078              		.cfi_offset 8, -12
 1079              		.cfi_offset 9, -8
 1080              		.cfi_offset 14, -4
 1081 0004 83B0     		sub	sp, sp, #12
 1082              	.LCFI23:
 1083              		.cfi_def_cfa_offset 40
 1084 0006 0546     		mov	r5, r0
 374:Dsp/widget/wgt_core/UI_Controller.c ****     uint16_t StrDsp_x = strlen(Obj->Gen_Data.label) * FONT_WIDTH;
 1085              		.loc 1 374 5 is_stmt 1 view .LVU301
 1086              		.loc 1 374 45 is_stmt 0 view .LVU302
 1087 0008 0668     		ldr	r6, [r0]	@ unaligned
 1088              		.loc 1 374 25 view .LVU303
 1089 000a 3046     		mov	r0, r6
 1090              	.LVL94:
 1091              		.loc 1 374 25 view .LVU304
ARM GAS  /var/folders/lx/hc4sn_b53233_zkc9xbbl97r0000gp/T//cchcMLLT.s 			page 28


 1092 000c FFF7FEFF 		bl	strlen
 1093              	.LVL95:
 375:Dsp/widget/wgt_core/UI_Controller.c ****     int16_t frame_y = Obj->Gen_Data.y + 3;
 1094              		.loc 1 375 5 is_stmt 1 view .LVU305
 1095              		.loc 1 375 36 is_stmt 0 view .LVU306
 1096 0010 B5F90620 		ldrsh	r2, [r5, #6]	@ unaligned
 1097              	.LVL96:
 376:Dsp/widget/wgt_core/UI_Controller.c **** 
 377:Dsp/widget/wgt_core/UI_Controller.c ****     if ((Obj == NULL) ||
 1098              		.loc 1 377 5 is_stmt 1 view .LVU307
 1099              		.loc 1 377 8 is_stmt 0 view .LVU308
 1100 0014 002D     		cmp	r5, #0
 1101 0016 3BD0     		beq	.L104
 1102 0018 C300     		lsls	r3, r0, #3
 1103 001a 9FB2     		uxth	r7, r3
 1104 001c 13B2     		sxth	r3, r2
 1105 001e 92B2     		uxth	r2, r2
 1106              	.LVL97:
 1107              		.loc 1 377 8 view .LVU309
 1108 0020 0332     		adds	r2, r2, #3
 1109              	.LVL98:
 1110              		.loc 1 377 8 view .LVU310
 1111 0022 94B2     		uxth	r4, r2
 378:Dsp/widget/wgt_core/UI_Controller.c ****         (UI_DspInterface.draw_str == NULL) ||
 1112              		.loc 1 378 25 discriminator 1 view .LVU311
 1113 0024 1F4A     		ldr	r2, .L110
 1114              	.LVL99:
 1115              		.loc 1 378 25 discriminator 1 view .LVU312
 1116 0026 D2F80080 		ldr	r8, [r2]
 377:Dsp/widget/wgt_core/UI_Controller.c ****         (UI_DspInterface.draw_str == NULL) ||
 1117              		.loc 1 377 23 discriminator 1 view .LVU313
 1118 002a B8F1000F 		cmp	r8, #0
 1119 002e 31D0     		beq	.L105
 379:Dsp/widget/wgt_core/UI_Controller.c ****         (UI_DspInterface.fill_rectangle == NULL) ||
 1120              		.loc 1 379 25 view .LVU314
 1121 0030 D269     		ldr	r2, [r2, #28]
 378:Dsp/widget/wgt_core/UI_Controller.c ****         (UI_DspInterface.draw_str == NULL) ||
 1122              		.loc 1 378 44 view .LVU315
 1123 0032 002A     		cmp	r2, #0
 1124 0034 30D0     		beq	.L106
 380:Dsp/widget/wgt_core/UI_Controller.c ****         (UI_DspInterface.draw_rectangle == NULL))
 1125              		.loc 1 380 25 view .LVU316
 1126 0036 1B4A     		ldr	r2, .L110
 1127 0038 1269     		ldr	r2, [r2, #16]
 379:Dsp/widget/wgt_core/UI_Controller.c ****         (UI_DspInterface.fill_rectangle == NULL) ||
 1128              		.loc 1 379 50 view .LVU317
 1129 003a 7AB3     		cbz	r2, .L107
 381:Dsp/widget/wgt_core/UI_Controller.c ****         return false;
 382:Dsp/widget/wgt_core/UI_Controller.c **** 
 383:Dsp/widget/wgt_core/UI_Controller.c ****     UI_DspInterface.draw_str(Default_Font, Obj->Gen_Data.label, Obj->Gen_Data.x + 3, Obj->Gen_Data.
 1130              		.loc 1 383 5 is_stmt 1 view .LVU318
 1131              		.loc 1 383 78 is_stmt 0 view .LVU319
 1132 003c B5F90420 		ldrsh	r2, [r5, #4]	@ unaligned
 1133              		.loc 1 383 81 view .LVU320
 1134 0040 0332     		adds	r2, r2, #3
 1135              		.loc 1 383 5 view .LVU321
 1136 0042 4FF00109 		mov	r9, #1
ARM GAS  /var/folders/lx/hc4sn_b53233_zkc9xbbl97r0000gp/T//cchcMLLT.s 			page 29


 1137 0046 CDF80090 		str	r9, [sp]
 1138 004a 5BB2     		sxtb	r3, r3
 1139              	.LVL100:
 1140              		.loc 1 383 5 view .LVU322
 1141 004c 52B2     		sxtb	r2, r2
 1142 004e 3146     		mov	r1, r6
 1143 0050 0C20     		movs	r0, #12
 1144              	.LVL101:
 1145              		.loc 1 383 5 view .LVU323
 1146 0052 C047     		blx	r8
 1147              	.LVL102:
 384:Dsp/widget/wgt_core/UI_Controller.c **** 
 385:Dsp/widget/wgt_core/UI_Controller.c ****     StrDsp_x += DEFAULT_CHECKBOX_OFFSET;
 1148              		.loc 1 385 5 is_stmt 1 view .LVU324
 1149              		.loc 1 385 14 is_stmt 0 view .LVU325
 1150 0054 781D     		adds	r0, r7, #5
 1151 0056 86B2     		uxth	r6, r0
 1152              	.LVL103:
 386:Dsp/widget/wgt_core/UI_Controller.c **** 
 387:Dsp/widget/wgt_core/UI_Controller.c ****     UI_DspInterface.draw_rectangle(StrDsp_x, frame_y, DEFAULT_CHECKBOX_FRAME_SIZE, DEFAULT_CHECKBOX
 1153              		.loc 1 387 5 is_stmt 1 view .LVU326
 1154              		.loc 1 387 20 is_stmt 0 view .LVU327
 1155 0058 124B     		ldr	r3, .L110
 1156 005a 1F69     		ldr	r7, [r3, #16]
 1157              		.loc 1 387 5 view .LVU328
 1158 005c CDF80490 		str	r9, [sp, #4]
 1159 0060 CDF80090 		str	r9, [sp]
 1160 0064 0723     		movs	r3, #7
 1161 0066 1A46     		mov	r2, r3
 1162 0068 61B2     		sxtb	r1, r4
 1163 006a 40B2     		sxtb	r0, r0
 1164 006c B847     		blx	r7
 1165              	.LVL104:
 388:Dsp/widget/wgt_core/UI_Controller.c **** 
 389:Dsp/widget/wgt_core/UI_Controller.c ****     if (Obj->checked)
 1166              		.loc 1 389 5 is_stmt 1 view .LVU329
 1167              		.loc 1 389 12 is_stmt 0 view .LVU330
 1168 006e 2D7C     		ldrb	r5, [r5, #16]	@ zero_extendqisi2
 1169              	.LVL105:
 1170              		.loc 1 389 8 view .LVU331
 1171 0070 B5B1     		cbz	r5, .L108
 390:Dsp/widget/wgt_core/UI_Controller.c ****         UI_DspInterface.fill_rectangle(StrDsp_x + 2, frame_y + 2, DEFAULT_CHECKBOX_FILLFRAME, DEFAU
 1172              		.loc 1 390 9 is_stmt 1 view .LVU332
 1173              		.loc 1 390 24 is_stmt 0 view .LVU333
 1174 0072 0C4B     		ldr	r3, .L110
 1175 0074 DF69     		ldr	r7, [r3, #28]
 1176              		.loc 1 390 49 view .LVU334
 1177 0076 B01C     		adds	r0, r6, #2
 1178              		.loc 1 390 62 view .LVU335
 1179 0078 A11C     		adds	r1, r4, #2
 1180              		.loc 1 390 9 view .LVU336
 1181 007a CDF80090 		str	r9, [sp]
 1182 007e 0323     		movs	r3, #3
 1183 0080 1A46     		mov	r2, r3
 1184 0082 49B2     		sxtb	r1, r1
 1185 0084 40B2     		sxtb	r0, r0
 1186 0086 B847     		blx	r7
ARM GAS  /var/folders/lx/hc4sn_b53233_zkc9xbbl97r0000gp/T//cchcMLLT.s 			page 30


 1187              	.LVL106:
 1188              	.L103:
 391:Dsp/widget/wgt_core/UI_Controller.c **** 
 392:Dsp/widget/wgt_core/UI_Controller.c ****     return true;
 393:Dsp/widget/wgt_core/UI_Controller.c **** }
 1189              		.loc 1 393 1 view .LVU337
 1190 0088 2846     		mov	r0, r5
 1191 008a 03B0     		add	sp, sp, #12
 1192              	.LCFI24:
 1193              		.cfi_remember_state
 1194              		.cfi_def_cfa_offset 28
 1195              		@ sp needed
 1196 008c BDE8F083 		pop	{r4, r5, r6, r7, r8, r9, pc}
 1197              	.LVL107:
 1198              	.L104:
 1199              	.LCFI25:
 1200              		.cfi_restore_state
 381:Dsp/widget/wgt_core/UI_Controller.c **** 
 1201              		.loc 1 381 16 view .LVU338
 1202 0090 0025     		movs	r5, #0
 1203              	.LVL108:
 381:Dsp/widget/wgt_core/UI_Controller.c **** 
 1204              		.loc 1 381 16 view .LVU339
 1205 0092 F9E7     		b	.L103
 1206              	.LVL109:
 1207              	.L105:
 381:Dsp/widget/wgt_core/UI_Controller.c **** 
 1208              		.loc 1 381 16 view .LVU340
 1209 0094 0025     		movs	r5, #0
 1210              	.LVL110:
 381:Dsp/widget/wgt_core/UI_Controller.c **** 
 1211              		.loc 1 381 16 view .LVU341
 1212 0096 F7E7     		b	.L103
 1213              	.LVL111:
 1214              	.L106:
 381:Dsp/widget/wgt_core/UI_Controller.c **** 
 1215              		.loc 1 381 16 view .LVU342
 1216 0098 0025     		movs	r5, #0
 1217              	.LVL112:
 381:Dsp/widget/wgt_core/UI_Controller.c **** 
 1218              		.loc 1 381 16 view .LVU343
 1219 009a F5E7     		b	.L103
 1220              	.LVL113:
 1221              	.L107:
 381:Dsp/widget/wgt_core/UI_Controller.c **** 
 1222              		.loc 1 381 16 view .LVU344
 1223 009c 0025     		movs	r5, #0
 1224              	.LVL114:
 381:Dsp/widget/wgt_core/UI_Controller.c **** 
 1225              		.loc 1 381 16 view .LVU345
 1226 009e F3E7     		b	.L103
 1227              	.LVL115:
 1228              	.L108:
 392:Dsp/widget/wgt_core/UI_Controller.c **** }
 1229              		.loc 1 392 12 view .LVU346
 1230 00a0 0125     		movs	r5, #1
 1231 00a2 F1E7     		b	.L103
ARM GAS  /var/folders/lx/hc4sn_b53233_zkc9xbbl97r0000gp/T//cchcMLLT.s 			page 31


 1232              	.L111:
 1233              		.align	2
 1234              	.L110:
 1235 00a4 00000000 		.word	.LANCHOR0
 1236              		.cfi_endproc
 1237              	.LFE15:
 1239              		.section	.text.UI_Set_DspInterface,"ax",%progbits
 1240              		.align	1
 1241              		.global	UI_Set_DspInterface
 1242              		.syntax unified
 1243              		.thumb
 1244              		.thumb_func
 1245              		.fpu fpv4-sp-d16
 1247              	UI_Set_DspInterface:
 1248              	.LVL116:
 1249              	.LFB0:
  63:Dsp/widget/wgt_core/UI_Controller.c ****     UI_DspInterface.draw_circle = circle;
 1250              		.loc 1 63 1 is_stmt 1 view -0
 1251              		.cfi_startproc
 1252              		@ args = 28, pretend = 0, frame = 0
 1253              		@ frame_needed = 0, uses_anonymous_args = 0
 1254              		@ link register save eliminated.
  63:Dsp/widget/wgt_core/UI_Controller.c ****     UI_DspInterface.draw_circle = circle;
 1255              		.loc 1 63 1 is_stmt 0 view .LVU348
 1256 0000 30B4     		push	{r4, r5}
 1257              	.LCFI26:
 1258              		.cfi_def_cfa_offset 8
 1259              		.cfi_offset 4, -8
 1260              		.cfi_offset 5, -4
  64:Dsp/widget/wgt_core/UI_Controller.c ****     UI_DspInterface.draw_circle_section = circle_section;
 1261              		.loc 1 64 5 is_stmt 1 view .LVU349
  64:Dsp/widget/wgt_core/UI_Controller.c ****     UI_DspInterface.draw_circle_section = circle_section;
 1262              		.loc 1 64 33 is_stmt 0 view .LVU350
 1263 0002 0A4C     		ldr	r4, .L114
 1264 0004 029D     		ldr	r5, [sp, #8]
 1265 0006 6561     		str	r5, [r4, #20]
  65:Dsp/widget/wgt_core/UI_Controller.c ****     UI_DspInterface.draw_line = line;
 1266              		.loc 1 65 5 is_stmt 1 view .LVU351
  65:Dsp/widget/wgt_core/UI_Controller.c ****     UI_DspInterface.draw_line = line;
 1267              		.loc 1 65 41 is_stmt 0 view .LVU352
 1268 0008 039D     		ldr	r5, [sp, #12]
 1269 000a A561     		str	r5, [r4, #24]
  66:Dsp/widget/wgt_core/UI_Controller.c ****     UI_DspInterface.draw_point = point;
 1270              		.loc 1 66 5 is_stmt 1 view .LVU353
  66:Dsp/widget/wgt_core/UI_Controller.c ****     UI_DspInterface.draw_point = point;
 1271              		.loc 1 66 31 is_stmt 0 view .LVU354
 1272 000c A160     		str	r1, [r4, #8]
  67:Dsp/widget/wgt_core/UI_Controller.c ****     UI_DspInterface.draw_rectangle = rectangle;
 1273              		.loc 1 67 5 is_stmt 1 view .LVU355
  67:Dsp/widget/wgt_core/UI_Controller.c ****     UI_DspInterface.draw_rectangle = rectangle;
 1274              		.loc 1 67 32 is_stmt 0 view .LVU356
 1275 000e 6060     		str	r0, [r4, #4]
  68:Dsp/widget/wgt_core/UI_Controller.c ****     UI_DspInterface.draw_radius_rectangle = radius_rectangle;
 1276              		.loc 1 68 5 is_stmt 1 view .LVU357
  68:Dsp/widget/wgt_core/UI_Controller.c ****     UI_DspInterface.draw_radius_rectangle = radius_rectangle;
 1277              		.loc 1 68 36 is_stmt 0 view .LVU358
 1278 0010 2261     		str	r2, [r4, #16]
ARM GAS  /var/folders/lx/hc4sn_b53233_zkc9xbbl97r0000gp/T//cchcMLLT.s 			page 32


  69:Dsp/widget/wgt_core/UI_Controller.c ****     UI_DspInterface.draw_str = str;
 1279              		.loc 1 69 5 is_stmt 1 view .LVU359
  69:Dsp/widget/wgt_core/UI_Controller.c ****     UI_DspInterface.draw_str = str;
 1280              		.loc 1 69 43 is_stmt 0 view .LVU360
 1281 0012 E360     		str	r3, [r4, #12]
  70:Dsp/widget/wgt_core/UI_Controller.c **** 
 1282              		.loc 1 70 5 is_stmt 1 view .LVU361
  70:Dsp/widget/wgt_core/UI_Controller.c **** 
 1283              		.loc 1 70 30 is_stmt 0 view .LVU362
 1284 0014 049B     		ldr	r3, [sp, #16]
 1285              	.LVL117:
  70:Dsp/widget/wgt_core/UI_Controller.c **** 
 1286              		.loc 1 70 30 view .LVU363
 1287 0016 2360     		str	r3, [r4]
  72:Dsp/widget/wgt_core/UI_Controller.c ****     UI_DspInterface.fill_circle_section = fillcircle_section;
 1288              		.loc 1 72 5 is_stmt 1 view .LVU364
  72:Dsp/widget/wgt_core/UI_Controller.c ****     UI_DspInterface.fill_circle_section = fillcircle_section;
 1289              		.loc 1 72 33 is_stmt 0 view .LVU365
 1290 0018 059B     		ldr	r3, [sp, #20]
 1291 001a 2362     		str	r3, [r4, #32]
  73:Dsp/widget/wgt_core/UI_Controller.c ****     UI_DspInterface.fill_radius_rectangle = fill_radius_rectangle;
 1292              		.loc 1 73 5 is_stmt 1 view .LVU366
  73:Dsp/widget/wgt_core/UI_Controller.c ****     UI_DspInterface.fill_radius_rectangle = fill_radius_rectangle;
 1293              		.loc 1 73 41 is_stmt 0 view .LVU367
 1294 001c 069B     		ldr	r3, [sp, #24]
 1295 001e 6362     		str	r3, [r4, #36]
  74:Dsp/widget/wgt_core/UI_Controller.c ****     UI_DspInterface.fill_rectangle = fill_rectangle;
 1296              		.loc 1 74 5 is_stmt 1 view .LVU368
  74:Dsp/widget/wgt_core/UI_Controller.c ****     UI_DspInterface.fill_rectangle = fill_rectangle;
 1297              		.loc 1 74 43 is_stmt 0 view .LVU369
 1298 0020 089B     		ldr	r3, [sp, #32]
 1299 0022 A362     		str	r3, [r4, #40]
  75:Dsp/widget/wgt_core/UI_Controller.c **** }
 1300              		.loc 1 75 5 is_stmt 1 view .LVU370
  75:Dsp/widget/wgt_core/UI_Controller.c **** }
 1301              		.loc 1 75 36 is_stmt 0 view .LVU371
 1302 0024 079B     		ldr	r3, [sp, #28]
 1303 0026 E361     		str	r3, [r4, #28]
  76:Dsp/widget/wgt_core/UI_Controller.c **** 
 1304              		.loc 1 76 1 view .LVU372
 1305 0028 30BC     		pop	{r4, r5}
 1306              	.LCFI27:
 1307              		.cfi_restore 5
 1308              		.cfi_restore 4
 1309              		.cfi_def_cfa_offset 0
 1310              	.LVL118:
  76:Dsp/widget/wgt_core/UI_Controller.c **** 
 1311              		.loc 1 76 1 view .LVU373
 1312 002a 7047     		bx	lr
 1313              	.L115:
 1314              		.align	2
 1315              	.L114:
 1316 002c 00000000 		.word	.LANCHOR0
 1317              		.cfi_endproc
 1318              	.LFE0:
 1320              		.section	.text.UI_ShowSelector,"ax",%progbits
 1321              		.align	1
ARM GAS  /var/folders/lx/hc4sn_b53233_zkc9xbbl97r0000gp/T//cchcMLLT.s 			page 33


 1322              		.global	UI_ShowSelector
 1323              		.syntax unified
 1324              		.thumb
 1325              		.thumb_func
 1326              		.fpu fpv4-sp-d16
 1328              	UI_ShowSelector:
 1329              	.LVL119:
 1330              	.LFB1:
  81:Dsp/widget/wgt_core/UI_Controller.c ****     /* button selector coordinate */
 1331              		.loc 1 81 1 is_stmt 1 view -0
 1332              		.cfi_startproc
 1333              		@ args = 0, pretend = 0, frame = 0
 1334              		@ frame_needed = 0, uses_anonymous_args = 0
  83:Dsp/widget/wgt_core/UI_Controller.c ****     int16_t Btn_Slct_LftUp_Y = 0;
 1335              		.loc 1 83 5 view .LVU375
  84:Dsp/widget/wgt_core/UI_Controller.c ****     int16_t Btn_Slct_LftDwn_X = 0;
 1336              		.loc 1 84 5 view .LVU376
  85:Dsp/widget/wgt_core/UI_Controller.c ****     int16_t Btn_Slct_LftDwn_Y = 0;
 1337              		.loc 1 85 5 view .LVU377
  86:Dsp/widget/wgt_core/UI_Controller.c ****     int16_t Btn_Slct_RgtUp_X = 0;
 1338              		.loc 1 86 5 view .LVU378
  87:Dsp/widget/wgt_core/UI_Controller.c ****     int16_t Btn_Slct_RgtUp_Y = 0;
 1339              		.loc 1 87 5 view .LVU379
  88:Dsp/widget/wgt_core/UI_Controller.c ****     int16_t Btn_Slct_RgtDwn_X = 0;
 1340              		.loc 1 88 5 view .LVU380
  89:Dsp/widget/wgt_core/UI_Controller.c ****     int16_t Btn_Slct_RgtDwn_Y = 0;
 1341              		.loc 1 89 5 view .LVU381
  90:Dsp/widget/wgt_core/UI_Controller.c **** 
 1342              		.loc 1 90 5 view .LVU382
  93:Dsp/widget/wgt_core/UI_Controller.c ****     int16_t block_y;
 1343              		.loc 1 93 5 view .LVU383
  94:Dsp/widget/wgt_core/UI_Controller.c **** 
 1344              		.loc 1 94 5 view .LVU384
  96:Dsp/widget/wgt_core/UI_Controller.c ****         (UI_DspInterface.fill_circle_section == NULL))
 1345              		.loc 1 96 5 view .LVU385
  96:Dsp/widget/wgt_core/UI_Controller.c ****         (UI_DspInterface.fill_circle_section == NULL))
 1346              		.loc 1 96 8 is_stmt 0 view .LVU386
 1347 0000 0028     		cmp	r0, #0
 1348 0002 5ED0     		beq	.L120
  97:Dsp/widget/wgt_core/UI_Controller.c ****         return false;
 1349              		.loc 1 97 25 discriminator 1 view .LVU387
 1350 0004 314A     		ldr	r2, .L126
 1351 0006 526A     		ldr	r2, [r2, #36]
  96:Dsp/widget/wgt_core/UI_Controller.c ****         (UI_DspInterface.fill_circle_section == NULL))
 1352              		.loc 1 96 24 discriminator 1 view .LVU388
 1353 0008 002A     		cmp	r2, #0
 1354 000a 5CD0     		beq	.L121
  81:Dsp/widget/wgt_core/UI_Controller.c ****     /* button selector coordinate */
 1355              		.loc 1 81 1 view .LVU389
 1356 000c 2DE9F047 		push	{r4, r5, r6, r7, r8, r9, r10, lr}
 1357              	.LCFI28:
 1358              		.cfi_def_cfa_offset 32
 1359              		.cfi_offset 4, -32
 1360              		.cfi_offset 5, -28
 1361              		.cfi_offset 6, -24
 1362              		.cfi_offset 7, -20
 1363              		.cfi_offset 8, -16
ARM GAS  /var/folders/lx/hc4sn_b53233_zkc9xbbl97r0000gp/T//cchcMLLT.s 			page 34


 1364              		.cfi_offset 9, -12
 1365              		.cfi_offset 10, -8
 1366              		.cfi_offset 14, -4
 1367 0010 82B0     		sub	sp, sp, #8
 1368              	.LCFI29:
 1369              		.cfi_def_cfa_offset 40
 100:Dsp/widget/wgt_core/UI_Controller.c ****     {
 1370              		.loc 1 100 5 is_stmt 1 view .LVU390
 100:Dsp/widget/wgt_core/UI_Controller.c ****     {
 1371              		.loc 1 100 27 is_stmt 0 view .LVU391
 1372 0012 0278     		ldrb	r2, [r0]	@ zero_extendqisi2
 100:Dsp/widget/wgt_core/UI_Controller.c ****     {
 1373              		.loc 1 100 5 view .LVU392
 1374 0014 2AB1     		cbz	r2, .L118
 1375 0016 012A     		cmp	r2, #1
 1376 0018 43D0     		beq	.L119
 1377 001a 0120     		movs	r0, #1
 1378              	.LVL120:
 1379              	.L117:
 134:Dsp/widget/wgt_core/UI_Controller.c **** 
 1380              		.loc 1 134 1 view .LVU393
 1381 001c 02B0     		add	sp, sp, #8
 1382              	.LCFI30:
 1383              		.cfi_remember_state
 1384              		.cfi_def_cfa_offset 32
 1385              		@ sp needed
 1386 001e BDE8F087 		pop	{r4, r5, r6, r7, r8, r9, r10, pc}
 1387              	.LVL121:
 1388              	.L118:
 1389              	.LCFI31:
 1390              		.cfi_restore_state
 104:Dsp/widget/wgt_core/UI_Controller.c ****         Btn_Slct_LftUp_Y = ((UI_ButtonObj_TypeDef *)(item->Handler))->Gen_Data.y + ((UI_ButtonObj_T
 1391              		.loc 1 104 9 is_stmt 1 view .LVU394
 104:Dsp/widget/wgt_core/UI_Controller.c ****         Btn_Slct_LftUp_Y = ((UI_ButtonObj_TypeDef *)(item->Handler))->Gen_Data.y + ((UI_ButtonObj_T
 1392              		.loc 1 104 58 is_stmt 0 view .LVU395
 1393 0022 4268     		ldr	r2, [r0, #4]
 104:Dsp/widget/wgt_core/UI_Controller.c ****         Btn_Slct_LftUp_Y = ((UI_ButtonObj_TypeDef *)(item->Handler))->Gen_Data.y + ((UI_ButtonObj_T
 1394              		.loc 1 104 26 view .LVU396
 1395 0024 B2F90490 		ldrsh	r9, [r2, #4]	@ unaligned
 1396              	.LVL122:
 105:Dsp/widget/wgt_core/UI_Controller.c **** 
 1397              		.loc 1 105 9 is_stmt 1 view .LVU397
 105:Dsp/widget/wgt_core/UI_Controller.c **** 
 1398              		.loc 1 105 79 is_stmt 0 view .LVU398
 1399 0028 B2F90630 		ldrsh	r3, [r2, #6]	@ unaligned
 1400 002c 1FB2     		sxth	r7, r3
 105:Dsp/widget/wgt_core/UI_Controller.c **** 
 1401              		.loc 1 105 125 view .LVU399
 1402 002e 92F82050 		ldrb	r5, [r2, #32]	@ zero_extendqisi2
 105:Dsp/widget/wgt_core/UI_Controller.c **** 
 1403              		.loc 1 105 82 view .LVU400
 1404 0032 15FA83F5 		uxtah	r5, r5, r3
 1405 0036 ADB2     		uxth	r5, r5
 105:Dsp/widget/wgt_core/UI_Controller.c **** 
 1406              		.loc 1 105 134 view .LVU401
 1407 0038 013D     		subs	r5, r5, #1
 1408              	.LVL123:
ARM GAS  /var/folders/lx/hc4sn_b53233_zkc9xbbl97r0000gp/T//cchcMLLT.s 			page 35


 107:Dsp/widget/wgt_core/UI_Controller.c ****         Btn_Slct_LftDwn_Y = ((UI_ButtonObj_TypeDef *)(item->Handler))->Gen_Data.y;
 1409              		.loc 1 107 9 is_stmt 1 view .LVU402
 108:Dsp/widget/wgt_core/UI_Controller.c **** 
 1410              		.loc 1 108 9 view .LVU403
 110:Dsp/widget/wgt_core/UI_Controller.c ****         Btn_Slct_RgtUp_Y = Btn_Slct_LftUp_Y;
 1411              		.loc 1 110 9 view .LVU404
 110:Dsp/widget/wgt_core/UI_Controller.c ****         Btn_Slct_RgtUp_Y = Btn_Slct_LftUp_Y;
 1412              		.loc 1 110 125 is_stmt 0 view .LVU405
 1413 003a D67F     		ldrb	r6, [r2, #31]	@ zero_extendqisi2
 110:Dsp/widget/wgt_core/UI_Controller.c ****         Btn_Slct_RgtUp_Y = Btn_Slct_LftUp_Y;
 1414              		.loc 1 110 82 view .LVU406
 1415 003c 16FA89F6 		uxtah	r6, r6, r9
 1416 0040 1FFA86FA 		uxth	r10, r6
 1417              	.LVL124:
 111:Dsp/widget/wgt_core/UI_Controller.c **** 
 1418              		.loc 1 111 9 is_stmt 1 view .LVU407
 113:Dsp/widget/wgt_core/UI_Controller.c ****         Btn_Slct_RgtDwn_Y = Btn_Slct_LftDwn_Y;
 1419              		.loc 1 113 9 view .LVU408
 114:Dsp/widget/wgt_core/UI_Controller.c **** 
 1420              		.loc 1 114 9 view .LVU409
 117:Dsp/widget/wgt_core/UI_Controller.c ****         UI_DspInterface.draw_circle_section(Btn_Slct_LftDwn_X, Btn_Slct_LftDwn_Y, BUTTON_SELECTOR_R
 1421              		.loc 1 117 9 view .LVU410
 117:Dsp/widget/wgt_core/UI_Controller.c ****         UI_DspInterface.draw_circle_section(Btn_Slct_LftDwn_X, Btn_Slct_LftDwn_Y, BUTTON_SELECTOR_R
 1422              		.loc 1 117 24 is_stmt 0 view .LVU411
 1423 0044 DFF88480 		ldr	r8, .L126
 117:Dsp/widget/wgt_core/UI_Controller.c ****         UI_DspInterface.draw_circle_section(Btn_Slct_LftDwn_X, Btn_Slct_LftDwn_Y, BUTTON_SELECTOR_R
 1424              		.loc 1 117 9 view .LVU412
 1425 0048 4FFA89F9 		sxtb	r9, r9
 1426              	.LVL125:
 117:Dsp/widget/wgt_core/UI_Controller.c ****         UI_DspInterface.draw_circle_section(Btn_Slct_LftDwn_X, Btn_Slct_LftDwn_Y, BUTTON_SELECTOR_R
 1427              		.loc 1 117 9 view .LVU413
 1428 004c 6DB2     		sxtb	r5, r5
 1429              	.LVL126:
 117:Dsp/widget/wgt_core/UI_Controller.c ****         UI_DspInterface.draw_circle_section(Btn_Slct_LftDwn_X, Btn_Slct_LftDwn_Y, BUTTON_SELECTOR_R
 1430              		.loc 1 117 9 view .LVU414
 1431 004e 0124     		movs	r4, #1
 1432 0050 0194     		str	r4, [sp, #4]
 1433              	.LVL127:
 117:Dsp/widget/wgt_core/UI_Controller.c ****         UI_DspInterface.draw_circle_section(Btn_Slct_LftDwn_X, Btn_Slct_LftDwn_Y, BUTTON_SELECTOR_R
 1434              		.loc 1 117 9 view .LVU415
 1435 0052 0094     		str	r4, [sp]
 1436 0054 0423     		movs	r3, #4
 1437              	.LVL128:
 117:Dsp/widget/wgt_core/UI_Controller.c ****         UI_DspInterface.draw_circle_section(Btn_Slct_LftDwn_X, Btn_Slct_LftDwn_Y, BUTTON_SELECTOR_R
 1438              		.loc 1 117 9 view .LVU416
 1439 0056 0222     		movs	r2, #2
 1440 0058 2946     		mov	r1, r5
 1441 005a 4846     		mov	r0, r9
 1442              	.LVL129:
 117:Dsp/widget/wgt_core/UI_Controller.c ****         UI_DspInterface.draw_circle_section(Btn_Slct_LftDwn_X, Btn_Slct_LftDwn_Y, BUTTON_SELECTOR_R
 1443              		.loc 1 117 9 view .LVU417
 1444 005c D8F81860 		ldr	r6, [r8, #24]
 1445 0060 B047     		blx	r6
 1446              	.LVL130:
 118:Dsp/widget/wgt_core/UI_Controller.c ****         UI_DspInterface.draw_circle_section(Btn_Slct_RgtUp_X, Btn_Slct_RgtUp_Y, BUTTON_SELECTOR_RAD
 1447              		.loc 1 118 9 is_stmt 1 view .LVU418
 1448 0062 7FB2     		sxtb	r7, r7
ARM GAS  /var/folders/lx/hc4sn_b53233_zkc9xbbl97r0000gp/T//cchcMLLT.s 			page 36


 1449              	.LVL131:
 118:Dsp/widget/wgt_core/UI_Controller.c ****         UI_DspInterface.draw_circle_section(Btn_Slct_RgtUp_X, Btn_Slct_RgtUp_Y, BUTTON_SELECTOR_RAD
 1450              		.loc 1 118 9 is_stmt 0 view .LVU419
 1451 0064 0194     		str	r4, [sp, #4]
 1452 0066 0094     		str	r4, [sp]
 1453 0068 0223     		movs	r3, #2
 1454 006a 1A46     		mov	r2, r3
 1455 006c 3946     		mov	r1, r7
 1456 006e 4846     		mov	r0, r9
 1457 0070 D8F81860 		ldr	r6, [r8, #24]
 1458 0074 B047     		blx	r6
 1459              	.LVL132:
 119:Dsp/widget/wgt_core/UI_Controller.c ****         UI_DspInterface.draw_circle_section(Btn_Slct_RgtDwn_X, Btn_Slct_RgtDwn_Y, BUTTON_SELECTOR_R
 1460              		.loc 1 119 9 is_stmt 1 view .LVU420
 1461 0076 4FFA8AF6 		sxtb	r6, r10
 1462 007a 0194     		str	r4, [sp, #4]
 1463 007c 0094     		str	r4, [sp]
 1464 007e 0823     		movs	r3, #8
 1465 0080 0222     		movs	r2, #2
 1466 0082 2946     		mov	r1, r5
 1467 0084 3046     		mov	r0, r6
 1468 0086 D8F81850 		ldr	r5, [r8, #24]
 1469 008a A847     		blx	r5
 1470              	.LVL133:
 120:Dsp/widget/wgt_core/UI_Controller.c ****         break;
 1471              		.loc 1 120 9 view .LVU421
 120:Dsp/widget/wgt_core/UI_Controller.c ****         break;
 1472              		.loc 1 120 24 is_stmt 0 view .LVU422
 1473 008c D8F81850 		ldr	r5, [r8, #24]
 120:Dsp/widget/wgt_core/UI_Controller.c ****         break;
 1474              		.loc 1 120 9 view .LVU423
 1475 0090 0194     		str	r4, [sp, #4]
 1476 0092 0094     		str	r4, [sp]
 1477 0094 2346     		mov	r3, r4
 1478 0096 0222     		movs	r2, #2
 1479 0098 3946     		mov	r1, r7
 1480 009a 3046     		mov	r0, r6
 1481 009c A847     		blx	r5
 1482              	.LVL134:
 121:Dsp/widget/wgt_core/UI_Controller.c **** 
 1483              		.loc 1 121 9 is_stmt 1 view .LVU424
 133:Dsp/widget/wgt_core/UI_Controller.c **** }
 1484              		.loc 1 133 12 is_stmt 0 view .LVU425
 1485 009e 2046     		mov	r0, r4
 121:Dsp/widget/wgt_core/UI_Controller.c **** 
 1486              		.loc 1 121 9 view .LVU426
 1487 00a0 BCE7     		b	.L117
 1488              	.LVL135:
 1489              	.L119:
 124:Dsp/widget/wgt_core/UI_Controller.c ****         block_y = ((UI_CheckBoxObj_TypeDef *)(item->Handler))->Gen_Data.y + 1;
 1490              		.loc 1 124 9 is_stmt 1 view .LVU427
 124:Dsp/widget/wgt_core/UI_Controller.c ****         block_y = ((UI_CheckBoxObj_TypeDef *)(item->Handler))->Gen_Data.y + 1;
 1491              		.loc 1 124 51 is_stmt 0 view .LVU428
 1492 00a2 4368     		ldr	r3, [r0, #4]
 124:Dsp/widget/wgt_core/UI_Controller.c ****         block_y = ((UI_CheckBoxObj_TypeDef *)(item->Handler))->Gen_Data.y + 1;
 1493              		.loc 1 124 72 view .LVU429
 1494 00a4 9888     		ldrh	r0, [r3, #4]	@ unaligned
ARM GAS  /var/folders/lx/hc4sn_b53233_zkc9xbbl97r0000gp/T//cchcMLLT.s 			page 37


 1495              	.LVL136:
 124:Dsp/widget/wgt_core/UI_Controller.c ****         block_y = ((UI_CheckBoxObj_TypeDef *)(item->Handler))->Gen_Data.y + 1;
 1496              		.loc 1 124 75 view .LVU430
 1497 00a6 0330     		adds	r0, r0, #3
 1498              	.LVL137:
 125:Dsp/widget/wgt_core/UI_Controller.c **** 
 1499              		.loc 1 125 9 is_stmt 1 view .LVU431
 125:Dsp/widget/wgt_core/UI_Controller.c **** 
 1500              		.loc 1 125 72 is_stmt 0 view .LVU432
 1501 00a8 D988     		ldrh	r1, [r3, #6]	@ unaligned
 125:Dsp/widget/wgt_core/UI_Controller.c **** 
 1502              		.loc 1 125 75 view .LVU433
 1503 00aa 0131     		adds	r1, r1, #1
 1504              	.LVL138:
 127:Dsp/widget/wgt_core/UI_Controller.c ****         break;
 1505              		.loc 1 127 9 is_stmt 1 view .LVU434
 127:Dsp/widget/wgt_core/UI_Controller.c ****         break;
 1506              		.loc 1 127 24 is_stmt 0 view .LVU435
 1507 00ac 074B     		ldr	r3, .L126
 1508 00ae DD69     		ldr	r5, [r3, #28]
 127:Dsp/widget/wgt_core/UI_Controller.c ****         break;
 1509              		.loc 1 127 9 view .LVU436
 1510 00b0 0124     		movs	r4, #1
 1511 00b2 0094     		str	r4, [sp]
 1512 00b4 0B23     		movs	r3, #11
 1513 00b6 7A22     		movs	r2, #122
 1514 00b8 49B2     		sxtb	r1, r1
 1515              	.LVL139:
 127:Dsp/widget/wgt_core/UI_Controller.c ****         break;
 1516              		.loc 1 127 9 view .LVU437
 1517 00ba 40B2     		sxtb	r0, r0
 1518              	.LVL140:
 127:Dsp/widget/wgt_core/UI_Controller.c ****         break;
 1519              		.loc 1 127 9 view .LVU438
 1520 00bc A847     		blx	r5
 1521              	.LVL141:
 128:Dsp/widget/wgt_core/UI_Controller.c **** 
 1522              		.loc 1 128 9 is_stmt 1 view .LVU439
 133:Dsp/widget/wgt_core/UI_Controller.c **** }
 1523              		.loc 1 133 12 is_stmt 0 view .LVU440
 1524 00be 2046     		mov	r0, r4
 128:Dsp/widget/wgt_core/UI_Controller.c **** 
 1525              		.loc 1 128 9 view .LVU441
 1526 00c0 ACE7     		b	.L117
 1527              	.LVL142:
 1528              	.L120:
 1529              	.LCFI32:
 1530              		.cfi_def_cfa_offset 0
 1531              		.cfi_restore 4
 1532              		.cfi_restore 5
 1533              		.cfi_restore 6
 1534              		.cfi_restore 7
 1535              		.cfi_restore 8
 1536              		.cfi_restore 9
 1537              		.cfi_restore 10
 1538              		.cfi_restore 14
  98:Dsp/widget/wgt_core/UI_Controller.c **** 
ARM GAS  /var/folders/lx/hc4sn_b53233_zkc9xbbl97r0000gp/T//cchcMLLT.s 			page 38


 1539              		.loc 1 98 16 view .LVU442
 1540 00c2 0020     		movs	r0, #0
 1541              	.LVL143:
  98:Dsp/widget/wgt_core/UI_Controller.c **** 
 1542              		.loc 1 98 16 view .LVU443
 1543 00c4 7047     		bx	lr
 1544              	.LVL144:
 1545              	.L121:
  98:Dsp/widget/wgt_core/UI_Controller.c **** 
 1546              		.loc 1 98 16 view .LVU444
 1547 00c6 0020     		movs	r0, #0
 1548              	.LVL145:
 134:Dsp/widget/wgt_core/UI_Controller.c **** 
 1549              		.loc 1 134 1 view .LVU445
 1550 00c8 7047     		bx	lr
 1551              	.L127:
 1552 00ca 00BF     		.align	2
 1553              	.L126:
 1554 00cc 00000000 		.word	.LANCHOR0
 1555              		.cfi_endproc
 1556              	.LFE1:
 1558              		.global	UI_CheckBox
 1559              		.global	UI_Button
 1560              		.section	.bss.UI_DspInterface,"aw",%nobits
 1561              		.align	2
 1562              		.set	.LANCHOR0,. + 0
 1565              	UI_DspInterface:
 1566 0000 00000000 		.space	44
 1566      00000000 
 1566      00000000 
 1566      00000000 
 1566      00000000 
 1567              		.section	.data.UI_Button,"aw"
 1568              		.align	2
 1571              	UI_Button:
 1572 0000 00000000 		.word	UI_Button_Init
 1573 0004 00000000 		.word	UI_Button_Set_TriggerCallback
 1574 0008 00000000 		.word	UI_Button_Set_Label
 1575 000c 00000000 		.word	UI_Button_Push
 1576 0010 00000000 		.word	UI_Button_Release
 1577 0014 00000000 		.word	UI_Button_Ctl
 1578 0018 00000000 		.word	UI_Button_Move
 1579              		.section	.data.UI_CheckBox,"aw"
 1580              		.align	2
 1583              	UI_CheckBox:
 1584 0000 00000000 		.word	UI_CheckBox_Init
 1585 0004 00000000 		.word	UI_CheckBox_SetCallback
 1586 0008 00000000 		.word	UI_CheckBox_Move
 1587 000c 00000000 		.word	UI_CheckBox_Trigger
 1588 0010 00000000 		.word	UI_CheckBox_Ctl
 1589              		.text
 1590              	.Letext0:
 1591              		.file 2 "/usr/local/arm-none-eabi-gcc/gcc-arm-none-eabi-10-2020-q4-major/arm-none-eabi/include/mac
 1592              		.file 3 "/usr/local/arm-none-eabi-gcc/gcc-arm-none-eabi-10-2020-q4-major/arm-none-eabi/include/sys
 1593              		.file 4 "Dsp/widget/wgt_core/UI_Controller.h"
 1594              		.file 5 "Dsp/screen/font/oledfont.h"
 1595              		.file 6 "/usr/local/arm-none-eabi-gcc/gcc-arm-none-eabi-10-2020-q4-major/arm-none-eabi/include/str
ARM GAS  /var/folders/lx/hc4sn_b53233_zkc9xbbl97r0000gp/T//cchcMLLT.s 			page 39


ARM GAS  /var/folders/lx/hc4sn_b53233_zkc9xbbl97r0000gp/T//cchcMLLT.s 			page 40


DEFINED SYMBOLS
                            *ABS*:0000000000000000 UI_Controller.c
/var/folders/lx/hc4sn_b53233_zkc9xbbl97r0000gp/T//cchcMLLT.s:18     .text.UI_GenData_Init:0000000000000000 $t
/var/folders/lx/hc4sn_b53233_zkc9xbbl97r0000gp/T//cchcMLLT.s:25     .text.UI_GenData_Init:0000000000000000 UI_GenData_Init
/var/folders/lx/hc4sn_b53233_zkc9xbbl97r0000gp/T//cchcMLLT.s:55     .text.UI_Move:0000000000000000 $t
/var/folders/lx/hc4sn_b53233_zkc9xbbl97r0000gp/T//cchcMLLT.s:61     .text.UI_Move:0000000000000000 UI_Move
/var/folders/lx/hc4sn_b53233_zkc9xbbl97r0000gp/T//cchcMLLT.s:95     .rodata.UI_Button_Init.str1.4:0000000000000000 $d
/var/folders/lx/hc4sn_b53233_zkc9xbbl97r0000gp/T//cchcMLLT.s:102    .text.UI_Button_Init:0000000000000000 $t
/var/folders/lx/hc4sn_b53233_zkc9xbbl97r0000gp/T//cchcMLLT.s:108    .text.UI_Button_Init:0000000000000000 UI_Button_Init
/var/folders/lx/hc4sn_b53233_zkc9xbbl97r0000gp/T//cchcMLLT.s:179    .text.UI_Button_Init:0000000000000044 $d
/var/folders/lx/hc4sn_b53233_zkc9xbbl97r0000gp/T//cchcMLLT.s:185    .text.UI_Button_Set_Label:0000000000000000 $t
/var/folders/lx/hc4sn_b53233_zkc9xbbl97r0000gp/T//cchcMLLT.s:191    .text.UI_Button_Set_Label:0000000000000000 UI_Button_Set_Label
/var/folders/lx/hc4sn_b53233_zkc9xbbl97r0000gp/T//cchcMLLT.s:235    .text.UI_Button_Set_TriggerCallback:0000000000000000 $t
/var/folders/lx/hc4sn_b53233_zkc9xbbl97r0000gp/T//cchcMLLT.s:241    .text.UI_Button_Set_TriggerCallback:0000000000000000 UI_Button_Set_TriggerCallback
/var/folders/lx/hc4sn_b53233_zkc9xbbl97r0000gp/T//cchcMLLT.s:295    .text.UI_Button_Push:0000000000000000 $t
/var/folders/lx/hc4sn_b53233_zkc9xbbl97r0000gp/T//cchcMLLT.s:301    .text.UI_Button_Push:0000000000000000 UI_Button_Push
/var/folders/lx/hc4sn_b53233_zkc9xbbl97r0000gp/T//cchcMLLT.s:418    .text.UI_Button_Release:0000000000000000 $t
/var/folders/lx/hc4sn_b53233_zkc9xbbl97r0000gp/T//cchcMLLT.s:424    .text.UI_Button_Release:0000000000000000 UI_Button_Release
/var/folders/lx/hc4sn_b53233_zkc9xbbl97r0000gp/T//cchcMLLT.s:510    .text.UI_Button_Move:0000000000000000 $t
/var/folders/lx/hc4sn_b53233_zkc9xbbl97r0000gp/T//cchcMLLT.s:516    .text.UI_Button_Move:0000000000000000 UI_Button_Move
/var/folders/lx/hc4sn_b53233_zkc9xbbl97r0000gp/T//cchcMLLT.s:557    .text.UI_Button_Ctl:0000000000000000 $t
/var/folders/lx/hc4sn_b53233_zkc9xbbl97r0000gp/T//cchcMLLT.s:563    .text.UI_Button_Ctl:0000000000000000 UI_Button_Ctl
/var/folders/lx/hc4sn_b53233_zkc9xbbl97r0000gp/T//cchcMLLT.s:843    .text.UI_Button_Ctl:000000000000011c $d
/var/folders/lx/hc4sn_b53233_zkc9xbbl97r0000gp/T//cchcMLLT.s:848    .text.UI_CheckBox_Init:0000000000000000 $t
/var/folders/lx/hc4sn_b53233_zkc9xbbl97r0000gp/T//cchcMLLT.s:854    .text.UI_CheckBox_Init:0000000000000000 UI_CheckBox_Init
/var/folders/lx/hc4sn_b53233_zkc9xbbl97r0000gp/T//cchcMLLT.s:909    .text.UI_CheckBox_SetCallback:0000000000000000 $t
/var/folders/lx/hc4sn_b53233_zkc9xbbl97r0000gp/T//cchcMLLT.s:915    .text.UI_CheckBox_SetCallback:0000000000000000 UI_CheckBox_SetCallback
/var/folders/lx/hc4sn_b53233_zkc9xbbl97r0000gp/T//cchcMLLT.s:946    .text.UI_CheckBox_Move:0000000000000000 $t
/var/folders/lx/hc4sn_b53233_zkc9xbbl97r0000gp/T//cchcMLLT.s:952    .text.UI_CheckBox_Move:0000000000000000 UI_CheckBox_Move
/var/folders/lx/hc4sn_b53233_zkc9xbbl97r0000gp/T//cchcMLLT.s:989    .text.UI_CheckBox_Trigger:0000000000000000 $t
/var/folders/lx/hc4sn_b53233_zkc9xbbl97r0000gp/T//cchcMLLT.s:995    .text.UI_CheckBox_Trigger:0000000000000000 UI_CheckBox_Trigger
/var/folders/lx/hc4sn_b53233_zkc9xbbl97r0000gp/T//cchcMLLT.s:1057   .text.UI_CheckBox_Ctl:0000000000000000 $t
/var/folders/lx/hc4sn_b53233_zkc9xbbl97r0000gp/T//cchcMLLT.s:1063   .text.UI_CheckBox_Ctl:0000000000000000 UI_CheckBox_Ctl
/var/folders/lx/hc4sn_b53233_zkc9xbbl97r0000gp/T//cchcMLLT.s:1235   .text.UI_CheckBox_Ctl:00000000000000a4 $d
/var/folders/lx/hc4sn_b53233_zkc9xbbl97r0000gp/T//cchcMLLT.s:1240   .text.UI_Set_DspInterface:0000000000000000 $t
/var/folders/lx/hc4sn_b53233_zkc9xbbl97r0000gp/T//cchcMLLT.s:1247   .text.UI_Set_DspInterface:0000000000000000 UI_Set_DspInterface
/var/folders/lx/hc4sn_b53233_zkc9xbbl97r0000gp/T//cchcMLLT.s:1316   .text.UI_Set_DspInterface:000000000000002c $d
/var/folders/lx/hc4sn_b53233_zkc9xbbl97r0000gp/T//cchcMLLT.s:1321   .text.UI_ShowSelector:0000000000000000 $t
/var/folders/lx/hc4sn_b53233_zkc9xbbl97r0000gp/T//cchcMLLT.s:1328   .text.UI_ShowSelector:0000000000000000 UI_ShowSelector
/var/folders/lx/hc4sn_b53233_zkc9xbbl97r0000gp/T//cchcMLLT.s:1554   .text.UI_ShowSelector:00000000000000cc $d
/var/folders/lx/hc4sn_b53233_zkc9xbbl97r0000gp/T//cchcMLLT.s:1583   .data.UI_CheckBox:0000000000000000 UI_CheckBox
/var/folders/lx/hc4sn_b53233_zkc9xbbl97r0000gp/T//cchcMLLT.s:1571   .data.UI_Button:0000000000000000 UI_Button
/var/folders/lx/hc4sn_b53233_zkc9xbbl97r0000gp/T//cchcMLLT.s:1561   .bss.UI_DspInterface:0000000000000000 $d
/var/folders/lx/hc4sn_b53233_zkc9xbbl97r0000gp/T//cchcMLLT.s:1565   .bss.UI_DspInterface:0000000000000000 UI_DspInterface
/var/folders/lx/hc4sn_b53233_zkc9xbbl97r0000gp/T//cchcMLLT.s:1568   .data.UI_Button:0000000000000000 $d
/var/folders/lx/hc4sn_b53233_zkc9xbbl97r0000gp/T//cchcMLLT.s:1580   .data.UI_CheckBox:0000000000000000 $d

UNDEFINED SYMBOLS
strlen
