ARM GAS  /tmp/ccmSzcB3.s 			page 1


   1              		.cpu cortex-m4
   2              		.eabi_attribute 27, 1
   3              		.eabi_attribute 28, 1
   4              		.eabi_attribute 20, 1
   5              		.eabi_attribute 21, 1
   6              		.eabi_attribute 23, 3
   7              		.eabi_attribute 24, 1
   8              		.eabi_attribute 25, 1
   9              		.eabi_attribute 26, 1
  10              		.eabi_attribute 30, 1
  11              		.eabi_attribute 34, 1
  12              		.eabi_attribute 18, 4
  13              		.file	"UI_Controller.c"
  14              		.text
  15              	.Ltext0:
  16              		.cfi_sections	.debug_frame
  17              		.section	.text.UI_GenData_Init,"ax",%progbits
  18              		.align	1
  19              		.arch armv7e-m
  20              		.syntax unified
  21              		.thumb
  22              		.thumb_func
  23              		.fpu fpv4-sp-d16
  25              	UI_GenData_Init:
  26              	.LVL0:
  27              	.LFB1:
  28              		.file 1 "Dsp/widget/wgt_core/UI_Controller.c"
   1:Dsp/widget/wgt_core/UI_Controller.c **** #include "UI_Controller.h"
   2:Dsp/widget/wgt_core/UI_Controller.c **** #include <stdlib.h>
   3:Dsp/widget/wgt_core/UI_Controller.c **** 
   4:Dsp/widget/wgt_core/UI_Controller.c **** /* internal object */
   5:Dsp/widget/wgt_core/UI_Controller.c **** static UI_DrawInterface_TypeDef UI_DspInterface;
   6:Dsp/widget/wgt_core/UI_Controller.c **** 
   7:Dsp/widget/wgt_core/UI_Controller.c **** /* internal function */
   8:Dsp/widget/wgt_core/UI_Controller.c **** static bool UI_Get_InitSate(UI_GeneralData_TypeDef GenData);
   9:Dsp/widget/wgt_core/UI_Controller.c **** static bool UI_Selecte(UI_GeneralData_TypeDef *GenData, bool select);
  10:Dsp/widget/wgt_core/UI_Controller.c **** static bool UI_Get_Selected(UI_GeneralData_TypeDef GenData);
  11:Dsp/widget/wgt_core/UI_Controller.c **** 
  12:Dsp/widget/wgt_core/UI_Controller.c **** /******************************* general function *********************************/
  13:Dsp/widget/wgt_core/UI_Controller.c **** 
  14:Dsp/widget/wgt_core/UI_Controller.c **** bool UI_Set_DspInterface(UI_DrawPoint point,
  15:Dsp/widget/wgt_core/UI_Controller.c ****                          UI_DrawLine line,
  16:Dsp/widget/wgt_core/UI_Controller.c ****                          UI_DrawRectangle rectangle,
  17:Dsp/widget/wgt_core/UI_Controller.c ****                          UI_DrawCircle circle,
  18:Dsp/widget/wgt_core/UI_Controller.c ****                          UI_DrawStr str)
  19:Dsp/widget/wgt_core/UI_Controller.c **** {
  20:Dsp/widget/wgt_core/UI_Controller.c ****     if ((point == NULL) ||
  21:Dsp/widget/wgt_core/UI_Controller.c ****         (line == NULL) ||
  22:Dsp/widget/wgt_core/UI_Controller.c ****         (rectangle == NULL) ||
  23:Dsp/widget/wgt_core/UI_Controller.c ****         (circle == NULL) ||
  24:Dsp/widget/wgt_core/UI_Controller.c ****         (str == NULL))
  25:Dsp/widget/wgt_core/UI_Controller.c ****         return false;
  26:Dsp/widget/wgt_core/UI_Controller.c **** 
  27:Dsp/widget/wgt_core/UI_Controller.c ****     UI_DspInterface.draw_circle = circle;
  28:Dsp/widget/wgt_core/UI_Controller.c ****     UI_DspInterface.draw_line = line;
  29:Dsp/widget/wgt_core/UI_Controller.c ****     UI_DspInterface.draw_point = point;
  30:Dsp/widget/wgt_core/UI_Controller.c ****     UI_DspInterface.draw_rectangle = rectangle;
ARM GAS  /tmp/ccmSzcB3.s 			page 2


  31:Dsp/widget/wgt_core/UI_Controller.c ****     UI_DspInterface.draw_str = str;
  32:Dsp/widget/wgt_core/UI_Controller.c **** 
  33:Dsp/widget/wgt_core/UI_Controller.c ****     return true;
  34:Dsp/widget/wgt_core/UI_Controller.c **** }
  35:Dsp/widget/wgt_core/UI_Controller.c **** 
  36:Dsp/widget/wgt_core/UI_Controller.c **** static void UI_GenData_Init(UI_GeneralData_TypeDef *GenData, char *label, uint8_t x, uint8_t y)
  37:Dsp/widget/wgt_core/UI_Controller.c **** {
  29              		.loc 1 37 1 view -0
  30              		.cfi_startproc
  31              		@ args = 0, pretend = 0, frame = 0
  32              		@ frame_needed = 0, uses_anonymous_args = 0
  33              		@ link register save eliminated.
  38:Dsp/widget/wgt_core/UI_Controller.c ****     GenData->label = label;
  34              		.loc 1 38 5 view .LVU1
  35              		.loc 1 38 20 is_stmt 0 view .LVU2
  36 0000 0160     		str	r1, [r0]
  39:Dsp/widget/wgt_core/UI_Controller.c **** 
  40:Dsp/widget/wgt_core/UI_Controller.c ****     GenData->x = x;
  37              		.loc 1 40 5 is_stmt 1 view .LVU3
  38              		.loc 1 40 16 is_stmt 0 view .LVU4
  39 0002 0271     		strb	r2, [r0, #4]
  41:Dsp/widget/wgt_core/UI_Controller.c ****     GenData->y = y;
  40              		.loc 1 41 5 is_stmt 1 view .LVU5
  41              		.loc 1 41 16 is_stmt 0 view .LVU6
  42 0004 4371     		strb	r3, [r0, #5]
  42:Dsp/widget/wgt_core/UI_Controller.c **** 
  43:Dsp/widget/wgt_core/UI_Controller.c ****     GenData->selected = false;
  43              		.loc 1 43 5 is_stmt 1 view .LVU7
  44              		.loc 1 43 23 is_stmt 0 view .LVU8
  45 0006 0023     		movs	r3, #0
  46              	.LVL1:
  47              		.loc 1 43 23 view .LVU9
  48 0008 8371     		strb	r3, [r0, #6]
  44:Dsp/widget/wgt_core/UI_Controller.c **** 
  45:Dsp/widget/wgt_core/UI_Controller.c ****     GenData->init = false;
  49              		.loc 1 45 5 is_stmt 1 view .LVU10
  50              		.loc 1 45 19 is_stmt 0 view .LVU11
  51 000a C371     		strb	r3, [r0, #7]
  46:Dsp/widget/wgt_core/UI_Controller.c **** }
  52              		.loc 1 46 1 view .LVU12
  53 000c 7047     		bx	lr
  54              		.cfi_endproc
  55              	.LFE1:
  57              		.section	.text.UI_Set_DspInterface,"ax",%progbits
  58              		.align	1
  59              		.global	UI_Set_DspInterface
  60              		.syntax unified
  61              		.thumb
  62              		.thumb_func
  63              		.fpu fpv4-sp-d16
  65              	UI_Set_DspInterface:
  66              	.LVL2:
  67              	.LFB0:
  19:Dsp/widget/wgt_core/UI_Controller.c ****     if ((point == NULL) ||
  68              		.loc 1 19 1 is_stmt 1 view -0
  69              		.cfi_startproc
  70              		@ args = 4, pretend = 0, frame = 0
ARM GAS  /tmp/ccmSzcB3.s 			page 3


  71              		@ frame_needed = 0, uses_anonymous_args = 0
  72              		@ link register save eliminated.
  20:Dsp/widget/wgt_core/UI_Controller.c ****         (line == NULL) ||
  73              		.loc 1 20 5 view .LVU14
  20:Dsp/widget/wgt_core/UI_Controller.c ****         (line == NULL) ||
  74              		.loc 1 20 8 is_stmt 0 view .LVU15
  75 0000 40B1     		cbz	r0, .L4
  20:Dsp/widget/wgt_core/UI_Controller.c ****         (line == NULL) ||
  76              		.loc 1 20 25 discriminator 1 view .LVU16
  77 0002 49B1     		cbz	r1, .L5
  21:Dsp/widget/wgt_core/UI_Controller.c ****         (rectangle == NULL) ||
  78              		.loc 1 21 24 view .LVU17
  79 0004 52B1     		cbz	r2, .L6
  22:Dsp/widget/wgt_core/UI_Controller.c ****         (circle == NULL) ||
  80              		.loc 1 22 29 view .LVU18
  81 0006 5BB1     		cbz	r3, .L7
  23:Dsp/widget/wgt_core/UI_Controller.c ****         (str == NULL))
  82              		.loc 1 23 26 view .LVU19
  83 0008 009B     		ldr	r3, [sp]
  84              	.LVL3:
  23:Dsp/widget/wgt_core/UI_Controller.c ****         (str == NULL))
  85              		.loc 1 23 26 view .LVU20
  86 000a 0BB1     		cbz	r3, .L9
  33:Dsp/widget/wgt_core/UI_Controller.c **** }
  87              		.loc 1 33 12 view .LVU21
  88 000c 0120     		movs	r0, #1
  89              	.LVL4:
  34:Dsp/widget/wgt_core/UI_Controller.c **** 
  90              		.loc 1 34 1 view .LVU22
  91 000e 7047     		bx	lr
  92              	.LVL5:
  93              	.L9:
  25:Dsp/widget/wgt_core/UI_Controller.c **** 
  94              		.loc 1 25 16 view .LVU23
  95 0010 0020     		movs	r0, #0
  96              	.LVL6:
  25:Dsp/widget/wgt_core/UI_Controller.c **** 
  97              		.loc 1 25 16 view .LVU24
  98 0012 7047     		bx	lr
  99              	.LVL7:
 100              	.L4:
  25:Dsp/widget/wgt_core/UI_Controller.c **** 
 101              		.loc 1 25 16 view .LVU25
 102 0014 0020     		movs	r0, #0
 103              	.LVL8:
  25:Dsp/widget/wgt_core/UI_Controller.c **** 
 104              		.loc 1 25 16 view .LVU26
 105 0016 7047     		bx	lr
 106              	.LVL9:
 107              	.L5:
  25:Dsp/widget/wgt_core/UI_Controller.c **** 
 108              		.loc 1 25 16 view .LVU27
 109 0018 0020     		movs	r0, #0
 110              	.LVL10:
  25:Dsp/widget/wgt_core/UI_Controller.c **** 
 111              		.loc 1 25 16 view .LVU28
 112 001a 7047     		bx	lr
ARM GAS  /tmp/ccmSzcB3.s 			page 4


 113              	.LVL11:
 114              	.L6:
  25:Dsp/widget/wgt_core/UI_Controller.c **** 
 115              		.loc 1 25 16 view .LVU29
 116 001c 0020     		movs	r0, #0
 117              	.LVL12:
  25:Dsp/widget/wgt_core/UI_Controller.c **** 
 118              		.loc 1 25 16 view .LVU30
 119 001e 7047     		bx	lr
 120              	.LVL13:
 121              	.L7:
  25:Dsp/widget/wgt_core/UI_Controller.c **** 
 122              		.loc 1 25 16 view .LVU31
 123 0020 0020     		movs	r0, #0
 124              	.LVL14:
  25:Dsp/widget/wgt_core/UI_Controller.c **** 
 125              		.loc 1 25 16 view .LVU32
 126 0022 7047     		bx	lr
 127              		.cfi_endproc
 128              	.LFE0:
 130              		.section	.text.UI_Button_Init,"ax",%progbits
 131              		.align	1
 132              		.global	UI_Button_Init
 133              		.syntax unified
 134              		.thumb
 135              		.thumb_func
 136              		.fpu fpv4-sp-d16
 138              	UI_Button_Init:
 139              	.LVL15:
 140              	.LFB4:
  47:Dsp/widget/wgt_core/UI_Controller.c **** 
  48:Dsp/widget/wgt_core/UI_Controller.c **** static bool UI_Selecte(UI_GeneralData_TypeDef *GenData, bool select)
  49:Dsp/widget/wgt_core/UI_Controller.c **** {
  50:Dsp/widget/wgt_core/UI_Controller.c ****     if (GenData == NULL)
  51:Dsp/widget/wgt_core/UI_Controller.c ****         return false;
  52:Dsp/widget/wgt_core/UI_Controller.c **** 
  53:Dsp/widget/wgt_core/UI_Controller.c ****     GenData->selected = select;
  54:Dsp/widget/wgt_core/UI_Controller.c **** 
  55:Dsp/widget/wgt_core/UI_Controller.c ****     return true;
  56:Dsp/widget/wgt_core/UI_Controller.c **** }
  57:Dsp/widget/wgt_core/UI_Controller.c **** 
  58:Dsp/widget/wgt_core/UI_Controller.c **** static bool UI_Get_Selected(UI_GeneralData_TypeDef GenData)
  59:Dsp/widget/wgt_core/UI_Controller.c **** {
  60:Dsp/widget/wgt_core/UI_Controller.c ****     return GenData.selected;
  61:Dsp/widget/wgt_core/UI_Controller.c **** }
  62:Dsp/widget/wgt_core/UI_Controller.c **** 
  63:Dsp/widget/wgt_core/UI_Controller.c **** /********************************************** UI Button Object **********************************
  64:Dsp/widget/wgt_core/UI_Controller.c **** /*
  65:Dsp/widget/wgt_core/UI_Controller.c **** *  the operation of button ctl is a async operation
  66:Dsp/widget/wgt_core/UI_Controller.c **** *  exti irq or input signal triiger first then out of the trigger code 
  67:Dsp/widget/wgt_core/UI_Controller.c **** *  check signal value doing process
  68:Dsp/widget/wgt_core/UI_Controller.c **** */
  69:Dsp/widget/wgt_core/UI_Controller.c **** bool UI_Button_Init(UI_ButtonObj_TypeDef *Obj, char *label, uint8_t x, uint8_t y, uint8_t width, ui
  70:Dsp/widget/wgt_core/UI_Controller.c **** {
 141              		.loc 1 70 1 is_stmt 1 view -0
 142              		.cfi_startproc
 143              		@ args = 16, pretend = 0, frame = 0
ARM GAS  /tmp/ccmSzcB3.s 			page 5


 144              		@ frame_needed = 0, uses_anonymous_args = 0
 145              		.loc 1 70 1 is_stmt 0 view .LVU34
 146 0000 38B5     		push	{r3, r4, r5, lr}
 147              	.LCFI0:
 148              		.cfi_def_cfa_offset 16
 149              		.cfi_offset 3, -16
 150              		.cfi_offset 4, -12
 151              		.cfi_offset 5, -8
 152              		.cfi_offset 14, -4
 153 0002 9DF81C50 		ldrb	r5, [sp, #28]	@ zero_extendqisi2
  71:Dsp/widget/wgt_core/UI_Controller.c ****     if (Obj == NULL)
 154              		.loc 1 71 5 is_stmt 1 view .LVU35
 155              		.loc 1 71 8 is_stmt 0 view .LVU36
 156 0006 88B1     		cbz	r0, .L12
 157 0008 0446     		mov	r4, r0
  72:Dsp/widget/wgt_core/UI_Controller.c ****         return false;
  73:Dsp/widget/wgt_core/UI_Controller.c **** 
  74:Dsp/widget/wgt_core/UI_Controller.c ****     Obj->default_state = state;
 158              		.loc 1 74 5 is_stmt 1 view .LVU37
 159              		.loc 1 74 24 is_stmt 0 view .LVU38
 160 000a 0572     		strb	r5, [r0, #8]
  75:Dsp/widget/wgt_core/UI_Controller.c ****     Obj->state = state;
 161              		.loc 1 75 5 is_stmt 1 view .LVU39
 162              		.loc 1 75 16 is_stmt 0 view .LVU40
 163 000c 4572     		strb	r5, [r0, #9]
  76:Dsp/widget/wgt_core/UI_Controller.c ****     Obj->type = type;
 164              		.loc 1 76 5 is_stmt 1 view .LVU41
 165              		.loc 1 76 15 is_stmt 0 view .LVU42
 166 000e 9DF81800 		ldrb	r0, [sp, #24]	@ zero_extendqisi2
 167              	.LVL16:
 168              		.loc 1 76 15 view .LVU43
 169 0012 A072     		strb	r0, [r4, #10]
  77:Dsp/widget/wgt_core/UI_Controller.c **** 
  78:Dsp/widget/wgt_core/UI_Controller.c ****     UI_GenData_Init(&Obj->Gen_Data, label, x, y);
 170              		.loc 1 78 5 is_stmt 1 view .LVU44
 171 0014 2046     		mov	r0, r4
 172 0016 FFF7FEFF 		bl	UI_GenData_Init
 173              	.LVL17:
  79:Dsp/widget/wgt_core/UI_Controller.c **** 
  80:Dsp/widget/wgt_core/UI_Controller.c ****     Obj->width = width;
 174              		.loc 1 80 5 view .LVU45
 175              		.loc 1 80 16 is_stmt 0 view .LVU46
 176 001a 9DF81030 		ldrb	r3, [sp, #16]	@ zero_extendqisi2
 177 001e 2375     		strb	r3, [r4, #20]
  81:Dsp/widget/wgt_core/UI_Controller.c ****     Obj->height = height;
 178              		.loc 1 81 5 is_stmt 1 view .LVU47
 179              		.loc 1 81 17 is_stmt 0 view .LVU48
 180 0020 9DF81430 		ldrb	r3, [sp, #20]	@ zero_extendqisi2
 181 0024 6375     		strb	r3, [r4, #21]
  82:Dsp/widget/wgt_core/UI_Controller.c **** 
  83:Dsp/widget/wgt_core/UI_Controller.c ****     Obj->Gen_Data.init = true;
 182              		.loc 1 83 5 is_stmt 1 view .LVU49
 183              		.loc 1 83 24 is_stmt 0 view .LVU50
 184 0026 0120     		movs	r0, #1
 185 0028 E071     		strb	r0, [r4, #7]
  84:Dsp/widget/wgt_core/UI_Controller.c **** 
  85:Dsp/widget/wgt_core/UI_Controller.c ****     return true;
ARM GAS  /tmp/ccmSzcB3.s 			page 6


 186              		.loc 1 85 5 is_stmt 1 view .LVU51
 187              	.LVL18:
 188              	.L11:
  86:Dsp/widget/wgt_core/UI_Controller.c **** }
 189              		.loc 1 86 1 is_stmt 0 view .LVU52
 190 002a 38BD     		pop	{r3, r4, r5, pc}
 191              	.LVL19:
 192              	.L12:
  72:Dsp/widget/wgt_core/UI_Controller.c **** 
 193              		.loc 1 72 16 view .LVU53
 194 002c 0020     		movs	r0, #0
 195              	.LVL20:
  72:Dsp/widget/wgt_core/UI_Controller.c **** 
 196              		.loc 1 72 16 view .LVU54
 197 002e FCE7     		b	.L11
 198              		.cfi_endproc
 199              	.LFE4:
 201              		.section	.text.UI_Button_Set_TriggerCallback,"ax",%progbits
 202              		.align	1
 203              		.global	UI_Button_Set_TriggerCallback
 204              		.syntax unified
 205              		.thumb
 206              		.thumb_func
 207              		.fpu fpv4-sp-d16
 209              	UI_Button_Set_TriggerCallback:
 210              	.LVL21:
 211              	.LFB5:
  87:Dsp/widget/wgt_core/UI_Controller.c **** 
  88:Dsp/widget/wgt_core/UI_Controller.c **** bool UI_Button_Set_TriggerCallback(UI_ButtonObj_TypeDef *Obj, UI_Button_Trigger_Type type, UI_Trigg
  89:Dsp/widget/wgt_core/UI_Controller.c **** {
 212              		.loc 1 89 1 is_stmt 1 view -0
 213              		.cfi_startproc
 214              		@ args = 0, pretend = 0, frame = 0
 215              		@ frame_needed = 0, uses_anonymous_args = 0
 216              		@ link register save eliminated.
  90:Dsp/widget/wgt_core/UI_Controller.c ****     if (Obj == NULL)
 217              		.loc 1 90 5 view .LVU56
 218              		.loc 1 90 8 is_stmt 0 view .LVU57
 219 0000 40B1     		cbz	r0, .L17
  91:Dsp/widget/wgt_core/UI_Controller.c ****         return false;
  92:Dsp/widget/wgt_core/UI_Controller.c **** 
  93:Dsp/widget/wgt_core/UI_Controller.c ****     if (type == Push_Trigger)
 220              		.loc 1 93 5 is_stmt 1 view .LVU58
 221              		.loc 1 93 8 is_stmt 0 view .LVU59
 222 0002 11B9     		cbnz	r1, .L16
  94:Dsp/widget/wgt_core/UI_Controller.c ****     {
  95:Dsp/widget/wgt_core/UI_Controller.c ****         Obj->push_callback = callback;
 223              		.loc 1 95 9 is_stmt 1 view .LVU60
 224              		.loc 1 95 28 is_stmt 0 view .LVU61
 225 0004 C260     		str	r2, [r0, #12]
  96:Dsp/widget/wgt_core/UI_Controller.c ****     }
  97:Dsp/widget/wgt_core/UI_Controller.c ****     else if (type == Release_Trigger)
  98:Dsp/widget/wgt_core/UI_Controller.c ****     {
  99:Dsp/widget/wgt_core/UI_Controller.c ****         Obj->release_callback = callback;
 100:Dsp/widget/wgt_core/UI_Controller.c ****     }
 101:Dsp/widget/wgt_core/UI_Controller.c ****     else
 102:Dsp/widget/wgt_core/UI_Controller.c ****         return false;
ARM GAS  /tmp/ccmSzcB3.s 			page 7


 103:Dsp/widget/wgt_core/UI_Controller.c **** 
 104:Dsp/widget/wgt_core/UI_Controller.c ****     return true;
 226              		.loc 1 104 12 view .LVU62
 227 0006 0120     		movs	r0, #1
 228              	.LVL22:
 229              		.loc 1 104 12 view .LVU63
 230 0008 7047     		bx	lr
 231              	.LVL23:
 232              	.L16:
  97:Dsp/widget/wgt_core/UI_Controller.c ****     {
 233              		.loc 1 97 10 is_stmt 1 view .LVU64
  97:Dsp/widget/wgt_core/UI_Controller.c ****     {
 234              		.loc 1 97 13 is_stmt 0 view .LVU65
 235 000a 0129     		cmp	r1, #1
 236 000c 04D1     		bne	.L18
  99:Dsp/widget/wgt_core/UI_Controller.c ****     }
 237              		.loc 1 99 9 is_stmt 1 view .LVU66
  99:Dsp/widget/wgt_core/UI_Controller.c ****     }
 238              		.loc 1 99 31 is_stmt 0 view .LVU67
 239 000e 0261     		str	r2, [r0, #16]
 240              		.loc 1 104 12 view .LVU68
 241 0010 0120     		movs	r0, #1
 242              	.LVL24:
 243              		.loc 1 104 12 view .LVU69
 244 0012 7047     		bx	lr
 245              	.LVL25:
 246              	.L17:
  91:Dsp/widget/wgt_core/UI_Controller.c **** 
 247              		.loc 1 91 16 view .LVU70
 248 0014 0020     		movs	r0, #0
 249              	.LVL26:
  91:Dsp/widget/wgt_core/UI_Controller.c **** 
 250              		.loc 1 91 16 view .LVU71
 251 0016 7047     		bx	lr
 252              	.LVL27:
 253              	.L18:
 102:Dsp/widget/wgt_core/UI_Controller.c **** 
 254              		.loc 1 102 16 view .LVU72
 255 0018 0020     		movs	r0, #0
 256              	.LVL28:
 105:Dsp/widget/wgt_core/UI_Controller.c **** }
 257              		.loc 1 105 1 view .LVU73
 258 001a 7047     		bx	lr
 259              		.cfi_endproc
 260              	.LFE5:
 262              		.text
 263              	.Letext0:
 264              		.file 2 "/home/bt0/stm32/compile-tool/gcc-arm-none-eabi-8-2018-q4-major-linux/gcc-arm-none-eabi-8-
 265              		.file 3 "/home/bt0/stm32/compile-tool/gcc-arm-none-eabi-8-2018-q4-major-linux/gcc-arm-none-eabi-8-
 266              		.file 4 "/home/bt0/stm32/compile-tool/gcc-arm-none-eabi-8-2018-q4-major-linux/gcc-arm-none-eabi-8-
 267              		.file 5 "/home/bt0/stm32/compile-tool/gcc-arm-none-eabi-8-2018-q4-major-linux/gcc-arm-none-eabi-8-
 268              		.file 6 "/home/bt0/stm32/compile-tool/gcc-arm-none-eabi-8-2018-q4-major-linux/gcc-arm-none-eabi-8-
 269              		.file 7 "/home/bt0/stm32/compile-tool/gcc-arm-none-eabi-8-2018-q4-major-linux/gcc-arm-none-eabi-8-
 270              		.file 8 "/home/bt0/stm32/compile-tool/gcc-arm-none-eabi-8-2018-q4-major-linux/gcc-arm-none-eabi-8-
 271              		.file 9 "Dsp/widget/wgt_core/UI_Controller.h"
ARM GAS  /tmp/ccmSzcB3.s 			page 8


DEFINED SYMBOLS
                            *ABS*:0000000000000000 UI_Controller.c
     /tmp/ccmSzcB3.s:18     .text.UI_GenData_Init:0000000000000000 $t
     /tmp/ccmSzcB3.s:25     .text.UI_GenData_Init:0000000000000000 UI_GenData_Init
     /tmp/ccmSzcB3.s:58     .text.UI_Set_DspInterface:0000000000000000 $t
     /tmp/ccmSzcB3.s:65     .text.UI_Set_DspInterface:0000000000000000 UI_Set_DspInterface
     /tmp/ccmSzcB3.s:131    .text.UI_Button_Init:0000000000000000 $t
     /tmp/ccmSzcB3.s:138    .text.UI_Button_Init:0000000000000000 UI_Button_Init
     /tmp/ccmSzcB3.s:202    .text.UI_Button_Set_TriggerCallback:0000000000000000 $t
     /tmp/ccmSzcB3.s:209    .text.UI_Button_Set_TriggerCallback:0000000000000000 UI_Button_Set_TriggerCallback

NO UNDEFINED SYMBOLS
