ARM GAS  /var/folders/lx/hc4sn_b53233_zkc9xbbl97r0000gp/T//cc46Bl7B.s 			page 1


   1              		.cpu cortex-m4
   2              		.eabi_attribute 27, 1
   3              		.eabi_attribute 28, 1
   4              		.eabi_attribute 20, 1
   5              		.eabi_attribute 21, 1
   6              		.eabi_attribute 23, 3
   7              		.eabi_attribute 24, 1
   8              		.eabi_attribute 25, 1
   9              		.eabi_attribute 26, 1
  10              		.eabi_attribute 30, 1
  11              		.eabi_attribute 34, 1
  12              		.eabi_attribute 18, 4
  13              		.file	"UI_Controller.c"
  14              		.text
  15              	.Ltext0:
  16              		.cfi_sections	.debug_frame
  17              		.section	.text.UI_Draw_HorDotLine,"ax",%progbits
  18              		.align	1
  19              		.arch armv7e-m
  20              		.syntax unified
  21              		.thumb
  22              		.thumb_func
  23              		.fpu fpv4-sp-d16
  25              	UI_Draw_HorDotLine:
  26              	.LVL0:
  27              	.LFB6:
  28              		.file 1 "Dsp/widget/wgt_core/UI_Controller.c"
   1:Dsp/widget/wgt_core/UI_Controller.c **** #include "UI_Controller.h"
   2:Dsp/widget/wgt_core/UI_Controller.c **** #include "runtime.h"
   3:Dsp/widget/wgt_core/UI_Controller.c **** #include <stdlib.h>
   4:Dsp/widget/wgt_core/UI_Controller.c **** #include <string.h>
   5:Dsp/widget/wgt_core/UI_Controller.c **** #include <stdio.h>
   6:Dsp/widget/wgt_core/UI_Controller.c **** 
   7:Dsp/widget/wgt_core/UI_Controller.c **** /* internal object */
   8:Dsp/widget/wgt_core/UI_Controller.c **** static UI_DrawInterface_TypeDef UI_DspInterface;
   9:Dsp/widget/wgt_core/UI_Controller.c **** static uint8_t base_font = Default_Font;
  10:Dsp/widget/wgt_core/UI_Controller.c **** 
  11:Dsp/widget/wgt_core/UI_Controller.c **** /* external function */
  12:Dsp/widget/wgt_core/UI_Controller.c **** /* UI Get General Get Mathod */
  13:Dsp/widget/wgt_core/UI_Controller.c **** UI_GetWidget_Width UI_Get_WidgetWidth = NULL;
  14:Dsp/widget/wgt_core/UI_Controller.c **** // UI_GetWidget_Height UI_Get_WidgetHeight = NULL;
  15:Dsp/widget/wgt_core/UI_Controller.c **** 
  16:Dsp/widget/wgt_core/UI_Controller.c **** /* UI button section */
  17:Dsp/widget/wgt_core/UI_Controller.c **** static bool UI_Button_Init(UI_ButtonObj_TypeDef *Obj, char *label, int16_t x, int16_t y, uint8_t wi
  18:Dsp/widget/wgt_core/UI_Controller.c **** static bool UI_Button_Set_Label(UI_ButtonObj_TypeDef *Obj, UI_Button_State_List state, char *label)
  19:Dsp/widget/wgt_core/UI_Controller.c **** static bool UI_Button_Set_TriggerCallback(UI_ButtonObj_TypeDef *Obj, UI_Button_Trigger_Type type, U
  20:Dsp/widget/wgt_core/UI_Controller.c **** static bool UI_Button_Push(UI_ButtonObj_TypeDef *Obj);
  21:Dsp/widget/wgt_core/UI_Controller.c **** static bool UI_Button_Release(UI_ButtonObj_TypeDef *Obj);
  22:Dsp/widget/wgt_core/UI_Controller.c **** static bool UI_Button_Move(UI_ButtonObj_TypeDef *Obj, uint16_t x, uint16_t y);
  23:Dsp/widget/wgt_core/UI_Controller.c **** static bool UI_Button_Ctl(UI_ButtonObj_TypeDef *Obj);
  24:Dsp/widget/wgt_core/UI_Controller.c **** 
  25:Dsp/widget/wgt_core/UI_Controller.c **** /* UI check box section */
  26:Dsp/widget/wgt_core/UI_Controller.c **** static bool UI_CheckBox_Init(UI_CheckBoxObj_TypeDef *Obj, char *label, int16_t x, int16_t y, bool s
  27:Dsp/widget/wgt_core/UI_Controller.c **** static bool UI_CheckBox_SetCallback(UI_CheckBoxObj_TypeDef *Obj, UI_CheckBoxTrigger_Callback callba
  28:Dsp/widget/wgt_core/UI_Controller.c **** static bool UI_CheckBox_Move(UI_CheckBoxObj_TypeDef *Obj, int16_t x, int16_t y);
  29:Dsp/widget/wgt_core/UI_Controller.c **** static bool UI_CheckBox_Trigger(UI_CheckBoxObj_TypeDef *Obj);
  30:Dsp/widget/wgt_core/UI_Controller.c **** static bool UI_CheckBox_Ctl(UI_CheckBoxObj_TypeDef *Obj);
ARM GAS  /var/folders/lx/hc4sn_b53233_zkc9xbbl97r0000gp/T//cc46Bl7B.s 			page 2


  31:Dsp/widget/wgt_core/UI_Controller.c **** 
  32:Dsp/widget/wgt_core/UI_Controller.c **** /* UI slider bar section */
  33:Dsp/widget/wgt_core/UI_Controller.c **** static bool UI_SlideBar_Init(UI_SlideBarObj_TypeDef *Obj, UI_SliderBar_Mode_List mode, char *label,
  34:Dsp/widget/wgt_core/UI_Controller.c **** static bool UI_SlideBar_Move(UI_SlideBarObj_TypeDef *Obj, int16_t x, int16_t y);
  35:Dsp/widget/wgt_core/UI_Controller.c **** static bool UI_SlideBar_SetCallBack(UI_SlideBarObj_TypeDef *Obj, UI_SliderBarTrigger_Callback callb
  36:Dsp/widget/wgt_core/UI_Controller.c **** static bool UI_SlideBar_Input(UI_SlideBarObj_TypeDef *Obj, int16_t *step);
  37:Dsp/widget/wgt_core/UI_Controller.c **** static bool UI_SlideBar_Trigger(UI_SlideBarObj_TypeDef *Obj);
  38:Dsp/widget/wgt_core/UI_Controller.c **** static bool UI_SlideBar_CTL(UI_SlideBarObj_TypeDef *Obj);
  39:Dsp/widget/wgt_core/UI_Controller.c **** static void UI_SlideBar_SetSelect(UI_SlideBarObj_TypeDef *Obj, bool select);
  40:Dsp/widget/wgt_core/UI_Controller.c **** static bool UI_SlideBar_IsSelected(UI_SlideBarObj_TypeDef *Obj);
  41:Dsp/widget/wgt_core/UI_Controller.c **** 
  42:Dsp/widget/wgt_core/UI_Controller.c **** /* UI Process bar section */
  43:Dsp/widget/wgt_core/UI_Controller.c **** static bool UI_ProcessBar_Init(UI_ProcessBarObj_TypeDef *Obj, UI_ProcessBar_DspType_List dsp_type, 
  44:Dsp/widget/wgt_core/UI_Controller.c **** static bool UI_ProcessBar_SetDspDir(UI_ProcessBarObj_TypeDef *Obj, UI_ProcessBar_MoveDir_TypeDef Di
  45:Dsp/widget/wgt_core/UI_Controller.c **** static bool UI_ProcessBar_SetCurVal(UI_ProcessBarObj_TypeDef *Obj, int32_t val);
  46:Dsp/widget/wgt_core/UI_Controller.c **** static bool UI_ProcessBar_Ctl(UI_ProcessBarObj_TypeDef *Obj);
  47:Dsp/widget/wgt_core/UI_Controller.c **** static bool UI_ProcessBar_Move(UI_ProcessBarObj_TypeDef *Obj, uint16_t x, uint16_t y);
  48:Dsp/widget/wgt_core/UI_Controller.c **** 
  49:Dsp/widget/wgt_core/UI_Controller.c **** /* UI Drop Section */
  50:Dsp/widget/wgt_core/UI_Controller.c **** static bool UI_Drop_Init(UI_DropObj_TypeDef *Obj, char *label, int16_t x, int16_t y);
  51:Dsp/widget/wgt_core/UI_Controller.c **** static bool UI_Drop_Move(UI_DropObj_TypeDef *Obj, int16_t x, int16_t y);
  52:Dsp/widget/wgt_core/UI_Controller.c **** static bool UI_Drop_AddDropItem(UI_DropObj_TypeDef *Obj, char *item_desc, void *data, UI_Drop_Callb
  53:Dsp/widget/wgt_core/UI_Controller.c **** static bool UI_Drop_SetSelect(UI_DropObj_TypeDef *Obj, bool state);
  54:Dsp/widget/wgt_core/UI_Controller.c **** static bool UI_Drop_GetSelect(UI_DropObj_TypeDef *Obj);
  55:Dsp/widget/wgt_core/UI_Controller.c **** static bool UI_Drop_SelectItem(UI_DropObj_TypeDef *Obj, int8_t *offset);
  56:Dsp/widget/wgt_core/UI_Controller.c **** static bool UI_Drop_Ctl(UI_DropObj_TypeDef *Obj);
  57:Dsp/widget/wgt_core/UI_Controller.c **** 
  58:Dsp/widget/wgt_core/UI_Controller.c **** /* general function */
  59:Dsp/widget/wgt_core/UI_Controller.c **** static bool UI_Get_InitSate(UI_GeneralData_TypeDef GenData);
  60:Dsp/widget/wgt_core/UI_Controller.c **** static bool UI_Selecte(UI_GeneralData_TypeDef *GenData, bool select);
  61:Dsp/widget/wgt_core/UI_Controller.c **** static bool UI_Get_Selected(UI_GeneralData_TypeDef GenData);
  62:Dsp/widget/wgt_core/UI_Controller.c **** static bool UI_Move(UI_GeneralData_TypeDef *GenUI_Info, int16_t dst_x, int16_t dst_y);
  63:Dsp/widget/wgt_core/UI_Controller.c **** 
  64:Dsp/widget/wgt_core/UI_Controller.c **** /* UI custom display mathod */
  65:Dsp/widget/wgt_core/UI_Controller.c **** static bool UI_Draw_HorDotLine(int16_t x, int16_t y, uint8_t len, uint8_t line_width);
  66:Dsp/widget/wgt_core/UI_Controller.c **** 
  67:Dsp/widget/wgt_core/UI_Controller.c **** /* external Object var */
  68:Dsp/widget/wgt_core/UI_Controller.c **** UI_Button_Interface_TypeDef UI_Button = {
  69:Dsp/widget/wgt_core/UI_Controller.c ****     .ctl = UI_Button_Ctl,
  70:Dsp/widget/wgt_core/UI_Controller.c ****     .init = UI_Button_Init,
  71:Dsp/widget/wgt_core/UI_Controller.c ****     .push = UI_Button_Push,
  72:Dsp/widget/wgt_core/UI_Controller.c ****     .move = UI_Button_Move,
  73:Dsp/widget/wgt_core/UI_Controller.c ****     .release = UI_Button_Release,
  74:Dsp/widget/wgt_core/UI_Controller.c ****     .set_label = UI_Button_Set_Label,
  75:Dsp/widget/wgt_core/UI_Controller.c ****     .set_trogger_callback = UI_Button_Set_TriggerCallback,
  76:Dsp/widget/wgt_core/UI_Controller.c **** };
  77:Dsp/widget/wgt_core/UI_Controller.c **** 
  78:Dsp/widget/wgt_core/UI_Controller.c **** UI_CheckBox_Interface_TypeDef UI_CheckBox = {
  79:Dsp/widget/wgt_core/UI_Controller.c ****     .ctl = UI_CheckBox_Ctl,
  80:Dsp/widget/wgt_core/UI_Controller.c ****     .init = UI_CheckBox_Init,
  81:Dsp/widget/wgt_core/UI_Controller.c ****     .Set_Callback = UI_CheckBox_SetCallback,
  82:Dsp/widget/wgt_core/UI_Controller.c ****     .Move = UI_CheckBox_Move,
  83:Dsp/widget/wgt_core/UI_Controller.c ****     .Trigger = UI_CheckBox_Trigger,
  84:Dsp/widget/wgt_core/UI_Controller.c **** };
  85:Dsp/widget/wgt_core/UI_Controller.c **** 
  86:Dsp/widget/wgt_core/UI_Controller.c **** UI_SliderBar_Interface_TypeDef UI_SlideBar = {
  87:Dsp/widget/wgt_core/UI_Controller.c ****     .init = UI_SlideBar_Init,
ARM GAS  /var/folders/lx/hc4sn_b53233_zkc9xbbl97r0000gp/T//cc46Bl7B.s 			page 3


  88:Dsp/widget/wgt_core/UI_Controller.c ****     .Move = UI_SlideBar_Move,
  89:Dsp/widget/wgt_core/UI_Controller.c ****     .Set_Callbak = UI_SlideBar_SetCallBack,
  90:Dsp/widget/wgt_core/UI_Controller.c ****     .Input = UI_SlideBar_Input,
  91:Dsp/widget/wgt_core/UI_Controller.c ****     .Trigger = UI_SlideBar_Trigger,
  92:Dsp/widget/wgt_core/UI_Controller.c ****     .ctl = UI_SlideBar_CTL,
  93:Dsp/widget/wgt_core/UI_Controller.c ****     .Set_Select = UI_SlideBar_SetSelect,
  94:Dsp/widget/wgt_core/UI_Controller.c ****     .Get_Select = UI_SlideBar_IsSelected,
  95:Dsp/widget/wgt_core/UI_Controller.c **** };
  96:Dsp/widget/wgt_core/UI_Controller.c **** 
  97:Dsp/widget/wgt_core/UI_Controller.c **** UI_ProcessBar_Interface_TypeDef UI_ProcessBar = {
  98:Dsp/widget/wgt_core/UI_Controller.c ****     .init = UI_ProcessBar_Init,
  99:Dsp/widget/wgt_core/UI_Controller.c ****     .Move = UI_ProcessBar_Move,
 100:Dsp/widget/wgt_core/UI_Controller.c ****     .set_CurVal = UI_ProcessBar_SetCurVal,
 101:Dsp/widget/wgt_core/UI_Controller.c ****     .set_DspDir = UI_ProcessBar_SetDspDir,
 102:Dsp/widget/wgt_core/UI_Controller.c ****     .ctl = UI_ProcessBar_Ctl,
 103:Dsp/widget/wgt_core/UI_Controller.c **** };
 104:Dsp/widget/wgt_core/UI_Controller.c **** 
 105:Dsp/widget/wgt_core/UI_Controller.c **** UI_Drop_Interface_TypeDef UI_Drop = {
 106:Dsp/widget/wgt_core/UI_Controller.c ****     .init = UI_Drop_Init,
 107:Dsp/widget/wgt_core/UI_Controller.c ****     .Move = UI_Drop_Move,
 108:Dsp/widget/wgt_core/UI_Controller.c ****     .Select_DropItem = UI_Drop_SelectItem,
 109:Dsp/widget/wgt_core/UI_Controller.c ****     .Set_Select = UI_Drop_SetSelect,
 110:Dsp/widget/wgt_core/UI_Controller.c ****     .Get_Select = UI_Drop_GetSelect,
 111:Dsp/widget/wgt_core/UI_Controller.c ****     .Add_drop_item = UI_Drop_AddDropItem,
 112:Dsp/widget/wgt_core/UI_Controller.c ****     .ctl = UI_Drop_Ctl,
 113:Dsp/widget/wgt_core/UI_Controller.c **** };
 114:Dsp/widget/wgt_core/UI_Controller.c **** 
 115:Dsp/widget/wgt_core/UI_Controller.c **** /******************************* general function *********************************/
 116:Dsp/widget/wgt_core/UI_Controller.c **** 
 117:Dsp/widget/wgt_core/UI_Controller.c **** bool UI_Set_FontType(uint8_t font)
 118:Dsp/widget/wgt_core/UI_Controller.c **** {
 119:Dsp/widget/wgt_core/UI_Controller.c ****     if (font < Font_8 || font > Font_16)
 120:Dsp/widget/wgt_core/UI_Controller.c ****         return false;
 121:Dsp/widget/wgt_core/UI_Controller.c **** 
 122:Dsp/widget/wgt_core/UI_Controller.c ****     base_font = font;
 123:Dsp/widget/wgt_core/UI_Controller.c **** 
 124:Dsp/widget/wgt_core/UI_Controller.c ****     return true;
 125:Dsp/widget/wgt_core/UI_Controller.c **** }
 126:Dsp/widget/wgt_core/UI_Controller.c **** 
 127:Dsp/widget/wgt_core/UI_Controller.c **** void UI_Set_DspInterface(UI_DrawPoint point,
 128:Dsp/widget/wgt_core/UI_Controller.c ****                          UI_DrawHLine line_h,
 129:Dsp/widget/wgt_core/UI_Controller.c ****                          UI_DrawVLine line_v,
 130:Dsp/widget/wgt_core/UI_Controller.c ****                          UI_DrawRectangle rectangle,
 131:Dsp/widget/wgt_core/UI_Controller.c ****                          UI_DrawRadiusRectangle radius_rectangle,
 132:Dsp/widget/wgt_core/UI_Controller.c ****                          UI_DrawCircle circle,
 133:Dsp/widget/wgt_core/UI_Controller.c ****                          UI_DrawCircleSection circle_section,
 134:Dsp/widget/wgt_core/UI_Controller.c ****                          UI_DrawStr str,
 135:Dsp/widget/wgt_core/UI_Controller.c ****                          UI_DrawDig dig,
 136:Dsp/widget/wgt_core/UI_Controller.c ****                          UI_FillCircle fill_circle,
 137:Dsp/widget/wgt_core/UI_Controller.c ****                          UI_FillCircle_Section fillcircle_section,
 138:Dsp/widget/wgt_core/UI_Controller.c ****                          UI_FillRectangle fill_rectangle,
 139:Dsp/widget/wgt_core/UI_Controller.c ****                          UI_FillRadiusRectangle fill_radius_rectangle)
 140:Dsp/widget/wgt_core/UI_Controller.c **** {
 141:Dsp/widget/wgt_core/UI_Controller.c ****     UI_DspInterface.draw_circle = circle;
 142:Dsp/widget/wgt_core/UI_Controller.c ****     UI_DspInterface.draw_circle_section = circle_section;
 143:Dsp/widget/wgt_core/UI_Controller.c ****     UI_DspInterface.draw_line_h = line_h;
 144:Dsp/widget/wgt_core/UI_Controller.c ****     UI_DspInterface.draw_line_v = line_v;
ARM GAS  /var/folders/lx/hc4sn_b53233_zkc9xbbl97r0000gp/T//cc46Bl7B.s 			page 4


 145:Dsp/widget/wgt_core/UI_Controller.c ****     UI_DspInterface.draw_point = point;
 146:Dsp/widget/wgt_core/UI_Controller.c ****     UI_DspInterface.draw_rectangle = rectangle;
 147:Dsp/widget/wgt_core/UI_Controller.c ****     UI_DspInterface.draw_radius_rectangle = radius_rectangle;
 148:Dsp/widget/wgt_core/UI_Controller.c ****     UI_DspInterface.draw_str = str;
 149:Dsp/widget/wgt_core/UI_Controller.c ****     UI_DspInterface.draw_dig = dig;
 150:Dsp/widget/wgt_core/UI_Controller.c **** 
 151:Dsp/widget/wgt_core/UI_Controller.c ****     UI_DspInterface.fill_circle = fill_circle;
 152:Dsp/widget/wgt_core/UI_Controller.c ****     UI_DspInterface.fill_circle_section = fillcircle_section;
 153:Dsp/widget/wgt_core/UI_Controller.c ****     UI_DspInterface.fill_radius_rectangle = fill_radius_rectangle;
 154:Dsp/widget/wgt_core/UI_Controller.c ****     UI_DspInterface.fill_rectangle = fill_rectangle;
 155:Dsp/widget/wgt_core/UI_Controller.c **** }
 156:Dsp/widget/wgt_core/UI_Controller.c **** 
 157:Dsp/widget/wgt_core/UI_Controller.c **** void UI_Set_GetWidgetWidthMathod(UI_GetWidget_Width mathod)
 158:Dsp/widget/wgt_core/UI_Controller.c **** {
 159:Dsp/widget/wgt_core/UI_Controller.c ****     UI_Get_WidgetWidth = mathod;
 160:Dsp/widget/wgt_core/UI_Controller.c **** }
 161:Dsp/widget/wgt_core/UI_Controller.c **** 
 162:Dsp/widget/wgt_core/UI_Controller.c **** static bool UI_Draw_HorDotLine(int16_t x, int16_t y, uint8_t len, uint8_t line_width)
 163:Dsp/widget/wgt_core/UI_Controller.c **** {
  29              		.loc 1 163 1 view -0
  30              		.cfi_startproc
  31              		@ args = 0, pretend = 0, frame = 0
  32              		@ frame_needed = 0, uses_anonymous_args = 0
  33              		.loc 1 163 1 is_stmt 0 view .LVU1
  34 0000 2DE9F843 		push	{r3, r4, r5, r6, r7, r8, r9, lr}
  35              	.LCFI0:
  36              		.cfi_def_cfa_offset 32
  37              		.cfi_offset 3, -32
  38              		.cfi_offset 4, -28
  39              		.cfi_offset 5, -24
  40              		.cfi_offset 6, -20
  41              		.cfi_offset 7, -16
  42              		.cfi_offset 8, -12
  43              		.cfi_offset 9, -8
  44              		.cfi_offset 14, -4
  45 0004 1E46     		mov	r6, r3
 164:Dsp/widget/wgt_core/UI_Controller.c ****     if ((UI_DspInterface.draw_point == NULL) || (UI_Get_WidgetWidth == NULL))
  46              		.loc 1 164 5 is_stmt 1 view .LVU2
  47              		.loc 1 164 25 is_stmt 0 view .LVU3
  48 0006 184B     		ldr	r3, .L14
  49              	.LVL1:
  50              		.loc 1 164 25 view .LVU4
  51 0008 9B68     		ldr	r3, [r3, #8]
  52              		.loc 1 164 8 view .LVU5
  53 000a 4BB3     		cbz	r3, .L7
  54 000c 0546     		mov	r5, r0
  55 000e 0F46     		mov	r7, r1
  56 0010 9046     		mov	r8, r2
  57              		.loc 1 164 69 discriminator 1 view .LVU6
  58 0012 164B     		ldr	r3, .L14+4
  59 0014 1B68     		ldr	r3, [r3]
  60              		.loc 1 164 46 discriminator 1 view .LVU7
  61 0016 2BB3     		cbz	r3, .L8
 165:Dsp/widget/wgt_core/UI_Controller.c ****         return false;
 166:Dsp/widget/wgt_core/UI_Controller.c **** 
 167:Dsp/widget/wgt_core/UI_Controller.c ****     if (x > UI_Get_WidgetWidth())
  62              		.loc 1 167 5 is_stmt 1 view .LVU8
ARM GAS  /var/folders/lx/hc4sn_b53233_zkc9xbbl97r0000gp/T//cc46Bl7B.s 			page 5


  63              		.loc 1 167 11 is_stmt 0 view .LVU9
  64 0018 8146     		mov	r9, r0
  65              		.loc 1 167 13 view .LVU10
  66 001a 9847     		blx	r3
  67              	.LVL2:
  68              		.loc 1 167 8 view .LVU11
  69 001c 8542     		cmp	r5, r0
  70 001e 16DD     		ble	.L3
 168:Dsp/widget/wgt_core/UI_Controller.c ****         return true;
  71              		.loc 1 168 16 view .LVU12
  72 0020 0120     		movs	r0, #1
  73 0022 1BE0     		b	.L2
  74              	.LVL3:
  75              	.L4:
  76              	.LBB2:
  77              	.LBB3:
 169:Dsp/widget/wgt_core/UI_Controller.c **** 
 170:Dsp/widget/wgt_core/UI_Controller.c ****     for (int16_t i = x; i < x + len; i++)
 171:Dsp/widget/wgt_core/UI_Controller.c ****     {
 172:Dsp/widget/wgt_core/UI_Controller.c ****         for (uint8_t width = 0; width < line_width; width++)
  78              		.loc 1 172 53 is_stmt 1 discriminator 2 view .LVU13
  79              		.loc 1 172 58 is_stmt 0 discriminator 2 view .LVU14
  80 0024 0134     		adds	r4, r4, #1
  81              	.LVL4:
  82              		.loc 1 172 58 discriminator 2 view .LVU15
  83 0026 E4B2     		uxtb	r4, r4
  84              	.LVL5:
  85              	.L6:
  86              		.loc 1 172 33 is_stmt 1 discriminator 1 view .LVU16
  87              		.loc 1 172 9 is_stmt 0 discriminator 1 view .LVU17
  88 0028 B442     		cmp	r4, r6
  89 002a 0ED2     		bcs	.L12
 173:Dsp/widget/wgt_core/UI_Controller.c ****         {
 174:Dsp/widget/wgt_core/UI_Controller.c ****             if (i / 2)
  90              		.loc 1 174 13 is_stmt 1 view .LVU18
  91              		.loc 1 174 17 is_stmt 0 view .LVU19
  92 002c 05F1010C 		add	ip, r5, #1
  93 0030 1FFA8CFC 		uxth	ip, ip
  94              		.loc 1 174 16 view .LVU20
  95 0034 BCF1020F 		cmp	ip, #2
  96 0038 F4D9     		bls	.L4
 175:Dsp/widget/wgt_core/UI_Controller.c ****             {
 176:Dsp/widget/wgt_core/UI_Controller.c ****                 UI_DspInterface.draw_point(i, y + width, true);
  97              		.loc 1 176 17 is_stmt 1 view .LVU21
  98              		.loc 1 176 32 is_stmt 0 view .LVU22
  99 003a 0B4B     		ldr	r3, .L14
 100 003c 9B68     		ldr	r3, [r3, #8]
 101              		.loc 1 176 49 view .LVU23
 102 003e E119     		adds	r1, r4, r7
 103              		.loc 1 176 17 view .LVU24
 104 0040 0122     		movs	r2, #1
 105 0042 09B2     		sxth	r1, r1
 106 0044 2846     		mov	r0, r5
 107 0046 9847     		blx	r3
 108              	.LVL6:
 109 0048 ECE7     		b	.L4
 110              	.L12:
ARM GAS  /var/folders/lx/hc4sn_b53233_zkc9xbbl97r0000gp/T//cc46Bl7B.s 			page 6


 111              	.LBE3:
 170:Dsp/widget/wgt_core/UI_Controller.c ****     {
 112              		.loc 1 170 38 is_stmt 1 discriminator 2 view .LVU25
 170:Dsp/widget/wgt_core/UI_Controller.c ****     {
 113              		.loc 1 170 39 is_stmt 0 discriminator 2 view .LVU26
 114 004a 0135     		adds	r5, r5, #1
 115              	.LVL7:
 170:Dsp/widget/wgt_core/UI_Controller.c ****     {
 116              		.loc 1 170 39 discriminator 2 view .LVU27
 117 004c 2DB2     		sxth	r5, r5
 118              	.LVL8:
 119              	.L3:
 170:Dsp/widget/wgt_core/UI_Controller.c ****     {
 120              		.loc 1 170 25 is_stmt 1 discriminator 1 view .LVU28
 170:Dsp/widget/wgt_core/UI_Controller.c ****     {
 121              		.loc 1 170 31 is_stmt 0 discriminator 1 view .LVU29
 122 004e 08EB0903 		add	r3, r8, r9
 170:Dsp/widget/wgt_core/UI_Controller.c ****     {
 123              		.loc 1 170 5 discriminator 1 view .LVU30
 124 0052 9D42     		cmp	r5, r3
 125 0054 01DA     		bge	.L13
 126              	.LBB4:
 172:Dsp/widget/wgt_core/UI_Controller.c ****         {
 127              		.loc 1 172 22 view .LVU31
 128 0056 0024     		movs	r4, #0
 129 0058 E6E7     		b	.L6
 130              	.L13:
 131              	.LBE4:
 132              	.LBE2:
 177:Dsp/widget/wgt_core/UI_Controller.c ****             }
 178:Dsp/widget/wgt_core/UI_Controller.c ****         }
 179:Dsp/widget/wgt_core/UI_Controller.c ****     }
 180:Dsp/widget/wgt_core/UI_Controller.c **** 
 181:Dsp/widget/wgt_core/UI_Controller.c ****     return true;
 133              		.loc 1 181 12 view .LVU32
 134 005a 0120     		movs	r0, #1
 135              	.LVL9:
 136              	.L2:
 182:Dsp/widget/wgt_core/UI_Controller.c **** }
 137              		.loc 1 182 1 view .LVU33
 138 005c BDE8F883 		pop	{r3, r4, r5, r6, r7, r8, r9, pc}
 139              	.LVL10:
 140              	.L7:
 165:Dsp/widget/wgt_core/UI_Controller.c **** 
 141              		.loc 1 165 16 view .LVU34
 142 0060 0020     		movs	r0, #0
 143              	.LVL11:
 165:Dsp/widget/wgt_core/UI_Controller.c **** 
 144              		.loc 1 165 16 view .LVU35
 145 0062 FBE7     		b	.L2
 146              	.LVL12:
 147              	.L8:
 165:Dsp/widget/wgt_core/UI_Controller.c **** 
 148              		.loc 1 165 16 view .LVU36
 149 0064 0020     		movs	r0, #0
 150              	.LVL13:
 165:Dsp/widget/wgt_core/UI_Controller.c **** 
ARM GAS  /var/folders/lx/hc4sn_b53233_zkc9xbbl97r0000gp/T//cc46Bl7B.s 			page 7


 151              		.loc 1 165 16 view .LVU37
 152 0066 F9E7     		b	.L2
 153              	.L15:
 154              		.align	2
 155              	.L14:
 156 0068 00000000 		.word	.LANCHOR0
 157 006c 00000000 		.word	.LANCHOR1
 158              		.cfi_endproc
 159              	.LFE6:
 161              		.section	.text.UI_GenData_Init,"ax",%progbits
 162              		.align	1
 163              		.syntax unified
 164              		.thumb
 165              		.thumb_func
 166              		.fpu fpv4-sp-d16
 168              	UI_GenData_Init:
 169              	.LVL14:
 170              	.LFB8:
 183:Dsp/widget/wgt_core/UI_Controller.c **** 
 184:Dsp/widget/wgt_core/UI_Controller.c **** /* still in developing about this selector */
 185:Dsp/widget/wgt_core/UI_Controller.c **** /* FYI different UI Item Got different selector */
 186:Dsp/widget/wgt_core/UI_Controller.c **** bool UI_ShowSelector(WidgetUI_Item_TypeDef *item)
 187:Dsp/widget/wgt_core/UI_Controller.c **** {
 188:Dsp/widget/wgt_core/UI_Controller.c ****     /* button selector coordinate */
 189:Dsp/widget/wgt_core/UI_Controller.c ****     int16_t Btn_Slct_LftUp_X = 0;
 190:Dsp/widget/wgt_core/UI_Controller.c ****     int16_t Btn_Slct_LftUp_Y = 0;
 191:Dsp/widget/wgt_core/UI_Controller.c ****     int16_t Btn_Slct_LftDwn_X = 0;
 192:Dsp/widget/wgt_core/UI_Controller.c ****     int16_t Btn_Slct_LftDwn_Y = 0;
 193:Dsp/widget/wgt_core/UI_Controller.c ****     int16_t Btn_Slct_RgtUp_X = 0;
 194:Dsp/widget/wgt_core/UI_Controller.c ****     int16_t Btn_Slct_RgtUp_Y = 0;
 195:Dsp/widget/wgt_core/UI_Controller.c ****     int16_t Btn_Slct_RgtDwn_X = 0;
 196:Dsp/widget/wgt_core/UI_Controller.c ****     int16_t Btn_Slct_RgtDwn_Y = 0;
 197:Dsp/widget/wgt_core/UI_Controller.c **** 
 198:Dsp/widget/wgt_core/UI_Controller.c ****     /* selector block coordinate */
 199:Dsp/widget/wgt_core/UI_Controller.c ****     int16_t block_x;
 200:Dsp/widget/wgt_core/UI_Controller.c ****     int16_t block_y;
 201:Dsp/widget/wgt_core/UI_Controller.c **** 
 202:Dsp/widget/wgt_core/UI_Controller.c ****     uint8_t widget_width = 128;
 203:Dsp/widget/wgt_core/UI_Controller.c ****     uint8_t selector_height = 0;
 204:Dsp/widget/wgt_core/UI_Controller.c **** 
 205:Dsp/widget/wgt_core/UI_Controller.c ****     if (UI_Get_WidgetWidth != NULL)
 206:Dsp/widget/wgt_core/UI_Controller.c ****     {
 207:Dsp/widget/wgt_core/UI_Controller.c ****         widget_width = UI_Get_WidgetWidth();
 208:Dsp/widget/wgt_core/UI_Controller.c **** 
 209:Dsp/widget/wgt_core/UI_Controller.c ****         if (widget_width == 0)
 210:Dsp/widget/wgt_core/UI_Controller.c ****             return false;
 211:Dsp/widget/wgt_core/UI_Controller.c ****     }
 212:Dsp/widget/wgt_core/UI_Controller.c **** 
 213:Dsp/widget/wgt_core/UI_Controller.c ****     if (item == NULL)
 214:Dsp/widget/wgt_core/UI_Controller.c ****         return false;
 215:Dsp/widget/wgt_core/UI_Controller.c **** 
 216:Dsp/widget/wgt_core/UI_Controller.c ****     switch (base_font)
 217:Dsp/widget/wgt_core/UI_Controller.c ****     {
 218:Dsp/widget/wgt_core/UI_Controller.c ****     case Font_8:
 219:Dsp/widget/wgt_core/UI_Controller.c ****         selector_height = Font_8 + 2;
 220:Dsp/widget/wgt_core/UI_Controller.c ****         break;
 221:Dsp/widget/wgt_core/UI_Controller.c **** 
ARM GAS  /var/folders/lx/hc4sn_b53233_zkc9xbbl97r0000gp/T//cc46Bl7B.s 			page 8


 222:Dsp/widget/wgt_core/UI_Controller.c ****     case Font_12:
 223:Dsp/widget/wgt_core/UI_Controller.c ****     case Font_16:
 224:Dsp/widget/wgt_core/UI_Controller.c ****         selector_height = Font_12 - 1;
 225:Dsp/widget/wgt_core/UI_Controller.c ****         break;
 226:Dsp/widget/wgt_core/UI_Controller.c **** 
 227:Dsp/widget/wgt_core/UI_Controller.c ****     default:
 228:Dsp/widget/wgt_core/UI_Controller.c ****         return false;
 229:Dsp/widget/wgt_core/UI_Controller.c ****     }
 230:Dsp/widget/wgt_core/UI_Controller.c **** 
 231:Dsp/widget/wgt_core/UI_Controller.c ****     switch ((uint8_t)(item->type))
 232:Dsp/widget/wgt_core/UI_Controller.c ****     {
 233:Dsp/widget/wgt_core/UI_Controller.c ****     case UI_Type_Button:
 234:Dsp/widget/wgt_core/UI_Controller.c **** 
 235:Dsp/widget/wgt_core/UI_Controller.c ****         if (UI_DspInterface.fill_circle_section == NULL)
 236:Dsp/widget/wgt_core/UI_Controller.c ****             return false;
 237:Dsp/widget/wgt_core/UI_Controller.c **** 
 238:Dsp/widget/wgt_core/UI_Controller.c ****         /* comput button selector coordinate first */
 239:Dsp/widget/wgt_core/UI_Controller.c ****         Btn_Slct_LftUp_X = HandleToButtonObj(item->Handler)->Gen_Data.x;
 240:Dsp/widget/wgt_core/UI_Controller.c ****         Btn_Slct_LftUp_Y = HandleToButtonObj(item->Handler)->Gen_Data.y + HandleToButtonObj(item->H
 241:Dsp/widget/wgt_core/UI_Controller.c **** 
 242:Dsp/widget/wgt_core/UI_Controller.c ****         Btn_Slct_LftDwn_X = Btn_Slct_LftUp_X;
 243:Dsp/widget/wgt_core/UI_Controller.c ****         Btn_Slct_LftDwn_Y = HandleToButtonObj(item->Handler)->Gen_Data.y;
 244:Dsp/widget/wgt_core/UI_Controller.c **** 
 245:Dsp/widget/wgt_core/UI_Controller.c ****         Btn_Slct_RgtUp_X = HandleToButtonObj(item->Handler)->Gen_Data.x + HandleToButtonObj(item->H
 246:Dsp/widget/wgt_core/UI_Controller.c ****         Btn_Slct_RgtUp_Y = Btn_Slct_LftUp_Y;
 247:Dsp/widget/wgt_core/UI_Controller.c **** 
 248:Dsp/widget/wgt_core/UI_Controller.c ****         Btn_Slct_RgtDwn_X = Btn_Slct_RgtUp_X;
 249:Dsp/widget/wgt_core/UI_Controller.c ****         Btn_Slct_RgtDwn_Y = Btn_Slct_LftDwn_Y;
 250:Dsp/widget/wgt_core/UI_Controller.c **** 
 251:Dsp/widget/wgt_core/UI_Controller.c ****         // show button selector
 252:Dsp/widget/wgt_core/UI_Controller.c ****         UI_DspInterface.draw_circle_section(Btn_Slct_LftUp_X, Btn_Slct_LftUp_Y, BUTTON_SELECTOR_RAD
 253:Dsp/widget/wgt_core/UI_Controller.c ****         UI_DspInterface.draw_circle_section(Btn_Slct_LftDwn_X, Btn_Slct_LftDwn_Y, BUTTON_SELECTOR_R
 254:Dsp/widget/wgt_core/UI_Controller.c ****         UI_DspInterface.draw_circle_section(Btn_Slct_RgtUp_X, Btn_Slct_RgtUp_Y, BUTTON_SELECTOR_RAD
 255:Dsp/widget/wgt_core/UI_Controller.c ****         UI_DspInterface.draw_circle_section(Btn_Slct_RgtDwn_X, Btn_Slct_RgtDwn_Y, BUTTON_SELECTOR_R
 256:Dsp/widget/wgt_core/UI_Controller.c ****         break;
 257:Dsp/widget/wgt_core/UI_Controller.c **** 
 258:Dsp/widget/wgt_core/UI_Controller.c ****     case UI_Type_CheckBox:
 259:Dsp/widget/wgt_core/UI_Controller.c ****         block_x = HandleToCheckBoxObj(item->Handler)->Gen_Data.x + 3;
 260:Dsp/widget/wgt_core/UI_Controller.c ****         block_y = HandleToCheckBoxObj(item->Handler)->Gen_Data.y + 1;
 261:Dsp/widget/wgt_core/UI_Controller.c **** 
 262:Dsp/widget/wgt_core/UI_Controller.c ****         UI_DspInterface.fill_rectangle(block_x, block_y, (widget_width - 6), selector_height, true)
 263:Dsp/widget/wgt_core/UI_Controller.c ****         break;
 264:Dsp/widget/wgt_core/UI_Controller.c **** 
 265:Dsp/widget/wgt_core/UI_Controller.c ****     case UI_Type_SlideBar:
 266:Dsp/widget/wgt_core/UI_Controller.c ****         block_y = HandleToSlideBarObj(item->Handler)->Gen_Data.y + 1;
 267:Dsp/widget/wgt_core/UI_Controller.c **** 
 268:Dsp/widget/wgt_core/UI_Controller.c ****         if (!UI_SlideBar_IsSelected(HandleToButtonObj(item->Handler)))
 269:Dsp/widget/wgt_core/UI_Controller.c ****         {
 270:Dsp/widget/wgt_core/UI_Controller.c ****             block_x = HandleToSlideBarObj(item->Handler)->Gen_Data.x + 3;
 271:Dsp/widget/wgt_core/UI_Controller.c **** 
 272:Dsp/widget/wgt_core/UI_Controller.c ****             UI_DspInterface.fill_rectangle(block_x, block_y, (widget_width - 6), selector_height, t
 273:Dsp/widget/wgt_core/UI_Controller.c ****         }
 274:Dsp/widget/wgt_core/UI_Controller.c ****         else
 275:Dsp/widget/wgt_core/UI_Controller.c ****         {
 276:Dsp/widget/wgt_core/UI_Controller.c ****             block_x = HandleToSlideBarObj(item->Handler)->BarCoord_X - 3;
 277:Dsp/widget/wgt_core/UI_Controller.c **** 
 278:Dsp/widget/wgt_core/UI_Controller.c ****             UI_DspInterface.fill_rectangle(block_x, block_y, (widget_width - block_x - 6), selector
ARM GAS  /var/folders/lx/hc4sn_b53233_zkc9xbbl97r0000gp/T//cc46Bl7B.s 			page 9


 279:Dsp/widget/wgt_core/UI_Controller.c ****         }
 280:Dsp/widget/wgt_core/UI_Controller.c ****         break;
 281:Dsp/widget/wgt_core/UI_Controller.c **** 
 282:Dsp/widget/wgt_core/UI_Controller.c ****     case UI_Type_Drop:
 283:Dsp/widget/wgt_core/UI_Controller.c ****         block_y = HandleToDropObj(item->Handler)->Gen_Data.y;
 284:Dsp/widget/wgt_core/UI_Controller.c **** 
 285:Dsp/widget/wgt_core/UI_Controller.c ****         if (HandleToDropObj(item->Handler)->is_selected)
 286:Dsp/widget/wgt_core/UI_Controller.c ****         {
 287:Dsp/widget/wgt_core/UI_Controller.c ****             block_x = HandleToDropObj(item->Handler)->Gen_Data.x;
 288:Dsp/widget/wgt_core/UI_Controller.c ****         }
 289:Dsp/widget/wgt_core/UI_Controller.c ****         else
 290:Dsp/widget/wgt_core/UI_Controller.c ****         {
 291:Dsp/widget/wgt_core/UI_Controller.c ****             block_x = HandleToDropObj(item->Handler)->Gen_Data.x;
 292:Dsp/widget/wgt_core/UI_Controller.c ****         }
 293:Dsp/widget/wgt_core/UI_Controller.c ****         break;
 294:Dsp/widget/wgt_core/UI_Controller.c **** 
 295:Dsp/widget/wgt_core/UI_Controller.c ****     default:
 296:Dsp/widget/wgt_core/UI_Controller.c ****         return false;
 297:Dsp/widget/wgt_core/UI_Controller.c ****     }
 298:Dsp/widget/wgt_core/UI_Controller.c **** 
 299:Dsp/widget/wgt_core/UI_Controller.c ****     return true;
 300:Dsp/widget/wgt_core/UI_Controller.c **** }
 301:Dsp/widget/wgt_core/UI_Controller.c **** 
 302:Dsp/widget/wgt_core/UI_Controller.c **** static void UI_GenData_Init(UI_GeneralData_TypeDef *GenData, char *label, int16_t x, int16_t y)
 303:Dsp/widget/wgt_core/UI_Controller.c **** {
 171              		.loc 1 303 1 is_stmt 1 view -0
 172              		.cfi_startproc
 173              		@ args = 0, pretend = 0, frame = 0
 174              		@ frame_needed = 0, uses_anonymous_args = 0
 175              		@ link register save eliminated.
 304:Dsp/widget/wgt_core/UI_Controller.c ****     GenData->label = label;
 176              		.loc 1 304 5 view .LVU39
 177              		.loc 1 304 20 is_stmt 0 view .LVU40
 178 0000 0160     		str	r1, [r0]
 305:Dsp/widget/wgt_core/UI_Controller.c **** 
 306:Dsp/widget/wgt_core/UI_Controller.c ****     GenData->x = x;
 179              		.loc 1 306 5 is_stmt 1 view .LVU41
 180              		.loc 1 306 16 is_stmt 0 view .LVU42
 181 0002 8280     		strh	r2, [r0, #4]	@ movhi
 307:Dsp/widget/wgt_core/UI_Controller.c ****     GenData->y = y;
 182              		.loc 1 307 5 is_stmt 1 view .LVU43
 183              		.loc 1 307 16 is_stmt 0 view .LVU44
 184 0004 C380     		strh	r3, [r0, #6]	@ movhi
 308:Dsp/widget/wgt_core/UI_Controller.c **** 
 309:Dsp/widget/wgt_core/UI_Controller.c ****     GenData->operatable = false;
 185              		.loc 1 309 5 is_stmt 1 view .LVU45
 186              		.loc 1 309 25 is_stmt 0 view .LVU46
 187 0006 0023     		movs	r3, #0
 188              	.LVL15:
 189              		.loc 1 309 25 view .LVU47
 190 0008 0372     		strb	r3, [r0, #8]
 310:Dsp/widget/wgt_core/UI_Controller.c **** }
 191              		.loc 1 310 1 view .LVU48
 192 000a 7047     		bx	lr
 193              		.cfi_endproc
 194              	.LFE8:
 196              		.section	.text.UI_Move,"ax",%progbits
ARM GAS  /var/folders/lx/hc4sn_b53233_zkc9xbbl97r0000gp/T//cc46Bl7B.s 			page 10


 197              		.align	1
 198              		.syntax unified
 199              		.thumb
 200              		.thumb_func
 201              		.fpu fpv4-sp-d16
 203              	UI_Move:
 204              	.LVL16:
 205              	.LFB9:
 311:Dsp/widget/wgt_core/UI_Controller.c **** 
 312:Dsp/widget/wgt_core/UI_Controller.c **** static bool UI_Move(UI_GeneralData_TypeDef *GenUI_Info, int16_t dst_x, int16_t dst_y)
 313:Dsp/widget/wgt_core/UI_Controller.c **** {
 206              		.loc 1 313 1 is_stmt 1 view -0
 207              		.cfi_startproc
 208              		@ args = 0, pretend = 0, frame = 0
 209              		@ frame_needed = 0, uses_anonymous_args = 0
 210              		@ link register save eliminated.
 314:Dsp/widget/wgt_core/UI_Controller.c ****     if (GenUI_Info == NULL)
 211              		.loc 1 314 5 view .LVU50
 212              		.loc 1 314 8 is_stmt 0 view .LVU51
 213 0000 18B1     		cbz	r0, .L19
 315:Dsp/widget/wgt_core/UI_Controller.c ****         return false;
 316:Dsp/widget/wgt_core/UI_Controller.c **** 
 317:Dsp/widget/wgt_core/UI_Controller.c ****     GenUI_Info->x = dst_x;
 214              		.loc 1 317 5 is_stmt 1 view .LVU52
 215              		.loc 1 317 19 is_stmt 0 view .LVU53
 216 0002 8180     		strh	r1, [r0, #4]	@ movhi
 318:Dsp/widget/wgt_core/UI_Controller.c ****     GenUI_Info->y = dst_y;
 217              		.loc 1 318 5 is_stmt 1 view .LVU54
 218              		.loc 1 318 19 is_stmt 0 view .LVU55
 219 0004 C280     		strh	r2, [r0, #6]	@ movhi
 319:Dsp/widget/wgt_core/UI_Controller.c **** 
 320:Dsp/widget/wgt_core/UI_Controller.c ****     return true;
 220              		.loc 1 320 5 is_stmt 1 view .LVU56
 221              		.loc 1 320 12 is_stmt 0 view .LVU57
 222 0006 0120     		movs	r0, #1
 223              	.LVL17:
 224              		.loc 1 320 12 view .LVU58
 225 0008 7047     		bx	lr
 226              	.LVL18:
 227              	.L19:
 315:Dsp/widget/wgt_core/UI_Controller.c **** 
 228              		.loc 1 315 16 view .LVU59
 229 000a 0020     		movs	r0, #0
 230              	.LVL19:
 321:Dsp/widget/wgt_core/UI_Controller.c **** }
 231              		.loc 1 321 1 view .LVU60
 232 000c 7047     		bx	lr
 233              		.cfi_endproc
 234              	.LFE9:
 236              		.section	.rodata.UI_Button_Init.str1.4,"aMS",%progbits,1
 237              		.align	2
 238              	.LC0:
 239 0000 79657300 		.ascii	"yes\000"
 240              		.align	2
 241              	.LC1:
 242 0004 6E6F00   		.ascii	"no\000"
 243              		.section	.text.UI_Button_Init,"ax",%progbits
ARM GAS  /var/folders/lx/hc4sn_b53233_zkc9xbbl97r0000gp/T//cc46Bl7B.s 			page 11


 244              		.align	1
 245              		.syntax unified
 246              		.thumb
 247              		.thumb_func
 248              		.fpu fpv4-sp-d16
 250              	UI_Button_Init:
 251              	.LVL20:
 252              	.LFB10:
 322:Dsp/widget/wgt_core/UI_Controller.c **** 
 323:Dsp/widget/wgt_core/UI_Controller.c **** /********************************************** UI Button Object **********************************
 324:Dsp/widget/wgt_core/UI_Controller.c **** static bool UI_Button_Init(UI_ButtonObj_TypeDef *Obj, char *label, int16_t x, int16_t y, uint8_t wi
 325:Dsp/widget/wgt_core/UI_Controller.c **** {
 253              		.loc 1 325 1 is_stmt 1 view -0
 254              		.cfi_startproc
 255              		@ args = 16, pretend = 0, frame = 0
 256              		@ frame_needed = 0, uses_anonymous_args = 0
 257              		.loc 1 325 1 is_stmt 0 view .LVU62
 258 0000 10B5     		push	{r4, lr}
 259              	.LCFI1:
 260              		.cfi_def_cfa_offset 8
 261              		.cfi_offset 4, -8
 262              		.cfi_offset 14, -4
 263 0002 9DF814C0 		ldrb	ip, [sp, #20]	@ zero_extendqisi2
 326:Dsp/widget/wgt_core/UI_Controller.c ****     if (Obj == NULL)
 264              		.loc 1 326 5 is_stmt 1 view .LVU63
 265              		.loc 1 326 8 is_stmt 0 view .LVU64
 266 0006 C8B1     		cbz	r0, .L22
 267 0008 0446     		mov	r4, r0
 327:Dsp/widget/wgt_core/UI_Controller.c ****         return false;
 328:Dsp/widget/wgt_core/UI_Controller.c **** 
 329:Dsp/widget/wgt_core/UI_Controller.c ****     Obj->default_state = state;
 268              		.loc 1 329 5 is_stmt 1 view .LVU65
 269              		.loc 1 329 24 is_stmt 0 view .LVU66
 270 000a 80F80CC0 		strb	ip, [r0, #12]
 330:Dsp/widget/wgt_core/UI_Controller.c ****     Obj->state = state;
 271              		.loc 1 330 5 is_stmt 1 view .LVU67
 272              		.loc 1 330 16 is_stmt 0 view .LVU68
 273 000e 80F80DC0 		strb	ip, [r0, #13]
 331:Dsp/widget/wgt_core/UI_Controller.c ****     Obj->type = type;
 274              		.loc 1 331 5 is_stmt 1 view .LVU69
 275              		.loc 1 331 15 is_stmt 0 view .LVU70
 276 0012 9DF81000 		ldrb	r0, [sp, #16]	@ zero_extendqisi2
 277              	.LVL21:
 278              		.loc 1 331 15 view .LVU71
 279 0016 A073     		strb	r0, [r4, #14]
 332:Dsp/widget/wgt_core/UI_Controller.c **** 
 333:Dsp/widget/wgt_core/UI_Controller.c ****     UI_GenData_Init(&Obj->Gen_Data, label, x, y);
 280              		.loc 1 333 5 is_stmt 1 view .LVU72
 281 0018 2046     		mov	r0, r4
 282 001a FFF7FEFF 		bl	UI_GenData_Init
 283              	.LVL22:
 334:Dsp/widget/wgt_core/UI_Controller.c **** 
 335:Dsp/widget/wgt_core/UI_Controller.c ****     Obj->width = width;
 284              		.loc 1 335 5 view .LVU73
 285              		.loc 1 335 16 is_stmt 0 view .LVU74
 286 001e 9DF80830 		ldrb	r3, [sp, #8]	@ zero_extendqisi2
 287 0022 E377     		strb	r3, [r4, #31]
ARM GAS  /var/folders/lx/hc4sn_b53233_zkc9xbbl97r0000gp/T//cc46Bl7B.s 			page 12


 336:Dsp/widget/wgt_core/UI_Controller.c ****     Obj->height = height;
 288              		.loc 1 336 5 is_stmt 1 view .LVU75
 289              		.loc 1 336 17 is_stmt 0 view .LVU76
 290 0024 9DF80C30 		ldrb	r3, [sp, #12]	@ zero_extendqisi2
 291 0028 84F82030 		strb	r3, [r4, #32]
 337:Dsp/widget/wgt_core/UI_Controller.c **** 
 338:Dsp/widget/wgt_core/UI_Controller.c ****     Obj->PushDown_Label = DEFAULT_BUTTON_PUSH_LABEL;
 292              		.loc 1 338 5 is_stmt 1 view .LVU77
 293              		.loc 1 338 25 is_stmt 0 view .LVU78
 294 002c 044B     		ldr	r3, .L24
 295 002e C4F81730 		str	r3, [r4, #23]	@ unaligned
 339:Dsp/widget/wgt_core/UI_Controller.c ****     Obj->Release_Label = DEFAULT_BUTTON_RELEASE_LABEL;
 296              		.loc 1 339 5 is_stmt 1 view .LVU79
 297              		.loc 1 339 24 is_stmt 0 view .LVU80
 298 0032 044B     		ldr	r3, .L24+4
 299 0034 C4F81B30 		str	r3, [r4, #27]	@ unaligned
 340:Dsp/widget/wgt_core/UI_Controller.c **** 
 341:Dsp/widget/wgt_core/UI_Controller.c ****     return true;
 300              		.loc 1 341 5 is_stmt 1 view .LVU81
 301              		.loc 1 341 12 is_stmt 0 view .LVU82
 302 0038 0120     		movs	r0, #1
 303              	.LVL23:
 304              	.L21:
 342:Dsp/widget/wgt_core/UI_Controller.c **** }
 305              		.loc 1 342 1 view .LVU83
 306 003a 10BD     		pop	{r4, pc}
 307              	.LVL24:
 308              	.L22:
 327:Dsp/widget/wgt_core/UI_Controller.c **** 
 309              		.loc 1 327 16 view .LVU84
 310 003c 0020     		movs	r0, #0
 311              	.LVL25:
 327:Dsp/widget/wgt_core/UI_Controller.c **** 
 312              		.loc 1 327 16 view .LVU85
 313 003e FCE7     		b	.L21
 314              	.L25:
 315              		.align	2
 316              	.L24:
 317 0040 00000000 		.word	.LC0
 318 0044 04000000 		.word	.LC1
 319              		.cfi_endproc
 320              	.LFE10:
 322              		.section	.text.UI_Button_Set_Label,"ax",%progbits
 323              		.align	1
 324              		.syntax unified
 325              		.thumb
 326              		.thumb_func
 327              		.fpu fpv4-sp-d16
 329              	UI_Button_Set_Label:
 330              	.LVL26:
 331              	.LFB11:
 343:Dsp/widget/wgt_core/UI_Controller.c **** 
 344:Dsp/widget/wgt_core/UI_Controller.c **** static bool UI_Button_Set_Label(UI_ButtonObj_TypeDef *Obj, UI_Button_State_List state, char *label)
 345:Dsp/widget/wgt_core/UI_Controller.c **** {
 332              		.loc 1 345 1 is_stmt 1 view -0
 333              		.cfi_startproc
 334              		@ args = 0, pretend = 0, frame = 0
ARM GAS  /var/folders/lx/hc4sn_b53233_zkc9xbbl97r0000gp/T//cc46Bl7B.s 			page 13


 335              		@ frame_needed = 0, uses_anonymous_args = 0
 336              		@ link register save eliminated.
 346:Dsp/widget/wgt_core/UI_Controller.c ****     if (Obj == NULL)
 337              		.loc 1 346 5 view .LVU87
 338              		.loc 1 346 8 is_stmt 0 view .LVU88
 339 0000 48B1     		cbz	r0, .L29
 347:Dsp/widget/wgt_core/UI_Controller.c ****         return false;
 348:Dsp/widget/wgt_core/UI_Controller.c **** 
 349:Dsp/widget/wgt_core/UI_Controller.c ****     if (state == UI_Btn_PushDwn)
 340              		.loc 1 349 5 is_stmt 1 view .LVU89
 341              		.loc 1 349 8 is_stmt 0 view .LVU90
 342 0002 0129     		cmp	r1, #1
 343 0004 03D0     		beq	.L30
 350:Dsp/widget/wgt_core/UI_Controller.c ****         Obj->PushDown_Label = label;
 351:Dsp/widget/wgt_core/UI_Controller.c ****     else
 352:Dsp/widget/wgt_core/UI_Controller.c ****         Obj->Release_Label = label;
 344              		.loc 1 352 9 is_stmt 1 view .LVU91
 345              		.loc 1 352 28 is_stmt 0 view .LVU92
 346 0006 C0F81B20 		str	r2, [r0, #27]	@ unaligned
 353:Dsp/widget/wgt_core/UI_Controller.c **** 
 354:Dsp/widget/wgt_core/UI_Controller.c ****     return true;
 347              		.loc 1 354 12 view .LVU93
 348 000a 0120     		movs	r0, #1
 349              	.LVL27:
 350              		.loc 1 354 12 view .LVU94
 351 000c 7047     		bx	lr
 352              	.LVL28:
 353              	.L30:
 350:Dsp/widget/wgt_core/UI_Controller.c ****         Obj->PushDown_Label = label;
 354              		.loc 1 350 9 is_stmt 1 view .LVU95
 350:Dsp/widget/wgt_core/UI_Controller.c ****         Obj->PushDown_Label = label;
 355              		.loc 1 350 29 is_stmt 0 view .LVU96
 356 000e C0F81720 		str	r2, [r0, #23]	@ unaligned
 357              		.loc 1 354 12 view .LVU97
 358 0012 0120     		movs	r0, #1
 359              	.LVL29:
 360              		.loc 1 354 12 view .LVU98
 361 0014 7047     		bx	lr
 362              	.LVL30:
 363              	.L29:
 347:Dsp/widget/wgt_core/UI_Controller.c **** 
 364              		.loc 1 347 16 view .LVU99
 365 0016 0020     		movs	r0, #0
 366              	.LVL31:
 355:Dsp/widget/wgt_core/UI_Controller.c **** }
 367              		.loc 1 355 1 view .LVU100
 368 0018 7047     		bx	lr
 369              		.cfi_endproc
 370              	.LFE11:
 372              		.section	.text.UI_Button_Set_TriggerCallback,"ax",%progbits
 373              		.align	1
 374              		.syntax unified
 375              		.thumb
 376              		.thumb_func
 377              		.fpu fpv4-sp-d16
 379              	UI_Button_Set_TriggerCallback:
 380              	.LVL32:
ARM GAS  /var/folders/lx/hc4sn_b53233_zkc9xbbl97r0000gp/T//cc46Bl7B.s 			page 14


 381              	.LFB12:
 356:Dsp/widget/wgt_core/UI_Controller.c **** 
 357:Dsp/widget/wgt_core/UI_Controller.c **** static bool UI_Button_Set_TriggerCallback(UI_ButtonObj_TypeDef *Obj, UI_Button_Trigger_Type type, U
 358:Dsp/widget/wgt_core/UI_Controller.c **** {
 382              		.loc 1 358 1 is_stmt 1 view -0
 383              		.cfi_startproc
 384              		@ args = 0, pretend = 0, frame = 0
 385              		@ frame_needed = 0, uses_anonymous_args = 0
 386              		@ link register save eliminated.
 359:Dsp/widget/wgt_core/UI_Controller.c ****     if (Obj == NULL)
 387              		.loc 1 359 5 view .LVU102
 388              		.loc 1 359 8 is_stmt 0 view .LVU103
 389 0000 50B1     		cbz	r0, .L34
 360:Dsp/widget/wgt_core/UI_Controller.c ****         return false;
 361:Dsp/widget/wgt_core/UI_Controller.c **** 
 362:Dsp/widget/wgt_core/UI_Controller.c ****     if (type == Push_Trigger)
 390              		.loc 1 362 5 is_stmt 1 view .LVU104
 391              		.loc 1 362 8 is_stmt 0 view .LVU105
 392 0002 0129     		cmp	r1, #1
 393 0004 04D0     		beq	.L36
 363:Dsp/widget/wgt_core/UI_Controller.c ****     {
 364:Dsp/widget/wgt_core/UI_Controller.c ****         Obj->push_callback = callback;
 365:Dsp/widget/wgt_core/UI_Controller.c ****     }
 366:Dsp/widget/wgt_core/UI_Controller.c ****     else if (type == Release_Trigger)
 394              		.loc 1 366 10 is_stmt 1 view .LVU106
 395              		.loc 1 366 13 is_stmt 0 view .LVU107
 396 0006 49B9     		cbnz	r1, .L35
 367:Dsp/widget/wgt_core/UI_Controller.c ****     {
 368:Dsp/widget/wgt_core/UI_Controller.c ****         Obj->release_callback = callback;
 397              		.loc 1 368 9 is_stmt 1 view .LVU108
 398              		.loc 1 368 31 is_stmt 0 view .LVU109
 399 0008 C0F81320 		str	r2, [r0, #19]	@ unaligned
 369:Dsp/widget/wgt_core/UI_Controller.c ****     }
 370:Dsp/widget/wgt_core/UI_Controller.c ****     else
 371:Dsp/widget/wgt_core/UI_Controller.c ****         return false;
 372:Dsp/widget/wgt_core/UI_Controller.c **** 
 373:Dsp/widget/wgt_core/UI_Controller.c ****     return true;
 400              		.loc 1 373 12 view .LVU110
 401 000c 0120     		movs	r0, #1
 402              	.LVL33:
 403              		.loc 1 373 12 view .LVU111
 404 000e 7047     		bx	lr
 405              	.LVL34:
 406              	.L36:
 364:Dsp/widget/wgt_core/UI_Controller.c ****     }
 407              		.loc 1 364 9 is_stmt 1 view .LVU112
 364:Dsp/widget/wgt_core/UI_Controller.c ****     }
 408              		.loc 1 364 28 is_stmt 0 view .LVU113
 409 0010 C0F80F20 		str	r2, [r0, #15]	@ unaligned
 410              		.loc 1 373 12 view .LVU114
 411 0014 0120     		movs	r0, #1
 412              	.LVL35:
 413              		.loc 1 373 12 view .LVU115
 414 0016 7047     		bx	lr
 415              	.LVL36:
 416              	.L34:
 360:Dsp/widget/wgt_core/UI_Controller.c **** 
ARM GAS  /var/folders/lx/hc4sn_b53233_zkc9xbbl97r0000gp/T//cc46Bl7B.s 			page 15


 417              		.loc 1 360 16 view .LVU116
 418 0018 0020     		movs	r0, #0
 419              	.LVL37:
 360:Dsp/widget/wgt_core/UI_Controller.c **** 
 420              		.loc 1 360 16 view .LVU117
 421 001a 7047     		bx	lr
 422              	.LVL38:
 423              	.L35:
 371:Dsp/widget/wgt_core/UI_Controller.c **** 
 424              		.loc 1 371 16 view .LVU118
 425 001c 0020     		movs	r0, #0
 426              	.LVL39:
 374:Dsp/widget/wgt_core/UI_Controller.c **** }
 427              		.loc 1 374 1 view .LVU119
 428 001e 7047     		bx	lr
 429              		.cfi_endproc
 430              	.LFE12:
 432              		.section	.text.UI_Button_Push,"ax",%progbits
 433              		.align	1
 434              		.syntax unified
 435              		.thumb
 436              		.thumb_func
 437              		.fpu fpv4-sp-d16
 439              	UI_Button_Push:
 440              	.LVL40:
 441              	.LFB13:
 375:Dsp/widget/wgt_core/UI_Controller.c **** 
 376:Dsp/widget/wgt_core/UI_Controller.c **** static bool UI_Button_Push(UI_ButtonObj_TypeDef *Obj)
 377:Dsp/widget/wgt_core/UI_Controller.c **** {
 442              		.loc 1 377 1 is_stmt 1 view -0
 443              		.cfi_startproc
 444              		@ args = 0, pretend = 0, frame = 0
 445              		@ frame_needed = 0, uses_anonymous_args = 0
 378:Dsp/widget/wgt_core/UI_Controller.c ****     if (Obj == NULL)
 446              		.loc 1 378 5 view .LVU121
 447              		.loc 1 378 8 is_stmt 0 view .LVU122
 448 0000 F0B1     		cbz	r0, .L41
 377:Dsp/widget/wgt_core/UI_Controller.c ****     if (Obj == NULL)
 449              		.loc 1 377 1 view .LVU123
 450 0002 08B5     		push	{r3, lr}
 451              	.LCFI2:
 452              		.cfi_def_cfa_offset 8
 453              		.cfi_offset 3, -8
 454              		.cfi_offset 14, -4
 455 0004 0346     		mov	r3, r0
 379:Dsp/widget/wgt_core/UI_Controller.c ****         return false;
 380:Dsp/widget/wgt_core/UI_Controller.c **** 
 381:Dsp/widget/wgt_core/UI_Controller.c ****     if (Obj->type == Lock_Btn)
 456              		.loc 1 381 5 is_stmt 1 view .LVU124
 457              		.loc 1 381 12 is_stmt 0 view .LVU125
 458 0006 827B     		ldrb	r2, [r0, #14]	@ zero_extendqisi2
 459              		.loc 1 381 8 view .LVU126
 460 0008 012A     		cmp	r2, #1
 461 000a 06D0     		beq	.L49
 382:Dsp/widget/wgt_core/UI_Controller.c ****     {
 383:Dsp/widget/wgt_core/UI_Controller.c ****         if (Obj->state == UI_Btn_RlsUp)
 384:Dsp/widget/wgt_core/UI_Controller.c ****             Obj->state = UI_Btn_PushDwn;
ARM GAS  /var/folders/lx/hc4sn_b53233_zkc9xbbl97r0000gp/T//cc46Bl7B.s 			page 16


 385:Dsp/widget/wgt_core/UI_Controller.c ****         else
 386:Dsp/widget/wgt_core/UI_Controller.c ****             Obj->state = UI_Btn_RlsUp;
 387:Dsp/widget/wgt_core/UI_Controller.c ****     }
 388:Dsp/widget/wgt_core/UI_Controller.c ****     else if (Obj->type == Reset_Btn)
 462              		.loc 1 388 10 is_stmt 1 view .LVU127
 463              		.loc 1 388 13 is_stmt 0 view .LVU128
 464 000c D2B9     		cbnz	r2, .L42
 389:Dsp/widget/wgt_core/UI_Controller.c ****     {
 390:Dsp/widget/wgt_core/UI_Controller.c ****         if (Obj->default_state == Obj->state)
 465              		.loc 1 390 9 is_stmt 1 view .LVU129
 466              		.loc 1 390 16 is_stmt 0 view .LVU130
 467 000e 027B     		ldrb	r2, [r0, #12]	@ zero_extendqisi2
 468              		.loc 1 390 38 view .LVU131
 469 0010 417B     		ldrb	r1, [r0, #13]	@ zero_extendqisi2
 470              		.loc 1 390 12 view .LVU132
 471 0012 8A42     		cmp	r2, r1
 472 0014 0AD0     		beq	.L50
 391:Dsp/widget/wgt_core/UI_Controller.c ****         {
 392:Dsp/widget/wgt_core/UI_Controller.c ****             Obj->state = !Obj->default_state;
 393:Dsp/widget/wgt_core/UI_Controller.c **** 
 394:Dsp/widget/wgt_core/UI_Controller.c ****             if (Obj->push_callback != NULL)
 395:Dsp/widget/wgt_core/UI_Controller.c ****                 Obj->push_callback();
 396:Dsp/widget/wgt_core/UI_Controller.c ****         }
 397:Dsp/widget/wgt_core/UI_Controller.c ****     }
 398:Dsp/widget/wgt_core/UI_Controller.c ****     else
 399:Dsp/widget/wgt_core/UI_Controller.c ****         return false;
 400:Dsp/widget/wgt_core/UI_Controller.c **** 
 401:Dsp/widget/wgt_core/UI_Controller.c ****     return true;
 473              		.loc 1 401 12 view .LVU133
 474 0016 0120     		movs	r0, #1
 475              	.LVL41:
 476              	.L38:
 402:Dsp/widget/wgt_core/UI_Controller.c **** }
 477              		.loc 1 402 1 view .LVU134
 478 0018 08BD     		pop	{r3, pc}
 479              	.LVL42:
 480              	.L49:
 383:Dsp/widget/wgt_core/UI_Controller.c ****             Obj->state = UI_Btn_PushDwn;
 481              		.loc 1 383 9 is_stmt 1 view .LVU135
 383:Dsp/widget/wgt_core/UI_Controller.c ****             Obj->state = UI_Btn_PushDwn;
 482              		.loc 1 383 16 is_stmt 0 view .LVU136
 483 001a 427B     		ldrb	r2, [r0, #13]	@ zero_extendqisi2
 383:Dsp/widget/wgt_core/UI_Controller.c ****             Obj->state = UI_Btn_PushDwn;
 484              		.loc 1 383 12 view .LVU137
 485 001c 12B9     		cbnz	r2, .L40
 384:Dsp/widget/wgt_core/UI_Controller.c ****         else
 486              		.loc 1 384 13 is_stmt 1 view .LVU138
 384:Dsp/widget/wgt_core/UI_Controller.c ****         else
 487              		.loc 1 384 24 is_stmt 0 view .LVU139
 488 001e 0120     		movs	r0, #1
 489              	.LVL43:
 384:Dsp/widget/wgt_core/UI_Controller.c ****         else
 490              		.loc 1 384 24 view .LVU140
 491 0020 5873     		strb	r0, [r3, #13]
 492 0022 F9E7     		b	.L38
 493              	.LVL44:
 494              	.L40:
ARM GAS  /var/folders/lx/hc4sn_b53233_zkc9xbbl97r0000gp/T//cc46Bl7B.s 			page 17


 386:Dsp/widget/wgt_core/UI_Controller.c ****     }
 495              		.loc 1 386 13 is_stmt 1 view .LVU141
 386:Dsp/widget/wgt_core/UI_Controller.c ****     }
 496              		.loc 1 386 24 is_stmt 0 view .LVU142
 497 0024 0022     		movs	r2, #0
 498 0026 4273     		strb	r2, [r0, #13]
 401:Dsp/widget/wgt_core/UI_Controller.c **** }
 499              		.loc 1 401 12 view .LVU143
 500 0028 0120     		movs	r0, #1
 501              	.LVL45:
 401:Dsp/widget/wgt_core/UI_Controller.c **** }
 502              		.loc 1 401 12 view .LVU144
 503 002a F5E7     		b	.L38
 504              	.LVL46:
 505              	.L50:
 392:Dsp/widget/wgt_core/UI_Controller.c **** 
 506              		.loc 1 392 13 is_stmt 1 view .LVU145
 392:Dsp/widget/wgt_core/UI_Controller.c **** 
 507              		.loc 1 392 26 is_stmt 0 view .LVU146
 508 002c B2FA82F2 		clz	r2, r2
 509 0030 5209     		lsrs	r2, r2, #5
 392:Dsp/widget/wgt_core/UI_Controller.c **** 
 510              		.loc 1 392 24 view .LVU147
 511 0032 4273     		strb	r2, [r0, #13]
 394:Dsp/widget/wgt_core/UI_Controller.c ****                 Obj->push_callback();
 512              		.loc 1 394 13 is_stmt 1 view .LVU148
 394:Dsp/widget/wgt_core/UI_Controller.c ****                 Obj->push_callback();
 513              		.loc 1 394 20 is_stmt 0 view .LVU149
 514 0034 D0F80F30 		ldr	r3, [r0, #15]	@ unaligned
 394:Dsp/widget/wgt_core/UI_Controller.c ****                 Obj->push_callback();
 515              		.loc 1 394 16 view .LVU150
 516 0038 33B1     		cbz	r3, .L44
 395:Dsp/widget/wgt_core/UI_Controller.c ****         }
 517              		.loc 1 395 17 is_stmt 1 view .LVU151
 518 003a 9847     		blx	r3
 519              	.LVL47:
 401:Dsp/widget/wgt_core/UI_Controller.c **** }
 520              		.loc 1 401 12 is_stmt 0 view .LVU152
 521 003c 0120     		movs	r0, #1
 522 003e EBE7     		b	.L38
 523              	.LVL48:
 524              	.L41:
 525              	.LCFI3:
 526              		.cfi_def_cfa_offset 0
 527              		.cfi_restore 3
 528              		.cfi_restore 14
 379:Dsp/widget/wgt_core/UI_Controller.c **** 
 529              		.loc 1 379 16 view .LVU153
 530 0040 0020     		movs	r0, #0
 531              	.LVL49:
 532              		.loc 1 402 1 view .LVU154
 533 0042 7047     		bx	lr
 534              	.LVL50:
 535              	.L42:
 536              	.LCFI4:
 537              		.cfi_def_cfa_offset 8
 538              		.cfi_offset 3, -8
ARM GAS  /var/folders/lx/hc4sn_b53233_zkc9xbbl97r0000gp/T//cc46Bl7B.s 			page 18


 539              		.cfi_offset 14, -4
 399:Dsp/widget/wgt_core/UI_Controller.c **** 
 540              		.loc 1 399 16 view .LVU155
 541 0044 0020     		movs	r0, #0
 542              	.LVL51:
 399:Dsp/widget/wgt_core/UI_Controller.c **** 
 543              		.loc 1 399 16 view .LVU156
 544 0046 E7E7     		b	.L38
 545              	.LVL52:
 546              	.L44:
 401:Dsp/widget/wgt_core/UI_Controller.c **** }
 547              		.loc 1 401 12 view .LVU157
 548 0048 0120     		movs	r0, #1
 549              	.LVL53:
 401:Dsp/widget/wgt_core/UI_Controller.c **** }
 550              		.loc 1 401 12 view .LVU158
 551 004a E5E7     		b	.L38
 552              		.cfi_endproc
 553              	.LFE13:
 555              		.section	.text.UI_Button_Release,"ax",%progbits
 556              		.align	1
 557              		.syntax unified
 558              		.thumb
 559              		.thumb_func
 560              		.fpu fpv4-sp-d16
 562              	UI_Button_Release:
 563              	.LVL54:
 564              	.LFB14:
 403:Dsp/widget/wgt_core/UI_Controller.c **** 
 404:Dsp/widget/wgt_core/UI_Controller.c **** static bool UI_Button_Release(UI_ButtonObj_TypeDef *Obj)
 405:Dsp/widget/wgt_core/UI_Controller.c **** {
 565              		.loc 1 405 1 is_stmt 1 view -0
 566              		.cfi_startproc
 567              		@ args = 0, pretend = 0, frame = 0
 568              		@ frame_needed = 0, uses_anonymous_args = 0
 406:Dsp/widget/wgt_core/UI_Controller.c ****     if (Obj == NULL)
 569              		.loc 1 406 5 view .LVU160
 570              		.loc 1 406 8 is_stmt 0 view .LVU161
 571 0000 70B1     		cbz	r0, .L53
 405:Dsp/widget/wgt_core/UI_Controller.c ****     if (Obj == NULL)
 572              		.loc 1 405 1 view .LVU162
 573 0002 08B5     		push	{r3, lr}
 574              	.LCFI5:
 575              		.cfi_def_cfa_offset 8
 576              		.cfi_offset 3, -8
 577              		.cfi_offset 14, -4
 407:Dsp/widget/wgt_core/UI_Controller.c ****         return false;
 408:Dsp/widget/wgt_core/UI_Controller.c **** 
 409:Dsp/widget/wgt_core/UI_Controller.c ****     if (Obj->type == Lock_Btn)
 578              		.loc 1 409 5 is_stmt 1 view .LVU163
 579              		.loc 1 409 12 is_stmt 0 view .LVU164
 580 0004 827B     		ldrb	r2, [r0, #14]	@ zero_extendqisi2
 581              		.loc 1 409 8 view .LVU165
 582 0006 012A     		cmp	r2, #1
 583 0008 0CD0     		beq	.L54
 410:Dsp/widget/wgt_core/UI_Controller.c ****         return true;
 411:Dsp/widget/wgt_core/UI_Controller.c **** 
ARM GAS  /var/folders/lx/hc4sn_b53233_zkc9xbbl97r0000gp/T//cc46Bl7B.s 			page 19


 412:Dsp/widget/wgt_core/UI_Controller.c ****     if (Obj->default_state != Obj->state)
 584              		.loc 1 412 5 is_stmt 1 view .LVU166
 585              		.loc 1 412 12 is_stmt 0 view .LVU167
 586 000a 027B     		ldrb	r2, [r0, #12]	@ zero_extendqisi2
 587              		.loc 1 412 34 view .LVU168
 588 000c 417B     		ldrb	r1, [r0, #13]	@ zero_extendqisi2
 589              		.loc 1 412 8 view .LVU169
 590 000e 8A42     		cmp	r2, r1
 591 0010 0AD0     		beq	.L55
 413:Dsp/widget/wgt_core/UI_Controller.c ****     {
 414:Dsp/widget/wgt_core/UI_Controller.c ****         Obj->state = Obj->default_state;
 592              		.loc 1 414 9 is_stmt 1 view .LVU170
 593              		.loc 1 414 20 is_stmt 0 view .LVU171
 594 0012 4273     		strb	r2, [r0, #13]
 415:Dsp/widget/wgt_core/UI_Controller.c **** 
 416:Dsp/widget/wgt_core/UI_Controller.c ****         if (Obj->release_callback != NULL)
 595              		.loc 1 416 9 is_stmt 1 view .LVU172
 596              		.loc 1 416 16 is_stmt 0 view .LVU173
 597 0014 D0F81330 		ldr	r3, [r0, #19]	@ unaligned
 598              		.loc 1 416 12 view .LVU174
 599 0018 43B1     		cbz	r3, .L56
 417:Dsp/widget/wgt_core/UI_Controller.c ****             Obj->release_callback();
 600              		.loc 1 417 13 is_stmt 1 view .LVU175
 601 001a 9847     		blx	r3
 602              	.LVL55:
 418:Dsp/widget/wgt_core/UI_Controller.c ****     }
 419:Dsp/widget/wgt_core/UI_Controller.c **** 
 420:Dsp/widget/wgt_core/UI_Controller.c ****     return true;
 603              		.loc 1 420 12 is_stmt 0 view .LVU176
 604 001c 0120     		movs	r0, #1
 605              	.L52:
 421:Dsp/widget/wgt_core/UI_Controller.c **** }
 606              		.loc 1 421 1 view .LVU177
 607 001e 08BD     		pop	{r3, pc}
 608              	.LVL56:
 609              	.L53:
 610              	.LCFI6:
 611              		.cfi_def_cfa_offset 0
 612              		.cfi_restore 3
 613              		.cfi_restore 14
 407:Dsp/widget/wgt_core/UI_Controller.c **** 
 614              		.loc 1 407 16 view .LVU178
 615 0020 0020     		movs	r0, #0
 616              	.LVL57:
 617              		.loc 1 421 1 view .LVU179
 618 0022 7047     		bx	lr
 619              	.LVL58:
 620              	.L54:
 621              	.LCFI7:
 622              		.cfi_def_cfa_offset 8
 623              		.cfi_offset 3, -8
 624              		.cfi_offset 14, -4
 410:Dsp/widget/wgt_core/UI_Controller.c **** 
 625              		.loc 1 410 16 view .LVU180
 626 0024 0120     		movs	r0, #1
 627              	.LVL59:
 410:Dsp/widget/wgt_core/UI_Controller.c **** 
ARM GAS  /var/folders/lx/hc4sn_b53233_zkc9xbbl97r0000gp/T//cc46Bl7B.s 			page 20


 628              		.loc 1 410 16 view .LVU181
 629 0026 FAE7     		b	.L52
 630              	.LVL60:
 631              	.L55:
 420:Dsp/widget/wgt_core/UI_Controller.c **** }
 632              		.loc 1 420 12 view .LVU182
 633 0028 0120     		movs	r0, #1
 634              	.LVL61:
 420:Dsp/widget/wgt_core/UI_Controller.c **** }
 635              		.loc 1 420 12 view .LVU183
 636 002a F8E7     		b	.L52
 637              	.LVL62:
 638              	.L56:
 420:Dsp/widget/wgt_core/UI_Controller.c **** }
 639              		.loc 1 420 12 view .LVU184
 640 002c 0120     		movs	r0, #1
 641              	.LVL63:
 420:Dsp/widget/wgt_core/UI_Controller.c **** }
 642              		.loc 1 420 12 view .LVU185
 643 002e F6E7     		b	.L52
 644              		.cfi_endproc
 645              	.LFE14:
 647              		.section	.text.UI_Button_Move,"ax",%progbits
 648              		.align	1
 649              		.syntax unified
 650              		.thumb
 651              		.thumb_func
 652              		.fpu fpv4-sp-d16
 654              	UI_Button_Move:
 655              	.LVL64:
 656              	.LFB15:
 422:Dsp/widget/wgt_core/UI_Controller.c **** 
 423:Dsp/widget/wgt_core/UI_Controller.c **** static bool UI_Button_Move(UI_ButtonObj_TypeDef *Obj, uint16_t x, uint16_t y)
 424:Dsp/widget/wgt_core/UI_Controller.c **** {
 657              		.loc 1 424 1 is_stmt 1 view -0
 658              		.cfi_startproc
 659              		@ args = 0, pretend = 0, frame = 0
 660              		@ frame_needed = 0, uses_anonymous_args = 0
 425:Dsp/widget/wgt_core/UI_Controller.c ****     if (Obj == NULL)
 661              		.loc 1 425 5 view .LVU187
 662              		.loc 1 425 8 is_stmt 0 view .LVU188
 663 0000 28B1     		cbz	r0, .L63
 424:Dsp/widget/wgt_core/UI_Controller.c ****     if (Obj == NULL)
 664              		.loc 1 424 1 view .LVU189
 665 0002 08B5     		push	{r3, lr}
 666              	.LCFI8:
 667              		.cfi_def_cfa_offset 8
 668              		.cfi_offset 3, -8
 669              		.cfi_offset 14, -4
 426:Dsp/widget/wgt_core/UI_Controller.c ****         return false;
 427:Dsp/widget/wgt_core/UI_Controller.c **** 
 428:Dsp/widget/wgt_core/UI_Controller.c ****     return UI_Move(&(Obj->Gen_Data), x, y);
 670              		.loc 1 428 5 is_stmt 1 view .LVU190
 671              		.loc 1 428 12 is_stmt 0 view .LVU191
 672 0004 12B2     		sxth	r2, r2
 673              		.loc 1 428 12 view .LVU192
 674 0006 09B2     		sxth	r1, r1
ARM GAS  /var/folders/lx/hc4sn_b53233_zkc9xbbl97r0000gp/T//cc46Bl7B.s 			page 21


 675              		.loc 1 428 12 view .LVU193
 676 0008 FFF7FEFF 		bl	UI_Move
 677              	.LVL65:
 429:Dsp/widget/wgt_core/UI_Controller.c **** }
 678              		.loc 1 429 1 view .LVU194
 679 000c 08BD     		pop	{r3, pc}
 680              	.LVL66:
 681              	.L63:
 682              	.LCFI9:
 683              		.cfi_def_cfa_offset 0
 684              		.cfi_restore 3
 685              		.cfi_restore 14
 426:Dsp/widget/wgt_core/UI_Controller.c ****         return false;
 686              		.loc 1 426 16 view .LVU195
 687 000e 0020     		movs	r0, #0
 688              	.LVL67:
 689              		.loc 1 429 1 view .LVU196
 690 0010 7047     		bx	lr
 691              		.cfi_endproc
 692              	.LFE15:
 694              		.section	.text.UI_Button_Ctl,"ax",%progbits
 695              		.align	1
 696              		.syntax unified
 697              		.thumb
 698              		.thumb_func
 699              		.fpu fpv4-sp-d16
 701              	UI_Button_Ctl:
 702              	.LVL68:
 703              	.LFB16:
 430:Dsp/widget/wgt_core/UI_Controller.c **** 
 431:Dsp/widget/wgt_core/UI_Controller.c **** static bool UI_Button_Ctl(UI_ButtonObj_TypeDef *Obj)
 432:Dsp/widget/wgt_core/UI_Controller.c **** {
 704              		.loc 1 432 1 is_stmt 1 view -0
 705              		.cfi_startproc
 706              		@ args = 0, pretend = 0, frame = 0
 707              		@ frame_needed = 0, uses_anonymous_args = 0
 433:Dsp/widget/wgt_core/UI_Controller.c ****     if (Obj == NULL)
 708              		.loc 1 433 5 view .LVU198
 709              		.loc 1 433 8 is_stmt 0 view .LVU199
 710 0000 0028     		cmp	r0, #0
 711 0002 73D0     		beq	.L74
 432:Dsp/widget/wgt_core/UI_Controller.c ****     if (Obj == NULL)
 712              		.loc 1 432 1 view .LVU200
 713 0004 70B5     		push	{r4, r5, r6, lr}
 714              	.LCFI10:
 715              		.cfi_def_cfa_offset 16
 716              		.cfi_offset 4, -16
 717              		.cfi_offset 5, -12
 718              		.cfi_offset 6, -8
 719              		.cfi_offset 14, -4
 720 0006 84B0     		sub	sp, sp, #16
 721              	.LCFI11:
 722              		.cfi_def_cfa_offset 32
 723 0008 0446     		mov	r4, r0
 434:Dsp/widget/wgt_core/UI_Controller.c ****         return false;
 435:Dsp/widget/wgt_core/UI_Controller.c **** 
 436:Dsp/widget/wgt_core/UI_Controller.c ****     if (Obj->type == Lock_Btn)
ARM GAS  /var/folders/lx/hc4sn_b53233_zkc9xbbl97r0000gp/T//cc46Bl7B.s 			page 22


 724              		.loc 1 436 5 is_stmt 1 view .LVU201
 725              		.loc 1 436 12 is_stmt 0 view .LVU202
 726 000a 837B     		ldrb	r3, [r0, #14]	@ zero_extendqisi2
 727              		.loc 1 436 8 view .LVU203
 728 000c 012B     		cmp	r3, #1
 729 000e 2FD0     		beq	.L86
 730              	.LVL69:
 731              	.L70:
 437:Dsp/widget/wgt_core/UI_Controller.c ****     {
 438:Dsp/widget/wgt_core/UI_Controller.c ****         if (Obj->state == UI_Btn_PushDwn)
 439:Dsp/widget/wgt_core/UI_Controller.c ****         {
 440:Dsp/widget/wgt_core/UI_Controller.c ****             if (Obj->push_callback)
 441:Dsp/widget/wgt_core/UI_Controller.c ****                 Obj->push_callback();
 442:Dsp/widget/wgt_core/UI_Controller.c ****         }
 443:Dsp/widget/wgt_core/UI_Controller.c ****         else if (Obj->state == UI_Btn_RlsUp)
 444:Dsp/widget/wgt_core/UI_Controller.c ****         {
 445:Dsp/widget/wgt_core/UI_Controller.c ****             if (Obj->release_callback)
 446:Dsp/widget/wgt_core/UI_Controller.c ****                 Obj->release_callback();
 447:Dsp/widget/wgt_core/UI_Controller.c ****         }
 448:Dsp/widget/wgt_core/UI_Controller.c ****         else
 449:Dsp/widget/wgt_core/UI_Controller.c ****             return false;
 450:Dsp/widget/wgt_core/UI_Controller.c ****     }
 451:Dsp/widget/wgt_core/UI_Controller.c **** 
 452:Dsp/widget/wgt_core/UI_Controller.c ****     /* display button on screen object */
 453:Dsp/widget/wgt_core/UI_Controller.c ****     /* invert display color when button been push down */
 454:Dsp/widget/wgt_core/UI_Controller.c ****     if ((UI_DspInterface.draw_str != NULL) && (UI_DspInterface.fill_radius_rectangle != NULL) && (U
 732              		.loc 1 454 5 is_stmt 1 view .LVU204
 733              		.loc 1 454 25 is_stmt 0 view .LVU205
 734 0010 3F4B     		ldr	r3, .L90
 735 0012 1B68     		ldr	r3, [r3]
 736              		.loc 1 454 8 view .LVU206
 737 0014 002B     		cmp	r3, #0
 738 0016 6DD0     		beq	.L76
 739              		.loc 1 454 63 discriminator 1 view .LVU207
 740 0018 3D4B     		ldr	r3, .L90
 741 001a 1D6B     		ldr	r5, [r3, #48]
 742              		.loc 1 454 44 discriminator 1 view .LVU208
 743 001c 002D     		cmp	r5, #0
 744 001e 6CD0     		beq	.L77
 745              		.loc 1 454 114 discriminator 2 view .LVU209
 746 0020 5E69     		ldr	r6, [r3, #20]
 747              		.loc 1 454 95 discriminator 2 view .LVU210
 748 0022 002E     		cmp	r6, #0
 749 0024 6BD0     		beq	.L78
 455:Dsp/widget/wgt_core/UI_Controller.c ****     {
 456:Dsp/widget/wgt_core/UI_Controller.c ****         if (Obj->state == UI_Btn_PushDwn)
 750              		.loc 1 456 9 is_stmt 1 view .LVU211
 751              		.loc 1 456 16 is_stmt 0 view .LVU212
 752 0026 637B     		ldrb	r3, [r4, #13]	@ zero_extendqisi2
 753              		.loc 1 456 12 view .LVU213
 754 0028 012B     		cmp	r3, #1
 755 002a 32D0     		beq	.L87
 457:Dsp/widget/wgt_core/UI_Controller.c ****         {
 458:Dsp/widget/wgt_core/UI_Controller.c ****             /* fill button frame */
 459:Dsp/widget/wgt_core/UI_Controller.c ****             UI_DspInterface.fill_radius_rectangle(Obj->Gen_Data.x, Obj->Gen_Data.y, Obj->width, Obj
 460:Dsp/widget/wgt_core/UI_Controller.c **** 
 461:Dsp/widget/wgt_core/UI_Controller.c ****             /* invert string display */
ARM GAS  /var/folders/lx/hc4sn_b53233_zkc9xbbl97r0000gp/T//cc46Bl7B.s 			page 23


 462:Dsp/widget/wgt_core/UI_Controller.c ****             if (Obj->PushDown_Label != NULL)
 463:Dsp/widget/wgt_core/UI_Controller.c ****                 UI_DspInterface.draw_str(base_font, Obj->PushDown_Label, Obj->Gen_Data.x + 5, Obj->
 464:Dsp/widget/wgt_core/UI_Controller.c ****         }
 465:Dsp/widget/wgt_core/UI_Controller.c ****         else
 466:Dsp/widget/wgt_core/UI_Controller.c ****         {
 467:Dsp/widget/wgt_core/UI_Controller.c ****             /* draw button frame */
 468:Dsp/widget/wgt_core/UI_Controller.c ****             UI_DspInterface.draw_radius_rectangle(Obj->Gen_Data.x, Obj->Gen_Data.y, Obj->width, Obj
 756              		.loc 1 468 13 is_stmt 1 view .LVU214
 757 002c 0123     		movs	r3, #1
 758 002e 0293     		str	r3, [sp, #8]
 759 0030 0193     		str	r3, [sp, #4]
 760 0032 0323     		movs	r3, #3
 761 0034 0093     		str	r3, [sp]
 762 0036 94F82030 		ldrb	r3, [r4, #32]	@ zero_extendqisi2
 763 003a E27F     		ldrb	r2, [r4, #31]	@ zero_extendqisi2
 764 003c B4F90610 		ldrsh	r1, [r4, #6]	@ unaligned
 765 0040 B4F90400 		ldrsh	r0, [r4, #4]	@ unaligned
 766 0044 B047     		blx	r6
 767              	.LVL70:
 469:Dsp/widget/wgt_core/UI_Controller.c **** 
 470:Dsp/widget/wgt_core/UI_Controller.c ****             if (Obj->type == Lock_Btn)
 768              		.loc 1 470 13 view .LVU215
 769              		.loc 1 470 20 is_stmt 0 view .LVU216
 770 0046 A37B     		ldrb	r3, [r4, #14]	@ zero_extendqisi2
 771              		.loc 1 470 16 view .LVU217
 772 0048 012B     		cmp	r3, #1
 773 004a 3ED0     		beq	.L88
 471:Dsp/widget/wgt_core/UI_Controller.c ****             {
 472:Dsp/widget/wgt_core/UI_Controller.c ****                 /* display label normally */
 473:Dsp/widget/wgt_core/UI_Controller.c ****                 if (Obj->Release_Label != NULL)
 474:Dsp/widget/wgt_core/UI_Controller.c ****                     UI_DspInterface.draw_str(base_font, Obj->Release_Label, Obj->Gen_Data.x + 9, Ob
 475:Dsp/widget/wgt_core/UI_Controller.c ****             }
 476:Dsp/widget/wgt_core/UI_Controller.c ****             else
 477:Dsp/widget/wgt_core/UI_Controller.c ****             {
 478:Dsp/widget/wgt_core/UI_Controller.c ****                 if (Obj->PushDown_Label != NULL)
 774              		.loc 1 478 17 is_stmt 1 view .LVU218
 775              		.loc 1 478 24 is_stmt 0 view .LVU219
 776 004c D4F81710 		ldr	r1, [r4, #23]	@ unaligned
 777              		.loc 1 478 20 view .LVU220
 778 0050 0029     		cmp	r1, #0
 779 0052 5AD0     		beq	.L81
 479:Dsp/widget/wgt_core/UI_Controller.c ****                     UI_DspInterface.draw_str(base_font, Obj->PushDown_Label, Obj->Gen_Data.x + 5, O
 780              		.loc 1 479 21 is_stmt 1 view .LVU221
 781              		.loc 1 479 36 is_stmt 0 view .LVU222
 782 0054 2E4B     		ldr	r3, .L90
 783 0056 1E68     		ldr	r6, [r3]
 784              		.loc 1 479 91 view .LVU223
 785 0058 A288     		ldrh	r2, [r4, #4]	@ unaligned
 786              		.loc 1 479 94 view .LVU224
 787 005a 0532     		adds	r2, r2, #5
 788              		.loc 1 479 21 view .LVU225
 789 005c 0125     		movs	r5, #1
 790 005e 0095     		str	r5, [sp]
 791 0060 B4F90630 		ldrsh	r3, [r4, #6]	@ unaligned
 792 0064 12B2     		sxth	r2, r2
 793 0066 2B48     		ldr	r0, .L90+4
 794 0068 0078     		ldrb	r0, [r0]	@ zero_extendqisi2
ARM GAS  /var/folders/lx/hc4sn_b53233_zkc9xbbl97r0000gp/T//cc46Bl7B.s 			page 24


 795 006a B047     		blx	r6
 796              	.LVL71:
 480:Dsp/widget/wgt_core/UI_Controller.c ****             }
 481:Dsp/widget/wgt_core/UI_Controller.c ****         }
 482:Dsp/widget/wgt_core/UI_Controller.c ****     }
 483:Dsp/widget/wgt_core/UI_Controller.c ****     else
 484:Dsp/widget/wgt_core/UI_Controller.c ****         return false;
 485:Dsp/widget/wgt_core/UI_Controller.c **** 
 486:Dsp/widget/wgt_core/UI_Controller.c ****     return true;
 797              		.loc 1 486 12 view .LVU226
 798 006c 2846     		mov	r0, r5
 799 006e 42E0     		b	.L69
 800              	.LVL72:
 801              	.L86:
 438:Dsp/widget/wgt_core/UI_Controller.c ****         {
 802              		.loc 1 438 9 is_stmt 1 view .LVU227
 438:Dsp/widget/wgt_core/UI_Controller.c ****         {
 803              		.loc 1 438 16 is_stmt 0 view .LVU228
 804 0070 437B     		ldrb	r3, [r0, #13]	@ zero_extendqisi2
 438:Dsp/widget/wgt_core/UI_Controller.c ****         {
 805              		.loc 1 438 12 view .LVU229
 806 0072 012B     		cmp	r3, #1
 807 0074 07D0     		beq	.L89
 443:Dsp/widget/wgt_core/UI_Controller.c ****         {
 808              		.loc 1 443 14 is_stmt 1 view .LVU230
 443:Dsp/widget/wgt_core/UI_Controller.c ****         {
 809              		.loc 1 443 17 is_stmt 0 view .LVU231
 810 0076 002B     		cmp	r3, #0
 811 0078 3AD1     		bne	.L75
 445:Dsp/widget/wgt_core/UI_Controller.c ****                 Obj->release_callback();
 812              		.loc 1 445 13 is_stmt 1 view .LVU232
 445:Dsp/widget/wgt_core/UI_Controller.c ****                 Obj->release_callback();
 813              		.loc 1 445 20 is_stmt 0 view .LVU233
 814 007a D0F81330 		ldr	r3, [r0, #19]	@ unaligned
 445:Dsp/widget/wgt_core/UI_Controller.c ****                 Obj->release_callback();
 815              		.loc 1 445 16 view .LVU234
 816 007e 002B     		cmp	r3, #0
 817 0080 C6D0     		beq	.L70
 446:Dsp/widget/wgt_core/UI_Controller.c ****         }
 818              		.loc 1 446 17 is_stmt 1 view .LVU235
 819 0082 9847     		blx	r3
 820              	.LVL73:
 446:Dsp/widget/wgt_core/UI_Controller.c ****         }
 821              		.loc 1 446 17 is_stmt 0 view .LVU236
 822 0084 C4E7     		b	.L70
 823              	.LVL74:
 824              	.L89:
 440:Dsp/widget/wgt_core/UI_Controller.c ****                 Obj->push_callback();
 825              		.loc 1 440 13 is_stmt 1 view .LVU237
 440:Dsp/widget/wgt_core/UI_Controller.c ****                 Obj->push_callback();
 826              		.loc 1 440 20 is_stmt 0 view .LVU238
 827 0086 D0F80F30 		ldr	r3, [r0, #15]	@ unaligned
 440:Dsp/widget/wgt_core/UI_Controller.c ****                 Obj->push_callback();
 828              		.loc 1 440 16 view .LVU239
 829 008a 002B     		cmp	r3, #0
 830 008c C0D0     		beq	.L70
 441:Dsp/widget/wgt_core/UI_Controller.c ****         }
ARM GAS  /var/folders/lx/hc4sn_b53233_zkc9xbbl97r0000gp/T//cc46Bl7B.s 			page 25


 831              		.loc 1 441 17 is_stmt 1 view .LVU240
 832 008e 9847     		blx	r3
 833              	.LVL75:
 441:Dsp/widget/wgt_core/UI_Controller.c ****         }
 834              		.loc 1 441 17 is_stmt 0 view .LVU241
 835 0090 BEE7     		b	.L70
 836              	.L87:
 459:Dsp/widget/wgt_core/UI_Controller.c **** 
 837              		.loc 1 459 13 is_stmt 1 view .LVU242
 838 0092 0193     		str	r3, [sp, #4]
 839 0094 0323     		movs	r3, #3
 840 0096 0093     		str	r3, [sp]
 841 0098 94F82030 		ldrb	r3, [r4, #32]	@ zero_extendqisi2
 842 009c E27F     		ldrb	r2, [r4, #31]	@ zero_extendqisi2
 843 009e B4F90610 		ldrsh	r1, [r4, #6]	@ unaligned
 844 00a2 B4F90400 		ldrsh	r0, [r4, #4]	@ unaligned
 845 00a6 A847     		blx	r5
 846              	.LVL76:
 462:Dsp/widget/wgt_core/UI_Controller.c ****                 UI_DspInterface.draw_str(base_font, Obj->PushDown_Label, Obj->Gen_Data.x + 5, Obj->
 847              		.loc 1 462 13 view .LVU243
 462:Dsp/widget/wgt_core/UI_Controller.c ****                 UI_DspInterface.draw_str(base_font, Obj->PushDown_Label, Obj->Gen_Data.x + 5, Obj->
 848              		.loc 1 462 20 is_stmt 0 view .LVU244
 849 00a8 D4F81710 		ldr	r1, [r4, #23]	@ unaligned
 462:Dsp/widget/wgt_core/UI_Controller.c ****                 UI_DspInterface.draw_str(base_font, Obj->PushDown_Label, Obj->Gen_Data.x + 5, Obj->
 850              		.loc 1 462 16 view .LVU245
 851 00ac 49B3     		cbz	r1, .L79
 463:Dsp/widget/wgt_core/UI_Controller.c ****         }
 852              		.loc 1 463 17 is_stmt 1 view .LVU246
 463:Dsp/widget/wgt_core/UI_Controller.c ****         }
 853              		.loc 1 463 32 is_stmt 0 view .LVU247
 854 00ae 184B     		ldr	r3, .L90
 855 00b0 1E68     		ldr	r6, [r3]
 463:Dsp/widget/wgt_core/UI_Controller.c ****         }
 856              		.loc 1 463 87 view .LVU248
 857 00b2 A288     		ldrh	r2, [r4, #4]	@ unaligned
 463:Dsp/widget/wgt_core/UI_Controller.c ****         }
 858              		.loc 1 463 90 view .LVU249
 859 00b4 0532     		adds	r2, r2, #5
 463:Dsp/widget/wgt_core/UI_Controller.c ****         }
 860              		.loc 1 463 17 view .LVU250
 861 00b6 0125     		movs	r5, #1
 862 00b8 0095     		str	r5, [sp]
 863 00ba B4F90630 		ldrsh	r3, [r4, #6]	@ unaligned
 864 00be 12B2     		sxth	r2, r2
 865 00c0 1448     		ldr	r0, .L90+4
 866 00c2 0078     		ldrb	r0, [r0]	@ zero_extendqisi2
 867 00c4 B047     		blx	r6
 868              	.LVL77:
 869              		.loc 1 486 12 view .LVU251
 870 00c6 2846     		mov	r0, r5
 871 00c8 15E0     		b	.L69
 872              	.L88:
 473:Dsp/widget/wgt_core/UI_Controller.c ****                     UI_DspInterface.draw_str(base_font, Obj->Release_Label, Obj->Gen_Data.x + 9, Ob
 873              		.loc 1 473 17 is_stmt 1 view .LVU252
 473:Dsp/widget/wgt_core/UI_Controller.c ****                     UI_DspInterface.draw_str(base_font, Obj->Release_Label, Obj->Gen_Data.x + 9, Ob
 874              		.loc 1 473 24 is_stmt 0 view .LVU253
 875 00ca D4F81B10 		ldr	r1, [r4, #27]	@ unaligned
ARM GAS  /var/folders/lx/hc4sn_b53233_zkc9xbbl97r0000gp/T//cc46Bl7B.s 			page 26


 473:Dsp/widget/wgt_core/UI_Controller.c ****                     UI_DspInterface.draw_str(base_font, Obj->Release_Label, Obj->Gen_Data.x + 9, Ob
 876              		.loc 1 473 20 view .LVU254
 877 00ce D1B1     		cbz	r1, .L80
 474:Dsp/widget/wgt_core/UI_Controller.c ****             }
 878              		.loc 1 474 21 is_stmt 1 view .LVU255
 474:Dsp/widget/wgt_core/UI_Controller.c ****             }
 879              		.loc 1 474 36 is_stmt 0 view .LVU256
 880 00d0 0F4B     		ldr	r3, .L90
 881 00d2 1E68     		ldr	r6, [r3]
 474:Dsp/widget/wgt_core/UI_Controller.c ****             }
 882              		.loc 1 474 90 view .LVU257
 883 00d4 A288     		ldrh	r2, [r4, #4]	@ unaligned
 474:Dsp/widget/wgt_core/UI_Controller.c ****             }
 884              		.loc 1 474 93 view .LVU258
 885 00d6 0932     		adds	r2, r2, #9
 474:Dsp/widget/wgt_core/UI_Controller.c ****             }
 886              		.loc 1 474 21 view .LVU259
 887 00d8 0125     		movs	r5, #1
 888 00da 0095     		str	r5, [sp]
 889 00dc B4F90630 		ldrsh	r3, [r4, #6]	@ unaligned
 890 00e0 12B2     		sxth	r2, r2
 891 00e2 0C48     		ldr	r0, .L90+4
 892 00e4 0078     		ldrb	r0, [r0]	@ zero_extendqisi2
 893 00e6 B047     		blx	r6
 894              	.LVL78:
 895              		.loc 1 486 12 view .LVU260
 896 00e8 2846     		mov	r0, r5
 897 00ea 04E0     		b	.L69
 898              	.LVL79:
 899              	.L74:
 900              	.LCFI12:
 901              		.cfi_def_cfa_offset 0
 902              		.cfi_restore 4
 903              		.cfi_restore 5
 904              		.cfi_restore 6
 905              		.cfi_restore 14
 434:Dsp/widget/wgt_core/UI_Controller.c **** 
 906              		.loc 1 434 16 view .LVU261
 907 00ec 0020     		movs	r0, #0
 908              	.LVL80:
 487:Dsp/widget/wgt_core/UI_Controller.c **** }
 909              		.loc 1 487 1 view .LVU262
 910 00ee 7047     		bx	lr
 911              	.LVL81:
 912              	.L75:
 913              	.LCFI13:
 914              		.cfi_def_cfa_offset 32
 915              		.cfi_offset 4, -16
 916              		.cfi_offset 5, -12
 917              		.cfi_offset 6, -8
 918              		.cfi_offset 14, -4
 449:Dsp/widget/wgt_core/UI_Controller.c ****     }
 919              		.loc 1 449 20 view .LVU263
 920 00f0 0020     		movs	r0, #0
 921              	.LVL82:
 449:Dsp/widget/wgt_core/UI_Controller.c ****     }
 922              		.loc 1 449 20 view .LVU264
ARM GAS  /var/folders/lx/hc4sn_b53233_zkc9xbbl97r0000gp/T//cc46Bl7B.s 			page 27


 923 00f2 00E0     		b	.L69
 924              	.L76:
 484:Dsp/widget/wgt_core/UI_Controller.c **** 
 925              		.loc 1 484 16 view .LVU265
 926 00f4 0020     		movs	r0, #0
 927              	.L69:
 928              		.loc 1 487 1 view .LVU266
 929 00f6 04B0     		add	sp, sp, #16
 930              	.LCFI14:
 931              		.cfi_remember_state
 932              		.cfi_def_cfa_offset 16
 933              		@ sp needed
 934 00f8 70BD     		pop	{r4, r5, r6, pc}
 935              	.LVL83:
 936              	.L77:
 937              	.LCFI15:
 938              		.cfi_restore_state
 484:Dsp/widget/wgt_core/UI_Controller.c **** 
 939              		.loc 1 484 16 view .LVU267
 940 00fa 0020     		movs	r0, #0
 941 00fc FBE7     		b	.L69
 942              	.L78:
 943 00fe 0020     		movs	r0, #0
 944 0100 F9E7     		b	.L69
 945              	.L79:
 486:Dsp/widget/wgt_core/UI_Controller.c **** }
 946              		.loc 1 486 12 view .LVU268
 947 0102 0120     		movs	r0, #1
 948 0104 F7E7     		b	.L69
 949              	.L80:
 486:Dsp/widget/wgt_core/UI_Controller.c **** }
 950              		.loc 1 486 12 view .LVU269
 951 0106 0120     		movs	r0, #1
 952 0108 F5E7     		b	.L69
 953              	.L81:
 486:Dsp/widget/wgt_core/UI_Controller.c **** }
 954              		.loc 1 486 12 view .LVU270
 955 010a 0120     		movs	r0, #1
 956 010c F3E7     		b	.L69
 957              	.L91:
 958 010e 00BF     		.align	2
 959              	.L90:
 960 0110 00000000 		.word	.LANCHOR0
 961 0114 00000000 		.word	.LANCHOR2
 962              		.cfi_endproc
 963              	.LFE16:
 965              		.section	.text.UI_CheckBox_Init,"ax",%progbits
 966              		.align	1
 967              		.syntax unified
 968              		.thumb
 969              		.thumb_func
 970              		.fpu fpv4-sp-d16
 972              	UI_CheckBox_Init:
 973              	.LVL84:
 974              	.LFB17:
 488:Dsp/widget/wgt_core/UI_Controller.c **** 
 489:Dsp/widget/wgt_core/UI_Controller.c **** static bool UI_CheckBox_Init(UI_CheckBoxObj_TypeDef *Obj, char *label, int16_t x, int16_t y, bool s
ARM GAS  /var/folders/lx/hc4sn_b53233_zkc9xbbl97r0000gp/T//cc46Bl7B.s 			page 28


 490:Dsp/widget/wgt_core/UI_Controller.c **** {
 975              		.loc 1 490 1 is_stmt 1 view -0
 976              		.cfi_startproc
 977              		@ args = 4, pretend = 0, frame = 0
 978              		@ frame_needed = 0, uses_anonymous_args = 0
 491:Dsp/widget/wgt_core/UI_Controller.c ****     if (Obj == NULL)
 979              		.loc 1 491 5 view .LVU272
 980              		.loc 1 491 8 is_stmt 0 view .LVU273
 981 0000 68B1     		cbz	r0, .L94
 490:Dsp/widget/wgt_core/UI_Controller.c ****     if (Obj == NULL)
 982              		.loc 1 490 1 view .LVU274
 983 0002 10B5     		push	{r4, lr}
 984              	.LCFI16:
 985              		.cfi_def_cfa_offset 8
 986              		.cfi_offset 4, -8
 987              		.cfi_offset 14, -4
 988 0004 0446     		mov	r4, r0
 492:Dsp/widget/wgt_core/UI_Controller.c ****         return false;
 493:Dsp/widget/wgt_core/UI_Controller.c **** 
 494:Dsp/widget/wgt_core/UI_Controller.c ****     UI_GenData_Init(&Obj->Gen_Data, label, x, y);
 989              		.loc 1 494 5 is_stmt 1 view .LVU275
 990 0006 FFF7FEFF 		bl	UI_GenData_Init
 991              	.LVL85:
 495:Dsp/widget/wgt_core/UI_Controller.c **** 
 496:Dsp/widget/wgt_core/UI_Controller.c ****     Obj->checked = state;
 992              		.loc 1 496 5 view .LVU276
 993              		.loc 1 496 18 is_stmt 0 view .LVU277
 994 000a 9DF80830 		ldrb	r3, [sp, #8]	@ zero_extendqisi2
 995 000e 2374     		strb	r3, [r4, #16]
 497:Dsp/widget/wgt_core/UI_Controller.c ****     Obj->callback = NULL;
 996              		.loc 1 497 5 is_stmt 1 view .LVU278
 997              		.loc 1 497 19 is_stmt 0 view .LVU279
 998 0010 0023     		movs	r3, #0
 999 0012 2373     		strb	r3, [r4, #12]
 1000 0014 6373     		strb	r3, [r4, #13]
 1001 0016 A373     		strb	r3, [r4, #14]
 1002 0018 E373     		strb	r3, [r4, #15]
 498:Dsp/widget/wgt_core/UI_Controller.c **** 
 499:Dsp/widget/wgt_core/UI_Controller.c ****     return true;
 1003              		.loc 1 499 5 is_stmt 1 view .LVU280
 1004              		.loc 1 499 12 is_stmt 0 view .LVU281
 1005 001a 0120     		movs	r0, #1
 500:Dsp/widget/wgt_core/UI_Controller.c **** }
 1006              		.loc 1 500 1 view .LVU282
 1007 001c 10BD     		pop	{r4, pc}
 1008              	.LVL86:
 1009              	.L94:
 1010              	.LCFI17:
 1011              		.cfi_def_cfa_offset 0
 1012              		.cfi_restore 4
 1013              		.cfi_restore 14
 492:Dsp/widget/wgt_core/UI_Controller.c **** 
 1014              		.loc 1 492 16 view .LVU283
 1015 001e 0020     		movs	r0, #0
 1016              	.LVL87:
 1017              		.loc 1 500 1 view .LVU284
 1018 0020 7047     		bx	lr
ARM GAS  /var/folders/lx/hc4sn_b53233_zkc9xbbl97r0000gp/T//cc46Bl7B.s 			page 29


 1019              		.cfi_endproc
 1020              	.LFE17:
 1022              		.section	.text.UI_CheckBox_SetCallback,"ax",%progbits
 1023              		.align	1
 1024              		.syntax unified
 1025              		.thumb
 1026              		.thumb_func
 1027              		.fpu fpv4-sp-d16
 1029              	UI_CheckBox_SetCallback:
 1030              	.LVL88:
 1031              	.LFB18:
 501:Dsp/widget/wgt_core/UI_Controller.c **** 
 502:Dsp/widget/wgt_core/UI_Controller.c **** static bool UI_CheckBox_SetCallback(UI_CheckBoxObj_TypeDef *Obj, UI_CheckBoxTrigger_Callback callba
 503:Dsp/widget/wgt_core/UI_Controller.c **** {
 1032              		.loc 1 503 1 is_stmt 1 view -0
 1033              		.cfi_startproc
 1034              		@ args = 0, pretend = 0, frame = 0
 1035              		@ frame_needed = 0, uses_anonymous_args = 0
 1036              		@ link register save eliminated.
 504:Dsp/widget/wgt_core/UI_Controller.c ****     if (Obj == NULL)
 1037              		.loc 1 504 5 view .LVU286
 1038              		.loc 1 504 8 is_stmt 0 view .LVU287
 1039 0000 10B1     		cbz	r0, .L101
 505:Dsp/widget/wgt_core/UI_Controller.c ****         return false;
 506:Dsp/widget/wgt_core/UI_Controller.c **** 
 507:Dsp/widget/wgt_core/UI_Controller.c ****     Obj->callback = callback;
 1040              		.loc 1 507 5 is_stmt 1 view .LVU288
 1041              		.loc 1 507 19 is_stmt 0 view .LVU289
 1042 0002 C160     		str	r1, [r0, #12]	@ unaligned
 508:Dsp/widget/wgt_core/UI_Controller.c **** 
 509:Dsp/widget/wgt_core/UI_Controller.c ****     return true;
 1043              		.loc 1 509 5 is_stmt 1 view .LVU290
 1044              		.loc 1 509 12 is_stmt 0 view .LVU291
 1045 0004 0120     		movs	r0, #1
 1046              	.LVL89:
 1047              		.loc 1 509 12 view .LVU292
 1048 0006 7047     		bx	lr
 1049              	.LVL90:
 1050              	.L101:
 505:Dsp/widget/wgt_core/UI_Controller.c ****         return false;
 1051              		.loc 1 505 16 view .LVU293
 1052 0008 0020     		movs	r0, #0
 1053              	.LVL91:
 510:Dsp/widget/wgt_core/UI_Controller.c **** }
 1054              		.loc 1 510 1 view .LVU294
 1055 000a 7047     		bx	lr
 1056              		.cfi_endproc
 1057              	.LFE18:
 1059              		.section	.text.UI_CheckBox_Move,"ax",%progbits
 1060              		.align	1
 1061              		.syntax unified
 1062              		.thumb
 1063              		.thumb_func
 1064              		.fpu fpv4-sp-d16
 1066              	UI_CheckBox_Move:
 1067              	.LVL92:
 1068              	.LFB19:
ARM GAS  /var/folders/lx/hc4sn_b53233_zkc9xbbl97r0000gp/T//cc46Bl7B.s 			page 30


 511:Dsp/widget/wgt_core/UI_Controller.c **** 
 512:Dsp/widget/wgt_core/UI_Controller.c **** static bool UI_CheckBox_Move(UI_CheckBoxObj_TypeDef *Obj, int16_t x, int16_t y)
 513:Dsp/widget/wgt_core/UI_Controller.c **** {
 1069              		.loc 1 513 1 is_stmt 1 view -0
 1070              		.cfi_startproc
 1071              		@ args = 0, pretend = 0, frame = 0
 1072              		@ frame_needed = 0, uses_anonymous_args = 0
 514:Dsp/widget/wgt_core/UI_Controller.c ****     if (Obj == NULL)
 1073              		.loc 1 514 5 view .LVU296
 1074              		.loc 1 514 8 is_stmt 0 view .LVU297
 1075 0000 18B1     		cbz	r0, .L104
 513:Dsp/widget/wgt_core/UI_Controller.c ****     if (Obj == NULL)
 1076              		.loc 1 513 1 view .LVU298
 1077 0002 08B5     		push	{r3, lr}
 1078              	.LCFI18:
 1079              		.cfi_def_cfa_offset 8
 1080              		.cfi_offset 3, -8
 1081              		.cfi_offset 14, -4
 515:Dsp/widget/wgt_core/UI_Controller.c ****         return false;
 516:Dsp/widget/wgt_core/UI_Controller.c **** 
 517:Dsp/widget/wgt_core/UI_Controller.c ****     return UI_Move(&(Obj->Gen_Data), x, y);
 1082              		.loc 1 517 5 is_stmt 1 view .LVU299
 1083              		.loc 1 517 12 is_stmt 0 view .LVU300
 1084 0004 FFF7FEFF 		bl	UI_Move
 1085              	.LVL93:
 518:Dsp/widget/wgt_core/UI_Controller.c **** }
 1086              		.loc 1 518 1 view .LVU301
 1087 0008 08BD     		pop	{r3, pc}
 1088              	.LVL94:
 1089              	.L104:
 1090              	.LCFI19:
 1091              		.cfi_def_cfa_offset 0
 1092              		.cfi_restore 3
 1093              		.cfi_restore 14
 515:Dsp/widget/wgt_core/UI_Controller.c ****         return false;
 1094              		.loc 1 515 16 view .LVU302
 1095 000a 0020     		movs	r0, #0
 1096              	.LVL95:
 1097              		.loc 1 518 1 view .LVU303
 1098 000c 7047     		bx	lr
 1099              		.cfi_endproc
 1100              	.LFE19:
 1102              		.section	.text.UI_CheckBox_Trigger,"ax",%progbits
 1103              		.align	1
 1104              		.syntax unified
 1105              		.thumb
 1106              		.thumb_func
 1107              		.fpu fpv4-sp-d16
 1109              	UI_CheckBox_Trigger:
 1110              	.LVL96:
 1111              	.LFB20:
 519:Dsp/widget/wgt_core/UI_Controller.c **** 
 520:Dsp/widget/wgt_core/UI_Controller.c **** static bool UI_CheckBox_Trigger(UI_CheckBoxObj_TypeDef *Obj)
 521:Dsp/widget/wgt_core/UI_Controller.c **** {
 1112              		.loc 1 521 1 is_stmt 1 view -0
 1113              		.cfi_startproc
 1114              		@ args = 0, pretend = 0, frame = 0
ARM GAS  /var/folders/lx/hc4sn_b53233_zkc9xbbl97r0000gp/T//cc46Bl7B.s 			page 31


 1115              		@ frame_needed = 0, uses_anonymous_args = 0
 522:Dsp/widget/wgt_core/UI_Controller.c ****     if (Obj == NULL)
 1116              		.loc 1 522 5 view .LVU305
 1117              		.loc 1 522 8 is_stmt 0 view .LVU306
 1118 0000 50B1     		cbz	r0, .L111
 521:Dsp/widget/wgt_core/UI_Controller.c ****     if (Obj == NULL)
 1119              		.loc 1 521 1 view .LVU307
 1120 0002 08B5     		push	{r3, lr}
 1121              	.LCFI20:
 1122              		.cfi_def_cfa_offset 8
 1123              		.cfi_offset 3, -8
 1124              		.cfi_offset 14, -4
 1125 0004 0346     		mov	r3, r0
 523:Dsp/widget/wgt_core/UI_Controller.c ****         return false;
 524:Dsp/widget/wgt_core/UI_Controller.c **** 
 525:Dsp/widget/wgt_core/UI_Controller.c ****     Obj->checked = !Obj->checked;
 1126              		.loc 1 525 5 is_stmt 1 view .LVU308
 1127              		.loc 1 525 24 is_stmt 0 view .LVU309
 1128 0006 007C     		ldrb	r0, [r0, #16]	@ zero_extendqisi2
 1129              	.LVL97:
 1130              		.loc 1 525 5 view .LVU310
 1131 0008 80F00100 		eor	r0, r0, #1
 1132              		.loc 1 525 18 view .LVU311
 1133 000c 1874     		strb	r0, [r3, #16]
 526:Dsp/widget/wgt_core/UI_Controller.c **** 
 527:Dsp/widget/wgt_core/UI_Controller.c ****     if (Obj->callback)
 1134              		.loc 1 527 5 is_stmt 1 view .LVU312
 1135              		.loc 1 527 12 is_stmt 0 view .LVU313
 1136 000e DB68     		ldr	r3, [r3, #12]	@ unaligned
 1137              	.LVL98:
 1138              		.loc 1 527 8 view .LVU314
 1139 0010 23B1     		cbz	r3, .L112
 528:Dsp/widget/wgt_core/UI_Controller.c ****         Obj->callback(Obj->checked);
 1140              		.loc 1 528 9 is_stmt 1 view .LVU315
 1141 0012 9847     		blx	r3
 1142              	.LVL99:
 529:Dsp/widget/wgt_core/UI_Controller.c **** 
 530:Dsp/widget/wgt_core/UI_Controller.c ****     return true;
 1143              		.loc 1 530 12 is_stmt 0 view .LVU316
 1144 0014 0120     		movs	r0, #1
 1145              	.L110:
 531:Dsp/widget/wgt_core/UI_Controller.c **** }
 1146              		.loc 1 531 1 view .LVU317
 1147 0016 08BD     		pop	{r3, pc}
 1148              	.LVL100:
 1149              	.L111:
 1150              	.LCFI21:
 1151              		.cfi_def_cfa_offset 0
 1152              		.cfi_restore 3
 1153              		.cfi_restore 14
 523:Dsp/widget/wgt_core/UI_Controller.c **** 
 1154              		.loc 1 523 16 view .LVU318
 1155 0018 0020     		movs	r0, #0
 1156              	.LVL101:
 1157              		.loc 1 531 1 view .LVU319
 1158 001a 7047     		bx	lr
 1159              	.L112:
ARM GAS  /var/folders/lx/hc4sn_b53233_zkc9xbbl97r0000gp/T//cc46Bl7B.s 			page 32


 1160              	.LCFI22:
 1161              		.cfi_def_cfa_offset 8
 1162              		.cfi_offset 3, -8
 1163              		.cfi_offset 14, -4
 530:Dsp/widget/wgt_core/UI_Controller.c **** }
 1164              		.loc 1 530 12 view .LVU320
 1165 001c 0120     		movs	r0, #1
 1166 001e FAE7     		b	.L110
 1167              		.cfi_endproc
 1168              	.LFE20:
 1170              		.section	.text.UI_SlideBar_Init,"ax",%progbits
 1171              		.align	1
 1172              		.syntax unified
 1173              		.thumb
 1174              		.thumb_func
 1175              		.fpu fpv4-sp-d16
 1177              	UI_SlideBar_Init:
 1178              	.LVL102:
 1179              	.LFB22:
 532:Dsp/widget/wgt_core/UI_Controller.c **** 
 533:Dsp/widget/wgt_core/UI_Controller.c **** static bool UI_CheckBox_Ctl(UI_CheckBoxObj_TypeDef *Obj)
 534:Dsp/widget/wgt_core/UI_Controller.c **** {
 535:Dsp/widget/wgt_core/UI_Controller.c ****     int16_t frame_x = 0;
 536:Dsp/widget/wgt_core/UI_Controller.c ****     int16_t frame_y = 0;
 537:Dsp/widget/wgt_core/UI_Controller.c ****     int16_t str_x = 0;
 538:Dsp/widget/wgt_core/UI_Controller.c ****     int16_t str_y = 0;
 539:Dsp/widget/wgt_core/UI_Controller.c **** 
 540:Dsp/widget/wgt_core/UI_Controller.c ****     if ((Obj == NULL) ||
 541:Dsp/widget/wgt_core/UI_Controller.c ****         (UI_DspInterface.draw_str == NULL) ||
 542:Dsp/widget/wgt_core/UI_Controller.c ****         (UI_DspInterface.fill_rectangle == NULL) ||
 543:Dsp/widget/wgt_core/UI_Controller.c ****         (UI_DspInterface.draw_rectangle == NULL))
 544:Dsp/widget/wgt_core/UI_Controller.c ****         return false;
 545:Dsp/widget/wgt_core/UI_Controller.c **** 
 546:Dsp/widget/wgt_core/UI_Controller.c ****     frame_x = strlen(Obj->Gen_Data.label) * STR_DIS;
 547:Dsp/widget/wgt_core/UI_Controller.c ****     frame_y = Obj->Gen_Data.y + 3;
 548:Dsp/widget/wgt_core/UI_Controller.c ****     frame_x += DEFAULT_CHECKBOX_OFFSET;
 549:Dsp/widget/wgt_core/UI_Controller.c **** 
 550:Dsp/widget/wgt_core/UI_Controller.c ****     str_x = Obj->Gen_Data.x + 3;
 551:Dsp/widget/wgt_core/UI_Controller.c ****     str_y = Obj->Gen_Data.y;
 552:Dsp/widget/wgt_core/UI_Controller.c **** 
 553:Dsp/widget/wgt_core/UI_Controller.c ****     if (base_font == Font_8)
 554:Dsp/widget/wgt_core/UI_Controller.c ****         str_y += 1;
 555:Dsp/widget/wgt_core/UI_Controller.c **** 
 556:Dsp/widget/wgt_core/UI_Controller.c ****     UI_DspInterface.draw_str(base_font, Obj->Gen_Data.label, str_x, str_y, true);
 557:Dsp/widget/wgt_core/UI_Controller.c ****     UI_DspInterface.draw_rectangle(frame_x, frame_y, DEFAULT_CHECKBOX_FRAME_SIZE, DEFAULT_CHECKBOX_
 558:Dsp/widget/wgt_core/UI_Controller.c **** 
 559:Dsp/widget/wgt_core/UI_Controller.c ****     if (Obj->checked)
 560:Dsp/widget/wgt_core/UI_Controller.c ****         UI_DspInterface.fill_rectangle(frame_x + 2, frame_y + 2, DEFAULT_CHECKBOX_FILLFRAME, DEFAUL
 561:Dsp/widget/wgt_core/UI_Controller.c **** 
 562:Dsp/widget/wgt_core/UI_Controller.c ****     return true;
 563:Dsp/widget/wgt_core/UI_Controller.c **** }
 564:Dsp/widget/wgt_core/UI_Controller.c **** 
 565:Dsp/widget/wgt_core/UI_Controller.c **** static bool UI_SlideBar_Init(UI_SlideBarObj_TypeDef *Obj, UI_SliderBar_Mode_List mode, char *label,
 566:Dsp/widget/wgt_core/UI_Controller.c **** {
 1180              		.loc 1 566 1 is_stmt 1 view -0
 1181              		.cfi_startproc
 1182              		@ args = 20, pretend = 0, frame = 0
ARM GAS  /var/folders/lx/hc4sn_b53233_zkc9xbbl97r0000gp/T//cc46Bl7B.s 			page 33


 1183              		@ frame_needed = 0, uses_anonymous_args = 0
 1184              		.loc 1 566 1 is_stmt 0 view .LVU322
 1185 0000 2DE9F843 		push	{r3, r4, r5, r6, r7, r8, r9, lr}
 1186              	.LCFI23:
 1187              		.cfi_def_cfa_offset 32
 1188              		.cfi_offset 3, -32
 1189              		.cfi_offset 4, -28
 1190              		.cfi_offset 5, -24
 1191              		.cfi_offset 6, -20
 1192              		.cfi_offset 7, -16
 1193              		.cfi_offset 8, -12
 1194              		.cfi_offset 9, -8
 1195              		.cfi_offset 14, -4
 1196 0004 BDF92440 		ldrsh	r4, [sp, #36]
 1197 0008 BDF92850 		ldrsh	r5, [sp, #40]
 1198 000c BDF92C60 		ldrsh	r6, [sp, #44]
 1199 0010 BDF93080 		ldrsh	r8, [sp, #48]
 567:Dsp/widget/wgt_core/UI_Controller.c ****     if ((Obj == NULL) ||
 1200              		.loc 1 567 5 is_stmt 1 view .LVU323
 1201              		.loc 1 567 8 is_stmt 0 view .LVU324
 1202 0014 0028     		cmp	r0, #0
 1203 0016 49D0     		beq	.L119
 1204 0018 9446     		mov	ip, r2
 1205 001a 1A46     		mov	r2, r3
 1206              	.LVL103:
 1207              		.loc 1 567 8 view .LVU325
 1208 001c 0746     		mov	r7, r0
 1209              		.loc 1 567 23 discriminator 1 view .LVU326
 1210 001e AC42     		cmp	r4, r5
 1211 0020 46DD     		ble	.L120
 568:Dsp/widget/wgt_core/UI_Controller.c ****         (limit_max <= limit_min) ||
 1212              		.loc 1 568 34 view .LVU327
 1213 0022 B542     		cmp	r5, r6
 1214 0024 47DC     		bgt	.L121
 569:Dsp/widget/wgt_core/UI_Controller.c ****         (start_val < limit_min) ||
 1215              		.loc 1 569 33 view .LVU328
 1216 0026 B442     		cmp	r4, r6
 1217 0028 47DB     		blt	.L122
 570:Dsp/widget/wgt_core/UI_Controller.c ****         (start_val > limit_max) ||
 1218              		.loc 1 570 33 view .LVU329
 1219 002a 0129     		cmp	r1, #1
 1220 002c 01D9     		bls	.L125
 571:Dsp/widget/wgt_core/UI_Controller.c ****         (mode > SliderBar_Vertical_Mode))
 572:Dsp/widget/wgt_core/UI_Controller.c ****         return false;
 1221              		.loc 1 572 16 view .LVU330
 1222 002e 0020     		movs	r0, #0
 1223              	.LVL104:
 1224              		.loc 1 572 16 view .LVU331
 1225 0030 3FE0     		b	.L118
 1226              	.LVL105:
 1227              	.L125:
 573:Dsp/widget/wgt_core/UI_Controller.c **** 
 574:Dsp/widget/wgt_core/UI_Controller.c ****     Obj->mode = mode;
 1228              		.loc 1 574 5 is_stmt 1 view .LVU332
 1229              		.loc 1 574 15 is_stmt 0 view .LVU333
 1230 0032 0173     		strb	r1, [r0, #12]
 575:Dsp/widget/wgt_core/UI_Controller.c ****     Obj->is_selected = false;
ARM GAS  /var/folders/lx/hc4sn_b53233_zkc9xbbl97r0000gp/T//cc46Bl7B.s 			page 34


 1231              		.loc 1 575 5 is_stmt 1 view .LVU334
 1232              		.loc 1 575 22 is_stmt 0 view .LVU335
 1233 0034 4FF00009 		mov	r9, #0
 1234 0038 80F82390 		strb	r9, [r0, #35]
 576:Dsp/widget/wgt_core/UI_Controller.c **** 
 577:Dsp/widget/wgt_core/UI_Controller.c ****     UI_GenData_Init(&(Obj->Gen_Data), label, x, y);
 1235              		.loc 1 577 5 is_stmt 1 view .LVU336
 1236 003c BDF92030 		ldrsh	r3, [sp, #32]
 1237              	.LVL106:
 1238              		.loc 1 577 5 is_stmt 0 view .LVU337
 1239 0040 6146     		mov	r1, ip
 1240              	.LVL107:
 1241              		.loc 1 577 5 view .LVU338
 1242 0042 FFF7FEFF 		bl	UI_GenData_Init
 1243              	.LVL108:
 578:Dsp/widget/wgt_core/UI_Controller.c **** 
 579:Dsp/widget/wgt_core/UI_Controller.c ****     Obj->limit_max = limit_max;
 1244              		.loc 1 579 5 is_stmt 1 view .LVU339
 1245              		.loc 1 579 20 is_stmt 0 view .LVU340
 1246 0046 07EE904A 		vmov	s15, r4	@ int
 1247 004a F8EEE77A 		vcvt.f32.s32	s15, s15
 1248 004e 17EE903A 		vmov	r3, s15
 1249 0052 C7F81530 		str	r3, [r7, #21]	@ unaligned
 580:Dsp/widget/wgt_core/UI_Controller.c ****     Obj->limit_min = limit_min;
 1250              		.loc 1 580 5 is_stmt 1 view .LVU341
 1251              		.loc 1 580 20 is_stmt 0 view .LVU342
 1252 0056 07EE905A 		vmov	s15, r5	@ int
 1253 005a F8EEE77A 		vcvt.f32.s32	s15, s15
 1254 005e 17EE903A 		vmov	r3, s15
 1255 0062 C7F81130 		str	r3, [r7, #17]	@ unaligned
 581:Dsp/widget/wgt_core/UI_Controller.c **** 
 582:Dsp/widget/wgt_core/UI_Controller.c ****     Obj->step_len = step_len;
 1256              		.loc 1 582 5 is_stmt 1 view .LVU343
 1257              		.loc 1 582 19 is_stmt 0 view .LVU344
 1258 0066 A7F81D80 		strh	r8, [r7, #29]	@ unaligned
 583:Dsp/widget/wgt_core/UI_Controller.c ****     Obj->scale = (limit_max - limit_min) / (float)step_len;
 1259              		.loc 1 583 5 is_stmt 1 view .LVU345
 1260              		.loc 1 583 29 is_stmt 0 view .LVU346
 1261 006a 641B     		subs	r4, r4, r5
 1262              		.loc 1 583 44 view .LVU347
 1263 006c 07EE908A 		vmov	s15, r8	@ int
 1264 0070 B8EEE77A 		vcvt.f32.s32	s14, s15
 1265              		.loc 1 583 42 view .LVU348
 1266 0074 07EE904A 		vmov	s15, r4	@ int
 1267 0078 F8EEE77A 		vcvt.f32.s32	s15, s15
 1268              		.loc 1 583 16 view .LVU349
 1269 007c C7EE877A 		vdiv.f32	s15, s15, s14
 1270 0080 17EE903A 		vmov	r3, s15
 1271 0084 C7F81930 		str	r3, [r7, #25]	@ unaligned
 584:Dsp/widget/wgt_core/UI_Controller.c ****     Obj->cur_val = start_val;
 1272              		.loc 1 584 5 is_stmt 1 view .LVU350
 1273              		.loc 1 584 18 is_stmt 0 view .LVU351
 1274 0088 07EE906A 		vmov	s15, r6	@ int
 1275 008c F8EEE77A 		vcvt.f32.s32	s15, s15
 1276 0090 17EE906A 		vmov	r6, s15
 1277 0094 C7F81F60 		str	r6, [r7, #31]	@ unaligned
 585:Dsp/widget/wgt_core/UI_Controller.c **** 
ARM GAS  /var/folders/lx/hc4sn_b53233_zkc9xbbl97r0000gp/T//cc46Bl7B.s 			page 35


 586:Dsp/widget/wgt_core/UI_Controller.c ****     Obj->BarCoord_X = 0;
 1278              		.loc 1 586 5 is_stmt 1 view .LVU352
 1279              		.loc 1 586 21 is_stmt 0 view .LVU353
 1280 0098 87F82490 		strb	r9, [r7, #36]
 1281 009c 87F82590 		strb	r9, [r7, #37]
 587:Dsp/widget/wgt_core/UI_Controller.c ****     Obj->BarCoord_Y = 0;
 1282              		.loc 1 587 5 is_stmt 1 view .LVU354
 1283              		.loc 1 587 21 is_stmt 0 view .LVU355
 1284 00a0 87F82690 		strb	r9, [r7, #38]
 1285 00a4 87F82790 		strb	r9, [r7, #39]
 588:Dsp/widget/wgt_core/UI_Controller.c **** 
 589:Dsp/widget/wgt_core/UI_Controller.c ****     return true;
 1286              		.loc 1 589 5 is_stmt 1 view .LVU356
 1287              		.loc 1 589 12 is_stmt 0 view .LVU357
 1288 00a8 0120     		movs	r0, #1
 1289 00aa 02E0     		b	.L118
 1290              	.LVL109:
 1291              	.L119:
 572:Dsp/widget/wgt_core/UI_Controller.c **** 
 1292              		.loc 1 572 16 view .LVU358
 1293 00ac 0020     		movs	r0, #0
 1294              	.LVL110:
 572:Dsp/widget/wgt_core/UI_Controller.c **** 
 1295              		.loc 1 572 16 view .LVU359
 1296 00ae 00E0     		b	.L118
 1297              	.LVL111:
 1298              	.L120:
 572:Dsp/widget/wgt_core/UI_Controller.c **** 
 1299              		.loc 1 572 16 view .LVU360
 1300 00b0 0020     		movs	r0, #0
 1301              	.LVL112:
 1302              	.L118:
 590:Dsp/widget/wgt_core/UI_Controller.c **** }
 1303              		.loc 1 590 1 view .LVU361
 1304 00b2 BDE8F883 		pop	{r3, r4, r5, r6, r7, r8, r9, pc}
 1305              	.LVL113:
 1306              	.L121:
 572:Dsp/widget/wgt_core/UI_Controller.c **** 
 1307              		.loc 1 572 16 view .LVU362
 1308 00b6 0020     		movs	r0, #0
 1309              	.LVL114:
 572:Dsp/widget/wgt_core/UI_Controller.c **** 
 1310              		.loc 1 572 16 view .LVU363
 1311 00b8 FBE7     		b	.L118
 1312              	.LVL115:
 1313              	.L122:
 572:Dsp/widget/wgt_core/UI_Controller.c **** 
 1314              		.loc 1 572 16 view .LVU364
 1315 00ba 0020     		movs	r0, #0
 1316              	.LVL116:
 572:Dsp/widget/wgt_core/UI_Controller.c **** 
 1317              		.loc 1 572 16 view .LVU365
 1318 00bc F9E7     		b	.L118
 1319              		.cfi_endproc
 1320              	.LFE22:
 1322              		.section	.text.UI_SlideBar_Move,"ax",%progbits
 1323              		.align	1
ARM GAS  /var/folders/lx/hc4sn_b53233_zkc9xbbl97r0000gp/T//cc46Bl7B.s 			page 36


 1324              		.syntax unified
 1325              		.thumb
 1326              		.thumb_func
 1327              		.fpu fpv4-sp-d16
 1329              	UI_SlideBar_Move:
 1330              	.LVL117:
 1331              	.LFB23:
 591:Dsp/widget/wgt_core/UI_Controller.c **** 
 592:Dsp/widget/wgt_core/UI_Controller.c **** static bool UI_SlideBar_Move(UI_SlideBarObj_TypeDef *Obj, int16_t x, int16_t y)
 593:Dsp/widget/wgt_core/UI_Controller.c **** {
 1332              		.loc 1 593 1 is_stmt 1 view -0
 1333              		.cfi_startproc
 1334              		@ args = 0, pretend = 0, frame = 0
 1335              		@ frame_needed = 0, uses_anonymous_args = 0
 594:Dsp/widget/wgt_core/UI_Controller.c ****     if (Obj == NULL)
 1336              		.loc 1 594 5 view .LVU367
 1337              		.loc 1 594 8 is_stmt 0 view .LVU368
 1338 0000 18B1     		cbz	r0, .L128
 593:Dsp/widget/wgt_core/UI_Controller.c ****     if (Obj == NULL)
 1339              		.loc 1 593 1 view .LVU369
 1340 0002 08B5     		push	{r3, lr}
 1341              	.LCFI24:
 1342              		.cfi_def_cfa_offset 8
 1343              		.cfi_offset 3, -8
 1344              		.cfi_offset 14, -4
 595:Dsp/widget/wgt_core/UI_Controller.c ****         return false;
 596:Dsp/widget/wgt_core/UI_Controller.c **** 
 597:Dsp/widget/wgt_core/UI_Controller.c ****     return UI_Move(&(Obj->Gen_Data), x, y);
 1345              		.loc 1 597 5 is_stmt 1 view .LVU370
 1346              		.loc 1 597 12 is_stmt 0 view .LVU371
 1347 0004 FFF7FEFF 		bl	UI_Move
 1348              	.LVL118:
 598:Dsp/widget/wgt_core/UI_Controller.c **** }
 1349              		.loc 1 598 1 view .LVU372
 1350 0008 08BD     		pop	{r3, pc}
 1351              	.LVL119:
 1352              	.L128:
 1353              	.LCFI25:
 1354              		.cfi_def_cfa_offset 0
 1355              		.cfi_restore 3
 1356              		.cfi_restore 14
 595:Dsp/widget/wgt_core/UI_Controller.c ****         return false;
 1357              		.loc 1 595 16 view .LVU373
 1358 000a 0020     		movs	r0, #0
 1359              	.LVL120:
 1360              		.loc 1 598 1 view .LVU374
 1361 000c 7047     		bx	lr
 1362              		.cfi_endproc
 1363              	.LFE23:
 1365              		.section	.text.UI_SlideBar_SetCallBack,"ax",%progbits
 1366              		.align	1
 1367              		.syntax unified
 1368              		.thumb
 1369              		.thumb_func
 1370              		.fpu fpv4-sp-d16
 1372              	UI_SlideBar_SetCallBack:
 1373              	.LVL121:
ARM GAS  /var/folders/lx/hc4sn_b53233_zkc9xbbl97r0000gp/T//cc46Bl7B.s 			page 37


 1374              	.LFB24:
 599:Dsp/widget/wgt_core/UI_Controller.c **** 
 600:Dsp/widget/wgt_core/UI_Controller.c **** static bool UI_SlideBar_SetCallBack(UI_SlideBarObj_TypeDef *Obj, UI_SliderBarTrigger_Callback callb
 601:Dsp/widget/wgt_core/UI_Controller.c **** {
 1375              		.loc 1 601 1 is_stmt 1 view -0
 1376              		.cfi_startproc
 1377              		@ args = 0, pretend = 0, frame = 0
 1378              		@ frame_needed = 0, uses_anonymous_args = 0
 1379              		@ link register save eliminated.
 602:Dsp/widget/wgt_core/UI_Controller.c ****     if (Obj == NULL)
 1380              		.loc 1 602 5 view .LVU376
 1381              		.loc 1 602 8 is_stmt 0 view .LVU377
 1382 0000 18B1     		cbz	r0, .L135
 603:Dsp/widget/wgt_core/UI_Controller.c ****         return false;
 604:Dsp/widget/wgt_core/UI_Controller.c **** 
 605:Dsp/widget/wgt_core/UI_Controller.c ****     Obj->callback = callback;
 1383              		.loc 1 605 5 is_stmt 1 view .LVU378
 1384              		.loc 1 605 19 is_stmt 0 view .LVU379
 1385 0002 C0F80D10 		str	r1, [r0, #13]	@ unaligned
 606:Dsp/widget/wgt_core/UI_Controller.c **** 
 607:Dsp/widget/wgt_core/UI_Controller.c ****     return true;
 1386              		.loc 1 607 5 is_stmt 1 view .LVU380
 1387              		.loc 1 607 12 is_stmt 0 view .LVU381
 1388 0006 0120     		movs	r0, #1
 1389              	.LVL122:
 1390              		.loc 1 607 12 view .LVU382
 1391 0008 7047     		bx	lr
 1392              	.LVL123:
 1393              	.L135:
 603:Dsp/widget/wgt_core/UI_Controller.c ****         return false;
 1394              		.loc 1 603 16 view .LVU383
 1395 000a 0020     		movs	r0, #0
 1396              	.LVL124:
 608:Dsp/widget/wgt_core/UI_Controller.c **** }
 1397              		.loc 1 608 1 view .LVU384
 1398 000c 7047     		bx	lr
 1399              		.cfi_endproc
 1400              	.LFE24:
 1402              		.section	.text.UI_SlideBar_Input,"ax",%progbits
 1403              		.align	1
 1404              		.syntax unified
 1405              		.thumb
 1406              		.thumb_func
 1407              		.fpu fpv4-sp-d16
 1409              	UI_SlideBar_Input:
 1410              	.LVL125:
 1411              	.LFB25:
 609:Dsp/widget/wgt_core/UI_Controller.c **** 
 610:Dsp/widget/wgt_core/UI_Controller.c **** static bool UI_SlideBar_Input(UI_SlideBarObj_TypeDef *Obj, int16_t *step)
 611:Dsp/widget/wgt_core/UI_Controller.c **** {
 1412              		.loc 1 611 1 is_stmt 1 view -0
 1413              		.cfi_startproc
 1414              		@ args = 0, pretend = 0, frame = 0
 1415              		@ frame_needed = 0, uses_anonymous_args = 0
 1416              		@ link register save eliminated.
 612:Dsp/widget/wgt_core/UI_Controller.c ****     float val_tmp = 0;
 1417              		.loc 1 612 5 view .LVU386
ARM GAS  /var/folders/lx/hc4sn_b53233_zkc9xbbl97r0000gp/T//cc46Bl7B.s 			page 38


 613:Dsp/widget/wgt_core/UI_Controller.c **** 
 614:Dsp/widget/wgt_core/UI_Controller.c ****     if ((Obj == NULL) || (step == NULL))
 1418              		.loc 1 614 5 view .LVU387
 1419              		.loc 1 614 8 is_stmt 0 view .LVU388
 1420 0000 0346     		mov	r3, r0
 1421 0002 90B3     		cbz	r0, .L143
 1422              		.loc 1 614 23 discriminator 1 view .LVU389
 1423 0004 99B3     		cbz	r1, .L144
 615:Dsp/widget/wgt_core/UI_Controller.c ****         return false;
 616:Dsp/widget/wgt_core/UI_Controller.c **** 
 617:Dsp/widget/wgt_core/UI_Controller.c ****     val_tmp = Obj->cur_val + ((*step) * Obj->scale);
 1424              		.loc 1 617 5 is_stmt 1 view .LVU390
 1425              		.loc 1 617 18 is_stmt 0 view .LVU391
 1426 0006 D0F81F20 		ldr	r2, [r0, #31]	@ unaligned
 1427              		.loc 1 617 32 view .LVU392
 1428 000a B1F90000 		ldrsh	r0, [r1]
 1429              	.LVL126:
 1430              		.loc 1 617 32 view .LVU393
 1431 000e 07EE900A 		vmov	s15, r0	@ int
 1432              		.loc 1 617 44 view .LVU394
 1433 0012 D3F81900 		ldr	r0, [r3, #25]	@ unaligned
 1434              		.loc 1 617 39 view .LVU395
 1435 0016 B8EEE77A 		vcvt.f32.s32	s14, s15
 1436 001a 07EE900A 		vmov	s15, r0
 1437 001e 67EE277A 		vmul.f32	s15, s14, s15
 1438              		.loc 1 617 13 view .LVU396
 1439 0022 07EE102A 		vmov	s14, r2
 1440 0026 77EE277A 		vadd.f32	s15, s14, s15
 1441              	.LVL127:
 618:Dsp/widget/wgt_core/UI_Controller.c **** 
 619:Dsp/widget/wgt_core/UI_Controller.c ****     if (val_tmp >= Obj->limit_max)
 1442              		.loc 1 619 5 is_stmt 1 view .LVU397
 1443              		.loc 1 619 23 is_stmt 0 view .LVU398
 1444 002a D3F81520 		ldr	r2, [r3, #21]	@ unaligned
 1445              		.loc 1 619 8 view .LVU399
 1446 002e 07EE102A 		vmov	s14, r2
 1447 0032 B4EEE77A 		vcmpe.f32	s14, s15
 1448 0036 F1EE10FA 		vmrs	APSR_nzcv, FPSCR
 1449 003a 05D8     		bhi	.L147
 620:Dsp/widget/wgt_core/UI_Controller.c ****     {
 621:Dsp/widget/wgt_core/UI_Controller.c ****         Obj->cur_val = Obj->limit_max;
 1450              		.loc 1 621 9 is_stmt 1 view .LVU400
 1451              		.loc 1 621 22 is_stmt 0 view .LVU401
 1452 003c C3F81F20 		str	r2, [r3, #31]	@ unaligned
 1453              	.L140:
 622:Dsp/widget/wgt_core/UI_Controller.c ****     }
 623:Dsp/widget/wgt_core/UI_Controller.c ****     else if (val_tmp <= Obj->limit_min)
 624:Dsp/widget/wgt_core/UI_Controller.c ****     {
 625:Dsp/widget/wgt_core/UI_Controller.c ****         Obj->cur_val = Obj->limit_min;
 626:Dsp/widget/wgt_core/UI_Controller.c ****     }
 627:Dsp/widget/wgt_core/UI_Controller.c ****     else
 628:Dsp/widget/wgt_core/UI_Controller.c ****         Obj->cur_val = val_tmp;
 629:Dsp/widget/wgt_core/UI_Controller.c **** 
 630:Dsp/widget/wgt_core/UI_Controller.c ****     (*step) = 0;
 1454              		.loc 1 630 5 is_stmt 1 view .LVU402
 1455              		.loc 1 630 13 is_stmt 0 view .LVU403
 1456 0040 0023     		movs	r3, #0
ARM GAS  /var/folders/lx/hc4sn_b53233_zkc9xbbl97r0000gp/T//cc46Bl7B.s 			page 39


 1457              	.LVL128:
 1458              		.loc 1 630 13 view .LVU404
 1459 0042 0B80     		strh	r3, [r1]	@ movhi
 631:Dsp/widget/wgt_core/UI_Controller.c **** 
 632:Dsp/widget/wgt_core/UI_Controller.c ****     return true;
 1460              		.loc 1 632 5 is_stmt 1 view .LVU405
 1461              		.loc 1 632 12 is_stmt 0 view .LVU406
 1462 0044 0120     		movs	r0, #1
 1463 0046 7047     		bx	lr
 1464              	.LVL129:
 1465              	.L147:
 623:Dsp/widget/wgt_core/UI_Controller.c ****     {
 1466              		.loc 1 623 10 is_stmt 1 view .LVU407
 623:Dsp/widget/wgt_core/UI_Controller.c ****     {
 1467              		.loc 1 623 28 is_stmt 0 view .LVU408
 1468 0048 D3F81120 		ldr	r2, [r3, #17]	@ unaligned
 623:Dsp/widget/wgt_core/UI_Controller.c ****     {
 1469              		.loc 1 623 13 view .LVU409
 1470 004c 07EE102A 		vmov	s14, r2
 1471 0050 B4EEE77A 		vcmpe.f32	s14, s15
 1472 0054 F1EE10FA 		vmrs	APSR_nzcv, FPSCR
 1473 0058 02DB     		blt	.L148
 625:Dsp/widget/wgt_core/UI_Controller.c ****     }
 1474              		.loc 1 625 9 is_stmt 1 view .LVU410
 625:Dsp/widget/wgt_core/UI_Controller.c ****     }
 1475              		.loc 1 625 22 is_stmt 0 view .LVU411
 1476 005a C3F81F20 		str	r2, [r3, #31]	@ unaligned
 1477 005e EFE7     		b	.L140
 1478              	.L148:
 628:Dsp/widget/wgt_core/UI_Controller.c **** 
 1479              		.loc 1 628 9 is_stmt 1 view .LVU412
 628:Dsp/widget/wgt_core/UI_Controller.c **** 
 1480              		.loc 1 628 22 is_stmt 0 view .LVU413
 1481 0060 17EE902A 		vmov	r2, s15
 1482 0064 C3F81F20 		str	r2, [r3, #31]	@ unaligned
 1483 0068 EAE7     		b	.L140
 1484              	.LVL130:
 1485              	.L143:
 615:Dsp/widget/wgt_core/UI_Controller.c **** 
 1486              		.loc 1 615 16 view .LVU414
 1487 006a 0020     		movs	r0, #0
 1488              	.LVL131:
 615:Dsp/widget/wgt_core/UI_Controller.c **** 
 1489              		.loc 1 615 16 view .LVU415
 1490 006c 7047     		bx	lr
 1491              	.LVL132:
 1492              	.L144:
 615:Dsp/widget/wgt_core/UI_Controller.c **** 
 1493              		.loc 1 615 16 view .LVU416
 1494 006e 0020     		movs	r0, #0
 1495              	.LVL133:
 633:Dsp/widget/wgt_core/UI_Controller.c **** }
 1496              		.loc 1 633 1 view .LVU417
 1497 0070 7047     		bx	lr
 1498              		.cfi_endproc
 1499              	.LFE25:
 1501              		.section	.text.UI_SlideBar_Trigger,"ax",%progbits
ARM GAS  /var/folders/lx/hc4sn_b53233_zkc9xbbl97r0000gp/T//cc46Bl7B.s 			page 40


 1502              		.align	1
 1503              		.syntax unified
 1504              		.thumb
 1505              		.thumb_func
 1506              		.fpu fpv4-sp-d16
 1508              	UI_SlideBar_Trigger:
 1509              	.LVL134:
 1510              	.LFB26:
 634:Dsp/widget/wgt_core/UI_Controller.c **** 
 635:Dsp/widget/wgt_core/UI_Controller.c **** static bool UI_SlideBar_Trigger(UI_SlideBarObj_TypeDef *Obj)
 636:Dsp/widget/wgt_core/UI_Controller.c **** {
 1511              		.loc 1 636 1 is_stmt 1 view -0
 1512              		.cfi_startproc
 1513              		@ args = 0, pretend = 0, frame = 0
 1514              		@ frame_needed = 0, uses_anonymous_args = 0
 637:Dsp/widget/wgt_core/UI_Controller.c ****     if (Obj == NULL)
 1515              		.loc 1 637 5 view .LVU419
 1516              		.loc 1 637 8 is_stmt 0 view .LVU420
 1517 0000 78B1     		cbz	r0, .L151
 636:Dsp/widget/wgt_core/UI_Controller.c ****     if (Obj == NULL)
 1518              		.loc 1 636 1 view .LVU421
 1519 0002 08B5     		push	{r3, lr}
 1520              	.LCFI26:
 1521              		.cfi_def_cfa_offset 8
 1522              		.cfi_offset 3, -8
 1523              		.cfi_offset 14, -4
 638:Dsp/widget/wgt_core/UI_Controller.c ****         return false;
 639:Dsp/widget/wgt_core/UI_Controller.c **** 
 640:Dsp/widget/wgt_core/UI_Controller.c ****     if (Obj->callback != NULL)
 1524              		.loc 1 640 5 is_stmt 1 view .LVU422
 1525              		.loc 1 640 12 is_stmt 0 view .LVU423
 1526 0004 D0F80D20 		ldr	r2, [r0, #13]	@ unaligned
 1527              		.loc 1 640 8 view .LVU424
 1528 0008 6AB1     		cbz	r2, .L152
 641:Dsp/widget/wgt_core/UI_Controller.c ****         Obj->callback(Obj->cur_val);
 1529              		.loc 1 641 9 is_stmt 1 view .LVU425
 1530              		.loc 1 641 26 is_stmt 0 view .LVU426
 1531 000a D0F81F30 		ldr	r3, [r0, #31]	@ unaligned
 1532 000e 07EE903A 		vmov	s15, r3	@ int
 1533              		.loc 1 641 9 view .LVU427
 1534 0012 FDEEE77A 		vcvt.s32.f32	s15, s15
 1535 0016 17EE903A 		vmov	r3, s15	@ int
 1536 001a 18B2     		sxth	r0, r3
 1537              	.LVL135:
 1538              		.loc 1 641 9 view .LVU428
 1539 001c 9047     		blx	r2
 1540              	.LVL136:
 642:Dsp/widget/wgt_core/UI_Controller.c **** 
 643:Dsp/widget/wgt_core/UI_Controller.c ****     return true;
 1541              		.loc 1 643 12 view .LVU429
 1542 001e 0120     		movs	r0, #1
 1543              	.L150:
 644:Dsp/widget/wgt_core/UI_Controller.c **** }
 1544              		.loc 1 644 1 view .LVU430
 1545 0020 08BD     		pop	{r3, pc}
 1546              	.LVL137:
 1547              	.L151:
ARM GAS  /var/folders/lx/hc4sn_b53233_zkc9xbbl97r0000gp/T//cc46Bl7B.s 			page 41


 1548              	.LCFI27:
 1549              		.cfi_def_cfa_offset 0
 1550              		.cfi_restore 3
 1551              		.cfi_restore 14
 638:Dsp/widget/wgt_core/UI_Controller.c **** 
 1552              		.loc 1 638 16 view .LVU431
 1553 0022 0020     		movs	r0, #0
 1554              	.LVL138:
 1555              		.loc 1 644 1 view .LVU432
 1556 0024 7047     		bx	lr
 1557              	.LVL139:
 1558              	.L152:
 1559              	.LCFI28:
 1560              		.cfi_def_cfa_offset 8
 1561              		.cfi_offset 3, -8
 1562              		.cfi_offset 14, -4
 643:Dsp/widget/wgt_core/UI_Controller.c **** }
 1563              		.loc 1 643 12 view .LVU433
 1564 0026 0120     		movs	r0, #1
 1565              	.LVL140:
 643:Dsp/widget/wgt_core/UI_Controller.c **** }
 1566              		.loc 1 643 12 view .LVU434
 1567 0028 FAE7     		b	.L150
 1568              		.cfi_endproc
 1569              	.LFE26:
 1571              		.section	.text.UI_SlideBar_SetSelect,"ax",%progbits
 1572              		.align	1
 1573              		.syntax unified
 1574              		.thumb
 1575              		.thumb_func
 1576              		.fpu fpv4-sp-d16
 1578              	UI_SlideBar_SetSelect:
 1579              	.LVL141:
 1580              	.LFB28:
 645:Dsp/widget/wgt_core/UI_Controller.c **** 
 646:Dsp/widget/wgt_core/UI_Controller.c **** static bool UI_SlideBar_CTL(UI_SlideBarObj_TypeDef *Obj)
 647:Dsp/widget/wgt_core/UI_Controller.c **** {
 648:Dsp/widget/wgt_core/UI_Controller.c ****     int16_t Block_CoordX = 0;
 649:Dsp/widget/wgt_core/UI_Controller.c ****     int16_t Block_CoordY = 0;
 650:Dsp/widget/wgt_core/UI_Controller.c ****     int16_t input_trip = 0;
 651:Dsp/widget/wgt_core/UI_Controller.c ****     int16_t str_y = Obj->Gen_Data.y;
 652:Dsp/widget/wgt_core/UI_Controller.c **** 
 653:Dsp/widget/wgt_core/UI_Controller.c ****     if ((Obj == NULL) ||
 654:Dsp/widget/wgt_core/UI_Controller.c ****         (UI_DspInterface.draw_str == NULL) ||
 655:Dsp/widget/wgt_core/UI_Controller.c ****         (UI_DspInterface.fill_rectangle == NULL))
 656:Dsp/widget/wgt_core/UI_Controller.c ****         return false;
 657:Dsp/widget/wgt_core/UI_Controller.c **** 
 658:Dsp/widget/wgt_core/UI_Controller.c ****     if (base_font == Font_8)
 659:Dsp/widget/wgt_core/UI_Controller.c ****         str_y += 1;
 660:Dsp/widget/wgt_core/UI_Controller.c **** 
 661:Dsp/widget/wgt_core/UI_Controller.c ****     input_trip = Obj->limit_max - Obj->limit_min;
 662:Dsp/widget/wgt_core/UI_Controller.c **** 
 663:Dsp/widget/wgt_core/UI_Controller.c ****     UI_DspInterface.draw_str(base_font, Obj->Gen_Data.label, Obj->Gen_Data.x + 3, str_y, true);
 664:Dsp/widget/wgt_core/UI_Controller.c **** 
 665:Dsp/widget/wgt_core/UI_Controller.c ****     if (Obj->mode == SliderBar_Horizon_Mode)
 666:Dsp/widget/wgt_core/UI_Controller.c ****     {
 667:Dsp/widget/wgt_core/UI_Controller.c ****         if (Obj->BarCoord_X == 0)
ARM GAS  /var/folders/lx/hc4sn_b53233_zkc9xbbl97r0000gp/T//cc46Bl7B.s 			page 42


 668:Dsp/widget/wgt_core/UI_Controller.c ****         {
 669:Dsp/widget/wgt_core/UI_Controller.c ****             Obj->BarCoord_X = Obj->Gen_Data.x + strlen(Obj->Gen_Data.label) * STR_DIS + DEFAULT_SLI
 670:Dsp/widget/wgt_core/UI_Controller.c ****         }
 671:Dsp/widget/wgt_core/UI_Controller.c **** 
 672:Dsp/widget/wgt_core/UI_Controller.c ****         if (Obj->BarCoord_Y == 0)
 673:Dsp/widget/wgt_core/UI_Controller.c ****         {
 674:Dsp/widget/wgt_core/UI_Controller.c ****             Obj->BarCoord_Y = Obj->Gen_Data.y + 5;
 675:Dsp/widget/wgt_core/UI_Controller.c ****         }
 676:Dsp/widget/wgt_core/UI_Controller.c **** 
 677:Dsp/widget/wgt_core/UI_Controller.c ****         Block_CoordX = Obj->BarCoord_X;
 678:Dsp/widget/wgt_core/UI_Controller.c ****         Block_CoordX += (Obj->cur_val - Obj->limit_min) / ((float)(input_trip)) * (DEFAULT_SLIDERBA
 679:Dsp/widget/wgt_core/UI_Controller.c **** 
 680:Dsp/widget/wgt_core/UI_Controller.c ****         UI_DspInterface.fill_rectangle(Obj->BarCoord_X, Obj->BarCoord_Y, DEFAULT_SLIDERBAR_LEN, DEF
 681:Dsp/widget/wgt_core/UI_Controller.c **** 
 682:Dsp/widget/wgt_core/UI_Controller.c ****         Block_CoordY = Obj->Gen_Data.y + 3;
 683:Dsp/widget/wgt_core/UI_Controller.c ****         UI_DspInterface.fill_rectangle(Block_CoordX, Block_CoordY, DEFAULT_SLIDERBAR_BLOCK_WIDTH, D
 684:Dsp/widget/wgt_core/UI_Controller.c ****         UI_DspInterface.fill_rectangle(Block_CoordX, Block_CoordY + (DEFAULT_SLIDERBAR_BLOCK_HIGH /
 685:Dsp/widget/wgt_core/UI_Controller.c ****     }
 686:Dsp/widget/wgt_core/UI_Controller.c ****     else if (Obj->mode == SliderBar_Vertical_Mode)
 687:Dsp/widget/wgt_core/UI_Controller.c ****     {
 688:Dsp/widget/wgt_core/UI_Controller.c ****     }
 689:Dsp/widget/wgt_core/UI_Controller.c ****     else
 690:Dsp/widget/wgt_core/UI_Controller.c ****         return false;
 691:Dsp/widget/wgt_core/UI_Controller.c **** 
 692:Dsp/widget/wgt_core/UI_Controller.c ****     return true;
 693:Dsp/widget/wgt_core/UI_Controller.c **** }
 694:Dsp/widget/wgt_core/UI_Controller.c **** 
 695:Dsp/widget/wgt_core/UI_Controller.c **** static void UI_SlideBar_SetSelect(UI_SlideBarObj_TypeDef *Obj, bool select)
 696:Dsp/widget/wgt_core/UI_Controller.c **** {
 1581              		.loc 1 696 1 is_stmt 1 view -0
 1582              		.cfi_startproc
 1583              		@ args = 0, pretend = 0, frame = 0
 1584              		@ frame_needed = 0, uses_anonymous_args = 0
 1585              		@ link register save eliminated.
 697:Dsp/widget/wgt_core/UI_Controller.c ****     if (Obj == NULL)
 1586              		.loc 1 697 5 view .LVU436
 1587              		.loc 1 697 8 is_stmt 0 view .LVU437
 1588 0000 10B1     		cbz	r0, .L157
 698:Dsp/widget/wgt_core/UI_Controller.c ****         return;
 699:Dsp/widget/wgt_core/UI_Controller.c **** 
 700:Dsp/widget/wgt_core/UI_Controller.c ****     Obj->is_selected = true;
 1589              		.loc 1 700 5 is_stmt 1 view .LVU438
 1590              		.loc 1 700 22 is_stmt 0 view .LVU439
 1591 0002 0122     		movs	r2, #1
 1592 0004 80F82320 		strb	r2, [r0, #35]
 1593              	.L157:
 701:Dsp/widget/wgt_core/UI_Controller.c **** }
 1594              		.loc 1 701 1 view .LVU440
 1595 0008 7047     		bx	lr
 1596              		.cfi_endproc
 1597              	.LFE28:
 1599              		.section	.text.UI_SlideBar_IsSelected,"ax",%progbits
 1600              		.align	1
 1601              		.syntax unified
 1602              		.thumb
 1603              		.thumb_func
 1604              		.fpu fpv4-sp-d16
ARM GAS  /var/folders/lx/hc4sn_b53233_zkc9xbbl97r0000gp/T//cc46Bl7B.s 			page 43


 1606              	UI_SlideBar_IsSelected:
 1607              	.LVL142:
 1608              	.LFB29:
 702:Dsp/widget/wgt_core/UI_Controller.c **** 
 703:Dsp/widget/wgt_core/UI_Controller.c **** static bool UI_SlideBar_IsSelected(UI_SlideBarObj_TypeDef *Obj)
 704:Dsp/widget/wgt_core/UI_Controller.c **** {
 1609              		.loc 1 704 1 is_stmt 1 view -0
 1610              		.cfi_startproc
 1611              		@ args = 0, pretend = 0, frame = 0
 1612              		@ frame_needed = 0, uses_anonymous_args = 0
 1613              		@ link register save eliminated.
 705:Dsp/widget/wgt_core/UI_Controller.c ****     if (Obj == NULL)
 1614              		.loc 1 705 5 view .LVU442
 1615              		.loc 1 705 8 is_stmt 0 view .LVU443
 1616 0000 10B1     		cbz	r0, .L161
 706:Dsp/widget/wgt_core/UI_Controller.c ****         return false;
 707:Dsp/widget/wgt_core/UI_Controller.c **** 
 708:Dsp/widget/wgt_core/UI_Controller.c ****     return Obj->is_selected;
 1617              		.loc 1 708 5 is_stmt 1 view .LVU444
 1618              		.loc 1 708 15 is_stmt 0 view .LVU445
 1619 0002 90F82300 		ldrb	r0, [r0, #35]	@ zero_extendqisi2
 1620              	.LVL143:
 1621              		.loc 1 708 15 view .LVU446
 1622 0006 7047     		bx	lr
 1623              	.LVL144:
 1624              	.L161:
 706:Dsp/widget/wgt_core/UI_Controller.c ****         return false;
 1625              		.loc 1 706 16 view .LVU447
 1626 0008 0020     		movs	r0, #0
 1627              	.LVL145:
 709:Dsp/widget/wgt_core/UI_Controller.c **** }
 1628              		.loc 1 709 1 view .LVU448
 1629 000a 7047     		bx	lr
 1630              		.cfi_endproc
 1631              	.LFE29:
 1633              		.section	.text.UI_ProcessBar_Init,"ax",%progbits
 1634              		.align	1
 1635              		.syntax unified
 1636              		.thumb
 1637              		.thumb_func
 1638              		.fpu fpv4-sp-d16
 1640              	UI_ProcessBar_Init:
 1641              	.LVL146:
 1642              	.LFB30:
 710:Dsp/widget/wgt_core/UI_Controller.c **** 
 711:Dsp/widget/wgt_core/UI_Controller.c **** static bool UI_ProcessBar_Init(UI_ProcessBarObj_TypeDef *Obj, UI_ProcessBar_DspType_List dsp_type, 
 712:Dsp/widget/wgt_core/UI_Controller.c **** {
 1643              		.loc 1 712 1 is_stmt 1 view -0
 1644              		.cfi_startproc
 1645              		@ args = 16, pretend = 0, frame = 0
 1646              		@ frame_needed = 0, uses_anonymous_args = 0
 1647              		.loc 1 712 1 is_stmt 0 view .LVU450
 1648 0000 F8B5     		push	{r3, r4, r5, r6, r7, lr}
 1649              	.LCFI29:
 1650              		.cfi_def_cfa_offset 24
 1651              		.cfi_offset 3, -24
 1652              		.cfi_offset 4, -20
ARM GAS  /var/folders/lx/hc4sn_b53233_zkc9xbbl97r0000gp/T//cc46Bl7B.s 			page 44


 1653              		.cfi_offset 5, -16
 1654              		.cfi_offset 6, -12
 1655              		.cfi_offset 7, -8
 1656              		.cfi_offset 14, -4
 1657 0002 089F     		ldr	r7, [sp, #32]
 1658 0004 099D     		ldr	r5, [sp, #36]
 713:Dsp/widget/wgt_core/UI_Controller.c ****     if ((Obj == NULL) || (min > max))
 1659              		.loc 1 713 5 is_stmt 1 view .LVU451
 1660              		.loc 1 713 8 is_stmt 0 view .LVU452
 1661 0006 B0B3     		cbz	r0, .L167
 1662 0008 0E46     		mov	r6, r1
 1663 000a 1146     		mov	r1, r2
 1664              	.LVL147:
 1665              		.loc 1 713 8 view .LVU453
 1666 000c 1A46     		mov	r2, r3
 1667              	.LVL148:
 1668              		.loc 1 713 8 view .LVU454
 1669 000e 0446     		mov	r4, r0
 1670              		.loc 1 713 23 discriminator 1 view .LVU455
 1671 0010 AF42     		cmp	r7, r5
 1672 0012 01DD     		ble	.L170
 714:Dsp/widget/wgt_core/UI_Controller.c ****         return false;
 1673              		.loc 1 714 16 view .LVU456
 1674 0014 0020     		movs	r0, #0
 1675              	.LVL149:
 1676              	.L163:
 715:Dsp/widget/wgt_core/UI_Controller.c **** 
 716:Dsp/widget/wgt_core/UI_Controller.c ****     UI_GenData_Init(&Obj->Gen_Data, label, x, y);
 717:Dsp/widget/wgt_core/UI_Controller.c **** 
 718:Dsp/widget/wgt_core/UI_Controller.c ****     Obj->width = width;
 719:Dsp/widget/wgt_core/UI_Controller.c **** 
 720:Dsp/widget/wgt_core/UI_Controller.c ****     switch (base_font)
 721:Dsp/widget/wgt_core/UI_Controller.c ****     {
 722:Dsp/widget/wgt_core/UI_Controller.c ****     case Font_8:
 723:Dsp/widget/wgt_core/UI_Controller.c ****         Obj->height = base_font + 6;
 724:Dsp/widget/wgt_core/UI_Controller.c ****         break;
 725:Dsp/widget/wgt_core/UI_Controller.c **** 
 726:Dsp/widget/wgt_core/UI_Controller.c ****     case Font_12:
 727:Dsp/widget/wgt_core/UI_Controller.c ****     case Font_16:
 728:Dsp/widget/wgt_core/UI_Controller.c ****         /* need modify */
 729:Dsp/widget/wgt_core/UI_Controller.c ****         Obj->height = base_font + 6;
 730:Dsp/widget/wgt_core/UI_Controller.c ****         break;
 731:Dsp/widget/wgt_core/UI_Controller.c **** 
 732:Dsp/widget/wgt_core/UI_Controller.c ****     default:
 733:Dsp/widget/wgt_core/UI_Controller.c ****         Obj->height = base_font + 6;
 734:Dsp/widget/wgt_core/UI_Controller.c ****         break;
 735:Dsp/widget/wgt_core/UI_Controller.c ****     }
 736:Dsp/widget/wgt_core/UI_Controller.c **** 
 737:Dsp/widget/wgt_core/UI_Controller.c ****     Obj->height = base_font + 6;
 738:Dsp/widget/wgt_core/UI_Controller.c **** 
 739:Dsp/widget/wgt_core/UI_Controller.c ****     Obj->cur_val = 0;
 740:Dsp/widget/wgt_core/UI_Controller.c ****     Obj->max = max;
 741:Dsp/widget/wgt_core/UI_Controller.c ****     Obj->min = min;
 742:Dsp/widget/wgt_core/UI_Controller.c ****     Obj->range = max - min;
 743:Dsp/widget/wgt_core/UI_Controller.c **** 
 744:Dsp/widget/wgt_core/UI_Controller.c ****     Obj->percent = 0.0;
 745:Dsp/widget/wgt_core/UI_Controller.c **** 
ARM GAS  /var/folders/lx/hc4sn_b53233_zkc9xbbl97r0000gp/T//cc46Bl7B.s 			page 45


 746:Dsp/widget/wgt_core/UI_Controller.c ****     Obj->Dsp_Type = dsp_type;
 747:Dsp/widget/wgt_core/UI_Controller.c ****     Obj->Mv_Dir = UI_ProcBar_GrothDir_Default;
 748:Dsp/widget/wgt_core/UI_Controller.c **** 
 749:Dsp/widget/wgt_core/UI_Controller.c ****     return true;
 750:Dsp/widget/wgt_core/UI_Controller.c **** }
 1677              		.loc 1 750 1 view .LVU457
 1678 0016 F8BD     		pop	{r3, r4, r5, r6, r7, pc}
 1679              	.LVL150:
 1680              	.L170:
 716:Dsp/widget/wgt_core/UI_Controller.c **** 
 1681              		.loc 1 716 5 is_stmt 1 view .LVU458
 1682 0018 BDF91830 		ldrsh	r3, [sp, #24]
 1683              	.LVL151:
 716:Dsp/widget/wgt_core/UI_Controller.c **** 
 1684              		.loc 1 716 5 is_stmt 0 view .LVU459
 1685 001c FFF7FEFF 		bl	UI_GenData_Init
 1686              	.LVL152:
 718:Dsp/widget/wgt_core/UI_Controller.c **** 
 1687              		.loc 1 718 5 is_stmt 1 view .LVU460
 718:Dsp/widget/wgt_core/UI_Controller.c **** 
 1688              		.loc 1 718 16 is_stmt 0 view .LVU461
 1689 0020 9DF81C30 		ldrb	r3, [sp, #28]	@ zero_extendqisi2
 1690 0024 84F82030 		strb	r3, [r4, #32]
 720:Dsp/widget/wgt_core/UI_Controller.c ****     {
 1691              		.loc 1 720 5 is_stmt 1 view .LVU462
 1692 0028 144B     		ldr	r3, .L172
 1693 002a 1B78     		ldrb	r3, [r3]	@ zero_extendqisi2
 1694 002c 0C2B     		cmp	r3, #12
 1695 002e 1ED0     		beq	.L164
 1696 0030 102B     		cmp	r3, #16
 1697 0032 1CD0     		beq	.L164
 1698 0034 082B     		cmp	r3, #8
 1699 0036 03D0     		beq	.L171
 733:Dsp/widget/wgt_core/UI_Controller.c ****         break;
 1700              		.loc 1 733 9 view .LVU463
 733:Dsp/widget/wgt_core/UI_Controller.c ****         break;
 1701              		.loc 1 733 33 is_stmt 0 view .LVU464
 1702 0038 9A1D     		adds	r2, r3, #6
 733:Dsp/widget/wgt_core/UI_Controller.c ****         break;
 1703              		.loc 1 733 21 view .LVU465
 1704 003a 84F82120 		strb	r2, [r4, #33]
 734:Dsp/widget/wgt_core/UI_Controller.c ****     }
 1705              		.loc 1 734 9 is_stmt 1 view .LVU466
 1706 003e 02E0     		b	.L166
 1707              	.L171:
 723:Dsp/widget/wgt_core/UI_Controller.c ****         break;
 1708              		.loc 1 723 9 view .LVU467
 723:Dsp/widget/wgt_core/UI_Controller.c ****         break;
 1709              		.loc 1 723 33 is_stmt 0 view .LVU468
 1710 0040 9A1D     		adds	r2, r3, #6
 723:Dsp/widget/wgt_core/UI_Controller.c ****         break;
 1711              		.loc 1 723 21 view .LVU469
 1712 0042 84F82120 		strb	r2, [r4, #33]
 724:Dsp/widget/wgt_core/UI_Controller.c **** 
 1713              		.loc 1 724 9 is_stmt 1 view .LVU470
 1714              	.L166:
 737:Dsp/widget/wgt_core/UI_Controller.c **** 
ARM GAS  /var/folders/lx/hc4sn_b53233_zkc9xbbl97r0000gp/T//cc46Bl7B.s 			page 46


 1715              		.loc 1 737 5 view .LVU471
 737:Dsp/widget/wgt_core/UI_Controller.c **** 
 1716              		.loc 1 737 29 is_stmt 0 view .LVU472
 1717 0046 0633     		adds	r3, r3, #6
 737:Dsp/widget/wgt_core/UI_Controller.c **** 
 1718              		.loc 1 737 17 view .LVU473
 1719 0048 84F82130 		strb	r3, [r4, #33]
 739:Dsp/widget/wgt_core/UI_Controller.c ****     Obj->max = max;
 1720              		.loc 1 739 5 is_stmt 1 view .LVU474
 739:Dsp/widget/wgt_core/UI_Controller.c ****     Obj->max = max;
 1721              		.loc 1 739 18 is_stmt 0 view .LVU475
 1722 004c 0023     		movs	r3, #0
 1723 004e 2377     		strb	r3, [r4, #28]
 1724 0050 6377     		strb	r3, [r4, #29]
 1725 0052 A377     		strb	r3, [r4, #30]
 1726 0054 E377     		strb	r3, [r4, #31]
 740:Dsp/widget/wgt_core/UI_Controller.c ****     Obj->min = min;
 1727              		.loc 1 740 5 is_stmt 1 view .LVU476
 740:Dsp/widget/wgt_core/UI_Controller.c ****     Obj->min = min;
 1728              		.loc 1 740 14 is_stmt 0 view .LVU477
 1729 0056 6561     		str	r5, [r4, #20]	@ unaligned
 741:Dsp/widget/wgt_core/UI_Controller.c ****     Obj->range = max - min;
 1730              		.loc 1 741 5 is_stmt 1 view .LVU478
 741:Dsp/widget/wgt_core/UI_Controller.c ****     Obj->range = max - min;
 1731              		.loc 1 741 14 is_stmt 0 view .LVU479
 1732 0058 2761     		str	r7, [r4, #16]	@ unaligned
 742:Dsp/widget/wgt_core/UI_Controller.c **** 
 1733              		.loc 1 742 5 is_stmt 1 view .LVU480
 742:Dsp/widget/wgt_core/UI_Controller.c **** 
 1734              		.loc 1 742 22 is_stmt 0 view .LVU481
 1735 005a ED1B     		subs	r5, r5, r7
 742:Dsp/widget/wgt_core/UI_Controller.c **** 
 1736              		.loc 1 742 16 view .LVU482
 1737 005c A561     		str	r5, [r4, #24]	@ unaligned
 744:Dsp/widget/wgt_core/UI_Controller.c **** 
 1738              		.loc 1 744 5 is_stmt 1 view .LVU483
 744:Dsp/widget/wgt_core/UI_Controller.c **** 
 1739              		.loc 1 744 18 is_stmt 0 view .LVU484
 1740 005e 0022     		movs	r2, #0
 1741 0060 E260     		str	r2, [r4, #12]	@ unaligned
 746:Dsp/widget/wgt_core/UI_Controller.c ****     Obj->Mv_Dir = UI_ProcBar_GrothDir_Default;
 1742              		.loc 1 746 5 is_stmt 1 view .LVU485
 746:Dsp/widget/wgt_core/UI_Controller.c ****     Obj->Mv_Dir = UI_ProcBar_GrothDir_Default;
 1743              		.loc 1 746 19 is_stmt 0 view .LVU486
 1744 0062 84F82260 		strb	r6, [r4, #34]
 747:Dsp/widget/wgt_core/UI_Controller.c **** 
 1745              		.loc 1 747 5 is_stmt 1 view .LVU487
 747:Dsp/widget/wgt_core/UI_Controller.c **** 
 1746              		.loc 1 747 17 is_stmt 0 view .LVU488
 1747 0066 84F82330 		strb	r3, [r4, #35]
 749:Dsp/widget/wgt_core/UI_Controller.c **** }
 1748              		.loc 1 749 5 is_stmt 1 view .LVU489
 749:Dsp/widget/wgt_core/UI_Controller.c **** }
 1749              		.loc 1 749 12 is_stmt 0 view .LVU490
 1750 006a 0120     		movs	r0, #1
 1751 006c D3E7     		b	.L163
 1752              	.L164:
ARM GAS  /var/folders/lx/hc4sn_b53233_zkc9xbbl97r0000gp/T//cc46Bl7B.s 			page 47


 729:Dsp/widget/wgt_core/UI_Controller.c ****         break;
 1753              		.loc 1 729 9 is_stmt 1 view .LVU491
 729:Dsp/widget/wgt_core/UI_Controller.c ****         break;
 1754              		.loc 1 729 33 is_stmt 0 view .LVU492
 1755 006e 9A1D     		adds	r2, r3, #6
 729:Dsp/widget/wgt_core/UI_Controller.c ****         break;
 1756              		.loc 1 729 21 view .LVU493
 1757 0070 84F82120 		strb	r2, [r4, #33]
 730:Dsp/widget/wgt_core/UI_Controller.c **** 
 1758              		.loc 1 730 9 is_stmt 1 view .LVU494
 1759 0074 E7E7     		b	.L166
 1760              	.LVL153:
 1761              	.L167:
 714:Dsp/widget/wgt_core/UI_Controller.c **** 
 1762              		.loc 1 714 16 is_stmt 0 view .LVU495
 1763 0076 0020     		movs	r0, #0
 1764              	.LVL154:
 714:Dsp/widget/wgt_core/UI_Controller.c **** 
 1765              		.loc 1 714 16 view .LVU496
 1766 0078 CDE7     		b	.L163
 1767              	.L173:
 1768 007a 00BF     		.align	2
 1769              	.L172:
 1770 007c 00000000 		.word	.LANCHOR2
 1771              		.cfi_endproc
 1772              	.LFE30:
 1774              		.section	.text.UI_ProcessBar_SetDspDir,"ax",%progbits
 1775              		.align	1
 1776              		.syntax unified
 1777              		.thumb
 1778              		.thumb_func
 1779              		.fpu fpv4-sp-d16
 1781              	UI_ProcessBar_SetDspDir:
 1782              	.LVL155:
 1783              	.LFB31:
 751:Dsp/widget/wgt_core/UI_Controller.c **** 
 752:Dsp/widget/wgt_core/UI_Controller.c **** static bool UI_ProcessBar_SetDspDir(UI_ProcessBarObj_TypeDef *Obj, UI_ProcessBar_MoveDir_TypeDef Di
 753:Dsp/widget/wgt_core/UI_Controller.c **** {
 1784              		.loc 1 753 1 is_stmt 1 view -0
 1785              		.cfi_startproc
 1786              		@ args = 0, pretend = 0, frame = 0
 1787              		@ frame_needed = 0, uses_anonymous_args = 0
 1788              		@ link register save eliminated.
 754:Dsp/widget/wgt_core/UI_Controller.c ****     if (Obj == NULL)
 1789              		.loc 1 754 5 view .LVU498
 1790              		.loc 1 754 8 is_stmt 0 view .LVU499
 1791 0000 50B1     		cbz	r0, .L177
 755:Dsp/widget/wgt_core/UI_Controller.c ****         return false;
 756:Dsp/widget/wgt_core/UI_Controller.c **** 
 757:Dsp/widget/wgt_core/UI_Controller.c ****     if ((Dir > UI_ProcBar_GrothFrom_Mid) || (Dir < 0))
 1792              		.loc 1 757 5 is_stmt 1 view .LVU500
 1793              		.loc 1 757 8 is_stmt 0 view .LVU501
 1794 0002 0129     		cmp	r1, #1
 1795 0004 04D9     		bls	.L176
 758:Dsp/widget/wgt_core/UI_Controller.c ****         Obj->Mv_Dir = UI_ProcBar_GrothDir_Default;
 1796              		.loc 1 758 9 is_stmt 1 view .LVU502
 1797              		.loc 1 758 21 is_stmt 0 view .LVU503
ARM GAS  /var/folders/lx/hc4sn_b53233_zkc9xbbl97r0000gp/T//cc46Bl7B.s 			page 48


 1798 0006 0022     		movs	r2, #0
 1799 0008 80F82320 		strb	r2, [r0, #35]
 759:Dsp/widget/wgt_core/UI_Controller.c ****     else
 760:Dsp/widget/wgt_core/UI_Controller.c ****         Obj->Mv_Dir = Dir;
 761:Dsp/widget/wgt_core/UI_Controller.c **** 
 762:Dsp/widget/wgt_core/UI_Controller.c ****     return true;
 1800              		.loc 1 762 12 view .LVU504
 1801 000c 0120     		movs	r0, #1
 1802              	.LVL156:
 1803              		.loc 1 762 12 view .LVU505
 1804 000e 7047     		bx	lr
 1805              	.LVL157:
 1806              	.L176:
 760:Dsp/widget/wgt_core/UI_Controller.c **** 
 1807              		.loc 1 760 9 is_stmt 1 view .LVU506
 760:Dsp/widget/wgt_core/UI_Controller.c **** 
 1808              		.loc 1 760 21 is_stmt 0 view .LVU507
 1809 0010 80F82310 		strb	r1, [r0, #35]
 1810              		.loc 1 762 12 view .LVU508
 1811 0014 0120     		movs	r0, #1
 1812              	.LVL158:
 1813              		.loc 1 762 12 view .LVU509
 1814 0016 7047     		bx	lr
 1815              	.LVL159:
 1816              	.L177:
 755:Dsp/widget/wgt_core/UI_Controller.c **** 
 1817              		.loc 1 755 16 view .LVU510
 1818 0018 0020     		movs	r0, #0
 1819              	.LVL160:
 763:Dsp/widget/wgt_core/UI_Controller.c **** }
 1820              		.loc 1 763 1 view .LVU511
 1821 001a 7047     		bx	lr
 1822              		.cfi_endproc
 1823              	.LFE31:
 1825              		.section	.text.UI_ProcessBar_SetCurVal,"ax",%progbits
 1826              		.align	1
 1827              		.syntax unified
 1828              		.thumb
 1829              		.thumb_func
 1830              		.fpu fpv4-sp-d16
 1832              	UI_ProcessBar_SetCurVal:
 1833              	.LVL161:
 1834              	.LFB32:
 764:Dsp/widget/wgt_core/UI_Controller.c **** 
 765:Dsp/widget/wgt_core/UI_Controller.c **** static bool UI_ProcessBar_SetCurVal(UI_ProcessBarObj_TypeDef *Obj, int32_t val)
 766:Dsp/widget/wgt_core/UI_Controller.c **** {
 1835              		.loc 1 766 1 is_stmt 1 view -0
 1836              		.cfi_startproc
 1837              		@ args = 0, pretend = 0, frame = 0
 1838              		@ frame_needed = 0, uses_anonymous_args = 0
 1839              		@ link register save eliminated.
 767:Dsp/widget/wgt_core/UI_Controller.c ****     if (Obj == NULL)
 1840              		.loc 1 767 5 view .LVU513
 1841              		.loc 1 767 8 is_stmt 0 view .LVU514
 1842 0000 F0B1     		cbz	r0, .L183
 766:Dsp/widget/wgt_core/UI_Controller.c ****     if (Obj == NULL)
 1843              		.loc 1 766 1 view .LVU515
ARM GAS  /var/folders/lx/hc4sn_b53233_zkc9xbbl97r0000gp/T//cc46Bl7B.s 			page 49


 1844 0002 10B4     		push	{r4}
 1845              	.LCFI30:
 1846              		.cfi_def_cfa_offset 4
 1847              		.cfi_offset 4, -4
 1848 0004 0346     		mov	r3, r0
 768:Dsp/widget/wgt_core/UI_Controller.c ****         return false;
 769:Dsp/widget/wgt_core/UI_Controller.c **** 
 770:Dsp/widget/wgt_core/UI_Controller.c ****     int32_t range = Obj->max - Obj->min;
 1849              		.loc 1 770 5 is_stmt 1 view .LVU516
 1850              		.loc 1 770 24 is_stmt 0 view .LVU517
 1851 0006 4269     		ldr	r2, [r0, #20]	@ unaligned
 1852              		.loc 1 770 35 view .LVU518
 1853 0008 0069     		ldr	r0, [r0, #16]	@ unaligned
 1854              	.LVL162:
 1855              		.loc 1 770 13 view .LVU519
 1856 000a 141A     		subs	r4, r2, r0
 1857 000c 07EE104A 		vmov	s14, r4	@ int
 1858              	.LVL163:
 771:Dsp/widget/wgt_core/UI_Controller.c **** 
 772:Dsp/widget/wgt_core/UI_Controller.c ****     if (val >= Obj->max)
 1859              		.loc 1 772 5 is_stmt 1 view .LVU520
 1860              		.loc 1 772 8 is_stmt 0 view .LVU521
 1861 0010 8A42     		cmp	r2, r1
 1862 0012 0FDC     		bgt	.L180
 773:Dsp/widget/wgt_core/UI_Controller.c ****         Obj->cur_val = Obj->max;
 1863              		.loc 1 773 9 is_stmt 1 view .LVU522
 1864              		.loc 1 773 22 is_stmt 0 view .LVU523
 1865 0014 DA61     		str	r2, [r3, #28]	@ unaligned
 1866              	.L181:
 774:Dsp/widget/wgt_core/UI_Controller.c ****     else if (val <= Obj->min)
 775:Dsp/widget/wgt_core/UI_Controller.c ****         Obj->cur_val = Obj->min;
 776:Dsp/widget/wgt_core/UI_Controller.c ****     else
 777:Dsp/widget/wgt_core/UI_Controller.c ****         Obj->cur_val = val;
 778:Dsp/widget/wgt_core/UI_Controller.c **** 
 779:Dsp/widget/wgt_core/UI_Controller.c ****     Obj->percent = ((float)val) / range;
 1867              		.loc 1 779 5 is_stmt 1 view .LVU524
 1868              		.loc 1 779 21 is_stmt 0 view .LVU525
 1869 0016 07EE901A 		vmov	s15, r1	@ int
 1870 001a F8EEE77A 		vcvt.f32.s32	s15, s15
 1871              		.loc 1 779 33 view .LVU526
 1872 001e B8EEC77A 		vcvt.f32.s32	s14, s14
 1873              		.loc 1 779 18 view .LVU527
 1874 0022 C7EE877A 		vdiv.f32	s15, s15, s14
 1875 0026 17EE902A 		vmov	r2, s15
 1876 002a DA60     		str	r2, [r3, #12]	@ unaligned
 780:Dsp/widget/wgt_core/UI_Controller.c **** 
 781:Dsp/widget/wgt_core/UI_Controller.c ****     return true;
 1877              		.loc 1 781 5 is_stmt 1 view .LVU528
 1878              		.loc 1 781 12 is_stmt 0 view .LVU529
 1879 002c 0120     		movs	r0, #1
 782:Dsp/widget/wgt_core/UI_Controller.c **** }
 1880              		.loc 1 782 1 view .LVU530
 1881 002e 5DF8044B 		ldr	r4, [sp], #4
 1882              	.LCFI31:
 1883              		.cfi_remember_state
 1884              		.cfi_restore 4
 1885              		.cfi_def_cfa_offset 0
ARM GAS  /var/folders/lx/hc4sn_b53233_zkc9xbbl97r0000gp/T//cc46Bl7B.s 			page 50


 1886              	.LVL164:
 1887              		.loc 1 782 1 view .LVU531
 1888 0032 7047     		bx	lr
 1889              	.LVL165:
 1890              	.L180:
 1891              	.LCFI32:
 1892              		.cfi_restore_state
 774:Dsp/widget/wgt_core/UI_Controller.c ****     else if (val <= Obj->min)
 1893              		.loc 1 774 10 is_stmt 1 view .LVU532
 774:Dsp/widget/wgt_core/UI_Controller.c ****     else if (val <= Obj->min)
 1894              		.loc 1 774 13 is_stmt 0 view .LVU533
 1895 0034 8842     		cmp	r0, r1
 1896 0036 01DB     		blt	.L182
 775:Dsp/widget/wgt_core/UI_Controller.c ****     else
 1897              		.loc 1 775 9 is_stmt 1 view .LVU534
 775:Dsp/widget/wgt_core/UI_Controller.c ****     else
 1898              		.loc 1 775 22 is_stmt 0 view .LVU535
 1899 0038 D861     		str	r0, [r3, #28]	@ unaligned
 1900 003a ECE7     		b	.L181
 1901              	.L182:
 777:Dsp/widget/wgt_core/UI_Controller.c **** 
 1902              		.loc 1 777 9 is_stmt 1 view .LVU536
 777:Dsp/widget/wgt_core/UI_Controller.c **** 
 1903              		.loc 1 777 22 is_stmt 0 view .LVU537
 1904 003c D961     		str	r1, [r3, #28]	@ unaligned
 1905 003e EAE7     		b	.L181
 1906              	.LVL166:
 1907              	.L183:
 1908              	.LCFI33:
 1909              		.cfi_def_cfa_offset 0
 1910              		.cfi_restore 4
 768:Dsp/widget/wgt_core/UI_Controller.c **** 
 1911              		.loc 1 768 16 view .LVU538
 1912 0040 0020     		movs	r0, #0
 1913              	.LVL167:
 1914              		.loc 1 782 1 view .LVU539
 1915 0042 7047     		bx	lr
 1916              		.cfi_endproc
 1917              	.LFE32:
 1919              		.section	.text.UI_ProcessBar_Move,"ax",%progbits
 1920              		.align	1
 1921              		.syntax unified
 1922              		.thumb
 1923              		.thumb_func
 1924              		.fpu fpv4-sp-d16
 1926              	UI_ProcessBar_Move:
 1927              	.LVL168:
 1928              	.LFB33:
 783:Dsp/widget/wgt_core/UI_Controller.c **** 
 784:Dsp/widget/wgt_core/UI_Controller.c **** static bool UI_ProcessBar_Move(UI_ProcessBarObj_TypeDef *Obj, uint16_t x, uint16_t y)
 785:Dsp/widget/wgt_core/UI_Controller.c **** {
 1929              		.loc 1 785 1 is_stmt 1 view -0
 1930              		.cfi_startproc
 1931              		@ args = 0, pretend = 0, frame = 0
 1932              		@ frame_needed = 0, uses_anonymous_args = 0
 786:Dsp/widget/wgt_core/UI_Controller.c ****     if (Obj == NULL)
 1933              		.loc 1 786 5 view .LVU541
ARM GAS  /var/folders/lx/hc4sn_b53233_zkc9xbbl97r0000gp/T//cc46Bl7B.s 			page 51


 1934              		.loc 1 786 8 is_stmt 0 view .LVU542
 1935 0000 28B1     		cbz	r0, .L190
 785:Dsp/widget/wgt_core/UI_Controller.c ****     if (Obj == NULL)
 1936              		.loc 1 785 1 view .LVU543
 1937 0002 08B5     		push	{r3, lr}
 1938              	.LCFI34:
 1939              		.cfi_def_cfa_offset 8
 1940              		.cfi_offset 3, -8
 1941              		.cfi_offset 14, -4
 787:Dsp/widget/wgt_core/UI_Controller.c ****         return false;
 788:Dsp/widget/wgt_core/UI_Controller.c **** 
 789:Dsp/widget/wgt_core/UI_Controller.c ****     return UI_Move(&(Obj->Gen_Data), x, y);
 1942              		.loc 1 789 5 is_stmt 1 view .LVU544
 1943              		.loc 1 789 12 is_stmt 0 view .LVU545
 1944 0004 12B2     		sxth	r2, r2
 1945              		.loc 1 789 12 view .LVU546
 1946 0006 09B2     		sxth	r1, r1
 1947              		.loc 1 789 12 view .LVU547
 1948 0008 FFF7FEFF 		bl	UI_Move
 1949              	.LVL169:
 790:Dsp/widget/wgt_core/UI_Controller.c **** }
 1950              		.loc 1 790 1 view .LVU548
 1951 000c 08BD     		pop	{r3, pc}
 1952              	.LVL170:
 1953              	.L190:
 1954              	.LCFI35:
 1955              		.cfi_def_cfa_offset 0
 1956              		.cfi_restore 3
 1957              		.cfi_restore 14
 787:Dsp/widget/wgt_core/UI_Controller.c ****         return false;
 1958              		.loc 1 787 16 view .LVU549
 1959 000e 0020     		movs	r0, #0
 1960              	.LVL171:
 1961              		.loc 1 790 1 view .LVU550
 1962 0010 7047     		bx	lr
 1963              		.cfi_endproc
 1964              	.LFE33:
 1966              		.section	.text.UI_ProcessBar_DspDotBar,"ax",%progbits
 1967              		.align	1
 1968              		.syntax unified
 1969              		.thumb
 1970              		.thumb_func
 1971              		.fpu fpv4-sp-d16
 1973              	UI_ProcessBar_DspDotBar:
 1974              	.LVL172:
 1975              	.LFB35:
 791:Dsp/widget/wgt_core/UI_Controller.c **** 
 792:Dsp/widget/wgt_core/UI_Controller.c **** static bool UI_ProcessBar_DspLoadBar(UI_ProcessBarObj_TypeDef *Obj)
 793:Dsp/widget/wgt_core/UI_Controller.c **** {
 794:Dsp/widget/wgt_core/UI_Controller.c ****     uint8_t frame_radius = 0;
 795:Dsp/widget/wgt_core/UI_Controller.c ****     int16_t Str_CoordX = 0;
 796:Dsp/widget/wgt_core/UI_Controller.c ****     int16_t Str_CoordY = 0;
 797:Dsp/widget/wgt_core/UI_Controller.c ****     float Pcnt_Val = 0;
 798:Dsp/widget/wgt_core/UI_Controller.c ****     char dsp_str[20];
 799:Dsp/widget/wgt_core/UI_Controller.c **** 
 800:Dsp/widget/wgt_core/UI_Controller.c ****     if (Obj == NULL)
 801:Dsp/widget/wgt_core/UI_Controller.c ****         return false;
ARM GAS  /var/folders/lx/hc4sn_b53233_zkc9xbbl97r0000gp/T//cc46Bl7B.s 			page 52


 802:Dsp/widget/wgt_core/UI_Controller.c **** 
 803:Dsp/widget/wgt_core/UI_Controller.c ****     memset(dsp_str, '\0', 20);
 804:Dsp/widget/wgt_core/UI_Controller.c **** 
 805:Dsp/widget/wgt_core/UI_Controller.c ****     Pcnt_Val = (Obj->cur_val / (float)Obj->range);
 806:Dsp/widget/wgt_core/UI_Controller.c ****     sprintf(dsp_str, "On Process : %d%%", (uint8_t)(Pcnt_Val * 100));
 807:Dsp/widget/wgt_core/UI_Controller.c **** 
 808:Dsp/widget/wgt_core/UI_Controller.c ****     Str_CoordX = Obj->Gen_Data.x + (Obj->width - (strlen(dsp_str) * STR_DIS)) / 2;
 809:Dsp/widget/wgt_core/UI_Controller.c ****     Str_CoordY = Obj->Gen_Data.y - base_font - 2;
 810:Dsp/widget/wgt_core/UI_Controller.c **** 
 811:Dsp/widget/wgt_core/UI_Controller.c ****     //display direction from left
 812:Dsp/widget/wgt_core/UI_Controller.c ****     UI_DspInterface.draw_radius_rectangle(Obj->Gen_Data.x, Obj->Gen_Data.y, Obj->width, DEFAULT_PRO
 813:Dsp/widget/wgt_core/UI_Controller.c ****     UI_DspInterface.draw_str(base_font, dsp_str, Str_CoordX, Str_CoordY, true);
 814:Dsp/widget/wgt_core/UI_Controller.c ****     UI_DspInterface.draw_line_h(Obj->Gen_Data.x + 2, Obj->Gen_Data.y + 2, Pcnt_Val * (Obj->width - 
 815:Dsp/widget/wgt_core/UI_Controller.c **** 
 816:Dsp/widget/wgt_core/UI_Controller.c ****     return true;
 817:Dsp/widget/wgt_core/UI_Controller.c **** }
 818:Dsp/widget/wgt_core/UI_Controller.c **** 
 819:Dsp/widget/wgt_core/UI_Controller.c **** static bool UI_ProcessBar_DspDotBar(UI_ProcessBarObj_TypeDef *Obj)
 820:Dsp/widget/wgt_core/UI_Controller.c **** {
 1976              		.loc 1 820 1 is_stmt 1 view -0
 1977              		.cfi_startproc
 1978              		@ args = 0, pretend = 0, frame = 8
 1979              		@ frame_needed = 0, uses_anonymous_args = 0
 821:Dsp/widget/wgt_core/UI_Controller.c ****     uint8_t bar_width = 0;
 1980              		.loc 1 821 5 view .LVU552
 822:Dsp/widget/wgt_core/UI_Controller.c ****     int16_t bar_start_x = 0;
 1981              		.loc 1 822 5 view .LVU553
 823:Dsp/widget/wgt_core/UI_Controller.c ****     float Pcnt_Val = 0;
 1982              		.loc 1 823 5 view .LVU554
 824:Dsp/widget/wgt_core/UI_Controller.c **** 
 825:Dsp/widget/wgt_core/UI_Controller.c ****     if (Obj == NULL)
 1983              		.loc 1 825 5 view .LVU555
 1984              		.loc 1 825 8 is_stmt 0 view .LVU556
 1985 0000 0028     		cmp	r0, #0
 1986 0002 00F0EF80 		beq	.L200
 820:Dsp/widget/wgt_core/UI_Controller.c ****     uint8_t bar_width = 0;
 1987              		.loc 1 820 1 view .LVU557
 1988 0006 2DE9F043 		push	{r4, r5, r6, r7, r8, r9, lr}
 1989              	.LCFI36:
 1990              		.cfi_def_cfa_offset 28
 1991              		.cfi_offset 4, -28
 1992              		.cfi_offset 5, -24
 1993              		.cfi_offset 6, -20
 1994              		.cfi_offset 7, -16
 1995              		.cfi_offset 8, -12
 1996              		.cfi_offset 9, -8
 1997              		.cfi_offset 14, -4
 1998 000a 2DED028B 		vpush.64	{d8}
 1999              	.LCFI37:
 2000              		.cfi_def_cfa_offset 36
 2001              		.cfi_offset 80, -36
 2002              		.cfi_offset 81, -32
 2003 000e 85B0     		sub	sp, sp, #20
 2004              	.LCFI38:
 2005              		.cfi_def_cfa_offset 56
 2006 0010 0446     		mov	r4, r0
 826:Dsp/widget/wgt_core/UI_Controller.c ****         return false;
ARM GAS  /var/folders/lx/hc4sn_b53233_zkc9xbbl97r0000gp/T//cc46Bl7B.s 			page 53


 827:Dsp/widget/wgt_core/UI_Controller.c **** 
 828:Dsp/widget/wgt_core/UI_Controller.c ****     if (Obj->width / 2 == 0)
 2007              		.loc 1 828 5 is_stmt 1 view .LVU558
 2008              		.loc 1 828 12 is_stmt 0 view .LVU559
 2009 0012 90F82020 		ldrb	r2, [r0, #32]	@ zero_extendqisi2
 2010              		.loc 1 828 8 view .LVU560
 2011 0016 012A     		cmp	r2, #1
 2012 0018 56D9     		bls	.L208
 821:Dsp/widget/wgt_core/UI_Controller.c ****     int16_t bar_start_x = 0;
 2013              		.loc 1 821 13 view .LVU561
 2014 001a 0025     		movs	r5, #0
 2015              	.LVL173:
 2016              	.L197:
 829:Dsp/widget/wgt_core/UI_Controller.c ****         bar_width = Obj->width + 1;
 830:Dsp/widget/wgt_core/UI_Controller.c **** 
 831:Dsp/widget/wgt_core/UI_Controller.c ****     /* step  1 draw dot line */
 832:Dsp/widget/wgt_core/UI_Controller.c ****     UI_Draw_HorDotLine(Obj->Gen_Data.x, Obj->Gen_Data.y, Obj->width, DEFAULT_PROCESSBAR_LINE_WIDTH)
 2017              		.loc 1 832 5 is_stmt 1 view .LVU562
 2018 001c 0123     		movs	r3, #1
 2019 001e B4F90610 		ldrsh	r1, [r4, #6]	@ unaligned
 2020 0022 B4F90400 		ldrsh	r0, [r4, #4]	@ unaligned
 2021              	.LVL174:
 2022              		.loc 1 832 5 is_stmt 0 view .LVU563
 2023 0026 FFF7FEFF 		bl	UI_Draw_HorDotLine
 2024              	.LVL175:
 833:Dsp/widget/wgt_core/UI_Controller.c **** 
 834:Dsp/widget/wgt_core/UI_Controller.c ****     if (Obj->Mv_Dir == UI_ProcBar_GrothFrom_Left)
 2025              		.loc 1 834 5 is_stmt 1 view .LVU564
 2026              		.loc 1 834 12 is_stmt 0 view .LVU565
 2027 002a 94F82330 		ldrb	r3, [r4, #35]	@ zero_extendqisi2
 2028              		.loc 1 834 8 view .LVU566
 2029 002e 002B     		cmp	r3, #0
 2030 0030 4DD1     		bne	.L198
 835:Dsp/widget/wgt_core/UI_Controller.c ****     {
 836:Dsp/widget/wgt_core/UI_Controller.c ****         bar_start_x = Obj->Gen_Data.x;
 2031              		.loc 1 836 9 is_stmt 1 view .LVU567
 2032              		.loc 1 836 21 is_stmt 0 view .LVU568
 2033 0032 B4F90480 		ldrsh	r8, [r4, #4]	@ unaligned
 2034              	.LVL176:
 837:Dsp/widget/wgt_core/UI_Controller.c ****         Pcnt_Val = (Obj->cur_val / (float)Obj->range);
 2035              		.loc 1 837 9 is_stmt 1 view .LVU569
 2036              		.loc 1 837 24 is_stmt 0 view .LVU570
 2037 0036 E369     		ldr	r3, [r4, #28]	@ unaligned
 2038 0038 07EE103A 		vmov	s14, r3	@ int
 2039              		.loc 1 837 34 view .LVU571
 2040 003c B8EEC77A 		vcvt.f32.s32	s14, s14
 2041              		.loc 1 837 46 view .LVU572
 2042 0040 A369     		ldr	r3, [r4, #24]	@ unaligned
 2043 0042 07EE903A 		vmov	s15, r3	@ int
 2044              		.loc 1 837 36 view .LVU573
 2045 0046 F8EEE77A 		vcvt.f32.s32	s15, s15
 2046              		.loc 1 837 18 view .LVU574
 2047 004a 87EE278A 		vdiv.f32	s16, s14, s15
 2048              	.LVL177:
 838:Dsp/widget/wgt_core/UI_Controller.c **** 
 839:Dsp/widget/wgt_core/UI_Controller.c ****         UI_DspInterface.draw_line_v(Obj->Gen_Data.x, Obj->Gen_Data.y - 2, 5, DEFAULT_PROCESSBAR_LIN
 2049              		.loc 1 839 9 is_stmt 1 view .LVU575
ARM GAS  /var/folders/lx/hc4sn_b53233_zkc9xbbl97r0000gp/T//cc46Bl7B.s 			page 54


 2050              		.loc 1 839 24 is_stmt 0 view .LVU576
 2051 004e 684F     		ldr	r7, .L209
 2052              		.loc 1 839 67 view .LVU577
 2053 0050 E188     		ldrh	r1, [r4, #6]	@ unaligned
 2054              		.loc 1 839 70 view .LVU578
 2055 0052 0239     		subs	r1, r1, #2
 2056              		.loc 1 839 9 view .LVU579
 2057 0054 0125     		movs	r5, #1
 2058              	.LVL178:
 2059              		.loc 1 839 9 view .LVU580
 2060 0056 0095     		str	r5, [sp]
 2061              	.LVL179:
 2062              		.loc 1 839 9 view .LVU581
 2063 0058 2B46     		mov	r3, r5
 2064 005a 0522     		movs	r2, #5
 2065 005c 09B2     		sxth	r1, r1
 2066 005e 4046     		mov	r0, r8
 2067 0060 3E69     		ldr	r6, [r7, #16]
 2068 0062 B047     		blx	r6
 2069              	.LVL180:
 840:Dsp/widget/wgt_core/UI_Controller.c ****         UI_DspInterface.draw_line_h(bar_start_x, Obj->Gen_Data.y - 1, Obj->width * Pcnt_Val, DEFAUL
 2070              		.loc 1 840 9 is_stmt 1 view .LVU582
 2071              		.loc 1 840 63 is_stmt 0 view .LVU583
 2072 0064 E188     		ldrh	r1, [r4, #6]	@ unaligned
 2073              		.loc 1 840 66 view .LVU584
 2074 0066 0139     		subs	r1, r1, #1
 2075              		.loc 1 840 74 view .LVU585
 2076 0068 94F82030 		ldrb	r3, [r4, #32]	@ zero_extendqisi2
 2077 006c 07EE903A 		vmov	s15, r3	@ int
 2078              		.loc 1 840 82 view .LVU586
 2079 0070 F8EEE77A 		vcvt.f32.s32	s15, s15
 2080 0074 67EE887A 		vmul.f32	s15, s15, s16
 2081              		.loc 1 840 9 view .LVU587
 2082 0078 FCEEE77A 		vcvt.u32.f32	s15, s15
 2083 007c CDED037A 		vstr.32	s15, [sp, #12]	@ int
 2084 0080 0095     		str	r5, [sp]
 2085 0082 2B46     		mov	r3, r5
 2086 0084 9DF80C20 		ldrb	r2, [sp, #12]	@ zero_extendqisi2
 2087 0088 09B2     		sxth	r1, r1
 2088 008a 4046     		mov	r0, r8
 2089 008c FE68     		ldr	r6, [r7, #12]
 2090 008e B047     		blx	r6
 2091              	.LVL181:
 841:Dsp/widget/wgt_core/UI_Controller.c ****         UI_DspInterface.draw_line_h(bar_start_x, Obj->Gen_Data.y + 1, Obj->width * Pcnt_Val, DEFAUL
 2092              		.loc 1 841 9 is_stmt 1 view .LVU588
 2093              		.loc 1 841 24 is_stmt 0 view .LVU589
 2094 0090 FF68     		ldr	r7, [r7, #12]
 2095              		.loc 1 841 63 view .LVU590
 2096 0092 E188     		ldrh	r1, [r4, #6]	@ unaligned
 2097              		.loc 1 841 66 view .LVU591
 2098 0094 2944     		add	r1, r1, r5
 2099              		.loc 1 841 74 view .LVU592
 2100 0096 94F82030 		ldrb	r3, [r4, #32]	@ zero_extendqisi2
 2101 009a 07EE903A 		vmov	s15, r3	@ int
 2102              		.loc 1 841 82 view .LVU593
 2103 009e F8EEE77A 		vcvt.f32.s32	s15, s15
 2104 00a2 67EE887A 		vmul.f32	s15, s15, s16
ARM GAS  /var/folders/lx/hc4sn_b53233_zkc9xbbl97r0000gp/T//cc46Bl7B.s 			page 55


 2105              		.loc 1 841 9 view .LVU594
 2106 00a6 FCEEE77A 		vcvt.u32.f32	s15, s15
 2107 00aa CDED037A 		vstr.32	s15, [sp, #12]	@ int
 2108 00ae 0095     		str	r5, [sp]
 2109 00b0 2B46     		mov	r3, r5
 2110 00b2 9DF80C20 		ldrb	r2, [sp, #12]	@ zero_extendqisi2
 2111 00b6 09B2     		sxth	r1, r1
 2112 00b8 4046     		mov	r0, r8
 2113 00ba B847     		blx	r7
 2114              	.LVL182:
 842:Dsp/widget/wgt_core/UI_Controller.c ****     }
 843:Dsp/widget/wgt_core/UI_Controller.c ****     else if (Obj->Mv_Dir == UI_ProcBar_GrothFrom_Mid)
 844:Dsp/widget/wgt_core/UI_Controller.c ****     {
 845:Dsp/widget/wgt_core/UI_Controller.c ****         UI_DspInterface.draw_line_v(Obj->Gen_Data.x + bar_width / 2, Obj->Gen_Data.y - 2, 5, DEFAUL
 846:Dsp/widget/wgt_core/UI_Controller.c ****         Pcnt_Val = ((Obj->cur_val - (Obj->range / 2)) / ((float)(Obj->range / 2)));
 847:Dsp/widget/wgt_core/UI_Controller.c **** 
 848:Dsp/widget/wgt_core/UI_Controller.c ****         if (Obj->cur_val < (Obj->min + Obj->range / 2))
 849:Dsp/widget/wgt_core/UI_Controller.c ****         {
 850:Dsp/widget/wgt_core/UI_Controller.c ****             bar_start_x = Obj->Gen_Data.x + bar_width / 2 - (Pcnt_Val * bar_width / 2);
 851:Dsp/widget/wgt_core/UI_Controller.c ****             UI_DspInterface.draw_line_h(bar_start_x, Obj->Gen_Data.y - 1, (Pcnt_Val * bar_width / 2
 852:Dsp/widget/wgt_core/UI_Controller.c ****             UI_DspInterface.draw_line_h(bar_start_x, Obj->Gen_Data.y + 1, (Pcnt_Val * bar_width / 2
 853:Dsp/widget/wgt_core/UI_Controller.c ****         }
 854:Dsp/widget/wgt_core/UI_Controller.c ****         else if (Obj->cur_val > (Obj->max + Obj->range / 2))
 855:Dsp/widget/wgt_core/UI_Controller.c ****         {
 856:Dsp/widget/wgt_core/UI_Controller.c ****             bar_start_x = Obj->Gen_Data.x + bar_width / 2;
 857:Dsp/widget/wgt_core/UI_Controller.c ****             UI_DspInterface.draw_line_h(bar_start_x, Obj->Gen_Data.y - 1, (Pcnt_Val * bar_width / 2
 858:Dsp/widget/wgt_core/UI_Controller.c ****             UI_DspInterface.draw_line_h(bar_start_x, Obj->Gen_Data.y + 1, (Pcnt_Val * bar_width / 2
 859:Dsp/widget/wgt_core/UI_Controller.c ****         }
 860:Dsp/widget/wgt_core/UI_Controller.c ****     }
 861:Dsp/widget/wgt_core/UI_Controller.c ****     else
 862:Dsp/widget/wgt_core/UI_Controller.c ****         return false;
 863:Dsp/widget/wgt_core/UI_Controller.c **** 
 864:Dsp/widget/wgt_core/UI_Controller.c ****     return true;
 2115              		.loc 1 864 12 view .LVU595
 2116 00bc 2846     		mov	r0, r5
 2117              	.LVL183:
 2118              	.L196:
 865:Dsp/widget/wgt_core/UI_Controller.c **** }
 2119              		.loc 1 865 1 view .LVU596
 2120 00be 05B0     		add	sp, sp, #20
 2121              	.LCFI39:
 2122              		.cfi_remember_state
 2123              		.cfi_def_cfa_offset 36
 2124              		@ sp needed
 2125 00c0 BDEC028B 		vldm	sp!, {d8}
 2126              	.LCFI40:
 2127              		.cfi_restore 80
 2128              		.cfi_restore 81
 2129              		.cfi_def_cfa_offset 28
 2130 00c4 BDE8F083 		pop	{r4, r5, r6, r7, r8, r9, pc}
 2131              	.LVL184:
 2132              	.L208:
 2133              	.LCFI41:
 2134              		.cfi_restore_state
 829:Dsp/widget/wgt_core/UI_Controller.c **** 
 2135              		.loc 1 829 9 is_stmt 1 view .LVU597
 829:Dsp/widget/wgt_core/UI_Controller.c **** 
ARM GAS  /var/folders/lx/hc4sn_b53233_zkc9xbbl97r0000gp/T//cc46Bl7B.s 			page 56


 2136              		.loc 1 829 19 is_stmt 0 view .LVU598
 2137 00c8 551C     		adds	r5, r2, #1
 2138 00ca EDB2     		uxtb	r5, r5
 2139              	.LVL185:
 829:Dsp/widget/wgt_core/UI_Controller.c **** 
 2140              		.loc 1 829 19 view .LVU599
 2141 00cc A6E7     		b	.L197
 2142              	.LVL186:
 2143              	.L198:
 843:Dsp/widget/wgt_core/UI_Controller.c ****     {
 2144              		.loc 1 843 10 is_stmt 1 view .LVU600
 843:Dsp/widget/wgt_core/UI_Controller.c ****     {
 2145              		.loc 1 843 13 is_stmt 0 view .LVU601
 2146 00ce 012B     		cmp	r3, #1
 2147 00d0 40F08A80 		bne	.L202
 845:Dsp/widget/wgt_core/UI_Controller.c ****         Pcnt_Val = ((Obj->cur_val - (Obj->range / 2)) / ((float)(Obj->range / 2)));
 2148              		.loc 1 845 9 is_stmt 1 view .LVU602
 845:Dsp/widget/wgt_core/UI_Controller.c ****         Pcnt_Val = ((Obj->cur_val - (Obj->range / 2)) / ((float)(Obj->range / 2)));
 2149              		.loc 1 845 24 is_stmt 0 view .LVU603
 2150 00d4 464B     		ldr	r3, .L209
 2151 00d6 D3F81080 		ldr	r8, [r3, #16]
 845:Dsp/widget/wgt_core/UI_Controller.c ****         Pcnt_Val = ((Obj->cur_val - (Obj->range / 2)) / ((float)(Obj->range / 2)));
 2152              		.loc 1 845 50 view .LVU604
 2153 00da A088     		ldrh	r0, [r4, #4]	@ unaligned
 845:Dsp/widget/wgt_core/UI_Controller.c ****         Pcnt_Val = ((Obj->cur_val - (Obj->range / 2)) / ((float)(Obj->range / 2)));
 2154              		.loc 1 845 53 view .LVU605
 2155 00dc 6F08     		lsrs	r7, r5, #1
 2156 00de 3E46     		mov	r6, r7
 2157 00e0 00EB5500 		add	r0, r0, r5, lsr #1
 845:Dsp/widget/wgt_core/UI_Controller.c ****         Pcnt_Val = ((Obj->cur_val - (Obj->range / 2)) / ((float)(Obj->range / 2)));
 2158              		.loc 1 845 83 view .LVU606
 2159 00e4 E188     		ldrh	r1, [r4, #6]	@ unaligned
 845:Dsp/widget/wgt_core/UI_Controller.c ****         Pcnt_Val = ((Obj->cur_val - (Obj->range / 2)) / ((float)(Obj->range / 2)));
 2160              		.loc 1 845 86 view .LVU607
 2161 00e6 0239     		subs	r1, r1, #2
 845:Dsp/widget/wgt_core/UI_Controller.c ****         Pcnt_Val = ((Obj->cur_val - (Obj->range / 2)) / ((float)(Obj->range / 2)));
 2162              		.loc 1 845 9 view .LVU608
 2163 00e8 0123     		movs	r3, #1
 2164 00ea 0093     		str	r3, [sp]
 2165 00ec 0522     		movs	r2, #5
 2166 00ee 09B2     		sxth	r1, r1
 2167 00f0 00B2     		sxth	r0, r0
 2168 00f2 C047     		blx	r8
 2169              	.LVL187:
 846:Dsp/widget/wgt_core/UI_Controller.c **** 
 2170              		.loc 1 846 9 is_stmt 1 view .LVU609
 846:Dsp/widget/wgt_core/UI_Controller.c **** 
 2171              		.loc 1 846 25 is_stmt 0 view .LVU610
 2172 00f4 E169     		ldr	r1, [r4, #28]	@ unaligned
 846:Dsp/widget/wgt_core/UI_Controller.c **** 
 2173              		.loc 1 846 41 view .LVU611
 2174 00f6 A369     		ldr	r3, [r4, #24]	@ unaligned
 846:Dsp/widget/wgt_core/UI_Controller.c **** 
 2175              		.loc 1 846 49 view .LVU612
 2176 00f8 03EBD373 		add	r3, r3, r3, lsr #31
 846:Dsp/widget/wgt_core/UI_Controller.c **** 
 2177              		.loc 1 846 35 view .LVU613
ARM GAS  /var/folders/lx/hc4sn_b53233_zkc9xbbl97r0000gp/T//cc46Bl7B.s 			page 57


 2178 00fc A1EB6302 		sub	r2, r1, r3, asr #1
 2179 0100 07EE102A 		vmov	s14, r2	@ int
 846:Dsp/widget/wgt_core/UI_Controller.c **** 
 2180              		.loc 1 846 55 view .LVU614
 2181 0104 B8EEC77A 		vcvt.f32.s32	s14, s14
 846:Dsp/widget/wgt_core/UI_Controller.c **** 
 2182              		.loc 1 846 77 view .LVU615
 2183 0108 5B10     		asrs	r3, r3, #1
 846:Dsp/widget/wgt_core/UI_Controller.c **** 
 2184              		.loc 1 846 58 view .LVU616
 2185 010a 07EE903A 		vmov	s15, r3	@ int
 2186 010e F8EEE76A 		vcvt.f32.s32	s13, s15
 846:Dsp/widget/wgt_core/UI_Controller.c **** 
 2187              		.loc 1 846 18 view .LVU617
 2188 0112 87EE266A 		vdiv.f32	s12, s14, s13
 2189              	.LVL188:
 848:Dsp/widget/wgt_core/UI_Controller.c ****         {
 2190              		.loc 1 848 9 is_stmt 1 view .LVU618
 848:Dsp/widget/wgt_core/UI_Controller.c ****         {
 2191              		.loc 1 848 32 is_stmt 0 view .LVU619
 2192 0116 2269     		ldr	r2, [r4, #16]	@ unaligned
 848:Dsp/widget/wgt_core/UI_Controller.c ****         {
 2193              		.loc 1 848 38 view .LVU620
 2194 0118 1A44     		add	r2, r2, r3
 848:Dsp/widget/wgt_core/UI_Controller.c ****         {
 2195              		.loc 1 848 12 view .LVU621
 2196 011a 9142     		cmp	r1, r2
 2197 011c 34DA     		bge	.L199
 850:Dsp/widget/wgt_core/UI_Controller.c ****             UI_DspInterface.draw_line_h(bar_start_x, Obj->Gen_Data.y - 1, (Pcnt_Val * bar_width / 2
 2198              		.loc 1 850 13 is_stmt 1 view .LVU622
 850:Dsp/widget/wgt_core/UI_Controller.c ****             UI_DspInterface.draw_line_h(bar_start_x, Obj->Gen_Data.y - 1, (Pcnt_Val * bar_width / 2
 2199              		.loc 1 850 40 is_stmt 0 view .LVU623
 2200 011e B4F90430 		ldrsh	r3, [r4, #4]	@ unaligned
 850:Dsp/widget/wgt_core/UI_Controller.c ****             UI_DspInterface.draw_line_h(bar_start_x, Obj->Gen_Data.y - 1, (Pcnt_Val * bar_width / 2
 2201              		.loc 1 850 43 view .LVU624
 2202 0122 3B44     		add	r3, r3, r7
 2203 0124 07EE103A 		vmov	s14, r3	@ int
 850:Dsp/widget/wgt_core/UI_Controller.c ****             UI_DspInterface.draw_line_h(bar_start_x, Obj->Gen_Data.y - 1, (Pcnt_Val * bar_width / 2
 2204              		.loc 1 850 71 view .LVU625
 2205 0128 07EE905A 		vmov	s15, r5	@ int
 2206 012c F8EEE77A 		vcvt.f32.s32	s15, s15
 2207 0130 67EE867A 		vmul.f32	s15, s15, s12
 850:Dsp/widget/wgt_core/UI_Controller.c ****             UI_DspInterface.draw_line_h(bar_start_x, Obj->Gen_Data.y - 1, (Pcnt_Val * bar_width / 2
 2208              		.loc 1 850 83 view .LVU626
 2209 0134 F6EE006A 		vmov.f32	s13, #5.0e-1
 2210 0138 67EEA67A 		vmul.f32	s15, s15, s13
 850:Dsp/widget/wgt_core/UI_Controller.c ****             UI_DspInterface.draw_line_h(bar_start_x, Obj->Gen_Data.y - 1, (Pcnt_Val * bar_width / 2
 2211              		.loc 1 850 59 view .LVU627
 2212 013c B8EEC77A 		vcvt.f32.s32	s14, s14
 2213 0140 37EE677A 		vsub.f32	s14, s14, s15
 850:Dsp/widget/wgt_core/UI_Controller.c ****             UI_DspInterface.draw_line_h(bar_start_x, Obj->Gen_Data.y - 1, (Pcnt_Val * bar_width / 2
 2214              		.loc 1 850 25 view .LVU628
 2215 0144 BDEEC77A 		vcvt.s32.f32	s14, s14
 2216 0148 17EE103A 		vmov	r3, s14	@ int
 2217 014c 0FFA83F9 		sxth	r9, r3
 2218              	.LVL189:
 851:Dsp/widget/wgt_core/UI_Controller.c ****             UI_DspInterface.draw_line_h(bar_start_x, Obj->Gen_Data.y + 1, (Pcnt_Val * bar_width / 2
ARM GAS  /var/folders/lx/hc4sn_b53233_zkc9xbbl97r0000gp/T//cc46Bl7B.s 			page 58


 2219              		.loc 1 851 13 is_stmt 1 view .LVU629
 851:Dsp/widget/wgt_core/UI_Controller.c ****             UI_DspInterface.draw_line_h(bar_start_x, Obj->Gen_Data.y + 1, (Pcnt_Val * bar_width / 2
 2220              		.loc 1 851 28 is_stmt 0 view .LVU630
 2221 0150 274F     		ldr	r7, .L209
 851:Dsp/widget/wgt_core/UI_Controller.c ****             UI_DspInterface.draw_line_h(bar_start_x, Obj->Gen_Data.y + 1, (Pcnt_Val * bar_width / 2
 2222              		.loc 1 851 67 view .LVU631
 2223 0152 E188     		ldrh	r1, [r4, #6]	@ unaligned
 851:Dsp/widget/wgt_core/UI_Controller.c ****             UI_DspInterface.draw_line_h(bar_start_x, Obj->Gen_Data.y + 1, (Pcnt_Val * bar_width / 2
 2224              		.loc 1 851 70 view .LVU632
 2225 0154 0139     		subs	r1, r1, #1
 851:Dsp/widget/wgt_core/UI_Controller.c ****             UI_DspInterface.draw_line_h(bar_start_x, Obj->Gen_Data.y + 1, (Pcnt_Val * bar_width / 2
 2226              		.loc 1 851 13 view .LVU633
 2227 0156 FCEEE77A 		vcvt.u32.f32	s15, s15
 2228 015a CDED037A 		vstr.32	s15, [sp, #12]	@ int
 2229 015e 9DF80C80 		ldrb	r8, [sp, #12]	@ zero_extendqisi2
 2230 0162 0125     		movs	r5, #1
 2231              	.LVL190:
 851:Dsp/widget/wgt_core/UI_Controller.c ****             UI_DspInterface.draw_line_h(bar_start_x, Obj->Gen_Data.y + 1, (Pcnt_Val * bar_width / 2
 2232              		.loc 1 851 13 view .LVU634
 2233 0164 0095     		str	r5, [sp]
 2234 0166 2B46     		mov	r3, r5
 2235 0168 4246     		mov	r2, r8
 2236 016a 09B2     		sxth	r1, r1
 2237 016c 4846     		mov	r0, r9
 2238 016e FE68     		ldr	r6, [r7, #12]
 2239 0170 B047     		blx	r6
 2240              	.LVL191:
 852:Dsp/widget/wgt_core/UI_Controller.c ****         }
 2241              		.loc 1 852 13 is_stmt 1 view .LVU635
 852:Dsp/widget/wgt_core/UI_Controller.c ****         }
 2242              		.loc 1 852 28 is_stmt 0 view .LVU636
 2243 0172 FF68     		ldr	r7, [r7, #12]
 852:Dsp/widget/wgt_core/UI_Controller.c ****         }
 2244              		.loc 1 852 67 view .LVU637
 2245 0174 E188     		ldrh	r1, [r4, #6]	@ unaligned
 852:Dsp/widget/wgt_core/UI_Controller.c ****         }
 2246              		.loc 1 852 70 view .LVU638
 2247 0176 2944     		add	r1, r1, r5
 852:Dsp/widget/wgt_core/UI_Controller.c ****         }
 2248              		.loc 1 852 13 view .LVU639
 2249 0178 0095     		str	r5, [sp]
 2250 017a 2B46     		mov	r3, r5
 2251 017c 4246     		mov	r2, r8
 2252 017e 09B2     		sxth	r1, r1
 2253 0180 4846     		mov	r0, r9
 2254 0182 B847     		blx	r7
 2255              	.LVL192:
 864:Dsp/widget/wgt_core/UI_Controller.c **** }
 2256              		.loc 1 864 12 view .LVU640
 2257 0184 2846     		mov	r0, r5
 2258 0186 9AE7     		b	.L196
 2259              	.LVL193:
 2260              	.L199:
 854:Dsp/widget/wgt_core/UI_Controller.c ****         {
 2261              		.loc 1 854 14 is_stmt 1 view .LVU641
 854:Dsp/widget/wgt_core/UI_Controller.c ****         {
 2262              		.loc 1 854 37 is_stmt 0 view .LVU642
ARM GAS  /var/folders/lx/hc4sn_b53233_zkc9xbbl97r0000gp/T//cc46Bl7B.s 			page 59


 2263 0188 6269     		ldr	r2, [r4, #20]	@ unaligned
 854:Dsp/widget/wgt_core/UI_Controller.c ****         {
 2264              		.loc 1 854 43 view .LVU643
 2265 018a 1344     		add	r3, r3, r2
 854:Dsp/widget/wgt_core/UI_Controller.c ****         {
 2266              		.loc 1 854 17 view .LVU644
 2267 018c 9942     		cmp	r1, r3
 2268 018e 2DDD     		ble	.L203
 856:Dsp/widget/wgt_core/UI_Controller.c ****             UI_DspInterface.draw_line_h(bar_start_x, Obj->Gen_Data.y - 1, (Pcnt_Val * bar_width / 2
 2269              		.loc 1 856 13 is_stmt 1 view .LVU645
 856:Dsp/widget/wgt_core/UI_Controller.c ****             UI_DspInterface.draw_line_h(bar_start_x, Obj->Gen_Data.y - 1, (Pcnt_Val * bar_width / 2
 2270              		.loc 1 856 40 is_stmt 0 view .LVU646
 2271 0190 A388     		ldrh	r3, [r4, #4]	@ unaligned
 856:Dsp/widget/wgt_core/UI_Controller.c ****             UI_DspInterface.draw_line_h(bar_start_x, Obj->Gen_Data.y - 1, (Pcnt_Val * bar_width / 2
 2272              		.loc 1 856 43 view .LVU647
 2273 0192 1E44     		add	r6, r6, r3
 856:Dsp/widget/wgt_core/UI_Controller.c ****             UI_DspInterface.draw_line_h(bar_start_x, Obj->Gen_Data.y - 1, (Pcnt_Val * bar_width / 2
 2274              		.loc 1 856 25 view .LVU648
 2275 0194 0FFA86F9 		sxth	r9, r6
 2276              	.LVL194:
 857:Dsp/widget/wgt_core/UI_Controller.c ****             UI_DspInterface.draw_line_h(bar_start_x, Obj->Gen_Data.y + 1, (Pcnt_Val * bar_width / 2
 2277              		.loc 1 857 13 is_stmt 1 view .LVU649
 857:Dsp/widget/wgt_core/UI_Controller.c ****             UI_DspInterface.draw_line_h(bar_start_x, Obj->Gen_Data.y + 1, (Pcnt_Val * bar_width / 2
 2278              		.loc 1 857 28 is_stmt 0 view .LVU650
 2279 0198 154F     		ldr	r7, .L209
 857:Dsp/widget/wgt_core/UI_Controller.c ****             UI_DspInterface.draw_line_h(bar_start_x, Obj->Gen_Data.y + 1, (Pcnt_Val * bar_width / 2
 2280              		.loc 1 857 67 view .LVU651
 2281 019a E188     		ldrh	r1, [r4, #6]	@ unaligned
 857:Dsp/widget/wgt_core/UI_Controller.c ****             UI_DspInterface.draw_line_h(bar_start_x, Obj->Gen_Data.y + 1, (Pcnt_Val * bar_width / 2
 2282              		.loc 1 857 70 view .LVU652
 2283 019c 0139     		subs	r1, r1, #1
 857:Dsp/widget/wgt_core/UI_Controller.c ****             UI_DspInterface.draw_line_h(bar_start_x, Obj->Gen_Data.y + 1, (Pcnt_Val * bar_width / 2
 2284              		.loc 1 857 85 view .LVU653
 2285 019e 07EE905A 		vmov	s15, r5	@ int
 2286 01a2 F8EEE77A 		vcvt.f32.s32	s15, s15
 2287 01a6 67EE867A 		vmul.f32	s15, s15, s12
 857:Dsp/widget/wgt_core/UI_Controller.c ****             UI_DspInterface.draw_line_h(bar_start_x, Obj->Gen_Data.y + 1, (Pcnt_Val * bar_width / 2
 2288              		.loc 1 857 97 view .LVU654
 2289 01aa B6EE007A 		vmov.f32	s14, #5.0e-1
 2290 01ae 67EE877A 		vmul.f32	s15, s15, s14
 857:Dsp/widget/wgt_core/UI_Controller.c ****             UI_DspInterface.draw_line_h(bar_start_x, Obj->Gen_Data.y + 1, (Pcnt_Val * bar_width / 2
 2291              		.loc 1 857 13 view .LVU655
 2292 01b2 FCEEE77A 		vcvt.u32.f32	s15, s15
 2293 01b6 CDED037A 		vstr.32	s15, [sp, #12]	@ int
 2294 01ba 9DF80C80 		ldrb	r8, [sp, #12]	@ zero_extendqisi2
 2295 01be 0125     		movs	r5, #1
 2296              	.LVL195:
 857:Dsp/widget/wgt_core/UI_Controller.c ****             UI_DspInterface.draw_line_h(bar_start_x, Obj->Gen_Data.y + 1, (Pcnt_Val * bar_width / 2
 2297              		.loc 1 857 13 view .LVU656
 2298 01c0 0095     		str	r5, [sp]
 2299 01c2 2B46     		mov	r3, r5
 2300 01c4 4246     		mov	r2, r8
 2301 01c6 09B2     		sxth	r1, r1
 2302 01c8 4846     		mov	r0, r9
 2303 01ca FE68     		ldr	r6, [r7, #12]
 2304 01cc B047     		blx	r6
 2305              	.LVL196:
ARM GAS  /var/folders/lx/hc4sn_b53233_zkc9xbbl97r0000gp/T//cc46Bl7B.s 			page 60


 858:Dsp/widget/wgt_core/UI_Controller.c ****         }
 2306              		.loc 1 858 13 is_stmt 1 view .LVU657
 858:Dsp/widget/wgt_core/UI_Controller.c ****         }
 2307              		.loc 1 858 28 is_stmt 0 view .LVU658
 2308 01ce FF68     		ldr	r7, [r7, #12]
 858:Dsp/widget/wgt_core/UI_Controller.c ****         }
 2309              		.loc 1 858 67 view .LVU659
 2310 01d0 E188     		ldrh	r1, [r4, #6]	@ unaligned
 858:Dsp/widget/wgt_core/UI_Controller.c ****         }
 2311              		.loc 1 858 70 view .LVU660
 2312 01d2 2944     		add	r1, r1, r5
 858:Dsp/widget/wgt_core/UI_Controller.c ****         }
 2313              		.loc 1 858 13 view .LVU661
 2314 01d4 0095     		str	r5, [sp]
 2315 01d6 2B46     		mov	r3, r5
 2316 01d8 4246     		mov	r2, r8
 2317 01da 09B2     		sxth	r1, r1
 2318 01dc 4846     		mov	r0, r9
 2319 01de B847     		blx	r7
 2320              	.LVL197:
 864:Dsp/widget/wgt_core/UI_Controller.c **** }
 2321              		.loc 1 864 12 view .LVU662
 2322 01e0 2846     		mov	r0, r5
 2323 01e2 6CE7     		b	.L196
 2324              	.LVL198:
 2325              	.L200:
 2326              	.LCFI42:
 2327              		.cfi_def_cfa_offset 0
 2328              		.cfi_restore 4
 2329              		.cfi_restore 5
 2330              		.cfi_restore 6
 2331              		.cfi_restore 7
 2332              		.cfi_restore 8
 2333              		.cfi_restore 9
 2334              		.cfi_restore 14
 2335              		.cfi_restore 80
 2336              		.cfi_restore 81
 826:Dsp/widget/wgt_core/UI_Controller.c **** 
 2337              		.loc 1 826 16 view .LVU663
 2338 01e4 0020     		movs	r0, #0
 2339              	.LVL199:
 2340              		.loc 1 865 1 view .LVU664
 2341 01e6 7047     		bx	lr
 2342              	.LVL200:
 2343              	.L202:
 2344              	.LCFI43:
 2345              		.cfi_def_cfa_offset 56
 2346              		.cfi_offset 4, -28
 2347              		.cfi_offset 5, -24
 2348              		.cfi_offset 6, -20
 2349              		.cfi_offset 7, -16
 2350              		.cfi_offset 8, -12
 2351              		.cfi_offset 9, -8
 2352              		.cfi_offset 14, -4
 2353              		.cfi_offset 80, -36
 2354              		.cfi_offset 81, -32
 862:Dsp/widget/wgt_core/UI_Controller.c **** 
ARM GAS  /var/folders/lx/hc4sn_b53233_zkc9xbbl97r0000gp/T//cc46Bl7B.s 			page 61


 2355              		.loc 1 862 16 view .LVU665
 2356 01e8 0020     		movs	r0, #0
 2357 01ea 68E7     		b	.L196
 2358              	.LVL201:
 2359              	.L203:
 864:Dsp/widget/wgt_core/UI_Controller.c **** }
 2360              		.loc 1 864 12 view .LVU666
 2361 01ec 0120     		movs	r0, #1
 2362 01ee 66E7     		b	.L196
 2363              	.L210:
 2364              		.align	2
 2365              	.L209:
 2366 01f0 00000000 		.word	.LANCHOR0
 2367              		.cfi_endproc
 2368              	.LFE35:
 2370              		.section	.text.UI_Drop_Init,"ax",%progbits
 2371              		.align	1
 2372              		.syntax unified
 2373              		.thumb
 2374              		.thumb_func
 2375              		.fpu fpv4-sp-d16
 2377              	UI_Drop_Init:
 2378              	.LVL202:
 2379              	.LFB38:
 866:Dsp/widget/wgt_core/UI_Controller.c **** 
 867:Dsp/widget/wgt_core/UI_Controller.c **** static bool UI_ProcessBar_DspFrameBar(UI_ProcessBarObj_TypeDef *Obj)
 868:Dsp/widget/wgt_core/UI_Controller.c **** {
 869:Dsp/widget/wgt_core/UI_Controller.c ****     int16_t frame_CoordX = 0;
 870:Dsp/widget/wgt_core/UI_Controller.c ****     uint8_t frame_width = 0;
 871:Dsp/widget/wgt_core/UI_Controller.c ****     uint8_t frame_Height = 0;
 872:Dsp/widget/wgt_core/UI_Controller.c ****     int16_t block_start_CoordX = 0;
 873:Dsp/widget/wgt_core/UI_Controller.c ****     int16_t block_start_CoordY = 0;
 874:Dsp/widget/wgt_core/UI_Controller.c ****     int16_t block_end_CoordX = 0;
 875:Dsp/widget/wgt_core/UI_Controller.c ****     int16_t block_end_CoordY = 0;
 876:Dsp/widget/wgt_core/UI_Controller.c **** 
 877:Dsp/widget/wgt_core/UI_Controller.c ****     if ((Obj == NULL) &&
 878:Dsp/widget/wgt_core/UI_Controller.c ****         (UI_DspInterface.draw_str == NULL) &&
 879:Dsp/widget/wgt_core/UI_Controller.c ****         (UI_DspInterface.draw_rectangle == NULL) &&
 880:Dsp/widget/wgt_core/UI_Controller.c ****         (UI_DspInterface.draw_line_h == NULL) &&
 881:Dsp/widget/wgt_core/UI_Controller.c ****         (UI_DspInterface.fill_rectangle == NULL))
 882:Dsp/widget/wgt_core/UI_Controller.c ****         return false;
 883:Dsp/widget/wgt_core/UI_Controller.c **** 
 884:Dsp/widget/wgt_core/UI_Controller.c ****     frame_CoordX = Obj->Gen_Data.x + strlen(Obj->Gen_Data.label) * STR_DIS + 5;
 885:Dsp/widget/wgt_core/UI_Controller.c **** 
 886:Dsp/widget/wgt_core/UI_Controller.c ****     switch (base_font)
 887:Dsp/widget/wgt_core/UI_Controller.c ****     {
 888:Dsp/widget/wgt_core/UI_Controller.c ****     case Font_8:
 889:Dsp/widget/wgt_core/UI_Controller.c ****         frame_Height = 5;
 890:Dsp/widget/wgt_core/UI_Controller.c ****         break;
 891:Dsp/widget/wgt_core/UI_Controller.c **** 
 892:Dsp/widget/wgt_core/UI_Controller.c ****     case Font_12:
 893:Dsp/widget/wgt_core/UI_Controller.c ****     case Font_16:
 894:Dsp/widget/wgt_core/UI_Controller.c ****     default:
 895:Dsp/widget/wgt_core/UI_Controller.c ****         return false;
 896:Dsp/widget/wgt_core/UI_Controller.c ****     }
 897:Dsp/widget/wgt_core/UI_Controller.c **** 
 898:Dsp/widget/wgt_core/UI_Controller.c ****     if (Obj->width / 2 == 0)
ARM GAS  /var/folders/lx/hc4sn_b53233_zkc9xbbl97r0000gp/T//cc46Bl7B.s 			page 62


 899:Dsp/widget/wgt_core/UI_Controller.c ****         frame_width = Obj->width - 1;
 900:Dsp/widget/wgt_core/UI_Controller.c **** 
 901:Dsp/widget/wgt_core/UI_Controller.c ****     UI_DspInterface.draw_str(base_font, Obj->Gen_Data.label, Obj->Gen_Data.x, Obj->Gen_Data.y, true
 902:Dsp/widget/wgt_core/UI_Controller.c ****     UI_DspInterface.draw_rectangle(frame_CoordX, Obj->Gen_Data.y, frame_width, frame_Height, DEFAUL
 903:Dsp/widget/wgt_core/UI_Controller.c **** 
 904:Dsp/widget/wgt_core/UI_Controller.c ****     if (Obj->Mv_Dir == UI_ProcBar_GrothFrom_Left)
 905:Dsp/widget/wgt_core/UI_Controller.c ****     {
 906:Dsp/widget/wgt_core/UI_Controller.c ****         block_start_CoordX = Obj->Gen_Data.x + 2;
 907:Dsp/widget/wgt_core/UI_Controller.c ****         block_start_CoordY = Obj->Gen_Data.y + 2;
 908:Dsp/widget/wgt_core/UI_Controller.c **** 
 909:Dsp/widget/wgt_core/UI_Controller.c ****         block_end_CoordX = (Obj->cur_val / (float)Obj->range) * (frame_width - 4);
 910:Dsp/widget/wgt_core/UI_Controller.c ****         block_end_CoordY = block_start_CoordY;
 911:Dsp/widget/wgt_core/UI_Controller.c ****     }
 912:Dsp/widget/wgt_core/UI_Controller.c ****     else if (Obj->Mv_Dir == UI_ProcBar_GrothFrom_Mid)
 913:Dsp/widget/wgt_core/UI_Controller.c ****     {
 914:Dsp/widget/wgt_core/UI_Controller.c ****         UI_DspInterface.draw_line_h(Obj->Gen_Data.x + frame_width / 2, Obj->Gen_Data.y, frame_Heigh
 915:Dsp/widget/wgt_core/UI_Controller.c ****         block_start_CoordY = Obj->Gen_Data.y + 2;
 916:Dsp/widget/wgt_core/UI_Controller.c **** 
 917:Dsp/widget/wgt_core/UI_Controller.c ****         if (Obj->cur_val < Obj->min + (Obj->range / 2))
 918:Dsp/widget/wgt_core/UI_Controller.c ****         {
 919:Dsp/widget/wgt_core/UI_Controller.c ****             block_start_CoordX = (Obj->cur_val / (float)Obj->range) * Obj->width;
 920:Dsp/widget/wgt_core/UI_Controller.c ****             block_end_CoordX = Obj->Gen_Data.x + frame_width / 2 - 1;
 921:Dsp/widget/wgt_core/UI_Controller.c ****         }
 922:Dsp/widget/wgt_core/UI_Controller.c ****         else if (Obj->cur_val > Obj->min + (Obj->range / 2))
 923:Dsp/widget/wgt_core/UI_Controller.c ****         {
 924:Dsp/widget/wgt_core/UI_Controller.c ****             block_start_CoordX = Obj->Gen_Data.x + frame_width / 2 + 1;
 925:Dsp/widget/wgt_core/UI_Controller.c ****             block_end_CoordX = (Obj->cur_val / (float)Obj->range) * Obj->width;
 926:Dsp/widget/wgt_core/UI_Controller.c ****         }
 927:Dsp/widget/wgt_core/UI_Controller.c **** 
 928:Dsp/widget/wgt_core/UI_Controller.c ****         UI_DspInterface.fill_rectangle(block_start_CoordX, block_start_CoordY, block_end_CoordX - b
 929:Dsp/widget/wgt_core/UI_Controller.c ****     }
 930:Dsp/widget/wgt_core/UI_Controller.c ****     else
 931:Dsp/widget/wgt_core/UI_Controller.c ****         return false;
 932:Dsp/widget/wgt_core/UI_Controller.c **** 
 933:Dsp/widget/wgt_core/UI_Controller.c ****     return true;
 934:Dsp/widget/wgt_core/UI_Controller.c **** }
 935:Dsp/widget/wgt_core/UI_Controller.c **** 
 936:Dsp/widget/wgt_core/UI_Controller.c **** static bool UI_ProcessBar_Ctl(UI_ProcessBarObj_TypeDef *Obj)
 937:Dsp/widget/wgt_core/UI_Controller.c **** {
 938:Dsp/widget/wgt_core/UI_Controller.c ****     char dig_str[3];
 939:Dsp/widget/wgt_core/UI_Controller.c ****     memset(dig_str, NULL, 3);
 940:Dsp/widget/wgt_core/UI_Controller.c **** 
 941:Dsp/widget/wgt_core/UI_Controller.c ****     if ((UI_DspInterface.draw_radius_rectangle == NULL) ||
 942:Dsp/widget/wgt_core/UI_Controller.c ****         (UI_DspInterface.draw_str == NULL))
 943:Dsp/widget/wgt_core/UI_Controller.c ****         return false;
 944:Dsp/widget/wgt_core/UI_Controller.c **** 
 945:Dsp/widget/wgt_core/UI_Controller.c ****     switch (Obj->Dsp_Type)
 946:Dsp/widget/wgt_core/UI_Controller.c ****     {
 947:Dsp/widget/wgt_core/UI_Controller.c ****     case UI_ProcBar_DspType_LoadBar:
 948:Dsp/widget/wgt_core/UI_Controller.c ****         return UI_ProcessBar_DspLoadBar(Obj);
 949:Dsp/widget/wgt_core/UI_Controller.c **** 
 950:Dsp/widget/wgt_core/UI_Controller.c ****     case UI_ProcBar_DspType_DotBar:
 951:Dsp/widget/wgt_core/UI_Controller.c ****         return UI_ProcessBar_DspDotBar(Obj);
 952:Dsp/widget/wgt_core/UI_Controller.c **** 
 953:Dsp/widget/wgt_core/UI_Controller.c ****     case UI_ProcBar_DspType_FrameBar:
 954:Dsp/widget/wgt_core/UI_Controller.c ****         return UI_ProcessBar_DspFrameBar(Obj);
 955:Dsp/widget/wgt_core/UI_Controller.c **** 
ARM GAS  /var/folders/lx/hc4sn_b53233_zkc9xbbl97r0000gp/T//cc46Bl7B.s 			page 63


 956:Dsp/widget/wgt_core/UI_Controller.c ****     default:
 957:Dsp/widget/wgt_core/UI_Controller.c ****         return false;
 958:Dsp/widget/wgt_core/UI_Controller.c ****     }
 959:Dsp/widget/wgt_core/UI_Controller.c **** }
 960:Dsp/widget/wgt_core/UI_Controller.c **** 
 961:Dsp/widget/wgt_core/UI_Controller.c **** static bool UI_Drop_Init(UI_DropObj_TypeDef *Obj, char *label, int16_t x, int16_t y)
 962:Dsp/widget/wgt_core/UI_Controller.c **** {
 2380              		.loc 1 962 1 is_stmt 1 view -0
 2381              		.cfi_startproc
 2382              		@ args = 0, pretend = 0, frame = 0
 2383              		@ frame_needed = 0, uses_anonymous_args = 0
 963:Dsp/widget/wgt_core/UI_Controller.c ****     if (Obj == NULL)
 2384              		.loc 1 963 5 view .LVU668
 2385              		.loc 1 963 8 is_stmt 0 view .LVU669
 2386 0000 80B1     		cbz	r0, .L213
 962:Dsp/widget/wgt_core/UI_Controller.c ****     if (Obj == NULL)
 2387              		.loc 1 962 1 view .LVU670
 2388 0002 10B5     		push	{r4, lr}
 2389              	.LCFI44:
 2390              		.cfi_def_cfa_offset 8
 2391              		.cfi_offset 4, -8
 2392              		.cfi_offset 14, -4
 2393 0004 0446     		mov	r4, r0
 964:Dsp/widget/wgt_core/UI_Controller.c ****         return false;
 965:Dsp/widget/wgt_core/UI_Controller.c **** 
 966:Dsp/widget/wgt_core/UI_Controller.c ****     UI_GenData_Init(&Obj->Gen_Data, label, x, y);
 2394              		.loc 1 966 5 is_stmt 1 view .LVU671
 2395 0006 FFF7FEFF 		bl	UI_GenData_Init
 2396              	.LVL203:
 967:Dsp/widget/wgt_core/UI_Controller.c **** 
 968:Dsp/widget/wgt_core/UI_Controller.c ****     Obj->CurDrop_Item = NULL;
 2397              		.loc 1 968 5 view .LVU672
 2398              		.loc 1 968 23 is_stmt 0 view .LVU673
 2399 000a 0023     		movs	r3, #0
 2400 000c 6374     		strb	r3, [r4, #17]
 2401 000e A374     		strb	r3, [r4, #18]
 2402 0010 E374     		strb	r3, [r4, #19]
 2403 0012 2375     		strb	r3, [r4, #20]
 969:Dsp/widget/wgt_core/UI_Controller.c ****     Obj->item_cnt = 0;
 2404              		.loc 1 969 5 is_stmt 1 view .LVU674
 2405              		.loc 1 969 19 is_stmt 0 view .LVU675
 2406 0014 2373     		strb	r3, [r4, #12]
 970:Dsp/widget/wgt_core/UI_Controller.c ****     Obj->DropList = NULL;
 2407              		.loc 1 970 5 is_stmt 1 view .LVU676
 2408              		.loc 1 970 19 is_stmt 0 view .LVU677
 2409 0016 6373     		strb	r3, [r4, #13]
 2410 0018 A373     		strb	r3, [r4, #14]
 2411 001a E373     		strb	r3, [r4, #15]
 2412 001c 2374     		strb	r3, [r4, #16]
 971:Dsp/widget/wgt_core/UI_Controller.c ****     Obj->is_selected = false;
 2413              		.loc 1 971 5 is_stmt 1 view .LVU678
 2414              		.loc 1 971 22 is_stmt 0 view .LVU679
 2415 001e 6375     		strb	r3, [r4, #21]
 972:Dsp/widget/wgt_core/UI_Controller.c **** 
 973:Dsp/widget/wgt_core/UI_Controller.c ****     return true;
 2416              		.loc 1 973 5 is_stmt 1 view .LVU680
 2417              		.loc 1 973 12 is_stmt 0 view .LVU681
ARM GAS  /var/folders/lx/hc4sn_b53233_zkc9xbbl97r0000gp/T//cc46Bl7B.s 			page 64


 2418 0020 0120     		movs	r0, #1
 974:Dsp/widget/wgt_core/UI_Controller.c **** }
 2419              		.loc 1 974 1 view .LVU682
 2420 0022 10BD     		pop	{r4, pc}
 2421              	.LVL204:
 2422              	.L213:
 2423              	.LCFI45:
 2424              		.cfi_def_cfa_offset 0
 2425              		.cfi_restore 4
 2426              		.cfi_restore 14
 964:Dsp/widget/wgt_core/UI_Controller.c **** 
 2427              		.loc 1 964 16 view .LVU683
 2428 0024 0020     		movs	r0, #0
 2429              	.LVL205:
 2430              		.loc 1 974 1 view .LVU684
 2431 0026 7047     		bx	lr
 2432              		.cfi_endproc
 2433              	.LFE38:
 2435              		.section	.text.UI_Drop_Move,"ax",%progbits
 2436              		.align	1
 2437              		.syntax unified
 2438              		.thumb
 2439              		.thumb_func
 2440              		.fpu fpv4-sp-d16
 2442              	UI_Drop_Move:
 2443              	.LVL206:
 2444              	.LFB39:
 975:Dsp/widget/wgt_core/UI_Controller.c **** 
 976:Dsp/widget/wgt_core/UI_Controller.c **** static bool UI_Drop_Move(UI_DropObj_TypeDef *Obj, int16_t x, int16_t y)
 977:Dsp/widget/wgt_core/UI_Controller.c **** {
 2445              		.loc 1 977 1 is_stmt 1 view -0
 2446              		.cfi_startproc
 2447              		@ args = 0, pretend = 0, frame = 0
 2448              		@ frame_needed = 0, uses_anonymous_args = 0
 978:Dsp/widget/wgt_core/UI_Controller.c ****     if (Obj == NULL)
 2449              		.loc 1 978 5 view .LVU686
 2450              		.loc 1 978 8 is_stmt 0 view .LVU687
 2451 0000 18B1     		cbz	r0, .L220
 977:Dsp/widget/wgt_core/UI_Controller.c ****     if (Obj == NULL)
 2452              		.loc 1 977 1 view .LVU688
 2453 0002 08B5     		push	{r3, lr}
 2454              	.LCFI46:
 2455              		.cfi_def_cfa_offset 8
 2456              		.cfi_offset 3, -8
 2457              		.cfi_offset 14, -4
 979:Dsp/widget/wgt_core/UI_Controller.c ****         return false;
 980:Dsp/widget/wgt_core/UI_Controller.c **** 
 981:Dsp/widget/wgt_core/UI_Controller.c ****     return UI_Move(&(Obj->Gen_Data), x, y);
 2458              		.loc 1 981 5 is_stmt 1 view .LVU689
 2459              		.loc 1 981 12 is_stmt 0 view .LVU690
 2460 0004 FFF7FEFF 		bl	UI_Move
 2461              	.LVL207:
 982:Dsp/widget/wgt_core/UI_Controller.c **** }
 2462              		.loc 1 982 1 view .LVU691
 2463 0008 08BD     		pop	{r3, pc}
 2464              	.LVL208:
 2465              	.L220:
ARM GAS  /var/folders/lx/hc4sn_b53233_zkc9xbbl97r0000gp/T//cc46Bl7B.s 			page 65


 2466              	.LCFI47:
 2467              		.cfi_def_cfa_offset 0
 2468              		.cfi_restore 3
 2469              		.cfi_restore 14
 979:Dsp/widget/wgt_core/UI_Controller.c ****         return false;
 2470              		.loc 1 979 16 view .LVU692
 2471 000a 0020     		movs	r0, #0
 2472              	.LVL209:
 2473              		.loc 1 982 1 view .LVU693
 2474 000c 7047     		bx	lr
 2475              		.cfi_endproc
 2476              	.LFE39:
 2478              		.section	.text.UI_Drop_SetSelect,"ax",%progbits
 2479              		.align	1
 2480              		.syntax unified
 2481              		.thumb
 2482              		.thumb_func
 2483              		.fpu fpv4-sp-d16
 2485              	UI_Drop_SetSelect:
 2486              	.LVL210:
 2487              	.LFB42:
 983:Dsp/widget/wgt_core/UI_Controller.c **** 
 984:Dsp/widget/wgt_core/UI_Controller.c **** static item_obj *UI_Drop_CreateDropItem(uint8_t id, char *item_desc, void *data, UI_Drop_Callback c
 985:Dsp/widget/wgt_core/UI_Controller.c **** {
 986:Dsp/widget/wgt_core/UI_Controller.c ****     item_obj *item_tmp = NULL;
 987:Dsp/widget/wgt_core/UI_Controller.c ****     UI_DropItemDataObj_TypeDef *itemdata_tmp = NULL;
 988:Dsp/widget/wgt_core/UI_Controller.c **** 
 989:Dsp/widget/wgt_core/UI_Controller.c ****     itemdata_tmp = (UI_DropItemDataObj_TypeDef *)MMU_malloc(sizeof(UI_DropItemDataObj_TypeDef));
 990:Dsp/widget/wgt_core/UI_Controller.c ****     item_tmp = (item_obj *)MMU_malloc(sizeof(item_obj));
 991:Dsp/widget/wgt_core/UI_Controller.c **** 
 992:Dsp/widget/wgt_core/UI_Controller.c ****     if ((item_tmp == NULL) || (itemdata_tmp == NULL))
 993:Dsp/widget/wgt_core/UI_Controller.c ****         return NULL;
 994:Dsp/widget/wgt_core/UI_Controller.c **** 
 995:Dsp/widget/wgt_core/UI_Controller.c ****     itemdata_tmp->callback = callback;
 996:Dsp/widget/wgt_core/UI_Controller.c ****     itemdata_tmp->data = data;
 997:Dsp/widget/wgt_core/UI_Controller.c ****     itemdata_tmp->describe = item_desc;
 998:Dsp/widget/wgt_core/UI_Controller.c ****     itemdata_tmp->id = id;
 999:Dsp/widget/wgt_core/UI_Controller.c **** 
1000:Dsp/widget/wgt_core/UI_Controller.c ****     List_ItemInit(item_tmp, itemdata_tmp);
1001:Dsp/widget/wgt_core/UI_Controller.c **** 
1002:Dsp/widget/wgt_core/UI_Controller.c ****     return item_tmp;
1003:Dsp/widget/wgt_core/UI_Controller.c **** }
1004:Dsp/widget/wgt_core/UI_Controller.c **** 
1005:Dsp/widget/wgt_core/UI_Controller.c **** static bool UI_Drop_AddDropItem(UI_DropObj_TypeDef *Obj, char *item_desc, void *data, UI_Drop_Callb
1006:Dsp/widget/wgt_core/UI_Controller.c **** {
1007:Dsp/widget/wgt_core/UI_Controller.c ****     item_obj *item_temp = NULL;
1008:Dsp/widget/wgt_core/UI_Controller.c **** 
1009:Dsp/widget/wgt_core/UI_Controller.c ****     if (Obj == NULL)
1010:Dsp/widget/wgt_core/UI_Controller.c ****         return false;
1011:Dsp/widget/wgt_core/UI_Controller.c **** 
1012:Dsp/widget/wgt_core/UI_Controller.c ****     item_temp = UI_Drop_CreateDropItem(Obj->item_cnt, item_desc, data, callback);
1013:Dsp/widget/wgt_core/UI_Controller.c **** 
1014:Dsp/widget/wgt_core/UI_Controller.c ****     if (item_temp == NULL)
1015:Dsp/widget/wgt_core/UI_Controller.c ****         return false;
1016:Dsp/widget/wgt_core/UI_Controller.c **** 
1017:Dsp/widget/wgt_core/UI_Controller.c ****     if (Obj->DropList == NULL)
1018:Dsp/widget/wgt_core/UI_Controller.c ****     {
ARM GAS  /var/folders/lx/hc4sn_b53233_zkc9xbbl97r0000gp/T//cc46Bl7B.s 			page 66


1019:Dsp/widget/wgt_core/UI_Controller.c ****         Obj->DropList = item_temp;
1020:Dsp/widget/wgt_core/UI_Controller.c ****         Obj->CurDrop_Item = Obj->DropList;
1021:Dsp/widget/wgt_core/UI_Controller.c ****         List_Init(Obj->DropList, item_temp, by_order, NULL);
1022:Dsp/widget/wgt_core/UI_Controller.c ****     }
1023:Dsp/widget/wgt_core/UI_Controller.c ****     else
1024:Dsp/widget/wgt_core/UI_Controller.c ****         List_Insert_Item(Obj->DropList, item_temp);
1025:Dsp/widget/wgt_core/UI_Controller.c **** 
1026:Dsp/widget/wgt_core/UI_Controller.c ****     Obj->item_cnt++;
1027:Dsp/widget/wgt_core/UI_Controller.c **** 
1028:Dsp/widget/wgt_core/UI_Controller.c ****     return true;
1029:Dsp/widget/wgt_core/UI_Controller.c **** }
1030:Dsp/widget/wgt_core/UI_Controller.c **** 
1031:Dsp/widget/wgt_core/UI_Controller.c **** static bool UI_Drop_SetSelect(UI_DropObj_TypeDef *Obj, bool state)
1032:Dsp/widget/wgt_core/UI_Controller.c **** {
 2488              		.loc 1 1032 1 is_stmt 1 view -0
 2489              		.cfi_startproc
 2490              		@ args = 0, pretend = 0, frame = 0
 2491              		@ frame_needed = 0, uses_anonymous_args = 0
1033:Dsp/widget/wgt_core/UI_Controller.c ****     if (Obj == NULL)
 2492              		.loc 1 1033 5 view .LVU695
 2493              		.loc 1 1033 8 is_stmt 0 view .LVU696
 2494 0000 70B1     		cbz	r0, .L227
1032:Dsp/widget/wgt_core/UI_Controller.c ****     if (Obj == NULL)
 2495              		.loc 1 1032 1 view .LVU697
 2496 0002 08B5     		push	{r3, lr}
 2497              	.LCFI48:
 2498              		.cfi_def_cfa_offset 8
 2499              		.cfi_offset 3, -8
 2500              		.cfi_offset 14, -4
1034:Dsp/widget/wgt_core/UI_Controller.c ****         return false;
1035:Dsp/widget/wgt_core/UI_Controller.c **** 
1036:Dsp/widget/wgt_core/UI_Controller.c ****     Obj->is_selected = state;
 2501              		.loc 1 1036 5 is_stmt 1 view .LVU698
 2502              		.loc 1 1036 22 is_stmt 0 view .LVU699
 2503 0004 4175     		strb	r1, [r0, #21]
1037:Dsp/widget/wgt_core/UI_Controller.c **** 
1038:Dsp/widget/wgt_core/UI_Controller.c ****     if (!state && (Obj->CurDrop_Item->data != NULL) && (((UI_DropItemDataObj_TypeDef *)Obj->CurDrop
 2504              		.loc 1 1038 5 is_stmt 1 view .LVU700
 2505              		.loc 1 1038 8 is_stmt 0 view .LVU701
 2506 0006 69B9     		cbnz	r1, .L228
 2507              		.loc 1 1038 23 discriminator 1 view .LVU702
 2508 0008 D0F81130 		ldr	r3, [r0, #17]	@ unaligned
 2509              		.loc 1 1038 37 discriminator 1 view .LVU703
 2510 000c 1B69     		ldr	r3, [r3, #16]
 2511              		.loc 1 1038 16 discriminator 1 view .LVU704
 2512 000e 5BB1     		cbz	r3, .L229
 2513              		.loc 1 1038 112 discriminator 2 view .LVU705
 2514 0010 D3F80920 		ldr	r2, [r3, #9]	@ unaligned
 2515              		.loc 1 1038 53 discriminator 2 view .LVU706
 2516 0014 52B1     		cbz	r2, .L230
1039:Dsp/widget/wgt_core/UI_Controller.c ****     {
1040:Dsp/widget/wgt_core/UI_Controller.c ****         /* trigger drop item callback */
1041:Dsp/widget/wgt_core/UI_Controller.c ****         ((UI_DropItemDataObj_TypeDef *)Obj->CurDrop_Item->data)->callback(((UI_DropItemDataObj_Type
 2517              		.loc 1 1041 9 is_stmt 1 view .LVU707
 2518              		.loc 1 1041 10 is_stmt 0 view .LVU708
 2519 0016 D3F80500 		ldr	r0, [r3, #5]	@ unaligned
 2520              	.LVL211:
ARM GAS  /var/folders/lx/hc4sn_b53233_zkc9xbbl97r0000gp/T//cc46Bl7B.s 			page 67


 2521              		.loc 1 1041 10 view .LVU709
 2522 001a 9047     		blx	r2
 2523              	.LVL212:
1042:Dsp/widget/wgt_core/UI_Controller.c ****     }
1043:Dsp/widget/wgt_core/UI_Controller.c **** 
1044:Dsp/widget/wgt_core/UI_Controller.c ****     return true;
 2524              		.loc 1 1044 12 view .LVU710
 2525 001c 0120     		movs	r0, #1
 2526 001e 02E0     		b	.L226
 2527              	.LVL213:
 2528              	.L227:
 2529              	.LCFI49:
 2530              		.cfi_def_cfa_offset 0
 2531              		.cfi_restore 3
 2532              		.cfi_restore 14
1034:Dsp/widget/wgt_core/UI_Controller.c **** 
 2533              		.loc 1 1034 16 view .LVU711
 2534 0020 0020     		movs	r0, #0
 2535              	.LVL214:
1045:Dsp/widget/wgt_core/UI_Controller.c **** }
 2536              		.loc 1 1045 1 view .LVU712
 2537 0022 7047     		bx	lr
 2538              	.LVL215:
 2539              	.L228:
 2540              	.LCFI50:
 2541              		.cfi_def_cfa_offset 8
 2542              		.cfi_offset 3, -8
 2543              		.cfi_offset 14, -4
1044:Dsp/widget/wgt_core/UI_Controller.c **** }
 2544              		.loc 1 1044 12 view .LVU713
 2545 0024 0846     		mov	r0, r1
 2546              	.LVL216:
 2547              	.L226:
 2548              		.loc 1 1045 1 view .LVU714
 2549 0026 08BD     		pop	{r3, pc}
 2550              	.LVL217:
 2551              	.L229:
1044:Dsp/widget/wgt_core/UI_Controller.c **** }
 2552              		.loc 1 1044 12 view .LVU715
 2553 0028 0120     		movs	r0, #1
 2554              	.LVL218:
1044:Dsp/widget/wgt_core/UI_Controller.c **** }
 2555              		.loc 1 1044 12 view .LVU716
 2556 002a FCE7     		b	.L226
 2557              	.LVL219:
 2558              	.L230:
1044:Dsp/widget/wgt_core/UI_Controller.c **** }
 2559              		.loc 1 1044 12 view .LVU717
 2560 002c 0120     		movs	r0, #1
 2561              	.LVL220:
1044:Dsp/widget/wgt_core/UI_Controller.c **** }
 2562              		.loc 1 1044 12 view .LVU718
 2563 002e FAE7     		b	.L226
 2564              		.cfi_endproc
 2565              	.LFE42:
 2567              		.section	.text.UI_Drop_GetSelect,"ax",%progbits
 2568              		.align	1
ARM GAS  /var/folders/lx/hc4sn_b53233_zkc9xbbl97r0000gp/T//cc46Bl7B.s 			page 68


 2569              		.syntax unified
 2570              		.thumb
 2571              		.thumb_func
 2572              		.fpu fpv4-sp-d16
 2574              	UI_Drop_GetSelect:
 2575              	.LVL221:
 2576              	.LFB43:
1046:Dsp/widget/wgt_core/UI_Controller.c **** 
1047:Dsp/widget/wgt_core/UI_Controller.c **** static bool UI_Drop_GetSelect(UI_DropObj_TypeDef *Obj)
1048:Dsp/widget/wgt_core/UI_Controller.c **** {
 2577              		.loc 1 1048 1 is_stmt 1 view -0
 2578              		.cfi_startproc
 2579              		@ args = 0, pretend = 0, frame = 0
 2580              		@ frame_needed = 0, uses_anonymous_args = 0
 2581              		@ link register save eliminated.
1049:Dsp/widget/wgt_core/UI_Controller.c ****     if (Obj == NULL)
 2582              		.loc 1 1049 5 view .LVU720
 2583              		.loc 1 1049 8 is_stmt 0 view .LVU721
 2584 0000 08B1     		cbz	r0, .L237
1050:Dsp/widget/wgt_core/UI_Controller.c ****         return false;
1051:Dsp/widget/wgt_core/UI_Controller.c **** 
1052:Dsp/widget/wgt_core/UI_Controller.c ****     return Obj->is_selected;
 2585              		.loc 1 1052 5 is_stmt 1 view .LVU722
 2586              		.loc 1 1052 15 is_stmt 0 view .LVU723
 2587 0002 407D     		ldrb	r0, [r0, #21]	@ zero_extendqisi2
 2588              	.LVL222:
 2589              		.loc 1 1052 15 view .LVU724
 2590 0004 7047     		bx	lr
 2591              	.LVL223:
 2592              	.L237:
1050:Dsp/widget/wgt_core/UI_Controller.c ****         return false;
 2593              		.loc 1 1050 16 view .LVU725
 2594 0006 0020     		movs	r0, #0
 2595              	.LVL224:
1053:Dsp/widget/wgt_core/UI_Controller.c **** }
 2596              		.loc 1 1053 1 view .LVU726
 2597 0008 7047     		bx	lr
 2598              		.cfi_endproc
 2599              	.LFE43:
 2601              		.section	.text.UI_Drop_SelectItem,"ax",%progbits
 2602              		.align	1
 2603              		.syntax unified
 2604              		.thumb
 2605              		.thumb_func
 2606              		.fpu fpv4-sp-d16
 2608              	UI_Drop_SelectItem:
 2609              	.LVL225:
 2610              	.LFB44:
1054:Dsp/widget/wgt_core/UI_Controller.c **** 
1055:Dsp/widget/wgt_core/UI_Controller.c **** static bool UI_Drop_SelectItem(UI_DropObj_TypeDef *Obj, int8_t *offset)
1056:Dsp/widget/wgt_core/UI_Controller.c **** {
 2611              		.loc 1 1056 1 is_stmt 1 view -0
 2612              		.cfi_startproc
 2613              		@ args = 0, pretend = 0, frame = 0
 2614              		@ frame_needed = 0, uses_anonymous_args = 0
 2615              		@ link register save eliminated.
1057:Dsp/widget/wgt_core/UI_Controller.c ****     item_obj *tmp = NULL;
ARM GAS  /var/folders/lx/hc4sn_b53233_zkc9xbbl97r0000gp/T//cc46Bl7B.s 			page 69


 2616              		.loc 1 1057 5 view .LVU728
1058:Dsp/widget/wgt_core/UI_Controller.c **** 
1059:Dsp/widget/wgt_core/UI_Controller.c ****     if ((Obj == NULL) || (offset > Obj->item_cnt) || (Obj->CurDrop_Item == NULL))
 2617              		.loc 1 1059 5 view .LVU729
 2618              		.loc 1 1059 8 is_stmt 0 view .LVU730
 2619 0000 8446     		mov	ip, r0
 2620 0002 C8B1     		cbz	r0, .L244
 2621              		.loc 1 1059 39 discriminator 1 view .LVU731
 2622 0004 037B     		ldrb	r3, [r0, #12]	@ zero_extendqisi2
 2623              		.loc 1 1059 23 discriminator 1 view .LVU732
 2624 0006 8B42     		cmp	r3, r1
 2625 0008 18D3     		bcc	.L245
 2626              		.loc 1 1059 58 discriminator 2 view .LVU733
 2627 000a D0F81120 		ldr	r2, [r0, #17]	@ unaligned
 2628              		.loc 1 1059 51 discriminator 2 view .LVU734
 2629 000e 1AB9     		cbnz	r2, .L240
1060:Dsp/widget/wgt_core/UI_Controller.c ****         return false;
 2630              		.loc 1 1060 16 view .LVU735
 2631 0010 0020     		movs	r0, #0
 2632              	.LVL226:
 2633              		.loc 1 1060 16 view .LVU736
 2634 0012 7047     		bx	lr
 2635              	.LVL227:
 2636              	.L241:
1061:Dsp/widget/wgt_core/UI_Controller.c **** 
1062:Dsp/widget/wgt_core/UI_Controller.c ****     tmp = Obj->CurDrop_Item;
1063:Dsp/widget/wgt_core/UI_Controller.c **** 
1064:Dsp/widget/wgt_core/UI_Controller.c ****     while (*offset)
1065:Dsp/widget/wgt_core/UI_Controller.c ****     {
1066:Dsp/widget/wgt_core/UI_Controller.c ****         if (tmp == NULL)
1067:Dsp/widget/wgt_core/UI_Controller.c ****             return false;
1068:Dsp/widget/wgt_core/UI_Controller.c **** 
1069:Dsp/widget/wgt_core/UI_Controller.c ****         if (*offset > 0)
1070:Dsp/widget/wgt_core/UI_Controller.c ****         {
1071:Dsp/widget/wgt_core/UI_Controller.c ****             tmp = tmp->nxt;
1072:Dsp/widget/wgt_core/UI_Controller.c ****             *offset--;
1073:Dsp/widget/wgt_core/UI_Controller.c ****         }
1074:Dsp/widget/wgt_core/UI_Controller.c ****         else if (*offset < 0)
 2637              		.loc 1 1074 14 is_stmt 1 view .LVU737
 2638              		.loc 1 1074 17 is_stmt 0 view .LVU738
 2639 0014 002B     		cmp	r3, #0
 2640 0016 08DB     		blt	.L248
 2641              	.LVL228:
 2642              	.L240:
1064:Dsp/widget/wgt_core/UI_Controller.c ****     {
 2643              		.loc 1 1064 11 is_stmt 1 view .LVU739
1064:Dsp/widget/wgt_core/UI_Controller.c ****     {
 2644              		.loc 1 1064 12 is_stmt 0 view .LVU740
 2645 0018 91F90030 		ldrsb	r3, [r1]
1064:Dsp/widget/wgt_core/UI_Controller.c ****     {
 2646              		.loc 1 1064 11 view .LVU741
 2647 001c 43B1     		cbz	r3, .L249
1066:Dsp/widget/wgt_core/UI_Controller.c ****             return false;
 2648              		.loc 1 1066 9 is_stmt 1 view .LVU742
1066:Dsp/widget/wgt_core/UI_Controller.c ****             return false;
 2649              		.loc 1 1066 12 is_stmt 0 view .LVU743
 2650 001e 7AB1     		cbz	r2, .L247
ARM GAS  /var/folders/lx/hc4sn_b53233_zkc9xbbl97r0000gp/T//cc46Bl7B.s 			page 70


1069:Dsp/widget/wgt_core/UI_Controller.c ****         {
 2651              		.loc 1 1069 9 is_stmt 1 view .LVU744
1069:Dsp/widget/wgt_core/UI_Controller.c ****         {
 2652              		.loc 1 1069 12 is_stmt 0 view .LVU745
 2653 0020 002B     		cmp	r3, #0
 2654 0022 F7DD     		ble	.L241
1071:Dsp/widget/wgt_core/UI_Controller.c ****             *offset--;
 2655              		.loc 1 1071 13 is_stmt 1 view .LVU746
1071:Dsp/widget/wgt_core/UI_Controller.c ****             *offset--;
 2656              		.loc 1 1071 17 is_stmt 0 view .LVU747
 2657 0024 D268     		ldr	r2, [r2, #12]
 2658              	.LVL229:
1072:Dsp/widget/wgt_core/UI_Controller.c ****         }
 2659              		.loc 1 1072 13 is_stmt 1 view .LVU748
1072:Dsp/widget/wgt_core/UI_Controller.c ****         }
 2660              		.loc 1 1072 20 is_stmt 0 view .LVU749
 2661 0026 0139     		subs	r1, r1, #1
 2662              	.LVL230:
1072:Dsp/widget/wgt_core/UI_Controller.c ****         }
 2663              		.loc 1 1072 20 view .LVU750
 2664 0028 F6E7     		b	.L240
 2665              	.L248:
1075:Dsp/widget/wgt_core/UI_Controller.c ****         {
1076:Dsp/widget/wgt_core/UI_Controller.c ****             tmp = tmp->prv;
 2666              		.loc 1 1076 13 is_stmt 1 view .LVU751
 2667              		.loc 1 1076 17 is_stmt 0 view .LVU752
 2668 002a 9268     		ldr	r2, [r2, #8]
 2669              	.LVL231:
1077:Dsp/widget/wgt_core/UI_Controller.c ****             *offset++;
 2670              		.loc 1 1077 13 is_stmt 1 view .LVU753
 2671              		.loc 1 1077 20 is_stmt 0 view .LVU754
 2672 002c 0131     		adds	r1, r1, #1
 2673              	.LVL232:
 2674              		.loc 1 1077 20 view .LVU755
 2675 002e F3E7     		b	.L240
 2676              	.L249:
1078:Dsp/widget/wgt_core/UI_Controller.c ****         }
1079:Dsp/widget/wgt_core/UI_Controller.c ****     }
1080:Dsp/widget/wgt_core/UI_Controller.c **** 
1081:Dsp/widget/wgt_core/UI_Controller.c ****     Obj->CurDrop_Item = tmp;
 2677              		.loc 1 1081 5 is_stmt 1 view .LVU756
 2678              		.loc 1 1081 23 is_stmt 0 view .LVU757
 2679 0030 CCF81120 		str	r2, [ip, #17]	@ unaligned
1082:Dsp/widget/wgt_core/UI_Controller.c **** 
1083:Dsp/widget/wgt_core/UI_Controller.c ****     return true;
 2680              		.loc 1 1083 5 is_stmt 1 view .LVU758
 2681              		.loc 1 1083 12 is_stmt 0 view .LVU759
 2682 0034 0120     		movs	r0, #1
 2683              	.LVL233:
 2684              		.loc 1 1083 12 view .LVU760
 2685 0036 7047     		bx	lr
 2686              	.LVL234:
 2687              	.L244:
1060:Dsp/widget/wgt_core/UI_Controller.c **** 
 2688              		.loc 1 1060 16 view .LVU761
 2689 0038 0020     		movs	r0, #0
 2690              	.LVL235:
ARM GAS  /var/folders/lx/hc4sn_b53233_zkc9xbbl97r0000gp/T//cc46Bl7B.s 			page 71


1060:Dsp/widget/wgt_core/UI_Controller.c **** 
 2691              		.loc 1 1060 16 view .LVU762
 2692 003a 7047     		bx	lr
 2693              	.LVL236:
 2694              	.L245:
1060:Dsp/widget/wgt_core/UI_Controller.c **** 
 2695              		.loc 1 1060 16 view .LVU763
 2696 003c 0020     		movs	r0, #0
 2697              	.LVL237:
1060:Dsp/widget/wgt_core/UI_Controller.c **** 
 2698              		.loc 1 1060 16 view .LVU764
 2699 003e 7047     		bx	lr
 2700              	.LVL238:
 2701              	.L247:
1067:Dsp/widget/wgt_core/UI_Controller.c **** 
 2702              		.loc 1 1067 20 view .LVU765
 2703 0040 0020     		movs	r0, #0
 2704              	.LVL239:
1084:Dsp/widget/wgt_core/UI_Controller.c **** }
 2705              		.loc 1 1084 1 view .LVU766
 2706 0042 7047     		bx	lr
 2707              		.cfi_endproc
 2708              	.LFE44:
 2710              		.section	.text.UI_Drop_Ctl,"ax",%progbits
 2711              		.align	1
 2712              		.syntax unified
 2713              		.thumb
 2714              		.thumb_func
 2715              		.fpu fpv4-sp-d16
 2717              	UI_Drop_Ctl:
 2718              	.LVL240:
 2719              	.LFB45:
1085:Dsp/widget/wgt_core/UI_Controller.c **** 
1086:Dsp/widget/wgt_core/UI_Controller.c **** static bool UI_Drop_Ctl(UI_DropObj_TypeDef *Obj)
1087:Dsp/widget/wgt_core/UI_Controller.c **** {
 2720              		.loc 1 1087 1 is_stmt 1 view -0
 2721              		.cfi_startproc
 2722              		@ args = 0, pretend = 0, frame = 0
 2723              		@ frame_needed = 0, uses_anonymous_args = 0
 2724              		.loc 1 1087 1 is_stmt 0 view .LVU768
 2725 0000 2DE9F047 		push	{r4, r5, r6, r7, r8, r9, r10, lr}
 2726              	.LCFI51:
 2727              		.cfi_def_cfa_offset 32
 2728              		.cfi_offset 4, -32
 2729              		.cfi_offset 5, -28
 2730              		.cfi_offset 6, -24
 2731              		.cfi_offset 7, -20
 2732              		.cfi_offset 8, -16
 2733              		.cfi_offset 9, -12
 2734              		.cfi_offset 10, -8
 2735              		.cfi_offset 14, -4
 2736 0004 82B0     		sub	sp, sp, #8
 2737              	.LCFI52:
 2738              		.cfi_def_cfa_offset 40
1088:Dsp/widget/wgt_core/UI_Controller.c ****     int16_t str_x = 0;
 2739              		.loc 1 1088 5 is_stmt 1 view .LVU769
 2740              	.LVL241:
ARM GAS  /var/folders/lx/hc4sn_b53233_zkc9xbbl97r0000gp/T//cc46Bl7B.s 			page 72


1089:Dsp/widget/wgt_core/UI_Controller.c ****     int16_t str_y = 0;
 2741              		.loc 1 1089 5 view .LVU770
1090:Dsp/widget/wgt_core/UI_Controller.c ****     int16_t dropitem_x = 0;
 2742              		.loc 1 1090 5 view .LVU771
1091:Dsp/widget/wgt_core/UI_Controller.c ****     int16_t dropitem_y = 0;
 2743              		.loc 1 1091 5 view .LVU772
1092:Dsp/widget/wgt_core/UI_Controller.c **** 
1093:Dsp/widget/wgt_core/UI_Controller.c ****     if ((Obj == NULL) &&
 2744              		.loc 1 1093 5 view .LVU773
 2745              		.loc 1 1093 8 is_stmt 0 view .LVU774
 2746 0006 0546     		mov	r5, r0
 2747 0008 0028     		cmp	r0, #0
 2748 000a 37D0     		beq	.L256
 2749              	.L251:
1094:Dsp/widget/wgt_core/UI_Controller.c ****         (UI_DspInterface.draw_str == NULL) &&
1095:Dsp/widget/wgt_core/UI_Controller.c ****         (UI_DspInterface.draw_dig == NULL))
1096:Dsp/widget/wgt_core/UI_Controller.c ****         return false;
1097:Dsp/widget/wgt_core/UI_Controller.c **** 
1098:Dsp/widget/wgt_core/UI_Controller.c ****     str_x = Obj->Gen_Data.x + 3;
 2750              		.loc 1 1098 5 is_stmt 1 view .LVU775
 2751              		.loc 1 1098 26 is_stmt 0 view .LVU776
 2752 000c AA88     		ldrh	r2, [r5, #4]	@ unaligned
 2753              		.loc 1 1098 29 view .LVU777
 2754 000e 0332     		adds	r2, r2, #3
 2755              		.loc 1 1098 11 view .LVU778
 2756 0010 12B2     		sxth	r2, r2
 2757              	.LVL242:
1099:Dsp/widget/wgt_core/UI_Controller.c ****     str_y = Obj->Gen_Data.y;
 2758              		.loc 1 1099 5 is_stmt 1 view .LVU779
 2759              		.loc 1 1099 11 is_stmt 0 view .LVU780
 2760 0012 B5F90630 		ldrsh	r3, [r5, #6]	@ unaligned
 2761 0016 9846     		mov	r8, r3
 2762              	.LVL243:
1100:Dsp/widget/wgt_core/UI_Controller.c **** 
1101:Dsp/widget/wgt_core/UI_Controller.c ****     if (base_font == Font_8)
 2763              		.loc 1 1101 5 is_stmt 1 view .LVU781
 2764              		.loc 1 1101 19 is_stmt 0 view .LVU782
 2765 0018 1F49     		ldr	r1, .L258
 2766 001a 0878     		ldrb	r0, [r1]	@ zero_extendqisi2
 2767              	.LVL244:
 2768              		.loc 1 1101 8 view .LVU783
 2769 001c 0828     		cmp	r0, #8
 2770 001e 37D0     		beq	.L257
 2771              	.LVL245:
 2772              	.L253:
1102:Dsp/widget/wgt_core/UI_Controller.c ****         str_y += 1;
1103:Dsp/widget/wgt_core/UI_Controller.c **** 
1104:Dsp/widget/wgt_core/UI_Controller.c ****     /* show label */
1105:Dsp/widget/wgt_core/UI_Controller.c ****     UI_DspInterface.draw_str(base_font, Obj->Gen_Data.label, str_x, str_y, true);
 2773              		.loc 1 1105 5 is_stmt 1 view .LVU784
 2774              		.loc 1 1105 20 is_stmt 0 view .LVU785
 2775 0020 1E4F     		ldr	r7, .L258+4
 2776 0022 3E68     		ldr	r6, [r7]
 2777              		.loc 1 1105 5 view .LVU786
 2778 0024 0124     		movs	r4, #1
 2779 0026 0094     		str	r4, [sp]
 2780 0028 4346     		mov	r3, r8
ARM GAS  /var/folders/lx/hc4sn_b53233_zkc9xbbl97r0000gp/T//cc46Bl7B.s 			page 73


 2781 002a 2968     		ldr	r1, [r5]	@ unaligned
 2782 002c B047     		blx	r6
 2783              	.LVL246:
1106:Dsp/widget/wgt_core/UI_Controller.c **** 
1107:Dsp/widget/wgt_core/UI_Controller.c ****     dropitem_y = str_y + base_font;
 2784              		.loc 1 1107 5 is_stmt 1 view .LVU787
 2785              		.loc 1 1107 24 is_stmt 0 view .LVU788
 2786 002e DFF86890 		ldr	r9, .L258
 2787 0032 99F80000 		ldrb	r0, [r9]	@ zero_extendqisi2
 2788 0036 8044     		add	r8, r8, r0
 2789              	.LVL247:
 2790              		.loc 1 1107 16 view .LVU789
 2791 0038 0FFA88F8 		sxth	r8, r8
 2792              	.LVL248:
1108:Dsp/widget/wgt_core/UI_Controller.c ****     dropitem_x = Obj->Gen_Data.x + base_font;
 2793              		.loc 1 1108 5 is_stmt 1 view .LVU790
 2794              		.loc 1 1108 31 is_stmt 0 view .LVU791
 2795 003c AA88     		ldrh	r2, [r5, #4]	@ unaligned
 2796              		.loc 1 1108 34 view .LVU792
 2797 003e 0244     		add	r2, r2, r0
 2798 0040 1FFA82FA 		uxth	r10, r2
 2799              	.LVL249:
1109:Dsp/widget/wgt_core/UI_Controller.c **** 
1110:Dsp/widget/wgt_core/UI_Controller.c ****     /* show drop item id */
1111:Dsp/widget/wgt_core/UI_Controller.c ****     UI_DspInterface.draw_dig(base_font, ((UI_DropItemDataObj_TypeDef *)(Obj->CurDrop_Item->data))->
 2800              		.loc 1 1111 5 is_stmt 1 view .LVU793
 2801              		.loc 1 1111 76 is_stmt 0 view .LVU794
 2802 0044 D5F81130 		ldr	r3, [r5, #17]	@ unaligned
 2803              		.loc 1 1111 90 view .LVU795
 2804 0048 1B69     		ldr	r3, [r3, #16]
 2805              		.loc 1 1111 5 view .LVU796
 2806 004a 1978     		ldrb	r1, [r3]	@ zero_extendqisi2
 2807 004c 0094     		str	r4, [sp]
 2808 004e 4346     		mov	r3, r8
 2809 0050 12B2     		sxth	r2, r2
 2810              		.loc 1 1111 5 view .LVU797
 2811 0052 7E68     		ldr	r6, [r7, #4]
 2812 0054 B047     		blx	r6
 2813              	.LVL250:
1112:Dsp/widget/wgt_core/UI_Controller.c **** 
1113:Dsp/widget/wgt_core/UI_Controller.c ****     /* show drop item label */
1114:Dsp/widget/wgt_core/UI_Controller.c ****     dropitem_x += base_font + 2;
 2814              		.loc 1 1114 5 is_stmt 1 view .LVU798
 2815              		.loc 1 1114 16 is_stmt 0 view .LVU799
 2816 0056 99F80000 		ldrb	r0, [r9]	@ zero_extendqisi2
 2817 005a 0AEB0002 		add	r2, r10, r0
 2818 005e 0232     		adds	r2, r2, #2
 2819              	.LVL251:
1115:Dsp/widget/wgt_core/UI_Controller.c ****     UI_DspInterface.draw_str(base_font, ((UI_DropItemDataObj_TypeDef *)(Obj->CurDrop_Item->data))->
 2820              		.loc 1 1115 5 is_stmt 1 view .LVU800
 2821              		.loc 1 1115 20 is_stmt 0 view .LVU801
 2822 0060 3E68     		ldr	r6, [r7]
 2823              		.loc 1 1115 76 view .LVU802
 2824 0062 D5F81130 		ldr	r3, [r5, #17]	@ unaligned
 2825              		.loc 1 1115 90 view .LVU803
 2826 0066 1B69     		ldr	r3, [r3, #16]
 2827              		.loc 1 1115 5 view .LVU804
ARM GAS  /var/folders/lx/hc4sn_b53233_zkc9xbbl97r0000gp/T//cc46Bl7B.s 			page 74


 2828 0068 D3F80110 		ldr	r1, [r3, #1]	@ unaligned
 2829 006c 0094     		str	r4, [sp]
 2830 006e 4346     		mov	r3, r8
 2831 0070 12B2     		sxth	r2, r2
 2832              		.loc 1 1115 5 view .LVU805
 2833 0072 B047     		blx	r6
 2834              	.LVL252:
1116:Dsp/widget/wgt_core/UI_Controller.c **** 
1117:Dsp/widget/wgt_core/UI_Controller.c ****     return true;
 2835              		.loc 1 1117 5 is_stmt 1 view .LVU806
 2836              		.loc 1 1117 12 is_stmt 0 view .LVU807
 2837 0074 2046     		mov	r0, r4
 2838              	.LVL253:
 2839              	.L252:
1118:Dsp/widget/wgt_core/UI_Controller.c **** }
 2840              		.loc 1 1118 1 view .LVU808
 2841 0076 02B0     		add	sp, sp, #8
 2842              	.LCFI53:
 2843              		.cfi_remember_state
 2844              		.cfi_def_cfa_offset 32
 2845              		@ sp needed
 2846 0078 BDE8F087 		pop	{r4, r5, r6, r7, r8, r9, r10, pc}
 2847              	.LVL254:
 2848              	.L256:
 2849              	.LCFI54:
 2850              		.cfi_restore_state
1094:Dsp/widget/wgt_core/UI_Controller.c ****         (UI_DspInterface.draw_dig == NULL))
 2851              		.loc 1 1094 25 discriminator 1 view .LVU809
 2852 007c 074B     		ldr	r3, .L258+4
 2853 007e 1B68     		ldr	r3, [r3]
1093:Dsp/widget/wgt_core/UI_Controller.c ****         (UI_DspInterface.draw_str == NULL) &&
 2854              		.loc 1 1093 23 discriminator 1 view .LVU810
 2855 0080 002B     		cmp	r3, #0
 2856 0082 C3D1     		bne	.L251
1095:Dsp/widget/wgt_core/UI_Controller.c ****         return false;
 2857              		.loc 1 1095 25 view .LVU811
 2858 0084 054B     		ldr	r3, .L258+4
 2859 0086 5B68     		ldr	r3, [r3, #4]
1094:Dsp/widget/wgt_core/UI_Controller.c ****         (UI_DspInterface.draw_dig == NULL))
 2860              		.loc 1 1094 44 view .LVU812
 2861 0088 002B     		cmp	r3, #0
 2862 008a BFD1     		bne	.L251
1096:Dsp/widget/wgt_core/UI_Controller.c **** 
 2863              		.loc 1 1096 16 view .LVU813
 2864 008c 0020     		movs	r0, #0
 2865              	.LVL255:
1096:Dsp/widget/wgt_core/UI_Controller.c **** 
 2866              		.loc 1 1096 16 view .LVU814
 2867 008e F2E7     		b	.L252
 2868              	.LVL256:
 2869              	.L257:
1102:Dsp/widget/wgt_core/UI_Controller.c **** 
 2870              		.loc 1 1102 9 is_stmt 1 view .LVU815
1102:Dsp/widget/wgt_core/UI_Controller.c **** 
 2871              		.loc 1 1102 15 is_stmt 0 view .LVU816
 2872 0090 0133     		adds	r3, r3, #1
 2873              	.LVL257:
ARM GAS  /var/folders/lx/hc4sn_b53233_zkc9xbbl97r0000gp/T//cc46Bl7B.s 			page 75


1102:Dsp/widget/wgt_core/UI_Controller.c **** 
 2874              		.loc 1 1102 15 view .LVU817
 2875 0092 0FFA83F8 		sxth	r8, r3
 2876              	.LVL258:
1102:Dsp/widget/wgt_core/UI_Controller.c **** 
 2877              		.loc 1 1102 15 view .LVU818
 2878 0096 C3E7     		b	.L253
 2879              	.L259:
 2880              		.align	2
 2881              	.L258:
 2882 0098 00000000 		.word	.LANCHOR2
 2883 009c 00000000 		.word	.LANCHOR0
 2884              		.cfi_endproc
 2885              	.LFE45:
 2887              		.section	.text.UI_CheckBox_Ctl,"ax",%progbits
 2888              		.align	1
 2889              		.syntax unified
 2890              		.thumb
 2891              		.thumb_func
 2892              		.fpu fpv4-sp-d16
 2894              	UI_CheckBox_Ctl:
 2895              	.LVL259:
 2896              	.LFB21:
 534:Dsp/widget/wgt_core/UI_Controller.c ****     int16_t frame_x = 0;
 2897              		.loc 1 534 1 is_stmt 1 view -0
 2898              		.cfi_startproc
 2899              		@ args = 0, pretend = 0, frame = 0
 2900              		@ frame_needed = 0, uses_anonymous_args = 0
 534:Dsp/widget/wgt_core/UI_Controller.c ****     int16_t frame_x = 0;
 2901              		.loc 1 534 1 is_stmt 0 view .LVU820
 2902 0000 2DE9F04F 		push	{r4, r5, r6, r7, r8, r9, r10, fp, lr}
 2903              	.LCFI55:
 2904              		.cfi_def_cfa_offset 36
 2905              		.cfi_offset 4, -36
 2906              		.cfi_offset 5, -32
 2907              		.cfi_offset 6, -28
 2908              		.cfi_offset 7, -24
 2909              		.cfi_offset 8, -20
 2910              		.cfi_offset 9, -16
 2911              		.cfi_offset 10, -12
 2912              		.cfi_offset 11, -8
 2913              		.cfi_offset 14, -4
 2914 0004 83B0     		sub	sp, sp, #12
 2915              	.LCFI56:
 2916              		.cfi_def_cfa_offset 48
 535:Dsp/widget/wgt_core/UI_Controller.c ****     int16_t frame_y = 0;
 2917              		.loc 1 535 5 is_stmt 1 view .LVU821
 2918              	.LVL260:
 536:Dsp/widget/wgt_core/UI_Controller.c ****     int16_t str_x = 0;
 2919              		.loc 1 536 5 view .LVU822
 537:Dsp/widget/wgt_core/UI_Controller.c ****     int16_t str_y = 0;
 2920              		.loc 1 537 5 view .LVU823
 538:Dsp/widget/wgt_core/UI_Controller.c **** 
 2921              		.loc 1 538 5 view .LVU824
 540:Dsp/widget/wgt_core/UI_Controller.c ****         (UI_DspInterface.draw_str == NULL) ||
 2922              		.loc 1 540 5 view .LVU825
 540:Dsp/widget/wgt_core/UI_Controller.c ****         (UI_DspInterface.draw_str == NULL) ||
ARM GAS  /var/folders/lx/hc4sn_b53233_zkc9xbbl97r0000gp/T//cc46Bl7B.s 			page 76


 2923              		.loc 1 540 8 is_stmt 0 view .LVU826
 2924 0006 0028     		cmp	r0, #0
 2925 0008 49D0     		beq	.L263
 2926 000a 0646     		mov	r6, r0
 541:Dsp/widget/wgt_core/UI_Controller.c ****         (UI_DspInterface.fill_rectangle == NULL) ||
 2927              		.loc 1 541 25 discriminator 1 view .LVU827
 2928 000c 2A4B     		ldr	r3, .L270
 2929 000e 1F68     		ldr	r7, [r3]
 540:Dsp/widget/wgt_core/UI_Controller.c ****         (UI_DspInterface.draw_str == NULL) ||
 2930              		.loc 1 540 23 discriminator 1 view .LVU828
 2931 0010 002F     		cmp	r7, #0
 2932 0012 46D0     		beq	.L264
 542:Dsp/widget/wgt_core/UI_Controller.c ****         (UI_DspInterface.draw_rectangle == NULL))
 2933              		.loc 1 542 25 view .LVU829
 2934 0014 5B6A     		ldr	r3, [r3, #36]
 541:Dsp/widget/wgt_core/UI_Controller.c ****         (UI_DspInterface.fill_rectangle == NULL) ||
 2935              		.loc 1 541 44 view .LVU830
 2936 0016 002B     		cmp	r3, #0
 2937 0018 45D0     		beq	.L265
 543:Dsp/widget/wgt_core/UI_Controller.c ****         return false;
 2938              		.loc 1 543 25 view .LVU831
 2939 001a 274B     		ldr	r3, .L270
 2940 001c 9B69     		ldr	r3, [r3, #24]
 542:Dsp/widget/wgt_core/UI_Controller.c ****         (UI_DspInterface.draw_rectangle == NULL))
 2941              		.loc 1 542 50 view .LVU832
 2942 001e 002B     		cmp	r3, #0
 2943 0020 43D0     		beq	.L266
 546:Dsp/widget/wgt_core/UI_Controller.c ****     frame_y = Obj->Gen_Data.y + 3;
 2944              		.loc 1 546 5 is_stmt 1 view .LVU833
 546:Dsp/widget/wgt_core/UI_Controller.c ****     frame_y = Obj->Gen_Data.y + 3;
 2945              		.loc 1 546 35 is_stmt 0 view .LVU834
 2946 0022 D0F80080 		ldr	r8, [r0]	@ unaligned
 546:Dsp/widget/wgt_core/UI_Controller.c ****     frame_y = Obj->Gen_Data.y + 3;
 2947              		.loc 1 546 15 view .LVU835
 2948 0026 4046     		mov	r0, r8
 2949              	.LVL261:
 546:Dsp/widget/wgt_core/UI_Controller.c ****     frame_y = Obj->Gen_Data.y + 3;
 2950              		.loc 1 546 15 view .LVU836
 2951 0028 FFF7FEFF 		bl	strlen
 2952              	.LVL262:
 546:Dsp/widget/wgt_core/UI_Controller.c ****     frame_y = Obj->Gen_Data.y + 3;
 2953              		.loc 1 546 13 view .LVU837
 2954 002c 00EB4000 		add	r0, r0, r0, lsl #1
 2955 0030 4400     		lsls	r4, r0, #1
 2956 0032 A4B2     		uxth	r4, r4
 2957              	.LVL263:
 547:Dsp/widget/wgt_core/UI_Controller.c ****     frame_x += DEFAULT_CHECKBOX_OFFSET;
 2958              		.loc 1 547 5 is_stmt 1 view .LVU838
 547:Dsp/widget/wgt_core/UI_Controller.c ****     frame_x += DEFAULT_CHECKBOX_OFFSET;
 2959              		.loc 1 547 28 is_stmt 0 view .LVU839
 2960 0034 B6F90650 		ldrsh	r5, [r6, #6]	@ unaligned
 2961 0038 2BB2     		sxth	r3, r5
 2962 003a ADB2     		uxth	r5, r5
 547:Dsp/widget/wgt_core/UI_Controller.c ****     frame_x += DEFAULT_CHECKBOX_OFFSET;
 2963              		.loc 1 547 31 view .LVU840
 2964 003c 05F1030A 		add	r10, r5, #3
 547:Dsp/widget/wgt_core/UI_Controller.c ****     frame_x += DEFAULT_CHECKBOX_OFFSET;
ARM GAS  /var/folders/lx/hc4sn_b53233_zkc9xbbl97r0000gp/T//cc46Bl7B.s 			page 77


 2965              		.loc 1 547 13 view .LVU841
 2966 0040 0FFA8AFA 		sxth	r10, r10
 2967              	.LVL264:
 548:Dsp/widget/wgt_core/UI_Controller.c **** 
 2968              		.loc 1 548 5 is_stmt 1 view .LVU842
 548:Dsp/widget/wgt_core/UI_Controller.c **** 
 2969              		.loc 1 548 13 is_stmt 0 view .LVU843
 2970 0044 04F10509 		add	r9, r4, #5
 2971 0048 0FFA89F9 		sxth	r9, r9
 2972              	.LVL265:
 550:Dsp/widget/wgt_core/UI_Controller.c ****     str_y = Obj->Gen_Data.y;
 2973              		.loc 1 550 5 is_stmt 1 view .LVU844
 550:Dsp/widget/wgt_core/UI_Controller.c ****     str_y = Obj->Gen_Data.y;
 2974              		.loc 1 550 26 is_stmt 0 view .LVU845
 2975 004c B288     		ldrh	r2, [r6, #4]	@ unaligned
 550:Dsp/widget/wgt_core/UI_Controller.c ****     str_y = Obj->Gen_Data.y;
 2976              		.loc 1 550 29 view .LVU846
 2977 004e 0332     		adds	r2, r2, #3
 550:Dsp/widget/wgt_core/UI_Controller.c ****     str_y = Obj->Gen_Data.y;
 2978              		.loc 1 550 11 view .LVU847
 2979 0050 12B2     		sxth	r2, r2
 2980              	.LVL266:
 551:Dsp/widget/wgt_core/UI_Controller.c **** 
 2981              		.loc 1 551 5 is_stmt 1 view .LVU848
 553:Dsp/widget/wgt_core/UI_Controller.c ****         str_y += 1;
 2982              		.loc 1 553 5 view .LVU849
 553:Dsp/widget/wgt_core/UI_Controller.c ****         str_y += 1;
 2983              		.loc 1 553 19 is_stmt 0 view .LVU850
 2984 0052 1A49     		ldr	r1, .L270+4
 2985 0054 0878     		ldrb	r0, [r1]	@ zero_extendqisi2
 553:Dsp/widget/wgt_core/UI_Controller.c ****         str_y += 1;
 2986              		.loc 1 553 8 view .LVU851
 2987 0056 0828     		cmp	r0, #8
 2988 0058 1ED0     		beq	.L269
 2989              	.LVL267:
 2990              	.L262:
 556:Dsp/widget/wgt_core/UI_Controller.c ****     UI_DspInterface.draw_rectangle(frame_x, frame_y, DEFAULT_CHECKBOX_FRAME_SIZE, DEFAULT_CHECKBOX_
 2991              		.loc 1 556 5 is_stmt 1 view .LVU852
 2992 005a 4FF0010B 		mov	fp, #1
 2993 005e CDF800B0 		str	fp, [sp]
 2994 0062 4146     		mov	r1, r8
 2995 0064 B847     		blx	r7
 2996              	.LVL268:
 557:Dsp/widget/wgt_core/UI_Controller.c **** 
 2997              		.loc 1 557 5 view .LVU853
 557:Dsp/widget/wgt_core/UI_Controller.c **** 
 2998              		.loc 1 557 20 is_stmt 0 view .LVU854
 2999 0066 144B     		ldr	r3, .L270
 3000 0068 9F69     		ldr	r7, [r3, #24]
 557:Dsp/widget/wgt_core/UI_Controller.c **** 
 3001              		.loc 1 557 5 view .LVU855
 3002 006a CDF804B0 		str	fp, [sp, #4]
 3003 006e CDF800B0 		str	fp, [sp]
 3004 0072 0723     		movs	r3, #7
 3005 0074 1A46     		mov	r2, r3
 3006 0076 5146     		mov	r1, r10
 3007 0078 4846     		mov	r0, r9
ARM GAS  /var/folders/lx/hc4sn_b53233_zkc9xbbl97r0000gp/T//cc46Bl7B.s 			page 78


 3008 007a B847     		blx	r7
 3009              	.LVL269:
 559:Dsp/widget/wgt_core/UI_Controller.c ****         UI_DspInterface.fill_rectangle(frame_x + 2, frame_y + 2, DEFAULT_CHECKBOX_FILLFRAME, DEFAUL
 3010              		.loc 1 559 5 is_stmt 1 view .LVU856
 559:Dsp/widget/wgt_core/UI_Controller.c ****         UI_DspInterface.fill_rectangle(frame_x + 2, frame_y + 2, DEFAULT_CHECKBOX_FILLFRAME, DEFAUL
 3011              		.loc 1 559 12 is_stmt 0 view .LVU857
 3012 007c 367C     		ldrb	r6, [r6, #16]	@ zero_extendqisi2
 3013              	.LVL270:
 559:Dsp/widget/wgt_core/UI_Controller.c ****         UI_DspInterface.fill_rectangle(frame_x + 2, frame_y + 2, DEFAULT_CHECKBOX_FILLFRAME, DEFAUL
 3014              		.loc 1 559 8 view .LVU858
 3015 007e B6B1     		cbz	r6, .L267
 560:Dsp/widget/wgt_core/UI_Controller.c **** 
 3016              		.loc 1 560 9 is_stmt 1 view .LVU859
 560:Dsp/widget/wgt_core/UI_Controller.c **** 
 3017              		.loc 1 560 24 is_stmt 0 view .LVU860
 3018 0080 0D4B     		ldr	r3, .L270
 3019 0082 5F6A     		ldr	r7, [r3, #36]
 560:Dsp/widget/wgt_core/UI_Controller.c **** 
 3020              		.loc 1 560 48 view .LVU861
 3021 0084 E01D     		adds	r0, r4, #7
 560:Dsp/widget/wgt_core/UI_Controller.c **** 
 3022              		.loc 1 560 61 view .LVU862
 3023 0086 691D     		adds	r1, r5, #5
 560:Dsp/widget/wgt_core/UI_Controller.c **** 
 3024              		.loc 1 560 9 view .LVU863
 3025 0088 CDF800B0 		str	fp, [sp]
 3026 008c 0323     		movs	r3, #3
 3027 008e 1A46     		mov	r2, r3
 3028 0090 09B2     		sxth	r1, r1
 3029 0092 00B2     		sxth	r0, r0
 3030 0094 B847     		blx	r7
 3031              	.LVL271:
 3032 0096 0BE0     		b	.L261
 3033              	.LVL272:
 3034              	.L269:
 554:Dsp/widget/wgt_core/UI_Controller.c **** 
 3035              		.loc 1 554 9 is_stmt 1 view .LVU864
 554:Dsp/widget/wgt_core/UI_Controller.c **** 
 3036              		.loc 1 554 15 is_stmt 0 view .LVU865
 3037 0098 6B1C     		adds	r3, r5, #1
 3038 009a 1BB2     		sxth	r3, r3
 3039              	.LVL273:
 554:Dsp/widget/wgt_core/UI_Controller.c **** 
 3040              		.loc 1 554 15 view .LVU866
 3041 009c DDE7     		b	.L262
 3042              	.LVL274:
 3043              	.L263:
 544:Dsp/widget/wgt_core/UI_Controller.c **** 
 3044              		.loc 1 544 16 view .LVU867
 3045 009e 0026     		movs	r6, #0
 3046 00a0 06E0     		b	.L261
 3047              	.L264:
 544:Dsp/widget/wgt_core/UI_Controller.c **** 
 3048              		.loc 1 544 16 view .LVU868
 3049 00a2 0026     		movs	r6, #0
 3050 00a4 04E0     		b	.L261
 3051              	.L265:
ARM GAS  /var/folders/lx/hc4sn_b53233_zkc9xbbl97r0000gp/T//cc46Bl7B.s 			page 79


 544:Dsp/widget/wgt_core/UI_Controller.c **** 
 3052              		.loc 1 544 16 view .LVU869
 3053 00a6 0026     		movs	r6, #0
 3054 00a8 02E0     		b	.L261
 3055              	.L266:
 544:Dsp/widget/wgt_core/UI_Controller.c **** 
 3056              		.loc 1 544 16 view .LVU870
 3057 00aa 0026     		movs	r6, #0
 3058 00ac 00E0     		b	.L261
 3059              	.LVL275:
 3060              	.L267:
 562:Dsp/widget/wgt_core/UI_Controller.c **** }
 3061              		.loc 1 562 12 view .LVU871
 3062 00ae 0126     		movs	r6, #1
 3063              	.LVL276:
 3064              	.L261:
 563:Dsp/widget/wgt_core/UI_Controller.c **** 
 3065              		.loc 1 563 1 view .LVU872
 3066 00b0 3046     		mov	r0, r6
 3067 00b2 03B0     		add	sp, sp, #12
 3068              	.LCFI57:
 3069              		.cfi_def_cfa_offset 36
 3070              		@ sp needed
 3071 00b4 BDE8F08F 		pop	{r4, r5, r6, r7, r8, r9, r10, fp, pc}
 3072              	.L271:
 3073              		.align	2
 3074              	.L270:
 3075 00b8 00000000 		.word	.LANCHOR0
 3076 00bc 00000000 		.word	.LANCHOR2
 3077              		.cfi_endproc
 3078              	.LFE21:
 3080              		.section	.text.UI_SlideBar_CTL,"ax",%progbits
 3081              		.align	1
 3082              		.syntax unified
 3083              		.thumb
 3084              		.thumb_func
 3085              		.fpu fpv4-sp-d16
 3087              	UI_SlideBar_CTL:
 3088              	.LVL277:
 3089              	.LFB27:
 647:Dsp/widget/wgt_core/UI_Controller.c ****     int16_t Block_CoordX = 0;
 3090              		.loc 1 647 1 is_stmt 1 view -0
 3091              		.cfi_startproc
 3092              		@ args = 0, pretend = 0, frame = 0
 3093              		@ frame_needed = 0, uses_anonymous_args = 0
 648:Dsp/widget/wgt_core/UI_Controller.c ****     int16_t Block_CoordY = 0;
 3094              		.loc 1 648 5 view .LVU874
 649:Dsp/widget/wgt_core/UI_Controller.c ****     int16_t input_trip = 0;
 3095              		.loc 1 649 5 view .LVU875
 650:Dsp/widget/wgt_core/UI_Controller.c ****     int16_t str_y = Obj->Gen_Data.y;
 3096              		.loc 1 650 5 view .LVU876
 651:Dsp/widget/wgt_core/UI_Controller.c **** 
 3097              		.loc 1 651 5 view .LVU877
 651:Dsp/widget/wgt_core/UI_Controller.c **** 
 3098              		.loc 1 651 13 is_stmt 0 view .LVU878
 3099 0000 B0F90620 		ldrsh	r2, [r0, #6]	@ unaligned
 3100              	.LVL278:
ARM GAS  /var/folders/lx/hc4sn_b53233_zkc9xbbl97r0000gp/T//cc46Bl7B.s 			page 80


 653:Dsp/widget/wgt_core/UI_Controller.c ****         (UI_DspInterface.draw_str == NULL) ||
 3101              		.loc 1 653 5 is_stmt 1 view .LVU879
 653:Dsp/widget/wgt_core/UI_Controller.c ****         (UI_DspInterface.draw_str == NULL) ||
 3102              		.loc 1 653 8 is_stmt 0 view .LVU880
 3103 0004 0028     		cmp	r0, #0
 3104 0006 00F08480 		beq	.L278
 647:Dsp/widget/wgt_core/UI_Controller.c ****     int16_t Block_CoordX = 0;
 3105              		.loc 1 647 1 discriminator 1 view .LVU881
 3106 000a 2DE9F041 		push	{r4, r5, r6, r7, r8, lr}
 3107              	.LCFI58:
 3108              		.cfi_def_cfa_offset 24
 3109              		.cfi_offset 4, -24
 3110              		.cfi_offset 5, -20
 3111              		.cfi_offset 6, -16
 3112              		.cfi_offset 7, -12
 3113              		.cfi_offset 8, -8
 3114              		.cfi_offset 14, -4
 3115 000e 82B0     		sub	sp, sp, #8
 3116              	.LCFI59:
 3117              		.cfi_def_cfa_offset 32
 3118 0010 0446     		mov	r4, r0
 3119 0012 1346     		mov	r3, r2
 654:Dsp/widget/wgt_core/UI_Controller.c ****         (UI_DspInterface.fill_rectangle == NULL))
 3120              		.loc 1 654 25 discriminator 1 view .LVU882
 3121 0014 4349     		ldr	r1, .L287
 3122 0016 0E68     		ldr	r6, [r1]
 653:Dsp/widget/wgt_core/UI_Controller.c ****         (UI_DspInterface.draw_str == NULL) ||
 3123              		.loc 1 653 23 discriminator 1 view .LVU883
 3124 0018 002E     		cmp	r6, #0
 3125 001a 7CD0     		beq	.L279
 655:Dsp/widget/wgt_core/UI_Controller.c ****         return false;
 3126              		.loc 1 655 25 view .LVU884
 3127 001c 496A     		ldr	r1, [r1, #36]
 654:Dsp/widget/wgt_core/UI_Controller.c ****         (UI_DspInterface.fill_rectangle == NULL))
 3128              		.loc 1 654 44 view .LVU885
 3129 001e 0029     		cmp	r1, #0
 3130 0020 7BD0     		beq	.L280
 658:Dsp/widget/wgt_core/UI_Controller.c ****         str_y += 1;
 3131              		.loc 1 658 5 is_stmt 1 view .LVU886
 658:Dsp/widget/wgt_core/UI_Controller.c ****         str_y += 1;
 3132              		.loc 1 658 19 is_stmt 0 view .LVU887
 3133 0022 4149     		ldr	r1, .L287+4
 3134 0024 0878     		ldrb	r0, [r1]	@ zero_extendqisi2
 3135              	.LVL279:
 658:Dsp/widget/wgt_core/UI_Controller.c ****         str_y += 1;
 3136              		.loc 1 658 8 view .LVU888
 3137 0026 0828     		cmp	r0, #8
 3138 0028 6CD0     		beq	.L286
 3139              	.LVL280:
 3140              	.L274:
 661:Dsp/widget/wgt_core/UI_Controller.c **** 
 3141              		.loc 1 661 5 is_stmt 1 view .LVU889
 661:Dsp/widget/wgt_core/UI_Controller.c **** 
 3142              		.loc 1 661 21 is_stmt 0 view .LVU890
 3143 002a D4F81520 		ldr	r2, [r4, #21]	@ unaligned
 3144 002e 07EE902A 		vmov	s15, r2	@ int
 661:Dsp/widget/wgt_core/UI_Controller.c **** 
ARM GAS  /var/folders/lx/hc4sn_b53233_zkc9xbbl97r0000gp/T//cc46Bl7B.s 			page 81


 3145              		.loc 1 661 38 view .LVU891
 3146 0032 D4F81120 		ldr	r2, [r4, #17]	@ unaligned
 661:Dsp/widget/wgt_core/UI_Controller.c **** 
 3147              		.loc 1 661 33 view .LVU892
 3148 0036 07EE102A 		vmov	s14, r2
 3149 003a 77EEC77A 		vsub.f32	s15, s15, s14
 661:Dsp/widget/wgt_core/UI_Controller.c **** 
 3150              		.loc 1 661 16 view .LVU893
 3151 003e FDEEE77A 		vcvt.s32.f32	s15, s15
 3152 0042 17EE902A 		vmov	r2, s15	@ int
 3153 0046 15B2     		sxth	r5, r2
 3154              	.LVL281:
 663:Dsp/widget/wgt_core/UI_Controller.c **** 
 3155              		.loc 1 663 5 is_stmt 1 view .LVU894
 663:Dsp/widget/wgt_core/UI_Controller.c **** 
 3156              		.loc 1 663 75 is_stmt 0 view .LVU895
 3157 0048 A288     		ldrh	r2, [r4, #4]	@ unaligned
 663:Dsp/widget/wgt_core/UI_Controller.c **** 
 3158              		.loc 1 663 78 view .LVU896
 3159 004a 0332     		adds	r2, r2, #3
 663:Dsp/widget/wgt_core/UI_Controller.c **** 
 3160              		.loc 1 663 5 view .LVU897
 3161 004c 0121     		movs	r1, #1
 3162 004e 0091     		str	r1, [sp]
 3163 0050 12B2     		sxth	r2, r2
 3164 0052 2168     		ldr	r1, [r4]	@ unaligned
 3165 0054 B047     		blx	r6
 3166              	.LVL282:
 665:Dsp/widget/wgt_core/UI_Controller.c ****     {
 3167              		.loc 1 665 5 is_stmt 1 view .LVU898
 665:Dsp/widget/wgt_core/UI_Controller.c ****     {
 3168              		.loc 1 665 12 is_stmt 0 view .LVU899
 3169 0056 237B     		ldrb	r3, [r4, #12]	@ zero_extendqisi2
 665:Dsp/widget/wgt_core/UI_Controller.c ****     {
 3170              		.loc 1 665 8 view .LVU900
 3171 0058 002B     		cmp	r3, #0
 3172 005a 56D1     		bne	.L275
 667:Dsp/widget/wgt_core/UI_Controller.c ****         {
 3173              		.loc 1 667 9 is_stmt 1 view .LVU901
 667:Dsp/widget/wgt_core/UI_Controller.c ****         {
 3174              		.loc 1 667 16 is_stmt 0 view .LVU902
 3175 005c B4F92430 		ldrsh	r3, [r4, #36]	@ unaligned
 667:Dsp/widget/wgt_core/UI_Controller.c ****         {
 3176              		.loc 1 667 12 view .LVU903
 3177 0060 53B9     		cbnz	r3, .L276
 669:Dsp/widget/wgt_core/UI_Controller.c ****         }
 3178              		.loc 1 669 13 is_stmt 1 view .LVU904
 669:Dsp/widget/wgt_core/UI_Controller.c ****         }
 3179              		.loc 1 669 44 is_stmt 0 view .LVU905
 3180 0062 A688     		ldrh	r6, [r4, #4]	@ unaligned
 669:Dsp/widget/wgt_core/UI_Controller.c ****         }
 3181              		.loc 1 669 49 view .LVU906
 3182 0064 2068     		ldr	r0, [r4]	@ unaligned
 3183 0066 FFF7FEFF 		bl	strlen
 3184              	.LVL283:
 669:Dsp/widget/wgt_core/UI_Controller.c ****         }
 3185              		.loc 1 669 47 view .LVU907
ARM GAS  /var/folders/lx/hc4sn_b53233_zkc9xbbl97r0000gp/T//cc46Bl7B.s 			page 82


 3186 006a 00EB4000 		add	r0, r0, r0, lsl #1
 3187 006e 06EB4006 		add	r6, r6, r0, lsl #1
 3188 0072 B6B2     		uxth	r6, r6
 669:Dsp/widget/wgt_core/UI_Controller.c ****         }
 3189              		.loc 1 669 87 view .LVU908
 3190 0074 0536     		adds	r6, r6, #5
 669:Dsp/widget/wgt_core/UI_Controller.c ****         }
 3191              		.loc 1 669 29 view .LVU909
 3192 0076 A684     		strh	r6, [r4, #36]	@ unaligned
 3193              	.L276:
 672:Dsp/widget/wgt_core/UI_Controller.c ****         {
 3194              		.loc 1 672 9 is_stmt 1 view .LVU910
 672:Dsp/widget/wgt_core/UI_Controller.c ****         {
 3195              		.loc 1 672 16 is_stmt 0 view .LVU911
 3196 0078 B4F92630 		ldrsh	r3, [r4, #38]	@ unaligned
 672:Dsp/widget/wgt_core/UI_Controller.c ****         {
 3197              		.loc 1 672 12 view .LVU912
 3198 007c 13B9     		cbnz	r3, .L277
 674:Dsp/widget/wgt_core/UI_Controller.c ****         }
 3199              		.loc 1 674 13 is_stmt 1 view .LVU913
 674:Dsp/widget/wgt_core/UI_Controller.c ****         }
 3200              		.loc 1 674 44 is_stmt 0 view .LVU914
 3201 007e E388     		ldrh	r3, [r4, #6]	@ unaligned
 674:Dsp/widget/wgt_core/UI_Controller.c ****         }
 3202              		.loc 1 674 47 view .LVU915
 3203 0080 0533     		adds	r3, r3, #5
 674:Dsp/widget/wgt_core/UI_Controller.c ****         }
 3204              		.loc 1 674 29 view .LVU916
 3205 0082 E384     		strh	r3, [r4, #38]	@ unaligned
 3206              	.L277:
 677:Dsp/widget/wgt_core/UI_Controller.c ****         Block_CoordX += (Obj->cur_val - Obj->limit_min) / ((float)(input_trip)) * (DEFAULT_SLIDERBA
 3207              		.loc 1 677 9 is_stmt 1 view .LVU917
 677:Dsp/widget/wgt_core/UI_Controller.c ****         Block_CoordX += (Obj->cur_val - Obj->limit_min) / ((float)(input_trip)) * (DEFAULT_SLIDERBA
 3208              		.loc 1 677 22 is_stmt 0 view .LVU918
 3209 0084 B4F92400 		ldrsh	r0, [r4, #36]	@ unaligned
 3210              	.LVL284:
 678:Dsp/widget/wgt_core/UI_Controller.c **** 
 3211              		.loc 1 678 9 is_stmt 1 view .LVU919
 678:Dsp/widget/wgt_core/UI_Controller.c **** 
 3212              		.loc 1 678 29 is_stmt 0 view .LVU920
 3213 0088 D4F81F30 		ldr	r3, [r4, #31]	@ unaligned
 3214 008c 06EE903A 		vmov	s13, r3	@ int
 678:Dsp/widget/wgt_core/UI_Controller.c **** 
 3215              		.loc 1 678 44 view .LVU921
 3216 0090 D4F81130 		ldr	r3, [r4, #17]	@ unaligned
 678:Dsp/widget/wgt_core/UI_Controller.c **** 
 3217              		.loc 1 678 39 view .LVU922
 3218 0094 07EE903A 		vmov	s15, r3
 3219 0098 76EEE76A 		vsub.f32	s13, s13, s15
 678:Dsp/widget/wgt_core/UI_Controller.c **** 
 3220              		.loc 1 678 60 view .LVU923
 3221 009c 07EE905A 		vmov	s15, r5	@ int
 3222 00a0 B8EEE77A 		vcvt.f32.s32	s14, s15
 678:Dsp/widget/wgt_core/UI_Controller.c **** 
 3223              		.loc 1 678 57 view .LVU924
 3224 00a4 C6EE877A 		vdiv.f32	s15, s13, s14
 678:Dsp/widget/wgt_core/UI_Controller.c **** 
ARM GAS  /var/folders/lx/hc4sn_b53233_zkc9xbbl97r0000gp/T//cc46Bl7B.s 			page 83


 3225              		.loc 1 678 81 view .LVU925
 3226 00a8 9FED207A 		vldr.32	s14, .L287+8
 3227 00ac 27EE877A 		vmul.f32	s14, s15, s14
 678:Dsp/widget/wgt_core/UI_Controller.c **** 
 3228              		.loc 1 678 22 view .LVU926
 3229 00b0 07EE900A 		vmov	s15, r0	@ int
 3230 00b4 F8EEE77A 		vcvt.f32.s32	s15, s15
 3231 00b8 77EE877A 		vadd.f32	s15, s15, s14
 3232 00bc FDEEE77A 		vcvt.s32.f32	s15, s15
 3233 00c0 17EE903A 		vmov	r3, s15	@ int
 3234 00c4 0FFA83F8 		sxth	r8, r3
 3235              	.LVL285:
 680:Dsp/widget/wgt_core/UI_Controller.c **** 
 3236              		.loc 1 680 9 is_stmt 1 view .LVU927
 680:Dsp/widget/wgt_core/UI_Controller.c **** 
 3237              		.loc 1 680 24 is_stmt 0 view .LVU928
 3238 00c8 164F     		ldr	r7, .L287
 680:Dsp/widget/wgt_core/UI_Controller.c **** 
 3239              		.loc 1 680 9 view .LVU929
 3240 00ca 0125     		movs	r5, #1
 3241              	.LVL286:
 680:Dsp/widget/wgt_core/UI_Controller.c **** 
 3242              		.loc 1 680 9 view .LVU930
 3243 00cc 0095     		str	r5, [sp]
 3244 00ce 0223     		movs	r3, #2
 3245 00d0 2822     		movs	r2, #40
 3246 00d2 B4F92610 		ldrsh	r1, [r4, #38]	@ unaligned
 3247 00d6 7E6A     		ldr	r6, [r7, #36]
 3248 00d8 B047     		blx	r6
 3249              	.LVL287:
 682:Dsp/widget/wgt_core/UI_Controller.c ****         UI_DspInterface.fill_rectangle(Block_CoordX, Block_CoordY, DEFAULT_SLIDERBAR_BLOCK_WIDTH, D
 3250              		.loc 1 682 9 is_stmt 1 view .LVU931
 682:Dsp/widget/wgt_core/UI_Controller.c ****         UI_DspInterface.fill_rectangle(Block_CoordX, Block_CoordY, DEFAULT_SLIDERBAR_BLOCK_WIDTH, D
 3251              		.loc 1 682 37 is_stmt 0 view .LVU932
 3252 00da E488     		ldrh	r4, [r4, #6]	@ unaligned
 3253              	.LVL288:
 682:Dsp/widget/wgt_core/UI_Controller.c ****         UI_DspInterface.fill_rectangle(Block_CoordX, Block_CoordY, DEFAULT_SLIDERBAR_BLOCK_WIDTH, D
 3254              		.loc 1 682 40 view .LVU933
 3255 00dc E11C     		adds	r1, r4, #3
 3256              	.LVL289:
 683:Dsp/widget/wgt_core/UI_Controller.c ****         UI_DspInterface.fill_rectangle(Block_CoordX, Block_CoordY + (DEFAULT_SLIDERBAR_BLOCK_HIGH /
 3257              		.loc 1 683 9 is_stmt 1 view .LVU934
 3258 00de 0095     		str	r5, [sp]
 3259 00e0 0623     		movs	r3, #6
 3260 00e2 0322     		movs	r2, #3
 3261 00e4 09B2     		sxth	r1, r1
 683:Dsp/widget/wgt_core/UI_Controller.c ****         UI_DspInterface.fill_rectangle(Block_CoordX, Block_CoordY + (DEFAULT_SLIDERBAR_BLOCK_HIGH /
 3262              		.loc 1 683 9 is_stmt 0 view .LVU935
 3263 00e6 4046     		mov	r0, r8
 3264 00e8 7E6A     		ldr	r6, [r7, #36]
 3265 00ea B047     		blx	r6
 3266              	.LVL290:
 684:Dsp/widget/wgt_core/UI_Controller.c ****     }
 3267              		.loc 1 684 9 is_stmt 1 view .LVU936
 684:Dsp/widget/wgt_core/UI_Controller.c ****     }
 3268              		.loc 1 684 24 is_stmt 0 view .LVU937
 3269 00ec 7F6A     		ldr	r7, [r7, #36]
ARM GAS  /var/folders/lx/hc4sn_b53233_zkc9xbbl97r0000gp/T//cc46Bl7B.s 			page 84


 684:Dsp/widget/wgt_core/UI_Controller.c ****     }
 3270              		.loc 1 684 67 view .LVU938
 3271 00ee 611D     		adds	r1, r4, #5
 684:Dsp/widget/wgt_core/UI_Controller.c ****     }
 3272              		.loc 1 684 9 view .LVU939
 3273 00f0 0095     		str	r5, [sp]
 3274 00f2 0223     		movs	r3, #2
 3275 00f4 0322     		movs	r2, #3
 3276 00f6 09B2     		sxth	r1, r1
 3277 00f8 4046     		mov	r0, r8
 3278 00fa B847     		blx	r7
 3279              	.LVL291:
 692:Dsp/widget/wgt_core/UI_Controller.c **** }
 3280              		.loc 1 692 12 view .LVU940
 3281 00fc 2846     		mov	r0, r5
 3282              	.LVL292:
 3283              	.L273:
 693:Dsp/widget/wgt_core/UI_Controller.c **** 
 3284              		.loc 1 693 1 view .LVU941
 3285 00fe 02B0     		add	sp, sp, #8
 3286              	.LCFI60:
 3287              		.cfi_remember_state
 3288              		.cfi_def_cfa_offset 24
 3289              		@ sp needed
 3290 0100 BDE8F081 		pop	{r4, r5, r6, r7, r8, pc}
 3291              	.LVL293:
 3292              	.L286:
 3293              	.LCFI61:
 3294              		.cfi_restore_state
 659:Dsp/widget/wgt_core/UI_Controller.c **** 
 3295              		.loc 1 659 9 is_stmt 1 view .LVU942
 659:Dsp/widget/wgt_core/UI_Controller.c **** 
 3296              		.loc 1 659 15 is_stmt 0 view .LVU943
 3297 0104 0132     		adds	r2, r2, #1
 3298              	.LVL294:
 659:Dsp/widget/wgt_core/UI_Controller.c **** 
 3299              		.loc 1 659 15 view .LVU944
 3300 0106 13B2     		sxth	r3, r2
 3301              	.LVL295:
 659:Dsp/widget/wgt_core/UI_Controller.c **** 
 3302              		.loc 1 659 15 view .LVU945
 3303 0108 8FE7     		b	.L274
 3304              	.LVL296:
 3305              	.L275:
 686:Dsp/widget/wgt_core/UI_Controller.c ****     {
 3306              		.loc 1 686 10 is_stmt 1 view .LVU946
 686:Dsp/widget/wgt_core/UI_Controller.c ****     {
 3307              		.loc 1 686 13 is_stmt 0 view .LVU947
 3308 010a 012B     		cmp	r3, #1
 3309 010c 07D1     		bne	.L281
 692:Dsp/widget/wgt_core/UI_Controller.c **** }
 3310              		.loc 1 692 12 view .LVU948
 3311 010e 0120     		movs	r0, #1
 3312 0110 F5E7     		b	.L273
 3313              	.LVL297:
 3314              	.L278:
 3315              	.LCFI62:
ARM GAS  /var/folders/lx/hc4sn_b53233_zkc9xbbl97r0000gp/T//cc46Bl7B.s 			page 85


 3316              		.cfi_def_cfa_offset 0
 3317              		.cfi_restore 4
 3318              		.cfi_restore 5
 3319              		.cfi_restore 6
 3320              		.cfi_restore 7
 3321              		.cfi_restore 8
 3322              		.cfi_restore 14
 656:Dsp/widget/wgt_core/UI_Controller.c **** 
 3323              		.loc 1 656 16 view .LVU949
 3324 0112 0020     		movs	r0, #0
 3325              	.LVL298:
 693:Dsp/widget/wgt_core/UI_Controller.c **** 
 3326              		.loc 1 693 1 view .LVU950
 3327 0114 7047     		bx	lr
 3328              	.LVL299:
 3329              	.L279:
 3330              	.LCFI63:
 3331              		.cfi_def_cfa_offset 32
 3332              		.cfi_offset 4, -24
 3333              		.cfi_offset 5, -20
 3334              		.cfi_offset 6, -16
 3335              		.cfi_offset 7, -12
 3336              		.cfi_offset 8, -8
 3337              		.cfi_offset 14, -4
 656:Dsp/widget/wgt_core/UI_Controller.c **** 
 3338              		.loc 1 656 16 view .LVU951
 3339 0116 0020     		movs	r0, #0
 3340              	.LVL300:
 656:Dsp/widget/wgt_core/UI_Controller.c **** 
 3341              		.loc 1 656 16 view .LVU952
 3342 0118 F1E7     		b	.L273
 3343              	.LVL301:
 3344              	.L280:
 656:Dsp/widget/wgt_core/UI_Controller.c **** 
 3345              		.loc 1 656 16 view .LVU953
 3346 011a 0020     		movs	r0, #0
 3347              	.LVL302:
 656:Dsp/widget/wgt_core/UI_Controller.c **** 
 3348              		.loc 1 656 16 view .LVU954
 3349 011c EFE7     		b	.L273
 3350              	.LVL303:
 3351              	.L281:
 690:Dsp/widget/wgt_core/UI_Controller.c **** 
 3352              		.loc 1 690 16 view .LVU955
 3353 011e 0020     		movs	r0, #0
 3354 0120 EDE7     		b	.L273
 3355              	.L288:
 3356 0122 00BF     		.align	2
 3357              	.L287:
 3358 0124 00000000 		.word	.LANCHOR0
 3359 0128 00000000 		.word	.LANCHOR2
 3360 012c 00001442 		.word	1108606976
 3361              		.cfi_endproc
 3362              	.LFE27:
 3364              		.section	.text.UI_ProcessBar_DspFrameBar,"ax",%progbits
 3365              		.align	1
 3366              		.syntax unified
ARM GAS  /var/folders/lx/hc4sn_b53233_zkc9xbbl97r0000gp/T//cc46Bl7B.s 			page 86


 3367              		.thumb
 3368              		.thumb_func
 3369              		.fpu fpv4-sp-d16
 3371              	UI_ProcessBar_DspFrameBar:
 3372              	.LVL304:
 3373              	.LFB36:
 868:Dsp/widget/wgt_core/UI_Controller.c ****     int16_t frame_CoordX = 0;
 3374              		.loc 1 868 1 is_stmt 1 view -0
 3375              		.cfi_startproc
 3376              		@ args = 0, pretend = 0, frame = 0
 3377              		@ frame_needed = 0, uses_anonymous_args = 0
 868:Dsp/widget/wgt_core/UI_Controller.c ****     int16_t frame_CoordX = 0;
 3378              		.loc 1 868 1 is_stmt 0 view .LVU957
 3379 0000 2DE9F047 		push	{r4, r5, r6, r7, r8, r9, r10, lr}
 3380              	.LCFI64:
 3381              		.cfi_def_cfa_offset 32
 3382              		.cfi_offset 4, -32
 3383              		.cfi_offset 5, -28
 3384              		.cfi_offset 6, -24
 3385              		.cfi_offset 7, -20
 3386              		.cfi_offset 8, -16
 3387              		.cfi_offset 9, -12
 3388              		.cfi_offset 10, -8
 3389              		.cfi_offset 14, -4
 3390 0004 82B0     		sub	sp, sp, #8
 3391              	.LCFI65:
 3392              		.cfi_def_cfa_offset 40
 869:Dsp/widget/wgt_core/UI_Controller.c ****     uint8_t frame_width = 0;
 3393              		.loc 1 869 5 is_stmt 1 view .LVU958
 3394              	.LVL305:
 870:Dsp/widget/wgt_core/UI_Controller.c ****     uint8_t frame_Height = 0;
 3395              		.loc 1 870 5 view .LVU959
 871:Dsp/widget/wgt_core/UI_Controller.c ****     int16_t block_start_CoordX = 0;
 3396              		.loc 1 871 5 view .LVU960
 872:Dsp/widget/wgt_core/UI_Controller.c ****     int16_t block_start_CoordY = 0;
 3397              		.loc 1 872 5 view .LVU961
 873:Dsp/widget/wgt_core/UI_Controller.c ****     int16_t block_end_CoordX = 0;
 3398              		.loc 1 873 5 view .LVU962
 874:Dsp/widget/wgt_core/UI_Controller.c ****     int16_t block_end_CoordY = 0;
 3399              		.loc 1 874 5 view .LVU963
 875:Dsp/widget/wgt_core/UI_Controller.c **** 
 3400              		.loc 1 875 5 view .LVU964
 877:Dsp/widget/wgt_core/UI_Controller.c ****         (UI_DspInterface.draw_str == NULL) &&
 3401              		.loc 1 877 5 view .LVU965
 877:Dsp/widget/wgt_core/UI_Controller.c ****         (UI_DspInterface.draw_str == NULL) &&
 3402              		.loc 1 877 8 is_stmt 0 view .LVU966
 3403 0006 0546     		mov	r5, r0
 3404 0008 B0B1     		cbz	r0, .L302
 3405              	.L290:
 884:Dsp/widget/wgt_core/UI_Controller.c **** 
 3406              		.loc 1 884 5 is_stmt 1 view .LVU967
 884:Dsp/widget/wgt_core/UI_Controller.c **** 
 3407              		.loc 1 884 33 is_stmt 0 view .LVU968
 3408 000a B5F90430 		ldrsh	r3, [r5, #4]	@ unaligned
 3409 000e 1FB2     		sxth	r7, r3
 3410 0010 9CB2     		uxth	r4, r3
 884:Dsp/widget/wgt_core/UI_Controller.c **** 
ARM GAS  /var/folders/lx/hc4sn_b53233_zkc9xbbl97r0000gp/T//cc46Bl7B.s 			page 87


 3411              		.loc 1 884 58 view .LVU969
 3412 0012 2E68     		ldr	r6, [r5]	@ unaligned
 884:Dsp/widget/wgt_core/UI_Controller.c **** 
 3413              		.loc 1 884 38 view .LVU970
 3414 0014 3046     		mov	r0, r6
 3415              	.LVL306:
 884:Dsp/widget/wgt_core/UI_Controller.c **** 
 3416              		.loc 1 884 38 view .LVU971
 3417 0016 FFF7FEFF 		bl	strlen
 3418              	.LVL307:
 884:Dsp/widget/wgt_core/UI_Controller.c **** 
 3419              		.loc 1 884 36 view .LVU972
 3420 001a 00EB4000 		add	r0, r0, r0, lsl #1
 3421 001e 04EB4000 		add	r0, r4, r0, lsl #1
 3422 0022 80B2     		uxth	r0, r0
 884:Dsp/widget/wgt_core/UI_Controller.c **** 
 3423              		.loc 1 884 76 view .LVU973
 3424 0024 0530     		adds	r0, r0, #5
 884:Dsp/widget/wgt_core/UI_Controller.c **** 
 3425              		.loc 1 884 18 view .LVU974
 3426 0026 04B2     		sxth	r4, r0
 3427              	.LVL308:
 886:Dsp/widget/wgt_core/UI_Controller.c ****     {
 3428              		.loc 1 886 5 is_stmt 1 view .LVU975
 3429 0028 554B     		ldr	r3, .L305
 3430 002a 1878     		ldrb	r0, [r3]	@ zero_extendqisi2
 3431 002c 0828     		cmp	r0, #8
 3432 002e 15D0     		beq	.L303
 895:Dsp/widget/wgt_core/UI_Controller.c ****     }
 3433              		.loc 1 895 16 is_stmt 0 view .LVU976
 3434 0030 0020     		movs	r0, #0
 3435              	.LVL309:
 3436              	.L291:
 934:Dsp/widget/wgt_core/UI_Controller.c **** 
 3437              		.loc 1 934 1 view .LVU977
 3438 0032 02B0     		add	sp, sp, #8
 3439              	.LCFI66:
 3440              		.cfi_remember_state
 3441              		.cfi_def_cfa_offset 32
 3442              		@ sp needed
 3443 0034 BDE8F087 		pop	{r4, r5, r6, r7, r8, r9, r10, pc}
 3444              	.LVL310:
 3445              	.L302:
 3446              	.LCFI67:
 3447              		.cfi_restore_state
 878:Dsp/widget/wgt_core/UI_Controller.c ****         (UI_DspInterface.draw_rectangle == NULL) &&
 3448              		.loc 1 878 25 discriminator 1 view .LVU978
 3449 0038 524B     		ldr	r3, .L305+4
 3450 003a 1B68     		ldr	r3, [r3]
 877:Dsp/widget/wgt_core/UI_Controller.c ****         (UI_DspInterface.draw_str == NULL) &&
 3451              		.loc 1 877 23 discriminator 1 view .LVU979
 3452 003c 002B     		cmp	r3, #0
 3453 003e E4D1     		bne	.L290
 879:Dsp/widget/wgt_core/UI_Controller.c ****         (UI_DspInterface.draw_line_h == NULL) &&
 3454              		.loc 1 879 25 view .LVU980
 3455 0040 504B     		ldr	r3, .L305+4
 3456 0042 9B69     		ldr	r3, [r3, #24]
ARM GAS  /var/folders/lx/hc4sn_b53233_zkc9xbbl97r0000gp/T//cc46Bl7B.s 			page 88


 878:Dsp/widget/wgt_core/UI_Controller.c ****         (UI_DspInterface.draw_rectangle == NULL) &&
 3457              		.loc 1 878 44 view .LVU981
 3458 0044 002B     		cmp	r3, #0
 3459 0046 E0D1     		bne	.L290
 880:Dsp/widget/wgt_core/UI_Controller.c ****         (UI_DspInterface.fill_rectangle == NULL))
 3460              		.loc 1 880 25 view .LVU982
 3461 0048 4E4B     		ldr	r3, .L305+4
 3462 004a DB68     		ldr	r3, [r3, #12]
 879:Dsp/widget/wgt_core/UI_Controller.c ****         (UI_DspInterface.draw_line_h == NULL) &&
 3463              		.loc 1 879 50 view .LVU983
 3464 004c 002B     		cmp	r3, #0
 3465 004e DCD1     		bne	.L290
 881:Dsp/widget/wgt_core/UI_Controller.c ****         return false;
 3466              		.loc 1 881 25 view .LVU984
 3467 0050 4C4B     		ldr	r3, .L305+4
 3468 0052 5B6A     		ldr	r3, [r3, #36]
 880:Dsp/widget/wgt_core/UI_Controller.c ****         (UI_DspInterface.fill_rectangle == NULL))
 3469              		.loc 1 880 47 view .LVU985
 3470 0054 002B     		cmp	r3, #0
 3471 0056 D8D1     		bne	.L290
 882:Dsp/widget/wgt_core/UI_Controller.c **** 
 3472              		.loc 1 882 16 view .LVU986
 3473 0058 0020     		movs	r0, #0
 3474              	.LVL311:
 882:Dsp/widget/wgt_core/UI_Controller.c **** 
 3475              		.loc 1 882 16 view .LVU987
 3476 005a EAE7     		b	.L291
 3477              	.LVL312:
 3478              	.L303:
 889:Dsp/widget/wgt_core/UI_Controller.c ****         break;
 3479              		.loc 1 889 9 is_stmt 1 view .LVU988
 890:Dsp/widget/wgt_core/UI_Controller.c **** 
 3480              		.loc 1 890 9 view .LVU989
 898:Dsp/widget/wgt_core/UI_Controller.c ****         frame_width = Obj->width - 1;
 3481              		.loc 1 898 5 view .LVU990
 898:Dsp/widget/wgt_core/UI_Controller.c ****         frame_width = Obj->width - 1;
 3482              		.loc 1 898 12 is_stmt 0 view .LVU991
 3483 005c 95F82080 		ldrb	r8, [r5, #32]	@ zero_extendqisi2
 898:Dsp/widget/wgt_core/UI_Controller.c ****         frame_width = Obj->width - 1;
 3484              		.loc 1 898 8 view .LVU992
 3485 0060 B8F1010F 		cmp	r8, #1
 3486 0064 61D9     		bls	.L304
 870:Dsp/widget/wgt_core/UI_Controller.c ****     uint8_t frame_Height = 0;
 3487              		.loc 1 870 13 view .LVU993
 3488 0066 4FF00008 		mov	r8, #0
 3489              	.LVL313:
 3490              	.L292:
 901:Dsp/widget/wgt_core/UI_Controller.c ****     UI_DspInterface.draw_rectangle(frame_CoordX, Obj->Gen_Data.y, frame_width, frame_Height, DEFAUL
 3491              		.loc 1 901 5 is_stmt 1 view .LVU994
 901:Dsp/widget/wgt_core/UI_Controller.c ****     UI_DspInterface.draw_rectangle(frame_CoordX, Obj->Gen_Data.y, frame_width, frame_Height, DEFAUL
 3492              		.loc 1 901 20 is_stmt 0 view .LVU995
 3493 006a DFF818A1 		ldr	r10, .L305+4
 901:Dsp/widget/wgt_core/UI_Controller.c ****     UI_DspInterface.draw_rectangle(frame_CoordX, Obj->Gen_Data.y, frame_width, frame_Height, DEFAUL
 3494              		.loc 1 901 5 view .LVU996
 3495 006e 4FF00109 		mov	r9, #1
 3496 0072 CDF80090 		str	r9, [sp]
 3497 0076 B5F90630 		ldrsh	r3, [r5, #6]	@ unaligned
ARM GAS  /var/folders/lx/hc4sn_b53233_zkc9xbbl97r0000gp/T//cc46Bl7B.s 			page 89


 3498 007a 3A46     		mov	r2, r7
 3499 007c 3146     		mov	r1, r6
 3500 007e DAF80060 		ldr	r6, [r10]
 3501 0082 B047     		blx	r6
 3502              	.LVL314:
 902:Dsp/widget/wgt_core/UI_Controller.c **** 
 3503              		.loc 1 902 5 is_stmt 1 view .LVU997
 902:Dsp/widget/wgt_core/UI_Controller.c **** 
 3504              		.loc 1 902 20 is_stmt 0 view .LVU998
 3505 0084 DAF81860 		ldr	r6, [r10, #24]
 902:Dsp/widget/wgt_core/UI_Controller.c **** 
 3506              		.loc 1 902 5 view .LVU999
 3507 0088 CDF80490 		str	r9, [sp, #4]
 3508 008c CDF80090 		str	r9, [sp]
 3509 0090 0523     		movs	r3, #5
 3510 0092 4246     		mov	r2, r8
 3511 0094 B5F90610 		ldrsh	r1, [r5, #6]	@ unaligned
 3512 0098 2046     		mov	r0, r4
 3513 009a B047     		blx	r6
 3514              	.LVL315:
 904:Dsp/widget/wgt_core/UI_Controller.c ****     {
 3515              		.loc 1 904 5 is_stmt 1 view .LVU1000
 904:Dsp/widget/wgt_core/UI_Controller.c ****     {
 3516              		.loc 1 904 12 is_stmt 0 view .LVU1001
 3517 009c 95F82330 		ldrb	r3, [r5, #35]	@ zero_extendqisi2
 904:Dsp/widget/wgt_core/UI_Controller.c ****     {
 3518              		.loc 1 904 8 view .LVU1002
 3519 00a0 002B     		cmp	r3, #0
 3520 00a2 69D0     		beq	.L298
 912:Dsp/widget/wgt_core/UI_Controller.c ****     {
 3521              		.loc 1 912 10 is_stmt 1 view .LVU1003
 912:Dsp/widget/wgt_core/UI_Controller.c ****     {
 3522              		.loc 1 912 13 is_stmt 0 view .LVU1004
 3523 00a4 4B45     		cmp	r3, r9
 3524 00a6 69D1     		bne	.L299
 914:Dsp/widget/wgt_core/UI_Controller.c ****         block_start_CoordY = Obj->Gen_Data.y + 2;
 3525              		.loc 1 914 9 is_stmt 1 view .LVU1005
 914:Dsp/widget/wgt_core/UI_Controller.c ****         block_start_CoordY = Obj->Gen_Data.y + 2;
 3526              		.loc 1 914 24 is_stmt 0 view .LVU1006
 3527 00a8 DAF80C40 		ldr	r4, [r10, #12]
 3528              	.LVL316:
 914:Dsp/widget/wgt_core/UI_Controller.c ****         block_start_CoordY = Obj->Gen_Data.y + 2;
 3529              		.loc 1 914 50 view .LVU1007
 3530 00ac A888     		ldrh	r0, [r5, #4]	@ unaligned
 914:Dsp/widget/wgt_core/UI_Controller.c ****         block_start_CoordY = Obj->Gen_Data.y + 2;
 3531              		.loc 1 914 53 view .LVU1008
 3532 00ae 28FA09F6 		lsr	r6, r8, r9
 3533 00b2 00EB5800 		add	r0, r0, r8, lsr #1
 914:Dsp/widget/wgt_core/UI_Controller.c ****         block_start_CoordY = Obj->Gen_Data.y + 2;
 3534              		.loc 1 914 9 view .LVU1009
 3535 00b6 4B46     		mov	r3, r9
 3536 00b8 CDF80090 		str	r9, [sp]
 3537 00bc 0522     		movs	r2, #5
 3538 00be B5F90610 		ldrsh	r1, [r5, #6]	@ unaligned
 3539 00c2 00B2     		sxth	r0, r0
 3540 00c4 A047     		blx	r4
 3541              	.LVL317:
ARM GAS  /var/folders/lx/hc4sn_b53233_zkc9xbbl97r0000gp/T//cc46Bl7B.s 			page 90


 915:Dsp/widget/wgt_core/UI_Controller.c **** 
 3542              		.loc 1 915 9 is_stmt 1 view .LVU1010
 915:Dsp/widget/wgt_core/UI_Controller.c **** 
 3543              		.loc 1 915 43 is_stmt 0 view .LVU1011
 3544 00c6 E988     		ldrh	r1, [r5, #6]	@ unaligned
 915:Dsp/widget/wgt_core/UI_Controller.c **** 
 3545              		.loc 1 915 46 view .LVU1012
 3546 00c8 0231     		adds	r1, r1, #2
 915:Dsp/widget/wgt_core/UI_Controller.c **** 
 3547              		.loc 1 915 28 view .LVU1013
 3548 00ca 09B2     		sxth	r1, r1
 3549              	.LVL318:
 917:Dsp/widget/wgt_core/UI_Controller.c ****         {
 3550              		.loc 1 917 9 is_stmt 1 view .LVU1014
 917:Dsp/widget/wgt_core/UI_Controller.c ****         {
 3551              		.loc 1 917 16 is_stmt 0 view .LVU1015
 3552 00cc EC69     		ldr	r4, [r5, #28]	@ unaligned
 917:Dsp/widget/wgt_core/UI_Controller.c ****         {
 3553              		.loc 1 917 31 view .LVU1016
 3554 00ce 2A69     		ldr	r2, [r5, #16]	@ unaligned
 917:Dsp/widget/wgt_core/UI_Controller.c ****         {
 3555              		.loc 1 917 43 view .LVU1017
 3556 00d0 AB69     		ldr	r3, [r5, #24]	@ unaligned
 917:Dsp/widget/wgt_core/UI_Controller.c ****         {
 3557              		.loc 1 917 51 view .LVU1018
 3558 00d2 03EBD370 		add	r0, r3, r3, lsr #31
 917:Dsp/widget/wgt_core/UI_Controller.c ****         {
 3559              		.loc 1 917 37 view .LVU1019
 3560 00d6 02EB6002 		add	r2, r2, r0, asr #1
 917:Dsp/widget/wgt_core/UI_Controller.c ****         {
 3561              		.loc 1 917 12 view .LVU1020
 3562 00da 9442     		cmp	r4, r2
 3563 00dc 2ADA     		bge	.L293
 919:Dsp/widget/wgt_core/UI_Controller.c ****             block_end_CoordX = Obj->Gen_Data.x + frame_width / 2 - 1;
 3564              		.loc 1 919 13 is_stmt 1 view .LVU1021
 919:Dsp/widget/wgt_core/UI_Controller.c ****             block_end_CoordX = Obj->Gen_Data.x + frame_width / 2 - 1;
 3565              		.loc 1 919 50 is_stmt 0 view .LVU1022
 3566 00de 07EE903A 		vmov	s15, r3	@ int
 3567 00e2 F8EEE77A 		vcvt.f32.s32	s15, s15
 919:Dsp/widget/wgt_core/UI_Controller.c ****             block_end_CoordX = Obj->Gen_Data.x + frame_width / 2 - 1;
 3568              		.loc 1 919 48 view .LVU1023
 3569 00e6 07EE104A 		vmov	s14, r4	@ int
 3570 00ea B8EEC77A 		vcvt.f32.s32	s14, s14
 3571 00ee C7EE276A 		vdiv.f32	s13, s14, s15
 919:Dsp/widget/wgt_core/UI_Controller.c ****             block_end_CoordX = Obj->Gen_Data.x + frame_width / 2 - 1;
 3572              		.loc 1 919 74 view .LVU1024
 3573 00f2 95F82030 		ldrb	r3, [r5, #32]	@ zero_extendqisi2
 3574 00f6 07EE903A 		vmov	s15, r3	@ int
 919:Dsp/widget/wgt_core/UI_Controller.c ****             block_end_CoordX = Obj->Gen_Data.x + frame_width / 2 - 1;
 3575              		.loc 1 919 69 view .LVU1025
 3576 00fa F8EEE77A 		vcvt.f32.s32	s15, s15
 3577 00fe 67EEA67A 		vmul.f32	s15, s15, s13
 919:Dsp/widget/wgt_core/UI_Controller.c ****             block_end_CoordX = Obj->Gen_Data.x + frame_width / 2 - 1;
 3578              		.loc 1 919 32 view .LVU1026
 3579 0102 FDEEE77A 		vcvt.s32.f32	s15, s15
 3580 0106 17EE903A 		vmov	r3, s15	@ int
 3581 010a 18B2     		sxth	r0, r3
ARM GAS  /var/folders/lx/hc4sn_b53233_zkc9xbbl97r0000gp/T//cc46Bl7B.s 			page 91


 3582              	.LVL319:
 920:Dsp/widget/wgt_core/UI_Controller.c ****         }
 3583              		.loc 1 920 13 is_stmt 1 view .LVU1027
 920:Dsp/widget/wgt_core/UI_Controller.c ****         }
 3584              		.loc 1 920 45 is_stmt 0 view .LVU1028
 3585 010c AA88     		ldrh	r2, [r5, #4]	@ unaligned
 920:Dsp/widget/wgt_core/UI_Controller.c ****         }
 3586              		.loc 1 920 48 view .LVU1029
 3587 010e 3244     		add	r2, r2, r6
 3588 0110 92B2     		uxth	r2, r2
 920:Dsp/widget/wgt_core/UI_Controller.c ****         }
 3589              		.loc 1 920 66 view .LVU1030
 3590 0112 013A     		subs	r2, r2, #1
 920:Dsp/widget/wgt_core/UI_Controller.c ****         }
 3591              		.loc 1 920 30 view .LVU1031
 3592 0114 12B2     		sxth	r2, r2
 3593              	.LVL320:
 3594              	.L294:
 928:Dsp/widget/wgt_core/UI_Controller.c ****     }
 3595              		.loc 1 928 9 is_stmt 1 view .LVU1032
 928:Dsp/widget/wgt_core/UI_Controller.c ****     }
 3596              		.loc 1 928 24 is_stmt 0 view .LVU1033
 3597 0116 1B4B     		ldr	r3, .L305+4
 3598 0118 5D6A     		ldr	r5, [r3, #36]
 3599              	.LVL321:
 928:Dsp/widget/wgt_core/UI_Controller.c ****     }
 3600              		.loc 1 928 9 view .LVU1034
 3601 011a 121A     		subs	r2, r2, r0
 3602              	.LVL322:
 928:Dsp/widget/wgt_core/UI_Controller.c ****     }
 3603              		.loc 1 928 9 view .LVU1035
 3604 011c 0124     		movs	r4, #1
 3605 011e 0094     		str	r4, [sp]
 3606 0120 0323     		movs	r3, #3
 3607 0122 D2B2     		uxtb	r2, r2
 3608 0124 A847     		blx	r5
 3609              	.LVL323:
 933:Dsp/widget/wgt_core/UI_Controller.c **** }
 3610              		.loc 1 933 12 view .LVU1036
 3611 0126 2046     		mov	r0, r4
 3612 0128 83E7     		b	.L291
 3613              	.LVL324:
 3614              	.L304:
 899:Dsp/widget/wgt_core/UI_Controller.c **** 
 3615              		.loc 1 899 9 is_stmt 1 view .LVU1037
 899:Dsp/widget/wgt_core/UI_Controller.c **** 
 3616              		.loc 1 899 21 is_stmt 0 view .LVU1038
 3617 012a 08F1FF38 		add	r8, r8, #-1
 3618 012e 5FFA88F8 		uxtb	r8, r8
 3619              	.LVL325:
 899:Dsp/widget/wgt_core/UI_Controller.c **** 
 3620              		.loc 1 899 21 view .LVU1039
 3621 0132 9AE7     		b	.L292
 3622              	.LVL326:
 3623              	.L293:
 922:Dsp/widget/wgt_core/UI_Controller.c ****         {
 3624              		.loc 1 922 14 is_stmt 1 view .LVU1040
ARM GAS  /var/folders/lx/hc4sn_b53233_zkc9xbbl97r0000gp/T//cc46Bl7B.s 			page 92


 922:Dsp/widget/wgt_core/UI_Controller.c ****         {
 3625              		.loc 1 922 17 is_stmt 0 view .LVU1041
 3626 0134 9442     		cmp	r4, r2
 3627 0136 1CDD     		ble	.L300
 924:Dsp/widget/wgt_core/UI_Controller.c ****             block_end_CoordX = (Obj->cur_val / (float)Obj->range) * Obj->width;
 3628              		.loc 1 924 13 is_stmt 1 view .LVU1042
 924:Dsp/widget/wgt_core/UI_Controller.c ****             block_end_CoordX = (Obj->cur_val / (float)Obj->range) * Obj->width;
 3629              		.loc 1 924 47 is_stmt 0 view .LVU1043
 3630 0138 A888     		ldrh	r0, [r5, #4]	@ unaligned
 924:Dsp/widget/wgt_core/UI_Controller.c ****             block_end_CoordX = (Obj->cur_val / (float)Obj->range) * Obj->width;
 3631              		.loc 1 924 50 view .LVU1044
 3632 013a 3044     		add	r0, r0, r6
 3633 013c 80B2     		uxth	r0, r0
 924:Dsp/widget/wgt_core/UI_Controller.c ****             block_end_CoordX = (Obj->cur_val / (float)Obj->range) * Obj->width;
 3634              		.loc 1 924 68 view .LVU1045
 3635 013e 0130     		adds	r0, r0, #1
 924:Dsp/widget/wgt_core/UI_Controller.c ****             block_end_CoordX = (Obj->cur_val / (float)Obj->range) * Obj->width;
 3636              		.loc 1 924 32 view .LVU1046
 3637 0140 00B2     		sxth	r0, r0
 3638              	.LVL327:
 925:Dsp/widget/wgt_core/UI_Controller.c ****         }
 3639              		.loc 1 925 13 is_stmt 1 view .LVU1047
 925:Dsp/widget/wgt_core/UI_Controller.c ****         }
 3640              		.loc 1 925 48 is_stmt 0 view .LVU1048
 3641 0142 07EE903A 		vmov	s15, r3	@ int
 3642 0146 B8EEE77A 		vcvt.f32.s32	s14, s15
 925:Dsp/widget/wgt_core/UI_Controller.c ****         }
 3643              		.loc 1 925 46 view .LVU1049
 3644 014a 07EE904A 		vmov	s15, r4	@ int
 3645 014e F8EEE76A 		vcvt.f32.s32	s13, s15
 3646 0152 86EE876A 		vdiv.f32	s12, s13, s14
 925:Dsp/widget/wgt_core/UI_Controller.c ****         }
 3647              		.loc 1 925 72 view .LVU1050
 3648 0156 95F82030 		ldrb	r3, [r5, #32]	@ zero_extendqisi2
 3649 015a 07EE903A 		vmov	s15, r3	@ int
 925:Dsp/widget/wgt_core/UI_Controller.c ****         }
 3650              		.loc 1 925 67 view .LVU1051
 3651 015e F8EEE77A 		vcvt.f32.s32	s15, s15
 3652 0162 67EE867A 		vmul.f32	s15, s15, s12
 925:Dsp/widget/wgt_core/UI_Controller.c ****         }
 3653              		.loc 1 925 30 view .LVU1052
 3654 0166 FDEEE77A 		vcvt.s32.f32	s15, s15
 3655 016a 17EE903A 		vmov	r3, s15	@ int
 3656 016e 1AB2     		sxth	r2, r3
 3657              	.LVL328:
 925:Dsp/widget/wgt_core/UI_Controller.c ****         }
 3658              		.loc 1 925 30 view .LVU1053
 3659 0170 D1E7     		b	.L294
 3660              	.LVL329:
 3661              	.L300:
 874:Dsp/widget/wgt_core/UI_Controller.c ****     int16_t block_end_CoordY = 0;
 3662              		.loc 1 874 13 view .LVU1054
 3663 0172 0022     		movs	r2, #0
 872:Dsp/widget/wgt_core/UI_Controller.c ****     int16_t block_start_CoordY = 0;
 3664              		.loc 1 872 13 view .LVU1055
 3665 0174 1046     		mov	r0, r2
 3666 0176 CEE7     		b	.L294
ARM GAS  /var/folders/lx/hc4sn_b53233_zkc9xbbl97r0000gp/T//cc46Bl7B.s 			page 93


 3667              	.LVL330:
 3668              	.L298:
 933:Dsp/widget/wgt_core/UI_Controller.c **** }
 3669              		.loc 1 933 12 view .LVU1056
 3670 0178 0120     		movs	r0, #1
 3671 017a 5AE7     		b	.L291
 3672              	.L299:
 931:Dsp/widget/wgt_core/UI_Controller.c **** 
 3673              		.loc 1 931 16 view .LVU1057
 3674 017c 0020     		movs	r0, #0
 3675 017e 58E7     		b	.L291
 3676              	.L306:
 3677              		.align	2
 3678              	.L305:
 3679 0180 00000000 		.word	.LANCHOR2
 3680 0184 00000000 		.word	.LANCHOR0
 3681              		.cfi_endproc
 3682              	.LFE36:
 3684              		.section	.rodata.UI_ProcessBar_DspLoadBar.str1.4,"aMS",%progbits,1
 3685              		.align	2
 3686              	.LC2:
 3687 0000 4F6E2050 		.ascii	"On Process : %d%%\000"
 3687      726F6365 
 3687      7373203A 
 3687      20256425 
 3687      2500
 3688              		.section	.text.UI_ProcessBar_DspLoadBar,"ax",%progbits
 3689              		.align	1
 3690              		.syntax unified
 3691              		.thumb
 3692              		.thumb_func
 3693              		.fpu fpv4-sp-d16
 3695              	UI_ProcessBar_DspLoadBar:
 3696              	.LVL331:
 3697              	.LFB34:
 793:Dsp/widget/wgt_core/UI_Controller.c ****     uint8_t frame_radius = 0;
 3698              		.loc 1 793 1 is_stmt 1 view -0
 3699              		.cfi_startproc
 3700              		@ args = 0, pretend = 0, frame = 32
 3701              		@ frame_needed = 0, uses_anonymous_args = 0
 794:Dsp/widget/wgt_core/UI_Controller.c ****     int16_t Str_CoordX = 0;
 3702              		.loc 1 794 5 view .LVU1059
 795:Dsp/widget/wgt_core/UI_Controller.c ****     int16_t Str_CoordY = 0;
 3703              		.loc 1 795 5 view .LVU1060
 796:Dsp/widget/wgt_core/UI_Controller.c ****     float Pcnt_Val = 0;
 3704              		.loc 1 796 5 view .LVU1061
 797:Dsp/widget/wgt_core/UI_Controller.c ****     char dsp_str[20];
 3705              		.loc 1 797 5 view .LVU1062
 798:Dsp/widget/wgt_core/UI_Controller.c **** 
 3706              		.loc 1 798 5 view .LVU1063
 800:Dsp/widget/wgt_core/UI_Controller.c ****         return false;
 3707              		.loc 1 800 5 view .LVU1064
 800:Dsp/widget/wgt_core/UI_Controller.c ****         return false;
 3708              		.loc 1 800 8 is_stmt 0 view .LVU1065
 3709 0000 0028     		cmp	r0, #0
 3710 0002 77D0     		beq	.L309
 793:Dsp/widget/wgt_core/UI_Controller.c ****     uint8_t frame_radius = 0;
ARM GAS  /var/folders/lx/hc4sn_b53233_zkc9xbbl97r0000gp/T//cc46Bl7B.s 			page 94


 3711              		.loc 1 793 1 view .LVU1066
 3712 0004 2DE9F04F 		push	{r4, r5, r6, r7, r8, r9, r10, fp, lr}
 3713              	.LCFI68:
 3714              		.cfi_def_cfa_offset 36
 3715              		.cfi_offset 4, -36
 3716              		.cfi_offset 5, -32
 3717              		.cfi_offset 6, -28
 3718              		.cfi_offset 7, -24
 3719              		.cfi_offset 8, -20
 3720              		.cfi_offset 9, -16
 3721              		.cfi_offset 10, -12
 3722              		.cfi_offset 11, -8
 3723              		.cfi_offset 14, -4
 3724 0008 2DED028B 		vpush.64	{d8}
 3725              	.LCFI69:
 3726              		.cfi_def_cfa_offset 44
 3727              		.cfi_offset 80, -44
 3728              		.cfi_offset 81, -40
 3729 000c 8DB0     		sub	sp, sp, #52
 3730              	.LCFI70:
 3731              		.cfi_def_cfa_offset 96
 3732 000e 0646     		mov	r6, r0
 803:Dsp/widget/wgt_core/UI_Controller.c **** 
 3733              		.loc 1 803 5 is_stmt 1 view .LVU1067
 3734 0010 0023     		movs	r3, #0
 3735 0012 0793     		str	r3, [sp, #28]
 3736 0014 0893     		str	r3, [sp, #32]
 3737 0016 0993     		str	r3, [sp, #36]
 3738 0018 0A93     		str	r3, [sp, #40]
 3739 001a 0B93     		str	r3, [sp, #44]
 805:Dsp/widget/wgt_core/UI_Controller.c ****     sprintf(dsp_str, "On Process : %d%%", (uint8_t)(Pcnt_Val * 100));
 3740              		.loc 1 805 5 view .LVU1068
 805:Dsp/widget/wgt_core/UI_Controller.c ****     sprintf(dsp_str, "On Process : %d%%", (uint8_t)(Pcnt_Val * 100));
 3741              		.loc 1 805 20 is_stmt 0 view .LVU1069
 3742 001c C369     		ldr	r3, [r0, #28]	@ unaligned
 3743 001e 07EE103A 		vmov	s14, r3	@ int
 805:Dsp/widget/wgt_core/UI_Controller.c ****     sprintf(dsp_str, "On Process : %d%%", (uint8_t)(Pcnt_Val * 100));
 3744              		.loc 1 805 30 view .LVU1070
 3745 0022 B8EEC77A 		vcvt.f32.s32	s14, s14
 805:Dsp/widget/wgt_core/UI_Controller.c ****     sprintf(dsp_str, "On Process : %d%%", (uint8_t)(Pcnt_Val * 100));
 3746              		.loc 1 805 42 view .LVU1071
 3747 0026 8369     		ldr	r3, [r0, #24]	@ unaligned
 3748 0028 07EE903A 		vmov	s15, r3	@ int
 805:Dsp/widget/wgt_core/UI_Controller.c ****     sprintf(dsp_str, "On Process : %d%%", (uint8_t)(Pcnt_Val * 100));
 3749              		.loc 1 805 32 view .LVU1072
 3750 002c F8EEE77A 		vcvt.f32.s32	s15, s15
 805:Dsp/widget/wgt_core/UI_Controller.c ****     sprintf(dsp_str, "On Process : %d%%", (uint8_t)(Pcnt_Val * 100));
 3751              		.loc 1 805 14 view .LVU1073
 3752 0030 87EE278A 		vdiv.f32	s16, s14, s15
 3753              	.LVL332:
 806:Dsp/widget/wgt_core/UI_Controller.c **** 
 3754              		.loc 1 806 5 is_stmt 1 view .LVU1074
 806:Dsp/widget/wgt_core/UI_Controller.c **** 
 3755              		.loc 1 806 62 is_stmt 0 view .LVU1075
 3756 0034 DFED307A 		vldr.32	s15, .L314
 3757 0038 68EE277A 		vmul.f32	s15, s16, s15
 806:Dsp/widget/wgt_core/UI_Controller.c **** 
ARM GAS  /var/folders/lx/hc4sn_b53233_zkc9xbbl97r0000gp/T//cc46Bl7B.s 			page 95


 3758              		.loc 1 806 43 view .LVU1076
 3759 003c FCEEE77A 		vcvt.u32.f32	s15, s15
 3760 0040 CDED057A 		vstr.32	s15, [sp, #20]	@ int
 806:Dsp/widget/wgt_core/UI_Controller.c **** 
 3761              		.loc 1 806 5 view .LVU1077
 3762 0044 9DF81420 		ldrb	r2, [sp, #20]	@ zero_extendqisi2
 3763 0048 2C49     		ldr	r1, .L314+4
 3764 004a 07A8     		add	r0, sp, #28
 3765              	.LVL333:
 806:Dsp/widget/wgt_core/UI_Controller.c **** 
 3766              		.loc 1 806 5 view .LVU1078
 3767 004c FFF7FEFF 		bl	sprintf
 3768              	.LVL334:
 808:Dsp/widget/wgt_core/UI_Controller.c ****     Str_CoordY = Obj->Gen_Data.y - base_font - 2;
 3769              		.loc 1 808 5 is_stmt 1 view .LVU1079
 808:Dsp/widget/wgt_core/UI_Controller.c ****     Str_CoordY = Obj->Gen_Data.y - base_font - 2;
 3770              		.loc 1 808 31 is_stmt 0 view .LVU1080
 3771 0050 B6F904B0 		ldrsh	fp, [r6, #4]	@ unaligned
 3772 0054 0FFA8BFA 		sxth	r10, fp
 3773 0058 1FFA8BFB 		uxth	fp, fp
 808:Dsp/widget/wgt_core/UI_Controller.c ****     Str_CoordY = Obj->Gen_Data.y - base_font - 2;
 3774              		.loc 1 808 40 view .LVU1081
 3775 005c 96F82090 		ldrb	r9, [r6, #32]	@ zero_extendqisi2
 808:Dsp/widget/wgt_core/UI_Controller.c ****     Str_CoordY = Obj->Gen_Data.y - base_font - 2;
 3776              		.loc 1 808 51 view .LVU1082
 3777 0060 07A8     		add	r0, sp, #28
 3778 0062 FFF7FEFF 		bl	strlen
 3779              	.LVL335:
 808:Dsp/widget/wgt_core/UI_Controller.c ****     Str_CoordY = Obj->Gen_Data.y - base_font - 2;
 3780              		.loc 1 808 67 view .LVU1083
 3781 0066 00EB4000 		add	r0, r0, r0, lsl #1
 808:Dsp/widget/wgt_core/UI_Controller.c ****     Str_CoordY = Obj->Gen_Data.y - base_font - 2;
 3782              		.loc 1 808 48 view .LVU1084
 3783 006a A9EB4000 		sub	r0, r9, r0, lsl #1
 808:Dsp/widget/wgt_core/UI_Controller.c ****     Str_CoordY = Obj->Gen_Data.y - base_font - 2;
 3784              		.loc 1 808 34 view .LVU1085
 3785 006e 0BEB500B 		add	fp, fp, r0, lsr #1
 808:Dsp/widget/wgt_core/UI_Controller.c ****     Str_CoordY = Obj->Gen_Data.y - base_font - 2;
 3786              		.loc 1 808 16 view .LVU1086
 3787 0072 0FFA8BFB 		sxth	fp, fp
 3788              	.LVL336:
 809:Dsp/widget/wgt_core/UI_Controller.c **** 
 3789              		.loc 1 809 5 is_stmt 1 view .LVU1087
 809:Dsp/widget/wgt_core/UI_Controller.c **** 
 3790              		.loc 1 809 31 is_stmt 0 view .LVU1088
 3791 0076 B6F90610 		ldrsh	r1, [r6, #6]	@ unaligned
 3792 007a 8CB2     		uxth	r4, r1
 809:Dsp/widget/wgt_core/UI_Controller.c **** 
 3793              		.loc 1 809 34 view .LVU1089
 3794 007c DFF88480 		ldr	r8, .L314+12
 3795 0080 98F80030 		ldrb	r3, [r8]	@ zero_extendqisi2
 3796 0084 E41A     		subs	r4, r4, r3
 3797 0086 A4B2     		uxth	r4, r4
 809:Dsp/widget/wgt_core/UI_Controller.c **** 
 3798              		.loc 1 809 46 view .LVU1090
 3799 0088 023C     		subs	r4, r4, #2
 809:Dsp/widget/wgt_core/UI_Controller.c **** 
ARM GAS  /var/folders/lx/hc4sn_b53233_zkc9xbbl97r0000gp/T//cc46Bl7B.s 			page 96


 3800              		.loc 1 809 16 view .LVU1091
 3801 008a 23B2     		sxth	r3, r4
 3802 008c 0593     		str	r3, [sp, #20]
 3803              	.LVL337:
 812:Dsp/widget/wgt_core/UI_Controller.c ****     UI_DspInterface.draw_str(base_font, dsp_str, Str_CoordX, Str_CoordY, true);
 3804              		.loc 1 812 5 is_stmt 1 view .LVU1092
 812:Dsp/widget/wgt_core/UI_Controller.c ****     UI_DspInterface.draw_str(base_font, dsp_str, Str_CoordX, Str_CoordY, true);
 3805              		.loc 1 812 20 is_stmt 0 view .LVU1093
 3806 008e 1C4F     		ldr	r7, .L314+8
 812:Dsp/widget/wgt_core/UI_Controller.c ****     UI_DspInterface.draw_str(base_font, dsp_str, Str_CoordX, Str_CoordY, true);
 3807              		.loc 1 812 5 view .LVU1094
 3808 0090 0125     		movs	r5, #1
 3809 0092 0295     		str	r5, [sp, #8]
 3810 0094 0195     		str	r5, [sp, #4]
 3811 0096 0223     		movs	r3, #2
 3812 0098 0093     		str	r3, [sp]
 3813 009a 0523     		movs	r3, #5
 3814 009c 4A46     		mov	r2, r9
 3815 009e 09B2     		sxth	r1, r1
 3816 00a0 5046     		mov	r0, r10
 3817 00a2 7C69     		ldr	r4, [r7, #20]
 3818 00a4 A047     		blx	r4
 3819              	.LVL338:
 813:Dsp/widget/wgt_core/UI_Controller.c ****     UI_DspInterface.draw_line_h(Obj->Gen_Data.x + 2, Obj->Gen_Data.y + 2, Pcnt_Val * (Obj->width - 
 3820              		.loc 1 813 5 is_stmt 1 view .LVU1095
 3821 00a6 0095     		str	r5, [sp]
 3822 00a8 059B     		ldr	r3, [sp, #20]
 3823 00aa 5A46     		mov	r2, fp
 3824 00ac 07A9     		add	r1, sp, #28
 3825 00ae 98F80000 		ldrb	r0, [r8]	@ zero_extendqisi2
 3826 00b2 3C68     		ldr	r4, [r7]
 3827 00b4 A047     		blx	r4
 3828              	.LVL339:
 814:Dsp/widget/wgt_core/UI_Controller.c **** 
 3829              		.loc 1 814 5 view .LVU1096
 814:Dsp/widget/wgt_core/UI_Controller.c **** 
 3830              		.loc 1 814 20 is_stmt 0 view .LVU1097
 3831 00b6 FC68     		ldr	r4, [r7, #12]
 814:Dsp/widget/wgt_core/UI_Controller.c **** 
 3832              		.loc 1 814 46 view .LVU1098
 3833 00b8 B088     		ldrh	r0, [r6, #4]	@ unaligned
 814:Dsp/widget/wgt_core/UI_Controller.c **** 
 3834              		.loc 1 814 49 view .LVU1099
 3835 00ba 0230     		adds	r0, r0, #2
 814:Dsp/widget/wgt_core/UI_Controller.c **** 
 3836              		.loc 1 814 67 view .LVU1100
 3837 00bc F188     		ldrh	r1, [r6, #6]	@ unaligned
 814:Dsp/widget/wgt_core/UI_Controller.c **** 
 3838              		.loc 1 814 70 view .LVU1101
 3839 00be 0231     		adds	r1, r1, #2
 814:Dsp/widget/wgt_core/UI_Controller.c **** 
 3840              		.loc 1 814 90 view .LVU1102
 3841 00c0 96F82030 		ldrb	r3, [r6, #32]	@ zero_extendqisi2
 814:Dsp/widget/wgt_core/UI_Controller.c **** 
 3842              		.loc 1 814 98 view .LVU1103
 3843 00c4 063B     		subs	r3, r3, #6
 3844 00c6 07EE903A 		vmov	s15, r3	@ int
ARM GAS  /var/folders/lx/hc4sn_b53233_zkc9xbbl97r0000gp/T//cc46Bl7B.s 			page 97


 814:Dsp/widget/wgt_core/UI_Controller.c **** 
 3845              		.loc 1 814 84 view .LVU1104
 3846 00ca F8EEE77A 		vcvt.f32.s32	s15, s15
 3847 00ce 67EE887A 		vmul.f32	s15, s15, s16
 814:Dsp/widget/wgt_core/UI_Controller.c **** 
 3848              		.loc 1 814 5 view .LVU1105
 3849 00d2 FCEEE77A 		vcvt.u32.f32	s15, s15
 3850 00d6 CDED057A 		vstr.32	s15, [sp, #20]	@ int
 3851              	.LVL340:
 814:Dsp/widget/wgt_core/UI_Controller.c **** 
 3852              		.loc 1 814 5 view .LVU1106
 3853 00da 0095     		str	r5, [sp]
 3854 00dc 2B46     		mov	r3, r5
 3855 00de 9DF81420 		ldrb	r2, [sp, #20]	@ zero_extendqisi2
 3856 00e2 09B2     		sxth	r1, r1
 3857 00e4 00B2     		sxth	r0, r0
 3858 00e6 A047     		blx	r4
 3859              	.LVL341:
 816:Dsp/widget/wgt_core/UI_Controller.c **** }
 3860              		.loc 1 816 5 is_stmt 1 view .LVU1107
 816:Dsp/widget/wgt_core/UI_Controller.c **** }
 3861              		.loc 1 816 12 is_stmt 0 view .LVU1108
 3862 00e8 2846     		mov	r0, r5
 817:Dsp/widget/wgt_core/UI_Controller.c **** 
 3863              		.loc 1 817 1 view .LVU1109
 3864 00ea 0DB0     		add	sp, sp, #52
 3865              	.LCFI71:
 3866              		.cfi_def_cfa_offset 44
 3867              		@ sp needed
 3868 00ec BDEC028B 		vldm	sp!, {d8}
 3869              	.LCFI72:
 3870              		.cfi_restore 80
 3871              		.cfi_restore 81
 3872              		.cfi_def_cfa_offset 36
 3873              	.LVL342:
 817:Dsp/widget/wgt_core/UI_Controller.c **** 
 3874              		.loc 1 817 1 view .LVU1110
 3875 00f0 BDE8F08F 		pop	{r4, r5, r6, r7, r8, r9, r10, fp, pc}
 3876              	.LVL343:
 3877              	.L309:
 3878              	.LCFI73:
 3879              		.cfi_def_cfa_offset 0
 3880              		.cfi_restore 4
 3881              		.cfi_restore 5
 3882              		.cfi_restore 6
 3883              		.cfi_restore 7
 3884              		.cfi_restore 8
 3885              		.cfi_restore 9
 3886              		.cfi_restore 10
 3887              		.cfi_restore 11
 3888              		.cfi_restore 14
 801:Dsp/widget/wgt_core/UI_Controller.c **** 
 3889              		.loc 1 801 16 view .LVU1111
 3890 00f4 0020     		movs	r0, #0
 3891              	.LVL344:
 817:Dsp/widget/wgt_core/UI_Controller.c **** 
 3892              		.loc 1 817 1 view .LVU1112
ARM GAS  /var/folders/lx/hc4sn_b53233_zkc9xbbl97r0000gp/T//cc46Bl7B.s 			page 98


 3893 00f6 7047     		bx	lr
 3894              	.L315:
 3895              		.align	2
 3896              	.L314:
 3897 00f8 0000C842 		.word	1120403456
 3898 00fc 00000000 		.word	.LC2
 3899 0100 00000000 		.word	.LANCHOR0
 3900 0104 00000000 		.word	.LANCHOR2
 3901              		.cfi_endproc
 3902              	.LFE34:
 3904              		.section	.text.UI_ProcessBar_Ctl,"ax",%progbits
 3905              		.align	1
 3906              		.syntax unified
 3907              		.thumb
 3908              		.thumb_func
 3909              		.fpu fpv4-sp-d16
 3911              	UI_ProcessBar_Ctl:
 3912              	.LVL345:
 3913              	.LFB37:
 937:Dsp/widget/wgt_core/UI_Controller.c ****     char dig_str[3];
 3914              		.loc 1 937 1 is_stmt 1 view -0
 3915              		.cfi_startproc
 3916              		@ args = 0, pretend = 0, frame = 8
 3917              		@ frame_needed = 0, uses_anonymous_args = 0
 937:Dsp/widget/wgt_core/UI_Controller.c ****     char dig_str[3];
 3918              		.loc 1 937 1 is_stmt 0 view .LVU1114
 3919 0000 00B5     		push	{lr}
 3920              	.LCFI74:
 3921              		.cfi_def_cfa_offset 4
 3922              		.cfi_offset 14, -4
 3923 0002 83B0     		sub	sp, sp, #12
 3924              	.LCFI75:
 3925              		.cfi_def_cfa_offset 16
 938:Dsp/widget/wgt_core/UI_Controller.c ****     memset(dig_str, NULL, 3);
 3926              		.loc 1 938 5 is_stmt 1 view .LVU1115
 939:Dsp/widget/wgt_core/UI_Controller.c **** 
 3927              		.loc 1 939 5 view .LVU1116
 3928 0004 0023     		movs	r3, #0
 3929 0006 ADF80430 		strh	r3, [sp, #4]	@ movhi
 3930 000a 8DF80630 		strb	r3, [sp, #6]
 941:Dsp/widget/wgt_core/UI_Controller.c ****         (UI_DspInterface.draw_str == NULL))
 3931              		.loc 1 941 5 view .LVU1117
 941:Dsp/widget/wgt_core/UI_Controller.c ****         (UI_DspInterface.draw_str == NULL))
 3932              		.loc 1 941 25 is_stmt 0 view .LVU1118
 3933 000e 0F4B     		ldr	r3, .L325
 3934 0010 5B69     		ldr	r3, [r3, #20]
 941:Dsp/widget/wgt_core/UI_Controller.c ****         (UI_DspInterface.draw_str == NULL))
 3935              		.loc 1 941 8 view .LVU1119
 3936 0012 B3B1     		cbz	r3, .L320
 942:Dsp/widget/wgt_core/UI_Controller.c ****         return false;
 3937              		.loc 1 942 25 discriminator 1 view .LVU1120
 3938 0014 0D4B     		ldr	r3, .L325
 3939 0016 1B68     		ldr	r3, [r3]
 941:Dsp/widget/wgt_core/UI_Controller.c ****         (UI_DspInterface.draw_str == NULL))
 3940              		.loc 1 941 57 discriminator 1 view .LVU1121
 3941 0018 ABB1     		cbz	r3, .L321
 945:Dsp/widget/wgt_core/UI_Controller.c ****     {
ARM GAS  /var/folders/lx/hc4sn_b53233_zkc9xbbl97r0000gp/T//cc46Bl7B.s 			page 99


 3942              		.loc 1 945 5 is_stmt 1 view .LVU1122
 945:Dsp/widget/wgt_core/UI_Controller.c ****     {
 3943              		.loc 1 945 16 is_stmt 0 view .LVU1123
 3944 001a 90F82230 		ldrb	r3, [r0, #34]	@ zero_extendqisi2
 945:Dsp/widget/wgt_core/UI_Controller.c ****     {
 3945              		.loc 1 945 5 view .LVU1124
 3946 001e 012B     		cmp	r3, #1
 3947 0020 09D0     		beq	.L318
 3948 0022 022B     		cmp	r3, #2
 3949 0024 0AD0     		beq	.L319
 3950 0026 1BB1     		cbz	r3, .L324
 3951 0028 0020     		movs	r0, #0
 3952              	.LVL346:
 3953              	.L317:
 959:Dsp/widget/wgt_core/UI_Controller.c **** 
 3954              		.loc 1 959 1 view .LVU1125
 3955 002a 03B0     		add	sp, sp, #12
 3956              	.LCFI76:
 3957              		.cfi_remember_state
 3958              		.cfi_def_cfa_offset 4
 3959              		@ sp needed
 3960 002c 5DF804FB 		ldr	pc, [sp], #4
 3961              	.LVL347:
 3962              	.L324:
 3963              	.LCFI77:
 3964              		.cfi_restore_state
 948:Dsp/widget/wgt_core/UI_Controller.c **** 
 3965              		.loc 1 948 9 is_stmt 1 view .LVU1126
 948:Dsp/widget/wgt_core/UI_Controller.c **** 
 3966              		.loc 1 948 16 is_stmt 0 view .LVU1127
 3967 0030 FFF7FEFF 		bl	UI_ProcessBar_DspLoadBar
 3968              	.LVL348:
 948:Dsp/widget/wgt_core/UI_Controller.c **** 
 3969              		.loc 1 948 16 view .LVU1128
 3970 0034 F9E7     		b	.L317
 3971              	.LVL349:
 3972              	.L318:
 951:Dsp/widget/wgt_core/UI_Controller.c **** 
 3973              		.loc 1 951 9 is_stmt 1 view .LVU1129
 951:Dsp/widget/wgt_core/UI_Controller.c **** 
 3974              		.loc 1 951 16 is_stmt 0 view .LVU1130
 3975 0036 FFF7FEFF 		bl	UI_ProcessBar_DspDotBar
 3976              	.LVL350:
 951:Dsp/widget/wgt_core/UI_Controller.c **** 
 3977              		.loc 1 951 16 view .LVU1131
 3978 003a F6E7     		b	.L317
 3979              	.LVL351:
 3980              	.L319:
 954:Dsp/widget/wgt_core/UI_Controller.c **** 
 3981              		.loc 1 954 9 is_stmt 1 view .LVU1132
 954:Dsp/widget/wgt_core/UI_Controller.c **** 
 3982              		.loc 1 954 16 is_stmt 0 view .LVU1133
 3983 003c FFF7FEFF 		bl	UI_ProcessBar_DspFrameBar
 3984              	.LVL352:
 954:Dsp/widget/wgt_core/UI_Controller.c **** 
 3985              		.loc 1 954 16 view .LVU1134
 3986 0040 F3E7     		b	.L317
ARM GAS  /var/folders/lx/hc4sn_b53233_zkc9xbbl97r0000gp/T//cc46Bl7B.s 			page 100


 3987              	.LVL353:
 3988              	.L320:
 943:Dsp/widget/wgt_core/UI_Controller.c **** 
 3989              		.loc 1 943 16 view .LVU1135
 3990 0042 0020     		movs	r0, #0
 3991              	.LVL354:
 943:Dsp/widget/wgt_core/UI_Controller.c **** 
 3992              		.loc 1 943 16 view .LVU1136
 3993 0044 F1E7     		b	.L317
 3994              	.LVL355:
 3995              	.L321:
 943:Dsp/widget/wgt_core/UI_Controller.c **** 
 3996              		.loc 1 943 16 view .LVU1137
 3997 0046 0020     		movs	r0, #0
 3998              	.LVL356:
 943:Dsp/widget/wgt_core/UI_Controller.c **** 
 3999              		.loc 1 943 16 view .LVU1138
 4000 0048 EFE7     		b	.L317
 4001              	.L326:
 4002 004a 00BF     		.align	2
 4003              	.L325:
 4004 004c 00000000 		.word	.LANCHOR0
 4005              		.cfi_endproc
 4006              	.LFE37:
 4008              		.section	.text.UI_Drop_CreateDropItem,"ax",%progbits
 4009              		.align	1
 4010              		.syntax unified
 4011              		.thumb
 4012              		.thumb_func
 4013              		.fpu fpv4-sp-d16
 4015              	UI_Drop_CreateDropItem:
 4016              	.LVL357:
 4017              	.LFB40:
 985:Dsp/widget/wgt_core/UI_Controller.c ****     item_obj *item_tmp = NULL;
 4018              		.loc 1 985 1 is_stmt 1 view -0
 4019              		.cfi_startproc
 4020              		@ args = 0, pretend = 0, frame = 0
 4021              		@ frame_needed = 0, uses_anonymous_args = 0
 985:Dsp/widget/wgt_core/UI_Controller.c ****     item_obj *item_tmp = NULL;
 4022              		.loc 1 985 1 is_stmt 0 view .LVU1140
 4023 0000 2DE9F843 		push	{r3, r4, r5, r6, r7, r8, r9, lr}
 4024              	.LCFI78:
 4025              		.cfi_def_cfa_offset 32
 4026              		.cfi_offset 3, -32
 4027              		.cfi_offset 4, -28
 4028              		.cfi_offset 5, -24
 4029              		.cfi_offset 6, -20
 4030              		.cfi_offset 7, -16
 4031              		.cfi_offset 8, -12
 4032              		.cfi_offset 9, -8
 4033              		.cfi_offset 14, -4
 4034 0004 0546     		mov	r5, r0
 4035 0006 0E46     		mov	r6, r1
 4036 0008 1746     		mov	r7, r2
 4037 000a 9846     		mov	r8, r3
 986:Dsp/widget/wgt_core/UI_Controller.c ****     UI_DropItemDataObj_TypeDef *itemdata_tmp = NULL;
 4038              		.loc 1 986 5 is_stmt 1 view .LVU1141
ARM GAS  /var/folders/lx/hc4sn_b53233_zkc9xbbl97r0000gp/T//cc46Bl7B.s 			page 101


 4039              	.LVL358:
 987:Dsp/widget/wgt_core/UI_Controller.c **** 
 4040              		.loc 1 987 5 view .LVU1142
 989:Dsp/widget/wgt_core/UI_Controller.c ****     item_tmp = (item_obj *)MMU_malloc(sizeof(item_obj));
 4041              		.loc 1 989 5 view .LVU1143
 989:Dsp/widget/wgt_core/UI_Controller.c ****     item_tmp = (item_obj *)MMU_malloc(sizeof(item_obj));
 4042              		.loc 1 989 50 is_stmt 0 view .LVU1144
 4043 000c 0D20     		movs	r0, #13
 4044              	.LVL359:
 989:Dsp/widget/wgt_core/UI_Controller.c ****     item_tmp = (item_obj *)MMU_malloc(sizeof(item_obj));
 4045              		.loc 1 989 50 view .LVU1145
 4046 000e FFF7FEFF 		bl	MMU_malloc
 4047              	.LVL360:
 989:Dsp/widget/wgt_core/UI_Controller.c ****     item_tmp = (item_obj *)MMU_malloc(sizeof(item_obj));
 4048              		.loc 1 989 50 view .LVU1146
 4049 0012 0446     		mov	r4, r0
 4050              	.LVL361:
 990:Dsp/widget/wgt_core/UI_Controller.c **** 
 4051              		.loc 1 990 5 is_stmt 1 view .LVU1147
 990:Dsp/widget/wgt_core/UI_Controller.c **** 
 4052              		.loc 1 990 28 is_stmt 0 view .LVU1148
 4053 0014 1420     		movs	r0, #20
 4054              	.LVL362:
 990:Dsp/widget/wgt_core/UI_Controller.c **** 
 4055              		.loc 1 990 28 view .LVU1149
 4056 0016 FFF7FEFF 		bl	MMU_malloc
 4057              	.LVL363:
 992:Dsp/widget/wgt_core/UI_Controller.c ****         return NULL;
 4058              		.loc 1 992 5 is_stmt 1 view .LVU1150
 992:Dsp/widget/wgt_core/UI_Controller.c ****         return NULL;
 4059              		.loc 1 992 8 is_stmt 0 view .LVU1151
 4060 001a 70B1     		cbz	r0, .L329
 4061 001c 8146     		mov	r9, r0
 992:Dsp/widget/wgt_core/UI_Controller.c ****         return NULL;
 4062              		.loc 1 992 28 discriminator 1 view .LVU1152
 4063 001e 7CB1     		cbz	r4, .L330
 995:Dsp/widget/wgt_core/UI_Controller.c ****     itemdata_tmp->data = data;
 4064              		.loc 1 995 5 is_stmt 1 view .LVU1153
 995:Dsp/widget/wgt_core/UI_Controller.c ****     itemdata_tmp->data = data;
 4065              		.loc 1 995 28 is_stmt 0 view .LVU1154
 4066 0020 C4F80980 		str	r8, [r4, #9]	@ unaligned
 996:Dsp/widget/wgt_core/UI_Controller.c ****     itemdata_tmp->describe = item_desc;
 4067              		.loc 1 996 5 is_stmt 1 view .LVU1155
 996:Dsp/widget/wgt_core/UI_Controller.c ****     itemdata_tmp->describe = item_desc;
 4068              		.loc 1 996 24 is_stmt 0 view .LVU1156
 4069 0024 C4F80570 		str	r7, [r4, #5]	@ unaligned
 997:Dsp/widget/wgt_core/UI_Controller.c ****     itemdata_tmp->id = id;
 4070              		.loc 1 997 5 is_stmt 1 view .LVU1157
 997:Dsp/widget/wgt_core/UI_Controller.c ****     itemdata_tmp->id = id;
 4071              		.loc 1 997 28 is_stmt 0 view .LVU1158
 4072 0028 C4F80160 		str	r6, [r4, #1]	@ unaligned
 998:Dsp/widget/wgt_core/UI_Controller.c **** 
 4073              		.loc 1 998 5 is_stmt 1 view .LVU1159
 998:Dsp/widget/wgt_core/UI_Controller.c **** 
 4074              		.loc 1 998 22 is_stmt 0 view .LVU1160
 4075 002c 2570     		strb	r5, [r4]
1000:Dsp/widget/wgt_core/UI_Controller.c **** 
ARM GAS  /var/folders/lx/hc4sn_b53233_zkc9xbbl97r0000gp/T//cc46Bl7B.s 			page 102


 4076              		.loc 1 1000 5 is_stmt 1 view .LVU1161
 4077 002e 2146     		mov	r1, r4
 4078 0030 FFF7FEFF 		bl	List_ItemInit
 4079              	.LVL364:
1002:Dsp/widget/wgt_core/UI_Controller.c **** }
 4080              		.loc 1 1002 5 view .LVU1162
 4081              	.L327:
1003:Dsp/widget/wgt_core/UI_Controller.c **** 
 4082              		.loc 1 1003 1 is_stmt 0 view .LVU1163
 4083 0034 4846     		mov	r0, r9
 4084 0036 BDE8F883 		pop	{r3, r4, r5, r6, r7, r8, r9, pc}
 4085              	.LVL365:
 4086              	.L329:
 993:Dsp/widget/wgt_core/UI_Controller.c **** 
 4087              		.loc 1 993 16 view .LVU1164
 4088 003a 4FF00009 		mov	r9, #0
 4089 003e F9E7     		b	.L327
 4090              	.L330:
 993:Dsp/widget/wgt_core/UI_Controller.c **** 
 4091              		.loc 1 993 16 view .LVU1165
 4092 0040 4FF00009 		mov	r9, #0
 4093 0044 F6E7     		b	.L327
 4094              		.cfi_endproc
 4095              	.LFE40:
 4097              		.section	.text.UI_Drop_AddDropItem,"ax",%progbits
 4098              		.align	1
 4099              		.syntax unified
 4100              		.thumb
 4101              		.thumb_func
 4102              		.fpu fpv4-sp-d16
 4104              	UI_Drop_AddDropItem:
 4105              	.LVL366:
 4106              	.LFB41:
1006:Dsp/widget/wgt_core/UI_Controller.c ****     item_obj *item_temp = NULL;
 4107              		.loc 1 1006 1 is_stmt 1 view -0
 4108              		.cfi_startproc
 4109              		@ args = 0, pretend = 0, frame = 0
 4110              		@ frame_needed = 0, uses_anonymous_args = 0
1007:Dsp/widget/wgt_core/UI_Controller.c **** 
 4111              		.loc 1 1007 5 view .LVU1167
1009:Dsp/widget/wgt_core/UI_Controller.c ****         return false;
 4112              		.loc 1 1009 5 view .LVU1168
1009:Dsp/widget/wgt_core/UI_Controller.c ****         return false;
 4113              		.loc 1 1009 8 is_stmt 0 view .LVU1169
 4114 0000 D0B1     		cbz	r0, .L336
1006:Dsp/widget/wgt_core/UI_Controller.c ****     item_obj *item_temp = NULL;
 4115              		.loc 1 1006 1 view .LVU1170
 4116 0002 10B5     		push	{r4, lr}
 4117              	.LCFI79:
 4118              		.cfi_def_cfa_offset 8
 4119              		.cfi_offset 4, -8
 4120              		.cfi_offset 14, -4
 4121 0004 0446     		mov	r4, r0
1012:Dsp/widget/wgt_core/UI_Controller.c **** 
 4122              		.loc 1 1012 5 is_stmt 1 view .LVU1171
1012:Dsp/widget/wgt_core/UI_Controller.c **** 
 4123              		.loc 1 1012 17 is_stmt 0 view .LVU1172
ARM GAS  /var/folders/lx/hc4sn_b53233_zkc9xbbl97r0000gp/T//cc46Bl7B.s 			page 103


 4124 0006 007B     		ldrb	r0, [r0, #12]	@ zero_extendqisi2
 4125              	.LVL367:
1012:Dsp/widget/wgt_core/UI_Controller.c **** 
 4126              		.loc 1 1012 17 view .LVU1173
 4127 0008 FFF7FEFF 		bl	UI_Drop_CreateDropItem
 4128              	.LVL368:
1014:Dsp/widget/wgt_core/UI_Controller.c ****         return false;
 4129              		.loc 1 1014 5 is_stmt 1 view .LVU1174
1014:Dsp/widget/wgt_core/UI_Controller.c ****         return false;
 4130              		.loc 1 1014 8 is_stmt 0 view .LVU1175
 4131 000c 0146     		mov	r1, r0
 4132 000e A8B1     		cbz	r0, .L337
1017:Dsp/widget/wgt_core/UI_Controller.c ****     {
 4133              		.loc 1 1017 5 is_stmt 1 view .LVU1176
1017:Dsp/widget/wgt_core/UI_Controller.c ****     {
 4134              		.loc 1 1017 12 is_stmt 0 view .LVU1177
 4135 0010 D4F80D00 		ldr	r0, [r4, #13]	@ unaligned
 4136              	.LVL369:
1017:Dsp/widget/wgt_core/UI_Controller.c ****     {
 4137              		.loc 1 1017 8 view .LVU1178
 4138 0014 30B1     		cbz	r0, .L342
1024:Dsp/widget/wgt_core/UI_Controller.c **** 
 4139              		.loc 1 1024 9 is_stmt 1 view .LVU1179
 4140 0016 FFF7FEFF 		bl	List_Insert_Item
 4141              	.LVL370:
 4142              	.L335:
1026:Dsp/widget/wgt_core/UI_Controller.c **** 
 4143              		.loc 1 1026 5 view .LVU1180
1026:Dsp/widget/wgt_core/UI_Controller.c **** 
 4144              		.loc 1 1026 8 is_stmt 0 view .LVU1181
 4145 001a 237B     		ldrb	r3, [r4, #12]	@ zero_extendqisi2
1026:Dsp/widget/wgt_core/UI_Controller.c **** 
 4146              		.loc 1 1026 18 view .LVU1182
 4147 001c 0133     		adds	r3, r3, #1
 4148 001e 2373     		strb	r3, [r4, #12]
1028:Dsp/widget/wgt_core/UI_Controller.c **** }
 4149              		.loc 1 1028 5 is_stmt 1 view .LVU1183
1028:Dsp/widget/wgt_core/UI_Controller.c **** }
 4150              		.loc 1 1028 12 is_stmt 0 view .LVU1184
 4151 0020 0120     		movs	r0, #1
 4152              	.L333:
1029:Dsp/widget/wgt_core/UI_Controller.c **** 
 4153              		.loc 1 1029 1 view .LVU1185
 4154 0022 10BD     		pop	{r4, pc}
 4155              	.LVL371:
 4156              	.L342:
1019:Dsp/widget/wgt_core/UI_Controller.c ****         Obj->CurDrop_Item = Obj->DropList;
 4157              		.loc 1 1019 9 is_stmt 1 view .LVU1186
1019:Dsp/widget/wgt_core/UI_Controller.c ****         Obj->CurDrop_Item = Obj->DropList;
 4158              		.loc 1 1019 23 is_stmt 0 view .LVU1187
 4159 0024 C4F80D10 		str	r1, [r4, #13]	@ unaligned
1020:Dsp/widget/wgt_core/UI_Controller.c ****         List_Init(Obj->DropList, item_temp, by_order, NULL);
 4160              		.loc 1 1020 9 is_stmt 1 view .LVU1188
1020:Dsp/widget/wgt_core/UI_Controller.c ****         List_Init(Obj->DropList, item_temp, by_order, NULL);
 4161              		.loc 1 1020 27 is_stmt 0 view .LVU1189
 4162 0028 C4F81110 		str	r1, [r4, #17]	@ unaligned
1021:Dsp/widget/wgt_core/UI_Controller.c ****     }
ARM GAS  /var/folders/lx/hc4sn_b53233_zkc9xbbl97r0000gp/T//cc46Bl7B.s 			page 104


 4163              		.loc 1 1021 9 is_stmt 1 view .LVU1190
 4164 002c 0023     		movs	r3, #0
 4165 002e 0122     		movs	r2, #1
 4166 0030 0846     		mov	r0, r1
 4167 0032 FFF7FEFF 		bl	List_Init
 4168              	.LVL372:
1021:Dsp/widget/wgt_core/UI_Controller.c ****     }
 4169              		.loc 1 1021 9 is_stmt 0 view .LVU1191
 4170 0036 F0E7     		b	.L335
 4171              	.LVL373:
 4172              	.L336:
 4173              	.LCFI80:
 4174              		.cfi_def_cfa_offset 0
 4175              		.cfi_restore 4
 4176              		.cfi_restore 14
1010:Dsp/widget/wgt_core/UI_Controller.c **** 
 4177              		.loc 1 1010 16 view .LVU1192
 4178 0038 0020     		movs	r0, #0
 4179              	.LVL374:
1029:Dsp/widget/wgt_core/UI_Controller.c **** 
 4180              		.loc 1 1029 1 view .LVU1193
 4181 003a 7047     		bx	lr
 4182              	.LVL375:
 4183              	.L337:
 4184              	.LCFI81:
 4185              		.cfi_def_cfa_offset 8
 4186              		.cfi_offset 4, -8
 4187              		.cfi_offset 14, -4
1015:Dsp/widget/wgt_core/UI_Controller.c **** 
 4188              		.loc 1 1015 16 view .LVU1194
 4189 003c 0020     		movs	r0, #0
 4190              	.LVL376:
1015:Dsp/widget/wgt_core/UI_Controller.c **** 
 4191              		.loc 1 1015 16 view .LVU1195
 4192 003e F0E7     		b	.L333
 4193              		.cfi_endproc
 4194              	.LFE41:
 4196              		.section	.text.UI_Set_FontType,"ax",%progbits
 4197              		.align	1
 4198              		.global	UI_Set_FontType
 4199              		.syntax unified
 4200              		.thumb
 4201              		.thumb_func
 4202              		.fpu fpv4-sp-d16
 4204              	UI_Set_FontType:
 4205              	.LVL377:
 4206              	.LFB3:
 118:Dsp/widget/wgt_core/UI_Controller.c ****     if (font < Font_8 || font > Font_16)
 4207              		.loc 1 118 1 is_stmt 1 view -0
 4208              		.cfi_startproc
 4209              		@ args = 0, pretend = 0, frame = 0
 4210              		@ frame_needed = 0, uses_anonymous_args = 0
 4211              		@ link register save eliminated.
 119:Dsp/widget/wgt_core/UI_Controller.c ****         return false;
 4212              		.loc 1 119 5 view .LVU1197
 119:Dsp/widget/wgt_core/UI_Controller.c ****         return false;
 4213              		.loc 1 119 23 is_stmt 0 view .LVU1198
ARM GAS  /var/folders/lx/hc4sn_b53233_zkc9xbbl97r0000gp/T//cc46Bl7B.s 			page 105


 4214 0000 A0F10803 		sub	r3, r0, #8
 4215 0004 DBB2     		uxtb	r3, r3
 119:Dsp/widget/wgt_core/UI_Controller.c ****         return false;
 4216              		.loc 1 119 8 view .LVU1199
 4217 0006 082B     		cmp	r3, #8
 4218 0008 03D8     		bhi	.L345
 122:Dsp/widget/wgt_core/UI_Controller.c **** 
 4219              		.loc 1 122 5 is_stmt 1 view .LVU1200
 122:Dsp/widget/wgt_core/UI_Controller.c **** 
 4220              		.loc 1 122 15 is_stmt 0 view .LVU1201
 4221 000a 034B     		ldr	r3, .L346
 4222 000c 1870     		strb	r0, [r3]
 124:Dsp/widget/wgt_core/UI_Controller.c **** }
 4223              		.loc 1 124 5 is_stmt 1 view .LVU1202
 124:Dsp/widget/wgt_core/UI_Controller.c **** }
 4224              		.loc 1 124 12 is_stmt 0 view .LVU1203
 4225 000e 0120     		movs	r0, #1
 4226              	.LVL378:
 124:Dsp/widget/wgt_core/UI_Controller.c **** }
 4227              		.loc 1 124 12 view .LVU1204
 4228 0010 7047     		bx	lr
 4229              	.LVL379:
 4230              	.L345:
 120:Dsp/widget/wgt_core/UI_Controller.c **** 
 4231              		.loc 1 120 16 view .LVU1205
 4232 0012 0020     		movs	r0, #0
 4233              	.LVL380:
 125:Dsp/widget/wgt_core/UI_Controller.c **** 
 4234              		.loc 1 125 1 view .LVU1206
 4235 0014 7047     		bx	lr
 4236              	.L347:
 4237 0016 00BF     		.align	2
 4238              	.L346:
 4239 0018 00000000 		.word	.LANCHOR2
 4240              		.cfi_endproc
 4241              	.LFE3:
 4243              		.section	.text.UI_Set_DspInterface,"ax",%progbits
 4244              		.align	1
 4245              		.global	UI_Set_DspInterface
 4246              		.syntax unified
 4247              		.thumb
 4248              		.thumb_func
 4249              		.fpu fpv4-sp-d16
 4251              	UI_Set_DspInterface:
 4252              	.LVL381:
 4253              	.LFB4:
 140:Dsp/widget/wgt_core/UI_Controller.c ****     UI_DspInterface.draw_circle = circle;
 4254              		.loc 1 140 1 is_stmt 1 view -0
 4255              		.cfi_startproc
 4256              		@ args = 36, pretend = 0, frame = 0
 4257              		@ frame_needed = 0, uses_anonymous_args = 0
 4258              		@ link register save eliminated.
 140:Dsp/widget/wgt_core/UI_Controller.c ****     UI_DspInterface.draw_circle = circle;
 4259              		.loc 1 140 1 is_stmt 0 view .LVU1208
 4260 0000 30B4     		push	{r4, r5}
 4261              	.LCFI82:
 4262              		.cfi_def_cfa_offset 8
ARM GAS  /var/folders/lx/hc4sn_b53233_zkc9xbbl97r0000gp/T//cc46Bl7B.s 			page 106


 4263              		.cfi_offset 4, -8
 4264              		.cfi_offset 5, -4
 141:Dsp/widget/wgt_core/UI_Controller.c ****     UI_DspInterface.draw_circle_section = circle_section;
 4265              		.loc 1 141 5 is_stmt 1 view .LVU1209
 141:Dsp/widget/wgt_core/UI_Controller.c ****     UI_DspInterface.draw_circle_section = circle_section;
 4266              		.loc 1 141 33 is_stmt 0 view .LVU1210
 4267 0002 0C4C     		ldr	r4, .L350
 4268 0004 039D     		ldr	r5, [sp, #12]
 4269 0006 E561     		str	r5, [r4, #28]
 142:Dsp/widget/wgt_core/UI_Controller.c ****     UI_DspInterface.draw_line_h = line_h;
 4270              		.loc 1 142 5 is_stmt 1 view .LVU1211
 142:Dsp/widget/wgt_core/UI_Controller.c ****     UI_DspInterface.draw_line_h = line_h;
 4271              		.loc 1 142 41 is_stmt 0 view .LVU1212
 4272 0008 049D     		ldr	r5, [sp, #16]
 4273 000a 2562     		str	r5, [r4, #32]
 143:Dsp/widget/wgt_core/UI_Controller.c ****     UI_DspInterface.draw_line_v = line_v;
 4274              		.loc 1 143 5 is_stmt 1 view .LVU1213
 143:Dsp/widget/wgt_core/UI_Controller.c ****     UI_DspInterface.draw_line_v = line_v;
 4275              		.loc 1 143 33 is_stmt 0 view .LVU1214
 4276 000c E160     		str	r1, [r4, #12]
 144:Dsp/widget/wgt_core/UI_Controller.c ****     UI_DspInterface.draw_point = point;
 4277              		.loc 1 144 5 is_stmt 1 view .LVU1215
 144:Dsp/widget/wgt_core/UI_Controller.c ****     UI_DspInterface.draw_point = point;
 4278              		.loc 1 144 33 is_stmt 0 view .LVU1216
 4279 000e 2261     		str	r2, [r4, #16]
 145:Dsp/widget/wgt_core/UI_Controller.c ****     UI_DspInterface.draw_rectangle = rectangle;
 4280              		.loc 1 145 5 is_stmt 1 view .LVU1217
 145:Dsp/widget/wgt_core/UI_Controller.c ****     UI_DspInterface.draw_rectangle = rectangle;
 4281              		.loc 1 145 32 is_stmt 0 view .LVU1218
 4282 0010 A060     		str	r0, [r4, #8]
 146:Dsp/widget/wgt_core/UI_Controller.c ****     UI_DspInterface.draw_radius_rectangle = radius_rectangle;
 4283              		.loc 1 146 5 is_stmt 1 view .LVU1219
 146:Dsp/widget/wgt_core/UI_Controller.c ****     UI_DspInterface.draw_radius_rectangle = radius_rectangle;
 4284              		.loc 1 146 36 is_stmt 0 view .LVU1220
 4285 0012 A361     		str	r3, [r4, #24]
 147:Dsp/widget/wgt_core/UI_Controller.c ****     UI_DspInterface.draw_str = str;
 4286              		.loc 1 147 5 is_stmt 1 view .LVU1221
 147:Dsp/widget/wgt_core/UI_Controller.c ****     UI_DspInterface.draw_str = str;
 4287              		.loc 1 147 43 is_stmt 0 view .LVU1222
 4288 0014 029B     		ldr	r3, [sp, #8]
 4289              	.LVL382:
 147:Dsp/widget/wgt_core/UI_Controller.c ****     UI_DspInterface.draw_str = str;
 4290              		.loc 1 147 43 view .LVU1223
 4291 0016 6361     		str	r3, [r4, #20]
 148:Dsp/widget/wgt_core/UI_Controller.c ****     UI_DspInterface.draw_dig = dig;
 4292              		.loc 1 148 5 is_stmt 1 view .LVU1224
 148:Dsp/widget/wgt_core/UI_Controller.c ****     UI_DspInterface.draw_dig = dig;
 4293              		.loc 1 148 30 is_stmt 0 view .LVU1225
 4294 0018 059B     		ldr	r3, [sp, #20]
 4295 001a 2360     		str	r3, [r4]
 149:Dsp/widget/wgt_core/UI_Controller.c **** 
 4296              		.loc 1 149 5 is_stmt 1 view .LVU1226
 149:Dsp/widget/wgt_core/UI_Controller.c **** 
 4297              		.loc 1 149 30 is_stmt 0 view .LVU1227
 4298 001c 069B     		ldr	r3, [sp, #24]
 4299 001e 6360     		str	r3, [r4, #4]
 151:Dsp/widget/wgt_core/UI_Controller.c ****     UI_DspInterface.fill_circle_section = fillcircle_section;
ARM GAS  /var/folders/lx/hc4sn_b53233_zkc9xbbl97r0000gp/T//cc46Bl7B.s 			page 107


 4300              		.loc 1 151 5 is_stmt 1 view .LVU1228
 151:Dsp/widget/wgt_core/UI_Controller.c ****     UI_DspInterface.fill_circle_section = fillcircle_section;
 4301              		.loc 1 151 33 is_stmt 0 view .LVU1229
 4302 0020 079B     		ldr	r3, [sp, #28]
 4303 0022 A362     		str	r3, [r4, #40]
 152:Dsp/widget/wgt_core/UI_Controller.c ****     UI_DspInterface.fill_radius_rectangle = fill_radius_rectangle;
 4304              		.loc 1 152 5 is_stmt 1 view .LVU1230
 152:Dsp/widget/wgt_core/UI_Controller.c ****     UI_DspInterface.fill_radius_rectangle = fill_radius_rectangle;
 4305              		.loc 1 152 41 is_stmt 0 view .LVU1231
 4306 0024 089B     		ldr	r3, [sp, #32]
 4307 0026 E362     		str	r3, [r4, #44]
 153:Dsp/widget/wgt_core/UI_Controller.c ****     UI_DspInterface.fill_rectangle = fill_rectangle;
 4308              		.loc 1 153 5 is_stmt 1 view .LVU1232
 153:Dsp/widget/wgt_core/UI_Controller.c ****     UI_DspInterface.fill_rectangle = fill_rectangle;
 4309              		.loc 1 153 43 is_stmt 0 view .LVU1233
 4310 0028 0A9B     		ldr	r3, [sp, #40]
 4311 002a 2363     		str	r3, [r4, #48]
 154:Dsp/widget/wgt_core/UI_Controller.c **** }
 4312              		.loc 1 154 5 is_stmt 1 view .LVU1234
 154:Dsp/widget/wgt_core/UI_Controller.c **** }
 4313              		.loc 1 154 36 is_stmt 0 view .LVU1235
 4314 002c 099B     		ldr	r3, [sp, #36]
 4315 002e 6362     		str	r3, [r4, #36]
 155:Dsp/widget/wgt_core/UI_Controller.c **** 
 4316              		.loc 1 155 1 view .LVU1236
 4317 0030 30BC     		pop	{r4, r5}
 4318              	.LCFI83:
 4319              		.cfi_restore 5
 4320              		.cfi_restore 4
 4321              		.cfi_def_cfa_offset 0
 4322              	.LVL383:
 155:Dsp/widget/wgt_core/UI_Controller.c **** 
 4323              		.loc 1 155 1 view .LVU1237
 4324 0032 7047     		bx	lr
 4325              	.L351:
 4326              		.align	2
 4327              	.L350:
 4328 0034 00000000 		.word	.LANCHOR0
 4329              		.cfi_endproc
 4330              	.LFE4:
 4332              		.section	.text.UI_Set_GetWidgetWidthMathod,"ax",%progbits
 4333              		.align	1
 4334              		.global	UI_Set_GetWidgetWidthMathod
 4335              		.syntax unified
 4336              		.thumb
 4337              		.thumb_func
 4338              		.fpu fpv4-sp-d16
 4340              	UI_Set_GetWidgetWidthMathod:
 4341              	.LVL384:
 4342              	.LFB5:
 158:Dsp/widget/wgt_core/UI_Controller.c ****     UI_Get_WidgetWidth = mathod;
 4343              		.loc 1 158 1 is_stmt 1 view -0
 4344              		.cfi_startproc
 4345              		@ args = 0, pretend = 0, frame = 0
 4346              		@ frame_needed = 0, uses_anonymous_args = 0
 4347              		@ link register save eliminated.
 159:Dsp/widget/wgt_core/UI_Controller.c **** }
ARM GAS  /var/folders/lx/hc4sn_b53233_zkc9xbbl97r0000gp/T//cc46Bl7B.s 			page 108


 4348              		.loc 1 159 5 view .LVU1239
 159:Dsp/widget/wgt_core/UI_Controller.c **** }
 4349              		.loc 1 159 24 is_stmt 0 view .LVU1240
 4350 0000 014B     		ldr	r3, .L353
 4351 0002 1860     		str	r0, [r3]
 160:Dsp/widget/wgt_core/UI_Controller.c **** 
 4352              		.loc 1 160 1 view .LVU1241
 4353 0004 7047     		bx	lr
 4354              	.L354:
 4355 0006 00BF     		.align	2
 4356              	.L353:
 4357 0008 00000000 		.word	.LANCHOR1
 4358              		.cfi_endproc
 4359              	.LFE5:
 4361              		.section	.text.UI_ShowSelector,"ax",%progbits
 4362              		.align	1
 4363              		.global	UI_ShowSelector
 4364              		.syntax unified
 4365              		.thumb
 4366              		.thumb_func
 4367              		.fpu fpv4-sp-d16
 4369              	UI_ShowSelector:
 4370              	.LVL385:
 4371              	.LFB7:
 187:Dsp/widget/wgt_core/UI_Controller.c ****     /* button selector coordinate */
 4372              		.loc 1 187 1 is_stmt 1 view -0
 4373              		.cfi_startproc
 4374              		@ args = 0, pretend = 0, frame = 0
 4375              		@ frame_needed = 0, uses_anonymous_args = 0
 187:Dsp/widget/wgt_core/UI_Controller.c ****     /* button selector coordinate */
 4376              		.loc 1 187 1 is_stmt 0 view .LVU1243
 4377 0000 2DE9F047 		push	{r4, r5, r6, r7, r8, r9, r10, lr}
 4378              	.LCFI84:
 4379              		.cfi_def_cfa_offset 32
 4380              		.cfi_offset 4, -32
 4381              		.cfi_offset 5, -28
 4382              		.cfi_offset 6, -24
 4383              		.cfi_offset 7, -20
 4384              		.cfi_offset 8, -16
 4385              		.cfi_offset 9, -12
 4386              		.cfi_offset 10, -8
 4387              		.cfi_offset 14, -4
 4388 0004 82B0     		sub	sp, sp, #8
 4389              	.LCFI85:
 4390              		.cfi_def_cfa_offset 40
 4391 0006 0446     		mov	r4, r0
 189:Dsp/widget/wgt_core/UI_Controller.c ****     int16_t Btn_Slct_LftUp_Y = 0;
 4392              		.loc 1 189 5 is_stmt 1 view .LVU1244
 4393              	.LVL386:
 190:Dsp/widget/wgt_core/UI_Controller.c ****     int16_t Btn_Slct_LftDwn_X = 0;
 4394              		.loc 1 190 5 view .LVU1245
 191:Dsp/widget/wgt_core/UI_Controller.c ****     int16_t Btn_Slct_LftDwn_Y = 0;
 4395              		.loc 1 191 5 view .LVU1246
 192:Dsp/widget/wgt_core/UI_Controller.c ****     int16_t Btn_Slct_RgtUp_X = 0;
 4396              		.loc 1 192 5 view .LVU1247
 193:Dsp/widget/wgt_core/UI_Controller.c ****     int16_t Btn_Slct_RgtUp_Y = 0;
 4397              		.loc 1 193 5 view .LVU1248
ARM GAS  /var/folders/lx/hc4sn_b53233_zkc9xbbl97r0000gp/T//cc46Bl7B.s 			page 109


 194:Dsp/widget/wgt_core/UI_Controller.c ****     int16_t Btn_Slct_RgtDwn_X = 0;
 4398              		.loc 1 194 5 view .LVU1249
 195:Dsp/widget/wgt_core/UI_Controller.c ****     int16_t Btn_Slct_RgtDwn_Y = 0;
 4399              		.loc 1 195 5 view .LVU1250
 196:Dsp/widget/wgt_core/UI_Controller.c **** 
 4400              		.loc 1 196 5 view .LVU1251
 199:Dsp/widget/wgt_core/UI_Controller.c ****     int16_t block_y;
 4401              		.loc 1 199 5 view .LVU1252
 200:Dsp/widget/wgt_core/UI_Controller.c **** 
 4402              		.loc 1 200 5 view .LVU1253
 202:Dsp/widget/wgt_core/UI_Controller.c ****     uint8_t selector_height = 0;
 4403              		.loc 1 202 5 view .LVU1254
 203:Dsp/widget/wgt_core/UI_Controller.c **** 
 4404              		.loc 1 203 5 view .LVU1255
 205:Dsp/widget/wgt_core/UI_Controller.c ****     {
 4405              		.loc 1 205 5 view .LVU1256
 205:Dsp/widget/wgt_core/UI_Controller.c ****     {
 4406              		.loc 1 205 28 is_stmt 0 view .LVU1257
 4407 0008 544B     		ldr	r3, .L376
 4408 000a 1B68     		ldr	r3, [r3]
 205:Dsp/widget/wgt_core/UI_Controller.c ****     {
 4409              		.loc 1 205 8 view .LVU1258
 4410 000c A3B1     		cbz	r3, .L365
 207:Dsp/widget/wgt_core/UI_Controller.c **** 
 4411              		.loc 1 207 9 is_stmt 1 view .LVU1259
 207:Dsp/widget/wgt_core/UI_Controller.c **** 
 4412              		.loc 1 207 24 is_stmt 0 view .LVU1260
 4413 000e 9847     		blx	r3
 4414              	.LVL387:
 209:Dsp/widget/wgt_core/UI_Controller.c ****             return false;
 4415              		.loc 1 209 9 is_stmt 1 view .LVU1261
 209:Dsp/widget/wgt_core/UI_Controller.c ****             return false;
 4416              		.loc 1 209 12 is_stmt 0 view .LVU1262
 4417 0010 0546     		mov	r5, r0
 4418 0012 0028     		cmp	r0, #0
 4419 0014 00F09980 		beq	.L374
 4420              	.LVL388:
 4421              	.L356:
 213:Dsp/widget/wgt_core/UI_Controller.c ****         return false;
 4422              		.loc 1 213 5 is_stmt 1 view .LVU1263
 213:Dsp/widget/wgt_core/UI_Controller.c ****         return false;
 4423              		.loc 1 213 8 is_stmt 0 view .LVU1264
 4424 0018 002C     		cmp	r4, #0
 4425 001a 00F09880 		beq	.L367
 216:Dsp/widget/wgt_core/UI_Controller.c ****     {
 4426              		.loc 1 216 5 is_stmt 1 view .LVU1265
 4427 001e 504B     		ldr	r3, .L376+4
 4428 0020 1B78     		ldrb	r3, [r3]	@ zero_extendqisi2
 4429 0022 0C2B     		cmp	r3, #12
 4430 0024 13D0     		beq	.L368
 4431 0026 102B     		cmp	r3, #16
 4432 0028 13D0     		beq	.L369
 4433 002a 082B     		cmp	r3, #8
 4434 002c 06D0     		beq	.L375
 4435 002e 0024     		movs	r4, #0
 4436              	.LVL389:
 4437              	.L357:
ARM GAS  /var/folders/lx/hc4sn_b53233_zkc9xbbl97r0000gp/T//cc46Bl7B.s 			page 110


 300:Dsp/widget/wgt_core/UI_Controller.c **** 
 4438              		.loc 1 300 1 is_stmt 0 view .LVU1266
 4439 0030 2046     		mov	r0, r4
 4440 0032 02B0     		add	sp, sp, #8
 4441              	.LCFI86:
 4442              		.cfi_remember_state
 4443              		.cfi_def_cfa_offset 32
 4444              		@ sp needed
 4445 0034 BDE8F087 		pop	{r4, r5, r6, r7, r8, r9, r10, pc}
 4446              	.LVL390:
 4447              	.L365:
 4448              	.LCFI87:
 4449              		.cfi_restore_state
 202:Dsp/widget/wgt_core/UI_Controller.c ****     uint8_t selector_height = 0;
 4450              		.loc 1 202 13 view .LVU1267
 4451 0038 8025     		movs	r5, #128
 4452 003a EDE7     		b	.L356
 4453              	.LVL391:
 4454              	.L375:
 216:Dsp/widget/wgt_core/UI_Controller.c ****     {
 4455              		.loc 1 216 5 view .LVU1268
 4456 003c 0A26     		movs	r6, #10
 4457              	.L358:
 4458              	.LVL392:
 231:Dsp/widget/wgt_core/UI_Controller.c ****     {
 4459              		.loc 1 231 5 is_stmt 1 view .LVU1269
 231:Dsp/widget/wgt_core/UI_Controller.c ****     {
 4460              		.loc 1 231 27 is_stmt 0 view .LVU1270
 4461 003e 2378     		ldrb	r3, [r4]	@ zero_extendqisi2
 4462 0040 042B     		cmp	r3, #4
 4463 0042 08D8     		bhi	.L359
 4464 0044 DFE803F0 		tbb	[pc, r3]
 4465              	.L360:
 4466 0048 09       		.byte	(.L363-.L360)/2
 4467 0049 45       		.byte	(.L362-.L360)/2
 4468 004a 55       		.byte	(.L361-.L360)/2
 4469 004b 07       		.byte	(.L359-.L360)/2
 4470 004c 85       		.byte	(.L371-.L360)/2
 4471              	.LVL393:
 4472 004d 00       		.p2align 1
 4473              	.L368:
 224:Dsp/widget/wgt_core/UI_Controller.c ****         break;
 4474              		.loc 1 224 25 view .LVU1271
 4475 004e 0B26     		movs	r6, #11
 4476 0050 F5E7     		b	.L358
 4477              	.L369:
 4478 0052 0B26     		movs	r6, #11
 4479 0054 F3E7     		b	.L358
 4480              	.LVL394:
 4481              	.L359:
 231:Dsp/widget/wgt_core/UI_Controller.c ****     {
 4482              		.loc 1 231 27 view .LVU1272
 4483 0056 0024     		movs	r4, #0
 4484              	.LVL395:
 231:Dsp/widget/wgt_core/UI_Controller.c ****     {
 4485              		.loc 1 231 27 view .LVU1273
 4486 0058 EAE7     		b	.L357
ARM GAS  /var/folders/lx/hc4sn_b53233_zkc9xbbl97r0000gp/T//cc46Bl7B.s 			page 111


 4487              	.LVL396:
 4488              	.L363:
 235:Dsp/widget/wgt_core/UI_Controller.c ****             return false;
 4489              		.loc 1 235 9 is_stmt 1 view .LVU1274
 235:Dsp/widget/wgt_core/UI_Controller.c ****             return false;
 4490              		.loc 1 235 28 is_stmt 0 view .LVU1275
 4491 005a 424B     		ldr	r3, .L376+8
 4492 005c DB6A     		ldr	r3, [r3, #44]
 235:Dsp/widget/wgt_core/UI_Controller.c ****             return false;
 4493              		.loc 1 235 12 view .LVU1276
 4494 005e 002B     		cmp	r3, #0
 4495 0060 79D0     		beq	.L372
 239:Dsp/widget/wgt_core/UI_Controller.c ****         Btn_Slct_LftUp_Y = HandleToButtonObj(item->Handler)->Gen_Data.y + HandleToButtonObj(item->H
 4496              		.loc 1 239 9 is_stmt 1 view .LVU1277
 239:Dsp/widget/wgt_core/UI_Controller.c ****         Btn_Slct_LftUp_Y = HandleToButtonObj(item->Handler)->Gen_Data.y + HandleToButtonObj(item->H
 4497              		.loc 1 239 28 is_stmt 0 view .LVU1278
 4498 0062 6268     		ldr	r2, [r4, #4]
 239:Dsp/widget/wgt_core/UI_Controller.c ****         Btn_Slct_LftUp_Y = HandleToButtonObj(item->Handler)->Gen_Data.y + HandleToButtonObj(item->H
 4499              		.loc 1 239 26 view .LVU1279
 4500 0064 B2F90460 		ldrsh	r6, [r2, #4]	@ unaligned
 4501              	.LVL397:
 239:Dsp/widget/wgt_core/UI_Controller.c ****         Btn_Slct_LftUp_Y = HandleToButtonObj(item->Handler)->Gen_Data.y + HandleToButtonObj(item->H
 4502              		.loc 1 239 26 view .LVU1280
 4503 0068 0FFA86F9 		sxth	r9, r6
 4504              	.LVL398:
 240:Dsp/widget/wgt_core/UI_Controller.c **** 
 4505              		.loc 1 240 9 is_stmt 1 view .LVU1281
 240:Dsp/widget/wgt_core/UI_Controller.c **** 
 4506              		.loc 1 240 70 is_stmt 0 view .LVU1282
 4507 006c B2F90630 		ldrsh	r3, [r2, #6]	@ unaligned
 4508 0070 0FFA83F8 		sxth	r8, r3
 240:Dsp/widget/wgt_core/UI_Controller.c **** 
 4509              		.loc 1 240 107 view .LVU1283
 4510 0074 92F82050 		ldrb	r5, [r2, #32]	@ zero_extendqisi2
 4511              	.LVL399:
 240:Dsp/widget/wgt_core/UI_Controller.c **** 
 4512              		.loc 1 240 73 view .LVU1284
 4513 0078 15FA83F5 		uxtah	r5, r5, r3
 4514 007c ADB2     		uxth	r5, r5
 240:Dsp/widget/wgt_core/UI_Controller.c **** 
 4515              		.loc 1 240 116 view .LVU1285
 4516 007e 013D     		subs	r5, r5, #1
 240:Dsp/widget/wgt_core/UI_Controller.c **** 
 4517              		.loc 1 240 26 view .LVU1286
 4518 0080 0FFA85FA 		sxth	r10, r5
 4519              	.LVL400:
 242:Dsp/widget/wgt_core/UI_Controller.c ****         Btn_Slct_LftDwn_Y = HandleToButtonObj(item->Handler)->Gen_Data.y;
 4520              		.loc 1 242 9 is_stmt 1 view .LVU1287
 243:Dsp/widget/wgt_core/UI_Controller.c **** 
 4521              		.loc 1 243 9 view .LVU1288
 245:Dsp/widget/wgt_core/UI_Controller.c ****         Btn_Slct_RgtUp_Y = Btn_Slct_LftUp_Y;
 4522              		.loc 1 245 9 view .LVU1289
 245:Dsp/widget/wgt_core/UI_Controller.c ****         Btn_Slct_RgtUp_Y = Btn_Slct_LftUp_Y;
 4523              		.loc 1 245 107 is_stmt 0 view .LVU1290
 4524 0084 D37F     		ldrb	r3, [r2, #31]	@ zero_extendqisi2
 4525              	.LVL401:
 245:Dsp/widget/wgt_core/UI_Controller.c ****         Btn_Slct_RgtUp_Y = Btn_Slct_LftUp_Y;
ARM GAS  /var/folders/lx/hc4sn_b53233_zkc9xbbl97r0000gp/T//cc46Bl7B.s 			page 112


 4526              		.loc 1 245 73 view .LVU1291
 4527 0086 13FA86F6 		uxtah	r6, r3, r6
 4528              	.LVL402:
 245:Dsp/widget/wgt_core/UI_Controller.c ****         Btn_Slct_RgtUp_Y = Btn_Slct_LftUp_Y;
 4529              		.loc 1 245 26 view .LVU1292
 4530 008a 36B2     		sxth	r6, r6
 4531              	.LVL403:
 246:Dsp/widget/wgt_core/UI_Controller.c **** 
 4532              		.loc 1 246 9 is_stmt 1 view .LVU1293
 248:Dsp/widget/wgt_core/UI_Controller.c ****         Btn_Slct_RgtDwn_Y = Btn_Slct_LftDwn_Y;
 4533              		.loc 1 248 9 view .LVU1294
 249:Dsp/widget/wgt_core/UI_Controller.c **** 
 4534              		.loc 1 249 9 view .LVU1295
 252:Dsp/widget/wgt_core/UI_Controller.c ****         UI_DspInterface.draw_circle_section(Btn_Slct_LftDwn_X, Btn_Slct_LftDwn_Y, BUTTON_SELECTOR_R
 4535              		.loc 1 252 9 view .LVU1296
 252:Dsp/widget/wgt_core/UI_Controller.c ****         UI_DspInterface.draw_circle_section(Btn_Slct_LftDwn_X, Btn_Slct_LftDwn_Y, BUTTON_SELECTOR_R
 4536              		.loc 1 252 24 is_stmt 0 view .LVU1297
 4537 008c 354F     		ldr	r7, .L376+8
 252:Dsp/widget/wgt_core/UI_Controller.c ****         UI_DspInterface.draw_circle_section(Btn_Slct_LftDwn_X, Btn_Slct_LftDwn_Y, BUTTON_SELECTOR_R
 4538              		.loc 1 252 9 view .LVU1298
 4539 008e 0124     		movs	r4, #1
 4540              	.LVL404:
 252:Dsp/widget/wgt_core/UI_Controller.c ****         UI_DspInterface.draw_circle_section(Btn_Slct_LftDwn_X, Btn_Slct_LftDwn_Y, BUTTON_SELECTOR_R
 4541              		.loc 1 252 9 view .LVU1299
 4542 0090 0194     		str	r4, [sp, #4]
 4543 0092 0094     		str	r4, [sp]
 4544 0094 0423     		movs	r3, #4
 4545 0096 0222     		movs	r2, #2
 4546 0098 5146     		mov	r1, r10
 4547 009a 4846     		mov	r0, r9
 4548 009c 3D6A     		ldr	r5, [r7, #32]
 4549 009e A847     		blx	r5
 4550              	.LVL405:
 253:Dsp/widget/wgt_core/UI_Controller.c ****         UI_DspInterface.draw_circle_section(Btn_Slct_RgtUp_X, Btn_Slct_RgtUp_Y, BUTTON_SELECTOR_RAD
 4551              		.loc 1 253 9 is_stmt 1 view .LVU1300
 4552 00a0 0194     		str	r4, [sp, #4]
 4553 00a2 0094     		str	r4, [sp]
 4554 00a4 0223     		movs	r3, #2
 4555 00a6 1A46     		mov	r2, r3
 4556 00a8 4146     		mov	r1, r8
 4557 00aa 4846     		mov	r0, r9
 4558 00ac 3D6A     		ldr	r5, [r7, #32]
 4559 00ae A847     		blx	r5
 4560              	.LVL406:
 254:Dsp/widget/wgt_core/UI_Controller.c ****         UI_DspInterface.draw_circle_section(Btn_Slct_RgtDwn_X, Btn_Slct_RgtDwn_Y, BUTTON_SELECTOR_R
 4561              		.loc 1 254 9 view .LVU1301
 4562 00b0 0194     		str	r4, [sp, #4]
 4563 00b2 0094     		str	r4, [sp]
 4564 00b4 0823     		movs	r3, #8
 4565 00b6 0222     		movs	r2, #2
 4566 00b8 5146     		mov	r1, r10
 4567 00ba 3046     		mov	r0, r6
 4568 00bc 3D6A     		ldr	r5, [r7, #32]
 4569 00be A847     		blx	r5
 4570              	.LVL407:
 255:Dsp/widget/wgt_core/UI_Controller.c ****         break;
 4571              		.loc 1 255 9 view .LVU1302
ARM GAS  /var/folders/lx/hc4sn_b53233_zkc9xbbl97r0000gp/T//cc46Bl7B.s 			page 113


 255:Dsp/widget/wgt_core/UI_Controller.c ****         break;
 4572              		.loc 1 255 24 is_stmt 0 view .LVU1303
 4573 00c0 3D6A     		ldr	r5, [r7, #32]
 255:Dsp/widget/wgt_core/UI_Controller.c ****         break;
 4574              		.loc 1 255 9 view .LVU1304
 4575 00c2 0194     		str	r4, [sp, #4]
 4576 00c4 0094     		str	r4, [sp]
 4577 00c6 2346     		mov	r3, r4
 4578 00c8 0222     		movs	r2, #2
 4579 00ca 4146     		mov	r1, r8
 4580 00cc 3046     		mov	r0, r6
 4581 00ce A847     		blx	r5
 4582              	.LVL408:
 256:Dsp/widget/wgt_core/UI_Controller.c **** 
 4583              		.loc 1 256 9 is_stmt 1 view .LVU1305
 4584 00d0 AEE7     		b	.L357
 4585              	.LVL409:
 4586              	.L362:
 259:Dsp/widget/wgt_core/UI_Controller.c ****         block_y = HandleToCheckBoxObj(item->Handler)->Gen_Data.y + 1;
 4587              		.loc 1 259 9 view .LVU1306
 259:Dsp/widget/wgt_core/UI_Controller.c ****         block_y = HandleToCheckBoxObj(item->Handler)->Gen_Data.y + 1;
 4588              		.loc 1 259 19 is_stmt 0 view .LVU1307
 4589 00d2 6368     		ldr	r3, [r4, #4]
 259:Dsp/widget/wgt_core/UI_Controller.c ****         block_y = HandleToCheckBoxObj(item->Handler)->Gen_Data.y + 1;
 4590              		.loc 1 259 63 view .LVU1308
 4591 00d4 9888     		ldrh	r0, [r3, #4]	@ unaligned
 259:Dsp/widget/wgt_core/UI_Controller.c ****         block_y = HandleToCheckBoxObj(item->Handler)->Gen_Data.y + 1;
 4592              		.loc 1 259 66 view .LVU1309
 4593 00d6 0330     		adds	r0, r0, #3
 4594              	.LVL410:
 260:Dsp/widget/wgt_core/UI_Controller.c **** 
 4595              		.loc 1 260 9 is_stmt 1 view .LVU1310
 260:Dsp/widget/wgt_core/UI_Controller.c **** 
 4596              		.loc 1 260 63 is_stmt 0 view .LVU1311
 4597 00d8 D988     		ldrh	r1, [r3, #6]	@ unaligned
 260:Dsp/widget/wgt_core/UI_Controller.c **** 
 4598              		.loc 1 260 66 view .LVU1312
 4599 00da 0131     		adds	r1, r1, #1
 4600              	.LVL411:
 262:Dsp/widget/wgt_core/UI_Controller.c ****         break;
 4601              		.loc 1 262 9 is_stmt 1 view .LVU1313
 262:Dsp/widget/wgt_core/UI_Controller.c ****         break;
 4602              		.loc 1 262 24 is_stmt 0 view .LVU1314
 4603 00dc 214B     		ldr	r3, .L376+8
 4604 00de 5F6A     		ldr	r7, [r3, #36]
 262:Dsp/widget/wgt_core/UI_Controller.c ****         break;
 4605              		.loc 1 262 9 view .LVU1315
 4606 00e0 AA1F     		subs	r2, r5, #6
 4607 00e2 0124     		movs	r4, #1
 4608              	.LVL412:
 262:Dsp/widget/wgt_core/UI_Controller.c ****         break;
 4609              		.loc 1 262 9 view .LVU1316
 4610 00e4 0094     		str	r4, [sp]
 4611 00e6 3346     		mov	r3, r6
 4612 00e8 D2B2     		uxtb	r2, r2
 4613 00ea 09B2     		sxth	r1, r1
 262:Dsp/widget/wgt_core/UI_Controller.c ****         break;
ARM GAS  /var/folders/lx/hc4sn_b53233_zkc9xbbl97r0000gp/T//cc46Bl7B.s 			page 114


 4614              		.loc 1 262 9 view .LVU1317
 4615 00ec 00B2     		sxth	r0, r0
 262:Dsp/widget/wgt_core/UI_Controller.c ****         break;
 4616              		.loc 1 262 9 view .LVU1318
 4617 00ee B847     		blx	r7
 4618              	.LVL413:
 263:Dsp/widget/wgt_core/UI_Controller.c **** 
 4619              		.loc 1 263 9 is_stmt 1 view .LVU1319
 4620 00f0 9EE7     		b	.L357
 4621              	.LVL414:
 4622              	.L361:
 266:Dsp/widget/wgt_core/UI_Controller.c **** 
 4623              		.loc 1 266 9 view .LVU1320
 266:Dsp/widget/wgt_core/UI_Controller.c **** 
 4624              		.loc 1 266 19 is_stmt 0 view .LVU1321
 4625 00f2 D4F80480 		ldr	r8, [r4, #4]
 266:Dsp/widget/wgt_core/UI_Controller.c **** 
 4626              		.loc 1 266 63 view .LVU1322
 4627 00f6 B8F80610 		ldrh	r1, [r8, #6]	@ unaligned
 266:Dsp/widget/wgt_core/UI_Controller.c **** 
 4628              		.loc 1 266 66 view .LVU1323
 4629 00fa 0131     		adds	r1, r1, #1
 266:Dsp/widget/wgt_core/UI_Controller.c **** 
 4630              		.loc 1 266 17 view .LVU1324
 4631 00fc 0FB2     		sxth	r7, r1
 4632              	.LVL415:
 268:Dsp/widget/wgt_core/UI_Controller.c ****         {
 4633              		.loc 1 268 9 is_stmt 1 view .LVU1325
 268:Dsp/widget/wgt_core/UI_Controller.c ****         {
 4634              		.loc 1 268 14 is_stmt 0 view .LVU1326
 4635 00fe 4046     		mov	r0, r8
 4636 0100 FFF7FEFF 		bl	UI_SlideBar_IsSelected
 4637              	.LVL416:
 268:Dsp/widget/wgt_core/UI_Controller.c ****         {
 4638              		.loc 1 268 12 view .LVU1327
 4639 0104 0446     		mov	r4, r0
 4640              	.LVL417:
 268:Dsp/widget/wgt_core/UI_Controller.c ****         {
 4641              		.loc 1 268 12 view .LVU1328
 4642 0106 70B9     		cbnz	r0, .L364
 270:Dsp/widget/wgt_core/UI_Controller.c **** 
 4643              		.loc 1 270 13 is_stmt 1 view .LVU1329
 270:Dsp/widget/wgt_core/UI_Controller.c **** 
 4644              		.loc 1 270 67 is_stmt 0 view .LVU1330
 4645 0108 B8F80400 		ldrh	r0, [r8, #4]	@ unaligned
 270:Dsp/widget/wgt_core/UI_Controller.c **** 
 4646              		.loc 1 270 70 view .LVU1331
 4647 010c 0330     		adds	r0, r0, #3
 4648              	.LVL418:
 272:Dsp/widget/wgt_core/UI_Controller.c ****         }
 4649              		.loc 1 272 13 is_stmt 1 view .LVU1332
 272:Dsp/widget/wgt_core/UI_Controller.c ****         }
 4650              		.loc 1 272 28 is_stmt 0 view .LVU1333
 4651 010e 154B     		ldr	r3, .L376+8
 4652 0110 D3F82480 		ldr	r8, [r3, #36]
 272:Dsp/widget/wgt_core/UI_Controller.c ****         }
 4653              		.loc 1 272 13 view .LVU1334
ARM GAS  /var/folders/lx/hc4sn_b53233_zkc9xbbl97r0000gp/T//cc46Bl7B.s 			page 115


 4654 0114 AA1F     		subs	r2, r5, #6
 4655 0116 0124     		movs	r4, #1
 4656 0118 0094     		str	r4, [sp]
 4657 011a 3346     		mov	r3, r6
 4658 011c D2B2     		uxtb	r2, r2
 4659 011e 3946     		mov	r1, r7
 4660 0120 00B2     		sxth	r0, r0
 272:Dsp/widget/wgt_core/UI_Controller.c ****         }
 4661              		.loc 1 272 13 view .LVU1335
 4662 0122 C047     		blx	r8
 4663              	.LVL419:
 272:Dsp/widget/wgt_core/UI_Controller.c ****         }
 4664              		.loc 1 272 13 view .LVU1336
 4665 0124 84E7     		b	.L357
 4666              	.L364:
 276:Dsp/widget/wgt_core/UI_Controller.c **** 
 4667              		.loc 1 276 13 is_stmt 1 view .LVU1337
 276:Dsp/widget/wgt_core/UI_Controller.c **** 
 4668              		.loc 1 276 57 is_stmt 0 view .LVU1338
 4669 0126 B8F82400 		ldrh	r0, [r8, #36]	@ unaligned
 276:Dsp/widget/wgt_core/UI_Controller.c **** 
 4670              		.loc 1 276 70 view .LVU1339
 4671 012a 0338     		subs	r0, r0, #3
 4672 012c 82B2     		uxth	r2, r0
 4673              	.LVL420:
 278:Dsp/widget/wgt_core/UI_Controller.c ****         }
 4674              		.loc 1 278 13 is_stmt 1 view .LVU1340
 278:Dsp/widget/wgt_core/UI_Controller.c ****         }
 4675              		.loc 1 278 28 is_stmt 0 view .LVU1341
 4676 012e 0D4B     		ldr	r3, .L376+8
 4677 0130 D3F82480 		ldr	r8, [r3, #36]
 278:Dsp/widget/wgt_core/UI_Controller.c ****         }
 4678              		.loc 1 278 76 view .LVU1342
 4679 0134 AA1A     		subs	r2, r5, r2
 4680 0136 D2B2     		uxtb	r2, r2
 278:Dsp/widget/wgt_core/UI_Controller.c ****         }
 4681              		.loc 1 278 13 view .LVU1343
 4682 0138 063A     		subs	r2, r2, #6
 4683 013a 0123     		movs	r3, #1
 4684 013c 0093     		str	r3, [sp]
 4685 013e 3346     		mov	r3, r6
 4686 0140 D2B2     		uxtb	r2, r2
 4687 0142 3946     		mov	r1, r7
 4688 0144 00B2     		sxth	r0, r0
 278:Dsp/widget/wgt_core/UI_Controller.c ****         }
 4689              		.loc 1 278 13 view .LVU1344
 4690 0146 C047     		blx	r8
 4691              	.LVL421:
 278:Dsp/widget/wgt_core/UI_Controller.c ****         }
 4692              		.loc 1 278 13 view .LVU1345
 4693 0148 72E7     		b	.L357
 4694              	.LVL422:
 4695              	.L374:
 210:Dsp/widget/wgt_core/UI_Controller.c ****     }
 4696              		.loc 1 210 20 view .LVU1346
 4697 014a 0024     		movs	r4, #0
 4698              	.LVL423:
ARM GAS  /var/folders/lx/hc4sn_b53233_zkc9xbbl97r0000gp/T//cc46Bl7B.s 			page 116


 210:Dsp/widget/wgt_core/UI_Controller.c ****     }
 4699              		.loc 1 210 20 view .LVU1347
 4700 014c 70E7     		b	.L357
 4701              	.LVL424:
 4702              	.L367:
 214:Dsp/widget/wgt_core/UI_Controller.c **** 
 4703              		.loc 1 214 16 view .LVU1348
 4704 014e 0024     		movs	r4, #0
 4705              	.LVL425:
 214:Dsp/widget/wgt_core/UI_Controller.c **** 
 4706              		.loc 1 214 16 view .LVU1349
 4707 0150 6EE7     		b	.L357
 4708              	.LVL426:
 4709              	.L371:
 299:Dsp/widget/wgt_core/UI_Controller.c **** }
 4710              		.loc 1 299 12 view .LVU1350
 4711 0152 0124     		movs	r4, #1
 4712              	.LVL427:
 299:Dsp/widget/wgt_core/UI_Controller.c **** }
 4713              		.loc 1 299 12 view .LVU1351
 4714 0154 6CE7     		b	.L357
 4715              	.LVL428:
 4716              	.L372:
 236:Dsp/widget/wgt_core/UI_Controller.c **** 
 4717              		.loc 1 236 20 view .LVU1352
 4718 0156 0024     		movs	r4, #0
 4719              	.LVL429:
 236:Dsp/widget/wgt_core/UI_Controller.c **** 
 4720              		.loc 1 236 20 view .LVU1353
 4721 0158 6AE7     		b	.L357
 4722              	.L377:
 4723 015a 00BF     		.align	2
 4724              	.L376:
 4725 015c 00000000 		.word	.LANCHOR1
 4726 0160 00000000 		.word	.LANCHOR2
 4727 0164 00000000 		.word	.LANCHOR0
 4728              		.cfi_endproc
 4729              	.LFE7:
 4731              		.global	UI_Drop
 4732              		.global	UI_ProcessBar
 4733              		.global	UI_SlideBar
 4734              		.global	UI_CheckBox
 4735              		.global	UI_Button
 4736              		.global	UI_Get_WidgetWidth
 4737              		.section	.bss.UI_DspInterface,"aw",%nobits
 4738              		.align	2
 4739              		.set	.LANCHOR0,. + 0
 4742              	UI_DspInterface:
 4743 0000 00000000 		.space	52
 4743      00000000 
 4743      00000000 
 4743      00000000 
 4743      00000000 
 4744              		.section	.bss.UI_Get_WidgetWidth,"aw",%nobits
 4745              		.align	2
 4746              		.set	.LANCHOR1,. + 0
 4749              	UI_Get_WidgetWidth:
ARM GAS  /var/folders/lx/hc4sn_b53233_zkc9xbbl97r0000gp/T//cc46Bl7B.s 			page 117


 4750 0000 00000000 		.space	4
 4751              		.section	.data.UI_Button,"aw"
 4752              		.align	2
 4755              	UI_Button:
 4756 0000 00000000 		.word	UI_Button_Init
 4757 0004 00000000 		.word	UI_Button_Set_TriggerCallback
 4758 0008 00000000 		.word	UI_Button_Set_Label
 4759 000c 00000000 		.word	UI_Button_Push
 4760 0010 00000000 		.word	UI_Button_Release
 4761 0014 00000000 		.word	UI_Button_Ctl
 4762 0018 00000000 		.word	UI_Button_Move
 4763              		.section	.data.UI_CheckBox,"aw"
 4764              		.align	2
 4767              	UI_CheckBox:
 4768 0000 00000000 		.word	UI_CheckBox_Init
 4769 0004 00000000 		.word	UI_CheckBox_SetCallback
 4770 0008 00000000 		.word	UI_CheckBox_Move
 4771 000c 00000000 		.word	UI_CheckBox_Trigger
 4772 0010 00000000 		.word	UI_CheckBox_Ctl
 4773              		.section	.data.UI_Drop,"aw"
 4774              		.align	2
 4777              	UI_Drop:
 4778 0000 00000000 		.word	UI_Drop_Init
 4779 0004 00000000 		.word	UI_Drop_AddDropItem
 4780 0008 00000000 		.word	UI_Drop_Move
 4781 000c 00000000 		.word	UI_Drop_SelectItem
 4782 0010 00000000 		.word	UI_Drop_SetSelect
 4783 0014 00000000 		.word	UI_Drop_GetSelect
 4784 0018 00000000 		.word	UI_Drop_Ctl
 4785              		.section	.data.UI_ProcessBar,"aw"
 4786              		.align	2
 4789              	UI_ProcessBar:
 4790 0000 00000000 		.word	UI_ProcessBar_Init
 4791 0004 00000000 		.word	UI_ProcessBar_Move
 4792 0008 00000000 		.word	UI_ProcessBar_SetDspDir
 4793 000c 00000000 		.word	UI_ProcessBar_SetCurVal
 4794 0010 00000000 		.word	UI_ProcessBar_Ctl
 4795 0014 00000000 		.space	8
 4795      00000000 
 4796              		.section	.data.UI_SlideBar,"aw"
 4797              		.align	2
 4800              	UI_SlideBar:
 4801 0000 00000000 		.word	UI_SlideBar_Init
 4802 0004 00000000 		.word	UI_SlideBar_SetCallBack
 4803 0008 00000000 		.word	UI_SlideBar_Move
 4804 000c 00000000 		.word	UI_SlideBar_Input
 4805 0010 00000000 		.word	UI_SlideBar_Trigger
 4806 0014 00000000 		.word	UI_SlideBar_CTL
 4807 0018 00000000 		.word	UI_SlideBar_SetSelect
 4808 001c 00000000 		.word	UI_SlideBar_IsSelected
 4809              		.section	.data.base_font,"aw"
 4810              		.set	.LANCHOR2,. + 0
 4813              	base_font:
 4814 0000 08       		.byte	8
 4815              		.text
 4816              	.Letext0:
 4817              		.file 2 "/usr/local/arm-none-eabi-gcc/gcc-arm-none-eabi-10-2020-q4-major/arm-none-eabi/include/mac
ARM GAS  /var/folders/lx/hc4sn_b53233_zkc9xbbl97r0000gp/T//cc46Bl7B.s 			page 118


 4818              		.file 3 "/usr/local/arm-none-eabi-gcc/gcc-arm-none-eabi-10-2020-q4-major/arm-none-eabi/include/sys
 4819              		.file 4 "Dsp/screen/font/oledfont.h"
 4820              		.file 5 "SYS/data_structure/linked_list.h"
 4821              		.file 6 "Dsp/widget/wgt_core/UI_Controller.h"
 4822              		.file 7 "/usr/local/arm-none-eabi-gcc/gcc-arm-none-eabi-10-2020-q4-major/arm-none-eabi/include/str
 4823              		.file 8 "/usr/local/arm-none-eabi-gcc/gcc-arm-none-eabi-10-2020-q4-major/arm-none-eabi/include/std
ARM GAS  /var/folders/lx/hc4sn_b53233_zkc9xbbl97r0000gp/T//cc46Bl7B.s 			page 119


DEFINED SYMBOLS
                            *ABS*:0000000000000000 UI_Controller.c
/var/folders/lx/hc4sn_b53233_zkc9xbbl97r0000gp/T//cc46Bl7B.s:18     .text.UI_Draw_HorDotLine:0000000000000000 $t
/var/folders/lx/hc4sn_b53233_zkc9xbbl97r0000gp/T//cc46Bl7B.s:25     .text.UI_Draw_HorDotLine:0000000000000000 UI_Draw_HorDotLine
/var/folders/lx/hc4sn_b53233_zkc9xbbl97r0000gp/T//cc46Bl7B.s:156    .text.UI_Draw_HorDotLine:0000000000000068 $d
/var/folders/lx/hc4sn_b53233_zkc9xbbl97r0000gp/T//cc46Bl7B.s:162    .text.UI_GenData_Init:0000000000000000 $t
/var/folders/lx/hc4sn_b53233_zkc9xbbl97r0000gp/T//cc46Bl7B.s:168    .text.UI_GenData_Init:0000000000000000 UI_GenData_Init
/var/folders/lx/hc4sn_b53233_zkc9xbbl97r0000gp/T//cc46Bl7B.s:197    .text.UI_Move:0000000000000000 $t
/var/folders/lx/hc4sn_b53233_zkc9xbbl97r0000gp/T//cc46Bl7B.s:203    .text.UI_Move:0000000000000000 UI_Move
/var/folders/lx/hc4sn_b53233_zkc9xbbl97r0000gp/T//cc46Bl7B.s:237    .rodata.UI_Button_Init.str1.4:0000000000000000 $d
/var/folders/lx/hc4sn_b53233_zkc9xbbl97r0000gp/T//cc46Bl7B.s:244    .text.UI_Button_Init:0000000000000000 $t
/var/folders/lx/hc4sn_b53233_zkc9xbbl97r0000gp/T//cc46Bl7B.s:250    .text.UI_Button_Init:0000000000000000 UI_Button_Init
/var/folders/lx/hc4sn_b53233_zkc9xbbl97r0000gp/T//cc46Bl7B.s:317    .text.UI_Button_Init:0000000000000040 $d
/var/folders/lx/hc4sn_b53233_zkc9xbbl97r0000gp/T//cc46Bl7B.s:323    .text.UI_Button_Set_Label:0000000000000000 $t
/var/folders/lx/hc4sn_b53233_zkc9xbbl97r0000gp/T//cc46Bl7B.s:329    .text.UI_Button_Set_Label:0000000000000000 UI_Button_Set_Label
/var/folders/lx/hc4sn_b53233_zkc9xbbl97r0000gp/T//cc46Bl7B.s:373    .text.UI_Button_Set_TriggerCallback:0000000000000000 $t
/var/folders/lx/hc4sn_b53233_zkc9xbbl97r0000gp/T//cc46Bl7B.s:379    .text.UI_Button_Set_TriggerCallback:0000000000000000 UI_Button_Set_TriggerCallback
/var/folders/lx/hc4sn_b53233_zkc9xbbl97r0000gp/T//cc46Bl7B.s:433    .text.UI_Button_Push:0000000000000000 $t
/var/folders/lx/hc4sn_b53233_zkc9xbbl97r0000gp/T//cc46Bl7B.s:439    .text.UI_Button_Push:0000000000000000 UI_Button_Push
/var/folders/lx/hc4sn_b53233_zkc9xbbl97r0000gp/T//cc46Bl7B.s:556    .text.UI_Button_Release:0000000000000000 $t
/var/folders/lx/hc4sn_b53233_zkc9xbbl97r0000gp/T//cc46Bl7B.s:562    .text.UI_Button_Release:0000000000000000 UI_Button_Release
/var/folders/lx/hc4sn_b53233_zkc9xbbl97r0000gp/T//cc46Bl7B.s:648    .text.UI_Button_Move:0000000000000000 $t
/var/folders/lx/hc4sn_b53233_zkc9xbbl97r0000gp/T//cc46Bl7B.s:654    .text.UI_Button_Move:0000000000000000 UI_Button_Move
/var/folders/lx/hc4sn_b53233_zkc9xbbl97r0000gp/T//cc46Bl7B.s:695    .text.UI_Button_Ctl:0000000000000000 $t
/var/folders/lx/hc4sn_b53233_zkc9xbbl97r0000gp/T//cc46Bl7B.s:701    .text.UI_Button_Ctl:0000000000000000 UI_Button_Ctl
/var/folders/lx/hc4sn_b53233_zkc9xbbl97r0000gp/T//cc46Bl7B.s:960    .text.UI_Button_Ctl:0000000000000110 $d
/var/folders/lx/hc4sn_b53233_zkc9xbbl97r0000gp/T//cc46Bl7B.s:966    .text.UI_CheckBox_Init:0000000000000000 $t
/var/folders/lx/hc4sn_b53233_zkc9xbbl97r0000gp/T//cc46Bl7B.s:972    .text.UI_CheckBox_Init:0000000000000000 UI_CheckBox_Init
/var/folders/lx/hc4sn_b53233_zkc9xbbl97r0000gp/T//cc46Bl7B.s:1023   .text.UI_CheckBox_SetCallback:0000000000000000 $t
/var/folders/lx/hc4sn_b53233_zkc9xbbl97r0000gp/T//cc46Bl7B.s:1029   .text.UI_CheckBox_SetCallback:0000000000000000 UI_CheckBox_SetCallback
/var/folders/lx/hc4sn_b53233_zkc9xbbl97r0000gp/T//cc46Bl7B.s:1060   .text.UI_CheckBox_Move:0000000000000000 $t
/var/folders/lx/hc4sn_b53233_zkc9xbbl97r0000gp/T//cc46Bl7B.s:1066   .text.UI_CheckBox_Move:0000000000000000 UI_CheckBox_Move
/var/folders/lx/hc4sn_b53233_zkc9xbbl97r0000gp/T//cc46Bl7B.s:1103   .text.UI_CheckBox_Trigger:0000000000000000 $t
/var/folders/lx/hc4sn_b53233_zkc9xbbl97r0000gp/T//cc46Bl7B.s:1109   .text.UI_CheckBox_Trigger:0000000000000000 UI_CheckBox_Trigger
/var/folders/lx/hc4sn_b53233_zkc9xbbl97r0000gp/T//cc46Bl7B.s:1171   .text.UI_SlideBar_Init:0000000000000000 $t
/var/folders/lx/hc4sn_b53233_zkc9xbbl97r0000gp/T//cc46Bl7B.s:1177   .text.UI_SlideBar_Init:0000000000000000 UI_SlideBar_Init
/var/folders/lx/hc4sn_b53233_zkc9xbbl97r0000gp/T//cc46Bl7B.s:1323   .text.UI_SlideBar_Move:0000000000000000 $t
/var/folders/lx/hc4sn_b53233_zkc9xbbl97r0000gp/T//cc46Bl7B.s:1329   .text.UI_SlideBar_Move:0000000000000000 UI_SlideBar_Move
/var/folders/lx/hc4sn_b53233_zkc9xbbl97r0000gp/T//cc46Bl7B.s:1366   .text.UI_SlideBar_SetCallBack:0000000000000000 $t
/var/folders/lx/hc4sn_b53233_zkc9xbbl97r0000gp/T//cc46Bl7B.s:1372   .text.UI_SlideBar_SetCallBack:0000000000000000 UI_SlideBar_SetCallBack
/var/folders/lx/hc4sn_b53233_zkc9xbbl97r0000gp/T//cc46Bl7B.s:1403   .text.UI_SlideBar_Input:0000000000000000 $t
/var/folders/lx/hc4sn_b53233_zkc9xbbl97r0000gp/T//cc46Bl7B.s:1409   .text.UI_SlideBar_Input:0000000000000000 UI_SlideBar_Input
/var/folders/lx/hc4sn_b53233_zkc9xbbl97r0000gp/T//cc46Bl7B.s:1502   .text.UI_SlideBar_Trigger:0000000000000000 $t
/var/folders/lx/hc4sn_b53233_zkc9xbbl97r0000gp/T//cc46Bl7B.s:1508   .text.UI_SlideBar_Trigger:0000000000000000 UI_SlideBar_Trigger
/var/folders/lx/hc4sn_b53233_zkc9xbbl97r0000gp/T//cc46Bl7B.s:1572   .text.UI_SlideBar_SetSelect:0000000000000000 $t
/var/folders/lx/hc4sn_b53233_zkc9xbbl97r0000gp/T//cc46Bl7B.s:1578   .text.UI_SlideBar_SetSelect:0000000000000000 UI_SlideBar_SetSelect
/var/folders/lx/hc4sn_b53233_zkc9xbbl97r0000gp/T//cc46Bl7B.s:1600   .text.UI_SlideBar_IsSelected:0000000000000000 $t
/var/folders/lx/hc4sn_b53233_zkc9xbbl97r0000gp/T//cc46Bl7B.s:1606   .text.UI_SlideBar_IsSelected:0000000000000000 UI_SlideBar_IsSelected
/var/folders/lx/hc4sn_b53233_zkc9xbbl97r0000gp/T//cc46Bl7B.s:1634   .text.UI_ProcessBar_Init:0000000000000000 $t
/var/folders/lx/hc4sn_b53233_zkc9xbbl97r0000gp/T//cc46Bl7B.s:1640   .text.UI_ProcessBar_Init:0000000000000000 UI_ProcessBar_Init
/var/folders/lx/hc4sn_b53233_zkc9xbbl97r0000gp/T//cc46Bl7B.s:1770   .text.UI_ProcessBar_Init:000000000000007c $d
/var/folders/lx/hc4sn_b53233_zkc9xbbl97r0000gp/T//cc46Bl7B.s:1775   .text.UI_ProcessBar_SetDspDir:0000000000000000 $t
/var/folders/lx/hc4sn_b53233_zkc9xbbl97r0000gp/T//cc46Bl7B.s:1781   .text.UI_ProcessBar_SetDspDir:0000000000000000 UI_ProcessBar_SetDspDir
/var/folders/lx/hc4sn_b53233_zkc9xbbl97r0000gp/T//cc46Bl7B.s:1826   .text.UI_ProcessBar_SetCurVal:0000000000000000 $t
/var/folders/lx/hc4sn_b53233_zkc9xbbl97r0000gp/T//cc46Bl7B.s:1832   .text.UI_ProcessBar_SetCurVal:0000000000000000 UI_ProcessBar_SetCurVal
/var/folders/lx/hc4sn_b53233_zkc9xbbl97r0000gp/T//cc46Bl7B.s:1920   .text.UI_ProcessBar_Move:0000000000000000 $t
/var/folders/lx/hc4sn_b53233_zkc9xbbl97r0000gp/T//cc46Bl7B.s:1926   .text.UI_ProcessBar_Move:0000000000000000 UI_ProcessBar_Move
ARM GAS  /var/folders/lx/hc4sn_b53233_zkc9xbbl97r0000gp/T//cc46Bl7B.s 			page 120


/var/folders/lx/hc4sn_b53233_zkc9xbbl97r0000gp/T//cc46Bl7B.s:1967   .text.UI_ProcessBar_DspDotBar:0000000000000000 $t
/var/folders/lx/hc4sn_b53233_zkc9xbbl97r0000gp/T//cc46Bl7B.s:1973   .text.UI_ProcessBar_DspDotBar:0000000000000000 UI_ProcessBar_DspDotBar
/var/folders/lx/hc4sn_b53233_zkc9xbbl97r0000gp/T//cc46Bl7B.s:2366   .text.UI_ProcessBar_DspDotBar:00000000000001f0 $d
/var/folders/lx/hc4sn_b53233_zkc9xbbl97r0000gp/T//cc46Bl7B.s:2371   .text.UI_Drop_Init:0000000000000000 $t
/var/folders/lx/hc4sn_b53233_zkc9xbbl97r0000gp/T//cc46Bl7B.s:2377   .text.UI_Drop_Init:0000000000000000 UI_Drop_Init
/var/folders/lx/hc4sn_b53233_zkc9xbbl97r0000gp/T//cc46Bl7B.s:2436   .text.UI_Drop_Move:0000000000000000 $t
/var/folders/lx/hc4sn_b53233_zkc9xbbl97r0000gp/T//cc46Bl7B.s:2442   .text.UI_Drop_Move:0000000000000000 UI_Drop_Move
/var/folders/lx/hc4sn_b53233_zkc9xbbl97r0000gp/T//cc46Bl7B.s:2479   .text.UI_Drop_SetSelect:0000000000000000 $t
/var/folders/lx/hc4sn_b53233_zkc9xbbl97r0000gp/T//cc46Bl7B.s:2485   .text.UI_Drop_SetSelect:0000000000000000 UI_Drop_SetSelect
/var/folders/lx/hc4sn_b53233_zkc9xbbl97r0000gp/T//cc46Bl7B.s:2568   .text.UI_Drop_GetSelect:0000000000000000 $t
/var/folders/lx/hc4sn_b53233_zkc9xbbl97r0000gp/T//cc46Bl7B.s:2574   .text.UI_Drop_GetSelect:0000000000000000 UI_Drop_GetSelect
/var/folders/lx/hc4sn_b53233_zkc9xbbl97r0000gp/T//cc46Bl7B.s:2602   .text.UI_Drop_SelectItem:0000000000000000 $t
/var/folders/lx/hc4sn_b53233_zkc9xbbl97r0000gp/T//cc46Bl7B.s:2608   .text.UI_Drop_SelectItem:0000000000000000 UI_Drop_SelectItem
/var/folders/lx/hc4sn_b53233_zkc9xbbl97r0000gp/T//cc46Bl7B.s:2711   .text.UI_Drop_Ctl:0000000000000000 $t
/var/folders/lx/hc4sn_b53233_zkc9xbbl97r0000gp/T//cc46Bl7B.s:2717   .text.UI_Drop_Ctl:0000000000000000 UI_Drop_Ctl
/var/folders/lx/hc4sn_b53233_zkc9xbbl97r0000gp/T//cc46Bl7B.s:2882   .text.UI_Drop_Ctl:0000000000000098 $d
/var/folders/lx/hc4sn_b53233_zkc9xbbl97r0000gp/T//cc46Bl7B.s:2888   .text.UI_CheckBox_Ctl:0000000000000000 $t
/var/folders/lx/hc4sn_b53233_zkc9xbbl97r0000gp/T//cc46Bl7B.s:2894   .text.UI_CheckBox_Ctl:0000000000000000 UI_CheckBox_Ctl
/var/folders/lx/hc4sn_b53233_zkc9xbbl97r0000gp/T//cc46Bl7B.s:3075   .text.UI_CheckBox_Ctl:00000000000000b8 $d
/var/folders/lx/hc4sn_b53233_zkc9xbbl97r0000gp/T//cc46Bl7B.s:3081   .text.UI_SlideBar_CTL:0000000000000000 $t
/var/folders/lx/hc4sn_b53233_zkc9xbbl97r0000gp/T//cc46Bl7B.s:3087   .text.UI_SlideBar_CTL:0000000000000000 UI_SlideBar_CTL
/var/folders/lx/hc4sn_b53233_zkc9xbbl97r0000gp/T//cc46Bl7B.s:3358   .text.UI_SlideBar_CTL:0000000000000124 $d
/var/folders/lx/hc4sn_b53233_zkc9xbbl97r0000gp/T//cc46Bl7B.s:3365   .text.UI_ProcessBar_DspFrameBar:0000000000000000 $t
/var/folders/lx/hc4sn_b53233_zkc9xbbl97r0000gp/T//cc46Bl7B.s:3371   .text.UI_ProcessBar_DspFrameBar:0000000000000000 UI_ProcessBar_DspFrameBar
/var/folders/lx/hc4sn_b53233_zkc9xbbl97r0000gp/T//cc46Bl7B.s:3679   .text.UI_ProcessBar_DspFrameBar:0000000000000180 $d
/var/folders/lx/hc4sn_b53233_zkc9xbbl97r0000gp/T//cc46Bl7B.s:3685   .rodata.UI_ProcessBar_DspLoadBar.str1.4:0000000000000000 $d
/var/folders/lx/hc4sn_b53233_zkc9xbbl97r0000gp/T//cc46Bl7B.s:3689   .text.UI_ProcessBar_DspLoadBar:0000000000000000 $t
/var/folders/lx/hc4sn_b53233_zkc9xbbl97r0000gp/T//cc46Bl7B.s:3695   .text.UI_ProcessBar_DspLoadBar:0000000000000000 UI_ProcessBar_DspLoadBar
/var/folders/lx/hc4sn_b53233_zkc9xbbl97r0000gp/T//cc46Bl7B.s:3897   .text.UI_ProcessBar_DspLoadBar:00000000000000f8 $d
/var/folders/lx/hc4sn_b53233_zkc9xbbl97r0000gp/T//cc46Bl7B.s:3905   .text.UI_ProcessBar_Ctl:0000000000000000 $t
/var/folders/lx/hc4sn_b53233_zkc9xbbl97r0000gp/T//cc46Bl7B.s:3911   .text.UI_ProcessBar_Ctl:0000000000000000 UI_ProcessBar_Ctl
/var/folders/lx/hc4sn_b53233_zkc9xbbl97r0000gp/T//cc46Bl7B.s:4004   .text.UI_ProcessBar_Ctl:000000000000004c $d
/var/folders/lx/hc4sn_b53233_zkc9xbbl97r0000gp/T//cc46Bl7B.s:4009   .text.UI_Drop_CreateDropItem:0000000000000000 $t
/var/folders/lx/hc4sn_b53233_zkc9xbbl97r0000gp/T//cc46Bl7B.s:4015   .text.UI_Drop_CreateDropItem:0000000000000000 UI_Drop_CreateDropItem
/var/folders/lx/hc4sn_b53233_zkc9xbbl97r0000gp/T//cc46Bl7B.s:4098   .text.UI_Drop_AddDropItem:0000000000000000 $t
/var/folders/lx/hc4sn_b53233_zkc9xbbl97r0000gp/T//cc46Bl7B.s:4104   .text.UI_Drop_AddDropItem:0000000000000000 UI_Drop_AddDropItem
/var/folders/lx/hc4sn_b53233_zkc9xbbl97r0000gp/T//cc46Bl7B.s:4197   .text.UI_Set_FontType:0000000000000000 $t
/var/folders/lx/hc4sn_b53233_zkc9xbbl97r0000gp/T//cc46Bl7B.s:4204   .text.UI_Set_FontType:0000000000000000 UI_Set_FontType
/var/folders/lx/hc4sn_b53233_zkc9xbbl97r0000gp/T//cc46Bl7B.s:4239   .text.UI_Set_FontType:0000000000000018 $d
/var/folders/lx/hc4sn_b53233_zkc9xbbl97r0000gp/T//cc46Bl7B.s:4244   .text.UI_Set_DspInterface:0000000000000000 $t
/var/folders/lx/hc4sn_b53233_zkc9xbbl97r0000gp/T//cc46Bl7B.s:4251   .text.UI_Set_DspInterface:0000000000000000 UI_Set_DspInterface
/var/folders/lx/hc4sn_b53233_zkc9xbbl97r0000gp/T//cc46Bl7B.s:4328   .text.UI_Set_DspInterface:0000000000000034 $d
/var/folders/lx/hc4sn_b53233_zkc9xbbl97r0000gp/T//cc46Bl7B.s:4333   .text.UI_Set_GetWidgetWidthMathod:0000000000000000 $t
/var/folders/lx/hc4sn_b53233_zkc9xbbl97r0000gp/T//cc46Bl7B.s:4340   .text.UI_Set_GetWidgetWidthMathod:0000000000000000 UI_Set_GetWidgetWidthMathod
/var/folders/lx/hc4sn_b53233_zkc9xbbl97r0000gp/T//cc46Bl7B.s:4357   .text.UI_Set_GetWidgetWidthMathod:0000000000000008 $d
/var/folders/lx/hc4sn_b53233_zkc9xbbl97r0000gp/T//cc46Bl7B.s:4362   .text.UI_ShowSelector:0000000000000000 $t
/var/folders/lx/hc4sn_b53233_zkc9xbbl97r0000gp/T//cc46Bl7B.s:4369   .text.UI_ShowSelector:0000000000000000 UI_ShowSelector
/var/folders/lx/hc4sn_b53233_zkc9xbbl97r0000gp/T//cc46Bl7B.s:4466   .text.UI_ShowSelector:0000000000000048 $d
/var/folders/lx/hc4sn_b53233_zkc9xbbl97r0000gp/T//cc46Bl7B.s:4725   .text.UI_ShowSelector:000000000000015c $d
/var/folders/lx/hc4sn_b53233_zkc9xbbl97r0000gp/T//cc46Bl7B.s:4777   .data.UI_Drop:0000000000000000 UI_Drop
/var/folders/lx/hc4sn_b53233_zkc9xbbl97r0000gp/T//cc46Bl7B.s:4789   .data.UI_ProcessBar:0000000000000000 UI_ProcessBar
/var/folders/lx/hc4sn_b53233_zkc9xbbl97r0000gp/T//cc46Bl7B.s:4800   .data.UI_SlideBar:0000000000000000 UI_SlideBar
/var/folders/lx/hc4sn_b53233_zkc9xbbl97r0000gp/T//cc46Bl7B.s:4767   .data.UI_CheckBox:0000000000000000 UI_CheckBox
/var/folders/lx/hc4sn_b53233_zkc9xbbl97r0000gp/T//cc46Bl7B.s:4755   .data.UI_Button:0000000000000000 UI_Button
/var/folders/lx/hc4sn_b53233_zkc9xbbl97r0000gp/T//cc46Bl7B.s:4749   .bss.UI_Get_WidgetWidth:0000000000000000 UI_Get_WidgetWidth
/var/folders/lx/hc4sn_b53233_zkc9xbbl97r0000gp/T//cc46Bl7B.s:4738   .bss.UI_DspInterface:0000000000000000 $d
/var/folders/lx/hc4sn_b53233_zkc9xbbl97r0000gp/T//cc46Bl7B.s:4742   .bss.UI_DspInterface:0000000000000000 UI_DspInterface
ARM GAS  /var/folders/lx/hc4sn_b53233_zkc9xbbl97r0000gp/T//cc46Bl7B.s 			page 121


/var/folders/lx/hc4sn_b53233_zkc9xbbl97r0000gp/T//cc46Bl7B.s:4745   .bss.UI_Get_WidgetWidth:0000000000000000 $d
/var/folders/lx/hc4sn_b53233_zkc9xbbl97r0000gp/T//cc46Bl7B.s:4752   .data.UI_Button:0000000000000000 $d
/var/folders/lx/hc4sn_b53233_zkc9xbbl97r0000gp/T//cc46Bl7B.s:4764   .data.UI_CheckBox:0000000000000000 $d
/var/folders/lx/hc4sn_b53233_zkc9xbbl97r0000gp/T//cc46Bl7B.s:4774   .data.UI_Drop:0000000000000000 $d
/var/folders/lx/hc4sn_b53233_zkc9xbbl97r0000gp/T//cc46Bl7B.s:4786   .data.UI_ProcessBar:0000000000000000 $d
/var/folders/lx/hc4sn_b53233_zkc9xbbl97r0000gp/T//cc46Bl7B.s:4797   .data.UI_SlideBar:0000000000000000 $d
/var/folders/lx/hc4sn_b53233_zkc9xbbl97r0000gp/T//cc46Bl7B.s:4813   .data.base_font:0000000000000000 base_font
/var/folders/lx/hc4sn_b53233_zkc9xbbl97r0000gp/T//cc46Bl7B.s:4472   .text.UI_ShowSelector:000000000000004d $d
/var/folders/lx/hc4sn_b53233_zkc9xbbl97r0000gp/T//cc46Bl7B.s:4472   .text.UI_ShowSelector:000000000000004e $t

UNDEFINED SYMBOLS
strlen
sprintf
MMU_malloc
List_ItemInit
List_Insert_Item
List_Init
