ARM GAS  C:\Users\97116\AppData\Local\Temp\ccKPb0rV.s 			page 1


   1              		.cpu cortex-m4
   2              		.eabi_attribute 27, 1
   3              		.eabi_attribute 28, 1
   4              		.eabi_attribute 20, 1
   5              		.eabi_attribute 21, 1
   6              		.eabi_attribute 23, 3
   7              		.eabi_attribute 24, 1
   8              		.eabi_attribute 25, 1
   9              		.eabi_attribute 26, 1
  10              		.eabi_attribute 30, 1
  11              		.eabi_attribute 34, 1
  12              		.eabi_attribute 18, 4
  13              		.file	"UI_Controller.c"
  14              		.text
  15              	.Ltext0:
  16              		.cfi_sections	.debug_frame
  17              		.section	.text.UI_GenData_Init,"ax",%progbits
  18              		.align	1
  19              		.arch armv7e-m
  20              		.syntax unified
  21              		.thumb
  22              		.thumb_func
  23              		.fpu fpv4-sp-d16
  25              	UI_GenData_Init:
  26              	.LVL0:
  27              	.LFB2:
  28              		.file 1 "Dsp/widget/wgt_core/UI_Controller.c"
   1:Dsp/widget/wgt_core/UI_Controller.c **** #include "UI_Controller.h"
   2:Dsp/widget/wgt_core/UI_Controller.c **** #include "runtime.h"
   3:Dsp/widget/wgt_core/UI_Controller.c **** #include <stdlib.h>
   4:Dsp/widget/wgt_core/UI_Controller.c **** 
   5:Dsp/widget/wgt_core/UI_Controller.c **** /* internal object */
   6:Dsp/widget/wgt_core/UI_Controller.c **** static UI_DrawInterface_TypeDef UI_DspInterface;
   7:Dsp/widget/wgt_core/UI_Controller.c **** 
   8:Dsp/widget/wgt_core/UI_Controller.c **** /* external function */
   9:Dsp/widget/wgt_core/UI_Controller.c **** static bool UI_Button_Init(UI_ButtonObj_TypeDef *Obj, char *label, int8_t x, int8_t y, uint8_t widt
  10:Dsp/widget/wgt_core/UI_Controller.c **** static bool UI_Button_Set_Label(UI_ButtonObj_TypeDef *Obj, UI_Button_State_List state, char *label)
  11:Dsp/widget/wgt_core/UI_Controller.c **** static bool UI_Button_Set_TriggerCallback(UI_ButtonObj_TypeDef *Obj, UI_Button_Trigger_Type type, U
  12:Dsp/widget/wgt_core/UI_Controller.c **** static bool UI_Button_Push(UI_ButtonObj_TypeDef *Obj);
  13:Dsp/widget/wgt_core/UI_Controller.c **** static bool UI_Button_Release(UI_ButtonObj_TypeDef *Obj);
  14:Dsp/widget/wgt_core/UI_Controller.c **** static bool UI_Button_Move(UI_ButtonObj_TypeDef *Obj, uint8_t x, uint8_t y);
  15:Dsp/widget/wgt_core/UI_Controller.c **** static bool UI_Button_Ctl(UI_ButtonObj_TypeDef *Obj);
  16:Dsp/widget/wgt_core/UI_Controller.c **** 
  17:Dsp/widget/wgt_core/UI_Controller.c **** /* general function */
  18:Dsp/widget/wgt_core/UI_Controller.c **** static bool UI_Get_InitSate(UI_GeneralData_TypeDef GenData);
  19:Dsp/widget/wgt_core/UI_Controller.c **** static bool UI_Selecte(UI_GeneralData_TypeDef *GenData, bool select);
  20:Dsp/widget/wgt_core/UI_Controller.c **** static bool UI_Get_Selected(UI_GeneralData_TypeDef GenData);
  21:Dsp/widget/wgt_core/UI_Controller.c **** static bool UI_Move(UI_GeneralData_TypeDef *GenUI_Info, int8_t dst_x, int8_t dst_y);
  22:Dsp/widget/wgt_core/UI_Controller.c **** 
  23:Dsp/widget/wgt_core/UI_Controller.c **** /* external Object var */
  24:Dsp/widget/wgt_core/UI_Controller.c **** UI_Button_Interface_TypeDef UI_Button = {
  25:Dsp/widget/wgt_core/UI_Controller.c ****     .ctl = UI_Button_Ctl,
  26:Dsp/widget/wgt_core/UI_Controller.c ****     .init = UI_Button_Init,
  27:Dsp/widget/wgt_core/UI_Controller.c ****     .push = UI_Button_Push,
  28:Dsp/widget/wgt_core/UI_Controller.c ****     .move = UI_Button_Move,
  29:Dsp/widget/wgt_core/UI_Controller.c ****     .release = UI_Button_Release,
  30:Dsp/widget/wgt_core/UI_Controller.c ****     .set_label = UI_Button_Set_Label,
ARM GAS  C:\Users\97116\AppData\Local\Temp\ccKPb0rV.s 			page 2


  31:Dsp/widget/wgt_core/UI_Controller.c ****     .set_trogger_callback = UI_Button_Set_TriggerCallback,
  32:Dsp/widget/wgt_core/UI_Controller.c **** };
  33:Dsp/widget/wgt_core/UI_Controller.c **** 
  34:Dsp/widget/wgt_core/UI_Controller.c **** /******************************* general function *********************************/
  35:Dsp/widget/wgt_core/UI_Controller.c **** 
  36:Dsp/widget/wgt_core/UI_Controller.c **** void UI_Set_DspInterface(UI_DrawPoint point,
  37:Dsp/widget/wgt_core/UI_Controller.c ****                          UI_DrawLine line,
  38:Dsp/widget/wgt_core/UI_Controller.c ****                          UI_DrawRectangle rectangle,
  39:Dsp/widget/wgt_core/UI_Controller.c ****                          UI_DrawRadiusRectangle radius_rectangle,
  40:Dsp/widget/wgt_core/UI_Controller.c ****                          UI_DrawCircle circle,
  41:Dsp/widget/wgt_core/UI_Controller.c ****                          UI_DrawCircleSection circle_section,
  42:Dsp/widget/wgt_core/UI_Controller.c ****                          UI_DrawStr str,
  43:Dsp/widget/wgt_core/UI_Controller.c ****                          UI_FillCircle fill_circle,
  44:Dsp/widget/wgt_core/UI_Controller.c ****                          UI_FillCircle_Section fillcircle_section,
  45:Dsp/widget/wgt_core/UI_Controller.c ****                          UI_FillRectangle fill_rectangle,
  46:Dsp/widget/wgt_core/UI_Controller.c ****                          UI_FillRadiusRectangle fill_radius_rectangle)
  47:Dsp/widget/wgt_core/UI_Controller.c **** {
  48:Dsp/widget/wgt_core/UI_Controller.c ****     UI_DspInterface.draw_circle = circle;
  49:Dsp/widget/wgt_core/UI_Controller.c ****     UI_DspInterface.draw_circle_section = circle_section;
  50:Dsp/widget/wgt_core/UI_Controller.c ****     UI_DspInterface.draw_line = line;
  51:Dsp/widget/wgt_core/UI_Controller.c ****     UI_DspInterface.draw_point = point;
  52:Dsp/widget/wgt_core/UI_Controller.c ****     UI_DspInterface.draw_rectangle = rectangle;
  53:Dsp/widget/wgt_core/UI_Controller.c ****     UI_DspInterface.draw_radius_rectangle = radius_rectangle;
  54:Dsp/widget/wgt_core/UI_Controller.c ****     UI_DspInterface.draw_str = str;
  55:Dsp/widget/wgt_core/UI_Controller.c **** 
  56:Dsp/widget/wgt_core/UI_Controller.c ****     UI_DspInterface.fill_circle = fill_circle;
  57:Dsp/widget/wgt_core/UI_Controller.c ****     UI_DspInterface.fill_circle_section = fillcircle_section;
  58:Dsp/widget/wgt_core/UI_Controller.c ****     UI_DspInterface.fill_radius_rectangle = fill_radius_rectangle;
  59:Dsp/widget/wgt_core/UI_Controller.c ****     UI_DspInterface.fill_rectangle = fill_rectangle;
  60:Dsp/widget/wgt_core/UI_Controller.c **** }
  61:Dsp/widget/wgt_core/UI_Controller.c **** 
  62:Dsp/widget/wgt_core/UI_Controller.c **** /* still in developing about this selector */
  63:Dsp/widget/wgt_core/UI_Controller.c **** /* FYI different UI Item Got different selector */
  64:Dsp/widget/wgt_core/UI_Controller.c **** bool UI_ShowSelector(WidgetUI_Item_TypeDef *item)
  65:Dsp/widget/wgt_core/UI_Controller.c **** {
  66:Dsp/widget/wgt_core/UI_Controller.c ****     /* button selector coordinate */
  67:Dsp/widget/wgt_core/UI_Controller.c ****     int8_t Btn_Slct_LftUp_X = 0;
  68:Dsp/widget/wgt_core/UI_Controller.c ****     int8_t Btn_Slct_LftUp_Y = 0;
  69:Dsp/widget/wgt_core/UI_Controller.c ****     int8_t Btn_Slct_LftDwn_X = 0;
  70:Dsp/widget/wgt_core/UI_Controller.c ****     int8_t Btn_Slct_LftDwn_Y = 0;
  71:Dsp/widget/wgt_core/UI_Controller.c ****     int8_t Btn_Slct_RgtUp_X = 0;
  72:Dsp/widget/wgt_core/UI_Controller.c ****     int8_t Btn_Slct_RgtUp_Y = 0;
  73:Dsp/widget/wgt_core/UI_Controller.c ****     int8_t Btn_Slct_RgtDwn_X = 0;
  74:Dsp/widget/wgt_core/UI_Controller.c ****     int8_t Btn_Slct_RgtDwn_Y = 0;
  75:Dsp/widget/wgt_core/UI_Controller.c **** 
  76:Dsp/widget/wgt_core/UI_Controller.c ****     if ((item == NULL) ||
  77:Dsp/widget/wgt_core/UI_Controller.c ****         (UI_DspInterface.fill_circle_section != NULL))
  78:Dsp/widget/wgt_core/UI_Controller.c ****         return false;
  79:Dsp/widget/wgt_core/UI_Controller.c **** 
  80:Dsp/widget/wgt_core/UI_Controller.c ****     switch ((uint8_t)(item->type))
  81:Dsp/widget/wgt_core/UI_Controller.c ****     {
  82:Dsp/widget/wgt_core/UI_Controller.c ****     case UI_Type_Button:
  83:Dsp/widget/wgt_core/UI_Controller.c ****         /* comput button selector coordinate first */
  84:Dsp/widget/wgt_core/UI_Controller.c ****         Btn_Slct_LftUp_X = ((UI_ButtonObj_TypeDef *)(item->Handler))->Gen_Data.x + DEFAULT_BUTTON_R
  85:Dsp/widget/wgt_core/UI_Controller.c ****         Btn_Slct_LftUp_Y = ((UI_ButtonObj_TypeDef *)(item->Handler))->Gen_Data.y + ((UI_ButtonObj_T
  86:Dsp/widget/wgt_core/UI_Controller.c **** 
  87:Dsp/widget/wgt_core/UI_Controller.c ****         Btn_Slct_LftDwn_X = Btn_Slct_LftUp_X;
ARM GAS  C:\Users\97116\AppData\Local\Temp\ccKPb0rV.s 			page 3


  88:Dsp/widget/wgt_core/UI_Controller.c ****         Btn_Slct_LftDwn_Y = ((UI_ButtonObj_TypeDef *)(item->Handler))->Gen_Data.y + DEFAULT_BUTTON_
  89:Dsp/widget/wgt_core/UI_Controller.c **** 
  90:Dsp/widget/wgt_core/UI_Controller.c ****         Btn_Slct_RgtUp_X = ((UI_ButtonObj_TypeDef *)(item->Handler))->Gen_Data.x + ((UI_ButtonObj_T
  91:Dsp/widget/wgt_core/UI_Controller.c ****         Btn_Slct_RgtUp_Y = Btn_Slct_LftUp_Y;
  92:Dsp/widget/wgt_core/UI_Controller.c **** 
  93:Dsp/widget/wgt_core/UI_Controller.c ****         Btn_Slct_RgtDwn_X = Btn_Slct_RgtUp_X;
  94:Dsp/widget/wgt_core/UI_Controller.c ****         Btn_Slct_RgtDwn_Y = Btn_Slct_LftDwn_Y;
  95:Dsp/widget/wgt_core/UI_Controller.c **** 
  96:Dsp/widget/wgt_core/UI_Controller.c ****         // show button selector
  97:Dsp/widget/wgt_core/UI_Controller.c ****         UI_DspInterface.fill_circle_section(Btn_Slct_LftUp_X, Btn_Slct_LftUp_Y, BUTTON_SELECTOR_RAD
  98:Dsp/widget/wgt_core/UI_Controller.c ****         UI_DspInterface.fill_circle_section(Btn_Slct_LftUp_X, Btn_Slct_LftUp_Y, BUTTON_SELECTOR_LIN
  99:Dsp/widget/wgt_core/UI_Controller.c **** 
 100:Dsp/widget/wgt_core/UI_Controller.c ****         UI_DspInterface.fill_circle_section(Btn_Slct_LftDwn_X, Btn_Slct_LftDwn_Y, BUTTON_SELECTOR_R
 101:Dsp/widget/wgt_core/UI_Controller.c ****         UI_DspInterface.fill_circle_section(Btn_Slct_LftDwn_X, Btn_Slct_LftDwn_Y, BUTTON_SELECTOR_L
 102:Dsp/widget/wgt_core/UI_Controller.c **** 
 103:Dsp/widget/wgt_core/UI_Controller.c ****         UI_DspInterface.fill_circle_section(Btn_Slct_RgtUp_X, Btn_Slct_RgtUp_Y, BUTTON_SELECTOR_RAD
 104:Dsp/widget/wgt_core/UI_Controller.c ****         UI_DspInterface.fill_circle_section(Btn_Slct_RgtUp_X, Btn_Slct_RgtUp_Y, BUTTON_SELECTOR_LIN
 105:Dsp/widget/wgt_core/UI_Controller.c **** 
 106:Dsp/widget/wgt_core/UI_Controller.c ****         UI_DspInterface.fill_circle_section(Btn_Slct_RgtDwn_X, Btn_Slct_RgtDwn_Y, BUTTON_SELECTOR_R
 107:Dsp/widget/wgt_core/UI_Controller.c ****         UI_DspInterface.fill_circle_section(Btn_Slct_RgtDwn_X, Btn_Slct_RgtDwn_Y, BUTTON_SELECTOR_L
 108:Dsp/widget/wgt_core/UI_Controller.c ****         break;
 109:Dsp/widget/wgt_core/UI_Controller.c **** 
 110:Dsp/widget/wgt_core/UI_Controller.c ****     default:
 111:Dsp/widget/wgt_core/UI_Controller.c ****         break;
 112:Dsp/widget/wgt_core/UI_Controller.c ****     }
 113:Dsp/widget/wgt_core/UI_Controller.c ****     return true;
 114:Dsp/widget/wgt_core/UI_Controller.c **** }
 115:Dsp/widget/wgt_core/UI_Controller.c **** 
 116:Dsp/widget/wgt_core/UI_Controller.c **** static void UI_GenData_Init(UI_GeneralData_TypeDef *GenData, char *label, uint8_t x, uint8_t y)
 117:Dsp/widget/wgt_core/UI_Controller.c **** {
  29              		.loc 1 117 1 view -0
  30              		.cfi_startproc
  31              		@ args = 0, pretend = 0, frame = 0
  32              		@ frame_needed = 0, uses_anonymous_args = 0
  33              		@ link register save eliminated.
 118:Dsp/widget/wgt_core/UI_Controller.c ****     GenData->label = label;
  34              		.loc 1 118 5 view .LVU1
  35              		.loc 1 118 20 is_stmt 0 view .LVU2
  36 0000 0160     		str	r1, [r0]
 119:Dsp/widget/wgt_core/UI_Controller.c **** 
 120:Dsp/widget/wgt_core/UI_Controller.c ****     GenData->x = x;
  37              		.loc 1 120 5 is_stmt 1 view .LVU3
  38              		.loc 1 120 16 is_stmt 0 view .LVU4
  39 0002 0271     		strb	r2, [r0, #4]
 121:Dsp/widget/wgt_core/UI_Controller.c ****     GenData->y = y;
  40              		.loc 1 121 5 is_stmt 1 view .LVU5
  41              		.loc 1 121 16 is_stmt 0 view .LVU6
  42 0004 4371     		strb	r3, [r0, #5]
 122:Dsp/widget/wgt_core/UI_Controller.c **** 
 123:Dsp/widget/wgt_core/UI_Controller.c ****     GenData->init = false;
  43              		.loc 1 123 5 is_stmt 1 view .LVU7
  44              		.loc 1 123 19 is_stmt 0 view .LVU8
  45 0006 0023     		movs	r3, #0
  46              	.LVL1:
  47              		.loc 1 123 19 view .LVU9
  48 0008 8371     		strb	r3, [r0, #6]
 124:Dsp/widget/wgt_core/UI_Controller.c **** }
ARM GAS  C:\Users\97116\AppData\Local\Temp\ccKPb0rV.s 			page 4


  49              		.loc 1 124 1 view .LVU10
  50 000a 7047     		bx	lr
  51              		.cfi_endproc
  52              	.LFE2:
  54              		.section	.text.UI_Move,"ax",%progbits
  55              		.align	1
  56              		.syntax unified
  57              		.thumb
  58              		.thumb_func
  59              		.fpu fpv4-sp-d16
  61              	UI_Move:
  62              	.LVL2:
  63              	.LFB3:
 125:Dsp/widget/wgt_core/UI_Controller.c **** 
 126:Dsp/widget/wgt_core/UI_Controller.c **** static bool UI_Move(UI_GeneralData_TypeDef *GenUI_Info, int8_t dst_x, int8_t dst_y)
 127:Dsp/widget/wgt_core/UI_Controller.c **** {
  64              		.loc 1 127 1 is_stmt 1 view -0
  65              		.cfi_startproc
  66              		@ args = 0, pretend = 0, frame = 0
  67              		@ frame_needed = 0, uses_anonymous_args = 0
  68              		@ link register save eliminated.
 128:Dsp/widget/wgt_core/UI_Controller.c ****     if (GenUI_Info == NULL)
  69              		.loc 1 128 5 view .LVU12
  70              		.loc 1 128 8 is_stmt 0 view .LVU13
  71 0000 18B1     		cbz	r0, .L4
 129:Dsp/widget/wgt_core/UI_Controller.c ****         return false;
 130:Dsp/widget/wgt_core/UI_Controller.c **** 
 131:Dsp/widget/wgt_core/UI_Controller.c ****     GenUI_Info->x = dst_x;
  72              		.loc 1 131 5 is_stmt 1 view .LVU14
  73              		.loc 1 131 19 is_stmt 0 view .LVU15
  74 0002 0171     		strb	r1, [r0, #4]
 132:Dsp/widget/wgt_core/UI_Controller.c ****     GenUI_Info->y = dst_y;
  75              		.loc 1 132 5 is_stmt 1 view .LVU16
  76              		.loc 1 132 19 is_stmt 0 view .LVU17
  77 0004 4271     		strb	r2, [r0, #5]
 133:Dsp/widget/wgt_core/UI_Controller.c **** 
 134:Dsp/widget/wgt_core/UI_Controller.c ****     return true;
  78              		.loc 1 134 5 is_stmt 1 view .LVU18
  79              		.loc 1 134 12 is_stmt 0 view .LVU19
  80 0006 0120     		movs	r0, #1
  81              	.LVL3:
  82              		.loc 1 134 12 view .LVU20
  83 0008 7047     		bx	lr
  84              	.LVL4:
  85              	.L4:
 129:Dsp/widget/wgt_core/UI_Controller.c **** 
  86              		.loc 1 129 16 view .LVU21
  87 000a 0020     		movs	r0, #0
  88              	.LVL5:
 135:Dsp/widget/wgt_core/UI_Controller.c **** }
  89              		.loc 1 135 1 view .LVU22
  90 000c 7047     		bx	lr
  91              		.cfi_endproc
  92              	.LFE3:
  94              		.section	.rodata.UI_Button_Init.str1.4,"aMS",%progbits,1
  95              		.align	2
  96              	.LC0:
ARM GAS  C:\Users\97116\AppData\Local\Temp\ccKPb0rV.s 			page 5


  97 0000 79657300 		.ascii	"yes\000"
  98              		.align	2
  99              	.LC1:
 100 0004 6E6F00   		.ascii	"no\000"
 101              		.section	.text.UI_Button_Init,"ax",%progbits
 102              		.align	1
 103              		.syntax unified
 104              		.thumb
 105              		.thumb_func
 106              		.fpu fpv4-sp-d16
 108              	UI_Button_Init:
 109              	.LVL6:
 110              	.LFB4:
 136:Dsp/widget/wgt_core/UI_Controller.c **** 
 137:Dsp/widget/wgt_core/UI_Controller.c **** /********************************************** UI Button Object **********************************
 138:Dsp/widget/wgt_core/UI_Controller.c **** /*
 139:Dsp/widget/wgt_core/UI_Controller.c **** *  the operation of button ctl is a async operation
 140:Dsp/widget/wgt_core/UI_Controller.c **** *  exti irq or input signal triiger first then out of the trigger code 
 141:Dsp/widget/wgt_core/UI_Controller.c **** *  check signal value doing process
 142:Dsp/widget/wgt_core/UI_Controller.c **** */
 143:Dsp/widget/wgt_core/UI_Controller.c **** static bool UI_Button_Init(UI_ButtonObj_TypeDef *Obj, char *label, int8_t x, int8_t y, uint8_t widt
 144:Dsp/widget/wgt_core/UI_Controller.c **** {
 111              		.loc 1 144 1 is_stmt 1 view -0
 112              		.cfi_startproc
 113              		@ args = 16, pretend = 0, frame = 0
 114              		@ frame_needed = 0, uses_anonymous_args = 0
 115              		.loc 1 144 1 is_stmt 0 view .LVU24
 116 0000 10B5     		push	{r4, lr}
 117              	.LCFI0:
 118              		.cfi_def_cfa_offset 8
 119              		.cfi_offset 4, -8
 120              		.cfi_offset 14, -4
 121 0002 9DF814C0 		ldrb	ip, [sp, #20]	@ zero_extendqisi2
 145:Dsp/widget/wgt_core/UI_Controller.c ****     if (Obj == NULL)
 122              		.loc 1 145 5 is_stmt 1 view .LVU25
 123              		.loc 1 145 8 is_stmt 0 view .LVU26
 124 0006 F8B1     		cbz	r0, .L7
 125 0008 0446     		mov	r4, r0
 146:Dsp/widget/wgt_core/UI_Controller.c ****         return false;
 147:Dsp/widget/wgt_core/UI_Controller.c **** 
 148:Dsp/widget/wgt_core/UI_Controller.c ****     Obj->default_state = state;
 126              		.loc 1 148 5 is_stmt 1 view .LVU27
 127              		.loc 1 148 24 is_stmt 0 view .LVU28
 128 000a 80F808C0 		strb	ip, [r0, #8]
 149:Dsp/widget/wgt_core/UI_Controller.c ****     Obj->state = state;
 129              		.loc 1 149 5 is_stmt 1 view .LVU29
 130              		.loc 1 149 16 is_stmt 0 view .LVU30
 131 000e 80F809C0 		strb	ip, [r0, #9]
 150:Dsp/widget/wgt_core/UI_Controller.c ****     Obj->type = type;
 132              		.loc 1 150 5 is_stmt 1 view .LVU31
 133              		.loc 1 150 15 is_stmt 0 view .LVU32
 134 0012 9DF81000 		ldrb	r0, [sp, #16]	@ zero_extendqisi2
 135              	.LVL7:
 136              		.loc 1 150 15 view .LVU33
 137 0016 A072     		strb	r0, [r4, #10]
 151:Dsp/widget/wgt_core/UI_Controller.c ****     Obj->trigger_time = 0;
 138              		.loc 1 151 5 is_stmt 1 view .LVU34
ARM GAS  C:\Users\97116\AppData\Local\Temp\ccKPb0rV.s 			page 6


 139              		.loc 1 151 23 is_stmt 0 view .LVU35
 140 0018 9FED0D7B 		vldr.64	d7, .L9	@ int
 141 001c 84ED087B 		vstr.64	d7, [r4, #32]	@ int
 152:Dsp/widget/wgt_core/UI_Controller.c **** 
 153:Dsp/widget/wgt_core/UI_Controller.c ****     UI_GenData_Init(&Obj->Gen_Data, label, x, y);
 142              		.loc 1 153 5 is_stmt 1 view .LVU36
 143 0020 DBB2     		uxtb	r3, r3
 144              		.loc 1 153 5 is_stmt 0 view .LVU37
 145 0022 D2B2     		uxtb	r2, r2
 146              		.loc 1 153 5 view .LVU38
 147 0024 2046     		mov	r0, r4
 148 0026 FFF7FEFF 		bl	UI_GenData_Init
 149              	.LVL8:
 154:Dsp/widget/wgt_core/UI_Controller.c **** 
 155:Dsp/widget/wgt_core/UI_Controller.c ****     Obj->width = width;
 150              		.loc 1 155 5 is_stmt 1 view .LVU39
 151              		.loc 1 155 16 is_stmt 0 view .LVU40
 152 002a 9DF80830 		ldrb	r3, [sp, #8]	@ zero_extendqisi2
 153 002e 84F82830 		strb	r3, [r4, #40]
 156:Dsp/widget/wgt_core/UI_Controller.c ****     Obj->height = height;
 154              		.loc 1 156 5 is_stmt 1 view .LVU41
 155              		.loc 1 156 17 is_stmt 0 view .LVU42
 156 0032 9DF80C30 		ldrb	r3, [sp, #12]	@ zero_extendqisi2
 157 0036 84F82930 		strb	r3, [r4, #41]
 157:Dsp/widget/wgt_core/UI_Controller.c **** 
 158:Dsp/widget/wgt_core/UI_Controller.c ****     Obj->PushDown_Label = DEFAULT_BUTTON_PUSH_LABEL;
 158              		.loc 1 158 5 is_stmt 1 view .LVU43
 159              		.loc 1 158 25 is_stmt 0 view .LVU44
 160 003a 074B     		ldr	r3, .L9+8
 161 003c 6361     		str	r3, [r4, #20]
 159:Dsp/widget/wgt_core/UI_Controller.c ****     Obj->Release_Label = DEFAULT_BUTTON_RELEASE_LABEL;
 162              		.loc 1 159 5 is_stmt 1 view .LVU45
 163              		.loc 1 159 24 is_stmt 0 view .LVU46
 164 003e 074B     		ldr	r3, .L9+12
 165 0040 A361     		str	r3, [r4, #24]
 160:Dsp/widget/wgt_core/UI_Controller.c **** 
 161:Dsp/widget/wgt_core/UI_Controller.c ****     Obj->Gen_Data.init = true;
 166              		.loc 1 161 5 is_stmt 1 view .LVU47
 167              		.loc 1 161 24 is_stmt 0 view .LVU48
 168 0042 0120     		movs	r0, #1
 169 0044 A071     		strb	r0, [r4, #6]
 162:Dsp/widget/wgt_core/UI_Controller.c **** 
 163:Dsp/widget/wgt_core/UI_Controller.c ****     return true;
 170              		.loc 1 163 5 is_stmt 1 view .LVU49
 171              	.LVL9:
 172              	.L6:
 164:Dsp/widget/wgt_core/UI_Controller.c **** }
 173              		.loc 1 164 1 is_stmt 0 view .LVU50
 174 0046 10BD     		pop	{r4, pc}
 175              	.LVL10:
 176              	.L7:
 146:Dsp/widget/wgt_core/UI_Controller.c **** 
 177              		.loc 1 146 16 view .LVU51
 178 0048 0020     		movs	r0, #0
 179              	.LVL11:
 146:Dsp/widget/wgt_core/UI_Controller.c **** 
 180              		.loc 1 146 16 view .LVU52
ARM GAS  C:\Users\97116\AppData\Local\Temp\ccKPb0rV.s 			page 7


 181 004a FCE7     		b	.L6
 182              	.L10:
 183 004c AFF30080 		.align	3
 184              	.L9:
 185 0050 00000000 		.word	0
 186 0054 00000000 		.word	0
 187 0058 00000000 		.word	.LC0
 188 005c 04000000 		.word	.LC1
 189              		.cfi_endproc
 190              	.LFE4:
 192              		.section	.text.UI_Button_Set_Label,"ax",%progbits
 193              		.align	1
 194              		.syntax unified
 195              		.thumb
 196              		.thumb_func
 197              		.fpu fpv4-sp-d16
 199              	UI_Button_Set_Label:
 200              	.LVL12:
 201              	.LFB5:
 165:Dsp/widget/wgt_core/UI_Controller.c **** 
 166:Dsp/widget/wgt_core/UI_Controller.c **** static bool UI_Button_Set_Label(UI_ButtonObj_TypeDef *Obj, UI_Button_State_List state, char *label)
 167:Dsp/widget/wgt_core/UI_Controller.c **** {
 202              		.loc 1 167 1 is_stmt 1 view -0
 203              		.cfi_startproc
 204              		@ args = 0, pretend = 0, frame = 0
 205              		@ frame_needed = 0, uses_anonymous_args = 0
 206              		@ link register save eliminated.
 168:Dsp/widget/wgt_core/UI_Controller.c ****     if (Obj == NULL)
 207              		.loc 1 168 5 view .LVU54
 208              		.loc 1 168 8 is_stmt 0 view .LVU55
 209 0000 38B1     		cbz	r0, .L14
 169:Dsp/widget/wgt_core/UI_Controller.c ****         return false;
 170:Dsp/widget/wgt_core/UI_Controller.c **** 
 171:Dsp/widget/wgt_core/UI_Controller.c ****     if (state == UI_Btn_PushDwn)
 210              		.loc 1 171 5 is_stmt 1 view .LVU56
 211              		.loc 1 171 8 is_stmt 0 view .LVU57
 212 0002 0129     		cmp	r1, #1
 213 0004 02D0     		beq	.L15
 172:Dsp/widget/wgt_core/UI_Controller.c ****         Obj->PushDown_Label = label;
 173:Dsp/widget/wgt_core/UI_Controller.c ****     else
 174:Dsp/widget/wgt_core/UI_Controller.c ****         Obj->Release_Label = label;
 214              		.loc 1 174 9 is_stmt 1 view .LVU58
 215              		.loc 1 174 28 is_stmt 0 view .LVU59
 216 0006 8261     		str	r2, [r0, #24]
 175:Dsp/widget/wgt_core/UI_Controller.c **** 
 176:Dsp/widget/wgt_core/UI_Controller.c ****     return true;
 217              		.loc 1 176 12 view .LVU60
 218 0008 0120     		movs	r0, #1
 219              	.LVL13:
 220              		.loc 1 176 12 view .LVU61
 221 000a 7047     		bx	lr
 222              	.LVL14:
 223              	.L15:
 172:Dsp/widget/wgt_core/UI_Controller.c ****         Obj->PushDown_Label = label;
 224              		.loc 1 172 9 is_stmt 1 view .LVU62
 172:Dsp/widget/wgt_core/UI_Controller.c ****         Obj->PushDown_Label = label;
 225              		.loc 1 172 29 is_stmt 0 view .LVU63
ARM GAS  C:\Users\97116\AppData\Local\Temp\ccKPb0rV.s 			page 8


 226 000c 4261     		str	r2, [r0, #20]
 227              		.loc 1 176 12 view .LVU64
 228 000e 0120     		movs	r0, #1
 229              	.LVL15:
 230              		.loc 1 176 12 view .LVU65
 231 0010 7047     		bx	lr
 232              	.LVL16:
 233              	.L14:
 169:Dsp/widget/wgt_core/UI_Controller.c **** 
 234              		.loc 1 169 16 view .LVU66
 235 0012 0020     		movs	r0, #0
 236              	.LVL17:
 177:Dsp/widget/wgt_core/UI_Controller.c **** }
 237              		.loc 1 177 1 view .LVU67
 238 0014 7047     		bx	lr
 239              		.cfi_endproc
 240              	.LFE5:
 242              		.section	.text.UI_Button_Set_TriggerCallback,"ax",%progbits
 243              		.align	1
 244              		.syntax unified
 245              		.thumb
 246              		.thumb_func
 247              		.fpu fpv4-sp-d16
 249              	UI_Button_Set_TriggerCallback:
 250              	.LVL18:
 251              	.LFB6:
 178:Dsp/widget/wgt_core/UI_Controller.c **** 
 179:Dsp/widget/wgt_core/UI_Controller.c **** static bool UI_Button_Set_TriggerCallback(UI_ButtonObj_TypeDef *Obj, UI_Button_Trigger_Type type, U
 180:Dsp/widget/wgt_core/UI_Controller.c **** {
 252              		.loc 1 180 1 is_stmt 1 view -0
 253              		.cfi_startproc
 254              		@ args = 0, pretend = 0, frame = 0
 255              		@ frame_needed = 0, uses_anonymous_args = 0
 256              		@ link register save eliminated.
 181:Dsp/widget/wgt_core/UI_Controller.c ****     if (Obj == NULL)
 257              		.loc 1 181 5 view .LVU69
 258              		.loc 1 181 8 is_stmt 0 view .LVU70
 259 0000 40B1     		cbz	r0, .L19
 182:Dsp/widget/wgt_core/UI_Controller.c ****         return false;
 183:Dsp/widget/wgt_core/UI_Controller.c **** 
 184:Dsp/widget/wgt_core/UI_Controller.c ****     if (type == Push_Trigger)
 260              		.loc 1 184 5 is_stmt 1 view .LVU71
 261              		.loc 1 184 8 is_stmt 0 view .LVU72
 262 0002 0129     		cmp	r1, #1
 263 0004 03D0     		beq	.L21
 185:Dsp/widget/wgt_core/UI_Controller.c ****     {
 186:Dsp/widget/wgt_core/UI_Controller.c ****         Obj->push_callback = callback;
 187:Dsp/widget/wgt_core/UI_Controller.c ****     }
 188:Dsp/widget/wgt_core/UI_Controller.c ****     else if (type == Release_Trigger)
 264              		.loc 1 188 10 is_stmt 1 view .LVU73
 265              		.loc 1 188 13 is_stmt 0 view .LVU74
 266 0006 39B9     		cbnz	r1, .L20
 189:Dsp/widget/wgt_core/UI_Controller.c ****     {
 190:Dsp/widget/wgt_core/UI_Controller.c ****         Obj->release_callback = callback;
 267              		.loc 1 190 9 is_stmt 1 view .LVU75
 268              		.loc 1 190 31 is_stmt 0 view .LVU76
 269 0008 0261     		str	r2, [r0, #16]
ARM GAS  C:\Users\97116\AppData\Local\Temp\ccKPb0rV.s 			page 9


 191:Dsp/widget/wgt_core/UI_Controller.c ****     }
 192:Dsp/widget/wgt_core/UI_Controller.c ****     else
 193:Dsp/widget/wgt_core/UI_Controller.c ****         return false;
 194:Dsp/widget/wgt_core/UI_Controller.c **** 
 195:Dsp/widget/wgt_core/UI_Controller.c ****     return true;
 270              		.loc 1 195 12 view .LVU77
 271 000a 0120     		movs	r0, #1
 272              	.LVL19:
 273              		.loc 1 195 12 view .LVU78
 274 000c 7047     		bx	lr
 275              	.LVL20:
 276              	.L21:
 186:Dsp/widget/wgt_core/UI_Controller.c ****     }
 277              		.loc 1 186 9 is_stmt 1 view .LVU79
 186:Dsp/widget/wgt_core/UI_Controller.c ****     }
 278              		.loc 1 186 28 is_stmt 0 view .LVU80
 279 000e C260     		str	r2, [r0, #12]
 280              		.loc 1 195 12 view .LVU81
 281 0010 0120     		movs	r0, #1
 282              	.LVL21:
 283              		.loc 1 195 12 view .LVU82
 284 0012 7047     		bx	lr
 285              	.LVL22:
 286              	.L19:
 182:Dsp/widget/wgt_core/UI_Controller.c **** 
 287              		.loc 1 182 16 view .LVU83
 288 0014 0020     		movs	r0, #0
 289              	.LVL23:
 182:Dsp/widget/wgt_core/UI_Controller.c **** 
 290              		.loc 1 182 16 view .LVU84
 291 0016 7047     		bx	lr
 292              	.LVL24:
 293              	.L20:
 193:Dsp/widget/wgt_core/UI_Controller.c **** 
 294              		.loc 1 193 16 view .LVU85
 295 0018 0020     		movs	r0, #0
 296              	.LVL25:
 196:Dsp/widget/wgt_core/UI_Controller.c **** }
 297              		.loc 1 196 1 view .LVU86
 298 001a 7047     		bx	lr
 299              		.cfi_endproc
 300              	.LFE6:
 302              		.section	.text.UI_Button_Release,"ax",%progbits
 303              		.align	1
 304              		.syntax unified
 305              		.thumb
 306              		.thumb_func
 307              		.fpu fpv4-sp-d16
 309              	UI_Button_Release:
 310              	.LVL26:
 311              	.LFB8:
 197:Dsp/widget/wgt_core/UI_Controller.c **** 
 198:Dsp/widget/wgt_core/UI_Controller.c **** static bool UI_Button_Push(UI_ButtonObj_TypeDef *Obj)
 199:Dsp/widget/wgt_core/UI_Controller.c **** {
 200:Dsp/widget/wgt_core/UI_Controller.c ****     if (Obj == NULL)
 201:Dsp/widget/wgt_core/UI_Controller.c ****         return false;
 202:Dsp/widget/wgt_core/UI_Controller.c **** 
ARM GAS  C:\Users\97116\AppData\Local\Temp\ccKPb0rV.s 			page 10


 203:Dsp/widget/wgt_core/UI_Controller.c ****     Obj->trigger_time = Get_CurrentRunningMs();
 204:Dsp/widget/wgt_core/UI_Controller.c **** 
 205:Dsp/widget/wgt_core/UI_Controller.c ****     if (Obj->type == Lock_Btn)
 206:Dsp/widget/wgt_core/UI_Controller.c ****     {
 207:Dsp/widget/wgt_core/UI_Controller.c ****         if (Obj->state == UI_Btn_RlsUp)
 208:Dsp/widget/wgt_core/UI_Controller.c ****             Obj->state = UI_Btn_PushDwn;
 209:Dsp/widget/wgt_core/UI_Controller.c ****         else
 210:Dsp/widget/wgt_core/UI_Controller.c ****             Obj->state = UI_Btn_RlsUp;
 211:Dsp/widget/wgt_core/UI_Controller.c ****     }
 212:Dsp/widget/wgt_core/UI_Controller.c ****     else if (Obj->type == Reset_Btn)
 213:Dsp/widget/wgt_core/UI_Controller.c ****     {
 214:Dsp/widget/wgt_core/UI_Controller.c ****         if (Obj->default_state == Obj->state)
 215:Dsp/widget/wgt_core/UI_Controller.c ****         {
 216:Dsp/widget/wgt_core/UI_Controller.c ****             Obj->state = !Obj->default_state;
 217:Dsp/widget/wgt_core/UI_Controller.c **** 
 218:Dsp/widget/wgt_core/UI_Controller.c ****             if (Obj->push_callback != NULL)
 219:Dsp/widget/wgt_core/UI_Controller.c ****                 Obj->push_callback();
 220:Dsp/widget/wgt_core/UI_Controller.c ****         }
 221:Dsp/widget/wgt_core/UI_Controller.c ****     }
 222:Dsp/widget/wgt_core/UI_Controller.c ****     else
 223:Dsp/widget/wgt_core/UI_Controller.c ****         return false;
 224:Dsp/widget/wgt_core/UI_Controller.c **** 
 225:Dsp/widget/wgt_core/UI_Controller.c ****     return true;
 226:Dsp/widget/wgt_core/UI_Controller.c **** }
 227:Dsp/widget/wgt_core/UI_Controller.c **** 
 228:Dsp/widget/wgt_core/UI_Controller.c **** static bool UI_Button_Release(UI_ButtonObj_TypeDef *Obj)
 229:Dsp/widget/wgt_core/UI_Controller.c **** {
 312              		.loc 1 229 1 is_stmt 1 view -0
 313              		.cfi_startproc
 314              		@ args = 0, pretend = 0, frame = 0
 315              		@ frame_needed = 0, uses_anonymous_args = 0
 230:Dsp/widget/wgt_core/UI_Controller.c ****     if (Obj == NULL)
 316              		.loc 1 230 5 view .LVU88
 317              		.loc 1 230 8 is_stmt 0 view .LVU89
 318 0000 68B1     		cbz	r0, .L24
 229:Dsp/widget/wgt_core/UI_Controller.c ****     if (Obj == NULL)
 319              		.loc 1 229 1 view .LVU90
 320 0002 08B5     		push	{r3, lr}
 321              	.LCFI1:
 322              		.cfi_def_cfa_offset 8
 323              		.cfi_offset 3, -8
 324              		.cfi_offset 14, -4
 231:Dsp/widget/wgt_core/UI_Controller.c ****         return false;
 232:Dsp/widget/wgt_core/UI_Controller.c **** 
 233:Dsp/widget/wgt_core/UI_Controller.c ****     if (Obj->type == Lock_Btn)
 325              		.loc 1 233 5 is_stmt 1 view .LVU91
 326              		.loc 1 233 12 is_stmt 0 view .LVU92
 327 0004 827A     		ldrb	r2, [r0, #10]	@ zero_extendqisi2
 328              		.loc 1 233 8 view .LVU93
 329 0006 012A     		cmp	r2, #1
 330 0008 0BD0     		beq	.L25
 234:Dsp/widget/wgt_core/UI_Controller.c ****         return true;
 235:Dsp/widget/wgt_core/UI_Controller.c **** 
 236:Dsp/widget/wgt_core/UI_Controller.c ****     if (Obj->default_state != Obj->state)
 331              		.loc 1 236 5 is_stmt 1 view .LVU94
 332              		.loc 1 236 12 is_stmt 0 view .LVU95
 333 000a 027A     		ldrb	r2, [r0, #8]	@ zero_extendqisi2
ARM GAS  C:\Users\97116\AppData\Local\Temp\ccKPb0rV.s 			page 11


 334              		.loc 1 236 34 view .LVU96
 335 000c 417A     		ldrb	r1, [r0, #9]	@ zero_extendqisi2
 336              		.loc 1 236 8 view .LVU97
 337 000e 8A42     		cmp	r2, r1
 338 0010 09D0     		beq	.L26
 237:Dsp/widget/wgt_core/UI_Controller.c ****     {
 238:Dsp/widget/wgt_core/UI_Controller.c ****         Obj->state = Obj->default_state;
 339              		.loc 1 238 9 is_stmt 1 view .LVU98
 340              		.loc 1 238 20 is_stmt 0 view .LVU99
 341 0012 4272     		strb	r2, [r0, #9]
 239:Dsp/widget/wgt_core/UI_Controller.c **** 
 240:Dsp/widget/wgt_core/UI_Controller.c ****         if (Obj->release_callback != NULL)
 342              		.loc 1 240 9 is_stmt 1 view .LVU100
 343              		.loc 1 240 16 is_stmt 0 view .LVU101
 344 0014 0369     		ldr	r3, [r0, #16]
 345              		.loc 1 240 12 view .LVU102
 346 0016 43B1     		cbz	r3, .L27
 241:Dsp/widget/wgt_core/UI_Controller.c ****             Obj->release_callback();
 347              		.loc 1 241 13 is_stmt 1 view .LVU103
 348 0018 9847     		blx	r3
 349              	.LVL27:
 242:Dsp/widget/wgt_core/UI_Controller.c ****     }
 243:Dsp/widget/wgt_core/UI_Controller.c **** 
 244:Dsp/widget/wgt_core/UI_Controller.c ****     return true;
 350              		.loc 1 244 12 is_stmt 0 view .LVU104
 351 001a 0120     		movs	r0, #1
 352              	.L23:
 245:Dsp/widget/wgt_core/UI_Controller.c **** }
 353              		.loc 1 245 1 view .LVU105
 354 001c 08BD     		pop	{r3, pc}
 355              	.LVL28:
 356              	.L24:
 357              	.LCFI2:
 358              		.cfi_def_cfa_offset 0
 359              		.cfi_restore 3
 360              		.cfi_restore 14
 231:Dsp/widget/wgt_core/UI_Controller.c **** 
 361              		.loc 1 231 16 view .LVU106
 362 001e 0020     		movs	r0, #0
 363              	.LVL29:
 364              		.loc 1 245 1 view .LVU107
 365 0020 7047     		bx	lr
 366              	.LVL30:
 367              	.L25:
 368              	.LCFI3:
 369              		.cfi_def_cfa_offset 8
 370              		.cfi_offset 3, -8
 371              		.cfi_offset 14, -4
 234:Dsp/widget/wgt_core/UI_Controller.c **** 
 372              		.loc 1 234 16 view .LVU108
 373 0022 0120     		movs	r0, #1
 374              	.LVL31:
 234:Dsp/widget/wgt_core/UI_Controller.c **** 
 375              		.loc 1 234 16 view .LVU109
 376 0024 FAE7     		b	.L23
 377              	.LVL32:
 378              	.L26:
ARM GAS  C:\Users\97116\AppData\Local\Temp\ccKPb0rV.s 			page 12


 244:Dsp/widget/wgt_core/UI_Controller.c **** }
 379              		.loc 1 244 12 view .LVU110
 380 0026 0120     		movs	r0, #1
 381              	.LVL33:
 244:Dsp/widget/wgt_core/UI_Controller.c **** }
 382              		.loc 1 244 12 view .LVU111
 383 0028 F8E7     		b	.L23
 384              	.LVL34:
 385              	.L27:
 244:Dsp/widget/wgt_core/UI_Controller.c **** }
 386              		.loc 1 244 12 view .LVU112
 387 002a 0120     		movs	r0, #1
 388              	.LVL35:
 244:Dsp/widget/wgt_core/UI_Controller.c **** }
 389              		.loc 1 244 12 view .LVU113
 390 002c F6E7     		b	.L23
 391              		.cfi_endproc
 392              	.LFE8:
 394              		.section	.text.UI_Button_Move,"ax",%progbits
 395              		.align	1
 396              		.syntax unified
 397              		.thumb
 398              		.thumb_func
 399              		.fpu fpv4-sp-d16
 401              	UI_Button_Move:
 402              	.LVL36:
 403              	.LFB9:
 246:Dsp/widget/wgt_core/UI_Controller.c **** 
 247:Dsp/widget/wgt_core/UI_Controller.c **** static bool UI_Button_Move(UI_ButtonObj_TypeDef *Obj, uint8_t x, uint8_t y)
 248:Dsp/widget/wgt_core/UI_Controller.c **** {
 404              		.loc 1 248 1 is_stmt 1 view -0
 405              		.cfi_startproc
 406              		@ args = 0, pretend = 0, frame = 0
 407              		@ frame_needed = 0, uses_anonymous_args = 0
 249:Dsp/widget/wgt_core/UI_Controller.c ****     if (Obj == NULL)
 408              		.loc 1 249 5 view .LVU115
 409              		.loc 1 249 8 is_stmt 0 view .LVU116
 410 0000 28B1     		cbz	r0, .L34
 248:Dsp/widget/wgt_core/UI_Controller.c ****     if (Obj == NULL)
 411              		.loc 1 248 1 view .LVU117
 412 0002 08B5     		push	{r3, lr}
 413              	.LCFI4:
 414              		.cfi_def_cfa_offset 8
 415              		.cfi_offset 3, -8
 416              		.cfi_offset 14, -4
 250:Dsp/widget/wgt_core/UI_Controller.c ****         return false;
 251:Dsp/widget/wgt_core/UI_Controller.c **** 
 252:Dsp/widget/wgt_core/UI_Controller.c ****     return UI_Move(&(Obj->Gen_Data), x, y);
 417              		.loc 1 252 5 is_stmt 1 view .LVU118
 418              		.loc 1 252 12 is_stmt 0 view .LVU119
 419 0004 52B2     		sxtb	r2, r2
 420              		.loc 1 252 12 view .LVU120
 421 0006 49B2     		sxtb	r1, r1
 422              		.loc 1 252 12 view .LVU121
 423 0008 FFF7FEFF 		bl	UI_Move
 424              	.LVL37:
 253:Dsp/widget/wgt_core/UI_Controller.c **** }
ARM GAS  C:\Users\97116\AppData\Local\Temp\ccKPb0rV.s 			page 13


 425              		.loc 1 253 1 view .LVU122
 426 000c 08BD     		pop	{r3, pc}
 427              	.LVL38:
 428              	.L34:
 429              	.LCFI5:
 430              		.cfi_def_cfa_offset 0
 431              		.cfi_restore 3
 432              		.cfi_restore 14
 250:Dsp/widget/wgt_core/UI_Controller.c ****         return false;
 433              		.loc 1 250 16 view .LVU123
 434 000e 0020     		movs	r0, #0
 435              	.LVL39:
 436              		.loc 1 253 1 view .LVU124
 437 0010 7047     		bx	lr
 438              		.cfi_endproc
 439              	.LFE9:
 441              		.section	.text.UI_Button_Ctl,"ax",%progbits
 442              		.align	1
 443              		.syntax unified
 444              		.thumb
 445              		.thumb_func
 446              		.fpu fpv4-sp-d16
 448              	UI_Button_Ctl:
 449              	.LVL40:
 450              	.LFB10:
 254:Dsp/widget/wgt_core/UI_Controller.c **** 
 255:Dsp/widget/wgt_core/UI_Controller.c **** static bool UI_Button_Ctl(UI_ButtonObj_TypeDef *Obj)
 256:Dsp/widget/wgt_core/UI_Controller.c **** {
 451              		.loc 1 256 1 is_stmt 1 view -0
 452              		.cfi_startproc
 453              		@ args = 0, pretend = 0, frame = 0
 454              		@ frame_needed = 0, uses_anonymous_args = 0
 455              		.loc 1 256 1 is_stmt 0 view .LVU126
 456 0000 70B5     		push	{r4, r5, r6, lr}
 457              	.LCFI6:
 458              		.cfi_def_cfa_offset 16
 459              		.cfi_offset 4, -16
 460              		.cfi_offset 5, -12
 461              		.cfi_offset 6, -8
 462              		.cfi_offset 14, -4
 463 0002 84B0     		sub	sp, sp, #16
 464              	.LCFI7:
 465              		.cfi_def_cfa_offset 32
 466 0004 0446     		mov	r4, r0
 257:Dsp/widget/wgt_core/UI_Controller.c ****     SYSTEM_RunTime Cur_Rt = Get_CurrentRunningMs();
 467              		.loc 1 257 5 is_stmt 1 view .LVU127
 468              		.loc 1 257 29 is_stmt 0 view .LVU128
 469 0006 FFF7FEFF 		bl	Get_CurrentRunningMs
 470              	.LVL41:
 258:Dsp/widget/wgt_core/UI_Controller.c **** 
 259:Dsp/widget/wgt_core/UI_Controller.c ****     if (Obj == NULL)
 471              		.loc 1 259 5 is_stmt 1 view .LVU129
 472              		.loc 1 259 8 is_stmt 0 view .LVU130
 473 000a 002C     		cmp	r4, #0
 474 000c 72D0     		beq	.L45
 260:Dsp/widget/wgt_core/UI_Controller.c ****         return false;
 261:Dsp/widget/wgt_core/UI_Controller.c **** 
ARM GAS  C:\Users\97116\AppData\Local\Temp\ccKPb0rV.s 			page 14


 262:Dsp/widget/wgt_core/UI_Controller.c ****     if (Obj->type == Lock_Btn)
 475              		.loc 1 262 5 is_stmt 1 view .LVU131
 476              		.loc 1 262 12 is_stmt 0 view .LVU132
 477 000e A37A     		ldrb	r3, [r4, #10]	@ zero_extendqisi2
 478              		.loc 1 262 8 view .LVU133
 479 0010 012B     		cmp	r3, #1
 480 0012 2FD0     		beq	.L53
 263:Dsp/widget/wgt_core/UI_Controller.c ****     {
 264:Dsp/widget/wgt_core/UI_Controller.c ****         if (Obj->state == UI_Btn_PushDwn)
 265:Dsp/widget/wgt_core/UI_Controller.c ****         {
 266:Dsp/widget/wgt_core/UI_Controller.c ****             if (Obj->push_callback)
 267:Dsp/widget/wgt_core/UI_Controller.c ****                 Obj->push_callback();
 268:Dsp/widget/wgt_core/UI_Controller.c ****         }
 269:Dsp/widget/wgt_core/UI_Controller.c ****         else if (Obj->state == UI_Btn_RlsUp)
 270:Dsp/widget/wgt_core/UI_Controller.c ****         {
 271:Dsp/widget/wgt_core/UI_Controller.c ****             if (Obj->release_callback)
 272:Dsp/widget/wgt_core/UI_Controller.c ****                 Obj->release_callback();
 273:Dsp/widget/wgt_core/UI_Controller.c ****         }
 274:Dsp/widget/wgt_core/UI_Controller.c ****         else
 275:Dsp/widget/wgt_core/UI_Controller.c ****             return false;
 276:Dsp/widget/wgt_core/UI_Controller.c ****     }
 277:Dsp/widget/wgt_core/UI_Controller.c ****     else
 278:Dsp/widget/wgt_core/UI_Controller.c ****     {
 279:Dsp/widget/wgt_core/UI_Controller.c ****         if ((Obj->state == UI_Btn_PushDwn) && (Cur_Rt > (Obj->trigger_time + DEFAULT_BUTTON_RELEASE
 481              		.loc 1 279 9 is_stmt 1 view .LVU134
 482              		.loc 1 279 17 is_stmt 0 view .LVU135
 483 0014 637A     		ldrb	r3, [r4, #9]	@ zero_extendqisi2
 484              		.loc 1 279 12 view .LVU136
 485 0016 012B     		cmp	r3, #1
 486 0018 3BD0     		beq	.L54
 487              	.LVL42:
 488              	.L43:
 280:Dsp/widget/wgt_core/UI_Controller.c ****         {
 281:Dsp/widget/wgt_core/UI_Controller.c ****             Obj->trigger_time = Cur_Rt;
 282:Dsp/widget/wgt_core/UI_Controller.c ****             UI_Button_Release(Obj);
 283:Dsp/widget/wgt_core/UI_Controller.c ****         }
 284:Dsp/widget/wgt_core/UI_Controller.c ****     }
 285:Dsp/widget/wgt_core/UI_Controller.c **** 
 286:Dsp/widget/wgt_core/UI_Controller.c ****     /* display button on screen object */
 287:Dsp/widget/wgt_core/UI_Controller.c ****     /* invert display color when button been push down */
 288:Dsp/widget/wgt_core/UI_Controller.c ****     if ((UI_DspInterface.draw_str != NULL) && (UI_DspInterface.fill_radius_rectangle != NULL) && (U
 489              		.loc 1 288 5 is_stmt 1 view .LVU137
 490              		.loc 1 288 25 is_stmt 0 view .LVU138
 491 001a 3D4B     		ldr	r3, .L57
 492 001c 1B68     		ldr	r3, [r3]
 493              		.loc 1 288 8 view .LVU139
 494 001e 002B     		cmp	r3, #0
 495 0020 6CD0     		beq	.L47
 496              		.loc 1 288 63 discriminator 1 view .LVU140
 497 0022 3B4B     		ldr	r3, .L57
 498 0024 9D6A     		ldr	r5, [r3, #40]
 499              		.loc 1 288 44 discriminator 1 view .LVU141
 500 0026 002D     		cmp	r5, #0
 501 0028 6AD0     		beq	.L48
 502              		.loc 1 288 114 discriminator 2 view .LVU142
 503 002a DE68     		ldr	r6, [r3, #12]
 504              		.loc 1 288 95 discriminator 2 view .LVU143
ARM GAS  C:\Users\97116\AppData\Local\Temp\ccKPb0rV.s 			page 15


 505 002c 002E     		cmp	r6, #0
 506 002e 69D0     		beq	.L49
 289:Dsp/widget/wgt_core/UI_Controller.c ****     {
 290:Dsp/widget/wgt_core/UI_Controller.c ****         if (Obj->state == UI_Btn_PushDwn)
 507              		.loc 1 290 9 is_stmt 1 view .LVU144
 508              		.loc 1 290 16 is_stmt 0 view .LVU145
 509 0030 637A     		ldrb	r3, [r4, #9]	@ zero_extendqisi2
 510              		.loc 1 290 12 view .LVU146
 511 0032 012B     		cmp	r3, #1
 512 0034 3CD0     		beq	.L55
 291:Dsp/widget/wgt_core/UI_Controller.c ****         {
 292:Dsp/widget/wgt_core/UI_Controller.c ****             /* fill button frame */
 293:Dsp/widget/wgt_core/UI_Controller.c ****             UI_DspInterface.fill_radius_rectangle(Obj->Gen_Data.x + 1, Obj->Gen_Data.y + 1, Obj->wi
 294:Dsp/widget/wgt_core/UI_Controller.c **** 
 295:Dsp/widget/wgt_core/UI_Controller.c ****             /* invert string display */
 296:Dsp/widget/wgt_core/UI_Controller.c ****             if (Obj->PushDown_Label != NULL)
 297:Dsp/widget/wgt_core/UI_Controller.c ****                 UI_DspInterface.draw_str(Default_Font, Obj->PushDown_Label, Obj->Gen_Data.x + 3, Ob
 298:Dsp/widget/wgt_core/UI_Controller.c ****         }
 299:Dsp/widget/wgt_core/UI_Controller.c ****         else
 300:Dsp/widget/wgt_core/UI_Controller.c ****         {
 301:Dsp/widget/wgt_core/UI_Controller.c ****             /* draw button frame */
 302:Dsp/widget/wgt_core/UI_Controller.c ****             UI_DspInterface.draw_radius_rectangle(Obj->Gen_Data.x, Obj->Gen_Data.y, Obj->width, Obj
 513              		.loc 1 302 13 is_stmt 1 view .LVU147
 514 0036 0123     		movs	r3, #1
 515 0038 0293     		str	r3, [sp, #8]
 516 003a 0193     		str	r3, [sp, #4]
 517 003c 0323     		movs	r3, #3
 518 003e 0093     		str	r3, [sp]
 519 0040 94F82930 		ldrb	r3, [r4, #41]	@ zero_extendqisi2
 520 0044 94F82820 		ldrb	r2, [r4, #40]	@ zero_extendqisi2
 521 0048 94F90510 		ldrsb	r1, [r4, #5]
 522 004c 94F90400 		ldrsb	r0, [r4, #4]
 523 0050 B047     		blx	r6
 524              	.LVL43:
 303:Dsp/widget/wgt_core/UI_Controller.c **** 
 304:Dsp/widget/wgt_core/UI_Controller.c ****             /* display label normally */
 305:Dsp/widget/wgt_core/UI_Controller.c ****             if (Obj->Release_Label != NULL)
 525              		.loc 1 305 13 view .LVU148
 526              		.loc 1 305 20 is_stmt 0 view .LVU149
 527 0052 A169     		ldr	r1, [r4, #24]
 528              		.loc 1 305 16 view .LVU150
 529 0054 0029     		cmp	r1, #0
 530 0056 59D0     		beq	.L51
 306:Dsp/widget/wgt_core/UI_Controller.c ****                 UI_DspInterface.draw_str(Default_Font, Obj->Release_Label, Obj->Gen_Data.x + 6, Obj
 531              		.loc 1 306 17 is_stmt 1 view .LVU151
 532              		.loc 1 306 32 is_stmt 0 view .LVU152
 533 0058 2D4B     		ldr	r3, .L57
 534 005a 1E68     		ldr	r6, [r3]
 535              		.loc 1 306 89 view .LVU153
 536 005c 2279     		ldrb	r2, [r4, #4]	@ zero_extendqisi2
 537              		.loc 1 306 92 view .LVU154
 538 005e 0632     		adds	r2, r2, #6
 539              		.loc 1 306 17 view .LVU155
 540 0060 0125     		movs	r5, #1
 541 0062 0095     		str	r5, [sp]
 542 0064 94F90530 		ldrsb	r3, [r4, #5]
 543 0068 52B2     		sxtb	r2, r2
ARM GAS  C:\Users\97116\AppData\Local\Temp\ccKPb0rV.s 			page 16


 544 006a 0C20     		movs	r0, #12
 545 006c B047     		blx	r6
 546              	.LVL44:
 307:Dsp/widget/wgt_core/UI_Controller.c ****         }
 308:Dsp/widget/wgt_core/UI_Controller.c ****     }
 309:Dsp/widget/wgt_core/UI_Controller.c ****     else
 310:Dsp/widget/wgt_core/UI_Controller.c ****         return false;
 311:Dsp/widget/wgt_core/UI_Controller.c **** 
 312:Dsp/widget/wgt_core/UI_Controller.c ****     return true;
 547              		.loc 1 312 12 view .LVU156
 548 006e 2846     		mov	r0, r5
 549              	.L40:
 313:Dsp/widget/wgt_core/UI_Controller.c **** }
 550              		.loc 1 313 1 view .LVU157
 551 0070 04B0     		add	sp, sp, #16
 552              	.LCFI8:
 553              		.cfi_remember_state
 554              		.cfi_def_cfa_offset 16
 555              		@ sp needed
 556 0072 70BD     		pop	{r4, r5, r6, pc}
 557              	.LVL45:
 558              	.L53:
 559              	.LCFI9:
 560              		.cfi_restore_state
 264:Dsp/widget/wgt_core/UI_Controller.c ****         {
 561              		.loc 1 264 9 is_stmt 1 view .LVU158
 264:Dsp/widget/wgt_core/UI_Controller.c ****         {
 562              		.loc 1 264 16 is_stmt 0 view .LVU159
 563 0074 637A     		ldrb	r3, [r4, #9]	@ zero_extendqisi2
 264:Dsp/widget/wgt_core/UI_Controller.c ****         {
 564              		.loc 1 264 12 view .LVU160
 565 0076 012B     		cmp	r3, #1
 566 0078 06D0     		beq	.L56
 269:Dsp/widget/wgt_core/UI_Controller.c ****         {
 567              		.loc 1 269 14 is_stmt 1 view .LVU161
 269:Dsp/widget/wgt_core/UI_Controller.c ****         {
 568              		.loc 1 269 17 is_stmt 0 view .LVU162
 569 007a 002B     		cmp	r3, #0
 570 007c 3CD1     		bne	.L46
 271:Dsp/widget/wgt_core/UI_Controller.c ****                 Obj->release_callback();
 571              		.loc 1 271 13 is_stmt 1 view .LVU163
 271:Dsp/widget/wgt_core/UI_Controller.c ****                 Obj->release_callback();
 572              		.loc 1 271 20 is_stmt 0 view .LVU164
 573 007e 2369     		ldr	r3, [r4, #16]
 271:Dsp/widget/wgt_core/UI_Controller.c ****                 Obj->release_callback();
 574              		.loc 1 271 16 view .LVU165
 575 0080 002B     		cmp	r3, #0
 576 0082 CAD0     		beq	.L43
 272:Dsp/widget/wgt_core/UI_Controller.c ****         }
 577              		.loc 1 272 17 is_stmt 1 view .LVU166
 578 0084 9847     		blx	r3
 579              	.LVL46:
 272:Dsp/widget/wgt_core/UI_Controller.c ****         }
 580              		.loc 1 272 17 is_stmt 0 view .LVU167
 581 0086 C8E7     		b	.L43
 582              	.LVL47:
 583              	.L56:
ARM GAS  C:\Users\97116\AppData\Local\Temp\ccKPb0rV.s 			page 17


 266:Dsp/widget/wgt_core/UI_Controller.c ****                 Obj->push_callback();
 584              		.loc 1 266 13 is_stmt 1 view .LVU168
 266:Dsp/widget/wgt_core/UI_Controller.c ****                 Obj->push_callback();
 585              		.loc 1 266 20 is_stmt 0 view .LVU169
 586 0088 E368     		ldr	r3, [r4, #12]
 266:Dsp/widget/wgt_core/UI_Controller.c ****                 Obj->push_callback();
 587              		.loc 1 266 16 view .LVU170
 588 008a 002B     		cmp	r3, #0
 589 008c C5D0     		beq	.L43
 267:Dsp/widget/wgt_core/UI_Controller.c ****         }
 590              		.loc 1 267 17 is_stmt 1 view .LVU171
 591 008e 9847     		blx	r3
 592              	.LVL48:
 267:Dsp/widget/wgt_core/UI_Controller.c ****         }
 593              		.loc 1 267 17 is_stmt 0 view .LVU172
 594 0090 C3E7     		b	.L43
 595              	.LVL49:
 596              	.L54:
 279:Dsp/widget/wgt_core/UI_Controller.c ****         {
 597              		.loc 1 279 61 discriminator 1 view .LVU173
 598 0092 236A     		ldr	r3, [r4, #32]
 599 0094 626A     		ldr	r2, [r4, #36]
 279:Dsp/widget/wgt_core/UI_Controller.c ****         {
 600              		.loc 1 279 76 discriminator 1 view .LVU174
 601 0096 C833     		adds	r3, r3, #200
 602 0098 42F10002 		adc	r2, r2, #0
 279:Dsp/widget/wgt_core/UI_Controller.c ****         {
 603              		.loc 1 279 44 discriminator 1 view .LVU175
 604 009c 8342     		cmp	r3, r0
 605 009e 72EB0103 		sbcs	r3, r2, r1
 606 00a2 BAD2     		bcs	.L43
 281:Dsp/widget/wgt_core/UI_Controller.c ****             UI_Button_Release(Obj);
 607              		.loc 1 281 13 is_stmt 1 view .LVU176
 281:Dsp/widget/wgt_core/UI_Controller.c ****             UI_Button_Release(Obj);
 608              		.loc 1 281 31 is_stmt 0 view .LVU177
 609 00a4 2062     		str	r0, [r4, #32]
 610 00a6 6162     		str	r1, [r4, #36]
 282:Dsp/widget/wgt_core/UI_Controller.c ****         }
 611              		.loc 1 282 13 is_stmt 1 view .LVU178
 612 00a8 2046     		mov	r0, r4
 613              	.LVL50:
 282:Dsp/widget/wgt_core/UI_Controller.c ****         }
 614              		.loc 1 282 13 is_stmt 0 view .LVU179
 615 00aa FFF7FEFF 		bl	UI_Button_Release
 616              	.LVL51:
 282:Dsp/widget/wgt_core/UI_Controller.c ****         }
 617              		.loc 1 282 13 view .LVU180
 618 00ae B4E7     		b	.L43
 619              	.L55:
 293:Dsp/widget/wgt_core/UI_Controller.c **** 
 620              		.loc 1 293 13 is_stmt 1 view .LVU181
 293:Dsp/widget/wgt_core/UI_Controller.c **** 
 621              		.loc 1 293 64 is_stmt 0 view .LVU182
 622 00b0 2079     		ldrb	r0, [r4, #4]	@ zero_extendqisi2
 293:Dsp/widget/wgt_core/UI_Controller.c **** 
 623              		.loc 1 293 67 view .LVU183
 624 00b2 0130     		adds	r0, r0, #1
ARM GAS  C:\Users\97116\AppData\Local\Temp\ccKPb0rV.s 			page 18


 293:Dsp/widget/wgt_core/UI_Controller.c **** 
 625              		.loc 1 293 85 view .LVU184
 626 00b4 6179     		ldrb	r1, [r4, #5]	@ zero_extendqisi2
 293:Dsp/widget/wgt_core/UI_Controller.c **** 
 627              		.loc 1 293 88 view .LVU185
 628 00b6 0131     		adds	r1, r1, #1
 293:Dsp/widget/wgt_core/UI_Controller.c **** 
 629              		.loc 1 293 96 view .LVU186
 630 00b8 94F82820 		ldrb	r2, [r4, #40]	@ zero_extendqisi2
 293:Dsp/widget/wgt_core/UI_Controller.c **** 
 631              		.loc 1 293 112 view .LVU187
 632 00bc 94F82930 		ldrb	r3, [r4, #41]	@ zero_extendqisi2
 293:Dsp/widget/wgt_core/UI_Controller.c **** 
 633              		.loc 1 293 13 view .LVU188
 634 00c0 013B     		subs	r3, r3, #1
 635 00c2 013A     		subs	r2, r2, #1
 636 00c4 0126     		movs	r6, #1
 637 00c6 0196     		str	r6, [sp, #4]
 638 00c8 0326     		movs	r6, #3
 639 00ca 0096     		str	r6, [sp]
 640 00cc DBB2     		uxtb	r3, r3
 641 00ce D2B2     		uxtb	r2, r2
 642 00d0 49B2     		sxtb	r1, r1
 643 00d2 40B2     		sxtb	r0, r0
 644 00d4 A847     		blx	r5
 645              	.LVL52:
 296:Dsp/widget/wgt_core/UI_Controller.c ****                 UI_DspInterface.draw_str(Default_Font, Obj->PushDown_Label, Obj->Gen_Data.x + 3, Ob
 646              		.loc 1 296 13 is_stmt 1 view .LVU189
 296:Dsp/widget/wgt_core/UI_Controller.c ****                 UI_DspInterface.draw_str(Default_Font, Obj->PushDown_Label, Obj->Gen_Data.x + 3, Ob
 647              		.loc 1 296 20 is_stmt 0 view .LVU190
 648 00d6 6169     		ldr	r1, [r4, #20]
 296:Dsp/widget/wgt_core/UI_Controller.c ****                 UI_DspInterface.draw_str(Default_Font, Obj->PushDown_Label, Obj->Gen_Data.x + 3, Ob
 649              		.loc 1 296 16 view .LVU191
 650 00d8 B1B1     		cbz	r1, .L50
 297:Dsp/widget/wgt_core/UI_Controller.c ****         }
 651              		.loc 1 297 17 is_stmt 1 view .LVU192
 297:Dsp/widget/wgt_core/UI_Controller.c ****         }
 652              		.loc 1 297 32 is_stmt 0 view .LVU193
 653 00da 0D4B     		ldr	r3, .L57
 654 00dc 1E68     		ldr	r6, [r3]
 297:Dsp/widget/wgt_core/UI_Controller.c ****         }
 655              		.loc 1 297 90 view .LVU194
 656 00de 2279     		ldrb	r2, [r4, #4]	@ zero_extendqisi2
 297:Dsp/widget/wgt_core/UI_Controller.c ****         }
 657              		.loc 1 297 93 view .LVU195
 658 00e0 0332     		adds	r2, r2, #3
 297:Dsp/widget/wgt_core/UI_Controller.c ****         }
 659              		.loc 1 297 17 view .LVU196
 660 00e2 0125     		movs	r5, #1
 661 00e4 0095     		str	r5, [sp]
 662 00e6 94F90530 		ldrsb	r3, [r4, #5]
 663 00ea 52B2     		sxtb	r2, r2
 664 00ec 0C20     		movs	r0, #12
 665 00ee B047     		blx	r6
 666              	.LVL53:
 312:Dsp/widget/wgt_core/UI_Controller.c **** }
 667              		.loc 1 312 12 view .LVU197
ARM GAS  C:\Users\97116\AppData\Local\Temp\ccKPb0rV.s 			page 19


 668 00f0 2846     		mov	r0, r5
 669 00f2 BDE7     		b	.L40
 670              	.LVL54:
 671              	.L45:
 260:Dsp/widget/wgt_core/UI_Controller.c **** 
 672              		.loc 1 260 16 view .LVU198
 673 00f4 0020     		movs	r0, #0
 674              	.LVL55:
 260:Dsp/widget/wgt_core/UI_Controller.c **** 
 675              		.loc 1 260 16 view .LVU199
 676 00f6 BBE7     		b	.L40
 677              	.LVL56:
 678              	.L46:
 275:Dsp/widget/wgt_core/UI_Controller.c ****     }
 679              		.loc 1 275 20 view .LVU200
 680 00f8 0020     		movs	r0, #0
 681              	.LVL57:
 275:Dsp/widget/wgt_core/UI_Controller.c ****     }
 682              		.loc 1 275 20 view .LVU201
 683 00fa B9E7     		b	.L40
 684              	.L47:
 310:Dsp/widget/wgt_core/UI_Controller.c **** 
 685              		.loc 1 310 16 view .LVU202
 686 00fc 0020     		movs	r0, #0
 687 00fe B7E7     		b	.L40
 688              	.L48:
 689 0100 0020     		movs	r0, #0
 690 0102 B5E7     		b	.L40
 691              	.L49:
 692 0104 0020     		movs	r0, #0
 693 0106 B3E7     		b	.L40
 694              	.L50:
 312:Dsp/widget/wgt_core/UI_Controller.c **** }
 695              		.loc 1 312 12 view .LVU203
 696 0108 0120     		movs	r0, #1
 697 010a B1E7     		b	.L40
 698              	.L51:
 312:Dsp/widget/wgt_core/UI_Controller.c **** }
 699              		.loc 1 312 12 view .LVU204
 700 010c 0120     		movs	r0, #1
 701 010e AFE7     		b	.L40
 702              	.L58:
 703              		.align	2
 704              	.L57:
 705 0110 00000000 		.word	.LANCHOR0
 706              		.cfi_endproc
 707              	.LFE10:
 709              		.section	.text.UI_Button_Push,"ax",%progbits
 710              		.align	1
 711              		.syntax unified
 712              		.thumb
 713              		.thumb_func
 714              		.fpu fpv4-sp-d16
 716              	UI_Button_Push:
 717              	.LVL58:
 718              	.LFB7:
 199:Dsp/widget/wgt_core/UI_Controller.c ****     if (Obj == NULL)
ARM GAS  C:\Users\97116\AppData\Local\Temp\ccKPb0rV.s 			page 20


 719              		.loc 1 199 1 is_stmt 1 view -0
 720              		.cfi_startproc
 721              		@ args = 0, pretend = 0, frame = 0
 722              		@ frame_needed = 0, uses_anonymous_args = 0
 200:Dsp/widget/wgt_core/UI_Controller.c ****         return false;
 723              		.loc 1 200 5 view .LVU206
 200:Dsp/widget/wgt_core/UI_Controller.c ****         return false;
 724              		.loc 1 200 8 is_stmt 0 view .LVU207
 725 0000 08B3     		cbz	r0, .L63
 199:Dsp/widget/wgt_core/UI_Controller.c ****     if (Obj == NULL)
 726              		.loc 1 199 1 view .LVU208
 727 0002 10B5     		push	{r4, lr}
 728              	.LCFI10:
 729              		.cfi_def_cfa_offset 8
 730              		.cfi_offset 4, -8
 731              		.cfi_offset 14, -4
 732 0004 0446     		mov	r4, r0
 203:Dsp/widget/wgt_core/UI_Controller.c **** 
 733              		.loc 1 203 5 is_stmt 1 view .LVU209
 203:Dsp/widget/wgt_core/UI_Controller.c **** 
 734              		.loc 1 203 25 is_stmt 0 view .LVU210
 735 0006 FFF7FEFF 		bl	Get_CurrentRunningMs
 736              	.LVL59:
 203:Dsp/widget/wgt_core/UI_Controller.c **** 
 737              		.loc 1 203 23 view .LVU211
 738 000a C4E90801 		strd	r0, [r4, #32]
 205:Dsp/widget/wgt_core/UI_Controller.c ****     {
 739              		.loc 1 205 5 is_stmt 1 view .LVU212
 205:Dsp/widget/wgt_core/UI_Controller.c ****     {
 740              		.loc 1 205 12 is_stmt 0 view .LVU213
 741 000e A37A     		ldrb	r3, [r4, #10]	@ zero_extendqisi2
 205:Dsp/widget/wgt_core/UI_Controller.c ****     {
 742              		.loc 1 205 8 view .LVU214
 743 0010 012B     		cmp	r3, #1
 744 0012 06D0     		beq	.L71
 212:Dsp/widget/wgt_core/UI_Controller.c ****     {
 745              		.loc 1 212 10 is_stmt 1 view .LVU215
 212:Dsp/widget/wgt_core/UI_Controller.c ****     {
 746              		.loc 1 212 13 is_stmt 0 view .LVU216
 747 0014 CBB9     		cbnz	r3, .L64
 214:Dsp/widget/wgt_core/UI_Controller.c ****         {
 748              		.loc 1 214 9 is_stmt 1 view .LVU217
 214:Dsp/widget/wgt_core/UI_Controller.c ****         {
 749              		.loc 1 214 16 is_stmt 0 view .LVU218
 750 0016 237A     		ldrb	r3, [r4, #8]	@ zero_extendqisi2
 214:Dsp/widget/wgt_core/UI_Controller.c ****         {
 751              		.loc 1 214 38 view .LVU219
 752 0018 627A     		ldrb	r2, [r4, #9]	@ zero_extendqisi2
 214:Dsp/widget/wgt_core/UI_Controller.c ****         {
 753              		.loc 1 214 12 view .LVU220
 754 001a 9342     		cmp	r3, r2
 755 001c 0AD0     		beq	.L72
 225:Dsp/widget/wgt_core/UI_Controller.c **** }
 756              		.loc 1 225 12 view .LVU221
 757 001e 0120     		movs	r0, #1
 758              	.L60:
 226:Dsp/widget/wgt_core/UI_Controller.c **** 
ARM GAS  C:\Users\97116\AppData\Local\Temp\ccKPb0rV.s 			page 21


 759              		.loc 1 226 1 view .LVU222
 760 0020 10BD     		pop	{r4, pc}
 761              	.LVL60:
 762              	.L71:
 207:Dsp/widget/wgt_core/UI_Controller.c ****             Obj->state = UI_Btn_PushDwn;
 763              		.loc 1 207 9 is_stmt 1 view .LVU223
 207:Dsp/widget/wgt_core/UI_Controller.c ****             Obj->state = UI_Btn_PushDwn;
 764              		.loc 1 207 16 is_stmt 0 view .LVU224
 765 0022 637A     		ldrb	r3, [r4, #9]	@ zero_extendqisi2
 207:Dsp/widget/wgt_core/UI_Controller.c ****             Obj->state = UI_Btn_PushDwn;
 766              		.loc 1 207 12 view .LVU225
 767 0024 13B9     		cbnz	r3, .L62
 208:Dsp/widget/wgt_core/UI_Controller.c ****         else
 768              		.loc 1 208 13 is_stmt 1 view .LVU226
 208:Dsp/widget/wgt_core/UI_Controller.c ****         else
 769              		.loc 1 208 24 is_stmt 0 view .LVU227
 770 0026 0120     		movs	r0, #1
 771 0028 6072     		strb	r0, [r4, #9]
 772 002a F9E7     		b	.L60
 773              	.L62:
 210:Dsp/widget/wgt_core/UI_Controller.c ****     }
 774              		.loc 1 210 13 is_stmt 1 view .LVU228
 210:Dsp/widget/wgt_core/UI_Controller.c ****     }
 775              		.loc 1 210 24 is_stmt 0 view .LVU229
 776 002c 0023     		movs	r3, #0
 777 002e 6372     		strb	r3, [r4, #9]
 225:Dsp/widget/wgt_core/UI_Controller.c **** }
 778              		.loc 1 225 12 view .LVU230
 779 0030 0120     		movs	r0, #1
 780 0032 F5E7     		b	.L60
 781              	.L72:
 216:Dsp/widget/wgt_core/UI_Controller.c **** 
 782              		.loc 1 216 13 is_stmt 1 view .LVU231
 216:Dsp/widget/wgt_core/UI_Controller.c **** 
 783              		.loc 1 216 26 is_stmt 0 view .LVU232
 784 0034 B3FA83F3 		clz	r3, r3
 785 0038 5B09     		lsrs	r3, r3, #5
 216:Dsp/widget/wgt_core/UI_Controller.c **** 
 786              		.loc 1 216 24 view .LVU233
 787 003a 6372     		strb	r3, [r4, #9]
 218:Dsp/widget/wgt_core/UI_Controller.c ****                 Obj->push_callback();
 788              		.loc 1 218 13 is_stmt 1 view .LVU234
 218:Dsp/widget/wgt_core/UI_Controller.c ****                 Obj->push_callback();
 789              		.loc 1 218 20 is_stmt 0 view .LVU235
 790 003c E368     		ldr	r3, [r4, #12]
 218:Dsp/widget/wgt_core/UI_Controller.c ****                 Obj->push_callback();
 791              		.loc 1 218 16 view .LVU236
 792 003e 33B1     		cbz	r3, .L66
 219:Dsp/widget/wgt_core/UI_Controller.c ****         }
 793              		.loc 1 219 17 is_stmt 1 view .LVU237
 794 0040 9847     		blx	r3
 795              	.LVL61:
 225:Dsp/widget/wgt_core/UI_Controller.c **** }
 796              		.loc 1 225 12 is_stmt 0 view .LVU238
 797 0042 0120     		movs	r0, #1
 798 0044 ECE7     		b	.L60
 799              	.LVL62:
ARM GAS  C:\Users\97116\AppData\Local\Temp\ccKPb0rV.s 			page 22


 800              	.L63:
 801              	.LCFI11:
 802              		.cfi_def_cfa_offset 0
 803              		.cfi_restore 4
 804              		.cfi_restore 14
 201:Dsp/widget/wgt_core/UI_Controller.c **** 
 805              		.loc 1 201 16 view .LVU239
 806 0046 0020     		movs	r0, #0
 807              	.LVL63:
 226:Dsp/widget/wgt_core/UI_Controller.c **** 
 808              		.loc 1 226 1 view .LVU240
 809 0048 7047     		bx	lr
 810              	.LVL64:
 811              	.L64:
 812              	.LCFI12:
 813              		.cfi_def_cfa_offset 8
 814              		.cfi_offset 4, -8
 815              		.cfi_offset 14, -4
 223:Dsp/widget/wgt_core/UI_Controller.c **** 
 816              		.loc 1 223 16 view .LVU241
 817 004a 0020     		movs	r0, #0
 818 004c E8E7     		b	.L60
 819              	.L66:
 225:Dsp/widget/wgt_core/UI_Controller.c **** }
 820              		.loc 1 225 12 view .LVU242
 821 004e 0120     		movs	r0, #1
 822 0050 E6E7     		b	.L60
 823              		.cfi_endproc
 824              	.LFE7:
 826              		.section	.text.UI_Set_DspInterface,"ax",%progbits
 827              		.align	1
 828              		.global	UI_Set_DspInterface
 829              		.syntax unified
 830              		.thumb
 831              		.thumb_func
 832              		.fpu fpv4-sp-d16
 834              	UI_Set_DspInterface:
 835              	.LVL65:
 836              	.LFB0:
  47:Dsp/widget/wgt_core/UI_Controller.c ****     UI_DspInterface.draw_circle = circle;
 837              		.loc 1 47 1 is_stmt 1 view -0
 838              		.cfi_startproc
 839              		@ args = 28, pretend = 0, frame = 0
 840              		@ frame_needed = 0, uses_anonymous_args = 0
 841              		@ link register save eliminated.
  47:Dsp/widget/wgt_core/UI_Controller.c ****     UI_DspInterface.draw_circle = circle;
 842              		.loc 1 47 1 is_stmt 0 view .LVU244
 843 0000 30B4     		push	{r4, r5}
 844              	.LCFI13:
 845              		.cfi_def_cfa_offset 8
 846              		.cfi_offset 4, -8
 847              		.cfi_offset 5, -4
  48:Dsp/widget/wgt_core/UI_Controller.c ****     UI_DspInterface.draw_circle_section = circle_section;
 848              		.loc 1 48 5 is_stmt 1 view .LVU245
  48:Dsp/widget/wgt_core/UI_Controller.c ****     UI_DspInterface.draw_circle_section = circle_section;
 849              		.loc 1 48 33 is_stmt 0 view .LVU246
 850 0002 0A4C     		ldr	r4, .L75
ARM GAS  C:\Users\97116\AppData\Local\Temp\ccKPb0rV.s 			page 23


 851 0004 029D     		ldr	r5, [sp, #8]
 852 0006 6561     		str	r5, [r4, #20]
  49:Dsp/widget/wgt_core/UI_Controller.c ****     UI_DspInterface.draw_line = line;
 853              		.loc 1 49 5 is_stmt 1 view .LVU247
  49:Dsp/widget/wgt_core/UI_Controller.c ****     UI_DspInterface.draw_line = line;
 854              		.loc 1 49 41 is_stmt 0 view .LVU248
 855 0008 039D     		ldr	r5, [sp, #12]
 856 000a A561     		str	r5, [r4, #24]
  50:Dsp/widget/wgt_core/UI_Controller.c ****     UI_DspInterface.draw_point = point;
 857              		.loc 1 50 5 is_stmt 1 view .LVU249
  50:Dsp/widget/wgt_core/UI_Controller.c ****     UI_DspInterface.draw_point = point;
 858              		.loc 1 50 31 is_stmt 0 view .LVU250
 859 000c A160     		str	r1, [r4, #8]
  51:Dsp/widget/wgt_core/UI_Controller.c ****     UI_DspInterface.draw_rectangle = rectangle;
 860              		.loc 1 51 5 is_stmt 1 view .LVU251
  51:Dsp/widget/wgt_core/UI_Controller.c ****     UI_DspInterface.draw_rectangle = rectangle;
 861              		.loc 1 51 32 is_stmt 0 view .LVU252
 862 000e 6060     		str	r0, [r4, #4]
  52:Dsp/widget/wgt_core/UI_Controller.c ****     UI_DspInterface.draw_radius_rectangle = radius_rectangle;
 863              		.loc 1 52 5 is_stmt 1 view .LVU253
  52:Dsp/widget/wgt_core/UI_Controller.c ****     UI_DspInterface.draw_radius_rectangle = radius_rectangle;
 864              		.loc 1 52 36 is_stmt 0 view .LVU254
 865 0010 2261     		str	r2, [r4, #16]
  53:Dsp/widget/wgt_core/UI_Controller.c ****     UI_DspInterface.draw_str = str;
 866              		.loc 1 53 5 is_stmt 1 view .LVU255
  53:Dsp/widget/wgt_core/UI_Controller.c ****     UI_DspInterface.draw_str = str;
 867              		.loc 1 53 43 is_stmt 0 view .LVU256
 868 0012 E360     		str	r3, [r4, #12]
  54:Dsp/widget/wgt_core/UI_Controller.c **** 
 869              		.loc 1 54 5 is_stmt 1 view .LVU257
  54:Dsp/widget/wgt_core/UI_Controller.c **** 
 870              		.loc 1 54 30 is_stmt 0 view .LVU258
 871 0014 049B     		ldr	r3, [sp, #16]
 872              	.LVL66:
  54:Dsp/widget/wgt_core/UI_Controller.c **** 
 873              		.loc 1 54 30 view .LVU259
 874 0016 2360     		str	r3, [r4]
  56:Dsp/widget/wgt_core/UI_Controller.c ****     UI_DspInterface.fill_circle_section = fillcircle_section;
 875              		.loc 1 56 5 is_stmt 1 view .LVU260
  56:Dsp/widget/wgt_core/UI_Controller.c ****     UI_DspInterface.fill_circle_section = fillcircle_section;
 876              		.loc 1 56 33 is_stmt 0 view .LVU261
 877 0018 059B     		ldr	r3, [sp, #20]
 878 001a 2362     		str	r3, [r4, #32]
  57:Dsp/widget/wgt_core/UI_Controller.c ****     UI_DspInterface.fill_radius_rectangle = fill_radius_rectangle;
 879              		.loc 1 57 5 is_stmt 1 view .LVU262
  57:Dsp/widget/wgt_core/UI_Controller.c ****     UI_DspInterface.fill_radius_rectangle = fill_radius_rectangle;
 880              		.loc 1 57 41 is_stmt 0 view .LVU263
 881 001c 069B     		ldr	r3, [sp, #24]
 882 001e 6362     		str	r3, [r4, #36]
  58:Dsp/widget/wgt_core/UI_Controller.c ****     UI_DspInterface.fill_rectangle = fill_rectangle;
 883              		.loc 1 58 5 is_stmt 1 view .LVU264
  58:Dsp/widget/wgt_core/UI_Controller.c ****     UI_DspInterface.fill_rectangle = fill_rectangle;
 884              		.loc 1 58 43 is_stmt 0 view .LVU265
 885 0020 089B     		ldr	r3, [sp, #32]
 886 0022 A362     		str	r3, [r4, #40]
  59:Dsp/widget/wgt_core/UI_Controller.c **** }
 887              		.loc 1 59 5 is_stmt 1 view .LVU266
ARM GAS  C:\Users\97116\AppData\Local\Temp\ccKPb0rV.s 			page 24


  59:Dsp/widget/wgt_core/UI_Controller.c **** }
 888              		.loc 1 59 36 is_stmt 0 view .LVU267
 889 0024 079B     		ldr	r3, [sp, #28]
 890 0026 E361     		str	r3, [r4, #28]
  60:Dsp/widget/wgt_core/UI_Controller.c **** 
 891              		.loc 1 60 1 view .LVU268
 892 0028 30BC     		pop	{r4, r5}
 893              	.LCFI14:
 894              		.cfi_restore 5
 895              		.cfi_restore 4
 896              		.cfi_def_cfa_offset 0
 897              	.LVL67:
  60:Dsp/widget/wgt_core/UI_Controller.c **** 
 898              		.loc 1 60 1 view .LVU269
 899 002a 7047     		bx	lr
 900              	.L76:
 901              		.align	2
 902              	.L75:
 903 002c 00000000 		.word	.LANCHOR0
 904              		.cfi_endproc
 905              	.LFE0:
 907              		.section	.text.UI_ShowSelector,"ax",%progbits
 908              		.align	1
 909              		.global	UI_ShowSelector
 910              		.syntax unified
 911              		.thumb
 912              		.thumb_func
 913              		.fpu fpv4-sp-d16
 915              	UI_ShowSelector:
 916              	.LVL68:
 917              	.LFB1:
  65:Dsp/widget/wgt_core/UI_Controller.c ****     /* button selector coordinate */
 918              		.loc 1 65 1 is_stmt 1 view -0
 919              		.cfi_startproc
 920              		@ args = 0, pretend = 0, frame = 0
 921              		@ frame_needed = 0, uses_anonymous_args = 0
  67:Dsp/widget/wgt_core/UI_Controller.c ****     int8_t Btn_Slct_LftUp_Y = 0;
 922              		.loc 1 67 5 view .LVU271
  68:Dsp/widget/wgt_core/UI_Controller.c ****     int8_t Btn_Slct_LftDwn_X = 0;
 923              		.loc 1 68 5 view .LVU272
  69:Dsp/widget/wgt_core/UI_Controller.c ****     int8_t Btn_Slct_LftDwn_Y = 0;
 924              		.loc 1 69 5 view .LVU273
  70:Dsp/widget/wgt_core/UI_Controller.c ****     int8_t Btn_Slct_RgtUp_X = 0;
 925              		.loc 1 70 5 view .LVU274
  71:Dsp/widget/wgt_core/UI_Controller.c ****     int8_t Btn_Slct_RgtUp_Y = 0;
 926              		.loc 1 71 5 view .LVU275
  72:Dsp/widget/wgt_core/UI_Controller.c ****     int8_t Btn_Slct_RgtDwn_X = 0;
 927              		.loc 1 72 5 view .LVU276
  73:Dsp/widget/wgt_core/UI_Controller.c ****     int8_t Btn_Slct_RgtDwn_Y = 0;
 928              		.loc 1 73 5 view .LVU277
  74:Dsp/widget/wgt_core/UI_Controller.c **** 
 929              		.loc 1 74 5 view .LVU278
  76:Dsp/widget/wgt_core/UI_Controller.c ****         (UI_DspInterface.fill_circle_section != NULL))
 930              		.loc 1 76 5 view .LVU279
  76:Dsp/widget/wgt_core/UI_Controller.c ****         (UI_DspInterface.fill_circle_section != NULL))
 931              		.loc 1 76 8 is_stmt 0 view .LVU280
 932 0000 0028     		cmp	r0, #0
ARM GAS  C:\Users\97116\AppData\Local\Temp\ccKPb0rV.s 			page 25


 933 0002 64D0     		beq	.L79
  65:Dsp/widget/wgt_core/UI_Controller.c ****     /* button selector coordinate */
 934              		.loc 1 65 1 discriminator 1 view .LVU281
 935 0004 2DE9F04F 		push	{r4, r5, r6, r7, r8, r9, r10, fp, lr}
 936              	.LCFI15:
 937              		.cfi_def_cfa_offset 36
 938              		.cfi_offset 4, -36
 939              		.cfi_offset 5, -32
 940              		.cfi_offset 6, -28
 941              		.cfi_offset 7, -24
 942              		.cfi_offset 8, -20
 943              		.cfi_offset 9, -16
 944              		.cfi_offset 10, -12
 945              		.cfi_offset 11, -8
 946              		.cfi_offset 14, -4
 947 0008 83B0     		sub	sp, sp, #12
 948              	.LCFI16:
 949              		.cfi_def_cfa_offset 48
  77:Dsp/widget/wgt_core/UI_Controller.c ****         return false;
 950              		.loc 1 77 25 discriminator 1 view .LVU282
 951 000a 334B     		ldr	r3, .L87
 952 000c 5E6A     		ldr	r6, [r3, #36]
  76:Dsp/widget/wgt_core/UI_Controller.c ****         (UI_DspInterface.fill_circle_section != NULL))
 953              		.loc 1 76 24 discriminator 1 view .LVU283
 954 000e 1EB1     		cbz	r6, .L86
  78:Dsp/widget/wgt_core/UI_Controller.c **** 
 955              		.loc 1 78 16 view .LVU284
 956 0010 0020     		movs	r0, #0
 957              	.LVL69:
 958              	.L78:
 114:Dsp/widget/wgt_core/UI_Controller.c **** 
 959              		.loc 1 114 1 view .LVU285
 960 0012 03B0     		add	sp, sp, #12
 961              	.LCFI17:
 962              		.cfi_remember_state
 963              		.cfi_def_cfa_offset 36
 964              		@ sp needed
 965 0014 BDE8F08F 		pop	{r4, r5, r6, r7, r8, r9, r10, fp, pc}
 966              	.LVL70:
 967              	.L86:
 968              	.LCFI18:
 969              		.cfi_restore_state
  80:Dsp/widget/wgt_core/UI_Controller.c ****     {
 970              		.loc 1 80 5 is_stmt 1 view .LVU286
  80:Dsp/widget/wgt_core/UI_Controller.c ****     {
 971              		.loc 1 80 27 is_stmt 0 view .LVU287
 972 0018 0378     		ldrb	r3, [r0]	@ zero_extendqisi2
  80:Dsp/widget/wgt_core/UI_Controller.c ****     {
 973              		.loc 1 80 5 view .LVU288
 974 001a 002B     		cmp	r3, #0
 975 001c 59D1     		bne	.L81
  84:Dsp/widget/wgt_core/UI_Controller.c ****         Btn_Slct_LftUp_Y = ((UI_ButtonObj_TypeDef *)(item->Handler))->Gen_Data.y + ((UI_ButtonObj_T
 976              		.loc 1 84 9 is_stmt 1 view .LVU289
  84:Dsp/widget/wgt_core/UI_Controller.c ****         Btn_Slct_LftUp_Y = ((UI_ButtonObj_TypeDef *)(item->Handler))->Gen_Data.y + ((UI_ButtonObj_T
 977              		.loc 1 84 58 is_stmt 0 view .LVU290
 978 001e 4268     		ldr	r2, [r0, #4]
  84:Dsp/widget/wgt_core/UI_Controller.c ****         Btn_Slct_LftUp_Y = ((UI_ButtonObj_TypeDef *)(item->Handler))->Gen_Data.y + ((UI_ButtonObj_T
ARM GAS  C:\Users\97116\AppData\Local\Temp\ccKPb0rV.s 			page 26


 979              		.loc 1 84 79 view .LVU291
 980 0020 1379     		ldrb	r3, [r2, #4]	@ zero_extendqisi2
  84:Dsp/widget/wgt_core/UI_Controller.c ****         Btn_Slct_LftUp_Y = ((UI_ButtonObj_TypeDef *)(item->Handler))->Gen_Data.y + ((UI_ButtonObj_T
 981              		.loc 1 84 82 view .LVU292
 982 0022 03F1030A 		add	r10, r3, #3
  84:Dsp/widget/wgt_core/UI_Controller.c ****         Btn_Slct_LftUp_Y = ((UI_ButtonObj_TypeDef *)(item->Handler))->Gen_Data.y + ((UI_ButtonObj_T
 983              		.loc 1 84 26 view .LVU293
 984 0026 4FFA8AFA 		sxtb	r10, r10
 985              	.LVL71:
  85:Dsp/widget/wgt_core/UI_Controller.c **** 
 986              		.loc 1 85 9 is_stmt 1 view .LVU294
  85:Dsp/widget/wgt_core/UI_Controller.c **** 
 987              		.loc 1 85 79 is_stmt 0 view .LVU295
 988 002a 92F80580 		ldrb	r8, [r2, #5]	@ zero_extendqisi2
  85:Dsp/widget/wgt_core/UI_Controller.c **** 
 989              		.loc 1 85 125 view .LVU296
 990 002e 92F82950 		ldrb	r5, [r2, #41]	@ zero_extendqisi2
  85:Dsp/widget/wgt_core/UI_Controller.c **** 
 991              		.loc 1 85 82 view .LVU297
 992 0032 4544     		add	r5, r5, r8
 993 0034 EDB2     		uxtb	r5, r5
  85:Dsp/widget/wgt_core/UI_Controller.c **** 
 994              		.loc 1 85 134 view .LVU298
 995 0036 033D     		subs	r5, r5, #3
  85:Dsp/widget/wgt_core/UI_Controller.c **** 
 996              		.loc 1 85 26 view .LVU299
 997 0038 4FFA85FB 		sxtb	fp, r5
 998              	.LVL72:
  87:Dsp/widget/wgt_core/UI_Controller.c ****         Btn_Slct_LftDwn_Y = ((UI_ButtonObj_TypeDef *)(item->Handler))->Gen_Data.y + DEFAULT_BUTTON_
 999              		.loc 1 87 9 is_stmt 1 view .LVU300
  88:Dsp/widget/wgt_core/UI_Controller.c **** 
 1000              		.loc 1 88 9 view .LVU301
  88:Dsp/widget/wgt_core/UI_Controller.c **** 
 1001              		.loc 1 88 83 is_stmt 0 view .LVU302
 1002 003c 08F10308 		add	r8, r8, #3
  88:Dsp/widget/wgt_core/UI_Controller.c **** 
 1003              		.loc 1 88 27 view .LVU303
 1004 0040 4FFA88F8 		sxtb	r8, r8
 1005              	.LVL73:
  90:Dsp/widget/wgt_core/UI_Controller.c ****         Btn_Slct_RgtUp_Y = Btn_Slct_LftUp_Y;
 1006              		.loc 1 90 9 is_stmt 1 view .LVU304
  90:Dsp/widget/wgt_core/UI_Controller.c ****         Btn_Slct_RgtUp_Y = Btn_Slct_LftUp_Y;
 1007              		.loc 1 90 125 is_stmt 0 view .LVU305
 1008 0044 92F82890 		ldrb	r9, [r2, #40]	@ zero_extendqisi2
  90:Dsp/widget/wgt_core/UI_Controller.c ****         Btn_Slct_RgtUp_Y = Btn_Slct_LftUp_Y;
 1009              		.loc 1 90 82 view .LVU306
 1010 0048 9944     		add	r9, r9, r3
 1011 004a 5FFA89F9 		uxtb	r9, r9
  90:Dsp/widget/wgt_core/UI_Controller.c ****         Btn_Slct_RgtUp_Y = Btn_Slct_LftUp_Y;
 1012              		.loc 1 90 133 view .LVU307
 1013 004e A9F10309 		sub	r9, r9, #3
  90:Dsp/widget/wgt_core/UI_Controller.c ****         Btn_Slct_RgtUp_Y = Btn_Slct_LftUp_Y;
 1014              		.loc 1 90 26 view .LVU308
 1015 0052 4FFA89F9 		sxtb	r9, r9
 1016              	.LVL74:
  91:Dsp/widget/wgt_core/UI_Controller.c **** 
 1017              		.loc 1 91 9 is_stmt 1 view .LVU309
ARM GAS  C:\Users\97116\AppData\Local\Temp\ccKPb0rV.s 			page 27


  93:Dsp/widget/wgt_core/UI_Controller.c ****         Btn_Slct_RgtDwn_Y = Btn_Slct_LftDwn_Y;
 1018              		.loc 1 93 9 view .LVU310
  94:Dsp/widget/wgt_core/UI_Controller.c **** 
 1019              		.loc 1 94 9 view .LVU311
  97:Dsp/widget/wgt_core/UI_Controller.c ****         UI_DspInterface.fill_circle_section(Btn_Slct_LftUp_X, Btn_Slct_LftUp_Y, BUTTON_SELECTOR_LIN
 1020              		.loc 1 97 9 view .LVU312
 1021 0056 0124     		movs	r4, #1
 1022 0058 0094     		str	r4, [sp]
 1023 005a 0023     		movs	r3, #0
 1024 005c 0522     		movs	r2, #5
 1025 005e 5946     		mov	r1, fp
 1026 0060 5046     		mov	r0, r10
 1027              	.LVL75:
  97:Dsp/widget/wgt_core/UI_Controller.c ****         UI_DspInterface.fill_circle_section(Btn_Slct_LftUp_X, Btn_Slct_LftUp_Y, BUTTON_SELECTOR_LIN
 1028              		.loc 1 97 9 is_stmt 0 view .LVU313
 1029 0062 B047     		blx	r6
 1030              	.LVL76:
  98:Dsp/widget/wgt_core/UI_Controller.c **** 
 1031              		.loc 1 98 9 is_stmt 1 view .LVU314
  98:Dsp/widget/wgt_core/UI_Controller.c **** 
 1032              		.loc 1 98 24 is_stmt 0 view .LVU315
 1033 0064 1C4E     		ldr	r6, .L87
  98:Dsp/widget/wgt_core/UI_Controller.c **** 
 1034              		.loc 1 98 9 view .LVU316
 1035 0066 0027     		movs	r7, #0
 1036 0068 0097     		str	r7, [sp]
 1037 006a 3B46     		mov	r3, r7
 1038 006c 0222     		movs	r2, #2
 1039 006e 5946     		mov	r1, fp
 1040 0070 5046     		mov	r0, r10
 1041 0072 756A     		ldr	r5, [r6, #36]
 1042 0074 A847     		blx	r5
 1043              	.LVL77:
 100:Dsp/widget/wgt_core/UI_Controller.c ****         UI_DspInterface.fill_circle_section(Btn_Slct_LftDwn_X, Btn_Slct_LftDwn_Y, BUTTON_SELECTOR_L
 1044              		.loc 1 100 9 is_stmt 1 view .LVU317
 1045 0076 0094     		str	r4, [sp]
 1046 0078 2346     		mov	r3, r4
 1047 007a 0522     		movs	r2, #5
 1048 007c 4146     		mov	r1, r8
 1049 007e 5046     		mov	r0, r10
 1050 0080 756A     		ldr	r5, [r6, #36]
 1051 0082 A847     		blx	r5
 1052              	.LVL78:
 101:Dsp/widget/wgt_core/UI_Controller.c **** 
 1053              		.loc 1 101 9 view .LVU318
 1054 0084 0097     		str	r7, [sp]
 1055 0086 2346     		mov	r3, r4
 1056 0088 0222     		movs	r2, #2
 1057 008a 4146     		mov	r1, r8
 1058 008c 5046     		mov	r0, r10
 1059 008e 756A     		ldr	r5, [r6, #36]
 1060 0090 A847     		blx	r5
 1061              	.LVL79:
 103:Dsp/widget/wgt_core/UI_Controller.c ****         UI_DspInterface.fill_circle_section(Btn_Slct_RgtUp_X, Btn_Slct_RgtUp_Y, BUTTON_SELECTOR_LIN
 1062              		.loc 1 103 9 view .LVU319
 1063 0092 0094     		str	r4, [sp]
 1064 0094 0223     		movs	r3, #2
ARM GAS  C:\Users\97116\AppData\Local\Temp\ccKPb0rV.s 			page 28


 1065 0096 0522     		movs	r2, #5
 1066 0098 5946     		mov	r1, fp
 1067 009a 4846     		mov	r0, r9
 1068 009c 756A     		ldr	r5, [r6, #36]
 1069 009e A847     		blx	r5
 1070              	.LVL80:
 104:Dsp/widget/wgt_core/UI_Controller.c **** 
 1071              		.loc 1 104 9 view .LVU320
 1072 00a0 0097     		str	r7, [sp]
 1073 00a2 0223     		movs	r3, #2
 1074 00a4 1A46     		mov	r2, r3
 1075 00a6 5946     		mov	r1, fp
 1076 00a8 4846     		mov	r0, r9
 1077 00aa 756A     		ldr	r5, [r6, #36]
 1078 00ac A847     		blx	r5
 1079              	.LVL81:
 106:Dsp/widget/wgt_core/UI_Controller.c ****         UI_DspInterface.fill_circle_section(Btn_Slct_RgtDwn_X, Btn_Slct_RgtDwn_Y, BUTTON_SELECTOR_L
 1080              		.loc 1 106 9 view .LVU321
 106:Dsp/widget/wgt_core/UI_Controller.c ****         UI_DspInterface.fill_circle_section(Btn_Slct_RgtDwn_X, Btn_Slct_RgtDwn_Y, BUTTON_SELECTOR_L
 1081              		.loc 1 106 24 is_stmt 0 view .LVU322
 1082 00ae 756A     		ldr	r5, [r6, #36]
 106:Dsp/widget/wgt_core/UI_Controller.c ****         UI_DspInterface.fill_circle_section(Btn_Slct_RgtDwn_X, Btn_Slct_RgtDwn_Y, BUTTON_SELECTOR_L
 1083              		.loc 1 106 9 view .LVU323
 1084 00b0 0094     		str	r4, [sp]
 1085 00b2 0323     		movs	r3, #3
 1086 00b4 0522     		movs	r2, #5
 1087 00b6 4146     		mov	r1, r8
 1088 00b8 4846     		mov	r0, r9
 1089 00ba A847     		blx	r5
 1090              	.LVL82:
 107:Dsp/widget/wgt_core/UI_Controller.c ****         break;
 1091              		.loc 1 107 9 is_stmt 1 view .LVU324
 107:Dsp/widget/wgt_core/UI_Controller.c ****         break;
 1092              		.loc 1 107 24 is_stmt 0 view .LVU325
 1093 00bc 756A     		ldr	r5, [r6, #36]
 107:Dsp/widget/wgt_core/UI_Controller.c ****         break;
 1094              		.loc 1 107 9 view .LVU326
 1095 00be 0097     		str	r7, [sp]
 1096 00c0 0323     		movs	r3, #3
 1097 00c2 0222     		movs	r2, #2
 1098 00c4 4146     		mov	r1, r8
 1099 00c6 4846     		mov	r0, r9
 1100 00c8 A847     		blx	r5
 1101              	.LVL83:
 108:Dsp/widget/wgt_core/UI_Controller.c **** 
 1102              		.loc 1 108 9 is_stmt 1 view .LVU327
 113:Dsp/widget/wgt_core/UI_Controller.c **** }
 1103              		.loc 1 113 12 is_stmt 0 view .LVU328
 1104 00ca 2046     		mov	r0, r4
 108:Dsp/widget/wgt_core/UI_Controller.c **** 
 1105              		.loc 1 108 9 view .LVU329
 1106 00cc A1E7     		b	.L78
 1107              	.LVL84:
 1108              	.L79:
 1109              	.LCFI19:
 1110              		.cfi_def_cfa_offset 0
 1111              		.cfi_restore 4
ARM GAS  C:\Users\97116\AppData\Local\Temp\ccKPb0rV.s 			page 29


 1112              		.cfi_restore 5
 1113              		.cfi_restore 6
 1114              		.cfi_restore 7
 1115              		.cfi_restore 8
 1116              		.cfi_restore 9
 1117              		.cfi_restore 10
 1118              		.cfi_restore 11
 1119              		.cfi_restore 14
  78:Dsp/widget/wgt_core/UI_Controller.c **** 
 1120              		.loc 1 78 16 view .LVU330
 1121 00ce 0020     		movs	r0, #0
 1122              	.LVL85:
 114:Dsp/widget/wgt_core/UI_Controller.c **** 
 1123              		.loc 1 114 1 view .LVU331
 1124 00d0 7047     		bx	lr
 1125              	.LVL86:
 1126              	.L81:
 1127              	.LCFI20:
 1128              		.cfi_def_cfa_offset 48
 1129              		.cfi_offset 4, -36
 1130              		.cfi_offset 5, -32
 1131              		.cfi_offset 6, -28
 1132              		.cfi_offset 7, -24
 1133              		.cfi_offset 8, -20
 1134              		.cfi_offset 9, -16
 1135              		.cfi_offset 10, -12
 1136              		.cfi_offset 11, -8
 1137              		.cfi_offset 14, -4
 113:Dsp/widget/wgt_core/UI_Controller.c **** }
 1138              		.loc 1 113 12 view .LVU332
 1139 00d2 0120     		movs	r0, #1
 1140              	.LVL87:
 113:Dsp/widget/wgt_core/UI_Controller.c **** }
 1141              		.loc 1 113 12 view .LVU333
 1142 00d4 9DE7     		b	.L78
 1143              	.L88:
 1144 00d6 00BF     		.align	2
 1145              	.L87:
 1146 00d8 00000000 		.word	.LANCHOR0
 1147              		.cfi_endproc
 1148              	.LFE1:
 1150              		.global	UI_Button
 1151              		.section	.bss.UI_DspInterface,"aw",%nobits
 1152              		.align	2
 1153              		.set	.LANCHOR0,. + 0
 1156              	UI_DspInterface:
 1157 0000 00000000 		.space	44
 1157      00000000 
 1157      00000000 
 1157      00000000 
 1157      00000000 
 1158              		.section	.data.UI_Button,"aw"
 1159              		.align	2
 1162              	UI_Button:
 1163 0000 00000000 		.word	UI_Button_Init
 1164 0004 00000000 		.word	UI_Button_Set_TriggerCallback
 1165 0008 00000000 		.word	UI_Button_Set_Label
ARM GAS  C:\Users\97116\AppData\Local\Temp\ccKPb0rV.s 			page 30


 1166 000c 00000000 		.word	UI_Button_Push
 1167 0010 00000000 		.word	UI_Button_Release
 1168 0014 00000000 		.word	UI_Button_Ctl
 1169 0018 00000000 		.word	UI_Button_Move
 1170              		.text
 1171              	.Letext0:
 1172              		.file 2 "c:\\program files (x86)\\gnu arm embedded toolchain\\10 2020-q4-major\\arm-none-eabi\\inc
 1173              		.file 3 "c:\\program files (x86)\\gnu arm embedded toolchain\\10 2020-q4-major\\arm-none-eabi\\inc
 1174              		.file 4 "SYS/runtime/runtime.h"
 1175              		.file 5 "Dsp/screen/font/oledfont.h"
 1176              		.file 6 "Dsp/widget/wgt_core/UI_Controller.h"
ARM GAS  C:\Users\97116\AppData\Local\Temp\ccKPb0rV.s 			page 31


DEFINED SYMBOLS
                            *ABS*:00000000 UI_Controller.c
C:\Users\97116\AppData\Local\Temp\ccKPb0rV.s:18     .text.UI_GenData_Init:00000000 $t
C:\Users\97116\AppData\Local\Temp\ccKPb0rV.s:25     .text.UI_GenData_Init:00000000 UI_GenData_Init
C:\Users\97116\AppData\Local\Temp\ccKPb0rV.s:55     .text.UI_Move:00000000 $t
C:\Users\97116\AppData\Local\Temp\ccKPb0rV.s:61     .text.UI_Move:00000000 UI_Move
C:\Users\97116\AppData\Local\Temp\ccKPb0rV.s:95     .rodata.UI_Button_Init.str1.4:00000000 $d
C:\Users\97116\AppData\Local\Temp\ccKPb0rV.s:102    .text.UI_Button_Init:00000000 $t
C:\Users\97116\AppData\Local\Temp\ccKPb0rV.s:108    .text.UI_Button_Init:00000000 UI_Button_Init
C:\Users\97116\AppData\Local\Temp\ccKPb0rV.s:185    .text.UI_Button_Init:00000050 $d
C:\Users\97116\AppData\Local\Temp\ccKPb0rV.s:193    .text.UI_Button_Set_Label:00000000 $t
C:\Users\97116\AppData\Local\Temp\ccKPb0rV.s:199    .text.UI_Button_Set_Label:00000000 UI_Button_Set_Label
C:\Users\97116\AppData\Local\Temp\ccKPb0rV.s:243    .text.UI_Button_Set_TriggerCallback:00000000 $t
C:\Users\97116\AppData\Local\Temp\ccKPb0rV.s:249    .text.UI_Button_Set_TriggerCallback:00000000 UI_Button_Set_TriggerCallback
C:\Users\97116\AppData\Local\Temp\ccKPb0rV.s:303    .text.UI_Button_Release:00000000 $t
C:\Users\97116\AppData\Local\Temp\ccKPb0rV.s:309    .text.UI_Button_Release:00000000 UI_Button_Release
C:\Users\97116\AppData\Local\Temp\ccKPb0rV.s:395    .text.UI_Button_Move:00000000 $t
C:\Users\97116\AppData\Local\Temp\ccKPb0rV.s:401    .text.UI_Button_Move:00000000 UI_Button_Move
C:\Users\97116\AppData\Local\Temp\ccKPb0rV.s:442    .text.UI_Button_Ctl:00000000 $t
C:\Users\97116\AppData\Local\Temp\ccKPb0rV.s:448    .text.UI_Button_Ctl:00000000 UI_Button_Ctl
C:\Users\97116\AppData\Local\Temp\ccKPb0rV.s:705    .text.UI_Button_Ctl:00000110 $d
C:\Users\97116\AppData\Local\Temp\ccKPb0rV.s:710    .text.UI_Button_Push:00000000 $t
C:\Users\97116\AppData\Local\Temp\ccKPb0rV.s:716    .text.UI_Button_Push:00000000 UI_Button_Push
C:\Users\97116\AppData\Local\Temp\ccKPb0rV.s:827    .text.UI_Set_DspInterface:00000000 $t
C:\Users\97116\AppData\Local\Temp\ccKPb0rV.s:834    .text.UI_Set_DspInterface:00000000 UI_Set_DspInterface
C:\Users\97116\AppData\Local\Temp\ccKPb0rV.s:903    .text.UI_Set_DspInterface:0000002c $d
C:\Users\97116\AppData\Local\Temp\ccKPb0rV.s:908    .text.UI_ShowSelector:00000000 $t
C:\Users\97116\AppData\Local\Temp\ccKPb0rV.s:915    .text.UI_ShowSelector:00000000 UI_ShowSelector
C:\Users\97116\AppData\Local\Temp\ccKPb0rV.s:1146   .text.UI_ShowSelector:000000d8 $d
C:\Users\97116\AppData\Local\Temp\ccKPb0rV.s:1162   .data.UI_Button:00000000 UI_Button
C:\Users\97116\AppData\Local\Temp\ccKPb0rV.s:1152   .bss.UI_DspInterface:00000000 $d
C:\Users\97116\AppData\Local\Temp\ccKPb0rV.s:1156   .bss.UI_DspInterface:00000000 UI_DspInterface
C:\Users\97116\AppData\Local\Temp\ccKPb0rV.s:1159   .data.UI_Button:00000000 $d

UNDEFINED SYMBOLS
Get_CurrentRunningMs
