ARM GAS  C:\Users\huav\AppData\Local\Temp\cceId99N.s 			page 1


   1              		.cpu cortex-m4
   2              		.eabi_attribute 27, 1
   3              		.eabi_attribute 28, 1
   4              		.eabi_attribute 20, 1
   5              		.eabi_attribute 21, 1
   6              		.eabi_attribute 23, 3
   7              		.eabi_attribute 24, 1
   8              		.eabi_attribute 25, 1
   9              		.eabi_attribute 26, 1
  10              		.eabi_attribute 30, 1
  11              		.eabi_attribute 34, 1
  12              		.eabi_attribute 18, 4
  13              		.file	"UI_Controller.c"
  14              		.text
  15              	.Ltext0:
  16              		.cfi_sections	.debug_frame
  17              		.section	.text.UI_GenData_Init,"ax",%progbits
  18              		.align	1
  19              		.arch armv7e-m
  20              		.syntax unified
  21              		.thumb
  22              		.thumb_func
  23              		.fpu fpv4-sp-d16
  25              	UI_GenData_Init:
  26              	.LVL0:
  27              	.LFB1:
  28              		.file 1 "Dsp/widget/wgt_core/UI_Controller.c"
   1:Dsp/widget/wgt_core/UI_Controller.c **** #include "UI_Controller.h"
   2:Dsp/widget/wgt_core/UI_Controller.c **** #include <stdlib.h>
   3:Dsp/widget/wgt_core/UI_Controller.c **** 
   4:Dsp/widget/wgt_core/UI_Controller.c **** /* internal object */
   5:Dsp/widget/wgt_core/UI_Controller.c **** static UI_DrawInterface_TypeDef UI_DspInterface;
   6:Dsp/widget/wgt_core/UI_Controller.c **** 
   7:Dsp/widget/wgt_core/UI_Controller.c **** /* internal function */
   8:Dsp/widget/wgt_core/UI_Controller.c **** static bool UI_Get_InitSate(UI_GeneralData_TypeDef GenData);
   9:Dsp/widget/wgt_core/UI_Controller.c **** static bool UI_Selecte(UI_GeneralData_TypeDef *GenData, bool select);
  10:Dsp/widget/wgt_core/UI_Controller.c **** static bool UI_Get_Selected(UI_GeneralData_TypeDef GenData);
  11:Dsp/widget/wgt_core/UI_Controller.c **** 
  12:Dsp/widget/wgt_core/UI_Controller.c **** /******************************* general function *********************************/
  13:Dsp/widget/wgt_core/UI_Controller.c **** 
  14:Dsp/widget/wgt_core/UI_Controller.c **** void UI_Set_DspInterface(UI_DrawPoint point,
  15:Dsp/widget/wgt_core/UI_Controller.c ****                          UI_DrawLine line,
  16:Dsp/widget/wgt_core/UI_Controller.c ****                          UI_DrawRectangle rectangle,
  17:Dsp/widget/wgt_core/UI_Controller.c ****                          UI_DrawRadiusRectangle radius_rectangle,
  18:Dsp/widget/wgt_core/UI_Controller.c ****                          UI_DrawCircle circle,
  19:Dsp/widget/wgt_core/UI_Controller.c ****                          UI_DrawStr str,
  20:Dsp/widget/wgt_core/UI_Controller.c ****                          UI_FillCircle fill_circle,
  21:Dsp/widget/wgt_core/UI_Controller.c ****                          UI_FillRectangle fill_rectangle,
  22:Dsp/widget/wgt_core/UI_Controller.c ****                          UI_FillRadiusRectangle fill_radius_rectangle)
  23:Dsp/widget/wgt_core/UI_Controller.c **** {
  24:Dsp/widget/wgt_core/UI_Controller.c ****     UI_DspInterface.draw_circle = circle;
  25:Dsp/widget/wgt_core/UI_Controller.c ****     UI_DspInterface.draw_line = line;
  26:Dsp/widget/wgt_core/UI_Controller.c ****     UI_DspInterface.draw_point = point;
  27:Dsp/widget/wgt_core/UI_Controller.c ****     UI_DspInterface.draw_rectangle = rectangle;
  28:Dsp/widget/wgt_core/UI_Controller.c ****     UI_DspInterface.draw_radius_rectangle = radius_rectangle;
  29:Dsp/widget/wgt_core/UI_Controller.c ****     UI_DspInterface.draw_str = str;
  30:Dsp/widget/wgt_core/UI_Controller.c **** 
ARM GAS  C:\Users\huav\AppData\Local\Temp\cceId99N.s 			page 2


  31:Dsp/widget/wgt_core/UI_Controller.c ****     UI_DspInterface.fill_circle = fill_circle;
  32:Dsp/widget/wgt_core/UI_Controller.c ****     UI_DspInterface.fill_radius_rectangle = fill_radius_rectangle;
  33:Dsp/widget/wgt_core/UI_Controller.c ****     UI_DspInterface.fill_rectangle = fill_rectangle;
  34:Dsp/widget/wgt_core/UI_Controller.c **** }
  35:Dsp/widget/wgt_core/UI_Controller.c **** 
  36:Dsp/widget/wgt_core/UI_Controller.c **** static void UI_GenData_Init(UI_GeneralData_TypeDef *GenData, char *label, uint8_t x, uint8_t y)
  37:Dsp/widget/wgt_core/UI_Controller.c **** {
  29              		.loc 1 37 1 view -0
  30              		.cfi_startproc
  31              		@ args = 0, pretend = 0, frame = 0
  32              		@ frame_needed = 0, uses_anonymous_args = 0
  33              		@ link register save eliminated.
  38:Dsp/widget/wgt_core/UI_Controller.c ****     GenData->label = label;
  34              		.loc 1 38 5 view .LVU1
  35              		.loc 1 38 20 is_stmt 0 view .LVU2
  36 0000 0160     		str	r1, [r0]
  39:Dsp/widget/wgt_core/UI_Controller.c **** 
  40:Dsp/widget/wgt_core/UI_Controller.c ****     GenData->x = x;
  37              		.loc 1 40 5 is_stmt 1 view .LVU3
  38              		.loc 1 40 16 is_stmt 0 view .LVU4
  39 0002 0271     		strb	r2, [r0, #4]
  41:Dsp/widget/wgt_core/UI_Controller.c ****     GenData->y = y;
  40              		.loc 1 41 5 is_stmt 1 view .LVU5
  41              		.loc 1 41 16 is_stmt 0 view .LVU6
  42 0004 4371     		strb	r3, [r0, #5]
  42:Dsp/widget/wgt_core/UI_Controller.c **** 
  43:Dsp/widget/wgt_core/UI_Controller.c ****     GenData->selected = false;
  43              		.loc 1 43 5 is_stmt 1 view .LVU7
  44              		.loc 1 43 23 is_stmt 0 view .LVU8
  45 0006 0023     		movs	r3, #0
  46              	.LVL1:
  47              		.loc 1 43 23 view .LVU9
  48 0008 8371     		strb	r3, [r0, #6]
  44:Dsp/widget/wgt_core/UI_Controller.c **** 
  45:Dsp/widget/wgt_core/UI_Controller.c ****     GenData->init = false;
  49              		.loc 1 45 5 is_stmt 1 view .LVU10
  50              		.loc 1 45 19 is_stmt 0 view .LVU11
  51 000a C371     		strb	r3, [r0, #7]
  46:Dsp/widget/wgt_core/UI_Controller.c **** }
  52              		.loc 1 46 1 view .LVU12
  53 000c 7047     		bx	lr
  54              		.cfi_endproc
  55              	.LFE1:
  57              		.section	.text.UI_Set_DspInterface,"ax",%progbits
  58              		.align	1
  59              		.global	UI_Set_DspInterface
  60              		.syntax unified
  61              		.thumb
  62              		.thumb_func
  63              		.fpu fpv4-sp-d16
  65              	UI_Set_DspInterface:
  66              	.LVL2:
  67              	.LFB0:
  23:Dsp/widget/wgt_core/UI_Controller.c ****     UI_DspInterface.draw_circle = circle;
  68              		.loc 1 23 1 is_stmt 1 view -0
  69              		.cfi_startproc
  70              		@ args = 20, pretend = 0, frame = 0
ARM GAS  C:\Users\huav\AppData\Local\Temp\cceId99N.s 			page 3


  71              		@ frame_needed = 0, uses_anonymous_args = 0
  72              		@ link register save eliminated.
  23:Dsp/widget/wgt_core/UI_Controller.c ****     UI_DspInterface.draw_circle = circle;
  73              		.loc 1 23 1 is_stmt 0 view .LVU14
  74 0000 30B4     		push	{r4, r5}
  75              	.LCFI0:
  76              		.cfi_def_cfa_offset 8
  77              		.cfi_offset 4, -8
  78              		.cfi_offset 5, -4
  24:Dsp/widget/wgt_core/UI_Controller.c ****     UI_DspInterface.draw_line = line;
  79              		.loc 1 24 5 is_stmt 1 view .LVU15
  24:Dsp/widget/wgt_core/UI_Controller.c ****     UI_DspInterface.draw_line = line;
  80              		.loc 1 24 33 is_stmt 0 view .LVU16
  81 0002 084C     		ldr	r4, .L4
  82 0004 029D     		ldr	r5, [sp, #8]
  83 0006 2561     		str	r5, [r4, #16]
  25:Dsp/widget/wgt_core/UI_Controller.c ****     UI_DspInterface.draw_point = point;
  84              		.loc 1 25 5 is_stmt 1 view .LVU17
  25:Dsp/widget/wgt_core/UI_Controller.c ****     UI_DspInterface.draw_point = point;
  85              		.loc 1 25 31 is_stmt 0 view .LVU18
  86 0008 6160     		str	r1, [r4, #4]
  26:Dsp/widget/wgt_core/UI_Controller.c ****     UI_DspInterface.draw_rectangle = rectangle;
  87              		.loc 1 26 5 is_stmt 1 view .LVU19
  26:Dsp/widget/wgt_core/UI_Controller.c ****     UI_DspInterface.draw_rectangle = rectangle;
  88              		.loc 1 26 32 is_stmt 0 view .LVU20
  89 000a 2060     		str	r0, [r4]
  27:Dsp/widget/wgt_core/UI_Controller.c ****     UI_DspInterface.draw_radius_rectangle = radius_rectangle;
  90              		.loc 1 27 5 is_stmt 1 view .LVU21
  27:Dsp/widget/wgt_core/UI_Controller.c ****     UI_DspInterface.draw_radius_rectangle = radius_rectangle;
  91              		.loc 1 27 36 is_stmt 0 view .LVU22
  92 000c E260     		str	r2, [r4, #12]
  28:Dsp/widget/wgt_core/UI_Controller.c ****     UI_DspInterface.draw_str = str;
  93              		.loc 1 28 5 is_stmt 1 view .LVU23
  28:Dsp/widget/wgt_core/UI_Controller.c ****     UI_DspInterface.draw_str = str;
  94              		.loc 1 28 43 is_stmt 0 view .LVU24
  95 000e A360     		str	r3, [r4, #8]
  29:Dsp/widget/wgt_core/UI_Controller.c **** 
  96              		.loc 1 29 5 is_stmt 1 view .LVU25
  29:Dsp/widget/wgt_core/UI_Controller.c **** 
  97              		.loc 1 29 30 is_stmt 0 view .LVU26
  98 0010 039B     		ldr	r3, [sp, #12]
  99              	.LVL3:
  29:Dsp/widget/wgt_core/UI_Controller.c **** 
 100              		.loc 1 29 30 view .LVU27
 101 0012 6361     		str	r3, [r4, #20]
  31:Dsp/widget/wgt_core/UI_Controller.c ****     UI_DspInterface.fill_radius_rectangle = fill_radius_rectangle;
 102              		.loc 1 31 5 is_stmt 1 view .LVU28
  31:Dsp/widget/wgt_core/UI_Controller.c ****     UI_DspInterface.fill_radius_rectangle = fill_radius_rectangle;
 103              		.loc 1 31 33 is_stmt 0 view .LVU29
 104 0014 049B     		ldr	r3, [sp, #16]
 105 0016 E361     		str	r3, [r4, #28]
  32:Dsp/widget/wgt_core/UI_Controller.c ****     UI_DspInterface.fill_rectangle = fill_rectangle;
 106              		.loc 1 32 5 is_stmt 1 view .LVU30
  32:Dsp/widget/wgt_core/UI_Controller.c ****     UI_DspInterface.fill_rectangle = fill_rectangle;
 107              		.loc 1 32 43 is_stmt 0 view .LVU31
 108 0018 069B     		ldr	r3, [sp, #24]
 109 001a 2362     		str	r3, [r4, #32]
ARM GAS  C:\Users\huav\AppData\Local\Temp\cceId99N.s 			page 4


  33:Dsp/widget/wgt_core/UI_Controller.c **** }
 110              		.loc 1 33 5 is_stmt 1 view .LVU32
  33:Dsp/widget/wgt_core/UI_Controller.c **** }
 111              		.loc 1 33 36 is_stmt 0 view .LVU33
 112 001c 059B     		ldr	r3, [sp, #20]
 113 001e A361     		str	r3, [r4, #24]
  34:Dsp/widget/wgt_core/UI_Controller.c **** 
 114              		.loc 1 34 1 view .LVU34
 115 0020 30BC     		pop	{r4, r5}
 116              	.LCFI1:
 117              		.cfi_restore 5
 118              		.cfi_restore 4
 119              		.cfi_def_cfa_offset 0
 120              	.LVL4:
  34:Dsp/widget/wgt_core/UI_Controller.c **** 
 121              		.loc 1 34 1 view .LVU35
 122 0022 7047     		bx	lr
 123              	.L5:
 124              		.align	2
 125              	.L4:
 126 0024 00000000 		.word	.LANCHOR0
 127              		.cfi_endproc
 128              	.LFE0:
 130              		.section	.text.UI_Button_Init,"ax",%progbits
 131              		.align	1
 132              		.global	UI_Button_Init
 133              		.syntax unified
 134              		.thumb
 135              		.thumb_func
 136              		.fpu fpv4-sp-d16
 138              	UI_Button_Init:
 139              	.LVL5:
 140              	.LFB5:
  47:Dsp/widget/wgt_core/UI_Controller.c **** 
  48:Dsp/widget/wgt_core/UI_Controller.c **** static bool UI_Selecte(UI_GeneralData_TypeDef *GenData, bool select)
  49:Dsp/widget/wgt_core/UI_Controller.c **** {
  50:Dsp/widget/wgt_core/UI_Controller.c ****     if (GenData == NULL)
  51:Dsp/widget/wgt_core/UI_Controller.c ****         return false;
  52:Dsp/widget/wgt_core/UI_Controller.c **** 
  53:Dsp/widget/wgt_core/UI_Controller.c ****     GenData->selected = select;
  54:Dsp/widget/wgt_core/UI_Controller.c **** 
  55:Dsp/widget/wgt_core/UI_Controller.c ****     return true;
  56:Dsp/widget/wgt_core/UI_Controller.c **** }
  57:Dsp/widget/wgt_core/UI_Controller.c **** 
  58:Dsp/widget/wgt_core/UI_Controller.c **** static bool UI_Get_Selected(UI_GeneralData_TypeDef GenData)
  59:Dsp/widget/wgt_core/UI_Controller.c **** {
  60:Dsp/widget/wgt_core/UI_Controller.c ****     return GenData.selected;
  61:Dsp/widget/wgt_core/UI_Controller.c **** }
  62:Dsp/widget/wgt_core/UI_Controller.c **** 
  63:Dsp/widget/wgt_core/UI_Controller.c **** /* still in developing about this selector */
  64:Dsp/widget/wgt_core/UI_Controller.c **** static bool UI_ShowSelector()
  65:Dsp/widget/wgt_core/UI_Controller.c **** {
  66:Dsp/widget/wgt_core/UI_Controller.c ****     return true;
  67:Dsp/widget/wgt_core/UI_Controller.c **** }
  68:Dsp/widget/wgt_core/UI_Controller.c **** 
  69:Dsp/widget/wgt_core/UI_Controller.c **** /********************************************** UI Button Object **********************************
  70:Dsp/widget/wgt_core/UI_Controller.c **** /*
ARM GAS  C:\Users\huav\AppData\Local\Temp\cceId99N.s 			page 5


  71:Dsp/widget/wgt_core/UI_Controller.c **** *  the operation of button ctl is a async operation
  72:Dsp/widget/wgt_core/UI_Controller.c **** *  exti irq or input signal triiger first then out of the trigger code 
  73:Dsp/widget/wgt_core/UI_Controller.c **** *  check signal value doing process
  74:Dsp/widget/wgt_core/UI_Controller.c **** */
  75:Dsp/widget/wgt_core/UI_Controller.c **** bool UI_Button_Init(UI_ButtonObj_TypeDef *Obj, char *label, uint8_t x, uint8_t y, uint8_t width, ui
  76:Dsp/widget/wgt_core/UI_Controller.c **** {
 141              		.loc 1 76 1 is_stmt 1 view -0
 142              		.cfi_startproc
 143              		@ args = 16, pretend = 0, frame = 0
 144              		@ frame_needed = 0, uses_anonymous_args = 0
 145              		.loc 1 76 1 is_stmt 0 view .LVU37
 146 0000 10B5     		push	{r4, lr}
 147              	.LCFI2:
 148              		.cfi_def_cfa_offset 8
 149              		.cfi_offset 4, -8
 150              		.cfi_offset 14, -4
 151 0002 9DF814C0 		ldrb	ip, [sp, #20]	@ zero_extendqisi2
  77:Dsp/widget/wgt_core/UI_Controller.c ****     if (Obj == NULL)
 152              		.loc 1 77 5 is_stmt 1 view .LVU38
 153              		.loc 1 77 8 is_stmt 0 view .LVU39
 154 0006 B0B1     		cbz	r0, .L8
 155 0008 0446     		mov	r4, r0
  78:Dsp/widget/wgt_core/UI_Controller.c ****         return false;
  79:Dsp/widget/wgt_core/UI_Controller.c **** 
  80:Dsp/widget/wgt_core/UI_Controller.c ****     Obj->default_state = state;
 156              		.loc 1 80 5 is_stmt 1 view .LVU40
 157              		.loc 1 80 24 is_stmt 0 view .LVU41
 158 000a 80F808C0 		strb	ip, [r0, #8]
  81:Dsp/widget/wgt_core/UI_Controller.c ****     Obj->state = state;
 159              		.loc 1 81 5 is_stmt 1 view .LVU42
 160              		.loc 1 81 16 is_stmt 0 view .LVU43
 161 000e 80F809C0 		strb	ip, [r0, #9]
  82:Dsp/widget/wgt_core/UI_Controller.c ****     Obj->type = type;
 162              		.loc 1 82 5 is_stmt 1 view .LVU44
 163              		.loc 1 82 15 is_stmt 0 view .LVU45
 164 0012 9DF81000 		ldrb	r0, [sp, #16]	@ zero_extendqisi2
 165              	.LVL6:
 166              		.loc 1 82 15 view .LVU46
 167 0016 A072     		strb	r0, [r4, #10]
  83:Dsp/widget/wgt_core/UI_Controller.c **** 
  84:Dsp/widget/wgt_core/UI_Controller.c ****     UI_GenData_Init(&Obj->Gen_Data, label, x, y);
 168              		.loc 1 84 5 is_stmt 1 view .LVU47
 169 0018 2046     		mov	r0, r4
 170 001a FFF7FEFF 		bl	UI_GenData_Init
 171              	.LVL7:
  85:Dsp/widget/wgt_core/UI_Controller.c **** 
  86:Dsp/widget/wgt_core/UI_Controller.c ****     Obj->width = width;
 172              		.loc 1 86 5 view .LVU48
 173              		.loc 1 86 16 is_stmt 0 view .LVU49
 174 001e 9DF80830 		ldrb	r3, [sp, #8]	@ zero_extendqisi2
 175 0022 2377     		strb	r3, [r4, #28]
  87:Dsp/widget/wgt_core/UI_Controller.c ****     Obj->height = height;
 176              		.loc 1 87 5 is_stmt 1 view .LVU50
 177              		.loc 1 87 17 is_stmt 0 view .LVU51
 178 0024 9DF80C30 		ldrb	r3, [sp, #12]	@ zero_extendqisi2
 179 0028 6377     		strb	r3, [r4, #29]
  88:Dsp/widget/wgt_core/UI_Controller.c **** 
ARM GAS  C:\Users\huav\AppData\Local\Temp\cceId99N.s 			page 6


  89:Dsp/widget/wgt_core/UI_Controller.c ****     Obj->PushDown_Label = NULL;
 180              		.loc 1 89 5 is_stmt 1 view .LVU52
 181              		.loc 1 89 25 is_stmt 0 view .LVU53
 182 002a 0023     		movs	r3, #0
 183 002c 6361     		str	r3, [r4, #20]
  90:Dsp/widget/wgt_core/UI_Controller.c ****     Obj->Release_Label = NULL;
 184              		.loc 1 90 5 is_stmt 1 view .LVU54
 185              		.loc 1 90 24 is_stmt 0 view .LVU55
 186 002e A361     		str	r3, [r4, #24]
  91:Dsp/widget/wgt_core/UI_Controller.c **** 
  92:Dsp/widget/wgt_core/UI_Controller.c ****     Obj->Gen_Data.init = true;
 187              		.loc 1 92 5 is_stmt 1 view .LVU56
 188              		.loc 1 92 24 is_stmt 0 view .LVU57
 189 0030 0120     		movs	r0, #1
 190 0032 E071     		strb	r0, [r4, #7]
  93:Dsp/widget/wgt_core/UI_Controller.c **** 
  94:Dsp/widget/wgt_core/UI_Controller.c ****     return true;
 191              		.loc 1 94 5 is_stmt 1 view .LVU58
 192              	.LVL8:
 193              	.L7:
  95:Dsp/widget/wgt_core/UI_Controller.c **** }
 194              		.loc 1 95 1 is_stmt 0 view .LVU59
 195 0034 10BD     		pop	{r4, pc}
 196              	.LVL9:
 197              	.L8:
  78:Dsp/widget/wgt_core/UI_Controller.c **** 
 198              		.loc 1 78 16 view .LVU60
 199 0036 0020     		movs	r0, #0
 200              	.LVL10:
  78:Dsp/widget/wgt_core/UI_Controller.c **** 
 201              		.loc 1 78 16 view .LVU61
 202 0038 FCE7     		b	.L7
 203              		.cfi_endproc
 204              	.LFE5:
 206              		.section	.text.UI_Button_SetPush_Label,"ax",%progbits
 207              		.align	1
 208              		.global	UI_Button_SetPush_Label
 209              		.syntax unified
 210              		.thumb
 211              		.thumb_func
 212              		.fpu fpv4-sp-d16
 214              	UI_Button_SetPush_Label:
 215              	.LVL11:
 216              	.LFB6:
  96:Dsp/widget/wgt_core/UI_Controller.c **** 
  97:Dsp/widget/wgt_core/UI_Controller.c **** bool UI_Button_SetPush_Label(UI_ButtonObj_TypeDef *Obj, char *Psh_Lbl)
  98:Dsp/widget/wgt_core/UI_Controller.c **** {
 217              		.loc 1 98 1 is_stmt 1 view -0
 218              		.cfi_startproc
 219              		@ args = 0, pretend = 0, frame = 0
 220              		@ frame_needed = 0, uses_anonymous_args = 0
 221              		@ link register save eliminated.
  99:Dsp/widget/wgt_core/UI_Controller.c ****     if (Obj == NULL)
 222              		.loc 1 99 5 view .LVU63
 223              		.loc 1 99 8 is_stmt 0 view .LVU64
 224 0000 10B1     		cbz	r0, .L12
 100:Dsp/widget/wgt_core/UI_Controller.c ****         return false;
ARM GAS  C:\Users\huav\AppData\Local\Temp\cceId99N.s 			page 7


 101:Dsp/widget/wgt_core/UI_Controller.c **** 
 102:Dsp/widget/wgt_core/UI_Controller.c ****     Obj->PushDown_Label = Psh_Lbl;
 225              		.loc 1 102 5 is_stmt 1 view .LVU65
 226              		.loc 1 102 25 is_stmt 0 view .LVU66
 227 0002 4161     		str	r1, [r0, #20]
 103:Dsp/widget/wgt_core/UI_Controller.c **** 
 104:Dsp/widget/wgt_core/UI_Controller.c ****     return true;
 228              		.loc 1 104 5 is_stmt 1 view .LVU67
 229              		.loc 1 104 12 is_stmt 0 view .LVU68
 230 0004 0120     		movs	r0, #1
 231              	.LVL12:
 232              		.loc 1 104 12 view .LVU69
 233 0006 7047     		bx	lr
 234              	.LVL13:
 235              	.L12:
 100:Dsp/widget/wgt_core/UI_Controller.c ****         return false;
 236              		.loc 1 100 16 view .LVU70
 237 0008 0020     		movs	r0, #0
 238              	.LVL14:
 105:Dsp/widget/wgt_core/UI_Controller.c **** }
 239              		.loc 1 105 1 view .LVU71
 240 000a 7047     		bx	lr
 241              		.cfi_endproc
 242              	.LFE6:
 244              		.section	.text.UI_Button_SetRelease_Label,"ax",%progbits
 245              		.align	1
 246              		.global	UI_Button_SetRelease_Label
 247              		.syntax unified
 248              		.thumb
 249              		.thumb_func
 250              		.fpu fpv4-sp-d16
 252              	UI_Button_SetRelease_Label:
 253              	.LVL15:
 254              	.LFB7:
 106:Dsp/widget/wgt_core/UI_Controller.c **** 
 107:Dsp/widget/wgt_core/UI_Controller.c **** bool UI_Button_SetRelease_Label(UI_ButtonObj_TypeDef *Obj, char *Rls_Lbl)
 108:Dsp/widget/wgt_core/UI_Controller.c **** {
 255              		.loc 1 108 1 is_stmt 1 view -0
 256              		.cfi_startproc
 257              		@ args = 0, pretend = 0, frame = 0
 258              		@ frame_needed = 0, uses_anonymous_args = 0
 259              		@ link register save eliminated.
 109:Dsp/widget/wgt_core/UI_Controller.c ****     if (Obj == NULL)
 260              		.loc 1 109 5 view .LVU73
 261              		.loc 1 109 8 is_stmt 0 view .LVU74
 262 0000 10B1     		cbz	r0, .L15
 110:Dsp/widget/wgt_core/UI_Controller.c ****         return false;
 111:Dsp/widget/wgt_core/UI_Controller.c **** 
 112:Dsp/widget/wgt_core/UI_Controller.c ****     Obj->Release_Label = Rls_Lbl;
 263              		.loc 1 112 5 is_stmt 1 view .LVU75
 264              		.loc 1 112 24 is_stmt 0 view .LVU76
 265 0002 8161     		str	r1, [r0, #24]
 113:Dsp/widget/wgt_core/UI_Controller.c **** 
 114:Dsp/widget/wgt_core/UI_Controller.c ****     return true;
 266              		.loc 1 114 5 is_stmt 1 view .LVU77
 267              		.loc 1 114 12 is_stmt 0 view .LVU78
 268 0004 0120     		movs	r0, #1
ARM GAS  C:\Users\huav\AppData\Local\Temp\cceId99N.s 			page 8


 269              	.LVL16:
 270              		.loc 1 114 12 view .LVU79
 271 0006 7047     		bx	lr
 272              	.LVL17:
 273              	.L15:
 110:Dsp/widget/wgt_core/UI_Controller.c ****         return false;
 274              		.loc 1 110 16 view .LVU80
 275 0008 0020     		movs	r0, #0
 276              	.LVL18:
 115:Dsp/widget/wgt_core/UI_Controller.c **** }
 277              		.loc 1 115 1 view .LVU81
 278 000a 7047     		bx	lr
 279              		.cfi_endproc
 280              	.LFE7:
 282              		.section	.text.UI_Button_Set_TriggerCallback,"ax",%progbits
 283              		.align	1
 284              		.global	UI_Button_Set_TriggerCallback
 285              		.syntax unified
 286              		.thumb
 287              		.thumb_func
 288              		.fpu fpv4-sp-d16
 290              	UI_Button_Set_TriggerCallback:
 291              	.LVL19:
 292              	.LFB8:
 116:Dsp/widget/wgt_core/UI_Controller.c **** 
 117:Dsp/widget/wgt_core/UI_Controller.c **** bool UI_Button_Set_TriggerCallback(UI_ButtonObj_TypeDef *Obj, UI_Button_Trigger_Type type, UI_Trigg
 118:Dsp/widget/wgt_core/UI_Controller.c **** {
 293              		.loc 1 118 1 is_stmt 1 view -0
 294              		.cfi_startproc
 295              		@ args = 0, pretend = 0, frame = 0
 296              		@ frame_needed = 0, uses_anonymous_args = 0
 297              		@ link register save eliminated.
 119:Dsp/widget/wgt_core/UI_Controller.c ****     if (Obj == NULL)
 298              		.loc 1 119 5 view .LVU83
 299              		.loc 1 119 8 is_stmt 0 view .LVU84
 300 0000 40B1     		cbz	r0, .L19
 120:Dsp/widget/wgt_core/UI_Controller.c ****         return false;
 121:Dsp/widget/wgt_core/UI_Controller.c **** 
 122:Dsp/widget/wgt_core/UI_Controller.c ****     if (type == Push_Trigger)
 301              		.loc 1 122 5 is_stmt 1 view .LVU85
 302              		.loc 1 122 8 is_stmt 0 view .LVU86
 303 0002 11B9     		cbnz	r1, .L18
 123:Dsp/widget/wgt_core/UI_Controller.c ****     {
 124:Dsp/widget/wgt_core/UI_Controller.c ****         Obj->push_callback = callback;
 304              		.loc 1 124 9 is_stmt 1 view .LVU87
 305              		.loc 1 124 28 is_stmt 0 view .LVU88
 306 0004 C260     		str	r2, [r0, #12]
 125:Dsp/widget/wgt_core/UI_Controller.c ****     }
 126:Dsp/widget/wgt_core/UI_Controller.c ****     else if (type == Release_Trigger)
 127:Dsp/widget/wgt_core/UI_Controller.c ****     {
 128:Dsp/widget/wgt_core/UI_Controller.c ****         Obj->release_callback = callback;
 129:Dsp/widget/wgt_core/UI_Controller.c ****     }
 130:Dsp/widget/wgt_core/UI_Controller.c ****     else
 131:Dsp/widget/wgt_core/UI_Controller.c ****         return false;
 132:Dsp/widget/wgt_core/UI_Controller.c **** 
 133:Dsp/widget/wgt_core/UI_Controller.c ****     return true;
 307              		.loc 1 133 12 view .LVU89
ARM GAS  C:\Users\huav\AppData\Local\Temp\cceId99N.s 			page 9


 308 0006 0120     		movs	r0, #1
 309              	.LVL20:
 310              		.loc 1 133 12 view .LVU90
 311 0008 7047     		bx	lr
 312              	.LVL21:
 313              	.L18:
 126:Dsp/widget/wgt_core/UI_Controller.c ****     {
 314              		.loc 1 126 10 is_stmt 1 view .LVU91
 126:Dsp/widget/wgt_core/UI_Controller.c ****     {
 315              		.loc 1 126 13 is_stmt 0 view .LVU92
 316 000a 0129     		cmp	r1, #1
 317 000c 04D1     		bne	.L20
 128:Dsp/widget/wgt_core/UI_Controller.c ****     }
 318              		.loc 1 128 9 is_stmt 1 view .LVU93
 128:Dsp/widget/wgt_core/UI_Controller.c ****     }
 319              		.loc 1 128 31 is_stmt 0 view .LVU94
 320 000e 0261     		str	r2, [r0, #16]
 321              		.loc 1 133 12 view .LVU95
 322 0010 0120     		movs	r0, #1
 323              	.LVL22:
 324              		.loc 1 133 12 view .LVU96
 325 0012 7047     		bx	lr
 326              	.LVL23:
 327              	.L19:
 120:Dsp/widget/wgt_core/UI_Controller.c **** 
 328              		.loc 1 120 16 view .LVU97
 329 0014 0020     		movs	r0, #0
 330              	.LVL24:
 120:Dsp/widget/wgt_core/UI_Controller.c **** 
 331              		.loc 1 120 16 view .LVU98
 332 0016 7047     		bx	lr
 333              	.LVL25:
 334              	.L20:
 131:Dsp/widget/wgt_core/UI_Controller.c **** 
 335              		.loc 1 131 16 view .LVU99
 336 0018 0020     		movs	r0, #0
 337              	.LVL26:
 134:Dsp/widget/wgt_core/UI_Controller.c **** }
 338              		.loc 1 134 1 view .LVU100
 339 001a 7047     		bx	lr
 340              		.cfi_endproc
 341              	.LFE8:
 343              		.section	.bss.UI_DspInterface,"aw",%nobits
 344              		.align	2
 345              		.set	.LANCHOR0,. + 0
 348              	UI_DspInterface:
 349 0000 00000000 		.space	36
 349      00000000 
 349      00000000 
 349      00000000 
 349      00000000 
 350              		.text
 351              	.Letext0:
 352              		.file 2 "c:\\program files (x86)\\gnu arm embedded toolchain\\10 2020-q4-major\\arm-none-eabi\\inc
 353              		.file 3 "c:\\program files (x86)\\gnu arm embedded toolchain\\10 2020-q4-major\\arm-none-eabi\\inc
 354              		.file 4 "Dsp/widget/wgt_core/UI_Controller.h"
ARM GAS  C:\Users\huav\AppData\Local\Temp\cceId99N.s 			page 10


DEFINED SYMBOLS
                            *ABS*:00000000 UI_Controller.c
C:\Users\huav\AppData\Local\Temp\cceId99N.s:18     .text.UI_GenData_Init:00000000 $t
C:\Users\huav\AppData\Local\Temp\cceId99N.s:25     .text.UI_GenData_Init:00000000 UI_GenData_Init
C:\Users\huav\AppData\Local\Temp\cceId99N.s:58     .text.UI_Set_DspInterface:00000000 $t
C:\Users\huav\AppData\Local\Temp\cceId99N.s:65     .text.UI_Set_DspInterface:00000000 UI_Set_DspInterface
C:\Users\huav\AppData\Local\Temp\cceId99N.s:126    .text.UI_Set_DspInterface:00000024 $d
C:\Users\huav\AppData\Local\Temp\cceId99N.s:131    .text.UI_Button_Init:00000000 $t
C:\Users\huav\AppData\Local\Temp\cceId99N.s:138    .text.UI_Button_Init:00000000 UI_Button_Init
C:\Users\huav\AppData\Local\Temp\cceId99N.s:207    .text.UI_Button_SetPush_Label:00000000 $t
C:\Users\huav\AppData\Local\Temp\cceId99N.s:214    .text.UI_Button_SetPush_Label:00000000 UI_Button_SetPush_Label
C:\Users\huav\AppData\Local\Temp\cceId99N.s:245    .text.UI_Button_SetRelease_Label:00000000 $t
C:\Users\huav\AppData\Local\Temp\cceId99N.s:252    .text.UI_Button_SetRelease_Label:00000000 UI_Button_SetRelease_Label
C:\Users\huav\AppData\Local\Temp\cceId99N.s:283    .text.UI_Button_Set_TriggerCallback:00000000 $t
C:\Users\huav\AppData\Local\Temp\cceId99N.s:290    .text.UI_Button_Set_TriggerCallback:00000000 UI_Button_Set_TriggerCallback
C:\Users\huav\AppData\Local\Temp\cceId99N.s:344    .bss.UI_DspInterface:00000000 $d
C:\Users\huav\AppData\Local\Temp\cceId99N.s:348    .bss.UI_DspInterface:00000000 UI_DspInterface

NO UNDEFINED SYMBOLS
