ARM GAS  /var/folders/lx/hc4sn_b53233_zkc9xbbl97r0000gp/T//cc29qxiB.s 			page 1


   1              		.cpu cortex-m4
   2              		.eabi_attribute 27, 1
   3              		.eabi_attribute 28, 1
   4              		.eabi_attribute 20, 1
   5              		.eabi_attribute 21, 1
   6              		.eabi_attribute 23, 3
   7              		.eabi_attribute 24, 1
   8              		.eabi_attribute 25, 1
   9              		.eabi_attribute 26, 1
  10              		.eabi_attribute 30, 1
  11              		.eabi_attribute 34, 1
  12              		.eabi_attribute 18, 4
  13              		.file	"UI_Controller.c"
  14              		.text
  15              	.Ltext0:
  16              		.cfi_sections	.debug_frame
  17              		.section	.text.UI_Draw_HorDotLine,"ax",%progbits
  18              		.align	1
  19              		.arch armv7e-m
  20              		.syntax unified
  21              		.thumb
  22              		.thumb_func
  23              		.fpu fpv4-sp-d16
  25              	UI_Draw_HorDotLine:
  26              	.LVL0:
  27              	.LFB6:
  28              		.file 1 "Dsp/widget/wgt_core/UI_Controller.c"
   1:Dsp/widget/wgt_core/UI_Controller.c **** #include "UI_Controller.h"
   2:Dsp/widget/wgt_core/UI_Controller.c **** #include "runtime.h"
   3:Dsp/widget/wgt_core/UI_Controller.c **** #include <stdlib.h>
   4:Dsp/widget/wgt_core/UI_Controller.c **** #include <string.h>
   5:Dsp/widget/wgt_core/UI_Controller.c **** #include <stdio.h>
   6:Dsp/widget/wgt_core/UI_Controller.c **** 
   7:Dsp/widget/wgt_core/UI_Controller.c **** /* internal object */
   8:Dsp/widget/wgt_core/UI_Controller.c **** static UI_DrawInterface_TypeDef UI_DspInterface;
   9:Dsp/widget/wgt_core/UI_Controller.c **** static uint8_t base_font = Default_Font;
  10:Dsp/widget/wgt_core/UI_Controller.c **** 
  11:Dsp/widget/wgt_core/UI_Controller.c **** /* external function */
  12:Dsp/widget/wgt_core/UI_Controller.c **** /* UI Get General Get Mathod */
  13:Dsp/widget/wgt_core/UI_Controller.c **** UI_GetWidget_Width UI_Get_WidgetWidth = NULL;
  14:Dsp/widget/wgt_core/UI_Controller.c **** // UI_GetWidget_Height UI_Get_WidgetHeight = NULL;
  15:Dsp/widget/wgt_core/UI_Controller.c **** 
  16:Dsp/widget/wgt_core/UI_Controller.c **** /* UI button section */
  17:Dsp/widget/wgt_core/UI_Controller.c **** static bool UI_Button_Init(UI_ButtonObj_TypeDef *Obj, char *label, int16_t x, int16_t y, uint8_t wi
  18:Dsp/widget/wgt_core/UI_Controller.c **** static bool UI_Button_Set_Label(UI_ButtonObj_TypeDef *Obj, UI_Button_State_List state, char *label)
  19:Dsp/widget/wgt_core/UI_Controller.c **** static bool UI_Button_Set_TriggerCallback(UI_ButtonObj_TypeDef *Obj, UI_Button_Trigger_Type type, U
  20:Dsp/widget/wgt_core/UI_Controller.c **** static bool UI_Button_Push(UI_ButtonObj_TypeDef *Obj);
  21:Dsp/widget/wgt_core/UI_Controller.c **** static bool UI_Button_Release(UI_ButtonObj_TypeDef *Obj);
  22:Dsp/widget/wgt_core/UI_Controller.c **** static bool UI_Button_Move(UI_ButtonObj_TypeDef *Obj, uint16_t x, uint16_t y);
  23:Dsp/widget/wgt_core/UI_Controller.c **** static bool UI_Button_Ctl(UI_ButtonObj_TypeDef *Obj);
  24:Dsp/widget/wgt_core/UI_Controller.c **** 
  25:Dsp/widget/wgt_core/UI_Controller.c **** /* UI check box section */
  26:Dsp/widget/wgt_core/UI_Controller.c **** static bool UI_CheckBox_Init(UI_CheckBoxObj_TypeDef *Obj, char *label, int16_t x, int16_t y, bool s
  27:Dsp/widget/wgt_core/UI_Controller.c **** static bool UI_CheckBox_SetCallback(UI_CheckBoxObj_TypeDef *Obj, UI_CheckBoxTrigger_Callback callba
  28:Dsp/widget/wgt_core/UI_Controller.c **** static bool UI_CheckBox_Move(UI_CheckBoxObj_TypeDef *Obj, int16_t x, int16_t y);
  29:Dsp/widget/wgt_core/UI_Controller.c **** static bool UI_CheckBox_Trigger(UI_CheckBoxObj_TypeDef *Obj);
  30:Dsp/widget/wgt_core/UI_Controller.c **** static bool UI_CheckBox_Ctl(UI_CheckBoxObj_TypeDef *Obj);
ARM GAS  /var/folders/lx/hc4sn_b53233_zkc9xbbl97r0000gp/T//cc29qxiB.s 			page 2


  31:Dsp/widget/wgt_core/UI_Controller.c **** 
  32:Dsp/widget/wgt_core/UI_Controller.c **** /* UI slider bar section */
  33:Dsp/widget/wgt_core/UI_Controller.c **** static bool UI_SlideBar_Init(UI_SlideBarObj_TypeDef *Obj, UI_SliderBar_Mode_List mode, char *label,
  34:Dsp/widget/wgt_core/UI_Controller.c **** static bool UI_SlideBar_Move(UI_SlideBarObj_TypeDef *Obj, int16_t x, int16_t y);
  35:Dsp/widget/wgt_core/UI_Controller.c **** static bool UI_SlideBar_SetCallBack(UI_SlideBarObj_TypeDef *Obj, UI_SliderBarTrigger_Callback callb
  36:Dsp/widget/wgt_core/UI_Controller.c **** static bool UI_SlideBar_Input(UI_SlideBarObj_TypeDef *Obj, int16_t *step);
  37:Dsp/widget/wgt_core/UI_Controller.c **** static bool UI_SlideBar_Trigger(UI_SlideBarObj_TypeDef *Obj);
  38:Dsp/widget/wgt_core/UI_Controller.c **** static bool UI_SlideBar_CTL(UI_SlideBarObj_TypeDef *Obj);
  39:Dsp/widget/wgt_core/UI_Controller.c **** static void UI_SlideBar_SetSelect(UI_SlideBarObj_TypeDef *Obj, bool select);
  40:Dsp/widget/wgt_core/UI_Controller.c **** static bool UI_SlideBar_IsSelected(UI_SlideBarObj_TypeDef *Obj);
  41:Dsp/widget/wgt_core/UI_Controller.c **** 
  42:Dsp/widget/wgt_core/UI_Controller.c **** /* UI Process bar section */
  43:Dsp/widget/wgt_core/UI_Controller.c **** static bool UI_ProcessBar_Init(UI_ProcessBarObj_TypeDef *Obj, UI_ProcessBar_DspType_List dsp_type, 
  44:Dsp/widget/wgt_core/UI_Controller.c **** static bool UI_ProcessBar_SetDspDir(UI_ProcessBarObj_TypeDef *Obj, UI_ProcessBar_MoveDir_TypeDef Di
  45:Dsp/widget/wgt_core/UI_Controller.c **** static bool UI_ProcessBar_SetCurVal(UI_ProcessBarObj_TypeDef *Obj, int32_t val);
  46:Dsp/widget/wgt_core/UI_Controller.c **** static bool UI_ProcessBar_Ctl(UI_ProcessBarObj_TypeDef *Obj);
  47:Dsp/widget/wgt_core/UI_Controller.c **** static bool UI_ProcessBar_Move(UI_ProcessBarObj_TypeDef *Obj, uint16_t x, uint16_t y);
  48:Dsp/widget/wgt_core/UI_Controller.c **** 
  49:Dsp/widget/wgt_core/UI_Controller.c **** /* general function */
  50:Dsp/widget/wgt_core/UI_Controller.c **** static bool UI_Get_InitSate(UI_GeneralData_TypeDef GenData);
  51:Dsp/widget/wgt_core/UI_Controller.c **** static bool UI_Selecte(UI_GeneralData_TypeDef *GenData, bool select);
  52:Dsp/widget/wgt_core/UI_Controller.c **** static bool UI_Get_Selected(UI_GeneralData_TypeDef GenData);
  53:Dsp/widget/wgt_core/UI_Controller.c **** static bool UI_Move(UI_GeneralData_TypeDef *GenUI_Info, int16_t dst_x, int16_t dst_y);
  54:Dsp/widget/wgt_core/UI_Controller.c **** 
  55:Dsp/widget/wgt_core/UI_Controller.c **** /* UI custom display mathod */
  56:Dsp/widget/wgt_core/UI_Controller.c **** static bool UI_Draw_HorDotLine(int16_t x, int16_t y, uint8_t len, uint8_t line_width);
  57:Dsp/widget/wgt_core/UI_Controller.c **** 
  58:Dsp/widget/wgt_core/UI_Controller.c **** /* external Object var */
  59:Dsp/widget/wgt_core/UI_Controller.c **** UI_Button_Interface_TypeDef UI_Button = {
  60:Dsp/widget/wgt_core/UI_Controller.c ****     .ctl = UI_Button_Ctl,
  61:Dsp/widget/wgt_core/UI_Controller.c ****     .init = UI_Button_Init,
  62:Dsp/widget/wgt_core/UI_Controller.c ****     .push = UI_Button_Push,
  63:Dsp/widget/wgt_core/UI_Controller.c ****     .move = UI_Button_Move,
  64:Dsp/widget/wgt_core/UI_Controller.c ****     .release = UI_Button_Release,
  65:Dsp/widget/wgt_core/UI_Controller.c ****     .set_label = UI_Button_Set_Label,
  66:Dsp/widget/wgt_core/UI_Controller.c ****     .set_trogger_callback = UI_Button_Set_TriggerCallback,
  67:Dsp/widget/wgt_core/UI_Controller.c **** };
  68:Dsp/widget/wgt_core/UI_Controller.c **** 
  69:Dsp/widget/wgt_core/UI_Controller.c **** UI_CheckBox_Interface_TypeDef UI_CheckBox = {
  70:Dsp/widget/wgt_core/UI_Controller.c ****     .ctl = UI_CheckBox_Ctl,
  71:Dsp/widget/wgt_core/UI_Controller.c ****     .init = UI_CheckBox_Init,
  72:Dsp/widget/wgt_core/UI_Controller.c ****     .Set_Callback = UI_CheckBox_SetCallback,
  73:Dsp/widget/wgt_core/UI_Controller.c ****     .Move = UI_CheckBox_Move,
  74:Dsp/widget/wgt_core/UI_Controller.c ****     .Trigger = UI_CheckBox_Trigger,
  75:Dsp/widget/wgt_core/UI_Controller.c **** };
  76:Dsp/widget/wgt_core/UI_Controller.c **** 
  77:Dsp/widget/wgt_core/UI_Controller.c **** UI_SliderBar_Interface_TypeDef UI_SlideBar = {
  78:Dsp/widget/wgt_core/UI_Controller.c ****     .init = UI_SlideBar_Init,
  79:Dsp/widget/wgt_core/UI_Controller.c ****     .Move = UI_SlideBar_Move,
  80:Dsp/widget/wgt_core/UI_Controller.c ****     .Set_Callbak = UI_SlideBar_SetCallBack,
  81:Dsp/widget/wgt_core/UI_Controller.c ****     .Input = UI_SlideBar_Input,
  82:Dsp/widget/wgt_core/UI_Controller.c ****     .Trigger = UI_SlideBar_Trigger,
  83:Dsp/widget/wgt_core/UI_Controller.c ****     .ctl = UI_SlideBar_CTL,
  84:Dsp/widget/wgt_core/UI_Controller.c ****     .Set_Select = UI_SlideBar_SetSelect,
  85:Dsp/widget/wgt_core/UI_Controller.c ****     .Get_Select = UI_SlideBar_IsSelected,
  86:Dsp/widget/wgt_core/UI_Controller.c **** };
  87:Dsp/widget/wgt_core/UI_Controller.c **** 
ARM GAS  /var/folders/lx/hc4sn_b53233_zkc9xbbl97r0000gp/T//cc29qxiB.s 			page 3


  88:Dsp/widget/wgt_core/UI_Controller.c **** UI_ProcessBar_Interface_TypeDef UI_ProcessBar = {
  89:Dsp/widget/wgt_core/UI_Controller.c ****     .init = UI_ProcessBar_Init,
  90:Dsp/widget/wgt_core/UI_Controller.c ****     .Move = UI_ProcessBar_Move,
  91:Dsp/widget/wgt_core/UI_Controller.c ****     .set_CurVal = UI_ProcessBar_SetCurVal,
  92:Dsp/widget/wgt_core/UI_Controller.c ****     .set_DspDir = UI_ProcessBar_SetDspDir,
  93:Dsp/widget/wgt_core/UI_Controller.c ****     .ctl = UI_ProcessBar_Ctl,
  94:Dsp/widget/wgt_core/UI_Controller.c **** };
  95:Dsp/widget/wgt_core/UI_Controller.c **** 
  96:Dsp/widget/wgt_core/UI_Controller.c **** /******************************* general function *********************************/
  97:Dsp/widget/wgt_core/UI_Controller.c **** 
  98:Dsp/widget/wgt_core/UI_Controller.c **** bool UI_Set_FontType(uint8_t font)
  99:Dsp/widget/wgt_core/UI_Controller.c **** {
 100:Dsp/widget/wgt_core/UI_Controller.c ****     if (font < Font_8 || font > Font_16)
 101:Dsp/widget/wgt_core/UI_Controller.c ****         return false;
 102:Dsp/widget/wgt_core/UI_Controller.c **** 
 103:Dsp/widget/wgt_core/UI_Controller.c ****     base_font = font;
 104:Dsp/widget/wgt_core/UI_Controller.c **** 
 105:Dsp/widget/wgt_core/UI_Controller.c ****     return true;
 106:Dsp/widget/wgt_core/UI_Controller.c **** }
 107:Dsp/widget/wgt_core/UI_Controller.c **** 
 108:Dsp/widget/wgt_core/UI_Controller.c **** void UI_Set_DspInterface(UI_DrawPoint point,
 109:Dsp/widget/wgt_core/UI_Controller.c ****                          UI_DrawHLine line_h,
 110:Dsp/widget/wgt_core/UI_Controller.c ****                          UI_DrawVLine line_v,
 111:Dsp/widget/wgt_core/UI_Controller.c ****                          UI_DrawRectangle rectangle,
 112:Dsp/widget/wgt_core/UI_Controller.c ****                          UI_DrawRadiusRectangle radius_rectangle,
 113:Dsp/widget/wgt_core/UI_Controller.c ****                          UI_DrawCircle circle,
 114:Dsp/widget/wgt_core/UI_Controller.c ****                          UI_DrawCircleSection circle_section,
 115:Dsp/widget/wgt_core/UI_Controller.c ****                          UI_DrawStr str,
 116:Dsp/widget/wgt_core/UI_Controller.c ****                          UI_FillCircle fill_circle,
 117:Dsp/widget/wgt_core/UI_Controller.c ****                          UI_FillCircle_Section fillcircle_section,
 118:Dsp/widget/wgt_core/UI_Controller.c ****                          UI_FillRectangle fill_rectangle,
 119:Dsp/widget/wgt_core/UI_Controller.c ****                          UI_FillRadiusRectangle fill_radius_rectangle)
 120:Dsp/widget/wgt_core/UI_Controller.c **** {
 121:Dsp/widget/wgt_core/UI_Controller.c ****     UI_DspInterface.draw_circle = circle;
 122:Dsp/widget/wgt_core/UI_Controller.c ****     UI_DspInterface.draw_circle_section = circle_section;
 123:Dsp/widget/wgt_core/UI_Controller.c ****     UI_DspInterface.draw_line_h = line_h;
 124:Dsp/widget/wgt_core/UI_Controller.c ****     UI_DspInterface.draw_line_v = line_v;
 125:Dsp/widget/wgt_core/UI_Controller.c ****     UI_DspInterface.draw_point = point;
 126:Dsp/widget/wgt_core/UI_Controller.c ****     UI_DspInterface.draw_rectangle = rectangle;
 127:Dsp/widget/wgt_core/UI_Controller.c ****     UI_DspInterface.draw_radius_rectangle = radius_rectangle;
 128:Dsp/widget/wgt_core/UI_Controller.c ****     UI_DspInterface.draw_str = str;
 129:Dsp/widget/wgt_core/UI_Controller.c **** 
 130:Dsp/widget/wgt_core/UI_Controller.c ****     UI_DspInterface.fill_circle = fill_circle;
 131:Dsp/widget/wgt_core/UI_Controller.c ****     UI_DspInterface.fill_circle_section = fillcircle_section;
 132:Dsp/widget/wgt_core/UI_Controller.c ****     UI_DspInterface.fill_radius_rectangle = fill_radius_rectangle;
 133:Dsp/widget/wgt_core/UI_Controller.c ****     UI_DspInterface.fill_rectangle = fill_rectangle;
 134:Dsp/widget/wgt_core/UI_Controller.c **** }
 135:Dsp/widget/wgt_core/UI_Controller.c **** 
 136:Dsp/widget/wgt_core/UI_Controller.c **** void UI_Set_GetWidgetWidthMathod(UI_GetWidget_Width mathod)
 137:Dsp/widget/wgt_core/UI_Controller.c **** {
 138:Dsp/widget/wgt_core/UI_Controller.c ****     UI_Get_WidgetWidth = mathod;
 139:Dsp/widget/wgt_core/UI_Controller.c **** }
 140:Dsp/widget/wgt_core/UI_Controller.c **** 
 141:Dsp/widget/wgt_core/UI_Controller.c **** static bool UI_Draw_HorDotLine(int16_t x, int16_t y, uint8_t len, uint8_t line_width)
 142:Dsp/widget/wgt_core/UI_Controller.c **** {
  29              		.loc 1 142 1 view -0
  30              		.cfi_startproc
ARM GAS  /var/folders/lx/hc4sn_b53233_zkc9xbbl97r0000gp/T//cc29qxiB.s 			page 4


  31              		@ args = 0, pretend = 0, frame = 0
  32              		@ frame_needed = 0, uses_anonymous_args = 0
  33              		.loc 1 142 1 is_stmt 0 view .LVU1
  34 0000 2DE9F843 		push	{r3, r4, r5, r6, r7, r8, r9, lr}
  35              	.LCFI0:
  36              		.cfi_def_cfa_offset 32
  37              		.cfi_offset 3, -32
  38              		.cfi_offset 4, -28
  39              		.cfi_offset 5, -24
  40              		.cfi_offset 6, -20
  41              		.cfi_offset 7, -16
  42              		.cfi_offset 8, -12
  43              		.cfi_offset 9, -8
  44              		.cfi_offset 14, -4
  45 0004 1E46     		mov	r6, r3
 143:Dsp/widget/wgt_core/UI_Controller.c ****     if ((UI_DspInterface.draw_point == NULL) || (UI_Get_WidgetWidth == NULL))
  46              		.loc 1 143 5 is_stmt 1 view .LVU2
  47              		.loc 1 143 25 is_stmt 0 view .LVU3
  48 0006 184B     		ldr	r3, .L14
  49              	.LVL1:
  50              		.loc 1 143 25 view .LVU4
  51 0008 5B68     		ldr	r3, [r3, #4]
  52              		.loc 1 143 8 view .LVU5
  53 000a 4BB3     		cbz	r3, .L7
  54 000c 0546     		mov	r5, r0
  55 000e 0F46     		mov	r7, r1
  56 0010 9046     		mov	r8, r2
  57              		.loc 1 143 69 discriminator 1 view .LVU6
  58 0012 164B     		ldr	r3, .L14+4
  59 0014 1B68     		ldr	r3, [r3]
  60              		.loc 1 143 46 discriminator 1 view .LVU7
  61 0016 2BB3     		cbz	r3, .L8
 144:Dsp/widget/wgt_core/UI_Controller.c ****         return false;
 145:Dsp/widget/wgt_core/UI_Controller.c **** 
 146:Dsp/widget/wgt_core/UI_Controller.c ****     if (x > UI_Get_WidgetWidth())
  62              		.loc 1 146 5 is_stmt 1 view .LVU8
  63              		.loc 1 146 11 is_stmt 0 view .LVU9
  64 0018 8146     		mov	r9, r0
  65              		.loc 1 146 13 view .LVU10
  66 001a 9847     		blx	r3
  67              	.LVL2:
  68              		.loc 1 146 8 view .LVU11
  69 001c 8542     		cmp	r5, r0
  70 001e 16DD     		ble	.L3
 147:Dsp/widget/wgt_core/UI_Controller.c ****         return true;
  71              		.loc 1 147 16 view .LVU12
  72 0020 0120     		movs	r0, #1
  73 0022 1BE0     		b	.L2
  74              	.LVL3:
  75              	.L4:
  76              	.LBB2:
  77              	.LBB3:
 148:Dsp/widget/wgt_core/UI_Controller.c **** 
 149:Dsp/widget/wgt_core/UI_Controller.c ****     for (int16_t i = x; i < x + len; i++)
 150:Dsp/widget/wgt_core/UI_Controller.c ****     {
 151:Dsp/widget/wgt_core/UI_Controller.c ****         for (uint8_t width = 0; width < line_width; width++)
  78              		.loc 1 151 53 is_stmt 1 discriminator 2 view .LVU13
ARM GAS  /var/folders/lx/hc4sn_b53233_zkc9xbbl97r0000gp/T//cc29qxiB.s 			page 5


  79              		.loc 1 151 58 is_stmt 0 discriminator 2 view .LVU14
  80 0024 0134     		adds	r4, r4, #1
  81              	.LVL4:
  82              		.loc 1 151 58 discriminator 2 view .LVU15
  83 0026 E4B2     		uxtb	r4, r4
  84              	.LVL5:
  85              	.L6:
  86              		.loc 1 151 33 is_stmt 1 discriminator 1 view .LVU16
  87              		.loc 1 151 9 is_stmt 0 discriminator 1 view .LVU17
  88 0028 B442     		cmp	r4, r6
  89 002a 0ED2     		bcs	.L12
 152:Dsp/widget/wgt_core/UI_Controller.c ****         {
 153:Dsp/widget/wgt_core/UI_Controller.c ****             if (i / 2)
  90              		.loc 1 153 13 is_stmt 1 view .LVU18
  91              		.loc 1 153 17 is_stmt 0 view .LVU19
  92 002c 05F1010C 		add	ip, r5, #1
  93 0030 1FFA8CFC 		uxth	ip, ip
  94              		.loc 1 153 16 view .LVU20
  95 0034 BCF1020F 		cmp	ip, #2
  96 0038 F4D9     		bls	.L4
 154:Dsp/widget/wgt_core/UI_Controller.c ****             {
 155:Dsp/widget/wgt_core/UI_Controller.c ****                 UI_DspInterface.draw_point(i, y + width, true);
  97              		.loc 1 155 17 is_stmt 1 view .LVU21
  98              		.loc 1 155 32 is_stmt 0 view .LVU22
  99 003a 0B4B     		ldr	r3, .L14
 100 003c 5B68     		ldr	r3, [r3, #4]
 101              		.loc 1 155 49 view .LVU23
 102 003e E119     		adds	r1, r4, r7
 103              		.loc 1 155 17 view .LVU24
 104 0040 0122     		movs	r2, #1
 105 0042 09B2     		sxth	r1, r1
 106 0044 2846     		mov	r0, r5
 107 0046 9847     		blx	r3
 108              	.LVL6:
 109 0048 ECE7     		b	.L4
 110              	.L12:
 111              	.LBE3:
 149:Dsp/widget/wgt_core/UI_Controller.c ****     {
 112              		.loc 1 149 38 is_stmt 1 discriminator 2 view .LVU25
 149:Dsp/widget/wgt_core/UI_Controller.c ****     {
 113              		.loc 1 149 39 is_stmt 0 discriminator 2 view .LVU26
 114 004a 0135     		adds	r5, r5, #1
 115              	.LVL7:
 149:Dsp/widget/wgt_core/UI_Controller.c ****     {
 116              		.loc 1 149 39 discriminator 2 view .LVU27
 117 004c 2DB2     		sxth	r5, r5
 118              	.LVL8:
 119              	.L3:
 149:Dsp/widget/wgt_core/UI_Controller.c ****     {
 120              		.loc 1 149 25 is_stmt 1 discriminator 1 view .LVU28
 149:Dsp/widget/wgt_core/UI_Controller.c ****     {
 121              		.loc 1 149 31 is_stmt 0 discriminator 1 view .LVU29
 122 004e 08EB0903 		add	r3, r8, r9
 149:Dsp/widget/wgt_core/UI_Controller.c ****     {
 123              		.loc 1 149 5 discriminator 1 view .LVU30
 124 0052 9D42     		cmp	r5, r3
 125 0054 01DA     		bge	.L13
ARM GAS  /var/folders/lx/hc4sn_b53233_zkc9xbbl97r0000gp/T//cc29qxiB.s 			page 6


 126              	.LBB4:
 151:Dsp/widget/wgt_core/UI_Controller.c ****         {
 127              		.loc 1 151 22 view .LVU31
 128 0056 0024     		movs	r4, #0
 129 0058 E6E7     		b	.L6
 130              	.L13:
 131              	.LBE4:
 132              	.LBE2:
 156:Dsp/widget/wgt_core/UI_Controller.c ****             }
 157:Dsp/widget/wgt_core/UI_Controller.c ****         }
 158:Dsp/widget/wgt_core/UI_Controller.c ****     }
 159:Dsp/widget/wgt_core/UI_Controller.c **** 
 160:Dsp/widget/wgt_core/UI_Controller.c ****     return true;
 133              		.loc 1 160 12 view .LVU32
 134 005a 0120     		movs	r0, #1
 135              	.LVL9:
 136              	.L2:
 161:Dsp/widget/wgt_core/UI_Controller.c **** }
 137              		.loc 1 161 1 view .LVU33
 138 005c BDE8F883 		pop	{r3, r4, r5, r6, r7, r8, r9, pc}
 139              	.LVL10:
 140              	.L7:
 144:Dsp/widget/wgt_core/UI_Controller.c **** 
 141              		.loc 1 144 16 view .LVU34
 142 0060 0020     		movs	r0, #0
 143              	.LVL11:
 144:Dsp/widget/wgt_core/UI_Controller.c **** 
 144              		.loc 1 144 16 view .LVU35
 145 0062 FBE7     		b	.L2
 146              	.LVL12:
 147              	.L8:
 144:Dsp/widget/wgt_core/UI_Controller.c **** 
 148              		.loc 1 144 16 view .LVU36
 149 0064 0020     		movs	r0, #0
 150              	.LVL13:
 144:Dsp/widget/wgt_core/UI_Controller.c **** 
 151              		.loc 1 144 16 view .LVU37
 152 0066 F9E7     		b	.L2
 153              	.L15:
 154              		.align	2
 155              	.L14:
 156 0068 00000000 		.word	.LANCHOR0
 157 006c 00000000 		.word	.LANCHOR1
 158              		.cfi_endproc
 159              	.LFE6:
 161              		.section	.text.UI_GenData_Init,"ax",%progbits
 162              		.align	1
 163              		.syntax unified
 164              		.thumb
 165              		.thumb_func
 166              		.fpu fpv4-sp-d16
 168              	UI_GenData_Init:
 169              	.LVL14:
 170              	.LFB8:
 162:Dsp/widget/wgt_core/UI_Controller.c **** 
 163:Dsp/widget/wgt_core/UI_Controller.c **** /* still in developing about this selector */
 164:Dsp/widget/wgt_core/UI_Controller.c **** /* FYI different UI Item Got different selector */
ARM GAS  /var/folders/lx/hc4sn_b53233_zkc9xbbl97r0000gp/T//cc29qxiB.s 			page 7


 165:Dsp/widget/wgt_core/UI_Controller.c **** bool UI_ShowSelector(WidgetUI_Item_TypeDef *item)
 166:Dsp/widget/wgt_core/UI_Controller.c **** {
 167:Dsp/widget/wgt_core/UI_Controller.c ****     /* button selector coordinate */
 168:Dsp/widget/wgt_core/UI_Controller.c ****     int16_t Btn_Slct_LftUp_X = 0;
 169:Dsp/widget/wgt_core/UI_Controller.c ****     int16_t Btn_Slct_LftUp_Y = 0;
 170:Dsp/widget/wgt_core/UI_Controller.c ****     int16_t Btn_Slct_LftDwn_X = 0;
 171:Dsp/widget/wgt_core/UI_Controller.c ****     int16_t Btn_Slct_LftDwn_Y = 0;
 172:Dsp/widget/wgt_core/UI_Controller.c ****     int16_t Btn_Slct_RgtUp_X = 0;
 173:Dsp/widget/wgt_core/UI_Controller.c ****     int16_t Btn_Slct_RgtUp_Y = 0;
 174:Dsp/widget/wgt_core/UI_Controller.c ****     int16_t Btn_Slct_RgtDwn_X = 0;
 175:Dsp/widget/wgt_core/UI_Controller.c ****     int16_t Btn_Slct_RgtDwn_Y = 0;
 176:Dsp/widget/wgt_core/UI_Controller.c **** 
 177:Dsp/widget/wgt_core/UI_Controller.c ****     /* selector block coordinate */
 178:Dsp/widget/wgt_core/UI_Controller.c ****     int16_t block_x;
 179:Dsp/widget/wgt_core/UI_Controller.c ****     int16_t block_y;
 180:Dsp/widget/wgt_core/UI_Controller.c **** 
 181:Dsp/widget/wgt_core/UI_Controller.c ****     uint8_t widget_width = 128;
 182:Dsp/widget/wgt_core/UI_Controller.c ****     uint8_t selector_height = 0;
 183:Dsp/widget/wgt_core/UI_Controller.c **** 
 184:Dsp/widget/wgt_core/UI_Controller.c ****     if (UI_Get_WidgetWidth != NULL)
 185:Dsp/widget/wgt_core/UI_Controller.c ****     {
 186:Dsp/widget/wgt_core/UI_Controller.c ****         widget_width = UI_Get_WidgetWidth();
 187:Dsp/widget/wgt_core/UI_Controller.c **** 
 188:Dsp/widget/wgt_core/UI_Controller.c ****         if (widget_width == 0)
 189:Dsp/widget/wgt_core/UI_Controller.c ****             return false;
 190:Dsp/widget/wgt_core/UI_Controller.c ****     }
 191:Dsp/widget/wgt_core/UI_Controller.c **** 
 192:Dsp/widget/wgt_core/UI_Controller.c ****     if (item == NULL)
 193:Dsp/widget/wgt_core/UI_Controller.c ****         return false;
 194:Dsp/widget/wgt_core/UI_Controller.c **** 
 195:Dsp/widget/wgt_core/UI_Controller.c ****     switch (base_font)
 196:Dsp/widget/wgt_core/UI_Controller.c ****     {
 197:Dsp/widget/wgt_core/UI_Controller.c ****     case Font_8:
 198:Dsp/widget/wgt_core/UI_Controller.c ****         selector_height = Font_8 + 2;
 199:Dsp/widget/wgt_core/UI_Controller.c ****         break;
 200:Dsp/widget/wgt_core/UI_Controller.c **** 
 201:Dsp/widget/wgt_core/UI_Controller.c ****     case Font_12:
 202:Dsp/widget/wgt_core/UI_Controller.c ****     case Font_16:
 203:Dsp/widget/wgt_core/UI_Controller.c ****         selector_height = Font_12 - 1;
 204:Dsp/widget/wgt_core/UI_Controller.c ****         break;
 205:Dsp/widget/wgt_core/UI_Controller.c **** 
 206:Dsp/widget/wgt_core/UI_Controller.c ****     default:
 207:Dsp/widget/wgt_core/UI_Controller.c ****         return false;
 208:Dsp/widget/wgt_core/UI_Controller.c ****     }
 209:Dsp/widget/wgt_core/UI_Controller.c **** 
 210:Dsp/widget/wgt_core/UI_Controller.c ****     switch ((uint8_t)(item->type))
 211:Dsp/widget/wgt_core/UI_Controller.c ****     {
 212:Dsp/widget/wgt_core/UI_Controller.c ****     case UI_Type_Button:
 213:Dsp/widget/wgt_core/UI_Controller.c **** 
 214:Dsp/widget/wgt_core/UI_Controller.c ****         if (UI_DspInterface.fill_circle_section == NULL)
 215:Dsp/widget/wgt_core/UI_Controller.c ****             return false;
 216:Dsp/widget/wgt_core/UI_Controller.c **** 
 217:Dsp/widget/wgt_core/UI_Controller.c ****         /* comput button selector coordinate first */
 218:Dsp/widget/wgt_core/UI_Controller.c ****         Btn_Slct_LftUp_X = HandleToButtonObj(item->Handler)->Gen_Data.x;
 219:Dsp/widget/wgt_core/UI_Controller.c ****         Btn_Slct_LftUp_Y = HandleToButtonObj(item->Handler)->Gen_Data.y + HandleToButtonObj(item->H
 220:Dsp/widget/wgt_core/UI_Controller.c **** 
 221:Dsp/widget/wgt_core/UI_Controller.c ****         Btn_Slct_LftDwn_X = Btn_Slct_LftUp_X;
ARM GAS  /var/folders/lx/hc4sn_b53233_zkc9xbbl97r0000gp/T//cc29qxiB.s 			page 8


 222:Dsp/widget/wgt_core/UI_Controller.c ****         Btn_Slct_LftDwn_Y = HandleToButtonObj(item->Handler)->Gen_Data.y;
 223:Dsp/widget/wgt_core/UI_Controller.c **** 
 224:Dsp/widget/wgt_core/UI_Controller.c ****         Btn_Slct_RgtUp_X = HandleToButtonObj(item->Handler)->Gen_Data.x + HandleToButtonObj(item->H
 225:Dsp/widget/wgt_core/UI_Controller.c ****         Btn_Slct_RgtUp_Y = Btn_Slct_LftUp_Y;
 226:Dsp/widget/wgt_core/UI_Controller.c **** 
 227:Dsp/widget/wgt_core/UI_Controller.c ****         Btn_Slct_RgtDwn_X = Btn_Slct_RgtUp_X;
 228:Dsp/widget/wgt_core/UI_Controller.c ****         Btn_Slct_RgtDwn_Y = Btn_Slct_LftDwn_Y;
 229:Dsp/widget/wgt_core/UI_Controller.c **** 
 230:Dsp/widget/wgt_core/UI_Controller.c ****         // show button selector
 231:Dsp/widget/wgt_core/UI_Controller.c ****         UI_DspInterface.draw_circle_section(Btn_Slct_LftUp_X, Btn_Slct_LftUp_Y, BUTTON_SELECTOR_RAD
 232:Dsp/widget/wgt_core/UI_Controller.c ****         UI_DspInterface.draw_circle_section(Btn_Slct_LftDwn_X, Btn_Slct_LftDwn_Y, BUTTON_SELECTOR_R
 233:Dsp/widget/wgt_core/UI_Controller.c ****         UI_DspInterface.draw_circle_section(Btn_Slct_RgtUp_X, Btn_Slct_RgtUp_Y, BUTTON_SELECTOR_RAD
 234:Dsp/widget/wgt_core/UI_Controller.c ****         UI_DspInterface.draw_circle_section(Btn_Slct_RgtDwn_X, Btn_Slct_RgtDwn_Y, BUTTON_SELECTOR_R
 235:Dsp/widget/wgt_core/UI_Controller.c ****         break;
 236:Dsp/widget/wgt_core/UI_Controller.c **** 
 237:Dsp/widget/wgt_core/UI_Controller.c ****     case UI_Type_CheckBox:
 238:Dsp/widget/wgt_core/UI_Controller.c ****         block_x = HandleToCheckBoxObj(item->Handler)->Gen_Data.x + 3;
 239:Dsp/widget/wgt_core/UI_Controller.c ****         block_y = HandleToCheckBoxObj(item->Handler)->Gen_Data.y + 1;
 240:Dsp/widget/wgt_core/UI_Controller.c **** 
 241:Dsp/widget/wgt_core/UI_Controller.c ****         UI_DspInterface.fill_rectangle(block_x, block_y, (widget_width - 6), selector_height, true)
 242:Dsp/widget/wgt_core/UI_Controller.c ****         break;
 243:Dsp/widget/wgt_core/UI_Controller.c **** 
 244:Dsp/widget/wgt_core/UI_Controller.c ****     case UI_Type_SlideBar:
 245:Dsp/widget/wgt_core/UI_Controller.c ****         block_y = HandleToSlideBarObj(item->Handler)->Gen_Data.y + 1;
 246:Dsp/widget/wgt_core/UI_Controller.c **** 
 247:Dsp/widget/wgt_core/UI_Controller.c ****         if (!UI_SlideBar_IsSelected(HandleToButtonObj(item->Handler)))
 248:Dsp/widget/wgt_core/UI_Controller.c ****         {
 249:Dsp/widget/wgt_core/UI_Controller.c ****             block_x = HandleToSlideBarObj(item->Handler)->Gen_Data.x + 3;
 250:Dsp/widget/wgt_core/UI_Controller.c **** 
 251:Dsp/widget/wgt_core/UI_Controller.c ****             UI_DspInterface.fill_rectangle(block_x, block_y, (widget_width - 6), selector_height, t
 252:Dsp/widget/wgt_core/UI_Controller.c ****         }
 253:Dsp/widget/wgt_core/UI_Controller.c ****         else
 254:Dsp/widget/wgt_core/UI_Controller.c ****         {
 255:Dsp/widget/wgt_core/UI_Controller.c ****             block_x = HandleToSlideBarObj(item->Handler)->BarCoord_X - 3;
 256:Dsp/widget/wgt_core/UI_Controller.c **** 
 257:Dsp/widget/wgt_core/UI_Controller.c ****             UI_DspInterface.fill_rectangle(block_x, block_y, (widget_width - block_x - 6), selector
 258:Dsp/widget/wgt_core/UI_Controller.c ****         }
 259:Dsp/widget/wgt_core/UI_Controller.c ****         break;
 260:Dsp/widget/wgt_core/UI_Controller.c **** 
 261:Dsp/widget/wgt_core/UI_Controller.c ****     default:
 262:Dsp/widget/wgt_core/UI_Controller.c ****         break;
 263:Dsp/widget/wgt_core/UI_Controller.c ****     }
 264:Dsp/widget/wgt_core/UI_Controller.c ****     return true;
 265:Dsp/widget/wgt_core/UI_Controller.c **** }
 266:Dsp/widget/wgt_core/UI_Controller.c **** 
 267:Dsp/widget/wgt_core/UI_Controller.c **** static void UI_GenData_Init(UI_GeneralData_TypeDef *GenData, char *label, int16_t x, int16_t y)
 268:Dsp/widget/wgt_core/UI_Controller.c **** {
 171              		.loc 1 268 1 is_stmt 1 view -0
 172              		.cfi_startproc
 173              		@ args = 0, pretend = 0, frame = 0
 174              		@ frame_needed = 0, uses_anonymous_args = 0
 175              		@ link register save eliminated.
 269:Dsp/widget/wgt_core/UI_Controller.c ****     GenData->label = label;
 176              		.loc 1 269 5 view .LVU39
 177              		.loc 1 269 20 is_stmt 0 view .LVU40
 178 0000 0160     		str	r1, [r0]
 270:Dsp/widget/wgt_core/UI_Controller.c **** 
ARM GAS  /var/folders/lx/hc4sn_b53233_zkc9xbbl97r0000gp/T//cc29qxiB.s 			page 9


 271:Dsp/widget/wgt_core/UI_Controller.c ****     GenData->x = x;
 179              		.loc 1 271 5 is_stmt 1 view .LVU41
 180              		.loc 1 271 16 is_stmt 0 view .LVU42
 181 0002 8280     		strh	r2, [r0, #4]	@ movhi
 272:Dsp/widget/wgt_core/UI_Controller.c ****     GenData->y = y;
 182              		.loc 1 272 5 is_stmt 1 view .LVU43
 183              		.loc 1 272 16 is_stmt 0 view .LVU44
 184 0004 C380     		strh	r3, [r0, #6]	@ movhi
 273:Dsp/widget/wgt_core/UI_Controller.c **** 
 274:Dsp/widget/wgt_core/UI_Controller.c ****     GenData->operatable = false;
 185              		.loc 1 274 5 is_stmt 1 view .LVU45
 186              		.loc 1 274 25 is_stmt 0 view .LVU46
 187 0006 0023     		movs	r3, #0
 188              	.LVL15:
 189              		.loc 1 274 25 view .LVU47
 190 0008 0372     		strb	r3, [r0, #8]
 275:Dsp/widget/wgt_core/UI_Controller.c **** }
 191              		.loc 1 275 1 view .LVU48
 192 000a 7047     		bx	lr
 193              		.cfi_endproc
 194              	.LFE8:
 196              		.section	.text.UI_Move,"ax",%progbits
 197              		.align	1
 198              		.syntax unified
 199              		.thumb
 200              		.thumb_func
 201              		.fpu fpv4-sp-d16
 203              	UI_Move:
 204              	.LVL16:
 205              	.LFB9:
 276:Dsp/widget/wgt_core/UI_Controller.c **** 
 277:Dsp/widget/wgt_core/UI_Controller.c **** static bool UI_Move(UI_GeneralData_TypeDef *GenUI_Info, int16_t dst_x, int16_t dst_y)
 278:Dsp/widget/wgt_core/UI_Controller.c **** {
 206              		.loc 1 278 1 is_stmt 1 view -0
 207              		.cfi_startproc
 208              		@ args = 0, pretend = 0, frame = 0
 209              		@ frame_needed = 0, uses_anonymous_args = 0
 210              		@ link register save eliminated.
 279:Dsp/widget/wgt_core/UI_Controller.c ****     if (GenUI_Info == NULL)
 211              		.loc 1 279 5 view .LVU50
 212              		.loc 1 279 8 is_stmt 0 view .LVU51
 213 0000 18B1     		cbz	r0, .L19
 280:Dsp/widget/wgt_core/UI_Controller.c ****         return false;
 281:Dsp/widget/wgt_core/UI_Controller.c **** 
 282:Dsp/widget/wgt_core/UI_Controller.c ****     GenUI_Info->x = dst_x;
 214              		.loc 1 282 5 is_stmt 1 view .LVU52
 215              		.loc 1 282 19 is_stmt 0 view .LVU53
 216 0002 8180     		strh	r1, [r0, #4]	@ movhi
 283:Dsp/widget/wgt_core/UI_Controller.c ****     GenUI_Info->y = dst_y;
 217              		.loc 1 283 5 is_stmt 1 view .LVU54
 218              		.loc 1 283 19 is_stmt 0 view .LVU55
 219 0004 C280     		strh	r2, [r0, #6]	@ movhi
 284:Dsp/widget/wgt_core/UI_Controller.c **** 
 285:Dsp/widget/wgt_core/UI_Controller.c ****     return true;
 220              		.loc 1 285 5 is_stmt 1 view .LVU56
 221              		.loc 1 285 12 is_stmt 0 view .LVU57
 222 0006 0120     		movs	r0, #1
ARM GAS  /var/folders/lx/hc4sn_b53233_zkc9xbbl97r0000gp/T//cc29qxiB.s 			page 10


 223              	.LVL17:
 224              		.loc 1 285 12 view .LVU58
 225 0008 7047     		bx	lr
 226              	.LVL18:
 227              	.L19:
 280:Dsp/widget/wgt_core/UI_Controller.c **** 
 228              		.loc 1 280 16 view .LVU59
 229 000a 0020     		movs	r0, #0
 230              	.LVL19:
 286:Dsp/widget/wgt_core/UI_Controller.c **** }
 231              		.loc 1 286 1 view .LVU60
 232 000c 7047     		bx	lr
 233              		.cfi_endproc
 234              	.LFE9:
 236              		.section	.rodata.UI_Button_Init.str1.4,"aMS",%progbits,1
 237              		.align	2
 238              	.LC0:
 239 0000 79657300 		.ascii	"yes\000"
 240              		.align	2
 241              	.LC1:
 242 0004 6E6F00   		.ascii	"no\000"
 243              		.section	.text.UI_Button_Init,"ax",%progbits
 244              		.align	1
 245              		.syntax unified
 246              		.thumb
 247              		.thumb_func
 248              		.fpu fpv4-sp-d16
 250              	UI_Button_Init:
 251              	.LVL20:
 252              	.LFB10:
 287:Dsp/widget/wgt_core/UI_Controller.c **** 
 288:Dsp/widget/wgt_core/UI_Controller.c **** /********************************************** UI Button Object **********************************
 289:Dsp/widget/wgt_core/UI_Controller.c **** static bool UI_Button_Init(UI_ButtonObj_TypeDef *Obj, char *label, int16_t x, int16_t y, uint8_t wi
 290:Dsp/widget/wgt_core/UI_Controller.c **** {
 253              		.loc 1 290 1 is_stmt 1 view -0
 254              		.cfi_startproc
 255              		@ args = 16, pretend = 0, frame = 0
 256              		@ frame_needed = 0, uses_anonymous_args = 0
 257              		.loc 1 290 1 is_stmt 0 view .LVU62
 258 0000 10B5     		push	{r4, lr}
 259              	.LCFI1:
 260              		.cfi_def_cfa_offset 8
 261              		.cfi_offset 4, -8
 262              		.cfi_offset 14, -4
 263 0002 9DF814C0 		ldrb	ip, [sp, #20]	@ zero_extendqisi2
 291:Dsp/widget/wgt_core/UI_Controller.c ****     if (Obj == NULL)
 264              		.loc 1 291 5 is_stmt 1 view .LVU63
 265              		.loc 1 291 8 is_stmt 0 view .LVU64
 266 0006 C8B1     		cbz	r0, .L22
 267 0008 0446     		mov	r4, r0
 292:Dsp/widget/wgt_core/UI_Controller.c ****         return false;
 293:Dsp/widget/wgt_core/UI_Controller.c **** 
 294:Dsp/widget/wgt_core/UI_Controller.c ****     Obj->default_state = state;
 268              		.loc 1 294 5 is_stmt 1 view .LVU65
 269              		.loc 1 294 24 is_stmt 0 view .LVU66
 270 000a 80F80CC0 		strb	ip, [r0, #12]
 295:Dsp/widget/wgt_core/UI_Controller.c ****     Obj->state = state;
ARM GAS  /var/folders/lx/hc4sn_b53233_zkc9xbbl97r0000gp/T//cc29qxiB.s 			page 11


 271              		.loc 1 295 5 is_stmt 1 view .LVU67
 272              		.loc 1 295 16 is_stmt 0 view .LVU68
 273 000e 80F80DC0 		strb	ip, [r0, #13]
 296:Dsp/widget/wgt_core/UI_Controller.c ****     Obj->type = type;
 274              		.loc 1 296 5 is_stmt 1 view .LVU69
 275              		.loc 1 296 15 is_stmt 0 view .LVU70
 276 0012 9DF81000 		ldrb	r0, [sp, #16]	@ zero_extendqisi2
 277              	.LVL21:
 278              		.loc 1 296 15 view .LVU71
 279 0016 A073     		strb	r0, [r4, #14]
 297:Dsp/widget/wgt_core/UI_Controller.c **** 
 298:Dsp/widget/wgt_core/UI_Controller.c ****     UI_GenData_Init(&Obj->Gen_Data, label, x, y);
 280              		.loc 1 298 5 is_stmt 1 view .LVU72
 281 0018 2046     		mov	r0, r4
 282 001a FFF7FEFF 		bl	UI_GenData_Init
 283              	.LVL22:
 299:Dsp/widget/wgt_core/UI_Controller.c **** 
 300:Dsp/widget/wgt_core/UI_Controller.c ****     Obj->width = width;
 284              		.loc 1 300 5 view .LVU73
 285              		.loc 1 300 16 is_stmt 0 view .LVU74
 286 001e 9DF80830 		ldrb	r3, [sp, #8]	@ zero_extendqisi2
 287 0022 E377     		strb	r3, [r4, #31]
 301:Dsp/widget/wgt_core/UI_Controller.c ****     Obj->height = height;
 288              		.loc 1 301 5 is_stmt 1 view .LVU75
 289              		.loc 1 301 17 is_stmt 0 view .LVU76
 290 0024 9DF80C30 		ldrb	r3, [sp, #12]	@ zero_extendqisi2
 291 0028 84F82030 		strb	r3, [r4, #32]
 302:Dsp/widget/wgt_core/UI_Controller.c **** 
 303:Dsp/widget/wgt_core/UI_Controller.c ****     Obj->PushDown_Label = DEFAULT_BUTTON_PUSH_LABEL;
 292              		.loc 1 303 5 is_stmt 1 view .LVU77
 293              		.loc 1 303 25 is_stmt 0 view .LVU78
 294 002c 044B     		ldr	r3, .L24
 295 002e C4F81730 		str	r3, [r4, #23]	@ unaligned
 304:Dsp/widget/wgt_core/UI_Controller.c ****     Obj->Release_Label = DEFAULT_BUTTON_RELEASE_LABEL;
 296              		.loc 1 304 5 is_stmt 1 view .LVU79
 297              		.loc 1 304 24 is_stmt 0 view .LVU80
 298 0032 044B     		ldr	r3, .L24+4
 299 0034 C4F81B30 		str	r3, [r4, #27]	@ unaligned
 305:Dsp/widget/wgt_core/UI_Controller.c **** 
 306:Dsp/widget/wgt_core/UI_Controller.c ****     return true;
 300              		.loc 1 306 5 is_stmt 1 view .LVU81
 301              		.loc 1 306 12 is_stmt 0 view .LVU82
 302 0038 0120     		movs	r0, #1
 303              	.LVL23:
 304              	.L21:
 307:Dsp/widget/wgt_core/UI_Controller.c **** }
 305              		.loc 1 307 1 view .LVU83
 306 003a 10BD     		pop	{r4, pc}
 307              	.LVL24:
 308              	.L22:
 292:Dsp/widget/wgt_core/UI_Controller.c **** 
 309              		.loc 1 292 16 view .LVU84
 310 003c 0020     		movs	r0, #0
 311              	.LVL25:
 292:Dsp/widget/wgt_core/UI_Controller.c **** 
 312              		.loc 1 292 16 view .LVU85
 313 003e FCE7     		b	.L21
ARM GAS  /var/folders/lx/hc4sn_b53233_zkc9xbbl97r0000gp/T//cc29qxiB.s 			page 12


 314              	.L25:
 315              		.align	2
 316              	.L24:
 317 0040 00000000 		.word	.LC0
 318 0044 04000000 		.word	.LC1
 319              		.cfi_endproc
 320              	.LFE10:
 322              		.section	.text.UI_Button_Set_Label,"ax",%progbits
 323              		.align	1
 324              		.syntax unified
 325              		.thumb
 326              		.thumb_func
 327              		.fpu fpv4-sp-d16
 329              	UI_Button_Set_Label:
 330              	.LVL26:
 331              	.LFB11:
 308:Dsp/widget/wgt_core/UI_Controller.c **** 
 309:Dsp/widget/wgt_core/UI_Controller.c **** static bool UI_Button_Set_Label(UI_ButtonObj_TypeDef *Obj, UI_Button_State_List state, char *label)
 310:Dsp/widget/wgt_core/UI_Controller.c **** {
 332              		.loc 1 310 1 is_stmt 1 view -0
 333              		.cfi_startproc
 334              		@ args = 0, pretend = 0, frame = 0
 335              		@ frame_needed = 0, uses_anonymous_args = 0
 336              		@ link register save eliminated.
 311:Dsp/widget/wgt_core/UI_Controller.c ****     if (Obj == NULL)
 337              		.loc 1 311 5 view .LVU87
 338              		.loc 1 311 8 is_stmt 0 view .LVU88
 339 0000 48B1     		cbz	r0, .L29
 312:Dsp/widget/wgt_core/UI_Controller.c ****         return false;
 313:Dsp/widget/wgt_core/UI_Controller.c **** 
 314:Dsp/widget/wgt_core/UI_Controller.c ****     if (state == UI_Btn_PushDwn)
 340              		.loc 1 314 5 is_stmt 1 view .LVU89
 341              		.loc 1 314 8 is_stmt 0 view .LVU90
 342 0002 0129     		cmp	r1, #1
 343 0004 03D0     		beq	.L30
 315:Dsp/widget/wgt_core/UI_Controller.c ****         Obj->PushDown_Label = label;
 316:Dsp/widget/wgt_core/UI_Controller.c ****     else
 317:Dsp/widget/wgt_core/UI_Controller.c ****         Obj->Release_Label = label;
 344              		.loc 1 317 9 is_stmt 1 view .LVU91
 345              		.loc 1 317 28 is_stmt 0 view .LVU92
 346 0006 C0F81B20 		str	r2, [r0, #27]	@ unaligned
 318:Dsp/widget/wgt_core/UI_Controller.c **** 
 319:Dsp/widget/wgt_core/UI_Controller.c ****     return true;
 347              		.loc 1 319 12 view .LVU93
 348 000a 0120     		movs	r0, #1
 349              	.LVL27:
 350              		.loc 1 319 12 view .LVU94
 351 000c 7047     		bx	lr
 352              	.LVL28:
 353              	.L30:
 315:Dsp/widget/wgt_core/UI_Controller.c ****         Obj->PushDown_Label = label;
 354              		.loc 1 315 9 is_stmt 1 view .LVU95
 315:Dsp/widget/wgt_core/UI_Controller.c ****         Obj->PushDown_Label = label;
 355              		.loc 1 315 29 is_stmt 0 view .LVU96
 356 000e C0F81720 		str	r2, [r0, #23]	@ unaligned
 357              		.loc 1 319 12 view .LVU97
 358 0012 0120     		movs	r0, #1
ARM GAS  /var/folders/lx/hc4sn_b53233_zkc9xbbl97r0000gp/T//cc29qxiB.s 			page 13


 359              	.LVL29:
 360              		.loc 1 319 12 view .LVU98
 361 0014 7047     		bx	lr
 362              	.LVL30:
 363              	.L29:
 312:Dsp/widget/wgt_core/UI_Controller.c **** 
 364              		.loc 1 312 16 view .LVU99
 365 0016 0020     		movs	r0, #0
 366              	.LVL31:
 320:Dsp/widget/wgt_core/UI_Controller.c **** }
 367              		.loc 1 320 1 view .LVU100
 368 0018 7047     		bx	lr
 369              		.cfi_endproc
 370              	.LFE11:
 372              		.section	.text.UI_Button_Set_TriggerCallback,"ax",%progbits
 373              		.align	1
 374              		.syntax unified
 375              		.thumb
 376              		.thumb_func
 377              		.fpu fpv4-sp-d16
 379              	UI_Button_Set_TriggerCallback:
 380              	.LVL32:
 381              	.LFB12:
 321:Dsp/widget/wgt_core/UI_Controller.c **** 
 322:Dsp/widget/wgt_core/UI_Controller.c **** static bool UI_Button_Set_TriggerCallback(UI_ButtonObj_TypeDef *Obj, UI_Button_Trigger_Type type, U
 323:Dsp/widget/wgt_core/UI_Controller.c **** {
 382              		.loc 1 323 1 is_stmt 1 view -0
 383              		.cfi_startproc
 384              		@ args = 0, pretend = 0, frame = 0
 385              		@ frame_needed = 0, uses_anonymous_args = 0
 386              		@ link register save eliminated.
 324:Dsp/widget/wgt_core/UI_Controller.c ****     if (Obj == NULL)
 387              		.loc 1 324 5 view .LVU102
 388              		.loc 1 324 8 is_stmt 0 view .LVU103
 389 0000 50B1     		cbz	r0, .L34
 325:Dsp/widget/wgt_core/UI_Controller.c ****         return false;
 326:Dsp/widget/wgt_core/UI_Controller.c **** 
 327:Dsp/widget/wgt_core/UI_Controller.c ****     if (type == Push_Trigger)
 390              		.loc 1 327 5 is_stmt 1 view .LVU104
 391              		.loc 1 327 8 is_stmt 0 view .LVU105
 392 0002 0129     		cmp	r1, #1
 393 0004 04D0     		beq	.L36
 328:Dsp/widget/wgt_core/UI_Controller.c ****     {
 329:Dsp/widget/wgt_core/UI_Controller.c ****         Obj->push_callback = callback;
 330:Dsp/widget/wgt_core/UI_Controller.c ****     }
 331:Dsp/widget/wgt_core/UI_Controller.c ****     else if (type == Release_Trigger)
 394              		.loc 1 331 10 is_stmt 1 view .LVU106
 395              		.loc 1 331 13 is_stmt 0 view .LVU107
 396 0006 49B9     		cbnz	r1, .L35
 332:Dsp/widget/wgt_core/UI_Controller.c ****     {
 333:Dsp/widget/wgt_core/UI_Controller.c ****         Obj->release_callback = callback;
 397              		.loc 1 333 9 is_stmt 1 view .LVU108
 398              		.loc 1 333 31 is_stmt 0 view .LVU109
 399 0008 C0F81320 		str	r2, [r0, #19]	@ unaligned
 334:Dsp/widget/wgt_core/UI_Controller.c ****     }
 335:Dsp/widget/wgt_core/UI_Controller.c ****     else
 336:Dsp/widget/wgt_core/UI_Controller.c ****         return false;
ARM GAS  /var/folders/lx/hc4sn_b53233_zkc9xbbl97r0000gp/T//cc29qxiB.s 			page 14


 337:Dsp/widget/wgt_core/UI_Controller.c **** 
 338:Dsp/widget/wgt_core/UI_Controller.c ****     return true;
 400              		.loc 1 338 12 view .LVU110
 401 000c 0120     		movs	r0, #1
 402              	.LVL33:
 403              		.loc 1 338 12 view .LVU111
 404 000e 7047     		bx	lr
 405              	.LVL34:
 406              	.L36:
 329:Dsp/widget/wgt_core/UI_Controller.c ****     }
 407              		.loc 1 329 9 is_stmt 1 view .LVU112
 329:Dsp/widget/wgt_core/UI_Controller.c ****     }
 408              		.loc 1 329 28 is_stmt 0 view .LVU113
 409 0010 C0F80F20 		str	r2, [r0, #15]	@ unaligned
 410              		.loc 1 338 12 view .LVU114
 411 0014 0120     		movs	r0, #1
 412              	.LVL35:
 413              		.loc 1 338 12 view .LVU115
 414 0016 7047     		bx	lr
 415              	.LVL36:
 416              	.L34:
 325:Dsp/widget/wgt_core/UI_Controller.c **** 
 417              		.loc 1 325 16 view .LVU116
 418 0018 0020     		movs	r0, #0
 419              	.LVL37:
 325:Dsp/widget/wgt_core/UI_Controller.c **** 
 420              		.loc 1 325 16 view .LVU117
 421 001a 7047     		bx	lr
 422              	.LVL38:
 423              	.L35:
 336:Dsp/widget/wgt_core/UI_Controller.c **** 
 424              		.loc 1 336 16 view .LVU118
 425 001c 0020     		movs	r0, #0
 426              	.LVL39:
 339:Dsp/widget/wgt_core/UI_Controller.c **** }
 427              		.loc 1 339 1 view .LVU119
 428 001e 7047     		bx	lr
 429              		.cfi_endproc
 430              	.LFE12:
 432              		.section	.text.UI_Button_Push,"ax",%progbits
 433              		.align	1
 434              		.syntax unified
 435              		.thumb
 436              		.thumb_func
 437              		.fpu fpv4-sp-d16
 439              	UI_Button_Push:
 440              	.LVL40:
 441              	.LFB13:
 340:Dsp/widget/wgt_core/UI_Controller.c **** 
 341:Dsp/widget/wgt_core/UI_Controller.c **** static bool UI_Button_Push(UI_ButtonObj_TypeDef *Obj)
 342:Dsp/widget/wgt_core/UI_Controller.c **** {
 442              		.loc 1 342 1 is_stmt 1 view -0
 443              		.cfi_startproc
 444              		@ args = 0, pretend = 0, frame = 0
 445              		@ frame_needed = 0, uses_anonymous_args = 0
 343:Dsp/widget/wgt_core/UI_Controller.c ****     if (Obj == NULL)
 446              		.loc 1 343 5 view .LVU121
ARM GAS  /var/folders/lx/hc4sn_b53233_zkc9xbbl97r0000gp/T//cc29qxiB.s 			page 15


 447              		.loc 1 343 8 is_stmt 0 view .LVU122
 448 0000 F0B1     		cbz	r0, .L41
 342:Dsp/widget/wgt_core/UI_Controller.c ****     if (Obj == NULL)
 449              		.loc 1 342 1 view .LVU123
 450 0002 08B5     		push	{r3, lr}
 451              	.LCFI2:
 452              		.cfi_def_cfa_offset 8
 453              		.cfi_offset 3, -8
 454              		.cfi_offset 14, -4
 455 0004 0346     		mov	r3, r0
 344:Dsp/widget/wgt_core/UI_Controller.c ****         return false;
 345:Dsp/widget/wgt_core/UI_Controller.c **** 
 346:Dsp/widget/wgt_core/UI_Controller.c ****     if (Obj->type == Lock_Btn)
 456              		.loc 1 346 5 is_stmt 1 view .LVU124
 457              		.loc 1 346 12 is_stmt 0 view .LVU125
 458 0006 827B     		ldrb	r2, [r0, #14]	@ zero_extendqisi2
 459              		.loc 1 346 8 view .LVU126
 460 0008 012A     		cmp	r2, #1
 461 000a 06D0     		beq	.L49
 347:Dsp/widget/wgt_core/UI_Controller.c ****     {
 348:Dsp/widget/wgt_core/UI_Controller.c ****         if (Obj->state == UI_Btn_RlsUp)
 349:Dsp/widget/wgt_core/UI_Controller.c ****             Obj->state = UI_Btn_PushDwn;
 350:Dsp/widget/wgt_core/UI_Controller.c ****         else
 351:Dsp/widget/wgt_core/UI_Controller.c ****             Obj->state = UI_Btn_RlsUp;
 352:Dsp/widget/wgt_core/UI_Controller.c ****     }
 353:Dsp/widget/wgt_core/UI_Controller.c ****     else if (Obj->type == Reset_Btn)
 462              		.loc 1 353 10 is_stmt 1 view .LVU127
 463              		.loc 1 353 13 is_stmt 0 view .LVU128
 464 000c D2B9     		cbnz	r2, .L42
 354:Dsp/widget/wgt_core/UI_Controller.c ****     {
 355:Dsp/widget/wgt_core/UI_Controller.c ****         if (Obj->default_state == Obj->state)
 465              		.loc 1 355 9 is_stmt 1 view .LVU129
 466              		.loc 1 355 16 is_stmt 0 view .LVU130
 467 000e 027B     		ldrb	r2, [r0, #12]	@ zero_extendqisi2
 468              		.loc 1 355 38 view .LVU131
 469 0010 417B     		ldrb	r1, [r0, #13]	@ zero_extendqisi2
 470              		.loc 1 355 12 view .LVU132
 471 0012 8A42     		cmp	r2, r1
 472 0014 0AD0     		beq	.L50
 356:Dsp/widget/wgt_core/UI_Controller.c ****         {
 357:Dsp/widget/wgt_core/UI_Controller.c ****             Obj->state = !Obj->default_state;
 358:Dsp/widget/wgt_core/UI_Controller.c **** 
 359:Dsp/widget/wgt_core/UI_Controller.c ****             if (Obj->push_callback != NULL)
 360:Dsp/widget/wgt_core/UI_Controller.c ****                 Obj->push_callback();
 361:Dsp/widget/wgt_core/UI_Controller.c ****         }
 362:Dsp/widget/wgt_core/UI_Controller.c ****     }
 363:Dsp/widget/wgt_core/UI_Controller.c ****     else
 364:Dsp/widget/wgt_core/UI_Controller.c ****         return false;
 365:Dsp/widget/wgt_core/UI_Controller.c **** 
 366:Dsp/widget/wgt_core/UI_Controller.c ****     return true;
 473              		.loc 1 366 12 view .LVU133
 474 0016 0120     		movs	r0, #1
 475              	.LVL41:
 476              	.L38:
 367:Dsp/widget/wgt_core/UI_Controller.c **** }
 477              		.loc 1 367 1 view .LVU134
 478 0018 08BD     		pop	{r3, pc}
ARM GAS  /var/folders/lx/hc4sn_b53233_zkc9xbbl97r0000gp/T//cc29qxiB.s 			page 16


 479              	.LVL42:
 480              	.L49:
 348:Dsp/widget/wgt_core/UI_Controller.c ****             Obj->state = UI_Btn_PushDwn;
 481              		.loc 1 348 9 is_stmt 1 view .LVU135
 348:Dsp/widget/wgt_core/UI_Controller.c ****             Obj->state = UI_Btn_PushDwn;
 482              		.loc 1 348 16 is_stmt 0 view .LVU136
 483 001a 427B     		ldrb	r2, [r0, #13]	@ zero_extendqisi2
 348:Dsp/widget/wgt_core/UI_Controller.c ****             Obj->state = UI_Btn_PushDwn;
 484              		.loc 1 348 12 view .LVU137
 485 001c 12B9     		cbnz	r2, .L40
 349:Dsp/widget/wgt_core/UI_Controller.c ****         else
 486              		.loc 1 349 13 is_stmt 1 view .LVU138
 349:Dsp/widget/wgt_core/UI_Controller.c ****         else
 487              		.loc 1 349 24 is_stmt 0 view .LVU139
 488 001e 0120     		movs	r0, #1
 489              	.LVL43:
 349:Dsp/widget/wgt_core/UI_Controller.c ****         else
 490              		.loc 1 349 24 view .LVU140
 491 0020 5873     		strb	r0, [r3, #13]
 492 0022 F9E7     		b	.L38
 493              	.LVL44:
 494              	.L40:
 351:Dsp/widget/wgt_core/UI_Controller.c ****     }
 495              		.loc 1 351 13 is_stmt 1 view .LVU141
 351:Dsp/widget/wgt_core/UI_Controller.c ****     }
 496              		.loc 1 351 24 is_stmt 0 view .LVU142
 497 0024 0022     		movs	r2, #0
 498 0026 4273     		strb	r2, [r0, #13]
 366:Dsp/widget/wgt_core/UI_Controller.c **** }
 499              		.loc 1 366 12 view .LVU143
 500 0028 0120     		movs	r0, #1
 501              	.LVL45:
 366:Dsp/widget/wgt_core/UI_Controller.c **** }
 502              		.loc 1 366 12 view .LVU144
 503 002a F5E7     		b	.L38
 504              	.LVL46:
 505              	.L50:
 357:Dsp/widget/wgt_core/UI_Controller.c **** 
 506              		.loc 1 357 13 is_stmt 1 view .LVU145
 357:Dsp/widget/wgt_core/UI_Controller.c **** 
 507              		.loc 1 357 26 is_stmt 0 view .LVU146
 508 002c B2FA82F2 		clz	r2, r2
 509 0030 5209     		lsrs	r2, r2, #5
 357:Dsp/widget/wgt_core/UI_Controller.c **** 
 510              		.loc 1 357 24 view .LVU147
 511 0032 4273     		strb	r2, [r0, #13]
 359:Dsp/widget/wgt_core/UI_Controller.c ****                 Obj->push_callback();
 512              		.loc 1 359 13 is_stmt 1 view .LVU148
 359:Dsp/widget/wgt_core/UI_Controller.c ****                 Obj->push_callback();
 513              		.loc 1 359 20 is_stmt 0 view .LVU149
 514 0034 D0F80F30 		ldr	r3, [r0, #15]	@ unaligned
 359:Dsp/widget/wgt_core/UI_Controller.c ****                 Obj->push_callback();
 515              		.loc 1 359 16 view .LVU150
 516 0038 33B1     		cbz	r3, .L44
 360:Dsp/widget/wgt_core/UI_Controller.c ****         }
 517              		.loc 1 360 17 is_stmt 1 view .LVU151
 518 003a 9847     		blx	r3
ARM GAS  /var/folders/lx/hc4sn_b53233_zkc9xbbl97r0000gp/T//cc29qxiB.s 			page 17


 519              	.LVL47:
 366:Dsp/widget/wgt_core/UI_Controller.c **** }
 520              		.loc 1 366 12 is_stmt 0 view .LVU152
 521 003c 0120     		movs	r0, #1
 522 003e EBE7     		b	.L38
 523              	.LVL48:
 524              	.L41:
 525              	.LCFI3:
 526              		.cfi_def_cfa_offset 0
 527              		.cfi_restore 3
 528              		.cfi_restore 14
 344:Dsp/widget/wgt_core/UI_Controller.c **** 
 529              		.loc 1 344 16 view .LVU153
 530 0040 0020     		movs	r0, #0
 531              	.LVL49:
 532              		.loc 1 367 1 view .LVU154
 533 0042 7047     		bx	lr
 534              	.LVL50:
 535              	.L42:
 536              	.LCFI4:
 537              		.cfi_def_cfa_offset 8
 538              		.cfi_offset 3, -8
 539              		.cfi_offset 14, -4
 364:Dsp/widget/wgt_core/UI_Controller.c **** 
 540              		.loc 1 364 16 view .LVU155
 541 0044 0020     		movs	r0, #0
 542              	.LVL51:
 364:Dsp/widget/wgt_core/UI_Controller.c **** 
 543              		.loc 1 364 16 view .LVU156
 544 0046 E7E7     		b	.L38
 545              	.LVL52:
 546              	.L44:
 366:Dsp/widget/wgt_core/UI_Controller.c **** }
 547              		.loc 1 366 12 view .LVU157
 548 0048 0120     		movs	r0, #1
 549              	.LVL53:
 366:Dsp/widget/wgt_core/UI_Controller.c **** }
 550              		.loc 1 366 12 view .LVU158
 551 004a E5E7     		b	.L38
 552              		.cfi_endproc
 553              	.LFE13:
 555              		.section	.text.UI_Button_Release,"ax",%progbits
 556              		.align	1
 557              		.syntax unified
 558              		.thumb
 559              		.thumb_func
 560              		.fpu fpv4-sp-d16
 562              	UI_Button_Release:
 563              	.LVL54:
 564              	.LFB14:
 368:Dsp/widget/wgt_core/UI_Controller.c **** 
 369:Dsp/widget/wgt_core/UI_Controller.c **** static bool UI_Button_Release(UI_ButtonObj_TypeDef *Obj)
 370:Dsp/widget/wgt_core/UI_Controller.c **** {
 565              		.loc 1 370 1 is_stmt 1 view -0
 566              		.cfi_startproc
 567              		@ args = 0, pretend = 0, frame = 0
 568              		@ frame_needed = 0, uses_anonymous_args = 0
ARM GAS  /var/folders/lx/hc4sn_b53233_zkc9xbbl97r0000gp/T//cc29qxiB.s 			page 18


 371:Dsp/widget/wgt_core/UI_Controller.c ****     if (Obj == NULL)
 569              		.loc 1 371 5 view .LVU160
 570              		.loc 1 371 8 is_stmt 0 view .LVU161
 571 0000 70B1     		cbz	r0, .L53
 370:Dsp/widget/wgt_core/UI_Controller.c ****     if (Obj == NULL)
 572              		.loc 1 370 1 view .LVU162
 573 0002 08B5     		push	{r3, lr}
 574              	.LCFI5:
 575              		.cfi_def_cfa_offset 8
 576              		.cfi_offset 3, -8
 577              		.cfi_offset 14, -4
 372:Dsp/widget/wgt_core/UI_Controller.c ****         return false;
 373:Dsp/widget/wgt_core/UI_Controller.c **** 
 374:Dsp/widget/wgt_core/UI_Controller.c ****     if (Obj->type == Lock_Btn)
 578              		.loc 1 374 5 is_stmt 1 view .LVU163
 579              		.loc 1 374 12 is_stmt 0 view .LVU164
 580 0004 827B     		ldrb	r2, [r0, #14]	@ zero_extendqisi2
 581              		.loc 1 374 8 view .LVU165
 582 0006 012A     		cmp	r2, #1
 583 0008 0CD0     		beq	.L54
 375:Dsp/widget/wgt_core/UI_Controller.c ****         return true;
 376:Dsp/widget/wgt_core/UI_Controller.c **** 
 377:Dsp/widget/wgt_core/UI_Controller.c ****     if (Obj->default_state != Obj->state)
 584              		.loc 1 377 5 is_stmt 1 view .LVU166
 585              		.loc 1 377 12 is_stmt 0 view .LVU167
 586 000a 027B     		ldrb	r2, [r0, #12]	@ zero_extendqisi2
 587              		.loc 1 377 34 view .LVU168
 588 000c 417B     		ldrb	r1, [r0, #13]	@ zero_extendqisi2
 589              		.loc 1 377 8 view .LVU169
 590 000e 8A42     		cmp	r2, r1
 591 0010 0AD0     		beq	.L55
 378:Dsp/widget/wgt_core/UI_Controller.c ****     {
 379:Dsp/widget/wgt_core/UI_Controller.c ****         Obj->state = Obj->default_state;
 592              		.loc 1 379 9 is_stmt 1 view .LVU170
 593              		.loc 1 379 20 is_stmt 0 view .LVU171
 594 0012 4273     		strb	r2, [r0, #13]
 380:Dsp/widget/wgt_core/UI_Controller.c **** 
 381:Dsp/widget/wgt_core/UI_Controller.c ****         if (Obj->release_callback != NULL)
 595              		.loc 1 381 9 is_stmt 1 view .LVU172
 596              		.loc 1 381 16 is_stmt 0 view .LVU173
 597 0014 D0F81330 		ldr	r3, [r0, #19]	@ unaligned
 598              		.loc 1 381 12 view .LVU174
 599 0018 43B1     		cbz	r3, .L56
 382:Dsp/widget/wgt_core/UI_Controller.c ****             Obj->release_callback();
 600              		.loc 1 382 13 is_stmt 1 view .LVU175
 601 001a 9847     		blx	r3
 602              	.LVL55:
 383:Dsp/widget/wgt_core/UI_Controller.c ****     }
 384:Dsp/widget/wgt_core/UI_Controller.c **** 
 385:Dsp/widget/wgt_core/UI_Controller.c ****     return true;
 603              		.loc 1 385 12 is_stmt 0 view .LVU176
 604 001c 0120     		movs	r0, #1
 605              	.L52:
 386:Dsp/widget/wgt_core/UI_Controller.c **** }
 606              		.loc 1 386 1 view .LVU177
 607 001e 08BD     		pop	{r3, pc}
 608              	.LVL56:
ARM GAS  /var/folders/lx/hc4sn_b53233_zkc9xbbl97r0000gp/T//cc29qxiB.s 			page 19


 609              	.L53:
 610              	.LCFI6:
 611              		.cfi_def_cfa_offset 0
 612              		.cfi_restore 3
 613              		.cfi_restore 14
 372:Dsp/widget/wgt_core/UI_Controller.c **** 
 614              		.loc 1 372 16 view .LVU178
 615 0020 0020     		movs	r0, #0
 616              	.LVL57:
 617              		.loc 1 386 1 view .LVU179
 618 0022 7047     		bx	lr
 619              	.LVL58:
 620              	.L54:
 621              	.LCFI7:
 622              		.cfi_def_cfa_offset 8
 623              		.cfi_offset 3, -8
 624              		.cfi_offset 14, -4
 375:Dsp/widget/wgt_core/UI_Controller.c **** 
 625              		.loc 1 375 16 view .LVU180
 626 0024 0120     		movs	r0, #1
 627              	.LVL59:
 375:Dsp/widget/wgt_core/UI_Controller.c **** 
 628              		.loc 1 375 16 view .LVU181
 629 0026 FAE7     		b	.L52
 630              	.LVL60:
 631              	.L55:
 385:Dsp/widget/wgt_core/UI_Controller.c **** }
 632              		.loc 1 385 12 view .LVU182
 633 0028 0120     		movs	r0, #1
 634              	.LVL61:
 385:Dsp/widget/wgt_core/UI_Controller.c **** }
 635              		.loc 1 385 12 view .LVU183
 636 002a F8E7     		b	.L52
 637              	.LVL62:
 638              	.L56:
 385:Dsp/widget/wgt_core/UI_Controller.c **** }
 639              		.loc 1 385 12 view .LVU184
 640 002c 0120     		movs	r0, #1
 641              	.LVL63:
 385:Dsp/widget/wgt_core/UI_Controller.c **** }
 642              		.loc 1 385 12 view .LVU185
 643 002e F6E7     		b	.L52
 644              		.cfi_endproc
 645              	.LFE14:
 647              		.section	.text.UI_Button_Move,"ax",%progbits
 648              		.align	1
 649              		.syntax unified
 650              		.thumb
 651              		.thumb_func
 652              		.fpu fpv4-sp-d16
 654              	UI_Button_Move:
 655              	.LVL64:
 656              	.LFB15:
 387:Dsp/widget/wgt_core/UI_Controller.c **** 
 388:Dsp/widget/wgt_core/UI_Controller.c **** static bool UI_Button_Move(UI_ButtonObj_TypeDef *Obj, uint16_t x, uint16_t y)
 389:Dsp/widget/wgt_core/UI_Controller.c **** {
 657              		.loc 1 389 1 is_stmt 1 view -0
ARM GAS  /var/folders/lx/hc4sn_b53233_zkc9xbbl97r0000gp/T//cc29qxiB.s 			page 20


 658              		.cfi_startproc
 659              		@ args = 0, pretend = 0, frame = 0
 660              		@ frame_needed = 0, uses_anonymous_args = 0
 390:Dsp/widget/wgt_core/UI_Controller.c ****     if (Obj == NULL)
 661              		.loc 1 390 5 view .LVU187
 662              		.loc 1 390 8 is_stmt 0 view .LVU188
 663 0000 28B1     		cbz	r0, .L63
 389:Dsp/widget/wgt_core/UI_Controller.c ****     if (Obj == NULL)
 664              		.loc 1 389 1 view .LVU189
 665 0002 08B5     		push	{r3, lr}
 666              	.LCFI8:
 667              		.cfi_def_cfa_offset 8
 668              		.cfi_offset 3, -8
 669              		.cfi_offset 14, -4
 391:Dsp/widget/wgt_core/UI_Controller.c ****         return false;
 392:Dsp/widget/wgt_core/UI_Controller.c **** 
 393:Dsp/widget/wgt_core/UI_Controller.c ****     return UI_Move(&(Obj->Gen_Data), x, y);
 670              		.loc 1 393 5 is_stmt 1 view .LVU190
 671              		.loc 1 393 12 is_stmt 0 view .LVU191
 672 0004 12B2     		sxth	r2, r2
 673              		.loc 1 393 12 view .LVU192
 674 0006 09B2     		sxth	r1, r1
 675              		.loc 1 393 12 view .LVU193
 676 0008 FFF7FEFF 		bl	UI_Move
 677              	.LVL65:
 394:Dsp/widget/wgt_core/UI_Controller.c **** }
 678              		.loc 1 394 1 view .LVU194
 679 000c 08BD     		pop	{r3, pc}
 680              	.LVL66:
 681              	.L63:
 682              	.LCFI9:
 683              		.cfi_def_cfa_offset 0
 684              		.cfi_restore 3
 685              		.cfi_restore 14
 391:Dsp/widget/wgt_core/UI_Controller.c ****         return false;
 686              		.loc 1 391 16 view .LVU195
 687 000e 0020     		movs	r0, #0
 688              	.LVL67:
 689              		.loc 1 394 1 view .LVU196
 690 0010 7047     		bx	lr
 691              		.cfi_endproc
 692              	.LFE15:
 694              		.section	.text.UI_Button_Ctl,"ax",%progbits
 695              		.align	1
 696              		.syntax unified
 697              		.thumb
 698              		.thumb_func
 699              		.fpu fpv4-sp-d16
 701              	UI_Button_Ctl:
 702              	.LVL68:
 703              	.LFB16:
 395:Dsp/widget/wgt_core/UI_Controller.c **** 
 396:Dsp/widget/wgt_core/UI_Controller.c **** static bool UI_Button_Ctl(UI_ButtonObj_TypeDef *Obj)
 397:Dsp/widget/wgt_core/UI_Controller.c **** {
 704              		.loc 1 397 1 is_stmt 1 view -0
 705              		.cfi_startproc
 706              		@ args = 0, pretend = 0, frame = 0
ARM GAS  /var/folders/lx/hc4sn_b53233_zkc9xbbl97r0000gp/T//cc29qxiB.s 			page 21


 707              		@ frame_needed = 0, uses_anonymous_args = 0
 398:Dsp/widget/wgt_core/UI_Controller.c ****     if (Obj == NULL)
 708              		.loc 1 398 5 view .LVU198
 709              		.loc 1 398 8 is_stmt 0 view .LVU199
 710 0000 0028     		cmp	r0, #0
 711 0002 73D0     		beq	.L74
 397:Dsp/widget/wgt_core/UI_Controller.c ****     if (Obj == NULL)
 712              		.loc 1 397 1 view .LVU200
 713 0004 70B5     		push	{r4, r5, r6, lr}
 714              	.LCFI10:
 715              		.cfi_def_cfa_offset 16
 716              		.cfi_offset 4, -16
 717              		.cfi_offset 5, -12
 718              		.cfi_offset 6, -8
 719              		.cfi_offset 14, -4
 720 0006 84B0     		sub	sp, sp, #16
 721              	.LCFI11:
 722              		.cfi_def_cfa_offset 32
 723 0008 0446     		mov	r4, r0
 399:Dsp/widget/wgt_core/UI_Controller.c ****         return false;
 400:Dsp/widget/wgt_core/UI_Controller.c **** 
 401:Dsp/widget/wgt_core/UI_Controller.c ****     if (Obj->type == Lock_Btn)
 724              		.loc 1 401 5 is_stmt 1 view .LVU201
 725              		.loc 1 401 12 is_stmt 0 view .LVU202
 726 000a 837B     		ldrb	r3, [r0, #14]	@ zero_extendqisi2
 727              		.loc 1 401 8 view .LVU203
 728 000c 012B     		cmp	r3, #1
 729 000e 2FD0     		beq	.L86
 730              	.LVL69:
 731              	.L70:
 402:Dsp/widget/wgt_core/UI_Controller.c ****     {
 403:Dsp/widget/wgt_core/UI_Controller.c ****         if (Obj->state == UI_Btn_PushDwn)
 404:Dsp/widget/wgt_core/UI_Controller.c ****         {
 405:Dsp/widget/wgt_core/UI_Controller.c ****             if (Obj->push_callback)
 406:Dsp/widget/wgt_core/UI_Controller.c ****                 Obj->push_callback();
 407:Dsp/widget/wgt_core/UI_Controller.c ****         }
 408:Dsp/widget/wgt_core/UI_Controller.c ****         else if (Obj->state == UI_Btn_RlsUp)
 409:Dsp/widget/wgt_core/UI_Controller.c ****         {
 410:Dsp/widget/wgt_core/UI_Controller.c ****             if (Obj->release_callback)
 411:Dsp/widget/wgt_core/UI_Controller.c ****                 Obj->release_callback();
 412:Dsp/widget/wgt_core/UI_Controller.c ****         }
 413:Dsp/widget/wgt_core/UI_Controller.c ****         else
 414:Dsp/widget/wgt_core/UI_Controller.c ****             return false;
 415:Dsp/widget/wgt_core/UI_Controller.c ****     }
 416:Dsp/widget/wgt_core/UI_Controller.c **** 
 417:Dsp/widget/wgt_core/UI_Controller.c ****     /* display button on screen object */
 418:Dsp/widget/wgt_core/UI_Controller.c ****     /* invert display color when button been push down */
 419:Dsp/widget/wgt_core/UI_Controller.c ****     if ((UI_DspInterface.draw_str != NULL) && (UI_DspInterface.fill_radius_rectangle != NULL) && (U
 732              		.loc 1 419 5 is_stmt 1 view .LVU204
 733              		.loc 1 419 25 is_stmt 0 view .LVU205
 734 0010 3F4B     		ldr	r3, .L90
 735 0012 1B68     		ldr	r3, [r3]
 736              		.loc 1 419 8 view .LVU206
 737 0014 002B     		cmp	r3, #0
 738 0016 6DD0     		beq	.L76
 739              		.loc 1 419 63 discriminator 1 view .LVU207
 740 0018 3D4B     		ldr	r3, .L90
ARM GAS  /var/folders/lx/hc4sn_b53233_zkc9xbbl97r0000gp/T//cc29qxiB.s 			page 22


 741 001a DD6A     		ldr	r5, [r3, #44]
 742              		.loc 1 419 44 discriminator 1 view .LVU208
 743 001c 002D     		cmp	r5, #0
 744 001e 6CD0     		beq	.L77
 745              		.loc 1 419 114 discriminator 2 view .LVU209
 746 0020 1E69     		ldr	r6, [r3, #16]
 747              		.loc 1 419 95 discriminator 2 view .LVU210
 748 0022 002E     		cmp	r6, #0
 749 0024 6BD0     		beq	.L78
 420:Dsp/widget/wgt_core/UI_Controller.c ****     {
 421:Dsp/widget/wgt_core/UI_Controller.c ****         if (Obj->state == UI_Btn_PushDwn)
 750              		.loc 1 421 9 is_stmt 1 view .LVU211
 751              		.loc 1 421 16 is_stmt 0 view .LVU212
 752 0026 637B     		ldrb	r3, [r4, #13]	@ zero_extendqisi2
 753              		.loc 1 421 12 view .LVU213
 754 0028 012B     		cmp	r3, #1
 755 002a 32D0     		beq	.L87
 422:Dsp/widget/wgt_core/UI_Controller.c ****         {
 423:Dsp/widget/wgt_core/UI_Controller.c ****             /* fill button frame */
 424:Dsp/widget/wgt_core/UI_Controller.c ****             UI_DspInterface.fill_radius_rectangle(Obj->Gen_Data.x, Obj->Gen_Data.y, Obj->width, Obj
 425:Dsp/widget/wgt_core/UI_Controller.c **** 
 426:Dsp/widget/wgt_core/UI_Controller.c ****             /* invert string display */
 427:Dsp/widget/wgt_core/UI_Controller.c ****             if (Obj->PushDown_Label != NULL)
 428:Dsp/widget/wgt_core/UI_Controller.c ****                 UI_DspInterface.draw_str(base_font, Obj->PushDown_Label, Obj->Gen_Data.x + 5, Obj->
 429:Dsp/widget/wgt_core/UI_Controller.c ****         }
 430:Dsp/widget/wgt_core/UI_Controller.c ****         else
 431:Dsp/widget/wgt_core/UI_Controller.c ****         {
 432:Dsp/widget/wgt_core/UI_Controller.c ****             /* draw button frame */
 433:Dsp/widget/wgt_core/UI_Controller.c ****             UI_DspInterface.draw_radius_rectangle(Obj->Gen_Data.x, Obj->Gen_Data.y, Obj->width, Obj
 756              		.loc 1 433 13 is_stmt 1 view .LVU214
 757 002c 0123     		movs	r3, #1
 758 002e 0293     		str	r3, [sp, #8]
 759 0030 0193     		str	r3, [sp, #4]
 760 0032 0323     		movs	r3, #3
 761 0034 0093     		str	r3, [sp]
 762 0036 94F82030 		ldrb	r3, [r4, #32]	@ zero_extendqisi2
 763 003a E27F     		ldrb	r2, [r4, #31]	@ zero_extendqisi2
 764 003c B4F90610 		ldrsh	r1, [r4, #6]	@ unaligned
 765 0040 B4F90400 		ldrsh	r0, [r4, #4]	@ unaligned
 766 0044 B047     		blx	r6
 767              	.LVL70:
 434:Dsp/widget/wgt_core/UI_Controller.c **** 
 435:Dsp/widget/wgt_core/UI_Controller.c ****             if (Obj->type == Lock_Btn)
 768              		.loc 1 435 13 view .LVU215
 769              		.loc 1 435 20 is_stmt 0 view .LVU216
 770 0046 A37B     		ldrb	r3, [r4, #14]	@ zero_extendqisi2
 771              		.loc 1 435 16 view .LVU217
 772 0048 012B     		cmp	r3, #1
 773 004a 3ED0     		beq	.L88
 436:Dsp/widget/wgt_core/UI_Controller.c ****             {
 437:Dsp/widget/wgt_core/UI_Controller.c ****                 /* display label normally */
 438:Dsp/widget/wgt_core/UI_Controller.c ****                 if (Obj->Release_Label != NULL)
 439:Dsp/widget/wgt_core/UI_Controller.c ****                     UI_DspInterface.draw_str(base_font, Obj->Release_Label, Obj->Gen_Data.x + 9, Ob
 440:Dsp/widget/wgt_core/UI_Controller.c ****             }
 441:Dsp/widget/wgt_core/UI_Controller.c ****             else
 442:Dsp/widget/wgt_core/UI_Controller.c ****             {
 443:Dsp/widget/wgt_core/UI_Controller.c ****                 if (Obj->PushDown_Label != NULL)
ARM GAS  /var/folders/lx/hc4sn_b53233_zkc9xbbl97r0000gp/T//cc29qxiB.s 			page 23


 774              		.loc 1 443 17 is_stmt 1 view .LVU218
 775              		.loc 1 443 24 is_stmt 0 view .LVU219
 776 004c D4F81710 		ldr	r1, [r4, #23]	@ unaligned
 777              		.loc 1 443 20 view .LVU220
 778 0050 0029     		cmp	r1, #0
 779 0052 5AD0     		beq	.L81
 444:Dsp/widget/wgt_core/UI_Controller.c ****                     UI_DspInterface.draw_str(base_font, Obj->PushDown_Label, Obj->Gen_Data.x + 5, O
 780              		.loc 1 444 21 is_stmt 1 view .LVU221
 781              		.loc 1 444 36 is_stmt 0 view .LVU222
 782 0054 2E4B     		ldr	r3, .L90
 783 0056 1E68     		ldr	r6, [r3]
 784              		.loc 1 444 91 view .LVU223
 785 0058 A288     		ldrh	r2, [r4, #4]	@ unaligned
 786              		.loc 1 444 94 view .LVU224
 787 005a 0532     		adds	r2, r2, #5
 788              		.loc 1 444 21 view .LVU225
 789 005c 0125     		movs	r5, #1
 790 005e 0095     		str	r5, [sp]
 791 0060 B4F90630 		ldrsh	r3, [r4, #6]	@ unaligned
 792 0064 12B2     		sxth	r2, r2
 793 0066 2B48     		ldr	r0, .L90+4
 794 0068 0078     		ldrb	r0, [r0]	@ zero_extendqisi2
 795 006a B047     		blx	r6
 796              	.LVL71:
 445:Dsp/widget/wgt_core/UI_Controller.c ****             }
 446:Dsp/widget/wgt_core/UI_Controller.c ****         }
 447:Dsp/widget/wgt_core/UI_Controller.c ****     }
 448:Dsp/widget/wgt_core/UI_Controller.c ****     else
 449:Dsp/widget/wgt_core/UI_Controller.c ****         return false;
 450:Dsp/widget/wgt_core/UI_Controller.c **** 
 451:Dsp/widget/wgt_core/UI_Controller.c ****     return true;
 797              		.loc 1 451 12 view .LVU226
 798 006c 2846     		mov	r0, r5
 799 006e 42E0     		b	.L69
 800              	.LVL72:
 801              	.L86:
 403:Dsp/widget/wgt_core/UI_Controller.c ****         {
 802              		.loc 1 403 9 is_stmt 1 view .LVU227
 403:Dsp/widget/wgt_core/UI_Controller.c ****         {
 803              		.loc 1 403 16 is_stmt 0 view .LVU228
 804 0070 437B     		ldrb	r3, [r0, #13]	@ zero_extendqisi2
 403:Dsp/widget/wgt_core/UI_Controller.c ****         {
 805              		.loc 1 403 12 view .LVU229
 806 0072 012B     		cmp	r3, #1
 807 0074 07D0     		beq	.L89
 408:Dsp/widget/wgt_core/UI_Controller.c ****         {
 808              		.loc 1 408 14 is_stmt 1 view .LVU230
 408:Dsp/widget/wgt_core/UI_Controller.c ****         {
 809              		.loc 1 408 17 is_stmt 0 view .LVU231
 810 0076 002B     		cmp	r3, #0
 811 0078 3AD1     		bne	.L75
 410:Dsp/widget/wgt_core/UI_Controller.c ****                 Obj->release_callback();
 812              		.loc 1 410 13 is_stmt 1 view .LVU232
 410:Dsp/widget/wgt_core/UI_Controller.c ****                 Obj->release_callback();
 813              		.loc 1 410 20 is_stmt 0 view .LVU233
 814 007a D0F81330 		ldr	r3, [r0, #19]	@ unaligned
 410:Dsp/widget/wgt_core/UI_Controller.c ****                 Obj->release_callback();
ARM GAS  /var/folders/lx/hc4sn_b53233_zkc9xbbl97r0000gp/T//cc29qxiB.s 			page 24


 815              		.loc 1 410 16 view .LVU234
 816 007e 002B     		cmp	r3, #0
 817 0080 C6D0     		beq	.L70
 411:Dsp/widget/wgt_core/UI_Controller.c ****         }
 818              		.loc 1 411 17 is_stmt 1 view .LVU235
 819 0082 9847     		blx	r3
 820              	.LVL73:
 411:Dsp/widget/wgt_core/UI_Controller.c ****         }
 821              		.loc 1 411 17 is_stmt 0 view .LVU236
 822 0084 C4E7     		b	.L70
 823              	.LVL74:
 824              	.L89:
 405:Dsp/widget/wgt_core/UI_Controller.c ****                 Obj->push_callback();
 825              		.loc 1 405 13 is_stmt 1 view .LVU237
 405:Dsp/widget/wgt_core/UI_Controller.c ****                 Obj->push_callback();
 826              		.loc 1 405 20 is_stmt 0 view .LVU238
 827 0086 D0F80F30 		ldr	r3, [r0, #15]	@ unaligned
 405:Dsp/widget/wgt_core/UI_Controller.c ****                 Obj->push_callback();
 828              		.loc 1 405 16 view .LVU239
 829 008a 002B     		cmp	r3, #0
 830 008c C0D0     		beq	.L70
 406:Dsp/widget/wgt_core/UI_Controller.c ****         }
 831              		.loc 1 406 17 is_stmt 1 view .LVU240
 832 008e 9847     		blx	r3
 833              	.LVL75:
 406:Dsp/widget/wgt_core/UI_Controller.c ****         }
 834              		.loc 1 406 17 is_stmt 0 view .LVU241
 835 0090 BEE7     		b	.L70
 836              	.L87:
 424:Dsp/widget/wgt_core/UI_Controller.c **** 
 837              		.loc 1 424 13 is_stmt 1 view .LVU242
 838 0092 0193     		str	r3, [sp, #4]
 839 0094 0323     		movs	r3, #3
 840 0096 0093     		str	r3, [sp]
 841 0098 94F82030 		ldrb	r3, [r4, #32]	@ zero_extendqisi2
 842 009c E27F     		ldrb	r2, [r4, #31]	@ zero_extendqisi2
 843 009e B4F90610 		ldrsh	r1, [r4, #6]	@ unaligned
 844 00a2 B4F90400 		ldrsh	r0, [r4, #4]	@ unaligned
 845 00a6 A847     		blx	r5
 846              	.LVL76:
 427:Dsp/widget/wgt_core/UI_Controller.c ****                 UI_DspInterface.draw_str(base_font, Obj->PushDown_Label, Obj->Gen_Data.x + 5, Obj->
 847              		.loc 1 427 13 view .LVU243
 427:Dsp/widget/wgt_core/UI_Controller.c ****                 UI_DspInterface.draw_str(base_font, Obj->PushDown_Label, Obj->Gen_Data.x + 5, Obj->
 848              		.loc 1 427 20 is_stmt 0 view .LVU244
 849 00a8 D4F81710 		ldr	r1, [r4, #23]	@ unaligned
 427:Dsp/widget/wgt_core/UI_Controller.c ****                 UI_DspInterface.draw_str(base_font, Obj->PushDown_Label, Obj->Gen_Data.x + 5, Obj->
 850              		.loc 1 427 16 view .LVU245
 851 00ac 49B3     		cbz	r1, .L79
 428:Dsp/widget/wgt_core/UI_Controller.c ****         }
 852              		.loc 1 428 17 is_stmt 1 view .LVU246
 428:Dsp/widget/wgt_core/UI_Controller.c ****         }
 853              		.loc 1 428 32 is_stmt 0 view .LVU247
 854 00ae 184B     		ldr	r3, .L90
 855 00b0 1E68     		ldr	r6, [r3]
 428:Dsp/widget/wgt_core/UI_Controller.c ****         }
 856              		.loc 1 428 87 view .LVU248
 857 00b2 A288     		ldrh	r2, [r4, #4]	@ unaligned
ARM GAS  /var/folders/lx/hc4sn_b53233_zkc9xbbl97r0000gp/T//cc29qxiB.s 			page 25


 428:Dsp/widget/wgt_core/UI_Controller.c ****         }
 858              		.loc 1 428 90 view .LVU249
 859 00b4 0532     		adds	r2, r2, #5
 428:Dsp/widget/wgt_core/UI_Controller.c ****         }
 860              		.loc 1 428 17 view .LVU250
 861 00b6 0125     		movs	r5, #1
 862 00b8 0095     		str	r5, [sp]
 863 00ba B4F90630 		ldrsh	r3, [r4, #6]	@ unaligned
 864 00be 12B2     		sxth	r2, r2
 865 00c0 1448     		ldr	r0, .L90+4
 866 00c2 0078     		ldrb	r0, [r0]	@ zero_extendqisi2
 867 00c4 B047     		blx	r6
 868              	.LVL77:
 869              		.loc 1 451 12 view .LVU251
 870 00c6 2846     		mov	r0, r5
 871 00c8 15E0     		b	.L69
 872              	.L88:
 438:Dsp/widget/wgt_core/UI_Controller.c ****                     UI_DspInterface.draw_str(base_font, Obj->Release_Label, Obj->Gen_Data.x + 9, Ob
 873              		.loc 1 438 17 is_stmt 1 view .LVU252
 438:Dsp/widget/wgt_core/UI_Controller.c ****                     UI_DspInterface.draw_str(base_font, Obj->Release_Label, Obj->Gen_Data.x + 9, Ob
 874              		.loc 1 438 24 is_stmt 0 view .LVU253
 875 00ca D4F81B10 		ldr	r1, [r4, #27]	@ unaligned
 438:Dsp/widget/wgt_core/UI_Controller.c ****                     UI_DspInterface.draw_str(base_font, Obj->Release_Label, Obj->Gen_Data.x + 9, Ob
 876              		.loc 1 438 20 view .LVU254
 877 00ce D1B1     		cbz	r1, .L80
 439:Dsp/widget/wgt_core/UI_Controller.c ****             }
 878              		.loc 1 439 21 is_stmt 1 view .LVU255
 439:Dsp/widget/wgt_core/UI_Controller.c ****             }
 879              		.loc 1 439 36 is_stmt 0 view .LVU256
 880 00d0 0F4B     		ldr	r3, .L90
 881 00d2 1E68     		ldr	r6, [r3]
 439:Dsp/widget/wgt_core/UI_Controller.c ****             }
 882              		.loc 1 439 90 view .LVU257
 883 00d4 A288     		ldrh	r2, [r4, #4]	@ unaligned
 439:Dsp/widget/wgt_core/UI_Controller.c ****             }
 884              		.loc 1 439 93 view .LVU258
 885 00d6 0932     		adds	r2, r2, #9
 439:Dsp/widget/wgt_core/UI_Controller.c ****             }
 886              		.loc 1 439 21 view .LVU259
 887 00d8 0125     		movs	r5, #1
 888 00da 0095     		str	r5, [sp]
 889 00dc B4F90630 		ldrsh	r3, [r4, #6]	@ unaligned
 890 00e0 12B2     		sxth	r2, r2
 891 00e2 0C48     		ldr	r0, .L90+4
 892 00e4 0078     		ldrb	r0, [r0]	@ zero_extendqisi2
 893 00e6 B047     		blx	r6
 894              	.LVL78:
 895              		.loc 1 451 12 view .LVU260
 896 00e8 2846     		mov	r0, r5
 897 00ea 04E0     		b	.L69
 898              	.LVL79:
 899              	.L74:
 900              	.LCFI12:
 901              		.cfi_def_cfa_offset 0
 902              		.cfi_restore 4
 903              		.cfi_restore 5
 904              		.cfi_restore 6
ARM GAS  /var/folders/lx/hc4sn_b53233_zkc9xbbl97r0000gp/T//cc29qxiB.s 			page 26


 905              		.cfi_restore 14
 399:Dsp/widget/wgt_core/UI_Controller.c **** 
 906              		.loc 1 399 16 view .LVU261
 907 00ec 0020     		movs	r0, #0
 908              	.LVL80:
 452:Dsp/widget/wgt_core/UI_Controller.c **** }
 909              		.loc 1 452 1 view .LVU262
 910 00ee 7047     		bx	lr
 911              	.LVL81:
 912              	.L75:
 913              	.LCFI13:
 914              		.cfi_def_cfa_offset 32
 915              		.cfi_offset 4, -16
 916              		.cfi_offset 5, -12
 917              		.cfi_offset 6, -8
 918              		.cfi_offset 14, -4
 414:Dsp/widget/wgt_core/UI_Controller.c ****     }
 919              		.loc 1 414 20 view .LVU263
 920 00f0 0020     		movs	r0, #0
 921              	.LVL82:
 414:Dsp/widget/wgt_core/UI_Controller.c ****     }
 922              		.loc 1 414 20 view .LVU264
 923 00f2 00E0     		b	.L69
 924              	.L76:
 449:Dsp/widget/wgt_core/UI_Controller.c **** 
 925              		.loc 1 449 16 view .LVU265
 926 00f4 0020     		movs	r0, #0
 927              	.L69:
 928              		.loc 1 452 1 view .LVU266
 929 00f6 04B0     		add	sp, sp, #16
 930              	.LCFI14:
 931              		.cfi_remember_state
 932              		.cfi_def_cfa_offset 16
 933              		@ sp needed
 934 00f8 70BD     		pop	{r4, r5, r6, pc}
 935              	.LVL83:
 936              	.L77:
 937              	.LCFI15:
 938              		.cfi_restore_state
 449:Dsp/widget/wgt_core/UI_Controller.c **** 
 939              		.loc 1 449 16 view .LVU267
 940 00fa 0020     		movs	r0, #0
 941 00fc FBE7     		b	.L69
 942              	.L78:
 943 00fe 0020     		movs	r0, #0
 944 0100 F9E7     		b	.L69
 945              	.L79:
 451:Dsp/widget/wgt_core/UI_Controller.c **** }
 946              		.loc 1 451 12 view .LVU268
 947 0102 0120     		movs	r0, #1
 948 0104 F7E7     		b	.L69
 949              	.L80:
 451:Dsp/widget/wgt_core/UI_Controller.c **** }
 950              		.loc 1 451 12 view .LVU269
 951 0106 0120     		movs	r0, #1
 952 0108 F5E7     		b	.L69
 953              	.L81:
ARM GAS  /var/folders/lx/hc4sn_b53233_zkc9xbbl97r0000gp/T//cc29qxiB.s 			page 27


 451:Dsp/widget/wgt_core/UI_Controller.c **** }
 954              		.loc 1 451 12 view .LVU270
 955 010a 0120     		movs	r0, #1
 956 010c F3E7     		b	.L69
 957              	.L91:
 958 010e 00BF     		.align	2
 959              	.L90:
 960 0110 00000000 		.word	.LANCHOR0
 961 0114 00000000 		.word	.LANCHOR2
 962              		.cfi_endproc
 963              	.LFE16:
 965              		.section	.text.UI_CheckBox_Init,"ax",%progbits
 966              		.align	1
 967              		.syntax unified
 968              		.thumb
 969              		.thumb_func
 970              		.fpu fpv4-sp-d16
 972              	UI_CheckBox_Init:
 973              	.LVL84:
 974              	.LFB17:
 453:Dsp/widget/wgt_core/UI_Controller.c **** 
 454:Dsp/widget/wgt_core/UI_Controller.c **** static bool UI_CheckBox_Init(UI_CheckBoxObj_TypeDef *Obj, char *label, int16_t x, int16_t y, bool s
 455:Dsp/widget/wgt_core/UI_Controller.c **** {
 975              		.loc 1 455 1 is_stmt 1 view -0
 976              		.cfi_startproc
 977              		@ args = 4, pretend = 0, frame = 0
 978              		@ frame_needed = 0, uses_anonymous_args = 0
 456:Dsp/widget/wgt_core/UI_Controller.c ****     if (Obj == NULL)
 979              		.loc 1 456 5 view .LVU272
 980              		.loc 1 456 8 is_stmt 0 view .LVU273
 981 0000 68B1     		cbz	r0, .L94
 455:Dsp/widget/wgt_core/UI_Controller.c ****     if (Obj == NULL)
 982              		.loc 1 455 1 view .LVU274
 983 0002 10B5     		push	{r4, lr}
 984              	.LCFI16:
 985              		.cfi_def_cfa_offset 8
 986              		.cfi_offset 4, -8
 987              		.cfi_offset 14, -4
 988 0004 0446     		mov	r4, r0
 457:Dsp/widget/wgt_core/UI_Controller.c ****         return false;
 458:Dsp/widget/wgt_core/UI_Controller.c **** 
 459:Dsp/widget/wgt_core/UI_Controller.c ****     UI_GenData_Init(&Obj->Gen_Data, label, x, y);
 989              		.loc 1 459 5 is_stmt 1 view .LVU275
 990 0006 FFF7FEFF 		bl	UI_GenData_Init
 991              	.LVL85:
 460:Dsp/widget/wgt_core/UI_Controller.c **** 
 461:Dsp/widget/wgt_core/UI_Controller.c ****     Obj->checked = state;
 992              		.loc 1 461 5 view .LVU276
 993              		.loc 1 461 18 is_stmt 0 view .LVU277
 994 000a 9DF80830 		ldrb	r3, [sp, #8]	@ zero_extendqisi2
 995 000e 2374     		strb	r3, [r4, #16]
 462:Dsp/widget/wgt_core/UI_Controller.c ****     Obj->callback = NULL;
 996              		.loc 1 462 5 is_stmt 1 view .LVU278
 997              		.loc 1 462 19 is_stmt 0 view .LVU279
 998 0010 0023     		movs	r3, #0
 999 0012 2373     		strb	r3, [r4, #12]
 1000 0014 6373     		strb	r3, [r4, #13]
ARM GAS  /var/folders/lx/hc4sn_b53233_zkc9xbbl97r0000gp/T//cc29qxiB.s 			page 28


 1001 0016 A373     		strb	r3, [r4, #14]
 1002 0018 E373     		strb	r3, [r4, #15]
 463:Dsp/widget/wgt_core/UI_Controller.c **** 
 464:Dsp/widget/wgt_core/UI_Controller.c ****     return true;
 1003              		.loc 1 464 5 is_stmt 1 view .LVU280
 1004              		.loc 1 464 12 is_stmt 0 view .LVU281
 1005 001a 0120     		movs	r0, #1
 465:Dsp/widget/wgt_core/UI_Controller.c **** }
 1006              		.loc 1 465 1 view .LVU282
 1007 001c 10BD     		pop	{r4, pc}
 1008              	.LVL86:
 1009              	.L94:
 1010              	.LCFI17:
 1011              		.cfi_def_cfa_offset 0
 1012              		.cfi_restore 4
 1013              		.cfi_restore 14
 457:Dsp/widget/wgt_core/UI_Controller.c **** 
 1014              		.loc 1 457 16 view .LVU283
 1015 001e 0020     		movs	r0, #0
 1016              	.LVL87:
 1017              		.loc 1 465 1 view .LVU284
 1018 0020 7047     		bx	lr
 1019              		.cfi_endproc
 1020              	.LFE17:
 1022              		.section	.text.UI_CheckBox_SetCallback,"ax",%progbits
 1023              		.align	1
 1024              		.syntax unified
 1025              		.thumb
 1026              		.thumb_func
 1027              		.fpu fpv4-sp-d16
 1029              	UI_CheckBox_SetCallback:
 1030              	.LVL88:
 1031              	.LFB18:
 466:Dsp/widget/wgt_core/UI_Controller.c **** 
 467:Dsp/widget/wgt_core/UI_Controller.c **** static bool UI_CheckBox_SetCallback(UI_CheckBoxObj_TypeDef *Obj, UI_CheckBoxTrigger_Callback callba
 468:Dsp/widget/wgt_core/UI_Controller.c **** {
 1032              		.loc 1 468 1 is_stmt 1 view -0
 1033              		.cfi_startproc
 1034              		@ args = 0, pretend = 0, frame = 0
 1035              		@ frame_needed = 0, uses_anonymous_args = 0
 1036              		@ link register save eliminated.
 469:Dsp/widget/wgt_core/UI_Controller.c ****     if (Obj == NULL)
 1037              		.loc 1 469 5 view .LVU286
 1038              		.loc 1 469 8 is_stmt 0 view .LVU287
 1039 0000 10B1     		cbz	r0, .L101
 470:Dsp/widget/wgt_core/UI_Controller.c ****         return false;
 471:Dsp/widget/wgt_core/UI_Controller.c **** 
 472:Dsp/widget/wgt_core/UI_Controller.c ****     Obj->callback = callback;
 1040              		.loc 1 472 5 is_stmt 1 view .LVU288
 1041              		.loc 1 472 19 is_stmt 0 view .LVU289
 1042 0002 C160     		str	r1, [r0, #12]	@ unaligned
 473:Dsp/widget/wgt_core/UI_Controller.c **** 
 474:Dsp/widget/wgt_core/UI_Controller.c ****     return true;
 1043              		.loc 1 474 5 is_stmt 1 view .LVU290
 1044              		.loc 1 474 12 is_stmt 0 view .LVU291
 1045 0004 0120     		movs	r0, #1
 1046              	.LVL89:
ARM GAS  /var/folders/lx/hc4sn_b53233_zkc9xbbl97r0000gp/T//cc29qxiB.s 			page 29


 1047              		.loc 1 474 12 view .LVU292
 1048 0006 7047     		bx	lr
 1049              	.LVL90:
 1050              	.L101:
 470:Dsp/widget/wgt_core/UI_Controller.c ****         return false;
 1051              		.loc 1 470 16 view .LVU293
 1052 0008 0020     		movs	r0, #0
 1053              	.LVL91:
 475:Dsp/widget/wgt_core/UI_Controller.c **** }
 1054              		.loc 1 475 1 view .LVU294
 1055 000a 7047     		bx	lr
 1056              		.cfi_endproc
 1057              	.LFE18:
 1059              		.section	.text.UI_CheckBox_Move,"ax",%progbits
 1060              		.align	1
 1061              		.syntax unified
 1062              		.thumb
 1063              		.thumb_func
 1064              		.fpu fpv4-sp-d16
 1066              	UI_CheckBox_Move:
 1067              	.LVL92:
 1068              	.LFB19:
 476:Dsp/widget/wgt_core/UI_Controller.c **** 
 477:Dsp/widget/wgt_core/UI_Controller.c **** static bool UI_CheckBox_Move(UI_CheckBoxObj_TypeDef *Obj, int16_t x, int16_t y)
 478:Dsp/widget/wgt_core/UI_Controller.c **** {
 1069              		.loc 1 478 1 is_stmt 1 view -0
 1070              		.cfi_startproc
 1071              		@ args = 0, pretend = 0, frame = 0
 1072              		@ frame_needed = 0, uses_anonymous_args = 0
 479:Dsp/widget/wgt_core/UI_Controller.c ****     if (Obj == NULL)
 1073              		.loc 1 479 5 view .LVU296
 1074              		.loc 1 479 8 is_stmt 0 view .LVU297
 1075 0000 18B1     		cbz	r0, .L104
 478:Dsp/widget/wgt_core/UI_Controller.c ****     if (Obj == NULL)
 1076              		.loc 1 478 1 view .LVU298
 1077 0002 08B5     		push	{r3, lr}
 1078              	.LCFI18:
 1079              		.cfi_def_cfa_offset 8
 1080              		.cfi_offset 3, -8
 1081              		.cfi_offset 14, -4
 480:Dsp/widget/wgt_core/UI_Controller.c ****         return false;
 481:Dsp/widget/wgt_core/UI_Controller.c **** 
 482:Dsp/widget/wgt_core/UI_Controller.c ****     return UI_Move(&(Obj->Gen_Data), x, y);
 1082              		.loc 1 482 5 is_stmt 1 view .LVU299
 1083              		.loc 1 482 12 is_stmt 0 view .LVU300
 1084 0004 FFF7FEFF 		bl	UI_Move
 1085              	.LVL93:
 483:Dsp/widget/wgt_core/UI_Controller.c **** }
 1086              		.loc 1 483 1 view .LVU301
 1087 0008 08BD     		pop	{r3, pc}
 1088              	.LVL94:
 1089              	.L104:
 1090              	.LCFI19:
 1091              		.cfi_def_cfa_offset 0
 1092              		.cfi_restore 3
 1093              		.cfi_restore 14
 480:Dsp/widget/wgt_core/UI_Controller.c ****         return false;
ARM GAS  /var/folders/lx/hc4sn_b53233_zkc9xbbl97r0000gp/T//cc29qxiB.s 			page 30


 1094              		.loc 1 480 16 view .LVU302
 1095 000a 0020     		movs	r0, #0
 1096              	.LVL95:
 1097              		.loc 1 483 1 view .LVU303
 1098 000c 7047     		bx	lr
 1099              		.cfi_endproc
 1100              	.LFE19:
 1102              		.section	.text.UI_CheckBox_Trigger,"ax",%progbits
 1103              		.align	1
 1104              		.syntax unified
 1105              		.thumb
 1106              		.thumb_func
 1107              		.fpu fpv4-sp-d16
 1109              	UI_CheckBox_Trigger:
 1110              	.LVL96:
 1111              	.LFB20:
 484:Dsp/widget/wgt_core/UI_Controller.c **** 
 485:Dsp/widget/wgt_core/UI_Controller.c **** static bool UI_CheckBox_Trigger(UI_CheckBoxObj_TypeDef *Obj)
 486:Dsp/widget/wgt_core/UI_Controller.c **** {
 1112              		.loc 1 486 1 is_stmt 1 view -0
 1113              		.cfi_startproc
 1114              		@ args = 0, pretend = 0, frame = 0
 1115              		@ frame_needed = 0, uses_anonymous_args = 0
 487:Dsp/widget/wgt_core/UI_Controller.c ****     if (Obj == NULL)
 1116              		.loc 1 487 5 view .LVU305
 1117              		.loc 1 487 8 is_stmt 0 view .LVU306
 1118 0000 50B1     		cbz	r0, .L111
 486:Dsp/widget/wgt_core/UI_Controller.c ****     if (Obj == NULL)
 1119              		.loc 1 486 1 view .LVU307
 1120 0002 08B5     		push	{r3, lr}
 1121              	.LCFI20:
 1122              		.cfi_def_cfa_offset 8
 1123              		.cfi_offset 3, -8
 1124              		.cfi_offset 14, -4
 1125 0004 0346     		mov	r3, r0
 488:Dsp/widget/wgt_core/UI_Controller.c ****         return false;
 489:Dsp/widget/wgt_core/UI_Controller.c **** 
 490:Dsp/widget/wgt_core/UI_Controller.c ****     Obj->checked = !Obj->checked;
 1126              		.loc 1 490 5 is_stmt 1 view .LVU308
 1127              		.loc 1 490 24 is_stmt 0 view .LVU309
 1128 0006 007C     		ldrb	r0, [r0, #16]	@ zero_extendqisi2
 1129              	.LVL97:
 1130              		.loc 1 490 5 view .LVU310
 1131 0008 80F00100 		eor	r0, r0, #1
 1132              		.loc 1 490 18 view .LVU311
 1133 000c 1874     		strb	r0, [r3, #16]
 491:Dsp/widget/wgt_core/UI_Controller.c **** 
 492:Dsp/widget/wgt_core/UI_Controller.c ****     if (Obj->callback)
 1134              		.loc 1 492 5 is_stmt 1 view .LVU312
 1135              		.loc 1 492 12 is_stmt 0 view .LVU313
 1136 000e DB68     		ldr	r3, [r3, #12]	@ unaligned
 1137              	.LVL98:
 1138              		.loc 1 492 8 view .LVU314
 1139 0010 23B1     		cbz	r3, .L112
 493:Dsp/widget/wgt_core/UI_Controller.c ****         Obj->callback(Obj->checked);
 1140              		.loc 1 493 9 is_stmt 1 view .LVU315
 1141 0012 9847     		blx	r3
ARM GAS  /var/folders/lx/hc4sn_b53233_zkc9xbbl97r0000gp/T//cc29qxiB.s 			page 31


 1142              	.LVL99:
 494:Dsp/widget/wgt_core/UI_Controller.c **** 
 495:Dsp/widget/wgt_core/UI_Controller.c ****     return true;
 1143              		.loc 1 495 12 is_stmt 0 view .LVU316
 1144 0014 0120     		movs	r0, #1
 1145              	.L110:
 496:Dsp/widget/wgt_core/UI_Controller.c **** }
 1146              		.loc 1 496 1 view .LVU317
 1147 0016 08BD     		pop	{r3, pc}
 1148              	.LVL100:
 1149              	.L111:
 1150              	.LCFI21:
 1151              		.cfi_def_cfa_offset 0
 1152              		.cfi_restore 3
 1153              		.cfi_restore 14
 488:Dsp/widget/wgt_core/UI_Controller.c **** 
 1154              		.loc 1 488 16 view .LVU318
 1155 0018 0020     		movs	r0, #0
 1156              	.LVL101:
 1157              		.loc 1 496 1 view .LVU319
 1158 001a 7047     		bx	lr
 1159              	.L112:
 1160              	.LCFI22:
 1161              		.cfi_def_cfa_offset 8
 1162              		.cfi_offset 3, -8
 1163              		.cfi_offset 14, -4
 495:Dsp/widget/wgt_core/UI_Controller.c **** }
 1164              		.loc 1 495 12 view .LVU320
 1165 001c 0120     		movs	r0, #1
 1166 001e FAE7     		b	.L110
 1167              		.cfi_endproc
 1168              	.LFE20:
 1170              		.section	.text.UI_SlideBar_Init,"ax",%progbits
 1171              		.align	1
 1172              		.syntax unified
 1173              		.thumb
 1174              		.thumb_func
 1175              		.fpu fpv4-sp-d16
 1177              	UI_SlideBar_Init:
 1178              	.LVL102:
 1179              	.LFB22:
 497:Dsp/widget/wgt_core/UI_Controller.c **** 
 498:Dsp/widget/wgt_core/UI_Controller.c **** static bool UI_CheckBox_Ctl(UI_CheckBoxObj_TypeDef *Obj)
 499:Dsp/widget/wgt_core/UI_Controller.c **** {
 500:Dsp/widget/wgt_core/UI_Controller.c ****     uint16_t StrDsp_x = 0;
 501:Dsp/widget/wgt_core/UI_Controller.c ****     int16_t frame_y = 0;
 502:Dsp/widget/wgt_core/UI_Controller.c ****     int16_t str_y = Obj->Gen_Data.y;
 503:Dsp/widget/wgt_core/UI_Controller.c **** 
 504:Dsp/widget/wgt_core/UI_Controller.c ****     if ((Obj == NULL) ||
 505:Dsp/widget/wgt_core/UI_Controller.c ****         (UI_DspInterface.draw_str == NULL) ||
 506:Dsp/widget/wgt_core/UI_Controller.c ****         (UI_DspInterface.fill_rectangle == NULL) ||
 507:Dsp/widget/wgt_core/UI_Controller.c ****         (UI_DspInterface.draw_rectangle == NULL))
 508:Dsp/widget/wgt_core/UI_Controller.c ****         return false;
 509:Dsp/widget/wgt_core/UI_Controller.c **** 
 510:Dsp/widget/wgt_core/UI_Controller.c ****     StrDsp_x = strlen(Obj->Gen_Data.label) * STR_DIS;
 511:Dsp/widget/wgt_core/UI_Controller.c ****     frame_y = Obj->Gen_Data.y + 3;
 512:Dsp/widget/wgt_core/UI_Controller.c ****     StrDsp_x += DEFAULT_CHECKBOX_OFFSET;
ARM GAS  /var/folders/lx/hc4sn_b53233_zkc9xbbl97r0000gp/T//cc29qxiB.s 			page 32


 513:Dsp/widget/wgt_core/UI_Controller.c **** 
 514:Dsp/widget/wgt_core/UI_Controller.c ****     if (base_font == Font_8)
 515:Dsp/widget/wgt_core/UI_Controller.c ****         str_y += 1;
 516:Dsp/widget/wgt_core/UI_Controller.c **** 
 517:Dsp/widget/wgt_core/UI_Controller.c ****     UI_DspInterface.draw_str(base_font, Obj->Gen_Data.label, Obj->Gen_Data.x + 3, str_y, true);
 518:Dsp/widget/wgt_core/UI_Controller.c ****     UI_DspInterface.draw_rectangle(StrDsp_x, frame_y, DEFAULT_CHECKBOX_FRAME_SIZE, DEFAULT_CHECKBOX
 519:Dsp/widget/wgt_core/UI_Controller.c **** 
 520:Dsp/widget/wgt_core/UI_Controller.c ****     if (Obj->checked)
 521:Dsp/widget/wgt_core/UI_Controller.c ****         UI_DspInterface.fill_rectangle(StrDsp_x + 2, frame_y + 2, DEFAULT_CHECKBOX_FILLFRAME, DEFAU
 522:Dsp/widget/wgt_core/UI_Controller.c **** 
 523:Dsp/widget/wgt_core/UI_Controller.c ****     return true;
 524:Dsp/widget/wgt_core/UI_Controller.c **** }
 525:Dsp/widget/wgt_core/UI_Controller.c **** 
 526:Dsp/widget/wgt_core/UI_Controller.c **** static bool UI_SlideBar_Init(UI_SlideBarObj_TypeDef *Obj, UI_SliderBar_Mode_List mode, char *label,
 527:Dsp/widget/wgt_core/UI_Controller.c **** {
 1180              		.loc 1 527 1 is_stmt 1 view -0
 1181              		.cfi_startproc
 1182              		@ args = 20, pretend = 0, frame = 0
 1183              		@ frame_needed = 0, uses_anonymous_args = 0
 1184              		.loc 1 527 1 is_stmt 0 view .LVU322
 1185 0000 2DE9F843 		push	{r3, r4, r5, r6, r7, r8, r9, lr}
 1186              	.LCFI23:
 1187              		.cfi_def_cfa_offset 32
 1188              		.cfi_offset 3, -32
 1189              		.cfi_offset 4, -28
 1190              		.cfi_offset 5, -24
 1191              		.cfi_offset 6, -20
 1192              		.cfi_offset 7, -16
 1193              		.cfi_offset 8, -12
 1194              		.cfi_offset 9, -8
 1195              		.cfi_offset 14, -4
 1196 0004 BDF92440 		ldrsh	r4, [sp, #36]
 1197 0008 BDF92850 		ldrsh	r5, [sp, #40]
 1198 000c BDF92C60 		ldrsh	r6, [sp, #44]
 1199 0010 BDF93080 		ldrsh	r8, [sp, #48]
 528:Dsp/widget/wgt_core/UI_Controller.c ****     if ((Obj == NULL) ||
 1200              		.loc 1 528 5 is_stmt 1 view .LVU323
 1201              		.loc 1 528 8 is_stmt 0 view .LVU324
 1202 0014 0028     		cmp	r0, #0
 1203 0016 49D0     		beq	.L119
 1204 0018 9446     		mov	ip, r2
 1205 001a 1A46     		mov	r2, r3
 1206              	.LVL103:
 1207              		.loc 1 528 8 view .LVU325
 1208 001c 0746     		mov	r7, r0
 1209              		.loc 1 528 23 discriminator 1 view .LVU326
 1210 001e AC42     		cmp	r4, r5
 1211 0020 46DD     		ble	.L120
 529:Dsp/widget/wgt_core/UI_Controller.c ****         (limit_max <= limit_min) ||
 1212              		.loc 1 529 34 view .LVU327
 1213 0022 B542     		cmp	r5, r6
 1214 0024 47DC     		bgt	.L121
 530:Dsp/widget/wgt_core/UI_Controller.c ****         (start_val < limit_min) ||
 1215              		.loc 1 530 33 view .LVU328
 1216 0026 B442     		cmp	r4, r6
 1217 0028 47DB     		blt	.L122
 531:Dsp/widget/wgt_core/UI_Controller.c ****         (start_val > limit_max) ||
ARM GAS  /var/folders/lx/hc4sn_b53233_zkc9xbbl97r0000gp/T//cc29qxiB.s 			page 33


 1218              		.loc 1 531 33 view .LVU329
 1219 002a 0129     		cmp	r1, #1
 1220 002c 01D9     		bls	.L125
 532:Dsp/widget/wgt_core/UI_Controller.c ****         (mode > SliderBar_Vertical_Mode))
 533:Dsp/widget/wgt_core/UI_Controller.c ****         return false;
 1221              		.loc 1 533 16 view .LVU330
 1222 002e 0020     		movs	r0, #0
 1223              	.LVL104:
 1224              		.loc 1 533 16 view .LVU331
 1225 0030 3FE0     		b	.L118
 1226              	.LVL105:
 1227              	.L125:
 534:Dsp/widget/wgt_core/UI_Controller.c **** 
 535:Dsp/widget/wgt_core/UI_Controller.c ****     Obj->mode = mode;
 1228              		.loc 1 535 5 is_stmt 1 view .LVU332
 1229              		.loc 1 535 15 is_stmt 0 view .LVU333
 1230 0032 0173     		strb	r1, [r0, #12]
 536:Dsp/widget/wgt_core/UI_Controller.c ****     Obj->is_selected = false;
 1231              		.loc 1 536 5 is_stmt 1 view .LVU334
 1232              		.loc 1 536 22 is_stmt 0 view .LVU335
 1233 0034 4FF00009 		mov	r9, #0
 1234 0038 80F82390 		strb	r9, [r0, #35]
 537:Dsp/widget/wgt_core/UI_Controller.c **** 
 538:Dsp/widget/wgt_core/UI_Controller.c ****     UI_GenData_Init(&(Obj->Gen_Data), label, x, y);
 1235              		.loc 1 538 5 is_stmt 1 view .LVU336
 1236 003c BDF92030 		ldrsh	r3, [sp, #32]
 1237              	.LVL106:
 1238              		.loc 1 538 5 is_stmt 0 view .LVU337
 1239 0040 6146     		mov	r1, ip
 1240              	.LVL107:
 1241              		.loc 1 538 5 view .LVU338
 1242 0042 FFF7FEFF 		bl	UI_GenData_Init
 1243              	.LVL108:
 539:Dsp/widget/wgt_core/UI_Controller.c **** 
 540:Dsp/widget/wgt_core/UI_Controller.c ****     Obj->limit_max = limit_max;
 1244              		.loc 1 540 5 is_stmt 1 view .LVU339
 1245              		.loc 1 540 20 is_stmt 0 view .LVU340
 1246 0046 07EE904A 		vmov	s15, r4	@ int
 1247 004a F8EEE77A 		vcvt.f32.s32	s15, s15
 1248 004e 17EE903A 		vmov	r3, s15
 1249 0052 C7F81530 		str	r3, [r7, #21]	@ unaligned
 541:Dsp/widget/wgt_core/UI_Controller.c ****     Obj->limit_min = limit_min;
 1250              		.loc 1 541 5 is_stmt 1 view .LVU341
 1251              		.loc 1 541 20 is_stmt 0 view .LVU342
 1252 0056 07EE905A 		vmov	s15, r5	@ int
 1253 005a F8EEE77A 		vcvt.f32.s32	s15, s15
 1254 005e 17EE903A 		vmov	r3, s15
 1255 0062 C7F81130 		str	r3, [r7, #17]	@ unaligned
 542:Dsp/widget/wgt_core/UI_Controller.c **** 
 543:Dsp/widget/wgt_core/UI_Controller.c ****     Obj->step_len = step_len;
 1256              		.loc 1 543 5 is_stmt 1 view .LVU343
 1257              		.loc 1 543 19 is_stmt 0 view .LVU344
 1258 0066 A7F81D80 		strh	r8, [r7, #29]	@ unaligned
 544:Dsp/widget/wgt_core/UI_Controller.c ****     Obj->scale = (limit_max - limit_min) / (float)step_len;
 1259              		.loc 1 544 5 is_stmt 1 view .LVU345
 1260              		.loc 1 544 29 is_stmt 0 view .LVU346
 1261 006a 641B     		subs	r4, r4, r5
ARM GAS  /var/folders/lx/hc4sn_b53233_zkc9xbbl97r0000gp/T//cc29qxiB.s 			page 34


 1262              		.loc 1 544 44 view .LVU347
 1263 006c 07EE908A 		vmov	s15, r8	@ int
 1264 0070 B8EEE77A 		vcvt.f32.s32	s14, s15
 1265              		.loc 1 544 42 view .LVU348
 1266 0074 07EE904A 		vmov	s15, r4	@ int
 1267 0078 F8EEE77A 		vcvt.f32.s32	s15, s15
 1268              		.loc 1 544 16 view .LVU349
 1269 007c C7EE877A 		vdiv.f32	s15, s15, s14
 1270 0080 17EE903A 		vmov	r3, s15
 1271 0084 C7F81930 		str	r3, [r7, #25]	@ unaligned
 545:Dsp/widget/wgt_core/UI_Controller.c ****     Obj->cur_val = start_val;
 1272              		.loc 1 545 5 is_stmt 1 view .LVU350
 1273              		.loc 1 545 18 is_stmt 0 view .LVU351
 1274 0088 07EE906A 		vmov	s15, r6	@ int
 1275 008c F8EEE77A 		vcvt.f32.s32	s15, s15
 1276 0090 17EE906A 		vmov	r6, s15
 1277 0094 C7F81F60 		str	r6, [r7, #31]	@ unaligned
 546:Dsp/widget/wgt_core/UI_Controller.c **** 
 547:Dsp/widget/wgt_core/UI_Controller.c ****     Obj->BarCoord_X = 0;
 1278              		.loc 1 547 5 is_stmt 1 view .LVU352
 1279              		.loc 1 547 21 is_stmt 0 view .LVU353
 1280 0098 87F82490 		strb	r9, [r7, #36]
 1281 009c 87F82590 		strb	r9, [r7, #37]
 548:Dsp/widget/wgt_core/UI_Controller.c ****     Obj->BarCoord_Y = 0;
 1282              		.loc 1 548 5 is_stmt 1 view .LVU354
 1283              		.loc 1 548 21 is_stmt 0 view .LVU355
 1284 00a0 87F82690 		strb	r9, [r7, #38]
 1285 00a4 87F82790 		strb	r9, [r7, #39]
 549:Dsp/widget/wgt_core/UI_Controller.c **** 
 550:Dsp/widget/wgt_core/UI_Controller.c ****     return true;
 1286              		.loc 1 550 5 is_stmt 1 view .LVU356
 1287              		.loc 1 550 12 is_stmt 0 view .LVU357
 1288 00a8 0120     		movs	r0, #1
 1289 00aa 02E0     		b	.L118
 1290              	.LVL109:
 1291              	.L119:
 533:Dsp/widget/wgt_core/UI_Controller.c **** 
 1292              		.loc 1 533 16 view .LVU358
 1293 00ac 0020     		movs	r0, #0
 1294              	.LVL110:
 533:Dsp/widget/wgt_core/UI_Controller.c **** 
 1295              		.loc 1 533 16 view .LVU359
 1296 00ae 00E0     		b	.L118
 1297              	.LVL111:
 1298              	.L120:
 533:Dsp/widget/wgt_core/UI_Controller.c **** 
 1299              		.loc 1 533 16 view .LVU360
 1300 00b0 0020     		movs	r0, #0
 1301              	.LVL112:
 1302              	.L118:
 551:Dsp/widget/wgt_core/UI_Controller.c **** }
 1303              		.loc 1 551 1 view .LVU361
 1304 00b2 BDE8F883 		pop	{r3, r4, r5, r6, r7, r8, r9, pc}
 1305              	.LVL113:
 1306              	.L121:
 533:Dsp/widget/wgt_core/UI_Controller.c **** 
 1307              		.loc 1 533 16 view .LVU362
ARM GAS  /var/folders/lx/hc4sn_b53233_zkc9xbbl97r0000gp/T//cc29qxiB.s 			page 35


 1308 00b6 0020     		movs	r0, #0
 1309              	.LVL114:
 533:Dsp/widget/wgt_core/UI_Controller.c **** 
 1310              		.loc 1 533 16 view .LVU363
 1311 00b8 FBE7     		b	.L118
 1312              	.LVL115:
 1313              	.L122:
 533:Dsp/widget/wgt_core/UI_Controller.c **** 
 1314              		.loc 1 533 16 view .LVU364
 1315 00ba 0020     		movs	r0, #0
 1316              	.LVL116:
 533:Dsp/widget/wgt_core/UI_Controller.c **** 
 1317              		.loc 1 533 16 view .LVU365
 1318 00bc F9E7     		b	.L118
 1319              		.cfi_endproc
 1320              	.LFE22:
 1322              		.section	.text.UI_SlideBar_Move,"ax",%progbits
 1323              		.align	1
 1324              		.syntax unified
 1325              		.thumb
 1326              		.thumb_func
 1327              		.fpu fpv4-sp-d16
 1329              	UI_SlideBar_Move:
 1330              	.LVL117:
 1331              	.LFB23:
 552:Dsp/widget/wgt_core/UI_Controller.c **** 
 553:Dsp/widget/wgt_core/UI_Controller.c **** static bool UI_SlideBar_Move(UI_SlideBarObj_TypeDef *Obj, int16_t x, int16_t y)
 554:Dsp/widget/wgt_core/UI_Controller.c **** {
 1332              		.loc 1 554 1 is_stmt 1 view -0
 1333              		.cfi_startproc
 1334              		@ args = 0, pretend = 0, frame = 0
 1335              		@ frame_needed = 0, uses_anonymous_args = 0
 555:Dsp/widget/wgt_core/UI_Controller.c ****     if (Obj == NULL)
 1336              		.loc 1 555 5 view .LVU367
 1337              		.loc 1 555 8 is_stmt 0 view .LVU368
 1338 0000 18B1     		cbz	r0, .L128
 554:Dsp/widget/wgt_core/UI_Controller.c ****     if (Obj == NULL)
 1339              		.loc 1 554 1 view .LVU369
 1340 0002 08B5     		push	{r3, lr}
 1341              	.LCFI24:
 1342              		.cfi_def_cfa_offset 8
 1343              		.cfi_offset 3, -8
 1344              		.cfi_offset 14, -4
 556:Dsp/widget/wgt_core/UI_Controller.c ****         return false;
 557:Dsp/widget/wgt_core/UI_Controller.c **** 
 558:Dsp/widget/wgt_core/UI_Controller.c ****     return UI_Move(&(Obj->Gen_Data), x, y);
 1345              		.loc 1 558 5 is_stmt 1 view .LVU370
 1346              		.loc 1 558 12 is_stmt 0 view .LVU371
 1347 0004 FFF7FEFF 		bl	UI_Move
 1348              	.LVL118:
 559:Dsp/widget/wgt_core/UI_Controller.c **** }
 1349              		.loc 1 559 1 view .LVU372
 1350 0008 08BD     		pop	{r3, pc}
 1351              	.LVL119:
 1352              	.L128:
 1353              	.LCFI25:
 1354              		.cfi_def_cfa_offset 0
ARM GAS  /var/folders/lx/hc4sn_b53233_zkc9xbbl97r0000gp/T//cc29qxiB.s 			page 36


 1355              		.cfi_restore 3
 1356              		.cfi_restore 14
 556:Dsp/widget/wgt_core/UI_Controller.c ****         return false;
 1357              		.loc 1 556 16 view .LVU373
 1358 000a 0020     		movs	r0, #0
 1359              	.LVL120:
 1360              		.loc 1 559 1 view .LVU374
 1361 000c 7047     		bx	lr
 1362              		.cfi_endproc
 1363              	.LFE23:
 1365              		.section	.text.UI_SlideBar_SetCallBack,"ax",%progbits
 1366              		.align	1
 1367              		.syntax unified
 1368              		.thumb
 1369              		.thumb_func
 1370              		.fpu fpv4-sp-d16
 1372              	UI_SlideBar_SetCallBack:
 1373              	.LVL121:
 1374              	.LFB24:
 560:Dsp/widget/wgt_core/UI_Controller.c **** 
 561:Dsp/widget/wgt_core/UI_Controller.c **** static bool UI_SlideBar_SetCallBack(UI_SlideBarObj_TypeDef *Obj, UI_SliderBarTrigger_Callback callb
 562:Dsp/widget/wgt_core/UI_Controller.c **** {
 1375              		.loc 1 562 1 is_stmt 1 view -0
 1376              		.cfi_startproc
 1377              		@ args = 0, pretend = 0, frame = 0
 1378              		@ frame_needed = 0, uses_anonymous_args = 0
 1379              		@ link register save eliminated.
 563:Dsp/widget/wgt_core/UI_Controller.c ****     if (Obj == NULL)
 1380              		.loc 1 563 5 view .LVU376
 1381              		.loc 1 563 8 is_stmt 0 view .LVU377
 1382 0000 18B1     		cbz	r0, .L135
 564:Dsp/widget/wgt_core/UI_Controller.c ****         return false;
 565:Dsp/widget/wgt_core/UI_Controller.c **** 
 566:Dsp/widget/wgt_core/UI_Controller.c ****     Obj->callback = callback;
 1383              		.loc 1 566 5 is_stmt 1 view .LVU378
 1384              		.loc 1 566 19 is_stmt 0 view .LVU379
 1385 0002 C0F80D10 		str	r1, [r0, #13]	@ unaligned
 567:Dsp/widget/wgt_core/UI_Controller.c **** 
 568:Dsp/widget/wgt_core/UI_Controller.c ****     return true;
 1386              		.loc 1 568 5 is_stmt 1 view .LVU380
 1387              		.loc 1 568 12 is_stmt 0 view .LVU381
 1388 0006 0120     		movs	r0, #1
 1389              	.LVL122:
 1390              		.loc 1 568 12 view .LVU382
 1391 0008 7047     		bx	lr
 1392              	.LVL123:
 1393              	.L135:
 564:Dsp/widget/wgt_core/UI_Controller.c ****         return false;
 1394              		.loc 1 564 16 view .LVU383
 1395 000a 0020     		movs	r0, #0
 1396              	.LVL124:
 569:Dsp/widget/wgt_core/UI_Controller.c **** }
 1397              		.loc 1 569 1 view .LVU384
 1398 000c 7047     		bx	lr
 1399              		.cfi_endproc
 1400              	.LFE24:
 1402              		.section	.text.UI_SlideBar_Input,"ax",%progbits
ARM GAS  /var/folders/lx/hc4sn_b53233_zkc9xbbl97r0000gp/T//cc29qxiB.s 			page 37


 1403              		.align	1
 1404              		.syntax unified
 1405              		.thumb
 1406              		.thumb_func
 1407              		.fpu fpv4-sp-d16
 1409              	UI_SlideBar_Input:
 1410              	.LVL125:
 1411              	.LFB25:
 570:Dsp/widget/wgt_core/UI_Controller.c **** 
 571:Dsp/widget/wgt_core/UI_Controller.c **** static bool UI_SlideBar_Input(UI_SlideBarObj_TypeDef *Obj, int16_t *step)
 572:Dsp/widget/wgt_core/UI_Controller.c **** {
 1412              		.loc 1 572 1 is_stmt 1 view -0
 1413              		.cfi_startproc
 1414              		@ args = 0, pretend = 0, frame = 0
 1415              		@ frame_needed = 0, uses_anonymous_args = 0
 1416              		@ link register save eliminated.
 573:Dsp/widget/wgt_core/UI_Controller.c ****     float val_tmp = 0;
 1417              		.loc 1 573 5 view .LVU386
 574:Dsp/widget/wgt_core/UI_Controller.c **** 
 575:Dsp/widget/wgt_core/UI_Controller.c ****     if ((Obj == NULL) || (step == NULL))
 1418              		.loc 1 575 5 view .LVU387
 1419              		.loc 1 575 8 is_stmt 0 view .LVU388
 1420 0000 0346     		mov	r3, r0
 1421 0002 90B3     		cbz	r0, .L143
 1422              		.loc 1 575 23 discriminator 1 view .LVU389
 1423 0004 99B3     		cbz	r1, .L144
 576:Dsp/widget/wgt_core/UI_Controller.c ****         return false;
 577:Dsp/widget/wgt_core/UI_Controller.c **** 
 578:Dsp/widget/wgt_core/UI_Controller.c ****     val_tmp = Obj->cur_val + ((*step) * Obj->scale);
 1424              		.loc 1 578 5 is_stmt 1 view .LVU390
 1425              		.loc 1 578 18 is_stmt 0 view .LVU391
 1426 0006 D0F81F20 		ldr	r2, [r0, #31]	@ unaligned
 1427              		.loc 1 578 32 view .LVU392
 1428 000a B1F90000 		ldrsh	r0, [r1]
 1429              	.LVL126:
 1430              		.loc 1 578 32 view .LVU393
 1431 000e 07EE900A 		vmov	s15, r0	@ int
 1432              		.loc 1 578 44 view .LVU394
 1433 0012 D3F81900 		ldr	r0, [r3, #25]	@ unaligned
 1434              		.loc 1 578 39 view .LVU395
 1435 0016 B8EEE77A 		vcvt.f32.s32	s14, s15
 1436 001a 07EE900A 		vmov	s15, r0
 1437 001e 67EE277A 		vmul.f32	s15, s14, s15
 1438              		.loc 1 578 13 view .LVU396
 1439 0022 07EE102A 		vmov	s14, r2
 1440 0026 77EE277A 		vadd.f32	s15, s14, s15
 1441              	.LVL127:
 579:Dsp/widget/wgt_core/UI_Controller.c **** 
 580:Dsp/widget/wgt_core/UI_Controller.c ****     if (val_tmp >= Obj->limit_max)
 1442              		.loc 1 580 5 is_stmt 1 view .LVU397
 1443              		.loc 1 580 23 is_stmt 0 view .LVU398
 1444 002a D3F81520 		ldr	r2, [r3, #21]	@ unaligned
 1445              		.loc 1 580 8 view .LVU399
 1446 002e 07EE102A 		vmov	s14, r2
 1447 0032 B4EEE77A 		vcmpe.f32	s14, s15
 1448 0036 F1EE10FA 		vmrs	APSR_nzcv, FPSCR
 1449 003a 05D8     		bhi	.L147
ARM GAS  /var/folders/lx/hc4sn_b53233_zkc9xbbl97r0000gp/T//cc29qxiB.s 			page 38


 581:Dsp/widget/wgt_core/UI_Controller.c ****     {
 582:Dsp/widget/wgt_core/UI_Controller.c ****         Obj->cur_val = Obj->limit_max;
 1450              		.loc 1 582 9 is_stmt 1 view .LVU400
 1451              		.loc 1 582 22 is_stmt 0 view .LVU401
 1452 003c C3F81F20 		str	r2, [r3, #31]	@ unaligned
 1453              	.L140:
 583:Dsp/widget/wgt_core/UI_Controller.c ****     }
 584:Dsp/widget/wgt_core/UI_Controller.c ****     else if (val_tmp <= Obj->limit_min)
 585:Dsp/widget/wgt_core/UI_Controller.c ****     {
 586:Dsp/widget/wgt_core/UI_Controller.c ****         Obj->cur_val = Obj->limit_min;
 587:Dsp/widget/wgt_core/UI_Controller.c ****     }
 588:Dsp/widget/wgt_core/UI_Controller.c ****     else
 589:Dsp/widget/wgt_core/UI_Controller.c ****         Obj->cur_val = val_tmp;
 590:Dsp/widget/wgt_core/UI_Controller.c **** 
 591:Dsp/widget/wgt_core/UI_Controller.c ****     (*step) = 0;
 1454              		.loc 1 591 5 is_stmt 1 view .LVU402
 1455              		.loc 1 591 13 is_stmt 0 view .LVU403
 1456 0040 0023     		movs	r3, #0
 1457              	.LVL128:
 1458              		.loc 1 591 13 view .LVU404
 1459 0042 0B80     		strh	r3, [r1]	@ movhi
 592:Dsp/widget/wgt_core/UI_Controller.c **** 
 593:Dsp/widget/wgt_core/UI_Controller.c ****     return true;
 1460              		.loc 1 593 5 is_stmt 1 view .LVU405
 1461              		.loc 1 593 12 is_stmt 0 view .LVU406
 1462 0044 0120     		movs	r0, #1
 1463 0046 7047     		bx	lr
 1464              	.LVL129:
 1465              	.L147:
 584:Dsp/widget/wgt_core/UI_Controller.c ****     {
 1466              		.loc 1 584 10 is_stmt 1 view .LVU407
 584:Dsp/widget/wgt_core/UI_Controller.c ****     {
 1467              		.loc 1 584 28 is_stmt 0 view .LVU408
 1468 0048 D3F81120 		ldr	r2, [r3, #17]	@ unaligned
 584:Dsp/widget/wgt_core/UI_Controller.c ****     {
 1469              		.loc 1 584 13 view .LVU409
 1470 004c 07EE102A 		vmov	s14, r2
 1471 0050 B4EEE77A 		vcmpe.f32	s14, s15
 1472 0054 F1EE10FA 		vmrs	APSR_nzcv, FPSCR
 1473 0058 02DB     		blt	.L148
 586:Dsp/widget/wgt_core/UI_Controller.c ****     }
 1474              		.loc 1 586 9 is_stmt 1 view .LVU410
 586:Dsp/widget/wgt_core/UI_Controller.c ****     }
 1475              		.loc 1 586 22 is_stmt 0 view .LVU411
 1476 005a C3F81F20 		str	r2, [r3, #31]	@ unaligned
 1477 005e EFE7     		b	.L140
 1478              	.L148:
 589:Dsp/widget/wgt_core/UI_Controller.c **** 
 1479              		.loc 1 589 9 is_stmt 1 view .LVU412
 589:Dsp/widget/wgt_core/UI_Controller.c **** 
 1480              		.loc 1 589 22 is_stmt 0 view .LVU413
 1481 0060 17EE902A 		vmov	r2, s15
 1482 0064 C3F81F20 		str	r2, [r3, #31]	@ unaligned
 1483 0068 EAE7     		b	.L140
 1484              	.LVL130:
 1485              	.L143:
 576:Dsp/widget/wgt_core/UI_Controller.c **** 
ARM GAS  /var/folders/lx/hc4sn_b53233_zkc9xbbl97r0000gp/T//cc29qxiB.s 			page 39


 1486              		.loc 1 576 16 view .LVU414
 1487 006a 0020     		movs	r0, #0
 1488              	.LVL131:
 576:Dsp/widget/wgt_core/UI_Controller.c **** 
 1489              		.loc 1 576 16 view .LVU415
 1490 006c 7047     		bx	lr
 1491              	.LVL132:
 1492              	.L144:
 576:Dsp/widget/wgt_core/UI_Controller.c **** 
 1493              		.loc 1 576 16 view .LVU416
 1494 006e 0020     		movs	r0, #0
 1495              	.LVL133:
 594:Dsp/widget/wgt_core/UI_Controller.c **** }
 1496              		.loc 1 594 1 view .LVU417
 1497 0070 7047     		bx	lr
 1498              		.cfi_endproc
 1499              	.LFE25:
 1501              		.section	.text.UI_SlideBar_Trigger,"ax",%progbits
 1502              		.align	1
 1503              		.syntax unified
 1504              		.thumb
 1505              		.thumb_func
 1506              		.fpu fpv4-sp-d16
 1508              	UI_SlideBar_Trigger:
 1509              	.LVL134:
 1510              	.LFB26:
 595:Dsp/widget/wgt_core/UI_Controller.c **** 
 596:Dsp/widget/wgt_core/UI_Controller.c **** static bool UI_SlideBar_Trigger(UI_SlideBarObj_TypeDef *Obj)
 597:Dsp/widget/wgt_core/UI_Controller.c **** {
 1511              		.loc 1 597 1 is_stmt 1 view -0
 1512              		.cfi_startproc
 1513              		@ args = 0, pretend = 0, frame = 0
 1514              		@ frame_needed = 0, uses_anonymous_args = 0
 598:Dsp/widget/wgt_core/UI_Controller.c ****     if (Obj == NULL)
 1515              		.loc 1 598 5 view .LVU419
 1516              		.loc 1 598 8 is_stmt 0 view .LVU420
 1517 0000 78B1     		cbz	r0, .L151
 597:Dsp/widget/wgt_core/UI_Controller.c ****     if (Obj == NULL)
 1518              		.loc 1 597 1 view .LVU421
 1519 0002 08B5     		push	{r3, lr}
 1520              	.LCFI26:
 1521              		.cfi_def_cfa_offset 8
 1522              		.cfi_offset 3, -8
 1523              		.cfi_offset 14, -4
 599:Dsp/widget/wgt_core/UI_Controller.c ****         return false;
 600:Dsp/widget/wgt_core/UI_Controller.c **** 
 601:Dsp/widget/wgt_core/UI_Controller.c ****     if (Obj->callback != NULL)
 1524              		.loc 1 601 5 is_stmt 1 view .LVU422
 1525              		.loc 1 601 12 is_stmt 0 view .LVU423
 1526 0004 D0F80D20 		ldr	r2, [r0, #13]	@ unaligned
 1527              		.loc 1 601 8 view .LVU424
 1528 0008 6AB1     		cbz	r2, .L152
 602:Dsp/widget/wgt_core/UI_Controller.c ****         Obj->callback(Obj->cur_val);
 1529              		.loc 1 602 9 is_stmt 1 view .LVU425
 1530              		.loc 1 602 26 is_stmt 0 view .LVU426
 1531 000a D0F81F30 		ldr	r3, [r0, #31]	@ unaligned
 1532 000e 07EE903A 		vmov	s15, r3	@ int
ARM GAS  /var/folders/lx/hc4sn_b53233_zkc9xbbl97r0000gp/T//cc29qxiB.s 			page 40


 1533              		.loc 1 602 9 view .LVU427
 1534 0012 FDEEE77A 		vcvt.s32.f32	s15, s15
 1535 0016 17EE903A 		vmov	r3, s15	@ int
 1536 001a 18B2     		sxth	r0, r3
 1537              	.LVL135:
 1538              		.loc 1 602 9 view .LVU428
 1539 001c 9047     		blx	r2
 1540              	.LVL136:
 603:Dsp/widget/wgt_core/UI_Controller.c **** 
 604:Dsp/widget/wgt_core/UI_Controller.c ****     return true;
 1541              		.loc 1 604 12 view .LVU429
 1542 001e 0120     		movs	r0, #1
 1543              	.L150:
 605:Dsp/widget/wgt_core/UI_Controller.c **** }
 1544              		.loc 1 605 1 view .LVU430
 1545 0020 08BD     		pop	{r3, pc}
 1546              	.LVL137:
 1547              	.L151:
 1548              	.LCFI27:
 1549              		.cfi_def_cfa_offset 0
 1550              		.cfi_restore 3
 1551              		.cfi_restore 14
 599:Dsp/widget/wgt_core/UI_Controller.c **** 
 1552              		.loc 1 599 16 view .LVU431
 1553 0022 0020     		movs	r0, #0
 1554              	.LVL138:
 1555              		.loc 1 605 1 view .LVU432
 1556 0024 7047     		bx	lr
 1557              	.LVL139:
 1558              	.L152:
 1559              	.LCFI28:
 1560              		.cfi_def_cfa_offset 8
 1561              		.cfi_offset 3, -8
 1562              		.cfi_offset 14, -4
 604:Dsp/widget/wgt_core/UI_Controller.c **** }
 1563              		.loc 1 604 12 view .LVU433
 1564 0026 0120     		movs	r0, #1
 1565              	.LVL140:
 604:Dsp/widget/wgt_core/UI_Controller.c **** }
 1566              		.loc 1 604 12 view .LVU434
 1567 0028 FAE7     		b	.L150
 1568              		.cfi_endproc
 1569              	.LFE26:
 1571              		.section	.text.UI_SlideBar_SetSelect,"ax",%progbits
 1572              		.align	1
 1573              		.syntax unified
 1574              		.thumb
 1575              		.thumb_func
 1576              		.fpu fpv4-sp-d16
 1578              	UI_SlideBar_SetSelect:
 1579              	.LVL141:
 1580              	.LFB28:
 606:Dsp/widget/wgt_core/UI_Controller.c **** 
 607:Dsp/widget/wgt_core/UI_Controller.c **** static bool UI_SlideBar_CTL(UI_SlideBarObj_TypeDef *Obj)
 608:Dsp/widget/wgt_core/UI_Controller.c **** {
 609:Dsp/widget/wgt_core/UI_Controller.c ****     int16_t Block_CoordX = 0;
 610:Dsp/widget/wgt_core/UI_Controller.c ****     int16_t Block_CoordY = 0;
ARM GAS  /var/folders/lx/hc4sn_b53233_zkc9xbbl97r0000gp/T//cc29qxiB.s 			page 41


 611:Dsp/widget/wgt_core/UI_Controller.c ****     int16_t input_trip = 0;
 612:Dsp/widget/wgt_core/UI_Controller.c ****     int16_t str_y = Obj->Gen_Data.y;
 613:Dsp/widget/wgt_core/UI_Controller.c **** 
 614:Dsp/widget/wgt_core/UI_Controller.c ****     if ((Obj == NULL) ||
 615:Dsp/widget/wgt_core/UI_Controller.c ****         (UI_DspInterface.draw_str == NULL) ||
 616:Dsp/widget/wgt_core/UI_Controller.c ****         (UI_DspInterface.fill_rectangle == NULL))
 617:Dsp/widget/wgt_core/UI_Controller.c ****         return false;
 618:Dsp/widget/wgt_core/UI_Controller.c **** 
 619:Dsp/widget/wgt_core/UI_Controller.c ****     if (base_font == Font_8)
 620:Dsp/widget/wgt_core/UI_Controller.c ****         str_y += 1;
 621:Dsp/widget/wgt_core/UI_Controller.c **** 
 622:Dsp/widget/wgt_core/UI_Controller.c ****     input_trip = Obj->limit_max - Obj->limit_min;
 623:Dsp/widget/wgt_core/UI_Controller.c **** 
 624:Dsp/widget/wgt_core/UI_Controller.c ****     UI_DspInterface.draw_str(base_font, Obj->Gen_Data.label, Obj->Gen_Data.x + 3, str_y, true);
 625:Dsp/widget/wgt_core/UI_Controller.c **** 
 626:Dsp/widget/wgt_core/UI_Controller.c ****     if (Obj->mode == SliderBar_Horizon_Mode)
 627:Dsp/widget/wgt_core/UI_Controller.c ****     {
 628:Dsp/widget/wgt_core/UI_Controller.c ****         if (Obj->BarCoord_X == 0)
 629:Dsp/widget/wgt_core/UI_Controller.c ****         {
 630:Dsp/widget/wgt_core/UI_Controller.c ****             Obj->BarCoord_X = Obj->Gen_Data.x + strlen(Obj->Gen_Data.label) * STR_DIS + DEFAULT_SLI
 631:Dsp/widget/wgt_core/UI_Controller.c ****         }
 632:Dsp/widget/wgt_core/UI_Controller.c **** 
 633:Dsp/widget/wgt_core/UI_Controller.c ****         if (Obj->BarCoord_Y == 0)
 634:Dsp/widget/wgt_core/UI_Controller.c ****         {
 635:Dsp/widget/wgt_core/UI_Controller.c ****             Obj->BarCoord_Y = Obj->Gen_Data.y + 5;
 636:Dsp/widget/wgt_core/UI_Controller.c ****         }
 637:Dsp/widget/wgt_core/UI_Controller.c **** 
 638:Dsp/widget/wgt_core/UI_Controller.c ****         Block_CoordX = Obj->BarCoord_X;
 639:Dsp/widget/wgt_core/UI_Controller.c ****         Block_CoordX += (Obj->cur_val - Obj->limit_min) / ((float)(input_trip)) * (DEFAULT_SLIDERBA
 640:Dsp/widget/wgt_core/UI_Controller.c **** 
 641:Dsp/widget/wgt_core/UI_Controller.c ****         UI_DspInterface.fill_rectangle(Obj->BarCoord_X, Obj->BarCoord_Y, DEFAULT_SLIDERBAR_LEN, DEF
 642:Dsp/widget/wgt_core/UI_Controller.c **** 
 643:Dsp/widget/wgt_core/UI_Controller.c ****         Block_CoordY = Obj->Gen_Data.y + 3;
 644:Dsp/widget/wgt_core/UI_Controller.c ****         UI_DspInterface.fill_rectangle(Block_CoordX, Block_CoordY, DEFAULT_SLIDERBAR_BLOCK_WIDTH, D
 645:Dsp/widget/wgt_core/UI_Controller.c ****         UI_DspInterface.fill_rectangle(Block_CoordX, Block_CoordY + (DEFAULT_SLIDERBAR_BLOCK_HIGH /
 646:Dsp/widget/wgt_core/UI_Controller.c ****     }
 647:Dsp/widget/wgt_core/UI_Controller.c ****     else if (Obj->mode == SliderBar_Vertical_Mode)
 648:Dsp/widget/wgt_core/UI_Controller.c ****     {
 649:Dsp/widget/wgt_core/UI_Controller.c ****     }
 650:Dsp/widget/wgt_core/UI_Controller.c ****     else
 651:Dsp/widget/wgt_core/UI_Controller.c ****         return false;
 652:Dsp/widget/wgt_core/UI_Controller.c **** 
 653:Dsp/widget/wgt_core/UI_Controller.c ****     return true;
 654:Dsp/widget/wgt_core/UI_Controller.c **** }
 655:Dsp/widget/wgt_core/UI_Controller.c **** 
 656:Dsp/widget/wgt_core/UI_Controller.c **** static void UI_SlideBar_SetSelect(UI_SlideBarObj_TypeDef *Obj, bool select)
 657:Dsp/widget/wgt_core/UI_Controller.c **** {
 1581              		.loc 1 657 1 is_stmt 1 view -0
 1582              		.cfi_startproc
 1583              		@ args = 0, pretend = 0, frame = 0
 1584              		@ frame_needed = 0, uses_anonymous_args = 0
 1585              		@ link register save eliminated.
 658:Dsp/widget/wgt_core/UI_Controller.c ****     if (Obj == NULL)
 1586              		.loc 1 658 5 view .LVU436
 1587              		.loc 1 658 8 is_stmt 0 view .LVU437
 1588 0000 10B1     		cbz	r0, .L157
 659:Dsp/widget/wgt_core/UI_Controller.c ****         return;
ARM GAS  /var/folders/lx/hc4sn_b53233_zkc9xbbl97r0000gp/T//cc29qxiB.s 			page 42


 660:Dsp/widget/wgt_core/UI_Controller.c **** 
 661:Dsp/widget/wgt_core/UI_Controller.c ****     Obj->is_selected = true;
 1589              		.loc 1 661 5 is_stmt 1 view .LVU438
 1590              		.loc 1 661 22 is_stmt 0 view .LVU439
 1591 0002 0122     		movs	r2, #1
 1592 0004 80F82320 		strb	r2, [r0, #35]
 1593              	.L157:
 662:Dsp/widget/wgt_core/UI_Controller.c **** }
 1594              		.loc 1 662 1 view .LVU440
 1595 0008 7047     		bx	lr
 1596              		.cfi_endproc
 1597              	.LFE28:
 1599              		.section	.text.UI_SlideBar_IsSelected,"ax",%progbits
 1600              		.align	1
 1601              		.syntax unified
 1602              		.thumb
 1603              		.thumb_func
 1604              		.fpu fpv4-sp-d16
 1606              	UI_SlideBar_IsSelected:
 1607              	.LVL142:
 1608              	.LFB29:
 663:Dsp/widget/wgt_core/UI_Controller.c **** 
 664:Dsp/widget/wgt_core/UI_Controller.c **** static bool UI_SlideBar_IsSelected(UI_SlideBarObj_TypeDef *Obj)
 665:Dsp/widget/wgt_core/UI_Controller.c **** {
 1609              		.loc 1 665 1 is_stmt 1 view -0
 1610              		.cfi_startproc
 1611              		@ args = 0, pretend = 0, frame = 0
 1612              		@ frame_needed = 0, uses_anonymous_args = 0
 1613              		@ link register save eliminated.
 666:Dsp/widget/wgt_core/UI_Controller.c ****     if (Obj == NULL)
 1614              		.loc 1 666 5 view .LVU442
 1615              		.loc 1 666 8 is_stmt 0 view .LVU443
 1616 0000 10B1     		cbz	r0, .L161
 667:Dsp/widget/wgt_core/UI_Controller.c ****         return false;
 668:Dsp/widget/wgt_core/UI_Controller.c **** 
 669:Dsp/widget/wgt_core/UI_Controller.c ****     return Obj->is_selected;
 1617              		.loc 1 669 5 is_stmt 1 view .LVU444
 1618              		.loc 1 669 15 is_stmt 0 view .LVU445
 1619 0002 90F82300 		ldrb	r0, [r0, #35]	@ zero_extendqisi2
 1620              	.LVL143:
 1621              		.loc 1 669 15 view .LVU446
 1622 0006 7047     		bx	lr
 1623              	.LVL144:
 1624              	.L161:
 667:Dsp/widget/wgt_core/UI_Controller.c ****         return false;
 1625              		.loc 1 667 16 view .LVU447
 1626 0008 0020     		movs	r0, #0
 1627              	.LVL145:
 670:Dsp/widget/wgt_core/UI_Controller.c **** }
 1628              		.loc 1 670 1 view .LVU448
 1629 000a 7047     		bx	lr
 1630              		.cfi_endproc
 1631              	.LFE29:
 1633              		.section	.text.UI_ProcessBar_Init,"ax",%progbits
 1634              		.align	1
 1635              		.syntax unified
 1636              		.thumb
ARM GAS  /var/folders/lx/hc4sn_b53233_zkc9xbbl97r0000gp/T//cc29qxiB.s 			page 43


 1637              		.thumb_func
 1638              		.fpu fpv4-sp-d16
 1640              	UI_ProcessBar_Init:
 1641              	.LVL146:
 1642              	.LFB30:
 671:Dsp/widget/wgt_core/UI_Controller.c **** 
 672:Dsp/widget/wgt_core/UI_Controller.c **** static bool UI_ProcessBar_Init(UI_ProcessBarObj_TypeDef *Obj, UI_ProcessBar_DspType_List dsp_type, 
 673:Dsp/widget/wgt_core/UI_Controller.c **** {
 1643              		.loc 1 673 1 is_stmt 1 view -0
 1644              		.cfi_startproc
 1645              		@ args = 16, pretend = 0, frame = 0
 1646              		@ frame_needed = 0, uses_anonymous_args = 0
 1647              		.loc 1 673 1 is_stmt 0 view .LVU450
 1648 0000 F8B5     		push	{r3, r4, r5, r6, r7, lr}
 1649              	.LCFI29:
 1650              		.cfi_def_cfa_offset 24
 1651              		.cfi_offset 3, -24
 1652              		.cfi_offset 4, -20
 1653              		.cfi_offset 5, -16
 1654              		.cfi_offset 6, -12
 1655              		.cfi_offset 7, -8
 1656              		.cfi_offset 14, -4
 1657 0002 089F     		ldr	r7, [sp, #32]
 1658 0004 099D     		ldr	r5, [sp, #36]
 674:Dsp/widget/wgt_core/UI_Controller.c ****     if ((Obj == NULL) || (min > max))
 1659              		.loc 1 674 5 is_stmt 1 view .LVU451
 1660              		.loc 1 674 8 is_stmt 0 view .LVU452
 1661 0006 B0B3     		cbz	r0, .L167
 1662 0008 0E46     		mov	r6, r1
 1663 000a 1146     		mov	r1, r2
 1664              	.LVL147:
 1665              		.loc 1 674 8 view .LVU453
 1666 000c 1A46     		mov	r2, r3
 1667              	.LVL148:
 1668              		.loc 1 674 8 view .LVU454
 1669 000e 0446     		mov	r4, r0
 1670              		.loc 1 674 23 discriminator 1 view .LVU455
 1671 0010 AF42     		cmp	r7, r5
 1672 0012 01DD     		ble	.L170
 675:Dsp/widget/wgt_core/UI_Controller.c ****         return false;
 1673              		.loc 1 675 16 view .LVU456
 1674 0014 0020     		movs	r0, #0
 1675              	.LVL149:
 1676              	.L163:
 676:Dsp/widget/wgt_core/UI_Controller.c **** 
 677:Dsp/widget/wgt_core/UI_Controller.c ****     UI_GenData_Init(&Obj->Gen_Data, label, x, y);
 678:Dsp/widget/wgt_core/UI_Controller.c **** 
 679:Dsp/widget/wgt_core/UI_Controller.c ****     Obj->width = width;
 680:Dsp/widget/wgt_core/UI_Controller.c **** 
 681:Dsp/widget/wgt_core/UI_Controller.c ****     switch (base_font)
 682:Dsp/widget/wgt_core/UI_Controller.c ****     {
 683:Dsp/widget/wgt_core/UI_Controller.c ****     case Font_8:
 684:Dsp/widget/wgt_core/UI_Controller.c ****         Obj->height = base_font + 6;
 685:Dsp/widget/wgt_core/UI_Controller.c ****         break;
 686:Dsp/widget/wgt_core/UI_Controller.c **** 
 687:Dsp/widget/wgt_core/UI_Controller.c ****     case Font_12:
 688:Dsp/widget/wgt_core/UI_Controller.c ****     case Font_16:
ARM GAS  /var/folders/lx/hc4sn_b53233_zkc9xbbl97r0000gp/T//cc29qxiB.s 			page 44


 689:Dsp/widget/wgt_core/UI_Controller.c ****         /* need modify */
 690:Dsp/widget/wgt_core/UI_Controller.c ****         Obj->height = base_font + 6;
 691:Dsp/widget/wgt_core/UI_Controller.c ****         break;
 692:Dsp/widget/wgt_core/UI_Controller.c **** 
 693:Dsp/widget/wgt_core/UI_Controller.c ****     default:
 694:Dsp/widget/wgt_core/UI_Controller.c ****         Obj->height = base_font + 6;
 695:Dsp/widget/wgt_core/UI_Controller.c ****         break;
 696:Dsp/widget/wgt_core/UI_Controller.c ****     }
 697:Dsp/widget/wgt_core/UI_Controller.c **** 
 698:Dsp/widget/wgt_core/UI_Controller.c ****     Obj->height = base_font + 6;
 699:Dsp/widget/wgt_core/UI_Controller.c **** 
 700:Dsp/widget/wgt_core/UI_Controller.c ****     Obj->cur_val = 0;
 701:Dsp/widget/wgt_core/UI_Controller.c ****     Obj->max = max;
 702:Dsp/widget/wgt_core/UI_Controller.c ****     Obj->min = min;
 703:Dsp/widget/wgt_core/UI_Controller.c ****     Obj->range = max - min;
 704:Dsp/widget/wgt_core/UI_Controller.c **** 
 705:Dsp/widget/wgt_core/UI_Controller.c ****     Obj->percent = 0.0;
 706:Dsp/widget/wgt_core/UI_Controller.c **** 
 707:Dsp/widget/wgt_core/UI_Controller.c ****     Obj->Dsp_Type = dsp_type;
 708:Dsp/widget/wgt_core/UI_Controller.c ****     Obj->Mv_Dir = UI_ProcBar_GrothDir_Default;
 709:Dsp/widget/wgt_core/UI_Controller.c **** 
 710:Dsp/widget/wgt_core/UI_Controller.c ****     return true;
 711:Dsp/widget/wgt_core/UI_Controller.c **** }
 1677              		.loc 1 711 1 view .LVU457
 1678 0016 F8BD     		pop	{r3, r4, r5, r6, r7, pc}
 1679              	.LVL150:
 1680              	.L170:
 677:Dsp/widget/wgt_core/UI_Controller.c **** 
 1681              		.loc 1 677 5 is_stmt 1 view .LVU458
 1682 0018 BDF91830 		ldrsh	r3, [sp, #24]
 1683              	.LVL151:
 677:Dsp/widget/wgt_core/UI_Controller.c **** 
 1684              		.loc 1 677 5 is_stmt 0 view .LVU459
 1685 001c FFF7FEFF 		bl	UI_GenData_Init
 1686              	.LVL152:
 679:Dsp/widget/wgt_core/UI_Controller.c **** 
 1687              		.loc 1 679 5 is_stmt 1 view .LVU460
 679:Dsp/widget/wgt_core/UI_Controller.c **** 
 1688              		.loc 1 679 16 is_stmt 0 view .LVU461
 1689 0020 9DF81C30 		ldrb	r3, [sp, #28]	@ zero_extendqisi2
 1690 0024 84F82030 		strb	r3, [r4, #32]
 681:Dsp/widget/wgt_core/UI_Controller.c ****     {
 1691              		.loc 1 681 5 is_stmt 1 view .LVU462
 1692 0028 144B     		ldr	r3, .L172
 1693 002a 1B78     		ldrb	r3, [r3]	@ zero_extendqisi2
 1694 002c 0C2B     		cmp	r3, #12
 1695 002e 1ED0     		beq	.L164
 1696 0030 102B     		cmp	r3, #16
 1697 0032 1CD0     		beq	.L164
 1698 0034 082B     		cmp	r3, #8
 1699 0036 03D0     		beq	.L171
 694:Dsp/widget/wgt_core/UI_Controller.c ****         break;
 1700              		.loc 1 694 9 view .LVU463
 694:Dsp/widget/wgt_core/UI_Controller.c ****         break;
 1701              		.loc 1 694 33 is_stmt 0 view .LVU464
 1702 0038 9A1D     		adds	r2, r3, #6
 694:Dsp/widget/wgt_core/UI_Controller.c ****         break;
ARM GAS  /var/folders/lx/hc4sn_b53233_zkc9xbbl97r0000gp/T//cc29qxiB.s 			page 45


 1703              		.loc 1 694 21 view .LVU465
 1704 003a 84F82120 		strb	r2, [r4, #33]
 695:Dsp/widget/wgt_core/UI_Controller.c ****     }
 1705              		.loc 1 695 9 is_stmt 1 view .LVU466
 1706 003e 02E0     		b	.L166
 1707              	.L171:
 684:Dsp/widget/wgt_core/UI_Controller.c ****         break;
 1708              		.loc 1 684 9 view .LVU467
 684:Dsp/widget/wgt_core/UI_Controller.c ****         break;
 1709              		.loc 1 684 33 is_stmt 0 view .LVU468
 1710 0040 9A1D     		adds	r2, r3, #6
 684:Dsp/widget/wgt_core/UI_Controller.c ****         break;
 1711              		.loc 1 684 21 view .LVU469
 1712 0042 84F82120 		strb	r2, [r4, #33]
 685:Dsp/widget/wgt_core/UI_Controller.c **** 
 1713              		.loc 1 685 9 is_stmt 1 view .LVU470
 1714              	.L166:
 698:Dsp/widget/wgt_core/UI_Controller.c **** 
 1715              		.loc 1 698 5 view .LVU471
 698:Dsp/widget/wgt_core/UI_Controller.c **** 
 1716              		.loc 1 698 29 is_stmt 0 view .LVU472
 1717 0046 0633     		adds	r3, r3, #6
 698:Dsp/widget/wgt_core/UI_Controller.c **** 
 1718              		.loc 1 698 17 view .LVU473
 1719 0048 84F82130 		strb	r3, [r4, #33]
 700:Dsp/widget/wgt_core/UI_Controller.c ****     Obj->max = max;
 1720              		.loc 1 700 5 is_stmt 1 view .LVU474
 700:Dsp/widget/wgt_core/UI_Controller.c ****     Obj->max = max;
 1721              		.loc 1 700 18 is_stmt 0 view .LVU475
 1722 004c 0023     		movs	r3, #0
 1723 004e 2377     		strb	r3, [r4, #28]
 1724 0050 6377     		strb	r3, [r4, #29]
 1725 0052 A377     		strb	r3, [r4, #30]
 1726 0054 E377     		strb	r3, [r4, #31]
 701:Dsp/widget/wgt_core/UI_Controller.c ****     Obj->min = min;
 1727              		.loc 1 701 5 is_stmt 1 view .LVU476
 701:Dsp/widget/wgt_core/UI_Controller.c ****     Obj->min = min;
 1728              		.loc 1 701 14 is_stmt 0 view .LVU477
 1729 0056 6561     		str	r5, [r4, #20]	@ unaligned
 702:Dsp/widget/wgt_core/UI_Controller.c ****     Obj->range = max - min;
 1730              		.loc 1 702 5 is_stmt 1 view .LVU478
 702:Dsp/widget/wgt_core/UI_Controller.c ****     Obj->range = max - min;
 1731              		.loc 1 702 14 is_stmt 0 view .LVU479
 1732 0058 2761     		str	r7, [r4, #16]	@ unaligned
 703:Dsp/widget/wgt_core/UI_Controller.c **** 
 1733              		.loc 1 703 5 is_stmt 1 view .LVU480
 703:Dsp/widget/wgt_core/UI_Controller.c **** 
 1734              		.loc 1 703 22 is_stmt 0 view .LVU481
 1735 005a ED1B     		subs	r5, r5, r7
 703:Dsp/widget/wgt_core/UI_Controller.c **** 
 1736              		.loc 1 703 16 view .LVU482
 1737 005c A561     		str	r5, [r4, #24]	@ unaligned
 705:Dsp/widget/wgt_core/UI_Controller.c **** 
 1738              		.loc 1 705 5 is_stmt 1 view .LVU483
 705:Dsp/widget/wgt_core/UI_Controller.c **** 
 1739              		.loc 1 705 18 is_stmt 0 view .LVU484
 1740 005e 0022     		movs	r2, #0
ARM GAS  /var/folders/lx/hc4sn_b53233_zkc9xbbl97r0000gp/T//cc29qxiB.s 			page 46


 1741 0060 E260     		str	r2, [r4, #12]	@ unaligned
 707:Dsp/widget/wgt_core/UI_Controller.c ****     Obj->Mv_Dir = UI_ProcBar_GrothDir_Default;
 1742              		.loc 1 707 5 is_stmt 1 view .LVU485
 707:Dsp/widget/wgt_core/UI_Controller.c ****     Obj->Mv_Dir = UI_ProcBar_GrothDir_Default;
 1743              		.loc 1 707 19 is_stmt 0 view .LVU486
 1744 0062 84F82260 		strb	r6, [r4, #34]
 708:Dsp/widget/wgt_core/UI_Controller.c **** 
 1745              		.loc 1 708 5 is_stmt 1 view .LVU487
 708:Dsp/widget/wgt_core/UI_Controller.c **** 
 1746              		.loc 1 708 17 is_stmt 0 view .LVU488
 1747 0066 84F82330 		strb	r3, [r4, #35]
 710:Dsp/widget/wgt_core/UI_Controller.c **** }
 1748              		.loc 1 710 5 is_stmt 1 view .LVU489
 710:Dsp/widget/wgt_core/UI_Controller.c **** }
 1749              		.loc 1 710 12 is_stmt 0 view .LVU490
 1750 006a 0120     		movs	r0, #1
 1751 006c D3E7     		b	.L163
 1752              	.L164:
 690:Dsp/widget/wgt_core/UI_Controller.c ****         break;
 1753              		.loc 1 690 9 is_stmt 1 view .LVU491
 690:Dsp/widget/wgt_core/UI_Controller.c ****         break;
 1754              		.loc 1 690 33 is_stmt 0 view .LVU492
 1755 006e 9A1D     		adds	r2, r3, #6
 690:Dsp/widget/wgt_core/UI_Controller.c ****         break;
 1756              		.loc 1 690 21 view .LVU493
 1757 0070 84F82120 		strb	r2, [r4, #33]
 691:Dsp/widget/wgt_core/UI_Controller.c **** 
 1758              		.loc 1 691 9 is_stmt 1 view .LVU494
 1759 0074 E7E7     		b	.L166
 1760              	.LVL153:
 1761              	.L167:
 675:Dsp/widget/wgt_core/UI_Controller.c **** 
 1762              		.loc 1 675 16 is_stmt 0 view .LVU495
 1763 0076 0020     		movs	r0, #0
 1764              	.LVL154:
 675:Dsp/widget/wgt_core/UI_Controller.c **** 
 1765              		.loc 1 675 16 view .LVU496
 1766 0078 CDE7     		b	.L163
 1767              	.L173:
 1768 007a 00BF     		.align	2
 1769              	.L172:
 1770 007c 00000000 		.word	.LANCHOR2
 1771              		.cfi_endproc
 1772              	.LFE30:
 1774              		.section	.text.UI_ProcessBar_SetDspDir,"ax",%progbits
 1775              		.align	1
 1776              		.syntax unified
 1777              		.thumb
 1778              		.thumb_func
 1779              		.fpu fpv4-sp-d16
 1781              	UI_ProcessBar_SetDspDir:
 1782              	.LVL155:
 1783              	.LFB31:
 712:Dsp/widget/wgt_core/UI_Controller.c **** 
 713:Dsp/widget/wgt_core/UI_Controller.c **** static bool UI_ProcessBar_SetDspDir(UI_ProcessBarObj_TypeDef *Obj, UI_ProcessBar_MoveDir_TypeDef Di
 714:Dsp/widget/wgt_core/UI_Controller.c **** {
 1784              		.loc 1 714 1 is_stmt 1 view -0
ARM GAS  /var/folders/lx/hc4sn_b53233_zkc9xbbl97r0000gp/T//cc29qxiB.s 			page 47


 1785              		.cfi_startproc
 1786              		@ args = 0, pretend = 0, frame = 0
 1787              		@ frame_needed = 0, uses_anonymous_args = 0
 1788              		@ link register save eliminated.
 715:Dsp/widget/wgt_core/UI_Controller.c ****     if (Obj == NULL)
 1789              		.loc 1 715 5 view .LVU498
 1790              		.loc 1 715 8 is_stmt 0 view .LVU499
 1791 0000 50B1     		cbz	r0, .L177
 716:Dsp/widget/wgt_core/UI_Controller.c ****         return false;
 717:Dsp/widget/wgt_core/UI_Controller.c **** 
 718:Dsp/widget/wgt_core/UI_Controller.c ****     if ((Dir > UI_ProcBar_GrothFrom_Mid) || (Dir < 0))
 1792              		.loc 1 718 5 is_stmt 1 view .LVU500
 1793              		.loc 1 718 8 is_stmt 0 view .LVU501
 1794 0002 0129     		cmp	r1, #1
 1795 0004 04D9     		bls	.L176
 719:Dsp/widget/wgt_core/UI_Controller.c ****         Obj->Mv_Dir = UI_ProcBar_GrothDir_Default;
 1796              		.loc 1 719 9 is_stmt 1 view .LVU502
 1797              		.loc 1 719 21 is_stmt 0 view .LVU503
 1798 0006 0022     		movs	r2, #0
 1799 0008 80F82320 		strb	r2, [r0, #35]
 720:Dsp/widget/wgt_core/UI_Controller.c ****     else
 721:Dsp/widget/wgt_core/UI_Controller.c ****         Obj->Mv_Dir = Dir;
 722:Dsp/widget/wgt_core/UI_Controller.c **** 
 723:Dsp/widget/wgt_core/UI_Controller.c ****     return true;
 1800              		.loc 1 723 12 view .LVU504
 1801 000c 0120     		movs	r0, #1
 1802              	.LVL156:
 1803              		.loc 1 723 12 view .LVU505
 1804 000e 7047     		bx	lr
 1805              	.LVL157:
 1806              	.L176:
 721:Dsp/widget/wgt_core/UI_Controller.c **** 
 1807              		.loc 1 721 9 is_stmt 1 view .LVU506
 721:Dsp/widget/wgt_core/UI_Controller.c **** 
 1808              		.loc 1 721 21 is_stmt 0 view .LVU507
 1809 0010 80F82310 		strb	r1, [r0, #35]
 1810              		.loc 1 723 12 view .LVU508
 1811 0014 0120     		movs	r0, #1
 1812              	.LVL158:
 1813              		.loc 1 723 12 view .LVU509
 1814 0016 7047     		bx	lr
 1815              	.LVL159:
 1816              	.L177:
 716:Dsp/widget/wgt_core/UI_Controller.c **** 
 1817              		.loc 1 716 16 view .LVU510
 1818 0018 0020     		movs	r0, #0
 1819              	.LVL160:
 724:Dsp/widget/wgt_core/UI_Controller.c **** }
 1820              		.loc 1 724 1 view .LVU511
 1821 001a 7047     		bx	lr
 1822              		.cfi_endproc
 1823              	.LFE31:
 1825              		.section	.text.UI_ProcessBar_SetCurVal,"ax",%progbits
 1826              		.align	1
 1827              		.syntax unified
 1828              		.thumb
 1829              		.thumb_func
ARM GAS  /var/folders/lx/hc4sn_b53233_zkc9xbbl97r0000gp/T//cc29qxiB.s 			page 48


 1830              		.fpu fpv4-sp-d16
 1832              	UI_ProcessBar_SetCurVal:
 1833              	.LVL161:
 1834              	.LFB32:
 725:Dsp/widget/wgt_core/UI_Controller.c **** 
 726:Dsp/widget/wgt_core/UI_Controller.c **** static bool UI_ProcessBar_SetCurVal(UI_ProcessBarObj_TypeDef *Obj, int32_t val)
 727:Dsp/widget/wgt_core/UI_Controller.c **** {
 1835              		.loc 1 727 1 is_stmt 1 view -0
 1836              		.cfi_startproc
 1837              		@ args = 0, pretend = 0, frame = 0
 1838              		@ frame_needed = 0, uses_anonymous_args = 0
 1839              		@ link register save eliminated.
 728:Dsp/widget/wgt_core/UI_Controller.c ****     if (Obj == NULL)
 1840              		.loc 1 728 5 view .LVU513
 1841              		.loc 1 728 8 is_stmt 0 view .LVU514
 1842 0000 F0B1     		cbz	r0, .L183
 727:Dsp/widget/wgt_core/UI_Controller.c ****     if (Obj == NULL)
 1843              		.loc 1 727 1 view .LVU515
 1844 0002 10B4     		push	{r4}
 1845              	.LCFI30:
 1846              		.cfi_def_cfa_offset 4
 1847              		.cfi_offset 4, -4
 1848 0004 0346     		mov	r3, r0
 729:Dsp/widget/wgt_core/UI_Controller.c ****         return false;
 730:Dsp/widget/wgt_core/UI_Controller.c **** 
 731:Dsp/widget/wgt_core/UI_Controller.c ****     int32_t range = Obj->max - Obj->min;
 1849              		.loc 1 731 5 is_stmt 1 view .LVU516
 1850              		.loc 1 731 24 is_stmt 0 view .LVU517
 1851 0006 4269     		ldr	r2, [r0, #20]	@ unaligned
 1852              		.loc 1 731 35 view .LVU518
 1853 0008 0069     		ldr	r0, [r0, #16]	@ unaligned
 1854              	.LVL162:
 1855              		.loc 1 731 13 view .LVU519
 1856 000a 141A     		subs	r4, r2, r0
 1857 000c 07EE104A 		vmov	s14, r4	@ int
 1858              	.LVL163:
 732:Dsp/widget/wgt_core/UI_Controller.c **** 
 733:Dsp/widget/wgt_core/UI_Controller.c ****     if (val >= Obj->max)
 1859              		.loc 1 733 5 is_stmt 1 view .LVU520
 1860              		.loc 1 733 8 is_stmt 0 view .LVU521
 1861 0010 8A42     		cmp	r2, r1
 1862 0012 0FDC     		bgt	.L180
 734:Dsp/widget/wgt_core/UI_Controller.c ****         Obj->cur_val = Obj->max;
 1863              		.loc 1 734 9 is_stmt 1 view .LVU522
 1864              		.loc 1 734 22 is_stmt 0 view .LVU523
 1865 0014 DA61     		str	r2, [r3, #28]	@ unaligned
 1866              	.L181:
 735:Dsp/widget/wgt_core/UI_Controller.c ****     else if (val <= Obj->min)
 736:Dsp/widget/wgt_core/UI_Controller.c ****         Obj->cur_val = Obj->min;
 737:Dsp/widget/wgt_core/UI_Controller.c ****     else
 738:Dsp/widget/wgt_core/UI_Controller.c ****         Obj->cur_val = val;
 739:Dsp/widget/wgt_core/UI_Controller.c **** 
 740:Dsp/widget/wgt_core/UI_Controller.c ****     Obj->percent = ((float)val) / range;
 1867              		.loc 1 740 5 is_stmt 1 view .LVU524
 1868              		.loc 1 740 21 is_stmt 0 view .LVU525
 1869 0016 07EE901A 		vmov	s15, r1	@ int
 1870 001a F8EEE77A 		vcvt.f32.s32	s15, s15
ARM GAS  /var/folders/lx/hc4sn_b53233_zkc9xbbl97r0000gp/T//cc29qxiB.s 			page 49


 1871              		.loc 1 740 33 view .LVU526
 1872 001e B8EEC77A 		vcvt.f32.s32	s14, s14
 1873              		.loc 1 740 18 view .LVU527
 1874 0022 C7EE877A 		vdiv.f32	s15, s15, s14
 1875 0026 17EE902A 		vmov	r2, s15
 1876 002a DA60     		str	r2, [r3, #12]	@ unaligned
 741:Dsp/widget/wgt_core/UI_Controller.c **** 
 742:Dsp/widget/wgt_core/UI_Controller.c ****     return true;
 1877              		.loc 1 742 5 is_stmt 1 view .LVU528
 1878              		.loc 1 742 12 is_stmt 0 view .LVU529
 1879 002c 0120     		movs	r0, #1
 743:Dsp/widget/wgt_core/UI_Controller.c **** }
 1880              		.loc 1 743 1 view .LVU530
 1881 002e 5DF8044B 		ldr	r4, [sp], #4
 1882              	.LCFI31:
 1883              		.cfi_remember_state
 1884              		.cfi_restore 4
 1885              		.cfi_def_cfa_offset 0
 1886              	.LVL164:
 1887              		.loc 1 743 1 view .LVU531
 1888 0032 7047     		bx	lr
 1889              	.LVL165:
 1890              	.L180:
 1891              	.LCFI32:
 1892              		.cfi_restore_state
 735:Dsp/widget/wgt_core/UI_Controller.c ****     else if (val <= Obj->min)
 1893              		.loc 1 735 10 is_stmt 1 view .LVU532
 735:Dsp/widget/wgt_core/UI_Controller.c ****     else if (val <= Obj->min)
 1894              		.loc 1 735 13 is_stmt 0 view .LVU533
 1895 0034 8842     		cmp	r0, r1
 1896 0036 01DB     		blt	.L182
 736:Dsp/widget/wgt_core/UI_Controller.c ****     else
 1897              		.loc 1 736 9 is_stmt 1 view .LVU534
 736:Dsp/widget/wgt_core/UI_Controller.c ****     else
 1898              		.loc 1 736 22 is_stmt 0 view .LVU535
 1899 0038 D861     		str	r0, [r3, #28]	@ unaligned
 1900 003a ECE7     		b	.L181
 1901              	.L182:
 738:Dsp/widget/wgt_core/UI_Controller.c **** 
 1902              		.loc 1 738 9 is_stmt 1 view .LVU536
 738:Dsp/widget/wgt_core/UI_Controller.c **** 
 1903              		.loc 1 738 22 is_stmt 0 view .LVU537
 1904 003c D961     		str	r1, [r3, #28]	@ unaligned
 1905 003e EAE7     		b	.L181
 1906              	.LVL166:
 1907              	.L183:
 1908              	.LCFI33:
 1909              		.cfi_def_cfa_offset 0
 1910              		.cfi_restore 4
 729:Dsp/widget/wgt_core/UI_Controller.c **** 
 1911              		.loc 1 729 16 view .LVU538
 1912 0040 0020     		movs	r0, #0
 1913              	.LVL167:
 1914              		.loc 1 743 1 view .LVU539
 1915 0042 7047     		bx	lr
 1916              		.cfi_endproc
 1917              	.LFE32:
ARM GAS  /var/folders/lx/hc4sn_b53233_zkc9xbbl97r0000gp/T//cc29qxiB.s 			page 50


 1919              		.section	.text.UI_ProcessBar_Move,"ax",%progbits
 1920              		.align	1
 1921              		.syntax unified
 1922              		.thumb
 1923              		.thumb_func
 1924              		.fpu fpv4-sp-d16
 1926              	UI_ProcessBar_Move:
 1927              	.LVL168:
 1928              	.LFB33:
 744:Dsp/widget/wgt_core/UI_Controller.c **** 
 745:Dsp/widget/wgt_core/UI_Controller.c **** static bool UI_ProcessBar_Move(UI_ProcessBarObj_TypeDef *Obj, uint16_t x, uint16_t y)
 746:Dsp/widget/wgt_core/UI_Controller.c **** {
 1929              		.loc 1 746 1 is_stmt 1 view -0
 1930              		.cfi_startproc
 1931              		@ args = 0, pretend = 0, frame = 0
 1932              		@ frame_needed = 0, uses_anonymous_args = 0
 747:Dsp/widget/wgt_core/UI_Controller.c ****     if (Obj == NULL)
 1933              		.loc 1 747 5 view .LVU541
 1934              		.loc 1 747 8 is_stmt 0 view .LVU542
 1935 0000 28B1     		cbz	r0, .L190
 746:Dsp/widget/wgt_core/UI_Controller.c ****     if (Obj == NULL)
 1936              		.loc 1 746 1 view .LVU543
 1937 0002 08B5     		push	{r3, lr}
 1938              	.LCFI34:
 1939              		.cfi_def_cfa_offset 8
 1940              		.cfi_offset 3, -8
 1941              		.cfi_offset 14, -4
 748:Dsp/widget/wgt_core/UI_Controller.c ****         return false;
 749:Dsp/widget/wgt_core/UI_Controller.c **** 
 750:Dsp/widget/wgt_core/UI_Controller.c ****     return UI_Move(&(Obj->Gen_Data), x, y);
 1942              		.loc 1 750 5 is_stmt 1 view .LVU544
 1943              		.loc 1 750 12 is_stmt 0 view .LVU545
 1944 0004 12B2     		sxth	r2, r2
 1945              		.loc 1 750 12 view .LVU546
 1946 0006 09B2     		sxth	r1, r1
 1947              		.loc 1 750 12 view .LVU547
 1948 0008 FFF7FEFF 		bl	UI_Move
 1949              	.LVL169:
 751:Dsp/widget/wgt_core/UI_Controller.c **** }
 1950              		.loc 1 751 1 view .LVU548
 1951 000c 08BD     		pop	{r3, pc}
 1952              	.LVL170:
 1953              	.L190:
 1954              	.LCFI35:
 1955              		.cfi_def_cfa_offset 0
 1956              		.cfi_restore 3
 1957              		.cfi_restore 14
 748:Dsp/widget/wgt_core/UI_Controller.c ****         return false;
 1958              		.loc 1 748 16 view .LVU549
 1959 000e 0020     		movs	r0, #0
 1960              	.LVL171:
 1961              		.loc 1 751 1 view .LVU550
 1962 0010 7047     		bx	lr
 1963              		.cfi_endproc
 1964              	.LFE33:
 1966              		.section	.text.UI_ProcessBar_DspDotBar,"ax",%progbits
 1967              		.align	1
ARM GAS  /var/folders/lx/hc4sn_b53233_zkc9xbbl97r0000gp/T//cc29qxiB.s 			page 51


 1968              		.syntax unified
 1969              		.thumb
 1970              		.thumb_func
 1971              		.fpu fpv4-sp-d16
 1973              	UI_ProcessBar_DspDotBar:
 1974              	.LVL172:
 1975              	.LFB35:
 752:Dsp/widget/wgt_core/UI_Controller.c **** 
 753:Dsp/widget/wgt_core/UI_Controller.c **** static bool UI_ProcessBar_DspLoadBar(UI_ProcessBarObj_TypeDef *Obj)
 754:Dsp/widget/wgt_core/UI_Controller.c **** {
 755:Dsp/widget/wgt_core/UI_Controller.c ****     uint8_t frame_radius = 0;
 756:Dsp/widget/wgt_core/UI_Controller.c ****     int16_t Str_CoordX = 0;
 757:Dsp/widget/wgt_core/UI_Controller.c ****     int16_t Str_CoordY = 0;
 758:Dsp/widget/wgt_core/UI_Controller.c ****     float Pcnt_Val = 0;
 759:Dsp/widget/wgt_core/UI_Controller.c ****     char dsp_str[20];
 760:Dsp/widget/wgt_core/UI_Controller.c **** 
 761:Dsp/widget/wgt_core/UI_Controller.c ****     if (Obj == NULL)
 762:Dsp/widget/wgt_core/UI_Controller.c ****         return false;
 763:Dsp/widget/wgt_core/UI_Controller.c **** 
 764:Dsp/widget/wgt_core/UI_Controller.c ****     memset(dsp_str, '\0', 20);
 765:Dsp/widget/wgt_core/UI_Controller.c **** 
 766:Dsp/widget/wgt_core/UI_Controller.c ****     Pcnt_Val = (Obj->cur_val / (float)Obj->range);
 767:Dsp/widget/wgt_core/UI_Controller.c ****     sprintf(dsp_str, "On Process : %d%%", (uint8_t)(Pcnt_Val * 100));
 768:Dsp/widget/wgt_core/UI_Controller.c **** 
 769:Dsp/widget/wgt_core/UI_Controller.c ****     Str_CoordX = Obj->Gen_Data.x + (Obj->width - (strlen(dsp_str) * STR_DIS)) / 2;
 770:Dsp/widget/wgt_core/UI_Controller.c ****     Str_CoordY = Obj->Gen_Data.y - base_font - 2;
 771:Dsp/widget/wgt_core/UI_Controller.c **** 
 772:Dsp/widget/wgt_core/UI_Controller.c ****     //display direction from left
 773:Dsp/widget/wgt_core/UI_Controller.c ****     UI_DspInterface.draw_radius_rectangle(Obj->Gen_Data.x, Obj->Gen_Data.y, Obj->width, DEFAULT_PRO
 774:Dsp/widget/wgt_core/UI_Controller.c ****     UI_DspInterface.draw_str(base_font, dsp_str, Str_CoordX, Str_CoordY, true);
 775:Dsp/widget/wgt_core/UI_Controller.c ****     UI_DspInterface.draw_line_h(Obj->Gen_Data.x + 2, Obj->Gen_Data.y + 2, Pcnt_Val * (Obj->width - 
 776:Dsp/widget/wgt_core/UI_Controller.c **** 
 777:Dsp/widget/wgt_core/UI_Controller.c ****     return true;
 778:Dsp/widget/wgt_core/UI_Controller.c **** }
 779:Dsp/widget/wgt_core/UI_Controller.c **** 
 780:Dsp/widget/wgt_core/UI_Controller.c **** static bool UI_ProcessBar_DspDotBar(UI_ProcessBarObj_TypeDef *Obj)
 781:Dsp/widget/wgt_core/UI_Controller.c **** {
 1976              		.loc 1 781 1 is_stmt 1 view -0
 1977              		.cfi_startproc
 1978              		@ args = 0, pretend = 0, frame = 0
 1979              		@ frame_needed = 0, uses_anonymous_args = 0
 782:Dsp/widget/wgt_core/UI_Controller.c ****     uint8_t bar_width = 0;
 1980              		.loc 1 782 5 view .LVU552
 783:Dsp/widget/wgt_core/UI_Controller.c ****     int16_t bar_start_x = 0;
 1981              		.loc 1 783 5 view .LVU553
 784:Dsp/widget/wgt_core/UI_Controller.c ****     int16_t bar_end_x = 0;
 1982              		.loc 1 784 5 view .LVU554
 785:Dsp/widget/wgt_core/UI_Controller.c **** 
 786:Dsp/widget/wgt_core/UI_Controller.c ****     if (Obj == NULL)
 1983              		.loc 1 786 5 view .LVU555
 1984              		.loc 1 786 8 is_stmt 0 view .LVU556
 1985 0000 0028     		cmp	r0, #0
 1986 0002 35D0     		beq	.L199
 781:Dsp/widget/wgt_core/UI_Controller.c ****     uint8_t bar_width = 0;
 1987              		.loc 1 781 1 view .LVU557
 1988 0004 70B5     		push	{r4, r5, r6, lr}
 1989              	.LCFI36:
ARM GAS  /var/folders/lx/hc4sn_b53233_zkc9xbbl97r0000gp/T//cc29qxiB.s 			page 52


 1990              		.cfi_def_cfa_offset 16
 1991              		.cfi_offset 4, -16
 1992              		.cfi_offset 5, -12
 1993              		.cfi_offset 6, -8
 1994              		.cfi_offset 14, -4
 1995 0006 82B0     		sub	sp, sp, #8
 1996              	.LCFI37:
 1997              		.cfi_def_cfa_offset 24
 1998 0008 0446     		mov	r4, r0
 787:Dsp/widget/wgt_core/UI_Controller.c ****         return false;
 788:Dsp/widget/wgt_core/UI_Controller.c **** 
 789:Dsp/widget/wgt_core/UI_Controller.c ****     if (Obj->width / 2 == 0)
 1999              		.loc 1 789 5 is_stmt 1 view .LVU558
 2000              		.loc 1 789 12 is_stmt 0 view .LVU559
 2001 000a 90F82020 		ldrb	r2, [r0, #32]	@ zero_extendqisi2
 2002              		.loc 1 789 8 view .LVU560
 2003 000e 012A     		cmp	r2, #1
 2004 0010 19D9     		bls	.L206
 782:Dsp/widget/wgt_core/UI_Controller.c ****     int16_t bar_start_x = 0;
 2005              		.loc 1 782 13 view .LVU561
 2006 0012 0025     		movs	r5, #0
 2007              	.LVL173:
 2008              	.L197:
 790:Dsp/widget/wgt_core/UI_Controller.c ****         bar_width = Obj->width + 1;
 791:Dsp/widget/wgt_core/UI_Controller.c **** 
 792:Dsp/widget/wgt_core/UI_Controller.c ****     /* step  1 draw dot line */
 793:Dsp/widget/wgt_core/UI_Controller.c ****     UI_Draw_HorDotLine(Obj->Gen_Data.x, Obj->Gen_Data.y, Obj->width, DEFAULT_PROCESSBAR_LINE_WIDTH)
 2009              		.loc 1 793 5 is_stmt 1 view .LVU562
 2010 0014 0123     		movs	r3, #1
 2011 0016 B4F90610 		ldrsh	r1, [r4, #6]	@ unaligned
 2012 001a B4F90400 		ldrsh	r0, [r4, #4]	@ unaligned
 2013              	.LVL174:
 2014              		.loc 1 793 5 is_stmt 0 view .LVU563
 2015 001e FFF7FEFF 		bl	UI_Draw_HorDotLine
 2016              	.LVL175:
 794:Dsp/widget/wgt_core/UI_Controller.c **** 
 795:Dsp/widget/wgt_core/UI_Controller.c ****     if (Obj->Mv_Dir == UI_ProcBar_GrothFrom_Left)
 2017              		.loc 1 795 5 is_stmt 1 view .LVU564
 2018              		.loc 1 795 12 is_stmt 0 view .LVU565
 2019 0022 94F82330 		ldrb	r3, [r4, #35]	@ zero_extendqisi2
 2020              		.loc 1 795 8 view .LVU566
 2021 0026 8BB9     		cbnz	r3, .L198
 796:Dsp/widget/wgt_core/UI_Controller.c ****     {
 797:Dsp/widget/wgt_core/UI_Controller.c ****         UI_DspInterface.draw_line_v(Obj->Gen_Data.x, Obj->Gen_Data.y - 2, 5, DEFAULT_PROCESSBAR_LIN
 2022              		.loc 1 797 9 is_stmt 1 view .LVU567
 2023              		.loc 1 797 24 is_stmt 0 view .LVU568
 2024 0028 134B     		ldr	r3, .L207
 2025 002a DE68     		ldr	r6, [r3, #12]
 2026              		.loc 1 797 67 view .LVU569
 2027 002c E188     		ldrh	r1, [r4, #6]	@ unaligned
 2028              		.loc 1 797 70 view .LVU570
 2029 002e 0239     		subs	r1, r1, #2
 2030              		.loc 1 797 9 view .LVU571
 2031 0030 0125     		movs	r5, #1
 2032              	.LVL176:
 2033              		.loc 1 797 9 view .LVU572
 2034 0032 0095     		str	r5, [sp]
ARM GAS  /var/folders/lx/hc4sn_b53233_zkc9xbbl97r0000gp/T//cc29qxiB.s 			page 53


 2035 0034 2B46     		mov	r3, r5
 2036 0036 0522     		movs	r2, #5
 2037 0038 09B2     		sxth	r1, r1
 2038 003a B4F90400 		ldrsh	r0, [r4, #4]	@ unaligned
 2039 003e B047     		blx	r6
 2040              	.LVL177:
 798:Dsp/widget/wgt_core/UI_Controller.c ****     }
 799:Dsp/widget/wgt_core/UI_Controller.c ****     else if (Obj->Mv_Dir == UI_ProcBar_GrothFrom_Mid)
 800:Dsp/widget/wgt_core/UI_Controller.c ****     {
 801:Dsp/widget/wgt_core/UI_Controller.c ****         UI_DspInterface.draw_line_v(Obj->Gen_Data.x + bar_width / 2, Obj->Gen_Data.y - 2, 5, DEFAUL
 802:Dsp/widget/wgt_core/UI_Controller.c **** 
 803:Dsp/widget/wgt_core/UI_Controller.c ****         if (Obj->cur_val < (Obj->min + Obj->range / 2))
 804:Dsp/widget/wgt_core/UI_Controller.c ****         {
 805:Dsp/widget/wgt_core/UI_Controller.c ****         }
 806:Dsp/widget/wgt_core/UI_Controller.c ****         else if (Obj->cur_val > (Obj->max + Obj->range / 2))
 807:Dsp/widget/wgt_core/UI_Controller.c ****         {
 808:Dsp/widget/wgt_core/UI_Controller.c ****         }
 809:Dsp/widget/wgt_core/UI_Controller.c ****     }
 810:Dsp/widget/wgt_core/UI_Controller.c ****     else
 811:Dsp/widget/wgt_core/UI_Controller.c ****         return false;
 812:Dsp/widget/wgt_core/UI_Controller.c **** 
 813:Dsp/widget/wgt_core/UI_Controller.c ****     return true;
 2041              		.loc 1 813 12 view .LVU573
 2042 0040 2846     		mov	r0, r5
 2043              	.LVL178:
 2044              	.L196:
 814:Dsp/widget/wgt_core/UI_Controller.c **** }
 2045              		.loc 1 814 1 view .LVU574
 2046 0042 02B0     		add	sp, sp, #8
 2047              	.LCFI38:
 2048              		.cfi_remember_state
 2049              		.cfi_def_cfa_offset 16
 2050              		@ sp needed
 2051 0044 70BD     		pop	{r4, r5, r6, pc}
 2052              	.LVL179:
 2053              	.L206:
 2054              	.LCFI39:
 2055              		.cfi_restore_state
 790:Dsp/widget/wgt_core/UI_Controller.c **** 
 2056              		.loc 1 790 9 is_stmt 1 view .LVU575
 790:Dsp/widget/wgt_core/UI_Controller.c **** 
 2057              		.loc 1 790 19 is_stmt 0 view .LVU576
 2058 0046 551C     		adds	r5, r2, #1
 2059 0048 EDB2     		uxtb	r5, r5
 2060              	.LVL180:
 790:Dsp/widget/wgt_core/UI_Controller.c **** 
 2061              		.loc 1 790 19 view .LVU577
 2062 004a E3E7     		b	.L197
 2063              	.LVL181:
 2064              	.L198:
 799:Dsp/widget/wgt_core/UI_Controller.c ****     {
 2065              		.loc 1 799 10 is_stmt 1 view .LVU578
 799:Dsp/widget/wgt_core/UI_Controller.c ****     {
 2066              		.loc 1 799 13 is_stmt 0 view .LVU579
 2067 004c 012B     		cmp	r3, #1
 2068 004e 11D1     		bne	.L201
 801:Dsp/widget/wgt_core/UI_Controller.c **** 
ARM GAS  /var/folders/lx/hc4sn_b53233_zkc9xbbl97r0000gp/T//cc29qxiB.s 			page 54


 2069              		.loc 1 801 9 is_stmt 1 view .LVU580
 801:Dsp/widget/wgt_core/UI_Controller.c **** 
 2070              		.loc 1 801 24 is_stmt 0 view .LVU581
 2071 0050 094B     		ldr	r3, .L207
 2072 0052 DE68     		ldr	r6, [r3, #12]
 801:Dsp/widget/wgt_core/UI_Controller.c **** 
 2073              		.loc 1 801 50 view .LVU582
 2074 0054 A088     		ldrh	r0, [r4, #4]	@ unaligned
 801:Dsp/widget/wgt_core/UI_Controller.c **** 
 2075              		.loc 1 801 53 view .LVU583
 2076 0056 00EB5500 		add	r0, r0, r5, lsr #1
 801:Dsp/widget/wgt_core/UI_Controller.c **** 
 2077              		.loc 1 801 83 view .LVU584
 2078 005a E188     		ldrh	r1, [r4, #6]	@ unaligned
 801:Dsp/widget/wgt_core/UI_Controller.c **** 
 2079              		.loc 1 801 86 view .LVU585
 2080 005c 0239     		subs	r1, r1, #2
 801:Dsp/widget/wgt_core/UI_Controller.c **** 
 2081              		.loc 1 801 9 view .LVU586
 2082 005e 0124     		movs	r4, #1
 2083              	.LVL182:
 801:Dsp/widget/wgt_core/UI_Controller.c **** 
 2084              		.loc 1 801 9 view .LVU587
 2085 0060 0094     		str	r4, [sp]
 2086 0062 2346     		mov	r3, r4
 2087 0064 0522     		movs	r2, #5
 2088 0066 09B2     		sxth	r1, r1
 2089 0068 00B2     		sxth	r0, r0
 2090 006a B047     		blx	r6
 2091              	.LVL183:
 803:Dsp/widget/wgt_core/UI_Controller.c ****         {
 2092              		.loc 1 803 9 is_stmt 1 view .LVU588
 813:Dsp/widget/wgt_core/UI_Controller.c **** }
 2093              		.loc 1 813 12 is_stmt 0 view .LVU589
 2094 006c 2046     		mov	r0, r4
 2095 006e E8E7     		b	.L196
 2096              	.LVL184:
 2097              	.L199:
 2098              	.LCFI40:
 2099              		.cfi_def_cfa_offset 0
 2100              		.cfi_restore 4
 2101              		.cfi_restore 5
 2102              		.cfi_restore 6
 2103              		.cfi_restore 14
 787:Dsp/widget/wgt_core/UI_Controller.c **** 
 2104              		.loc 1 787 16 view .LVU590
 2105 0070 0020     		movs	r0, #0
 2106              	.LVL185:
 2107              		.loc 1 814 1 view .LVU591
 2108 0072 7047     		bx	lr
 2109              	.LVL186:
 2110              	.L201:
 2111              	.LCFI41:
 2112              		.cfi_def_cfa_offset 24
 2113              		.cfi_offset 4, -16
 2114              		.cfi_offset 5, -12
 2115              		.cfi_offset 6, -8
ARM GAS  /var/folders/lx/hc4sn_b53233_zkc9xbbl97r0000gp/T//cc29qxiB.s 			page 55


 2116              		.cfi_offset 14, -4
 811:Dsp/widget/wgt_core/UI_Controller.c **** 
 2117              		.loc 1 811 16 view .LVU592
 2118 0074 0020     		movs	r0, #0
 2119 0076 E4E7     		b	.L196
 2120              	.L208:
 2121              		.align	2
 2122              	.L207:
 2123 0078 00000000 		.word	.LANCHOR0
 2124              		.cfi_endproc
 2125              	.LFE35:
 2127              		.section	.text.UI_CheckBox_Ctl,"ax",%progbits
 2128              		.align	1
 2129              		.syntax unified
 2130              		.thumb
 2131              		.thumb_func
 2132              		.fpu fpv4-sp-d16
 2134              	UI_CheckBox_Ctl:
 2135              	.LVL187:
 2136              	.LFB21:
 499:Dsp/widget/wgt_core/UI_Controller.c ****     uint16_t StrDsp_x = 0;
 2137              		.loc 1 499 1 is_stmt 1 view -0
 2138              		.cfi_startproc
 2139              		@ args = 0, pretend = 0, frame = 8
 2140              		@ frame_needed = 0, uses_anonymous_args = 0
 499:Dsp/widget/wgt_core/UI_Controller.c ****     uint16_t StrDsp_x = 0;
 2141              		.loc 1 499 1 is_stmt 0 view .LVU594
 2142 0000 2DE9F04F 		push	{r4, r5, r6, r7, r8, r9, r10, fp, lr}
 2143              	.LCFI42:
 2144              		.cfi_def_cfa_offset 36
 2145              		.cfi_offset 4, -36
 2146              		.cfi_offset 5, -32
 2147              		.cfi_offset 6, -28
 2148              		.cfi_offset 7, -24
 2149              		.cfi_offset 8, -20
 2150              		.cfi_offset 9, -16
 2151              		.cfi_offset 10, -12
 2152              		.cfi_offset 11, -8
 2153              		.cfi_offset 14, -4
 2154 0004 85B0     		sub	sp, sp, #20
 2155              	.LCFI43:
 2156              		.cfi_def_cfa_offset 56
 500:Dsp/widget/wgt_core/UI_Controller.c ****     int16_t frame_y = 0;
 2157              		.loc 1 500 5 is_stmt 1 view .LVU595
 2158              	.LVL188:
 501:Dsp/widget/wgt_core/UI_Controller.c ****     int16_t str_y = Obj->Gen_Data.y;
 2159              		.loc 1 501 5 view .LVU596
 502:Dsp/widget/wgt_core/UI_Controller.c **** 
 2160              		.loc 1 502 5 view .LVU597
 502:Dsp/widget/wgt_core/UI_Controller.c **** 
 2161              		.loc 1 502 13 is_stmt 0 view .LVU598
 2162 0006 B0F90660 		ldrsh	r6, [r0, #6]	@ unaligned
 2163              	.LVL189:
 504:Dsp/widget/wgt_core/UI_Controller.c ****         (UI_DspInterface.draw_str == NULL) ||
 2164              		.loc 1 504 5 is_stmt 1 view .LVU599
 504:Dsp/widget/wgt_core/UI_Controller.c ****         (UI_DspInterface.draw_str == NULL) ||
 2165              		.loc 1 504 8 is_stmt 0 view .LVU600
ARM GAS  /var/folders/lx/hc4sn_b53233_zkc9xbbl97r0000gp/T//cc29qxiB.s 			page 56


 2166 000a 0028     		cmp	r0, #0
 2167 000c 4BD0     		beq	.L212
 2168 000e 0446     		mov	r4, r0
 2169 0010 0FFA86F8 		sxth	r8, r6
 505:Dsp/widget/wgt_core/UI_Controller.c ****         (UI_DspInterface.fill_rectangle == NULL) ||
 2170              		.loc 1 505 25 discriminator 1 view .LVU601
 2171 0014 2A4B     		ldr	r3, .L219
 2172 0016 1F68     		ldr	r7, [r3]
 504:Dsp/widget/wgt_core/UI_Controller.c ****         (UI_DspInterface.draw_str == NULL) ||
 2173              		.loc 1 504 23 discriminator 1 view .LVU602
 2174 0018 002F     		cmp	r7, #0
 2175 001a 46D0     		beq	.L213
 506:Dsp/widget/wgt_core/UI_Controller.c ****         (UI_DspInterface.draw_rectangle == NULL))
 2176              		.loc 1 506 25 view .LVU603
 2177 001c 1B6A     		ldr	r3, [r3, #32]
 505:Dsp/widget/wgt_core/UI_Controller.c ****         (UI_DspInterface.fill_rectangle == NULL) ||
 2178              		.loc 1 505 44 view .LVU604
 2179 001e 002B     		cmp	r3, #0
 2180 0020 45D0     		beq	.L214
 507:Dsp/widget/wgt_core/UI_Controller.c ****         return false;
 2181              		.loc 1 507 25 view .LVU605
 2182 0022 274B     		ldr	r3, .L219
 2183 0024 5B69     		ldr	r3, [r3, #20]
 506:Dsp/widget/wgt_core/UI_Controller.c ****         (UI_DspInterface.draw_rectangle == NULL))
 2184              		.loc 1 506 50 view .LVU606
 2185 0026 002B     		cmp	r3, #0
 2186 0028 43D0     		beq	.L215
 510:Dsp/widget/wgt_core/UI_Controller.c ****     frame_y = Obj->Gen_Data.y + 3;
 2187              		.loc 1 510 5 is_stmt 1 view .LVU607
 510:Dsp/widget/wgt_core/UI_Controller.c ****     frame_y = Obj->Gen_Data.y + 3;
 2188              		.loc 1 510 36 is_stmt 0 view .LVU608
 2189 002a D0F800B0 		ldr	fp, [r0]	@ unaligned
 510:Dsp/widget/wgt_core/UI_Controller.c ****     frame_y = Obj->Gen_Data.y + 3;
 2190              		.loc 1 510 16 view .LVU609
 2191 002e 5846     		mov	r0, fp
 2192              	.LVL190:
 510:Dsp/widget/wgt_core/UI_Controller.c ****     frame_y = Obj->Gen_Data.y + 3;
 2193              		.loc 1 510 16 view .LVU610
 2194 0030 FFF7FEFF 		bl	strlen
 2195              	.LVL191:
 510:Dsp/widget/wgt_core/UI_Controller.c ****     frame_y = Obj->Gen_Data.y + 3;
 2196              		.loc 1 510 14 view .LVU611
 2197 0034 00EB4000 		add	r0, r0, r0, lsl #1
 2198 0038 4500     		lsls	r5, r0, #1
 2199 003a ADB2     		uxth	r5, r5
 2200              	.LVL192:
 511:Dsp/widget/wgt_core/UI_Controller.c ****     StrDsp_x += DEFAULT_CHECKBOX_OFFSET;
 2201              		.loc 1 511 5 is_stmt 1 view .LVU612
 511:Dsp/widget/wgt_core/UI_Controller.c ****     StrDsp_x += DEFAULT_CHECKBOX_OFFSET;
 2202              		.loc 1 511 28 is_stmt 0 view .LVU613
 2203 003c B6B2     		uxth	r6, r6
 511:Dsp/widget/wgt_core/UI_Controller.c ****     StrDsp_x += DEFAULT_CHECKBOX_OFFSET;
 2204              		.loc 1 511 31 view .LVU614
 2205 003e 06F10309 		add	r9, r6, #3
 511:Dsp/widget/wgt_core/UI_Controller.c ****     StrDsp_x += DEFAULT_CHECKBOX_OFFSET;
 2206              		.loc 1 511 13 view .LVU615
 2207 0042 0FFA89F9 		sxth	r9, r9
ARM GAS  /var/folders/lx/hc4sn_b53233_zkc9xbbl97r0000gp/T//cc29qxiB.s 			page 57


 2208              	.LVL193:
 512:Dsp/widget/wgt_core/UI_Controller.c **** 
 2209              		.loc 1 512 5 is_stmt 1 view .LVU616
 512:Dsp/widget/wgt_core/UI_Controller.c **** 
 2210              		.loc 1 512 14 is_stmt 0 view .LVU617
 2211 0046 6B1D     		adds	r3, r5, #5
 2212 0048 9BB2     		uxth	r3, r3
 2213 004a 0393     		str	r3, [sp, #12]
 2214              	.LVL194:
 514:Dsp/widget/wgt_core/UI_Controller.c ****         str_y += 1;
 2215              		.loc 1 514 5 is_stmt 1 view .LVU618
 514:Dsp/widget/wgt_core/UI_Controller.c ****         str_y += 1;
 2216              		.loc 1 514 19 is_stmt 0 view .LVU619
 2217 004c 1D4B     		ldr	r3, .L219+4
 2218 004e 1878     		ldrb	r0, [r3]	@ zero_extendqisi2
 514:Dsp/widget/wgt_core/UI_Controller.c ****         str_y += 1;
 2219              		.loc 1 514 8 view .LVU620
 2220 0050 0828     		cmp	r0, #8
 2221 0052 23D0     		beq	.L218
 2222              	.LVL195:
 2223              	.L211:
 517:Dsp/widget/wgt_core/UI_Controller.c ****     UI_DspInterface.draw_rectangle(StrDsp_x, frame_y, DEFAULT_CHECKBOX_FRAME_SIZE, DEFAULT_CHECKBOX
 2224              		.loc 1 517 5 is_stmt 1 view .LVU621
 517:Dsp/widget/wgt_core/UI_Controller.c ****     UI_DspInterface.draw_rectangle(StrDsp_x, frame_y, DEFAULT_CHECKBOX_FRAME_SIZE, DEFAULT_CHECKBOX
 2225              		.loc 1 517 75 is_stmt 0 view .LVU622
 2226 0054 A288     		ldrh	r2, [r4, #4]	@ unaligned
 517:Dsp/widget/wgt_core/UI_Controller.c ****     UI_DspInterface.draw_rectangle(StrDsp_x, frame_y, DEFAULT_CHECKBOX_FRAME_SIZE, DEFAULT_CHECKBOX
 2227              		.loc 1 517 78 view .LVU623
 2228 0056 0332     		adds	r2, r2, #3
 517:Dsp/widget/wgt_core/UI_Controller.c ****     UI_DspInterface.draw_rectangle(StrDsp_x, frame_y, DEFAULT_CHECKBOX_FRAME_SIZE, DEFAULT_CHECKBOX
 2229              		.loc 1 517 5 view .LVU624
 2230 0058 4FF0010A 		mov	r10, #1
 2231 005c CDF800A0 		str	r10, [sp]
 2232 0060 4346     		mov	r3, r8
 2233 0062 12B2     		sxth	r2, r2
 2234 0064 5946     		mov	r1, fp
 2235 0066 B847     		blx	r7
 2236              	.LVL196:
 518:Dsp/widget/wgt_core/UI_Controller.c **** 
 2237              		.loc 1 518 5 is_stmt 1 view .LVU625
 518:Dsp/widget/wgt_core/UI_Controller.c **** 
 2238              		.loc 1 518 20 is_stmt 0 view .LVU626
 2239 0068 154B     		ldr	r3, .L219
 2240 006a 5F69     		ldr	r7, [r3, #20]
 518:Dsp/widget/wgt_core/UI_Controller.c **** 
 2241              		.loc 1 518 5 view .LVU627
 2242 006c CDF804A0 		str	r10, [sp, #4]
 2243 0070 CDF800A0 		str	r10, [sp]
 2244 0074 0723     		movs	r3, #7
 2245 0076 1A46     		mov	r2, r3
 2246 0078 4946     		mov	r1, r9
 2247 007a BDF90C00 		ldrsh	r0, [sp, #12]
 2248 007e B847     		blx	r7
 2249              	.LVL197:
 520:Dsp/widget/wgt_core/UI_Controller.c ****         UI_DspInterface.fill_rectangle(StrDsp_x + 2, frame_y + 2, DEFAULT_CHECKBOX_FILLFRAME, DEFAU
 2250              		.loc 1 520 5 is_stmt 1 view .LVU628
 520:Dsp/widget/wgt_core/UI_Controller.c ****         UI_DspInterface.fill_rectangle(StrDsp_x + 2, frame_y + 2, DEFAULT_CHECKBOX_FILLFRAME, DEFAU
ARM GAS  /var/folders/lx/hc4sn_b53233_zkc9xbbl97r0000gp/T//cc29qxiB.s 			page 58


 2251              		.loc 1 520 12 is_stmt 0 view .LVU629
 2252 0080 247C     		ldrb	r4, [r4, #16]	@ zero_extendqisi2
 2253              	.LVL198:
 520:Dsp/widget/wgt_core/UI_Controller.c ****         UI_DspInterface.fill_rectangle(StrDsp_x + 2, frame_y + 2, DEFAULT_CHECKBOX_FILLFRAME, DEFAU
 2254              		.loc 1 520 8 view .LVU630
 2255 0082 C4B1     		cbz	r4, .L216
 521:Dsp/widget/wgt_core/UI_Controller.c **** 
 2256              		.loc 1 521 9 is_stmt 1 view .LVU631
 521:Dsp/widget/wgt_core/UI_Controller.c **** 
 2257              		.loc 1 521 24 is_stmt 0 view .LVU632
 2258 0084 0E4B     		ldr	r3, .L219
 2259 0086 1F6A     		ldr	r7, [r3, #32]
 521:Dsp/widget/wgt_core/UI_Controller.c **** 
 2260              		.loc 1 521 49 view .LVU633
 2261 0088 E81D     		adds	r0, r5, #7
 521:Dsp/widget/wgt_core/UI_Controller.c **** 
 2262              		.loc 1 521 62 view .LVU634
 2263 008a 711D     		adds	r1, r6, #5
 521:Dsp/widget/wgt_core/UI_Controller.c **** 
 2264              		.loc 1 521 9 view .LVU635
 2265 008c CDF800A0 		str	r10, [sp]
 2266 0090 0323     		movs	r3, #3
 2267 0092 1A46     		mov	r2, r3
 2268 0094 09B2     		sxth	r1, r1
 2269 0096 00B2     		sxth	r0, r0
 2270 0098 B847     		blx	r7
 2271              	.LVL199:
 2272 009a 0DE0     		b	.L210
 2273              	.LVL200:
 2274              	.L218:
 515:Dsp/widget/wgt_core/UI_Controller.c **** 
 2275              		.loc 1 515 9 is_stmt 1 view .LVU636
 515:Dsp/widget/wgt_core/UI_Controller.c **** 
 2276              		.loc 1 515 15 is_stmt 0 view .LVU637
 2277 009c 06F10108 		add	r8, r6, #1
 2278 00a0 0FFA88F8 		sxth	r8, r8
 2279              	.LVL201:
 515:Dsp/widget/wgt_core/UI_Controller.c **** 
 2280              		.loc 1 515 15 view .LVU638
 2281 00a4 D6E7     		b	.L211
 2282              	.LVL202:
 2283              	.L212:
 508:Dsp/widget/wgt_core/UI_Controller.c **** 
 2284              		.loc 1 508 16 view .LVU639
 2285 00a6 0024     		movs	r4, #0
 2286 00a8 06E0     		b	.L210
 2287              	.L213:
 508:Dsp/widget/wgt_core/UI_Controller.c **** 
 2288              		.loc 1 508 16 view .LVU640
 2289 00aa 0024     		movs	r4, #0
 2290 00ac 04E0     		b	.L210
 2291              	.L214:
 508:Dsp/widget/wgt_core/UI_Controller.c **** 
 2292              		.loc 1 508 16 view .LVU641
 2293 00ae 0024     		movs	r4, #0
 2294 00b0 02E0     		b	.L210
 2295              	.L215:
ARM GAS  /var/folders/lx/hc4sn_b53233_zkc9xbbl97r0000gp/T//cc29qxiB.s 			page 59


 508:Dsp/widget/wgt_core/UI_Controller.c **** 
 2296              		.loc 1 508 16 view .LVU642
 2297 00b2 0024     		movs	r4, #0
 2298 00b4 00E0     		b	.L210
 2299              	.LVL203:
 2300              	.L216:
 523:Dsp/widget/wgt_core/UI_Controller.c **** }
 2301              		.loc 1 523 12 view .LVU643
 2302 00b6 0124     		movs	r4, #1
 2303              	.LVL204:
 2304              	.L210:
 524:Dsp/widget/wgt_core/UI_Controller.c **** 
 2305              		.loc 1 524 1 view .LVU644
 2306 00b8 2046     		mov	r0, r4
 2307 00ba 05B0     		add	sp, sp, #20
 2308              	.LCFI44:
 2309              		.cfi_def_cfa_offset 36
 2310              		@ sp needed
 2311 00bc BDE8F08F 		pop	{r4, r5, r6, r7, r8, r9, r10, fp, pc}
 2312              	.L220:
 2313              		.align	2
 2314              	.L219:
 2315 00c0 00000000 		.word	.LANCHOR0
 2316 00c4 00000000 		.word	.LANCHOR2
 2317              		.cfi_endproc
 2318              	.LFE21:
 2320              		.section	.text.UI_SlideBar_CTL,"ax",%progbits
 2321              		.align	1
 2322              		.syntax unified
 2323              		.thumb
 2324              		.thumb_func
 2325              		.fpu fpv4-sp-d16
 2327              	UI_SlideBar_CTL:
 2328              	.LVL205:
 2329              	.LFB27:
 608:Dsp/widget/wgt_core/UI_Controller.c ****     int16_t Block_CoordX = 0;
 2330              		.loc 1 608 1 is_stmt 1 view -0
 2331              		.cfi_startproc
 2332              		@ args = 0, pretend = 0, frame = 0
 2333              		@ frame_needed = 0, uses_anonymous_args = 0
 609:Dsp/widget/wgt_core/UI_Controller.c ****     int16_t Block_CoordY = 0;
 2334              		.loc 1 609 5 view .LVU646
 610:Dsp/widget/wgt_core/UI_Controller.c ****     int16_t input_trip = 0;
 2335              		.loc 1 610 5 view .LVU647
 611:Dsp/widget/wgt_core/UI_Controller.c ****     int16_t str_y = Obj->Gen_Data.y;
 2336              		.loc 1 611 5 view .LVU648
 612:Dsp/widget/wgt_core/UI_Controller.c **** 
 2337              		.loc 1 612 5 view .LVU649
 612:Dsp/widget/wgt_core/UI_Controller.c **** 
 2338              		.loc 1 612 13 is_stmt 0 view .LVU650
 2339 0000 B0F90620 		ldrsh	r2, [r0, #6]	@ unaligned
 2340              	.LVL206:
 614:Dsp/widget/wgt_core/UI_Controller.c ****         (UI_DspInterface.draw_str == NULL) ||
 2341              		.loc 1 614 5 is_stmt 1 view .LVU651
 614:Dsp/widget/wgt_core/UI_Controller.c ****         (UI_DspInterface.draw_str == NULL) ||
 2342              		.loc 1 614 8 is_stmt 0 view .LVU652
 2343 0004 0028     		cmp	r0, #0
ARM GAS  /var/folders/lx/hc4sn_b53233_zkc9xbbl97r0000gp/T//cc29qxiB.s 			page 60


 2344 0006 00F08480 		beq	.L227
 608:Dsp/widget/wgt_core/UI_Controller.c ****     int16_t Block_CoordX = 0;
 2345              		.loc 1 608 1 discriminator 1 view .LVU653
 2346 000a 2DE9F041 		push	{r4, r5, r6, r7, r8, lr}
 2347              	.LCFI45:
 2348              		.cfi_def_cfa_offset 24
 2349              		.cfi_offset 4, -24
 2350              		.cfi_offset 5, -20
 2351              		.cfi_offset 6, -16
 2352              		.cfi_offset 7, -12
 2353              		.cfi_offset 8, -8
 2354              		.cfi_offset 14, -4
 2355 000e 82B0     		sub	sp, sp, #8
 2356              	.LCFI46:
 2357              		.cfi_def_cfa_offset 32
 2358 0010 0446     		mov	r4, r0
 2359 0012 1346     		mov	r3, r2
 615:Dsp/widget/wgt_core/UI_Controller.c ****         (UI_DspInterface.fill_rectangle == NULL))
 2360              		.loc 1 615 25 discriminator 1 view .LVU654
 2361 0014 4349     		ldr	r1, .L236
 2362 0016 0E68     		ldr	r6, [r1]
 614:Dsp/widget/wgt_core/UI_Controller.c ****         (UI_DspInterface.draw_str == NULL) ||
 2363              		.loc 1 614 23 discriminator 1 view .LVU655
 2364 0018 002E     		cmp	r6, #0
 2365 001a 7CD0     		beq	.L228
 616:Dsp/widget/wgt_core/UI_Controller.c ****         return false;
 2366              		.loc 1 616 25 view .LVU656
 2367 001c 096A     		ldr	r1, [r1, #32]
 615:Dsp/widget/wgt_core/UI_Controller.c ****         (UI_DspInterface.fill_rectangle == NULL))
 2368              		.loc 1 615 44 view .LVU657
 2369 001e 0029     		cmp	r1, #0
 2370 0020 7BD0     		beq	.L229
 619:Dsp/widget/wgt_core/UI_Controller.c ****         str_y += 1;
 2371              		.loc 1 619 5 is_stmt 1 view .LVU658
 619:Dsp/widget/wgt_core/UI_Controller.c ****         str_y += 1;
 2372              		.loc 1 619 19 is_stmt 0 view .LVU659
 2373 0022 4149     		ldr	r1, .L236+4
 2374 0024 0878     		ldrb	r0, [r1]	@ zero_extendqisi2
 2375              	.LVL207:
 619:Dsp/widget/wgt_core/UI_Controller.c ****         str_y += 1;
 2376              		.loc 1 619 8 view .LVU660
 2377 0026 0828     		cmp	r0, #8
 2378 0028 6CD0     		beq	.L235
 2379              	.LVL208:
 2380              	.L223:
 622:Dsp/widget/wgt_core/UI_Controller.c **** 
 2381              		.loc 1 622 5 is_stmt 1 view .LVU661
 622:Dsp/widget/wgt_core/UI_Controller.c **** 
 2382              		.loc 1 622 21 is_stmt 0 view .LVU662
 2383 002a D4F81520 		ldr	r2, [r4, #21]	@ unaligned
 2384 002e 07EE902A 		vmov	s15, r2	@ int
 622:Dsp/widget/wgt_core/UI_Controller.c **** 
 2385              		.loc 1 622 38 view .LVU663
 2386 0032 D4F81120 		ldr	r2, [r4, #17]	@ unaligned
 622:Dsp/widget/wgt_core/UI_Controller.c **** 
 2387              		.loc 1 622 33 view .LVU664
 2388 0036 07EE102A 		vmov	s14, r2
ARM GAS  /var/folders/lx/hc4sn_b53233_zkc9xbbl97r0000gp/T//cc29qxiB.s 			page 61


 2389 003a 77EEC77A 		vsub.f32	s15, s15, s14
 622:Dsp/widget/wgt_core/UI_Controller.c **** 
 2390              		.loc 1 622 16 view .LVU665
 2391 003e FDEEE77A 		vcvt.s32.f32	s15, s15
 2392 0042 17EE902A 		vmov	r2, s15	@ int
 2393 0046 15B2     		sxth	r5, r2
 2394              	.LVL209:
 624:Dsp/widget/wgt_core/UI_Controller.c **** 
 2395              		.loc 1 624 5 is_stmt 1 view .LVU666
 624:Dsp/widget/wgt_core/UI_Controller.c **** 
 2396              		.loc 1 624 75 is_stmt 0 view .LVU667
 2397 0048 A288     		ldrh	r2, [r4, #4]	@ unaligned
 624:Dsp/widget/wgt_core/UI_Controller.c **** 
 2398              		.loc 1 624 78 view .LVU668
 2399 004a 0332     		adds	r2, r2, #3
 624:Dsp/widget/wgt_core/UI_Controller.c **** 
 2400              		.loc 1 624 5 view .LVU669
 2401 004c 0121     		movs	r1, #1
 2402 004e 0091     		str	r1, [sp]
 2403 0050 12B2     		sxth	r2, r2
 2404 0052 2168     		ldr	r1, [r4]	@ unaligned
 2405 0054 B047     		blx	r6
 2406              	.LVL210:
 626:Dsp/widget/wgt_core/UI_Controller.c ****     {
 2407              		.loc 1 626 5 is_stmt 1 view .LVU670
 626:Dsp/widget/wgt_core/UI_Controller.c ****     {
 2408              		.loc 1 626 12 is_stmt 0 view .LVU671
 2409 0056 237B     		ldrb	r3, [r4, #12]	@ zero_extendqisi2
 626:Dsp/widget/wgt_core/UI_Controller.c ****     {
 2410              		.loc 1 626 8 view .LVU672
 2411 0058 002B     		cmp	r3, #0
 2412 005a 56D1     		bne	.L224
 628:Dsp/widget/wgt_core/UI_Controller.c ****         {
 2413              		.loc 1 628 9 is_stmt 1 view .LVU673
 628:Dsp/widget/wgt_core/UI_Controller.c ****         {
 2414              		.loc 1 628 16 is_stmt 0 view .LVU674
 2415 005c B4F92430 		ldrsh	r3, [r4, #36]	@ unaligned
 628:Dsp/widget/wgt_core/UI_Controller.c ****         {
 2416              		.loc 1 628 12 view .LVU675
 2417 0060 53B9     		cbnz	r3, .L225
 630:Dsp/widget/wgt_core/UI_Controller.c ****         }
 2418              		.loc 1 630 13 is_stmt 1 view .LVU676
 630:Dsp/widget/wgt_core/UI_Controller.c ****         }
 2419              		.loc 1 630 44 is_stmt 0 view .LVU677
 2420 0062 A688     		ldrh	r6, [r4, #4]	@ unaligned
 630:Dsp/widget/wgt_core/UI_Controller.c ****         }
 2421              		.loc 1 630 49 view .LVU678
 2422 0064 2068     		ldr	r0, [r4]	@ unaligned
 2423 0066 FFF7FEFF 		bl	strlen
 2424              	.LVL211:
 630:Dsp/widget/wgt_core/UI_Controller.c ****         }
 2425              		.loc 1 630 47 view .LVU679
 2426 006a 00EB4000 		add	r0, r0, r0, lsl #1
 2427 006e 06EB4006 		add	r6, r6, r0, lsl #1
 2428 0072 B6B2     		uxth	r6, r6
 630:Dsp/widget/wgt_core/UI_Controller.c ****         }
 2429              		.loc 1 630 87 view .LVU680
ARM GAS  /var/folders/lx/hc4sn_b53233_zkc9xbbl97r0000gp/T//cc29qxiB.s 			page 62


 2430 0074 0536     		adds	r6, r6, #5
 630:Dsp/widget/wgt_core/UI_Controller.c ****         }
 2431              		.loc 1 630 29 view .LVU681
 2432 0076 A684     		strh	r6, [r4, #36]	@ unaligned
 2433              	.L225:
 633:Dsp/widget/wgt_core/UI_Controller.c ****         {
 2434              		.loc 1 633 9 is_stmt 1 view .LVU682
 633:Dsp/widget/wgt_core/UI_Controller.c ****         {
 2435              		.loc 1 633 16 is_stmt 0 view .LVU683
 2436 0078 B4F92630 		ldrsh	r3, [r4, #38]	@ unaligned
 633:Dsp/widget/wgt_core/UI_Controller.c ****         {
 2437              		.loc 1 633 12 view .LVU684
 2438 007c 13B9     		cbnz	r3, .L226
 635:Dsp/widget/wgt_core/UI_Controller.c ****         }
 2439              		.loc 1 635 13 is_stmt 1 view .LVU685
 635:Dsp/widget/wgt_core/UI_Controller.c ****         }
 2440              		.loc 1 635 44 is_stmt 0 view .LVU686
 2441 007e E388     		ldrh	r3, [r4, #6]	@ unaligned
 635:Dsp/widget/wgt_core/UI_Controller.c ****         }
 2442              		.loc 1 635 47 view .LVU687
 2443 0080 0533     		adds	r3, r3, #5
 635:Dsp/widget/wgt_core/UI_Controller.c ****         }
 2444              		.loc 1 635 29 view .LVU688
 2445 0082 E384     		strh	r3, [r4, #38]	@ unaligned
 2446              	.L226:
 638:Dsp/widget/wgt_core/UI_Controller.c ****         Block_CoordX += (Obj->cur_val - Obj->limit_min) / ((float)(input_trip)) * (DEFAULT_SLIDERBA
 2447              		.loc 1 638 9 is_stmt 1 view .LVU689
 638:Dsp/widget/wgt_core/UI_Controller.c ****         Block_CoordX += (Obj->cur_val - Obj->limit_min) / ((float)(input_trip)) * (DEFAULT_SLIDERBA
 2448              		.loc 1 638 22 is_stmt 0 view .LVU690
 2449 0084 B4F92400 		ldrsh	r0, [r4, #36]	@ unaligned
 2450              	.LVL212:
 639:Dsp/widget/wgt_core/UI_Controller.c **** 
 2451              		.loc 1 639 9 is_stmt 1 view .LVU691
 639:Dsp/widget/wgt_core/UI_Controller.c **** 
 2452              		.loc 1 639 29 is_stmt 0 view .LVU692
 2453 0088 D4F81F30 		ldr	r3, [r4, #31]	@ unaligned
 2454 008c 06EE903A 		vmov	s13, r3	@ int
 639:Dsp/widget/wgt_core/UI_Controller.c **** 
 2455              		.loc 1 639 44 view .LVU693
 2456 0090 D4F81130 		ldr	r3, [r4, #17]	@ unaligned
 639:Dsp/widget/wgt_core/UI_Controller.c **** 
 2457              		.loc 1 639 39 view .LVU694
 2458 0094 07EE903A 		vmov	s15, r3
 2459 0098 76EEE76A 		vsub.f32	s13, s13, s15
 639:Dsp/widget/wgt_core/UI_Controller.c **** 
 2460              		.loc 1 639 60 view .LVU695
 2461 009c 07EE905A 		vmov	s15, r5	@ int
 2462 00a0 B8EEE77A 		vcvt.f32.s32	s14, s15
 639:Dsp/widget/wgt_core/UI_Controller.c **** 
 2463              		.loc 1 639 57 view .LVU696
 2464 00a4 C6EE877A 		vdiv.f32	s15, s13, s14
 639:Dsp/widget/wgt_core/UI_Controller.c **** 
 2465              		.loc 1 639 81 view .LVU697
 2466 00a8 9FED207A 		vldr.32	s14, .L236+8
 2467 00ac 27EE877A 		vmul.f32	s14, s15, s14
 639:Dsp/widget/wgt_core/UI_Controller.c **** 
 2468              		.loc 1 639 22 view .LVU698
ARM GAS  /var/folders/lx/hc4sn_b53233_zkc9xbbl97r0000gp/T//cc29qxiB.s 			page 63


 2469 00b0 07EE900A 		vmov	s15, r0	@ int
 2470 00b4 F8EEE77A 		vcvt.f32.s32	s15, s15
 2471 00b8 77EE877A 		vadd.f32	s15, s15, s14
 2472 00bc FDEEE77A 		vcvt.s32.f32	s15, s15
 2473 00c0 17EE903A 		vmov	r3, s15	@ int
 2474 00c4 0FFA83F8 		sxth	r8, r3
 2475              	.LVL213:
 641:Dsp/widget/wgt_core/UI_Controller.c **** 
 2476              		.loc 1 641 9 is_stmt 1 view .LVU699
 641:Dsp/widget/wgt_core/UI_Controller.c **** 
 2477              		.loc 1 641 24 is_stmt 0 view .LVU700
 2478 00c8 164F     		ldr	r7, .L236
 641:Dsp/widget/wgt_core/UI_Controller.c **** 
 2479              		.loc 1 641 9 view .LVU701
 2480 00ca 0125     		movs	r5, #1
 2481              	.LVL214:
 641:Dsp/widget/wgt_core/UI_Controller.c **** 
 2482              		.loc 1 641 9 view .LVU702
 2483 00cc 0095     		str	r5, [sp]
 2484 00ce 0223     		movs	r3, #2
 2485 00d0 2822     		movs	r2, #40
 2486 00d2 B4F92610 		ldrsh	r1, [r4, #38]	@ unaligned
 2487 00d6 3E6A     		ldr	r6, [r7, #32]
 2488 00d8 B047     		blx	r6
 2489              	.LVL215:
 643:Dsp/widget/wgt_core/UI_Controller.c ****         UI_DspInterface.fill_rectangle(Block_CoordX, Block_CoordY, DEFAULT_SLIDERBAR_BLOCK_WIDTH, D
 2490              		.loc 1 643 9 is_stmt 1 view .LVU703
 643:Dsp/widget/wgt_core/UI_Controller.c ****         UI_DspInterface.fill_rectangle(Block_CoordX, Block_CoordY, DEFAULT_SLIDERBAR_BLOCK_WIDTH, D
 2491              		.loc 1 643 37 is_stmt 0 view .LVU704
 2492 00da E488     		ldrh	r4, [r4, #6]	@ unaligned
 2493              	.LVL216:
 643:Dsp/widget/wgt_core/UI_Controller.c ****         UI_DspInterface.fill_rectangle(Block_CoordX, Block_CoordY, DEFAULT_SLIDERBAR_BLOCK_WIDTH, D
 2494              		.loc 1 643 40 view .LVU705
 2495 00dc E11C     		adds	r1, r4, #3
 2496              	.LVL217:
 644:Dsp/widget/wgt_core/UI_Controller.c ****         UI_DspInterface.fill_rectangle(Block_CoordX, Block_CoordY + (DEFAULT_SLIDERBAR_BLOCK_HIGH /
 2497              		.loc 1 644 9 is_stmt 1 view .LVU706
 2498 00de 0095     		str	r5, [sp]
 2499 00e0 0623     		movs	r3, #6
 2500 00e2 0322     		movs	r2, #3
 2501 00e4 09B2     		sxth	r1, r1
 644:Dsp/widget/wgt_core/UI_Controller.c ****         UI_DspInterface.fill_rectangle(Block_CoordX, Block_CoordY + (DEFAULT_SLIDERBAR_BLOCK_HIGH /
 2502              		.loc 1 644 9 is_stmt 0 view .LVU707
 2503 00e6 4046     		mov	r0, r8
 2504 00e8 3E6A     		ldr	r6, [r7, #32]
 2505 00ea B047     		blx	r6
 2506              	.LVL218:
 645:Dsp/widget/wgt_core/UI_Controller.c ****     }
 2507              		.loc 1 645 9 is_stmt 1 view .LVU708
 645:Dsp/widget/wgt_core/UI_Controller.c ****     }
 2508              		.loc 1 645 24 is_stmt 0 view .LVU709
 2509 00ec 3F6A     		ldr	r7, [r7, #32]
 645:Dsp/widget/wgt_core/UI_Controller.c ****     }
 2510              		.loc 1 645 67 view .LVU710
 2511 00ee 611D     		adds	r1, r4, #5
 645:Dsp/widget/wgt_core/UI_Controller.c ****     }
 2512              		.loc 1 645 9 view .LVU711
ARM GAS  /var/folders/lx/hc4sn_b53233_zkc9xbbl97r0000gp/T//cc29qxiB.s 			page 64


 2513 00f0 0095     		str	r5, [sp]
 2514 00f2 0223     		movs	r3, #2
 2515 00f4 0322     		movs	r2, #3
 2516 00f6 09B2     		sxth	r1, r1
 2517 00f8 4046     		mov	r0, r8
 2518 00fa B847     		blx	r7
 2519              	.LVL219:
 653:Dsp/widget/wgt_core/UI_Controller.c **** }
 2520              		.loc 1 653 12 view .LVU712
 2521 00fc 2846     		mov	r0, r5
 2522              	.LVL220:
 2523              	.L222:
 654:Dsp/widget/wgt_core/UI_Controller.c **** 
 2524              		.loc 1 654 1 view .LVU713
 2525 00fe 02B0     		add	sp, sp, #8
 2526              	.LCFI47:
 2527              		.cfi_remember_state
 2528              		.cfi_def_cfa_offset 24
 2529              		@ sp needed
 2530 0100 BDE8F081 		pop	{r4, r5, r6, r7, r8, pc}
 2531              	.LVL221:
 2532              	.L235:
 2533              	.LCFI48:
 2534              		.cfi_restore_state
 620:Dsp/widget/wgt_core/UI_Controller.c **** 
 2535              		.loc 1 620 9 is_stmt 1 view .LVU714
 620:Dsp/widget/wgt_core/UI_Controller.c **** 
 2536              		.loc 1 620 15 is_stmt 0 view .LVU715
 2537 0104 0132     		adds	r2, r2, #1
 2538              	.LVL222:
 620:Dsp/widget/wgt_core/UI_Controller.c **** 
 2539              		.loc 1 620 15 view .LVU716
 2540 0106 13B2     		sxth	r3, r2
 2541              	.LVL223:
 620:Dsp/widget/wgt_core/UI_Controller.c **** 
 2542              		.loc 1 620 15 view .LVU717
 2543 0108 8FE7     		b	.L223
 2544              	.LVL224:
 2545              	.L224:
 647:Dsp/widget/wgt_core/UI_Controller.c ****     {
 2546              		.loc 1 647 10 is_stmt 1 view .LVU718
 647:Dsp/widget/wgt_core/UI_Controller.c ****     {
 2547              		.loc 1 647 13 is_stmt 0 view .LVU719
 2548 010a 012B     		cmp	r3, #1
 2549 010c 07D1     		bne	.L230
 653:Dsp/widget/wgt_core/UI_Controller.c **** }
 2550              		.loc 1 653 12 view .LVU720
 2551 010e 0120     		movs	r0, #1
 2552 0110 F5E7     		b	.L222
 2553              	.LVL225:
 2554              	.L227:
 2555              	.LCFI49:
 2556              		.cfi_def_cfa_offset 0
 2557              		.cfi_restore 4
 2558              		.cfi_restore 5
 2559              		.cfi_restore 6
 2560              		.cfi_restore 7
ARM GAS  /var/folders/lx/hc4sn_b53233_zkc9xbbl97r0000gp/T//cc29qxiB.s 			page 65


 2561              		.cfi_restore 8
 2562              		.cfi_restore 14
 617:Dsp/widget/wgt_core/UI_Controller.c **** 
 2563              		.loc 1 617 16 view .LVU721
 2564 0112 0020     		movs	r0, #0
 2565              	.LVL226:
 654:Dsp/widget/wgt_core/UI_Controller.c **** 
 2566              		.loc 1 654 1 view .LVU722
 2567 0114 7047     		bx	lr
 2568              	.LVL227:
 2569              	.L228:
 2570              	.LCFI50:
 2571              		.cfi_def_cfa_offset 32
 2572              		.cfi_offset 4, -24
 2573              		.cfi_offset 5, -20
 2574              		.cfi_offset 6, -16
 2575              		.cfi_offset 7, -12
 2576              		.cfi_offset 8, -8
 2577              		.cfi_offset 14, -4
 617:Dsp/widget/wgt_core/UI_Controller.c **** 
 2578              		.loc 1 617 16 view .LVU723
 2579 0116 0020     		movs	r0, #0
 2580              	.LVL228:
 617:Dsp/widget/wgt_core/UI_Controller.c **** 
 2581              		.loc 1 617 16 view .LVU724
 2582 0118 F1E7     		b	.L222
 2583              	.LVL229:
 2584              	.L229:
 617:Dsp/widget/wgt_core/UI_Controller.c **** 
 2585              		.loc 1 617 16 view .LVU725
 2586 011a 0020     		movs	r0, #0
 2587              	.LVL230:
 617:Dsp/widget/wgt_core/UI_Controller.c **** 
 2588              		.loc 1 617 16 view .LVU726
 2589 011c EFE7     		b	.L222
 2590              	.LVL231:
 2591              	.L230:
 651:Dsp/widget/wgt_core/UI_Controller.c **** 
 2592              		.loc 1 651 16 view .LVU727
 2593 011e 0020     		movs	r0, #0
 2594 0120 EDE7     		b	.L222
 2595              	.L237:
 2596 0122 00BF     		.align	2
 2597              	.L236:
 2598 0124 00000000 		.word	.LANCHOR0
 2599 0128 00000000 		.word	.LANCHOR2
 2600 012c 00001442 		.word	1108606976
 2601              		.cfi_endproc
 2602              	.LFE27:
 2604              		.section	.text.UI_ProcessBar_DspFrameBar,"ax",%progbits
 2605              		.align	1
 2606              		.syntax unified
 2607              		.thumb
 2608              		.thumb_func
 2609              		.fpu fpv4-sp-d16
 2611              	UI_ProcessBar_DspFrameBar:
 2612              	.LVL232:
ARM GAS  /var/folders/lx/hc4sn_b53233_zkc9xbbl97r0000gp/T//cc29qxiB.s 			page 66


 2613              	.LFB36:
 815:Dsp/widget/wgt_core/UI_Controller.c **** 
 816:Dsp/widget/wgt_core/UI_Controller.c **** static bool UI_ProcessBar_DspFrameBar(UI_ProcessBarObj_TypeDef *Obj)
 817:Dsp/widget/wgt_core/UI_Controller.c **** {
 2614              		.loc 1 817 1 is_stmt 1 view -0
 2615              		.cfi_startproc
 2616              		@ args = 0, pretend = 0, frame = 0
 2617              		@ frame_needed = 0, uses_anonymous_args = 0
 818:Dsp/widget/wgt_core/UI_Controller.c ****     int16_t frame_CoordX = 0;
 2618              		.loc 1 818 5 view .LVU729
 819:Dsp/widget/wgt_core/UI_Controller.c ****     uint8_t frame_width = 0;
 2619              		.loc 1 819 5 view .LVU730
 820:Dsp/widget/wgt_core/UI_Controller.c ****     uint8_t frame_Height = 0;
 2620              		.loc 1 820 5 view .LVU731
 821:Dsp/widget/wgt_core/UI_Controller.c ****     int16_t block_start_CoordX = 0;
 2621              		.loc 1 821 5 view .LVU732
 822:Dsp/widget/wgt_core/UI_Controller.c ****     int16_t block_start_CoordY = 0;
 2622              		.loc 1 822 5 view .LVU733
 823:Dsp/widget/wgt_core/UI_Controller.c ****     int16_t block_end_CoordX = 0;
 2623              		.loc 1 823 5 view .LVU734
 824:Dsp/widget/wgt_core/UI_Controller.c ****     int16_t block_end_CoordY = 0;
 2624              		.loc 1 824 5 view .LVU735
 825:Dsp/widget/wgt_core/UI_Controller.c **** 
 826:Dsp/widget/wgt_core/UI_Controller.c ****     if (Obj == NULL)
 2625              		.loc 1 826 5 view .LVU736
 2626              		.loc 1 826 8 is_stmt 0 view .LVU737
 2627 0000 0028     		cmp	r0, #0
 2628 0002 00F0A980 		beq	.L243
 817:Dsp/widget/wgt_core/UI_Controller.c ****     int16_t frame_CoordX = 0;
 2629              		.loc 1 817 1 view .LVU738
 2630 0006 2DE9F047 		push	{r4, r5, r6, r7, r8, r9, r10, lr}
 2631              	.LCFI51:
 2632              		.cfi_def_cfa_offset 32
 2633              		.cfi_offset 4, -32
 2634              		.cfi_offset 5, -28
 2635              		.cfi_offset 6, -24
 2636              		.cfi_offset 7, -20
 2637              		.cfi_offset 8, -16
 2638              		.cfi_offset 9, -12
 2639              		.cfi_offset 10, -8
 2640              		.cfi_offset 14, -4
 2641 000a 82B0     		sub	sp, sp, #8
 2642              	.LCFI52:
 2643              		.cfi_def_cfa_offset 40
 2644 000c 0546     		mov	r5, r0
 827:Dsp/widget/wgt_core/UI_Controller.c ****         return false;
 828:Dsp/widget/wgt_core/UI_Controller.c **** 
 829:Dsp/widget/wgt_core/UI_Controller.c ****     frame_CoordX = Obj->Gen_Data.x + strlen(Obj->Gen_Data.label) * STR_DIS + 5;
 2645              		.loc 1 829 5 is_stmt 1 view .LVU739
 2646              		.loc 1 829 33 is_stmt 0 view .LVU740
 2647 000e B0F90430 		ldrsh	r3, [r0, #4]	@ unaligned
 2648 0012 1FB2     		sxth	r7, r3
 2649 0014 9CB2     		uxth	r4, r3
 2650              		.loc 1 829 58 view .LVU741
 2651 0016 0668     		ldr	r6, [r0]	@ unaligned
 2652              		.loc 1 829 38 view .LVU742
 2653 0018 3046     		mov	r0, r6
ARM GAS  /var/folders/lx/hc4sn_b53233_zkc9xbbl97r0000gp/T//cc29qxiB.s 			page 67


 2654              	.LVL233:
 2655              		.loc 1 829 38 view .LVU743
 2656 001a FFF7FEFF 		bl	strlen
 2657              	.LVL234:
 2658              		.loc 1 829 36 view .LVU744
 2659 001e 00EB4000 		add	r0, r0, r0, lsl #1
 2660 0022 04EB4000 		add	r0, r4, r0, lsl #1
 2661 0026 80B2     		uxth	r0, r0
 2662              		.loc 1 829 76 view .LVU745
 2663 0028 0530     		adds	r0, r0, #5
 2664              		.loc 1 829 18 view .LVU746
 2665 002a 04B2     		sxth	r4, r0
 2666              	.LVL235:
 830:Dsp/widget/wgt_core/UI_Controller.c **** 
 831:Dsp/widget/wgt_core/UI_Controller.c ****     switch (base_font)
 2667              		.loc 1 831 5 is_stmt 1 view .LVU747
 2668 002c 4D4B     		ldr	r3, .L255
 2669 002e 1878     		ldrb	r0, [r3]	@ zero_extendqisi2
 2670 0030 0828     		cmp	r0, #8
 2671 0032 03D0     		beq	.L253
 832:Dsp/widget/wgt_core/UI_Controller.c ****     {
 833:Dsp/widget/wgt_core/UI_Controller.c ****     case Font_8:
 834:Dsp/widget/wgt_core/UI_Controller.c ****         frame_Height = 5;
 835:Dsp/widget/wgt_core/UI_Controller.c ****         break;
 836:Dsp/widget/wgt_core/UI_Controller.c **** 
 837:Dsp/widget/wgt_core/UI_Controller.c ****     case Font_12:
 838:Dsp/widget/wgt_core/UI_Controller.c ****     case Font_16:
 839:Dsp/widget/wgt_core/UI_Controller.c ****     default:
 840:Dsp/widget/wgt_core/UI_Controller.c ****         return false;
 2672              		.loc 1 840 16 is_stmt 0 view .LVU748
 2673 0034 0020     		movs	r0, #0
 2674              	.LVL236:
 2675              	.L239:
 841:Dsp/widget/wgt_core/UI_Controller.c ****     }
 842:Dsp/widget/wgt_core/UI_Controller.c **** 
 843:Dsp/widget/wgt_core/UI_Controller.c ****     if (Obj->width / 2 == 0)
 844:Dsp/widget/wgt_core/UI_Controller.c ****         frame_width = Obj->width - 1;
 845:Dsp/widget/wgt_core/UI_Controller.c **** 
 846:Dsp/widget/wgt_core/UI_Controller.c ****     UI_DspInterface.draw_str(base_font, Obj->Gen_Data.label, Obj->Gen_Data.x, Obj->Gen_Data.y, true
 847:Dsp/widget/wgt_core/UI_Controller.c ****     UI_DspInterface.draw_rectangle(frame_CoordX, Obj->Gen_Data.y, frame_width, frame_Height, DEFAUL
 848:Dsp/widget/wgt_core/UI_Controller.c **** 
 849:Dsp/widget/wgt_core/UI_Controller.c ****     if (Obj->Mv_Dir == UI_ProcBar_GrothFrom_Left)
 850:Dsp/widget/wgt_core/UI_Controller.c ****     {
 851:Dsp/widget/wgt_core/UI_Controller.c ****         block_start_CoordX = Obj->Gen_Data.x + 2;
 852:Dsp/widget/wgt_core/UI_Controller.c ****         block_start_CoordY = Obj->Gen_Data.y + 2;
 853:Dsp/widget/wgt_core/UI_Controller.c **** 
 854:Dsp/widget/wgt_core/UI_Controller.c ****         block_end_CoordX = (Obj->cur_val / (float)Obj->range) * (frame_width - 4);
 855:Dsp/widget/wgt_core/UI_Controller.c ****         block_end_CoordY = block_start_CoordY;
 856:Dsp/widget/wgt_core/UI_Controller.c ****     }
 857:Dsp/widget/wgt_core/UI_Controller.c ****     else if (Obj->Mv_Dir == UI_ProcBar_GrothFrom_Mid)
 858:Dsp/widget/wgt_core/UI_Controller.c ****     {
 859:Dsp/widget/wgt_core/UI_Controller.c ****         UI_DspInterface.draw_line_h(Obj->Gen_Data.x + frame_width / 2, Obj->Gen_Data.y, frame_Heigh
 860:Dsp/widget/wgt_core/UI_Controller.c ****         block_start_CoordY = Obj->Gen_Data.y + 2;
 861:Dsp/widget/wgt_core/UI_Controller.c **** 
 862:Dsp/widget/wgt_core/UI_Controller.c ****         if (Obj->cur_val < Obj->min + (Obj->range / 2))
 863:Dsp/widget/wgt_core/UI_Controller.c ****         {
 864:Dsp/widget/wgt_core/UI_Controller.c ****             block_start_CoordX = (Obj->cur_val / (float)Obj->range) * Obj->width;
ARM GAS  /var/folders/lx/hc4sn_b53233_zkc9xbbl97r0000gp/T//cc29qxiB.s 			page 68


 865:Dsp/widget/wgt_core/UI_Controller.c ****             block_end_CoordX = Obj->Gen_Data.x + frame_width / 2 - 1;
 866:Dsp/widget/wgt_core/UI_Controller.c ****         }
 867:Dsp/widget/wgt_core/UI_Controller.c ****         else if (Obj->cur_val > Obj->min + (Obj->range / 2))
 868:Dsp/widget/wgt_core/UI_Controller.c ****         {
 869:Dsp/widget/wgt_core/UI_Controller.c ****             block_start_CoordX = Obj->Gen_Data.x + frame_width / 2 + 1;
 870:Dsp/widget/wgt_core/UI_Controller.c ****             block_end_CoordX = (Obj->cur_val / (float)Obj->range) * Obj->width;
 871:Dsp/widget/wgt_core/UI_Controller.c ****         }
 872:Dsp/widget/wgt_core/UI_Controller.c **** 
 873:Dsp/widget/wgt_core/UI_Controller.c ****         UI_DspInterface.fill_rectangle(block_start_CoordX, block_start_CoordY, block_end_CoordX - b
 874:Dsp/widget/wgt_core/UI_Controller.c ****     }
 875:Dsp/widget/wgt_core/UI_Controller.c ****     else
 876:Dsp/widget/wgt_core/UI_Controller.c ****         return false;
 877:Dsp/widget/wgt_core/UI_Controller.c **** 
 878:Dsp/widget/wgt_core/UI_Controller.c ****     return true;
 879:Dsp/widget/wgt_core/UI_Controller.c **** }
 2676              		.loc 1 879 1 view .LVU749
 2677 0036 02B0     		add	sp, sp, #8
 2678              	.LCFI53:
 2679              		.cfi_remember_state
 2680              		.cfi_def_cfa_offset 32
 2681              		@ sp needed
 2682 0038 BDE8F087 		pop	{r4, r5, r6, r7, r8, r9, r10, pc}
 2683              	.LVL237:
 2684              	.L253:
 2685              	.LCFI54:
 2686              		.cfi_restore_state
 834:Dsp/widget/wgt_core/UI_Controller.c ****         break;
 2687              		.loc 1 834 9 is_stmt 1 view .LVU750
 835:Dsp/widget/wgt_core/UI_Controller.c **** 
 2688              		.loc 1 835 9 view .LVU751
 843:Dsp/widget/wgt_core/UI_Controller.c ****         frame_width = Obj->width - 1;
 2689              		.loc 1 843 5 view .LVU752
 843:Dsp/widget/wgt_core/UI_Controller.c ****         frame_width = Obj->width - 1;
 2690              		.loc 1 843 12 is_stmt 0 view .LVU753
 2691 003c 95F82080 		ldrb	r8, [r5, #32]	@ zero_extendqisi2
 843:Dsp/widget/wgt_core/UI_Controller.c ****         frame_width = Obj->width - 1;
 2692              		.loc 1 843 8 view .LVU754
 2693 0040 B8F1010F 		cmp	r8, #1
 2694 0044 61D9     		bls	.L254
 819:Dsp/widget/wgt_core/UI_Controller.c ****     uint8_t frame_Height = 0;
 2695              		.loc 1 819 13 view .LVU755
 2696 0046 4FF00008 		mov	r8, #0
 2697              	.LVL238:
 2698              	.L240:
 846:Dsp/widget/wgt_core/UI_Controller.c ****     UI_DspInterface.draw_rectangle(frame_CoordX, Obj->Gen_Data.y, frame_width, frame_Height, DEFAUL
 2699              		.loc 1 846 5 is_stmt 1 view .LVU756
 846:Dsp/widget/wgt_core/UI_Controller.c ****     UI_DspInterface.draw_rectangle(frame_CoordX, Obj->Gen_Data.y, frame_width, frame_Height, DEFAUL
 2700              		.loc 1 846 20 is_stmt 0 view .LVU757
 2701 004a DFF81CA1 		ldr	r10, .L255+4
 846:Dsp/widget/wgt_core/UI_Controller.c ****     UI_DspInterface.draw_rectangle(frame_CoordX, Obj->Gen_Data.y, frame_width, frame_Height, DEFAUL
 2702              		.loc 1 846 5 view .LVU758
 2703 004e 4FF00109 		mov	r9, #1
 2704 0052 CDF80090 		str	r9, [sp]
 2705 0056 B5F90630 		ldrsh	r3, [r5, #6]	@ unaligned
 2706 005a 3A46     		mov	r2, r7
 2707 005c 3146     		mov	r1, r6
 2708 005e DAF80060 		ldr	r6, [r10]
ARM GAS  /var/folders/lx/hc4sn_b53233_zkc9xbbl97r0000gp/T//cc29qxiB.s 			page 69


 2709 0062 B047     		blx	r6
 2710              	.LVL239:
 847:Dsp/widget/wgt_core/UI_Controller.c **** 
 2711              		.loc 1 847 5 is_stmt 1 view .LVU759
 847:Dsp/widget/wgt_core/UI_Controller.c **** 
 2712              		.loc 1 847 20 is_stmt 0 view .LVU760
 2713 0064 DAF81460 		ldr	r6, [r10, #20]
 847:Dsp/widget/wgt_core/UI_Controller.c **** 
 2714              		.loc 1 847 5 view .LVU761
 2715 0068 CDF80490 		str	r9, [sp, #4]
 2716 006c CDF80090 		str	r9, [sp]
 2717 0070 0523     		movs	r3, #5
 2718 0072 4246     		mov	r2, r8
 2719 0074 B5F90610 		ldrsh	r1, [r5, #6]	@ unaligned
 2720 0078 2046     		mov	r0, r4
 2721 007a B047     		blx	r6
 2722              	.LVL240:
 849:Dsp/widget/wgt_core/UI_Controller.c ****     {
 2723              		.loc 1 849 5 is_stmt 1 view .LVU762
 849:Dsp/widget/wgt_core/UI_Controller.c ****     {
 2724              		.loc 1 849 12 is_stmt 0 view .LVU763
 2725 007c 95F82330 		ldrb	r3, [r5, #35]	@ zero_extendqisi2
 849:Dsp/widget/wgt_core/UI_Controller.c ****     {
 2726              		.loc 1 849 8 view .LVU764
 2727 0080 002B     		cmp	r3, #0
 2728 0082 6BD0     		beq	.L246
 857:Dsp/widget/wgt_core/UI_Controller.c ****     {
 2729              		.loc 1 857 10 is_stmt 1 view .LVU765
 857:Dsp/widget/wgt_core/UI_Controller.c ****     {
 2730              		.loc 1 857 13 is_stmt 0 view .LVU766
 2731 0084 4B45     		cmp	r3, r9
 2732 0086 6BD1     		bne	.L247
 859:Dsp/widget/wgt_core/UI_Controller.c ****         block_start_CoordY = Obj->Gen_Data.y + 2;
 2733              		.loc 1 859 9 is_stmt 1 view .LVU767
 859:Dsp/widget/wgt_core/UI_Controller.c ****         block_start_CoordY = Obj->Gen_Data.y + 2;
 2734              		.loc 1 859 24 is_stmt 0 view .LVU768
 2735 0088 DAF80840 		ldr	r4, [r10, #8]
 2736              	.LVL241:
 859:Dsp/widget/wgt_core/UI_Controller.c ****         block_start_CoordY = Obj->Gen_Data.y + 2;
 2737              		.loc 1 859 50 view .LVU769
 2738 008c A888     		ldrh	r0, [r5, #4]	@ unaligned
 859:Dsp/widget/wgt_core/UI_Controller.c ****         block_start_CoordY = Obj->Gen_Data.y + 2;
 2739              		.loc 1 859 53 view .LVU770
 2740 008e 28FA09F6 		lsr	r6, r8, r9
 2741 0092 00EB5800 		add	r0, r0, r8, lsr #1
 859:Dsp/widget/wgt_core/UI_Controller.c ****         block_start_CoordY = Obj->Gen_Data.y + 2;
 2742              		.loc 1 859 9 view .LVU771
 2743 0096 4B46     		mov	r3, r9
 2744 0098 CDF80090 		str	r9, [sp]
 2745 009c 0522     		movs	r2, #5
 2746 009e B5F90610 		ldrsh	r1, [r5, #6]	@ unaligned
 2747 00a2 00B2     		sxth	r0, r0
 2748 00a4 A047     		blx	r4
 2749              	.LVL242:
 860:Dsp/widget/wgt_core/UI_Controller.c **** 
 2750              		.loc 1 860 9 is_stmt 1 view .LVU772
 860:Dsp/widget/wgt_core/UI_Controller.c **** 
ARM GAS  /var/folders/lx/hc4sn_b53233_zkc9xbbl97r0000gp/T//cc29qxiB.s 			page 70


 2751              		.loc 1 860 43 is_stmt 0 view .LVU773
 2752 00a6 E988     		ldrh	r1, [r5, #6]	@ unaligned
 860:Dsp/widget/wgt_core/UI_Controller.c **** 
 2753              		.loc 1 860 46 view .LVU774
 2754 00a8 0231     		adds	r1, r1, #2
 860:Dsp/widget/wgt_core/UI_Controller.c **** 
 2755              		.loc 1 860 28 view .LVU775
 2756 00aa 09B2     		sxth	r1, r1
 2757              	.LVL243:
 862:Dsp/widget/wgt_core/UI_Controller.c ****         {
 2758              		.loc 1 862 9 is_stmt 1 view .LVU776
 862:Dsp/widget/wgt_core/UI_Controller.c ****         {
 2759              		.loc 1 862 16 is_stmt 0 view .LVU777
 2760 00ac EC69     		ldr	r4, [r5, #28]	@ unaligned
 862:Dsp/widget/wgt_core/UI_Controller.c ****         {
 2761              		.loc 1 862 31 view .LVU778
 2762 00ae 2A69     		ldr	r2, [r5, #16]	@ unaligned
 862:Dsp/widget/wgt_core/UI_Controller.c ****         {
 2763              		.loc 1 862 43 view .LVU779
 2764 00b0 AB69     		ldr	r3, [r5, #24]	@ unaligned
 862:Dsp/widget/wgt_core/UI_Controller.c ****         {
 2765              		.loc 1 862 51 view .LVU780
 2766 00b2 03EBD370 		add	r0, r3, r3, lsr #31
 862:Dsp/widget/wgt_core/UI_Controller.c ****         {
 2767              		.loc 1 862 37 view .LVU781
 2768 00b6 02EB6002 		add	r2, r2, r0, asr #1
 862:Dsp/widget/wgt_core/UI_Controller.c ****         {
 2769              		.loc 1 862 12 view .LVU782
 2770 00ba 9442     		cmp	r4, r2
 2771 00bc 2ADA     		bge	.L241
 864:Dsp/widget/wgt_core/UI_Controller.c ****             block_end_CoordX = Obj->Gen_Data.x + frame_width / 2 - 1;
 2772              		.loc 1 864 13 is_stmt 1 view .LVU783
 864:Dsp/widget/wgt_core/UI_Controller.c ****             block_end_CoordX = Obj->Gen_Data.x + frame_width / 2 - 1;
 2773              		.loc 1 864 50 is_stmt 0 view .LVU784
 2774 00be 07EE903A 		vmov	s15, r3	@ int
 2775 00c2 F8EEE77A 		vcvt.f32.s32	s15, s15
 864:Dsp/widget/wgt_core/UI_Controller.c ****             block_end_CoordX = Obj->Gen_Data.x + frame_width / 2 - 1;
 2776              		.loc 1 864 48 view .LVU785
 2777 00c6 07EE104A 		vmov	s14, r4	@ int
 2778 00ca B8EEC77A 		vcvt.f32.s32	s14, s14
 2779 00ce C7EE276A 		vdiv.f32	s13, s14, s15
 864:Dsp/widget/wgt_core/UI_Controller.c ****             block_end_CoordX = Obj->Gen_Data.x + frame_width / 2 - 1;
 2780              		.loc 1 864 74 view .LVU786
 2781 00d2 95F82030 		ldrb	r3, [r5, #32]	@ zero_extendqisi2
 2782 00d6 07EE903A 		vmov	s15, r3	@ int
 864:Dsp/widget/wgt_core/UI_Controller.c ****             block_end_CoordX = Obj->Gen_Data.x + frame_width / 2 - 1;
 2783              		.loc 1 864 69 view .LVU787
 2784 00da F8EEE77A 		vcvt.f32.s32	s15, s15
 2785 00de 67EEA67A 		vmul.f32	s15, s15, s13
 864:Dsp/widget/wgt_core/UI_Controller.c ****             block_end_CoordX = Obj->Gen_Data.x + frame_width / 2 - 1;
 2786              		.loc 1 864 32 view .LVU788
 2787 00e2 FDEEE77A 		vcvt.s32.f32	s15, s15
 2788 00e6 17EE903A 		vmov	r3, s15	@ int
 2789 00ea 18B2     		sxth	r0, r3
 2790              	.LVL244:
 865:Dsp/widget/wgt_core/UI_Controller.c ****         }
 2791              		.loc 1 865 13 is_stmt 1 view .LVU789
ARM GAS  /var/folders/lx/hc4sn_b53233_zkc9xbbl97r0000gp/T//cc29qxiB.s 			page 71


 865:Dsp/widget/wgt_core/UI_Controller.c ****         }
 2792              		.loc 1 865 45 is_stmt 0 view .LVU790
 2793 00ec AA88     		ldrh	r2, [r5, #4]	@ unaligned
 865:Dsp/widget/wgt_core/UI_Controller.c ****         }
 2794              		.loc 1 865 48 view .LVU791
 2795 00ee 3244     		add	r2, r2, r6
 2796 00f0 92B2     		uxth	r2, r2
 865:Dsp/widget/wgt_core/UI_Controller.c ****         }
 2797              		.loc 1 865 66 view .LVU792
 2798 00f2 013A     		subs	r2, r2, #1
 865:Dsp/widget/wgt_core/UI_Controller.c ****         }
 2799              		.loc 1 865 30 view .LVU793
 2800 00f4 12B2     		sxth	r2, r2
 2801              	.LVL245:
 2802              	.L242:
 873:Dsp/widget/wgt_core/UI_Controller.c ****     }
 2803              		.loc 1 873 9 is_stmt 1 view .LVU794
 873:Dsp/widget/wgt_core/UI_Controller.c ****     }
 2804              		.loc 1 873 24 is_stmt 0 view .LVU795
 2805 00f6 1C4B     		ldr	r3, .L255+4
 2806 00f8 1D6A     		ldr	r5, [r3, #32]
 2807              	.LVL246:
 873:Dsp/widget/wgt_core/UI_Controller.c ****     }
 2808              		.loc 1 873 9 view .LVU796
 2809 00fa 121A     		subs	r2, r2, r0
 2810              	.LVL247:
 873:Dsp/widget/wgt_core/UI_Controller.c ****     }
 2811              		.loc 1 873 9 view .LVU797
 2812 00fc 0124     		movs	r4, #1
 2813 00fe 0094     		str	r4, [sp]
 2814 0100 0323     		movs	r3, #3
 2815 0102 D2B2     		uxtb	r2, r2
 2816 0104 A847     		blx	r5
 2817              	.LVL248:
 878:Dsp/widget/wgt_core/UI_Controller.c **** }
 2818              		.loc 1 878 12 view .LVU798
 2819 0106 2046     		mov	r0, r4
 2820 0108 95E7     		b	.L239
 2821              	.LVL249:
 2822              	.L254:
 844:Dsp/widget/wgt_core/UI_Controller.c **** 
 2823              		.loc 1 844 9 is_stmt 1 view .LVU799
 844:Dsp/widget/wgt_core/UI_Controller.c **** 
 2824              		.loc 1 844 21 is_stmt 0 view .LVU800
 2825 010a 08F1FF38 		add	r8, r8, #-1
 2826 010e 5FFA88F8 		uxtb	r8, r8
 2827              	.LVL250:
 844:Dsp/widget/wgt_core/UI_Controller.c **** 
 2828              		.loc 1 844 21 view .LVU801
 2829 0112 9AE7     		b	.L240
 2830              	.LVL251:
 2831              	.L241:
 867:Dsp/widget/wgt_core/UI_Controller.c ****         {
 2832              		.loc 1 867 14 is_stmt 1 view .LVU802
 867:Dsp/widget/wgt_core/UI_Controller.c ****         {
 2833              		.loc 1 867 17 is_stmt 0 view .LVU803
 2834 0114 9442     		cmp	r4, r2
ARM GAS  /var/folders/lx/hc4sn_b53233_zkc9xbbl97r0000gp/T//cc29qxiB.s 			page 72


 2835 0116 1CDD     		ble	.L248
 869:Dsp/widget/wgt_core/UI_Controller.c ****             block_end_CoordX = (Obj->cur_val / (float)Obj->range) * Obj->width;
 2836              		.loc 1 869 13 is_stmt 1 view .LVU804
 869:Dsp/widget/wgt_core/UI_Controller.c ****             block_end_CoordX = (Obj->cur_val / (float)Obj->range) * Obj->width;
 2837              		.loc 1 869 47 is_stmt 0 view .LVU805
 2838 0118 A888     		ldrh	r0, [r5, #4]	@ unaligned
 869:Dsp/widget/wgt_core/UI_Controller.c ****             block_end_CoordX = (Obj->cur_val / (float)Obj->range) * Obj->width;
 2839              		.loc 1 869 50 view .LVU806
 2840 011a 3044     		add	r0, r0, r6
 2841 011c 80B2     		uxth	r0, r0
 869:Dsp/widget/wgt_core/UI_Controller.c ****             block_end_CoordX = (Obj->cur_val / (float)Obj->range) * Obj->width;
 2842              		.loc 1 869 68 view .LVU807
 2843 011e 0130     		adds	r0, r0, #1
 869:Dsp/widget/wgt_core/UI_Controller.c ****             block_end_CoordX = (Obj->cur_val / (float)Obj->range) * Obj->width;
 2844              		.loc 1 869 32 view .LVU808
 2845 0120 00B2     		sxth	r0, r0
 2846              	.LVL252:
 870:Dsp/widget/wgt_core/UI_Controller.c ****         }
 2847              		.loc 1 870 13 is_stmt 1 view .LVU809
 870:Dsp/widget/wgt_core/UI_Controller.c ****         }
 2848              		.loc 1 870 48 is_stmt 0 view .LVU810
 2849 0122 07EE903A 		vmov	s15, r3	@ int
 2850 0126 B8EEE77A 		vcvt.f32.s32	s14, s15
 870:Dsp/widget/wgt_core/UI_Controller.c ****         }
 2851              		.loc 1 870 46 view .LVU811
 2852 012a 07EE904A 		vmov	s15, r4	@ int
 2853 012e F8EEE76A 		vcvt.f32.s32	s13, s15
 2854 0132 86EE876A 		vdiv.f32	s12, s13, s14
 870:Dsp/widget/wgt_core/UI_Controller.c ****         }
 2855              		.loc 1 870 72 view .LVU812
 2856 0136 95F82030 		ldrb	r3, [r5, #32]	@ zero_extendqisi2
 2857 013a 07EE903A 		vmov	s15, r3	@ int
 870:Dsp/widget/wgt_core/UI_Controller.c ****         }
 2858              		.loc 1 870 67 view .LVU813
 2859 013e F8EEE77A 		vcvt.f32.s32	s15, s15
 2860 0142 67EE867A 		vmul.f32	s15, s15, s12
 870:Dsp/widget/wgt_core/UI_Controller.c ****         }
 2861              		.loc 1 870 30 view .LVU814
 2862 0146 FDEEE77A 		vcvt.s32.f32	s15, s15
 2863 014a 17EE903A 		vmov	r3, s15	@ int
 2864 014e 1AB2     		sxth	r2, r3
 2865              	.LVL253:
 870:Dsp/widget/wgt_core/UI_Controller.c ****         }
 2866              		.loc 1 870 30 view .LVU815
 2867 0150 D1E7     		b	.L242
 2868              	.LVL254:
 2869              	.L248:
 823:Dsp/widget/wgt_core/UI_Controller.c ****     int16_t block_end_CoordY = 0;
 2870              		.loc 1 823 13 view .LVU816
 2871 0152 0022     		movs	r2, #0
 821:Dsp/widget/wgt_core/UI_Controller.c ****     int16_t block_start_CoordY = 0;
 2872              		.loc 1 821 13 view .LVU817
 2873 0154 1046     		mov	r0, r2
 2874 0156 CEE7     		b	.L242
 2875              	.LVL255:
 2876              	.L243:
 2877              	.LCFI55:
ARM GAS  /var/folders/lx/hc4sn_b53233_zkc9xbbl97r0000gp/T//cc29qxiB.s 			page 73


 2878              		.cfi_def_cfa_offset 0
 2879              		.cfi_restore 4
 2880              		.cfi_restore 5
 2881              		.cfi_restore 6
 2882              		.cfi_restore 7
 2883              		.cfi_restore 8
 2884              		.cfi_restore 9
 2885              		.cfi_restore 10
 2886              		.cfi_restore 14
 827:Dsp/widget/wgt_core/UI_Controller.c **** 
 2887              		.loc 1 827 16 view .LVU818
 2888 0158 0020     		movs	r0, #0
 2889              	.LVL256:
 2890              		.loc 1 879 1 view .LVU819
 2891 015a 7047     		bx	lr
 2892              	.LVL257:
 2893              	.L246:
 2894              	.LCFI56:
 2895              		.cfi_def_cfa_offset 40
 2896              		.cfi_offset 4, -32
 2897              		.cfi_offset 5, -28
 2898              		.cfi_offset 6, -24
 2899              		.cfi_offset 7, -20
 2900              		.cfi_offset 8, -16
 2901              		.cfi_offset 9, -12
 2902              		.cfi_offset 10, -8
 2903              		.cfi_offset 14, -4
 878:Dsp/widget/wgt_core/UI_Controller.c **** }
 2904              		.loc 1 878 12 view .LVU820
 2905 015c 0120     		movs	r0, #1
 2906 015e 6AE7     		b	.L239
 2907              	.L247:
 876:Dsp/widget/wgt_core/UI_Controller.c **** 
 2908              		.loc 1 876 16 view .LVU821
 2909 0160 0020     		movs	r0, #0
 2910 0162 68E7     		b	.L239
 2911              	.L256:
 2912              		.align	2
 2913              	.L255:
 2914 0164 00000000 		.word	.LANCHOR2
 2915 0168 00000000 		.word	.LANCHOR0
 2916              		.cfi_endproc
 2917              	.LFE36:
 2919              		.section	.rodata.UI_ProcessBar_DspLoadBar.str1.4,"aMS",%progbits,1
 2920              		.align	2
 2921              	.LC2:
 2922 0000 4F6E2050 		.ascii	"On Process : %d%%\000"
 2922      726F6365 
 2922      7373203A 
 2922      20256425 
 2922      2500
 2923              		.section	.text.UI_ProcessBar_DspLoadBar,"ax",%progbits
 2924              		.align	1
 2925              		.syntax unified
 2926              		.thumb
 2927              		.thumb_func
 2928              		.fpu fpv4-sp-d16
ARM GAS  /var/folders/lx/hc4sn_b53233_zkc9xbbl97r0000gp/T//cc29qxiB.s 			page 74


 2930              	UI_ProcessBar_DspLoadBar:
 2931              	.LVL258:
 2932              	.LFB34:
 754:Dsp/widget/wgt_core/UI_Controller.c ****     uint8_t frame_radius = 0;
 2933              		.loc 1 754 1 is_stmt 1 view -0
 2934              		.cfi_startproc
 2935              		@ args = 0, pretend = 0, frame = 32
 2936              		@ frame_needed = 0, uses_anonymous_args = 0
 755:Dsp/widget/wgt_core/UI_Controller.c ****     int16_t Str_CoordX = 0;
 2937              		.loc 1 755 5 view .LVU823
 756:Dsp/widget/wgt_core/UI_Controller.c ****     int16_t Str_CoordY = 0;
 2938              		.loc 1 756 5 view .LVU824
 757:Dsp/widget/wgt_core/UI_Controller.c ****     float Pcnt_Val = 0;
 2939              		.loc 1 757 5 view .LVU825
 758:Dsp/widget/wgt_core/UI_Controller.c ****     char dsp_str[20];
 2940              		.loc 1 758 5 view .LVU826
 759:Dsp/widget/wgt_core/UI_Controller.c **** 
 2941              		.loc 1 759 5 view .LVU827
 761:Dsp/widget/wgt_core/UI_Controller.c ****         return false;
 2942              		.loc 1 761 5 view .LVU828
 761:Dsp/widget/wgt_core/UI_Controller.c ****         return false;
 2943              		.loc 1 761 8 is_stmt 0 view .LVU829
 2944 0000 0028     		cmp	r0, #0
 2945 0002 00F08980 		beq	.L259
 754:Dsp/widget/wgt_core/UI_Controller.c ****     uint8_t frame_radius = 0;
 2946              		.loc 1 754 1 view .LVU830
 2947 0006 2DE9F04F 		push	{r4, r5, r6, r7, r8, r9, r10, fp, lr}
 2948              	.LCFI57:
 2949              		.cfi_def_cfa_offset 36
 2950              		.cfi_offset 4, -36
 2951              		.cfi_offset 5, -32
 2952              		.cfi_offset 6, -28
 2953              		.cfi_offset 7, -24
 2954              		.cfi_offset 8, -20
 2955              		.cfi_offset 9, -16
 2956              		.cfi_offset 10, -12
 2957              		.cfi_offset 11, -8
 2958              		.cfi_offset 14, -4
 2959 000a 2DED028B 		vpush.64	{d8}
 2960              	.LCFI58:
 2961              		.cfi_def_cfa_offset 44
 2962              		.cfi_offset 80, -44
 2963              		.cfi_offset 81, -40
 2964 000e 8DB0     		sub	sp, sp, #52
 2965              	.LCFI59:
 2966              		.cfi_def_cfa_offset 96
 2967 0010 0546     		mov	r5, r0
 764:Dsp/widget/wgt_core/UI_Controller.c **** 
 2968              		.loc 1 764 5 is_stmt 1 view .LVU831
 2969 0012 0023     		movs	r3, #0
 2970 0014 0793     		str	r3, [sp, #28]
 2971 0016 0893     		str	r3, [sp, #32]
 2972 0018 0993     		str	r3, [sp, #36]
 2973 001a 0A93     		str	r3, [sp, #40]
 2974 001c 0B93     		str	r3, [sp, #44]
 766:Dsp/widget/wgt_core/UI_Controller.c ****     sprintf(dsp_str, "On Process : %d%%", (uint8_t)(Pcnt_Val * 100));
 2975              		.loc 1 766 5 view .LVU832
ARM GAS  /var/folders/lx/hc4sn_b53233_zkc9xbbl97r0000gp/T//cc29qxiB.s 			page 75


 766:Dsp/widget/wgt_core/UI_Controller.c ****     sprintf(dsp_str, "On Process : %d%%", (uint8_t)(Pcnt_Val * 100));
 2976              		.loc 1 766 20 is_stmt 0 view .LVU833
 2977 001e C369     		ldr	r3, [r0, #28]	@ unaligned
 2978 0020 07EE103A 		vmov	s14, r3	@ int
 766:Dsp/widget/wgt_core/UI_Controller.c ****     sprintf(dsp_str, "On Process : %d%%", (uint8_t)(Pcnt_Val * 100));
 2979              		.loc 1 766 30 view .LVU834
 2980 0024 B8EEC77A 		vcvt.f32.s32	s14, s14
 766:Dsp/widget/wgt_core/UI_Controller.c ****     sprintf(dsp_str, "On Process : %d%%", (uint8_t)(Pcnt_Val * 100));
 2981              		.loc 1 766 42 view .LVU835
 2982 0028 8369     		ldr	r3, [r0, #24]	@ unaligned
 2983 002a 07EE903A 		vmov	s15, r3	@ int
 766:Dsp/widget/wgt_core/UI_Controller.c ****     sprintf(dsp_str, "On Process : %d%%", (uint8_t)(Pcnt_Val * 100));
 2984              		.loc 1 766 32 view .LVU836
 2985 002e F8EEE77A 		vcvt.f32.s32	s15, s15
 766:Dsp/widget/wgt_core/UI_Controller.c ****     sprintf(dsp_str, "On Process : %d%%", (uint8_t)(Pcnt_Val * 100));
 2986              		.loc 1 766 14 view .LVU837
 2987 0032 87EE278A 		vdiv.f32	s16, s14, s15
 2988              	.LVL259:
 767:Dsp/widget/wgt_core/UI_Controller.c **** 
 2989              		.loc 1 767 5 is_stmt 1 view .LVU838
 767:Dsp/widget/wgt_core/UI_Controller.c **** 
 2990              		.loc 1 767 62 is_stmt 0 view .LVU839
 2991 0036 DFED397A 		vldr.32	s15, .L264
 2992 003a 68EE277A 		vmul.f32	s15, s16, s15
 767:Dsp/widget/wgt_core/UI_Controller.c **** 
 2993              		.loc 1 767 43 view .LVU840
 2994 003e FCEEE77A 		vcvt.u32.f32	s15, s15
 2995 0042 CDED057A 		vstr.32	s15, [sp, #20]	@ int
 767:Dsp/widget/wgt_core/UI_Controller.c **** 
 2996              		.loc 1 767 5 view .LVU841
 2997 0046 9DF81420 		ldrb	r2, [sp, #20]	@ zero_extendqisi2
 2998 004a 3549     		ldr	r1, .L264+4
 2999 004c 07A8     		add	r0, sp, #28
 3000              	.LVL260:
 767:Dsp/widget/wgt_core/UI_Controller.c **** 
 3001              		.loc 1 767 5 view .LVU842
 3002 004e FFF7FEFF 		bl	sprintf
 3003              	.LVL261:
 769:Dsp/widget/wgt_core/UI_Controller.c ****     Str_CoordY = Obj->Gen_Data.y - base_font - 2;
 3004              		.loc 1 769 5 is_stmt 1 view .LVU843
 769:Dsp/widget/wgt_core/UI_Controller.c ****     Str_CoordY = Obj->Gen_Data.y - base_font - 2;
 3005              		.loc 1 769 31 is_stmt 0 view .LVU844
 3006 0052 B5F904B0 		ldrsh	fp, [r5, #4]	@ unaligned
 3007 0056 0FFA8BFA 		sxth	r10, fp
 3008 005a 1FFA8BFB 		uxth	fp, fp
 769:Dsp/widget/wgt_core/UI_Controller.c ****     Str_CoordY = Obj->Gen_Data.y - base_font - 2;
 3009              		.loc 1 769 40 view .LVU845
 3010 005e 95F82090 		ldrb	r9, [r5, #32]	@ zero_extendqisi2
 769:Dsp/widget/wgt_core/UI_Controller.c ****     Str_CoordY = Obj->Gen_Data.y - base_font - 2;
 3011              		.loc 1 769 51 view .LVU846
 3012 0062 07A8     		add	r0, sp, #28
 3013 0064 FFF7FEFF 		bl	strlen
 3014              	.LVL262:
 769:Dsp/widget/wgt_core/UI_Controller.c ****     Str_CoordY = Obj->Gen_Data.y - base_font - 2;
 3015              		.loc 1 769 67 view .LVU847
 3016 0068 00EB4000 		add	r0, r0, r0, lsl #1
 769:Dsp/widget/wgt_core/UI_Controller.c ****     Str_CoordY = Obj->Gen_Data.y - base_font - 2;
ARM GAS  /var/folders/lx/hc4sn_b53233_zkc9xbbl97r0000gp/T//cc29qxiB.s 			page 76


 3017              		.loc 1 769 48 view .LVU848
 3018 006c A9EB4000 		sub	r0, r9, r0, lsl #1
 769:Dsp/widget/wgt_core/UI_Controller.c ****     Str_CoordY = Obj->Gen_Data.y - base_font - 2;
 3019              		.loc 1 769 34 view .LVU849
 3020 0070 0BEB500B 		add	fp, fp, r0, lsr #1
 769:Dsp/widget/wgt_core/UI_Controller.c ****     Str_CoordY = Obj->Gen_Data.y - base_font - 2;
 3021              		.loc 1 769 16 view .LVU850
 3022 0074 0FFA8BFB 		sxth	fp, fp
 3023              	.LVL263:
 770:Dsp/widget/wgt_core/UI_Controller.c **** 
 3024              		.loc 1 770 5 is_stmt 1 view .LVU851
 770:Dsp/widget/wgt_core/UI_Controller.c **** 
 3025              		.loc 1 770 31 is_stmt 0 view .LVU852
 3026 0078 B5F90610 		ldrsh	r1, [r5, #6]	@ unaligned
 3027 007c 8CB2     		uxth	r4, r1
 770:Dsp/widget/wgt_core/UI_Controller.c **** 
 3028              		.loc 1 770 34 view .LVU853
 3029 007e DFF8A880 		ldr	r8, .L264+12
 3030 0082 98F80030 		ldrb	r3, [r8]	@ zero_extendqisi2
 3031 0086 E41A     		subs	r4, r4, r3
 3032 0088 A4B2     		uxth	r4, r4
 770:Dsp/widget/wgt_core/UI_Controller.c **** 
 3033              		.loc 1 770 46 view .LVU854
 3034 008a 023C     		subs	r4, r4, #2
 770:Dsp/widget/wgt_core/UI_Controller.c **** 
 3035              		.loc 1 770 16 view .LVU855
 3036 008c 23B2     		sxth	r3, r4
 3037 008e 0593     		str	r3, [sp, #20]
 3038              	.LVL264:
 773:Dsp/widget/wgt_core/UI_Controller.c ****     UI_DspInterface.draw_str(base_font, dsp_str, Str_CoordX, Str_CoordY, true);
 3039              		.loc 1 773 5 is_stmt 1 view .LVU856
 773:Dsp/widget/wgt_core/UI_Controller.c ****     UI_DspInterface.draw_str(base_font, dsp_str, Str_CoordX, Str_CoordY, true);
 3040              		.loc 1 773 20 is_stmt 0 view .LVU857
 3041 0090 244F     		ldr	r7, .L264+8
 773:Dsp/widget/wgt_core/UI_Controller.c ****     UI_DspInterface.draw_str(base_font, dsp_str, Str_CoordX, Str_CoordY, true);
 3042              		.loc 1 773 5 view .LVU858
 3043 0092 0126     		movs	r6, #1
 3044 0094 0296     		str	r6, [sp, #8]
 3045 0096 0196     		str	r6, [sp, #4]
 3046 0098 0223     		movs	r3, #2
 3047 009a 0093     		str	r3, [sp]
 3048 009c 0523     		movs	r3, #5
 3049 009e 4A46     		mov	r2, r9
 3050 00a0 09B2     		sxth	r1, r1
 3051 00a2 5046     		mov	r0, r10
 3052 00a4 3C69     		ldr	r4, [r7, #16]
 3053 00a6 A047     		blx	r4
 3054              	.LVL265:
 774:Dsp/widget/wgt_core/UI_Controller.c ****     UI_DspInterface.draw_line_h(Obj->Gen_Data.x + 2, Obj->Gen_Data.y + 2, Pcnt_Val * (Obj->width - 
 3055              		.loc 1 774 5 is_stmt 1 view .LVU859
 3056 00a8 0096     		str	r6, [sp]
 3057 00aa 059B     		ldr	r3, [sp, #20]
 3058 00ac 5A46     		mov	r2, fp
 3059 00ae 07A9     		add	r1, sp, #28
 3060 00b0 98F80000 		ldrb	r0, [r8]	@ zero_extendqisi2
 3061 00b4 3C68     		ldr	r4, [r7]
 3062 00b6 A047     		blx	r4
ARM GAS  /var/folders/lx/hc4sn_b53233_zkc9xbbl97r0000gp/T//cc29qxiB.s 			page 77


 3063              	.LVL266:
 775:Dsp/widget/wgt_core/UI_Controller.c **** 
 3064              		.loc 1 775 5 view .LVU860
 775:Dsp/widget/wgt_core/UI_Controller.c **** 
 3065              		.loc 1 775 20 is_stmt 0 view .LVU861
 3066 00b8 BC68     		ldr	r4, [r7, #8]
 775:Dsp/widget/wgt_core/UI_Controller.c **** 
 3067              		.loc 1 775 46 view .LVU862
 3068 00ba B5F90400 		ldrsh	r0, [r5, #4]	@ unaligned
 3069 00be 03B2     		sxth	r3, r0
 3070 00c0 07EE903A 		vmov	s15, r3	@ int
 3071 00c4 80B2     		uxth	r0, r0
 775:Dsp/widget/wgt_core/UI_Controller.c **** 
 3072              		.loc 1 775 49 view .LVU863
 3073 00c6 0230     		adds	r0, r0, #2
 775:Dsp/widget/wgt_core/UI_Controller.c **** 
 3074              		.loc 1 775 67 view .LVU864
 3075 00c8 B5F90610 		ldrsh	r1, [r5, #6]	@ unaligned
 3076 00cc 0BB2     		sxth	r3, r1
 3077 00ce 89B2     		uxth	r1, r1
 775:Dsp/widget/wgt_core/UI_Controller.c **** 
 3078              		.loc 1 775 70 view .LVU865
 3079 00d0 0231     		adds	r1, r1, #2
 775:Dsp/widget/wgt_core/UI_Controller.c **** 
 3080              		.loc 1 775 90 view .LVU866
 3081 00d2 95F82020 		ldrb	r2, [r5, #32]	@ zero_extendqisi2
 775:Dsp/widget/wgt_core/UI_Controller.c **** 
 3082              		.loc 1 775 98 view .LVU867
 3083 00d6 063A     		subs	r2, r2, #6
 3084 00d8 07EE102A 		vmov	s14, r2	@ int
 775:Dsp/widget/wgt_core/UI_Controller.c **** 
 3085              		.loc 1 775 84 view .LVU868
 3086 00dc B8EEC77A 		vcvt.f32.s32	s14, s14
 3087 00e0 27EE087A 		vmul.f32	s14, s14, s16
 775:Dsp/widget/wgt_core/UI_Controller.c **** 
 3088              		.loc 1 775 103 view .LVU869
 3089 00e4 F8EEE77A 		vcvt.f32.s32	s15, s15
 3090 00e8 77EE877A 		vadd.f32	s15, s15, s14
 775:Dsp/widget/wgt_core/UI_Controller.c **** 
 3091              		.loc 1 775 121 view .LVU870
 3092 00ec B0EE007A 		vmov.f32	s14, #2.0e+0
 3093 00f0 77EE877A 		vadd.f32	s15, s15, s14
 775:Dsp/widget/wgt_core/UI_Controller.c **** 
 3094              		.loc 1 775 5 view .LVU871
 3095 00f4 0233     		adds	r3, r3, #2
 3096 00f6 FCEEE77A 		vcvt.u32.f32	s15, s15
 3097 00fa CDED057A 		vstr.32	s15, [sp, #20]	@ int
 3098              	.LVL267:
 775:Dsp/widget/wgt_core/UI_Controller.c **** 
 3099              		.loc 1 775 5 view .LVU872
 3100 00fe 0096     		str	r6, [sp]
 3101 0100 DBB2     		uxtb	r3, r3
 3102 0102 9DF81420 		ldrb	r2, [sp, #20]	@ zero_extendqisi2
 3103 0106 09B2     		sxth	r1, r1
 3104 0108 00B2     		sxth	r0, r0
 3105 010a A047     		blx	r4
 3106              	.LVL268:
ARM GAS  /var/folders/lx/hc4sn_b53233_zkc9xbbl97r0000gp/T//cc29qxiB.s 			page 78


 777:Dsp/widget/wgt_core/UI_Controller.c **** }
 3107              		.loc 1 777 5 is_stmt 1 view .LVU873
 777:Dsp/widget/wgt_core/UI_Controller.c **** }
 3108              		.loc 1 777 12 is_stmt 0 view .LVU874
 3109 010c 3046     		mov	r0, r6
 778:Dsp/widget/wgt_core/UI_Controller.c **** 
 3110              		.loc 1 778 1 view .LVU875
 3111 010e 0DB0     		add	sp, sp, #52
 3112              	.LCFI60:
 3113              		.cfi_def_cfa_offset 44
 3114              		@ sp needed
 3115 0110 BDEC028B 		vldm	sp!, {d8}
 3116              	.LCFI61:
 3117              		.cfi_restore 80
 3118              		.cfi_restore 81
 3119              		.cfi_def_cfa_offset 36
 3120              	.LVL269:
 778:Dsp/widget/wgt_core/UI_Controller.c **** 
 3121              		.loc 1 778 1 view .LVU876
 3122 0114 BDE8F08F 		pop	{r4, r5, r6, r7, r8, r9, r10, fp, pc}
 3123              	.LVL270:
 3124              	.L259:
 3125              	.LCFI62:
 3126              		.cfi_def_cfa_offset 0
 3127              		.cfi_restore 4
 3128              		.cfi_restore 5
 3129              		.cfi_restore 6
 3130              		.cfi_restore 7
 3131              		.cfi_restore 8
 3132              		.cfi_restore 9
 3133              		.cfi_restore 10
 3134              		.cfi_restore 11
 3135              		.cfi_restore 14
 762:Dsp/widget/wgt_core/UI_Controller.c **** 
 3136              		.loc 1 762 16 view .LVU877
 3137 0118 0020     		movs	r0, #0
 3138              	.LVL271:
 778:Dsp/widget/wgt_core/UI_Controller.c **** 
 3139              		.loc 1 778 1 view .LVU878
 3140 011a 7047     		bx	lr
 3141              	.L265:
 3142              		.align	2
 3143              	.L264:
 3144 011c 0000C842 		.word	1120403456
 3145 0120 00000000 		.word	.LC2
 3146 0124 00000000 		.word	.LANCHOR0
 3147 0128 00000000 		.word	.LANCHOR2
 3148              		.cfi_endproc
 3149              	.LFE34:
 3151              		.section	.text.UI_ProcessBar_Ctl,"ax",%progbits
 3152              		.align	1
 3153              		.syntax unified
 3154              		.thumb
 3155              		.thumb_func
 3156              		.fpu fpv4-sp-d16
 3158              	UI_ProcessBar_Ctl:
 3159              	.LVL272:
ARM GAS  /var/folders/lx/hc4sn_b53233_zkc9xbbl97r0000gp/T//cc29qxiB.s 			page 79


 3160              	.LFB37:
 880:Dsp/widget/wgt_core/UI_Controller.c **** 
 881:Dsp/widget/wgt_core/UI_Controller.c **** static bool UI_ProcessBar_Ctl(UI_ProcessBarObj_TypeDef *Obj)
 882:Dsp/widget/wgt_core/UI_Controller.c **** {
 3161              		.loc 1 882 1 is_stmt 1 view -0
 3162              		.cfi_startproc
 3163              		@ args = 0, pretend = 0, frame = 8
 3164              		@ frame_needed = 0, uses_anonymous_args = 0
 3165              		.loc 1 882 1 is_stmt 0 view .LVU880
 3166 0000 00B5     		push	{lr}
 3167              	.LCFI63:
 3168              		.cfi_def_cfa_offset 4
 3169              		.cfi_offset 14, -4
 3170 0002 83B0     		sub	sp, sp, #12
 3171              	.LCFI64:
 3172              		.cfi_def_cfa_offset 16
 883:Dsp/widget/wgt_core/UI_Controller.c ****     char dig_str[3];
 3173              		.loc 1 883 5 is_stmt 1 view .LVU881
 884:Dsp/widget/wgt_core/UI_Controller.c ****     memset(dig_str, NULL, 3);
 3174              		.loc 1 884 5 view .LVU882
 3175 0004 0023     		movs	r3, #0
 3176 0006 ADF80430 		strh	r3, [sp, #4]	@ movhi
 3177 000a 8DF80630 		strb	r3, [sp, #6]
 885:Dsp/widget/wgt_core/UI_Controller.c **** 
 886:Dsp/widget/wgt_core/UI_Controller.c ****     if ((UI_DspInterface.draw_radius_rectangle == NULL) ||
 3178              		.loc 1 886 5 view .LVU883
 3179              		.loc 1 886 25 is_stmt 0 view .LVU884
 3180 000e 0F4B     		ldr	r3, .L275
 3181 0010 1B69     		ldr	r3, [r3, #16]
 3182              		.loc 1 886 8 view .LVU885
 3183 0012 B3B1     		cbz	r3, .L270
 887:Dsp/widget/wgt_core/UI_Controller.c ****         (UI_DspInterface.draw_str == NULL))
 3184              		.loc 1 887 25 discriminator 1 view .LVU886
 3185 0014 0D4B     		ldr	r3, .L275
 3186 0016 1B68     		ldr	r3, [r3]
 886:Dsp/widget/wgt_core/UI_Controller.c ****         (UI_DspInterface.draw_str == NULL))
 3187              		.loc 1 886 57 discriminator 1 view .LVU887
 3188 0018 ABB1     		cbz	r3, .L271
 888:Dsp/widget/wgt_core/UI_Controller.c ****         return false;
 889:Dsp/widget/wgt_core/UI_Controller.c **** 
 890:Dsp/widget/wgt_core/UI_Controller.c ****     switch (Obj->Dsp_Type)
 3189              		.loc 1 890 5 is_stmt 1 view .LVU888
 3190              		.loc 1 890 16 is_stmt 0 view .LVU889
 3191 001a 90F82230 		ldrb	r3, [r0, #34]	@ zero_extendqisi2
 3192              		.loc 1 890 5 view .LVU890
 3193 001e 012B     		cmp	r3, #1
 3194 0020 09D0     		beq	.L268
 3195 0022 022B     		cmp	r3, #2
 3196 0024 0AD0     		beq	.L269
 3197 0026 1BB1     		cbz	r3, .L274
 3198 0028 0020     		movs	r0, #0
 3199              	.LVL273:
 3200              	.L267:
 891:Dsp/widget/wgt_core/UI_Controller.c ****     {
 892:Dsp/widget/wgt_core/UI_Controller.c ****     case UI_ProcBar_DspType_LoadBar:
 893:Dsp/widget/wgt_core/UI_Controller.c ****         return UI_ProcessBar_DspLoadBar(Obj);
 894:Dsp/widget/wgt_core/UI_Controller.c **** 
ARM GAS  /var/folders/lx/hc4sn_b53233_zkc9xbbl97r0000gp/T//cc29qxiB.s 			page 80


 895:Dsp/widget/wgt_core/UI_Controller.c ****     case UI_ProcBar_DspType_DotBar:
 896:Dsp/widget/wgt_core/UI_Controller.c ****         return UI_ProcessBar_DspDotBar(Obj);
 897:Dsp/widget/wgt_core/UI_Controller.c **** 
 898:Dsp/widget/wgt_core/UI_Controller.c ****     case UI_ProcBar_DspType_FrameBar:
 899:Dsp/widget/wgt_core/UI_Controller.c ****         return UI_ProcessBar_DspFrameBar(Obj);
 900:Dsp/widget/wgt_core/UI_Controller.c **** 
 901:Dsp/widget/wgt_core/UI_Controller.c ****     default:
 902:Dsp/widget/wgt_core/UI_Controller.c ****         return false;
 903:Dsp/widget/wgt_core/UI_Controller.c ****     }
 904:Dsp/widget/wgt_core/UI_Controller.c **** }
 3201              		.loc 1 904 1 view .LVU891
 3202 002a 03B0     		add	sp, sp, #12
 3203              	.LCFI65:
 3204              		.cfi_remember_state
 3205              		.cfi_def_cfa_offset 4
 3206              		@ sp needed
 3207 002c 5DF804FB 		ldr	pc, [sp], #4
 3208              	.LVL274:
 3209              	.L274:
 3210              	.LCFI66:
 3211              		.cfi_restore_state
 893:Dsp/widget/wgt_core/UI_Controller.c **** 
 3212              		.loc 1 893 9 is_stmt 1 view .LVU892
 893:Dsp/widget/wgt_core/UI_Controller.c **** 
 3213              		.loc 1 893 16 is_stmt 0 view .LVU893
 3214 0030 FFF7FEFF 		bl	UI_ProcessBar_DspLoadBar
 3215              	.LVL275:
 893:Dsp/widget/wgt_core/UI_Controller.c **** 
 3216              		.loc 1 893 16 view .LVU894
 3217 0034 F9E7     		b	.L267
 3218              	.LVL276:
 3219              	.L268:
 896:Dsp/widget/wgt_core/UI_Controller.c **** 
 3220              		.loc 1 896 9 is_stmt 1 view .LVU895
 896:Dsp/widget/wgt_core/UI_Controller.c **** 
 3221              		.loc 1 896 16 is_stmt 0 view .LVU896
 3222 0036 FFF7FEFF 		bl	UI_ProcessBar_DspDotBar
 3223              	.LVL277:
 896:Dsp/widget/wgt_core/UI_Controller.c **** 
 3224              		.loc 1 896 16 view .LVU897
 3225 003a F6E7     		b	.L267
 3226              	.LVL278:
 3227              	.L269:
 899:Dsp/widget/wgt_core/UI_Controller.c **** 
 3228              		.loc 1 899 9 is_stmt 1 view .LVU898
 899:Dsp/widget/wgt_core/UI_Controller.c **** 
 3229              		.loc 1 899 16 is_stmt 0 view .LVU899
 3230 003c FFF7FEFF 		bl	UI_ProcessBar_DspFrameBar
 3231              	.LVL279:
 899:Dsp/widget/wgt_core/UI_Controller.c **** 
 3232              		.loc 1 899 16 view .LVU900
 3233 0040 F3E7     		b	.L267
 3234              	.LVL280:
 3235              	.L270:
 888:Dsp/widget/wgt_core/UI_Controller.c **** 
 3236              		.loc 1 888 16 view .LVU901
 3237 0042 0020     		movs	r0, #0
ARM GAS  /var/folders/lx/hc4sn_b53233_zkc9xbbl97r0000gp/T//cc29qxiB.s 			page 81


 3238              	.LVL281:
 888:Dsp/widget/wgt_core/UI_Controller.c **** 
 3239              		.loc 1 888 16 view .LVU902
 3240 0044 F1E7     		b	.L267
 3241              	.LVL282:
 3242              	.L271:
 888:Dsp/widget/wgt_core/UI_Controller.c **** 
 3243              		.loc 1 888 16 view .LVU903
 3244 0046 0020     		movs	r0, #0
 3245              	.LVL283:
 888:Dsp/widget/wgt_core/UI_Controller.c **** 
 3246              		.loc 1 888 16 view .LVU904
 3247 0048 EFE7     		b	.L267
 3248              	.L276:
 3249 004a 00BF     		.align	2
 3250              	.L275:
 3251 004c 00000000 		.word	.LANCHOR0
 3252              		.cfi_endproc
 3253              	.LFE37:
 3255              		.section	.text.UI_Set_FontType,"ax",%progbits
 3256              		.align	1
 3257              		.global	UI_Set_FontType
 3258              		.syntax unified
 3259              		.thumb
 3260              		.thumb_func
 3261              		.fpu fpv4-sp-d16
 3263              	UI_Set_FontType:
 3264              	.LVL284:
 3265              	.LFB3:
  99:Dsp/widget/wgt_core/UI_Controller.c ****     if (font < Font_8 || font > Font_16)
 3266              		.loc 1 99 1 is_stmt 1 view -0
 3267              		.cfi_startproc
 3268              		@ args = 0, pretend = 0, frame = 0
 3269              		@ frame_needed = 0, uses_anonymous_args = 0
 3270              		@ link register save eliminated.
 100:Dsp/widget/wgt_core/UI_Controller.c ****         return false;
 3271              		.loc 1 100 5 view .LVU906
 100:Dsp/widget/wgt_core/UI_Controller.c ****         return false;
 3272              		.loc 1 100 23 is_stmt 0 view .LVU907
 3273 0000 A0F10803 		sub	r3, r0, #8
 3274 0004 DBB2     		uxtb	r3, r3
 100:Dsp/widget/wgt_core/UI_Controller.c ****         return false;
 3275              		.loc 1 100 8 view .LVU908
 3276 0006 082B     		cmp	r3, #8
 3277 0008 03D8     		bhi	.L279
 103:Dsp/widget/wgt_core/UI_Controller.c **** 
 3278              		.loc 1 103 5 is_stmt 1 view .LVU909
 103:Dsp/widget/wgt_core/UI_Controller.c **** 
 3279              		.loc 1 103 15 is_stmt 0 view .LVU910
 3280 000a 034B     		ldr	r3, .L280
 3281 000c 1870     		strb	r0, [r3]
 105:Dsp/widget/wgt_core/UI_Controller.c **** }
 3282              		.loc 1 105 5 is_stmt 1 view .LVU911
 105:Dsp/widget/wgt_core/UI_Controller.c **** }
 3283              		.loc 1 105 12 is_stmt 0 view .LVU912
 3284 000e 0120     		movs	r0, #1
 3285              	.LVL285:
ARM GAS  /var/folders/lx/hc4sn_b53233_zkc9xbbl97r0000gp/T//cc29qxiB.s 			page 82


 105:Dsp/widget/wgt_core/UI_Controller.c **** }
 3286              		.loc 1 105 12 view .LVU913
 3287 0010 7047     		bx	lr
 3288              	.LVL286:
 3289              	.L279:
 101:Dsp/widget/wgt_core/UI_Controller.c **** 
 3290              		.loc 1 101 16 view .LVU914
 3291 0012 0020     		movs	r0, #0
 3292              	.LVL287:
 106:Dsp/widget/wgt_core/UI_Controller.c **** 
 3293              		.loc 1 106 1 view .LVU915
 3294 0014 7047     		bx	lr
 3295              	.L281:
 3296 0016 00BF     		.align	2
 3297              	.L280:
 3298 0018 00000000 		.word	.LANCHOR2
 3299              		.cfi_endproc
 3300              	.LFE3:
 3302              		.section	.text.UI_Set_DspInterface,"ax",%progbits
 3303              		.align	1
 3304              		.global	UI_Set_DspInterface
 3305              		.syntax unified
 3306              		.thumb
 3307              		.thumb_func
 3308              		.fpu fpv4-sp-d16
 3310              	UI_Set_DspInterface:
 3311              	.LVL288:
 3312              	.LFB4:
 120:Dsp/widget/wgt_core/UI_Controller.c ****     UI_DspInterface.draw_circle = circle;
 3313              		.loc 1 120 1 is_stmt 1 view -0
 3314              		.cfi_startproc
 3315              		@ args = 32, pretend = 0, frame = 0
 3316              		@ frame_needed = 0, uses_anonymous_args = 0
 3317              		@ link register save eliminated.
 120:Dsp/widget/wgt_core/UI_Controller.c ****     UI_DspInterface.draw_circle = circle;
 3318              		.loc 1 120 1 is_stmt 0 view .LVU917
 3319 0000 30B4     		push	{r4, r5}
 3320              	.LCFI67:
 3321              		.cfi_def_cfa_offset 8
 3322              		.cfi_offset 4, -8
 3323              		.cfi_offset 5, -4
 121:Dsp/widget/wgt_core/UI_Controller.c ****     UI_DspInterface.draw_circle_section = circle_section;
 3324              		.loc 1 121 5 is_stmt 1 view .LVU918
 121:Dsp/widget/wgt_core/UI_Controller.c ****     UI_DspInterface.draw_circle_section = circle_section;
 3325              		.loc 1 121 33 is_stmt 0 view .LVU919
 3326 0002 0B4C     		ldr	r4, .L284
 3327 0004 039D     		ldr	r5, [sp, #12]
 3328 0006 A561     		str	r5, [r4, #24]
 122:Dsp/widget/wgt_core/UI_Controller.c ****     UI_DspInterface.draw_line_h = line_h;
 3329              		.loc 1 122 5 is_stmt 1 view .LVU920
 122:Dsp/widget/wgt_core/UI_Controller.c ****     UI_DspInterface.draw_line_h = line_h;
 3330              		.loc 1 122 41 is_stmt 0 view .LVU921
 3331 0008 049D     		ldr	r5, [sp, #16]
 3332 000a E561     		str	r5, [r4, #28]
 123:Dsp/widget/wgt_core/UI_Controller.c ****     UI_DspInterface.draw_line_v = line_v;
 3333              		.loc 1 123 5 is_stmt 1 view .LVU922
 123:Dsp/widget/wgt_core/UI_Controller.c ****     UI_DspInterface.draw_line_v = line_v;
ARM GAS  /var/folders/lx/hc4sn_b53233_zkc9xbbl97r0000gp/T//cc29qxiB.s 			page 83


 3334              		.loc 1 123 33 is_stmt 0 view .LVU923
 3335 000c A160     		str	r1, [r4, #8]
 124:Dsp/widget/wgt_core/UI_Controller.c ****     UI_DspInterface.draw_point = point;
 3336              		.loc 1 124 5 is_stmt 1 view .LVU924
 124:Dsp/widget/wgt_core/UI_Controller.c ****     UI_DspInterface.draw_point = point;
 3337              		.loc 1 124 33 is_stmt 0 view .LVU925
 3338 000e E260     		str	r2, [r4, #12]
 125:Dsp/widget/wgt_core/UI_Controller.c ****     UI_DspInterface.draw_rectangle = rectangle;
 3339              		.loc 1 125 5 is_stmt 1 view .LVU926
 125:Dsp/widget/wgt_core/UI_Controller.c ****     UI_DspInterface.draw_rectangle = rectangle;
 3340              		.loc 1 125 32 is_stmt 0 view .LVU927
 3341 0010 6060     		str	r0, [r4, #4]
 126:Dsp/widget/wgt_core/UI_Controller.c ****     UI_DspInterface.draw_radius_rectangle = radius_rectangle;
 3342              		.loc 1 126 5 is_stmt 1 view .LVU928
 126:Dsp/widget/wgt_core/UI_Controller.c ****     UI_DspInterface.draw_radius_rectangle = radius_rectangle;
 3343              		.loc 1 126 36 is_stmt 0 view .LVU929
 3344 0012 6361     		str	r3, [r4, #20]
 127:Dsp/widget/wgt_core/UI_Controller.c ****     UI_DspInterface.draw_str = str;
 3345              		.loc 1 127 5 is_stmt 1 view .LVU930
 127:Dsp/widget/wgt_core/UI_Controller.c ****     UI_DspInterface.draw_str = str;
 3346              		.loc 1 127 43 is_stmt 0 view .LVU931
 3347 0014 029B     		ldr	r3, [sp, #8]
 3348              	.LVL289:
 127:Dsp/widget/wgt_core/UI_Controller.c ****     UI_DspInterface.draw_str = str;
 3349              		.loc 1 127 43 view .LVU932
 3350 0016 2361     		str	r3, [r4, #16]
 128:Dsp/widget/wgt_core/UI_Controller.c **** 
 3351              		.loc 1 128 5 is_stmt 1 view .LVU933
 128:Dsp/widget/wgt_core/UI_Controller.c **** 
 3352              		.loc 1 128 30 is_stmt 0 view .LVU934
 3353 0018 059B     		ldr	r3, [sp, #20]
 3354 001a 2360     		str	r3, [r4]
 130:Dsp/widget/wgt_core/UI_Controller.c ****     UI_DspInterface.fill_circle_section = fillcircle_section;
 3355              		.loc 1 130 5 is_stmt 1 view .LVU935
 130:Dsp/widget/wgt_core/UI_Controller.c ****     UI_DspInterface.fill_circle_section = fillcircle_section;
 3356              		.loc 1 130 33 is_stmt 0 view .LVU936
 3357 001c 069B     		ldr	r3, [sp, #24]
 3358 001e 6362     		str	r3, [r4, #36]
 131:Dsp/widget/wgt_core/UI_Controller.c ****     UI_DspInterface.fill_radius_rectangle = fill_radius_rectangle;
 3359              		.loc 1 131 5 is_stmt 1 view .LVU937
 131:Dsp/widget/wgt_core/UI_Controller.c ****     UI_DspInterface.fill_radius_rectangle = fill_radius_rectangle;
 3360              		.loc 1 131 41 is_stmt 0 view .LVU938
 3361 0020 079B     		ldr	r3, [sp, #28]
 3362 0022 A362     		str	r3, [r4, #40]
 132:Dsp/widget/wgt_core/UI_Controller.c ****     UI_DspInterface.fill_rectangle = fill_rectangle;
 3363              		.loc 1 132 5 is_stmt 1 view .LVU939
 132:Dsp/widget/wgt_core/UI_Controller.c ****     UI_DspInterface.fill_rectangle = fill_rectangle;
 3364              		.loc 1 132 43 is_stmt 0 view .LVU940
 3365 0024 099B     		ldr	r3, [sp, #36]
 3366 0026 E362     		str	r3, [r4, #44]
 133:Dsp/widget/wgt_core/UI_Controller.c **** }
 3367              		.loc 1 133 5 is_stmt 1 view .LVU941
 133:Dsp/widget/wgt_core/UI_Controller.c **** }
 3368              		.loc 1 133 36 is_stmt 0 view .LVU942
 3369 0028 089B     		ldr	r3, [sp, #32]
 3370 002a 2362     		str	r3, [r4, #32]
 134:Dsp/widget/wgt_core/UI_Controller.c **** 
ARM GAS  /var/folders/lx/hc4sn_b53233_zkc9xbbl97r0000gp/T//cc29qxiB.s 			page 84


 3371              		.loc 1 134 1 view .LVU943
 3372 002c 30BC     		pop	{r4, r5}
 3373              	.LCFI68:
 3374              		.cfi_restore 5
 3375              		.cfi_restore 4
 3376              		.cfi_def_cfa_offset 0
 3377              	.LVL290:
 134:Dsp/widget/wgt_core/UI_Controller.c **** 
 3378              		.loc 1 134 1 view .LVU944
 3379 002e 7047     		bx	lr
 3380              	.L285:
 3381              		.align	2
 3382              	.L284:
 3383 0030 00000000 		.word	.LANCHOR0
 3384              		.cfi_endproc
 3385              	.LFE4:
 3387              		.section	.text.UI_Set_GetWidgetWidthMathod,"ax",%progbits
 3388              		.align	1
 3389              		.global	UI_Set_GetWidgetWidthMathod
 3390              		.syntax unified
 3391              		.thumb
 3392              		.thumb_func
 3393              		.fpu fpv4-sp-d16
 3395              	UI_Set_GetWidgetWidthMathod:
 3396              	.LVL291:
 3397              	.LFB5:
 137:Dsp/widget/wgt_core/UI_Controller.c ****     UI_Get_WidgetWidth = mathod;
 3398              		.loc 1 137 1 is_stmt 1 view -0
 3399              		.cfi_startproc
 3400              		@ args = 0, pretend = 0, frame = 0
 3401              		@ frame_needed = 0, uses_anonymous_args = 0
 3402              		@ link register save eliminated.
 138:Dsp/widget/wgt_core/UI_Controller.c **** }
 3403              		.loc 1 138 5 view .LVU946
 138:Dsp/widget/wgt_core/UI_Controller.c **** }
 3404              		.loc 1 138 24 is_stmt 0 view .LVU947
 3405 0000 014B     		ldr	r3, .L287
 3406 0002 1860     		str	r0, [r3]
 139:Dsp/widget/wgt_core/UI_Controller.c **** 
 3407              		.loc 1 139 1 view .LVU948
 3408 0004 7047     		bx	lr
 3409              	.L288:
 3410 0006 00BF     		.align	2
 3411              	.L287:
 3412 0008 00000000 		.word	.LANCHOR1
 3413              		.cfi_endproc
 3414              	.LFE5:
 3416              		.section	.text.UI_ShowSelector,"ax",%progbits
 3417              		.align	1
 3418              		.global	UI_ShowSelector
 3419              		.syntax unified
 3420              		.thumb
 3421              		.thumb_func
 3422              		.fpu fpv4-sp-d16
 3424              	UI_ShowSelector:
 3425              	.LVL292:
 3426              	.LFB7:
ARM GAS  /var/folders/lx/hc4sn_b53233_zkc9xbbl97r0000gp/T//cc29qxiB.s 			page 85


 166:Dsp/widget/wgt_core/UI_Controller.c ****     /* button selector coordinate */
 3427              		.loc 1 166 1 is_stmt 1 view -0
 3428              		.cfi_startproc
 3429              		@ args = 0, pretend = 0, frame = 0
 3430              		@ frame_needed = 0, uses_anonymous_args = 0
 166:Dsp/widget/wgt_core/UI_Controller.c ****     /* button selector coordinate */
 3431              		.loc 1 166 1 is_stmt 0 view .LVU950
 3432 0000 2DE9F047 		push	{r4, r5, r6, r7, r8, r9, r10, lr}
 3433              	.LCFI69:
 3434              		.cfi_def_cfa_offset 32
 3435              		.cfi_offset 4, -32
 3436              		.cfi_offset 5, -28
 3437              		.cfi_offset 6, -24
 3438              		.cfi_offset 7, -20
 3439              		.cfi_offset 8, -16
 3440              		.cfi_offset 9, -12
 3441              		.cfi_offset 10, -8
 3442              		.cfi_offset 14, -4
 3443 0004 82B0     		sub	sp, sp, #8
 3444              	.LCFI70:
 3445              		.cfi_def_cfa_offset 40
 3446 0006 0446     		mov	r4, r0
 168:Dsp/widget/wgt_core/UI_Controller.c ****     int16_t Btn_Slct_LftUp_Y = 0;
 3447              		.loc 1 168 5 is_stmt 1 view .LVU951
 3448              	.LVL293:
 169:Dsp/widget/wgt_core/UI_Controller.c ****     int16_t Btn_Slct_LftDwn_X = 0;
 3449              		.loc 1 169 5 view .LVU952
 170:Dsp/widget/wgt_core/UI_Controller.c ****     int16_t Btn_Slct_LftDwn_Y = 0;
 3450              		.loc 1 170 5 view .LVU953
 171:Dsp/widget/wgt_core/UI_Controller.c ****     int16_t Btn_Slct_RgtUp_X = 0;
 3451              		.loc 1 171 5 view .LVU954
 172:Dsp/widget/wgt_core/UI_Controller.c ****     int16_t Btn_Slct_RgtUp_Y = 0;
 3452              		.loc 1 172 5 view .LVU955
 173:Dsp/widget/wgt_core/UI_Controller.c ****     int16_t Btn_Slct_RgtDwn_X = 0;
 3453              		.loc 1 173 5 view .LVU956
 174:Dsp/widget/wgt_core/UI_Controller.c ****     int16_t Btn_Slct_RgtDwn_Y = 0;
 3454              		.loc 1 174 5 view .LVU957
 175:Dsp/widget/wgt_core/UI_Controller.c **** 
 3455              		.loc 1 175 5 view .LVU958
 178:Dsp/widget/wgt_core/UI_Controller.c ****     int16_t block_y;
 3456              		.loc 1 178 5 view .LVU959
 179:Dsp/widget/wgt_core/UI_Controller.c **** 
 3457              		.loc 1 179 5 view .LVU960
 181:Dsp/widget/wgt_core/UI_Controller.c ****     uint8_t selector_height = 0;
 3458              		.loc 1 181 5 view .LVU961
 182:Dsp/widget/wgt_core/UI_Controller.c **** 
 3459              		.loc 1 182 5 view .LVU962
 184:Dsp/widget/wgt_core/UI_Controller.c ****     {
 3460              		.loc 1 184 5 view .LVU963
 184:Dsp/widget/wgt_core/UI_Controller.c ****     {
 3461              		.loc 1 184 28 is_stmt 0 view .LVU964
 3462 0008 524B     		ldr	r3, .L308
 3463 000a 1B68     		ldr	r3, [r3]
 184:Dsp/widget/wgt_core/UI_Controller.c ****     {
 3464              		.loc 1 184 8 view .LVU965
 3465 000c A3B1     		cbz	r3, .L296
 186:Dsp/widget/wgt_core/UI_Controller.c **** 
ARM GAS  /var/folders/lx/hc4sn_b53233_zkc9xbbl97r0000gp/T//cc29qxiB.s 			page 86


 3466              		.loc 1 186 9 is_stmt 1 view .LVU966
 186:Dsp/widget/wgt_core/UI_Controller.c **** 
 3467              		.loc 1 186 24 is_stmt 0 view .LVU967
 3468 000e 9847     		blx	r3
 3469              	.LVL294:
 188:Dsp/widget/wgt_core/UI_Controller.c ****             return false;
 3470              		.loc 1 188 9 is_stmt 1 view .LVU968
 188:Dsp/widget/wgt_core/UI_Controller.c ****             return false;
 3471              		.loc 1 188 12 is_stmt 0 view .LVU969
 3472 0010 0546     		mov	r5, r0
 3473 0012 0028     		cmp	r0, #0
 3474 0014 00F09780 		beq	.L305
 3475              	.LVL295:
 3476              	.L290:
 192:Dsp/widget/wgt_core/UI_Controller.c ****         return false;
 3477              		.loc 1 192 5 is_stmt 1 view .LVU970
 192:Dsp/widget/wgt_core/UI_Controller.c ****         return false;
 3478              		.loc 1 192 8 is_stmt 0 view .LVU971
 3479 0018 002C     		cmp	r4, #0
 3480 001a 00F09680 		beq	.L298
 195:Dsp/widget/wgt_core/UI_Controller.c ****     {
 3481              		.loc 1 195 5 is_stmt 1 view .LVU972
 3482 001e 4E4B     		ldr	r3, .L308+4
 3483 0020 1B78     		ldrb	r3, [r3]	@ zero_extendqisi2
 3484 0022 0C2B     		cmp	r3, #12
 3485 0024 13D0     		beq	.L299
 3486 0026 102B     		cmp	r3, #16
 3487 0028 13D0     		beq	.L300
 3488 002a 082B     		cmp	r3, #8
 3489 002c 06D0     		beq	.L306
 3490 002e 0024     		movs	r4, #0
 3491              	.LVL296:
 3492              	.L291:
 265:Dsp/widget/wgt_core/UI_Controller.c **** 
 3493              		.loc 1 265 1 is_stmt 0 view .LVU973
 3494 0030 2046     		mov	r0, r4
 3495 0032 02B0     		add	sp, sp, #8
 3496              	.LCFI71:
 3497              		.cfi_remember_state
 3498              		.cfi_def_cfa_offset 32
 3499              		@ sp needed
 3500 0034 BDE8F087 		pop	{r4, r5, r6, r7, r8, r9, r10, pc}
 3501              	.LVL297:
 3502              	.L296:
 3503              	.LCFI72:
 3504              		.cfi_restore_state
 181:Dsp/widget/wgt_core/UI_Controller.c ****     uint8_t selector_height = 0;
 3505              		.loc 1 181 13 view .LVU974
 3506 0038 8025     		movs	r5, #128
 3507 003a EDE7     		b	.L290
 3508              	.LVL298:
 3509              	.L306:
 195:Dsp/widget/wgt_core/UI_Controller.c ****     {
 3510              		.loc 1 195 5 view .LVU975
 3511 003c 0A26     		movs	r6, #10
 3512              	.L292:
 3513              	.LVL299:
ARM GAS  /var/folders/lx/hc4sn_b53233_zkc9xbbl97r0000gp/T//cc29qxiB.s 			page 87


 210:Dsp/widget/wgt_core/UI_Controller.c ****     {
 3514              		.loc 1 210 5 is_stmt 1 view .LVU976
 210:Dsp/widget/wgt_core/UI_Controller.c ****     {
 3515              		.loc 1 210 27 is_stmt 0 view .LVU977
 3516 003e 2378     		ldrb	r3, [r4]	@ zero_extendqisi2
 210:Dsp/widget/wgt_core/UI_Controller.c ****     {
 3517              		.loc 1 210 5 view .LVU978
 3518 0040 012B     		cmp	r3, #1
 3519 0042 44D0     		beq	.L293
 3520 0044 022B     		cmp	r3, #2
 3521 0046 52D0     		beq	.L294
 3522 0048 2BB1     		cbz	r3, .L307
 3523 004a 0124     		movs	r4, #1
 3524              	.LVL300:
 210:Dsp/widget/wgt_core/UI_Controller.c ****     {
 3525              		.loc 1 210 5 view .LVU979
 3526 004c F0E7     		b	.L291
 3527              	.LVL301:
 3528              	.L299:
 203:Dsp/widget/wgt_core/UI_Controller.c ****         break;
 3529              		.loc 1 203 25 view .LVU980
 3530 004e 0B26     		movs	r6, #11
 3531 0050 F5E7     		b	.L292
 3532              	.L300:
 3533 0052 0B26     		movs	r6, #11
 3534 0054 F3E7     		b	.L292
 3535              	.LVL302:
 3536              	.L307:
 214:Dsp/widget/wgt_core/UI_Controller.c ****             return false;
 3537              		.loc 1 214 9 is_stmt 1 view .LVU981
 214:Dsp/widget/wgt_core/UI_Controller.c ****             return false;
 3538              		.loc 1 214 28 is_stmt 0 view .LVU982
 3539 0056 414B     		ldr	r3, .L308+8
 3540 0058 9B6A     		ldr	r3, [r3, #40]
 214:Dsp/widget/wgt_core/UI_Controller.c ****             return false;
 3541              		.loc 1 214 12 view .LVU983
 3542 005a 002B     		cmp	r3, #0
 3543 005c 77D0     		beq	.L303
 218:Dsp/widget/wgt_core/UI_Controller.c ****         Btn_Slct_LftUp_Y = HandleToButtonObj(item->Handler)->Gen_Data.y + HandleToButtonObj(item->H
 3544              		.loc 1 218 9 is_stmt 1 view .LVU984
 218:Dsp/widget/wgt_core/UI_Controller.c ****         Btn_Slct_LftUp_Y = HandleToButtonObj(item->Handler)->Gen_Data.y + HandleToButtonObj(item->H
 3545              		.loc 1 218 28 is_stmt 0 view .LVU985
 3546 005e 6268     		ldr	r2, [r4, #4]
 218:Dsp/widget/wgt_core/UI_Controller.c ****         Btn_Slct_LftUp_Y = HandleToButtonObj(item->Handler)->Gen_Data.y + HandleToButtonObj(item->H
 3547              		.loc 1 218 26 view .LVU986
 3548 0060 B2F90460 		ldrsh	r6, [r2, #4]	@ unaligned
 3549              	.LVL303:
 218:Dsp/widget/wgt_core/UI_Controller.c ****         Btn_Slct_LftUp_Y = HandleToButtonObj(item->Handler)->Gen_Data.y + HandleToButtonObj(item->H
 3550              		.loc 1 218 26 view .LVU987
 3551 0064 0FFA86F9 		sxth	r9, r6
 3552              	.LVL304:
 219:Dsp/widget/wgt_core/UI_Controller.c **** 
 3553              		.loc 1 219 9 is_stmt 1 view .LVU988
 219:Dsp/widget/wgt_core/UI_Controller.c **** 
 3554              		.loc 1 219 70 is_stmt 0 view .LVU989
 3555 0068 B2F90630 		ldrsh	r3, [r2, #6]	@ unaligned
 3556 006c 0FFA83F8 		sxth	r8, r3
ARM GAS  /var/folders/lx/hc4sn_b53233_zkc9xbbl97r0000gp/T//cc29qxiB.s 			page 88


 219:Dsp/widget/wgt_core/UI_Controller.c **** 
 3557              		.loc 1 219 107 view .LVU990
 3558 0070 92F82050 		ldrb	r5, [r2, #32]	@ zero_extendqisi2
 3559              	.LVL305:
 219:Dsp/widget/wgt_core/UI_Controller.c **** 
 3560              		.loc 1 219 73 view .LVU991
 3561 0074 15FA83F5 		uxtah	r5, r5, r3
 3562 0078 ADB2     		uxth	r5, r5
 219:Dsp/widget/wgt_core/UI_Controller.c **** 
 3563              		.loc 1 219 116 view .LVU992
 3564 007a 013D     		subs	r5, r5, #1
 219:Dsp/widget/wgt_core/UI_Controller.c **** 
 3565              		.loc 1 219 26 view .LVU993
 3566 007c 0FFA85FA 		sxth	r10, r5
 3567              	.LVL306:
 221:Dsp/widget/wgt_core/UI_Controller.c ****         Btn_Slct_LftDwn_Y = HandleToButtonObj(item->Handler)->Gen_Data.y;
 3568              		.loc 1 221 9 is_stmt 1 view .LVU994
 222:Dsp/widget/wgt_core/UI_Controller.c **** 
 3569              		.loc 1 222 9 view .LVU995
 224:Dsp/widget/wgt_core/UI_Controller.c ****         Btn_Slct_RgtUp_Y = Btn_Slct_LftUp_Y;
 3570              		.loc 1 224 9 view .LVU996
 224:Dsp/widget/wgt_core/UI_Controller.c ****         Btn_Slct_RgtUp_Y = Btn_Slct_LftUp_Y;
 3571              		.loc 1 224 107 is_stmt 0 view .LVU997
 3572 0080 D37F     		ldrb	r3, [r2, #31]	@ zero_extendqisi2
 3573              	.LVL307:
 224:Dsp/widget/wgt_core/UI_Controller.c ****         Btn_Slct_RgtUp_Y = Btn_Slct_LftUp_Y;
 3574              		.loc 1 224 73 view .LVU998
 3575 0082 13FA86F6 		uxtah	r6, r3, r6
 3576              	.LVL308:
 224:Dsp/widget/wgt_core/UI_Controller.c ****         Btn_Slct_RgtUp_Y = Btn_Slct_LftUp_Y;
 3577              		.loc 1 224 26 view .LVU999
 3578 0086 36B2     		sxth	r6, r6
 3579              	.LVL309:
 225:Dsp/widget/wgt_core/UI_Controller.c **** 
 3580              		.loc 1 225 9 is_stmt 1 view .LVU1000
 227:Dsp/widget/wgt_core/UI_Controller.c ****         Btn_Slct_RgtDwn_Y = Btn_Slct_LftDwn_Y;
 3581              		.loc 1 227 9 view .LVU1001
 228:Dsp/widget/wgt_core/UI_Controller.c **** 
 3582              		.loc 1 228 9 view .LVU1002
 231:Dsp/widget/wgt_core/UI_Controller.c ****         UI_DspInterface.draw_circle_section(Btn_Slct_LftDwn_X, Btn_Slct_LftDwn_Y, BUTTON_SELECTOR_R
 3583              		.loc 1 231 9 view .LVU1003
 231:Dsp/widget/wgt_core/UI_Controller.c ****         UI_DspInterface.draw_circle_section(Btn_Slct_LftDwn_X, Btn_Slct_LftDwn_Y, BUTTON_SELECTOR_R
 3584              		.loc 1 231 24 is_stmt 0 view .LVU1004
 3585 0088 344F     		ldr	r7, .L308+8
 231:Dsp/widget/wgt_core/UI_Controller.c ****         UI_DspInterface.draw_circle_section(Btn_Slct_LftDwn_X, Btn_Slct_LftDwn_Y, BUTTON_SELECTOR_R
 3586              		.loc 1 231 9 view .LVU1005
 3587 008a 0124     		movs	r4, #1
 3588              	.LVL310:
 231:Dsp/widget/wgt_core/UI_Controller.c ****         UI_DspInterface.draw_circle_section(Btn_Slct_LftDwn_X, Btn_Slct_LftDwn_Y, BUTTON_SELECTOR_R
 3589              		.loc 1 231 9 view .LVU1006
 3590 008c 0194     		str	r4, [sp, #4]
 3591 008e 0094     		str	r4, [sp]
 3592 0090 0423     		movs	r3, #4
 3593 0092 0222     		movs	r2, #2
 3594 0094 5146     		mov	r1, r10
 3595 0096 4846     		mov	r0, r9
 3596 0098 FD69     		ldr	r5, [r7, #28]
ARM GAS  /var/folders/lx/hc4sn_b53233_zkc9xbbl97r0000gp/T//cc29qxiB.s 			page 89


 3597 009a A847     		blx	r5
 3598              	.LVL311:
 232:Dsp/widget/wgt_core/UI_Controller.c ****         UI_DspInterface.draw_circle_section(Btn_Slct_RgtUp_X, Btn_Slct_RgtUp_Y, BUTTON_SELECTOR_RAD
 3599              		.loc 1 232 9 is_stmt 1 view .LVU1007
 3600 009c 0194     		str	r4, [sp, #4]
 3601 009e 0094     		str	r4, [sp]
 3602 00a0 0223     		movs	r3, #2
 3603 00a2 1A46     		mov	r2, r3
 3604 00a4 4146     		mov	r1, r8
 3605 00a6 4846     		mov	r0, r9
 3606 00a8 FD69     		ldr	r5, [r7, #28]
 3607 00aa A847     		blx	r5
 3608              	.LVL312:
 233:Dsp/widget/wgt_core/UI_Controller.c ****         UI_DspInterface.draw_circle_section(Btn_Slct_RgtDwn_X, Btn_Slct_RgtDwn_Y, BUTTON_SELECTOR_R
 3609              		.loc 1 233 9 view .LVU1008
 3610 00ac 0194     		str	r4, [sp, #4]
 3611 00ae 0094     		str	r4, [sp]
 3612 00b0 0823     		movs	r3, #8
 3613 00b2 0222     		movs	r2, #2
 3614 00b4 5146     		mov	r1, r10
 3615 00b6 3046     		mov	r0, r6
 3616 00b8 FD69     		ldr	r5, [r7, #28]
 3617 00ba A847     		blx	r5
 3618              	.LVL313:
 234:Dsp/widget/wgt_core/UI_Controller.c ****         break;
 3619              		.loc 1 234 9 view .LVU1009
 234:Dsp/widget/wgt_core/UI_Controller.c ****         break;
 3620              		.loc 1 234 24 is_stmt 0 view .LVU1010
 3621 00bc FD69     		ldr	r5, [r7, #28]
 234:Dsp/widget/wgt_core/UI_Controller.c ****         break;
 3622              		.loc 1 234 9 view .LVU1011
 3623 00be 0194     		str	r4, [sp, #4]
 3624 00c0 0094     		str	r4, [sp]
 3625 00c2 2346     		mov	r3, r4
 3626 00c4 0222     		movs	r2, #2
 3627 00c6 4146     		mov	r1, r8
 3628 00c8 3046     		mov	r0, r6
 3629 00ca A847     		blx	r5
 3630              	.LVL314:
 235:Dsp/widget/wgt_core/UI_Controller.c **** 
 3631              		.loc 1 235 9 is_stmt 1 view .LVU1012
 3632 00cc B0E7     		b	.L291
 3633              	.LVL315:
 3634              	.L293:
 238:Dsp/widget/wgt_core/UI_Controller.c ****         block_y = HandleToCheckBoxObj(item->Handler)->Gen_Data.y + 1;
 3635              		.loc 1 238 9 view .LVU1013
 238:Dsp/widget/wgt_core/UI_Controller.c ****         block_y = HandleToCheckBoxObj(item->Handler)->Gen_Data.y + 1;
 3636              		.loc 1 238 19 is_stmt 0 view .LVU1014
 3637 00ce 6368     		ldr	r3, [r4, #4]
 238:Dsp/widget/wgt_core/UI_Controller.c ****         block_y = HandleToCheckBoxObj(item->Handler)->Gen_Data.y + 1;
 3638              		.loc 1 238 63 view .LVU1015
 3639 00d0 9888     		ldrh	r0, [r3, #4]	@ unaligned
 238:Dsp/widget/wgt_core/UI_Controller.c ****         block_y = HandleToCheckBoxObj(item->Handler)->Gen_Data.y + 1;
 3640              		.loc 1 238 66 view .LVU1016
 3641 00d2 0330     		adds	r0, r0, #3
 3642              	.LVL316:
 239:Dsp/widget/wgt_core/UI_Controller.c **** 
ARM GAS  /var/folders/lx/hc4sn_b53233_zkc9xbbl97r0000gp/T//cc29qxiB.s 			page 90


 3643              		.loc 1 239 9 is_stmt 1 view .LVU1017
 239:Dsp/widget/wgt_core/UI_Controller.c **** 
 3644              		.loc 1 239 63 is_stmt 0 view .LVU1018
 3645 00d4 D988     		ldrh	r1, [r3, #6]	@ unaligned
 239:Dsp/widget/wgt_core/UI_Controller.c **** 
 3646              		.loc 1 239 66 view .LVU1019
 3647 00d6 0131     		adds	r1, r1, #1
 3648              	.LVL317:
 241:Dsp/widget/wgt_core/UI_Controller.c ****         break;
 3649              		.loc 1 241 9 is_stmt 1 view .LVU1020
 241:Dsp/widget/wgt_core/UI_Controller.c ****         break;
 3650              		.loc 1 241 24 is_stmt 0 view .LVU1021
 3651 00d8 204B     		ldr	r3, .L308+8
 3652 00da 1F6A     		ldr	r7, [r3, #32]
 241:Dsp/widget/wgt_core/UI_Controller.c ****         break;
 3653              		.loc 1 241 9 view .LVU1022
 3654 00dc AA1F     		subs	r2, r5, #6
 3655 00de 0124     		movs	r4, #1
 3656              	.LVL318:
 241:Dsp/widget/wgt_core/UI_Controller.c ****         break;
 3657              		.loc 1 241 9 view .LVU1023
 3658 00e0 0094     		str	r4, [sp]
 3659 00e2 3346     		mov	r3, r6
 3660 00e4 D2B2     		uxtb	r2, r2
 3661 00e6 09B2     		sxth	r1, r1
 241:Dsp/widget/wgt_core/UI_Controller.c ****         break;
 3662              		.loc 1 241 9 view .LVU1024
 3663 00e8 00B2     		sxth	r0, r0
 241:Dsp/widget/wgt_core/UI_Controller.c ****         break;
 3664              		.loc 1 241 9 view .LVU1025
 3665 00ea B847     		blx	r7
 3666              	.LVL319:
 242:Dsp/widget/wgt_core/UI_Controller.c **** 
 3667              		.loc 1 242 9 is_stmt 1 view .LVU1026
 3668 00ec A0E7     		b	.L291
 3669              	.LVL320:
 3670              	.L294:
 245:Dsp/widget/wgt_core/UI_Controller.c **** 
 3671              		.loc 1 245 9 view .LVU1027
 245:Dsp/widget/wgt_core/UI_Controller.c **** 
 3672              		.loc 1 245 19 is_stmt 0 view .LVU1028
 3673 00ee D4F80480 		ldr	r8, [r4, #4]
 245:Dsp/widget/wgt_core/UI_Controller.c **** 
 3674              		.loc 1 245 63 view .LVU1029
 3675 00f2 B8F80670 		ldrh	r7, [r8, #6]	@ unaligned
 245:Dsp/widget/wgt_core/UI_Controller.c **** 
 3676              		.loc 1 245 66 view .LVU1030
 3677 00f6 0137     		adds	r7, r7, #1
 245:Dsp/widget/wgt_core/UI_Controller.c **** 
 3678              		.loc 1 245 17 view .LVU1031
 3679 00f8 3FB2     		sxth	r7, r7
 3680              	.LVL321:
 247:Dsp/widget/wgt_core/UI_Controller.c ****         {
 3681              		.loc 1 247 9 is_stmt 1 view .LVU1032
 247:Dsp/widget/wgt_core/UI_Controller.c ****         {
 3682              		.loc 1 247 14 is_stmt 0 view .LVU1033
 3683 00fa 4046     		mov	r0, r8
ARM GAS  /var/folders/lx/hc4sn_b53233_zkc9xbbl97r0000gp/T//cc29qxiB.s 			page 91


 3684 00fc FFF7FEFF 		bl	UI_SlideBar_IsSelected
 3685              	.LVL322:
 247:Dsp/widget/wgt_core/UI_Controller.c ****         {
 3686              		.loc 1 247 12 view .LVU1034
 3687 0100 0446     		mov	r4, r0
 3688              	.LVL323:
 247:Dsp/widget/wgt_core/UI_Controller.c ****         {
 3689              		.loc 1 247 12 view .LVU1035
 3690 0102 70B9     		cbnz	r0, .L295
 249:Dsp/widget/wgt_core/UI_Controller.c **** 
 3691              		.loc 1 249 13 is_stmt 1 view .LVU1036
 249:Dsp/widget/wgt_core/UI_Controller.c **** 
 3692              		.loc 1 249 67 is_stmt 0 view .LVU1037
 3693 0104 B8F80400 		ldrh	r0, [r8, #4]	@ unaligned
 249:Dsp/widget/wgt_core/UI_Controller.c **** 
 3694              		.loc 1 249 70 view .LVU1038
 3695 0108 0330     		adds	r0, r0, #3
 3696              	.LVL324:
 251:Dsp/widget/wgt_core/UI_Controller.c ****         }
 3697              		.loc 1 251 13 is_stmt 1 view .LVU1039
 251:Dsp/widget/wgt_core/UI_Controller.c ****         }
 3698              		.loc 1 251 28 is_stmt 0 view .LVU1040
 3699 010a 144B     		ldr	r3, .L308+8
 3700 010c D3F82080 		ldr	r8, [r3, #32]
 251:Dsp/widget/wgt_core/UI_Controller.c ****         }
 3701              		.loc 1 251 13 view .LVU1041
 3702 0110 AA1F     		subs	r2, r5, #6
 3703 0112 0124     		movs	r4, #1
 3704 0114 0094     		str	r4, [sp]
 3705 0116 3346     		mov	r3, r6
 3706 0118 D2B2     		uxtb	r2, r2
 3707 011a 3946     		mov	r1, r7
 3708 011c 00B2     		sxth	r0, r0
 251:Dsp/widget/wgt_core/UI_Controller.c ****         }
 3709              		.loc 1 251 13 view .LVU1042
 3710 011e C047     		blx	r8
 3711              	.LVL325:
 251:Dsp/widget/wgt_core/UI_Controller.c ****         }
 3712              		.loc 1 251 13 view .LVU1043
 3713 0120 86E7     		b	.L291
 3714              	.L295:
 255:Dsp/widget/wgt_core/UI_Controller.c **** 
 3715              		.loc 1 255 13 is_stmt 1 view .LVU1044
 255:Dsp/widget/wgt_core/UI_Controller.c **** 
 3716              		.loc 1 255 57 is_stmt 0 view .LVU1045
 3717 0122 B8F82400 		ldrh	r0, [r8, #36]	@ unaligned
 255:Dsp/widget/wgt_core/UI_Controller.c **** 
 3718              		.loc 1 255 70 view .LVU1046
 3719 0126 0338     		subs	r0, r0, #3
 3720 0128 82B2     		uxth	r2, r0
 3721              	.LVL326:
 257:Dsp/widget/wgt_core/UI_Controller.c ****         }
 3722              		.loc 1 257 13 is_stmt 1 view .LVU1047
 257:Dsp/widget/wgt_core/UI_Controller.c ****         }
 3723              		.loc 1 257 28 is_stmt 0 view .LVU1048
 3724 012a 0C4B     		ldr	r3, .L308+8
 3725 012c D3F82080 		ldr	r8, [r3, #32]
ARM GAS  /var/folders/lx/hc4sn_b53233_zkc9xbbl97r0000gp/T//cc29qxiB.s 			page 92


 257:Dsp/widget/wgt_core/UI_Controller.c ****         }
 3726              		.loc 1 257 76 view .LVU1049
 3727 0130 AA1A     		subs	r2, r5, r2
 3728 0132 D2B2     		uxtb	r2, r2
 257:Dsp/widget/wgt_core/UI_Controller.c ****         }
 3729              		.loc 1 257 13 view .LVU1050
 3730 0134 063A     		subs	r2, r2, #6
 3731 0136 0123     		movs	r3, #1
 3732 0138 0093     		str	r3, [sp]
 3733 013a 3346     		mov	r3, r6
 3734 013c D2B2     		uxtb	r2, r2
 3735 013e 3946     		mov	r1, r7
 3736 0140 00B2     		sxth	r0, r0
 257:Dsp/widget/wgt_core/UI_Controller.c ****         }
 3737              		.loc 1 257 13 view .LVU1051
 3738 0142 C047     		blx	r8
 3739              	.LVL327:
 257:Dsp/widget/wgt_core/UI_Controller.c ****         }
 3740              		.loc 1 257 13 view .LVU1052
 3741 0144 74E7     		b	.L291
 3742              	.LVL328:
 3743              	.L305:
 189:Dsp/widget/wgt_core/UI_Controller.c ****     }
 3744              		.loc 1 189 20 view .LVU1053
 3745 0146 0024     		movs	r4, #0
 3746              	.LVL329:
 189:Dsp/widget/wgt_core/UI_Controller.c ****     }
 3747              		.loc 1 189 20 view .LVU1054
 3748 0148 72E7     		b	.L291
 3749              	.LVL330:
 3750              	.L298:
 193:Dsp/widget/wgt_core/UI_Controller.c **** 
 3751              		.loc 1 193 16 view .LVU1055
 3752 014a 0024     		movs	r4, #0
 3753              	.LVL331:
 193:Dsp/widget/wgt_core/UI_Controller.c **** 
 3754              		.loc 1 193 16 view .LVU1056
 3755 014c 70E7     		b	.L291
 3756              	.LVL332:
 3757              	.L303:
 215:Dsp/widget/wgt_core/UI_Controller.c **** 
 3758              		.loc 1 215 20 view .LVU1057
 3759 014e 0024     		movs	r4, #0
 3760              	.LVL333:
 215:Dsp/widget/wgt_core/UI_Controller.c **** 
 3761              		.loc 1 215 20 view .LVU1058
 3762 0150 6EE7     		b	.L291
 3763              	.L309:
 3764 0152 00BF     		.align	2
 3765              	.L308:
 3766 0154 00000000 		.word	.LANCHOR1
 3767 0158 00000000 		.word	.LANCHOR2
 3768 015c 00000000 		.word	.LANCHOR0
 3769              		.cfi_endproc
 3770              	.LFE7:
 3772              		.global	UI_ProcessBar
 3773              		.global	UI_SlideBar
ARM GAS  /var/folders/lx/hc4sn_b53233_zkc9xbbl97r0000gp/T//cc29qxiB.s 			page 93


 3774              		.global	UI_CheckBox
 3775              		.global	UI_Button
 3776              		.global	UI_Get_WidgetWidth
 3777              		.section	.bss.UI_DspInterface,"aw",%nobits
 3778              		.align	2
 3779              		.set	.LANCHOR0,. + 0
 3782              	UI_DspInterface:
 3783 0000 00000000 		.space	48
 3783      00000000 
 3783      00000000 
 3783      00000000 
 3783      00000000 
 3784              		.section	.bss.UI_Get_WidgetWidth,"aw",%nobits
 3785              		.align	2
 3786              		.set	.LANCHOR1,. + 0
 3789              	UI_Get_WidgetWidth:
 3790 0000 00000000 		.space	4
 3791              		.section	.data.UI_Button,"aw"
 3792              		.align	2
 3795              	UI_Button:
 3796 0000 00000000 		.word	UI_Button_Init
 3797 0004 00000000 		.word	UI_Button_Set_TriggerCallback
 3798 0008 00000000 		.word	UI_Button_Set_Label
 3799 000c 00000000 		.word	UI_Button_Push
 3800 0010 00000000 		.word	UI_Button_Release
 3801 0014 00000000 		.word	UI_Button_Ctl
 3802 0018 00000000 		.word	UI_Button_Move
 3803              		.section	.data.UI_CheckBox,"aw"
 3804              		.align	2
 3807              	UI_CheckBox:
 3808 0000 00000000 		.word	UI_CheckBox_Init
 3809 0004 00000000 		.word	UI_CheckBox_SetCallback
 3810 0008 00000000 		.word	UI_CheckBox_Move
 3811 000c 00000000 		.word	UI_CheckBox_Trigger
 3812 0010 00000000 		.word	UI_CheckBox_Ctl
 3813              		.section	.data.UI_ProcessBar,"aw"
 3814              		.align	2
 3817              	UI_ProcessBar:
 3818 0000 00000000 		.word	UI_ProcessBar_Init
 3819 0004 00000000 		.word	UI_ProcessBar_Move
 3820 0008 00000000 		.word	UI_ProcessBar_SetDspDir
 3821 000c 00000000 		.word	UI_ProcessBar_SetCurVal
 3822 0010 00000000 		.word	UI_ProcessBar_Ctl
 3823              		.section	.data.UI_SlideBar,"aw"
 3824              		.align	2
 3827              	UI_SlideBar:
 3828 0000 00000000 		.word	UI_SlideBar_Init
 3829 0004 00000000 		.word	UI_SlideBar_SetCallBack
 3830 0008 00000000 		.word	UI_SlideBar_Move
 3831 000c 00000000 		.word	UI_SlideBar_Input
 3832 0010 00000000 		.word	UI_SlideBar_Trigger
 3833 0014 00000000 		.word	UI_SlideBar_CTL
 3834 0018 00000000 		.word	UI_SlideBar_IsSelected
 3835 001c 00000000 		.word	UI_SlideBar_SetSelect
 3836              		.section	.data.base_font,"aw"
 3837              		.set	.LANCHOR2,. + 0
 3840              	base_font:
ARM GAS  /var/folders/lx/hc4sn_b53233_zkc9xbbl97r0000gp/T//cc29qxiB.s 			page 94


 3841 0000 08       		.byte	8
 3842              		.text
 3843              	.Letext0:
 3844              		.file 2 "/usr/local/arm-none-eabi-gcc/gcc-arm-none-eabi-10-2020-q4-major/arm-none-eabi/include/mac
 3845              		.file 3 "/usr/local/arm-none-eabi-gcc/gcc-arm-none-eabi-10-2020-q4-major/arm-none-eabi/include/sys
 3846              		.file 4 "Dsp/widget/wgt_core/UI_Controller.h"
 3847              		.file 5 "Dsp/screen/font/oledfont.h"
 3848              		.file 6 "/usr/local/arm-none-eabi-gcc/gcc-arm-none-eabi-10-2020-q4-major/arm-none-eabi/include/str
 3849              		.file 7 "/usr/local/arm-none-eabi-gcc/gcc-arm-none-eabi-10-2020-q4-major/arm-none-eabi/include/std
ARM GAS  /var/folders/lx/hc4sn_b53233_zkc9xbbl97r0000gp/T//cc29qxiB.s 			page 95


DEFINED SYMBOLS
                            *ABS*:0000000000000000 UI_Controller.c
/var/folders/lx/hc4sn_b53233_zkc9xbbl97r0000gp/T//cc29qxiB.s:18     .text.UI_Draw_HorDotLine:0000000000000000 $t
/var/folders/lx/hc4sn_b53233_zkc9xbbl97r0000gp/T//cc29qxiB.s:25     .text.UI_Draw_HorDotLine:0000000000000000 UI_Draw_HorDotLine
/var/folders/lx/hc4sn_b53233_zkc9xbbl97r0000gp/T//cc29qxiB.s:156    .text.UI_Draw_HorDotLine:0000000000000068 $d
/var/folders/lx/hc4sn_b53233_zkc9xbbl97r0000gp/T//cc29qxiB.s:162    .text.UI_GenData_Init:0000000000000000 $t
/var/folders/lx/hc4sn_b53233_zkc9xbbl97r0000gp/T//cc29qxiB.s:168    .text.UI_GenData_Init:0000000000000000 UI_GenData_Init
/var/folders/lx/hc4sn_b53233_zkc9xbbl97r0000gp/T//cc29qxiB.s:197    .text.UI_Move:0000000000000000 $t
/var/folders/lx/hc4sn_b53233_zkc9xbbl97r0000gp/T//cc29qxiB.s:203    .text.UI_Move:0000000000000000 UI_Move
/var/folders/lx/hc4sn_b53233_zkc9xbbl97r0000gp/T//cc29qxiB.s:237    .rodata.UI_Button_Init.str1.4:0000000000000000 $d
/var/folders/lx/hc4sn_b53233_zkc9xbbl97r0000gp/T//cc29qxiB.s:244    .text.UI_Button_Init:0000000000000000 $t
/var/folders/lx/hc4sn_b53233_zkc9xbbl97r0000gp/T//cc29qxiB.s:250    .text.UI_Button_Init:0000000000000000 UI_Button_Init
/var/folders/lx/hc4sn_b53233_zkc9xbbl97r0000gp/T//cc29qxiB.s:317    .text.UI_Button_Init:0000000000000040 $d
/var/folders/lx/hc4sn_b53233_zkc9xbbl97r0000gp/T//cc29qxiB.s:323    .text.UI_Button_Set_Label:0000000000000000 $t
/var/folders/lx/hc4sn_b53233_zkc9xbbl97r0000gp/T//cc29qxiB.s:329    .text.UI_Button_Set_Label:0000000000000000 UI_Button_Set_Label
/var/folders/lx/hc4sn_b53233_zkc9xbbl97r0000gp/T//cc29qxiB.s:373    .text.UI_Button_Set_TriggerCallback:0000000000000000 $t
/var/folders/lx/hc4sn_b53233_zkc9xbbl97r0000gp/T//cc29qxiB.s:379    .text.UI_Button_Set_TriggerCallback:0000000000000000 UI_Button_Set_TriggerCallback
/var/folders/lx/hc4sn_b53233_zkc9xbbl97r0000gp/T//cc29qxiB.s:433    .text.UI_Button_Push:0000000000000000 $t
/var/folders/lx/hc4sn_b53233_zkc9xbbl97r0000gp/T//cc29qxiB.s:439    .text.UI_Button_Push:0000000000000000 UI_Button_Push
/var/folders/lx/hc4sn_b53233_zkc9xbbl97r0000gp/T//cc29qxiB.s:556    .text.UI_Button_Release:0000000000000000 $t
/var/folders/lx/hc4sn_b53233_zkc9xbbl97r0000gp/T//cc29qxiB.s:562    .text.UI_Button_Release:0000000000000000 UI_Button_Release
/var/folders/lx/hc4sn_b53233_zkc9xbbl97r0000gp/T//cc29qxiB.s:648    .text.UI_Button_Move:0000000000000000 $t
/var/folders/lx/hc4sn_b53233_zkc9xbbl97r0000gp/T//cc29qxiB.s:654    .text.UI_Button_Move:0000000000000000 UI_Button_Move
/var/folders/lx/hc4sn_b53233_zkc9xbbl97r0000gp/T//cc29qxiB.s:695    .text.UI_Button_Ctl:0000000000000000 $t
/var/folders/lx/hc4sn_b53233_zkc9xbbl97r0000gp/T//cc29qxiB.s:701    .text.UI_Button_Ctl:0000000000000000 UI_Button_Ctl
/var/folders/lx/hc4sn_b53233_zkc9xbbl97r0000gp/T//cc29qxiB.s:960    .text.UI_Button_Ctl:0000000000000110 $d
/var/folders/lx/hc4sn_b53233_zkc9xbbl97r0000gp/T//cc29qxiB.s:966    .text.UI_CheckBox_Init:0000000000000000 $t
/var/folders/lx/hc4sn_b53233_zkc9xbbl97r0000gp/T//cc29qxiB.s:972    .text.UI_CheckBox_Init:0000000000000000 UI_CheckBox_Init
/var/folders/lx/hc4sn_b53233_zkc9xbbl97r0000gp/T//cc29qxiB.s:1023   .text.UI_CheckBox_SetCallback:0000000000000000 $t
/var/folders/lx/hc4sn_b53233_zkc9xbbl97r0000gp/T//cc29qxiB.s:1029   .text.UI_CheckBox_SetCallback:0000000000000000 UI_CheckBox_SetCallback
/var/folders/lx/hc4sn_b53233_zkc9xbbl97r0000gp/T//cc29qxiB.s:1060   .text.UI_CheckBox_Move:0000000000000000 $t
/var/folders/lx/hc4sn_b53233_zkc9xbbl97r0000gp/T//cc29qxiB.s:1066   .text.UI_CheckBox_Move:0000000000000000 UI_CheckBox_Move
/var/folders/lx/hc4sn_b53233_zkc9xbbl97r0000gp/T//cc29qxiB.s:1103   .text.UI_CheckBox_Trigger:0000000000000000 $t
/var/folders/lx/hc4sn_b53233_zkc9xbbl97r0000gp/T//cc29qxiB.s:1109   .text.UI_CheckBox_Trigger:0000000000000000 UI_CheckBox_Trigger
/var/folders/lx/hc4sn_b53233_zkc9xbbl97r0000gp/T//cc29qxiB.s:1171   .text.UI_SlideBar_Init:0000000000000000 $t
/var/folders/lx/hc4sn_b53233_zkc9xbbl97r0000gp/T//cc29qxiB.s:1177   .text.UI_SlideBar_Init:0000000000000000 UI_SlideBar_Init
/var/folders/lx/hc4sn_b53233_zkc9xbbl97r0000gp/T//cc29qxiB.s:1323   .text.UI_SlideBar_Move:0000000000000000 $t
/var/folders/lx/hc4sn_b53233_zkc9xbbl97r0000gp/T//cc29qxiB.s:1329   .text.UI_SlideBar_Move:0000000000000000 UI_SlideBar_Move
/var/folders/lx/hc4sn_b53233_zkc9xbbl97r0000gp/T//cc29qxiB.s:1366   .text.UI_SlideBar_SetCallBack:0000000000000000 $t
/var/folders/lx/hc4sn_b53233_zkc9xbbl97r0000gp/T//cc29qxiB.s:1372   .text.UI_SlideBar_SetCallBack:0000000000000000 UI_SlideBar_SetCallBack
/var/folders/lx/hc4sn_b53233_zkc9xbbl97r0000gp/T//cc29qxiB.s:1403   .text.UI_SlideBar_Input:0000000000000000 $t
/var/folders/lx/hc4sn_b53233_zkc9xbbl97r0000gp/T//cc29qxiB.s:1409   .text.UI_SlideBar_Input:0000000000000000 UI_SlideBar_Input
/var/folders/lx/hc4sn_b53233_zkc9xbbl97r0000gp/T//cc29qxiB.s:1502   .text.UI_SlideBar_Trigger:0000000000000000 $t
/var/folders/lx/hc4sn_b53233_zkc9xbbl97r0000gp/T//cc29qxiB.s:1508   .text.UI_SlideBar_Trigger:0000000000000000 UI_SlideBar_Trigger
/var/folders/lx/hc4sn_b53233_zkc9xbbl97r0000gp/T//cc29qxiB.s:1572   .text.UI_SlideBar_SetSelect:0000000000000000 $t
/var/folders/lx/hc4sn_b53233_zkc9xbbl97r0000gp/T//cc29qxiB.s:1578   .text.UI_SlideBar_SetSelect:0000000000000000 UI_SlideBar_SetSelect
/var/folders/lx/hc4sn_b53233_zkc9xbbl97r0000gp/T//cc29qxiB.s:1600   .text.UI_SlideBar_IsSelected:0000000000000000 $t
/var/folders/lx/hc4sn_b53233_zkc9xbbl97r0000gp/T//cc29qxiB.s:1606   .text.UI_SlideBar_IsSelected:0000000000000000 UI_SlideBar_IsSelected
/var/folders/lx/hc4sn_b53233_zkc9xbbl97r0000gp/T//cc29qxiB.s:1634   .text.UI_ProcessBar_Init:0000000000000000 $t
/var/folders/lx/hc4sn_b53233_zkc9xbbl97r0000gp/T//cc29qxiB.s:1640   .text.UI_ProcessBar_Init:0000000000000000 UI_ProcessBar_Init
/var/folders/lx/hc4sn_b53233_zkc9xbbl97r0000gp/T//cc29qxiB.s:1770   .text.UI_ProcessBar_Init:000000000000007c $d
/var/folders/lx/hc4sn_b53233_zkc9xbbl97r0000gp/T//cc29qxiB.s:1775   .text.UI_ProcessBar_SetDspDir:0000000000000000 $t
/var/folders/lx/hc4sn_b53233_zkc9xbbl97r0000gp/T//cc29qxiB.s:1781   .text.UI_ProcessBar_SetDspDir:0000000000000000 UI_ProcessBar_SetDspDir
/var/folders/lx/hc4sn_b53233_zkc9xbbl97r0000gp/T//cc29qxiB.s:1826   .text.UI_ProcessBar_SetCurVal:0000000000000000 $t
/var/folders/lx/hc4sn_b53233_zkc9xbbl97r0000gp/T//cc29qxiB.s:1832   .text.UI_ProcessBar_SetCurVal:0000000000000000 UI_ProcessBar_SetCurVal
/var/folders/lx/hc4sn_b53233_zkc9xbbl97r0000gp/T//cc29qxiB.s:1920   .text.UI_ProcessBar_Move:0000000000000000 $t
/var/folders/lx/hc4sn_b53233_zkc9xbbl97r0000gp/T//cc29qxiB.s:1926   .text.UI_ProcessBar_Move:0000000000000000 UI_ProcessBar_Move
ARM GAS  /var/folders/lx/hc4sn_b53233_zkc9xbbl97r0000gp/T//cc29qxiB.s 			page 96


/var/folders/lx/hc4sn_b53233_zkc9xbbl97r0000gp/T//cc29qxiB.s:1967   .text.UI_ProcessBar_DspDotBar:0000000000000000 $t
/var/folders/lx/hc4sn_b53233_zkc9xbbl97r0000gp/T//cc29qxiB.s:1973   .text.UI_ProcessBar_DspDotBar:0000000000000000 UI_ProcessBar_DspDotBar
/var/folders/lx/hc4sn_b53233_zkc9xbbl97r0000gp/T//cc29qxiB.s:2123   .text.UI_ProcessBar_DspDotBar:0000000000000078 $d
/var/folders/lx/hc4sn_b53233_zkc9xbbl97r0000gp/T//cc29qxiB.s:2128   .text.UI_CheckBox_Ctl:0000000000000000 $t
/var/folders/lx/hc4sn_b53233_zkc9xbbl97r0000gp/T//cc29qxiB.s:2134   .text.UI_CheckBox_Ctl:0000000000000000 UI_CheckBox_Ctl
/var/folders/lx/hc4sn_b53233_zkc9xbbl97r0000gp/T//cc29qxiB.s:2315   .text.UI_CheckBox_Ctl:00000000000000c0 $d
/var/folders/lx/hc4sn_b53233_zkc9xbbl97r0000gp/T//cc29qxiB.s:2321   .text.UI_SlideBar_CTL:0000000000000000 $t
/var/folders/lx/hc4sn_b53233_zkc9xbbl97r0000gp/T//cc29qxiB.s:2327   .text.UI_SlideBar_CTL:0000000000000000 UI_SlideBar_CTL
/var/folders/lx/hc4sn_b53233_zkc9xbbl97r0000gp/T//cc29qxiB.s:2598   .text.UI_SlideBar_CTL:0000000000000124 $d
/var/folders/lx/hc4sn_b53233_zkc9xbbl97r0000gp/T//cc29qxiB.s:2605   .text.UI_ProcessBar_DspFrameBar:0000000000000000 $t
/var/folders/lx/hc4sn_b53233_zkc9xbbl97r0000gp/T//cc29qxiB.s:2611   .text.UI_ProcessBar_DspFrameBar:0000000000000000 UI_ProcessBar_DspFrameBar
/var/folders/lx/hc4sn_b53233_zkc9xbbl97r0000gp/T//cc29qxiB.s:2914   .text.UI_ProcessBar_DspFrameBar:0000000000000164 $d
/var/folders/lx/hc4sn_b53233_zkc9xbbl97r0000gp/T//cc29qxiB.s:2920   .rodata.UI_ProcessBar_DspLoadBar.str1.4:0000000000000000 $d
/var/folders/lx/hc4sn_b53233_zkc9xbbl97r0000gp/T//cc29qxiB.s:2924   .text.UI_ProcessBar_DspLoadBar:0000000000000000 $t
/var/folders/lx/hc4sn_b53233_zkc9xbbl97r0000gp/T//cc29qxiB.s:2930   .text.UI_ProcessBar_DspLoadBar:0000000000000000 UI_ProcessBar_DspLoadBar
/var/folders/lx/hc4sn_b53233_zkc9xbbl97r0000gp/T//cc29qxiB.s:3144   .text.UI_ProcessBar_DspLoadBar:000000000000011c $d
/var/folders/lx/hc4sn_b53233_zkc9xbbl97r0000gp/T//cc29qxiB.s:3152   .text.UI_ProcessBar_Ctl:0000000000000000 $t
/var/folders/lx/hc4sn_b53233_zkc9xbbl97r0000gp/T//cc29qxiB.s:3158   .text.UI_ProcessBar_Ctl:0000000000000000 UI_ProcessBar_Ctl
/var/folders/lx/hc4sn_b53233_zkc9xbbl97r0000gp/T//cc29qxiB.s:3251   .text.UI_ProcessBar_Ctl:000000000000004c $d
/var/folders/lx/hc4sn_b53233_zkc9xbbl97r0000gp/T//cc29qxiB.s:3256   .text.UI_Set_FontType:0000000000000000 $t
/var/folders/lx/hc4sn_b53233_zkc9xbbl97r0000gp/T//cc29qxiB.s:3263   .text.UI_Set_FontType:0000000000000000 UI_Set_FontType
/var/folders/lx/hc4sn_b53233_zkc9xbbl97r0000gp/T//cc29qxiB.s:3298   .text.UI_Set_FontType:0000000000000018 $d
/var/folders/lx/hc4sn_b53233_zkc9xbbl97r0000gp/T//cc29qxiB.s:3303   .text.UI_Set_DspInterface:0000000000000000 $t
/var/folders/lx/hc4sn_b53233_zkc9xbbl97r0000gp/T//cc29qxiB.s:3310   .text.UI_Set_DspInterface:0000000000000000 UI_Set_DspInterface
/var/folders/lx/hc4sn_b53233_zkc9xbbl97r0000gp/T//cc29qxiB.s:3383   .text.UI_Set_DspInterface:0000000000000030 $d
/var/folders/lx/hc4sn_b53233_zkc9xbbl97r0000gp/T//cc29qxiB.s:3388   .text.UI_Set_GetWidgetWidthMathod:0000000000000000 $t
/var/folders/lx/hc4sn_b53233_zkc9xbbl97r0000gp/T//cc29qxiB.s:3395   .text.UI_Set_GetWidgetWidthMathod:0000000000000000 UI_Set_GetWidgetWidthMathod
/var/folders/lx/hc4sn_b53233_zkc9xbbl97r0000gp/T//cc29qxiB.s:3412   .text.UI_Set_GetWidgetWidthMathod:0000000000000008 $d
/var/folders/lx/hc4sn_b53233_zkc9xbbl97r0000gp/T//cc29qxiB.s:3417   .text.UI_ShowSelector:0000000000000000 $t
/var/folders/lx/hc4sn_b53233_zkc9xbbl97r0000gp/T//cc29qxiB.s:3424   .text.UI_ShowSelector:0000000000000000 UI_ShowSelector
/var/folders/lx/hc4sn_b53233_zkc9xbbl97r0000gp/T//cc29qxiB.s:3766   .text.UI_ShowSelector:0000000000000154 $d
/var/folders/lx/hc4sn_b53233_zkc9xbbl97r0000gp/T//cc29qxiB.s:3817   .data.UI_ProcessBar:0000000000000000 UI_ProcessBar
/var/folders/lx/hc4sn_b53233_zkc9xbbl97r0000gp/T//cc29qxiB.s:3827   .data.UI_SlideBar:0000000000000000 UI_SlideBar
/var/folders/lx/hc4sn_b53233_zkc9xbbl97r0000gp/T//cc29qxiB.s:3807   .data.UI_CheckBox:0000000000000000 UI_CheckBox
/var/folders/lx/hc4sn_b53233_zkc9xbbl97r0000gp/T//cc29qxiB.s:3795   .data.UI_Button:0000000000000000 UI_Button
/var/folders/lx/hc4sn_b53233_zkc9xbbl97r0000gp/T//cc29qxiB.s:3789   .bss.UI_Get_WidgetWidth:0000000000000000 UI_Get_WidgetWidth
/var/folders/lx/hc4sn_b53233_zkc9xbbl97r0000gp/T//cc29qxiB.s:3778   .bss.UI_DspInterface:0000000000000000 $d
/var/folders/lx/hc4sn_b53233_zkc9xbbl97r0000gp/T//cc29qxiB.s:3782   .bss.UI_DspInterface:0000000000000000 UI_DspInterface
/var/folders/lx/hc4sn_b53233_zkc9xbbl97r0000gp/T//cc29qxiB.s:3785   .bss.UI_Get_WidgetWidth:0000000000000000 $d
/var/folders/lx/hc4sn_b53233_zkc9xbbl97r0000gp/T//cc29qxiB.s:3792   .data.UI_Button:0000000000000000 $d
/var/folders/lx/hc4sn_b53233_zkc9xbbl97r0000gp/T//cc29qxiB.s:3804   .data.UI_CheckBox:0000000000000000 $d
/var/folders/lx/hc4sn_b53233_zkc9xbbl97r0000gp/T//cc29qxiB.s:3814   .data.UI_ProcessBar:0000000000000000 $d
/var/folders/lx/hc4sn_b53233_zkc9xbbl97r0000gp/T//cc29qxiB.s:3824   .data.UI_SlideBar:0000000000000000 $d
/var/folders/lx/hc4sn_b53233_zkc9xbbl97r0000gp/T//cc29qxiB.s:3840   .data.base_font:0000000000000000 base_font

UNDEFINED SYMBOLS
strlen
sprintf
