ARM GAS  /var/folders/lx/hc4sn_b53233_zkc9xbbl97r0000gp/T//ccQGj1L2.s 			page 1


   1              		.cpu cortex-m4
   2              		.eabi_attribute 27, 1
   3              		.eabi_attribute 28, 1
   4              		.eabi_attribute 20, 1
   5              		.eabi_attribute 21, 1
   6              		.eabi_attribute 23, 3
   7              		.eabi_attribute 24, 1
   8              		.eabi_attribute 25, 1
   9              		.eabi_attribute 26, 1
  10              		.eabi_attribute 30, 1
  11              		.eabi_attribute 34, 1
  12              		.eabi_attribute 18, 4
  13              		.file	"UI_Controller.c"
  14              		.text
  15              	.Ltext0:
  16              		.cfi_sections	.debug_frame
  17              		.section	.text.UI_Draw_HorDotLine,"ax",%progbits
  18              		.align	1
  19              		.arch armv7e-m
  20              		.syntax unified
  21              		.thumb
  22              		.thumb_func
  23              		.fpu fpv4-sp-d16
  25              	UI_Draw_HorDotLine:
  26              	.LVL0:
  27              	.LFB6:
  28              		.file 1 "Dsp/widget/wgt_core/UI_Controller.c"
   1:Dsp/widget/wgt_core/UI_Controller.c **** #include "UI_Controller.h"
   2:Dsp/widget/wgt_core/UI_Controller.c **** #include "runtime.h"
   3:Dsp/widget/wgt_core/UI_Controller.c **** #include <stdlib.h>
   4:Dsp/widget/wgt_core/UI_Controller.c **** #include <string.h>
   5:Dsp/widget/wgt_core/UI_Controller.c **** #include <stdio.h>
   6:Dsp/widget/wgt_core/UI_Controller.c **** 
   7:Dsp/widget/wgt_core/UI_Controller.c **** /* internal object */
   8:Dsp/widget/wgt_core/UI_Controller.c **** static UI_DrawInterface_TypeDef UI_DspInterface;
   9:Dsp/widget/wgt_core/UI_Controller.c **** static uint8_t base_font = Default_Font;
  10:Dsp/widget/wgt_core/UI_Controller.c **** 
  11:Dsp/widget/wgt_core/UI_Controller.c **** /* external function */
  12:Dsp/widget/wgt_core/UI_Controller.c **** /* UI Get General Get Mathod */
  13:Dsp/widget/wgt_core/UI_Controller.c **** UI_GetWidget_Width UI_Get_WidgetWidth = NULL;
  14:Dsp/widget/wgt_core/UI_Controller.c **** // UI_GetWidget_Height UI_Get_WidgetHeight = NULL;
  15:Dsp/widget/wgt_core/UI_Controller.c **** 
  16:Dsp/widget/wgt_core/UI_Controller.c **** /* UI button section */
  17:Dsp/widget/wgt_core/UI_Controller.c **** static bool UI_Button_Init(UI_ButtonObj_TypeDef *Obj, char *label, int16_t x, int16_t y, uint8_t wi
  18:Dsp/widget/wgt_core/UI_Controller.c **** static bool UI_Button_Set_Label(UI_ButtonObj_TypeDef *Obj, UI_Button_State_List state, char *label)
  19:Dsp/widget/wgt_core/UI_Controller.c **** static bool UI_Button_Set_TriggerCallback(UI_ButtonObj_TypeDef *Obj, UI_Button_Trigger_Type type, U
  20:Dsp/widget/wgt_core/UI_Controller.c **** static bool UI_Button_Push(UI_ButtonObj_TypeDef *Obj);
  21:Dsp/widget/wgt_core/UI_Controller.c **** static bool UI_Button_Release(UI_ButtonObj_TypeDef *Obj);
  22:Dsp/widget/wgt_core/UI_Controller.c **** static bool UI_Button_Move(UI_ButtonObj_TypeDef *Obj, uint16_t x, uint16_t y);
  23:Dsp/widget/wgt_core/UI_Controller.c **** static bool UI_Button_Ctl(UI_ButtonObj_TypeDef *Obj);
  24:Dsp/widget/wgt_core/UI_Controller.c **** 
  25:Dsp/widget/wgt_core/UI_Controller.c **** /* UI check box section */
  26:Dsp/widget/wgt_core/UI_Controller.c **** static bool UI_CheckBox_Init(UI_CheckBoxObj_TypeDef *Obj, char *label, int16_t x, int16_t y, bool s
  27:Dsp/widget/wgt_core/UI_Controller.c **** static bool UI_CheckBox_SetCallback(UI_CheckBoxObj_TypeDef *Obj, UI_CheckBoxTrigger_Callback callba
  28:Dsp/widget/wgt_core/UI_Controller.c **** static bool UI_CheckBox_Move(UI_CheckBoxObj_TypeDef *Obj, int16_t x, int16_t y);
  29:Dsp/widget/wgt_core/UI_Controller.c **** static bool UI_CheckBox_Trigger(UI_CheckBoxObj_TypeDef *Obj);
  30:Dsp/widget/wgt_core/UI_Controller.c **** static bool UI_CheckBox_Ctl(UI_CheckBoxObj_TypeDef *Obj);
ARM GAS  /var/folders/lx/hc4sn_b53233_zkc9xbbl97r0000gp/T//ccQGj1L2.s 			page 2


  31:Dsp/widget/wgt_core/UI_Controller.c **** 
  32:Dsp/widget/wgt_core/UI_Controller.c **** /* UI slider bar section */
  33:Dsp/widget/wgt_core/UI_Controller.c **** static bool UI_SlideBar_Init(UI_SlideBarObj_TypeDef *Obj, UI_SliderBar_Mode_List mode, char *label,
  34:Dsp/widget/wgt_core/UI_Controller.c **** static bool UI_SlideBar_Move(UI_SlideBarObj_TypeDef *Obj, int16_t x, int16_t y);
  35:Dsp/widget/wgt_core/UI_Controller.c **** static bool UI_SlideBar_SetCallBack(UI_SlideBarObj_TypeDef *Obj, UI_SliderBarTrigger_Callback callb
  36:Dsp/widget/wgt_core/UI_Controller.c **** static bool UI_SlideBar_Input(UI_SlideBarObj_TypeDef *Obj, int16_t *step);
  37:Dsp/widget/wgt_core/UI_Controller.c **** static bool UI_SlideBar_Trigger(UI_SlideBarObj_TypeDef *Obj);
  38:Dsp/widget/wgt_core/UI_Controller.c **** static bool UI_SlideBar_CTL(UI_SlideBarObj_TypeDef *Obj);
  39:Dsp/widget/wgt_core/UI_Controller.c **** static void UI_SlideBar_SetSelect(UI_SlideBarObj_TypeDef *Obj, bool select);
  40:Dsp/widget/wgt_core/UI_Controller.c **** static bool UI_SlideBar_IsSelected(UI_SlideBarObj_TypeDef *Obj);
  41:Dsp/widget/wgt_core/UI_Controller.c **** 
  42:Dsp/widget/wgt_core/UI_Controller.c **** /* UI Process bar section */
  43:Dsp/widget/wgt_core/UI_Controller.c **** static bool UI_ProcessBar_Init(UI_ProcessBarObj_TypeDef *Obj, UI_ProcessBar_DspType_List dsp_type, 
  44:Dsp/widget/wgt_core/UI_Controller.c **** static bool UI_ProcessBar_SetDspDir(UI_ProcessBarObj_TypeDef *Obj, UI_ProcessBar_MoveDir_TypeDef Di
  45:Dsp/widget/wgt_core/UI_Controller.c **** static bool UI_ProcessBar_SetCurVal(UI_ProcessBarObj_TypeDef *Obj, int32_t val);
  46:Dsp/widget/wgt_core/UI_Controller.c **** static bool UI_ProcessBar_Ctl(UI_ProcessBarObj_TypeDef *Obj);
  47:Dsp/widget/wgt_core/UI_Controller.c **** static bool UI_ProcessBar_Move(UI_ProcessBarObj_TypeDef *Obj, uint16_t x, uint16_t y);
  48:Dsp/widget/wgt_core/UI_Controller.c **** 
  49:Dsp/widget/wgt_core/UI_Controller.c **** /* general function */
  50:Dsp/widget/wgt_core/UI_Controller.c **** static bool UI_Get_InitSate(UI_GeneralData_TypeDef GenData);
  51:Dsp/widget/wgt_core/UI_Controller.c **** static bool UI_Selecte(UI_GeneralData_TypeDef *GenData, bool select);
  52:Dsp/widget/wgt_core/UI_Controller.c **** static bool UI_Get_Selected(UI_GeneralData_TypeDef GenData);
  53:Dsp/widget/wgt_core/UI_Controller.c **** static bool UI_Move(UI_GeneralData_TypeDef *GenUI_Info, int16_t dst_x, int16_t dst_y);
  54:Dsp/widget/wgt_core/UI_Controller.c **** 
  55:Dsp/widget/wgt_core/UI_Controller.c **** /* UI custom display mathod */
  56:Dsp/widget/wgt_core/UI_Controller.c **** static bool UI_Draw_HorDotLine(int16_t x, int16_t y, uint8_t len, uint8_t line_width);
  57:Dsp/widget/wgt_core/UI_Controller.c **** 
  58:Dsp/widget/wgt_core/UI_Controller.c **** /* external Object var */
  59:Dsp/widget/wgt_core/UI_Controller.c **** UI_Button_Interface_TypeDef UI_Button = {
  60:Dsp/widget/wgt_core/UI_Controller.c ****     .ctl = UI_Button_Ctl,
  61:Dsp/widget/wgt_core/UI_Controller.c ****     .init = UI_Button_Init,
  62:Dsp/widget/wgt_core/UI_Controller.c ****     .push = UI_Button_Push,
  63:Dsp/widget/wgt_core/UI_Controller.c ****     .move = UI_Button_Move,
  64:Dsp/widget/wgt_core/UI_Controller.c ****     .release = UI_Button_Release,
  65:Dsp/widget/wgt_core/UI_Controller.c ****     .set_label = UI_Button_Set_Label,
  66:Dsp/widget/wgt_core/UI_Controller.c ****     .set_trogger_callback = UI_Button_Set_TriggerCallback,
  67:Dsp/widget/wgt_core/UI_Controller.c **** };
  68:Dsp/widget/wgt_core/UI_Controller.c **** 
  69:Dsp/widget/wgt_core/UI_Controller.c **** UI_CheckBox_Interface_TypeDef UI_CheckBox = {
  70:Dsp/widget/wgt_core/UI_Controller.c ****     .ctl = UI_CheckBox_Ctl,
  71:Dsp/widget/wgt_core/UI_Controller.c ****     .init = UI_CheckBox_Init,
  72:Dsp/widget/wgt_core/UI_Controller.c ****     .Set_Callback = UI_CheckBox_SetCallback,
  73:Dsp/widget/wgt_core/UI_Controller.c ****     .Move = UI_CheckBox_Move,
  74:Dsp/widget/wgt_core/UI_Controller.c ****     .Trigger = UI_CheckBox_Trigger,
  75:Dsp/widget/wgt_core/UI_Controller.c **** };
  76:Dsp/widget/wgt_core/UI_Controller.c **** 
  77:Dsp/widget/wgt_core/UI_Controller.c **** UI_SliderBar_Interface_TypeDef UI_SlideBar = {
  78:Dsp/widget/wgt_core/UI_Controller.c ****     .init = UI_SlideBar_Init,
  79:Dsp/widget/wgt_core/UI_Controller.c ****     .Move = UI_SlideBar_Move,
  80:Dsp/widget/wgt_core/UI_Controller.c ****     .Set_Callbak = UI_SlideBar_SetCallBack,
  81:Dsp/widget/wgt_core/UI_Controller.c ****     .Input = UI_SlideBar_Input,
  82:Dsp/widget/wgt_core/UI_Controller.c ****     .Trigger = UI_SlideBar_Trigger,
  83:Dsp/widget/wgt_core/UI_Controller.c ****     .ctl = UI_SlideBar_CTL,
  84:Dsp/widget/wgt_core/UI_Controller.c ****     .Set_Select = UI_SlideBar_SetSelect,
  85:Dsp/widget/wgt_core/UI_Controller.c ****     .Get_Select = UI_SlideBar_IsSelected,
  86:Dsp/widget/wgt_core/UI_Controller.c **** };
  87:Dsp/widget/wgt_core/UI_Controller.c **** 
ARM GAS  /var/folders/lx/hc4sn_b53233_zkc9xbbl97r0000gp/T//ccQGj1L2.s 			page 3


  88:Dsp/widget/wgt_core/UI_Controller.c **** UI_ProcessBar_Interface_TypeDef UI_ProcessBar = {
  89:Dsp/widget/wgt_core/UI_Controller.c ****     .init = UI_ProcessBar_Init,
  90:Dsp/widget/wgt_core/UI_Controller.c ****     .Move = UI_ProcessBar_Move,
  91:Dsp/widget/wgt_core/UI_Controller.c ****     .set_CurVal = UI_ProcessBar_SetCurVal,
  92:Dsp/widget/wgt_core/UI_Controller.c ****     .set_DspDir = UI_ProcessBar_SetDspDir,
  93:Dsp/widget/wgt_core/UI_Controller.c ****     .ctl = UI_ProcessBar_Ctl,
  94:Dsp/widget/wgt_core/UI_Controller.c **** };
  95:Dsp/widget/wgt_core/UI_Controller.c **** 
  96:Dsp/widget/wgt_core/UI_Controller.c **** /******************************* general function *********************************/
  97:Dsp/widget/wgt_core/UI_Controller.c **** 
  98:Dsp/widget/wgt_core/UI_Controller.c **** bool UI_Set_FontType(uint8_t font)
  99:Dsp/widget/wgt_core/UI_Controller.c **** {
 100:Dsp/widget/wgt_core/UI_Controller.c ****     if (font < Font_8 || font > Font_16)
 101:Dsp/widget/wgt_core/UI_Controller.c ****         return false;
 102:Dsp/widget/wgt_core/UI_Controller.c **** 
 103:Dsp/widget/wgt_core/UI_Controller.c ****     base_font = font;
 104:Dsp/widget/wgt_core/UI_Controller.c **** 
 105:Dsp/widget/wgt_core/UI_Controller.c ****     return true;
 106:Dsp/widget/wgt_core/UI_Controller.c **** }
 107:Dsp/widget/wgt_core/UI_Controller.c **** 
 108:Dsp/widget/wgt_core/UI_Controller.c **** void UI_Set_DspInterface(UI_DrawPoint point,
 109:Dsp/widget/wgt_core/UI_Controller.c ****                          UI_DrawHLine line_h,
 110:Dsp/widget/wgt_core/UI_Controller.c ****                          UI_DrawVLine line_v,
 111:Dsp/widget/wgt_core/UI_Controller.c ****                          UI_DrawRectangle rectangle,
 112:Dsp/widget/wgt_core/UI_Controller.c ****                          UI_DrawRadiusRectangle radius_rectangle,
 113:Dsp/widget/wgt_core/UI_Controller.c ****                          UI_DrawCircle circle,
 114:Dsp/widget/wgt_core/UI_Controller.c ****                          UI_DrawCircleSection circle_section,
 115:Dsp/widget/wgt_core/UI_Controller.c ****                          UI_DrawStr str,
 116:Dsp/widget/wgt_core/UI_Controller.c ****                          UI_FillCircle fill_circle,
 117:Dsp/widget/wgt_core/UI_Controller.c ****                          UI_FillCircle_Section fillcircle_section,
 118:Dsp/widget/wgt_core/UI_Controller.c ****                          UI_FillRectangle fill_rectangle,
 119:Dsp/widget/wgt_core/UI_Controller.c ****                          UI_FillRadiusRectangle fill_radius_rectangle)
 120:Dsp/widget/wgt_core/UI_Controller.c **** {
 121:Dsp/widget/wgt_core/UI_Controller.c ****     UI_DspInterface.draw_circle = circle;
 122:Dsp/widget/wgt_core/UI_Controller.c ****     UI_DspInterface.draw_circle_section = circle_section;
 123:Dsp/widget/wgt_core/UI_Controller.c ****     UI_DspInterface.draw_line_h = line_h;
 124:Dsp/widget/wgt_core/UI_Controller.c ****     UI_DspInterface.draw_line_v = line_v;
 125:Dsp/widget/wgt_core/UI_Controller.c ****     UI_DspInterface.draw_point = point;
 126:Dsp/widget/wgt_core/UI_Controller.c ****     UI_DspInterface.draw_rectangle = rectangle;
 127:Dsp/widget/wgt_core/UI_Controller.c ****     UI_DspInterface.draw_radius_rectangle = radius_rectangle;
 128:Dsp/widget/wgt_core/UI_Controller.c ****     UI_DspInterface.draw_str = str;
 129:Dsp/widget/wgt_core/UI_Controller.c **** 
 130:Dsp/widget/wgt_core/UI_Controller.c ****     UI_DspInterface.fill_circle = fill_circle;
 131:Dsp/widget/wgt_core/UI_Controller.c ****     UI_DspInterface.fill_circle_section = fillcircle_section;
 132:Dsp/widget/wgt_core/UI_Controller.c ****     UI_DspInterface.fill_radius_rectangle = fill_radius_rectangle;
 133:Dsp/widget/wgt_core/UI_Controller.c ****     UI_DspInterface.fill_rectangle = fill_rectangle;
 134:Dsp/widget/wgt_core/UI_Controller.c **** }
 135:Dsp/widget/wgt_core/UI_Controller.c **** 
 136:Dsp/widget/wgt_core/UI_Controller.c **** void UI_Set_GetWidgetWidthMathod(UI_GetWidget_Width mathod)
 137:Dsp/widget/wgt_core/UI_Controller.c **** {
 138:Dsp/widget/wgt_core/UI_Controller.c ****     UI_Get_WidgetWidth = mathod;
 139:Dsp/widget/wgt_core/UI_Controller.c **** }
 140:Dsp/widget/wgt_core/UI_Controller.c **** 
 141:Dsp/widget/wgt_core/UI_Controller.c **** static bool UI_Draw_HorDotLine(int16_t x, int16_t y, uint8_t len, uint8_t line_width)
 142:Dsp/widget/wgt_core/UI_Controller.c **** {
  29              		.loc 1 142 1 view -0
  30              		.cfi_startproc
ARM GAS  /var/folders/lx/hc4sn_b53233_zkc9xbbl97r0000gp/T//ccQGj1L2.s 			page 4


  31              		@ args = 0, pretend = 0, frame = 0
  32              		@ frame_needed = 0, uses_anonymous_args = 0
  33              		.loc 1 142 1 is_stmt 0 view .LVU1
  34 0000 2DE9F843 		push	{r3, r4, r5, r6, r7, r8, r9, lr}
  35              	.LCFI0:
  36              		.cfi_def_cfa_offset 32
  37              		.cfi_offset 3, -32
  38              		.cfi_offset 4, -28
  39              		.cfi_offset 5, -24
  40              		.cfi_offset 6, -20
  41              		.cfi_offset 7, -16
  42              		.cfi_offset 8, -12
  43              		.cfi_offset 9, -8
  44              		.cfi_offset 14, -4
  45 0004 1E46     		mov	r6, r3
 143:Dsp/widget/wgt_core/UI_Controller.c ****     if ((UI_DspInterface.draw_point == NULL) || (UI_Get_WidgetWidth == NULL))
  46              		.loc 1 143 5 is_stmt 1 view .LVU2
  47              		.loc 1 143 25 is_stmt 0 view .LVU3
  48 0006 184B     		ldr	r3, .L14
  49              	.LVL1:
  50              		.loc 1 143 25 view .LVU4
  51 0008 5B68     		ldr	r3, [r3, #4]
  52              		.loc 1 143 8 view .LVU5
  53 000a 4BB3     		cbz	r3, .L7
  54 000c 0546     		mov	r5, r0
  55 000e 0F46     		mov	r7, r1
  56 0010 9046     		mov	r8, r2
  57              		.loc 1 143 69 discriminator 1 view .LVU6
  58 0012 164B     		ldr	r3, .L14+4
  59 0014 1B68     		ldr	r3, [r3]
  60              		.loc 1 143 46 discriminator 1 view .LVU7
  61 0016 2BB3     		cbz	r3, .L8
 144:Dsp/widget/wgt_core/UI_Controller.c ****         return false;
 145:Dsp/widget/wgt_core/UI_Controller.c **** 
 146:Dsp/widget/wgt_core/UI_Controller.c ****     if (x > UI_Get_WidgetWidth())
  62              		.loc 1 146 5 is_stmt 1 view .LVU8
  63              		.loc 1 146 11 is_stmt 0 view .LVU9
  64 0018 8146     		mov	r9, r0
  65              		.loc 1 146 13 view .LVU10
  66 001a 9847     		blx	r3
  67              	.LVL2:
  68              		.loc 1 146 8 view .LVU11
  69 001c 8542     		cmp	r5, r0
  70 001e 16DD     		ble	.L3
 147:Dsp/widget/wgt_core/UI_Controller.c ****         return true;
  71              		.loc 1 147 16 view .LVU12
  72 0020 0120     		movs	r0, #1
  73 0022 1BE0     		b	.L2
  74              	.LVL3:
  75              	.L4:
  76              	.LBB2:
  77              	.LBB3:
 148:Dsp/widget/wgt_core/UI_Controller.c **** 
 149:Dsp/widget/wgt_core/UI_Controller.c ****     for (int16_t i = x; i < x + len; i++)
 150:Dsp/widget/wgt_core/UI_Controller.c ****     {
 151:Dsp/widget/wgt_core/UI_Controller.c ****         for (uint8_t width = 0; width < line_width; width++)
  78              		.loc 1 151 53 is_stmt 1 discriminator 2 view .LVU13
ARM GAS  /var/folders/lx/hc4sn_b53233_zkc9xbbl97r0000gp/T//ccQGj1L2.s 			page 5


  79              		.loc 1 151 58 is_stmt 0 discriminator 2 view .LVU14
  80 0024 0134     		adds	r4, r4, #1
  81              	.LVL4:
  82              		.loc 1 151 58 discriminator 2 view .LVU15
  83 0026 E4B2     		uxtb	r4, r4
  84              	.LVL5:
  85              	.L6:
  86              		.loc 1 151 33 is_stmt 1 discriminator 1 view .LVU16
  87              		.loc 1 151 9 is_stmt 0 discriminator 1 view .LVU17
  88 0028 B442     		cmp	r4, r6
  89 002a 0ED2     		bcs	.L12
 152:Dsp/widget/wgt_core/UI_Controller.c ****         {
 153:Dsp/widget/wgt_core/UI_Controller.c ****             if (i / 2)
  90              		.loc 1 153 13 is_stmt 1 view .LVU18
  91              		.loc 1 153 17 is_stmt 0 view .LVU19
  92 002c 05F1010C 		add	ip, r5, #1
  93 0030 1FFA8CFC 		uxth	ip, ip
  94              		.loc 1 153 16 view .LVU20
  95 0034 BCF1020F 		cmp	ip, #2
  96 0038 F4D9     		bls	.L4
 154:Dsp/widget/wgt_core/UI_Controller.c ****             {
 155:Dsp/widget/wgt_core/UI_Controller.c ****                 UI_DspInterface.draw_point(i, y + width, true);
  97              		.loc 1 155 17 is_stmt 1 view .LVU21
  98              		.loc 1 155 32 is_stmt 0 view .LVU22
  99 003a 0B4B     		ldr	r3, .L14
 100 003c 5B68     		ldr	r3, [r3, #4]
 101              		.loc 1 155 49 view .LVU23
 102 003e E119     		adds	r1, r4, r7
 103              		.loc 1 155 17 view .LVU24
 104 0040 0122     		movs	r2, #1
 105 0042 09B2     		sxth	r1, r1
 106 0044 2846     		mov	r0, r5
 107 0046 9847     		blx	r3
 108              	.LVL6:
 109 0048 ECE7     		b	.L4
 110              	.L12:
 111              	.LBE3:
 149:Dsp/widget/wgt_core/UI_Controller.c ****     {
 112              		.loc 1 149 38 is_stmt 1 discriminator 2 view .LVU25
 149:Dsp/widget/wgt_core/UI_Controller.c ****     {
 113              		.loc 1 149 39 is_stmt 0 discriminator 2 view .LVU26
 114 004a 0135     		adds	r5, r5, #1
 115              	.LVL7:
 149:Dsp/widget/wgt_core/UI_Controller.c ****     {
 116              		.loc 1 149 39 discriminator 2 view .LVU27
 117 004c 2DB2     		sxth	r5, r5
 118              	.LVL8:
 119              	.L3:
 149:Dsp/widget/wgt_core/UI_Controller.c ****     {
 120              		.loc 1 149 25 is_stmt 1 discriminator 1 view .LVU28
 149:Dsp/widget/wgt_core/UI_Controller.c ****     {
 121              		.loc 1 149 31 is_stmt 0 discriminator 1 view .LVU29
 122 004e 08EB0903 		add	r3, r8, r9
 149:Dsp/widget/wgt_core/UI_Controller.c ****     {
 123              		.loc 1 149 5 discriminator 1 view .LVU30
 124 0052 9D42     		cmp	r5, r3
 125 0054 01DA     		bge	.L13
ARM GAS  /var/folders/lx/hc4sn_b53233_zkc9xbbl97r0000gp/T//ccQGj1L2.s 			page 6


 126              	.LBB4:
 151:Dsp/widget/wgt_core/UI_Controller.c ****         {
 127              		.loc 1 151 22 view .LVU31
 128 0056 0024     		movs	r4, #0
 129 0058 E6E7     		b	.L6
 130              	.L13:
 131              	.LBE4:
 132              	.LBE2:
 156:Dsp/widget/wgt_core/UI_Controller.c ****             }
 157:Dsp/widget/wgt_core/UI_Controller.c ****         }
 158:Dsp/widget/wgt_core/UI_Controller.c ****     }
 159:Dsp/widget/wgt_core/UI_Controller.c **** 
 160:Dsp/widget/wgt_core/UI_Controller.c ****     return true;
 133              		.loc 1 160 12 view .LVU32
 134 005a 0120     		movs	r0, #1
 135              	.LVL9:
 136              	.L2:
 161:Dsp/widget/wgt_core/UI_Controller.c **** }
 137              		.loc 1 161 1 view .LVU33
 138 005c BDE8F883 		pop	{r3, r4, r5, r6, r7, r8, r9, pc}
 139              	.LVL10:
 140              	.L7:
 144:Dsp/widget/wgt_core/UI_Controller.c **** 
 141              		.loc 1 144 16 view .LVU34
 142 0060 0020     		movs	r0, #0
 143              	.LVL11:
 144:Dsp/widget/wgt_core/UI_Controller.c **** 
 144              		.loc 1 144 16 view .LVU35
 145 0062 FBE7     		b	.L2
 146              	.LVL12:
 147              	.L8:
 144:Dsp/widget/wgt_core/UI_Controller.c **** 
 148              		.loc 1 144 16 view .LVU36
 149 0064 0020     		movs	r0, #0
 150              	.LVL13:
 144:Dsp/widget/wgt_core/UI_Controller.c **** 
 151              		.loc 1 144 16 view .LVU37
 152 0066 F9E7     		b	.L2
 153              	.L15:
 154              		.align	2
 155              	.L14:
 156 0068 00000000 		.word	.LANCHOR0
 157 006c 00000000 		.word	.LANCHOR1
 158              		.cfi_endproc
 159              	.LFE6:
 161              		.section	.text.UI_GenData_Init,"ax",%progbits
 162              		.align	1
 163              		.syntax unified
 164              		.thumb
 165              		.thumb_func
 166              		.fpu fpv4-sp-d16
 168              	UI_GenData_Init:
 169              	.LVL14:
 170              	.LFB8:
 162:Dsp/widget/wgt_core/UI_Controller.c **** 
 163:Dsp/widget/wgt_core/UI_Controller.c **** /* still in developing about this selector */
 164:Dsp/widget/wgt_core/UI_Controller.c **** /* FYI different UI Item Got different selector */
ARM GAS  /var/folders/lx/hc4sn_b53233_zkc9xbbl97r0000gp/T//ccQGj1L2.s 			page 7


 165:Dsp/widget/wgt_core/UI_Controller.c **** bool UI_ShowSelector(WidgetUI_Item_TypeDef *item)
 166:Dsp/widget/wgt_core/UI_Controller.c **** {
 167:Dsp/widget/wgt_core/UI_Controller.c ****     /* button selector coordinate */
 168:Dsp/widget/wgt_core/UI_Controller.c ****     int16_t Btn_Slct_LftUp_X = 0;
 169:Dsp/widget/wgt_core/UI_Controller.c ****     int16_t Btn_Slct_LftUp_Y = 0;
 170:Dsp/widget/wgt_core/UI_Controller.c ****     int16_t Btn_Slct_LftDwn_X = 0;
 171:Dsp/widget/wgt_core/UI_Controller.c ****     int16_t Btn_Slct_LftDwn_Y = 0;
 172:Dsp/widget/wgt_core/UI_Controller.c ****     int16_t Btn_Slct_RgtUp_X = 0;
 173:Dsp/widget/wgt_core/UI_Controller.c ****     int16_t Btn_Slct_RgtUp_Y = 0;
 174:Dsp/widget/wgt_core/UI_Controller.c ****     int16_t Btn_Slct_RgtDwn_X = 0;
 175:Dsp/widget/wgt_core/UI_Controller.c ****     int16_t Btn_Slct_RgtDwn_Y = 0;
 176:Dsp/widget/wgt_core/UI_Controller.c **** 
 177:Dsp/widget/wgt_core/UI_Controller.c ****     /* selector block coordinate */
 178:Dsp/widget/wgt_core/UI_Controller.c ****     int16_t block_x;
 179:Dsp/widget/wgt_core/UI_Controller.c ****     int16_t block_y;
 180:Dsp/widget/wgt_core/UI_Controller.c **** 
 181:Dsp/widget/wgt_core/UI_Controller.c ****     uint8_t widget_width = 128;
 182:Dsp/widget/wgt_core/UI_Controller.c ****     uint8_t selector_height = 0;
 183:Dsp/widget/wgt_core/UI_Controller.c **** 
 184:Dsp/widget/wgt_core/UI_Controller.c ****     if (UI_Get_WidgetWidth != NULL)
 185:Dsp/widget/wgt_core/UI_Controller.c ****     {
 186:Dsp/widget/wgt_core/UI_Controller.c ****         widget_width = UI_Get_WidgetWidth();
 187:Dsp/widget/wgt_core/UI_Controller.c **** 
 188:Dsp/widget/wgt_core/UI_Controller.c ****         if (widget_width == 0)
 189:Dsp/widget/wgt_core/UI_Controller.c ****             return false;
 190:Dsp/widget/wgt_core/UI_Controller.c ****     }
 191:Dsp/widget/wgt_core/UI_Controller.c **** 
 192:Dsp/widget/wgt_core/UI_Controller.c ****     if (item == NULL)
 193:Dsp/widget/wgt_core/UI_Controller.c ****         return false;
 194:Dsp/widget/wgt_core/UI_Controller.c **** 
 195:Dsp/widget/wgt_core/UI_Controller.c ****     switch (base_font)
 196:Dsp/widget/wgt_core/UI_Controller.c ****     {
 197:Dsp/widget/wgt_core/UI_Controller.c ****     case Font_8:
 198:Dsp/widget/wgt_core/UI_Controller.c ****         selector_height = Font_8 + 2;
 199:Dsp/widget/wgt_core/UI_Controller.c ****         break;
 200:Dsp/widget/wgt_core/UI_Controller.c **** 
 201:Dsp/widget/wgt_core/UI_Controller.c ****     case Font_12:
 202:Dsp/widget/wgt_core/UI_Controller.c ****     case Font_16:
 203:Dsp/widget/wgt_core/UI_Controller.c ****         selector_height = Font_12 - 1;
 204:Dsp/widget/wgt_core/UI_Controller.c ****         break;
 205:Dsp/widget/wgt_core/UI_Controller.c **** 
 206:Dsp/widget/wgt_core/UI_Controller.c ****     default:
 207:Dsp/widget/wgt_core/UI_Controller.c ****         return false;
 208:Dsp/widget/wgt_core/UI_Controller.c ****     }
 209:Dsp/widget/wgt_core/UI_Controller.c **** 
 210:Dsp/widget/wgt_core/UI_Controller.c ****     switch ((uint8_t)(item->type))
 211:Dsp/widget/wgt_core/UI_Controller.c ****     {
 212:Dsp/widget/wgt_core/UI_Controller.c ****     case UI_Type_Button:
 213:Dsp/widget/wgt_core/UI_Controller.c **** 
 214:Dsp/widget/wgt_core/UI_Controller.c ****         if (UI_DspInterface.fill_circle_section == NULL)
 215:Dsp/widget/wgt_core/UI_Controller.c ****             return false;
 216:Dsp/widget/wgt_core/UI_Controller.c **** 
 217:Dsp/widget/wgt_core/UI_Controller.c ****         /* comput button selector coordinate first */
 218:Dsp/widget/wgt_core/UI_Controller.c ****         Btn_Slct_LftUp_X = HandleToButtonObj(item->Handler)->Gen_Data.x;
 219:Dsp/widget/wgt_core/UI_Controller.c ****         Btn_Slct_LftUp_Y = HandleToButtonObj(item->Handler)->Gen_Data.y + HandleToButtonObj(item->H
 220:Dsp/widget/wgt_core/UI_Controller.c **** 
 221:Dsp/widget/wgt_core/UI_Controller.c ****         Btn_Slct_LftDwn_X = Btn_Slct_LftUp_X;
ARM GAS  /var/folders/lx/hc4sn_b53233_zkc9xbbl97r0000gp/T//ccQGj1L2.s 			page 8


 222:Dsp/widget/wgt_core/UI_Controller.c ****         Btn_Slct_LftDwn_Y = HandleToButtonObj(item->Handler)->Gen_Data.y;
 223:Dsp/widget/wgt_core/UI_Controller.c **** 
 224:Dsp/widget/wgt_core/UI_Controller.c ****         Btn_Slct_RgtUp_X = HandleToButtonObj(item->Handler)->Gen_Data.x + HandleToButtonObj(item->H
 225:Dsp/widget/wgt_core/UI_Controller.c ****         Btn_Slct_RgtUp_Y = Btn_Slct_LftUp_Y;
 226:Dsp/widget/wgt_core/UI_Controller.c **** 
 227:Dsp/widget/wgt_core/UI_Controller.c ****         Btn_Slct_RgtDwn_X = Btn_Slct_RgtUp_X;
 228:Dsp/widget/wgt_core/UI_Controller.c ****         Btn_Slct_RgtDwn_Y = Btn_Slct_LftDwn_Y;
 229:Dsp/widget/wgt_core/UI_Controller.c **** 
 230:Dsp/widget/wgt_core/UI_Controller.c ****         // show button selector
 231:Dsp/widget/wgt_core/UI_Controller.c ****         UI_DspInterface.draw_circle_section(Btn_Slct_LftUp_X, Btn_Slct_LftUp_Y, BUTTON_SELECTOR_RAD
 232:Dsp/widget/wgt_core/UI_Controller.c ****         UI_DspInterface.draw_circle_section(Btn_Slct_LftDwn_X, Btn_Slct_LftDwn_Y, BUTTON_SELECTOR_R
 233:Dsp/widget/wgt_core/UI_Controller.c ****         UI_DspInterface.draw_circle_section(Btn_Slct_RgtUp_X, Btn_Slct_RgtUp_Y, BUTTON_SELECTOR_RAD
 234:Dsp/widget/wgt_core/UI_Controller.c ****         UI_DspInterface.draw_circle_section(Btn_Slct_RgtDwn_X, Btn_Slct_RgtDwn_Y, BUTTON_SELECTOR_R
 235:Dsp/widget/wgt_core/UI_Controller.c ****         break;
 236:Dsp/widget/wgt_core/UI_Controller.c **** 
 237:Dsp/widget/wgt_core/UI_Controller.c ****     case UI_Type_CheckBox:
 238:Dsp/widget/wgt_core/UI_Controller.c ****         block_x = HandleToCheckBoxObj(item->Handler)->Gen_Data.x + 3;
 239:Dsp/widget/wgt_core/UI_Controller.c ****         block_y = HandleToCheckBoxObj(item->Handler)->Gen_Data.y + 1;
 240:Dsp/widget/wgt_core/UI_Controller.c **** 
 241:Dsp/widget/wgt_core/UI_Controller.c ****         UI_DspInterface.fill_rectangle(block_x, block_y, (widget_width - 6), selector_height, true)
 242:Dsp/widget/wgt_core/UI_Controller.c ****         break;
 243:Dsp/widget/wgt_core/UI_Controller.c **** 
 244:Dsp/widget/wgt_core/UI_Controller.c ****     case UI_Type_SlideBar:
 245:Dsp/widget/wgt_core/UI_Controller.c ****         block_y = HandleToSlideBarObj(item->Handler)->Gen_Data.y + 1;
 246:Dsp/widget/wgt_core/UI_Controller.c **** 
 247:Dsp/widget/wgt_core/UI_Controller.c ****         if (!UI_SlideBar_IsSelected(HandleToButtonObj(item->Handler)))
 248:Dsp/widget/wgt_core/UI_Controller.c ****         {
 249:Dsp/widget/wgt_core/UI_Controller.c ****             block_x = HandleToSlideBarObj(item->Handler)->Gen_Data.x + 3;
 250:Dsp/widget/wgt_core/UI_Controller.c **** 
 251:Dsp/widget/wgt_core/UI_Controller.c ****             UI_DspInterface.fill_rectangle(block_x, block_y, (widget_width - 6), selector_height, t
 252:Dsp/widget/wgt_core/UI_Controller.c ****         }
 253:Dsp/widget/wgt_core/UI_Controller.c ****         else
 254:Dsp/widget/wgt_core/UI_Controller.c ****         {
 255:Dsp/widget/wgt_core/UI_Controller.c ****             block_x = HandleToSlideBarObj(item->Handler)->BarCoord_X - 3;
 256:Dsp/widget/wgt_core/UI_Controller.c **** 
 257:Dsp/widget/wgt_core/UI_Controller.c ****             UI_DspInterface.fill_rectangle(block_x, block_y, (widget_width - block_x - 6), selector
 258:Dsp/widget/wgt_core/UI_Controller.c ****         }
 259:Dsp/widget/wgt_core/UI_Controller.c ****         break;
 260:Dsp/widget/wgt_core/UI_Controller.c **** 
 261:Dsp/widget/wgt_core/UI_Controller.c ****     default:
 262:Dsp/widget/wgt_core/UI_Controller.c ****         break;
 263:Dsp/widget/wgt_core/UI_Controller.c ****     }
 264:Dsp/widget/wgt_core/UI_Controller.c ****     return true;
 265:Dsp/widget/wgt_core/UI_Controller.c **** }
 266:Dsp/widget/wgt_core/UI_Controller.c **** 
 267:Dsp/widget/wgt_core/UI_Controller.c **** static void UI_GenData_Init(UI_GeneralData_TypeDef *GenData, char *label, int16_t x, int16_t y)
 268:Dsp/widget/wgt_core/UI_Controller.c **** {
 171              		.loc 1 268 1 is_stmt 1 view -0
 172              		.cfi_startproc
 173              		@ args = 0, pretend = 0, frame = 0
 174              		@ frame_needed = 0, uses_anonymous_args = 0
 175              		@ link register save eliminated.
 269:Dsp/widget/wgt_core/UI_Controller.c ****     GenData->label = label;
 176              		.loc 1 269 5 view .LVU39
 177              		.loc 1 269 20 is_stmt 0 view .LVU40
 178 0000 0160     		str	r1, [r0]
 270:Dsp/widget/wgt_core/UI_Controller.c **** 
ARM GAS  /var/folders/lx/hc4sn_b53233_zkc9xbbl97r0000gp/T//ccQGj1L2.s 			page 9


 271:Dsp/widget/wgt_core/UI_Controller.c ****     GenData->x = x;
 179              		.loc 1 271 5 is_stmt 1 view .LVU41
 180              		.loc 1 271 16 is_stmt 0 view .LVU42
 181 0002 8280     		strh	r2, [r0, #4]	@ movhi
 272:Dsp/widget/wgt_core/UI_Controller.c ****     GenData->y = y;
 182              		.loc 1 272 5 is_stmt 1 view .LVU43
 183              		.loc 1 272 16 is_stmt 0 view .LVU44
 184 0004 C380     		strh	r3, [r0, #6]	@ movhi
 273:Dsp/widget/wgt_core/UI_Controller.c **** 
 274:Dsp/widget/wgt_core/UI_Controller.c ****     GenData->operatable = false;
 185              		.loc 1 274 5 is_stmt 1 view .LVU45
 186              		.loc 1 274 25 is_stmt 0 view .LVU46
 187 0006 0023     		movs	r3, #0
 188              	.LVL15:
 189              		.loc 1 274 25 view .LVU47
 190 0008 0372     		strb	r3, [r0, #8]
 275:Dsp/widget/wgt_core/UI_Controller.c **** }
 191              		.loc 1 275 1 view .LVU48
 192 000a 7047     		bx	lr
 193              		.cfi_endproc
 194              	.LFE8:
 196              		.section	.text.UI_Move,"ax",%progbits
 197              		.align	1
 198              		.syntax unified
 199              		.thumb
 200              		.thumb_func
 201              		.fpu fpv4-sp-d16
 203              	UI_Move:
 204              	.LVL16:
 205              	.LFB9:
 276:Dsp/widget/wgt_core/UI_Controller.c **** 
 277:Dsp/widget/wgt_core/UI_Controller.c **** static bool UI_Move(UI_GeneralData_TypeDef *GenUI_Info, int16_t dst_x, int16_t dst_y)
 278:Dsp/widget/wgt_core/UI_Controller.c **** {
 206              		.loc 1 278 1 is_stmt 1 view -0
 207              		.cfi_startproc
 208              		@ args = 0, pretend = 0, frame = 0
 209              		@ frame_needed = 0, uses_anonymous_args = 0
 210              		@ link register save eliminated.
 279:Dsp/widget/wgt_core/UI_Controller.c ****     if (GenUI_Info == NULL)
 211              		.loc 1 279 5 view .LVU50
 212              		.loc 1 279 8 is_stmt 0 view .LVU51
 213 0000 18B1     		cbz	r0, .L19
 280:Dsp/widget/wgt_core/UI_Controller.c ****         return false;
 281:Dsp/widget/wgt_core/UI_Controller.c **** 
 282:Dsp/widget/wgt_core/UI_Controller.c ****     GenUI_Info->x = dst_x;
 214              		.loc 1 282 5 is_stmt 1 view .LVU52
 215              		.loc 1 282 19 is_stmt 0 view .LVU53
 216 0002 8180     		strh	r1, [r0, #4]	@ movhi
 283:Dsp/widget/wgt_core/UI_Controller.c ****     GenUI_Info->y = dst_y;
 217              		.loc 1 283 5 is_stmt 1 view .LVU54
 218              		.loc 1 283 19 is_stmt 0 view .LVU55
 219 0004 C280     		strh	r2, [r0, #6]	@ movhi
 284:Dsp/widget/wgt_core/UI_Controller.c **** 
 285:Dsp/widget/wgt_core/UI_Controller.c ****     return true;
 220              		.loc 1 285 5 is_stmt 1 view .LVU56
 221              		.loc 1 285 12 is_stmt 0 view .LVU57
 222 0006 0120     		movs	r0, #1
ARM GAS  /var/folders/lx/hc4sn_b53233_zkc9xbbl97r0000gp/T//ccQGj1L2.s 			page 10


 223              	.LVL17:
 224              		.loc 1 285 12 view .LVU58
 225 0008 7047     		bx	lr
 226              	.LVL18:
 227              	.L19:
 280:Dsp/widget/wgt_core/UI_Controller.c **** 
 228              		.loc 1 280 16 view .LVU59
 229 000a 0020     		movs	r0, #0
 230              	.LVL19:
 286:Dsp/widget/wgt_core/UI_Controller.c **** }
 231              		.loc 1 286 1 view .LVU60
 232 000c 7047     		bx	lr
 233              		.cfi_endproc
 234              	.LFE9:
 236              		.section	.rodata.UI_Button_Init.str1.4,"aMS",%progbits,1
 237              		.align	2
 238              	.LC0:
 239 0000 79657300 		.ascii	"yes\000"
 240              		.align	2
 241              	.LC1:
 242 0004 6E6F00   		.ascii	"no\000"
 243              		.section	.text.UI_Button_Init,"ax",%progbits
 244              		.align	1
 245              		.syntax unified
 246              		.thumb
 247              		.thumb_func
 248              		.fpu fpv4-sp-d16
 250              	UI_Button_Init:
 251              	.LVL20:
 252              	.LFB10:
 287:Dsp/widget/wgt_core/UI_Controller.c **** 
 288:Dsp/widget/wgt_core/UI_Controller.c **** /********************************************** UI Button Object **********************************
 289:Dsp/widget/wgt_core/UI_Controller.c **** static bool UI_Button_Init(UI_ButtonObj_TypeDef *Obj, char *label, int16_t x, int16_t y, uint8_t wi
 290:Dsp/widget/wgt_core/UI_Controller.c **** {
 253              		.loc 1 290 1 is_stmt 1 view -0
 254              		.cfi_startproc
 255              		@ args = 16, pretend = 0, frame = 0
 256              		@ frame_needed = 0, uses_anonymous_args = 0
 257              		.loc 1 290 1 is_stmt 0 view .LVU62
 258 0000 10B5     		push	{r4, lr}
 259              	.LCFI1:
 260              		.cfi_def_cfa_offset 8
 261              		.cfi_offset 4, -8
 262              		.cfi_offset 14, -4
 263 0002 9DF814C0 		ldrb	ip, [sp, #20]	@ zero_extendqisi2
 291:Dsp/widget/wgt_core/UI_Controller.c ****     if (Obj == NULL)
 264              		.loc 1 291 5 is_stmt 1 view .LVU63
 265              		.loc 1 291 8 is_stmt 0 view .LVU64
 266 0006 C8B1     		cbz	r0, .L22
 267 0008 0446     		mov	r4, r0
 292:Dsp/widget/wgt_core/UI_Controller.c ****         return false;
 293:Dsp/widget/wgt_core/UI_Controller.c **** 
 294:Dsp/widget/wgt_core/UI_Controller.c ****     Obj->default_state = state;
 268              		.loc 1 294 5 is_stmt 1 view .LVU65
 269              		.loc 1 294 24 is_stmt 0 view .LVU66
 270 000a 80F80CC0 		strb	ip, [r0, #12]
 295:Dsp/widget/wgt_core/UI_Controller.c ****     Obj->state = state;
ARM GAS  /var/folders/lx/hc4sn_b53233_zkc9xbbl97r0000gp/T//ccQGj1L2.s 			page 11


 271              		.loc 1 295 5 is_stmt 1 view .LVU67
 272              		.loc 1 295 16 is_stmt 0 view .LVU68
 273 000e 80F80DC0 		strb	ip, [r0, #13]
 296:Dsp/widget/wgt_core/UI_Controller.c ****     Obj->type = type;
 274              		.loc 1 296 5 is_stmt 1 view .LVU69
 275              		.loc 1 296 15 is_stmt 0 view .LVU70
 276 0012 9DF81000 		ldrb	r0, [sp, #16]	@ zero_extendqisi2
 277              	.LVL21:
 278              		.loc 1 296 15 view .LVU71
 279 0016 A073     		strb	r0, [r4, #14]
 297:Dsp/widget/wgt_core/UI_Controller.c **** 
 298:Dsp/widget/wgt_core/UI_Controller.c ****     UI_GenData_Init(&Obj->Gen_Data, label, x, y);
 280              		.loc 1 298 5 is_stmt 1 view .LVU72
 281 0018 2046     		mov	r0, r4
 282 001a FFF7FEFF 		bl	UI_GenData_Init
 283              	.LVL22:
 299:Dsp/widget/wgt_core/UI_Controller.c **** 
 300:Dsp/widget/wgt_core/UI_Controller.c ****     Obj->width = width;
 284              		.loc 1 300 5 view .LVU73
 285              		.loc 1 300 16 is_stmt 0 view .LVU74
 286 001e 9DF80830 		ldrb	r3, [sp, #8]	@ zero_extendqisi2
 287 0022 E377     		strb	r3, [r4, #31]
 301:Dsp/widget/wgt_core/UI_Controller.c ****     Obj->height = height;
 288              		.loc 1 301 5 is_stmt 1 view .LVU75
 289              		.loc 1 301 17 is_stmt 0 view .LVU76
 290 0024 9DF80C30 		ldrb	r3, [sp, #12]	@ zero_extendqisi2
 291 0028 84F82030 		strb	r3, [r4, #32]
 302:Dsp/widget/wgt_core/UI_Controller.c **** 
 303:Dsp/widget/wgt_core/UI_Controller.c ****     Obj->PushDown_Label = DEFAULT_BUTTON_PUSH_LABEL;
 292              		.loc 1 303 5 is_stmt 1 view .LVU77
 293              		.loc 1 303 25 is_stmt 0 view .LVU78
 294 002c 044B     		ldr	r3, .L24
 295 002e C4F81730 		str	r3, [r4, #23]	@ unaligned
 304:Dsp/widget/wgt_core/UI_Controller.c ****     Obj->Release_Label = DEFAULT_BUTTON_RELEASE_LABEL;
 296              		.loc 1 304 5 is_stmt 1 view .LVU79
 297              		.loc 1 304 24 is_stmt 0 view .LVU80
 298 0032 044B     		ldr	r3, .L24+4
 299 0034 C4F81B30 		str	r3, [r4, #27]	@ unaligned
 305:Dsp/widget/wgt_core/UI_Controller.c **** 
 306:Dsp/widget/wgt_core/UI_Controller.c ****     return true;
 300              		.loc 1 306 5 is_stmt 1 view .LVU81
 301              		.loc 1 306 12 is_stmt 0 view .LVU82
 302 0038 0120     		movs	r0, #1
 303              	.LVL23:
 304              	.L21:
 307:Dsp/widget/wgt_core/UI_Controller.c **** }
 305              		.loc 1 307 1 view .LVU83
 306 003a 10BD     		pop	{r4, pc}
 307              	.LVL24:
 308              	.L22:
 292:Dsp/widget/wgt_core/UI_Controller.c **** 
 309              		.loc 1 292 16 view .LVU84
 310 003c 0020     		movs	r0, #0
 311              	.LVL25:
 292:Dsp/widget/wgt_core/UI_Controller.c **** 
 312              		.loc 1 292 16 view .LVU85
 313 003e FCE7     		b	.L21
ARM GAS  /var/folders/lx/hc4sn_b53233_zkc9xbbl97r0000gp/T//ccQGj1L2.s 			page 12


 314              	.L25:
 315              		.align	2
 316              	.L24:
 317 0040 00000000 		.word	.LC0
 318 0044 04000000 		.word	.LC1
 319              		.cfi_endproc
 320              	.LFE10:
 322              		.section	.text.UI_Button_Set_Label,"ax",%progbits
 323              		.align	1
 324              		.syntax unified
 325              		.thumb
 326              		.thumb_func
 327              		.fpu fpv4-sp-d16
 329              	UI_Button_Set_Label:
 330              	.LVL26:
 331              	.LFB11:
 308:Dsp/widget/wgt_core/UI_Controller.c **** 
 309:Dsp/widget/wgt_core/UI_Controller.c **** static bool UI_Button_Set_Label(UI_ButtonObj_TypeDef *Obj, UI_Button_State_List state, char *label)
 310:Dsp/widget/wgt_core/UI_Controller.c **** {
 332              		.loc 1 310 1 is_stmt 1 view -0
 333              		.cfi_startproc
 334              		@ args = 0, pretend = 0, frame = 0
 335              		@ frame_needed = 0, uses_anonymous_args = 0
 336              		@ link register save eliminated.
 311:Dsp/widget/wgt_core/UI_Controller.c ****     if (Obj == NULL)
 337              		.loc 1 311 5 view .LVU87
 338              		.loc 1 311 8 is_stmt 0 view .LVU88
 339 0000 48B1     		cbz	r0, .L29
 312:Dsp/widget/wgt_core/UI_Controller.c ****         return false;
 313:Dsp/widget/wgt_core/UI_Controller.c **** 
 314:Dsp/widget/wgt_core/UI_Controller.c ****     if (state == UI_Btn_PushDwn)
 340              		.loc 1 314 5 is_stmt 1 view .LVU89
 341              		.loc 1 314 8 is_stmt 0 view .LVU90
 342 0002 0129     		cmp	r1, #1
 343 0004 03D0     		beq	.L30
 315:Dsp/widget/wgt_core/UI_Controller.c ****         Obj->PushDown_Label = label;
 316:Dsp/widget/wgt_core/UI_Controller.c ****     else
 317:Dsp/widget/wgt_core/UI_Controller.c ****         Obj->Release_Label = label;
 344              		.loc 1 317 9 is_stmt 1 view .LVU91
 345              		.loc 1 317 28 is_stmt 0 view .LVU92
 346 0006 C0F81B20 		str	r2, [r0, #27]	@ unaligned
 318:Dsp/widget/wgt_core/UI_Controller.c **** 
 319:Dsp/widget/wgt_core/UI_Controller.c ****     return true;
 347              		.loc 1 319 12 view .LVU93
 348 000a 0120     		movs	r0, #1
 349              	.LVL27:
 350              		.loc 1 319 12 view .LVU94
 351 000c 7047     		bx	lr
 352              	.LVL28:
 353              	.L30:
 315:Dsp/widget/wgt_core/UI_Controller.c ****         Obj->PushDown_Label = label;
 354              		.loc 1 315 9 is_stmt 1 view .LVU95
 315:Dsp/widget/wgt_core/UI_Controller.c ****         Obj->PushDown_Label = label;
 355              		.loc 1 315 29 is_stmt 0 view .LVU96
 356 000e C0F81720 		str	r2, [r0, #23]	@ unaligned
 357              		.loc 1 319 12 view .LVU97
 358 0012 0120     		movs	r0, #1
ARM GAS  /var/folders/lx/hc4sn_b53233_zkc9xbbl97r0000gp/T//ccQGj1L2.s 			page 13


 359              	.LVL29:
 360              		.loc 1 319 12 view .LVU98
 361 0014 7047     		bx	lr
 362              	.LVL30:
 363              	.L29:
 312:Dsp/widget/wgt_core/UI_Controller.c **** 
 364              		.loc 1 312 16 view .LVU99
 365 0016 0020     		movs	r0, #0
 366              	.LVL31:
 320:Dsp/widget/wgt_core/UI_Controller.c **** }
 367              		.loc 1 320 1 view .LVU100
 368 0018 7047     		bx	lr
 369              		.cfi_endproc
 370              	.LFE11:
 372              		.section	.text.UI_Button_Set_TriggerCallback,"ax",%progbits
 373              		.align	1
 374              		.syntax unified
 375              		.thumb
 376              		.thumb_func
 377              		.fpu fpv4-sp-d16
 379              	UI_Button_Set_TriggerCallback:
 380              	.LVL32:
 381              	.LFB12:
 321:Dsp/widget/wgt_core/UI_Controller.c **** 
 322:Dsp/widget/wgt_core/UI_Controller.c **** static bool UI_Button_Set_TriggerCallback(UI_ButtonObj_TypeDef *Obj, UI_Button_Trigger_Type type, U
 323:Dsp/widget/wgt_core/UI_Controller.c **** {
 382              		.loc 1 323 1 is_stmt 1 view -0
 383              		.cfi_startproc
 384              		@ args = 0, pretend = 0, frame = 0
 385              		@ frame_needed = 0, uses_anonymous_args = 0
 386              		@ link register save eliminated.
 324:Dsp/widget/wgt_core/UI_Controller.c ****     if (Obj == NULL)
 387              		.loc 1 324 5 view .LVU102
 388              		.loc 1 324 8 is_stmt 0 view .LVU103
 389 0000 50B1     		cbz	r0, .L34
 325:Dsp/widget/wgt_core/UI_Controller.c ****         return false;
 326:Dsp/widget/wgt_core/UI_Controller.c **** 
 327:Dsp/widget/wgt_core/UI_Controller.c ****     if (type == Push_Trigger)
 390              		.loc 1 327 5 is_stmt 1 view .LVU104
 391              		.loc 1 327 8 is_stmt 0 view .LVU105
 392 0002 0129     		cmp	r1, #1
 393 0004 04D0     		beq	.L36
 328:Dsp/widget/wgt_core/UI_Controller.c ****     {
 329:Dsp/widget/wgt_core/UI_Controller.c ****         Obj->push_callback = callback;
 330:Dsp/widget/wgt_core/UI_Controller.c ****     }
 331:Dsp/widget/wgt_core/UI_Controller.c ****     else if (type == Release_Trigger)
 394              		.loc 1 331 10 is_stmt 1 view .LVU106
 395              		.loc 1 331 13 is_stmt 0 view .LVU107
 396 0006 49B9     		cbnz	r1, .L35
 332:Dsp/widget/wgt_core/UI_Controller.c ****     {
 333:Dsp/widget/wgt_core/UI_Controller.c ****         Obj->release_callback = callback;
 397              		.loc 1 333 9 is_stmt 1 view .LVU108
 398              		.loc 1 333 31 is_stmt 0 view .LVU109
 399 0008 C0F81320 		str	r2, [r0, #19]	@ unaligned
 334:Dsp/widget/wgt_core/UI_Controller.c ****     }
 335:Dsp/widget/wgt_core/UI_Controller.c ****     else
 336:Dsp/widget/wgt_core/UI_Controller.c ****         return false;
ARM GAS  /var/folders/lx/hc4sn_b53233_zkc9xbbl97r0000gp/T//ccQGj1L2.s 			page 14


 337:Dsp/widget/wgt_core/UI_Controller.c **** 
 338:Dsp/widget/wgt_core/UI_Controller.c ****     return true;
 400              		.loc 1 338 12 view .LVU110
 401 000c 0120     		movs	r0, #1
 402              	.LVL33:
 403              		.loc 1 338 12 view .LVU111
 404 000e 7047     		bx	lr
 405              	.LVL34:
 406              	.L36:
 329:Dsp/widget/wgt_core/UI_Controller.c ****     }
 407              		.loc 1 329 9 is_stmt 1 view .LVU112
 329:Dsp/widget/wgt_core/UI_Controller.c ****     }
 408              		.loc 1 329 28 is_stmt 0 view .LVU113
 409 0010 C0F80F20 		str	r2, [r0, #15]	@ unaligned
 410              		.loc 1 338 12 view .LVU114
 411 0014 0120     		movs	r0, #1
 412              	.LVL35:
 413              		.loc 1 338 12 view .LVU115
 414 0016 7047     		bx	lr
 415              	.LVL36:
 416              	.L34:
 325:Dsp/widget/wgt_core/UI_Controller.c **** 
 417              		.loc 1 325 16 view .LVU116
 418 0018 0020     		movs	r0, #0
 419              	.LVL37:
 325:Dsp/widget/wgt_core/UI_Controller.c **** 
 420              		.loc 1 325 16 view .LVU117
 421 001a 7047     		bx	lr
 422              	.LVL38:
 423              	.L35:
 336:Dsp/widget/wgt_core/UI_Controller.c **** 
 424              		.loc 1 336 16 view .LVU118
 425 001c 0020     		movs	r0, #0
 426              	.LVL39:
 339:Dsp/widget/wgt_core/UI_Controller.c **** }
 427              		.loc 1 339 1 view .LVU119
 428 001e 7047     		bx	lr
 429              		.cfi_endproc
 430              	.LFE12:
 432              		.section	.text.UI_Button_Push,"ax",%progbits
 433              		.align	1
 434              		.syntax unified
 435              		.thumb
 436              		.thumb_func
 437              		.fpu fpv4-sp-d16
 439              	UI_Button_Push:
 440              	.LVL40:
 441              	.LFB13:
 340:Dsp/widget/wgt_core/UI_Controller.c **** 
 341:Dsp/widget/wgt_core/UI_Controller.c **** static bool UI_Button_Push(UI_ButtonObj_TypeDef *Obj)
 342:Dsp/widget/wgt_core/UI_Controller.c **** {
 442              		.loc 1 342 1 is_stmt 1 view -0
 443              		.cfi_startproc
 444              		@ args = 0, pretend = 0, frame = 0
 445              		@ frame_needed = 0, uses_anonymous_args = 0
 343:Dsp/widget/wgt_core/UI_Controller.c ****     if (Obj == NULL)
 446              		.loc 1 343 5 view .LVU121
ARM GAS  /var/folders/lx/hc4sn_b53233_zkc9xbbl97r0000gp/T//ccQGj1L2.s 			page 15


 447              		.loc 1 343 8 is_stmt 0 view .LVU122
 448 0000 F0B1     		cbz	r0, .L41
 342:Dsp/widget/wgt_core/UI_Controller.c ****     if (Obj == NULL)
 449              		.loc 1 342 1 view .LVU123
 450 0002 08B5     		push	{r3, lr}
 451              	.LCFI2:
 452              		.cfi_def_cfa_offset 8
 453              		.cfi_offset 3, -8
 454              		.cfi_offset 14, -4
 455 0004 0346     		mov	r3, r0
 344:Dsp/widget/wgt_core/UI_Controller.c ****         return false;
 345:Dsp/widget/wgt_core/UI_Controller.c **** 
 346:Dsp/widget/wgt_core/UI_Controller.c ****     if (Obj->type == Lock_Btn)
 456              		.loc 1 346 5 is_stmt 1 view .LVU124
 457              		.loc 1 346 12 is_stmt 0 view .LVU125
 458 0006 827B     		ldrb	r2, [r0, #14]	@ zero_extendqisi2
 459              		.loc 1 346 8 view .LVU126
 460 0008 012A     		cmp	r2, #1
 461 000a 06D0     		beq	.L49
 347:Dsp/widget/wgt_core/UI_Controller.c ****     {
 348:Dsp/widget/wgt_core/UI_Controller.c ****         if (Obj->state == UI_Btn_RlsUp)
 349:Dsp/widget/wgt_core/UI_Controller.c ****             Obj->state = UI_Btn_PushDwn;
 350:Dsp/widget/wgt_core/UI_Controller.c ****         else
 351:Dsp/widget/wgt_core/UI_Controller.c ****             Obj->state = UI_Btn_RlsUp;
 352:Dsp/widget/wgt_core/UI_Controller.c ****     }
 353:Dsp/widget/wgt_core/UI_Controller.c ****     else if (Obj->type == Reset_Btn)
 462              		.loc 1 353 10 is_stmt 1 view .LVU127
 463              		.loc 1 353 13 is_stmt 0 view .LVU128
 464 000c D2B9     		cbnz	r2, .L42
 354:Dsp/widget/wgt_core/UI_Controller.c ****     {
 355:Dsp/widget/wgt_core/UI_Controller.c ****         if (Obj->default_state == Obj->state)
 465              		.loc 1 355 9 is_stmt 1 view .LVU129
 466              		.loc 1 355 16 is_stmt 0 view .LVU130
 467 000e 027B     		ldrb	r2, [r0, #12]	@ zero_extendqisi2
 468              		.loc 1 355 38 view .LVU131
 469 0010 417B     		ldrb	r1, [r0, #13]	@ zero_extendqisi2
 470              		.loc 1 355 12 view .LVU132
 471 0012 8A42     		cmp	r2, r1
 472 0014 0AD0     		beq	.L50
 356:Dsp/widget/wgt_core/UI_Controller.c ****         {
 357:Dsp/widget/wgt_core/UI_Controller.c ****             Obj->state = !Obj->default_state;
 358:Dsp/widget/wgt_core/UI_Controller.c **** 
 359:Dsp/widget/wgt_core/UI_Controller.c ****             if (Obj->push_callback != NULL)
 360:Dsp/widget/wgt_core/UI_Controller.c ****                 Obj->push_callback();
 361:Dsp/widget/wgt_core/UI_Controller.c ****         }
 362:Dsp/widget/wgt_core/UI_Controller.c ****     }
 363:Dsp/widget/wgt_core/UI_Controller.c ****     else
 364:Dsp/widget/wgt_core/UI_Controller.c ****         return false;
 365:Dsp/widget/wgt_core/UI_Controller.c **** 
 366:Dsp/widget/wgt_core/UI_Controller.c ****     return true;
 473              		.loc 1 366 12 view .LVU133
 474 0016 0120     		movs	r0, #1
 475              	.LVL41:
 476              	.L38:
 367:Dsp/widget/wgt_core/UI_Controller.c **** }
 477              		.loc 1 367 1 view .LVU134
 478 0018 08BD     		pop	{r3, pc}
ARM GAS  /var/folders/lx/hc4sn_b53233_zkc9xbbl97r0000gp/T//ccQGj1L2.s 			page 16


 479              	.LVL42:
 480              	.L49:
 348:Dsp/widget/wgt_core/UI_Controller.c ****             Obj->state = UI_Btn_PushDwn;
 481              		.loc 1 348 9 is_stmt 1 view .LVU135
 348:Dsp/widget/wgt_core/UI_Controller.c ****             Obj->state = UI_Btn_PushDwn;
 482              		.loc 1 348 16 is_stmt 0 view .LVU136
 483 001a 427B     		ldrb	r2, [r0, #13]	@ zero_extendqisi2
 348:Dsp/widget/wgt_core/UI_Controller.c ****             Obj->state = UI_Btn_PushDwn;
 484              		.loc 1 348 12 view .LVU137
 485 001c 12B9     		cbnz	r2, .L40
 349:Dsp/widget/wgt_core/UI_Controller.c ****         else
 486              		.loc 1 349 13 is_stmt 1 view .LVU138
 349:Dsp/widget/wgt_core/UI_Controller.c ****         else
 487              		.loc 1 349 24 is_stmt 0 view .LVU139
 488 001e 0120     		movs	r0, #1
 489              	.LVL43:
 349:Dsp/widget/wgt_core/UI_Controller.c ****         else
 490              		.loc 1 349 24 view .LVU140
 491 0020 5873     		strb	r0, [r3, #13]
 492 0022 F9E7     		b	.L38
 493              	.LVL44:
 494              	.L40:
 351:Dsp/widget/wgt_core/UI_Controller.c ****     }
 495              		.loc 1 351 13 is_stmt 1 view .LVU141
 351:Dsp/widget/wgt_core/UI_Controller.c ****     }
 496              		.loc 1 351 24 is_stmt 0 view .LVU142
 497 0024 0022     		movs	r2, #0
 498 0026 4273     		strb	r2, [r0, #13]
 366:Dsp/widget/wgt_core/UI_Controller.c **** }
 499              		.loc 1 366 12 view .LVU143
 500 0028 0120     		movs	r0, #1
 501              	.LVL45:
 366:Dsp/widget/wgt_core/UI_Controller.c **** }
 502              		.loc 1 366 12 view .LVU144
 503 002a F5E7     		b	.L38
 504              	.LVL46:
 505              	.L50:
 357:Dsp/widget/wgt_core/UI_Controller.c **** 
 506              		.loc 1 357 13 is_stmt 1 view .LVU145
 357:Dsp/widget/wgt_core/UI_Controller.c **** 
 507              		.loc 1 357 26 is_stmt 0 view .LVU146
 508 002c B2FA82F2 		clz	r2, r2
 509 0030 5209     		lsrs	r2, r2, #5
 357:Dsp/widget/wgt_core/UI_Controller.c **** 
 510              		.loc 1 357 24 view .LVU147
 511 0032 4273     		strb	r2, [r0, #13]
 359:Dsp/widget/wgt_core/UI_Controller.c ****                 Obj->push_callback();
 512              		.loc 1 359 13 is_stmt 1 view .LVU148
 359:Dsp/widget/wgt_core/UI_Controller.c ****                 Obj->push_callback();
 513              		.loc 1 359 20 is_stmt 0 view .LVU149
 514 0034 D0F80F30 		ldr	r3, [r0, #15]	@ unaligned
 359:Dsp/widget/wgt_core/UI_Controller.c ****                 Obj->push_callback();
 515              		.loc 1 359 16 view .LVU150
 516 0038 33B1     		cbz	r3, .L44
 360:Dsp/widget/wgt_core/UI_Controller.c ****         }
 517              		.loc 1 360 17 is_stmt 1 view .LVU151
 518 003a 9847     		blx	r3
ARM GAS  /var/folders/lx/hc4sn_b53233_zkc9xbbl97r0000gp/T//ccQGj1L2.s 			page 17


 519              	.LVL47:
 366:Dsp/widget/wgt_core/UI_Controller.c **** }
 520              		.loc 1 366 12 is_stmt 0 view .LVU152
 521 003c 0120     		movs	r0, #1
 522 003e EBE7     		b	.L38
 523              	.LVL48:
 524              	.L41:
 525              	.LCFI3:
 526              		.cfi_def_cfa_offset 0
 527              		.cfi_restore 3
 528              		.cfi_restore 14
 344:Dsp/widget/wgt_core/UI_Controller.c **** 
 529              		.loc 1 344 16 view .LVU153
 530 0040 0020     		movs	r0, #0
 531              	.LVL49:
 532              		.loc 1 367 1 view .LVU154
 533 0042 7047     		bx	lr
 534              	.LVL50:
 535              	.L42:
 536              	.LCFI4:
 537              		.cfi_def_cfa_offset 8
 538              		.cfi_offset 3, -8
 539              		.cfi_offset 14, -4
 364:Dsp/widget/wgt_core/UI_Controller.c **** 
 540              		.loc 1 364 16 view .LVU155
 541 0044 0020     		movs	r0, #0
 542              	.LVL51:
 364:Dsp/widget/wgt_core/UI_Controller.c **** 
 543              		.loc 1 364 16 view .LVU156
 544 0046 E7E7     		b	.L38
 545              	.LVL52:
 546              	.L44:
 366:Dsp/widget/wgt_core/UI_Controller.c **** }
 547              		.loc 1 366 12 view .LVU157
 548 0048 0120     		movs	r0, #1
 549              	.LVL53:
 366:Dsp/widget/wgt_core/UI_Controller.c **** }
 550              		.loc 1 366 12 view .LVU158
 551 004a E5E7     		b	.L38
 552              		.cfi_endproc
 553              	.LFE13:
 555              		.section	.text.UI_Button_Release,"ax",%progbits
 556              		.align	1
 557              		.syntax unified
 558              		.thumb
 559              		.thumb_func
 560              		.fpu fpv4-sp-d16
 562              	UI_Button_Release:
 563              	.LVL54:
 564              	.LFB14:
 368:Dsp/widget/wgt_core/UI_Controller.c **** 
 369:Dsp/widget/wgt_core/UI_Controller.c **** static bool UI_Button_Release(UI_ButtonObj_TypeDef *Obj)
 370:Dsp/widget/wgt_core/UI_Controller.c **** {
 565              		.loc 1 370 1 is_stmt 1 view -0
 566              		.cfi_startproc
 567              		@ args = 0, pretend = 0, frame = 0
 568              		@ frame_needed = 0, uses_anonymous_args = 0
ARM GAS  /var/folders/lx/hc4sn_b53233_zkc9xbbl97r0000gp/T//ccQGj1L2.s 			page 18


 371:Dsp/widget/wgt_core/UI_Controller.c ****     if (Obj == NULL)
 569              		.loc 1 371 5 view .LVU160
 570              		.loc 1 371 8 is_stmt 0 view .LVU161
 571 0000 70B1     		cbz	r0, .L53
 370:Dsp/widget/wgt_core/UI_Controller.c ****     if (Obj == NULL)
 572              		.loc 1 370 1 view .LVU162
 573 0002 08B5     		push	{r3, lr}
 574              	.LCFI5:
 575              		.cfi_def_cfa_offset 8
 576              		.cfi_offset 3, -8
 577              		.cfi_offset 14, -4
 372:Dsp/widget/wgt_core/UI_Controller.c ****         return false;
 373:Dsp/widget/wgt_core/UI_Controller.c **** 
 374:Dsp/widget/wgt_core/UI_Controller.c ****     if (Obj->type == Lock_Btn)
 578              		.loc 1 374 5 is_stmt 1 view .LVU163
 579              		.loc 1 374 12 is_stmt 0 view .LVU164
 580 0004 827B     		ldrb	r2, [r0, #14]	@ zero_extendqisi2
 581              		.loc 1 374 8 view .LVU165
 582 0006 012A     		cmp	r2, #1
 583 0008 0CD0     		beq	.L54
 375:Dsp/widget/wgt_core/UI_Controller.c ****         return true;
 376:Dsp/widget/wgt_core/UI_Controller.c **** 
 377:Dsp/widget/wgt_core/UI_Controller.c ****     if (Obj->default_state != Obj->state)
 584              		.loc 1 377 5 is_stmt 1 view .LVU166
 585              		.loc 1 377 12 is_stmt 0 view .LVU167
 586 000a 027B     		ldrb	r2, [r0, #12]	@ zero_extendqisi2
 587              		.loc 1 377 34 view .LVU168
 588 000c 417B     		ldrb	r1, [r0, #13]	@ zero_extendqisi2
 589              		.loc 1 377 8 view .LVU169
 590 000e 8A42     		cmp	r2, r1
 591 0010 0AD0     		beq	.L55
 378:Dsp/widget/wgt_core/UI_Controller.c ****     {
 379:Dsp/widget/wgt_core/UI_Controller.c ****         Obj->state = Obj->default_state;
 592              		.loc 1 379 9 is_stmt 1 view .LVU170
 593              		.loc 1 379 20 is_stmt 0 view .LVU171
 594 0012 4273     		strb	r2, [r0, #13]
 380:Dsp/widget/wgt_core/UI_Controller.c **** 
 381:Dsp/widget/wgt_core/UI_Controller.c ****         if (Obj->release_callback != NULL)
 595              		.loc 1 381 9 is_stmt 1 view .LVU172
 596              		.loc 1 381 16 is_stmt 0 view .LVU173
 597 0014 D0F81330 		ldr	r3, [r0, #19]	@ unaligned
 598              		.loc 1 381 12 view .LVU174
 599 0018 43B1     		cbz	r3, .L56
 382:Dsp/widget/wgt_core/UI_Controller.c ****             Obj->release_callback();
 600              		.loc 1 382 13 is_stmt 1 view .LVU175
 601 001a 9847     		blx	r3
 602              	.LVL55:
 383:Dsp/widget/wgt_core/UI_Controller.c ****     }
 384:Dsp/widget/wgt_core/UI_Controller.c **** 
 385:Dsp/widget/wgt_core/UI_Controller.c ****     return true;
 603              		.loc 1 385 12 is_stmt 0 view .LVU176
 604 001c 0120     		movs	r0, #1
 605              	.L52:
 386:Dsp/widget/wgt_core/UI_Controller.c **** }
 606              		.loc 1 386 1 view .LVU177
 607 001e 08BD     		pop	{r3, pc}
 608              	.LVL56:
ARM GAS  /var/folders/lx/hc4sn_b53233_zkc9xbbl97r0000gp/T//ccQGj1L2.s 			page 19


 609              	.L53:
 610              	.LCFI6:
 611              		.cfi_def_cfa_offset 0
 612              		.cfi_restore 3
 613              		.cfi_restore 14
 372:Dsp/widget/wgt_core/UI_Controller.c **** 
 614              		.loc 1 372 16 view .LVU178
 615 0020 0020     		movs	r0, #0
 616              	.LVL57:
 617              		.loc 1 386 1 view .LVU179
 618 0022 7047     		bx	lr
 619              	.LVL58:
 620              	.L54:
 621              	.LCFI7:
 622              		.cfi_def_cfa_offset 8
 623              		.cfi_offset 3, -8
 624              		.cfi_offset 14, -4
 375:Dsp/widget/wgt_core/UI_Controller.c **** 
 625              		.loc 1 375 16 view .LVU180
 626 0024 0120     		movs	r0, #1
 627              	.LVL59:
 375:Dsp/widget/wgt_core/UI_Controller.c **** 
 628              		.loc 1 375 16 view .LVU181
 629 0026 FAE7     		b	.L52
 630              	.LVL60:
 631              	.L55:
 385:Dsp/widget/wgt_core/UI_Controller.c **** }
 632              		.loc 1 385 12 view .LVU182
 633 0028 0120     		movs	r0, #1
 634              	.LVL61:
 385:Dsp/widget/wgt_core/UI_Controller.c **** }
 635              		.loc 1 385 12 view .LVU183
 636 002a F8E7     		b	.L52
 637              	.LVL62:
 638              	.L56:
 385:Dsp/widget/wgt_core/UI_Controller.c **** }
 639              		.loc 1 385 12 view .LVU184
 640 002c 0120     		movs	r0, #1
 641              	.LVL63:
 385:Dsp/widget/wgt_core/UI_Controller.c **** }
 642              		.loc 1 385 12 view .LVU185
 643 002e F6E7     		b	.L52
 644              		.cfi_endproc
 645              	.LFE14:
 647              		.section	.text.UI_Button_Move,"ax",%progbits
 648              		.align	1
 649              		.syntax unified
 650              		.thumb
 651              		.thumb_func
 652              		.fpu fpv4-sp-d16
 654              	UI_Button_Move:
 655              	.LVL64:
 656              	.LFB15:
 387:Dsp/widget/wgt_core/UI_Controller.c **** 
 388:Dsp/widget/wgt_core/UI_Controller.c **** static bool UI_Button_Move(UI_ButtonObj_TypeDef *Obj, uint16_t x, uint16_t y)
 389:Dsp/widget/wgt_core/UI_Controller.c **** {
 657              		.loc 1 389 1 is_stmt 1 view -0
ARM GAS  /var/folders/lx/hc4sn_b53233_zkc9xbbl97r0000gp/T//ccQGj1L2.s 			page 20


 658              		.cfi_startproc
 659              		@ args = 0, pretend = 0, frame = 0
 660              		@ frame_needed = 0, uses_anonymous_args = 0
 390:Dsp/widget/wgt_core/UI_Controller.c ****     if (Obj == NULL)
 661              		.loc 1 390 5 view .LVU187
 662              		.loc 1 390 8 is_stmt 0 view .LVU188
 663 0000 28B1     		cbz	r0, .L63
 389:Dsp/widget/wgt_core/UI_Controller.c ****     if (Obj == NULL)
 664              		.loc 1 389 1 view .LVU189
 665 0002 08B5     		push	{r3, lr}
 666              	.LCFI8:
 667              		.cfi_def_cfa_offset 8
 668              		.cfi_offset 3, -8
 669              		.cfi_offset 14, -4
 391:Dsp/widget/wgt_core/UI_Controller.c ****         return false;
 392:Dsp/widget/wgt_core/UI_Controller.c **** 
 393:Dsp/widget/wgt_core/UI_Controller.c ****     return UI_Move(&(Obj->Gen_Data), x, y);
 670              		.loc 1 393 5 is_stmt 1 view .LVU190
 671              		.loc 1 393 12 is_stmt 0 view .LVU191
 672 0004 12B2     		sxth	r2, r2
 673              		.loc 1 393 12 view .LVU192
 674 0006 09B2     		sxth	r1, r1
 675              		.loc 1 393 12 view .LVU193
 676 0008 FFF7FEFF 		bl	UI_Move
 677              	.LVL65:
 394:Dsp/widget/wgt_core/UI_Controller.c **** }
 678              		.loc 1 394 1 view .LVU194
 679 000c 08BD     		pop	{r3, pc}
 680              	.LVL66:
 681              	.L63:
 682              	.LCFI9:
 683              		.cfi_def_cfa_offset 0
 684              		.cfi_restore 3
 685              		.cfi_restore 14
 391:Dsp/widget/wgt_core/UI_Controller.c ****         return false;
 686              		.loc 1 391 16 view .LVU195
 687 000e 0020     		movs	r0, #0
 688              	.LVL67:
 689              		.loc 1 394 1 view .LVU196
 690 0010 7047     		bx	lr
 691              		.cfi_endproc
 692              	.LFE15:
 694              		.section	.text.UI_Button_Ctl,"ax",%progbits
 695              		.align	1
 696              		.syntax unified
 697              		.thumb
 698              		.thumb_func
 699              		.fpu fpv4-sp-d16
 701              	UI_Button_Ctl:
 702              	.LVL68:
 703              	.LFB16:
 395:Dsp/widget/wgt_core/UI_Controller.c **** 
 396:Dsp/widget/wgt_core/UI_Controller.c **** static bool UI_Button_Ctl(UI_ButtonObj_TypeDef *Obj)
 397:Dsp/widget/wgt_core/UI_Controller.c **** {
 704              		.loc 1 397 1 is_stmt 1 view -0
 705              		.cfi_startproc
 706              		@ args = 0, pretend = 0, frame = 0
ARM GAS  /var/folders/lx/hc4sn_b53233_zkc9xbbl97r0000gp/T//ccQGj1L2.s 			page 21


 707              		@ frame_needed = 0, uses_anonymous_args = 0
 398:Dsp/widget/wgt_core/UI_Controller.c ****     if (Obj == NULL)
 708              		.loc 1 398 5 view .LVU198
 709              		.loc 1 398 8 is_stmt 0 view .LVU199
 710 0000 0028     		cmp	r0, #0
 711 0002 73D0     		beq	.L74
 397:Dsp/widget/wgt_core/UI_Controller.c ****     if (Obj == NULL)
 712              		.loc 1 397 1 view .LVU200
 713 0004 70B5     		push	{r4, r5, r6, lr}
 714              	.LCFI10:
 715              		.cfi_def_cfa_offset 16
 716              		.cfi_offset 4, -16
 717              		.cfi_offset 5, -12
 718              		.cfi_offset 6, -8
 719              		.cfi_offset 14, -4
 720 0006 84B0     		sub	sp, sp, #16
 721              	.LCFI11:
 722              		.cfi_def_cfa_offset 32
 723 0008 0446     		mov	r4, r0
 399:Dsp/widget/wgt_core/UI_Controller.c ****         return false;
 400:Dsp/widget/wgt_core/UI_Controller.c **** 
 401:Dsp/widget/wgt_core/UI_Controller.c ****     if (Obj->type == Lock_Btn)
 724              		.loc 1 401 5 is_stmt 1 view .LVU201
 725              		.loc 1 401 12 is_stmt 0 view .LVU202
 726 000a 837B     		ldrb	r3, [r0, #14]	@ zero_extendqisi2
 727              		.loc 1 401 8 view .LVU203
 728 000c 012B     		cmp	r3, #1
 729 000e 2FD0     		beq	.L86
 730              	.LVL69:
 731              	.L70:
 402:Dsp/widget/wgt_core/UI_Controller.c ****     {
 403:Dsp/widget/wgt_core/UI_Controller.c ****         if (Obj->state == UI_Btn_PushDwn)
 404:Dsp/widget/wgt_core/UI_Controller.c ****         {
 405:Dsp/widget/wgt_core/UI_Controller.c ****             if (Obj->push_callback)
 406:Dsp/widget/wgt_core/UI_Controller.c ****                 Obj->push_callback();
 407:Dsp/widget/wgt_core/UI_Controller.c ****         }
 408:Dsp/widget/wgt_core/UI_Controller.c ****         else if (Obj->state == UI_Btn_RlsUp)
 409:Dsp/widget/wgt_core/UI_Controller.c ****         {
 410:Dsp/widget/wgt_core/UI_Controller.c ****             if (Obj->release_callback)
 411:Dsp/widget/wgt_core/UI_Controller.c ****                 Obj->release_callback();
 412:Dsp/widget/wgt_core/UI_Controller.c ****         }
 413:Dsp/widget/wgt_core/UI_Controller.c ****         else
 414:Dsp/widget/wgt_core/UI_Controller.c ****             return false;
 415:Dsp/widget/wgt_core/UI_Controller.c ****     }
 416:Dsp/widget/wgt_core/UI_Controller.c **** 
 417:Dsp/widget/wgt_core/UI_Controller.c ****     /* display button on screen object */
 418:Dsp/widget/wgt_core/UI_Controller.c ****     /* invert display color when button been push down */
 419:Dsp/widget/wgt_core/UI_Controller.c ****     if ((UI_DspInterface.draw_str != NULL) && (UI_DspInterface.fill_radius_rectangle != NULL) && (U
 732              		.loc 1 419 5 is_stmt 1 view .LVU204
 733              		.loc 1 419 25 is_stmt 0 view .LVU205
 734 0010 3F4B     		ldr	r3, .L90
 735 0012 1B68     		ldr	r3, [r3]
 736              		.loc 1 419 8 view .LVU206
 737 0014 002B     		cmp	r3, #0
 738 0016 6DD0     		beq	.L76
 739              		.loc 1 419 63 discriminator 1 view .LVU207
 740 0018 3D4B     		ldr	r3, .L90
ARM GAS  /var/folders/lx/hc4sn_b53233_zkc9xbbl97r0000gp/T//ccQGj1L2.s 			page 22


 741 001a DD6A     		ldr	r5, [r3, #44]
 742              		.loc 1 419 44 discriminator 1 view .LVU208
 743 001c 002D     		cmp	r5, #0
 744 001e 6CD0     		beq	.L77
 745              		.loc 1 419 114 discriminator 2 view .LVU209
 746 0020 1E69     		ldr	r6, [r3, #16]
 747              		.loc 1 419 95 discriminator 2 view .LVU210
 748 0022 002E     		cmp	r6, #0
 749 0024 6BD0     		beq	.L78
 420:Dsp/widget/wgt_core/UI_Controller.c ****     {
 421:Dsp/widget/wgt_core/UI_Controller.c ****         if (Obj->state == UI_Btn_PushDwn)
 750              		.loc 1 421 9 is_stmt 1 view .LVU211
 751              		.loc 1 421 16 is_stmt 0 view .LVU212
 752 0026 637B     		ldrb	r3, [r4, #13]	@ zero_extendqisi2
 753              		.loc 1 421 12 view .LVU213
 754 0028 012B     		cmp	r3, #1
 755 002a 32D0     		beq	.L87
 422:Dsp/widget/wgt_core/UI_Controller.c ****         {
 423:Dsp/widget/wgt_core/UI_Controller.c ****             /* fill button frame */
 424:Dsp/widget/wgt_core/UI_Controller.c ****             UI_DspInterface.fill_radius_rectangle(Obj->Gen_Data.x, Obj->Gen_Data.y, Obj->width, Obj
 425:Dsp/widget/wgt_core/UI_Controller.c **** 
 426:Dsp/widget/wgt_core/UI_Controller.c ****             /* invert string display */
 427:Dsp/widget/wgt_core/UI_Controller.c ****             if (Obj->PushDown_Label != NULL)
 428:Dsp/widget/wgt_core/UI_Controller.c ****                 UI_DspInterface.draw_str(base_font, Obj->PushDown_Label, Obj->Gen_Data.x + 5, Obj->
 429:Dsp/widget/wgt_core/UI_Controller.c ****         }
 430:Dsp/widget/wgt_core/UI_Controller.c ****         else
 431:Dsp/widget/wgt_core/UI_Controller.c ****         {
 432:Dsp/widget/wgt_core/UI_Controller.c ****             /* draw button frame */
 433:Dsp/widget/wgt_core/UI_Controller.c ****             UI_DspInterface.draw_radius_rectangle(Obj->Gen_Data.x, Obj->Gen_Data.y, Obj->width, Obj
 756              		.loc 1 433 13 is_stmt 1 view .LVU214
 757 002c 0123     		movs	r3, #1
 758 002e 0293     		str	r3, [sp, #8]
 759 0030 0193     		str	r3, [sp, #4]
 760 0032 0323     		movs	r3, #3
 761 0034 0093     		str	r3, [sp]
 762 0036 94F82030 		ldrb	r3, [r4, #32]	@ zero_extendqisi2
 763 003a E27F     		ldrb	r2, [r4, #31]	@ zero_extendqisi2
 764 003c B4F90610 		ldrsh	r1, [r4, #6]	@ unaligned
 765 0040 B4F90400 		ldrsh	r0, [r4, #4]	@ unaligned
 766 0044 B047     		blx	r6
 767              	.LVL70:
 434:Dsp/widget/wgt_core/UI_Controller.c **** 
 435:Dsp/widget/wgt_core/UI_Controller.c ****             if (Obj->type == Lock_Btn)
 768              		.loc 1 435 13 view .LVU215
 769              		.loc 1 435 20 is_stmt 0 view .LVU216
 770 0046 A37B     		ldrb	r3, [r4, #14]	@ zero_extendqisi2
 771              		.loc 1 435 16 view .LVU217
 772 0048 012B     		cmp	r3, #1
 773 004a 3ED0     		beq	.L88
 436:Dsp/widget/wgt_core/UI_Controller.c ****             {
 437:Dsp/widget/wgt_core/UI_Controller.c ****                 /* display label normally */
 438:Dsp/widget/wgt_core/UI_Controller.c ****                 if (Obj->Release_Label != NULL)
 439:Dsp/widget/wgt_core/UI_Controller.c ****                     UI_DspInterface.draw_str(base_font, Obj->Release_Label, Obj->Gen_Data.x + 9, Ob
 440:Dsp/widget/wgt_core/UI_Controller.c ****             }
 441:Dsp/widget/wgt_core/UI_Controller.c ****             else
 442:Dsp/widget/wgt_core/UI_Controller.c ****             {
 443:Dsp/widget/wgt_core/UI_Controller.c ****                 if (Obj->PushDown_Label != NULL)
ARM GAS  /var/folders/lx/hc4sn_b53233_zkc9xbbl97r0000gp/T//ccQGj1L2.s 			page 23


 774              		.loc 1 443 17 is_stmt 1 view .LVU218
 775              		.loc 1 443 24 is_stmt 0 view .LVU219
 776 004c D4F81710 		ldr	r1, [r4, #23]	@ unaligned
 777              		.loc 1 443 20 view .LVU220
 778 0050 0029     		cmp	r1, #0
 779 0052 5AD0     		beq	.L81
 444:Dsp/widget/wgt_core/UI_Controller.c ****                     UI_DspInterface.draw_str(base_font, Obj->PushDown_Label, Obj->Gen_Data.x + 5, O
 780              		.loc 1 444 21 is_stmt 1 view .LVU221
 781              		.loc 1 444 36 is_stmt 0 view .LVU222
 782 0054 2E4B     		ldr	r3, .L90
 783 0056 1E68     		ldr	r6, [r3]
 784              		.loc 1 444 91 view .LVU223
 785 0058 A288     		ldrh	r2, [r4, #4]	@ unaligned
 786              		.loc 1 444 94 view .LVU224
 787 005a 0532     		adds	r2, r2, #5
 788              		.loc 1 444 21 view .LVU225
 789 005c 0125     		movs	r5, #1
 790 005e 0095     		str	r5, [sp]
 791 0060 B4F90630 		ldrsh	r3, [r4, #6]	@ unaligned
 792 0064 12B2     		sxth	r2, r2
 793 0066 2B48     		ldr	r0, .L90+4
 794 0068 0078     		ldrb	r0, [r0]	@ zero_extendqisi2
 795 006a B047     		blx	r6
 796              	.LVL71:
 445:Dsp/widget/wgt_core/UI_Controller.c ****             }
 446:Dsp/widget/wgt_core/UI_Controller.c ****         }
 447:Dsp/widget/wgt_core/UI_Controller.c ****     }
 448:Dsp/widget/wgt_core/UI_Controller.c ****     else
 449:Dsp/widget/wgt_core/UI_Controller.c ****         return false;
 450:Dsp/widget/wgt_core/UI_Controller.c **** 
 451:Dsp/widget/wgt_core/UI_Controller.c ****     return true;
 797              		.loc 1 451 12 view .LVU226
 798 006c 2846     		mov	r0, r5
 799 006e 42E0     		b	.L69
 800              	.LVL72:
 801              	.L86:
 403:Dsp/widget/wgt_core/UI_Controller.c ****         {
 802              		.loc 1 403 9 is_stmt 1 view .LVU227
 403:Dsp/widget/wgt_core/UI_Controller.c ****         {
 803              		.loc 1 403 16 is_stmt 0 view .LVU228
 804 0070 437B     		ldrb	r3, [r0, #13]	@ zero_extendqisi2
 403:Dsp/widget/wgt_core/UI_Controller.c ****         {
 805              		.loc 1 403 12 view .LVU229
 806 0072 012B     		cmp	r3, #1
 807 0074 07D0     		beq	.L89
 408:Dsp/widget/wgt_core/UI_Controller.c ****         {
 808              		.loc 1 408 14 is_stmt 1 view .LVU230
 408:Dsp/widget/wgt_core/UI_Controller.c ****         {
 809              		.loc 1 408 17 is_stmt 0 view .LVU231
 810 0076 002B     		cmp	r3, #0
 811 0078 3AD1     		bne	.L75
 410:Dsp/widget/wgt_core/UI_Controller.c ****                 Obj->release_callback();
 812              		.loc 1 410 13 is_stmt 1 view .LVU232
 410:Dsp/widget/wgt_core/UI_Controller.c ****                 Obj->release_callback();
 813              		.loc 1 410 20 is_stmt 0 view .LVU233
 814 007a D0F81330 		ldr	r3, [r0, #19]	@ unaligned
 410:Dsp/widget/wgt_core/UI_Controller.c ****                 Obj->release_callback();
ARM GAS  /var/folders/lx/hc4sn_b53233_zkc9xbbl97r0000gp/T//ccQGj1L2.s 			page 24


 815              		.loc 1 410 16 view .LVU234
 816 007e 002B     		cmp	r3, #0
 817 0080 C6D0     		beq	.L70
 411:Dsp/widget/wgt_core/UI_Controller.c ****         }
 818              		.loc 1 411 17 is_stmt 1 view .LVU235
 819 0082 9847     		blx	r3
 820              	.LVL73:
 411:Dsp/widget/wgt_core/UI_Controller.c ****         }
 821              		.loc 1 411 17 is_stmt 0 view .LVU236
 822 0084 C4E7     		b	.L70
 823              	.LVL74:
 824              	.L89:
 405:Dsp/widget/wgt_core/UI_Controller.c ****                 Obj->push_callback();
 825              		.loc 1 405 13 is_stmt 1 view .LVU237
 405:Dsp/widget/wgt_core/UI_Controller.c ****                 Obj->push_callback();
 826              		.loc 1 405 20 is_stmt 0 view .LVU238
 827 0086 D0F80F30 		ldr	r3, [r0, #15]	@ unaligned
 405:Dsp/widget/wgt_core/UI_Controller.c ****                 Obj->push_callback();
 828              		.loc 1 405 16 view .LVU239
 829 008a 002B     		cmp	r3, #0
 830 008c C0D0     		beq	.L70
 406:Dsp/widget/wgt_core/UI_Controller.c ****         }
 831              		.loc 1 406 17 is_stmt 1 view .LVU240
 832 008e 9847     		blx	r3
 833              	.LVL75:
 406:Dsp/widget/wgt_core/UI_Controller.c ****         }
 834              		.loc 1 406 17 is_stmt 0 view .LVU241
 835 0090 BEE7     		b	.L70
 836              	.L87:
 424:Dsp/widget/wgt_core/UI_Controller.c **** 
 837              		.loc 1 424 13 is_stmt 1 view .LVU242
 838 0092 0193     		str	r3, [sp, #4]
 839 0094 0323     		movs	r3, #3
 840 0096 0093     		str	r3, [sp]
 841 0098 94F82030 		ldrb	r3, [r4, #32]	@ zero_extendqisi2
 842 009c E27F     		ldrb	r2, [r4, #31]	@ zero_extendqisi2
 843 009e B4F90610 		ldrsh	r1, [r4, #6]	@ unaligned
 844 00a2 B4F90400 		ldrsh	r0, [r4, #4]	@ unaligned
 845 00a6 A847     		blx	r5
 846              	.LVL76:
 427:Dsp/widget/wgt_core/UI_Controller.c ****                 UI_DspInterface.draw_str(base_font, Obj->PushDown_Label, Obj->Gen_Data.x + 5, Obj->
 847              		.loc 1 427 13 view .LVU243
 427:Dsp/widget/wgt_core/UI_Controller.c ****                 UI_DspInterface.draw_str(base_font, Obj->PushDown_Label, Obj->Gen_Data.x + 5, Obj->
 848              		.loc 1 427 20 is_stmt 0 view .LVU244
 849 00a8 D4F81710 		ldr	r1, [r4, #23]	@ unaligned
 427:Dsp/widget/wgt_core/UI_Controller.c ****                 UI_DspInterface.draw_str(base_font, Obj->PushDown_Label, Obj->Gen_Data.x + 5, Obj->
 850              		.loc 1 427 16 view .LVU245
 851 00ac 49B3     		cbz	r1, .L79
 428:Dsp/widget/wgt_core/UI_Controller.c ****         }
 852              		.loc 1 428 17 is_stmt 1 view .LVU246
 428:Dsp/widget/wgt_core/UI_Controller.c ****         }
 853              		.loc 1 428 32 is_stmt 0 view .LVU247
 854 00ae 184B     		ldr	r3, .L90
 855 00b0 1E68     		ldr	r6, [r3]
 428:Dsp/widget/wgt_core/UI_Controller.c ****         }
 856              		.loc 1 428 87 view .LVU248
 857 00b2 A288     		ldrh	r2, [r4, #4]	@ unaligned
ARM GAS  /var/folders/lx/hc4sn_b53233_zkc9xbbl97r0000gp/T//ccQGj1L2.s 			page 25


 428:Dsp/widget/wgt_core/UI_Controller.c ****         }
 858              		.loc 1 428 90 view .LVU249
 859 00b4 0532     		adds	r2, r2, #5
 428:Dsp/widget/wgt_core/UI_Controller.c ****         }
 860              		.loc 1 428 17 view .LVU250
 861 00b6 0125     		movs	r5, #1
 862 00b8 0095     		str	r5, [sp]
 863 00ba B4F90630 		ldrsh	r3, [r4, #6]	@ unaligned
 864 00be 12B2     		sxth	r2, r2
 865 00c0 1448     		ldr	r0, .L90+4
 866 00c2 0078     		ldrb	r0, [r0]	@ zero_extendqisi2
 867 00c4 B047     		blx	r6
 868              	.LVL77:
 869              		.loc 1 451 12 view .LVU251
 870 00c6 2846     		mov	r0, r5
 871 00c8 15E0     		b	.L69
 872              	.L88:
 438:Dsp/widget/wgt_core/UI_Controller.c ****                     UI_DspInterface.draw_str(base_font, Obj->Release_Label, Obj->Gen_Data.x + 9, Ob
 873              		.loc 1 438 17 is_stmt 1 view .LVU252
 438:Dsp/widget/wgt_core/UI_Controller.c ****                     UI_DspInterface.draw_str(base_font, Obj->Release_Label, Obj->Gen_Data.x + 9, Ob
 874              		.loc 1 438 24 is_stmt 0 view .LVU253
 875 00ca D4F81B10 		ldr	r1, [r4, #27]	@ unaligned
 438:Dsp/widget/wgt_core/UI_Controller.c ****                     UI_DspInterface.draw_str(base_font, Obj->Release_Label, Obj->Gen_Data.x + 9, Ob
 876              		.loc 1 438 20 view .LVU254
 877 00ce D1B1     		cbz	r1, .L80
 439:Dsp/widget/wgt_core/UI_Controller.c ****             }
 878              		.loc 1 439 21 is_stmt 1 view .LVU255
 439:Dsp/widget/wgt_core/UI_Controller.c ****             }
 879              		.loc 1 439 36 is_stmt 0 view .LVU256
 880 00d0 0F4B     		ldr	r3, .L90
 881 00d2 1E68     		ldr	r6, [r3]
 439:Dsp/widget/wgt_core/UI_Controller.c ****             }
 882              		.loc 1 439 90 view .LVU257
 883 00d4 A288     		ldrh	r2, [r4, #4]	@ unaligned
 439:Dsp/widget/wgt_core/UI_Controller.c ****             }
 884              		.loc 1 439 93 view .LVU258
 885 00d6 0932     		adds	r2, r2, #9
 439:Dsp/widget/wgt_core/UI_Controller.c ****             }
 886              		.loc 1 439 21 view .LVU259
 887 00d8 0125     		movs	r5, #1
 888 00da 0095     		str	r5, [sp]
 889 00dc B4F90630 		ldrsh	r3, [r4, #6]	@ unaligned
 890 00e0 12B2     		sxth	r2, r2
 891 00e2 0C48     		ldr	r0, .L90+4
 892 00e4 0078     		ldrb	r0, [r0]	@ zero_extendqisi2
 893 00e6 B047     		blx	r6
 894              	.LVL78:
 895              		.loc 1 451 12 view .LVU260
 896 00e8 2846     		mov	r0, r5
 897 00ea 04E0     		b	.L69
 898              	.LVL79:
 899              	.L74:
 900              	.LCFI12:
 901              		.cfi_def_cfa_offset 0
 902              		.cfi_restore 4
 903              		.cfi_restore 5
 904              		.cfi_restore 6
ARM GAS  /var/folders/lx/hc4sn_b53233_zkc9xbbl97r0000gp/T//ccQGj1L2.s 			page 26


 905              		.cfi_restore 14
 399:Dsp/widget/wgt_core/UI_Controller.c **** 
 906              		.loc 1 399 16 view .LVU261
 907 00ec 0020     		movs	r0, #0
 908              	.LVL80:
 452:Dsp/widget/wgt_core/UI_Controller.c **** }
 909              		.loc 1 452 1 view .LVU262
 910 00ee 7047     		bx	lr
 911              	.LVL81:
 912              	.L75:
 913              	.LCFI13:
 914              		.cfi_def_cfa_offset 32
 915              		.cfi_offset 4, -16
 916              		.cfi_offset 5, -12
 917              		.cfi_offset 6, -8
 918              		.cfi_offset 14, -4
 414:Dsp/widget/wgt_core/UI_Controller.c ****     }
 919              		.loc 1 414 20 view .LVU263
 920 00f0 0020     		movs	r0, #0
 921              	.LVL82:
 414:Dsp/widget/wgt_core/UI_Controller.c ****     }
 922              		.loc 1 414 20 view .LVU264
 923 00f2 00E0     		b	.L69
 924              	.L76:
 449:Dsp/widget/wgt_core/UI_Controller.c **** 
 925              		.loc 1 449 16 view .LVU265
 926 00f4 0020     		movs	r0, #0
 927              	.L69:
 928              		.loc 1 452 1 view .LVU266
 929 00f6 04B0     		add	sp, sp, #16
 930              	.LCFI14:
 931              		.cfi_remember_state
 932              		.cfi_def_cfa_offset 16
 933              		@ sp needed
 934 00f8 70BD     		pop	{r4, r5, r6, pc}
 935              	.LVL83:
 936              	.L77:
 937              	.LCFI15:
 938              		.cfi_restore_state
 449:Dsp/widget/wgt_core/UI_Controller.c **** 
 939              		.loc 1 449 16 view .LVU267
 940 00fa 0020     		movs	r0, #0
 941 00fc FBE7     		b	.L69
 942              	.L78:
 943 00fe 0020     		movs	r0, #0
 944 0100 F9E7     		b	.L69
 945              	.L79:
 451:Dsp/widget/wgt_core/UI_Controller.c **** }
 946              		.loc 1 451 12 view .LVU268
 947 0102 0120     		movs	r0, #1
 948 0104 F7E7     		b	.L69
 949              	.L80:
 451:Dsp/widget/wgt_core/UI_Controller.c **** }
 950              		.loc 1 451 12 view .LVU269
 951 0106 0120     		movs	r0, #1
 952 0108 F5E7     		b	.L69
 953              	.L81:
ARM GAS  /var/folders/lx/hc4sn_b53233_zkc9xbbl97r0000gp/T//ccQGj1L2.s 			page 27


 451:Dsp/widget/wgt_core/UI_Controller.c **** }
 954              		.loc 1 451 12 view .LVU270
 955 010a 0120     		movs	r0, #1
 956 010c F3E7     		b	.L69
 957              	.L91:
 958 010e 00BF     		.align	2
 959              	.L90:
 960 0110 00000000 		.word	.LANCHOR0
 961 0114 00000000 		.word	.LANCHOR2
 962              		.cfi_endproc
 963              	.LFE16:
 965              		.section	.text.UI_CheckBox_Init,"ax",%progbits
 966              		.align	1
 967              		.syntax unified
 968              		.thumb
 969              		.thumb_func
 970              		.fpu fpv4-sp-d16
 972              	UI_CheckBox_Init:
 973              	.LVL84:
 974              	.LFB17:
 453:Dsp/widget/wgt_core/UI_Controller.c **** 
 454:Dsp/widget/wgt_core/UI_Controller.c **** static bool UI_CheckBox_Init(UI_CheckBoxObj_TypeDef *Obj, char *label, int16_t x, int16_t y, bool s
 455:Dsp/widget/wgt_core/UI_Controller.c **** {
 975              		.loc 1 455 1 is_stmt 1 view -0
 976              		.cfi_startproc
 977              		@ args = 4, pretend = 0, frame = 0
 978              		@ frame_needed = 0, uses_anonymous_args = 0
 456:Dsp/widget/wgt_core/UI_Controller.c ****     if (Obj == NULL)
 979              		.loc 1 456 5 view .LVU272
 980              		.loc 1 456 8 is_stmt 0 view .LVU273
 981 0000 68B1     		cbz	r0, .L94
 455:Dsp/widget/wgt_core/UI_Controller.c ****     if (Obj == NULL)
 982              		.loc 1 455 1 view .LVU274
 983 0002 10B5     		push	{r4, lr}
 984              	.LCFI16:
 985              		.cfi_def_cfa_offset 8
 986              		.cfi_offset 4, -8
 987              		.cfi_offset 14, -4
 988 0004 0446     		mov	r4, r0
 457:Dsp/widget/wgt_core/UI_Controller.c ****         return false;
 458:Dsp/widget/wgt_core/UI_Controller.c **** 
 459:Dsp/widget/wgt_core/UI_Controller.c ****     UI_GenData_Init(&Obj->Gen_Data, label, x, y);
 989              		.loc 1 459 5 is_stmt 1 view .LVU275
 990 0006 FFF7FEFF 		bl	UI_GenData_Init
 991              	.LVL85:
 460:Dsp/widget/wgt_core/UI_Controller.c **** 
 461:Dsp/widget/wgt_core/UI_Controller.c ****     Obj->checked = state;
 992              		.loc 1 461 5 view .LVU276
 993              		.loc 1 461 18 is_stmt 0 view .LVU277
 994 000a 9DF80830 		ldrb	r3, [sp, #8]	@ zero_extendqisi2
 995 000e 2374     		strb	r3, [r4, #16]
 462:Dsp/widget/wgt_core/UI_Controller.c ****     Obj->callback = NULL;
 996              		.loc 1 462 5 is_stmt 1 view .LVU278
 997              		.loc 1 462 19 is_stmt 0 view .LVU279
 998 0010 0023     		movs	r3, #0
 999 0012 2373     		strb	r3, [r4, #12]
 1000 0014 6373     		strb	r3, [r4, #13]
ARM GAS  /var/folders/lx/hc4sn_b53233_zkc9xbbl97r0000gp/T//ccQGj1L2.s 			page 28


 1001 0016 A373     		strb	r3, [r4, #14]
 1002 0018 E373     		strb	r3, [r4, #15]
 463:Dsp/widget/wgt_core/UI_Controller.c **** 
 464:Dsp/widget/wgt_core/UI_Controller.c ****     return true;
 1003              		.loc 1 464 5 is_stmt 1 view .LVU280
 1004              		.loc 1 464 12 is_stmt 0 view .LVU281
 1005 001a 0120     		movs	r0, #1
 465:Dsp/widget/wgt_core/UI_Controller.c **** }
 1006              		.loc 1 465 1 view .LVU282
 1007 001c 10BD     		pop	{r4, pc}
 1008              	.LVL86:
 1009              	.L94:
 1010              	.LCFI17:
 1011              		.cfi_def_cfa_offset 0
 1012              		.cfi_restore 4
 1013              		.cfi_restore 14
 457:Dsp/widget/wgt_core/UI_Controller.c **** 
 1014              		.loc 1 457 16 view .LVU283
 1015 001e 0020     		movs	r0, #0
 1016              	.LVL87:
 1017              		.loc 1 465 1 view .LVU284
 1018 0020 7047     		bx	lr
 1019              		.cfi_endproc
 1020              	.LFE17:
 1022              		.section	.text.UI_CheckBox_SetCallback,"ax",%progbits
 1023              		.align	1
 1024              		.syntax unified
 1025              		.thumb
 1026              		.thumb_func
 1027              		.fpu fpv4-sp-d16
 1029              	UI_CheckBox_SetCallback:
 1030              	.LVL88:
 1031              	.LFB18:
 466:Dsp/widget/wgt_core/UI_Controller.c **** 
 467:Dsp/widget/wgt_core/UI_Controller.c **** static bool UI_CheckBox_SetCallback(UI_CheckBoxObj_TypeDef *Obj, UI_CheckBoxTrigger_Callback callba
 468:Dsp/widget/wgt_core/UI_Controller.c **** {
 1032              		.loc 1 468 1 is_stmt 1 view -0
 1033              		.cfi_startproc
 1034              		@ args = 0, pretend = 0, frame = 0
 1035              		@ frame_needed = 0, uses_anonymous_args = 0
 1036              		@ link register save eliminated.
 469:Dsp/widget/wgt_core/UI_Controller.c ****     if (Obj == NULL)
 1037              		.loc 1 469 5 view .LVU286
 1038              		.loc 1 469 8 is_stmt 0 view .LVU287
 1039 0000 10B1     		cbz	r0, .L101
 470:Dsp/widget/wgt_core/UI_Controller.c ****         return false;
 471:Dsp/widget/wgt_core/UI_Controller.c **** 
 472:Dsp/widget/wgt_core/UI_Controller.c ****     Obj->callback = callback;
 1040              		.loc 1 472 5 is_stmt 1 view .LVU288
 1041              		.loc 1 472 19 is_stmt 0 view .LVU289
 1042 0002 C160     		str	r1, [r0, #12]	@ unaligned
 473:Dsp/widget/wgt_core/UI_Controller.c **** 
 474:Dsp/widget/wgt_core/UI_Controller.c ****     return true;
 1043              		.loc 1 474 5 is_stmt 1 view .LVU290
 1044              		.loc 1 474 12 is_stmt 0 view .LVU291
 1045 0004 0120     		movs	r0, #1
 1046              	.LVL89:
ARM GAS  /var/folders/lx/hc4sn_b53233_zkc9xbbl97r0000gp/T//ccQGj1L2.s 			page 29


 1047              		.loc 1 474 12 view .LVU292
 1048 0006 7047     		bx	lr
 1049              	.LVL90:
 1050              	.L101:
 470:Dsp/widget/wgt_core/UI_Controller.c ****         return false;
 1051              		.loc 1 470 16 view .LVU293
 1052 0008 0020     		movs	r0, #0
 1053              	.LVL91:
 475:Dsp/widget/wgt_core/UI_Controller.c **** }
 1054              		.loc 1 475 1 view .LVU294
 1055 000a 7047     		bx	lr
 1056              		.cfi_endproc
 1057              	.LFE18:
 1059              		.section	.text.UI_CheckBox_Move,"ax",%progbits
 1060              		.align	1
 1061              		.syntax unified
 1062              		.thumb
 1063              		.thumb_func
 1064              		.fpu fpv4-sp-d16
 1066              	UI_CheckBox_Move:
 1067              	.LVL92:
 1068              	.LFB19:
 476:Dsp/widget/wgt_core/UI_Controller.c **** 
 477:Dsp/widget/wgt_core/UI_Controller.c **** static bool UI_CheckBox_Move(UI_CheckBoxObj_TypeDef *Obj, int16_t x, int16_t y)
 478:Dsp/widget/wgt_core/UI_Controller.c **** {
 1069              		.loc 1 478 1 is_stmt 1 view -0
 1070              		.cfi_startproc
 1071              		@ args = 0, pretend = 0, frame = 0
 1072              		@ frame_needed = 0, uses_anonymous_args = 0
 479:Dsp/widget/wgt_core/UI_Controller.c ****     if (Obj == NULL)
 1073              		.loc 1 479 5 view .LVU296
 1074              		.loc 1 479 8 is_stmt 0 view .LVU297
 1075 0000 18B1     		cbz	r0, .L104
 478:Dsp/widget/wgt_core/UI_Controller.c ****     if (Obj == NULL)
 1076              		.loc 1 478 1 view .LVU298
 1077 0002 08B5     		push	{r3, lr}
 1078              	.LCFI18:
 1079              		.cfi_def_cfa_offset 8
 1080              		.cfi_offset 3, -8
 1081              		.cfi_offset 14, -4
 480:Dsp/widget/wgt_core/UI_Controller.c ****         return false;
 481:Dsp/widget/wgt_core/UI_Controller.c **** 
 482:Dsp/widget/wgt_core/UI_Controller.c ****     return UI_Move(&(Obj->Gen_Data), x, y);
 1082              		.loc 1 482 5 is_stmt 1 view .LVU299
 1083              		.loc 1 482 12 is_stmt 0 view .LVU300
 1084 0004 FFF7FEFF 		bl	UI_Move
 1085              	.LVL93:
 483:Dsp/widget/wgt_core/UI_Controller.c **** }
 1086              		.loc 1 483 1 view .LVU301
 1087 0008 08BD     		pop	{r3, pc}
 1088              	.LVL94:
 1089              	.L104:
 1090              	.LCFI19:
 1091              		.cfi_def_cfa_offset 0
 1092              		.cfi_restore 3
 1093              		.cfi_restore 14
 480:Dsp/widget/wgt_core/UI_Controller.c ****         return false;
ARM GAS  /var/folders/lx/hc4sn_b53233_zkc9xbbl97r0000gp/T//ccQGj1L2.s 			page 30


 1094              		.loc 1 480 16 view .LVU302
 1095 000a 0020     		movs	r0, #0
 1096              	.LVL95:
 1097              		.loc 1 483 1 view .LVU303
 1098 000c 7047     		bx	lr
 1099              		.cfi_endproc
 1100              	.LFE19:
 1102              		.section	.text.UI_CheckBox_Trigger,"ax",%progbits
 1103              		.align	1
 1104              		.syntax unified
 1105              		.thumb
 1106              		.thumb_func
 1107              		.fpu fpv4-sp-d16
 1109              	UI_CheckBox_Trigger:
 1110              	.LVL96:
 1111              	.LFB20:
 484:Dsp/widget/wgt_core/UI_Controller.c **** 
 485:Dsp/widget/wgt_core/UI_Controller.c **** static bool UI_CheckBox_Trigger(UI_CheckBoxObj_TypeDef *Obj)
 486:Dsp/widget/wgt_core/UI_Controller.c **** {
 1112              		.loc 1 486 1 is_stmt 1 view -0
 1113              		.cfi_startproc
 1114              		@ args = 0, pretend = 0, frame = 0
 1115              		@ frame_needed = 0, uses_anonymous_args = 0
 487:Dsp/widget/wgt_core/UI_Controller.c ****     if (Obj == NULL)
 1116              		.loc 1 487 5 view .LVU305
 1117              		.loc 1 487 8 is_stmt 0 view .LVU306
 1118 0000 50B1     		cbz	r0, .L111
 486:Dsp/widget/wgt_core/UI_Controller.c ****     if (Obj == NULL)
 1119              		.loc 1 486 1 view .LVU307
 1120 0002 08B5     		push	{r3, lr}
 1121              	.LCFI20:
 1122              		.cfi_def_cfa_offset 8
 1123              		.cfi_offset 3, -8
 1124              		.cfi_offset 14, -4
 1125 0004 0346     		mov	r3, r0
 488:Dsp/widget/wgt_core/UI_Controller.c ****         return false;
 489:Dsp/widget/wgt_core/UI_Controller.c **** 
 490:Dsp/widget/wgt_core/UI_Controller.c ****     Obj->checked = !Obj->checked;
 1126              		.loc 1 490 5 is_stmt 1 view .LVU308
 1127              		.loc 1 490 24 is_stmt 0 view .LVU309
 1128 0006 007C     		ldrb	r0, [r0, #16]	@ zero_extendqisi2
 1129              	.LVL97:
 1130              		.loc 1 490 5 view .LVU310
 1131 0008 80F00100 		eor	r0, r0, #1
 1132              		.loc 1 490 18 view .LVU311
 1133 000c 1874     		strb	r0, [r3, #16]
 491:Dsp/widget/wgt_core/UI_Controller.c **** 
 492:Dsp/widget/wgt_core/UI_Controller.c ****     if (Obj->callback)
 1134              		.loc 1 492 5 is_stmt 1 view .LVU312
 1135              		.loc 1 492 12 is_stmt 0 view .LVU313
 1136 000e DB68     		ldr	r3, [r3, #12]	@ unaligned
 1137              	.LVL98:
 1138              		.loc 1 492 8 view .LVU314
 1139 0010 23B1     		cbz	r3, .L112
 493:Dsp/widget/wgt_core/UI_Controller.c ****         Obj->callback(Obj->checked);
 1140              		.loc 1 493 9 is_stmt 1 view .LVU315
 1141 0012 9847     		blx	r3
ARM GAS  /var/folders/lx/hc4sn_b53233_zkc9xbbl97r0000gp/T//ccQGj1L2.s 			page 31


 1142              	.LVL99:
 494:Dsp/widget/wgt_core/UI_Controller.c **** 
 495:Dsp/widget/wgt_core/UI_Controller.c ****     return true;
 1143              		.loc 1 495 12 is_stmt 0 view .LVU316
 1144 0014 0120     		movs	r0, #1
 1145              	.L110:
 496:Dsp/widget/wgt_core/UI_Controller.c **** }
 1146              		.loc 1 496 1 view .LVU317
 1147 0016 08BD     		pop	{r3, pc}
 1148              	.LVL100:
 1149              	.L111:
 1150              	.LCFI21:
 1151              		.cfi_def_cfa_offset 0
 1152              		.cfi_restore 3
 1153              		.cfi_restore 14
 488:Dsp/widget/wgt_core/UI_Controller.c **** 
 1154              		.loc 1 488 16 view .LVU318
 1155 0018 0020     		movs	r0, #0
 1156              	.LVL101:
 1157              		.loc 1 496 1 view .LVU319
 1158 001a 7047     		bx	lr
 1159              	.L112:
 1160              	.LCFI22:
 1161              		.cfi_def_cfa_offset 8
 1162              		.cfi_offset 3, -8
 1163              		.cfi_offset 14, -4
 495:Dsp/widget/wgt_core/UI_Controller.c **** }
 1164              		.loc 1 495 12 view .LVU320
 1165 001c 0120     		movs	r0, #1
 1166 001e FAE7     		b	.L110
 1167              		.cfi_endproc
 1168              	.LFE20:
 1170              		.section	.text.UI_SlideBar_Init,"ax",%progbits
 1171              		.align	1
 1172              		.syntax unified
 1173              		.thumb
 1174              		.thumb_func
 1175              		.fpu fpv4-sp-d16
 1177              	UI_SlideBar_Init:
 1178              	.LVL102:
 1179              	.LFB22:
 497:Dsp/widget/wgt_core/UI_Controller.c **** 
 498:Dsp/widget/wgt_core/UI_Controller.c **** static bool UI_CheckBox_Ctl(UI_CheckBoxObj_TypeDef *Obj)
 499:Dsp/widget/wgt_core/UI_Controller.c **** {
 500:Dsp/widget/wgt_core/UI_Controller.c ****     uint16_t StrDsp_x = 0;
 501:Dsp/widget/wgt_core/UI_Controller.c ****     int16_t frame_y = 0;
 502:Dsp/widget/wgt_core/UI_Controller.c ****     int16_t str_y = Obj->Gen_Data.y;
 503:Dsp/widget/wgt_core/UI_Controller.c **** 
 504:Dsp/widget/wgt_core/UI_Controller.c ****     if ((Obj == NULL) ||
 505:Dsp/widget/wgt_core/UI_Controller.c ****         (UI_DspInterface.draw_str == NULL) ||
 506:Dsp/widget/wgt_core/UI_Controller.c ****         (UI_DspInterface.fill_rectangle == NULL) ||
 507:Dsp/widget/wgt_core/UI_Controller.c ****         (UI_DspInterface.draw_rectangle == NULL))
 508:Dsp/widget/wgt_core/UI_Controller.c ****         return false;
 509:Dsp/widget/wgt_core/UI_Controller.c **** 
 510:Dsp/widget/wgt_core/UI_Controller.c ****     StrDsp_x = strlen(Obj->Gen_Data.label) * STR_DIS;
 511:Dsp/widget/wgt_core/UI_Controller.c ****     frame_y = Obj->Gen_Data.y + 3;
 512:Dsp/widget/wgt_core/UI_Controller.c ****     StrDsp_x += DEFAULT_CHECKBOX_OFFSET;
ARM GAS  /var/folders/lx/hc4sn_b53233_zkc9xbbl97r0000gp/T//ccQGj1L2.s 			page 32


 513:Dsp/widget/wgt_core/UI_Controller.c **** 
 514:Dsp/widget/wgt_core/UI_Controller.c ****     if (base_font == Font_8)
 515:Dsp/widget/wgt_core/UI_Controller.c ****         str_y += 1;
 516:Dsp/widget/wgt_core/UI_Controller.c **** 
 517:Dsp/widget/wgt_core/UI_Controller.c ****     UI_DspInterface.draw_str(base_font, Obj->Gen_Data.label, Obj->Gen_Data.x + 3, str_y, true);
 518:Dsp/widget/wgt_core/UI_Controller.c ****     UI_DspInterface.draw_rectangle(StrDsp_x, frame_y, DEFAULT_CHECKBOX_FRAME_SIZE, DEFAULT_CHECKBOX
 519:Dsp/widget/wgt_core/UI_Controller.c **** 
 520:Dsp/widget/wgt_core/UI_Controller.c ****     if (Obj->checked)
 521:Dsp/widget/wgt_core/UI_Controller.c ****         UI_DspInterface.fill_rectangle(StrDsp_x + 2, frame_y + 2, DEFAULT_CHECKBOX_FILLFRAME, DEFAU
 522:Dsp/widget/wgt_core/UI_Controller.c **** 
 523:Dsp/widget/wgt_core/UI_Controller.c ****     return true;
 524:Dsp/widget/wgt_core/UI_Controller.c **** }
 525:Dsp/widget/wgt_core/UI_Controller.c **** 
 526:Dsp/widget/wgt_core/UI_Controller.c **** static bool UI_SlideBar_Init(UI_SlideBarObj_TypeDef *Obj, UI_SliderBar_Mode_List mode, char *label,
 527:Dsp/widget/wgt_core/UI_Controller.c **** {
 1180              		.loc 1 527 1 is_stmt 1 view -0
 1181              		.cfi_startproc
 1182              		@ args = 20, pretend = 0, frame = 0
 1183              		@ frame_needed = 0, uses_anonymous_args = 0
 1184              		.loc 1 527 1 is_stmt 0 view .LVU322
 1185 0000 2DE9F843 		push	{r3, r4, r5, r6, r7, r8, r9, lr}
 1186              	.LCFI23:
 1187              		.cfi_def_cfa_offset 32
 1188              		.cfi_offset 3, -32
 1189              		.cfi_offset 4, -28
 1190              		.cfi_offset 5, -24
 1191              		.cfi_offset 6, -20
 1192              		.cfi_offset 7, -16
 1193              		.cfi_offset 8, -12
 1194              		.cfi_offset 9, -8
 1195              		.cfi_offset 14, -4
 1196 0004 BDF92440 		ldrsh	r4, [sp, #36]
 1197 0008 BDF92850 		ldrsh	r5, [sp, #40]
 1198 000c BDF92C60 		ldrsh	r6, [sp, #44]
 1199 0010 BDF93080 		ldrsh	r8, [sp, #48]
 528:Dsp/widget/wgt_core/UI_Controller.c ****     if ((Obj == NULL) ||
 1200              		.loc 1 528 5 is_stmt 1 view .LVU323
 1201              		.loc 1 528 8 is_stmt 0 view .LVU324
 1202 0014 0028     		cmp	r0, #0
 1203 0016 49D0     		beq	.L119
 1204 0018 9446     		mov	ip, r2
 1205 001a 1A46     		mov	r2, r3
 1206              	.LVL103:
 1207              		.loc 1 528 8 view .LVU325
 1208 001c 0746     		mov	r7, r0
 1209              		.loc 1 528 23 discriminator 1 view .LVU326
 1210 001e AC42     		cmp	r4, r5
 1211 0020 46DD     		ble	.L120
 529:Dsp/widget/wgt_core/UI_Controller.c ****         (limit_max <= limit_min) ||
 1212              		.loc 1 529 34 view .LVU327
 1213 0022 B542     		cmp	r5, r6
 1214 0024 47DC     		bgt	.L121
 530:Dsp/widget/wgt_core/UI_Controller.c ****         (start_val < limit_min) ||
 1215              		.loc 1 530 33 view .LVU328
 1216 0026 B442     		cmp	r4, r6
 1217 0028 47DB     		blt	.L122
 531:Dsp/widget/wgt_core/UI_Controller.c ****         (start_val > limit_max) ||
ARM GAS  /var/folders/lx/hc4sn_b53233_zkc9xbbl97r0000gp/T//ccQGj1L2.s 			page 33


 1218              		.loc 1 531 33 view .LVU329
 1219 002a 0129     		cmp	r1, #1
 1220 002c 01D9     		bls	.L125
 532:Dsp/widget/wgt_core/UI_Controller.c ****         (mode > SliderBar_Vertical_Mode))
 533:Dsp/widget/wgt_core/UI_Controller.c ****         return false;
 1221              		.loc 1 533 16 view .LVU330
 1222 002e 0020     		movs	r0, #0
 1223              	.LVL104:
 1224              		.loc 1 533 16 view .LVU331
 1225 0030 3FE0     		b	.L118
 1226              	.LVL105:
 1227              	.L125:
 534:Dsp/widget/wgt_core/UI_Controller.c **** 
 535:Dsp/widget/wgt_core/UI_Controller.c ****     Obj->mode = mode;
 1228              		.loc 1 535 5 is_stmt 1 view .LVU332
 1229              		.loc 1 535 15 is_stmt 0 view .LVU333
 1230 0032 0173     		strb	r1, [r0, #12]
 536:Dsp/widget/wgt_core/UI_Controller.c ****     Obj->is_selected = false;
 1231              		.loc 1 536 5 is_stmt 1 view .LVU334
 1232              		.loc 1 536 22 is_stmt 0 view .LVU335
 1233 0034 4FF00009 		mov	r9, #0
 1234 0038 80F82390 		strb	r9, [r0, #35]
 537:Dsp/widget/wgt_core/UI_Controller.c **** 
 538:Dsp/widget/wgt_core/UI_Controller.c ****     UI_GenData_Init(&(Obj->Gen_Data), label, x, y);
 1235              		.loc 1 538 5 is_stmt 1 view .LVU336
 1236 003c BDF92030 		ldrsh	r3, [sp, #32]
 1237              	.LVL106:
 1238              		.loc 1 538 5 is_stmt 0 view .LVU337
 1239 0040 6146     		mov	r1, ip
 1240              	.LVL107:
 1241              		.loc 1 538 5 view .LVU338
 1242 0042 FFF7FEFF 		bl	UI_GenData_Init
 1243              	.LVL108:
 539:Dsp/widget/wgt_core/UI_Controller.c **** 
 540:Dsp/widget/wgt_core/UI_Controller.c ****     Obj->limit_max = limit_max;
 1244              		.loc 1 540 5 is_stmt 1 view .LVU339
 1245              		.loc 1 540 20 is_stmt 0 view .LVU340
 1246 0046 07EE904A 		vmov	s15, r4	@ int
 1247 004a F8EEE77A 		vcvt.f32.s32	s15, s15
 1248 004e 17EE903A 		vmov	r3, s15
 1249 0052 C7F81530 		str	r3, [r7, #21]	@ unaligned
 541:Dsp/widget/wgt_core/UI_Controller.c ****     Obj->limit_min = limit_min;
 1250              		.loc 1 541 5 is_stmt 1 view .LVU341
 1251              		.loc 1 541 20 is_stmt 0 view .LVU342
 1252 0056 07EE905A 		vmov	s15, r5	@ int
 1253 005a F8EEE77A 		vcvt.f32.s32	s15, s15
 1254 005e 17EE903A 		vmov	r3, s15
 1255 0062 C7F81130 		str	r3, [r7, #17]	@ unaligned
 542:Dsp/widget/wgt_core/UI_Controller.c **** 
 543:Dsp/widget/wgt_core/UI_Controller.c ****     Obj->step_len = step_len;
 1256              		.loc 1 543 5 is_stmt 1 view .LVU343
 1257              		.loc 1 543 19 is_stmt 0 view .LVU344
 1258 0066 A7F81D80 		strh	r8, [r7, #29]	@ unaligned
 544:Dsp/widget/wgt_core/UI_Controller.c ****     Obj->scale = (limit_max - limit_min) / (float)step_len;
 1259              		.loc 1 544 5 is_stmt 1 view .LVU345
 1260              		.loc 1 544 29 is_stmt 0 view .LVU346
 1261 006a 641B     		subs	r4, r4, r5
ARM GAS  /var/folders/lx/hc4sn_b53233_zkc9xbbl97r0000gp/T//ccQGj1L2.s 			page 34


 1262              		.loc 1 544 44 view .LVU347
 1263 006c 07EE908A 		vmov	s15, r8	@ int
 1264 0070 B8EEE77A 		vcvt.f32.s32	s14, s15
 1265              		.loc 1 544 42 view .LVU348
 1266 0074 07EE904A 		vmov	s15, r4	@ int
 1267 0078 F8EEE77A 		vcvt.f32.s32	s15, s15
 1268              		.loc 1 544 16 view .LVU349
 1269 007c C7EE877A 		vdiv.f32	s15, s15, s14
 1270 0080 17EE903A 		vmov	r3, s15
 1271 0084 C7F81930 		str	r3, [r7, #25]	@ unaligned
 545:Dsp/widget/wgt_core/UI_Controller.c ****     Obj->cur_val = start_val;
 1272              		.loc 1 545 5 is_stmt 1 view .LVU350
 1273              		.loc 1 545 18 is_stmt 0 view .LVU351
 1274 0088 07EE906A 		vmov	s15, r6	@ int
 1275 008c F8EEE77A 		vcvt.f32.s32	s15, s15
 1276 0090 17EE906A 		vmov	r6, s15
 1277 0094 C7F81F60 		str	r6, [r7, #31]	@ unaligned
 546:Dsp/widget/wgt_core/UI_Controller.c **** 
 547:Dsp/widget/wgt_core/UI_Controller.c ****     Obj->BarCoord_X = 0;
 1278              		.loc 1 547 5 is_stmt 1 view .LVU352
 1279              		.loc 1 547 21 is_stmt 0 view .LVU353
 1280 0098 87F82490 		strb	r9, [r7, #36]
 1281 009c 87F82590 		strb	r9, [r7, #37]
 548:Dsp/widget/wgt_core/UI_Controller.c ****     Obj->BarCoord_Y = 0;
 1282              		.loc 1 548 5 is_stmt 1 view .LVU354
 1283              		.loc 1 548 21 is_stmt 0 view .LVU355
 1284 00a0 87F82690 		strb	r9, [r7, #38]
 1285 00a4 87F82790 		strb	r9, [r7, #39]
 549:Dsp/widget/wgt_core/UI_Controller.c **** 
 550:Dsp/widget/wgt_core/UI_Controller.c ****     return true;
 1286              		.loc 1 550 5 is_stmt 1 view .LVU356
 1287              		.loc 1 550 12 is_stmt 0 view .LVU357
 1288 00a8 0120     		movs	r0, #1
 1289 00aa 02E0     		b	.L118
 1290              	.LVL109:
 1291              	.L119:
 533:Dsp/widget/wgt_core/UI_Controller.c **** 
 1292              		.loc 1 533 16 view .LVU358
 1293 00ac 0020     		movs	r0, #0
 1294              	.LVL110:
 533:Dsp/widget/wgt_core/UI_Controller.c **** 
 1295              		.loc 1 533 16 view .LVU359
 1296 00ae 00E0     		b	.L118
 1297              	.LVL111:
 1298              	.L120:
 533:Dsp/widget/wgt_core/UI_Controller.c **** 
 1299              		.loc 1 533 16 view .LVU360
 1300 00b0 0020     		movs	r0, #0
 1301              	.LVL112:
 1302              	.L118:
 551:Dsp/widget/wgt_core/UI_Controller.c **** }
 1303              		.loc 1 551 1 view .LVU361
 1304 00b2 BDE8F883 		pop	{r3, r4, r5, r6, r7, r8, r9, pc}
 1305              	.LVL113:
 1306              	.L121:
 533:Dsp/widget/wgt_core/UI_Controller.c **** 
 1307              		.loc 1 533 16 view .LVU362
ARM GAS  /var/folders/lx/hc4sn_b53233_zkc9xbbl97r0000gp/T//ccQGj1L2.s 			page 35


 1308 00b6 0020     		movs	r0, #0
 1309              	.LVL114:
 533:Dsp/widget/wgt_core/UI_Controller.c **** 
 1310              		.loc 1 533 16 view .LVU363
 1311 00b8 FBE7     		b	.L118
 1312              	.LVL115:
 1313              	.L122:
 533:Dsp/widget/wgt_core/UI_Controller.c **** 
 1314              		.loc 1 533 16 view .LVU364
 1315 00ba 0020     		movs	r0, #0
 1316              	.LVL116:
 533:Dsp/widget/wgt_core/UI_Controller.c **** 
 1317              		.loc 1 533 16 view .LVU365
 1318 00bc F9E7     		b	.L118
 1319              		.cfi_endproc
 1320              	.LFE22:
 1322              		.section	.text.UI_SlideBar_Move,"ax",%progbits
 1323              		.align	1
 1324              		.syntax unified
 1325              		.thumb
 1326              		.thumb_func
 1327              		.fpu fpv4-sp-d16
 1329              	UI_SlideBar_Move:
 1330              	.LVL117:
 1331              	.LFB23:
 552:Dsp/widget/wgt_core/UI_Controller.c **** 
 553:Dsp/widget/wgt_core/UI_Controller.c **** static bool UI_SlideBar_Move(UI_SlideBarObj_TypeDef *Obj, int16_t x, int16_t y)
 554:Dsp/widget/wgt_core/UI_Controller.c **** {
 1332              		.loc 1 554 1 is_stmt 1 view -0
 1333              		.cfi_startproc
 1334              		@ args = 0, pretend = 0, frame = 0
 1335              		@ frame_needed = 0, uses_anonymous_args = 0
 555:Dsp/widget/wgt_core/UI_Controller.c ****     if (Obj == NULL)
 1336              		.loc 1 555 5 view .LVU367
 1337              		.loc 1 555 8 is_stmt 0 view .LVU368
 1338 0000 18B1     		cbz	r0, .L128
 554:Dsp/widget/wgt_core/UI_Controller.c ****     if (Obj == NULL)
 1339              		.loc 1 554 1 view .LVU369
 1340 0002 08B5     		push	{r3, lr}
 1341              	.LCFI24:
 1342              		.cfi_def_cfa_offset 8
 1343              		.cfi_offset 3, -8
 1344              		.cfi_offset 14, -4
 556:Dsp/widget/wgt_core/UI_Controller.c ****         return false;
 557:Dsp/widget/wgt_core/UI_Controller.c **** 
 558:Dsp/widget/wgt_core/UI_Controller.c ****     return UI_Move(&(Obj->Gen_Data), x, y);
 1345              		.loc 1 558 5 is_stmt 1 view .LVU370
 1346              		.loc 1 558 12 is_stmt 0 view .LVU371
 1347 0004 FFF7FEFF 		bl	UI_Move
 1348              	.LVL118:
 559:Dsp/widget/wgt_core/UI_Controller.c **** }
 1349              		.loc 1 559 1 view .LVU372
 1350 0008 08BD     		pop	{r3, pc}
 1351              	.LVL119:
 1352              	.L128:
 1353              	.LCFI25:
 1354              		.cfi_def_cfa_offset 0
ARM GAS  /var/folders/lx/hc4sn_b53233_zkc9xbbl97r0000gp/T//ccQGj1L2.s 			page 36


 1355              		.cfi_restore 3
 1356              		.cfi_restore 14
 556:Dsp/widget/wgt_core/UI_Controller.c ****         return false;
 1357              		.loc 1 556 16 view .LVU373
 1358 000a 0020     		movs	r0, #0
 1359              	.LVL120:
 1360              		.loc 1 559 1 view .LVU374
 1361 000c 7047     		bx	lr
 1362              		.cfi_endproc
 1363              	.LFE23:
 1365              		.section	.text.UI_SlideBar_SetCallBack,"ax",%progbits
 1366              		.align	1
 1367              		.syntax unified
 1368              		.thumb
 1369              		.thumb_func
 1370              		.fpu fpv4-sp-d16
 1372              	UI_SlideBar_SetCallBack:
 1373              	.LVL121:
 1374              	.LFB24:
 560:Dsp/widget/wgt_core/UI_Controller.c **** 
 561:Dsp/widget/wgt_core/UI_Controller.c **** static bool UI_SlideBar_SetCallBack(UI_SlideBarObj_TypeDef *Obj, UI_SliderBarTrigger_Callback callb
 562:Dsp/widget/wgt_core/UI_Controller.c **** {
 1375              		.loc 1 562 1 is_stmt 1 view -0
 1376              		.cfi_startproc
 1377              		@ args = 0, pretend = 0, frame = 0
 1378              		@ frame_needed = 0, uses_anonymous_args = 0
 1379              		@ link register save eliminated.
 563:Dsp/widget/wgt_core/UI_Controller.c ****     if (Obj == NULL)
 1380              		.loc 1 563 5 view .LVU376
 1381              		.loc 1 563 8 is_stmt 0 view .LVU377
 1382 0000 18B1     		cbz	r0, .L135
 564:Dsp/widget/wgt_core/UI_Controller.c ****         return false;
 565:Dsp/widget/wgt_core/UI_Controller.c **** 
 566:Dsp/widget/wgt_core/UI_Controller.c ****     Obj->callback = callback;
 1383              		.loc 1 566 5 is_stmt 1 view .LVU378
 1384              		.loc 1 566 19 is_stmt 0 view .LVU379
 1385 0002 C0F80D10 		str	r1, [r0, #13]	@ unaligned
 567:Dsp/widget/wgt_core/UI_Controller.c **** 
 568:Dsp/widget/wgt_core/UI_Controller.c ****     return true;
 1386              		.loc 1 568 5 is_stmt 1 view .LVU380
 1387              		.loc 1 568 12 is_stmt 0 view .LVU381
 1388 0006 0120     		movs	r0, #1
 1389              	.LVL122:
 1390              		.loc 1 568 12 view .LVU382
 1391 0008 7047     		bx	lr
 1392              	.LVL123:
 1393              	.L135:
 564:Dsp/widget/wgt_core/UI_Controller.c ****         return false;
 1394              		.loc 1 564 16 view .LVU383
 1395 000a 0020     		movs	r0, #0
 1396              	.LVL124:
 569:Dsp/widget/wgt_core/UI_Controller.c **** }
 1397              		.loc 1 569 1 view .LVU384
 1398 000c 7047     		bx	lr
 1399              		.cfi_endproc
 1400              	.LFE24:
 1402              		.section	.text.UI_SlideBar_Input,"ax",%progbits
ARM GAS  /var/folders/lx/hc4sn_b53233_zkc9xbbl97r0000gp/T//ccQGj1L2.s 			page 37


 1403              		.align	1
 1404              		.syntax unified
 1405              		.thumb
 1406              		.thumb_func
 1407              		.fpu fpv4-sp-d16
 1409              	UI_SlideBar_Input:
 1410              	.LVL125:
 1411              	.LFB25:
 570:Dsp/widget/wgt_core/UI_Controller.c **** 
 571:Dsp/widget/wgt_core/UI_Controller.c **** static bool UI_SlideBar_Input(UI_SlideBarObj_TypeDef *Obj, int16_t *step)
 572:Dsp/widget/wgt_core/UI_Controller.c **** {
 1412              		.loc 1 572 1 is_stmt 1 view -0
 1413              		.cfi_startproc
 1414              		@ args = 0, pretend = 0, frame = 0
 1415              		@ frame_needed = 0, uses_anonymous_args = 0
 1416              		@ link register save eliminated.
 573:Dsp/widget/wgt_core/UI_Controller.c ****     float val_tmp = 0;
 1417              		.loc 1 573 5 view .LVU386
 574:Dsp/widget/wgt_core/UI_Controller.c **** 
 575:Dsp/widget/wgt_core/UI_Controller.c ****     if ((Obj == NULL) || (step == NULL))
 1418              		.loc 1 575 5 view .LVU387
 1419              		.loc 1 575 8 is_stmt 0 view .LVU388
 1420 0000 0346     		mov	r3, r0
 1421 0002 90B3     		cbz	r0, .L143
 1422              		.loc 1 575 23 discriminator 1 view .LVU389
 1423 0004 99B3     		cbz	r1, .L144
 576:Dsp/widget/wgt_core/UI_Controller.c ****         return false;
 577:Dsp/widget/wgt_core/UI_Controller.c **** 
 578:Dsp/widget/wgt_core/UI_Controller.c ****     val_tmp = Obj->cur_val + ((*step) * Obj->scale);
 1424              		.loc 1 578 5 is_stmt 1 view .LVU390
 1425              		.loc 1 578 18 is_stmt 0 view .LVU391
 1426 0006 D0F81F20 		ldr	r2, [r0, #31]	@ unaligned
 1427              		.loc 1 578 32 view .LVU392
 1428 000a B1F90000 		ldrsh	r0, [r1]
 1429              	.LVL126:
 1430              		.loc 1 578 32 view .LVU393
 1431 000e 07EE900A 		vmov	s15, r0	@ int
 1432              		.loc 1 578 44 view .LVU394
 1433 0012 D3F81900 		ldr	r0, [r3, #25]	@ unaligned
 1434              		.loc 1 578 39 view .LVU395
 1435 0016 B8EEE77A 		vcvt.f32.s32	s14, s15
 1436 001a 07EE900A 		vmov	s15, r0
 1437 001e 67EE277A 		vmul.f32	s15, s14, s15
 1438              		.loc 1 578 13 view .LVU396
 1439 0022 07EE102A 		vmov	s14, r2
 1440 0026 77EE277A 		vadd.f32	s15, s14, s15
 1441              	.LVL127:
 579:Dsp/widget/wgt_core/UI_Controller.c **** 
 580:Dsp/widget/wgt_core/UI_Controller.c ****     if (val_tmp >= Obj->limit_max)
 1442              		.loc 1 580 5 is_stmt 1 view .LVU397
 1443              		.loc 1 580 23 is_stmt 0 view .LVU398
 1444 002a D3F81520 		ldr	r2, [r3, #21]	@ unaligned
 1445              		.loc 1 580 8 view .LVU399
 1446 002e 07EE102A 		vmov	s14, r2
 1447 0032 B4EEE77A 		vcmpe.f32	s14, s15
 1448 0036 F1EE10FA 		vmrs	APSR_nzcv, FPSCR
 1449 003a 05D8     		bhi	.L147
ARM GAS  /var/folders/lx/hc4sn_b53233_zkc9xbbl97r0000gp/T//ccQGj1L2.s 			page 38


 581:Dsp/widget/wgt_core/UI_Controller.c ****     {
 582:Dsp/widget/wgt_core/UI_Controller.c ****         Obj->cur_val = Obj->limit_max;
 1450              		.loc 1 582 9 is_stmt 1 view .LVU400
 1451              		.loc 1 582 22 is_stmt 0 view .LVU401
 1452 003c C3F81F20 		str	r2, [r3, #31]	@ unaligned
 1453              	.L140:
 583:Dsp/widget/wgt_core/UI_Controller.c ****     }
 584:Dsp/widget/wgt_core/UI_Controller.c ****     else if (val_tmp <= Obj->limit_min)
 585:Dsp/widget/wgt_core/UI_Controller.c ****     {
 586:Dsp/widget/wgt_core/UI_Controller.c ****         Obj->cur_val = Obj->limit_min;
 587:Dsp/widget/wgt_core/UI_Controller.c ****     }
 588:Dsp/widget/wgt_core/UI_Controller.c ****     else
 589:Dsp/widget/wgt_core/UI_Controller.c ****         Obj->cur_val = val_tmp;
 590:Dsp/widget/wgt_core/UI_Controller.c **** 
 591:Dsp/widget/wgt_core/UI_Controller.c ****     (*step) = 0;
 1454              		.loc 1 591 5 is_stmt 1 view .LVU402
 1455              		.loc 1 591 13 is_stmt 0 view .LVU403
 1456 0040 0023     		movs	r3, #0
 1457              	.LVL128:
 1458              		.loc 1 591 13 view .LVU404
 1459 0042 0B80     		strh	r3, [r1]	@ movhi
 592:Dsp/widget/wgt_core/UI_Controller.c **** 
 593:Dsp/widget/wgt_core/UI_Controller.c ****     return true;
 1460              		.loc 1 593 5 is_stmt 1 view .LVU405
 1461              		.loc 1 593 12 is_stmt 0 view .LVU406
 1462 0044 0120     		movs	r0, #1
 1463 0046 7047     		bx	lr
 1464              	.LVL129:
 1465              	.L147:
 584:Dsp/widget/wgt_core/UI_Controller.c ****     {
 1466              		.loc 1 584 10 is_stmt 1 view .LVU407
 584:Dsp/widget/wgt_core/UI_Controller.c ****     {
 1467              		.loc 1 584 28 is_stmt 0 view .LVU408
 1468 0048 D3F81120 		ldr	r2, [r3, #17]	@ unaligned
 584:Dsp/widget/wgt_core/UI_Controller.c ****     {
 1469              		.loc 1 584 13 view .LVU409
 1470 004c 07EE102A 		vmov	s14, r2
 1471 0050 B4EEE77A 		vcmpe.f32	s14, s15
 1472 0054 F1EE10FA 		vmrs	APSR_nzcv, FPSCR
 1473 0058 02DB     		blt	.L148
 586:Dsp/widget/wgt_core/UI_Controller.c ****     }
 1474              		.loc 1 586 9 is_stmt 1 view .LVU410
 586:Dsp/widget/wgt_core/UI_Controller.c ****     }
 1475              		.loc 1 586 22 is_stmt 0 view .LVU411
 1476 005a C3F81F20 		str	r2, [r3, #31]	@ unaligned
 1477 005e EFE7     		b	.L140
 1478              	.L148:
 589:Dsp/widget/wgt_core/UI_Controller.c **** 
 1479              		.loc 1 589 9 is_stmt 1 view .LVU412
 589:Dsp/widget/wgt_core/UI_Controller.c **** 
 1480              		.loc 1 589 22 is_stmt 0 view .LVU413
 1481 0060 17EE902A 		vmov	r2, s15
 1482 0064 C3F81F20 		str	r2, [r3, #31]	@ unaligned
 1483 0068 EAE7     		b	.L140
 1484              	.LVL130:
 1485              	.L143:
 576:Dsp/widget/wgt_core/UI_Controller.c **** 
ARM GAS  /var/folders/lx/hc4sn_b53233_zkc9xbbl97r0000gp/T//ccQGj1L2.s 			page 39


 1486              		.loc 1 576 16 view .LVU414
 1487 006a 0020     		movs	r0, #0
 1488              	.LVL131:
 576:Dsp/widget/wgt_core/UI_Controller.c **** 
 1489              		.loc 1 576 16 view .LVU415
 1490 006c 7047     		bx	lr
 1491              	.LVL132:
 1492              	.L144:
 576:Dsp/widget/wgt_core/UI_Controller.c **** 
 1493              		.loc 1 576 16 view .LVU416
 1494 006e 0020     		movs	r0, #0
 1495              	.LVL133:
 594:Dsp/widget/wgt_core/UI_Controller.c **** }
 1496              		.loc 1 594 1 view .LVU417
 1497 0070 7047     		bx	lr
 1498              		.cfi_endproc
 1499              	.LFE25:
 1501              		.section	.text.UI_SlideBar_Trigger,"ax",%progbits
 1502              		.align	1
 1503              		.syntax unified
 1504              		.thumb
 1505              		.thumb_func
 1506              		.fpu fpv4-sp-d16
 1508              	UI_SlideBar_Trigger:
 1509              	.LVL134:
 1510              	.LFB26:
 595:Dsp/widget/wgt_core/UI_Controller.c **** 
 596:Dsp/widget/wgt_core/UI_Controller.c **** static bool UI_SlideBar_Trigger(UI_SlideBarObj_TypeDef *Obj)
 597:Dsp/widget/wgt_core/UI_Controller.c **** {
 1511              		.loc 1 597 1 is_stmt 1 view -0
 1512              		.cfi_startproc
 1513              		@ args = 0, pretend = 0, frame = 0
 1514              		@ frame_needed = 0, uses_anonymous_args = 0
 598:Dsp/widget/wgt_core/UI_Controller.c ****     if (Obj == NULL)
 1515              		.loc 1 598 5 view .LVU419
 1516              		.loc 1 598 8 is_stmt 0 view .LVU420
 1517 0000 78B1     		cbz	r0, .L151
 597:Dsp/widget/wgt_core/UI_Controller.c ****     if (Obj == NULL)
 1518              		.loc 1 597 1 view .LVU421
 1519 0002 08B5     		push	{r3, lr}
 1520              	.LCFI26:
 1521              		.cfi_def_cfa_offset 8
 1522              		.cfi_offset 3, -8
 1523              		.cfi_offset 14, -4
 599:Dsp/widget/wgt_core/UI_Controller.c ****         return false;
 600:Dsp/widget/wgt_core/UI_Controller.c **** 
 601:Dsp/widget/wgt_core/UI_Controller.c ****     if (Obj->callback != NULL)
 1524              		.loc 1 601 5 is_stmt 1 view .LVU422
 1525              		.loc 1 601 12 is_stmt 0 view .LVU423
 1526 0004 D0F80D20 		ldr	r2, [r0, #13]	@ unaligned
 1527              		.loc 1 601 8 view .LVU424
 1528 0008 6AB1     		cbz	r2, .L152
 602:Dsp/widget/wgt_core/UI_Controller.c ****         Obj->callback(Obj->cur_val);
 1529              		.loc 1 602 9 is_stmt 1 view .LVU425
 1530              		.loc 1 602 26 is_stmt 0 view .LVU426
 1531 000a D0F81F30 		ldr	r3, [r0, #31]	@ unaligned
 1532 000e 07EE903A 		vmov	s15, r3	@ int
ARM GAS  /var/folders/lx/hc4sn_b53233_zkc9xbbl97r0000gp/T//ccQGj1L2.s 			page 40


 1533              		.loc 1 602 9 view .LVU427
 1534 0012 FDEEE77A 		vcvt.s32.f32	s15, s15
 1535 0016 17EE903A 		vmov	r3, s15	@ int
 1536 001a 18B2     		sxth	r0, r3
 1537              	.LVL135:
 1538              		.loc 1 602 9 view .LVU428
 1539 001c 9047     		blx	r2
 1540              	.LVL136:
 603:Dsp/widget/wgt_core/UI_Controller.c **** 
 604:Dsp/widget/wgt_core/UI_Controller.c ****     return true;
 1541              		.loc 1 604 12 view .LVU429
 1542 001e 0120     		movs	r0, #1
 1543              	.L150:
 605:Dsp/widget/wgt_core/UI_Controller.c **** }
 1544              		.loc 1 605 1 view .LVU430
 1545 0020 08BD     		pop	{r3, pc}
 1546              	.LVL137:
 1547              	.L151:
 1548              	.LCFI27:
 1549              		.cfi_def_cfa_offset 0
 1550              		.cfi_restore 3
 1551              		.cfi_restore 14
 599:Dsp/widget/wgt_core/UI_Controller.c **** 
 1552              		.loc 1 599 16 view .LVU431
 1553 0022 0020     		movs	r0, #0
 1554              	.LVL138:
 1555              		.loc 1 605 1 view .LVU432
 1556 0024 7047     		bx	lr
 1557              	.LVL139:
 1558              	.L152:
 1559              	.LCFI28:
 1560              		.cfi_def_cfa_offset 8
 1561              		.cfi_offset 3, -8
 1562              		.cfi_offset 14, -4
 604:Dsp/widget/wgt_core/UI_Controller.c **** }
 1563              		.loc 1 604 12 view .LVU433
 1564 0026 0120     		movs	r0, #1
 1565              	.LVL140:
 604:Dsp/widget/wgt_core/UI_Controller.c **** }
 1566              		.loc 1 604 12 view .LVU434
 1567 0028 FAE7     		b	.L150
 1568              		.cfi_endproc
 1569              	.LFE26:
 1571              		.section	.text.UI_SlideBar_SetSelect,"ax",%progbits
 1572              		.align	1
 1573              		.syntax unified
 1574              		.thumb
 1575              		.thumb_func
 1576              		.fpu fpv4-sp-d16
 1578              	UI_SlideBar_SetSelect:
 1579              	.LVL141:
 1580              	.LFB28:
 606:Dsp/widget/wgt_core/UI_Controller.c **** 
 607:Dsp/widget/wgt_core/UI_Controller.c **** static bool UI_SlideBar_CTL(UI_SlideBarObj_TypeDef *Obj)
 608:Dsp/widget/wgt_core/UI_Controller.c **** {
 609:Dsp/widget/wgt_core/UI_Controller.c ****     int16_t Block_CoordX = 0;
 610:Dsp/widget/wgt_core/UI_Controller.c ****     int16_t Block_CoordY = 0;
ARM GAS  /var/folders/lx/hc4sn_b53233_zkc9xbbl97r0000gp/T//ccQGj1L2.s 			page 41


 611:Dsp/widget/wgt_core/UI_Controller.c ****     int16_t input_trip = 0;
 612:Dsp/widget/wgt_core/UI_Controller.c ****     int16_t str_y = Obj->Gen_Data.y;
 613:Dsp/widget/wgt_core/UI_Controller.c **** 
 614:Dsp/widget/wgt_core/UI_Controller.c ****     if ((Obj == NULL) ||
 615:Dsp/widget/wgt_core/UI_Controller.c ****         (UI_DspInterface.draw_str == NULL) ||
 616:Dsp/widget/wgt_core/UI_Controller.c ****         (UI_DspInterface.fill_rectangle == NULL))
 617:Dsp/widget/wgt_core/UI_Controller.c ****         return false;
 618:Dsp/widget/wgt_core/UI_Controller.c **** 
 619:Dsp/widget/wgt_core/UI_Controller.c ****     if (base_font == Font_8)
 620:Dsp/widget/wgt_core/UI_Controller.c ****         str_y += 1;
 621:Dsp/widget/wgt_core/UI_Controller.c **** 
 622:Dsp/widget/wgt_core/UI_Controller.c ****     input_trip = Obj->limit_max - Obj->limit_min;
 623:Dsp/widget/wgt_core/UI_Controller.c **** 
 624:Dsp/widget/wgt_core/UI_Controller.c ****     UI_DspInterface.draw_str(base_font, Obj->Gen_Data.label, Obj->Gen_Data.x + 3, str_y, true);
 625:Dsp/widget/wgt_core/UI_Controller.c **** 
 626:Dsp/widget/wgt_core/UI_Controller.c ****     if (Obj->mode == SliderBar_Horizon_Mode)
 627:Dsp/widget/wgt_core/UI_Controller.c ****     {
 628:Dsp/widget/wgt_core/UI_Controller.c ****         if (Obj->BarCoord_X == 0)
 629:Dsp/widget/wgt_core/UI_Controller.c ****         {
 630:Dsp/widget/wgt_core/UI_Controller.c ****             Obj->BarCoord_X = Obj->Gen_Data.x + strlen(Obj->Gen_Data.label) * STR_DIS + DEFAULT_SLI
 631:Dsp/widget/wgt_core/UI_Controller.c ****         }
 632:Dsp/widget/wgt_core/UI_Controller.c **** 
 633:Dsp/widget/wgt_core/UI_Controller.c ****         if (Obj->BarCoord_Y == 0)
 634:Dsp/widget/wgt_core/UI_Controller.c ****         {
 635:Dsp/widget/wgt_core/UI_Controller.c ****             Obj->BarCoord_Y = Obj->Gen_Data.y + 5;
 636:Dsp/widget/wgt_core/UI_Controller.c ****         }
 637:Dsp/widget/wgt_core/UI_Controller.c **** 
 638:Dsp/widget/wgt_core/UI_Controller.c ****         Block_CoordX = Obj->BarCoord_X;
 639:Dsp/widget/wgt_core/UI_Controller.c ****         Block_CoordX += (Obj->cur_val - Obj->limit_min) / ((float)(input_trip)) * (DEFAULT_SLIDERBA
 640:Dsp/widget/wgt_core/UI_Controller.c **** 
 641:Dsp/widget/wgt_core/UI_Controller.c ****         UI_DspInterface.fill_rectangle(Obj->BarCoord_X, Obj->BarCoord_Y, DEFAULT_SLIDERBAR_LEN, DEF
 642:Dsp/widget/wgt_core/UI_Controller.c **** 
 643:Dsp/widget/wgt_core/UI_Controller.c ****         Block_CoordY = Obj->Gen_Data.y + 3;
 644:Dsp/widget/wgt_core/UI_Controller.c ****         UI_DspInterface.fill_rectangle(Block_CoordX, Block_CoordY, DEFAULT_SLIDERBAR_BLOCK_WIDTH, D
 645:Dsp/widget/wgt_core/UI_Controller.c ****         UI_DspInterface.fill_rectangle(Block_CoordX, Block_CoordY + (DEFAULT_SLIDERBAR_BLOCK_HIGH /
 646:Dsp/widget/wgt_core/UI_Controller.c ****     }
 647:Dsp/widget/wgt_core/UI_Controller.c ****     else if (Obj->mode == SliderBar_Vertical_Mode)
 648:Dsp/widget/wgt_core/UI_Controller.c ****     {
 649:Dsp/widget/wgt_core/UI_Controller.c ****     }
 650:Dsp/widget/wgt_core/UI_Controller.c ****     else
 651:Dsp/widget/wgt_core/UI_Controller.c ****         return false;
 652:Dsp/widget/wgt_core/UI_Controller.c **** 
 653:Dsp/widget/wgt_core/UI_Controller.c ****     return true;
 654:Dsp/widget/wgt_core/UI_Controller.c **** }
 655:Dsp/widget/wgt_core/UI_Controller.c **** 
 656:Dsp/widget/wgt_core/UI_Controller.c **** static void UI_SlideBar_SetSelect(UI_SlideBarObj_TypeDef *Obj, bool select)
 657:Dsp/widget/wgt_core/UI_Controller.c **** {
 1581              		.loc 1 657 1 is_stmt 1 view -0
 1582              		.cfi_startproc
 1583              		@ args = 0, pretend = 0, frame = 0
 1584              		@ frame_needed = 0, uses_anonymous_args = 0
 1585              		@ link register save eliminated.
 658:Dsp/widget/wgt_core/UI_Controller.c ****     if (Obj == NULL)
 1586              		.loc 1 658 5 view .LVU436
 1587              		.loc 1 658 8 is_stmt 0 view .LVU437
 1588 0000 10B1     		cbz	r0, .L157
 659:Dsp/widget/wgt_core/UI_Controller.c ****         return;
ARM GAS  /var/folders/lx/hc4sn_b53233_zkc9xbbl97r0000gp/T//ccQGj1L2.s 			page 42


 660:Dsp/widget/wgt_core/UI_Controller.c **** 
 661:Dsp/widget/wgt_core/UI_Controller.c ****     Obj->is_selected = true;
 1589              		.loc 1 661 5 is_stmt 1 view .LVU438
 1590              		.loc 1 661 22 is_stmt 0 view .LVU439
 1591 0002 0122     		movs	r2, #1
 1592 0004 80F82320 		strb	r2, [r0, #35]
 1593              	.L157:
 662:Dsp/widget/wgt_core/UI_Controller.c **** }
 1594              		.loc 1 662 1 view .LVU440
 1595 0008 7047     		bx	lr
 1596              		.cfi_endproc
 1597              	.LFE28:
 1599              		.section	.text.UI_SlideBar_IsSelected,"ax",%progbits
 1600              		.align	1
 1601              		.syntax unified
 1602              		.thumb
 1603              		.thumb_func
 1604              		.fpu fpv4-sp-d16
 1606              	UI_SlideBar_IsSelected:
 1607              	.LVL142:
 1608              	.LFB29:
 663:Dsp/widget/wgt_core/UI_Controller.c **** 
 664:Dsp/widget/wgt_core/UI_Controller.c **** static bool UI_SlideBar_IsSelected(UI_SlideBarObj_TypeDef *Obj)
 665:Dsp/widget/wgt_core/UI_Controller.c **** {
 1609              		.loc 1 665 1 is_stmt 1 view -0
 1610              		.cfi_startproc
 1611              		@ args = 0, pretend = 0, frame = 0
 1612              		@ frame_needed = 0, uses_anonymous_args = 0
 1613              		@ link register save eliminated.
 666:Dsp/widget/wgt_core/UI_Controller.c ****     if (Obj == NULL)
 1614              		.loc 1 666 5 view .LVU442
 1615              		.loc 1 666 8 is_stmt 0 view .LVU443
 1616 0000 10B1     		cbz	r0, .L161
 667:Dsp/widget/wgt_core/UI_Controller.c ****         return false;
 668:Dsp/widget/wgt_core/UI_Controller.c **** 
 669:Dsp/widget/wgt_core/UI_Controller.c ****     return Obj->is_selected;
 1617              		.loc 1 669 5 is_stmt 1 view .LVU444
 1618              		.loc 1 669 15 is_stmt 0 view .LVU445
 1619 0002 90F82300 		ldrb	r0, [r0, #35]	@ zero_extendqisi2
 1620              	.LVL143:
 1621              		.loc 1 669 15 view .LVU446
 1622 0006 7047     		bx	lr
 1623              	.LVL144:
 1624              	.L161:
 667:Dsp/widget/wgt_core/UI_Controller.c ****         return false;
 1625              		.loc 1 667 16 view .LVU447
 1626 0008 0020     		movs	r0, #0
 1627              	.LVL145:
 670:Dsp/widget/wgt_core/UI_Controller.c **** }
 1628              		.loc 1 670 1 view .LVU448
 1629 000a 7047     		bx	lr
 1630              		.cfi_endproc
 1631              	.LFE29:
 1633              		.section	.text.UI_ProcessBar_Init,"ax",%progbits
 1634              		.align	1
 1635              		.syntax unified
 1636              		.thumb
ARM GAS  /var/folders/lx/hc4sn_b53233_zkc9xbbl97r0000gp/T//ccQGj1L2.s 			page 43


 1637              		.thumb_func
 1638              		.fpu fpv4-sp-d16
 1640              	UI_ProcessBar_Init:
 1641              	.LVL146:
 1642              	.LFB30:
 671:Dsp/widget/wgt_core/UI_Controller.c **** 
 672:Dsp/widget/wgt_core/UI_Controller.c **** static bool UI_ProcessBar_Init(UI_ProcessBarObj_TypeDef *Obj, UI_ProcessBar_DspType_List dsp_type, 
 673:Dsp/widget/wgt_core/UI_Controller.c **** {
 1643              		.loc 1 673 1 is_stmt 1 view -0
 1644              		.cfi_startproc
 1645              		@ args = 16, pretend = 0, frame = 0
 1646              		@ frame_needed = 0, uses_anonymous_args = 0
 1647              		.loc 1 673 1 is_stmt 0 view .LVU450
 1648 0000 F8B5     		push	{r3, r4, r5, r6, r7, lr}
 1649              	.LCFI29:
 1650              		.cfi_def_cfa_offset 24
 1651              		.cfi_offset 3, -24
 1652              		.cfi_offset 4, -20
 1653              		.cfi_offset 5, -16
 1654              		.cfi_offset 6, -12
 1655              		.cfi_offset 7, -8
 1656              		.cfi_offset 14, -4
 1657 0002 089F     		ldr	r7, [sp, #32]
 1658 0004 099D     		ldr	r5, [sp, #36]
 674:Dsp/widget/wgt_core/UI_Controller.c ****     if ((Obj == NULL) || (min > max))
 1659              		.loc 1 674 5 is_stmt 1 view .LVU451
 1660              		.loc 1 674 8 is_stmt 0 view .LVU452
 1661 0006 B0B3     		cbz	r0, .L167
 1662 0008 0E46     		mov	r6, r1
 1663 000a 1146     		mov	r1, r2
 1664              	.LVL147:
 1665              		.loc 1 674 8 view .LVU453
 1666 000c 1A46     		mov	r2, r3
 1667              	.LVL148:
 1668              		.loc 1 674 8 view .LVU454
 1669 000e 0446     		mov	r4, r0
 1670              		.loc 1 674 23 discriminator 1 view .LVU455
 1671 0010 AF42     		cmp	r7, r5
 1672 0012 01DD     		ble	.L170
 675:Dsp/widget/wgt_core/UI_Controller.c ****         return false;
 1673              		.loc 1 675 16 view .LVU456
 1674 0014 0020     		movs	r0, #0
 1675              	.LVL149:
 1676              	.L163:
 676:Dsp/widget/wgt_core/UI_Controller.c **** 
 677:Dsp/widget/wgt_core/UI_Controller.c ****     UI_GenData_Init(&Obj->Gen_Data, label, x, y);
 678:Dsp/widget/wgt_core/UI_Controller.c **** 
 679:Dsp/widget/wgt_core/UI_Controller.c ****     Obj->width = width;
 680:Dsp/widget/wgt_core/UI_Controller.c **** 
 681:Dsp/widget/wgt_core/UI_Controller.c ****     switch (base_font)
 682:Dsp/widget/wgt_core/UI_Controller.c ****     {
 683:Dsp/widget/wgt_core/UI_Controller.c ****     case Font_8:
 684:Dsp/widget/wgt_core/UI_Controller.c ****         Obj->height = base_font + 6;
 685:Dsp/widget/wgt_core/UI_Controller.c ****         break;
 686:Dsp/widget/wgt_core/UI_Controller.c **** 
 687:Dsp/widget/wgt_core/UI_Controller.c ****     case Font_12:
 688:Dsp/widget/wgt_core/UI_Controller.c ****     case Font_16:
ARM GAS  /var/folders/lx/hc4sn_b53233_zkc9xbbl97r0000gp/T//ccQGj1L2.s 			page 44


 689:Dsp/widget/wgt_core/UI_Controller.c ****         /* need modify */
 690:Dsp/widget/wgt_core/UI_Controller.c ****         Obj->height = base_font + 6;
 691:Dsp/widget/wgt_core/UI_Controller.c ****         break;
 692:Dsp/widget/wgt_core/UI_Controller.c **** 
 693:Dsp/widget/wgt_core/UI_Controller.c ****     default:
 694:Dsp/widget/wgt_core/UI_Controller.c ****         Obj->height = base_font + 6;
 695:Dsp/widget/wgt_core/UI_Controller.c ****         break;
 696:Dsp/widget/wgt_core/UI_Controller.c ****     }
 697:Dsp/widget/wgt_core/UI_Controller.c **** 
 698:Dsp/widget/wgt_core/UI_Controller.c ****     Obj->height = base_font + 6;
 699:Dsp/widget/wgt_core/UI_Controller.c **** 
 700:Dsp/widget/wgt_core/UI_Controller.c ****     Obj->cur_val = 0;
 701:Dsp/widget/wgt_core/UI_Controller.c ****     Obj->max = max;
 702:Dsp/widget/wgt_core/UI_Controller.c ****     Obj->min = min;
 703:Dsp/widget/wgt_core/UI_Controller.c ****     Obj->range = max - min;
 704:Dsp/widget/wgt_core/UI_Controller.c **** 
 705:Dsp/widget/wgt_core/UI_Controller.c ****     Obj->percent = 0.0;
 706:Dsp/widget/wgt_core/UI_Controller.c **** 
 707:Dsp/widget/wgt_core/UI_Controller.c ****     Obj->Dsp_Type = dsp_type;
 708:Dsp/widget/wgt_core/UI_Controller.c ****     Obj->Mv_Dir = UI_ProcBar_GrothDir_Default;
 709:Dsp/widget/wgt_core/UI_Controller.c **** 
 710:Dsp/widget/wgt_core/UI_Controller.c ****     return true;
 711:Dsp/widget/wgt_core/UI_Controller.c **** }
 1677              		.loc 1 711 1 view .LVU457
 1678 0016 F8BD     		pop	{r3, r4, r5, r6, r7, pc}
 1679              	.LVL150:
 1680              	.L170:
 677:Dsp/widget/wgt_core/UI_Controller.c **** 
 1681              		.loc 1 677 5 is_stmt 1 view .LVU458
 1682 0018 BDF91830 		ldrsh	r3, [sp, #24]
 1683              	.LVL151:
 677:Dsp/widget/wgt_core/UI_Controller.c **** 
 1684              		.loc 1 677 5 is_stmt 0 view .LVU459
 1685 001c FFF7FEFF 		bl	UI_GenData_Init
 1686              	.LVL152:
 679:Dsp/widget/wgt_core/UI_Controller.c **** 
 1687              		.loc 1 679 5 is_stmt 1 view .LVU460
 679:Dsp/widget/wgt_core/UI_Controller.c **** 
 1688              		.loc 1 679 16 is_stmt 0 view .LVU461
 1689 0020 9DF81C30 		ldrb	r3, [sp, #28]	@ zero_extendqisi2
 1690 0024 84F82030 		strb	r3, [r4, #32]
 681:Dsp/widget/wgt_core/UI_Controller.c ****     {
 1691              		.loc 1 681 5 is_stmt 1 view .LVU462
 1692 0028 144B     		ldr	r3, .L172
 1693 002a 1B78     		ldrb	r3, [r3]	@ zero_extendqisi2
 1694 002c 0C2B     		cmp	r3, #12
 1695 002e 1ED0     		beq	.L164
 1696 0030 102B     		cmp	r3, #16
 1697 0032 1CD0     		beq	.L164
 1698 0034 082B     		cmp	r3, #8
 1699 0036 03D0     		beq	.L171
 694:Dsp/widget/wgt_core/UI_Controller.c ****         break;
 1700              		.loc 1 694 9 view .LVU463
 694:Dsp/widget/wgt_core/UI_Controller.c ****         break;
 1701              		.loc 1 694 33 is_stmt 0 view .LVU464
 1702 0038 9A1D     		adds	r2, r3, #6
 694:Dsp/widget/wgt_core/UI_Controller.c ****         break;
ARM GAS  /var/folders/lx/hc4sn_b53233_zkc9xbbl97r0000gp/T//ccQGj1L2.s 			page 45


 1703              		.loc 1 694 21 view .LVU465
 1704 003a 84F82120 		strb	r2, [r4, #33]
 695:Dsp/widget/wgt_core/UI_Controller.c ****     }
 1705              		.loc 1 695 9 is_stmt 1 view .LVU466
 1706 003e 02E0     		b	.L166
 1707              	.L171:
 684:Dsp/widget/wgt_core/UI_Controller.c ****         break;
 1708              		.loc 1 684 9 view .LVU467
 684:Dsp/widget/wgt_core/UI_Controller.c ****         break;
 1709              		.loc 1 684 33 is_stmt 0 view .LVU468
 1710 0040 9A1D     		adds	r2, r3, #6
 684:Dsp/widget/wgt_core/UI_Controller.c ****         break;
 1711              		.loc 1 684 21 view .LVU469
 1712 0042 84F82120 		strb	r2, [r4, #33]
 685:Dsp/widget/wgt_core/UI_Controller.c **** 
 1713              		.loc 1 685 9 is_stmt 1 view .LVU470
 1714              	.L166:
 698:Dsp/widget/wgt_core/UI_Controller.c **** 
 1715              		.loc 1 698 5 view .LVU471
 698:Dsp/widget/wgt_core/UI_Controller.c **** 
 1716              		.loc 1 698 29 is_stmt 0 view .LVU472
 1717 0046 0633     		adds	r3, r3, #6
 698:Dsp/widget/wgt_core/UI_Controller.c **** 
 1718              		.loc 1 698 17 view .LVU473
 1719 0048 84F82130 		strb	r3, [r4, #33]
 700:Dsp/widget/wgt_core/UI_Controller.c ****     Obj->max = max;
 1720              		.loc 1 700 5 is_stmt 1 view .LVU474
 700:Dsp/widget/wgt_core/UI_Controller.c ****     Obj->max = max;
 1721              		.loc 1 700 18 is_stmt 0 view .LVU475
 1722 004c 0023     		movs	r3, #0
 1723 004e 2377     		strb	r3, [r4, #28]
 1724 0050 6377     		strb	r3, [r4, #29]
 1725 0052 A377     		strb	r3, [r4, #30]
 1726 0054 E377     		strb	r3, [r4, #31]
 701:Dsp/widget/wgt_core/UI_Controller.c ****     Obj->min = min;
 1727              		.loc 1 701 5 is_stmt 1 view .LVU476
 701:Dsp/widget/wgt_core/UI_Controller.c ****     Obj->min = min;
 1728              		.loc 1 701 14 is_stmt 0 view .LVU477
 1729 0056 6561     		str	r5, [r4, #20]	@ unaligned
 702:Dsp/widget/wgt_core/UI_Controller.c ****     Obj->range = max - min;
 1730              		.loc 1 702 5 is_stmt 1 view .LVU478
 702:Dsp/widget/wgt_core/UI_Controller.c ****     Obj->range = max - min;
 1731              		.loc 1 702 14 is_stmt 0 view .LVU479
 1732 0058 2761     		str	r7, [r4, #16]	@ unaligned
 703:Dsp/widget/wgt_core/UI_Controller.c **** 
 1733              		.loc 1 703 5 is_stmt 1 view .LVU480
 703:Dsp/widget/wgt_core/UI_Controller.c **** 
 1734              		.loc 1 703 22 is_stmt 0 view .LVU481
 1735 005a ED1B     		subs	r5, r5, r7
 703:Dsp/widget/wgt_core/UI_Controller.c **** 
 1736              		.loc 1 703 16 view .LVU482
 1737 005c A561     		str	r5, [r4, #24]	@ unaligned
 705:Dsp/widget/wgt_core/UI_Controller.c **** 
 1738              		.loc 1 705 5 is_stmt 1 view .LVU483
 705:Dsp/widget/wgt_core/UI_Controller.c **** 
 1739              		.loc 1 705 18 is_stmt 0 view .LVU484
 1740 005e 0022     		movs	r2, #0
ARM GAS  /var/folders/lx/hc4sn_b53233_zkc9xbbl97r0000gp/T//ccQGj1L2.s 			page 46


 1741 0060 E260     		str	r2, [r4, #12]	@ unaligned
 707:Dsp/widget/wgt_core/UI_Controller.c ****     Obj->Mv_Dir = UI_ProcBar_GrothDir_Default;
 1742              		.loc 1 707 5 is_stmt 1 view .LVU485
 707:Dsp/widget/wgt_core/UI_Controller.c ****     Obj->Mv_Dir = UI_ProcBar_GrothDir_Default;
 1743              		.loc 1 707 19 is_stmt 0 view .LVU486
 1744 0062 84F82260 		strb	r6, [r4, #34]
 708:Dsp/widget/wgt_core/UI_Controller.c **** 
 1745              		.loc 1 708 5 is_stmt 1 view .LVU487
 708:Dsp/widget/wgt_core/UI_Controller.c **** 
 1746              		.loc 1 708 17 is_stmt 0 view .LVU488
 1747 0066 84F82330 		strb	r3, [r4, #35]
 710:Dsp/widget/wgt_core/UI_Controller.c **** }
 1748              		.loc 1 710 5 is_stmt 1 view .LVU489
 710:Dsp/widget/wgt_core/UI_Controller.c **** }
 1749              		.loc 1 710 12 is_stmt 0 view .LVU490
 1750 006a 0120     		movs	r0, #1
 1751 006c D3E7     		b	.L163
 1752              	.L164:
 690:Dsp/widget/wgt_core/UI_Controller.c ****         break;
 1753              		.loc 1 690 9 is_stmt 1 view .LVU491
 690:Dsp/widget/wgt_core/UI_Controller.c ****         break;
 1754              		.loc 1 690 33 is_stmt 0 view .LVU492
 1755 006e 9A1D     		adds	r2, r3, #6
 690:Dsp/widget/wgt_core/UI_Controller.c ****         break;
 1756              		.loc 1 690 21 view .LVU493
 1757 0070 84F82120 		strb	r2, [r4, #33]
 691:Dsp/widget/wgt_core/UI_Controller.c **** 
 1758              		.loc 1 691 9 is_stmt 1 view .LVU494
 1759 0074 E7E7     		b	.L166
 1760              	.LVL153:
 1761              	.L167:
 675:Dsp/widget/wgt_core/UI_Controller.c **** 
 1762              		.loc 1 675 16 is_stmt 0 view .LVU495
 1763 0076 0020     		movs	r0, #0
 1764              	.LVL154:
 675:Dsp/widget/wgt_core/UI_Controller.c **** 
 1765              		.loc 1 675 16 view .LVU496
 1766 0078 CDE7     		b	.L163
 1767              	.L173:
 1768 007a 00BF     		.align	2
 1769              	.L172:
 1770 007c 00000000 		.word	.LANCHOR2
 1771              		.cfi_endproc
 1772              	.LFE30:
 1774              		.section	.text.UI_ProcessBar_SetDspDir,"ax",%progbits
 1775              		.align	1
 1776              		.syntax unified
 1777              		.thumb
 1778              		.thumb_func
 1779              		.fpu fpv4-sp-d16
 1781              	UI_ProcessBar_SetDspDir:
 1782              	.LVL155:
 1783              	.LFB31:
 712:Dsp/widget/wgt_core/UI_Controller.c **** 
 713:Dsp/widget/wgt_core/UI_Controller.c **** static bool UI_ProcessBar_SetDspDir(UI_ProcessBarObj_TypeDef *Obj, UI_ProcessBar_MoveDir_TypeDef Di
 714:Dsp/widget/wgt_core/UI_Controller.c **** {
 1784              		.loc 1 714 1 is_stmt 1 view -0
ARM GAS  /var/folders/lx/hc4sn_b53233_zkc9xbbl97r0000gp/T//ccQGj1L2.s 			page 47


 1785              		.cfi_startproc
 1786              		@ args = 0, pretend = 0, frame = 0
 1787              		@ frame_needed = 0, uses_anonymous_args = 0
 1788              		@ link register save eliminated.
 715:Dsp/widget/wgt_core/UI_Controller.c ****     if (Obj == NULL)
 1789              		.loc 1 715 5 view .LVU498
 1790              		.loc 1 715 8 is_stmt 0 view .LVU499
 1791 0000 50B1     		cbz	r0, .L177
 716:Dsp/widget/wgt_core/UI_Controller.c ****         return false;
 717:Dsp/widget/wgt_core/UI_Controller.c **** 
 718:Dsp/widget/wgt_core/UI_Controller.c ****     if ((Dir > UI_ProcBar_GrothFrom_Mid) || (Dir < 0))
 1792              		.loc 1 718 5 is_stmt 1 view .LVU500
 1793              		.loc 1 718 8 is_stmt 0 view .LVU501
 1794 0002 0129     		cmp	r1, #1
 1795 0004 04D9     		bls	.L176
 719:Dsp/widget/wgt_core/UI_Controller.c ****         Obj->Mv_Dir = UI_ProcBar_GrothDir_Default;
 1796              		.loc 1 719 9 is_stmt 1 view .LVU502
 1797              		.loc 1 719 21 is_stmt 0 view .LVU503
 1798 0006 0022     		movs	r2, #0
 1799 0008 80F82320 		strb	r2, [r0, #35]
 720:Dsp/widget/wgt_core/UI_Controller.c ****     else
 721:Dsp/widget/wgt_core/UI_Controller.c ****         Obj->Mv_Dir = Dir;
 722:Dsp/widget/wgt_core/UI_Controller.c **** 
 723:Dsp/widget/wgt_core/UI_Controller.c ****     return true;
 1800              		.loc 1 723 12 view .LVU504
 1801 000c 0120     		movs	r0, #1
 1802              	.LVL156:
 1803              		.loc 1 723 12 view .LVU505
 1804 000e 7047     		bx	lr
 1805              	.LVL157:
 1806              	.L176:
 721:Dsp/widget/wgt_core/UI_Controller.c **** 
 1807              		.loc 1 721 9 is_stmt 1 view .LVU506
 721:Dsp/widget/wgt_core/UI_Controller.c **** 
 1808              		.loc 1 721 21 is_stmt 0 view .LVU507
 1809 0010 80F82310 		strb	r1, [r0, #35]
 1810              		.loc 1 723 12 view .LVU508
 1811 0014 0120     		movs	r0, #1
 1812              	.LVL158:
 1813              		.loc 1 723 12 view .LVU509
 1814 0016 7047     		bx	lr
 1815              	.LVL159:
 1816              	.L177:
 716:Dsp/widget/wgt_core/UI_Controller.c **** 
 1817              		.loc 1 716 16 view .LVU510
 1818 0018 0020     		movs	r0, #0
 1819              	.LVL160:
 724:Dsp/widget/wgt_core/UI_Controller.c **** }
 1820              		.loc 1 724 1 view .LVU511
 1821 001a 7047     		bx	lr
 1822              		.cfi_endproc
 1823              	.LFE31:
 1825              		.section	.text.UI_ProcessBar_SetCurVal,"ax",%progbits
 1826              		.align	1
 1827              		.syntax unified
 1828              		.thumb
 1829              		.thumb_func
ARM GAS  /var/folders/lx/hc4sn_b53233_zkc9xbbl97r0000gp/T//ccQGj1L2.s 			page 48


 1830              		.fpu fpv4-sp-d16
 1832              	UI_ProcessBar_SetCurVal:
 1833              	.LVL161:
 1834              	.LFB32:
 725:Dsp/widget/wgt_core/UI_Controller.c **** 
 726:Dsp/widget/wgt_core/UI_Controller.c **** static bool UI_ProcessBar_SetCurVal(UI_ProcessBarObj_TypeDef *Obj, int32_t val)
 727:Dsp/widget/wgt_core/UI_Controller.c **** {
 1835              		.loc 1 727 1 is_stmt 1 view -0
 1836              		.cfi_startproc
 1837              		@ args = 0, pretend = 0, frame = 0
 1838              		@ frame_needed = 0, uses_anonymous_args = 0
 1839              		@ link register save eliminated.
 728:Dsp/widget/wgt_core/UI_Controller.c ****     if (Obj == NULL)
 1840              		.loc 1 728 5 view .LVU513
 1841              		.loc 1 728 8 is_stmt 0 view .LVU514
 1842 0000 F0B1     		cbz	r0, .L183
 727:Dsp/widget/wgt_core/UI_Controller.c ****     if (Obj == NULL)
 1843              		.loc 1 727 1 view .LVU515
 1844 0002 10B4     		push	{r4}
 1845              	.LCFI30:
 1846              		.cfi_def_cfa_offset 4
 1847              		.cfi_offset 4, -4
 1848 0004 0346     		mov	r3, r0
 729:Dsp/widget/wgt_core/UI_Controller.c ****         return false;
 730:Dsp/widget/wgt_core/UI_Controller.c **** 
 731:Dsp/widget/wgt_core/UI_Controller.c ****     int32_t range = Obj->max - Obj->min;
 1849              		.loc 1 731 5 is_stmt 1 view .LVU516
 1850              		.loc 1 731 24 is_stmt 0 view .LVU517
 1851 0006 4269     		ldr	r2, [r0, #20]	@ unaligned
 1852              		.loc 1 731 35 view .LVU518
 1853 0008 0069     		ldr	r0, [r0, #16]	@ unaligned
 1854              	.LVL162:
 1855              		.loc 1 731 13 view .LVU519
 1856 000a 141A     		subs	r4, r2, r0
 1857 000c 07EE104A 		vmov	s14, r4	@ int
 1858              	.LVL163:
 732:Dsp/widget/wgt_core/UI_Controller.c **** 
 733:Dsp/widget/wgt_core/UI_Controller.c ****     if (val >= Obj->max)
 1859              		.loc 1 733 5 is_stmt 1 view .LVU520
 1860              		.loc 1 733 8 is_stmt 0 view .LVU521
 1861 0010 8A42     		cmp	r2, r1
 1862 0012 0FDC     		bgt	.L180
 734:Dsp/widget/wgt_core/UI_Controller.c ****         Obj->cur_val = Obj->max;
 1863              		.loc 1 734 9 is_stmt 1 view .LVU522
 1864              		.loc 1 734 22 is_stmt 0 view .LVU523
 1865 0014 DA61     		str	r2, [r3, #28]	@ unaligned
 1866              	.L181:
 735:Dsp/widget/wgt_core/UI_Controller.c ****     else if (val <= Obj->min)
 736:Dsp/widget/wgt_core/UI_Controller.c ****         Obj->cur_val = Obj->min;
 737:Dsp/widget/wgt_core/UI_Controller.c ****     else
 738:Dsp/widget/wgt_core/UI_Controller.c ****         Obj->cur_val = val;
 739:Dsp/widget/wgt_core/UI_Controller.c **** 
 740:Dsp/widget/wgt_core/UI_Controller.c ****     Obj->percent = ((float)val) / range;
 1867              		.loc 1 740 5 is_stmt 1 view .LVU524
 1868              		.loc 1 740 21 is_stmt 0 view .LVU525
 1869 0016 07EE901A 		vmov	s15, r1	@ int
 1870 001a F8EEE77A 		vcvt.f32.s32	s15, s15
ARM GAS  /var/folders/lx/hc4sn_b53233_zkc9xbbl97r0000gp/T//ccQGj1L2.s 			page 49


 1871              		.loc 1 740 33 view .LVU526
 1872 001e B8EEC77A 		vcvt.f32.s32	s14, s14
 1873              		.loc 1 740 18 view .LVU527
 1874 0022 C7EE877A 		vdiv.f32	s15, s15, s14
 1875 0026 17EE902A 		vmov	r2, s15
 1876 002a DA60     		str	r2, [r3, #12]	@ unaligned
 741:Dsp/widget/wgt_core/UI_Controller.c **** 
 742:Dsp/widget/wgt_core/UI_Controller.c ****     return true;
 1877              		.loc 1 742 5 is_stmt 1 view .LVU528
 1878              		.loc 1 742 12 is_stmt 0 view .LVU529
 1879 002c 0120     		movs	r0, #1
 743:Dsp/widget/wgt_core/UI_Controller.c **** }
 1880              		.loc 1 743 1 view .LVU530
 1881 002e 5DF8044B 		ldr	r4, [sp], #4
 1882              	.LCFI31:
 1883              		.cfi_remember_state
 1884              		.cfi_restore 4
 1885              		.cfi_def_cfa_offset 0
 1886              	.LVL164:
 1887              		.loc 1 743 1 view .LVU531
 1888 0032 7047     		bx	lr
 1889              	.LVL165:
 1890              	.L180:
 1891              	.LCFI32:
 1892              		.cfi_restore_state
 735:Dsp/widget/wgt_core/UI_Controller.c ****     else if (val <= Obj->min)
 1893              		.loc 1 735 10 is_stmt 1 view .LVU532
 735:Dsp/widget/wgt_core/UI_Controller.c ****     else if (val <= Obj->min)
 1894              		.loc 1 735 13 is_stmt 0 view .LVU533
 1895 0034 8842     		cmp	r0, r1
 1896 0036 01DB     		blt	.L182
 736:Dsp/widget/wgt_core/UI_Controller.c ****     else
 1897              		.loc 1 736 9 is_stmt 1 view .LVU534
 736:Dsp/widget/wgt_core/UI_Controller.c ****     else
 1898              		.loc 1 736 22 is_stmt 0 view .LVU535
 1899 0038 D861     		str	r0, [r3, #28]	@ unaligned
 1900 003a ECE7     		b	.L181
 1901              	.L182:
 738:Dsp/widget/wgt_core/UI_Controller.c **** 
 1902              		.loc 1 738 9 is_stmt 1 view .LVU536
 738:Dsp/widget/wgt_core/UI_Controller.c **** 
 1903              		.loc 1 738 22 is_stmt 0 view .LVU537
 1904 003c D961     		str	r1, [r3, #28]	@ unaligned
 1905 003e EAE7     		b	.L181
 1906              	.LVL166:
 1907              	.L183:
 1908              	.LCFI33:
 1909              		.cfi_def_cfa_offset 0
 1910              		.cfi_restore 4
 729:Dsp/widget/wgt_core/UI_Controller.c **** 
 1911              		.loc 1 729 16 view .LVU538
 1912 0040 0020     		movs	r0, #0
 1913              	.LVL167:
 1914              		.loc 1 743 1 view .LVU539
 1915 0042 7047     		bx	lr
 1916              		.cfi_endproc
 1917              	.LFE32:
ARM GAS  /var/folders/lx/hc4sn_b53233_zkc9xbbl97r0000gp/T//ccQGj1L2.s 			page 50


 1919              		.section	.text.UI_ProcessBar_Move,"ax",%progbits
 1920              		.align	1
 1921              		.syntax unified
 1922              		.thumb
 1923              		.thumb_func
 1924              		.fpu fpv4-sp-d16
 1926              	UI_ProcessBar_Move:
 1927              	.LVL168:
 1928              	.LFB33:
 744:Dsp/widget/wgt_core/UI_Controller.c **** 
 745:Dsp/widget/wgt_core/UI_Controller.c **** static bool UI_ProcessBar_Move(UI_ProcessBarObj_TypeDef *Obj, uint16_t x, uint16_t y)
 746:Dsp/widget/wgt_core/UI_Controller.c **** {
 1929              		.loc 1 746 1 is_stmt 1 view -0
 1930              		.cfi_startproc
 1931              		@ args = 0, pretend = 0, frame = 0
 1932              		@ frame_needed = 0, uses_anonymous_args = 0
 747:Dsp/widget/wgt_core/UI_Controller.c ****     if (Obj == NULL)
 1933              		.loc 1 747 5 view .LVU541
 1934              		.loc 1 747 8 is_stmt 0 view .LVU542
 1935 0000 28B1     		cbz	r0, .L190
 746:Dsp/widget/wgt_core/UI_Controller.c ****     if (Obj == NULL)
 1936              		.loc 1 746 1 view .LVU543
 1937 0002 08B5     		push	{r3, lr}
 1938              	.LCFI34:
 1939              		.cfi_def_cfa_offset 8
 1940              		.cfi_offset 3, -8
 1941              		.cfi_offset 14, -4
 748:Dsp/widget/wgt_core/UI_Controller.c ****         return false;
 749:Dsp/widget/wgt_core/UI_Controller.c **** 
 750:Dsp/widget/wgt_core/UI_Controller.c ****     return UI_Move(&(Obj->Gen_Data), x, y);
 1942              		.loc 1 750 5 is_stmt 1 view .LVU544
 1943              		.loc 1 750 12 is_stmt 0 view .LVU545
 1944 0004 12B2     		sxth	r2, r2
 1945              		.loc 1 750 12 view .LVU546
 1946 0006 09B2     		sxth	r1, r1
 1947              		.loc 1 750 12 view .LVU547
 1948 0008 FFF7FEFF 		bl	UI_Move
 1949              	.LVL169:
 751:Dsp/widget/wgt_core/UI_Controller.c **** }
 1950              		.loc 1 751 1 view .LVU548
 1951 000c 08BD     		pop	{r3, pc}
 1952              	.LVL170:
 1953              	.L190:
 1954              	.LCFI35:
 1955              		.cfi_def_cfa_offset 0
 1956              		.cfi_restore 3
 1957              		.cfi_restore 14
 748:Dsp/widget/wgt_core/UI_Controller.c ****         return false;
 1958              		.loc 1 748 16 view .LVU549
 1959 000e 0020     		movs	r0, #0
 1960              	.LVL171:
 1961              		.loc 1 751 1 view .LVU550
 1962 0010 7047     		bx	lr
 1963              		.cfi_endproc
 1964              	.LFE33:
 1966              		.section	.text.UI_ProcessBar_DspDotBar,"ax",%progbits
 1967              		.align	1
ARM GAS  /var/folders/lx/hc4sn_b53233_zkc9xbbl97r0000gp/T//ccQGj1L2.s 			page 51


 1968              		.syntax unified
 1969              		.thumb
 1970              		.thumb_func
 1971              		.fpu fpv4-sp-d16
 1973              	UI_ProcessBar_DspDotBar:
 1974              	.LVL172:
 1975              	.LFB35:
 752:Dsp/widget/wgt_core/UI_Controller.c **** 
 753:Dsp/widget/wgt_core/UI_Controller.c **** static bool UI_ProcessBar_DspLoadBar(UI_ProcessBarObj_TypeDef *Obj)
 754:Dsp/widget/wgt_core/UI_Controller.c **** {
 755:Dsp/widget/wgt_core/UI_Controller.c ****     uint8_t frame_radius = 0;
 756:Dsp/widget/wgt_core/UI_Controller.c ****     int16_t Str_CoordX = 0;
 757:Dsp/widget/wgt_core/UI_Controller.c ****     int16_t Str_CoordY = 0;
 758:Dsp/widget/wgt_core/UI_Controller.c ****     float Pcnt_Val = 0;
 759:Dsp/widget/wgt_core/UI_Controller.c ****     char dsp_str[20];
 760:Dsp/widget/wgt_core/UI_Controller.c **** 
 761:Dsp/widget/wgt_core/UI_Controller.c ****     if (Obj == NULL)
 762:Dsp/widget/wgt_core/UI_Controller.c ****         return false;
 763:Dsp/widget/wgt_core/UI_Controller.c **** 
 764:Dsp/widget/wgt_core/UI_Controller.c ****     memset(dsp_str, '\0', 20);
 765:Dsp/widget/wgt_core/UI_Controller.c **** 
 766:Dsp/widget/wgt_core/UI_Controller.c ****     Pcnt_Val = (Obj->cur_val / (float)Obj->range);
 767:Dsp/widget/wgt_core/UI_Controller.c ****     sprintf(dsp_str, "On Process : %d%%", (uint8_t)(Pcnt_Val * 100));
 768:Dsp/widget/wgt_core/UI_Controller.c **** 
 769:Dsp/widget/wgt_core/UI_Controller.c ****     Str_CoordX = Obj->Gen_Data.x + (Obj->width - (strlen(dsp_str) * STR_DIS)) / 2;
 770:Dsp/widget/wgt_core/UI_Controller.c ****     Str_CoordY = Obj->Gen_Data.y - base_font - 2;
 771:Dsp/widget/wgt_core/UI_Controller.c **** 
 772:Dsp/widget/wgt_core/UI_Controller.c ****     //display direction from left
 773:Dsp/widget/wgt_core/UI_Controller.c ****     UI_DspInterface.draw_radius_rectangle(Obj->Gen_Data.x, Obj->Gen_Data.y, Obj->width, DEFAULT_PRO
 774:Dsp/widget/wgt_core/UI_Controller.c ****     UI_DspInterface.draw_str(base_font, dsp_str, Str_CoordX, Str_CoordY, true);
 775:Dsp/widget/wgt_core/UI_Controller.c ****     UI_DspInterface.draw_line_h(Obj->Gen_Data.x + 2, Obj->Gen_Data.y + 2, Pcnt_Val * (Obj->width - 
 776:Dsp/widget/wgt_core/UI_Controller.c **** 
 777:Dsp/widget/wgt_core/UI_Controller.c ****     return true;
 778:Dsp/widget/wgt_core/UI_Controller.c **** }
 779:Dsp/widget/wgt_core/UI_Controller.c **** 
 780:Dsp/widget/wgt_core/UI_Controller.c **** static bool UI_ProcessBar_DspDotBar(UI_ProcessBarObj_TypeDef *Obj)
 781:Dsp/widget/wgt_core/UI_Controller.c **** {
 1976              		.loc 1 781 1 is_stmt 1 view -0
 1977              		.cfi_startproc
 1978              		@ args = 0, pretend = 0, frame = 8
 1979              		@ frame_needed = 0, uses_anonymous_args = 0
 782:Dsp/widget/wgt_core/UI_Controller.c ****     uint8_t bar_width = 0;
 1980              		.loc 1 782 5 view .LVU552
 783:Dsp/widget/wgt_core/UI_Controller.c ****     int16_t bar_start_x = 0;
 1981              		.loc 1 783 5 view .LVU553
 784:Dsp/widget/wgt_core/UI_Controller.c ****     int16_t bar_end_x = 0;
 1982              		.loc 1 784 5 view .LVU554
 785:Dsp/widget/wgt_core/UI_Controller.c ****     float Pcnt_Val = 0;
 1983              		.loc 1 785 5 view .LVU555
 786:Dsp/widget/wgt_core/UI_Controller.c **** 
 787:Dsp/widget/wgt_core/UI_Controller.c ****     if (Obj == NULL)
 1984              		.loc 1 787 5 view .LVU556
 1985              		.loc 1 787 8 is_stmt 0 view .LVU557
 1986 0000 0028     		cmp	r0, #0
 1987 0002 75D0     		beq	.L199
 781:Dsp/widget/wgt_core/UI_Controller.c ****     uint8_t bar_width = 0;
 1988              		.loc 1 781 1 view .LVU558
ARM GAS  /var/folders/lx/hc4sn_b53233_zkc9xbbl97r0000gp/T//ccQGj1L2.s 			page 52


 1989 0004 2DE9F041 		push	{r4, r5, r6, r7, r8, lr}
 1990              	.LCFI36:
 1991              		.cfi_def_cfa_offset 24
 1992              		.cfi_offset 4, -24
 1993              		.cfi_offset 5, -20
 1994              		.cfi_offset 6, -16
 1995              		.cfi_offset 7, -12
 1996              		.cfi_offset 8, -8
 1997              		.cfi_offset 14, -4
 1998 0008 2DED028B 		vpush.64	{d8}
 1999              	.LCFI37:
 2000              		.cfi_def_cfa_offset 32
 2001              		.cfi_offset 80, -32
 2002              		.cfi_offset 81, -28
 2003 000c 84B0     		sub	sp, sp, #16
 2004              	.LCFI38:
 2005              		.cfi_def_cfa_offset 48
 2006 000e 0446     		mov	r4, r0
 788:Dsp/widget/wgt_core/UI_Controller.c ****         return false;
 789:Dsp/widget/wgt_core/UI_Controller.c **** 
 790:Dsp/widget/wgt_core/UI_Controller.c ****     if (Obj->width / 2 == 0)
 2007              		.loc 1 790 5 is_stmt 1 view .LVU559
 2008              		.loc 1 790 12 is_stmt 0 view .LVU560
 2009 0010 90F82020 		ldrb	r2, [r0, #32]	@ zero_extendqisi2
 2010              		.loc 1 790 8 view .LVU561
 2011 0014 012A     		cmp	r2, #1
 2012 0016 56D9     		bls	.L206
 782:Dsp/widget/wgt_core/UI_Controller.c ****     int16_t bar_start_x = 0;
 2013              		.loc 1 782 13 view .LVU562
 2014 0018 0025     		movs	r5, #0
 2015              	.LVL173:
 2016              	.L197:
 791:Dsp/widget/wgt_core/UI_Controller.c ****         bar_width = Obj->width + 1;
 792:Dsp/widget/wgt_core/UI_Controller.c **** 
 793:Dsp/widget/wgt_core/UI_Controller.c ****     /* step  1 draw dot line */
 794:Dsp/widget/wgt_core/UI_Controller.c ****     UI_Draw_HorDotLine(Obj->Gen_Data.x, Obj->Gen_Data.y, Obj->width, DEFAULT_PROCESSBAR_LINE_WIDTH)
 2017              		.loc 1 794 5 is_stmt 1 view .LVU563
 2018 001a 0123     		movs	r3, #1
 2019 001c B4F90610 		ldrsh	r1, [r4, #6]	@ unaligned
 2020 0020 B4F90400 		ldrsh	r0, [r4, #4]	@ unaligned
 2021              	.LVL174:
 2022              		.loc 1 794 5 is_stmt 0 view .LVU564
 2023 0024 FFF7FEFF 		bl	UI_Draw_HorDotLine
 2024              	.LVL175:
 795:Dsp/widget/wgt_core/UI_Controller.c **** 
 796:Dsp/widget/wgt_core/UI_Controller.c ****     if (Obj->Mv_Dir == UI_ProcBar_GrothFrom_Left)
 2025              		.loc 1 796 5 is_stmt 1 view .LVU565
 2026              		.loc 1 796 12 is_stmt 0 view .LVU566
 2027 0028 94F82330 		ldrb	r3, [r4, #35]	@ zero_extendqisi2
 2028              		.loc 1 796 8 view .LVU567
 2029 002c 002B     		cmp	r3, #0
 2030 002e 4DD1     		bne	.L198
 797:Dsp/widget/wgt_core/UI_Controller.c ****     {
 798:Dsp/widget/wgt_core/UI_Controller.c ****         bar_start_x = Obj->Gen_Data.x;
 2031              		.loc 1 798 9 is_stmt 1 view .LVU568
 2032              		.loc 1 798 21 is_stmt 0 view .LVU569
 2033 0030 B4F90480 		ldrsh	r8, [r4, #4]	@ unaligned
ARM GAS  /var/folders/lx/hc4sn_b53233_zkc9xbbl97r0000gp/T//ccQGj1L2.s 			page 53


 2034              	.LVL176:
 799:Dsp/widget/wgt_core/UI_Controller.c ****         Pcnt_Val = (Obj->cur_val / (float)Obj->range);
 2035              		.loc 1 799 9 is_stmt 1 view .LVU570
 2036              		.loc 1 799 24 is_stmt 0 view .LVU571
 2037 0034 E369     		ldr	r3, [r4, #28]	@ unaligned
 2038 0036 07EE103A 		vmov	s14, r3	@ int
 2039              		.loc 1 799 34 view .LVU572
 2040 003a B8EEC77A 		vcvt.f32.s32	s14, s14
 2041              		.loc 1 799 46 view .LVU573
 2042 003e A369     		ldr	r3, [r4, #24]	@ unaligned
 2043 0040 07EE903A 		vmov	s15, r3	@ int
 2044              		.loc 1 799 36 view .LVU574
 2045 0044 F8EEE77A 		vcvt.f32.s32	s15, s15
 2046              		.loc 1 799 18 view .LVU575
 2047 0048 87EE278A 		vdiv.f32	s16, s14, s15
 2048              	.LVL177:
 800:Dsp/widget/wgt_core/UI_Controller.c **** 
 801:Dsp/widget/wgt_core/UI_Controller.c ****         UI_DspInterface.draw_line_v(Obj->Gen_Data.x, Obj->Gen_Data.y - 2, 5, DEFAULT_PROCESSBAR_LIN
 2049              		.loc 1 801 9 is_stmt 1 view .LVU576
 2050              		.loc 1 801 24 is_stmt 0 view .LVU577
 2051 004c 2A4F     		ldr	r7, .L207
 2052              		.loc 1 801 67 view .LVU578
 2053 004e E188     		ldrh	r1, [r4, #6]	@ unaligned
 2054              		.loc 1 801 70 view .LVU579
 2055 0050 0239     		subs	r1, r1, #2
 2056              		.loc 1 801 9 view .LVU580
 2057 0052 0125     		movs	r5, #1
 2058              	.LVL178:
 2059              		.loc 1 801 9 view .LVU581
 2060 0054 0095     		str	r5, [sp]
 2061              	.LVL179:
 2062              		.loc 1 801 9 view .LVU582
 2063 0056 2B46     		mov	r3, r5
 2064 0058 0522     		movs	r2, #5
 2065 005a 09B2     		sxth	r1, r1
 2066 005c 4046     		mov	r0, r8
 2067 005e FE68     		ldr	r6, [r7, #12]
 2068 0060 B047     		blx	r6
 2069              	.LVL180:
 802:Dsp/widget/wgt_core/UI_Controller.c ****         UI_DspInterface.draw_line_h(bar_start_x, Obj->Gen_Data.y - 1, Obj->width * Pcnt_Val, DEFAUL
 2070              		.loc 1 802 9 is_stmt 1 view .LVU583
 2071              		.loc 1 802 63 is_stmt 0 view .LVU584
 2072 0062 E188     		ldrh	r1, [r4, #6]	@ unaligned
 2073              		.loc 1 802 66 view .LVU585
 2074 0064 0139     		subs	r1, r1, #1
 2075              		.loc 1 802 74 view .LVU586
 2076 0066 94F82030 		ldrb	r3, [r4, #32]	@ zero_extendqisi2
 2077 006a 07EE903A 		vmov	s15, r3	@ int
 2078              		.loc 1 802 82 view .LVU587
 2079 006e F8EEE77A 		vcvt.f32.s32	s15, s15
 2080 0072 67EE887A 		vmul.f32	s15, s15, s16
 2081              		.loc 1 802 9 view .LVU588
 2082 0076 FCEEE77A 		vcvt.u32.f32	s15, s15
 2083 007a CDED037A 		vstr.32	s15, [sp, #12]	@ int
 2084 007e 0095     		str	r5, [sp]
 2085 0080 2B46     		mov	r3, r5
 2086 0082 9DF80C20 		ldrb	r2, [sp, #12]	@ zero_extendqisi2
ARM GAS  /var/folders/lx/hc4sn_b53233_zkc9xbbl97r0000gp/T//ccQGj1L2.s 			page 54


 2087 0086 09B2     		sxth	r1, r1
 2088 0088 4046     		mov	r0, r8
 2089 008a BE68     		ldr	r6, [r7, #8]
 2090 008c B047     		blx	r6
 2091              	.LVL181:
 803:Dsp/widget/wgt_core/UI_Controller.c ****         UI_DspInterface.draw_line_h(bar_start_x, Obj->Gen_Data.y + 1, Obj->width * Pcnt_Val, DEFAUL
 2092              		.loc 1 803 9 is_stmt 1 view .LVU589
 2093              		.loc 1 803 24 is_stmt 0 view .LVU590
 2094 008e BF68     		ldr	r7, [r7, #8]
 2095              		.loc 1 803 63 view .LVU591
 2096 0090 E188     		ldrh	r1, [r4, #6]	@ unaligned
 2097              		.loc 1 803 66 view .LVU592
 2098 0092 2944     		add	r1, r1, r5
 2099              		.loc 1 803 74 view .LVU593
 2100 0094 94F82030 		ldrb	r3, [r4, #32]	@ zero_extendqisi2
 2101 0098 07EE903A 		vmov	s15, r3	@ int
 2102              		.loc 1 803 82 view .LVU594
 2103 009c F8EEE77A 		vcvt.f32.s32	s15, s15
 2104 00a0 67EE887A 		vmul.f32	s15, s15, s16
 2105              		.loc 1 803 9 view .LVU595
 2106 00a4 FCEEE77A 		vcvt.u32.f32	s15, s15
 2107 00a8 CDED037A 		vstr.32	s15, [sp, #12]	@ int
 2108 00ac 0095     		str	r5, [sp]
 2109 00ae 2B46     		mov	r3, r5
 2110 00b0 9DF80C20 		ldrb	r2, [sp, #12]	@ zero_extendqisi2
 2111 00b4 09B2     		sxth	r1, r1
 2112 00b6 4046     		mov	r0, r8
 2113 00b8 B847     		blx	r7
 2114              	.LVL182:
 804:Dsp/widget/wgt_core/UI_Controller.c ****     }
 805:Dsp/widget/wgt_core/UI_Controller.c ****     else if (Obj->Mv_Dir == UI_ProcBar_GrothFrom_Mid)
 806:Dsp/widget/wgt_core/UI_Controller.c ****     {
 807:Dsp/widget/wgt_core/UI_Controller.c ****         UI_DspInterface.draw_line_v(Obj->Gen_Data.x + bar_width / 2, Obj->Gen_Data.y - 2, 5, DEFAUL
 808:Dsp/widget/wgt_core/UI_Controller.c **** 
 809:Dsp/widget/wgt_core/UI_Controller.c ****         if (Obj->cur_val < (Obj->min + Obj->range / 2))
 810:Dsp/widget/wgt_core/UI_Controller.c ****         {
 811:Dsp/widget/wgt_core/UI_Controller.c ****         }
 812:Dsp/widget/wgt_core/UI_Controller.c ****         else if (Obj->cur_val > (Obj->max + Obj->range / 2))
 813:Dsp/widget/wgt_core/UI_Controller.c ****         {
 814:Dsp/widget/wgt_core/UI_Controller.c ****         }
 815:Dsp/widget/wgt_core/UI_Controller.c ****     }
 816:Dsp/widget/wgt_core/UI_Controller.c ****     else
 817:Dsp/widget/wgt_core/UI_Controller.c ****         return false;
 818:Dsp/widget/wgt_core/UI_Controller.c **** 
 819:Dsp/widget/wgt_core/UI_Controller.c ****     return true;
 2115              		.loc 1 819 12 view .LVU596
 2116 00ba 2846     		mov	r0, r5
 2117              	.LVL183:
 2118              	.L196:
 820:Dsp/widget/wgt_core/UI_Controller.c **** }
 2119              		.loc 1 820 1 view .LVU597
 2120 00bc 04B0     		add	sp, sp, #16
 2121              	.LCFI39:
 2122              		.cfi_remember_state
 2123              		.cfi_def_cfa_offset 32
 2124              		@ sp needed
 2125 00be BDEC028B 		vldm	sp!, {d8}
ARM GAS  /var/folders/lx/hc4sn_b53233_zkc9xbbl97r0000gp/T//ccQGj1L2.s 			page 55


 2126              	.LCFI40:
 2127              		.cfi_restore 80
 2128              		.cfi_restore 81
 2129              		.cfi_def_cfa_offset 24
 2130 00c2 BDE8F081 		pop	{r4, r5, r6, r7, r8, pc}
 2131              	.LVL184:
 2132              	.L206:
 2133              	.LCFI41:
 2134              		.cfi_restore_state
 791:Dsp/widget/wgt_core/UI_Controller.c **** 
 2135              		.loc 1 791 9 is_stmt 1 view .LVU598
 791:Dsp/widget/wgt_core/UI_Controller.c **** 
 2136              		.loc 1 791 19 is_stmt 0 view .LVU599
 2137 00c6 551C     		adds	r5, r2, #1
 2138 00c8 EDB2     		uxtb	r5, r5
 2139              	.LVL185:
 791:Dsp/widget/wgt_core/UI_Controller.c **** 
 2140              		.loc 1 791 19 view .LVU600
 2141 00ca A6E7     		b	.L197
 2142              	.LVL186:
 2143              	.L198:
 805:Dsp/widget/wgt_core/UI_Controller.c ****     {
 2144              		.loc 1 805 10 is_stmt 1 view .LVU601
 805:Dsp/widget/wgt_core/UI_Controller.c ****     {
 2145              		.loc 1 805 13 is_stmt 0 view .LVU602
 2146 00cc 012B     		cmp	r3, #1
 2147 00ce 11D1     		bne	.L201
 807:Dsp/widget/wgt_core/UI_Controller.c **** 
 2148              		.loc 1 807 9 is_stmt 1 view .LVU603
 807:Dsp/widget/wgt_core/UI_Controller.c **** 
 2149              		.loc 1 807 24 is_stmt 0 view .LVU604
 2150 00d0 094B     		ldr	r3, .L207
 2151 00d2 DE68     		ldr	r6, [r3, #12]
 807:Dsp/widget/wgt_core/UI_Controller.c **** 
 2152              		.loc 1 807 50 view .LVU605
 2153 00d4 A088     		ldrh	r0, [r4, #4]	@ unaligned
 807:Dsp/widget/wgt_core/UI_Controller.c **** 
 2154              		.loc 1 807 53 view .LVU606
 2155 00d6 00EB5500 		add	r0, r0, r5, lsr #1
 807:Dsp/widget/wgt_core/UI_Controller.c **** 
 2156              		.loc 1 807 83 view .LVU607
 2157 00da E188     		ldrh	r1, [r4, #6]	@ unaligned
 807:Dsp/widget/wgt_core/UI_Controller.c **** 
 2158              		.loc 1 807 86 view .LVU608
 2159 00dc 0239     		subs	r1, r1, #2
 807:Dsp/widget/wgt_core/UI_Controller.c **** 
 2160              		.loc 1 807 9 view .LVU609
 2161 00de 0125     		movs	r5, #1
 2162              	.LVL187:
 807:Dsp/widget/wgt_core/UI_Controller.c **** 
 2163              		.loc 1 807 9 view .LVU610
 2164 00e0 0095     		str	r5, [sp]
 2165 00e2 2B46     		mov	r3, r5
 2166 00e4 0522     		movs	r2, #5
 2167 00e6 09B2     		sxth	r1, r1
 2168 00e8 00B2     		sxth	r0, r0
 2169 00ea B047     		blx	r6
ARM GAS  /var/folders/lx/hc4sn_b53233_zkc9xbbl97r0000gp/T//ccQGj1L2.s 			page 56


 2170              	.LVL188:
 809:Dsp/widget/wgt_core/UI_Controller.c ****         {
 2171              		.loc 1 809 9 is_stmt 1 view .LVU611
 819:Dsp/widget/wgt_core/UI_Controller.c **** }
 2172              		.loc 1 819 12 is_stmt 0 view .LVU612
 2173 00ec 2846     		mov	r0, r5
 2174 00ee E5E7     		b	.L196
 2175              	.LVL189:
 2176              	.L199:
 2177              	.LCFI42:
 2178              		.cfi_def_cfa_offset 0
 2179              		.cfi_restore 4
 2180              		.cfi_restore 5
 2181              		.cfi_restore 6
 2182              		.cfi_restore 7
 2183              		.cfi_restore 8
 2184              		.cfi_restore 14
 2185              		.cfi_restore 80
 2186              		.cfi_restore 81
 788:Dsp/widget/wgt_core/UI_Controller.c **** 
 2187              		.loc 1 788 16 view .LVU613
 2188 00f0 0020     		movs	r0, #0
 2189              	.LVL190:
 2190              		.loc 1 820 1 view .LVU614
 2191 00f2 7047     		bx	lr
 2192              	.LVL191:
 2193              	.L201:
 2194              	.LCFI43:
 2195              		.cfi_def_cfa_offset 48
 2196              		.cfi_offset 4, -24
 2197              		.cfi_offset 5, -20
 2198              		.cfi_offset 6, -16
 2199              		.cfi_offset 7, -12
 2200              		.cfi_offset 8, -8
 2201              		.cfi_offset 14, -4
 2202              		.cfi_offset 80, -32
 2203              		.cfi_offset 81, -28
 817:Dsp/widget/wgt_core/UI_Controller.c **** 
 2204              		.loc 1 817 16 view .LVU615
 2205 00f4 0020     		movs	r0, #0
 2206 00f6 E1E7     		b	.L196
 2207              	.L208:
 2208              		.align	2
 2209              	.L207:
 2210 00f8 00000000 		.word	.LANCHOR0
 2211              		.cfi_endproc
 2212              	.LFE35:
 2214              		.section	.text.UI_CheckBox_Ctl,"ax",%progbits
 2215              		.align	1
 2216              		.syntax unified
 2217              		.thumb
 2218              		.thumb_func
 2219              		.fpu fpv4-sp-d16
 2221              	UI_CheckBox_Ctl:
 2222              	.LVL192:
 2223              	.LFB21:
 499:Dsp/widget/wgt_core/UI_Controller.c ****     uint16_t StrDsp_x = 0;
ARM GAS  /var/folders/lx/hc4sn_b53233_zkc9xbbl97r0000gp/T//ccQGj1L2.s 			page 57


 2224              		.loc 1 499 1 is_stmt 1 view -0
 2225              		.cfi_startproc
 2226              		@ args = 0, pretend = 0, frame = 8
 2227              		@ frame_needed = 0, uses_anonymous_args = 0
 499:Dsp/widget/wgt_core/UI_Controller.c ****     uint16_t StrDsp_x = 0;
 2228              		.loc 1 499 1 is_stmt 0 view .LVU617
 2229 0000 2DE9F04F 		push	{r4, r5, r6, r7, r8, r9, r10, fp, lr}
 2230              	.LCFI44:
 2231              		.cfi_def_cfa_offset 36
 2232              		.cfi_offset 4, -36
 2233              		.cfi_offset 5, -32
 2234              		.cfi_offset 6, -28
 2235              		.cfi_offset 7, -24
 2236              		.cfi_offset 8, -20
 2237              		.cfi_offset 9, -16
 2238              		.cfi_offset 10, -12
 2239              		.cfi_offset 11, -8
 2240              		.cfi_offset 14, -4
 2241 0004 85B0     		sub	sp, sp, #20
 2242              	.LCFI45:
 2243              		.cfi_def_cfa_offset 56
 500:Dsp/widget/wgt_core/UI_Controller.c ****     int16_t frame_y = 0;
 2244              		.loc 1 500 5 is_stmt 1 view .LVU618
 2245              	.LVL193:
 501:Dsp/widget/wgt_core/UI_Controller.c ****     int16_t str_y = Obj->Gen_Data.y;
 2246              		.loc 1 501 5 view .LVU619
 502:Dsp/widget/wgt_core/UI_Controller.c **** 
 2247              		.loc 1 502 5 view .LVU620
 502:Dsp/widget/wgt_core/UI_Controller.c **** 
 2248              		.loc 1 502 13 is_stmt 0 view .LVU621
 2249 0006 B0F90660 		ldrsh	r6, [r0, #6]	@ unaligned
 2250              	.LVL194:
 504:Dsp/widget/wgt_core/UI_Controller.c ****         (UI_DspInterface.draw_str == NULL) ||
 2251              		.loc 1 504 5 is_stmt 1 view .LVU622
 504:Dsp/widget/wgt_core/UI_Controller.c ****         (UI_DspInterface.draw_str == NULL) ||
 2252              		.loc 1 504 8 is_stmt 0 view .LVU623
 2253 000a 0028     		cmp	r0, #0
 2254 000c 4BD0     		beq	.L212
 2255 000e 0446     		mov	r4, r0
 2256 0010 0FFA86F8 		sxth	r8, r6
 505:Dsp/widget/wgt_core/UI_Controller.c ****         (UI_DspInterface.fill_rectangle == NULL) ||
 2257              		.loc 1 505 25 discriminator 1 view .LVU624
 2258 0014 2A4B     		ldr	r3, .L219
 2259 0016 1F68     		ldr	r7, [r3]
 504:Dsp/widget/wgt_core/UI_Controller.c ****         (UI_DspInterface.draw_str == NULL) ||
 2260              		.loc 1 504 23 discriminator 1 view .LVU625
 2261 0018 002F     		cmp	r7, #0
 2262 001a 46D0     		beq	.L213
 506:Dsp/widget/wgt_core/UI_Controller.c ****         (UI_DspInterface.draw_rectangle == NULL))
 2263              		.loc 1 506 25 view .LVU626
 2264 001c 1B6A     		ldr	r3, [r3, #32]
 505:Dsp/widget/wgt_core/UI_Controller.c ****         (UI_DspInterface.fill_rectangle == NULL) ||
 2265              		.loc 1 505 44 view .LVU627
 2266 001e 002B     		cmp	r3, #0
 2267 0020 45D0     		beq	.L214
 507:Dsp/widget/wgt_core/UI_Controller.c ****         return false;
 2268              		.loc 1 507 25 view .LVU628
ARM GAS  /var/folders/lx/hc4sn_b53233_zkc9xbbl97r0000gp/T//ccQGj1L2.s 			page 58


 2269 0022 274B     		ldr	r3, .L219
 2270 0024 5B69     		ldr	r3, [r3, #20]
 506:Dsp/widget/wgt_core/UI_Controller.c ****         (UI_DspInterface.draw_rectangle == NULL))
 2271              		.loc 1 506 50 view .LVU629
 2272 0026 002B     		cmp	r3, #0
 2273 0028 43D0     		beq	.L215
 510:Dsp/widget/wgt_core/UI_Controller.c ****     frame_y = Obj->Gen_Data.y + 3;
 2274              		.loc 1 510 5 is_stmt 1 view .LVU630
 510:Dsp/widget/wgt_core/UI_Controller.c ****     frame_y = Obj->Gen_Data.y + 3;
 2275              		.loc 1 510 36 is_stmt 0 view .LVU631
 2276 002a D0F800B0 		ldr	fp, [r0]	@ unaligned
 510:Dsp/widget/wgt_core/UI_Controller.c ****     frame_y = Obj->Gen_Data.y + 3;
 2277              		.loc 1 510 16 view .LVU632
 2278 002e 5846     		mov	r0, fp
 2279              	.LVL195:
 510:Dsp/widget/wgt_core/UI_Controller.c ****     frame_y = Obj->Gen_Data.y + 3;
 2280              		.loc 1 510 16 view .LVU633
 2281 0030 FFF7FEFF 		bl	strlen
 2282              	.LVL196:
 510:Dsp/widget/wgt_core/UI_Controller.c ****     frame_y = Obj->Gen_Data.y + 3;
 2283              		.loc 1 510 14 view .LVU634
 2284 0034 00EB4000 		add	r0, r0, r0, lsl #1
 2285 0038 4500     		lsls	r5, r0, #1
 2286 003a ADB2     		uxth	r5, r5
 2287              	.LVL197:
 511:Dsp/widget/wgt_core/UI_Controller.c ****     StrDsp_x += DEFAULT_CHECKBOX_OFFSET;
 2288              		.loc 1 511 5 is_stmt 1 view .LVU635
 511:Dsp/widget/wgt_core/UI_Controller.c ****     StrDsp_x += DEFAULT_CHECKBOX_OFFSET;
 2289              		.loc 1 511 28 is_stmt 0 view .LVU636
 2290 003c B6B2     		uxth	r6, r6
 511:Dsp/widget/wgt_core/UI_Controller.c ****     StrDsp_x += DEFAULT_CHECKBOX_OFFSET;
 2291              		.loc 1 511 31 view .LVU637
 2292 003e 06F10309 		add	r9, r6, #3
 511:Dsp/widget/wgt_core/UI_Controller.c ****     StrDsp_x += DEFAULT_CHECKBOX_OFFSET;
 2293              		.loc 1 511 13 view .LVU638
 2294 0042 0FFA89F9 		sxth	r9, r9
 2295              	.LVL198:
 512:Dsp/widget/wgt_core/UI_Controller.c **** 
 2296              		.loc 1 512 5 is_stmt 1 view .LVU639
 512:Dsp/widget/wgt_core/UI_Controller.c **** 
 2297              		.loc 1 512 14 is_stmt 0 view .LVU640
 2298 0046 6B1D     		adds	r3, r5, #5
 2299 0048 9BB2     		uxth	r3, r3
 2300 004a 0393     		str	r3, [sp, #12]
 2301              	.LVL199:
 514:Dsp/widget/wgt_core/UI_Controller.c ****         str_y += 1;
 2302              		.loc 1 514 5 is_stmt 1 view .LVU641
 514:Dsp/widget/wgt_core/UI_Controller.c ****         str_y += 1;
 2303              		.loc 1 514 19 is_stmt 0 view .LVU642
 2304 004c 1D4B     		ldr	r3, .L219+4
 2305 004e 1878     		ldrb	r0, [r3]	@ zero_extendqisi2
 514:Dsp/widget/wgt_core/UI_Controller.c ****         str_y += 1;
 2306              		.loc 1 514 8 view .LVU643
 2307 0050 0828     		cmp	r0, #8
 2308 0052 23D0     		beq	.L218
 2309              	.LVL200:
 2310              	.L211:
ARM GAS  /var/folders/lx/hc4sn_b53233_zkc9xbbl97r0000gp/T//ccQGj1L2.s 			page 59


 517:Dsp/widget/wgt_core/UI_Controller.c ****     UI_DspInterface.draw_rectangle(StrDsp_x, frame_y, DEFAULT_CHECKBOX_FRAME_SIZE, DEFAULT_CHECKBOX
 2311              		.loc 1 517 5 is_stmt 1 view .LVU644
 517:Dsp/widget/wgt_core/UI_Controller.c ****     UI_DspInterface.draw_rectangle(StrDsp_x, frame_y, DEFAULT_CHECKBOX_FRAME_SIZE, DEFAULT_CHECKBOX
 2312              		.loc 1 517 75 is_stmt 0 view .LVU645
 2313 0054 A288     		ldrh	r2, [r4, #4]	@ unaligned
 517:Dsp/widget/wgt_core/UI_Controller.c ****     UI_DspInterface.draw_rectangle(StrDsp_x, frame_y, DEFAULT_CHECKBOX_FRAME_SIZE, DEFAULT_CHECKBOX
 2314              		.loc 1 517 78 view .LVU646
 2315 0056 0332     		adds	r2, r2, #3
 517:Dsp/widget/wgt_core/UI_Controller.c ****     UI_DspInterface.draw_rectangle(StrDsp_x, frame_y, DEFAULT_CHECKBOX_FRAME_SIZE, DEFAULT_CHECKBOX
 2316              		.loc 1 517 5 view .LVU647
 2317 0058 4FF0010A 		mov	r10, #1
 2318 005c CDF800A0 		str	r10, [sp]
 2319 0060 4346     		mov	r3, r8
 2320 0062 12B2     		sxth	r2, r2
 2321 0064 5946     		mov	r1, fp
 2322 0066 B847     		blx	r7
 2323              	.LVL201:
 518:Dsp/widget/wgt_core/UI_Controller.c **** 
 2324              		.loc 1 518 5 is_stmt 1 view .LVU648
 518:Dsp/widget/wgt_core/UI_Controller.c **** 
 2325              		.loc 1 518 20 is_stmt 0 view .LVU649
 2326 0068 154B     		ldr	r3, .L219
 2327 006a 5F69     		ldr	r7, [r3, #20]
 518:Dsp/widget/wgt_core/UI_Controller.c **** 
 2328              		.loc 1 518 5 view .LVU650
 2329 006c CDF804A0 		str	r10, [sp, #4]
 2330 0070 CDF800A0 		str	r10, [sp]
 2331 0074 0723     		movs	r3, #7
 2332 0076 1A46     		mov	r2, r3
 2333 0078 4946     		mov	r1, r9
 2334 007a BDF90C00 		ldrsh	r0, [sp, #12]
 2335 007e B847     		blx	r7
 2336              	.LVL202:
 520:Dsp/widget/wgt_core/UI_Controller.c ****         UI_DspInterface.fill_rectangle(StrDsp_x + 2, frame_y + 2, DEFAULT_CHECKBOX_FILLFRAME, DEFAU
 2337              		.loc 1 520 5 is_stmt 1 view .LVU651
 520:Dsp/widget/wgt_core/UI_Controller.c ****         UI_DspInterface.fill_rectangle(StrDsp_x + 2, frame_y + 2, DEFAULT_CHECKBOX_FILLFRAME, DEFAU
 2338              		.loc 1 520 12 is_stmt 0 view .LVU652
 2339 0080 247C     		ldrb	r4, [r4, #16]	@ zero_extendqisi2
 2340              	.LVL203:
 520:Dsp/widget/wgt_core/UI_Controller.c ****         UI_DspInterface.fill_rectangle(StrDsp_x + 2, frame_y + 2, DEFAULT_CHECKBOX_FILLFRAME, DEFAU
 2341              		.loc 1 520 8 view .LVU653
 2342 0082 C4B1     		cbz	r4, .L216
 521:Dsp/widget/wgt_core/UI_Controller.c **** 
 2343              		.loc 1 521 9 is_stmt 1 view .LVU654
 521:Dsp/widget/wgt_core/UI_Controller.c **** 
 2344              		.loc 1 521 24 is_stmt 0 view .LVU655
 2345 0084 0E4B     		ldr	r3, .L219
 2346 0086 1F6A     		ldr	r7, [r3, #32]
 521:Dsp/widget/wgt_core/UI_Controller.c **** 
 2347              		.loc 1 521 49 view .LVU656
 2348 0088 E81D     		adds	r0, r5, #7
 521:Dsp/widget/wgt_core/UI_Controller.c **** 
 2349              		.loc 1 521 62 view .LVU657
 2350 008a 711D     		adds	r1, r6, #5
 521:Dsp/widget/wgt_core/UI_Controller.c **** 
 2351              		.loc 1 521 9 view .LVU658
 2352 008c CDF800A0 		str	r10, [sp]
ARM GAS  /var/folders/lx/hc4sn_b53233_zkc9xbbl97r0000gp/T//ccQGj1L2.s 			page 60


 2353 0090 0323     		movs	r3, #3
 2354 0092 1A46     		mov	r2, r3
 2355 0094 09B2     		sxth	r1, r1
 2356 0096 00B2     		sxth	r0, r0
 2357 0098 B847     		blx	r7
 2358              	.LVL204:
 2359 009a 0DE0     		b	.L210
 2360              	.LVL205:
 2361              	.L218:
 515:Dsp/widget/wgt_core/UI_Controller.c **** 
 2362              		.loc 1 515 9 is_stmt 1 view .LVU659
 515:Dsp/widget/wgt_core/UI_Controller.c **** 
 2363              		.loc 1 515 15 is_stmt 0 view .LVU660
 2364 009c 06F10108 		add	r8, r6, #1
 2365 00a0 0FFA88F8 		sxth	r8, r8
 2366              	.LVL206:
 515:Dsp/widget/wgt_core/UI_Controller.c **** 
 2367              		.loc 1 515 15 view .LVU661
 2368 00a4 D6E7     		b	.L211
 2369              	.LVL207:
 2370              	.L212:
 508:Dsp/widget/wgt_core/UI_Controller.c **** 
 2371              		.loc 1 508 16 view .LVU662
 2372 00a6 0024     		movs	r4, #0
 2373 00a8 06E0     		b	.L210
 2374              	.L213:
 508:Dsp/widget/wgt_core/UI_Controller.c **** 
 2375              		.loc 1 508 16 view .LVU663
 2376 00aa 0024     		movs	r4, #0
 2377 00ac 04E0     		b	.L210
 2378              	.L214:
 508:Dsp/widget/wgt_core/UI_Controller.c **** 
 2379              		.loc 1 508 16 view .LVU664
 2380 00ae 0024     		movs	r4, #0
 2381 00b0 02E0     		b	.L210
 2382              	.L215:
 508:Dsp/widget/wgt_core/UI_Controller.c **** 
 2383              		.loc 1 508 16 view .LVU665
 2384 00b2 0024     		movs	r4, #0
 2385 00b4 00E0     		b	.L210
 2386              	.LVL208:
 2387              	.L216:
 523:Dsp/widget/wgt_core/UI_Controller.c **** }
 2388              		.loc 1 523 12 view .LVU666
 2389 00b6 0124     		movs	r4, #1
 2390              	.LVL209:
 2391              	.L210:
 524:Dsp/widget/wgt_core/UI_Controller.c **** 
 2392              		.loc 1 524 1 view .LVU667
 2393 00b8 2046     		mov	r0, r4
 2394 00ba 05B0     		add	sp, sp, #20
 2395              	.LCFI46:
 2396              		.cfi_def_cfa_offset 36
 2397              		@ sp needed
 2398 00bc BDE8F08F 		pop	{r4, r5, r6, r7, r8, r9, r10, fp, pc}
 2399              	.L220:
 2400              		.align	2
ARM GAS  /var/folders/lx/hc4sn_b53233_zkc9xbbl97r0000gp/T//ccQGj1L2.s 			page 61


 2401              	.L219:
 2402 00c0 00000000 		.word	.LANCHOR0
 2403 00c4 00000000 		.word	.LANCHOR2
 2404              		.cfi_endproc
 2405              	.LFE21:
 2407              		.section	.text.UI_SlideBar_CTL,"ax",%progbits
 2408              		.align	1
 2409              		.syntax unified
 2410              		.thumb
 2411              		.thumb_func
 2412              		.fpu fpv4-sp-d16
 2414              	UI_SlideBar_CTL:
 2415              	.LVL210:
 2416              	.LFB27:
 608:Dsp/widget/wgt_core/UI_Controller.c ****     int16_t Block_CoordX = 0;
 2417              		.loc 1 608 1 is_stmt 1 view -0
 2418              		.cfi_startproc
 2419              		@ args = 0, pretend = 0, frame = 0
 2420              		@ frame_needed = 0, uses_anonymous_args = 0
 609:Dsp/widget/wgt_core/UI_Controller.c ****     int16_t Block_CoordY = 0;
 2421              		.loc 1 609 5 view .LVU669
 610:Dsp/widget/wgt_core/UI_Controller.c ****     int16_t input_trip = 0;
 2422              		.loc 1 610 5 view .LVU670
 611:Dsp/widget/wgt_core/UI_Controller.c ****     int16_t str_y = Obj->Gen_Data.y;
 2423              		.loc 1 611 5 view .LVU671
 612:Dsp/widget/wgt_core/UI_Controller.c **** 
 2424              		.loc 1 612 5 view .LVU672
 612:Dsp/widget/wgt_core/UI_Controller.c **** 
 2425              		.loc 1 612 13 is_stmt 0 view .LVU673
 2426 0000 B0F90620 		ldrsh	r2, [r0, #6]	@ unaligned
 2427              	.LVL211:
 614:Dsp/widget/wgt_core/UI_Controller.c ****         (UI_DspInterface.draw_str == NULL) ||
 2428              		.loc 1 614 5 is_stmt 1 view .LVU674
 614:Dsp/widget/wgt_core/UI_Controller.c ****         (UI_DspInterface.draw_str == NULL) ||
 2429              		.loc 1 614 8 is_stmt 0 view .LVU675
 2430 0004 0028     		cmp	r0, #0
 2431 0006 00F08480 		beq	.L227
 608:Dsp/widget/wgt_core/UI_Controller.c ****     int16_t Block_CoordX = 0;
 2432              		.loc 1 608 1 discriminator 1 view .LVU676
 2433 000a 2DE9F041 		push	{r4, r5, r6, r7, r8, lr}
 2434              	.LCFI47:
 2435              		.cfi_def_cfa_offset 24
 2436              		.cfi_offset 4, -24
 2437              		.cfi_offset 5, -20
 2438              		.cfi_offset 6, -16
 2439              		.cfi_offset 7, -12
 2440              		.cfi_offset 8, -8
 2441              		.cfi_offset 14, -4
 2442 000e 82B0     		sub	sp, sp, #8
 2443              	.LCFI48:
 2444              		.cfi_def_cfa_offset 32
 2445 0010 0446     		mov	r4, r0
 2446 0012 1346     		mov	r3, r2
 615:Dsp/widget/wgt_core/UI_Controller.c ****         (UI_DspInterface.fill_rectangle == NULL))
 2447              		.loc 1 615 25 discriminator 1 view .LVU677
 2448 0014 4349     		ldr	r1, .L236
 2449 0016 0E68     		ldr	r6, [r1]
ARM GAS  /var/folders/lx/hc4sn_b53233_zkc9xbbl97r0000gp/T//ccQGj1L2.s 			page 62


 614:Dsp/widget/wgt_core/UI_Controller.c ****         (UI_DspInterface.draw_str == NULL) ||
 2450              		.loc 1 614 23 discriminator 1 view .LVU678
 2451 0018 002E     		cmp	r6, #0
 2452 001a 7CD0     		beq	.L228
 616:Dsp/widget/wgt_core/UI_Controller.c ****         return false;
 2453              		.loc 1 616 25 view .LVU679
 2454 001c 096A     		ldr	r1, [r1, #32]
 615:Dsp/widget/wgt_core/UI_Controller.c ****         (UI_DspInterface.fill_rectangle == NULL))
 2455              		.loc 1 615 44 view .LVU680
 2456 001e 0029     		cmp	r1, #0
 2457 0020 7BD0     		beq	.L229
 619:Dsp/widget/wgt_core/UI_Controller.c ****         str_y += 1;
 2458              		.loc 1 619 5 is_stmt 1 view .LVU681
 619:Dsp/widget/wgt_core/UI_Controller.c ****         str_y += 1;
 2459              		.loc 1 619 19 is_stmt 0 view .LVU682
 2460 0022 4149     		ldr	r1, .L236+4
 2461 0024 0878     		ldrb	r0, [r1]	@ zero_extendqisi2
 2462              	.LVL212:
 619:Dsp/widget/wgt_core/UI_Controller.c ****         str_y += 1;
 2463              		.loc 1 619 8 view .LVU683
 2464 0026 0828     		cmp	r0, #8
 2465 0028 6CD0     		beq	.L235
 2466              	.LVL213:
 2467              	.L223:
 622:Dsp/widget/wgt_core/UI_Controller.c **** 
 2468              		.loc 1 622 5 is_stmt 1 view .LVU684
 622:Dsp/widget/wgt_core/UI_Controller.c **** 
 2469              		.loc 1 622 21 is_stmt 0 view .LVU685
 2470 002a D4F81520 		ldr	r2, [r4, #21]	@ unaligned
 2471 002e 07EE902A 		vmov	s15, r2	@ int
 622:Dsp/widget/wgt_core/UI_Controller.c **** 
 2472              		.loc 1 622 38 view .LVU686
 2473 0032 D4F81120 		ldr	r2, [r4, #17]	@ unaligned
 622:Dsp/widget/wgt_core/UI_Controller.c **** 
 2474              		.loc 1 622 33 view .LVU687
 2475 0036 07EE102A 		vmov	s14, r2
 2476 003a 77EEC77A 		vsub.f32	s15, s15, s14
 622:Dsp/widget/wgt_core/UI_Controller.c **** 
 2477              		.loc 1 622 16 view .LVU688
 2478 003e FDEEE77A 		vcvt.s32.f32	s15, s15
 2479 0042 17EE902A 		vmov	r2, s15	@ int
 2480 0046 15B2     		sxth	r5, r2
 2481              	.LVL214:
 624:Dsp/widget/wgt_core/UI_Controller.c **** 
 2482              		.loc 1 624 5 is_stmt 1 view .LVU689
 624:Dsp/widget/wgt_core/UI_Controller.c **** 
 2483              		.loc 1 624 75 is_stmt 0 view .LVU690
 2484 0048 A288     		ldrh	r2, [r4, #4]	@ unaligned
 624:Dsp/widget/wgt_core/UI_Controller.c **** 
 2485              		.loc 1 624 78 view .LVU691
 2486 004a 0332     		adds	r2, r2, #3
 624:Dsp/widget/wgt_core/UI_Controller.c **** 
 2487              		.loc 1 624 5 view .LVU692
 2488 004c 0121     		movs	r1, #1
 2489 004e 0091     		str	r1, [sp]
 2490 0050 12B2     		sxth	r2, r2
 2491 0052 2168     		ldr	r1, [r4]	@ unaligned
ARM GAS  /var/folders/lx/hc4sn_b53233_zkc9xbbl97r0000gp/T//ccQGj1L2.s 			page 63


 2492 0054 B047     		blx	r6
 2493              	.LVL215:
 626:Dsp/widget/wgt_core/UI_Controller.c ****     {
 2494              		.loc 1 626 5 is_stmt 1 view .LVU693
 626:Dsp/widget/wgt_core/UI_Controller.c ****     {
 2495              		.loc 1 626 12 is_stmt 0 view .LVU694
 2496 0056 237B     		ldrb	r3, [r4, #12]	@ zero_extendqisi2
 626:Dsp/widget/wgt_core/UI_Controller.c ****     {
 2497              		.loc 1 626 8 view .LVU695
 2498 0058 002B     		cmp	r3, #0
 2499 005a 56D1     		bne	.L224
 628:Dsp/widget/wgt_core/UI_Controller.c ****         {
 2500              		.loc 1 628 9 is_stmt 1 view .LVU696
 628:Dsp/widget/wgt_core/UI_Controller.c ****         {
 2501              		.loc 1 628 16 is_stmt 0 view .LVU697
 2502 005c B4F92430 		ldrsh	r3, [r4, #36]	@ unaligned
 628:Dsp/widget/wgt_core/UI_Controller.c ****         {
 2503              		.loc 1 628 12 view .LVU698
 2504 0060 53B9     		cbnz	r3, .L225
 630:Dsp/widget/wgt_core/UI_Controller.c ****         }
 2505              		.loc 1 630 13 is_stmt 1 view .LVU699
 630:Dsp/widget/wgt_core/UI_Controller.c ****         }
 2506              		.loc 1 630 44 is_stmt 0 view .LVU700
 2507 0062 A688     		ldrh	r6, [r4, #4]	@ unaligned
 630:Dsp/widget/wgt_core/UI_Controller.c ****         }
 2508              		.loc 1 630 49 view .LVU701
 2509 0064 2068     		ldr	r0, [r4]	@ unaligned
 2510 0066 FFF7FEFF 		bl	strlen
 2511              	.LVL216:
 630:Dsp/widget/wgt_core/UI_Controller.c ****         }
 2512              		.loc 1 630 47 view .LVU702
 2513 006a 00EB4000 		add	r0, r0, r0, lsl #1
 2514 006e 06EB4006 		add	r6, r6, r0, lsl #1
 2515 0072 B6B2     		uxth	r6, r6
 630:Dsp/widget/wgt_core/UI_Controller.c ****         }
 2516              		.loc 1 630 87 view .LVU703
 2517 0074 0536     		adds	r6, r6, #5
 630:Dsp/widget/wgt_core/UI_Controller.c ****         }
 2518              		.loc 1 630 29 view .LVU704
 2519 0076 A684     		strh	r6, [r4, #36]	@ unaligned
 2520              	.L225:
 633:Dsp/widget/wgt_core/UI_Controller.c ****         {
 2521              		.loc 1 633 9 is_stmt 1 view .LVU705
 633:Dsp/widget/wgt_core/UI_Controller.c ****         {
 2522              		.loc 1 633 16 is_stmt 0 view .LVU706
 2523 0078 B4F92630 		ldrsh	r3, [r4, #38]	@ unaligned
 633:Dsp/widget/wgt_core/UI_Controller.c ****         {
 2524              		.loc 1 633 12 view .LVU707
 2525 007c 13B9     		cbnz	r3, .L226
 635:Dsp/widget/wgt_core/UI_Controller.c ****         }
 2526              		.loc 1 635 13 is_stmt 1 view .LVU708
 635:Dsp/widget/wgt_core/UI_Controller.c ****         }
 2527              		.loc 1 635 44 is_stmt 0 view .LVU709
 2528 007e E388     		ldrh	r3, [r4, #6]	@ unaligned
 635:Dsp/widget/wgt_core/UI_Controller.c ****         }
 2529              		.loc 1 635 47 view .LVU710
 2530 0080 0533     		adds	r3, r3, #5
ARM GAS  /var/folders/lx/hc4sn_b53233_zkc9xbbl97r0000gp/T//ccQGj1L2.s 			page 64


 635:Dsp/widget/wgt_core/UI_Controller.c ****         }
 2531              		.loc 1 635 29 view .LVU711
 2532 0082 E384     		strh	r3, [r4, #38]	@ unaligned
 2533              	.L226:
 638:Dsp/widget/wgt_core/UI_Controller.c ****         Block_CoordX += (Obj->cur_val - Obj->limit_min) / ((float)(input_trip)) * (DEFAULT_SLIDERBA
 2534              		.loc 1 638 9 is_stmt 1 view .LVU712
 638:Dsp/widget/wgt_core/UI_Controller.c ****         Block_CoordX += (Obj->cur_val - Obj->limit_min) / ((float)(input_trip)) * (DEFAULT_SLIDERBA
 2535              		.loc 1 638 22 is_stmt 0 view .LVU713
 2536 0084 B4F92400 		ldrsh	r0, [r4, #36]	@ unaligned
 2537              	.LVL217:
 639:Dsp/widget/wgt_core/UI_Controller.c **** 
 2538              		.loc 1 639 9 is_stmt 1 view .LVU714
 639:Dsp/widget/wgt_core/UI_Controller.c **** 
 2539              		.loc 1 639 29 is_stmt 0 view .LVU715
 2540 0088 D4F81F30 		ldr	r3, [r4, #31]	@ unaligned
 2541 008c 06EE903A 		vmov	s13, r3	@ int
 639:Dsp/widget/wgt_core/UI_Controller.c **** 
 2542              		.loc 1 639 44 view .LVU716
 2543 0090 D4F81130 		ldr	r3, [r4, #17]	@ unaligned
 639:Dsp/widget/wgt_core/UI_Controller.c **** 
 2544              		.loc 1 639 39 view .LVU717
 2545 0094 07EE903A 		vmov	s15, r3
 2546 0098 76EEE76A 		vsub.f32	s13, s13, s15
 639:Dsp/widget/wgt_core/UI_Controller.c **** 
 2547              		.loc 1 639 60 view .LVU718
 2548 009c 07EE905A 		vmov	s15, r5	@ int
 2549 00a0 B8EEE77A 		vcvt.f32.s32	s14, s15
 639:Dsp/widget/wgt_core/UI_Controller.c **** 
 2550              		.loc 1 639 57 view .LVU719
 2551 00a4 C6EE877A 		vdiv.f32	s15, s13, s14
 639:Dsp/widget/wgt_core/UI_Controller.c **** 
 2552              		.loc 1 639 81 view .LVU720
 2553 00a8 9FED207A 		vldr.32	s14, .L236+8
 2554 00ac 27EE877A 		vmul.f32	s14, s15, s14
 639:Dsp/widget/wgt_core/UI_Controller.c **** 
 2555              		.loc 1 639 22 view .LVU721
 2556 00b0 07EE900A 		vmov	s15, r0	@ int
 2557 00b4 F8EEE77A 		vcvt.f32.s32	s15, s15
 2558 00b8 77EE877A 		vadd.f32	s15, s15, s14
 2559 00bc FDEEE77A 		vcvt.s32.f32	s15, s15
 2560 00c0 17EE903A 		vmov	r3, s15	@ int
 2561 00c4 0FFA83F8 		sxth	r8, r3
 2562              	.LVL218:
 641:Dsp/widget/wgt_core/UI_Controller.c **** 
 2563              		.loc 1 641 9 is_stmt 1 view .LVU722
 641:Dsp/widget/wgt_core/UI_Controller.c **** 
 2564              		.loc 1 641 24 is_stmt 0 view .LVU723
 2565 00c8 164F     		ldr	r7, .L236
 641:Dsp/widget/wgt_core/UI_Controller.c **** 
 2566              		.loc 1 641 9 view .LVU724
 2567 00ca 0125     		movs	r5, #1
 2568              	.LVL219:
 641:Dsp/widget/wgt_core/UI_Controller.c **** 
 2569              		.loc 1 641 9 view .LVU725
 2570 00cc 0095     		str	r5, [sp]
 2571 00ce 0223     		movs	r3, #2
 2572 00d0 2822     		movs	r2, #40
ARM GAS  /var/folders/lx/hc4sn_b53233_zkc9xbbl97r0000gp/T//ccQGj1L2.s 			page 65


 2573 00d2 B4F92610 		ldrsh	r1, [r4, #38]	@ unaligned
 2574 00d6 3E6A     		ldr	r6, [r7, #32]
 2575 00d8 B047     		blx	r6
 2576              	.LVL220:
 643:Dsp/widget/wgt_core/UI_Controller.c ****         UI_DspInterface.fill_rectangle(Block_CoordX, Block_CoordY, DEFAULT_SLIDERBAR_BLOCK_WIDTH, D
 2577              		.loc 1 643 9 is_stmt 1 view .LVU726
 643:Dsp/widget/wgt_core/UI_Controller.c ****         UI_DspInterface.fill_rectangle(Block_CoordX, Block_CoordY, DEFAULT_SLIDERBAR_BLOCK_WIDTH, D
 2578              		.loc 1 643 37 is_stmt 0 view .LVU727
 2579 00da E488     		ldrh	r4, [r4, #6]	@ unaligned
 2580              	.LVL221:
 643:Dsp/widget/wgt_core/UI_Controller.c ****         UI_DspInterface.fill_rectangle(Block_CoordX, Block_CoordY, DEFAULT_SLIDERBAR_BLOCK_WIDTH, D
 2581              		.loc 1 643 40 view .LVU728
 2582 00dc E11C     		adds	r1, r4, #3
 2583              	.LVL222:
 644:Dsp/widget/wgt_core/UI_Controller.c ****         UI_DspInterface.fill_rectangle(Block_CoordX, Block_CoordY + (DEFAULT_SLIDERBAR_BLOCK_HIGH /
 2584              		.loc 1 644 9 is_stmt 1 view .LVU729
 2585 00de 0095     		str	r5, [sp]
 2586 00e0 0623     		movs	r3, #6
 2587 00e2 0322     		movs	r2, #3
 2588 00e4 09B2     		sxth	r1, r1
 644:Dsp/widget/wgt_core/UI_Controller.c ****         UI_DspInterface.fill_rectangle(Block_CoordX, Block_CoordY + (DEFAULT_SLIDERBAR_BLOCK_HIGH /
 2589              		.loc 1 644 9 is_stmt 0 view .LVU730
 2590 00e6 4046     		mov	r0, r8
 2591 00e8 3E6A     		ldr	r6, [r7, #32]
 2592 00ea B047     		blx	r6
 2593              	.LVL223:
 645:Dsp/widget/wgt_core/UI_Controller.c ****     }
 2594              		.loc 1 645 9 is_stmt 1 view .LVU731
 645:Dsp/widget/wgt_core/UI_Controller.c ****     }
 2595              		.loc 1 645 24 is_stmt 0 view .LVU732
 2596 00ec 3F6A     		ldr	r7, [r7, #32]
 645:Dsp/widget/wgt_core/UI_Controller.c ****     }
 2597              		.loc 1 645 67 view .LVU733
 2598 00ee 611D     		adds	r1, r4, #5
 645:Dsp/widget/wgt_core/UI_Controller.c ****     }
 2599              		.loc 1 645 9 view .LVU734
 2600 00f0 0095     		str	r5, [sp]
 2601 00f2 0223     		movs	r3, #2
 2602 00f4 0322     		movs	r2, #3
 2603 00f6 09B2     		sxth	r1, r1
 2604 00f8 4046     		mov	r0, r8
 2605 00fa B847     		blx	r7
 2606              	.LVL224:
 653:Dsp/widget/wgt_core/UI_Controller.c **** }
 2607              		.loc 1 653 12 view .LVU735
 2608 00fc 2846     		mov	r0, r5
 2609              	.LVL225:
 2610              	.L222:
 654:Dsp/widget/wgt_core/UI_Controller.c **** 
 2611              		.loc 1 654 1 view .LVU736
 2612 00fe 02B0     		add	sp, sp, #8
 2613              	.LCFI49:
 2614              		.cfi_remember_state
 2615              		.cfi_def_cfa_offset 24
 2616              		@ sp needed
 2617 0100 BDE8F081 		pop	{r4, r5, r6, r7, r8, pc}
 2618              	.LVL226:
ARM GAS  /var/folders/lx/hc4sn_b53233_zkc9xbbl97r0000gp/T//ccQGj1L2.s 			page 66


 2619              	.L235:
 2620              	.LCFI50:
 2621              		.cfi_restore_state
 620:Dsp/widget/wgt_core/UI_Controller.c **** 
 2622              		.loc 1 620 9 is_stmt 1 view .LVU737
 620:Dsp/widget/wgt_core/UI_Controller.c **** 
 2623              		.loc 1 620 15 is_stmt 0 view .LVU738
 2624 0104 0132     		adds	r2, r2, #1
 2625              	.LVL227:
 620:Dsp/widget/wgt_core/UI_Controller.c **** 
 2626              		.loc 1 620 15 view .LVU739
 2627 0106 13B2     		sxth	r3, r2
 2628              	.LVL228:
 620:Dsp/widget/wgt_core/UI_Controller.c **** 
 2629              		.loc 1 620 15 view .LVU740
 2630 0108 8FE7     		b	.L223
 2631              	.LVL229:
 2632              	.L224:
 647:Dsp/widget/wgt_core/UI_Controller.c ****     {
 2633              		.loc 1 647 10 is_stmt 1 view .LVU741
 647:Dsp/widget/wgt_core/UI_Controller.c ****     {
 2634              		.loc 1 647 13 is_stmt 0 view .LVU742
 2635 010a 012B     		cmp	r3, #1
 2636 010c 07D1     		bne	.L230
 653:Dsp/widget/wgt_core/UI_Controller.c **** }
 2637              		.loc 1 653 12 view .LVU743
 2638 010e 0120     		movs	r0, #1
 2639 0110 F5E7     		b	.L222
 2640              	.LVL230:
 2641              	.L227:
 2642              	.LCFI51:
 2643              		.cfi_def_cfa_offset 0
 2644              		.cfi_restore 4
 2645              		.cfi_restore 5
 2646              		.cfi_restore 6
 2647              		.cfi_restore 7
 2648              		.cfi_restore 8
 2649              		.cfi_restore 14
 617:Dsp/widget/wgt_core/UI_Controller.c **** 
 2650              		.loc 1 617 16 view .LVU744
 2651 0112 0020     		movs	r0, #0
 2652              	.LVL231:
 654:Dsp/widget/wgt_core/UI_Controller.c **** 
 2653              		.loc 1 654 1 view .LVU745
 2654 0114 7047     		bx	lr
 2655              	.LVL232:
 2656              	.L228:
 2657              	.LCFI52:
 2658              		.cfi_def_cfa_offset 32
 2659              		.cfi_offset 4, -24
 2660              		.cfi_offset 5, -20
 2661              		.cfi_offset 6, -16
 2662              		.cfi_offset 7, -12
 2663              		.cfi_offset 8, -8
 2664              		.cfi_offset 14, -4
 617:Dsp/widget/wgt_core/UI_Controller.c **** 
 2665              		.loc 1 617 16 view .LVU746
ARM GAS  /var/folders/lx/hc4sn_b53233_zkc9xbbl97r0000gp/T//ccQGj1L2.s 			page 67


 2666 0116 0020     		movs	r0, #0
 2667              	.LVL233:
 617:Dsp/widget/wgt_core/UI_Controller.c **** 
 2668              		.loc 1 617 16 view .LVU747
 2669 0118 F1E7     		b	.L222
 2670              	.LVL234:
 2671              	.L229:
 617:Dsp/widget/wgt_core/UI_Controller.c **** 
 2672              		.loc 1 617 16 view .LVU748
 2673 011a 0020     		movs	r0, #0
 2674              	.LVL235:
 617:Dsp/widget/wgt_core/UI_Controller.c **** 
 2675              		.loc 1 617 16 view .LVU749
 2676 011c EFE7     		b	.L222
 2677              	.LVL236:
 2678              	.L230:
 651:Dsp/widget/wgt_core/UI_Controller.c **** 
 2679              		.loc 1 651 16 view .LVU750
 2680 011e 0020     		movs	r0, #0
 2681 0120 EDE7     		b	.L222
 2682              	.L237:
 2683 0122 00BF     		.align	2
 2684              	.L236:
 2685 0124 00000000 		.word	.LANCHOR0
 2686 0128 00000000 		.word	.LANCHOR2
 2687 012c 00001442 		.word	1108606976
 2688              		.cfi_endproc
 2689              	.LFE27:
 2691              		.section	.text.UI_ProcessBar_DspFrameBar,"ax",%progbits
 2692              		.align	1
 2693              		.syntax unified
 2694              		.thumb
 2695              		.thumb_func
 2696              		.fpu fpv4-sp-d16
 2698              	UI_ProcessBar_DspFrameBar:
 2699              	.LVL237:
 2700              	.LFB36:
 821:Dsp/widget/wgt_core/UI_Controller.c **** 
 822:Dsp/widget/wgt_core/UI_Controller.c **** static bool UI_ProcessBar_DspFrameBar(UI_ProcessBarObj_TypeDef *Obj)
 823:Dsp/widget/wgt_core/UI_Controller.c **** {
 2701              		.loc 1 823 1 is_stmt 1 view -0
 2702              		.cfi_startproc
 2703              		@ args = 0, pretend = 0, frame = 0
 2704              		@ frame_needed = 0, uses_anonymous_args = 0
 824:Dsp/widget/wgt_core/UI_Controller.c ****     int16_t frame_CoordX = 0;
 2705              		.loc 1 824 5 view .LVU752
 825:Dsp/widget/wgt_core/UI_Controller.c ****     uint8_t frame_width = 0;
 2706              		.loc 1 825 5 view .LVU753
 826:Dsp/widget/wgt_core/UI_Controller.c ****     uint8_t frame_Height = 0;
 2707              		.loc 1 826 5 view .LVU754
 827:Dsp/widget/wgt_core/UI_Controller.c ****     int16_t block_start_CoordX = 0;
 2708              		.loc 1 827 5 view .LVU755
 828:Dsp/widget/wgt_core/UI_Controller.c ****     int16_t block_start_CoordY = 0;
 2709              		.loc 1 828 5 view .LVU756
 829:Dsp/widget/wgt_core/UI_Controller.c ****     int16_t block_end_CoordX = 0;
 2710              		.loc 1 829 5 view .LVU757
 830:Dsp/widget/wgt_core/UI_Controller.c ****     int16_t block_end_CoordY = 0;
ARM GAS  /var/folders/lx/hc4sn_b53233_zkc9xbbl97r0000gp/T//ccQGj1L2.s 			page 68


 2711              		.loc 1 830 5 view .LVU758
 831:Dsp/widget/wgt_core/UI_Controller.c **** 
 832:Dsp/widget/wgt_core/UI_Controller.c ****     if (Obj == NULL)
 2712              		.loc 1 832 5 view .LVU759
 2713              		.loc 1 832 8 is_stmt 0 view .LVU760
 2714 0000 0028     		cmp	r0, #0
 2715 0002 00F0A980 		beq	.L243
 823:Dsp/widget/wgt_core/UI_Controller.c ****     int16_t frame_CoordX = 0;
 2716              		.loc 1 823 1 view .LVU761
 2717 0006 2DE9F047 		push	{r4, r5, r6, r7, r8, r9, r10, lr}
 2718              	.LCFI53:
 2719              		.cfi_def_cfa_offset 32
 2720              		.cfi_offset 4, -32
 2721              		.cfi_offset 5, -28
 2722              		.cfi_offset 6, -24
 2723              		.cfi_offset 7, -20
 2724              		.cfi_offset 8, -16
 2725              		.cfi_offset 9, -12
 2726              		.cfi_offset 10, -8
 2727              		.cfi_offset 14, -4
 2728 000a 82B0     		sub	sp, sp, #8
 2729              	.LCFI54:
 2730              		.cfi_def_cfa_offset 40
 2731 000c 0546     		mov	r5, r0
 833:Dsp/widget/wgt_core/UI_Controller.c ****         return false;
 834:Dsp/widget/wgt_core/UI_Controller.c **** 
 835:Dsp/widget/wgt_core/UI_Controller.c ****     frame_CoordX = Obj->Gen_Data.x + strlen(Obj->Gen_Data.label) * STR_DIS + 5;
 2732              		.loc 1 835 5 is_stmt 1 view .LVU762
 2733              		.loc 1 835 33 is_stmt 0 view .LVU763
 2734 000e B0F90430 		ldrsh	r3, [r0, #4]	@ unaligned
 2735 0012 1FB2     		sxth	r7, r3
 2736 0014 9CB2     		uxth	r4, r3
 2737              		.loc 1 835 58 view .LVU764
 2738 0016 0668     		ldr	r6, [r0]	@ unaligned
 2739              		.loc 1 835 38 view .LVU765
 2740 0018 3046     		mov	r0, r6
 2741              	.LVL238:
 2742              		.loc 1 835 38 view .LVU766
 2743 001a FFF7FEFF 		bl	strlen
 2744              	.LVL239:
 2745              		.loc 1 835 36 view .LVU767
 2746 001e 00EB4000 		add	r0, r0, r0, lsl #1
 2747 0022 04EB4000 		add	r0, r4, r0, lsl #1
 2748 0026 80B2     		uxth	r0, r0
 2749              		.loc 1 835 76 view .LVU768
 2750 0028 0530     		adds	r0, r0, #5
 2751              		.loc 1 835 18 view .LVU769
 2752 002a 04B2     		sxth	r4, r0
 2753              	.LVL240:
 836:Dsp/widget/wgt_core/UI_Controller.c **** 
 837:Dsp/widget/wgt_core/UI_Controller.c ****     switch (base_font)
 2754              		.loc 1 837 5 is_stmt 1 view .LVU770
 2755 002c 4D4B     		ldr	r3, .L255
 2756 002e 1878     		ldrb	r0, [r3]	@ zero_extendqisi2
 2757 0030 0828     		cmp	r0, #8
 2758 0032 03D0     		beq	.L253
 838:Dsp/widget/wgt_core/UI_Controller.c ****     {
ARM GAS  /var/folders/lx/hc4sn_b53233_zkc9xbbl97r0000gp/T//ccQGj1L2.s 			page 69


 839:Dsp/widget/wgt_core/UI_Controller.c ****     case Font_8:
 840:Dsp/widget/wgt_core/UI_Controller.c ****         frame_Height = 5;
 841:Dsp/widget/wgt_core/UI_Controller.c ****         break;
 842:Dsp/widget/wgt_core/UI_Controller.c **** 
 843:Dsp/widget/wgt_core/UI_Controller.c ****     case Font_12:
 844:Dsp/widget/wgt_core/UI_Controller.c ****     case Font_16:
 845:Dsp/widget/wgt_core/UI_Controller.c ****     default:
 846:Dsp/widget/wgt_core/UI_Controller.c ****         return false;
 2759              		.loc 1 846 16 is_stmt 0 view .LVU771
 2760 0034 0020     		movs	r0, #0
 2761              	.LVL241:
 2762              	.L239:
 847:Dsp/widget/wgt_core/UI_Controller.c ****     }
 848:Dsp/widget/wgt_core/UI_Controller.c **** 
 849:Dsp/widget/wgt_core/UI_Controller.c ****     if (Obj->width / 2 == 0)
 850:Dsp/widget/wgt_core/UI_Controller.c ****         frame_width = Obj->width - 1;
 851:Dsp/widget/wgt_core/UI_Controller.c **** 
 852:Dsp/widget/wgt_core/UI_Controller.c ****     UI_DspInterface.draw_str(base_font, Obj->Gen_Data.label, Obj->Gen_Data.x, Obj->Gen_Data.y, true
 853:Dsp/widget/wgt_core/UI_Controller.c ****     UI_DspInterface.draw_rectangle(frame_CoordX, Obj->Gen_Data.y, frame_width, frame_Height, DEFAUL
 854:Dsp/widget/wgt_core/UI_Controller.c **** 
 855:Dsp/widget/wgt_core/UI_Controller.c ****     if (Obj->Mv_Dir == UI_ProcBar_GrothFrom_Left)
 856:Dsp/widget/wgt_core/UI_Controller.c ****     {
 857:Dsp/widget/wgt_core/UI_Controller.c ****         block_start_CoordX = Obj->Gen_Data.x + 2;
 858:Dsp/widget/wgt_core/UI_Controller.c ****         block_start_CoordY = Obj->Gen_Data.y + 2;
 859:Dsp/widget/wgt_core/UI_Controller.c **** 
 860:Dsp/widget/wgt_core/UI_Controller.c ****         block_end_CoordX = (Obj->cur_val / (float)Obj->range) * (frame_width - 4);
 861:Dsp/widget/wgt_core/UI_Controller.c ****         block_end_CoordY = block_start_CoordY;
 862:Dsp/widget/wgt_core/UI_Controller.c ****     }
 863:Dsp/widget/wgt_core/UI_Controller.c ****     else if (Obj->Mv_Dir == UI_ProcBar_GrothFrom_Mid)
 864:Dsp/widget/wgt_core/UI_Controller.c ****     {
 865:Dsp/widget/wgt_core/UI_Controller.c ****         UI_DspInterface.draw_line_h(Obj->Gen_Data.x + frame_width / 2, Obj->Gen_Data.y, frame_Heigh
 866:Dsp/widget/wgt_core/UI_Controller.c ****         block_start_CoordY = Obj->Gen_Data.y + 2;
 867:Dsp/widget/wgt_core/UI_Controller.c **** 
 868:Dsp/widget/wgt_core/UI_Controller.c ****         if (Obj->cur_val < Obj->min + (Obj->range / 2))
 869:Dsp/widget/wgt_core/UI_Controller.c ****         {
 870:Dsp/widget/wgt_core/UI_Controller.c ****             block_start_CoordX = (Obj->cur_val / (float)Obj->range) * Obj->width;
 871:Dsp/widget/wgt_core/UI_Controller.c ****             block_end_CoordX = Obj->Gen_Data.x + frame_width / 2 - 1;
 872:Dsp/widget/wgt_core/UI_Controller.c ****         }
 873:Dsp/widget/wgt_core/UI_Controller.c ****         else if (Obj->cur_val > Obj->min + (Obj->range / 2))
 874:Dsp/widget/wgt_core/UI_Controller.c ****         {
 875:Dsp/widget/wgt_core/UI_Controller.c ****             block_start_CoordX = Obj->Gen_Data.x + frame_width / 2 + 1;
 876:Dsp/widget/wgt_core/UI_Controller.c ****             block_end_CoordX = (Obj->cur_val / (float)Obj->range) * Obj->width;
 877:Dsp/widget/wgt_core/UI_Controller.c ****         }
 878:Dsp/widget/wgt_core/UI_Controller.c **** 
 879:Dsp/widget/wgt_core/UI_Controller.c ****         UI_DspInterface.fill_rectangle(block_start_CoordX, block_start_CoordY, block_end_CoordX - b
 880:Dsp/widget/wgt_core/UI_Controller.c ****     }
 881:Dsp/widget/wgt_core/UI_Controller.c ****     else
 882:Dsp/widget/wgt_core/UI_Controller.c ****         return false;
 883:Dsp/widget/wgt_core/UI_Controller.c **** 
 884:Dsp/widget/wgt_core/UI_Controller.c ****     return true;
 885:Dsp/widget/wgt_core/UI_Controller.c **** }
 2763              		.loc 1 885 1 view .LVU772
 2764 0036 02B0     		add	sp, sp, #8
 2765              	.LCFI55:
 2766              		.cfi_remember_state
 2767              		.cfi_def_cfa_offset 32
 2768              		@ sp needed
ARM GAS  /var/folders/lx/hc4sn_b53233_zkc9xbbl97r0000gp/T//ccQGj1L2.s 			page 70


 2769 0038 BDE8F087 		pop	{r4, r5, r6, r7, r8, r9, r10, pc}
 2770              	.LVL242:
 2771              	.L253:
 2772              	.LCFI56:
 2773              		.cfi_restore_state
 840:Dsp/widget/wgt_core/UI_Controller.c ****         break;
 2774              		.loc 1 840 9 is_stmt 1 view .LVU773
 841:Dsp/widget/wgt_core/UI_Controller.c **** 
 2775              		.loc 1 841 9 view .LVU774
 849:Dsp/widget/wgt_core/UI_Controller.c ****         frame_width = Obj->width - 1;
 2776              		.loc 1 849 5 view .LVU775
 849:Dsp/widget/wgt_core/UI_Controller.c ****         frame_width = Obj->width - 1;
 2777              		.loc 1 849 12 is_stmt 0 view .LVU776
 2778 003c 95F82080 		ldrb	r8, [r5, #32]	@ zero_extendqisi2
 849:Dsp/widget/wgt_core/UI_Controller.c ****         frame_width = Obj->width - 1;
 2779              		.loc 1 849 8 view .LVU777
 2780 0040 B8F1010F 		cmp	r8, #1
 2781 0044 61D9     		bls	.L254
 825:Dsp/widget/wgt_core/UI_Controller.c ****     uint8_t frame_Height = 0;
 2782              		.loc 1 825 13 view .LVU778
 2783 0046 4FF00008 		mov	r8, #0
 2784              	.LVL243:
 2785              	.L240:
 852:Dsp/widget/wgt_core/UI_Controller.c ****     UI_DspInterface.draw_rectangle(frame_CoordX, Obj->Gen_Data.y, frame_width, frame_Height, DEFAUL
 2786              		.loc 1 852 5 is_stmt 1 view .LVU779
 852:Dsp/widget/wgt_core/UI_Controller.c ****     UI_DspInterface.draw_rectangle(frame_CoordX, Obj->Gen_Data.y, frame_width, frame_Height, DEFAUL
 2787              		.loc 1 852 20 is_stmt 0 view .LVU780
 2788 004a DFF81CA1 		ldr	r10, .L255+4
 852:Dsp/widget/wgt_core/UI_Controller.c ****     UI_DspInterface.draw_rectangle(frame_CoordX, Obj->Gen_Data.y, frame_width, frame_Height, DEFAUL
 2789              		.loc 1 852 5 view .LVU781
 2790 004e 4FF00109 		mov	r9, #1
 2791 0052 CDF80090 		str	r9, [sp]
 2792 0056 B5F90630 		ldrsh	r3, [r5, #6]	@ unaligned
 2793 005a 3A46     		mov	r2, r7
 2794 005c 3146     		mov	r1, r6
 2795 005e DAF80060 		ldr	r6, [r10]
 2796 0062 B047     		blx	r6
 2797              	.LVL244:
 853:Dsp/widget/wgt_core/UI_Controller.c **** 
 2798              		.loc 1 853 5 is_stmt 1 view .LVU782
 853:Dsp/widget/wgt_core/UI_Controller.c **** 
 2799              		.loc 1 853 20 is_stmt 0 view .LVU783
 2800 0064 DAF81460 		ldr	r6, [r10, #20]
 853:Dsp/widget/wgt_core/UI_Controller.c **** 
 2801              		.loc 1 853 5 view .LVU784
 2802 0068 CDF80490 		str	r9, [sp, #4]
 2803 006c CDF80090 		str	r9, [sp]
 2804 0070 0523     		movs	r3, #5
 2805 0072 4246     		mov	r2, r8
 2806 0074 B5F90610 		ldrsh	r1, [r5, #6]	@ unaligned
 2807 0078 2046     		mov	r0, r4
 2808 007a B047     		blx	r6
 2809              	.LVL245:
 855:Dsp/widget/wgt_core/UI_Controller.c ****     {
 2810              		.loc 1 855 5 is_stmt 1 view .LVU785
 855:Dsp/widget/wgt_core/UI_Controller.c ****     {
 2811              		.loc 1 855 12 is_stmt 0 view .LVU786
ARM GAS  /var/folders/lx/hc4sn_b53233_zkc9xbbl97r0000gp/T//ccQGj1L2.s 			page 71


 2812 007c 95F82330 		ldrb	r3, [r5, #35]	@ zero_extendqisi2
 855:Dsp/widget/wgt_core/UI_Controller.c ****     {
 2813              		.loc 1 855 8 view .LVU787
 2814 0080 002B     		cmp	r3, #0
 2815 0082 6BD0     		beq	.L246
 863:Dsp/widget/wgt_core/UI_Controller.c ****     {
 2816              		.loc 1 863 10 is_stmt 1 view .LVU788
 863:Dsp/widget/wgt_core/UI_Controller.c ****     {
 2817              		.loc 1 863 13 is_stmt 0 view .LVU789
 2818 0084 4B45     		cmp	r3, r9
 2819 0086 6BD1     		bne	.L247
 865:Dsp/widget/wgt_core/UI_Controller.c ****         block_start_CoordY = Obj->Gen_Data.y + 2;
 2820              		.loc 1 865 9 is_stmt 1 view .LVU790
 865:Dsp/widget/wgt_core/UI_Controller.c ****         block_start_CoordY = Obj->Gen_Data.y + 2;
 2821              		.loc 1 865 24 is_stmt 0 view .LVU791
 2822 0088 DAF80840 		ldr	r4, [r10, #8]
 2823              	.LVL246:
 865:Dsp/widget/wgt_core/UI_Controller.c ****         block_start_CoordY = Obj->Gen_Data.y + 2;
 2824              		.loc 1 865 50 view .LVU792
 2825 008c A888     		ldrh	r0, [r5, #4]	@ unaligned
 865:Dsp/widget/wgt_core/UI_Controller.c ****         block_start_CoordY = Obj->Gen_Data.y + 2;
 2826              		.loc 1 865 53 view .LVU793
 2827 008e 28FA09F6 		lsr	r6, r8, r9
 2828 0092 00EB5800 		add	r0, r0, r8, lsr #1
 865:Dsp/widget/wgt_core/UI_Controller.c ****         block_start_CoordY = Obj->Gen_Data.y + 2;
 2829              		.loc 1 865 9 view .LVU794
 2830 0096 4B46     		mov	r3, r9
 2831 0098 CDF80090 		str	r9, [sp]
 2832 009c 0522     		movs	r2, #5
 2833 009e B5F90610 		ldrsh	r1, [r5, #6]	@ unaligned
 2834 00a2 00B2     		sxth	r0, r0
 2835 00a4 A047     		blx	r4
 2836              	.LVL247:
 866:Dsp/widget/wgt_core/UI_Controller.c **** 
 2837              		.loc 1 866 9 is_stmt 1 view .LVU795
 866:Dsp/widget/wgt_core/UI_Controller.c **** 
 2838              		.loc 1 866 43 is_stmt 0 view .LVU796
 2839 00a6 E988     		ldrh	r1, [r5, #6]	@ unaligned
 866:Dsp/widget/wgt_core/UI_Controller.c **** 
 2840              		.loc 1 866 46 view .LVU797
 2841 00a8 0231     		adds	r1, r1, #2
 866:Dsp/widget/wgt_core/UI_Controller.c **** 
 2842              		.loc 1 866 28 view .LVU798
 2843 00aa 09B2     		sxth	r1, r1
 2844              	.LVL248:
 868:Dsp/widget/wgt_core/UI_Controller.c ****         {
 2845              		.loc 1 868 9 is_stmt 1 view .LVU799
 868:Dsp/widget/wgt_core/UI_Controller.c ****         {
 2846              		.loc 1 868 16 is_stmt 0 view .LVU800
 2847 00ac EC69     		ldr	r4, [r5, #28]	@ unaligned
 868:Dsp/widget/wgt_core/UI_Controller.c ****         {
 2848              		.loc 1 868 31 view .LVU801
 2849 00ae 2A69     		ldr	r2, [r5, #16]	@ unaligned
 868:Dsp/widget/wgt_core/UI_Controller.c ****         {
 2850              		.loc 1 868 43 view .LVU802
 2851 00b0 AB69     		ldr	r3, [r5, #24]	@ unaligned
 868:Dsp/widget/wgt_core/UI_Controller.c ****         {
ARM GAS  /var/folders/lx/hc4sn_b53233_zkc9xbbl97r0000gp/T//ccQGj1L2.s 			page 72


 2852              		.loc 1 868 51 view .LVU803
 2853 00b2 03EBD370 		add	r0, r3, r3, lsr #31
 868:Dsp/widget/wgt_core/UI_Controller.c ****         {
 2854              		.loc 1 868 37 view .LVU804
 2855 00b6 02EB6002 		add	r2, r2, r0, asr #1
 868:Dsp/widget/wgt_core/UI_Controller.c ****         {
 2856              		.loc 1 868 12 view .LVU805
 2857 00ba 9442     		cmp	r4, r2
 2858 00bc 2ADA     		bge	.L241
 870:Dsp/widget/wgt_core/UI_Controller.c ****             block_end_CoordX = Obj->Gen_Data.x + frame_width / 2 - 1;
 2859              		.loc 1 870 13 is_stmt 1 view .LVU806
 870:Dsp/widget/wgt_core/UI_Controller.c ****             block_end_CoordX = Obj->Gen_Data.x + frame_width / 2 - 1;
 2860              		.loc 1 870 50 is_stmt 0 view .LVU807
 2861 00be 07EE903A 		vmov	s15, r3	@ int
 2862 00c2 F8EEE77A 		vcvt.f32.s32	s15, s15
 870:Dsp/widget/wgt_core/UI_Controller.c ****             block_end_CoordX = Obj->Gen_Data.x + frame_width / 2 - 1;
 2863              		.loc 1 870 48 view .LVU808
 2864 00c6 07EE104A 		vmov	s14, r4	@ int
 2865 00ca B8EEC77A 		vcvt.f32.s32	s14, s14
 2866 00ce C7EE276A 		vdiv.f32	s13, s14, s15
 870:Dsp/widget/wgt_core/UI_Controller.c ****             block_end_CoordX = Obj->Gen_Data.x + frame_width / 2 - 1;
 2867              		.loc 1 870 74 view .LVU809
 2868 00d2 95F82030 		ldrb	r3, [r5, #32]	@ zero_extendqisi2
 2869 00d6 07EE903A 		vmov	s15, r3	@ int
 870:Dsp/widget/wgt_core/UI_Controller.c ****             block_end_CoordX = Obj->Gen_Data.x + frame_width / 2 - 1;
 2870              		.loc 1 870 69 view .LVU810
 2871 00da F8EEE77A 		vcvt.f32.s32	s15, s15
 2872 00de 67EEA67A 		vmul.f32	s15, s15, s13
 870:Dsp/widget/wgt_core/UI_Controller.c ****             block_end_CoordX = Obj->Gen_Data.x + frame_width / 2 - 1;
 2873              		.loc 1 870 32 view .LVU811
 2874 00e2 FDEEE77A 		vcvt.s32.f32	s15, s15
 2875 00e6 17EE903A 		vmov	r3, s15	@ int
 2876 00ea 18B2     		sxth	r0, r3
 2877              	.LVL249:
 871:Dsp/widget/wgt_core/UI_Controller.c ****         }
 2878              		.loc 1 871 13 is_stmt 1 view .LVU812
 871:Dsp/widget/wgt_core/UI_Controller.c ****         }
 2879              		.loc 1 871 45 is_stmt 0 view .LVU813
 2880 00ec AA88     		ldrh	r2, [r5, #4]	@ unaligned
 871:Dsp/widget/wgt_core/UI_Controller.c ****         }
 2881              		.loc 1 871 48 view .LVU814
 2882 00ee 3244     		add	r2, r2, r6
 2883 00f0 92B2     		uxth	r2, r2
 871:Dsp/widget/wgt_core/UI_Controller.c ****         }
 2884              		.loc 1 871 66 view .LVU815
 2885 00f2 013A     		subs	r2, r2, #1
 871:Dsp/widget/wgt_core/UI_Controller.c ****         }
 2886              		.loc 1 871 30 view .LVU816
 2887 00f4 12B2     		sxth	r2, r2
 2888              	.LVL250:
 2889              	.L242:
 879:Dsp/widget/wgt_core/UI_Controller.c ****     }
 2890              		.loc 1 879 9 is_stmt 1 view .LVU817
 879:Dsp/widget/wgt_core/UI_Controller.c ****     }
 2891              		.loc 1 879 24 is_stmt 0 view .LVU818
 2892 00f6 1C4B     		ldr	r3, .L255+4
 2893 00f8 1D6A     		ldr	r5, [r3, #32]
ARM GAS  /var/folders/lx/hc4sn_b53233_zkc9xbbl97r0000gp/T//ccQGj1L2.s 			page 73


 2894              	.LVL251:
 879:Dsp/widget/wgt_core/UI_Controller.c ****     }
 2895              		.loc 1 879 9 view .LVU819
 2896 00fa 121A     		subs	r2, r2, r0
 2897              	.LVL252:
 879:Dsp/widget/wgt_core/UI_Controller.c ****     }
 2898              		.loc 1 879 9 view .LVU820
 2899 00fc 0124     		movs	r4, #1
 2900 00fe 0094     		str	r4, [sp]
 2901 0100 0323     		movs	r3, #3
 2902 0102 D2B2     		uxtb	r2, r2
 2903 0104 A847     		blx	r5
 2904              	.LVL253:
 884:Dsp/widget/wgt_core/UI_Controller.c **** }
 2905              		.loc 1 884 12 view .LVU821
 2906 0106 2046     		mov	r0, r4
 2907 0108 95E7     		b	.L239
 2908              	.LVL254:
 2909              	.L254:
 850:Dsp/widget/wgt_core/UI_Controller.c **** 
 2910              		.loc 1 850 9 is_stmt 1 view .LVU822
 850:Dsp/widget/wgt_core/UI_Controller.c **** 
 2911              		.loc 1 850 21 is_stmt 0 view .LVU823
 2912 010a 08F1FF38 		add	r8, r8, #-1
 2913 010e 5FFA88F8 		uxtb	r8, r8
 2914              	.LVL255:
 850:Dsp/widget/wgt_core/UI_Controller.c **** 
 2915              		.loc 1 850 21 view .LVU824
 2916 0112 9AE7     		b	.L240
 2917              	.LVL256:
 2918              	.L241:
 873:Dsp/widget/wgt_core/UI_Controller.c ****         {
 2919              		.loc 1 873 14 is_stmt 1 view .LVU825
 873:Dsp/widget/wgt_core/UI_Controller.c ****         {
 2920              		.loc 1 873 17 is_stmt 0 view .LVU826
 2921 0114 9442     		cmp	r4, r2
 2922 0116 1CDD     		ble	.L248
 875:Dsp/widget/wgt_core/UI_Controller.c ****             block_end_CoordX = (Obj->cur_val / (float)Obj->range) * Obj->width;
 2923              		.loc 1 875 13 is_stmt 1 view .LVU827
 875:Dsp/widget/wgt_core/UI_Controller.c ****             block_end_CoordX = (Obj->cur_val / (float)Obj->range) * Obj->width;
 2924              		.loc 1 875 47 is_stmt 0 view .LVU828
 2925 0118 A888     		ldrh	r0, [r5, #4]	@ unaligned
 875:Dsp/widget/wgt_core/UI_Controller.c ****             block_end_CoordX = (Obj->cur_val / (float)Obj->range) * Obj->width;
 2926              		.loc 1 875 50 view .LVU829
 2927 011a 3044     		add	r0, r0, r6
 2928 011c 80B2     		uxth	r0, r0
 875:Dsp/widget/wgt_core/UI_Controller.c ****             block_end_CoordX = (Obj->cur_val / (float)Obj->range) * Obj->width;
 2929              		.loc 1 875 68 view .LVU830
 2930 011e 0130     		adds	r0, r0, #1
 875:Dsp/widget/wgt_core/UI_Controller.c ****             block_end_CoordX = (Obj->cur_val / (float)Obj->range) * Obj->width;
 2931              		.loc 1 875 32 view .LVU831
 2932 0120 00B2     		sxth	r0, r0
 2933              	.LVL257:
 876:Dsp/widget/wgt_core/UI_Controller.c ****         }
 2934              		.loc 1 876 13 is_stmt 1 view .LVU832
 876:Dsp/widget/wgt_core/UI_Controller.c ****         }
 2935              		.loc 1 876 48 is_stmt 0 view .LVU833
ARM GAS  /var/folders/lx/hc4sn_b53233_zkc9xbbl97r0000gp/T//ccQGj1L2.s 			page 74


 2936 0122 07EE903A 		vmov	s15, r3	@ int
 2937 0126 B8EEE77A 		vcvt.f32.s32	s14, s15
 876:Dsp/widget/wgt_core/UI_Controller.c ****         }
 2938              		.loc 1 876 46 view .LVU834
 2939 012a 07EE904A 		vmov	s15, r4	@ int
 2940 012e F8EEE76A 		vcvt.f32.s32	s13, s15
 2941 0132 86EE876A 		vdiv.f32	s12, s13, s14
 876:Dsp/widget/wgt_core/UI_Controller.c ****         }
 2942              		.loc 1 876 72 view .LVU835
 2943 0136 95F82030 		ldrb	r3, [r5, #32]	@ zero_extendqisi2
 2944 013a 07EE903A 		vmov	s15, r3	@ int
 876:Dsp/widget/wgt_core/UI_Controller.c ****         }
 2945              		.loc 1 876 67 view .LVU836
 2946 013e F8EEE77A 		vcvt.f32.s32	s15, s15
 2947 0142 67EE867A 		vmul.f32	s15, s15, s12
 876:Dsp/widget/wgt_core/UI_Controller.c ****         }
 2948              		.loc 1 876 30 view .LVU837
 2949 0146 FDEEE77A 		vcvt.s32.f32	s15, s15
 2950 014a 17EE903A 		vmov	r3, s15	@ int
 2951 014e 1AB2     		sxth	r2, r3
 2952              	.LVL258:
 876:Dsp/widget/wgt_core/UI_Controller.c ****         }
 2953              		.loc 1 876 30 view .LVU838
 2954 0150 D1E7     		b	.L242
 2955              	.LVL259:
 2956              	.L248:
 829:Dsp/widget/wgt_core/UI_Controller.c ****     int16_t block_end_CoordY = 0;
 2957              		.loc 1 829 13 view .LVU839
 2958 0152 0022     		movs	r2, #0
 827:Dsp/widget/wgt_core/UI_Controller.c ****     int16_t block_start_CoordY = 0;
 2959              		.loc 1 827 13 view .LVU840
 2960 0154 1046     		mov	r0, r2
 2961 0156 CEE7     		b	.L242
 2962              	.LVL260:
 2963              	.L243:
 2964              	.LCFI57:
 2965              		.cfi_def_cfa_offset 0
 2966              		.cfi_restore 4
 2967              		.cfi_restore 5
 2968              		.cfi_restore 6
 2969              		.cfi_restore 7
 2970              		.cfi_restore 8
 2971              		.cfi_restore 9
 2972              		.cfi_restore 10
 2973              		.cfi_restore 14
 833:Dsp/widget/wgt_core/UI_Controller.c **** 
 2974              		.loc 1 833 16 view .LVU841
 2975 0158 0020     		movs	r0, #0
 2976              	.LVL261:
 2977              		.loc 1 885 1 view .LVU842
 2978 015a 7047     		bx	lr
 2979              	.LVL262:
 2980              	.L246:
 2981              	.LCFI58:
 2982              		.cfi_def_cfa_offset 40
 2983              		.cfi_offset 4, -32
 2984              		.cfi_offset 5, -28
ARM GAS  /var/folders/lx/hc4sn_b53233_zkc9xbbl97r0000gp/T//ccQGj1L2.s 			page 75


 2985              		.cfi_offset 6, -24
 2986              		.cfi_offset 7, -20
 2987              		.cfi_offset 8, -16
 2988              		.cfi_offset 9, -12
 2989              		.cfi_offset 10, -8
 2990              		.cfi_offset 14, -4
 884:Dsp/widget/wgt_core/UI_Controller.c **** }
 2991              		.loc 1 884 12 view .LVU843
 2992 015c 0120     		movs	r0, #1
 2993 015e 6AE7     		b	.L239
 2994              	.L247:
 882:Dsp/widget/wgt_core/UI_Controller.c **** 
 2995              		.loc 1 882 16 view .LVU844
 2996 0160 0020     		movs	r0, #0
 2997 0162 68E7     		b	.L239
 2998              	.L256:
 2999              		.align	2
 3000              	.L255:
 3001 0164 00000000 		.word	.LANCHOR2
 3002 0168 00000000 		.word	.LANCHOR0
 3003              		.cfi_endproc
 3004              	.LFE36:
 3006              		.section	.rodata.UI_ProcessBar_DspLoadBar.str1.4,"aMS",%progbits,1
 3007              		.align	2
 3008              	.LC2:
 3009 0000 4F6E2050 		.ascii	"On Process : %d%%\000"
 3009      726F6365 
 3009      7373203A 
 3009      20256425 
 3009      2500
 3010              		.section	.text.UI_ProcessBar_DspLoadBar,"ax",%progbits
 3011              		.align	1
 3012              		.syntax unified
 3013              		.thumb
 3014              		.thumb_func
 3015              		.fpu fpv4-sp-d16
 3017              	UI_ProcessBar_DspLoadBar:
 3018              	.LVL263:
 3019              	.LFB34:
 754:Dsp/widget/wgt_core/UI_Controller.c ****     uint8_t frame_radius = 0;
 3020              		.loc 1 754 1 is_stmt 1 view -0
 3021              		.cfi_startproc
 3022              		@ args = 0, pretend = 0, frame = 32
 3023              		@ frame_needed = 0, uses_anonymous_args = 0
 755:Dsp/widget/wgt_core/UI_Controller.c ****     int16_t Str_CoordX = 0;
 3024              		.loc 1 755 5 view .LVU846
 756:Dsp/widget/wgt_core/UI_Controller.c ****     int16_t Str_CoordY = 0;
 3025              		.loc 1 756 5 view .LVU847
 757:Dsp/widget/wgt_core/UI_Controller.c ****     float Pcnt_Val = 0;
 3026              		.loc 1 757 5 view .LVU848
 758:Dsp/widget/wgt_core/UI_Controller.c ****     char dsp_str[20];
 3027              		.loc 1 758 5 view .LVU849
 759:Dsp/widget/wgt_core/UI_Controller.c **** 
 3028              		.loc 1 759 5 view .LVU850
 761:Dsp/widget/wgt_core/UI_Controller.c ****         return false;
 3029              		.loc 1 761 5 view .LVU851
 761:Dsp/widget/wgt_core/UI_Controller.c ****         return false;
ARM GAS  /var/folders/lx/hc4sn_b53233_zkc9xbbl97r0000gp/T//ccQGj1L2.s 			page 76


 3030              		.loc 1 761 8 is_stmt 0 view .LVU852
 3031 0000 0028     		cmp	r0, #0
 3032 0002 77D0     		beq	.L259
 754:Dsp/widget/wgt_core/UI_Controller.c ****     uint8_t frame_radius = 0;
 3033              		.loc 1 754 1 view .LVU853
 3034 0004 2DE9F04F 		push	{r4, r5, r6, r7, r8, r9, r10, fp, lr}
 3035              	.LCFI59:
 3036              		.cfi_def_cfa_offset 36
 3037              		.cfi_offset 4, -36
 3038              		.cfi_offset 5, -32
 3039              		.cfi_offset 6, -28
 3040              		.cfi_offset 7, -24
 3041              		.cfi_offset 8, -20
 3042              		.cfi_offset 9, -16
 3043              		.cfi_offset 10, -12
 3044              		.cfi_offset 11, -8
 3045              		.cfi_offset 14, -4
 3046 0008 2DED028B 		vpush.64	{d8}
 3047              	.LCFI60:
 3048              		.cfi_def_cfa_offset 44
 3049              		.cfi_offset 80, -44
 3050              		.cfi_offset 81, -40
 3051 000c 8DB0     		sub	sp, sp, #52
 3052              	.LCFI61:
 3053              		.cfi_def_cfa_offset 96
 3054 000e 0646     		mov	r6, r0
 764:Dsp/widget/wgt_core/UI_Controller.c **** 
 3055              		.loc 1 764 5 is_stmt 1 view .LVU854
 3056 0010 0023     		movs	r3, #0
 3057 0012 0793     		str	r3, [sp, #28]
 3058 0014 0893     		str	r3, [sp, #32]
 3059 0016 0993     		str	r3, [sp, #36]
 3060 0018 0A93     		str	r3, [sp, #40]
 3061 001a 0B93     		str	r3, [sp, #44]
 766:Dsp/widget/wgt_core/UI_Controller.c ****     sprintf(dsp_str, "On Process : %d%%", (uint8_t)(Pcnt_Val * 100));
 3062              		.loc 1 766 5 view .LVU855
 766:Dsp/widget/wgt_core/UI_Controller.c ****     sprintf(dsp_str, "On Process : %d%%", (uint8_t)(Pcnt_Val * 100));
 3063              		.loc 1 766 20 is_stmt 0 view .LVU856
 3064 001c C369     		ldr	r3, [r0, #28]	@ unaligned
 3065 001e 07EE103A 		vmov	s14, r3	@ int
 766:Dsp/widget/wgt_core/UI_Controller.c ****     sprintf(dsp_str, "On Process : %d%%", (uint8_t)(Pcnt_Val * 100));
 3066              		.loc 1 766 30 view .LVU857
 3067 0022 B8EEC77A 		vcvt.f32.s32	s14, s14
 766:Dsp/widget/wgt_core/UI_Controller.c ****     sprintf(dsp_str, "On Process : %d%%", (uint8_t)(Pcnt_Val * 100));
 3068              		.loc 1 766 42 view .LVU858
 3069 0026 8369     		ldr	r3, [r0, #24]	@ unaligned
 3070 0028 07EE903A 		vmov	s15, r3	@ int
 766:Dsp/widget/wgt_core/UI_Controller.c ****     sprintf(dsp_str, "On Process : %d%%", (uint8_t)(Pcnt_Val * 100));
 3071              		.loc 1 766 32 view .LVU859
 3072 002c F8EEE77A 		vcvt.f32.s32	s15, s15
 766:Dsp/widget/wgt_core/UI_Controller.c ****     sprintf(dsp_str, "On Process : %d%%", (uint8_t)(Pcnt_Val * 100));
 3073              		.loc 1 766 14 view .LVU860
 3074 0030 87EE278A 		vdiv.f32	s16, s14, s15
 3075              	.LVL264:
 767:Dsp/widget/wgt_core/UI_Controller.c **** 
 3076              		.loc 1 767 5 is_stmt 1 view .LVU861
 767:Dsp/widget/wgt_core/UI_Controller.c **** 
ARM GAS  /var/folders/lx/hc4sn_b53233_zkc9xbbl97r0000gp/T//ccQGj1L2.s 			page 77


 3077              		.loc 1 767 62 is_stmt 0 view .LVU862
 3078 0034 DFED307A 		vldr.32	s15, .L264
 3079 0038 68EE277A 		vmul.f32	s15, s16, s15
 767:Dsp/widget/wgt_core/UI_Controller.c **** 
 3080              		.loc 1 767 43 view .LVU863
 3081 003c FCEEE77A 		vcvt.u32.f32	s15, s15
 3082 0040 CDED057A 		vstr.32	s15, [sp, #20]	@ int
 767:Dsp/widget/wgt_core/UI_Controller.c **** 
 3083              		.loc 1 767 5 view .LVU864
 3084 0044 9DF81420 		ldrb	r2, [sp, #20]	@ zero_extendqisi2
 3085 0048 2C49     		ldr	r1, .L264+4
 3086 004a 07A8     		add	r0, sp, #28
 3087              	.LVL265:
 767:Dsp/widget/wgt_core/UI_Controller.c **** 
 3088              		.loc 1 767 5 view .LVU865
 3089 004c FFF7FEFF 		bl	sprintf
 3090              	.LVL266:
 769:Dsp/widget/wgt_core/UI_Controller.c ****     Str_CoordY = Obj->Gen_Data.y - base_font - 2;
 3091              		.loc 1 769 5 is_stmt 1 view .LVU866
 769:Dsp/widget/wgt_core/UI_Controller.c ****     Str_CoordY = Obj->Gen_Data.y - base_font - 2;
 3092              		.loc 1 769 31 is_stmt 0 view .LVU867
 3093 0050 B6F904B0 		ldrsh	fp, [r6, #4]	@ unaligned
 3094 0054 0FFA8BFA 		sxth	r10, fp
 3095 0058 1FFA8BFB 		uxth	fp, fp
 769:Dsp/widget/wgt_core/UI_Controller.c ****     Str_CoordY = Obj->Gen_Data.y - base_font - 2;
 3096              		.loc 1 769 40 view .LVU868
 3097 005c 96F82090 		ldrb	r9, [r6, #32]	@ zero_extendqisi2
 769:Dsp/widget/wgt_core/UI_Controller.c ****     Str_CoordY = Obj->Gen_Data.y - base_font - 2;
 3098              		.loc 1 769 51 view .LVU869
 3099 0060 07A8     		add	r0, sp, #28
 3100 0062 FFF7FEFF 		bl	strlen
 3101              	.LVL267:
 769:Dsp/widget/wgt_core/UI_Controller.c ****     Str_CoordY = Obj->Gen_Data.y - base_font - 2;
 3102              		.loc 1 769 67 view .LVU870
 3103 0066 00EB4000 		add	r0, r0, r0, lsl #1
 769:Dsp/widget/wgt_core/UI_Controller.c ****     Str_CoordY = Obj->Gen_Data.y - base_font - 2;
 3104              		.loc 1 769 48 view .LVU871
 3105 006a A9EB4000 		sub	r0, r9, r0, lsl #1
 769:Dsp/widget/wgt_core/UI_Controller.c ****     Str_CoordY = Obj->Gen_Data.y - base_font - 2;
 3106              		.loc 1 769 34 view .LVU872
 3107 006e 0BEB500B 		add	fp, fp, r0, lsr #1
 769:Dsp/widget/wgt_core/UI_Controller.c ****     Str_CoordY = Obj->Gen_Data.y - base_font - 2;
 3108              		.loc 1 769 16 view .LVU873
 3109 0072 0FFA8BFB 		sxth	fp, fp
 3110              	.LVL268:
 770:Dsp/widget/wgt_core/UI_Controller.c **** 
 3111              		.loc 1 770 5 is_stmt 1 view .LVU874
 770:Dsp/widget/wgt_core/UI_Controller.c **** 
 3112              		.loc 1 770 31 is_stmt 0 view .LVU875
 3113 0076 B6F90610 		ldrsh	r1, [r6, #6]	@ unaligned
 3114 007a 8CB2     		uxth	r4, r1
 770:Dsp/widget/wgt_core/UI_Controller.c **** 
 3115              		.loc 1 770 34 view .LVU876
 3116 007c DFF88480 		ldr	r8, .L264+12
 3117 0080 98F80030 		ldrb	r3, [r8]	@ zero_extendqisi2
 3118 0084 E41A     		subs	r4, r4, r3
 3119 0086 A4B2     		uxth	r4, r4
ARM GAS  /var/folders/lx/hc4sn_b53233_zkc9xbbl97r0000gp/T//ccQGj1L2.s 			page 78


 770:Dsp/widget/wgt_core/UI_Controller.c **** 
 3120              		.loc 1 770 46 view .LVU877
 3121 0088 023C     		subs	r4, r4, #2
 770:Dsp/widget/wgt_core/UI_Controller.c **** 
 3122              		.loc 1 770 16 view .LVU878
 3123 008a 23B2     		sxth	r3, r4
 3124 008c 0593     		str	r3, [sp, #20]
 3125              	.LVL269:
 773:Dsp/widget/wgt_core/UI_Controller.c ****     UI_DspInterface.draw_str(base_font, dsp_str, Str_CoordX, Str_CoordY, true);
 3126              		.loc 1 773 5 is_stmt 1 view .LVU879
 773:Dsp/widget/wgt_core/UI_Controller.c ****     UI_DspInterface.draw_str(base_font, dsp_str, Str_CoordX, Str_CoordY, true);
 3127              		.loc 1 773 20 is_stmt 0 view .LVU880
 3128 008e 1C4F     		ldr	r7, .L264+8
 773:Dsp/widget/wgt_core/UI_Controller.c ****     UI_DspInterface.draw_str(base_font, dsp_str, Str_CoordX, Str_CoordY, true);
 3129              		.loc 1 773 5 view .LVU881
 3130 0090 0125     		movs	r5, #1
 3131 0092 0295     		str	r5, [sp, #8]
 3132 0094 0195     		str	r5, [sp, #4]
 3133 0096 0223     		movs	r3, #2
 3134 0098 0093     		str	r3, [sp]
 3135 009a 0523     		movs	r3, #5
 3136 009c 4A46     		mov	r2, r9
 3137 009e 09B2     		sxth	r1, r1
 3138 00a0 5046     		mov	r0, r10
 3139 00a2 3C69     		ldr	r4, [r7, #16]
 3140 00a4 A047     		blx	r4
 3141              	.LVL270:
 774:Dsp/widget/wgt_core/UI_Controller.c ****     UI_DspInterface.draw_line_h(Obj->Gen_Data.x + 2, Obj->Gen_Data.y + 2, Pcnt_Val * (Obj->width - 
 3142              		.loc 1 774 5 is_stmt 1 view .LVU882
 3143 00a6 0095     		str	r5, [sp]
 3144 00a8 059B     		ldr	r3, [sp, #20]
 3145 00aa 5A46     		mov	r2, fp
 3146 00ac 07A9     		add	r1, sp, #28
 3147 00ae 98F80000 		ldrb	r0, [r8]	@ zero_extendqisi2
 3148 00b2 3C68     		ldr	r4, [r7]
 3149 00b4 A047     		blx	r4
 3150              	.LVL271:
 775:Dsp/widget/wgt_core/UI_Controller.c **** 
 3151              		.loc 1 775 5 view .LVU883
 775:Dsp/widget/wgt_core/UI_Controller.c **** 
 3152              		.loc 1 775 20 is_stmt 0 view .LVU884
 3153 00b6 BC68     		ldr	r4, [r7, #8]
 775:Dsp/widget/wgt_core/UI_Controller.c **** 
 3154              		.loc 1 775 46 view .LVU885
 3155 00b8 B088     		ldrh	r0, [r6, #4]	@ unaligned
 775:Dsp/widget/wgt_core/UI_Controller.c **** 
 3156              		.loc 1 775 49 view .LVU886
 3157 00ba 0230     		adds	r0, r0, #2
 775:Dsp/widget/wgt_core/UI_Controller.c **** 
 3158              		.loc 1 775 67 view .LVU887
 3159 00bc F188     		ldrh	r1, [r6, #6]	@ unaligned
 775:Dsp/widget/wgt_core/UI_Controller.c **** 
 3160              		.loc 1 775 70 view .LVU888
 3161 00be 0231     		adds	r1, r1, #2
 775:Dsp/widget/wgt_core/UI_Controller.c **** 
 3162              		.loc 1 775 90 view .LVU889
 3163 00c0 96F82030 		ldrb	r3, [r6, #32]	@ zero_extendqisi2
ARM GAS  /var/folders/lx/hc4sn_b53233_zkc9xbbl97r0000gp/T//ccQGj1L2.s 			page 79


 775:Dsp/widget/wgt_core/UI_Controller.c **** 
 3164              		.loc 1 775 98 view .LVU890
 3165 00c4 063B     		subs	r3, r3, #6
 3166 00c6 07EE903A 		vmov	s15, r3	@ int
 775:Dsp/widget/wgt_core/UI_Controller.c **** 
 3167              		.loc 1 775 84 view .LVU891
 3168 00ca F8EEE77A 		vcvt.f32.s32	s15, s15
 3169 00ce 67EE887A 		vmul.f32	s15, s15, s16
 775:Dsp/widget/wgt_core/UI_Controller.c **** 
 3170              		.loc 1 775 5 view .LVU892
 3171 00d2 FCEEE77A 		vcvt.u32.f32	s15, s15
 3172 00d6 CDED057A 		vstr.32	s15, [sp, #20]	@ int
 3173              	.LVL272:
 775:Dsp/widget/wgt_core/UI_Controller.c **** 
 3174              		.loc 1 775 5 view .LVU893
 3175 00da 0095     		str	r5, [sp]
 3176 00dc 2B46     		mov	r3, r5
 3177 00de 9DF81420 		ldrb	r2, [sp, #20]	@ zero_extendqisi2
 3178 00e2 09B2     		sxth	r1, r1
 3179 00e4 00B2     		sxth	r0, r0
 3180 00e6 A047     		blx	r4
 3181              	.LVL273:
 777:Dsp/widget/wgt_core/UI_Controller.c **** }
 3182              		.loc 1 777 5 is_stmt 1 view .LVU894
 777:Dsp/widget/wgt_core/UI_Controller.c **** }
 3183              		.loc 1 777 12 is_stmt 0 view .LVU895
 3184 00e8 2846     		mov	r0, r5
 778:Dsp/widget/wgt_core/UI_Controller.c **** 
 3185              		.loc 1 778 1 view .LVU896
 3186 00ea 0DB0     		add	sp, sp, #52
 3187              	.LCFI62:
 3188              		.cfi_def_cfa_offset 44
 3189              		@ sp needed
 3190 00ec BDEC028B 		vldm	sp!, {d8}
 3191              	.LCFI63:
 3192              		.cfi_restore 80
 3193              		.cfi_restore 81
 3194              		.cfi_def_cfa_offset 36
 3195              	.LVL274:
 778:Dsp/widget/wgt_core/UI_Controller.c **** 
 3196              		.loc 1 778 1 view .LVU897
 3197 00f0 BDE8F08F 		pop	{r4, r5, r6, r7, r8, r9, r10, fp, pc}
 3198              	.LVL275:
 3199              	.L259:
 3200              	.LCFI64:
 3201              		.cfi_def_cfa_offset 0
 3202              		.cfi_restore 4
 3203              		.cfi_restore 5
 3204              		.cfi_restore 6
 3205              		.cfi_restore 7
 3206              		.cfi_restore 8
 3207              		.cfi_restore 9
 3208              		.cfi_restore 10
 3209              		.cfi_restore 11
 3210              		.cfi_restore 14
 762:Dsp/widget/wgt_core/UI_Controller.c **** 
 3211              		.loc 1 762 16 view .LVU898
ARM GAS  /var/folders/lx/hc4sn_b53233_zkc9xbbl97r0000gp/T//ccQGj1L2.s 			page 80


 3212 00f4 0020     		movs	r0, #0
 3213              	.LVL276:
 778:Dsp/widget/wgt_core/UI_Controller.c **** 
 3214              		.loc 1 778 1 view .LVU899
 3215 00f6 7047     		bx	lr
 3216              	.L265:
 3217              		.align	2
 3218              	.L264:
 3219 00f8 0000C842 		.word	1120403456
 3220 00fc 00000000 		.word	.LC2
 3221 0100 00000000 		.word	.LANCHOR0
 3222 0104 00000000 		.word	.LANCHOR2
 3223              		.cfi_endproc
 3224              	.LFE34:
 3226              		.section	.text.UI_ProcessBar_Ctl,"ax",%progbits
 3227              		.align	1
 3228              		.syntax unified
 3229              		.thumb
 3230              		.thumb_func
 3231              		.fpu fpv4-sp-d16
 3233              	UI_ProcessBar_Ctl:
 3234              	.LVL277:
 3235              	.LFB37:
 886:Dsp/widget/wgt_core/UI_Controller.c **** 
 887:Dsp/widget/wgt_core/UI_Controller.c **** static bool UI_ProcessBar_Ctl(UI_ProcessBarObj_TypeDef *Obj)
 888:Dsp/widget/wgt_core/UI_Controller.c **** {
 3236              		.loc 1 888 1 is_stmt 1 view -0
 3237              		.cfi_startproc
 3238              		@ args = 0, pretend = 0, frame = 8
 3239              		@ frame_needed = 0, uses_anonymous_args = 0
 3240              		.loc 1 888 1 is_stmt 0 view .LVU901
 3241 0000 00B5     		push	{lr}
 3242              	.LCFI65:
 3243              		.cfi_def_cfa_offset 4
 3244              		.cfi_offset 14, -4
 3245 0002 83B0     		sub	sp, sp, #12
 3246              	.LCFI66:
 3247              		.cfi_def_cfa_offset 16
 889:Dsp/widget/wgt_core/UI_Controller.c ****     char dig_str[3];
 3248              		.loc 1 889 5 is_stmt 1 view .LVU902
 890:Dsp/widget/wgt_core/UI_Controller.c ****     memset(dig_str, NULL, 3);
 3249              		.loc 1 890 5 view .LVU903
 3250 0004 0023     		movs	r3, #0
 3251 0006 ADF80430 		strh	r3, [sp, #4]	@ movhi
 3252 000a 8DF80630 		strb	r3, [sp, #6]
 891:Dsp/widget/wgt_core/UI_Controller.c **** 
 892:Dsp/widget/wgt_core/UI_Controller.c ****     if ((UI_DspInterface.draw_radius_rectangle == NULL) ||
 3253              		.loc 1 892 5 view .LVU904
 3254              		.loc 1 892 25 is_stmt 0 view .LVU905
 3255 000e 0F4B     		ldr	r3, .L275
 3256 0010 1B69     		ldr	r3, [r3, #16]
 3257              		.loc 1 892 8 view .LVU906
 3258 0012 B3B1     		cbz	r3, .L270
 893:Dsp/widget/wgt_core/UI_Controller.c ****         (UI_DspInterface.draw_str == NULL))
 3259              		.loc 1 893 25 discriminator 1 view .LVU907
 3260 0014 0D4B     		ldr	r3, .L275
 3261 0016 1B68     		ldr	r3, [r3]
ARM GAS  /var/folders/lx/hc4sn_b53233_zkc9xbbl97r0000gp/T//ccQGj1L2.s 			page 81


 892:Dsp/widget/wgt_core/UI_Controller.c ****         (UI_DspInterface.draw_str == NULL))
 3262              		.loc 1 892 57 discriminator 1 view .LVU908
 3263 0018 ABB1     		cbz	r3, .L271
 894:Dsp/widget/wgt_core/UI_Controller.c ****         return false;
 895:Dsp/widget/wgt_core/UI_Controller.c **** 
 896:Dsp/widget/wgt_core/UI_Controller.c ****     switch (Obj->Dsp_Type)
 3264              		.loc 1 896 5 is_stmt 1 view .LVU909
 3265              		.loc 1 896 16 is_stmt 0 view .LVU910
 3266 001a 90F82230 		ldrb	r3, [r0, #34]	@ zero_extendqisi2
 3267              		.loc 1 896 5 view .LVU911
 3268 001e 012B     		cmp	r3, #1
 3269 0020 09D0     		beq	.L268
 3270 0022 022B     		cmp	r3, #2
 3271 0024 0AD0     		beq	.L269
 3272 0026 1BB1     		cbz	r3, .L274
 3273 0028 0020     		movs	r0, #0
 3274              	.LVL278:
 3275              	.L267:
 897:Dsp/widget/wgt_core/UI_Controller.c ****     {
 898:Dsp/widget/wgt_core/UI_Controller.c ****     case UI_ProcBar_DspType_LoadBar:
 899:Dsp/widget/wgt_core/UI_Controller.c ****         return UI_ProcessBar_DspLoadBar(Obj);
 900:Dsp/widget/wgt_core/UI_Controller.c **** 
 901:Dsp/widget/wgt_core/UI_Controller.c ****     case UI_ProcBar_DspType_DotBar:
 902:Dsp/widget/wgt_core/UI_Controller.c ****         return UI_ProcessBar_DspDotBar(Obj);
 903:Dsp/widget/wgt_core/UI_Controller.c **** 
 904:Dsp/widget/wgt_core/UI_Controller.c ****     case UI_ProcBar_DspType_FrameBar:
 905:Dsp/widget/wgt_core/UI_Controller.c ****         return UI_ProcessBar_DspFrameBar(Obj);
 906:Dsp/widget/wgt_core/UI_Controller.c **** 
 907:Dsp/widget/wgt_core/UI_Controller.c ****     default:
 908:Dsp/widget/wgt_core/UI_Controller.c ****         return false;
 909:Dsp/widget/wgt_core/UI_Controller.c ****     }
 910:Dsp/widget/wgt_core/UI_Controller.c **** }
 3276              		.loc 1 910 1 view .LVU912
 3277 002a 03B0     		add	sp, sp, #12
 3278              	.LCFI67:
 3279              		.cfi_remember_state
 3280              		.cfi_def_cfa_offset 4
 3281              		@ sp needed
 3282 002c 5DF804FB 		ldr	pc, [sp], #4
 3283              	.LVL279:
 3284              	.L274:
 3285              	.LCFI68:
 3286              		.cfi_restore_state
 899:Dsp/widget/wgt_core/UI_Controller.c **** 
 3287              		.loc 1 899 9 is_stmt 1 view .LVU913
 899:Dsp/widget/wgt_core/UI_Controller.c **** 
 3288              		.loc 1 899 16 is_stmt 0 view .LVU914
 3289 0030 FFF7FEFF 		bl	UI_ProcessBar_DspLoadBar
 3290              	.LVL280:
 899:Dsp/widget/wgt_core/UI_Controller.c **** 
 3291              		.loc 1 899 16 view .LVU915
 3292 0034 F9E7     		b	.L267
 3293              	.LVL281:
 3294              	.L268:
 902:Dsp/widget/wgt_core/UI_Controller.c **** 
 3295              		.loc 1 902 9 is_stmt 1 view .LVU916
 902:Dsp/widget/wgt_core/UI_Controller.c **** 
ARM GAS  /var/folders/lx/hc4sn_b53233_zkc9xbbl97r0000gp/T//ccQGj1L2.s 			page 82


 3296              		.loc 1 902 16 is_stmt 0 view .LVU917
 3297 0036 FFF7FEFF 		bl	UI_ProcessBar_DspDotBar
 3298              	.LVL282:
 902:Dsp/widget/wgt_core/UI_Controller.c **** 
 3299              		.loc 1 902 16 view .LVU918
 3300 003a F6E7     		b	.L267
 3301              	.LVL283:
 3302              	.L269:
 905:Dsp/widget/wgt_core/UI_Controller.c **** 
 3303              		.loc 1 905 9 is_stmt 1 view .LVU919
 905:Dsp/widget/wgt_core/UI_Controller.c **** 
 3304              		.loc 1 905 16 is_stmt 0 view .LVU920
 3305 003c FFF7FEFF 		bl	UI_ProcessBar_DspFrameBar
 3306              	.LVL284:
 905:Dsp/widget/wgt_core/UI_Controller.c **** 
 3307              		.loc 1 905 16 view .LVU921
 3308 0040 F3E7     		b	.L267
 3309              	.LVL285:
 3310              	.L270:
 894:Dsp/widget/wgt_core/UI_Controller.c **** 
 3311              		.loc 1 894 16 view .LVU922
 3312 0042 0020     		movs	r0, #0
 3313              	.LVL286:
 894:Dsp/widget/wgt_core/UI_Controller.c **** 
 3314              		.loc 1 894 16 view .LVU923
 3315 0044 F1E7     		b	.L267
 3316              	.LVL287:
 3317              	.L271:
 894:Dsp/widget/wgt_core/UI_Controller.c **** 
 3318              		.loc 1 894 16 view .LVU924
 3319 0046 0020     		movs	r0, #0
 3320              	.LVL288:
 894:Dsp/widget/wgt_core/UI_Controller.c **** 
 3321              		.loc 1 894 16 view .LVU925
 3322 0048 EFE7     		b	.L267
 3323              	.L276:
 3324 004a 00BF     		.align	2
 3325              	.L275:
 3326 004c 00000000 		.word	.LANCHOR0
 3327              		.cfi_endproc
 3328              	.LFE37:
 3330              		.section	.text.UI_Set_FontType,"ax",%progbits
 3331              		.align	1
 3332              		.global	UI_Set_FontType
 3333              		.syntax unified
 3334              		.thumb
 3335              		.thumb_func
 3336              		.fpu fpv4-sp-d16
 3338              	UI_Set_FontType:
 3339              	.LVL289:
 3340              	.LFB3:
  99:Dsp/widget/wgt_core/UI_Controller.c ****     if (font < Font_8 || font > Font_16)
 3341              		.loc 1 99 1 is_stmt 1 view -0
 3342              		.cfi_startproc
 3343              		@ args = 0, pretend = 0, frame = 0
 3344              		@ frame_needed = 0, uses_anonymous_args = 0
 3345              		@ link register save eliminated.
ARM GAS  /var/folders/lx/hc4sn_b53233_zkc9xbbl97r0000gp/T//ccQGj1L2.s 			page 83


 100:Dsp/widget/wgt_core/UI_Controller.c ****         return false;
 3346              		.loc 1 100 5 view .LVU927
 100:Dsp/widget/wgt_core/UI_Controller.c ****         return false;
 3347              		.loc 1 100 23 is_stmt 0 view .LVU928
 3348 0000 A0F10803 		sub	r3, r0, #8
 3349 0004 DBB2     		uxtb	r3, r3
 100:Dsp/widget/wgt_core/UI_Controller.c ****         return false;
 3350              		.loc 1 100 8 view .LVU929
 3351 0006 082B     		cmp	r3, #8
 3352 0008 03D8     		bhi	.L279
 103:Dsp/widget/wgt_core/UI_Controller.c **** 
 3353              		.loc 1 103 5 is_stmt 1 view .LVU930
 103:Dsp/widget/wgt_core/UI_Controller.c **** 
 3354              		.loc 1 103 15 is_stmt 0 view .LVU931
 3355 000a 034B     		ldr	r3, .L280
 3356 000c 1870     		strb	r0, [r3]
 105:Dsp/widget/wgt_core/UI_Controller.c **** }
 3357              		.loc 1 105 5 is_stmt 1 view .LVU932
 105:Dsp/widget/wgt_core/UI_Controller.c **** }
 3358              		.loc 1 105 12 is_stmt 0 view .LVU933
 3359 000e 0120     		movs	r0, #1
 3360              	.LVL290:
 105:Dsp/widget/wgt_core/UI_Controller.c **** }
 3361              		.loc 1 105 12 view .LVU934
 3362 0010 7047     		bx	lr
 3363              	.LVL291:
 3364              	.L279:
 101:Dsp/widget/wgt_core/UI_Controller.c **** 
 3365              		.loc 1 101 16 view .LVU935
 3366 0012 0020     		movs	r0, #0
 3367              	.LVL292:
 106:Dsp/widget/wgt_core/UI_Controller.c **** 
 3368              		.loc 1 106 1 view .LVU936
 3369 0014 7047     		bx	lr
 3370              	.L281:
 3371 0016 00BF     		.align	2
 3372              	.L280:
 3373 0018 00000000 		.word	.LANCHOR2
 3374              		.cfi_endproc
 3375              	.LFE3:
 3377              		.section	.text.UI_Set_DspInterface,"ax",%progbits
 3378              		.align	1
 3379              		.global	UI_Set_DspInterface
 3380              		.syntax unified
 3381              		.thumb
 3382              		.thumb_func
 3383              		.fpu fpv4-sp-d16
 3385              	UI_Set_DspInterface:
 3386              	.LVL293:
 3387              	.LFB4:
 120:Dsp/widget/wgt_core/UI_Controller.c ****     UI_DspInterface.draw_circle = circle;
 3388              		.loc 1 120 1 is_stmt 1 view -0
 3389              		.cfi_startproc
 3390              		@ args = 32, pretend = 0, frame = 0
 3391              		@ frame_needed = 0, uses_anonymous_args = 0
 3392              		@ link register save eliminated.
 120:Dsp/widget/wgt_core/UI_Controller.c ****     UI_DspInterface.draw_circle = circle;
ARM GAS  /var/folders/lx/hc4sn_b53233_zkc9xbbl97r0000gp/T//ccQGj1L2.s 			page 84


 3393              		.loc 1 120 1 is_stmt 0 view .LVU938
 3394 0000 30B4     		push	{r4, r5}
 3395              	.LCFI69:
 3396              		.cfi_def_cfa_offset 8
 3397              		.cfi_offset 4, -8
 3398              		.cfi_offset 5, -4
 121:Dsp/widget/wgt_core/UI_Controller.c ****     UI_DspInterface.draw_circle_section = circle_section;
 3399              		.loc 1 121 5 is_stmt 1 view .LVU939
 121:Dsp/widget/wgt_core/UI_Controller.c ****     UI_DspInterface.draw_circle_section = circle_section;
 3400              		.loc 1 121 33 is_stmt 0 view .LVU940
 3401 0002 0B4C     		ldr	r4, .L284
 3402 0004 039D     		ldr	r5, [sp, #12]
 3403 0006 A561     		str	r5, [r4, #24]
 122:Dsp/widget/wgt_core/UI_Controller.c ****     UI_DspInterface.draw_line_h = line_h;
 3404              		.loc 1 122 5 is_stmt 1 view .LVU941
 122:Dsp/widget/wgt_core/UI_Controller.c ****     UI_DspInterface.draw_line_h = line_h;
 3405              		.loc 1 122 41 is_stmt 0 view .LVU942
 3406 0008 049D     		ldr	r5, [sp, #16]
 3407 000a E561     		str	r5, [r4, #28]
 123:Dsp/widget/wgt_core/UI_Controller.c ****     UI_DspInterface.draw_line_v = line_v;
 3408              		.loc 1 123 5 is_stmt 1 view .LVU943
 123:Dsp/widget/wgt_core/UI_Controller.c ****     UI_DspInterface.draw_line_v = line_v;
 3409              		.loc 1 123 33 is_stmt 0 view .LVU944
 3410 000c A160     		str	r1, [r4, #8]
 124:Dsp/widget/wgt_core/UI_Controller.c ****     UI_DspInterface.draw_point = point;
 3411              		.loc 1 124 5 is_stmt 1 view .LVU945
 124:Dsp/widget/wgt_core/UI_Controller.c ****     UI_DspInterface.draw_point = point;
 3412              		.loc 1 124 33 is_stmt 0 view .LVU946
 3413 000e E260     		str	r2, [r4, #12]
 125:Dsp/widget/wgt_core/UI_Controller.c ****     UI_DspInterface.draw_rectangle = rectangle;
 3414              		.loc 1 125 5 is_stmt 1 view .LVU947
 125:Dsp/widget/wgt_core/UI_Controller.c ****     UI_DspInterface.draw_rectangle = rectangle;
 3415              		.loc 1 125 32 is_stmt 0 view .LVU948
 3416 0010 6060     		str	r0, [r4, #4]
 126:Dsp/widget/wgt_core/UI_Controller.c ****     UI_DspInterface.draw_radius_rectangle = radius_rectangle;
 3417              		.loc 1 126 5 is_stmt 1 view .LVU949
 126:Dsp/widget/wgt_core/UI_Controller.c ****     UI_DspInterface.draw_radius_rectangle = radius_rectangle;
 3418              		.loc 1 126 36 is_stmt 0 view .LVU950
 3419 0012 6361     		str	r3, [r4, #20]
 127:Dsp/widget/wgt_core/UI_Controller.c ****     UI_DspInterface.draw_str = str;
 3420              		.loc 1 127 5 is_stmt 1 view .LVU951
 127:Dsp/widget/wgt_core/UI_Controller.c ****     UI_DspInterface.draw_str = str;
 3421              		.loc 1 127 43 is_stmt 0 view .LVU952
 3422 0014 029B     		ldr	r3, [sp, #8]
 3423              	.LVL294:
 127:Dsp/widget/wgt_core/UI_Controller.c ****     UI_DspInterface.draw_str = str;
 3424              		.loc 1 127 43 view .LVU953
 3425 0016 2361     		str	r3, [r4, #16]
 128:Dsp/widget/wgt_core/UI_Controller.c **** 
 3426              		.loc 1 128 5 is_stmt 1 view .LVU954
 128:Dsp/widget/wgt_core/UI_Controller.c **** 
 3427              		.loc 1 128 30 is_stmt 0 view .LVU955
 3428 0018 059B     		ldr	r3, [sp, #20]
 3429 001a 2360     		str	r3, [r4]
 130:Dsp/widget/wgt_core/UI_Controller.c ****     UI_DspInterface.fill_circle_section = fillcircle_section;
 3430              		.loc 1 130 5 is_stmt 1 view .LVU956
 130:Dsp/widget/wgt_core/UI_Controller.c ****     UI_DspInterface.fill_circle_section = fillcircle_section;
ARM GAS  /var/folders/lx/hc4sn_b53233_zkc9xbbl97r0000gp/T//ccQGj1L2.s 			page 85


 3431              		.loc 1 130 33 is_stmt 0 view .LVU957
 3432 001c 069B     		ldr	r3, [sp, #24]
 3433 001e 6362     		str	r3, [r4, #36]
 131:Dsp/widget/wgt_core/UI_Controller.c ****     UI_DspInterface.fill_radius_rectangle = fill_radius_rectangle;
 3434              		.loc 1 131 5 is_stmt 1 view .LVU958
 131:Dsp/widget/wgt_core/UI_Controller.c ****     UI_DspInterface.fill_radius_rectangle = fill_radius_rectangle;
 3435              		.loc 1 131 41 is_stmt 0 view .LVU959
 3436 0020 079B     		ldr	r3, [sp, #28]
 3437 0022 A362     		str	r3, [r4, #40]
 132:Dsp/widget/wgt_core/UI_Controller.c ****     UI_DspInterface.fill_rectangle = fill_rectangle;
 3438              		.loc 1 132 5 is_stmt 1 view .LVU960
 132:Dsp/widget/wgt_core/UI_Controller.c ****     UI_DspInterface.fill_rectangle = fill_rectangle;
 3439              		.loc 1 132 43 is_stmt 0 view .LVU961
 3440 0024 099B     		ldr	r3, [sp, #36]
 3441 0026 E362     		str	r3, [r4, #44]
 133:Dsp/widget/wgt_core/UI_Controller.c **** }
 3442              		.loc 1 133 5 is_stmt 1 view .LVU962
 133:Dsp/widget/wgt_core/UI_Controller.c **** }
 3443              		.loc 1 133 36 is_stmt 0 view .LVU963
 3444 0028 089B     		ldr	r3, [sp, #32]
 3445 002a 2362     		str	r3, [r4, #32]
 134:Dsp/widget/wgt_core/UI_Controller.c **** 
 3446              		.loc 1 134 1 view .LVU964
 3447 002c 30BC     		pop	{r4, r5}
 3448              	.LCFI70:
 3449              		.cfi_restore 5
 3450              		.cfi_restore 4
 3451              		.cfi_def_cfa_offset 0
 3452              	.LVL295:
 134:Dsp/widget/wgt_core/UI_Controller.c **** 
 3453              		.loc 1 134 1 view .LVU965
 3454 002e 7047     		bx	lr
 3455              	.L285:
 3456              		.align	2
 3457              	.L284:
 3458 0030 00000000 		.word	.LANCHOR0
 3459              		.cfi_endproc
 3460              	.LFE4:
 3462              		.section	.text.UI_Set_GetWidgetWidthMathod,"ax",%progbits
 3463              		.align	1
 3464              		.global	UI_Set_GetWidgetWidthMathod
 3465              		.syntax unified
 3466              		.thumb
 3467              		.thumb_func
 3468              		.fpu fpv4-sp-d16
 3470              	UI_Set_GetWidgetWidthMathod:
 3471              	.LVL296:
 3472              	.LFB5:
 137:Dsp/widget/wgt_core/UI_Controller.c ****     UI_Get_WidgetWidth = mathod;
 3473              		.loc 1 137 1 is_stmt 1 view -0
 3474              		.cfi_startproc
 3475              		@ args = 0, pretend = 0, frame = 0
 3476              		@ frame_needed = 0, uses_anonymous_args = 0
 3477              		@ link register save eliminated.
 138:Dsp/widget/wgt_core/UI_Controller.c **** }
 3478              		.loc 1 138 5 view .LVU967
 138:Dsp/widget/wgt_core/UI_Controller.c **** }
ARM GAS  /var/folders/lx/hc4sn_b53233_zkc9xbbl97r0000gp/T//ccQGj1L2.s 			page 86


 3479              		.loc 1 138 24 is_stmt 0 view .LVU968
 3480 0000 014B     		ldr	r3, .L287
 3481 0002 1860     		str	r0, [r3]
 139:Dsp/widget/wgt_core/UI_Controller.c **** 
 3482              		.loc 1 139 1 view .LVU969
 3483 0004 7047     		bx	lr
 3484              	.L288:
 3485 0006 00BF     		.align	2
 3486              	.L287:
 3487 0008 00000000 		.word	.LANCHOR1
 3488              		.cfi_endproc
 3489              	.LFE5:
 3491              		.section	.text.UI_ShowSelector,"ax",%progbits
 3492              		.align	1
 3493              		.global	UI_ShowSelector
 3494              		.syntax unified
 3495              		.thumb
 3496              		.thumb_func
 3497              		.fpu fpv4-sp-d16
 3499              	UI_ShowSelector:
 3500              	.LVL297:
 3501              	.LFB7:
 166:Dsp/widget/wgt_core/UI_Controller.c ****     /* button selector coordinate */
 3502              		.loc 1 166 1 is_stmt 1 view -0
 3503              		.cfi_startproc
 3504              		@ args = 0, pretend = 0, frame = 0
 3505              		@ frame_needed = 0, uses_anonymous_args = 0
 166:Dsp/widget/wgt_core/UI_Controller.c ****     /* button selector coordinate */
 3506              		.loc 1 166 1 is_stmt 0 view .LVU971
 3507 0000 2DE9F047 		push	{r4, r5, r6, r7, r8, r9, r10, lr}
 3508              	.LCFI71:
 3509              		.cfi_def_cfa_offset 32
 3510              		.cfi_offset 4, -32
 3511              		.cfi_offset 5, -28
 3512              		.cfi_offset 6, -24
 3513              		.cfi_offset 7, -20
 3514              		.cfi_offset 8, -16
 3515              		.cfi_offset 9, -12
 3516              		.cfi_offset 10, -8
 3517              		.cfi_offset 14, -4
 3518 0004 82B0     		sub	sp, sp, #8
 3519              	.LCFI72:
 3520              		.cfi_def_cfa_offset 40
 3521 0006 0446     		mov	r4, r0
 168:Dsp/widget/wgt_core/UI_Controller.c ****     int16_t Btn_Slct_LftUp_Y = 0;
 3522              		.loc 1 168 5 is_stmt 1 view .LVU972
 3523              	.LVL298:
 169:Dsp/widget/wgt_core/UI_Controller.c ****     int16_t Btn_Slct_LftDwn_X = 0;
 3524              		.loc 1 169 5 view .LVU973
 170:Dsp/widget/wgt_core/UI_Controller.c ****     int16_t Btn_Slct_LftDwn_Y = 0;
 3525              		.loc 1 170 5 view .LVU974
 171:Dsp/widget/wgt_core/UI_Controller.c ****     int16_t Btn_Slct_RgtUp_X = 0;
 3526              		.loc 1 171 5 view .LVU975
 172:Dsp/widget/wgt_core/UI_Controller.c ****     int16_t Btn_Slct_RgtUp_Y = 0;
 3527              		.loc 1 172 5 view .LVU976
 173:Dsp/widget/wgt_core/UI_Controller.c ****     int16_t Btn_Slct_RgtDwn_X = 0;
 3528              		.loc 1 173 5 view .LVU977
ARM GAS  /var/folders/lx/hc4sn_b53233_zkc9xbbl97r0000gp/T//ccQGj1L2.s 			page 87


 174:Dsp/widget/wgt_core/UI_Controller.c ****     int16_t Btn_Slct_RgtDwn_Y = 0;
 3529              		.loc 1 174 5 view .LVU978
 175:Dsp/widget/wgt_core/UI_Controller.c **** 
 3530              		.loc 1 175 5 view .LVU979
 178:Dsp/widget/wgt_core/UI_Controller.c ****     int16_t block_y;
 3531              		.loc 1 178 5 view .LVU980
 179:Dsp/widget/wgt_core/UI_Controller.c **** 
 3532              		.loc 1 179 5 view .LVU981
 181:Dsp/widget/wgt_core/UI_Controller.c ****     uint8_t selector_height = 0;
 3533              		.loc 1 181 5 view .LVU982
 182:Dsp/widget/wgt_core/UI_Controller.c **** 
 3534              		.loc 1 182 5 view .LVU983
 184:Dsp/widget/wgt_core/UI_Controller.c ****     {
 3535              		.loc 1 184 5 view .LVU984
 184:Dsp/widget/wgt_core/UI_Controller.c ****     {
 3536              		.loc 1 184 28 is_stmt 0 view .LVU985
 3537 0008 524B     		ldr	r3, .L308
 3538 000a 1B68     		ldr	r3, [r3]
 184:Dsp/widget/wgt_core/UI_Controller.c ****     {
 3539              		.loc 1 184 8 view .LVU986
 3540 000c A3B1     		cbz	r3, .L296
 186:Dsp/widget/wgt_core/UI_Controller.c **** 
 3541              		.loc 1 186 9 is_stmt 1 view .LVU987
 186:Dsp/widget/wgt_core/UI_Controller.c **** 
 3542              		.loc 1 186 24 is_stmt 0 view .LVU988
 3543 000e 9847     		blx	r3
 3544              	.LVL299:
 188:Dsp/widget/wgt_core/UI_Controller.c ****             return false;
 3545              		.loc 1 188 9 is_stmt 1 view .LVU989
 188:Dsp/widget/wgt_core/UI_Controller.c ****             return false;
 3546              		.loc 1 188 12 is_stmt 0 view .LVU990
 3547 0010 0546     		mov	r5, r0
 3548 0012 0028     		cmp	r0, #0
 3549 0014 00F09780 		beq	.L305
 3550              	.LVL300:
 3551              	.L290:
 192:Dsp/widget/wgt_core/UI_Controller.c ****         return false;
 3552              		.loc 1 192 5 is_stmt 1 view .LVU991
 192:Dsp/widget/wgt_core/UI_Controller.c ****         return false;
 3553              		.loc 1 192 8 is_stmt 0 view .LVU992
 3554 0018 002C     		cmp	r4, #0
 3555 001a 00F09680 		beq	.L298
 195:Dsp/widget/wgt_core/UI_Controller.c ****     {
 3556              		.loc 1 195 5 is_stmt 1 view .LVU993
 3557 001e 4E4B     		ldr	r3, .L308+4
 3558 0020 1B78     		ldrb	r3, [r3]	@ zero_extendqisi2
 3559 0022 0C2B     		cmp	r3, #12
 3560 0024 13D0     		beq	.L299
 3561 0026 102B     		cmp	r3, #16
 3562 0028 13D0     		beq	.L300
 3563 002a 082B     		cmp	r3, #8
 3564 002c 06D0     		beq	.L306
 3565 002e 0024     		movs	r4, #0
 3566              	.LVL301:
 3567              	.L291:
 265:Dsp/widget/wgt_core/UI_Controller.c **** 
 3568              		.loc 1 265 1 is_stmt 0 view .LVU994
ARM GAS  /var/folders/lx/hc4sn_b53233_zkc9xbbl97r0000gp/T//ccQGj1L2.s 			page 88


 3569 0030 2046     		mov	r0, r4
 3570 0032 02B0     		add	sp, sp, #8
 3571              	.LCFI73:
 3572              		.cfi_remember_state
 3573              		.cfi_def_cfa_offset 32
 3574              		@ sp needed
 3575 0034 BDE8F087 		pop	{r4, r5, r6, r7, r8, r9, r10, pc}
 3576              	.LVL302:
 3577              	.L296:
 3578              	.LCFI74:
 3579              		.cfi_restore_state
 181:Dsp/widget/wgt_core/UI_Controller.c ****     uint8_t selector_height = 0;
 3580              		.loc 1 181 13 view .LVU995
 3581 0038 8025     		movs	r5, #128
 3582 003a EDE7     		b	.L290
 3583              	.LVL303:
 3584              	.L306:
 195:Dsp/widget/wgt_core/UI_Controller.c ****     {
 3585              		.loc 1 195 5 view .LVU996
 3586 003c 0A26     		movs	r6, #10
 3587              	.L292:
 3588              	.LVL304:
 210:Dsp/widget/wgt_core/UI_Controller.c ****     {
 3589              		.loc 1 210 5 is_stmt 1 view .LVU997
 210:Dsp/widget/wgt_core/UI_Controller.c ****     {
 3590              		.loc 1 210 27 is_stmt 0 view .LVU998
 3591 003e 2378     		ldrb	r3, [r4]	@ zero_extendqisi2
 210:Dsp/widget/wgt_core/UI_Controller.c ****     {
 3592              		.loc 1 210 5 view .LVU999
 3593 0040 012B     		cmp	r3, #1
 3594 0042 44D0     		beq	.L293
 3595 0044 022B     		cmp	r3, #2
 3596 0046 52D0     		beq	.L294
 3597 0048 2BB1     		cbz	r3, .L307
 3598 004a 0124     		movs	r4, #1
 3599              	.LVL305:
 210:Dsp/widget/wgt_core/UI_Controller.c ****     {
 3600              		.loc 1 210 5 view .LVU1000
 3601 004c F0E7     		b	.L291
 3602              	.LVL306:
 3603              	.L299:
 203:Dsp/widget/wgt_core/UI_Controller.c ****         break;
 3604              		.loc 1 203 25 view .LVU1001
 3605 004e 0B26     		movs	r6, #11
 3606 0050 F5E7     		b	.L292
 3607              	.L300:
 3608 0052 0B26     		movs	r6, #11
 3609 0054 F3E7     		b	.L292
 3610              	.LVL307:
 3611              	.L307:
 214:Dsp/widget/wgt_core/UI_Controller.c ****             return false;
 3612              		.loc 1 214 9 is_stmt 1 view .LVU1002
 214:Dsp/widget/wgt_core/UI_Controller.c ****             return false;
 3613              		.loc 1 214 28 is_stmt 0 view .LVU1003
 3614 0056 414B     		ldr	r3, .L308+8
 3615 0058 9B6A     		ldr	r3, [r3, #40]
 214:Dsp/widget/wgt_core/UI_Controller.c ****             return false;
ARM GAS  /var/folders/lx/hc4sn_b53233_zkc9xbbl97r0000gp/T//ccQGj1L2.s 			page 89


 3616              		.loc 1 214 12 view .LVU1004
 3617 005a 002B     		cmp	r3, #0
 3618 005c 77D0     		beq	.L303
 218:Dsp/widget/wgt_core/UI_Controller.c ****         Btn_Slct_LftUp_Y = HandleToButtonObj(item->Handler)->Gen_Data.y + HandleToButtonObj(item->H
 3619              		.loc 1 218 9 is_stmt 1 view .LVU1005
 218:Dsp/widget/wgt_core/UI_Controller.c ****         Btn_Slct_LftUp_Y = HandleToButtonObj(item->Handler)->Gen_Data.y + HandleToButtonObj(item->H
 3620              		.loc 1 218 28 is_stmt 0 view .LVU1006
 3621 005e 6268     		ldr	r2, [r4, #4]
 218:Dsp/widget/wgt_core/UI_Controller.c ****         Btn_Slct_LftUp_Y = HandleToButtonObj(item->Handler)->Gen_Data.y + HandleToButtonObj(item->H
 3622              		.loc 1 218 26 view .LVU1007
 3623 0060 B2F90460 		ldrsh	r6, [r2, #4]	@ unaligned
 3624              	.LVL308:
 218:Dsp/widget/wgt_core/UI_Controller.c ****         Btn_Slct_LftUp_Y = HandleToButtonObj(item->Handler)->Gen_Data.y + HandleToButtonObj(item->H
 3625              		.loc 1 218 26 view .LVU1008
 3626 0064 0FFA86F9 		sxth	r9, r6
 3627              	.LVL309:
 219:Dsp/widget/wgt_core/UI_Controller.c **** 
 3628              		.loc 1 219 9 is_stmt 1 view .LVU1009
 219:Dsp/widget/wgt_core/UI_Controller.c **** 
 3629              		.loc 1 219 70 is_stmt 0 view .LVU1010
 3630 0068 B2F90630 		ldrsh	r3, [r2, #6]	@ unaligned
 3631 006c 0FFA83F8 		sxth	r8, r3
 219:Dsp/widget/wgt_core/UI_Controller.c **** 
 3632              		.loc 1 219 107 view .LVU1011
 3633 0070 92F82050 		ldrb	r5, [r2, #32]	@ zero_extendqisi2
 3634              	.LVL310:
 219:Dsp/widget/wgt_core/UI_Controller.c **** 
 3635              		.loc 1 219 73 view .LVU1012
 3636 0074 15FA83F5 		uxtah	r5, r5, r3
 3637 0078 ADB2     		uxth	r5, r5
 219:Dsp/widget/wgt_core/UI_Controller.c **** 
 3638              		.loc 1 219 116 view .LVU1013
 3639 007a 013D     		subs	r5, r5, #1
 219:Dsp/widget/wgt_core/UI_Controller.c **** 
 3640              		.loc 1 219 26 view .LVU1014
 3641 007c 0FFA85FA 		sxth	r10, r5
 3642              	.LVL311:
 221:Dsp/widget/wgt_core/UI_Controller.c ****         Btn_Slct_LftDwn_Y = HandleToButtonObj(item->Handler)->Gen_Data.y;
 3643              		.loc 1 221 9 is_stmt 1 view .LVU1015
 222:Dsp/widget/wgt_core/UI_Controller.c **** 
 3644              		.loc 1 222 9 view .LVU1016
 224:Dsp/widget/wgt_core/UI_Controller.c ****         Btn_Slct_RgtUp_Y = Btn_Slct_LftUp_Y;
 3645              		.loc 1 224 9 view .LVU1017
 224:Dsp/widget/wgt_core/UI_Controller.c ****         Btn_Slct_RgtUp_Y = Btn_Slct_LftUp_Y;
 3646              		.loc 1 224 107 is_stmt 0 view .LVU1018
 3647 0080 D37F     		ldrb	r3, [r2, #31]	@ zero_extendqisi2
 3648              	.LVL312:
 224:Dsp/widget/wgt_core/UI_Controller.c ****         Btn_Slct_RgtUp_Y = Btn_Slct_LftUp_Y;
 3649              		.loc 1 224 73 view .LVU1019
 3650 0082 13FA86F6 		uxtah	r6, r3, r6
 3651              	.LVL313:
 224:Dsp/widget/wgt_core/UI_Controller.c ****         Btn_Slct_RgtUp_Y = Btn_Slct_LftUp_Y;
 3652              		.loc 1 224 26 view .LVU1020
 3653 0086 36B2     		sxth	r6, r6
 3654              	.LVL314:
 225:Dsp/widget/wgt_core/UI_Controller.c **** 
 3655              		.loc 1 225 9 is_stmt 1 view .LVU1021
ARM GAS  /var/folders/lx/hc4sn_b53233_zkc9xbbl97r0000gp/T//ccQGj1L2.s 			page 90


 227:Dsp/widget/wgt_core/UI_Controller.c ****         Btn_Slct_RgtDwn_Y = Btn_Slct_LftDwn_Y;
 3656              		.loc 1 227 9 view .LVU1022
 228:Dsp/widget/wgt_core/UI_Controller.c **** 
 3657              		.loc 1 228 9 view .LVU1023
 231:Dsp/widget/wgt_core/UI_Controller.c ****         UI_DspInterface.draw_circle_section(Btn_Slct_LftDwn_X, Btn_Slct_LftDwn_Y, BUTTON_SELECTOR_R
 3658              		.loc 1 231 9 view .LVU1024
 231:Dsp/widget/wgt_core/UI_Controller.c ****         UI_DspInterface.draw_circle_section(Btn_Slct_LftDwn_X, Btn_Slct_LftDwn_Y, BUTTON_SELECTOR_R
 3659              		.loc 1 231 24 is_stmt 0 view .LVU1025
 3660 0088 344F     		ldr	r7, .L308+8
 231:Dsp/widget/wgt_core/UI_Controller.c ****         UI_DspInterface.draw_circle_section(Btn_Slct_LftDwn_X, Btn_Slct_LftDwn_Y, BUTTON_SELECTOR_R
 3661              		.loc 1 231 9 view .LVU1026
 3662 008a 0124     		movs	r4, #1
 3663              	.LVL315:
 231:Dsp/widget/wgt_core/UI_Controller.c ****         UI_DspInterface.draw_circle_section(Btn_Slct_LftDwn_X, Btn_Slct_LftDwn_Y, BUTTON_SELECTOR_R
 3664              		.loc 1 231 9 view .LVU1027
 3665 008c 0194     		str	r4, [sp, #4]
 3666 008e 0094     		str	r4, [sp]
 3667 0090 0423     		movs	r3, #4
 3668 0092 0222     		movs	r2, #2
 3669 0094 5146     		mov	r1, r10
 3670 0096 4846     		mov	r0, r9
 3671 0098 FD69     		ldr	r5, [r7, #28]
 3672 009a A847     		blx	r5
 3673              	.LVL316:
 232:Dsp/widget/wgt_core/UI_Controller.c ****         UI_DspInterface.draw_circle_section(Btn_Slct_RgtUp_X, Btn_Slct_RgtUp_Y, BUTTON_SELECTOR_RAD
 3674              		.loc 1 232 9 is_stmt 1 view .LVU1028
 3675 009c 0194     		str	r4, [sp, #4]
 3676 009e 0094     		str	r4, [sp]
 3677 00a0 0223     		movs	r3, #2
 3678 00a2 1A46     		mov	r2, r3
 3679 00a4 4146     		mov	r1, r8
 3680 00a6 4846     		mov	r0, r9
 3681 00a8 FD69     		ldr	r5, [r7, #28]
 3682 00aa A847     		blx	r5
 3683              	.LVL317:
 233:Dsp/widget/wgt_core/UI_Controller.c ****         UI_DspInterface.draw_circle_section(Btn_Slct_RgtDwn_X, Btn_Slct_RgtDwn_Y, BUTTON_SELECTOR_R
 3684              		.loc 1 233 9 view .LVU1029
 3685 00ac 0194     		str	r4, [sp, #4]
 3686 00ae 0094     		str	r4, [sp]
 3687 00b0 0823     		movs	r3, #8
 3688 00b2 0222     		movs	r2, #2
 3689 00b4 5146     		mov	r1, r10
 3690 00b6 3046     		mov	r0, r6
 3691 00b8 FD69     		ldr	r5, [r7, #28]
 3692 00ba A847     		blx	r5
 3693              	.LVL318:
 234:Dsp/widget/wgt_core/UI_Controller.c ****         break;
 3694              		.loc 1 234 9 view .LVU1030
 234:Dsp/widget/wgt_core/UI_Controller.c ****         break;
 3695              		.loc 1 234 24 is_stmt 0 view .LVU1031
 3696 00bc FD69     		ldr	r5, [r7, #28]
 234:Dsp/widget/wgt_core/UI_Controller.c ****         break;
 3697              		.loc 1 234 9 view .LVU1032
 3698 00be 0194     		str	r4, [sp, #4]
 3699 00c0 0094     		str	r4, [sp]
 3700 00c2 2346     		mov	r3, r4
 3701 00c4 0222     		movs	r2, #2
ARM GAS  /var/folders/lx/hc4sn_b53233_zkc9xbbl97r0000gp/T//ccQGj1L2.s 			page 91


 3702 00c6 4146     		mov	r1, r8
 3703 00c8 3046     		mov	r0, r6
 3704 00ca A847     		blx	r5
 3705              	.LVL319:
 235:Dsp/widget/wgt_core/UI_Controller.c **** 
 3706              		.loc 1 235 9 is_stmt 1 view .LVU1033
 3707 00cc B0E7     		b	.L291
 3708              	.LVL320:
 3709              	.L293:
 238:Dsp/widget/wgt_core/UI_Controller.c ****         block_y = HandleToCheckBoxObj(item->Handler)->Gen_Data.y + 1;
 3710              		.loc 1 238 9 view .LVU1034
 238:Dsp/widget/wgt_core/UI_Controller.c ****         block_y = HandleToCheckBoxObj(item->Handler)->Gen_Data.y + 1;
 3711              		.loc 1 238 19 is_stmt 0 view .LVU1035
 3712 00ce 6368     		ldr	r3, [r4, #4]
 238:Dsp/widget/wgt_core/UI_Controller.c ****         block_y = HandleToCheckBoxObj(item->Handler)->Gen_Data.y + 1;
 3713              		.loc 1 238 63 view .LVU1036
 3714 00d0 9888     		ldrh	r0, [r3, #4]	@ unaligned
 238:Dsp/widget/wgt_core/UI_Controller.c ****         block_y = HandleToCheckBoxObj(item->Handler)->Gen_Data.y + 1;
 3715              		.loc 1 238 66 view .LVU1037
 3716 00d2 0330     		adds	r0, r0, #3
 3717              	.LVL321:
 239:Dsp/widget/wgt_core/UI_Controller.c **** 
 3718              		.loc 1 239 9 is_stmt 1 view .LVU1038
 239:Dsp/widget/wgt_core/UI_Controller.c **** 
 3719              		.loc 1 239 63 is_stmt 0 view .LVU1039
 3720 00d4 D988     		ldrh	r1, [r3, #6]	@ unaligned
 239:Dsp/widget/wgt_core/UI_Controller.c **** 
 3721              		.loc 1 239 66 view .LVU1040
 3722 00d6 0131     		adds	r1, r1, #1
 3723              	.LVL322:
 241:Dsp/widget/wgt_core/UI_Controller.c ****         break;
 3724              		.loc 1 241 9 is_stmt 1 view .LVU1041
 241:Dsp/widget/wgt_core/UI_Controller.c ****         break;
 3725              		.loc 1 241 24 is_stmt 0 view .LVU1042
 3726 00d8 204B     		ldr	r3, .L308+8
 3727 00da 1F6A     		ldr	r7, [r3, #32]
 241:Dsp/widget/wgt_core/UI_Controller.c ****         break;
 3728              		.loc 1 241 9 view .LVU1043
 3729 00dc AA1F     		subs	r2, r5, #6
 3730 00de 0124     		movs	r4, #1
 3731              	.LVL323:
 241:Dsp/widget/wgt_core/UI_Controller.c ****         break;
 3732              		.loc 1 241 9 view .LVU1044
 3733 00e0 0094     		str	r4, [sp]
 3734 00e2 3346     		mov	r3, r6
 3735 00e4 D2B2     		uxtb	r2, r2
 3736 00e6 09B2     		sxth	r1, r1
 241:Dsp/widget/wgt_core/UI_Controller.c ****         break;
 3737              		.loc 1 241 9 view .LVU1045
 3738 00e8 00B2     		sxth	r0, r0
 241:Dsp/widget/wgt_core/UI_Controller.c ****         break;
 3739              		.loc 1 241 9 view .LVU1046
 3740 00ea B847     		blx	r7
 3741              	.LVL324:
 242:Dsp/widget/wgt_core/UI_Controller.c **** 
 3742              		.loc 1 242 9 is_stmt 1 view .LVU1047
 3743 00ec A0E7     		b	.L291
ARM GAS  /var/folders/lx/hc4sn_b53233_zkc9xbbl97r0000gp/T//ccQGj1L2.s 			page 92


 3744              	.LVL325:
 3745              	.L294:
 245:Dsp/widget/wgt_core/UI_Controller.c **** 
 3746              		.loc 1 245 9 view .LVU1048
 245:Dsp/widget/wgt_core/UI_Controller.c **** 
 3747              		.loc 1 245 19 is_stmt 0 view .LVU1049
 3748 00ee D4F80480 		ldr	r8, [r4, #4]
 245:Dsp/widget/wgt_core/UI_Controller.c **** 
 3749              		.loc 1 245 63 view .LVU1050
 3750 00f2 B8F80670 		ldrh	r7, [r8, #6]	@ unaligned
 245:Dsp/widget/wgt_core/UI_Controller.c **** 
 3751              		.loc 1 245 66 view .LVU1051
 3752 00f6 0137     		adds	r7, r7, #1
 245:Dsp/widget/wgt_core/UI_Controller.c **** 
 3753              		.loc 1 245 17 view .LVU1052
 3754 00f8 3FB2     		sxth	r7, r7
 3755              	.LVL326:
 247:Dsp/widget/wgt_core/UI_Controller.c ****         {
 3756              		.loc 1 247 9 is_stmt 1 view .LVU1053
 247:Dsp/widget/wgt_core/UI_Controller.c ****         {
 3757              		.loc 1 247 14 is_stmt 0 view .LVU1054
 3758 00fa 4046     		mov	r0, r8
 3759 00fc FFF7FEFF 		bl	UI_SlideBar_IsSelected
 3760              	.LVL327:
 247:Dsp/widget/wgt_core/UI_Controller.c ****         {
 3761              		.loc 1 247 12 view .LVU1055
 3762 0100 0446     		mov	r4, r0
 3763              	.LVL328:
 247:Dsp/widget/wgt_core/UI_Controller.c ****         {
 3764              		.loc 1 247 12 view .LVU1056
 3765 0102 70B9     		cbnz	r0, .L295
 249:Dsp/widget/wgt_core/UI_Controller.c **** 
 3766              		.loc 1 249 13 is_stmt 1 view .LVU1057
 249:Dsp/widget/wgt_core/UI_Controller.c **** 
 3767              		.loc 1 249 67 is_stmt 0 view .LVU1058
 3768 0104 B8F80400 		ldrh	r0, [r8, #4]	@ unaligned
 249:Dsp/widget/wgt_core/UI_Controller.c **** 
 3769              		.loc 1 249 70 view .LVU1059
 3770 0108 0330     		adds	r0, r0, #3
 3771              	.LVL329:
 251:Dsp/widget/wgt_core/UI_Controller.c ****         }
 3772              		.loc 1 251 13 is_stmt 1 view .LVU1060
 251:Dsp/widget/wgt_core/UI_Controller.c ****         }
 3773              		.loc 1 251 28 is_stmt 0 view .LVU1061
 3774 010a 144B     		ldr	r3, .L308+8
 3775 010c D3F82080 		ldr	r8, [r3, #32]
 251:Dsp/widget/wgt_core/UI_Controller.c ****         }
 3776              		.loc 1 251 13 view .LVU1062
 3777 0110 AA1F     		subs	r2, r5, #6
 3778 0112 0124     		movs	r4, #1
 3779 0114 0094     		str	r4, [sp]
 3780 0116 3346     		mov	r3, r6
 3781 0118 D2B2     		uxtb	r2, r2
 3782 011a 3946     		mov	r1, r7
 3783 011c 00B2     		sxth	r0, r0
 251:Dsp/widget/wgt_core/UI_Controller.c ****         }
 3784              		.loc 1 251 13 view .LVU1063
ARM GAS  /var/folders/lx/hc4sn_b53233_zkc9xbbl97r0000gp/T//ccQGj1L2.s 			page 93


 3785 011e C047     		blx	r8
 3786              	.LVL330:
 251:Dsp/widget/wgt_core/UI_Controller.c ****         }
 3787              		.loc 1 251 13 view .LVU1064
 3788 0120 86E7     		b	.L291
 3789              	.L295:
 255:Dsp/widget/wgt_core/UI_Controller.c **** 
 3790              		.loc 1 255 13 is_stmt 1 view .LVU1065
 255:Dsp/widget/wgt_core/UI_Controller.c **** 
 3791              		.loc 1 255 57 is_stmt 0 view .LVU1066
 3792 0122 B8F82400 		ldrh	r0, [r8, #36]	@ unaligned
 255:Dsp/widget/wgt_core/UI_Controller.c **** 
 3793              		.loc 1 255 70 view .LVU1067
 3794 0126 0338     		subs	r0, r0, #3
 3795 0128 82B2     		uxth	r2, r0
 3796              	.LVL331:
 257:Dsp/widget/wgt_core/UI_Controller.c ****         }
 3797              		.loc 1 257 13 is_stmt 1 view .LVU1068
 257:Dsp/widget/wgt_core/UI_Controller.c ****         }
 3798              		.loc 1 257 28 is_stmt 0 view .LVU1069
 3799 012a 0C4B     		ldr	r3, .L308+8
 3800 012c D3F82080 		ldr	r8, [r3, #32]
 257:Dsp/widget/wgt_core/UI_Controller.c ****         }
 3801              		.loc 1 257 76 view .LVU1070
 3802 0130 AA1A     		subs	r2, r5, r2
 3803 0132 D2B2     		uxtb	r2, r2
 257:Dsp/widget/wgt_core/UI_Controller.c ****         }
 3804              		.loc 1 257 13 view .LVU1071
 3805 0134 063A     		subs	r2, r2, #6
 3806 0136 0123     		movs	r3, #1
 3807 0138 0093     		str	r3, [sp]
 3808 013a 3346     		mov	r3, r6
 3809 013c D2B2     		uxtb	r2, r2
 3810 013e 3946     		mov	r1, r7
 3811 0140 00B2     		sxth	r0, r0
 257:Dsp/widget/wgt_core/UI_Controller.c ****         }
 3812              		.loc 1 257 13 view .LVU1072
 3813 0142 C047     		blx	r8
 3814              	.LVL332:
 257:Dsp/widget/wgt_core/UI_Controller.c ****         }
 3815              		.loc 1 257 13 view .LVU1073
 3816 0144 74E7     		b	.L291
 3817              	.LVL333:
 3818              	.L305:
 189:Dsp/widget/wgt_core/UI_Controller.c ****     }
 3819              		.loc 1 189 20 view .LVU1074
 3820 0146 0024     		movs	r4, #0
 3821              	.LVL334:
 189:Dsp/widget/wgt_core/UI_Controller.c ****     }
 3822              		.loc 1 189 20 view .LVU1075
 3823 0148 72E7     		b	.L291
 3824              	.LVL335:
 3825              	.L298:
 193:Dsp/widget/wgt_core/UI_Controller.c **** 
 3826              		.loc 1 193 16 view .LVU1076
 3827 014a 0024     		movs	r4, #0
 3828              	.LVL336:
ARM GAS  /var/folders/lx/hc4sn_b53233_zkc9xbbl97r0000gp/T//ccQGj1L2.s 			page 94


 193:Dsp/widget/wgt_core/UI_Controller.c **** 
 3829              		.loc 1 193 16 view .LVU1077
 3830 014c 70E7     		b	.L291
 3831              	.LVL337:
 3832              	.L303:
 215:Dsp/widget/wgt_core/UI_Controller.c **** 
 3833              		.loc 1 215 20 view .LVU1078
 3834 014e 0024     		movs	r4, #0
 3835              	.LVL338:
 215:Dsp/widget/wgt_core/UI_Controller.c **** 
 3836              		.loc 1 215 20 view .LVU1079
 3837 0150 6EE7     		b	.L291
 3838              	.L309:
 3839 0152 00BF     		.align	2
 3840              	.L308:
 3841 0154 00000000 		.word	.LANCHOR1
 3842 0158 00000000 		.word	.LANCHOR2
 3843 015c 00000000 		.word	.LANCHOR0
 3844              		.cfi_endproc
 3845              	.LFE7:
 3847              		.global	UI_ProcessBar
 3848              		.global	UI_SlideBar
 3849              		.global	UI_CheckBox
 3850              		.global	UI_Button
 3851              		.global	UI_Get_WidgetWidth
 3852              		.section	.bss.UI_DspInterface,"aw",%nobits
 3853              		.align	2
 3854              		.set	.LANCHOR0,. + 0
 3857              	UI_DspInterface:
 3858 0000 00000000 		.space	48
 3858      00000000 
 3858      00000000 
 3858      00000000 
 3858      00000000 
 3859              		.section	.bss.UI_Get_WidgetWidth,"aw",%nobits
 3860              		.align	2
 3861              		.set	.LANCHOR1,. + 0
 3864              	UI_Get_WidgetWidth:
 3865 0000 00000000 		.space	4
 3866              		.section	.data.UI_Button,"aw"
 3867              		.align	2
 3870              	UI_Button:
 3871 0000 00000000 		.word	UI_Button_Init
 3872 0004 00000000 		.word	UI_Button_Set_TriggerCallback
 3873 0008 00000000 		.word	UI_Button_Set_Label
 3874 000c 00000000 		.word	UI_Button_Push
 3875 0010 00000000 		.word	UI_Button_Release
 3876 0014 00000000 		.word	UI_Button_Ctl
 3877 0018 00000000 		.word	UI_Button_Move
 3878              		.section	.data.UI_CheckBox,"aw"
 3879              		.align	2
 3882              	UI_CheckBox:
 3883 0000 00000000 		.word	UI_CheckBox_Init
 3884 0004 00000000 		.word	UI_CheckBox_SetCallback
 3885 0008 00000000 		.word	UI_CheckBox_Move
 3886 000c 00000000 		.word	UI_CheckBox_Trigger
 3887 0010 00000000 		.word	UI_CheckBox_Ctl
ARM GAS  /var/folders/lx/hc4sn_b53233_zkc9xbbl97r0000gp/T//ccQGj1L2.s 			page 95


 3888              		.section	.data.UI_ProcessBar,"aw"
 3889              		.align	2
 3892              	UI_ProcessBar:
 3893 0000 00000000 		.word	UI_ProcessBar_Init
 3894 0004 00000000 		.word	UI_ProcessBar_Move
 3895 0008 00000000 		.word	UI_ProcessBar_SetDspDir
 3896 000c 00000000 		.word	UI_ProcessBar_SetCurVal
 3897 0010 00000000 		.word	UI_ProcessBar_Ctl
 3898              		.section	.data.UI_SlideBar,"aw"
 3899              		.align	2
 3902              	UI_SlideBar:
 3903 0000 00000000 		.word	UI_SlideBar_Init
 3904 0004 00000000 		.word	UI_SlideBar_SetCallBack
 3905 0008 00000000 		.word	UI_SlideBar_Move
 3906 000c 00000000 		.word	UI_SlideBar_Input
 3907 0010 00000000 		.word	UI_SlideBar_Trigger
 3908 0014 00000000 		.word	UI_SlideBar_CTL
 3909 0018 00000000 		.word	UI_SlideBar_IsSelected
 3910 001c 00000000 		.word	UI_SlideBar_SetSelect
 3911              		.section	.data.base_font,"aw"
 3912              		.set	.LANCHOR2,. + 0
 3915              	base_font:
 3916 0000 08       		.byte	8
 3917              		.text
 3918              	.Letext0:
 3919              		.file 2 "/usr/local/arm-none-eabi-gcc/gcc-arm-none-eabi-10-2020-q4-major/arm-none-eabi/include/mac
 3920              		.file 3 "/usr/local/arm-none-eabi-gcc/gcc-arm-none-eabi-10-2020-q4-major/arm-none-eabi/include/sys
 3921              		.file 4 "Dsp/widget/wgt_core/UI_Controller.h"
 3922              		.file 5 "Dsp/screen/font/oledfont.h"
 3923              		.file 6 "/usr/local/arm-none-eabi-gcc/gcc-arm-none-eabi-10-2020-q4-major/arm-none-eabi/include/str
 3924              		.file 7 "/usr/local/arm-none-eabi-gcc/gcc-arm-none-eabi-10-2020-q4-major/arm-none-eabi/include/std
ARM GAS  /var/folders/lx/hc4sn_b53233_zkc9xbbl97r0000gp/T//ccQGj1L2.s 			page 96


DEFINED SYMBOLS
                            *ABS*:0000000000000000 UI_Controller.c
/var/folders/lx/hc4sn_b53233_zkc9xbbl97r0000gp/T//ccQGj1L2.s:18     .text.UI_Draw_HorDotLine:0000000000000000 $t
/var/folders/lx/hc4sn_b53233_zkc9xbbl97r0000gp/T//ccQGj1L2.s:25     .text.UI_Draw_HorDotLine:0000000000000000 UI_Draw_HorDotLine
/var/folders/lx/hc4sn_b53233_zkc9xbbl97r0000gp/T//ccQGj1L2.s:156    .text.UI_Draw_HorDotLine:0000000000000068 $d
/var/folders/lx/hc4sn_b53233_zkc9xbbl97r0000gp/T//ccQGj1L2.s:162    .text.UI_GenData_Init:0000000000000000 $t
/var/folders/lx/hc4sn_b53233_zkc9xbbl97r0000gp/T//ccQGj1L2.s:168    .text.UI_GenData_Init:0000000000000000 UI_GenData_Init
/var/folders/lx/hc4sn_b53233_zkc9xbbl97r0000gp/T//ccQGj1L2.s:197    .text.UI_Move:0000000000000000 $t
/var/folders/lx/hc4sn_b53233_zkc9xbbl97r0000gp/T//ccQGj1L2.s:203    .text.UI_Move:0000000000000000 UI_Move
/var/folders/lx/hc4sn_b53233_zkc9xbbl97r0000gp/T//ccQGj1L2.s:237    .rodata.UI_Button_Init.str1.4:0000000000000000 $d
/var/folders/lx/hc4sn_b53233_zkc9xbbl97r0000gp/T//ccQGj1L2.s:244    .text.UI_Button_Init:0000000000000000 $t
/var/folders/lx/hc4sn_b53233_zkc9xbbl97r0000gp/T//ccQGj1L2.s:250    .text.UI_Button_Init:0000000000000000 UI_Button_Init
/var/folders/lx/hc4sn_b53233_zkc9xbbl97r0000gp/T//ccQGj1L2.s:317    .text.UI_Button_Init:0000000000000040 $d
/var/folders/lx/hc4sn_b53233_zkc9xbbl97r0000gp/T//ccQGj1L2.s:323    .text.UI_Button_Set_Label:0000000000000000 $t
/var/folders/lx/hc4sn_b53233_zkc9xbbl97r0000gp/T//ccQGj1L2.s:329    .text.UI_Button_Set_Label:0000000000000000 UI_Button_Set_Label
/var/folders/lx/hc4sn_b53233_zkc9xbbl97r0000gp/T//ccQGj1L2.s:373    .text.UI_Button_Set_TriggerCallback:0000000000000000 $t
/var/folders/lx/hc4sn_b53233_zkc9xbbl97r0000gp/T//ccQGj1L2.s:379    .text.UI_Button_Set_TriggerCallback:0000000000000000 UI_Button_Set_TriggerCallback
/var/folders/lx/hc4sn_b53233_zkc9xbbl97r0000gp/T//ccQGj1L2.s:433    .text.UI_Button_Push:0000000000000000 $t
/var/folders/lx/hc4sn_b53233_zkc9xbbl97r0000gp/T//ccQGj1L2.s:439    .text.UI_Button_Push:0000000000000000 UI_Button_Push
/var/folders/lx/hc4sn_b53233_zkc9xbbl97r0000gp/T//ccQGj1L2.s:556    .text.UI_Button_Release:0000000000000000 $t
/var/folders/lx/hc4sn_b53233_zkc9xbbl97r0000gp/T//ccQGj1L2.s:562    .text.UI_Button_Release:0000000000000000 UI_Button_Release
/var/folders/lx/hc4sn_b53233_zkc9xbbl97r0000gp/T//ccQGj1L2.s:648    .text.UI_Button_Move:0000000000000000 $t
/var/folders/lx/hc4sn_b53233_zkc9xbbl97r0000gp/T//ccQGj1L2.s:654    .text.UI_Button_Move:0000000000000000 UI_Button_Move
/var/folders/lx/hc4sn_b53233_zkc9xbbl97r0000gp/T//ccQGj1L2.s:695    .text.UI_Button_Ctl:0000000000000000 $t
/var/folders/lx/hc4sn_b53233_zkc9xbbl97r0000gp/T//ccQGj1L2.s:701    .text.UI_Button_Ctl:0000000000000000 UI_Button_Ctl
/var/folders/lx/hc4sn_b53233_zkc9xbbl97r0000gp/T//ccQGj1L2.s:960    .text.UI_Button_Ctl:0000000000000110 $d
/var/folders/lx/hc4sn_b53233_zkc9xbbl97r0000gp/T//ccQGj1L2.s:966    .text.UI_CheckBox_Init:0000000000000000 $t
/var/folders/lx/hc4sn_b53233_zkc9xbbl97r0000gp/T//ccQGj1L2.s:972    .text.UI_CheckBox_Init:0000000000000000 UI_CheckBox_Init
/var/folders/lx/hc4sn_b53233_zkc9xbbl97r0000gp/T//ccQGj1L2.s:1023   .text.UI_CheckBox_SetCallback:0000000000000000 $t
/var/folders/lx/hc4sn_b53233_zkc9xbbl97r0000gp/T//ccQGj1L2.s:1029   .text.UI_CheckBox_SetCallback:0000000000000000 UI_CheckBox_SetCallback
/var/folders/lx/hc4sn_b53233_zkc9xbbl97r0000gp/T//ccQGj1L2.s:1060   .text.UI_CheckBox_Move:0000000000000000 $t
/var/folders/lx/hc4sn_b53233_zkc9xbbl97r0000gp/T//ccQGj1L2.s:1066   .text.UI_CheckBox_Move:0000000000000000 UI_CheckBox_Move
/var/folders/lx/hc4sn_b53233_zkc9xbbl97r0000gp/T//ccQGj1L2.s:1103   .text.UI_CheckBox_Trigger:0000000000000000 $t
/var/folders/lx/hc4sn_b53233_zkc9xbbl97r0000gp/T//ccQGj1L2.s:1109   .text.UI_CheckBox_Trigger:0000000000000000 UI_CheckBox_Trigger
/var/folders/lx/hc4sn_b53233_zkc9xbbl97r0000gp/T//ccQGj1L2.s:1171   .text.UI_SlideBar_Init:0000000000000000 $t
/var/folders/lx/hc4sn_b53233_zkc9xbbl97r0000gp/T//ccQGj1L2.s:1177   .text.UI_SlideBar_Init:0000000000000000 UI_SlideBar_Init
/var/folders/lx/hc4sn_b53233_zkc9xbbl97r0000gp/T//ccQGj1L2.s:1323   .text.UI_SlideBar_Move:0000000000000000 $t
/var/folders/lx/hc4sn_b53233_zkc9xbbl97r0000gp/T//ccQGj1L2.s:1329   .text.UI_SlideBar_Move:0000000000000000 UI_SlideBar_Move
/var/folders/lx/hc4sn_b53233_zkc9xbbl97r0000gp/T//ccQGj1L2.s:1366   .text.UI_SlideBar_SetCallBack:0000000000000000 $t
/var/folders/lx/hc4sn_b53233_zkc9xbbl97r0000gp/T//ccQGj1L2.s:1372   .text.UI_SlideBar_SetCallBack:0000000000000000 UI_SlideBar_SetCallBack
/var/folders/lx/hc4sn_b53233_zkc9xbbl97r0000gp/T//ccQGj1L2.s:1403   .text.UI_SlideBar_Input:0000000000000000 $t
/var/folders/lx/hc4sn_b53233_zkc9xbbl97r0000gp/T//ccQGj1L2.s:1409   .text.UI_SlideBar_Input:0000000000000000 UI_SlideBar_Input
/var/folders/lx/hc4sn_b53233_zkc9xbbl97r0000gp/T//ccQGj1L2.s:1502   .text.UI_SlideBar_Trigger:0000000000000000 $t
/var/folders/lx/hc4sn_b53233_zkc9xbbl97r0000gp/T//ccQGj1L2.s:1508   .text.UI_SlideBar_Trigger:0000000000000000 UI_SlideBar_Trigger
/var/folders/lx/hc4sn_b53233_zkc9xbbl97r0000gp/T//ccQGj1L2.s:1572   .text.UI_SlideBar_SetSelect:0000000000000000 $t
/var/folders/lx/hc4sn_b53233_zkc9xbbl97r0000gp/T//ccQGj1L2.s:1578   .text.UI_SlideBar_SetSelect:0000000000000000 UI_SlideBar_SetSelect
/var/folders/lx/hc4sn_b53233_zkc9xbbl97r0000gp/T//ccQGj1L2.s:1600   .text.UI_SlideBar_IsSelected:0000000000000000 $t
/var/folders/lx/hc4sn_b53233_zkc9xbbl97r0000gp/T//ccQGj1L2.s:1606   .text.UI_SlideBar_IsSelected:0000000000000000 UI_SlideBar_IsSelected
/var/folders/lx/hc4sn_b53233_zkc9xbbl97r0000gp/T//ccQGj1L2.s:1634   .text.UI_ProcessBar_Init:0000000000000000 $t
/var/folders/lx/hc4sn_b53233_zkc9xbbl97r0000gp/T//ccQGj1L2.s:1640   .text.UI_ProcessBar_Init:0000000000000000 UI_ProcessBar_Init
/var/folders/lx/hc4sn_b53233_zkc9xbbl97r0000gp/T//ccQGj1L2.s:1770   .text.UI_ProcessBar_Init:000000000000007c $d
/var/folders/lx/hc4sn_b53233_zkc9xbbl97r0000gp/T//ccQGj1L2.s:1775   .text.UI_ProcessBar_SetDspDir:0000000000000000 $t
/var/folders/lx/hc4sn_b53233_zkc9xbbl97r0000gp/T//ccQGj1L2.s:1781   .text.UI_ProcessBar_SetDspDir:0000000000000000 UI_ProcessBar_SetDspDir
/var/folders/lx/hc4sn_b53233_zkc9xbbl97r0000gp/T//ccQGj1L2.s:1826   .text.UI_ProcessBar_SetCurVal:0000000000000000 $t
/var/folders/lx/hc4sn_b53233_zkc9xbbl97r0000gp/T//ccQGj1L2.s:1832   .text.UI_ProcessBar_SetCurVal:0000000000000000 UI_ProcessBar_SetCurVal
/var/folders/lx/hc4sn_b53233_zkc9xbbl97r0000gp/T//ccQGj1L2.s:1920   .text.UI_ProcessBar_Move:0000000000000000 $t
/var/folders/lx/hc4sn_b53233_zkc9xbbl97r0000gp/T//ccQGj1L2.s:1926   .text.UI_ProcessBar_Move:0000000000000000 UI_ProcessBar_Move
ARM GAS  /var/folders/lx/hc4sn_b53233_zkc9xbbl97r0000gp/T//ccQGj1L2.s 			page 97


/var/folders/lx/hc4sn_b53233_zkc9xbbl97r0000gp/T//ccQGj1L2.s:1967   .text.UI_ProcessBar_DspDotBar:0000000000000000 $t
/var/folders/lx/hc4sn_b53233_zkc9xbbl97r0000gp/T//ccQGj1L2.s:1973   .text.UI_ProcessBar_DspDotBar:0000000000000000 UI_ProcessBar_DspDotBar
/var/folders/lx/hc4sn_b53233_zkc9xbbl97r0000gp/T//ccQGj1L2.s:2210   .text.UI_ProcessBar_DspDotBar:00000000000000f8 $d
/var/folders/lx/hc4sn_b53233_zkc9xbbl97r0000gp/T//ccQGj1L2.s:2215   .text.UI_CheckBox_Ctl:0000000000000000 $t
/var/folders/lx/hc4sn_b53233_zkc9xbbl97r0000gp/T//ccQGj1L2.s:2221   .text.UI_CheckBox_Ctl:0000000000000000 UI_CheckBox_Ctl
/var/folders/lx/hc4sn_b53233_zkc9xbbl97r0000gp/T//ccQGj1L2.s:2402   .text.UI_CheckBox_Ctl:00000000000000c0 $d
/var/folders/lx/hc4sn_b53233_zkc9xbbl97r0000gp/T//ccQGj1L2.s:2408   .text.UI_SlideBar_CTL:0000000000000000 $t
/var/folders/lx/hc4sn_b53233_zkc9xbbl97r0000gp/T//ccQGj1L2.s:2414   .text.UI_SlideBar_CTL:0000000000000000 UI_SlideBar_CTL
/var/folders/lx/hc4sn_b53233_zkc9xbbl97r0000gp/T//ccQGj1L2.s:2685   .text.UI_SlideBar_CTL:0000000000000124 $d
/var/folders/lx/hc4sn_b53233_zkc9xbbl97r0000gp/T//ccQGj1L2.s:2692   .text.UI_ProcessBar_DspFrameBar:0000000000000000 $t
/var/folders/lx/hc4sn_b53233_zkc9xbbl97r0000gp/T//ccQGj1L2.s:2698   .text.UI_ProcessBar_DspFrameBar:0000000000000000 UI_ProcessBar_DspFrameBar
/var/folders/lx/hc4sn_b53233_zkc9xbbl97r0000gp/T//ccQGj1L2.s:3001   .text.UI_ProcessBar_DspFrameBar:0000000000000164 $d
/var/folders/lx/hc4sn_b53233_zkc9xbbl97r0000gp/T//ccQGj1L2.s:3007   .rodata.UI_ProcessBar_DspLoadBar.str1.4:0000000000000000 $d
/var/folders/lx/hc4sn_b53233_zkc9xbbl97r0000gp/T//ccQGj1L2.s:3011   .text.UI_ProcessBar_DspLoadBar:0000000000000000 $t
/var/folders/lx/hc4sn_b53233_zkc9xbbl97r0000gp/T//ccQGj1L2.s:3017   .text.UI_ProcessBar_DspLoadBar:0000000000000000 UI_ProcessBar_DspLoadBar
/var/folders/lx/hc4sn_b53233_zkc9xbbl97r0000gp/T//ccQGj1L2.s:3219   .text.UI_ProcessBar_DspLoadBar:00000000000000f8 $d
/var/folders/lx/hc4sn_b53233_zkc9xbbl97r0000gp/T//ccQGj1L2.s:3227   .text.UI_ProcessBar_Ctl:0000000000000000 $t
/var/folders/lx/hc4sn_b53233_zkc9xbbl97r0000gp/T//ccQGj1L2.s:3233   .text.UI_ProcessBar_Ctl:0000000000000000 UI_ProcessBar_Ctl
/var/folders/lx/hc4sn_b53233_zkc9xbbl97r0000gp/T//ccQGj1L2.s:3326   .text.UI_ProcessBar_Ctl:000000000000004c $d
/var/folders/lx/hc4sn_b53233_zkc9xbbl97r0000gp/T//ccQGj1L2.s:3331   .text.UI_Set_FontType:0000000000000000 $t
/var/folders/lx/hc4sn_b53233_zkc9xbbl97r0000gp/T//ccQGj1L2.s:3338   .text.UI_Set_FontType:0000000000000000 UI_Set_FontType
/var/folders/lx/hc4sn_b53233_zkc9xbbl97r0000gp/T//ccQGj1L2.s:3373   .text.UI_Set_FontType:0000000000000018 $d
/var/folders/lx/hc4sn_b53233_zkc9xbbl97r0000gp/T//ccQGj1L2.s:3378   .text.UI_Set_DspInterface:0000000000000000 $t
/var/folders/lx/hc4sn_b53233_zkc9xbbl97r0000gp/T//ccQGj1L2.s:3385   .text.UI_Set_DspInterface:0000000000000000 UI_Set_DspInterface
/var/folders/lx/hc4sn_b53233_zkc9xbbl97r0000gp/T//ccQGj1L2.s:3458   .text.UI_Set_DspInterface:0000000000000030 $d
/var/folders/lx/hc4sn_b53233_zkc9xbbl97r0000gp/T//ccQGj1L2.s:3463   .text.UI_Set_GetWidgetWidthMathod:0000000000000000 $t
/var/folders/lx/hc4sn_b53233_zkc9xbbl97r0000gp/T//ccQGj1L2.s:3470   .text.UI_Set_GetWidgetWidthMathod:0000000000000000 UI_Set_GetWidgetWidthMathod
/var/folders/lx/hc4sn_b53233_zkc9xbbl97r0000gp/T//ccQGj1L2.s:3487   .text.UI_Set_GetWidgetWidthMathod:0000000000000008 $d
/var/folders/lx/hc4sn_b53233_zkc9xbbl97r0000gp/T//ccQGj1L2.s:3492   .text.UI_ShowSelector:0000000000000000 $t
/var/folders/lx/hc4sn_b53233_zkc9xbbl97r0000gp/T//ccQGj1L2.s:3499   .text.UI_ShowSelector:0000000000000000 UI_ShowSelector
/var/folders/lx/hc4sn_b53233_zkc9xbbl97r0000gp/T//ccQGj1L2.s:3841   .text.UI_ShowSelector:0000000000000154 $d
/var/folders/lx/hc4sn_b53233_zkc9xbbl97r0000gp/T//ccQGj1L2.s:3892   .data.UI_ProcessBar:0000000000000000 UI_ProcessBar
/var/folders/lx/hc4sn_b53233_zkc9xbbl97r0000gp/T//ccQGj1L2.s:3902   .data.UI_SlideBar:0000000000000000 UI_SlideBar
/var/folders/lx/hc4sn_b53233_zkc9xbbl97r0000gp/T//ccQGj1L2.s:3882   .data.UI_CheckBox:0000000000000000 UI_CheckBox
/var/folders/lx/hc4sn_b53233_zkc9xbbl97r0000gp/T//ccQGj1L2.s:3870   .data.UI_Button:0000000000000000 UI_Button
/var/folders/lx/hc4sn_b53233_zkc9xbbl97r0000gp/T//ccQGj1L2.s:3864   .bss.UI_Get_WidgetWidth:0000000000000000 UI_Get_WidgetWidth
/var/folders/lx/hc4sn_b53233_zkc9xbbl97r0000gp/T//ccQGj1L2.s:3853   .bss.UI_DspInterface:0000000000000000 $d
/var/folders/lx/hc4sn_b53233_zkc9xbbl97r0000gp/T//ccQGj1L2.s:3857   .bss.UI_DspInterface:0000000000000000 UI_DspInterface
/var/folders/lx/hc4sn_b53233_zkc9xbbl97r0000gp/T//ccQGj1L2.s:3860   .bss.UI_Get_WidgetWidth:0000000000000000 $d
/var/folders/lx/hc4sn_b53233_zkc9xbbl97r0000gp/T//ccQGj1L2.s:3867   .data.UI_Button:0000000000000000 $d
/var/folders/lx/hc4sn_b53233_zkc9xbbl97r0000gp/T//ccQGj1L2.s:3879   .data.UI_CheckBox:0000000000000000 $d
/var/folders/lx/hc4sn_b53233_zkc9xbbl97r0000gp/T//ccQGj1L2.s:3889   .data.UI_ProcessBar:0000000000000000 $d
/var/folders/lx/hc4sn_b53233_zkc9xbbl97r0000gp/T//ccQGj1L2.s:3899   .data.UI_SlideBar:0000000000000000 $d
/var/folders/lx/hc4sn_b53233_zkc9xbbl97r0000gp/T//ccQGj1L2.s:3915   .data.base_font:0000000000000000 base_font

UNDEFINED SYMBOLS
strlen
sprintf
