ARM GAS  /var/folders/lx/hc4sn_b53233_zkc9xbbl97r0000gp/T//ccErXOZH.s 			page 1


   1              		.cpu cortex-m4
   2              		.eabi_attribute 27, 1
   3              		.eabi_attribute 28, 1
   4              		.eabi_attribute 20, 1
   5              		.eabi_attribute 21, 1
   6              		.eabi_attribute 23, 3
   7              		.eabi_attribute 24, 1
   8              		.eabi_attribute 25, 1
   9              		.eabi_attribute 26, 1
  10              		.eabi_attribute 30, 1
  11              		.eabi_attribute 34, 1
  12              		.eabi_attribute 18, 4
  13              		.file	"UI_Controller.c"
  14              		.text
  15              	.Ltext0:
  16              		.cfi_sections	.debug_frame
  17              		.section	.text.UI_Draw_HorDotLine,"ax",%progbits
  18              		.align	1
  19              		.arch armv7e-m
  20              		.syntax unified
  21              		.thumb
  22              		.thumb_func
  23              		.fpu fpv4-sp-d16
  25              	UI_Draw_HorDotLine:
  26              	.LVL0:
  27              	.LFB7:
  28              		.file 1 "Dsp/widget/wgt_core/UI_Controller.c"
   1:Dsp/widget/wgt_core/UI_Controller.c **** /*
   2:Dsp/widget/wgt_core/UI_Controller.c **** *
   3:Dsp/widget/wgt_core/UI_Controller.c **** * Coder : 8_B!T0
   4:Dsp/widget/wgt_core/UI_Controller.c **** */
   5:Dsp/widget/wgt_core/UI_Controller.c **** 
   6:Dsp/widget/wgt_core/UI_Controller.c **** #include "UI_Controller.h"
   7:Dsp/widget/wgt_core/UI_Controller.c **** #include "runtime.h"
   8:Dsp/widget/wgt_core/UI_Controller.c **** #include <stdlib.h>
   9:Dsp/widget/wgt_core/UI_Controller.c **** #include <string.h>
  10:Dsp/widget/wgt_core/UI_Controller.c **** #include <stdio.h>
  11:Dsp/widget/wgt_core/UI_Controller.c **** #include <math.h>
  12:Dsp/widget/wgt_core/UI_Controller.c **** #include "mmu.h"
  13:Dsp/widget/wgt_core/UI_Controller.c **** 
  14:Dsp/widget/wgt_core/UI_Controller.c **** /* internal object */
  15:Dsp/widget/wgt_core/UI_Controller.c **** static UI_DrawInterface_TypeDef UI_DspInterface;
  16:Dsp/widget/wgt_core/UI_Controller.c **** static uint8_t base_font = Default_Font;
  17:Dsp/widget/wgt_core/UI_Controller.c **** 
  18:Dsp/widget/wgt_core/UI_Controller.c **** /* external function */
  19:Dsp/widget/wgt_core/UI_Controller.c **** /* UI Get General Get Mathod */
  20:Dsp/widget/wgt_core/UI_Controller.c **** UI_GetWidget_Width UI_Get_WidgetWidth = NULL;
  21:Dsp/widget/wgt_core/UI_Controller.c **** // UI_GetWidget_Height UI_Get_WidgetHeight = NULL;
  22:Dsp/widget/wgt_core/UI_Controller.c **** 
  23:Dsp/widget/wgt_core/UI_Controller.c **** /* UI button section */
  24:Dsp/widget/wgt_core/UI_Controller.c **** static bool UI_Button_Init(UI_ButtonObj_TypeDef *Obj, char *label, int16_t x, int16_t y, uint8_t wi
  25:Dsp/widget/wgt_core/UI_Controller.c **** static bool UI_Button_Set_Label(UI_ButtonObj_TypeDef *Obj, UI_Button_State_List state, char *label)
  26:Dsp/widget/wgt_core/UI_Controller.c **** static bool UI_Button_Set_TriggerCallback(UI_ButtonObj_TypeDef *Obj, UI_Button_Trigger_Type type, U
  27:Dsp/widget/wgt_core/UI_Controller.c **** static bool UI_Button_SetDspType(UI_ButtonObj_TypeDef *Obj, UI_ButtonDsp_TypeList type);
  28:Dsp/widget/wgt_core/UI_Controller.c **** static bool UI_Button_Push(UI_ButtonObj_TypeDef *Obj);
  29:Dsp/widget/wgt_core/UI_Controller.c **** static bool UI_Button_Release(UI_ButtonObj_TypeDef *Obj);
  30:Dsp/widget/wgt_core/UI_Controller.c **** static bool UI_Button_Move(UI_ButtonObj_TypeDef *Obj, uint16_t x, uint16_t y);
ARM GAS  /var/folders/lx/hc4sn_b53233_zkc9xbbl97r0000gp/T//ccErXOZH.s 			page 2


  31:Dsp/widget/wgt_core/UI_Controller.c **** static bool UI_Button_Ctl(UI_ButtonObj_TypeDef *Obj);
  32:Dsp/widget/wgt_core/UI_Controller.c **** 
  33:Dsp/widget/wgt_core/UI_Controller.c **** /* UI check box section */
  34:Dsp/widget/wgt_core/UI_Controller.c **** static bool UI_CheckBox_Init(UI_CheckBoxObj_TypeDef *Obj, char *label, int16_t x, int16_t y, bool s
  35:Dsp/widget/wgt_core/UI_Controller.c **** static bool UI_CheckBox_SetCallback(UI_CheckBoxObj_TypeDef *Obj, UI_CheckBoxTrigger_Callback callba
  36:Dsp/widget/wgt_core/UI_Controller.c **** static bool UI_CheckBox_Move(UI_CheckBoxObj_TypeDef *Obj, int16_t x, int16_t y);
  37:Dsp/widget/wgt_core/UI_Controller.c **** static bool UI_CheckBox_Trigger(UI_CheckBoxObj_TypeDef *Obj);
  38:Dsp/widget/wgt_core/UI_Controller.c **** static bool UI_CheckBox_Ctl(UI_CheckBoxObj_TypeDef *Obj);
  39:Dsp/widget/wgt_core/UI_Controller.c **** 
  40:Dsp/widget/wgt_core/UI_Controller.c **** /* UI slider bar section */
  41:Dsp/widget/wgt_core/UI_Controller.c **** static bool UI_SlideBar_Init(UI_SlideBarObj_TypeDef *Obj, UI_SliderBar_Mode_List mode, char *label,
  42:Dsp/widget/wgt_core/UI_Controller.c **** static bool UI_SlideBar_Move(UI_SlideBarObj_TypeDef *Obj, int16_t x, int16_t y);
  43:Dsp/widget/wgt_core/UI_Controller.c **** static bool UI_SlideBar_SetCallBack(UI_SlideBarObj_TypeDef *Obj, UI_SliderBarTrigger_Callback callb
  44:Dsp/widget/wgt_core/UI_Controller.c **** static bool UI_SlideBar_Input(UI_SlideBarObj_TypeDef *Obj, int16_t *step);
  45:Dsp/widget/wgt_core/UI_Controller.c **** static bool UI_SlideBar_Trigger(UI_SlideBarObj_TypeDef *Obj);
  46:Dsp/widget/wgt_core/UI_Controller.c **** static bool UI_SlideBar_CTL(UI_SlideBarObj_TypeDef *Obj);
  47:Dsp/widget/wgt_core/UI_Controller.c **** static void UI_SlideBar_SetSelect(UI_SlideBarObj_TypeDef *Obj, bool select);
  48:Dsp/widget/wgt_core/UI_Controller.c **** static bool UI_SlideBar_IsSelected(UI_SlideBarObj_TypeDef *Obj);
  49:Dsp/widget/wgt_core/UI_Controller.c **** 
  50:Dsp/widget/wgt_core/UI_Controller.c **** /* UI Process bar section */
  51:Dsp/widget/wgt_core/UI_Controller.c **** static bool UI_ProcessBar_Init(UI_ProcessBarObj_TypeDef *Obj, UI_ProcessBar_DspType_List dsp_type, 
  52:Dsp/widget/wgt_core/UI_Controller.c **** static bool UI_ProcessBar_SetDspDir(UI_ProcessBarObj_TypeDef *Obj, UI_ProcessBar_MoveDir_TypeDef Di
  53:Dsp/widget/wgt_core/UI_Controller.c **** static bool UI_ProcessBar_SetCurVal(UI_ProcessBarObj_TypeDef *Obj, int32_t val);
  54:Dsp/widget/wgt_core/UI_Controller.c **** static bool UI_ProcessBar_Ctl(UI_ProcessBarObj_TypeDef *Obj);
  55:Dsp/widget/wgt_core/UI_Controller.c **** static bool UI_ProcessBar_Move(UI_ProcessBarObj_TypeDef *Obj, uint16_t x, uint16_t y);
  56:Dsp/widget/wgt_core/UI_Controller.c **** static bool UI_ProcessBar_SetLabelPos(UI_ProcessBarObj_TypeDef *Obj, UI_ProcessBar_LabelPos_List Po
  57:Dsp/widget/wgt_core/UI_Controller.c **** 
  58:Dsp/widget/wgt_core/UI_Controller.c **** /* UI Drop Section */
  59:Dsp/widget/wgt_core/UI_Controller.c **** static bool UI_Drop_Init(UI_DropObj_TypeDef *Obj, char *label, int16_t x, int16_t y);
  60:Dsp/widget/wgt_core/UI_Controller.c **** static bool UI_Drop_Move(UI_DropObj_TypeDef *Obj, int16_t x, int16_t y);
  61:Dsp/widget/wgt_core/UI_Controller.c **** static bool UI_Drop_AddDropItem(UI_DropObj_TypeDef *Obj, char *item_desc, void *data, uint16_t data
  62:Dsp/widget/wgt_core/UI_Controller.c **** static bool UI_Drop_SetSelect(UI_DropObj_TypeDef *Obj, bool state);
  63:Dsp/widget/wgt_core/UI_Controller.c **** static bool UI_Drop_GetSelect(UI_DropObj_TypeDef *Obj);
  64:Dsp/widget/wgt_core/UI_Controller.c **** static bool UI_Drop_SelectItem(UI_DropObj_TypeDef *Obj, int8_t *offset);
  65:Dsp/widget/wgt_core/UI_Controller.c **** static bool UI_Drop_Ctl(UI_DropObj_TypeDef *Obj);
  66:Dsp/widget/wgt_core/UI_Controller.c **** 
  67:Dsp/widget/wgt_core/UI_Controller.c **** /* UI Digital Input Section */
  68:Dsp/widget/wgt_core/UI_Controller.c **** static bool UI_DigInput_Init(UI_DigInputObj_TypeDef *Obj, char *label, int16_t x, int16_t y, UI_Dig
  69:Dsp/widget/wgt_core/UI_Controller.c **** static bool UI_DigInput_SetIntRange(UI_DigInputObj_TypeDef *Obj, uint8_t efft_int_len, int32_t max,
  70:Dsp/widget/wgt_core/UI_Controller.c **** static bool UI_DigInput_SetDouRange(UI_DigInputObj_TypeDef *Obj, uint8_t efft_int_len, uint8_t efft
  71:Dsp/widget/wgt_core/UI_Controller.c **** static bool UI_DigInput_GetDoubleVal(UI_DigInputObj_TypeDef *Obj, double *Out);
  72:Dsp/widget/wgt_core/UI_Controller.c **** static bool UI_DigInput_GetIntVal(UI_DigInputObj_TypeDef *Obj, int32_t *Out);
  73:Dsp/widget/wgt_core/UI_Controller.c **** static bool UI_DigInput_Move(UI_DigInputObj_TypeDef *Obj, int16_t x, int16_t y);
  74:Dsp/widget/wgt_core/UI_Controller.c **** static bool UI_DigInput_SetSelectStatus(UI_DigInputObj_TypeDef *Obj, bool status);
  75:Dsp/widget/wgt_core/UI_Controller.c **** static bool UI_DigInput_GetSelectStatus(UI_DigInputObj_TypeDef *Obj);
  76:Dsp/widget/wgt_core/UI_Controller.c **** static bool UI_DigInput_SetCallback(UI_DigInputObj_TypeDef *Obj, UI_DigInput_Callback callback);
  77:Dsp/widget/wgt_core/UI_Controller.c **** static bool UI_DigInput_SetIntValue(UI_DigInputObj_TypeDef *Obj, uint8_t int_pos, int8_t *val);
  78:Dsp/widget/wgt_core/UI_Controller.c **** static bool UI_DigInput_SetDouValue(UI_DigInputObj_TypeDef *Obj, uint8_t dou_pos, int8_t *val);
  79:Dsp/widget/wgt_core/UI_Controller.c **** static bool UI_DigInput_InputValue(UI_DigInputObj_TypeDef *Obj, uint8_t pos, int8_t *val);
  80:Dsp/widget/wgt_core/UI_Controller.c **** static int8_t UI_DigInput_GetEffectSize(UI_DigInputObj_TypeDef *Obj, UI_DigInput_SelectedPart part)
  81:Dsp/widget/wgt_core/UI_Controller.c **** static bool UI_DigInput_CTL(UI_DigInputObj_TypeDef *Obj);
  82:Dsp/widget/wgt_core/UI_Controller.c **** 
  83:Dsp/widget/wgt_core/UI_Controller.c **** /* UI String Input Section */
  84:Dsp/widget/wgt_core/UI_Controller.c **** static bool UI_StrInput_Init(UI_StrInputObj_TypeDef *Obj, char *label, int16_t x, int16_t y, UI_Str
  85:Dsp/widget/wgt_core/UI_Controller.c **** static bool UI_StrInput_Move(UI_StrInputObj_TypeDef *Obj, int16_t x, int16_t y);
  86:Dsp/widget/wgt_core/UI_Controller.c **** static bool UI_StrInput_SetCallback(UI_StrInputObj_TypeDef *Obj, UI_StrInput_Callback callback);
  87:Dsp/widget/wgt_core/UI_Controller.c **** static bool UI_StrInput_Select(UI_StrInputObj_TypeDef *Obj, bool state);
ARM GAS  /var/folders/lx/hc4sn_b53233_zkc9xbbl97r0000gp/T//ccErXOZH.s 			page 3


  88:Dsp/widget/wgt_core/UI_Controller.c **** static bool UI_StrInput_SetChar(UI_StrInputObj_TypeDef *Obj, uint8_t index, char input);
  89:Dsp/widget/wgt_core/UI_Controller.c **** static char *UI_StrInput_GetStr(UI_StrInputObj_TypeDef *Obj);
  90:Dsp/widget/wgt_core/UI_Controller.c **** static bool UI_StrInput_Ctl(UI_StrInputObj_TypeDef *Obj);
  91:Dsp/widget/wgt_core/UI_Controller.c **** 
  92:Dsp/widget/wgt_core/UI_Controller.c **** /* UI TriggerLabel Section */
  93:Dsp/widget/wgt_core/UI_Controller.c **** static bool UI_TriggerLabel_Init(UI_TriggerLabelObj_TypeDef *Obj, char *label, int16_t x, int16_t y
  94:Dsp/widget/wgt_core/UI_Controller.c **** static bool UI_TriggerLabel_SetCallback(UI_TriggerLabelObj_TypeDef *Obj, UI_TriggerLabel_Callback c
  95:Dsp/widget/wgt_core/UI_Controller.c **** static bool UI_TriggerLabel_Move(UI_TriggerLabelObj_TypeDef *Obj, int16_t x, int16_t y);
  96:Dsp/widget/wgt_core/UI_Controller.c **** static bool UI_TriggerLabel_Trigger(UI_TriggerLabelObj_TypeDef *Obj);
  97:Dsp/widget/wgt_core/UI_Controller.c **** static bool UI_TriggerLabel_Ctl(UI_TriggerLabelObj_TypeDef *Obj);
  98:Dsp/widget/wgt_core/UI_Controller.c **** 
  99:Dsp/widget/wgt_core/UI_Controller.c **** /* general function */
 100:Dsp/widget/wgt_core/UI_Controller.c **** static bool UI_Get_InitSate(UI_GeneralData_TypeDef GenData);
 101:Dsp/widget/wgt_core/UI_Controller.c **** static bool UI_Selecte(UI_GeneralData_TypeDef *GenData, bool select);
 102:Dsp/widget/wgt_core/UI_Controller.c **** static bool UI_Get_Selected(UI_GeneralData_TypeDef GenData);
 103:Dsp/widget/wgt_core/UI_Controller.c **** static bool UI_Move(UI_GeneralData_TypeDef *GenUI_Info, int16_t dst_x, int16_t dst_y);
 104:Dsp/widget/wgt_core/UI_Controller.c **** 
 105:Dsp/widget/wgt_core/UI_Controller.c **** /* UI custom display mathod */
 106:Dsp/widget/wgt_core/UI_Controller.c **** static bool UI_Draw_HorDotLine(int16_t x, int16_t y, uint8_t len, uint8_t line_width);
 107:Dsp/widget/wgt_core/UI_Controller.c **** 
 108:Dsp/widget/wgt_core/UI_Controller.c **** /* external Object var */
 109:Dsp/widget/wgt_core/UI_Controller.c **** UI_Button_Interface_TypeDef UI_Button = {
 110:Dsp/widget/wgt_core/UI_Controller.c ****     .ctl = UI_Button_Ctl,
 111:Dsp/widget/wgt_core/UI_Controller.c ****     .init = UI_Button_Init,
 112:Dsp/widget/wgt_core/UI_Controller.c ****     .push = UI_Button_Push,
 113:Dsp/widget/wgt_core/UI_Controller.c ****     .move = UI_Button_Move,
 114:Dsp/widget/wgt_core/UI_Controller.c ****     .release = UI_Button_Release,
 115:Dsp/widget/wgt_core/UI_Controller.c ****     .set_label = UI_Button_Set_Label,
 116:Dsp/widget/wgt_core/UI_Controller.c ****     .set_trogger_callback = UI_Button_Set_TriggerCallback,
 117:Dsp/widget/wgt_core/UI_Controller.c **** };
 118:Dsp/widget/wgt_core/UI_Controller.c **** 
 119:Dsp/widget/wgt_core/UI_Controller.c **** UI_CheckBox_Interface_TypeDef UI_CheckBox = {
 120:Dsp/widget/wgt_core/UI_Controller.c ****     .ctl = UI_CheckBox_Ctl,
 121:Dsp/widget/wgt_core/UI_Controller.c ****     .init = UI_CheckBox_Init,
 122:Dsp/widget/wgt_core/UI_Controller.c ****     .Set_Callback = UI_CheckBox_SetCallback,
 123:Dsp/widget/wgt_core/UI_Controller.c ****     .Move = UI_CheckBox_Move,
 124:Dsp/widget/wgt_core/UI_Controller.c ****     .Trigger = UI_CheckBox_Trigger,
 125:Dsp/widget/wgt_core/UI_Controller.c **** };
 126:Dsp/widget/wgt_core/UI_Controller.c **** 
 127:Dsp/widget/wgt_core/UI_Controller.c **** UI_SliderBar_Interface_TypeDef UI_SlideBar = {
 128:Dsp/widget/wgt_core/UI_Controller.c ****     .init = UI_SlideBar_Init,
 129:Dsp/widget/wgt_core/UI_Controller.c ****     .Move = UI_SlideBar_Move,
 130:Dsp/widget/wgt_core/UI_Controller.c ****     .Set_Callbak = UI_SlideBar_SetCallBack,
 131:Dsp/widget/wgt_core/UI_Controller.c ****     .Input = UI_SlideBar_Input,
 132:Dsp/widget/wgt_core/UI_Controller.c ****     .Trigger = UI_SlideBar_Trigger,
 133:Dsp/widget/wgt_core/UI_Controller.c ****     .ctl = UI_SlideBar_CTL,
 134:Dsp/widget/wgt_core/UI_Controller.c ****     .Set_Select = UI_SlideBar_SetSelect,
 135:Dsp/widget/wgt_core/UI_Controller.c ****     .Get_Select = UI_SlideBar_IsSelected,
 136:Dsp/widget/wgt_core/UI_Controller.c **** };
 137:Dsp/widget/wgt_core/UI_Controller.c **** 
 138:Dsp/widget/wgt_core/UI_Controller.c **** UI_ProcessBar_Interface_TypeDef UI_ProcessBar = {
 139:Dsp/widget/wgt_core/UI_Controller.c ****     .init = UI_ProcessBar_Init,
 140:Dsp/widget/wgt_core/UI_Controller.c ****     .Move = UI_ProcessBar_Move,
 141:Dsp/widget/wgt_core/UI_Controller.c ****     .set_CurVal = UI_ProcessBar_SetCurVal,
 142:Dsp/widget/wgt_core/UI_Controller.c ****     .set_DspDir = UI_ProcessBar_SetDspDir,
 143:Dsp/widget/wgt_core/UI_Controller.c ****     .ctl = UI_ProcessBar_Ctl,
 144:Dsp/widget/wgt_core/UI_Controller.c ****     .Set_LabelPos = UI_ProcessBar_SetLabelPos,
ARM GAS  /var/folders/lx/hc4sn_b53233_zkc9xbbl97r0000gp/T//ccErXOZH.s 			page 4


 145:Dsp/widget/wgt_core/UI_Controller.c **** };
 146:Dsp/widget/wgt_core/UI_Controller.c **** 
 147:Dsp/widget/wgt_core/UI_Controller.c **** UI_Drop_Interface_TypeDef UI_Drop = {
 148:Dsp/widget/wgt_core/UI_Controller.c ****     .init = UI_Drop_Init,
 149:Dsp/widget/wgt_core/UI_Controller.c ****     .Move = UI_Drop_Move,
 150:Dsp/widget/wgt_core/UI_Controller.c ****     .Select_DropItem = UI_Drop_SelectItem,
 151:Dsp/widget/wgt_core/UI_Controller.c ****     .Set_Select = UI_Drop_SetSelect,
 152:Dsp/widget/wgt_core/UI_Controller.c ****     .Get_Select = UI_Drop_GetSelect,
 153:Dsp/widget/wgt_core/UI_Controller.c ****     .Add_drop_item = UI_Drop_AddDropItem,
 154:Dsp/widget/wgt_core/UI_Controller.c ****     .ctl = UI_Drop_Ctl,
 155:Dsp/widget/wgt_core/UI_Controller.c **** };
 156:Dsp/widget/wgt_core/UI_Controller.c **** 
 157:Dsp/widget/wgt_core/UI_Controller.c **** UI_DigInput_Interface_TypeDef UI_DigInput = {
 158:Dsp/widget/wgt_core/UI_Controller.c ****     .init = UI_DigInput_Init,
 159:Dsp/widget/wgt_core/UI_Controller.c ****     .input_val = UI_DigInput_InputValue,
 160:Dsp/widget/wgt_core/UI_Controller.c ****     .Set_Select = UI_DigInput_SetSelectStatus,
 161:Dsp/widget/wgt_core/UI_Controller.c ****     .set_callback = UI_DigInput_SetCallback,
 162:Dsp/widget/wgt_core/UI_Controller.c ****     .set_range_DouInput = UI_DigInput_SetDouRange,
 163:Dsp/widget/wgt_core/UI_Controller.c ****     .set_range_IntInput = UI_DigInput_SetIntRange,
 164:Dsp/widget/wgt_core/UI_Controller.c ****     .get_CurInout_Double = UI_DigInput_GetDoubleVal,
 165:Dsp/widget/wgt_core/UI_Controller.c ****     .get_CurInput_Int = UI_DigInput_GetIntVal,
 166:Dsp/widget/wgt_core/UI_Controller.c ****     .get_effective_len = UI_DigInput_GetEffectSize,
 167:Dsp/widget/wgt_core/UI_Controller.c ****     .Move = UI_DigInput_Move,
 168:Dsp/widget/wgt_core/UI_Controller.c ****     .ctl = UI_DigInput_CTL,
 169:Dsp/widget/wgt_core/UI_Controller.c **** };
 170:Dsp/widget/wgt_core/UI_Controller.c **** 
 171:Dsp/widget/wgt_core/UI_Controller.c **** UI_StrInput_Interface_TypeDef UI_StrInput = {
 172:Dsp/widget/wgt_core/UI_Controller.c ****     .init = UI_StrInput_Init,
 173:Dsp/widget/wgt_core/UI_Controller.c ****     .set_callback = UI_StrInput_SetCallback,
 174:Dsp/widget/wgt_core/UI_Controller.c ****     .Set_Select = UI_StrInput_Select,
 175:Dsp/widget/wgt_core/UI_Controller.c ****     .Move = UI_StrInput_Move,
 176:Dsp/widget/wgt_core/UI_Controller.c ****     .input_char = UI_StrInput_SetChar,
 177:Dsp/widget/wgt_core/UI_Controller.c ****     .get_str = UI_StrInput_GetStr,
 178:Dsp/widget/wgt_core/UI_Controller.c ****     .ctl = UI_StrInput_Ctl,
 179:Dsp/widget/wgt_core/UI_Controller.c **** };
 180:Dsp/widget/wgt_core/UI_Controller.c **** 
 181:Dsp/widget/wgt_core/UI_Controller.c **** UI_TriggerLabel_Interface_TypeDef UI_TriggerLabel = {
 182:Dsp/widget/wgt_core/UI_Controller.c ****     .init = UI_TriggerLabel_Init,
 183:Dsp/widget/wgt_core/UI_Controller.c ****     .Move = UI_TriggerLabel_Move,
 184:Dsp/widget/wgt_core/UI_Controller.c ****     .Set_Callback = UI_TriggerLabel_SetCallback,
 185:Dsp/widget/wgt_core/UI_Controller.c ****     .trigger = UI_TriggerLabel_Trigger,
 186:Dsp/widget/wgt_core/UI_Controller.c ****     .ctl = UI_TriggerLabel_Ctl,
 187:Dsp/widget/wgt_core/UI_Controller.c **** };
 188:Dsp/widget/wgt_core/UI_Controller.c **** 
 189:Dsp/widget/wgt_core/UI_Controller.c **** /******************************* general function *********************************/
 190:Dsp/widget/wgt_core/UI_Controller.c **** 
 191:Dsp/widget/wgt_core/UI_Controller.c **** bool UI_Set_FontType(uint8_t font)
 192:Dsp/widget/wgt_core/UI_Controller.c **** {
 193:Dsp/widget/wgt_core/UI_Controller.c ****     if (font < Font_8 || font > Font_16)
 194:Dsp/widget/wgt_core/UI_Controller.c ****         return false;
 195:Dsp/widget/wgt_core/UI_Controller.c **** 
 196:Dsp/widget/wgt_core/UI_Controller.c ****     base_font = font;
 197:Dsp/widget/wgt_core/UI_Controller.c **** 
 198:Dsp/widget/wgt_core/UI_Controller.c ****     return true;
 199:Dsp/widget/wgt_core/UI_Controller.c **** }
 200:Dsp/widget/wgt_core/UI_Controller.c **** 
 201:Dsp/widget/wgt_core/UI_Controller.c **** uint8_t UI_Get_FontType(void)
ARM GAS  /var/folders/lx/hc4sn_b53233_zkc9xbbl97r0000gp/T//ccErXOZH.s 			page 5


 202:Dsp/widget/wgt_core/UI_Controller.c **** {
 203:Dsp/widget/wgt_core/UI_Controller.c ****     return base_font;
 204:Dsp/widget/wgt_core/UI_Controller.c **** }
 205:Dsp/widget/wgt_core/UI_Controller.c **** 
 206:Dsp/widget/wgt_core/UI_Controller.c **** void UI_Set_DspInterface(UI_DrawPoint point,
 207:Dsp/widget/wgt_core/UI_Controller.c ****                          UI_DrawHLine line_h,
 208:Dsp/widget/wgt_core/UI_Controller.c ****                          UI_DrawVLine line_v,
 209:Dsp/widget/wgt_core/UI_Controller.c ****                          UI_DrawRectangle rectangle,
 210:Dsp/widget/wgt_core/UI_Controller.c ****                          UI_DrawRadiusRectangle radius_rectangle,
 211:Dsp/widget/wgt_core/UI_Controller.c ****                          UI_DrawCircle circle,
 212:Dsp/widget/wgt_core/UI_Controller.c ****                          UI_DrawCircleSection circle_section,
 213:Dsp/widget/wgt_core/UI_Controller.c ****                          UI_DrawStr str,
 214:Dsp/widget/wgt_core/UI_Controller.c ****                          UI_DrawDig dig,
 215:Dsp/widget/wgt_core/UI_Controller.c ****                          UI_FillCircle fill_circle,
 216:Dsp/widget/wgt_core/UI_Controller.c ****                          UI_FillCircle_Section fillcircle_section,
 217:Dsp/widget/wgt_core/UI_Controller.c ****                          UI_FillRectangle fill_rectangle,
 218:Dsp/widget/wgt_core/UI_Controller.c ****                          UI_FillRadiusRectangle fill_radius_rectangle)
 219:Dsp/widget/wgt_core/UI_Controller.c **** {
 220:Dsp/widget/wgt_core/UI_Controller.c ****     UI_DspInterface.draw_circle = circle;
 221:Dsp/widget/wgt_core/UI_Controller.c ****     UI_DspInterface.draw_circle_section = circle_section;
 222:Dsp/widget/wgt_core/UI_Controller.c ****     UI_DspInterface.draw_line_h = line_h;
 223:Dsp/widget/wgt_core/UI_Controller.c ****     UI_DspInterface.draw_line_v = line_v;
 224:Dsp/widget/wgt_core/UI_Controller.c ****     UI_DspInterface.draw_point = point;
 225:Dsp/widget/wgt_core/UI_Controller.c ****     UI_DspInterface.draw_rectangle = rectangle;
 226:Dsp/widget/wgt_core/UI_Controller.c ****     UI_DspInterface.draw_radius_rectangle = radius_rectangle;
 227:Dsp/widget/wgt_core/UI_Controller.c ****     UI_DspInterface.draw_str = str;
 228:Dsp/widget/wgt_core/UI_Controller.c ****     UI_DspInterface.draw_dig = dig;
 229:Dsp/widget/wgt_core/UI_Controller.c **** 
 230:Dsp/widget/wgt_core/UI_Controller.c ****     UI_DspInterface.fill_circle = fill_circle;
 231:Dsp/widget/wgt_core/UI_Controller.c ****     UI_DspInterface.fill_circle_section = fillcircle_section;
 232:Dsp/widget/wgt_core/UI_Controller.c ****     UI_DspInterface.fill_radius_rectangle = fill_radius_rectangle;
 233:Dsp/widget/wgt_core/UI_Controller.c ****     UI_DspInterface.fill_rectangle = fill_rectangle;
 234:Dsp/widget/wgt_core/UI_Controller.c **** }
 235:Dsp/widget/wgt_core/UI_Controller.c **** 
 236:Dsp/widget/wgt_core/UI_Controller.c **** void UI_Set_GetWidgetWidthMathod(UI_GetWidget_Width mathod)
 237:Dsp/widget/wgt_core/UI_Controller.c **** {
 238:Dsp/widget/wgt_core/UI_Controller.c ****     UI_Get_WidgetWidth = mathod;
 239:Dsp/widget/wgt_core/UI_Controller.c **** }
 240:Dsp/widget/wgt_core/UI_Controller.c **** 
 241:Dsp/widget/wgt_core/UI_Controller.c **** static bool UI_Draw_HorDotLine(int16_t x, int16_t y, uint8_t len, uint8_t line_width)
 242:Dsp/widget/wgt_core/UI_Controller.c **** {
  29              		.loc 1 242 1 view -0
  30              		.cfi_startproc
  31              		@ args = 0, pretend = 0, frame = 0
  32              		@ frame_needed = 0, uses_anonymous_args = 0
  33              		.loc 1 242 1 is_stmt 0 view .LVU1
  34 0000 2DE9F843 		push	{r3, r4, r5, r6, r7, r8, r9, lr}
  35              	.LCFI0:
  36              		.cfi_def_cfa_offset 32
  37              		.cfi_offset 3, -32
  38              		.cfi_offset 4, -28
  39              		.cfi_offset 5, -24
  40              		.cfi_offset 6, -20
  41              		.cfi_offset 7, -16
  42              		.cfi_offset 8, -12
  43              		.cfi_offset 9, -8
  44              		.cfi_offset 14, -4
ARM GAS  /var/folders/lx/hc4sn_b53233_zkc9xbbl97r0000gp/T//ccErXOZH.s 			page 6


  45 0004 1E46     		mov	r6, r3
 243:Dsp/widget/wgt_core/UI_Controller.c ****     if ((UI_DspInterface.draw_point == NULL) || (UI_Get_WidgetWidth == NULL))
  46              		.loc 1 243 5 is_stmt 1 view .LVU2
  47              		.loc 1 243 25 is_stmt 0 view .LVU3
  48 0006 164B     		ldr	r3, .L14
  49              	.LVL1:
  50              		.loc 1 243 25 view .LVU4
  51 0008 9B68     		ldr	r3, [r3, #8]
  52              		.loc 1 243 8 view .LVU5
  53 000a 2BB3     		cbz	r3, .L7
  54 000c 0546     		mov	r5, r0
  55 000e 0F46     		mov	r7, r1
  56 0010 9046     		mov	r8, r2
  57              		.loc 1 243 69 discriminator 1 view .LVU6
  58 0012 144B     		ldr	r3, .L14+4
  59 0014 1B68     		ldr	r3, [r3]
  60              		.loc 1 243 46 discriminator 1 view .LVU7
  61 0016 0BB3     		cbz	r3, .L8
 244:Dsp/widget/wgt_core/UI_Controller.c ****         return false;
 245:Dsp/widget/wgt_core/UI_Controller.c **** 
 246:Dsp/widget/wgt_core/UI_Controller.c ****     if (x > UI_Get_WidgetWidth())
  62              		.loc 1 246 5 is_stmt 1 view .LVU8
  63              		.loc 1 246 11 is_stmt 0 view .LVU9
  64 0018 8146     		mov	r9, r0
  65              		.loc 1 246 13 view .LVU10
  66 001a 9847     		blx	r3
  67              	.LVL2:
  68              		.loc 1 246 8 view .LVU11
  69 001c 8542     		cmp	r5, r0
  70 001e 12DD     		ble	.L3
 247:Dsp/widget/wgt_core/UI_Controller.c ****         return true;
  71              		.loc 1 247 16 view .LVU12
  72 0020 0120     		movs	r0, #1
  73 0022 17E0     		b	.L2
  74              	.LVL3:
  75              	.L4:
  76              	.LBB2:
  77              	.LBB3:
 248:Dsp/widget/wgt_core/UI_Controller.c **** 
 249:Dsp/widget/wgt_core/UI_Controller.c ****     for (int16_t i = x; i < x + len; i++)
 250:Dsp/widget/wgt_core/UI_Controller.c ****     {
 251:Dsp/widget/wgt_core/UI_Controller.c ****         for (uint8_t width = 0; width < line_width; width++)
  78              		.loc 1 251 53 is_stmt 1 discriminator 2 view .LVU13
  79              		.loc 1 251 58 is_stmt 0 discriminator 2 view .LVU14
  80 0024 0134     		adds	r4, r4, #1
  81              	.LVL4:
  82              		.loc 1 251 58 discriminator 2 view .LVU15
  83 0026 E4B2     		uxtb	r4, r4
  84              	.LVL5:
  85              	.L6:
  86              		.loc 1 251 33 is_stmt 1 discriminator 1 view .LVU16
  87              		.loc 1 251 9 is_stmt 0 discriminator 1 view .LVU17
  88 0028 B442     		cmp	r4, r6
  89 002a 0AD2     		bcs	.L12
 252:Dsp/widget/wgt_core/UI_Controller.c ****         {
 253:Dsp/widget/wgt_core/UI_Controller.c ****             if (i % 2)
  90              		.loc 1 253 13 is_stmt 1 view .LVU18
ARM GAS  /var/folders/lx/hc4sn_b53233_zkc9xbbl97r0000gp/T//ccErXOZH.s 			page 7


  91              		.loc 1 253 16 is_stmt 0 view .LVU19
  92 002c 15F0010F 		tst	r5, #1
  93 0030 F8D0     		beq	.L4
 254:Dsp/widget/wgt_core/UI_Controller.c ****             {
 255:Dsp/widget/wgt_core/UI_Controller.c ****                 UI_DspInterface.draw_point(i, y + width, true);
  94              		.loc 1 255 17 is_stmt 1 view .LVU20
  95              		.loc 1 255 32 is_stmt 0 view .LVU21
  96 0032 0B4B     		ldr	r3, .L14
  97 0034 9B68     		ldr	r3, [r3, #8]
  98              		.loc 1 255 49 view .LVU22
  99 0036 E119     		adds	r1, r4, r7
 100              		.loc 1 255 17 view .LVU23
 101 0038 0122     		movs	r2, #1
 102 003a 09B2     		sxth	r1, r1
 103 003c 2846     		mov	r0, r5
 104 003e 9847     		blx	r3
 105              	.LVL6:
 106 0040 F0E7     		b	.L4
 107              	.L12:
 108              	.LBE3:
 249:Dsp/widget/wgt_core/UI_Controller.c ****     {
 109              		.loc 1 249 38 is_stmt 1 discriminator 2 view .LVU24
 249:Dsp/widget/wgt_core/UI_Controller.c ****     {
 110              		.loc 1 249 39 is_stmt 0 discriminator 2 view .LVU25
 111 0042 0135     		adds	r5, r5, #1
 112              	.LVL7:
 249:Dsp/widget/wgt_core/UI_Controller.c ****     {
 113              		.loc 1 249 39 discriminator 2 view .LVU26
 114 0044 2DB2     		sxth	r5, r5
 115              	.LVL8:
 116              	.L3:
 249:Dsp/widget/wgt_core/UI_Controller.c ****     {
 117              		.loc 1 249 25 is_stmt 1 discriminator 1 view .LVU27
 249:Dsp/widget/wgt_core/UI_Controller.c ****     {
 118              		.loc 1 249 31 is_stmt 0 discriminator 1 view .LVU28
 119 0046 08EB0903 		add	r3, r8, r9
 249:Dsp/widget/wgt_core/UI_Controller.c ****     {
 120              		.loc 1 249 5 discriminator 1 view .LVU29
 121 004a 9D42     		cmp	r5, r3
 122 004c 01DA     		bge	.L13
 123              	.LBB4:
 251:Dsp/widget/wgt_core/UI_Controller.c ****         {
 124              		.loc 1 251 22 view .LVU30
 125 004e 0024     		movs	r4, #0
 126 0050 EAE7     		b	.L6
 127              	.L13:
 128              	.LBE4:
 129              	.LBE2:
 256:Dsp/widget/wgt_core/UI_Controller.c ****             }
 257:Dsp/widget/wgt_core/UI_Controller.c ****         }
 258:Dsp/widget/wgt_core/UI_Controller.c ****     }
 259:Dsp/widget/wgt_core/UI_Controller.c **** 
 260:Dsp/widget/wgt_core/UI_Controller.c ****     return true;
 130              		.loc 1 260 12 view .LVU31
 131 0052 0120     		movs	r0, #1
 132              	.LVL9:
 133              	.L2:
ARM GAS  /var/folders/lx/hc4sn_b53233_zkc9xbbl97r0000gp/T//ccErXOZH.s 			page 8


 261:Dsp/widget/wgt_core/UI_Controller.c **** }
 134              		.loc 1 261 1 view .LVU32
 135 0054 BDE8F883 		pop	{r3, r4, r5, r6, r7, r8, r9, pc}
 136              	.LVL10:
 137              	.L7:
 244:Dsp/widget/wgt_core/UI_Controller.c **** 
 138              		.loc 1 244 16 view .LVU33
 139 0058 0020     		movs	r0, #0
 140              	.LVL11:
 244:Dsp/widget/wgt_core/UI_Controller.c **** 
 141              		.loc 1 244 16 view .LVU34
 142 005a FBE7     		b	.L2
 143              	.LVL12:
 144              	.L8:
 244:Dsp/widget/wgt_core/UI_Controller.c **** 
 145              		.loc 1 244 16 view .LVU35
 146 005c 0020     		movs	r0, #0
 147              	.LVL13:
 244:Dsp/widget/wgt_core/UI_Controller.c **** 
 148              		.loc 1 244 16 view .LVU36
 149 005e F9E7     		b	.L2
 150              	.L15:
 151              		.align	2
 152              	.L14:
 153 0060 00000000 		.word	.LANCHOR0
 154 0064 00000000 		.word	.LANCHOR1
 155              		.cfi_endproc
 156              	.LFE7:
 158              		.section	.text.UI_GenData_Init,"ax",%progbits
 159              		.align	1
 160              		.syntax unified
 161              		.thumb
 162              		.thumb_func
 163              		.fpu fpv4-sp-d16
 165              	UI_GenData_Init:
 166              	.LVL14:
 167              	.LFB9:
 262:Dsp/widget/wgt_core/UI_Controller.c **** 
 263:Dsp/widget/wgt_core/UI_Controller.c **** /* still in developing about this selector */
 264:Dsp/widget/wgt_core/UI_Controller.c **** /* FYI different UI Item Got different selector */
 265:Dsp/widget/wgt_core/UI_Controller.c **** WidgetUI_FreshState_List UI_ShowSelector(WidgetUI_Item_TypeDef *item)
 266:Dsp/widget/wgt_core/UI_Controller.c **** {
 267:Dsp/widget/wgt_core/UI_Controller.c ****     /* Radius Ractangele Frame type button selector coordinate */
 268:Dsp/widget/wgt_core/UI_Controller.c ****     int16_t Btn_Slct_LftUp_X = 0;
 269:Dsp/widget/wgt_core/UI_Controller.c ****     int16_t Btn_Slct_LftUp_Y = 0;
 270:Dsp/widget/wgt_core/UI_Controller.c ****     int16_t Btn_Slct_LftDwn_X = 0;
 271:Dsp/widget/wgt_core/UI_Controller.c ****     int16_t Btn_Slct_LftDwn_Y = 0;
 272:Dsp/widget/wgt_core/UI_Controller.c ****     int16_t Btn_Slct_RgtUp_X = 0;
 273:Dsp/widget/wgt_core/UI_Controller.c ****     int16_t Btn_Slct_RgtUp_Y = 0;
 274:Dsp/widget/wgt_core/UI_Controller.c ****     int16_t Btn_Slct_RgtDwn_X = 0;
 275:Dsp/widget/wgt_core/UI_Controller.c ****     int16_t Btn_Slct_RgtDwn_Y = 0;
 276:Dsp/widget/wgt_core/UI_Controller.c **** 
 277:Dsp/widget/wgt_core/UI_Controller.c ****     /* selector block coordinate */
 278:Dsp/widget/wgt_core/UI_Controller.c ****     int16_t block_x;
 279:Dsp/widget/wgt_core/UI_Controller.c ****     int16_t block_y;
 280:Dsp/widget/wgt_core/UI_Controller.c **** 
 281:Dsp/widget/wgt_core/UI_Controller.c ****     uint8_t widget_width = 128;
ARM GAS  /var/folders/lx/hc4sn_b53233_zkc9xbbl97r0000gp/T//ccErXOZH.s 			page 9


 282:Dsp/widget/wgt_core/UI_Controller.c ****     uint8_t selector_height = 0;
 283:Dsp/widget/wgt_core/UI_Controller.c **** 
 284:Dsp/widget/wgt_core/UI_Controller.c ****     if (UI_Get_WidgetWidth != NULL)
 285:Dsp/widget/wgt_core/UI_Controller.c ****     {
 286:Dsp/widget/wgt_core/UI_Controller.c ****         widget_width = UI_Get_WidgetWidth();
 287:Dsp/widget/wgt_core/UI_Controller.c **** 
 288:Dsp/widget/wgt_core/UI_Controller.c ****         if (widget_width == 0)
 289:Dsp/widget/wgt_core/UI_Controller.c ****             return UI_Fresh_Error;
 290:Dsp/widget/wgt_core/UI_Controller.c ****     }
 291:Dsp/widget/wgt_core/UI_Controller.c **** 
 292:Dsp/widget/wgt_core/UI_Controller.c ****     if (item == NULL)
 293:Dsp/widget/wgt_core/UI_Controller.c ****         return UI_Fresh_Error;
 294:Dsp/widget/wgt_core/UI_Controller.c **** 
 295:Dsp/widget/wgt_core/UI_Controller.c ****     switch (base_font)
 296:Dsp/widget/wgt_core/UI_Controller.c ****     {
 297:Dsp/widget/wgt_core/UI_Controller.c ****     case Font_8:
 298:Dsp/widget/wgt_core/UI_Controller.c ****         selector_height = UICTL_DEFAULT_HEIGHT - 1;
 299:Dsp/widget/wgt_core/UI_Controller.c ****         break;
 300:Dsp/widget/wgt_core/UI_Controller.c **** 
 301:Dsp/widget/wgt_core/UI_Controller.c ****     case Font_12:
 302:Dsp/widget/wgt_core/UI_Controller.c ****     case Font_16:
 303:Dsp/widget/wgt_core/UI_Controller.c ****         selector_height = Font_12 - 1;
 304:Dsp/widget/wgt_core/UI_Controller.c ****         break;
 305:Dsp/widget/wgt_core/UI_Controller.c **** 
 306:Dsp/widget/wgt_core/UI_Controller.c ****     default:
 307:Dsp/widget/wgt_core/UI_Controller.c ****         return UI_Fresh_Error;
 308:Dsp/widget/wgt_core/UI_Controller.c ****     }
 309:Dsp/widget/wgt_core/UI_Controller.c **** 
 310:Dsp/widget/wgt_core/UI_Controller.c ****     switch ((uint8_t)(item->type))
 311:Dsp/widget/wgt_core/UI_Controller.c ****     {
 312:Dsp/widget/wgt_core/UI_Controller.c ****     case UI_Type_Button:
 313:Dsp/widget/wgt_core/UI_Controller.c **** 
 314:Dsp/widget/wgt_core/UI_Controller.c ****         if (UI_DspInterface.fill_circle_section == NULL)
 315:Dsp/widget/wgt_core/UI_Controller.c ****             return UI_Fresh_Error;
 316:Dsp/widget/wgt_core/UI_Controller.c **** 
 317:Dsp/widget/wgt_core/UI_Controller.c ****         if (HandleToButtonObj(item->Handler)->dsp_type == UI_Button_DefaultFrame)
 318:Dsp/widget/wgt_core/UI_Controller.c ****         {
 319:Dsp/widget/wgt_core/UI_Controller.c ****             /* comput button selector coordinate first */
 320:Dsp/widget/wgt_core/UI_Controller.c ****             Btn_Slct_LftUp_X = HandleToButtonObj(item->Handler)->Gen_Data.x;
 321:Dsp/widget/wgt_core/UI_Controller.c ****             Btn_Slct_LftUp_Y = HandleToButtonObj(item->Handler)->Gen_Data.y + HandleToButtonObj(ite
 322:Dsp/widget/wgt_core/UI_Controller.c **** 
 323:Dsp/widget/wgt_core/UI_Controller.c ****             Btn_Slct_LftDwn_X = Btn_Slct_LftUp_X;
 324:Dsp/widget/wgt_core/UI_Controller.c ****             Btn_Slct_LftDwn_Y = HandleToButtonObj(item->Handler)->Gen_Data.y;
 325:Dsp/widget/wgt_core/UI_Controller.c **** 
 326:Dsp/widget/wgt_core/UI_Controller.c ****             Btn_Slct_RgtUp_X = HandleToButtonObj(item->Handler)->Gen_Data.x + HandleToButtonObj(ite
 327:Dsp/widget/wgt_core/UI_Controller.c ****             Btn_Slct_RgtUp_Y = Btn_Slct_LftUp_Y;
 328:Dsp/widget/wgt_core/UI_Controller.c **** 
 329:Dsp/widget/wgt_core/UI_Controller.c ****             Btn_Slct_RgtDwn_X = Btn_Slct_RgtUp_X;
 330:Dsp/widget/wgt_core/UI_Controller.c ****             Btn_Slct_RgtDwn_Y = Btn_Slct_LftDwn_Y;
 331:Dsp/widget/wgt_core/UI_Controller.c **** 
 332:Dsp/widget/wgt_core/UI_Controller.c ****             // show button selector
 333:Dsp/widget/wgt_core/UI_Controller.c ****             UI_DspInterface.draw_circle_section(Btn_Slct_LftUp_X, Btn_Slct_LftUp_Y, BUTTON_SELECTOR
 334:Dsp/widget/wgt_core/UI_Controller.c ****             UI_DspInterface.draw_circle_section(Btn_Slct_LftDwn_X, Btn_Slct_LftDwn_Y, BUTTON_SELECT
 335:Dsp/widget/wgt_core/UI_Controller.c ****             UI_DspInterface.draw_circle_section(Btn_Slct_RgtUp_X, Btn_Slct_RgtUp_Y, BUTTON_SELECTOR
 336:Dsp/widget/wgt_core/UI_Controller.c ****             UI_DspInterface.draw_circle_section(Btn_Slct_RgtDwn_X, Btn_Slct_RgtDwn_Y, BUTTON_SELECT
 337:Dsp/widget/wgt_core/UI_Controller.c ****         }
 338:Dsp/widget/wgt_core/UI_Controller.c ****         else if (HandleToButtonObj(item->Handler)->dsp_type == UI_Button_BarcketFrame)
ARM GAS  /var/folders/lx/hc4sn_b53233_zkc9xbbl97r0000gp/T//ccErXOZH.s 			page 10


 339:Dsp/widget/wgt_core/UI_Controller.c ****         {
 340:Dsp/widget/wgt_core/UI_Controller.c ****             block_x = HandleToButtonObj(item->Handler)->Gen_Data.x + 3;
 341:Dsp/widget/wgt_core/UI_Controller.c ****             block_y = HandleToButtonObj(item->Handler)->Gen_Data.y + 1;
 342:Dsp/widget/wgt_core/UI_Controller.c **** 
 343:Dsp/widget/wgt_core/UI_Controller.c ****             widget_width = (strlen(HandleToButtonObj(item->Handler)->Gen_Data.label) + 2) * STR_DIS
 344:Dsp/widget/wgt_core/UI_Controller.c **** 
 345:Dsp/widget/wgt_core/UI_Controller.c ****             UI_DspInterface.fill_rectangle(block_x, block_y, (widget_width + 6), selector_height, t
 346:Dsp/widget/wgt_core/UI_Controller.c ****         }
 347:Dsp/widget/wgt_core/UI_Controller.c ****         else
 348:Dsp/widget/wgt_core/UI_Controller.c ****             return UI_Fresh_Error;
 349:Dsp/widget/wgt_core/UI_Controller.c ****         break;
 350:Dsp/widget/wgt_core/UI_Controller.c **** 
 351:Dsp/widget/wgt_core/UI_Controller.c ****     case UI_Type_CheckBox:
 352:Dsp/widget/wgt_core/UI_Controller.c ****         block_x = HandleToCheckBoxObj(item->Handler)->Gen_Data.x + 3;
 353:Dsp/widget/wgt_core/UI_Controller.c ****         block_y = HandleToCheckBoxObj(item->Handler)->Gen_Data.y + 1;
 354:Dsp/widget/wgt_core/UI_Controller.c **** 
 355:Dsp/widget/wgt_core/UI_Controller.c ****         UI_DspInterface.fill_rectangle(block_x, block_y, (widget_width - 6), selector_height, true)
 356:Dsp/widget/wgt_core/UI_Controller.c ****         break;
 357:Dsp/widget/wgt_core/UI_Controller.c **** 
 358:Dsp/widget/wgt_core/UI_Controller.c ****     case UI_Type_SlideBar:
 359:Dsp/widget/wgt_core/UI_Controller.c ****         block_y = HandleToSlideBarObj(item->Handler)->Gen_Data.y + 1;
 360:Dsp/widget/wgt_core/UI_Controller.c **** 
 361:Dsp/widget/wgt_core/UI_Controller.c ****         if (!UI_SlideBar_IsSelected(HandleToButtonObj(item->Handler)))
 362:Dsp/widget/wgt_core/UI_Controller.c ****         {
 363:Dsp/widget/wgt_core/UI_Controller.c ****             block_x = HandleToSlideBarObj(item->Handler)->Gen_Data.x + 3;
 364:Dsp/widget/wgt_core/UI_Controller.c **** 
 365:Dsp/widget/wgt_core/UI_Controller.c ****             UI_DspInterface.fill_rectangle(block_x, block_y, (widget_width - 6), selector_height, t
 366:Dsp/widget/wgt_core/UI_Controller.c ****         }
 367:Dsp/widget/wgt_core/UI_Controller.c ****         else
 368:Dsp/widget/wgt_core/UI_Controller.c ****         {
 369:Dsp/widget/wgt_core/UI_Controller.c ****             block_x = HandleToSlideBarObj(item->Handler)->BarCoord_X - 3;
 370:Dsp/widget/wgt_core/UI_Controller.c **** 
 371:Dsp/widget/wgt_core/UI_Controller.c ****             UI_DspInterface.fill_rectangle(block_x, block_y, (widget_width - block_x - 6), selector
 372:Dsp/widget/wgt_core/UI_Controller.c ****         }
 373:Dsp/widget/wgt_core/UI_Controller.c ****         break;
 374:Dsp/widget/wgt_core/UI_Controller.c **** 
 375:Dsp/widget/wgt_core/UI_Controller.c ****     case UI_Type_ProcBar:
 376:Dsp/widget/wgt_core/UI_Controller.c ****         /* show next */
 377:Dsp/widget/wgt_core/UI_Controller.c ****         return UI_Fresh_Skip;
 378:Dsp/widget/wgt_core/UI_Controller.c **** 
 379:Dsp/widget/wgt_core/UI_Controller.c ****     case UI_Type_Drop:
 380:Dsp/widget/wgt_core/UI_Controller.c ****         if (HandleToDropObj(item->Handler)->is_selected)
 381:Dsp/widget/wgt_core/UI_Controller.c ****         {
 382:Dsp/widget/wgt_core/UI_Controller.c ****             block_y = HandleToDropObj(item->Handler)->Gen_Data.y;
 383:Dsp/widget/wgt_core/UI_Controller.c ****         }
 384:Dsp/widget/wgt_core/UI_Controller.c ****         else
 385:Dsp/widget/wgt_core/UI_Controller.c ****         {
 386:Dsp/widget/wgt_core/UI_Controller.c ****             block_x = HandleToDropObj(item->Handler)->Gen_Data.x + 3;
 387:Dsp/widget/wgt_core/UI_Controller.c ****             block_y = HandleToDropObj(item->Handler)->Gen_Data.y + 1;
 388:Dsp/widget/wgt_core/UI_Controller.c ****             UI_DspInterface.fill_rectangle(block_x, block_y, (widget_width - 6), selector_height, t
 389:Dsp/widget/wgt_core/UI_Controller.c ****         }
 390:Dsp/widget/wgt_core/UI_Controller.c ****         break;
 391:Dsp/widget/wgt_core/UI_Controller.c **** 
 392:Dsp/widget/wgt_core/UI_Controller.c ****     case UI_Type_DigInput:
 393:Dsp/widget/wgt_core/UI_Controller.c ****         block_y = HandleToDigInputObj(item->Handler)->Gen_Data.y;
 394:Dsp/widget/wgt_core/UI_Controller.c **** 
 395:Dsp/widget/wgt_core/UI_Controller.c ****         if (HandleToDigInputObj(item->Handler)->selected)
ARM GAS  /var/folders/lx/hc4sn_b53233_zkc9xbbl97r0000gp/T//ccErXOZH.s 			page 11


 396:Dsp/widget/wgt_core/UI_Controller.c ****         {
 397:Dsp/widget/wgt_core/UI_Controller.c ****             block_y = HandleToDigInputObj(item->Handler)->Gen_Data.y;
 398:Dsp/widget/wgt_core/UI_Controller.c ****         }
 399:Dsp/widget/wgt_core/UI_Controller.c ****         else
 400:Dsp/widget/wgt_core/UI_Controller.c ****         {
 401:Dsp/widget/wgt_core/UI_Controller.c ****             block_x = HandleToDigInputObj(item->Handler)->Gen_Data.x + 3;
 402:Dsp/widget/wgt_core/UI_Controller.c ****             UI_DspInterface.fill_rectangle(block_x, block_y, (widget_width - 6), selector_height, t
 403:Dsp/widget/wgt_core/UI_Controller.c ****         }
 404:Dsp/widget/wgt_core/UI_Controller.c ****         break;
 405:Dsp/widget/wgt_core/UI_Controller.c **** 
 406:Dsp/widget/wgt_core/UI_Controller.c ****     case UI_Type_StrInput:
 407:Dsp/widget/wgt_core/UI_Controller.c ****         block_y = HandleToStrInputObj(item->Handler)->Gen_Data.y;
 408:Dsp/widget/wgt_core/UI_Controller.c **** 
 409:Dsp/widget/wgt_core/UI_Controller.c ****         if (HandleToStrInputObj(item->Handler)->selected)
 410:Dsp/widget/wgt_core/UI_Controller.c ****         {
 411:Dsp/widget/wgt_core/UI_Controller.c ****             block_y = HandleToStrInputObj(item->Handler)->Gen_Data.y;
 412:Dsp/widget/wgt_core/UI_Controller.c ****         }
 413:Dsp/widget/wgt_core/UI_Controller.c ****         else
 414:Dsp/widget/wgt_core/UI_Controller.c ****         {
 415:Dsp/widget/wgt_core/UI_Controller.c ****             block_x = HandleToStrInputObj(item->Handler)->Gen_Data.x + 3;
 416:Dsp/widget/wgt_core/UI_Controller.c ****             UI_DspInterface.fill_rectangle(block_x, block_y, (widget_width - 6), selector_height, t
 417:Dsp/widget/wgt_core/UI_Controller.c ****         }
 418:Dsp/widget/wgt_core/UI_Controller.c ****         break;
 419:Dsp/widget/wgt_core/UI_Controller.c **** 
 420:Dsp/widget/wgt_core/UI_Controller.c ****     case UI_Type_TriggerLabel:
 421:Dsp/widget/wgt_core/UI_Controller.c ****         block_y = HandleToTriggerLabelObj(item->Handler)->Gen_Data.y;
 422:Dsp/widget/wgt_core/UI_Controller.c ****         block_x = HandleToTriggerLabelObj(item->Handler)->Gen_Data.x + 3;
 423:Dsp/widget/wgt_core/UI_Controller.c ****         UI_DspInterface.fill_rectangle(block_x, block_y, (widget_width - 6), selector_height, true)
 424:Dsp/widget/wgt_core/UI_Controller.c ****         break;
 425:Dsp/widget/wgt_core/UI_Controller.c **** 
 426:Dsp/widget/wgt_core/UI_Controller.c ****     default:
 427:Dsp/widget/wgt_core/UI_Controller.c ****         return UI_Fresh_Error;
 428:Dsp/widget/wgt_core/UI_Controller.c ****     }
 429:Dsp/widget/wgt_core/UI_Controller.c **** 
 430:Dsp/widget/wgt_core/UI_Controller.c ****     return UI_Fresh_Done;
 431:Dsp/widget/wgt_core/UI_Controller.c **** }
 432:Dsp/widget/wgt_core/UI_Controller.c **** 
 433:Dsp/widget/wgt_core/UI_Controller.c **** static void UI_GenData_Init(UI_GeneralData_TypeDef *GenData, char *label, int16_t x, int16_t y)
 434:Dsp/widget/wgt_core/UI_Controller.c **** {
 168              		.loc 1 434 1 is_stmt 1 view -0
 169              		.cfi_startproc
 170              		@ args = 0, pretend = 0, frame = 0
 171              		@ frame_needed = 0, uses_anonymous_args = 0
 172              		@ link register save eliminated.
 435:Dsp/widget/wgt_core/UI_Controller.c ****     GenData->label = label;
 173              		.loc 1 435 5 view .LVU38
 174              		.loc 1 435 20 is_stmt 0 view .LVU39
 175 0000 0160     		str	r1, [r0]
 436:Dsp/widget/wgt_core/UI_Controller.c **** 
 437:Dsp/widget/wgt_core/UI_Controller.c ****     GenData->x = x;
 176              		.loc 1 437 5 is_stmt 1 view .LVU40
 177              		.loc 1 437 16 is_stmt 0 view .LVU41
 178 0002 8280     		strh	r2, [r0, #4]	@ movhi
 438:Dsp/widget/wgt_core/UI_Controller.c ****     GenData->y = y;
 179              		.loc 1 438 5 is_stmt 1 view .LVU42
 180              		.loc 1 438 16 is_stmt 0 view .LVU43
 181 0004 C380     		strh	r3, [r0, #6]	@ movhi
ARM GAS  /var/folders/lx/hc4sn_b53233_zkc9xbbl97r0000gp/T//ccErXOZH.s 			page 12


 439:Dsp/widget/wgt_core/UI_Controller.c ****     GenData->height = 0;
 182              		.loc 1 439 5 is_stmt 1 view .LVU44
 183              		.loc 1 439 21 is_stmt 0 view .LVU45
 184 0006 0023     		movs	r3, #0
 185              	.LVL15:
 186              		.loc 1 439 21 view .LVU46
 187 0008 0372     		strb	r3, [r0, #8]
 440:Dsp/widget/wgt_core/UI_Controller.c **** 
 441:Dsp/widget/wgt_core/UI_Controller.c ****     GenData->operatable = false;
 188              		.loc 1 441 5 is_stmt 1 view .LVU47
 189              		.loc 1 441 25 is_stmt 0 view .LVU48
 190 000a 4372     		strb	r3, [r0, #9]
 442:Dsp/widget/wgt_core/UI_Controller.c **** }
 191              		.loc 1 442 1 view .LVU49
 192 000c 7047     		bx	lr
 193              		.cfi_endproc
 194              	.LFE9:
 196              		.section	.text.UI_Move,"ax",%progbits
 197              		.align	1
 198              		.syntax unified
 199              		.thumb
 200              		.thumb_func
 201              		.fpu fpv4-sp-d16
 203              	UI_Move:
 204              	.LVL16:
 205              	.LFB10:
 443:Dsp/widget/wgt_core/UI_Controller.c **** 
 444:Dsp/widget/wgt_core/UI_Controller.c **** static bool UI_Move(UI_GeneralData_TypeDef *GenUI_Info, int16_t dst_x, int16_t dst_y)
 445:Dsp/widget/wgt_core/UI_Controller.c **** {
 206              		.loc 1 445 1 is_stmt 1 view -0
 207              		.cfi_startproc
 208              		@ args = 0, pretend = 0, frame = 0
 209              		@ frame_needed = 0, uses_anonymous_args = 0
 210              		@ link register save eliminated.
 446:Dsp/widget/wgt_core/UI_Controller.c ****     if (GenUI_Info == NULL)
 211              		.loc 1 446 5 view .LVU51
 212              		.loc 1 446 8 is_stmt 0 view .LVU52
 213 0000 18B1     		cbz	r0, .L19
 447:Dsp/widget/wgt_core/UI_Controller.c ****         return false;
 448:Dsp/widget/wgt_core/UI_Controller.c **** 
 449:Dsp/widget/wgt_core/UI_Controller.c ****     GenUI_Info->x = dst_x;
 214              		.loc 1 449 5 is_stmt 1 view .LVU53
 215              		.loc 1 449 19 is_stmt 0 view .LVU54
 216 0002 8180     		strh	r1, [r0, #4]	@ movhi
 450:Dsp/widget/wgt_core/UI_Controller.c ****     GenUI_Info->y = dst_y;
 217              		.loc 1 450 5 is_stmt 1 view .LVU55
 218              		.loc 1 450 19 is_stmt 0 view .LVU56
 219 0004 C280     		strh	r2, [r0, #6]	@ movhi
 451:Dsp/widget/wgt_core/UI_Controller.c **** 
 452:Dsp/widget/wgt_core/UI_Controller.c ****     return true;
 220              		.loc 1 452 5 is_stmt 1 view .LVU57
 221              		.loc 1 452 12 is_stmt 0 view .LVU58
 222 0006 0120     		movs	r0, #1
 223              	.LVL17:
 224              		.loc 1 452 12 view .LVU59
 225 0008 7047     		bx	lr
 226              	.LVL18:
ARM GAS  /var/folders/lx/hc4sn_b53233_zkc9xbbl97r0000gp/T//ccErXOZH.s 			page 13


 227              	.L19:
 447:Dsp/widget/wgt_core/UI_Controller.c **** 
 228              		.loc 1 447 16 view .LVU60
 229 000a 0020     		movs	r0, #0
 230              	.LVL19:
 453:Dsp/widget/wgt_core/UI_Controller.c **** }
 231              		.loc 1 453 1 view .LVU61
 232 000c 7047     		bx	lr
 233              		.cfi_endproc
 234              	.LFE10:
 236              		.section	.rodata.UI_Button_Init.str1.4,"aMS",%progbits,1
 237              		.align	2
 238              	.LC0:
 239 0000 79657300 		.ascii	"yes\000"
 240              		.align	2
 241              	.LC1:
 242 0004 6E6F00   		.ascii	"no\000"
 243              		.section	.text.UI_Button_Init,"ax",%progbits
 244              		.align	1
 245              		.syntax unified
 246              		.thumb
 247              		.thumb_func
 248              		.fpu fpv4-sp-d16
 250              	UI_Button_Init:
 251              	.LVL20:
 252              	.LFB11:
 454:Dsp/widget/wgt_core/UI_Controller.c **** 
 455:Dsp/widget/wgt_core/UI_Controller.c **** /********************************************** UI Button Object **********************************
 456:Dsp/widget/wgt_core/UI_Controller.c **** static bool UI_Button_Init(UI_ButtonObj_TypeDef *Obj, char *label, int16_t x, int16_t y, uint8_t wi
 457:Dsp/widget/wgt_core/UI_Controller.c **** {
 253              		.loc 1 457 1 is_stmt 1 view -0
 254              		.cfi_startproc
 255              		@ args = 16, pretend = 0, frame = 0
 256              		@ frame_needed = 0, uses_anonymous_args = 0
 257              		.loc 1 457 1 is_stmt 0 view .LVU63
 258 0000 10B5     		push	{r4, lr}
 259              	.LCFI1:
 260              		.cfi_def_cfa_offset 8
 261              		.cfi_offset 4, -8
 262              		.cfi_offset 14, -4
 263 0002 9DF814C0 		ldrb	ip, [sp, #20]	@ zero_extendqisi2
 458:Dsp/widget/wgt_core/UI_Controller.c ****     if (Obj == NULL)
 264              		.loc 1 458 5 is_stmt 1 view .LVU64
 265              		.loc 1 458 8 is_stmt 0 view .LVU65
 266 0006 E0B1     		cbz	r0, .L22
 267 0008 0446     		mov	r4, r0
 459:Dsp/widget/wgt_core/UI_Controller.c ****         return false;
 460:Dsp/widget/wgt_core/UI_Controller.c **** 
 461:Dsp/widget/wgt_core/UI_Controller.c ****     Obj->default_state = state;
 268              		.loc 1 461 5 is_stmt 1 view .LVU66
 269              		.loc 1 461 24 is_stmt 0 view .LVU67
 270 000a 80F80CC0 		strb	ip, [r0, #12]
 462:Dsp/widget/wgt_core/UI_Controller.c ****     Obj->state = state;
 271              		.loc 1 462 5 is_stmt 1 view .LVU68
 272              		.loc 1 462 16 is_stmt 0 view .LVU69
 273 000e 80F80DC0 		strb	ip, [r0, #13]
 463:Dsp/widget/wgt_core/UI_Controller.c ****     Obj->type = type;
ARM GAS  /var/folders/lx/hc4sn_b53233_zkc9xbbl97r0000gp/T//ccErXOZH.s 			page 14


 274              		.loc 1 463 5 is_stmt 1 view .LVU70
 275              		.loc 1 463 15 is_stmt 0 view .LVU71
 276 0012 9DF81000 		ldrb	r0, [sp, #16]	@ zero_extendqisi2
 277              	.LVL21:
 278              		.loc 1 463 15 view .LVU72
 279 0016 A073     		strb	r0, [r4, #14]
 464:Dsp/widget/wgt_core/UI_Controller.c **** 
 465:Dsp/widget/wgt_core/UI_Controller.c ****     UI_GenData_Init(&Obj->Gen_Data, label, x, y);
 280              		.loc 1 465 5 is_stmt 1 view .LVU73
 281 0018 2046     		mov	r0, r4
 282 001a FFF7FEFF 		bl	UI_GenData_Init
 283              	.LVL22:
 466:Dsp/widget/wgt_core/UI_Controller.c **** 
 467:Dsp/widget/wgt_core/UI_Controller.c ****     Obj->width = width;
 284              		.loc 1 467 5 view .LVU74
 285              		.loc 1 467 16 is_stmt 0 view .LVU75
 286 001e 9DF80830 		ldrb	r3, [sp, #8]	@ zero_extendqisi2
 287 0022 E377     		strb	r3, [r4, #31]
 468:Dsp/widget/wgt_core/UI_Controller.c ****     Obj->height = height;
 288              		.loc 1 468 5 is_stmt 1 view .LVU76
 289              		.loc 1 468 17 is_stmt 0 view .LVU77
 290 0024 9DF80C30 		ldrb	r3, [sp, #12]	@ zero_extendqisi2
 291 0028 84F82030 		strb	r3, [r4, #32]
 469:Dsp/widget/wgt_core/UI_Controller.c **** 
 470:Dsp/widget/wgt_core/UI_Controller.c ****     Obj->PushDown_Label = DEFAULT_BUTTON_PUSH_LABEL;
 292              		.loc 1 470 5 is_stmt 1 view .LVU78
 293              		.loc 1 470 25 is_stmt 0 view .LVU79
 294 002c 064B     		ldr	r3, .L24
 295 002e C4F81730 		str	r3, [r4, #23]	@ unaligned
 471:Dsp/widget/wgt_core/UI_Controller.c ****     Obj->Release_Label = DEFAULT_BUTTON_RELEASE_LABEL;
 296              		.loc 1 471 5 is_stmt 1 view .LVU80
 297              		.loc 1 471 24 is_stmt 0 view .LVU81
 298 0032 064B     		ldr	r3, .L24+4
 299 0034 C4F81B30 		str	r3, [r4, #27]	@ unaligned
 472:Dsp/widget/wgt_core/UI_Controller.c **** 
 473:Dsp/widget/wgt_core/UI_Controller.c ****     Obj->dsp_type = UI_Button_DefaultFrame;
 300              		.loc 1 473 5 is_stmt 1 view .LVU82
 301              		.loc 1 473 19 is_stmt 0 view .LVU83
 302 0038 0023     		movs	r3, #0
 303 003a 84F82130 		strb	r3, [r4, #33]
 474:Dsp/widget/wgt_core/UI_Controller.c **** 
 475:Dsp/widget/wgt_core/UI_Controller.c ****     return true;
 304              		.loc 1 475 5 is_stmt 1 view .LVU84
 305              		.loc 1 475 12 is_stmt 0 view .LVU85
 306 003e 0120     		movs	r0, #1
 307              	.LVL23:
 308              	.L21:
 476:Dsp/widget/wgt_core/UI_Controller.c **** }
 309              		.loc 1 476 1 view .LVU86
 310 0040 10BD     		pop	{r4, pc}
 311              	.LVL24:
 312              	.L22:
 459:Dsp/widget/wgt_core/UI_Controller.c **** 
 313              		.loc 1 459 16 view .LVU87
 314 0042 0020     		movs	r0, #0
 315              	.LVL25:
 459:Dsp/widget/wgt_core/UI_Controller.c **** 
ARM GAS  /var/folders/lx/hc4sn_b53233_zkc9xbbl97r0000gp/T//ccErXOZH.s 			page 15


 316              		.loc 1 459 16 view .LVU88
 317 0044 FCE7     		b	.L21
 318              	.L25:
 319 0046 00BF     		.align	2
 320              	.L24:
 321 0048 00000000 		.word	.LC0
 322 004c 04000000 		.word	.LC1
 323              		.cfi_endproc
 324              	.LFE11:
 326              		.section	.text.UI_Button_Set_Label,"ax",%progbits
 327              		.align	1
 328              		.syntax unified
 329              		.thumb
 330              		.thumb_func
 331              		.fpu fpv4-sp-d16
 333              	UI_Button_Set_Label:
 334              	.LVL26:
 335              	.LFB12:
 477:Dsp/widget/wgt_core/UI_Controller.c **** 
 478:Dsp/widget/wgt_core/UI_Controller.c **** static bool UI_Button_Set_Label(UI_ButtonObj_TypeDef *Obj, UI_Button_State_List state, char *label)
 479:Dsp/widget/wgt_core/UI_Controller.c **** {
 336              		.loc 1 479 1 is_stmt 1 view -0
 337              		.cfi_startproc
 338              		@ args = 0, pretend = 0, frame = 0
 339              		@ frame_needed = 0, uses_anonymous_args = 0
 340              		@ link register save eliminated.
 480:Dsp/widget/wgt_core/UI_Controller.c ****     if (Obj == NULL)
 341              		.loc 1 480 5 view .LVU90
 342              		.loc 1 480 8 is_stmt 0 view .LVU91
 343 0000 48B1     		cbz	r0, .L29
 481:Dsp/widget/wgt_core/UI_Controller.c ****         return false;
 482:Dsp/widget/wgt_core/UI_Controller.c **** 
 483:Dsp/widget/wgt_core/UI_Controller.c ****     if (state == UI_Btn_PushDwn)
 344              		.loc 1 483 5 is_stmt 1 view .LVU92
 345              		.loc 1 483 8 is_stmt 0 view .LVU93
 346 0002 0129     		cmp	r1, #1
 347 0004 03D0     		beq	.L30
 484:Dsp/widget/wgt_core/UI_Controller.c ****         Obj->PushDown_Label = label;
 485:Dsp/widget/wgt_core/UI_Controller.c ****     else
 486:Dsp/widget/wgt_core/UI_Controller.c ****         Obj->Release_Label = label;
 348              		.loc 1 486 9 is_stmt 1 view .LVU94
 349              		.loc 1 486 28 is_stmt 0 view .LVU95
 350 0006 C0F81B20 		str	r2, [r0, #27]	@ unaligned
 487:Dsp/widget/wgt_core/UI_Controller.c **** 
 488:Dsp/widget/wgt_core/UI_Controller.c ****     return true;
 351              		.loc 1 488 12 view .LVU96
 352 000a 0120     		movs	r0, #1
 353              	.LVL27:
 354              		.loc 1 488 12 view .LVU97
 355 000c 7047     		bx	lr
 356              	.LVL28:
 357              	.L30:
 484:Dsp/widget/wgt_core/UI_Controller.c ****         Obj->PushDown_Label = label;
 358              		.loc 1 484 9 is_stmt 1 view .LVU98
 484:Dsp/widget/wgt_core/UI_Controller.c ****         Obj->PushDown_Label = label;
 359              		.loc 1 484 29 is_stmt 0 view .LVU99
 360 000e C0F81720 		str	r2, [r0, #23]	@ unaligned
ARM GAS  /var/folders/lx/hc4sn_b53233_zkc9xbbl97r0000gp/T//ccErXOZH.s 			page 16


 361              		.loc 1 488 12 view .LVU100
 362 0012 0120     		movs	r0, #1
 363              	.LVL29:
 364              		.loc 1 488 12 view .LVU101
 365 0014 7047     		bx	lr
 366              	.LVL30:
 367              	.L29:
 481:Dsp/widget/wgt_core/UI_Controller.c **** 
 368              		.loc 1 481 16 view .LVU102
 369 0016 0020     		movs	r0, #0
 370              	.LVL31:
 489:Dsp/widget/wgt_core/UI_Controller.c **** }
 371              		.loc 1 489 1 view .LVU103
 372 0018 7047     		bx	lr
 373              		.cfi_endproc
 374              	.LFE12:
 376              		.section	.text.UI_Button_Set_TriggerCallback,"ax",%progbits
 377              		.align	1
 378              		.syntax unified
 379              		.thumb
 380              		.thumb_func
 381              		.fpu fpv4-sp-d16
 383              	UI_Button_Set_TriggerCallback:
 384              	.LVL32:
 385              	.LFB14:
 490:Dsp/widget/wgt_core/UI_Controller.c **** 
 491:Dsp/widget/wgt_core/UI_Controller.c **** static bool UI_Button_SetDspType(UI_ButtonObj_TypeDef *Obj, UI_ButtonDsp_TypeList type)
 492:Dsp/widget/wgt_core/UI_Controller.c **** {
 493:Dsp/widget/wgt_core/UI_Controller.c ****     if (Obj == NULL)
 494:Dsp/widget/wgt_core/UI_Controller.c ****         return false;
 495:Dsp/widget/wgt_core/UI_Controller.c **** 
 496:Dsp/widget/wgt_core/UI_Controller.c ****     Obj->dsp_type = type;
 497:Dsp/widget/wgt_core/UI_Controller.c **** 
 498:Dsp/widget/wgt_core/UI_Controller.c ****     return true;
 499:Dsp/widget/wgt_core/UI_Controller.c **** }
 500:Dsp/widget/wgt_core/UI_Controller.c **** 
 501:Dsp/widget/wgt_core/UI_Controller.c **** static bool UI_Button_Set_TriggerCallback(UI_ButtonObj_TypeDef *Obj, UI_Button_Trigger_Type type, U
 502:Dsp/widget/wgt_core/UI_Controller.c **** {
 386              		.loc 1 502 1 is_stmt 1 view -0
 387              		.cfi_startproc
 388              		@ args = 0, pretend = 0, frame = 0
 389              		@ frame_needed = 0, uses_anonymous_args = 0
 390              		@ link register save eliminated.
 503:Dsp/widget/wgt_core/UI_Controller.c ****     if (Obj == NULL)
 391              		.loc 1 503 5 view .LVU105
 392              		.loc 1 503 8 is_stmt 0 view .LVU106
 393 0000 50B1     		cbz	r0, .L34
 504:Dsp/widget/wgt_core/UI_Controller.c ****         return false;
 505:Dsp/widget/wgt_core/UI_Controller.c **** 
 506:Dsp/widget/wgt_core/UI_Controller.c ****     if (type == Push_Trigger)
 394              		.loc 1 506 5 is_stmt 1 view .LVU107
 395              		.loc 1 506 8 is_stmt 0 view .LVU108
 396 0002 0129     		cmp	r1, #1
 397 0004 04D0     		beq	.L36
 507:Dsp/widget/wgt_core/UI_Controller.c ****     {
 508:Dsp/widget/wgt_core/UI_Controller.c ****         Obj->push_callback = callback;
 509:Dsp/widget/wgt_core/UI_Controller.c ****     }
ARM GAS  /var/folders/lx/hc4sn_b53233_zkc9xbbl97r0000gp/T//ccErXOZH.s 			page 17


 510:Dsp/widget/wgt_core/UI_Controller.c ****     else if (type == Release_Trigger)
 398              		.loc 1 510 10 is_stmt 1 view .LVU109
 399              		.loc 1 510 13 is_stmt 0 view .LVU110
 400 0006 49B9     		cbnz	r1, .L35
 511:Dsp/widget/wgt_core/UI_Controller.c ****     {
 512:Dsp/widget/wgt_core/UI_Controller.c ****         Obj->release_callback = callback;
 401              		.loc 1 512 9 is_stmt 1 view .LVU111
 402              		.loc 1 512 31 is_stmt 0 view .LVU112
 403 0008 C0F81320 		str	r2, [r0, #19]	@ unaligned
 513:Dsp/widget/wgt_core/UI_Controller.c ****     }
 514:Dsp/widget/wgt_core/UI_Controller.c ****     else
 515:Dsp/widget/wgt_core/UI_Controller.c ****         return false;
 516:Dsp/widget/wgt_core/UI_Controller.c **** 
 517:Dsp/widget/wgt_core/UI_Controller.c ****     return true;
 404              		.loc 1 517 12 view .LVU113
 405 000c 0120     		movs	r0, #1
 406              	.LVL33:
 407              		.loc 1 517 12 view .LVU114
 408 000e 7047     		bx	lr
 409              	.LVL34:
 410              	.L36:
 508:Dsp/widget/wgt_core/UI_Controller.c ****     }
 411              		.loc 1 508 9 is_stmt 1 view .LVU115
 508:Dsp/widget/wgt_core/UI_Controller.c ****     }
 412              		.loc 1 508 28 is_stmt 0 view .LVU116
 413 0010 C0F80F20 		str	r2, [r0, #15]	@ unaligned
 414              		.loc 1 517 12 view .LVU117
 415 0014 0120     		movs	r0, #1
 416              	.LVL35:
 417              		.loc 1 517 12 view .LVU118
 418 0016 7047     		bx	lr
 419              	.LVL36:
 420              	.L34:
 504:Dsp/widget/wgt_core/UI_Controller.c **** 
 421              		.loc 1 504 16 view .LVU119
 422 0018 0020     		movs	r0, #0
 423              	.LVL37:
 504:Dsp/widget/wgt_core/UI_Controller.c **** 
 424              		.loc 1 504 16 view .LVU120
 425 001a 7047     		bx	lr
 426              	.LVL38:
 427              	.L35:
 515:Dsp/widget/wgt_core/UI_Controller.c **** 
 428              		.loc 1 515 16 view .LVU121
 429 001c 0020     		movs	r0, #0
 430              	.LVL39:
 518:Dsp/widget/wgt_core/UI_Controller.c **** }
 431              		.loc 1 518 1 view .LVU122
 432 001e 7047     		bx	lr
 433              		.cfi_endproc
 434              	.LFE14:
 436              		.section	.text.UI_Button_Push,"ax",%progbits
 437              		.align	1
 438              		.syntax unified
 439              		.thumb
 440              		.thumb_func
 441              		.fpu fpv4-sp-d16
ARM GAS  /var/folders/lx/hc4sn_b53233_zkc9xbbl97r0000gp/T//ccErXOZH.s 			page 18


 443              	UI_Button_Push:
 444              	.LVL40:
 445              	.LFB15:
 519:Dsp/widget/wgt_core/UI_Controller.c **** 
 520:Dsp/widget/wgt_core/UI_Controller.c **** static bool UI_Button_Push(UI_ButtonObj_TypeDef *Obj)
 521:Dsp/widget/wgt_core/UI_Controller.c **** {
 446              		.loc 1 521 1 is_stmt 1 view -0
 447              		.cfi_startproc
 448              		@ args = 0, pretend = 0, frame = 0
 449              		@ frame_needed = 0, uses_anonymous_args = 0
 522:Dsp/widget/wgt_core/UI_Controller.c ****     if (Obj == NULL)
 450              		.loc 1 522 5 view .LVU124
 451              		.loc 1 522 8 is_stmt 0 view .LVU125
 452 0000 F0B1     		cbz	r0, .L41
 521:Dsp/widget/wgt_core/UI_Controller.c ****     if (Obj == NULL)
 453              		.loc 1 521 1 view .LVU126
 454 0002 08B5     		push	{r3, lr}
 455              	.LCFI2:
 456              		.cfi_def_cfa_offset 8
 457              		.cfi_offset 3, -8
 458              		.cfi_offset 14, -4
 459 0004 0346     		mov	r3, r0
 523:Dsp/widget/wgt_core/UI_Controller.c ****         return false;
 524:Dsp/widget/wgt_core/UI_Controller.c **** 
 525:Dsp/widget/wgt_core/UI_Controller.c ****     if (Obj->type == Lock_Btn)
 460              		.loc 1 525 5 is_stmt 1 view .LVU127
 461              		.loc 1 525 12 is_stmt 0 view .LVU128
 462 0006 827B     		ldrb	r2, [r0, #14]	@ zero_extendqisi2
 463              		.loc 1 525 8 view .LVU129
 464 0008 012A     		cmp	r2, #1
 465 000a 06D0     		beq	.L49
 526:Dsp/widget/wgt_core/UI_Controller.c ****     {
 527:Dsp/widget/wgt_core/UI_Controller.c ****         if (Obj->state == UI_Btn_RlsUp)
 528:Dsp/widget/wgt_core/UI_Controller.c ****             Obj->state = UI_Btn_PushDwn;
 529:Dsp/widget/wgt_core/UI_Controller.c ****         else
 530:Dsp/widget/wgt_core/UI_Controller.c ****             Obj->state = UI_Btn_RlsUp;
 531:Dsp/widget/wgt_core/UI_Controller.c ****     }
 532:Dsp/widget/wgt_core/UI_Controller.c ****     else if (Obj->type == Reset_Btn)
 466              		.loc 1 532 10 is_stmt 1 view .LVU130
 467              		.loc 1 532 13 is_stmt 0 view .LVU131
 468 000c D2B9     		cbnz	r2, .L42
 533:Dsp/widget/wgt_core/UI_Controller.c ****     {
 534:Dsp/widget/wgt_core/UI_Controller.c ****         if (Obj->default_state == Obj->state)
 469              		.loc 1 534 9 is_stmt 1 view .LVU132
 470              		.loc 1 534 16 is_stmt 0 view .LVU133
 471 000e 027B     		ldrb	r2, [r0, #12]	@ zero_extendqisi2
 472              		.loc 1 534 38 view .LVU134
 473 0010 417B     		ldrb	r1, [r0, #13]	@ zero_extendqisi2
 474              		.loc 1 534 12 view .LVU135
 475 0012 8A42     		cmp	r2, r1
 476 0014 0AD0     		beq	.L50
 535:Dsp/widget/wgt_core/UI_Controller.c ****         {
 536:Dsp/widget/wgt_core/UI_Controller.c ****             Obj->state = !Obj->default_state;
 537:Dsp/widget/wgt_core/UI_Controller.c **** 
 538:Dsp/widget/wgt_core/UI_Controller.c ****             if (Obj->push_callback != NULL)
 539:Dsp/widget/wgt_core/UI_Controller.c ****                 Obj->push_callback();
 540:Dsp/widget/wgt_core/UI_Controller.c ****         }
ARM GAS  /var/folders/lx/hc4sn_b53233_zkc9xbbl97r0000gp/T//ccErXOZH.s 			page 19


 541:Dsp/widget/wgt_core/UI_Controller.c ****     }
 542:Dsp/widget/wgt_core/UI_Controller.c ****     else
 543:Dsp/widget/wgt_core/UI_Controller.c ****         return false;
 544:Dsp/widget/wgt_core/UI_Controller.c **** 
 545:Dsp/widget/wgt_core/UI_Controller.c ****     return true;
 477              		.loc 1 545 12 view .LVU136
 478 0016 0120     		movs	r0, #1
 479              	.LVL41:
 480              	.L38:
 546:Dsp/widget/wgt_core/UI_Controller.c **** }
 481              		.loc 1 546 1 view .LVU137
 482 0018 08BD     		pop	{r3, pc}
 483              	.LVL42:
 484              	.L49:
 527:Dsp/widget/wgt_core/UI_Controller.c ****             Obj->state = UI_Btn_PushDwn;
 485              		.loc 1 527 9 is_stmt 1 view .LVU138
 527:Dsp/widget/wgt_core/UI_Controller.c ****             Obj->state = UI_Btn_PushDwn;
 486              		.loc 1 527 16 is_stmt 0 view .LVU139
 487 001a 427B     		ldrb	r2, [r0, #13]	@ zero_extendqisi2
 527:Dsp/widget/wgt_core/UI_Controller.c ****             Obj->state = UI_Btn_PushDwn;
 488              		.loc 1 527 12 view .LVU140
 489 001c 12B9     		cbnz	r2, .L40
 528:Dsp/widget/wgt_core/UI_Controller.c ****         else
 490              		.loc 1 528 13 is_stmt 1 view .LVU141
 528:Dsp/widget/wgt_core/UI_Controller.c ****         else
 491              		.loc 1 528 24 is_stmt 0 view .LVU142
 492 001e 0120     		movs	r0, #1
 493              	.LVL43:
 528:Dsp/widget/wgt_core/UI_Controller.c ****         else
 494              		.loc 1 528 24 view .LVU143
 495 0020 5873     		strb	r0, [r3, #13]
 496 0022 F9E7     		b	.L38
 497              	.LVL44:
 498              	.L40:
 530:Dsp/widget/wgt_core/UI_Controller.c ****     }
 499              		.loc 1 530 13 is_stmt 1 view .LVU144
 530:Dsp/widget/wgt_core/UI_Controller.c ****     }
 500              		.loc 1 530 24 is_stmt 0 view .LVU145
 501 0024 0022     		movs	r2, #0
 502 0026 4273     		strb	r2, [r0, #13]
 545:Dsp/widget/wgt_core/UI_Controller.c **** }
 503              		.loc 1 545 12 view .LVU146
 504 0028 0120     		movs	r0, #1
 505              	.LVL45:
 545:Dsp/widget/wgt_core/UI_Controller.c **** }
 506              		.loc 1 545 12 view .LVU147
 507 002a F5E7     		b	.L38
 508              	.LVL46:
 509              	.L50:
 536:Dsp/widget/wgt_core/UI_Controller.c **** 
 510              		.loc 1 536 13 is_stmt 1 view .LVU148
 536:Dsp/widget/wgt_core/UI_Controller.c **** 
 511              		.loc 1 536 26 is_stmt 0 view .LVU149
 512 002c B2FA82F2 		clz	r2, r2
 513 0030 5209     		lsrs	r2, r2, #5
 536:Dsp/widget/wgt_core/UI_Controller.c **** 
 514              		.loc 1 536 24 view .LVU150
ARM GAS  /var/folders/lx/hc4sn_b53233_zkc9xbbl97r0000gp/T//ccErXOZH.s 			page 20


 515 0032 4273     		strb	r2, [r0, #13]
 538:Dsp/widget/wgt_core/UI_Controller.c ****                 Obj->push_callback();
 516              		.loc 1 538 13 is_stmt 1 view .LVU151
 538:Dsp/widget/wgt_core/UI_Controller.c ****                 Obj->push_callback();
 517              		.loc 1 538 20 is_stmt 0 view .LVU152
 518 0034 D0F80F30 		ldr	r3, [r0, #15]	@ unaligned
 538:Dsp/widget/wgt_core/UI_Controller.c ****                 Obj->push_callback();
 519              		.loc 1 538 16 view .LVU153
 520 0038 33B1     		cbz	r3, .L44
 539:Dsp/widget/wgt_core/UI_Controller.c ****         }
 521              		.loc 1 539 17 is_stmt 1 view .LVU154
 522 003a 9847     		blx	r3
 523              	.LVL47:
 545:Dsp/widget/wgt_core/UI_Controller.c **** }
 524              		.loc 1 545 12 is_stmt 0 view .LVU155
 525 003c 0120     		movs	r0, #1
 526 003e EBE7     		b	.L38
 527              	.LVL48:
 528              	.L41:
 529              	.LCFI3:
 530              		.cfi_def_cfa_offset 0
 531              		.cfi_restore 3
 532              		.cfi_restore 14
 523:Dsp/widget/wgt_core/UI_Controller.c **** 
 533              		.loc 1 523 16 view .LVU156
 534 0040 0020     		movs	r0, #0
 535              	.LVL49:
 536              		.loc 1 546 1 view .LVU157
 537 0042 7047     		bx	lr
 538              	.LVL50:
 539              	.L42:
 540              	.LCFI4:
 541              		.cfi_def_cfa_offset 8
 542              		.cfi_offset 3, -8
 543              		.cfi_offset 14, -4
 543:Dsp/widget/wgt_core/UI_Controller.c **** 
 544              		.loc 1 543 16 view .LVU158
 545 0044 0020     		movs	r0, #0
 546              	.LVL51:
 543:Dsp/widget/wgt_core/UI_Controller.c **** 
 547              		.loc 1 543 16 view .LVU159
 548 0046 E7E7     		b	.L38
 549              	.LVL52:
 550              	.L44:
 545:Dsp/widget/wgt_core/UI_Controller.c **** }
 551              		.loc 1 545 12 view .LVU160
 552 0048 0120     		movs	r0, #1
 553              	.LVL53:
 545:Dsp/widget/wgt_core/UI_Controller.c **** }
 554              		.loc 1 545 12 view .LVU161
 555 004a E5E7     		b	.L38
 556              		.cfi_endproc
 557              	.LFE15:
 559              		.section	.text.UI_Button_Release,"ax",%progbits
 560              		.align	1
 561              		.syntax unified
 562              		.thumb
ARM GAS  /var/folders/lx/hc4sn_b53233_zkc9xbbl97r0000gp/T//ccErXOZH.s 			page 21


 563              		.thumb_func
 564              		.fpu fpv4-sp-d16
 566              	UI_Button_Release:
 567              	.LVL54:
 568              	.LFB16:
 547:Dsp/widget/wgt_core/UI_Controller.c **** 
 548:Dsp/widget/wgt_core/UI_Controller.c **** static bool UI_Button_Release(UI_ButtonObj_TypeDef *Obj)
 549:Dsp/widget/wgt_core/UI_Controller.c **** {
 569              		.loc 1 549 1 is_stmt 1 view -0
 570              		.cfi_startproc
 571              		@ args = 0, pretend = 0, frame = 0
 572              		@ frame_needed = 0, uses_anonymous_args = 0
 550:Dsp/widget/wgt_core/UI_Controller.c ****     if (Obj == NULL)
 573              		.loc 1 550 5 view .LVU163
 574              		.loc 1 550 8 is_stmt 0 view .LVU164
 575 0000 70B1     		cbz	r0, .L53
 549:Dsp/widget/wgt_core/UI_Controller.c ****     if (Obj == NULL)
 576              		.loc 1 549 1 view .LVU165
 577 0002 08B5     		push	{r3, lr}
 578              	.LCFI5:
 579              		.cfi_def_cfa_offset 8
 580              		.cfi_offset 3, -8
 581              		.cfi_offset 14, -4
 551:Dsp/widget/wgt_core/UI_Controller.c ****         return false;
 552:Dsp/widget/wgt_core/UI_Controller.c **** 
 553:Dsp/widget/wgt_core/UI_Controller.c ****     if (Obj->type == Lock_Btn)
 582              		.loc 1 553 5 is_stmt 1 view .LVU166
 583              		.loc 1 553 12 is_stmt 0 view .LVU167
 584 0004 827B     		ldrb	r2, [r0, #14]	@ zero_extendqisi2
 585              		.loc 1 553 8 view .LVU168
 586 0006 012A     		cmp	r2, #1
 587 0008 0CD0     		beq	.L54
 554:Dsp/widget/wgt_core/UI_Controller.c ****         return true;
 555:Dsp/widget/wgt_core/UI_Controller.c **** 
 556:Dsp/widget/wgt_core/UI_Controller.c ****     if (Obj->default_state != Obj->state)
 588              		.loc 1 556 5 is_stmt 1 view .LVU169
 589              		.loc 1 556 12 is_stmt 0 view .LVU170
 590 000a 027B     		ldrb	r2, [r0, #12]	@ zero_extendqisi2
 591              		.loc 1 556 34 view .LVU171
 592 000c 417B     		ldrb	r1, [r0, #13]	@ zero_extendqisi2
 593              		.loc 1 556 8 view .LVU172
 594 000e 8A42     		cmp	r2, r1
 595 0010 0AD0     		beq	.L55
 557:Dsp/widget/wgt_core/UI_Controller.c ****     {
 558:Dsp/widget/wgt_core/UI_Controller.c ****         Obj->state = Obj->default_state;
 596              		.loc 1 558 9 is_stmt 1 view .LVU173
 597              		.loc 1 558 20 is_stmt 0 view .LVU174
 598 0012 4273     		strb	r2, [r0, #13]
 559:Dsp/widget/wgt_core/UI_Controller.c **** 
 560:Dsp/widget/wgt_core/UI_Controller.c ****         if (Obj->release_callback != NULL)
 599              		.loc 1 560 9 is_stmt 1 view .LVU175
 600              		.loc 1 560 16 is_stmt 0 view .LVU176
 601 0014 D0F81330 		ldr	r3, [r0, #19]	@ unaligned
 602              		.loc 1 560 12 view .LVU177
 603 0018 43B1     		cbz	r3, .L56
 561:Dsp/widget/wgt_core/UI_Controller.c ****             Obj->release_callback();
 604              		.loc 1 561 13 is_stmt 1 view .LVU178
ARM GAS  /var/folders/lx/hc4sn_b53233_zkc9xbbl97r0000gp/T//ccErXOZH.s 			page 22


 605 001a 9847     		blx	r3
 606              	.LVL55:
 562:Dsp/widget/wgt_core/UI_Controller.c ****     }
 563:Dsp/widget/wgt_core/UI_Controller.c **** 
 564:Dsp/widget/wgt_core/UI_Controller.c ****     return true;
 607              		.loc 1 564 12 is_stmt 0 view .LVU179
 608 001c 0120     		movs	r0, #1
 609              	.L52:
 565:Dsp/widget/wgt_core/UI_Controller.c **** }
 610              		.loc 1 565 1 view .LVU180
 611 001e 08BD     		pop	{r3, pc}
 612              	.LVL56:
 613              	.L53:
 614              	.LCFI6:
 615              		.cfi_def_cfa_offset 0
 616              		.cfi_restore 3
 617              		.cfi_restore 14
 551:Dsp/widget/wgt_core/UI_Controller.c **** 
 618              		.loc 1 551 16 view .LVU181
 619 0020 0020     		movs	r0, #0
 620              	.LVL57:
 621              		.loc 1 565 1 view .LVU182
 622 0022 7047     		bx	lr
 623              	.LVL58:
 624              	.L54:
 625              	.LCFI7:
 626              		.cfi_def_cfa_offset 8
 627              		.cfi_offset 3, -8
 628              		.cfi_offset 14, -4
 554:Dsp/widget/wgt_core/UI_Controller.c **** 
 629              		.loc 1 554 16 view .LVU183
 630 0024 0120     		movs	r0, #1
 631              	.LVL59:
 554:Dsp/widget/wgt_core/UI_Controller.c **** 
 632              		.loc 1 554 16 view .LVU184
 633 0026 FAE7     		b	.L52
 634              	.LVL60:
 635              	.L55:
 564:Dsp/widget/wgt_core/UI_Controller.c **** }
 636              		.loc 1 564 12 view .LVU185
 637 0028 0120     		movs	r0, #1
 638              	.LVL61:
 564:Dsp/widget/wgt_core/UI_Controller.c **** }
 639              		.loc 1 564 12 view .LVU186
 640 002a F8E7     		b	.L52
 641              	.LVL62:
 642              	.L56:
 564:Dsp/widget/wgt_core/UI_Controller.c **** }
 643              		.loc 1 564 12 view .LVU187
 644 002c 0120     		movs	r0, #1
 645              	.LVL63:
 564:Dsp/widget/wgt_core/UI_Controller.c **** }
 646              		.loc 1 564 12 view .LVU188
 647 002e F6E7     		b	.L52
 648              		.cfi_endproc
 649              	.LFE16:
 651              		.section	.text.UI_Button_Move,"ax",%progbits
ARM GAS  /var/folders/lx/hc4sn_b53233_zkc9xbbl97r0000gp/T//ccErXOZH.s 			page 23


 652              		.align	1
 653              		.syntax unified
 654              		.thumb
 655              		.thumb_func
 656              		.fpu fpv4-sp-d16
 658              	UI_Button_Move:
 659              	.LVL64:
 660              	.LFB17:
 566:Dsp/widget/wgt_core/UI_Controller.c **** 
 567:Dsp/widget/wgt_core/UI_Controller.c **** static bool UI_Button_Move(UI_ButtonObj_TypeDef *Obj, uint16_t x, uint16_t y)
 568:Dsp/widget/wgt_core/UI_Controller.c **** {
 661              		.loc 1 568 1 is_stmt 1 view -0
 662              		.cfi_startproc
 663              		@ args = 0, pretend = 0, frame = 0
 664              		@ frame_needed = 0, uses_anonymous_args = 0
 569:Dsp/widget/wgt_core/UI_Controller.c ****     if (Obj == NULL)
 665              		.loc 1 569 5 view .LVU190
 666              		.loc 1 569 8 is_stmt 0 view .LVU191
 667 0000 28B1     		cbz	r0, .L63
 568:Dsp/widget/wgt_core/UI_Controller.c ****     if (Obj == NULL)
 668              		.loc 1 568 1 view .LVU192
 669 0002 08B5     		push	{r3, lr}
 670              	.LCFI8:
 671              		.cfi_def_cfa_offset 8
 672              		.cfi_offset 3, -8
 673              		.cfi_offset 14, -4
 570:Dsp/widget/wgt_core/UI_Controller.c ****         return false;
 571:Dsp/widget/wgt_core/UI_Controller.c **** 
 572:Dsp/widget/wgt_core/UI_Controller.c ****     return UI_Move(&(Obj->Gen_Data), x, y);
 674              		.loc 1 572 5 is_stmt 1 view .LVU193
 675              		.loc 1 572 12 is_stmt 0 view .LVU194
 676 0004 12B2     		sxth	r2, r2
 677              		.loc 1 572 12 view .LVU195
 678 0006 09B2     		sxth	r1, r1
 679              		.loc 1 572 12 view .LVU196
 680 0008 FFF7FEFF 		bl	UI_Move
 681              	.LVL65:
 573:Dsp/widget/wgt_core/UI_Controller.c **** }
 682              		.loc 1 573 1 view .LVU197
 683 000c 08BD     		pop	{r3, pc}
 684              	.LVL66:
 685              	.L63:
 686              	.LCFI9:
 687              		.cfi_def_cfa_offset 0
 688              		.cfi_restore 3
 689              		.cfi_restore 14
 570:Dsp/widget/wgt_core/UI_Controller.c ****         return false;
 690              		.loc 1 570 16 view .LVU198
 691 000e 0020     		movs	r0, #0
 692              	.LVL67:
 693              		.loc 1 573 1 view .LVU199
 694 0010 7047     		bx	lr
 695              		.cfi_endproc
 696              	.LFE17:
 698              		.section	.text.UI_CheckBox_Init,"ax",%progbits
 699              		.align	1
 700              		.syntax unified
ARM GAS  /var/folders/lx/hc4sn_b53233_zkc9xbbl97r0000gp/T//ccErXOZH.s 			page 24


 701              		.thumb
 702              		.thumb_func
 703              		.fpu fpv4-sp-d16
 705              	UI_CheckBox_Init:
 706              	.LVL68:
 707              	.LFB19:
 574:Dsp/widget/wgt_core/UI_Controller.c **** 
 575:Dsp/widget/wgt_core/UI_Controller.c **** static bool UI_Button_Ctl(UI_ButtonObj_TypeDef *Obj)
 576:Dsp/widget/wgt_core/UI_Controller.c **** {
 577:Dsp/widget/wgt_core/UI_Controller.c ****     int8_t label_dsp_offset = 0;
 578:Dsp/widget/wgt_core/UI_Controller.c ****     char pushlabel_buff[32];
 579:Dsp/widget/wgt_core/UI_Controller.c ****     char releaselabel_buff[32];
 580:Dsp/widget/wgt_core/UI_Controller.c **** 
 581:Dsp/widget/wgt_core/UI_Controller.c ****     memset(releaselabel_buff, '\0', 32);
 582:Dsp/widget/wgt_core/UI_Controller.c ****     memset(pushlabel_buff, '\0', 32);
 583:Dsp/widget/wgt_core/UI_Controller.c **** 
 584:Dsp/widget/wgt_core/UI_Controller.c ****     if (Obj == NULL)
 585:Dsp/widget/wgt_core/UI_Controller.c ****         return false;
 586:Dsp/widget/wgt_core/UI_Controller.c **** 
 587:Dsp/widget/wgt_core/UI_Controller.c ****     if (Obj->type == Lock_Btn)
 588:Dsp/widget/wgt_core/UI_Controller.c ****     {
 589:Dsp/widget/wgt_core/UI_Controller.c ****         if (Obj->state == UI_Btn_PushDwn)
 590:Dsp/widget/wgt_core/UI_Controller.c ****         {
 591:Dsp/widget/wgt_core/UI_Controller.c ****             if (Obj->push_callback)
 592:Dsp/widget/wgt_core/UI_Controller.c ****                 Obj->push_callback();
 593:Dsp/widget/wgt_core/UI_Controller.c ****         }
 594:Dsp/widget/wgt_core/UI_Controller.c ****         else if (Obj->state == UI_Btn_RlsUp)
 595:Dsp/widget/wgt_core/UI_Controller.c ****         {
 596:Dsp/widget/wgt_core/UI_Controller.c ****             if (Obj->release_callback)
 597:Dsp/widget/wgt_core/UI_Controller.c ****                 Obj->release_callback();
 598:Dsp/widget/wgt_core/UI_Controller.c ****         }
 599:Dsp/widget/wgt_core/UI_Controller.c ****         else
 600:Dsp/widget/wgt_core/UI_Controller.c ****             return false;
 601:Dsp/widget/wgt_core/UI_Controller.c ****     }
 602:Dsp/widget/wgt_core/UI_Controller.c **** 
 603:Dsp/widget/wgt_core/UI_Controller.c ****     /* display button on screen object */
 604:Dsp/widget/wgt_core/UI_Controller.c ****     /* invert display color when button been push down */
 605:Dsp/widget/wgt_core/UI_Controller.c ****     if ((UI_DspInterface.draw_str != NULL) && (UI_DspInterface.fill_radius_rectangle != NULL) && (U
 606:Dsp/widget/wgt_core/UI_Controller.c ****     {
 607:Dsp/widget/wgt_core/UI_Controller.c ****         if (Obj->state == UI_Btn_PushDwn)
 608:Dsp/widget/wgt_core/UI_Controller.c ****         {
 609:Dsp/widget/wgt_core/UI_Controller.c ****             if (Obj->dsp_type == UI_Button_DefaultFrame)
 610:Dsp/widget/wgt_core/UI_Controller.c ****             {
 611:Dsp/widget/wgt_core/UI_Controller.c ****                 /* fill button frame */
 612:Dsp/widget/wgt_core/UI_Controller.c ****                 UI_DspInterface.fill_radius_rectangle(Obj->Gen_Data.x, Obj->Gen_Data.y, Obj->width,
 613:Dsp/widget/wgt_core/UI_Controller.c ****                 memcpy(pushlabel_buff, Obj->PushDown_Label, strlen(Obj->PushDown_Label));
 614:Dsp/widget/wgt_core/UI_Controller.c ****                 label_dsp_offset = 5;
 615:Dsp/widget/wgt_core/UI_Controller.c ****             }
 616:Dsp/widget/wgt_core/UI_Controller.c ****             else if (Obj->dsp_type == UI_Button_BarcketFrame)
 617:Dsp/widget/wgt_core/UI_Controller.c ****             {
 618:Dsp/widget/wgt_core/UI_Controller.c ****                 strcat(pushlabel_buff, "[");
 619:Dsp/widget/wgt_core/UI_Controller.c ****                 strcat(pushlabel_buff, Obj->PushDown_Label);
 620:Dsp/widget/wgt_core/UI_Controller.c ****                 strcat(pushlabel_buff, "]");
 621:Dsp/widget/wgt_core/UI_Controller.c ****                 label_dsp_offset = 0;
 622:Dsp/widget/wgt_core/UI_Controller.c ****             }
 623:Dsp/widget/wgt_core/UI_Controller.c ****             else
 624:Dsp/widget/wgt_core/UI_Controller.c ****                 return false;
ARM GAS  /var/folders/lx/hc4sn_b53233_zkc9xbbl97r0000gp/T//ccErXOZH.s 			page 25


 625:Dsp/widget/wgt_core/UI_Controller.c **** 
 626:Dsp/widget/wgt_core/UI_Controller.c ****             /* invert string display */
 627:Dsp/widget/wgt_core/UI_Controller.c ****             if (Obj->PushDown_Label != NULL)
 628:Dsp/widget/wgt_core/UI_Controller.c ****                 UI_DspInterface.draw_str(base_font, pushlabel_buff, Obj->Gen_Data.x + label_dsp_off
 629:Dsp/widget/wgt_core/UI_Controller.c ****             // UI_DspInterface.draw_str(base_font, Obj->PushDown_Label, Obj->Gen_Data.x + label_dsp
 630:Dsp/widget/wgt_core/UI_Controller.c ****         }
 631:Dsp/widget/wgt_core/UI_Controller.c ****         else
 632:Dsp/widget/wgt_core/UI_Controller.c ****         {
 633:Dsp/widget/wgt_core/UI_Controller.c ****             if (Obj->dsp_type == UI_Button_DefaultFrame)
 634:Dsp/widget/wgt_core/UI_Controller.c ****             {
 635:Dsp/widget/wgt_core/UI_Controller.c ****                 /* draw button frame */
 636:Dsp/widget/wgt_core/UI_Controller.c ****                 UI_DspInterface.draw_radius_rectangle(Obj->Gen_Data.x, Obj->Gen_Data.y, Obj->width,
 637:Dsp/widget/wgt_core/UI_Controller.c ****                 memcpy(pushlabel_buff, Obj->PushDown_Label, strlen(Obj->PushDown_Label));
 638:Dsp/widget/wgt_core/UI_Controller.c ****                 memcpy(releaselabel_buff, Obj->Release_Label, strlen(Obj->Release_Label));
 639:Dsp/widget/wgt_core/UI_Controller.c ****                 label_dsp_offset = 5;
 640:Dsp/widget/wgt_core/UI_Controller.c ****             }
 641:Dsp/widget/wgt_core/UI_Controller.c ****             else if (Obj->dsp_type == UI_Button_BarcketFrame)
 642:Dsp/widget/wgt_core/UI_Controller.c ****             {
 643:Dsp/widget/wgt_core/UI_Controller.c ****                 strcat(pushlabel_buff, "[");
 644:Dsp/widget/wgt_core/UI_Controller.c ****                 strcat(pushlabel_buff, Obj->PushDown_Label);
 645:Dsp/widget/wgt_core/UI_Controller.c ****                 strcat(pushlabel_buff, "]");
 646:Dsp/widget/wgt_core/UI_Controller.c **** 
 647:Dsp/widget/wgt_core/UI_Controller.c ****                 strcat(releaselabel_buff, "[");
 648:Dsp/widget/wgt_core/UI_Controller.c ****                 strcat(releaselabel_buff, Obj->Release_Label);
 649:Dsp/widget/wgt_core/UI_Controller.c ****                 strcat(releaselabel_buff, "]");
 650:Dsp/widget/wgt_core/UI_Controller.c **** 
 651:Dsp/widget/wgt_core/UI_Controller.c ****                 label_dsp_offset = 0;
 652:Dsp/widget/wgt_core/UI_Controller.c ****             }
 653:Dsp/widget/wgt_core/UI_Controller.c ****             else
 654:Dsp/widget/wgt_core/UI_Controller.c ****                 return false;
 655:Dsp/widget/wgt_core/UI_Controller.c **** 
 656:Dsp/widget/wgt_core/UI_Controller.c ****             if (Obj->type == Lock_Btn)
 657:Dsp/widget/wgt_core/UI_Controller.c ****             {
 658:Dsp/widget/wgt_core/UI_Controller.c ****                 /* display label normally */
 659:Dsp/widget/wgt_core/UI_Controller.c ****                 if (Obj->Release_Label != NULL)
 660:Dsp/widget/wgt_core/UI_Controller.c ****                     // UI_DspInterface.draw_str(base_font, Obj->Release_Label, Obj->Gen_Data.x + la
 661:Dsp/widget/wgt_core/UI_Controller.c ****                     UI_DspInterface.draw_str(base_font, releaselabel_buff, Obj->Gen_Data.x + label_
 662:Dsp/widget/wgt_core/UI_Controller.c ****             }
 663:Dsp/widget/wgt_core/UI_Controller.c ****             else
 664:Dsp/widget/wgt_core/UI_Controller.c ****             {
 665:Dsp/widget/wgt_core/UI_Controller.c ****                 if (Obj->PushDown_Label != NULL)
 666:Dsp/widget/wgt_core/UI_Controller.c ****                     // UI_DspInterface.draw_str(base_font, Obj->PushDown_Label, Obj->Gen_Data.x + l
 667:Dsp/widget/wgt_core/UI_Controller.c ****                     UI_DspInterface.draw_str(base_font, pushlabel_buff, Obj->Gen_Data.x + label_dsp
 668:Dsp/widget/wgt_core/UI_Controller.c ****             }
 669:Dsp/widget/wgt_core/UI_Controller.c ****         }
 670:Dsp/widget/wgt_core/UI_Controller.c **** 
 671:Dsp/widget/wgt_core/UI_Controller.c ****         return true;
 672:Dsp/widget/wgt_core/UI_Controller.c ****     }
 673:Dsp/widget/wgt_core/UI_Controller.c **** 
 674:Dsp/widget/wgt_core/UI_Controller.c ****     return false;
 675:Dsp/widget/wgt_core/UI_Controller.c **** }
 676:Dsp/widget/wgt_core/UI_Controller.c **** 
 677:Dsp/widget/wgt_core/UI_Controller.c **** static bool UI_CheckBox_Init(UI_CheckBoxObj_TypeDef *Obj, char *label, int16_t x, int16_t y, bool s
 678:Dsp/widget/wgt_core/UI_Controller.c **** {
 708              		.loc 1 678 1 is_stmt 1 view -0
 709              		.cfi_startproc
 710              		@ args = 4, pretend = 0, frame = 0
ARM GAS  /var/folders/lx/hc4sn_b53233_zkc9xbbl97r0000gp/T//ccErXOZH.s 			page 26


 711              		@ frame_needed = 0, uses_anonymous_args = 0
 679:Dsp/widget/wgt_core/UI_Controller.c ****     if (Obj == NULL)
 712              		.loc 1 679 5 view .LVU201
 713              		.loc 1 679 8 is_stmt 0 view .LVU202
 714 0000 68B1     		cbz	r0, .L70
 678:Dsp/widget/wgt_core/UI_Controller.c ****     if (Obj == NULL)
 715              		.loc 1 678 1 view .LVU203
 716 0002 10B5     		push	{r4, lr}
 717              	.LCFI10:
 718              		.cfi_def_cfa_offset 8
 719              		.cfi_offset 4, -8
 720              		.cfi_offset 14, -4
 721 0004 0446     		mov	r4, r0
 680:Dsp/widget/wgt_core/UI_Controller.c ****         return false;
 681:Dsp/widget/wgt_core/UI_Controller.c **** 
 682:Dsp/widget/wgt_core/UI_Controller.c ****     UI_GenData_Init(&Obj->Gen_Data, label, x, y);
 722              		.loc 1 682 5 is_stmt 1 view .LVU204
 723 0006 FFF7FEFF 		bl	UI_GenData_Init
 724              	.LVL69:
 683:Dsp/widget/wgt_core/UI_Controller.c **** 
 684:Dsp/widget/wgt_core/UI_Controller.c ****     Obj->checked = state;
 725              		.loc 1 684 5 view .LVU205
 726              		.loc 1 684 18 is_stmt 0 view .LVU206
 727 000a 9DF80830 		ldrb	r3, [sp, #8]	@ zero_extendqisi2
 728 000e 2374     		strb	r3, [r4, #16]
 685:Dsp/widget/wgt_core/UI_Controller.c ****     Obj->callback = NULL;
 729              		.loc 1 685 5 is_stmt 1 view .LVU207
 730              		.loc 1 685 19 is_stmt 0 view .LVU208
 731 0010 0023     		movs	r3, #0
 732 0012 2373     		strb	r3, [r4, #12]
 733 0014 6373     		strb	r3, [r4, #13]
 734 0016 A373     		strb	r3, [r4, #14]
 735 0018 E373     		strb	r3, [r4, #15]
 686:Dsp/widget/wgt_core/UI_Controller.c **** 
 687:Dsp/widget/wgt_core/UI_Controller.c ****     return true;
 736              		.loc 1 687 5 is_stmt 1 view .LVU209
 737              		.loc 1 687 12 is_stmt 0 view .LVU210
 738 001a 0120     		movs	r0, #1
 688:Dsp/widget/wgt_core/UI_Controller.c **** }
 739              		.loc 1 688 1 view .LVU211
 740 001c 10BD     		pop	{r4, pc}
 741              	.LVL70:
 742              	.L70:
 743              	.LCFI11:
 744              		.cfi_def_cfa_offset 0
 745              		.cfi_restore 4
 746              		.cfi_restore 14
 680:Dsp/widget/wgt_core/UI_Controller.c **** 
 747              		.loc 1 680 16 view .LVU212
 748 001e 0020     		movs	r0, #0
 749              	.LVL71:
 750              		.loc 1 688 1 view .LVU213
 751 0020 7047     		bx	lr
 752              		.cfi_endproc
 753              	.LFE19:
 755              		.section	.text.UI_CheckBox_SetCallback,"ax",%progbits
 756              		.align	1
ARM GAS  /var/folders/lx/hc4sn_b53233_zkc9xbbl97r0000gp/T//ccErXOZH.s 			page 27


 757              		.syntax unified
 758              		.thumb
 759              		.thumb_func
 760              		.fpu fpv4-sp-d16
 762              	UI_CheckBox_SetCallback:
 763              	.LVL72:
 764              	.LFB20:
 689:Dsp/widget/wgt_core/UI_Controller.c **** 
 690:Dsp/widget/wgt_core/UI_Controller.c **** static bool UI_CheckBox_SetCallback(UI_CheckBoxObj_TypeDef *Obj, UI_CheckBoxTrigger_Callback callba
 691:Dsp/widget/wgt_core/UI_Controller.c **** {
 765              		.loc 1 691 1 is_stmt 1 view -0
 766              		.cfi_startproc
 767              		@ args = 0, pretend = 0, frame = 0
 768              		@ frame_needed = 0, uses_anonymous_args = 0
 769              		@ link register save eliminated.
 692:Dsp/widget/wgt_core/UI_Controller.c ****     if (Obj == NULL)
 770              		.loc 1 692 5 view .LVU215
 771              		.loc 1 692 8 is_stmt 0 view .LVU216
 772 0000 10B1     		cbz	r0, .L77
 693:Dsp/widget/wgt_core/UI_Controller.c ****         return false;
 694:Dsp/widget/wgt_core/UI_Controller.c **** 
 695:Dsp/widget/wgt_core/UI_Controller.c ****     Obj->callback = callback;
 773              		.loc 1 695 5 is_stmt 1 view .LVU217
 774              		.loc 1 695 19 is_stmt 0 view .LVU218
 775 0002 C160     		str	r1, [r0, #12]	@ unaligned
 696:Dsp/widget/wgt_core/UI_Controller.c **** 
 697:Dsp/widget/wgt_core/UI_Controller.c ****     return true;
 776              		.loc 1 697 5 is_stmt 1 view .LVU219
 777              		.loc 1 697 12 is_stmt 0 view .LVU220
 778 0004 0120     		movs	r0, #1
 779              	.LVL73:
 780              		.loc 1 697 12 view .LVU221
 781 0006 7047     		bx	lr
 782              	.LVL74:
 783              	.L77:
 693:Dsp/widget/wgt_core/UI_Controller.c ****         return false;
 784              		.loc 1 693 16 view .LVU222
 785 0008 0020     		movs	r0, #0
 786              	.LVL75:
 698:Dsp/widget/wgt_core/UI_Controller.c **** }
 787              		.loc 1 698 1 view .LVU223
 788 000a 7047     		bx	lr
 789              		.cfi_endproc
 790              	.LFE20:
 792              		.section	.text.UI_CheckBox_Move,"ax",%progbits
 793              		.align	1
 794              		.syntax unified
 795              		.thumb
 796              		.thumb_func
 797              		.fpu fpv4-sp-d16
 799              	UI_CheckBox_Move:
 800              	.LVL76:
 801              	.LFB21:
 699:Dsp/widget/wgt_core/UI_Controller.c **** 
 700:Dsp/widget/wgt_core/UI_Controller.c **** static bool UI_CheckBox_Move(UI_CheckBoxObj_TypeDef *Obj, int16_t x, int16_t y)
 701:Dsp/widget/wgt_core/UI_Controller.c **** {
 802              		.loc 1 701 1 is_stmt 1 view -0
ARM GAS  /var/folders/lx/hc4sn_b53233_zkc9xbbl97r0000gp/T//ccErXOZH.s 			page 28


 803              		.cfi_startproc
 804              		@ args = 0, pretend = 0, frame = 0
 805              		@ frame_needed = 0, uses_anonymous_args = 0
 702:Dsp/widget/wgt_core/UI_Controller.c ****     if (Obj == NULL)
 806              		.loc 1 702 5 view .LVU225
 807              		.loc 1 702 8 is_stmt 0 view .LVU226
 808 0000 18B1     		cbz	r0, .L80
 701:Dsp/widget/wgt_core/UI_Controller.c ****     if (Obj == NULL)
 809              		.loc 1 701 1 view .LVU227
 810 0002 08B5     		push	{r3, lr}
 811              	.LCFI12:
 812              		.cfi_def_cfa_offset 8
 813              		.cfi_offset 3, -8
 814              		.cfi_offset 14, -4
 703:Dsp/widget/wgt_core/UI_Controller.c ****         return false;
 704:Dsp/widget/wgt_core/UI_Controller.c **** 
 705:Dsp/widget/wgt_core/UI_Controller.c ****     return UI_Move(&(Obj->Gen_Data), x, y);
 815              		.loc 1 705 5 is_stmt 1 view .LVU228
 816              		.loc 1 705 12 is_stmt 0 view .LVU229
 817 0004 FFF7FEFF 		bl	UI_Move
 818              	.LVL77:
 706:Dsp/widget/wgt_core/UI_Controller.c **** }
 819              		.loc 1 706 1 view .LVU230
 820 0008 08BD     		pop	{r3, pc}
 821              	.LVL78:
 822              	.L80:
 823              	.LCFI13:
 824              		.cfi_def_cfa_offset 0
 825              		.cfi_restore 3
 826              		.cfi_restore 14
 703:Dsp/widget/wgt_core/UI_Controller.c ****         return false;
 827              		.loc 1 703 16 view .LVU231
 828 000a 0020     		movs	r0, #0
 829              	.LVL79:
 830              		.loc 1 706 1 view .LVU232
 831 000c 7047     		bx	lr
 832              		.cfi_endproc
 833              	.LFE21:
 835              		.section	.text.UI_CheckBox_Trigger,"ax",%progbits
 836              		.align	1
 837              		.syntax unified
 838              		.thumb
 839              		.thumb_func
 840              		.fpu fpv4-sp-d16
 842              	UI_CheckBox_Trigger:
 843              	.LVL80:
 844              	.LFB22:
 707:Dsp/widget/wgt_core/UI_Controller.c **** 
 708:Dsp/widget/wgt_core/UI_Controller.c **** static bool UI_CheckBox_Trigger(UI_CheckBoxObj_TypeDef *Obj)
 709:Dsp/widget/wgt_core/UI_Controller.c **** {
 845              		.loc 1 709 1 is_stmt 1 view -0
 846              		.cfi_startproc
 847              		@ args = 0, pretend = 0, frame = 0
 848              		@ frame_needed = 0, uses_anonymous_args = 0
 710:Dsp/widget/wgt_core/UI_Controller.c ****     if (Obj == NULL)
 849              		.loc 1 710 5 view .LVU234
 850              		.loc 1 710 8 is_stmt 0 view .LVU235
ARM GAS  /var/folders/lx/hc4sn_b53233_zkc9xbbl97r0000gp/T//ccErXOZH.s 			page 29


 851 0000 50B1     		cbz	r0, .L87
 709:Dsp/widget/wgt_core/UI_Controller.c ****     if (Obj == NULL)
 852              		.loc 1 709 1 view .LVU236
 853 0002 08B5     		push	{r3, lr}
 854              	.LCFI14:
 855              		.cfi_def_cfa_offset 8
 856              		.cfi_offset 3, -8
 857              		.cfi_offset 14, -4
 858 0004 0346     		mov	r3, r0
 711:Dsp/widget/wgt_core/UI_Controller.c ****         return false;
 712:Dsp/widget/wgt_core/UI_Controller.c **** 
 713:Dsp/widget/wgt_core/UI_Controller.c ****     Obj->checked = !Obj->checked;
 859              		.loc 1 713 5 is_stmt 1 view .LVU237
 860              		.loc 1 713 24 is_stmt 0 view .LVU238
 861 0006 007C     		ldrb	r0, [r0, #16]	@ zero_extendqisi2
 862              	.LVL81:
 863              		.loc 1 713 5 view .LVU239
 864 0008 80F00100 		eor	r0, r0, #1
 865              		.loc 1 713 18 view .LVU240
 866 000c 1874     		strb	r0, [r3, #16]
 714:Dsp/widget/wgt_core/UI_Controller.c **** 
 715:Dsp/widget/wgt_core/UI_Controller.c ****     if (Obj->callback)
 867              		.loc 1 715 5 is_stmt 1 view .LVU241
 868              		.loc 1 715 12 is_stmt 0 view .LVU242
 869 000e DB68     		ldr	r3, [r3, #12]	@ unaligned
 870              	.LVL82:
 871              		.loc 1 715 8 view .LVU243
 872 0010 23B1     		cbz	r3, .L88
 716:Dsp/widget/wgt_core/UI_Controller.c ****         Obj->callback(Obj->checked);
 873              		.loc 1 716 9 is_stmt 1 view .LVU244
 874 0012 9847     		blx	r3
 875              	.LVL83:
 717:Dsp/widget/wgt_core/UI_Controller.c **** 
 718:Dsp/widget/wgt_core/UI_Controller.c ****     return true;
 876              		.loc 1 718 12 is_stmt 0 view .LVU245
 877 0014 0120     		movs	r0, #1
 878              	.L86:
 719:Dsp/widget/wgt_core/UI_Controller.c **** }
 879              		.loc 1 719 1 view .LVU246
 880 0016 08BD     		pop	{r3, pc}
 881              	.LVL84:
 882              	.L87:
 883              	.LCFI15:
 884              		.cfi_def_cfa_offset 0
 885              		.cfi_restore 3
 886              		.cfi_restore 14
 711:Dsp/widget/wgt_core/UI_Controller.c **** 
 887              		.loc 1 711 16 view .LVU247
 888 0018 0020     		movs	r0, #0
 889              	.LVL85:
 890              		.loc 1 719 1 view .LVU248
 891 001a 7047     		bx	lr
 892              	.L88:
 893              	.LCFI16:
 894              		.cfi_def_cfa_offset 8
 895              		.cfi_offset 3, -8
 896              		.cfi_offset 14, -4
ARM GAS  /var/folders/lx/hc4sn_b53233_zkc9xbbl97r0000gp/T//ccErXOZH.s 			page 30


 718:Dsp/widget/wgt_core/UI_Controller.c **** }
 897              		.loc 1 718 12 view .LVU249
 898 001c 0120     		movs	r0, #1
 899 001e FAE7     		b	.L86
 900              		.cfi_endproc
 901              	.LFE22:
 903              		.section	.text.UI_SlideBar_Init,"ax",%progbits
 904              		.align	1
 905              		.syntax unified
 906              		.thumb
 907              		.thumb_func
 908              		.fpu fpv4-sp-d16
 910              	UI_SlideBar_Init:
 911              	.LVL86:
 912              	.LFB24:
 720:Dsp/widget/wgt_core/UI_Controller.c **** 
 721:Dsp/widget/wgt_core/UI_Controller.c **** static bool UI_CheckBox_Ctl(UI_CheckBoxObj_TypeDef *Obj)
 722:Dsp/widget/wgt_core/UI_Controller.c **** {
 723:Dsp/widget/wgt_core/UI_Controller.c ****     int16_t frame_x = 0;
 724:Dsp/widget/wgt_core/UI_Controller.c ****     int16_t frame_y = 0;
 725:Dsp/widget/wgt_core/UI_Controller.c ****     int16_t str_x = 0;
 726:Dsp/widget/wgt_core/UI_Controller.c ****     int16_t str_y = 0;
 727:Dsp/widget/wgt_core/UI_Controller.c **** 
 728:Dsp/widget/wgt_core/UI_Controller.c ****     if ((Obj == NULL) ||
 729:Dsp/widget/wgt_core/UI_Controller.c ****         (UI_DspInterface.draw_str == NULL) ||
 730:Dsp/widget/wgt_core/UI_Controller.c ****         (UI_DspInterface.fill_rectangle == NULL) ||
 731:Dsp/widget/wgt_core/UI_Controller.c ****         (UI_DspInterface.draw_rectangle == NULL))
 732:Dsp/widget/wgt_core/UI_Controller.c ****         return false;
 733:Dsp/widget/wgt_core/UI_Controller.c **** 
 734:Dsp/widget/wgt_core/UI_Controller.c ****     frame_x = strlen(Obj->Gen_Data.label) * STR_DIS;
 735:Dsp/widget/wgt_core/UI_Controller.c ****     frame_y = Obj->Gen_Data.y + 2;
 736:Dsp/widget/wgt_core/UI_Controller.c ****     frame_x += DEFAULT_CHECKBOX_OFFSET;
 737:Dsp/widget/wgt_core/UI_Controller.c **** 
 738:Dsp/widget/wgt_core/UI_Controller.c ****     str_x = Obj->Gen_Data.x + 3;
 739:Dsp/widget/wgt_core/UI_Controller.c ****     str_y = Obj->Gen_Data.y;
 740:Dsp/widget/wgt_core/UI_Controller.c **** 
 741:Dsp/widget/wgt_core/UI_Controller.c ****     if (base_font == Font_8)
 742:Dsp/widget/wgt_core/UI_Controller.c ****         str_y += 1;
 743:Dsp/widget/wgt_core/UI_Controller.c **** 
 744:Dsp/widget/wgt_core/UI_Controller.c ****     UI_DspInterface.draw_str(base_font, Obj->Gen_Data.label, str_x, str_y, true);
 745:Dsp/widget/wgt_core/UI_Controller.c ****     UI_DspInterface.draw_rectangle(frame_x, frame_y, DEFAULT_CHECKBOX_FRAME_SIZE, DEFAULT_CHECKBOX_
 746:Dsp/widget/wgt_core/UI_Controller.c **** 
 747:Dsp/widget/wgt_core/UI_Controller.c ****     if (Obj->checked)
 748:Dsp/widget/wgt_core/UI_Controller.c ****         UI_DspInterface.fill_rectangle(frame_x + 2, frame_y + 2, DEFAULT_CHECKBOX_FILLFRAME, DEFAUL
 749:Dsp/widget/wgt_core/UI_Controller.c **** 
 750:Dsp/widget/wgt_core/UI_Controller.c ****     return true;
 751:Dsp/widget/wgt_core/UI_Controller.c **** }
 752:Dsp/widget/wgt_core/UI_Controller.c **** 
 753:Dsp/widget/wgt_core/UI_Controller.c **** static bool UI_SlideBar_Init(UI_SlideBarObj_TypeDef *Obj, UI_SliderBar_Mode_List mode, char *label,
 754:Dsp/widget/wgt_core/UI_Controller.c **** {
 913              		.loc 1 754 1 is_stmt 1 view -0
 914              		.cfi_startproc
 915              		@ args = 20, pretend = 0, frame = 0
 916              		@ frame_needed = 0, uses_anonymous_args = 0
 917              		.loc 1 754 1 is_stmt 0 view .LVU251
 918 0000 2DE9F843 		push	{r3, r4, r5, r6, r7, r8, r9, lr}
 919              	.LCFI17:
ARM GAS  /var/folders/lx/hc4sn_b53233_zkc9xbbl97r0000gp/T//ccErXOZH.s 			page 31


 920              		.cfi_def_cfa_offset 32
 921              		.cfi_offset 3, -32
 922              		.cfi_offset 4, -28
 923              		.cfi_offset 5, -24
 924              		.cfi_offset 6, -20
 925              		.cfi_offset 7, -16
 926              		.cfi_offset 8, -12
 927              		.cfi_offset 9, -8
 928              		.cfi_offset 14, -4
 929 0004 BDF92440 		ldrsh	r4, [sp, #36]
 930 0008 BDF92850 		ldrsh	r5, [sp, #40]
 931 000c BDF92C60 		ldrsh	r6, [sp, #44]
 932 0010 BDF93080 		ldrsh	r8, [sp, #48]
 755:Dsp/widget/wgt_core/UI_Controller.c ****     if ((Obj == NULL) ||
 933              		.loc 1 755 5 is_stmt 1 view .LVU252
 934              		.loc 1 755 8 is_stmt 0 view .LVU253
 935 0014 0028     		cmp	r0, #0
 936 0016 49D0     		beq	.L95
 937 0018 9446     		mov	ip, r2
 938 001a 1A46     		mov	r2, r3
 939              	.LVL87:
 940              		.loc 1 755 8 view .LVU254
 941 001c 0746     		mov	r7, r0
 942              		.loc 1 755 23 discriminator 1 view .LVU255
 943 001e AC42     		cmp	r4, r5
 944 0020 46DD     		ble	.L96
 756:Dsp/widget/wgt_core/UI_Controller.c ****         (limit_max <= limit_min) ||
 945              		.loc 1 756 34 view .LVU256
 946 0022 B542     		cmp	r5, r6
 947 0024 47DC     		bgt	.L97
 757:Dsp/widget/wgt_core/UI_Controller.c ****         (start_val < limit_min) ||
 948              		.loc 1 757 33 view .LVU257
 949 0026 B442     		cmp	r4, r6
 950 0028 47DB     		blt	.L98
 758:Dsp/widget/wgt_core/UI_Controller.c ****         (start_val > limit_max) ||
 951              		.loc 1 758 33 view .LVU258
 952 002a 0129     		cmp	r1, #1
 953 002c 01D9     		bls	.L101
 759:Dsp/widget/wgt_core/UI_Controller.c ****         (mode > SliderBar_Vertical_Mode))
 760:Dsp/widget/wgt_core/UI_Controller.c ****         return false;
 954              		.loc 1 760 16 view .LVU259
 955 002e 0020     		movs	r0, #0
 956              	.LVL88:
 957              		.loc 1 760 16 view .LVU260
 958 0030 3FE0     		b	.L94
 959              	.LVL89:
 960              	.L101:
 761:Dsp/widget/wgt_core/UI_Controller.c **** 
 762:Dsp/widget/wgt_core/UI_Controller.c ****     Obj->mode = mode;
 961              		.loc 1 762 5 is_stmt 1 view .LVU261
 962              		.loc 1 762 15 is_stmt 0 view .LVU262
 963 0032 0173     		strb	r1, [r0, #12]
 763:Dsp/widget/wgt_core/UI_Controller.c ****     Obj->is_selected = false;
 964              		.loc 1 763 5 is_stmt 1 view .LVU263
 965              		.loc 1 763 22 is_stmt 0 view .LVU264
 966 0034 4FF00009 		mov	r9, #0
 967 0038 80F82390 		strb	r9, [r0, #35]
ARM GAS  /var/folders/lx/hc4sn_b53233_zkc9xbbl97r0000gp/T//ccErXOZH.s 			page 32


 764:Dsp/widget/wgt_core/UI_Controller.c **** 
 765:Dsp/widget/wgt_core/UI_Controller.c ****     UI_GenData_Init(&(Obj->Gen_Data), label, x, y);
 968              		.loc 1 765 5 is_stmt 1 view .LVU265
 969 003c BDF92030 		ldrsh	r3, [sp, #32]
 970              	.LVL90:
 971              		.loc 1 765 5 is_stmt 0 view .LVU266
 972 0040 6146     		mov	r1, ip
 973              	.LVL91:
 974              		.loc 1 765 5 view .LVU267
 975 0042 FFF7FEFF 		bl	UI_GenData_Init
 976              	.LVL92:
 766:Dsp/widget/wgt_core/UI_Controller.c **** 
 767:Dsp/widget/wgt_core/UI_Controller.c ****     Obj->limit_max = limit_max;
 977              		.loc 1 767 5 is_stmt 1 view .LVU268
 978              		.loc 1 767 20 is_stmt 0 view .LVU269
 979 0046 07EE904A 		vmov	s15, r4	@ int
 980 004a F8EEE77A 		vcvt.f32.s32	s15, s15
 981 004e 17EE903A 		vmov	r3, s15
 982 0052 C7F81530 		str	r3, [r7, #21]	@ unaligned
 768:Dsp/widget/wgt_core/UI_Controller.c ****     Obj->limit_min = limit_min;
 983              		.loc 1 768 5 is_stmt 1 view .LVU270
 984              		.loc 1 768 20 is_stmt 0 view .LVU271
 985 0056 07EE905A 		vmov	s15, r5	@ int
 986 005a F8EEE77A 		vcvt.f32.s32	s15, s15
 987 005e 17EE903A 		vmov	r3, s15
 988 0062 C7F81130 		str	r3, [r7, #17]	@ unaligned
 769:Dsp/widget/wgt_core/UI_Controller.c **** 
 770:Dsp/widget/wgt_core/UI_Controller.c ****     Obj->step_len = step_len;
 989              		.loc 1 770 5 is_stmt 1 view .LVU272
 990              		.loc 1 770 19 is_stmt 0 view .LVU273
 991 0066 A7F81D80 		strh	r8, [r7, #29]	@ unaligned
 771:Dsp/widget/wgt_core/UI_Controller.c ****     Obj->scale = (limit_max - limit_min) / (float)step_len;
 992              		.loc 1 771 5 is_stmt 1 view .LVU274
 993              		.loc 1 771 29 is_stmt 0 view .LVU275
 994 006a 641B     		subs	r4, r4, r5
 995              		.loc 1 771 44 view .LVU276
 996 006c 07EE908A 		vmov	s15, r8	@ int
 997 0070 B8EEE77A 		vcvt.f32.s32	s14, s15
 998              		.loc 1 771 42 view .LVU277
 999 0074 07EE904A 		vmov	s15, r4	@ int
 1000 0078 F8EEE77A 		vcvt.f32.s32	s15, s15
 1001              		.loc 1 771 16 view .LVU278
 1002 007c C7EE877A 		vdiv.f32	s15, s15, s14
 1003 0080 17EE903A 		vmov	r3, s15
 1004 0084 C7F81930 		str	r3, [r7, #25]	@ unaligned
 772:Dsp/widget/wgt_core/UI_Controller.c ****     Obj->cur_val = start_val;
 1005              		.loc 1 772 5 is_stmt 1 view .LVU279
 1006              		.loc 1 772 18 is_stmt 0 view .LVU280
 1007 0088 07EE906A 		vmov	s15, r6	@ int
 1008 008c F8EEE77A 		vcvt.f32.s32	s15, s15
 1009 0090 17EE906A 		vmov	r6, s15
 1010 0094 C7F81F60 		str	r6, [r7, #31]	@ unaligned
 773:Dsp/widget/wgt_core/UI_Controller.c **** 
 774:Dsp/widget/wgt_core/UI_Controller.c ****     Obj->BarCoord_X = 0;
 1011              		.loc 1 774 5 is_stmt 1 view .LVU281
 1012              		.loc 1 774 21 is_stmt 0 view .LVU282
 1013 0098 87F82490 		strb	r9, [r7, #36]
ARM GAS  /var/folders/lx/hc4sn_b53233_zkc9xbbl97r0000gp/T//ccErXOZH.s 			page 33


 1014 009c 87F82590 		strb	r9, [r7, #37]
 775:Dsp/widget/wgt_core/UI_Controller.c ****     Obj->BarCoord_Y = 0;
 1015              		.loc 1 775 5 is_stmt 1 view .LVU283
 1016              		.loc 1 775 21 is_stmt 0 view .LVU284
 1017 00a0 87F82690 		strb	r9, [r7, #38]
 1018 00a4 87F82790 		strb	r9, [r7, #39]
 776:Dsp/widget/wgt_core/UI_Controller.c **** 
 777:Dsp/widget/wgt_core/UI_Controller.c ****     return true;
 1019              		.loc 1 777 5 is_stmt 1 view .LVU285
 1020              		.loc 1 777 12 is_stmt 0 view .LVU286
 1021 00a8 0120     		movs	r0, #1
 1022 00aa 02E0     		b	.L94
 1023              	.LVL93:
 1024              	.L95:
 760:Dsp/widget/wgt_core/UI_Controller.c **** 
 1025              		.loc 1 760 16 view .LVU287
 1026 00ac 0020     		movs	r0, #0
 1027              	.LVL94:
 760:Dsp/widget/wgt_core/UI_Controller.c **** 
 1028              		.loc 1 760 16 view .LVU288
 1029 00ae 00E0     		b	.L94
 1030              	.LVL95:
 1031              	.L96:
 760:Dsp/widget/wgt_core/UI_Controller.c **** 
 1032              		.loc 1 760 16 view .LVU289
 1033 00b0 0020     		movs	r0, #0
 1034              	.LVL96:
 1035              	.L94:
 778:Dsp/widget/wgt_core/UI_Controller.c **** }
 1036              		.loc 1 778 1 view .LVU290
 1037 00b2 BDE8F883 		pop	{r3, r4, r5, r6, r7, r8, r9, pc}
 1038              	.LVL97:
 1039              	.L97:
 760:Dsp/widget/wgt_core/UI_Controller.c **** 
 1040              		.loc 1 760 16 view .LVU291
 1041 00b6 0020     		movs	r0, #0
 1042              	.LVL98:
 760:Dsp/widget/wgt_core/UI_Controller.c **** 
 1043              		.loc 1 760 16 view .LVU292
 1044 00b8 FBE7     		b	.L94
 1045              	.LVL99:
 1046              	.L98:
 760:Dsp/widget/wgt_core/UI_Controller.c **** 
 1047              		.loc 1 760 16 view .LVU293
 1048 00ba 0020     		movs	r0, #0
 1049              	.LVL100:
 760:Dsp/widget/wgt_core/UI_Controller.c **** 
 1050              		.loc 1 760 16 view .LVU294
 1051 00bc F9E7     		b	.L94
 1052              		.cfi_endproc
 1053              	.LFE24:
 1055              		.section	.text.UI_SlideBar_Move,"ax",%progbits
 1056              		.align	1
 1057              		.syntax unified
 1058              		.thumb
 1059              		.thumb_func
 1060              		.fpu fpv4-sp-d16
ARM GAS  /var/folders/lx/hc4sn_b53233_zkc9xbbl97r0000gp/T//ccErXOZH.s 			page 34


 1062              	UI_SlideBar_Move:
 1063              	.LVL101:
 1064              	.LFB25:
 779:Dsp/widget/wgt_core/UI_Controller.c **** 
 780:Dsp/widget/wgt_core/UI_Controller.c **** static bool UI_SlideBar_Move(UI_SlideBarObj_TypeDef *Obj, int16_t x, int16_t y)
 781:Dsp/widget/wgt_core/UI_Controller.c **** {
 1065              		.loc 1 781 1 is_stmt 1 view -0
 1066              		.cfi_startproc
 1067              		@ args = 0, pretend = 0, frame = 0
 1068              		@ frame_needed = 0, uses_anonymous_args = 0
 782:Dsp/widget/wgt_core/UI_Controller.c ****     if (Obj == NULL)
 1069              		.loc 1 782 5 view .LVU296
 1070              		.loc 1 782 8 is_stmt 0 view .LVU297
 1071 0000 18B1     		cbz	r0, .L104
 781:Dsp/widget/wgt_core/UI_Controller.c ****     if (Obj == NULL)
 1072              		.loc 1 781 1 view .LVU298
 1073 0002 08B5     		push	{r3, lr}
 1074              	.LCFI18:
 1075              		.cfi_def_cfa_offset 8
 1076              		.cfi_offset 3, -8
 1077              		.cfi_offset 14, -4
 783:Dsp/widget/wgt_core/UI_Controller.c ****         return false;
 784:Dsp/widget/wgt_core/UI_Controller.c **** 
 785:Dsp/widget/wgt_core/UI_Controller.c ****     return UI_Move(&(Obj->Gen_Data), x, y);
 1078              		.loc 1 785 5 is_stmt 1 view .LVU299
 1079              		.loc 1 785 12 is_stmt 0 view .LVU300
 1080 0004 FFF7FEFF 		bl	UI_Move
 1081              	.LVL102:
 786:Dsp/widget/wgt_core/UI_Controller.c **** }
 1082              		.loc 1 786 1 view .LVU301
 1083 0008 08BD     		pop	{r3, pc}
 1084              	.LVL103:
 1085              	.L104:
 1086              	.LCFI19:
 1087              		.cfi_def_cfa_offset 0
 1088              		.cfi_restore 3
 1089              		.cfi_restore 14
 783:Dsp/widget/wgt_core/UI_Controller.c ****         return false;
 1090              		.loc 1 783 16 view .LVU302
 1091 000a 0020     		movs	r0, #0
 1092              	.LVL104:
 1093              		.loc 1 786 1 view .LVU303
 1094 000c 7047     		bx	lr
 1095              		.cfi_endproc
 1096              	.LFE25:
 1098              		.section	.text.UI_SlideBar_SetCallBack,"ax",%progbits
 1099              		.align	1
 1100              		.syntax unified
 1101              		.thumb
 1102              		.thumb_func
 1103              		.fpu fpv4-sp-d16
 1105              	UI_SlideBar_SetCallBack:
 1106              	.LVL105:
 1107              	.LFB26:
 787:Dsp/widget/wgt_core/UI_Controller.c **** 
 788:Dsp/widget/wgt_core/UI_Controller.c **** static bool UI_SlideBar_SetCallBack(UI_SlideBarObj_TypeDef *Obj, UI_SliderBarTrigger_Callback callb
 789:Dsp/widget/wgt_core/UI_Controller.c **** {
ARM GAS  /var/folders/lx/hc4sn_b53233_zkc9xbbl97r0000gp/T//ccErXOZH.s 			page 35


 1108              		.loc 1 789 1 is_stmt 1 view -0
 1109              		.cfi_startproc
 1110              		@ args = 0, pretend = 0, frame = 0
 1111              		@ frame_needed = 0, uses_anonymous_args = 0
 1112              		@ link register save eliminated.
 790:Dsp/widget/wgt_core/UI_Controller.c ****     if (Obj == NULL)
 1113              		.loc 1 790 5 view .LVU305
 1114              		.loc 1 790 8 is_stmt 0 view .LVU306
 1115 0000 18B1     		cbz	r0, .L111
 791:Dsp/widget/wgt_core/UI_Controller.c ****         return false;
 792:Dsp/widget/wgt_core/UI_Controller.c **** 
 793:Dsp/widget/wgt_core/UI_Controller.c ****     Obj->callback = callback;
 1116              		.loc 1 793 5 is_stmt 1 view .LVU307
 1117              		.loc 1 793 19 is_stmt 0 view .LVU308
 1118 0002 C0F80D10 		str	r1, [r0, #13]	@ unaligned
 794:Dsp/widget/wgt_core/UI_Controller.c **** 
 795:Dsp/widget/wgt_core/UI_Controller.c ****     return true;
 1119              		.loc 1 795 5 is_stmt 1 view .LVU309
 1120              		.loc 1 795 12 is_stmt 0 view .LVU310
 1121 0006 0120     		movs	r0, #1
 1122              	.LVL106:
 1123              		.loc 1 795 12 view .LVU311
 1124 0008 7047     		bx	lr
 1125              	.LVL107:
 1126              	.L111:
 791:Dsp/widget/wgt_core/UI_Controller.c ****         return false;
 1127              		.loc 1 791 16 view .LVU312
 1128 000a 0020     		movs	r0, #0
 1129              	.LVL108:
 796:Dsp/widget/wgt_core/UI_Controller.c **** }
 1130              		.loc 1 796 1 view .LVU313
 1131 000c 7047     		bx	lr
 1132              		.cfi_endproc
 1133              	.LFE26:
 1135              		.section	.text.UI_SlideBar_Input,"ax",%progbits
 1136              		.align	1
 1137              		.syntax unified
 1138              		.thumb
 1139              		.thumb_func
 1140              		.fpu fpv4-sp-d16
 1142              	UI_SlideBar_Input:
 1143              	.LVL109:
 1144              	.LFB27:
 797:Dsp/widget/wgt_core/UI_Controller.c **** 
 798:Dsp/widget/wgt_core/UI_Controller.c **** static bool UI_SlideBar_Input(UI_SlideBarObj_TypeDef *Obj, int16_t *step)
 799:Dsp/widget/wgt_core/UI_Controller.c **** {
 1145              		.loc 1 799 1 is_stmt 1 view -0
 1146              		.cfi_startproc
 1147              		@ args = 0, pretend = 0, frame = 0
 1148              		@ frame_needed = 0, uses_anonymous_args = 0
 1149              		@ link register save eliminated.
 800:Dsp/widget/wgt_core/UI_Controller.c ****     float val_tmp = 0;
 1150              		.loc 1 800 5 view .LVU315
 801:Dsp/widget/wgt_core/UI_Controller.c **** 
 802:Dsp/widget/wgt_core/UI_Controller.c ****     if ((Obj == NULL) || (step == NULL))
 1151              		.loc 1 802 5 view .LVU316
 1152              		.loc 1 802 8 is_stmt 0 view .LVU317
ARM GAS  /var/folders/lx/hc4sn_b53233_zkc9xbbl97r0000gp/T//ccErXOZH.s 			page 36


 1153 0000 0346     		mov	r3, r0
 1154 0002 90B3     		cbz	r0, .L119
 1155              		.loc 1 802 23 discriminator 1 view .LVU318
 1156 0004 99B3     		cbz	r1, .L120
 803:Dsp/widget/wgt_core/UI_Controller.c ****         return false;
 804:Dsp/widget/wgt_core/UI_Controller.c **** 
 805:Dsp/widget/wgt_core/UI_Controller.c ****     val_tmp = Obj->cur_val + ((*step) * Obj->scale);
 1157              		.loc 1 805 5 is_stmt 1 view .LVU319
 1158              		.loc 1 805 18 is_stmt 0 view .LVU320
 1159 0006 D0F81F20 		ldr	r2, [r0, #31]	@ unaligned
 1160              		.loc 1 805 32 view .LVU321
 1161 000a B1F90000 		ldrsh	r0, [r1]
 1162              	.LVL110:
 1163              		.loc 1 805 32 view .LVU322
 1164 000e 07EE900A 		vmov	s15, r0	@ int
 1165              		.loc 1 805 44 view .LVU323
 1166 0012 D3F81900 		ldr	r0, [r3, #25]	@ unaligned
 1167              		.loc 1 805 39 view .LVU324
 1168 0016 B8EEE77A 		vcvt.f32.s32	s14, s15
 1169 001a 07EE900A 		vmov	s15, r0
 1170 001e 67EE277A 		vmul.f32	s15, s14, s15
 1171              		.loc 1 805 13 view .LVU325
 1172 0022 07EE102A 		vmov	s14, r2
 1173 0026 77EE277A 		vadd.f32	s15, s14, s15
 1174              	.LVL111:
 806:Dsp/widget/wgt_core/UI_Controller.c **** 
 807:Dsp/widget/wgt_core/UI_Controller.c ****     if (val_tmp >= Obj->limit_max)
 1175              		.loc 1 807 5 is_stmt 1 view .LVU326
 1176              		.loc 1 807 23 is_stmt 0 view .LVU327
 1177 002a D3F81520 		ldr	r2, [r3, #21]	@ unaligned
 1178              		.loc 1 807 8 view .LVU328
 1179 002e 07EE102A 		vmov	s14, r2
 1180 0032 B4EEE77A 		vcmpe.f32	s14, s15
 1181 0036 F1EE10FA 		vmrs	APSR_nzcv, FPSCR
 1182 003a 05D8     		bhi	.L123
 808:Dsp/widget/wgt_core/UI_Controller.c ****     {
 809:Dsp/widget/wgt_core/UI_Controller.c ****         Obj->cur_val = Obj->limit_max;
 1183              		.loc 1 809 9 is_stmt 1 view .LVU329
 1184              		.loc 1 809 22 is_stmt 0 view .LVU330
 1185 003c C3F81F20 		str	r2, [r3, #31]	@ unaligned
 1186              	.L116:
 810:Dsp/widget/wgt_core/UI_Controller.c ****     }
 811:Dsp/widget/wgt_core/UI_Controller.c ****     else if (val_tmp <= Obj->limit_min)
 812:Dsp/widget/wgt_core/UI_Controller.c ****     {
 813:Dsp/widget/wgt_core/UI_Controller.c ****         Obj->cur_val = Obj->limit_min;
 814:Dsp/widget/wgt_core/UI_Controller.c ****     }
 815:Dsp/widget/wgt_core/UI_Controller.c ****     else
 816:Dsp/widget/wgt_core/UI_Controller.c ****         Obj->cur_val = val_tmp;
 817:Dsp/widget/wgt_core/UI_Controller.c **** 
 818:Dsp/widget/wgt_core/UI_Controller.c ****     (*step) = 0;
 1187              		.loc 1 818 5 is_stmt 1 view .LVU331
 1188              		.loc 1 818 13 is_stmt 0 view .LVU332
 1189 0040 0023     		movs	r3, #0
 1190              	.LVL112:
 1191              		.loc 1 818 13 view .LVU333
 1192 0042 0B80     		strh	r3, [r1]	@ movhi
 819:Dsp/widget/wgt_core/UI_Controller.c **** 
ARM GAS  /var/folders/lx/hc4sn_b53233_zkc9xbbl97r0000gp/T//ccErXOZH.s 			page 37


 820:Dsp/widget/wgt_core/UI_Controller.c ****     return true;
 1193              		.loc 1 820 5 is_stmt 1 view .LVU334
 1194              		.loc 1 820 12 is_stmt 0 view .LVU335
 1195 0044 0120     		movs	r0, #1
 1196 0046 7047     		bx	lr
 1197              	.LVL113:
 1198              	.L123:
 811:Dsp/widget/wgt_core/UI_Controller.c ****     {
 1199              		.loc 1 811 10 is_stmt 1 view .LVU336
 811:Dsp/widget/wgt_core/UI_Controller.c ****     {
 1200              		.loc 1 811 28 is_stmt 0 view .LVU337
 1201 0048 D3F81120 		ldr	r2, [r3, #17]	@ unaligned
 811:Dsp/widget/wgt_core/UI_Controller.c ****     {
 1202              		.loc 1 811 13 view .LVU338
 1203 004c 07EE102A 		vmov	s14, r2
 1204 0050 B4EEE77A 		vcmpe.f32	s14, s15
 1205 0054 F1EE10FA 		vmrs	APSR_nzcv, FPSCR
 1206 0058 02DB     		blt	.L124
 813:Dsp/widget/wgt_core/UI_Controller.c ****     }
 1207              		.loc 1 813 9 is_stmt 1 view .LVU339
 813:Dsp/widget/wgt_core/UI_Controller.c ****     }
 1208              		.loc 1 813 22 is_stmt 0 view .LVU340
 1209 005a C3F81F20 		str	r2, [r3, #31]	@ unaligned
 1210 005e EFE7     		b	.L116
 1211              	.L124:
 816:Dsp/widget/wgt_core/UI_Controller.c **** 
 1212              		.loc 1 816 9 is_stmt 1 view .LVU341
 816:Dsp/widget/wgt_core/UI_Controller.c **** 
 1213              		.loc 1 816 22 is_stmt 0 view .LVU342
 1214 0060 17EE902A 		vmov	r2, s15
 1215 0064 C3F81F20 		str	r2, [r3, #31]	@ unaligned
 1216 0068 EAE7     		b	.L116
 1217              	.LVL114:
 1218              	.L119:
 803:Dsp/widget/wgt_core/UI_Controller.c **** 
 1219              		.loc 1 803 16 view .LVU343
 1220 006a 0020     		movs	r0, #0
 1221              	.LVL115:
 803:Dsp/widget/wgt_core/UI_Controller.c **** 
 1222              		.loc 1 803 16 view .LVU344
 1223 006c 7047     		bx	lr
 1224              	.LVL116:
 1225              	.L120:
 803:Dsp/widget/wgt_core/UI_Controller.c **** 
 1226              		.loc 1 803 16 view .LVU345
 1227 006e 0020     		movs	r0, #0
 1228              	.LVL117:
 821:Dsp/widget/wgt_core/UI_Controller.c **** }
 1229              		.loc 1 821 1 view .LVU346
 1230 0070 7047     		bx	lr
 1231              		.cfi_endproc
 1232              	.LFE27:
 1234              		.section	.text.UI_SlideBar_Trigger,"ax",%progbits
 1235              		.align	1
 1236              		.syntax unified
 1237              		.thumb
 1238              		.thumb_func
ARM GAS  /var/folders/lx/hc4sn_b53233_zkc9xbbl97r0000gp/T//ccErXOZH.s 			page 38


 1239              		.fpu fpv4-sp-d16
 1241              	UI_SlideBar_Trigger:
 1242              	.LVL118:
 1243              	.LFB28:
 822:Dsp/widget/wgt_core/UI_Controller.c **** 
 823:Dsp/widget/wgt_core/UI_Controller.c **** static bool UI_SlideBar_Trigger(UI_SlideBarObj_TypeDef *Obj)
 824:Dsp/widget/wgt_core/UI_Controller.c **** {
 1244              		.loc 1 824 1 is_stmt 1 view -0
 1245              		.cfi_startproc
 1246              		@ args = 0, pretend = 0, frame = 0
 1247              		@ frame_needed = 0, uses_anonymous_args = 0
 825:Dsp/widget/wgt_core/UI_Controller.c ****     if (Obj == NULL)
 1248              		.loc 1 825 5 view .LVU348
 1249              		.loc 1 825 8 is_stmt 0 view .LVU349
 1250 0000 78B1     		cbz	r0, .L127
 824:Dsp/widget/wgt_core/UI_Controller.c ****     if (Obj == NULL)
 1251              		.loc 1 824 1 view .LVU350
 1252 0002 08B5     		push	{r3, lr}
 1253              	.LCFI20:
 1254              		.cfi_def_cfa_offset 8
 1255              		.cfi_offset 3, -8
 1256              		.cfi_offset 14, -4
 826:Dsp/widget/wgt_core/UI_Controller.c ****         return false;
 827:Dsp/widget/wgt_core/UI_Controller.c **** 
 828:Dsp/widget/wgt_core/UI_Controller.c ****     if (Obj->callback != NULL)
 1257              		.loc 1 828 5 is_stmt 1 view .LVU351
 1258              		.loc 1 828 12 is_stmt 0 view .LVU352
 1259 0004 D0F80D20 		ldr	r2, [r0, #13]	@ unaligned
 1260              		.loc 1 828 8 view .LVU353
 1261 0008 6AB1     		cbz	r2, .L128
 829:Dsp/widget/wgt_core/UI_Controller.c ****         Obj->callback(Obj->cur_val);
 1262              		.loc 1 829 9 is_stmt 1 view .LVU354
 1263              		.loc 1 829 26 is_stmt 0 view .LVU355
 1264 000a D0F81F30 		ldr	r3, [r0, #31]	@ unaligned
 1265 000e 07EE903A 		vmov	s15, r3	@ int
 1266              		.loc 1 829 9 view .LVU356
 1267 0012 FDEEE77A 		vcvt.s32.f32	s15, s15
 1268 0016 17EE903A 		vmov	r3, s15	@ int
 1269 001a 18B2     		sxth	r0, r3
 1270              	.LVL119:
 1271              		.loc 1 829 9 view .LVU357
 1272 001c 9047     		blx	r2
 1273              	.LVL120:
 830:Dsp/widget/wgt_core/UI_Controller.c **** 
 831:Dsp/widget/wgt_core/UI_Controller.c ****     return true;
 1274              		.loc 1 831 12 view .LVU358
 1275 001e 0120     		movs	r0, #1
 1276              	.L126:
 832:Dsp/widget/wgt_core/UI_Controller.c **** }
 1277              		.loc 1 832 1 view .LVU359
 1278 0020 08BD     		pop	{r3, pc}
 1279              	.LVL121:
 1280              	.L127:
 1281              	.LCFI21:
 1282              		.cfi_def_cfa_offset 0
 1283              		.cfi_restore 3
 1284              		.cfi_restore 14
ARM GAS  /var/folders/lx/hc4sn_b53233_zkc9xbbl97r0000gp/T//ccErXOZH.s 			page 39


 826:Dsp/widget/wgt_core/UI_Controller.c **** 
 1285              		.loc 1 826 16 view .LVU360
 1286 0022 0020     		movs	r0, #0
 1287              	.LVL122:
 1288              		.loc 1 832 1 view .LVU361
 1289 0024 7047     		bx	lr
 1290              	.LVL123:
 1291              	.L128:
 1292              	.LCFI22:
 1293              		.cfi_def_cfa_offset 8
 1294              		.cfi_offset 3, -8
 1295              		.cfi_offset 14, -4
 831:Dsp/widget/wgt_core/UI_Controller.c **** }
 1296              		.loc 1 831 12 view .LVU362
 1297 0026 0120     		movs	r0, #1
 1298              	.LVL124:
 831:Dsp/widget/wgt_core/UI_Controller.c **** }
 1299              		.loc 1 831 12 view .LVU363
 1300 0028 FAE7     		b	.L126
 1301              		.cfi_endproc
 1302              	.LFE28:
 1304              		.section	.text.UI_SlideBar_SetSelect,"ax",%progbits
 1305              		.align	1
 1306              		.syntax unified
 1307              		.thumb
 1308              		.thumb_func
 1309              		.fpu fpv4-sp-d16
 1311              	UI_SlideBar_SetSelect:
 1312              	.LVL125:
 1313              	.LFB30:
 833:Dsp/widget/wgt_core/UI_Controller.c **** 
 834:Dsp/widget/wgt_core/UI_Controller.c **** static bool UI_SlideBar_CTL(UI_SlideBarObj_TypeDef *Obj)
 835:Dsp/widget/wgt_core/UI_Controller.c **** {
 836:Dsp/widget/wgt_core/UI_Controller.c ****     int16_t Block_CoordX = 0;
 837:Dsp/widget/wgt_core/UI_Controller.c ****     int16_t Block_CoordY = 0;
 838:Dsp/widget/wgt_core/UI_Controller.c ****     int16_t input_trip = 0;
 839:Dsp/widget/wgt_core/UI_Controller.c ****     int16_t str_y = Obj->Gen_Data.y;
 840:Dsp/widget/wgt_core/UI_Controller.c **** 
 841:Dsp/widget/wgt_core/UI_Controller.c ****     if ((Obj == NULL) ||
 842:Dsp/widget/wgt_core/UI_Controller.c ****         (UI_DspInterface.draw_str == NULL) ||
 843:Dsp/widget/wgt_core/UI_Controller.c ****         (UI_DspInterface.fill_rectangle == NULL))
 844:Dsp/widget/wgt_core/UI_Controller.c ****         return false;
 845:Dsp/widget/wgt_core/UI_Controller.c **** 
 846:Dsp/widget/wgt_core/UI_Controller.c ****     if (base_font == Font_8)
 847:Dsp/widget/wgt_core/UI_Controller.c ****         str_y += 1;
 848:Dsp/widget/wgt_core/UI_Controller.c **** 
 849:Dsp/widget/wgt_core/UI_Controller.c ****     input_trip = Obj->limit_max - Obj->limit_min;
 850:Dsp/widget/wgt_core/UI_Controller.c **** 
 851:Dsp/widget/wgt_core/UI_Controller.c ****     UI_DspInterface.draw_str(base_font, Obj->Gen_Data.label, Obj->Gen_Data.x + 3, str_y, true);
 852:Dsp/widget/wgt_core/UI_Controller.c **** 
 853:Dsp/widget/wgt_core/UI_Controller.c ****     if (Obj->mode == SliderBar_Horizon_Mode)
 854:Dsp/widget/wgt_core/UI_Controller.c ****     {
 855:Dsp/widget/wgt_core/UI_Controller.c ****         Obj->BarCoord_X = Obj->Gen_Data.x + strlen(Obj->Gen_Data.label) * STR_DIS + DEFAULT_SLIDERB
 856:Dsp/widget/wgt_core/UI_Controller.c ****         Obj->BarCoord_Y = Obj->Gen_Data.y + 5;
 857:Dsp/widget/wgt_core/UI_Controller.c **** 
 858:Dsp/widget/wgt_core/UI_Controller.c ****         Block_CoordX = Obj->BarCoord_X;
 859:Dsp/widget/wgt_core/UI_Controller.c ****         Block_CoordX += (Obj->cur_val - Obj->limit_min) / ((float)(input_trip)) * (DEFAULT_SLIDERBA
ARM GAS  /var/folders/lx/hc4sn_b53233_zkc9xbbl97r0000gp/T//ccErXOZH.s 			page 40


 860:Dsp/widget/wgt_core/UI_Controller.c **** 
 861:Dsp/widget/wgt_core/UI_Controller.c ****         UI_DspInterface.fill_rectangle(Obj->BarCoord_X, Obj->BarCoord_Y, DEFAULT_SLIDERBAR_LEN, DEF
 862:Dsp/widget/wgt_core/UI_Controller.c **** 
 863:Dsp/widget/wgt_core/UI_Controller.c ****         Block_CoordY = Obj->Gen_Data.y + 3;
 864:Dsp/widget/wgt_core/UI_Controller.c ****         UI_DspInterface.fill_rectangle(Block_CoordX, Block_CoordY, DEFAULT_SLIDERBAR_BLOCK_WIDTH, D
 865:Dsp/widget/wgt_core/UI_Controller.c ****         UI_DspInterface.fill_rectangle(Block_CoordX, Block_CoordY + (DEFAULT_SLIDERBAR_BLOCK_HIGH /
 866:Dsp/widget/wgt_core/UI_Controller.c ****     }
 867:Dsp/widget/wgt_core/UI_Controller.c ****     else if (Obj->mode == SliderBar_Vertical_Mode)
 868:Dsp/widget/wgt_core/UI_Controller.c ****     {
 869:Dsp/widget/wgt_core/UI_Controller.c ****     }
 870:Dsp/widget/wgt_core/UI_Controller.c ****     else
 871:Dsp/widget/wgt_core/UI_Controller.c ****         return false;
 872:Dsp/widget/wgt_core/UI_Controller.c **** 
 873:Dsp/widget/wgt_core/UI_Controller.c ****     return true;
 874:Dsp/widget/wgt_core/UI_Controller.c **** }
 875:Dsp/widget/wgt_core/UI_Controller.c **** 
 876:Dsp/widget/wgt_core/UI_Controller.c **** static void UI_SlideBar_SetSelect(UI_SlideBarObj_TypeDef *Obj, bool select)
 877:Dsp/widget/wgt_core/UI_Controller.c **** {
 1314              		.loc 1 877 1 is_stmt 1 view -0
 1315              		.cfi_startproc
 1316              		@ args = 0, pretend = 0, frame = 0
 1317              		@ frame_needed = 0, uses_anonymous_args = 0
 1318              		@ link register save eliminated.
 878:Dsp/widget/wgt_core/UI_Controller.c ****     if (Obj == NULL)
 1319              		.loc 1 878 5 view .LVU365
 1320              		.loc 1 878 8 is_stmt 0 view .LVU366
 1321 0000 10B1     		cbz	r0, .L133
 879:Dsp/widget/wgt_core/UI_Controller.c ****         return;
 880:Dsp/widget/wgt_core/UI_Controller.c **** 
 881:Dsp/widget/wgt_core/UI_Controller.c ****     Obj->is_selected = true;
 1322              		.loc 1 881 5 is_stmt 1 view .LVU367
 1323              		.loc 1 881 22 is_stmt 0 view .LVU368
 1324 0002 0122     		movs	r2, #1
 1325 0004 80F82320 		strb	r2, [r0, #35]
 1326              	.L133:
 882:Dsp/widget/wgt_core/UI_Controller.c **** }
 1327              		.loc 1 882 1 view .LVU369
 1328 0008 7047     		bx	lr
 1329              		.cfi_endproc
 1330              	.LFE30:
 1332              		.section	.text.UI_SlideBar_IsSelected,"ax",%progbits
 1333              		.align	1
 1334              		.syntax unified
 1335              		.thumb
 1336              		.thumb_func
 1337              		.fpu fpv4-sp-d16
 1339              	UI_SlideBar_IsSelected:
 1340              	.LVL126:
 1341              	.LFB31:
 883:Dsp/widget/wgt_core/UI_Controller.c **** 
 884:Dsp/widget/wgt_core/UI_Controller.c **** static bool UI_SlideBar_IsSelected(UI_SlideBarObj_TypeDef *Obj)
 885:Dsp/widget/wgt_core/UI_Controller.c **** {
 1342              		.loc 1 885 1 is_stmt 1 view -0
 1343              		.cfi_startproc
 1344              		@ args = 0, pretend = 0, frame = 0
 1345              		@ frame_needed = 0, uses_anonymous_args = 0
 1346              		@ link register save eliminated.
ARM GAS  /var/folders/lx/hc4sn_b53233_zkc9xbbl97r0000gp/T//ccErXOZH.s 			page 41


 886:Dsp/widget/wgt_core/UI_Controller.c ****     if (Obj == NULL)
 1347              		.loc 1 886 5 view .LVU371
 1348              		.loc 1 886 8 is_stmt 0 view .LVU372
 1349 0000 10B1     		cbz	r0, .L137
 887:Dsp/widget/wgt_core/UI_Controller.c ****         return false;
 888:Dsp/widget/wgt_core/UI_Controller.c **** 
 889:Dsp/widget/wgt_core/UI_Controller.c ****     return Obj->is_selected;
 1350              		.loc 1 889 5 is_stmt 1 view .LVU373
 1351              		.loc 1 889 15 is_stmt 0 view .LVU374
 1352 0002 90F82300 		ldrb	r0, [r0, #35]	@ zero_extendqisi2
 1353              	.LVL127:
 1354              		.loc 1 889 15 view .LVU375
 1355 0006 7047     		bx	lr
 1356              	.LVL128:
 1357              	.L137:
 887:Dsp/widget/wgt_core/UI_Controller.c ****         return false;
 1358              		.loc 1 887 16 view .LVU376
 1359 0008 0020     		movs	r0, #0
 1360              	.LVL129:
 890:Dsp/widget/wgt_core/UI_Controller.c **** }
 1361              		.loc 1 890 1 view .LVU377
 1362 000a 7047     		bx	lr
 1363              		.cfi_endproc
 1364              	.LFE31:
 1366              		.section	.text.UI_ProcessBar_Init,"ax",%progbits
 1367              		.align	1
 1368              		.syntax unified
 1369              		.thumb
 1370              		.thumb_func
 1371              		.fpu fpv4-sp-d16
 1373              	UI_ProcessBar_Init:
 1374              	.LVL130:
 1375              	.LFB32:
 891:Dsp/widget/wgt_core/UI_Controller.c **** 
 892:Dsp/widget/wgt_core/UI_Controller.c **** static bool UI_ProcessBar_Init(UI_ProcessBarObj_TypeDef *Obj, UI_ProcessBar_DspType_List dsp_type, 
 893:Dsp/widget/wgt_core/UI_Controller.c **** {
 1376              		.loc 1 893 1 is_stmt 1 view -0
 1377              		.cfi_startproc
 1378              		@ args = 16, pretend = 0, frame = 0
 1379              		@ frame_needed = 0, uses_anonymous_args = 0
 1380              		.loc 1 893 1 is_stmt 0 view .LVU379
 1381 0000 F8B5     		push	{r3, r4, r5, r6, r7, lr}
 1382              	.LCFI23:
 1383              		.cfi_def_cfa_offset 24
 1384              		.cfi_offset 3, -24
 1385              		.cfi_offset 4, -20
 1386              		.cfi_offset 5, -16
 1387              		.cfi_offset 6, -12
 1388              		.cfi_offset 7, -8
 1389              		.cfi_offset 14, -4
 1390 0002 089F     		ldr	r7, [sp, #32]
 1391 0004 099D     		ldr	r5, [sp, #36]
 894:Dsp/widget/wgt_core/UI_Controller.c ****     if ((Obj == NULL) || (min > max))
 1392              		.loc 1 894 5 is_stmt 1 view .LVU380
 1393              		.loc 1 894 8 is_stmt 0 view .LVU381
 1394 0006 B0B3     		cbz	r0, .L143
 1395 0008 0E46     		mov	r6, r1
ARM GAS  /var/folders/lx/hc4sn_b53233_zkc9xbbl97r0000gp/T//ccErXOZH.s 			page 42


 1396 000a 1146     		mov	r1, r2
 1397              	.LVL131:
 1398              		.loc 1 894 8 view .LVU382
 1399 000c 1A46     		mov	r2, r3
 1400              	.LVL132:
 1401              		.loc 1 894 8 view .LVU383
 1402 000e 0446     		mov	r4, r0
 1403              		.loc 1 894 23 discriminator 1 view .LVU384
 1404 0010 AF42     		cmp	r7, r5
 1405 0012 01DD     		ble	.L146
 895:Dsp/widget/wgt_core/UI_Controller.c ****         return false;
 1406              		.loc 1 895 16 view .LVU385
 1407 0014 0020     		movs	r0, #0
 1408              	.LVL133:
 1409              	.L139:
 896:Dsp/widget/wgt_core/UI_Controller.c **** 
 897:Dsp/widget/wgt_core/UI_Controller.c ****     UI_GenData_Init(&Obj->Gen_Data, label, x, y);
 898:Dsp/widget/wgt_core/UI_Controller.c **** 
 899:Dsp/widget/wgt_core/UI_Controller.c ****     Obj->width = width;
 900:Dsp/widget/wgt_core/UI_Controller.c **** 
 901:Dsp/widget/wgt_core/UI_Controller.c ****     switch (base_font)
 902:Dsp/widget/wgt_core/UI_Controller.c ****     {
 903:Dsp/widget/wgt_core/UI_Controller.c ****     case Font_8:
 904:Dsp/widget/wgt_core/UI_Controller.c ****         Obj->height = base_font + 6;
 905:Dsp/widget/wgt_core/UI_Controller.c ****         break;
 906:Dsp/widget/wgt_core/UI_Controller.c **** 
 907:Dsp/widget/wgt_core/UI_Controller.c ****     case Font_12:
 908:Dsp/widget/wgt_core/UI_Controller.c ****     case Font_16:
 909:Dsp/widget/wgt_core/UI_Controller.c ****         /* need modify */
 910:Dsp/widget/wgt_core/UI_Controller.c ****         Obj->height = base_font + 6;
 911:Dsp/widget/wgt_core/UI_Controller.c ****         break;
 912:Dsp/widget/wgt_core/UI_Controller.c **** 
 913:Dsp/widget/wgt_core/UI_Controller.c ****     default:
 914:Dsp/widget/wgt_core/UI_Controller.c ****         Obj->height = base_font + 6;
 915:Dsp/widget/wgt_core/UI_Controller.c ****         break;
 916:Dsp/widget/wgt_core/UI_Controller.c ****     }
 917:Dsp/widget/wgt_core/UI_Controller.c **** 
 918:Dsp/widget/wgt_core/UI_Controller.c ****     Obj->height = base_font + 6;
 919:Dsp/widget/wgt_core/UI_Controller.c **** 
 920:Dsp/widget/wgt_core/UI_Controller.c ****     Obj->cur_val = 0;
 921:Dsp/widget/wgt_core/UI_Controller.c ****     Obj->max = max;
 922:Dsp/widget/wgt_core/UI_Controller.c ****     Obj->min = min;
 923:Dsp/widget/wgt_core/UI_Controller.c ****     Obj->range = max - min;
 924:Dsp/widget/wgt_core/UI_Controller.c **** 
 925:Dsp/widget/wgt_core/UI_Controller.c ****     Obj->percent = 0.0;
 926:Dsp/widget/wgt_core/UI_Controller.c **** 
 927:Dsp/widget/wgt_core/UI_Controller.c ****     Obj->Dsp_Type = dsp_type;
 928:Dsp/widget/wgt_core/UI_Controller.c ****     Obj->Mv_Dir = UI_ProcBar_GrothDir_Default;
 929:Dsp/widget/wgt_core/UI_Controller.c **** 
 930:Dsp/widget/wgt_core/UI_Controller.c ****     return true;
 931:Dsp/widget/wgt_core/UI_Controller.c **** }
 1410              		.loc 1 931 1 view .LVU386
 1411 0016 F8BD     		pop	{r3, r4, r5, r6, r7, pc}
 1412              	.LVL134:
 1413              	.L146:
 897:Dsp/widget/wgt_core/UI_Controller.c **** 
 1414              		.loc 1 897 5 is_stmt 1 view .LVU387
ARM GAS  /var/folders/lx/hc4sn_b53233_zkc9xbbl97r0000gp/T//ccErXOZH.s 			page 43


 1415 0018 BDF91830 		ldrsh	r3, [sp, #24]
 1416              	.LVL135:
 897:Dsp/widget/wgt_core/UI_Controller.c **** 
 1417              		.loc 1 897 5 is_stmt 0 view .LVU388
 1418 001c FFF7FEFF 		bl	UI_GenData_Init
 1419              	.LVL136:
 899:Dsp/widget/wgt_core/UI_Controller.c **** 
 1420              		.loc 1 899 5 is_stmt 1 view .LVU389
 899:Dsp/widget/wgt_core/UI_Controller.c **** 
 1421              		.loc 1 899 16 is_stmt 0 view .LVU390
 1422 0020 9DF81C30 		ldrb	r3, [sp, #28]	@ zero_extendqisi2
 1423 0024 84F82030 		strb	r3, [r4, #32]
 901:Dsp/widget/wgt_core/UI_Controller.c ****     {
 1424              		.loc 1 901 5 is_stmt 1 view .LVU391
 1425 0028 144B     		ldr	r3, .L148
 1426 002a 1B78     		ldrb	r3, [r3]	@ zero_extendqisi2
 1427 002c 0C2B     		cmp	r3, #12
 1428 002e 1ED0     		beq	.L140
 1429 0030 102B     		cmp	r3, #16
 1430 0032 1CD0     		beq	.L140
 1431 0034 082B     		cmp	r3, #8
 1432 0036 03D0     		beq	.L147
 914:Dsp/widget/wgt_core/UI_Controller.c ****         break;
 1433              		.loc 1 914 9 view .LVU392
 914:Dsp/widget/wgt_core/UI_Controller.c ****         break;
 1434              		.loc 1 914 33 is_stmt 0 view .LVU393
 1435 0038 9A1D     		adds	r2, r3, #6
 914:Dsp/widget/wgt_core/UI_Controller.c ****         break;
 1436              		.loc 1 914 21 view .LVU394
 1437 003a 84F82120 		strb	r2, [r4, #33]
 915:Dsp/widget/wgt_core/UI_Controller.c ****     }
 1438              		.loc 1 915 9 is_stmt 1 view .LVU395
 1439 003e 02E0     		b	.L142
 1440              	.L147:
 904:Dsp/widget/wgt_core/UI_Controller.c ****         break;
 1441              		.loc 1 904 9 view .LVU396
 904:Dsp/widget/wgt_core/UI_Controller.c ****         break;
 1442              		.loc 1 904 33 is_stmt 0 view .LVU397
 1443 0040 9A1D     		adds	r2, r3, #6
 904:Dsp/widget/wgt_core/UI_Controller.c ****         break;
 1444              		.loc 1 904 21 view .LVU398
 1445 0042 84F82120 		strb	r2, [r4, #33]
 905:Dsp/widget/wgt_core/UI_Controller.c **** 
 1446              		.loc 1 905 9 is_stmt 1 view .LVU399
 1447              	.L142:
 918:Dsp/widget/wgt_core/UI_Controller.c **** 
 1448              		.loc 1 918 5 view .LVU400
 918:Dsp/widget/wgt_core/UI_Controller.c **** 
 1449              		.loc 1 918 29 is_stmt 0 view .LVU401
 1450 0046 0633     		adds	r3, r3, #6
 918:Dsp/widget/wgt_core/UI_Controller.c **** 
 1451              		.loc 1 918 17 view .LVU402
 1452 0048 84F82130 		strb	r3, [r4, #33]
 920:Dsp/widget/wgt_core/UI_Controller.c ****     Obj->max = max;
 1453              		.loc 1 920 5 is_stmt 1 view .LVU403
 920:Dsp/widget/wgt_core/UI_Controller.c ****     Obj->max = max;
 1454              		.loc 1 920 18 is_stmt 0 view .LVU404
ARM GAS  /var/folders/lx/hc4sn_b53233_zkc9xbbl97r0000gp/T//ccErXOZH.s 			page 44


 1455 004c 0023     		movs	r3, #0
 1456 004e 2377     		strb	r3, [r4, #28]
 1457 0050 6377     		strb	r3, [r4, #29]
 1458 0052 A377     		strb	r3, [r4, #30]
 1459 0054 E377     		strb	r3, [r4, #31]
 921:Dsp/widget/wgt_core/UI_Controller.c ****     Obj->min = min;
 1460              		.loc 1 921 5 is_stmt 1 view .LVU405
 921:Dsp/widget/wgt_core/UI_Controller.c ****     Obj->min = min;
 1461              		.loc 1 921 14 is_stmt 0 view .LVU406
 1462 0056 6561     		str	r5, [r4, #20]	@ unaligned
 922:Dsp/widget/wgt_core/UI_Controller.c ****     Obj->range = max - min;
 1463              		.loc 1 922 5 is_stmt 1 view .LVU407
 922:Dsp/widget/wgt_core/UI_Controller.c ****     Obj->range = max - min;
 1464              		.loc 1 922 14 is_stmt 0 view .LVU408
 1465 0058 2761     		str	r7, [r4, #16]	@ unaligned
 923:Dsp/widget/wgt_core/UI_Controller.c **** 
 1466              		.loc 1 923 5 is_stmt 1 view .LVU409
 923:Dsp/widget/wgt_core/UI_Controller.c **** 
 1467              		.loc 1 923 22 is_stmt 0 view .LVU410
 1468 005a ED1B     		subs	r5, r5, r7
 923:Dsp/widget/wgt_core/UI_Controller.c **** 
 1469              		.loc 1 923 16 view .LVU411
 1470 005c A561     		str	r5, [r4, #24]	@ unaligned
 925:Dsp/widget/wgt_core/UI_Controller.c **** 
 1471              		.loc 1 925 5 is_stmt 1 view .LVU412
 925:Dsp/widget/wgt_core/UI_Controller.c **** 
 1472              		.loc 1 925 18 is_stmt 0 view .LVU413
 1473 005e 0022     		movs	r2, #0
 1474 0060 E260     		str	r2, [r4, #12]	@ unaligned
 927:Dsp/widget/wgt_core/UI_Controller.c ****     Obj->Mv_Dir = UI_ProcBar_GrothDir_Default;
 1475              		.loc 1 927 5 is_stmt 1 view .LVU414
 927:Dsp/widget/wgt_core/UI_Controller.c ****     Obj->Mv_Dir = UI_ProcBar_GrothDir_Default;
 1476              		.loc 1 927 19 is_stmt 0 view .LVU415
 1477 0062 84F82360 		strb	r6, [r4, #35]
 928:Dsp/widget/wgt_core/UI_Controller.c **** 
 1478              		.loc 1 928 5 is_stmt 1 view .LVU416
 928:Dsp/widget/wgt_core/UI_Controller.c **** 
 1479              		.loc 1 928 17 is_stmt 0 view .LVU417
 1480 0066 84F82430 		strb	r3, [r4, #36]
 930:Dsp/widget/wgt_core/UI_Controller.c **** }
 1481              		.loc 1 930 5 is_stmt 1 view .LVU418
 930:Dsp/widget/wgt_core/UI_Controller.c **** }
 1482              		.loc 1 930 12 is_stmt 0 view .LVU419
 1483 006a 0120     		movs	r0, #1
 1484 006c D3E7     		b	.L139
 1485              	.L140:
 910:Dsp/widget/wgt_core/UI_Controller.c ****         break;
 1486              		.loc 1 910 9 is_stmt 1 view .LVU420
 910:Dsp/widget/wgt_core/UI_Controller.c ****         break;
 1487              		.loc 1 910 33 is_stmt 0 view .LVU421
 1488 006e 9A1D     		adds	r2, r3, #6
 910:Dsp/widget/wgt_core/UI_Controller.c ****         break;
 1489              		.loc 1 910 21 view .LVU422
 1490 0070 84F82120 		strb	r2, [r4, #33]
 911:Dsp/widget/wgt_core/UI_Controller.c **** 
 1491              		.loc 1 911 9 is_stmt 1 view .LVU423
 1492 0074 E7E7     		b	.L142
ARM GAS  /var/folders/lx/hc4sn_b53233_zkc9xbbl97r0000gp/T//ccErXOZH.s 			page 45


 1493              	.LVL137:
 1494              	.L143:
 895:Dsp/widget/wgt_core/UI_Controller.c **** 
 1495              		.loc 1 895 16 is_stmt 0 view .LVU424
 1496 0076 0020     		movs	r0, #0
 1497              	.LVL138:
 895:Dsp/widget/wgt_core/UI_Controller.c **** 
 1498              		.loc 1 895 16 view .LVU425
 1499 0078 CDE7     		b	.L139
 1500              	.L149:
 1501 007a 00BF     		.align	2
 1502              	.L148:
 1503 007c 00000000 		.word	.LANCHOR2
 1504              		.cfi_endproc
 1505              	.LFE32:
 1507              		.section	.text.UI_ProcessBar_SetDspDir,"ax",%progbits
 1508              		.align	1
 1509              		.syntax unified
 1510              		.thumb
 1511              		.thumb_func
 1512              		.fpu fpv4-sp-d16
 1514              	UI_ProcessBar_SetDspDir:
 1515              	.LVL139:
 1516              	.LFB33:
 932:Dsp/widget/wgt_core/UI_Controller.c **** 
 933:Dsp/widget/wgt_core/UI_Controller.c **** static bool UI_ProcessBar_SetDspDir(UI_ProcessBarObj_TypeDef *Obj, UI_ProcessBar_MoveDir_TypeDef Di
 934:Dsp/widget/wgt_core/UI_Controller.c **** {
 1517              		.loc 1 934 1 is_stmt 1 view -0
 1518              		.cfi_startproc
 1519              		@ args = 0, pretend = 0, frame = 0
 1520              		@ frame_needed = 0, uses_anonymous_args = 0
 1521              		@ link register save eliminated.
 935:Dsp/widget/wgt_core/UI_Controller.c ****     if (Obj == NULL)
 1522              		.loc 1 935 5 view .LVU427
 1523              		.loc 1 935 8 is_stmt 0 view .LVU428
 1524 0000 50B1     		cbz	r0, .L153
 936:Dsp/widget/wgt_core/UI_Controller.c ****         return false;
 937:Dsp/widget/wgt_core/UI_Controller.c **** 
 938:Dsp/widget/wgt_core/UI_Controller.c ****     if ((Dir > UI_ProcBar_GrothFrom_Mid) || (Dir < 0))
 1525              		.loc 1 938 5 is_stmt 1 view .LVU429
 1526              		.loc 1 938 8 is_stmt 0 view .LVU430
 1527 0002 0129     		cmp	r1, #1
 1528 0004 04D9     		bls	.L152
 939:Dsp/widget/wgt_core/UI_Controller.c ****         Obj->Mv_Dir = UI_ProcBar_GrothDir_Default;
 1529              		.loc 1 939 9 is_stmt 1 view .LVU431
 1530              		.loc 1 939 21 is_stmt 0 view .LVU432
 1531 0006 0022     		movs	r2, #0
 1532 0008 80F82420 		strb	r2, [r0, #36]
 940:Dsp/widget/wgt_core/UI_Controller.c ****     else
 941:Dsp/widget/wgt_core/UI_Controller.c ****         Obj->Mv_Dir = Dir;
 942:Dsp/widget/wgt_core/UI_Controller.c **** 
 943:Dsp/widget/wgt_core/UI_Controller.c ****     return true;
 1533              		.loc 1 943 12 view .LVU433
 1534 000c 0120     		movs	r0, #1
 1535              	.LVL140:
 1536              		.loc 1 943 12 view .LVU434
 1537 000e 7047     		bx	lr
ARM GAS  /var/folders/lx/hc4sn_b53233_zkc9xbbl97r0000gp/T//ccErXOZH.s 			page 46


 1538              	.LVL141:
 1539              	.L152:
 941:Dsp/widget/wgt_core/UI_Controller.c **** 
 1540              		.loc 1 941 9 is_stmt 1 view .LVU435
 941:Dsp/widget/wgt_core/UI_Controller.c **** 
 1541              		.loc 1 941 21 is_stmt 0 view .LVU436
 1542 0010 80F82410 		strb	r1, [r0, #36]
 1543              		.loc 1 943 12 view .LVU437
 1544 0014 0120     		movs	r0, #1
 1545              	.LVL142:
 1546              		.loc 1 943 12 view .LVU438
 1547 0016 7047     		bx	lr
 1548              	.LVL143:
 1549              	.L153:
 936:Dsp/widget/wgt_core/UI_Controller.c **** 
 1550              		.loc 1 936 16 view .LVU439
 1551 0018 0020     		movs	r0, #0
 1552              	.LVL144:
 944:Dsp/widget/wgt_core/UI_Controller.c **** }
 1553              		.loc 1 944 1 view .LVU440
 1554 001a 7047     		bx	lr
 1555              		.cfi_endproc
 1556              	.LFE33:
 1558              		.section	.text.UI_ProcessBar_SetCurVal,"ax",%progbits
 1559              		.align	1
 1560              		.syntax unified
 1561              		.thumb
 1562              		.thumb_func
 1563              		.fpu fpv4-sp-d16
 1565              	UI_ProcessBar_SetCurVal:
 1566              	.LVL145:
 1567              	.LFB34:
 945:Dsp/widget/wgt_core/UI_Controller.c **** 
 946:Dsp/widget/wgt_core/UI_Controller.c **** static bool UI_ProcessBar_SetCurVal(UI_ProcessBarObj_TypeDef *Obj, int32_t val)
 947:Dsp/widget/wgt_core/UI_Controller.c **** {
 1568              		.loc 1 947 1 is_stmt 1 view -0
 1569              		.cfi_startproc
 1570              		@ args = 0, pretend = 0, frame = 0
 1571              		@ frame_needed = 0, uses_anonymous_args = 0
 1572              		@ link register save eliminated.
 948:Dsp/widget/wgt_core/UI_Controller.c ****     if (Obj == NULL)
 1573              		.loc 1 948 5 view .LVU442
 1574              		.loc 1 948 8 is_stmt 0 view .LVU443
 1575 0000 F0B1     		cbz	r0, .L159
 947:Dsp/widget/wgt_core/UI_Controller.c ****     if (Obj == NULL)
 1576              		.loc 1 947 1 view .LVU444
 1577 0002 10B4     		push	{r4}
 1578              	.LCFI24:
 1579              		.cfi_def_cfa_offset 4
 1580              		.cfi_offset 4, -4
 1581 0004 0346     		mov	r3, r0
 949:Dsp/widget/wgt_core/UI_Controller.c ****         return false;
 950:Dsp/widget/wgt_core/UI_Controller.c **** 
 951:Dsp/widget/wgt_core/UI_Controller.c ****     int32_t range = Obj->max - Obj->min;
 1582              		.loc 1 951 5 is_stmt 1 view .LVU445
 1583              		.loc 1 951 24 is_stmt 0 view .LVU446
 1584 0006 4269     		ldr	r2, [r0, #20]	@ unaligned
ARM GAS  /var/folders/lx/hc4sn_b53233_zkc9xbbl97r0000gp/T//ccErXOZH.s 			page 47


 1585              		.loc 1 951 35 view .LVU447
 1586 0008 0069     		ldr	r0, [r0, #16]	@ unaligned
 1587              	.LVL146:
 1588              		.loc 1 951 13 view .LVU448
 1589 000a 141A     		subs	r4, r2, r0
 1590 000c 07EE104A 		vmov	s14, r4	@ int
 1591              	.LVL147:
 952:Dsp/widget/wgt_core/UI_Controller.c **** 
 953:Dsp/widget/wgt_core/UI_Controller.c ****     if (val >= Obj->max)
 1592              		.loc 1 953 5 is_stmt 1 view .LVU449
 1593              		.loc 1 953 8 is_stmt 0 view .LVU450
 1594 0010 8A42     		cmp	r2, r1
 1595 0012 0FDC     		bgt	.L156
 954:Dsp/widget/wgt_core/UI_Controller.c ****         Obj->cur_val = Obj->max;
 1596              		.loc 1 954 9 is_stmt 1 view .LVU451
 1597              		.loc 1 954 22 is_stmt 0 view .LVU452
 1598 0014 DA61     		str	r2, [r3, #28]	@ unaligned
 1599              	.L157:
 955:Dsp/widget/wgt_core/UI_Controller.c ****     else if (val <= Obj->min)
 956:Dsp/widget/wgt_core/UI_Controller.c ****         Obj->cur_val = Obj->min;
 957:Dsp/widget/wgt_core/UI_Controller.c ****     else
 958:Dsp/widget/wgt_core/UI_Controller.c ****         Obj->cur_val = val;
 959:Dsp/widget/wgt_core/UI_Controller.c **** 
 960:Dsp/widget/wgt_core/UI_Controller.c ****     Obj->percent = ((float)val) / range;
 1600              		.loc 1 960 5 is_stmt 1 view .LVU453
 1601              		.loc 1 960 21 is_stmt 0 view .LVU454
 1602 0016 07EE901A 		vmov	s15, r1	@ int
 1603 001a F8EEE77A 		vcvt.f32.s32	s15, s15
 1604              		.loc 1 960 33 view .LVU455
 1605 001e B8EEC77A 		vcvt.f32.s32	s14, s14
 1606              		.loc 1 960 18 view .LVU456
 1607 0022 C7EE877A 		vdiv.f32	s15, s15, s14
 1608 0026 17EE902A 		vmov	r2, s15
 1609 002a DA60     		str	r2, [r3, #12]	@ unaligned
 961:Dsp/widget/wgt_core/UI_Controller.c **** 
 962:Dsp/widget/wgt_core/UI_Controller.c ****     return true;
 1610              		.loc 1 962 5 is_stmt 1 view .LVU457
 1611              		.loc 1 962 12 is_stmt 0 view .LVU458
 1612 002c 0120     		movs	r0, #1
 963:Dsp/widget/wgt_core/UI_Controller.c **** }
 1613              		.loc 1 963 1 view .LVU459
 1614 002e 5DF8044B 		ldr	r4, [sp], #4
 1615              	.LCFI25:
 1616              		.cfi_remember_state
 1617              		.cfi_restore 4
 1618              		.cfi_def_cfa_offset 0
 1619              	.LVL148:
 1620              		.loc 1 963 1 view .LVU460
 1621 0032 7047     		bx	lr
 1622              	.LVL149:
 1623              	.L156:
 1624              	.LCFI26:
 1625              		.cfi_restore_state
 955:Dsp/widget/wgt_core/UI_Controller.c ****     else if (val <= Obj->min)
 1626              		.loc 1 955 10 is_stmt 1 view .LVU461
 955:Dsp/widget/wgt_core/UI_Controller.c ****     else if (val <= Obj->min)
 1627              		.loc 1 955 13 is_stmt 0 view .LVU462
ARM GAS  /var/folders/lx/hc4sn_b53233_zkc9xbbl97r0000gp/T//ccErXOZH.s 			page 48


 1628 0034 8842     		cmp	r0, r1
 1629 0036 01DB     		blt	.L158
 956:Dsp/widget/wgt_core/UI_Controller.c ****     else
 1630              		.loc 1 956 9 is_stmt 1 view .LVU463
 956:Dsp/widget/wgt_core/UI_Controller.c ****     else
 1631              		.loc 1 956 22 is_stmt 0 view .LVU464
 1632 0038 D861     		str	r0, [r3, #28]	@ unaligned
 1633 003a ECE7     		b	.L157
 1634              	.L158:
 958:Dsp/widget/wgt_core/UI_Controller.c **** 
 1635              		.loc 1 958 9 is_stmt 1 view .LVU465
 958:Dsp/widget/wgt_core/UI_Controller.c **** 
 1636              		.loc 1 958 22 is_stmt 0 view .LVU466
 1637 003c D961     		str	r1, [r3, #28]	@ unaligned
 1638 003e EAE7     		b	.L157
 1639              	.LVL150:
 1640              	.L159:
 1641              	.LCFI27:
 1642              		.cfi_def_cfa_offset 0
 1643              		.cfi_restore 4
 949:Dsp/widget/wgt_core/UI_Controller.c **** 
 1644              		.loc 1 949 16 view .LVU467
 1645 0040 0020     		movs	r0, #0
 1646              	.LVL151:
 1647              		.loc 1 963 1 view .LVU468
 1648 0042 7047     		bx	lr
 1649              		.cfi_endproc
 1650              	.LFE34:
 1652              		.section	.text.UI_ProcessBar_Move,"ax",%progbits
 1653              		.align	1
 1654              		.syntax unified
 1655              		.thumb
 1656              		.thumb_func
 1657              		.fpu fpv4-sp-d16
 1659              	UI_ProcessBar_Move:
 1660              	.LVL152:
 1661              	.LFB35:
 964:Dsp/widget/wgt_core/UI_Controller.c **** 
 965:Dsp/widget/wgt_core/UI_Controller.c **** static bool UI_ProcessBar_Move(UI_ProcessBarObj_TypeDef *Obj, uint16_t x, uint16_t y)
 966:Dsp/widget/wgt_core/UI_Controller.c **** {
 1662              		.loc 1 966 1 is_stmt 1 view -0
 1663              		.cfi_startproc
 1664              		@ args = 0, pretend = 0, frame = 0
 1665              		@ frame_needed = 0, uses_anonymous_args = 0
 967:Dsp/widget/wgt_core/UI_Controller.c ****     if (Obj == NULL)
 1666              		.loc 1 967 5 view .LVU470
 1667              		.loc 1 967 8 is_stmt 0 view .LVU471
 1668 0000 28B1     		cbz	r0, .L166
 966:Dsp/widget/wgt_core/UI_Controller.c ****     if (Obj == NULL)
 1669              		.loc 1 966 1 view .LVU472
 1670 0002 08B5     		push	{r3, lr}
 1671              	.LCFI28:
 1672              		.cfi_def_cfa_offset 8
 1673              		.cfi_offset 3, -8
 1674              		.cfi_offset 14, -4
 968:Dsp/widget/wgt_core/UI_Controller.c ****         return false;
 969:Dsp/widget/wgt_core/UI_Controller.c **** 
ARM GAS  /var/folders/lx/hc4sn_b53233_zkc9xbbl97r0000gp/T//ccErXOZH.s 			page 49


 970:Dsp/widget/wgt_core/UI_Controller.c ****     return UI_Move(&(Obj->Gen_Data), x, y);
 1675              		.loc 1 970 5 is_stmt 1 view .LVU473
 1676              		.loc 1 970 12 is_stmt 0 view .LVU474
 1677 0004 12B2     		sxth	r2, r2
 1678              		.loc 1 970 12 view .LVU475
 1679 0006 09B2     		sxth	r1, r1
 1680              		.loc 1 970 12 view .LVU476
 1681 0008 FFF7FEFF 		bl	UI_Move
 1682              	.LVL153:
 971:Dsp/widget/wgt_core/UI_Controller.c **** }
 1683              		.loc 1 971 1 view .LVU477
 1684 000c 08BD     		pop	{r3, pc}
 1685              	.LVL154:
 1686              	.L166:
 1687              	.LCFI29:
 1688              		.cfi_def_cfa_offset 0
 1689              		.cfi_restore 3
 1690              		.cfi_restore 14
 968:Dsp/widget/wgt_core/UI_Controller.c ****         return false;
 1691              		.loc 1 968 16 view .LVU478
 1692 000e 0020     		movs	r0, #0
 1693              	.LVL155:
 1694              		.loc 1 971 1 view .LVU479
 1695 0010 7047     		bx	lr
 1696              		.cfi_endproc
 1697              	.LFE35:
 1699              		.section	.text.UI_ProcessBar_DspDotBar,"ax",%progbits
 1700              		.align	1
 1701              		.syntax unified
 1702              		.thumb
 1703              		.thumb_func
 1704              		.fpu fpv4-sp-d16
 1706              	UI_ProcessBar_DspDotBar:
 1707              	.LVL156:
 1708              	.LFB37:
 972:Dsp/widget/wgt_core/UI_Controller.c **** 
 973:Dsp/widget/wgt_core/UI_Controller.c **** static bool UI_ProcessBar_DspLoadBar(UI_ProcessBarObj_TypeDef *Obj)
 974:Dsp/widget/wgt_core/UI_Controller.c **** {
 975:Dsp/widget/wgt_core/UI_Controller.c ****     uint8_t frame_radius = 0;
 976:Dsp/widget/wgt_core/UI_Controller.c ****     int16_t Str_CoordX = 0;
 977:Dsp/widget/wgt_core/UI_Controller.c ****     int16_t Str_CoordY = 0;
 978:Dsp/widget/wgt_core/UI_Controller.c ****     float Pcnt_Val = 0;
 979:Dsp/widget/wgt_core/UI_Controller.c ****     char dsp_str[20];
 980:Dsp/widget/wgt_core/UI_Controller.c **** 
 981:Dsp/widget/wgt_core/UI_Controller.c ****     if (Obj == NULL)
 982:Dsp/widget/wgt_core/UI_Controller.c ****         return false;
 983:Dsp/widget/wgt_core/UI_Controller.c **** 
 984:Dsp/widget/wgt_core/UI_Controller.c ****     memset(dsp_str, '\0', 20);
 985:Dsp/widget/wgt_core/UI_Controller.c **** 
 986:Dsp/widget/wgt_core/UI_Controller.c ****     Pcnt_Val = (Obj->cur_val / (float)Obj->range);
 987:Dsp/widget/wgt_core/UI_Controller.c ****     sprintf(dsp_str, "On Process : %d%%", (uint8_t)(Pcnt_Val * 100));
 988:Dsp/widget/wgt_core/UI_Controller.c **** 
 989:Dsp/widget/wgt_core/UI_Controller.c ****     Str_CoordX = Obj->Gen_Data.x + (Obj->width - (strlen(dsp_str) * STR_DIS)) / 2;
 990:Dsp/widget/wgt_core/UI_Controller.c ****     Str_CoordY = Obj->Gen_Data.y - base_font - 2;
 991:Dsp/widget/wgt_core/UI_Controller.c **** 
 992:Dsp/widget/wgt_core/UI_Controller.c ****     //display direction from left
 993:Dsp/widget/wgt_core/UI_Controller.c ****     UI_DspInterface.draw_radius_rectangle(Obj->Gen_Data.x, Obj->Gen_Data.y, Obj->width, DEFAULT_PRO
ARM GAS  /var/folders/lx/hc4sn_b53233_zkc9xbbl97r0000gp/T//ccErXOZH.s 			page 50


 994:Dsp/widget/wgt_core/UI_Controller.c ****     UI_DspInterface.draw_str(base_font, dsp_str, Str_CoordX, Str_CoordY, true);
 995:Dsp/widget/wgt_core/UI_Controller.c ****     UI_DspInterface.draw_line_h(Obj->Gen_Data.x + 2, Obj->Gen_Data.y + 2, Pcnt_Val * (Obj->width - 
 996:Dsp/widget/wgt_core/UI_Controller.c **** 
 997:Dsp/widget/wgt_core/UI_Controller.c ****     return true;
 998:Dsp/widget/wgt_core/UI_Controller.c **** }
 999:Dsp/widget/wgt_core/UI_Controller.c **** 
1000:Dsp/widget/wgt_core/UI_Controller.c **** static bool UI_ProcessBar_DspDotBar(UI_ProcessBarObj_TypeDef *Obj)
1001:Dsp/widget/wgt_core/UI_Controller.c **** {
 1709              		.loc 1 1001 1 is_stmt 1 view -0
 1710              		.cfi_startproc
 1711              		@ args = 0, pretend = 0, frame = 8
 1712              		@ frame_needed = 0, uses_anonymous_args = 0
 1713              		.loc 1 1001 1 is_stmt 0 view .LVU481
 1714 0000 2DE9F04F 		push	{r4, r5, r6, r7, r8, r9, r10, fp, lr}
 1715              	.LCFI30:
 1716              		.cfi_def_cfa_offset 36
 1717              		.cfi_offset 4, -36
 1718              		.cfi_offset 5, -32
 1719              		.cfi_offset 6, -28
 1720              		.cfi_offset 7, -24
 1721              		.cfi_offset 8, -20
 1722              		.cfi_offset 9, -16
 1723              		.cfi_offset 10, -12
 1724              		.cfi_offset 11, -8
 1725              		.cfi_offset 14, -4
 1726 0004 2DED028B 		vpush.64	{d8}
 1727              	.LCFI31:
 1728              		.cfi_def_cfa_offset 44
 1729              		.cfi_offset 80, -44
 1730              		.cfi_offset 81, -40
 1731 0008 85B0     		sub	sp, sp, #20
 1732              	.LCFI32:
 1733              		.cfi_def_cfa_offset 64
1002:Dsp/widget/wgt_core/UI_Controller.c ****     uint8_t bar_width = 0;
 1734              		.loc 1 1002 5 is_stmt 1 view .LVU482
 1735              	.LVL157:
1003:Dsp/widget/wgt_core/UI_Controller.c ****     int16_t bar_start_x = 0;
 1736              		.loc 1 1003 5 view .LVU483
1004:Dsp/widget/wgt_core/UI_Controller.c ****     int16_t mid_val = Obj->min + Obj->range / 2;
 1737              		.loc 1 1004 5 view .LVU484
 1738              		.loc 1 1004 26 is_stmt 0 view .LVU485
 1739 000a 0769     		ldr	r7, [r0, #16]	@ unaligned
 1740              		.loc 1 1004 37 view .LVU486
 1741 000c 8369     		ldr	r3, [r0, #24]	@ unaligned
 1742              		.loc 1 1004 45 view .LVU487
 1743 000e 03EBD373 		add	r3, r3, r3, lsr #31
 1744              		.loc 1 1004 32 view .LVU488
 1745 0012 07EB6303 		add	r3, r7, r3, asr #1
 1746              	.LVL158:
1005:Dsp/widget/wgt_core/UI_Controller.c ****     int16_t dorbar_dsp = 0;
 1747              		.loc 1 1005 5 is_stmt 1 view .LVU489
1006:Dsp/widget/wgt_core/UI_Controller.c ****     float Pcnt_Val = 0;
 1748              		.loc 1 1006 5 view .LVU490
1007:Dsp/widget/wgt_core/UI_Controller.c **** 
1008:Dsp/widget/wgt_core/UI_Controller.c ****     if (Obj == NULL)
 1749              		.loc 1 1008 5 view .LVU491
 1750              		.loc 1 1008 8 is_stmt 0 view .LVU492
ARM GAS  /var/folders/lx/hc4sn_b53233_zkc9xbbl97r0000gp/T//ccErXOZH.s 			page 51


 1751 0016 0028     		cmp	r0, #0
 1752 0018 00F00C81 		beq	.L176
 1753 001c 0446     		mov	r4, r0
 1754 001e 1FB2     		sxth	r7, r3
1009:Dsp/widget/wgt_core/UI_Controller.c ****         return false;
1010:Dsp/widget/wgt_core/UI_Controller.c **** 
1011:Dsp/widget/wgt_core/UI_Controller.c ****     if (Obj->width % 2 == 0)
 1755              		.loc 1 1011 5 is_stmt 1 view .LVU493
 1756              		.loc 1 1011 12 is_stmt 0 view .LVU494
 1757 0020 90F82060 		ldrb	r6, [r0, #32]	@ zero_extendqisi2
 1758              		.loc 1 1011 8 view .LVU495
 1759 0024 16F0010F 		tst	r6, #1
 1760 0028 02D1     		bne	.L177
1012:Dsp/widget/wgt_core/UI_Controller.c ****         bar_width = Obj->width + 1;
 1761              		.loc 1 1012 9 is_stmt 1 view .LVU496
 1762              		.loc 1 1012 19 is_stmt 0 view .LVU497
 1763 002a 0136     		adds	r6, r6, #1
 1764 002c F6B2     		uxtb	r6, r6
 1765              	.LVL159:
 1766              		.loc 1 1012 19 view .LVU498
 1767 002e 00E0     		b	.L173
 1768              	.LVL160:
 1769              	.L177:
1002:Dsp/widget/wgt_core/UI_Controller.c ****     int16_t bar_start_x = 0;
 1770              		.loc 1 1002 13 view .LVU499
 1771 0030 0026     		movs	r6, #0
 1772              	.LVL161:
 1773              	.L173:
1013:Dsp/widget/wgt_core/UI_Controller.c **** 
1014:Dsp/widget/wgt_core/UI_Controller.c ****     dorbar_dsp = Obj->Gen_Data.x + 3;
 1774              		.loc 1 1014 5 is_stmt 1 view .LVU500
 1775              		.loc 1 1014 31 is_stmt 0 view .LVU501
 1776 0032 A588     		ldrh	r5, [r4, #4]	@ unaligned
 1777              		.loc 1 1014 34 view .LVU502
 1778 0034 EA1C     		adds	r2, r5, #3
 1779              	.LVL162:
1015:Dsp/widget/wgt_core/UI_Controller.c ****     UI_DspInterface.draw_str(base_font, Obj->Gen_Data.label, dorbar_dsp, Obj->Gen_Data.y - base_fon
 1780              		.loc 1 1015 5 is_stmt 1 view .LVU503
 1781              		.loc 1 1015 20 is_stmt 0 view .LVU504
 1782 0036 824B     		ldr	r3, .L181
 1783              	.LVL163:
 1784              		.loc 1 1015 20 view .LVU505
 1785 0038 D3F80080 		ldr	r8, [r3]
 1786              		.loc 1 1015 5 view .LVU506
 1787 003c 814B     		ldr	r3, .L181+4
 1788 003e 1878     		ldrb	r0, [r3]	@ zero_extendqisi2
 1789              	.LVL164:
 1790              		.loc 1 1015 87 view .LVU507
 1791 0040 E388     		ldrh	r3, [r4, #6]	@ unaligned
 1792              		.loc 1 1015 90 view .LVU508
 1793 0042 1B1A     		subs	r3, r3, r0
 1794 0044 9BB2     		uxth	r3, r3
 1795              		.loc 1 1015 102 view .LVU509
 1796 0046 043B     		subs	r3, r3, #4
 1797              		.loc 1 1015 5 view .LVU510
 1798 0048 4FF00109 		mov	r9, #1
 1799 004c CDF80090 		str	r9, [sp]
ARM GAS  /var/folders/lx/hc4sn_b53233_zkc9xbbl97r0000gp/T//ccErXOZH.s 			page 52


 1800 0050 1BB2     		sxth	r3, r3
 1801 0052 12B2     		sxth	r2, r2
 1802              		.loc 1 1015 5 view .LVU511
 1803 0054 2168     		ldr	r1, [r4]	@ unaligned
 1804 0056 C047     		blx	r8
 1805              	.LVL165:
1016:Dsp/widget/wgt_core/UI_Controller.c **** 
1017:Dsp/widget/wgt_core/UI_Controller.c ****     dorbar_dsp += 2;
 1806              		.loc 1 1017 5 is_stmt 1 view .LVU512
 1807              		.loc 1 1017 16 is_stmt 0 view .LVU513
 1808 0058 0535     		adds	r5, r5, #5
 1809              	.LVL166:
 1810              		.loc 1 1017 16 view .LVU514
 1811 005a 1FFA85F8 		uxth	r8, r5
 1812 005e 2DB2     		sxth	r5, r5
 1813              	.LVL167:
1018:Dsp/widget/wgt_core/UI_Controller.c ****     /* step  1 draw dot line */
1019:Dsp/widget/wgt_core/UI_Controller.c ****     UI_Draw_HorDotLine(dorbar_dsp, Obj->Gen_Data.y + 1, Obj->width, DEFAULT_PROCESSBAR_LINE_WIDTH);
 1814              		.loc 1 1019 5 is_stmt 1 view .LVU515
 1815              		.loc 1 1019 49 is_stmt 0 view .LVU516
 1816 0060 E188     		ldrh	r1, [r4, #6]	@ unaligned
 1817              		.loc 1 1019 52 view .LVU517
 1818 0062 4944     		add	r1, r1, r9
 1819              		.loc 1 1019 5 view .LVU518
 1820 0064 4B46     		mov	r3, r9
 1821 0066 94F82020 		ldrb	r2, [r4, #32]	@ zero_extendqisi2
 1822 006a 09B2     		sxth	r1, r1
 1823 006c 2846     		mov	r0, r5
 1824 006e FFF7FEFF 		bl	UI_Draw_HorDotLine
 1825              	.LVL168:
1020:Dsp/widget/wgt_core/UI_Controller.c **** 
1021:Dsp/widget/wgt_core/UI_Controller.c ****     if (Obj->Mv_Dir == UI_ProcBar_GrothFrom_Left)
 1826              		.loc 1 1021 5 is_stmt 1 view .LVU519
 1827              		.loc 1 1021 12 is_stmt 0 view .LVU520
 1828 0072 94F82430 		ldrb	r3, [r4, #36]	@ zero_extendqisi2
 1829              		.loc 1 1021 8 view .LVU521
 1830 0076 002B     		cmp	r3, #0
 1831 0078 49D1     		bne	.L174
1022:Dsp/widget/wgt_core/UI_Controller.c ****     {
1023:Dsp/widget/wgt_core/UI_Controller.c ****         bar_start_x = dorbar_dsp;
 1832              		.loc 1 1023 9 is_stmt 1 view .LVU522
 1833              	.LVL169:
1024:Dsp/widget/wgt_core/UI_Controller.c ****         Pcnt_Val = (Obj->cur_val / (float)Obj->range);
 1834              		.loc 1 1024 9 view .LVU523
 1835              		.loc 1 1024 24 is_stmt 0 view .LVU524
 1836 007a E369     		ldr	r3, [r4, #28]	@ unaligned
 1837 007c 07EE103A 		vmov	s14, r3	@ int
 1838              		.loc 1 1024 34 view .LVU525
 1839 0080 B8EEC77A 		vcvt.f32.s32	s14, s14
 1840              		.loc 1 1024 46 view .LVU526
 1841 0084 A369     		ldr	r3, [r4, #24]	@ unaligned
 1842 0086 07EE903A 		vmov	s15, r3	@ int
 1843              		.loc 1 1024 36 view .LVU527
 1844 008a F8EEE77A 		vcvt.f32.s32	s15, s15
 1845              		.loc 1 1024 18 view .LVU528
 1846 008e 87EE278A 		vdiv.f32	s16, s14, s15
 1847              	.LVL170:
ARM GAS  /var/folders/lx/hc4sn_b53233_zkc9xbbl97r0000gp/T//ccErXOZH.s 			page 53


1025:Dsp/widget/wgt_core/UI_Controller.c **** 
1026:Dsp/widget/wgt_core/UI_Controller.c ****         UI_DspInterface.draw_line_v(bar_start_x, Obj->Gen_Data.y - 1, 4, DEFAULT_PROCESSBAR_LINE_WI
 1848              		.loc 1 1026 9 is_stmt 1 view .LVU529
 1849              		.loc 1 1026 24 is_stmt 0 view .LVU530
 1850 0092 6B4F     		ldr	r7, .L181
 1851              	.LVL171:
 1852              		.loc 1 1026 63 view .LVU531
 1853 0094 E188     		ldrh	r1, [r4, #6]	@ unaligned
 1854              		.loc 1 1026 66 view .LVU532
 1855 0096 0139     		subs	r1, r1, #1
 1856              		.loc 1 1026 9 view .LVU533
 1857 0098 CDF80090 		str	r9, [sp]
 1858 009c 4B46     		mov	r3, r9
 1859 009e 0422     		movs	r2, #4
 1860 00a0 09B2     		sxth	r1, r1
 1861 00a2 2846     		mov	r0, r5
 1862 00a4 3E69     		ldr	r6, [r7, #16]
 1863              	.LVL172:
 1864              		.loc 1 1026 9 view .LVU534
 1865 00a6 B047     		blx	r6
 1866              	.LVL173:
1027:Dsp/widget/wgt_core/UI_Controller.c ****         UI_DspInterface.draw_line_h(bar_start_x, Obj->Gen_Data.y, Obj->width * Pcnt_Val, DEFAULT_PR
 1867              		.loc 1 1027 9 is_stmt 1 view .LVU535
 1868              		.loc 1 1027 70 is_stmt 0 view .LVU536
 1869 00a8 94F82030 		ldrb	r3, [r4, #32]	@ zero_extendqisi2
 1870 00ac 07EE903A 		vmov	s15, r3	@ int
 1871              		.loc 1 1027 78 view .LVU537
 1872 00b0 F8EEE77A 		vcvt.f32.s32	s15, s15
 1873 00b4 67EE887A 		vmul.f32	s15, s15, s16
 1874              		.loc 1 1027 9 view .LVU538
 1875 00b8 FCEEE77A 		vcvt.u32.f32	s15, s15
 1876 00bc CDED037A 		vstr.32	s15, [sp, #12]	@ int
 1877 00c0 CDF80090 		str	r9, [sp]
 1878 00c4 4B46     		mov	r3, r9
 1879 00c6 9DF80C20 		ldrb	r2, [sp, #12]	@ zero_extendqisi2
 1880 00ca B4F90610 		ldrsh	r1, [r4, #6]	@ unaligned
 1881 00ce 2846     		mov	r0, r5
 1882 00d0 FE68     		ldr	r6, [r7, #12]
 1883 00d2 B047     		blx	r6
 1884              	.LVL174:
1028:Dsp/widget/wgt_core/UI_Controller.c ****         UI_DspInterface.draw_line_h(bar_start_x, Obj->Gen_Data.y + 2, Obj->width * Pcnt_Val, DEFAUL
 1885              		.loc 1 1028 9 is_stmt 1 view .LVU539
 1886              		.loc 1 1028 24 is_stmt 0 view .LVU540
 1887 00d4 FF68     		ldr	r7, [r7, #12]
 1888              		.loc 1 1028 63 view .LVU541
 1889 00d6 E188     		ldrh	r1, [r4, #6]	@ unaligned
 1890              		.loc 1 1028 66 view .LVU542
 1891 00d8 0231     		adds	r1, r1, #2
 1892              		.loc 1 1028 74 view .LVU543
 1893 00da 94F82030 		ldrb	r3, [r4, #32]	@ zero_extendqisi2
 1894 00de 07EE903A 		vmov	s15, r3	@ int
 1895              		.loc 1 1028 82 view .LVU544
 1896 00e2 F8EEE77A 		vcvt.f32.s32	s15, s15
 1897 00e6 67EE887A 		vmul.f32	s15, s15, s16
 1898              		.loc 1 1028 9 view .LVU545
 1899 00ea FCEEE77A 		vcvt.u32.f32	s15, s15
 1900 00ee CDED037A 		vstr.32	s15, [sp, #12]	@ int
ARM GAS  /var/folders/lx/hc4sn_b53233_zkc9xbbl97r0000gp/T//ccErXOZH.s 			page 54


 1901 00f2 CDF80090 		str	r9, [sp]
 1902 00f6 4B46     		mov	r3, r9
 1903 00f8 9DF80C20 		ldrb	r2, [sp, #12]	@ zero_extendqisi2
 1904 00fc 09B2     		sxth	r1, r1
 1905 00fe 2846     		mov	r0, r5
 1906 0100 B847     		blx	r7
 1907              	.LVL175:
1029:Dsp/widget/wgt_core/UI_Controller.c ****     }
1030:Dsp/widget/wgt_core/UI_Controller.c ****     else if (Obj->Mv_Dir == UI_ProcBar_GrothFrom_Mid)
1031:Dsp/widget/wgt_core/UI_Controller.c ****     {
1032:Dsp/widget/wgt_core/UI_Controller.c ****         UI_DspInterface.draw_line_v(Obj->Gen_Data.x + bar_width / 2, Obj->Gen_Data.y - 1, 4, DEFAUL
1033:Dsp/widget/wgt_core/UI_Controller.c **** 
1034:Dsp/widget/wgt_core/UI_Controller.c ****         if (Obj->cur_val < mid_val)
1035:Dsp/widget/wgt_core/UI_Controller.c ****         {
1036:Dsp/widget/wgt_core/UI_Controller.c ****             Pcnt_Val = (((Obj->range / 2) - Obj->cur_val) / ((float)(Obj->range / 2)));
1037:Dsp/widget/wgt_core/UI_Controller.c ****             bar_start_x = dorbar_dsp + bar_width / 2 - (Pcnt_Val * bar_width / 2);
1038:Dsp/widget/wgt_core/UI_Controller.c ****             UI_DspInterface.draw_line_h(bar_start_x, Obj->Gen_Data.y, (Pcnt_Val * bar_width / 2), D
1039:Dsp/widget/wgt_core/UI_Controller.c ****             UI_DspInterface.draw_line_h(bar_start_x, Obj->Gen_Data.y + 2, (Pcnt_Val * bar_width / 2
1040:Dsp/widget/wgt_core/UI_Controller.c ****         }
1041:Dsp/widget/wgt_core/UI_Controller.c ****         else if (Obj->cur_val > mid_val)
1042:Dsp/widget/wgt_core/UI_Controller.c ****         {
1043:Dsp/widget/wgt_core/UI_Controller.c ****             Pcnt_Val = ((Obj->cur_val - (Obj->range / 2)) / ((float)(Obj->range / 2)));
1044:Dsp/widget/wgt_core/UI_Controller.c ****             bar_start_x = dorbar_dsp + bar_width / 2;
1045:Dsp/widget/wgt_core/UI_Controller.c ****             UI_DspInterface.draw_line_h(bar_start_x, Obj->Gen_Data.y, (Pcnt_Val * bar_width / 2), D
1046:Dsp/widget/wgt_core/UI_Controller.c ****             UI_DspInterface.draw_line_h(bar_start_x, Obj->Gen_Data.y + 2, (Pcnt_Val * bar_width / 2
1047:Dsp/widget/wgt_core/UI_Controller.c ****         }
1048:Dsp/widget/wgt_core/UI_Controller.c ****     }
1049:Dsp/widget/wgt_core/UI_Controller.c ****     else
1050:Dsp/widget/wgt_core/UI_Controller.c ****         return false;
1051:Dsp/widget/wgt_core/UI_Controller.c **** 
1052:Dsp/widget/wgt_core/UI_Controller.c ****     return true;
 1908              		.loc 1 1052 12 view .LVU546
 1909 0102 4846     		mov	r0, r9
 1910              	.LVL176:
 1911              	.L172:
1053:Dsp/widget/wgt_core/UI_Controller.c **** }
 1912              		.loc 1 1053 1 view .LVU547
 1913 0104 05B0     		add	sp, sp, #20
 1914              	.LCFI33:
 1915              		.cfi_remember_state
 1916              		.cfi_def_cfa_offset 44
 1917              		@ sp needed
 1918 0106 BDEC028B 		vldm	sp!, {d8}
 1919              	.LCFI34:
 1920              		.cfi_restore 80
 1921              		.cfi_restore 81
 1922              		.cfi_def_cfa_offset 36
 1923 010a BDE8F08F 		pop	{r4, r5, r6, r7, r8, r9, r10, fp, pc}
 1924              	.LVL177:
 1925              	.L174:
 1926              	.LCFI35:
 1927              		.cfi_restore_state
1030:Dsp/widget/wgt_core/UI_Controller.c ****     {
 1928              		.loc 1 1030 10 is_stmt 1 view .LVU548
1030:Dsp/widget/wgt_core/UI_Controller.c ****     {
 1929              		.loc 1 1030 13 is_stmt 0 view .LVU549
 1930 010e 012B     		cmp	r3, #1
ARM GAS  /var/folders/lx/hc4sn_b53233_zkc9xbbl97r0000gp/T//ccErXOZH.s 			page 55


 1931 0110 40F09280 		bne	.L178
1032:Dsp/widget/wgt_core/UI_Controller.c **** 
 1932              		.loc 1 1032 9 is_stmt 1 view .LVU550
1032:Dsp/widget/wgt_core/UI_Controller.c **** 
 1933              		.loc 1 1032 24 is_stmt 0 view .LVU551
 1934 0114 4A4B     		ldr	r3, .L181
 1935 0116 D3F810B0 		ldr	fp, [r3, #16]
1032:Dsp/widget/wgt_core/UI_Controller.c **** 
 1936              		.loc 1 1032 50 view .LVU552
 1937 011a A088     		ldrh	r0, [r4, #4]	@ unaligned
1032:Dsp/widget/wgt_core/UI_Controller.c **** 
 1938              		.loc 1 1032 53 view .LVU553
 1939 011c 4FEA5609 		lsr	r9, r6, #1
 1940 0120 00EB5600 		add	r0, r0, r6, lsr #1
1032:Dsp/widget/wgt_core/UI_Controller.c **** 
 1941              		.loc 1 1032 83 view .LVU554
 1942 0124 E188     		ldrh	r1, [r4, #6]	@ unaligned
1032:Dsp/widget/wgt_core/UI_Controller.c **** 
 1943              		.loc 1 1032 86 view .LVU555
 1944 0126 0139     		subs	r1, r1, #1
1032:Dsp/widget/wgt_core/UI_Controller.c **** 
 1945              		.loc 1 1032 9 view .LVU556
 1946 0128 0123     		movs	r3, #1
 1947 012a 0093     		str	r3, [sp]
 1948 012c 0422     		movs	r2, #4
 1949 012e 09B2     		sxth	r1, r1
 1950 0130 00B2     		sxth	r0, r0
 1951 0132 D847     		blx	fp
 1952              	.LVL178:
1034:Dsp/widget/wgt_core/UI_Controller.c ****         {
 1953              		.loc 1 1034 9 is_stmt 1 view .LVU557
1034:Dsp/widget/wgt_core/UI_Controller.c ****         {
 1954              		.loc 1 1034 16 is_stmt 0 view .LVU558
 1955 0134 E369     		ldr	r3, [r4, #28]	@ unaligned
1034:Dsp/widget/wgt_core/UI_Controller.c ****         {
 1956              		.loc 1 1034 12 view .LVU559
 1957 0136 BB42     		cmp	r3, r7
 1958 0138 42DA     		bge	.L175
1036:Dsp/widget/wgt_core/UI_Controller.c ****             bar_start_x = dorbar_dsp + bar_width / 2 - (Pcnt_Val * bar_width / 2);
 1959              		.loc 1 1036 13 is_stmt 1 view .LVU560
1036:Dsp/widget/wgt_core/UI_Controller.c ****             bar_start_x = dorbar_dsp + bar_width / 2 - (Pcnt_Val * bar_width / 2);
 1960              		.loc 1 1036 30 is_stmt 0 view .LVU561
 1961 013a A269     		ldr	r2, [r4, #24]	@ unaligned
1036:Dsp/widget/wgt_core/UI_Controller.c ****             bar_start_x = dorbar_dsp + bar_width / 2 - (Pcnt_Val * bar_width / 2);
 1962              		.loc 1 1036 38 view .LVU562
 1963 013c 02EBD272 		add	r2, r2, r2, lsr #31
 1964 0140 5110     		asrs	r1, r2, #1
 1965 0142 06EE901A 		vmov	s13, r1	@ int
1036:Dsp/widget/wgt_core/UI_Controller.c ****             bar_start_x = dorbar_dsp + bar_width / 2 - (Pcnt_Val * bar_width / 2);
 1966              		.loc 1 1036 43 view .LVU563
 1967 0146 C3EB6203 		rsb	r3, r3, r2, asr #1
1036:Dsp/widget/wgt_core/UI_Controller.c ****             bar_start_x = dorbar_dsp + bar_width / 2 - (Pcnt_Val * bar_width / 2);
 1968              		.loc 1 1036 59 view .LVU564
 1969 014a 07EE903A 		vmov	s15, r3	@ int
 1970 014e F8EEE77A 		vcvt.f32.s32	s15, s15
1036:Dsp/widget/wgt_core/UI_Controller.c ****             bar_start_x = dorbar_dsp + bar_width / 2 - (Pcnt_Val * bar_width / 2);
 1971              		.loc 1 1036 62 view .LVU565
ARM GAS  /var/folders/lx/hc4sn_b53233_zkc9xbbl97r0000gp/T//ccErXOZH.s 			page 56


 1972 0152 F8EEE66A 		vcvt.f32.s32	s13, s13
1036:Dsp/widget/wgt_core/UI_Controller.c ****             bar_start_x = dorbar_dsp + bar_width / 2 - (Pcnt_Val * bar_width / 2);
 1973              		.loc 1 1036 22 view .LVU566
 1974 0156 87EEA66A 		vdiv.f32	s12, s15, s13
 1975              	.LVL179:
1037:Dsp/widget/wgt_core/UI_Controller.c ****             UI_DspInterface.draw_line_h(bar_start_x, Obj->Gen_Data.y, (Pcnt_Val * bar_width / 2), D
 1976              		.loc 1 1037 13 is_stmt 1 view .LVU567
1037:Dsp/widget/wgt_core/UI_Controller.c ****             UI_DspInterface.draw_line_h(bar_start_x, Obj->Gen_Data.y, (Pcnt_Val * bar_width / 2), D
 1977              		.loc 1 1037 38 is_stmt 0 view .LVU568
 1978 015a 05EB0903 		add	r3, r5, r9
 1979 015e 07EE903A 		vmov	s15, r3	@ int
1037:Dsp/widget/wgt_core/UI_Controller.c ****             UI_DspInterface.draw_line_h(bar_start_x, Obj->Gen_Data.y, (Pcnt_Val * bar_width / 2), D
 1980              		.loc 1 1037 66 view .LVU569
 1981 0162 07EE106A 		vmov	s14, r6	@ int
 1982 0166 B8EEC77A 		vcvt.f32.s32	s14, s14
 1983 016a 27EE067A 		vmul.f32	s14, s14, s12
1037:Dsp/widget/wgt_core/UI_Controller.c ****             UI_DspInterface.draw_line_h(bar_start_x, Obj->Gen_Data.y, (Pcnt_Val * bar_width / 2), D
 1984              		.loc 1 1037 78 view .LVU570
 1985 016e F6EE006A 		vmov.f32	s13, #5.0e-1
 1986 0172 27EE267A 		vmul.f32	s14, s14, s13
1037:Dsp/widget/wgt_core/UI_Controller.c ****             UI_DspInterface.draw_line_h(bar_start_x, Obj->Gen_Data.y, (Pcnt_Val * bar_width / 2), D
 1987              		.loc 1 1037 54 view .LVU571
 1988 0176 F8EEE77A 		vcvt.f32.s32	s15, s15
 1989 017a 77EEC77A 		vsub.f32	s15, s15, s14
1037:Dsp/widget/wgt_core/UI_Controller.c ****             UI_DspInterface.draw_line_h(bar_start_x, Obj->Gen_Data.y, (Pcnt_Val * bar_width / 2), D
 1990              		.loc 1 1037 25 view .LVU572
 1991 017e FDEEE77A 		vcvt.s32.f32	s15, s15
 1992 0182 17EE903A 		vmov	r3, s15	@ int
 1993 0186 0FFA83F9 		sxth	r9, r3
 1994              	.LVL180:
1038:Dsp/widget/wgt_core/UI_Controller.c ****             UI_DspInterface.draw_line_h(bar_start_x, Obj->Gen_Data.y + 2, (Pcnt_Val * bar_width / 2
 1995              		.loc 1 1038 13 is_stmt 1 view .LVU573
1038:Dsp/widget/wgt_core/UI_Controller.c ****             UI_DspInterface.draw_line_h(bar_start_x, Obj->Gen_Data.y + 2, (Pcnt_Val * bar_width / 2
 1996              		.loc 1 1038 28 is_stmt 0 view .LVU574
 1997 018a 2D4F     		ldr	r7, .L181
 1998              	.LVL181:
1038:Dsp/widget/wgt_core/UI_Controller.c ****             UI_DspInterface.draw_line_h(bar_start_x, Obj->Gen_Data.y + 2, (Pcnt_Val * bar_width / 2
 1999              		.loc 1 1038 13 view .LVU575
 2000 018c FCEEC77A 		vcvt.u32.f32	s15, s14
 2001 0190 CDED037A 		vstr.32	s15, [sp, #12]	@ int
 2002 0194 9DF80C80 		ldrb	r8, [sp, #12]	@ zero_extendqisi2
 2003 0198 0126     		movs	r6, #1
 2004              	.LVL182:
1038:Dsp/widget/wgt_core/UI_Controller.c ****             UI_DspInterface.draw_line_h(bar_start_x, Obj->Gen_Data.y + 2, (Pcnt_Val * bar_width / 2
 2005              		.loc 1 1038 13 view .LVU576
 2006 019a 0096     		str	r6, [sp]
 2007 019c 3346     		mov	r3, r6
 2008 019e 4246     		mov	r2, r8
 2009 01a0 B4F90610 		ldrsh	r1, [r4, #6]	@ unaligned
 2010 01a4 4846     		mov	r0, r9
 2011 01a6 FD68     		ldr	r5, [r7, #12]
 2012              	.LVL183:
1038:Dsp/widget/wgt_core/UI_Controller.c ****             UI_DspInterface.draw_line_h(bar_start_x, Obj->Gen_Data.y + 2, (Pcnt_Val * bar_width / 2
 2013              		.loc 1 1038 13 view .LVU577
 2014 01a8 A847     		blx	r5
 2015              	.LVL184:
1039:Dsp/widget/wgt_core/UI_Controller.c ****         }
ARM GAS  /var/folders/lx/hc4sn_b53233_zkc9xbbl97r0000gp/T//ccErXOZH.s 			page 57


 2016              		.loc 1 1039 13 is_stmt 1 view .LVU578
1039:Dsp/widget/wgt_core/UI_Controller.c ****         }
 2017              		.loc 1 1039 28 is_stmt 0 view .LVU579
 2018 01aa FF68     		ldr	r7, [r7, #12]
1039:Dsp/widget/wgt_core/UI_Controller.c ****         }
 2019              		.loc 1 1039 67 view .LVU580
 2020 01ac E188     		ldrh	r1, [r4, #6]	@ unaligned
1039:Dsp/widget/wgt_core/UI_Controller.c ****         }
 2021              		.loc 1 1039 70 view .LVU581
 2022 01ae 0231     		adds	r1, r1, #2
1039:Dsp/widget/wgt_core/UI_Controller.c ****         }
 2023              		.loc 1 1039 13 view .LVU582
 2024 01b0 0096     		str	r6, [sp]
 2025 01b2 3346     		mov	r3, r6
 2026 01b4 4246     		mov	r2, r8
 2027 01b6 09B2     		sxth	r1, r1
 2028 01b8 4846     		mov	r0, r9
 2029 01ba B847     		blx	r7
 2030              	.LVL185:
1052:Dsp/widget/wgt_core/UI_Controller.c **** }
 2031              		.loc 1 1052 12 view .LVU583
 2032 01bc 3046     		mov	r0, r6
 2033 01be A1E7     		b	.L172
 2034              	.LVL186:
 2035              	.L175:
1041:Dsp/widget/wgt_core/UI_Controller.c ****         {
 2036              		.loc 1 1041 14 is_stmt 1 view .LVU584
1041:Dsp/widget/wgt_core/UI_Controller.c ****         {
 2037              		.loc 1 1041 17 is_stmt 0 view .LVU585
 2038 01c0 BB42     		cmp	r3, r7
 2039 01c2 3BDD     		ble	.L179
1043:Dsp/widget/wgt_core/UI_Controller.c ****             bar_start_x = dorbar_dsp + bar_width / 2;
 2040              		.loc 1 1043 13 is_stmt 1 view .LVU586
1043:Dsp/widget/wgt_core/UI_Controller.c ****             bar_start_x = dorbar_dsp + bar_width / 2;
 2041              		.loc 1 1043 45 is_stmt 0 view .LVU587
 2042 01c4 A269     		ldr	r2, [r4, #24]	@ unaligned
1043:Dsp/widget/wgt_core/UI_Controller.c ****             bar_start_x = dorbar_dsp + bar_width / 2;
 2043              		.loc 1 1043 53 view .LVU588
 2044 01c6 02EBD272 		add	r2, r2, r2, lsr #31
1043:Dsp/widget/wgt_core/UI_Controller.c ****             bar_start_x = dorbar_dsp + bar_width / 2;
 2045              		.loc 1 1043 39 view .LVU589
 2046 01ca A3EB6203 		sub	r3, r3, r2, asr #1
1043:Dsp/widget/wgt_core/UI_Controller.c ****             bar_start_x = dorbar_dsp + bar_width / 2;
 2047              		.loc 1 1043 59 view .LVU590
 2048 01ce 07EE903A 		vmov	s15, r3	@ int
 2049 01d2 B8EEE77A 		vcvt.f32.s32	s14, s15
1043:Dsp/widget/wgt_core/UI_Controller.c ****             bar_start_x = dorbar_dsp + bar_width / 2;
 2050              		.loc 1 1043 81 view .LVU591
 2051 01d6 5210     		asrs	r2, r2, #1
1043:Dsp/widget/wgt_core/UI_Controller.c ****             bar_start_x = dorbar_dsp + bar_width / 2;
 2052              		.loc 1 1043 62 view .LVU592
 2053 01d8 07EE902A 		vmov	s15, r2	@ int
 2054 01dc F8EEE76A 		vcvt.f32.s32	s13, s15
1043:Dsp/widget/wgt_core/UI_Controller.c ****             bar_start_x = dorbar_dsp + bar_width / 2;
 2055              		.loc 1 1043 22 view .LVU593
 2056 01e0 87EE266A 		vdiv.f32	s12, s14, s13
 2057              	.LVL187:
ARM GAS  /var/folders/lx/hc4sn_b53233_zkc9xbbl97r0000gp/T//ccErXOZH.s 			page 58


1044:Dsp/widget/wgt_core/UI_Controller.c ****             UI_DspInterface.draw_line_h(bar_start_x, Obj->Gen_Data.y, (Pcnt_Val * bar_width / 2), D
 2058              		.loc 1 1044 13 is_stmt 1 view .LVU594
1044:Dsp/widget/wgt_core/UI_Controller.c ****             UI_DspInterface.draw_line_h(bar_start_x, Obj->Gen_Data.y, (Pcnt_Val * bar_width / 2), D
 2059              		.loc 1 1044 38 is_stmt 0 view .LVU595
 2060 01e4 C844     		add	r8, r8, r9
1044:Dsp/widget/wgt_core/UI_Controller.c ****             UI_DspInterface.draw_line_h(bar_start_x, Obj->Gen_Data.y, (Pcnt_Val * bar_width / 2), D
 2061              		.loc 1 1044 25 view .LVU596
 2062 01e6 0FFA88F8 		sxth	r8, r8
 2063              	.LVL188:
1045:Dsp/widget/wgt_core/UI_Controller.c ****             UI_DspInterface.draw_line_h(bar_start_x, Obj->Gen_Data.y + 2, (Pcnt_Val * bar_width / 2
 2064              		.loc 1 1045 13 is_stmt 1 view .LVU597
1045:Dsp/widget/wgt_core/UI_Controller.c ****             UI_DspInterface.draw_line_h(bar_start_x, Obj->Gen_Data.y + 2, (Pcnt_Val * bar_width / 2
 2065              		.loc 1 1045 28 is_stmt 0 view .LVU598
 2066 01ea 154D     		ldr	r5, .L181
 2067              	.LVL189:
1045:Dsp/widget/wgt_core/UI_Controller.c ****             UI_DspInterface.draw_line_h(bar_start_x, Obj->Gen_Data.y + 2, (Pcnt_Val * bar_width / 2
 2068              		.loc 1 1045 81 view .LVU599
 2069 01ec 07EE906A 		vmov	s15, r6	@ int
 2070 01f0 F8EEE77A 		vcvt.f32.s32	s15, s15
 2071 01f4 67EE867A 		vmul.f32	s15, s15, s12
1045:Dsp/widget/wgt_core/UI_Controller.c ****             UI_DspInterface.draw_line_h(bar_start_x, Obj->Gen_Data.y + 2, (Pcnt_Val * bar_width / 2
 2072              		.loc 1 1045 93 view .LVU600
 2073 01f8 B6EE007A 		vmov.f32	s14, #5.0e-1
 2074 01fc 67EE877A 		vmul.f32	s15, s15, s14
1045:Dsp/widget/wgt_core/UI_Controller.c ****             UI_DspInterface.draw_line_h(bar_start_x, Obj->Gen_Data.y + 2, (Pcnt_Val * bar_width / 2
 2075              		.loc 1 1045 13 view .LVU601
 2076 0200 FCEEE77A 		vcvt.u32.f32	s15, s15
 2077 0204 CDED037A 		vstr.32	s15, [sp, #12]	@ int
 2078 0208 9DF80C90 		ldrb	r9, [sp, #12]	@ zero_extendqisi2
 2079 020c 0126     		movs	r6, #1
 2080              	.LVL190:
1045:Dsp/widget/wgt_core/UI_Controller.c ****             UI_DspInterface.draw_line_h(bar_start_x, Obj->Gen_Data.y + 2, (Pcnt_Val * bar_width / 2
 2081              		.loc 1 1045 13 view .LVU602
 2082 020e 0096     		str	r6, [sp]
 2083 0210 3346     		mov	r3, r6
 2084 0212 4A46     		mov	r2, r9
 2085 0214 B4F90610 		ldrsh	r1, [r4, #6]	@ unaligned
 2086 0218 4046     		mov	r0, r8
 2087 021a EF68     		ldr	r7, [r5, #12]
 2088              	.LVL191:
1045:Dsp/widget/wgt_core/UI_Controller.c ****             UI_DspInterface.draw_line_h(bar_start_x, Obj->Gen_Data.y + 2, (Pcnt_Val * bar_width / 2
 2089              		.loc 1 1045 13 view .LVU603
 2090 021c B847     		blx	r7
 2091              	.LVL192:
1046:Dsp/widget/wgt_core/UI_Controller.c ****         }
 2092              		.loc 1 1046 13 is_stmt 1 view .LVU604
1046:Dsp/widget/wgt_core/UI_Controller.c ****         }
 2093              		.loc 1 1046 28 is_stmt 0 view .LVU605
 2094 021e ED68     		ldr	r5, [r5, #12]
1046:Dsp/widget/wgt_core/UI_Controller.c ****         }
 2095              		.loc 1 1046 67 view .LVU606
 2096 0220 E188     		ldrh	r1, [r4, #6]	@ unaligned
1046:Dsp/widget/wgt_core/UI_Controller.c ****         }
 2097              		.loc 1 1046 70 view .LVU607
 2098 0222 0231     		adds	r1, r1, #2
1046:Dsp/widget/wgt_core/UI_Controller.c ****         }
 2099              		.loc 1 1046 13 view .LVU608
ARM GAS  /var/folders/lx/hc4sn_b53233_zkc9xbbl97r0000gp/T//ccErXOZH.s 			page 59


 2100 0224 0096     		str	r6, [sp]
 2101 0226 3346     		mov	r3, r6
 2102 0228 4A46     		mov	r2, r9
 2103 022a 09B2     		sxth	r1, r1
 2104 022c 4046     		mov	r0, r8
 2105 022e A847     		blx	r5
 2106              	.LVL193:
1052:Dsp/widget/wgt_core/UI_Controller.c **** }
 2107              		.loc 1 1052 12 view .LVU609
 2108 0230 3046     		mov	r0, r6
 2109 0232 67E7     		b	.L172
 2110              	.LVL194:
 2111              	.L176:
1009:Dsp/widget/wgt_core/UI_Controller.c **** 
 2112              		.loc 1 1009 16 view .LVU610
 2113 0234 0020     		movs	r0, #0
 2114              	.LVL195:
1009:Dsp/widget/wgt_core/UI_Controller.c **** 
 2115              		.loc 1 1009 16 view .LVU611
 2116 0236 65E7     		b	.L172
 2117              	.LVL196:
 2118              	.L178:
1050:Dsp/widget/wgt_core/UI_Controller.c **** 
 2119              		.loc 1 1050 16 view .LVU612
 2120 0238 0020     		movs	r0, #0
 2121 023a 63E7     		b	.L172
 2122              	.L179:
1052:Dsp/widget/wgt_core/UI_Controller.c **** }
 2123              		.loc 1 1052 12 view .LVU613
 2124 023c 0120     		movs	r0, #1
 2125 023e 61E7     		b	.L172
 2126              	.L182:
 2127              		.align	2
 2128              	.L181:
 2129 0240 00000000 		.word	.LANCHOR0
 2130 0244 00000000 		.word	.LANCHOR2
 2131              		.cfi_endproc
 2132              	.LFE37:
 2134              		.section	.text.UI_ProcessBar_DspFrameBar,"ax",%progbits
 2135              		.align	1
 2136              		.syntax unified
 2137              		.thumb
 2138              		.thumb_func
 2139              		.fpu fpv4-sp-d16
 2141              	UI_ProcessBar_DspFrameBar:
 2142              	.LVL197:
 2143              	.LFB38:
1054:Dsp/widget/wgt_core/UI_Controller.c **** 
1055:Dsp/widget/wgt_core/UI_Controller.c **** static bool UI_ProcessBar_DspFrameBar(UI_ProcessBarObj_TypeDef *Obj)
1056:Dsp/widget/wgt_core/UI_Controller.c **** {
 2144              		.loc 1 1056 1 is_stmt 1 view -0
 2145              		.cfi_startproc
 2146              		@ args = 0, pretend = 0, frame = 8
 2147              		@ frame_needed = 0, uses_anonymous_args = 0
 2148              		.loc 1 1056 1 is_stmt 0 view .LVU615
 2149 0000 2DE9F047 		push	{r4, r5, r6, r7, r8, r9, r10, lr}
 2150              	.LCFI36:
ARM GAS  /var/folders/lx/hc4sn_b53233_zkc9xbbl97r0000gp/T//ccErXOZH.s 			page 60


 2151              		.cfi_def_cfa_offset 32
 2152              		.cfi_offset 4, -32
 2153              		.cfi_offset 5, -28
 2154              		.cfi_offset 6, -24
 2155              		.cfi_offset 7, -20
 2156              		.cfi_offset 8, -16
 2157              		.cfi_offset 9, -12
 2158              		.cfi_offset 10, -8
 2159              		.cfi_offset 14, -4
 2160 0004 84B0     		sub	sp, sp, #16
 2161              	.LCFI37:
 2162              		.cfi_def_cfa_offset 48
 2163 0006 0446     		mov	r4, r0
1057:Dsp/widget/wgt_core/UI_Controller.c ****     int16_t frame_CoordX = 0;
 2164              		.loc 1 1057 5 is_stmt 1 view .LVU616
 2165              	.LVL198:
1058:Dsp/widget/wgt_core/UI_Controller.c ****     uint8_t frame_width = 0;
 2166              		.loc 1 1058 5 view .LVU617
1059:Dsp/widget/wgt_core/UI_Controller.c ****     uint8_t frame_Height = 0;
 2167              		.loc 1 1059 5 view .LVU618
1060:Dsp/widget/wgt_core/UI_Controller.c ****     int16_t block_start_CoordX = 0;
 2168              		.loc 1 1060 5 view .LVU619
1061:Dsp/widget/wgt_core/UI_Controller.c ****     int16_t block_start_CoordY = 0;
 2169              		.loc 1 1061 5 view .LVU620
1062:Dsp/widget/wgt_core/UI_Controller.c ****     int16_t bar_len = 0;
 2170              		.loc 1 1062 5 view .LVU621
1063:Dsp/widget/wgt_core/UI_Controller.c ****     int16_t mid_val = Obj->min + (Obj->range / 2);
 2171              		.loc 1 1063 5 view .LVU622
 2172              		.loc 1 1063 26 is_stmt 0 view .LVU623
 2173 0008 0269     		ldr	r2, [r0, #16]	@ unaligned
 2174              		.loc 1 1063 38 view .LVU624
 2175 000a 8369     		ldr	r3, [r0, #24]	@ unaligned
 2176              		.loc 1 1063 46 view .LVU625
 2177 000c 03EBD373 		add	r3, r3, r3, lsr #31
 2178              		.loc 1 1063 32 view .LVU626
 2179 0010 02EB6303 		add	r3, r2, r3, asr #1
 2180              		.loc 1 1063 13 view .LVU627
 2181 0014 0FFA83FA 		sxth	r10, r3
 2182              	.LVL199:
1064:Dsp/widget/wgt_core/UI_Controller.c ****     float Pcnt_Val = 0;
 2183              		.loc 1 1064 5 is_stmt 1 view .LVU628
1065:Dsp/widget/wgt_core/UI_Controller.c **** 
1066:Dsp/widget/wgt_core/UI_Controller.c ****     if ((Obj == NULL) &&
 2184              		.loc 1 1066 5 view .LVU629
 2185              		.loc 1 1066 8 is_stmt 0 view .LVU630
 2186 0018 50B1     		cbz	r0, .L195
 2187              	.L184:
1067:Dsp/widget/wgt_core/UI_Controller.c ****         (UI_DspInterface.draw_str == NULL) &&
1068:Dsp/widget/wgt_core/UI_Controller.c ****         (UI_DspInterface.draw_rectangle == NULL) &&
1069:Dsp/widget/wgt_core/UI_Controller.c ****         (UI_DspInterface.draw_line_h == NULL) &&
1070:Dsp/widget/wgt_core/UI_Controller.c ****         (UI_DspInterface.fill_rectangle == NULL))
1071:Dsp/widget/wgt_core/UI_Controller.c ****         return false;
1072:Dsp/widget/wgt_core/UI_Controller.c **** 
1073:Dsp/widget/wgt_core/UI_Controller.c ****     frame_CoordX = Obj->Gen_Data.x + strlen(Obj->Gen_Data.label) * STR_DIS + 5;
 2188              		.loc 1 1073 5 is_stmt 1 view .LVU631
 2189              		.loc 1 1073 33 is_stmt 0 view .LVU632
 2190 001a B4F90420 		ldrsh	r2, [r4, #4]	@ unaligned
ARM GAS  /var/folders/lx/hc4sn_b53233_zkc9xbbl97r0000gp/T//ccErXOZH.s 			page 61


 2191              		.loc 1 1073 58 view .LVU633
 2192 001e 2168     		ldr	r1, [r4]	@ unaligned
 2193              	.LVL200:
1074:Dsp/widget/wgt_core/UI_Controller.c **** 
1075:Dsp/widget/wgt_core/UI_Controller.c ****     switch (base_font)
 2194              		.loc 1 1075 5 is_stmt 1 view .LVU634
 2195 0020 724B     		ldr	r3, .L197
 2196 0022 1878     		ldrb	r0, [r3]	@ zero_extendqisi2
 2197              	.LVL201:
 2198              		.loc 1 1075 5 is_stmt 0 view .LVU635
 2199 0024 0828     		cmp	r0, #8
 2200 0026 15D0     		beq	.L196
1076:Dsp/widget/wgt_core/UI_Controller.c ****     {
1077:Dsp/widget/wgt_core/UI_Controller.c ****     case Font_8:
1078:Dsp/widget/wgt_core/UI_Controller.c ****         frame_Height = 5;
1079:Dsp/widget/wgt_core/UI_Controller.c ****         break;
1080:Dsp/widget/wgt_core/UI_Controller.c **** 
1081:Dsp/widget/wgt_core/UI_Controller.c ****     case Font_12:
1082:Dsp/widget/wgt_core/UI_Controller.c ****     case Font_16:
1083:Dsp/widget/wgt_core/UI_Controller.c ****     default:
1084:Dsp/widget/wgt_core/UI_Controller.c ****         return false;
 2201              		.loc 1 1084 16 view .LVU636
 2202 0028 0020     		movs	r0, #0
 2203              	.LVL202:
 2204              	.L185:
1085:Dsp/widget/wgt_core/UI_Controller.c ****     }
1086:Dsp/widget/wgt_core/UI_Controller.c **** 
1087:Dsp/widget/wgt_core/UI_Controller.c ****     if (Obj->width % 2 == 0)
1088:Dsp/widget/wgt_core/UI_Controller.c ****         frame_width = Obj->width + 1;
1089:Dsp/widget/wgt_core/UI_Controller.c **** 
1090:Dsp/widget/wgt_core/UI_Controller.c ****     UI_DspInterface.draw_str(base_font, Obj->Gen_Data.label, Obj->Gen_Data.x, Obj->Gen_Data.y - bas
1091:Dsp/widget/wgt_core/UI_Controller.c ****     UI_DspInterface.draw_rectangle(Obj->Gen_Data.x, Obj->Gen_Data.y, frame_width, frame_Height, DEF
1092:Dsp/widget/wgt_core/UI_Controller.c **** 
1093:Dsp/widget/wgt_core/UI_Controller.c ****     if (Obj->Mv_Dir == UI_ProcBar_GrothFrom_Left)
1094:Dsp/widget/wgt_core/UI_Controller.c ****     {
1095:Dsp/widget/wgt_core/UI_Controller.c ****         block_start_CoordX = Obj->Gen_Data.x + 2;
1096:Dsp/widget/wgt_core/UI_Controller.c ****         block_start_CoordY = Obj->Gen_Data.y + 2;
1097:Dsp/widget/wgt_core/UI_Controller.c **** 
1098:Dsp/widget/wgt_core/UI_Controller.c ****         bar_len = (Obj->cur_val / (float)Obj->range) * (frame_width - 5);
1099:Dsp/widget/wgt_core/UI_Controller.c **** 
1100:Dsp/widget/wgt_core/UI_Controller.c ****         UI_DspInterface.draw_line_h(block_start_CoordX, block_start_CoordY, bar_len, DEFAULT_PROCES
1101:Dsp/widget/wgt_core/UI_Controller.c ****     }
1102:Dsp/widget/wgt_core/UI_Controller.c ****     else if (Obj->Mv_Dir == UI_ProcBar_GrothFrom_Mid)
1103:Dsp/widget/wgt_core/UI_Controller.c ****     {
1104:Dsp/widget/wgt_core/UI_Controller.c ****         UI_DspInterface.draw_line_v(Obj->Gen_Data.x + frame_width / 2, Obj->Gen_Data.y, frame_Heigh
1105:Dsp/widget/wgt_core/UI_Controller.c ****         block_start_CoordY = Obj->Gen_Data.y + 2;
1106:Dsp/widget/wgt_core/UI_Controller.c **** 
1107:Dsp/widget/wgt_core/UI_Controller.c ****         if (Obj->cur_val < mid_val)
1108:Dsp/widget/wgt_core/UI_Controller.c ****         {
1109:Dsp/widget/wgt_core/UI_Controller.c ****             Pcnt_Val = (((Obj->range / 2) - Obj->cur_val) / ((float)(Obj->range / 2)));
1110:Dsp/widget/wgt_core/UI_Controller.c ****             block_start_CoordX = Obj->Gen_Data.x + 1 + frame_width / 2 - (Pcnt_Val * (frame_width -
1111:Dsp/widget/wgt_core/UI_Controller.c ****             UI_DspInterface.draw_line_h(block_start_CoordX, block_start_CoordY, (Pcnt_Val * (frame_
1112:Dsp/widget/wgt_core/UI_Controller.c ****         }
1113:Dsp/widget/wgt_core/UI_Controller.c ****         else if (Obj->cur_val > mid_val)
1114:Dsp/widget/wgt_core/UI_Controller.c ****         {
1115:Dsp/widget/wgt_core/UI_Controller.c ****             Pcnt_Val = ((Obj->cur_val - (Obj->range / 2)) / ((float)(Obj->range / 2)));
1116:Dsp/widget/wgt_core/UI_Controller.c **** 
ARM GAS  /var/folders/lx/hc4sn_b53233_zkc9xbbl97r0000gp/T//ccErXOZH.s 			page 62


1117:Dsp/widget/wgt_core/UI_Controller.c ****             block_start_CoordX = Obj->Gen_Data.x + frame_width / 2;
1118:Dsp/widget/wgt_core/UI_Controller.c ****             UI_DspInterface.draw_line_h(block_start_CoordX, block_start_CoordY, (Pcnt_Val * (frame_
1119:Dsp/widget/wgt_core/UI_Controller.c ****         }
1120:Dsp/widget/wgt_core/UI_Controller.c ****     }
1121:Dsp/widget/wgt_core/UI_Controller.c ****     else
1122:Dsp/widget/wgt_core/UI_Controller.c ****         return false;
1123:Dsp/widget/wgt_core/UI_Controller.c **** 
1124:Dsp/widget/wgt_core/UI_Controller.c ****     return true;
1125:Dsp/widget/wgt_core/UI_Controller.c **** }
 2205              		.loc 1 1125 1 view .LVU637
 2206 002a 04B0     		add	sp, sp, #16
 2207              	.LCFI38:
 2208              		.cfi_remember_state
 2209              		.cfi_def_cfa_offset 32
 2210              		@ sp needed
 2211 002c BDE8F087 		pop	{r4, r5, r6, r7, r8, r9, r10, pc}
 2212              	.LVL203:
 2213              	.L195:
 2214              	.LCFI39:
 2215              		.cfi_restore_state
1067:Dsp/widget/wgt_core/UI_Controller.c ****         (UI_DspInterface.draw_rectangle == NULL) &&
 2216              		.loc 1 1067 25 discriminator 1 view .LVU638
 2217 0030 6F4B     		ldr	r3, .L197+4
 2218 0032 1B68     		ldr	r3, [r3]
1066:Dsp/widget/wgt_core/UI_Controller.c ****         (UI_DspInterface.draw_str == NULL) &&
 2219              		.loc 1 1066 23 discriminator 1 view .LVU639
 2220 0034 002B     		cmp	r3, #0
 2221 0036 F0D1     		bne	.L184
1068:Dsp/widget/wgt_core/UI_Controller.c ****         (UI_DspInterface.draw_line_h == NULL) &&
 2222              		.loc 1 1068 25 view .LVU640
 2223 0038 6D4B     		ldr	r3, .L197+4
 2224 003a 9B69     		ldr	r3, [r3, #24]
1067:Dsp/widget/wgt_core/UI_Controller.c ****         (UI_DspInterface.draw_rectangle == NULL) &&
 2225              		.loc 1 1067 44 view .LVU641
 2226 003c 002B     		cmp	r3, #0
 2227 003e ECD1     		bne	.L184
1069:Dsp/widget/wgt_core/UI_Controller.c ****         (UI_DspInterface.fill_rectangle == NULL))
 2228              		.loc 1 1069 25 view .LVU642
 2229 0040 6B4B     		ldr	r3, .L197+4
 2230 0042 DB68     		ldr	r3, [r3, #12]
1068:Dsp/widget/wgt_core/UI_Controller.c ****         (UI_DspInterface.draw_line_h == NULL) &&
 2231              		.loc 1 1068 50 view .LVU643
 2232 0044 002B     		cmp	r3, #0
 2233 0046 E8D1     		bne	.L184
1070:Dsp/widget/wgt_core/UI_Controller.c ****         return false;
 2234              		.loc 1 1070 25 view .LVU644
 2235 0048 694B     		ldr	r3, .L197+4
 2236 004a 5B6A     		ldr	r3, [r3, #36]
1069:Dsp/widget/wgt_core/UI_Controller.c ****         (UI_DspInterface.fill_rectangle == NULL))
 2237              		.loc 1 1069 47 view .LVU645
 2238 004c 002B     		cmp	r3, #0
 2239 004e E4D1     		bne	.L184
1071:Dsp/widget/wgt_core/UI_Controller.c **** 
 2240              		.loc 1 1071 16 view .LVU646
 2241 0050 0020     		movs	r0, #0
 2242              	.LVL204:
1071:Dsp/widget/wgt_core/UI_Controller.c **** 
ARM GAS  /var/folders/lx/hc4sn_b53233_zkc9xbbl97r0000gp/T//ccErXOZH.s 			page 63


 2243              		.loc 1 1071 16 view .LVU647
 2244 0052 EAE7     		b	.L185
 2245              	.LVL205:
 2246              	.L196:
1078:Dsp/widget/wgt_core/UI_Controller.c ****         break;
 2247              		.loc 1 1078 9 is_stmt 1 view .LVU648
1079:Dsp/widget/wgt_core/UI_Controller.c **** 
 2248              		.loc 1 1079 9 view .LVU649
1087:Dsp/widget/wgt_core/UI_Controller.c ****         frame_width = Obj->width + 1;
 2249              		.loc 1 1087 5 view .LVU650
1087:Dsp/widget/wgt_core/UI_Controller.c ****         frame_width = Obj->width + 1;
 2250              		.loc 1 1087 12 is_stmt 0 view .LVU651
 2251 0054 94F82060 		ldrb	r6, [r4, #32]	@ zero_extendqisi2
1087:Dsp/widget/wgt_core/UI_Controller.c ****         frame_width = Obj->width + 1;
 2252              		.loc 1 1087 8 view .LVU652
 2253 0058 16F0010F 		tst	r6, #1
 2254 005c 43D1     		bne	.L191
1088:Dsp/widget/wgt_core/UI_Controller.c **** 
 2255              		.loc 1 1088 9 is_stmt 1 view .LVU653
1088:Dsp/widget/wgt_core/UI_Controller.c **** 
 2256              		.loc 1 1088 21 is_stmt 0 view .LVU654
 2257 005e 0136     		adds	r6, r6, #1
 2258 0060 F6B2     		uxtb	r6, r6
 2259              	.LVL206:
 2260              	.L186:
1090:Dsp/widget/wgt_core/UI_Controller.c ****     UI_DspInterface.draw_rectangle(Obj->Gen_Data.x, Obj->Gen_Data.y, frame_width, frame_Height, DEF
 2261              		.loc 1 1090 5 is_stmt 1 view .LVU655
1090:Dsp/widget/wgt_core/UI_Controller.c ****     UI_DspInterface.draw_rectangle(Obj->Gen_Data.x, Obj->Gen_Data.y, frame_width, frame_Height, DEF
 2262              		.loc 1 1090 20 is_stmt 0 view .LVU656
 2263 0062 634F     		ldr	r7, .L197+4
1090:Dsp/widget/wgt_core/UI_Controller.c ****     UI_DspInterface.draw_rectangle(Obj->Gen_Data.x, Obj->Gen_Data.y, frame_width, frame_Height, DEF
 2264              		.loc 1 1090 92 view .LVU657
 2265 0064 E388     		ldrh	r3, [r4, #6]	@ unaligned
1090:Dsp/widget/wgt_core/UI_Controller.c ****     UI_DspInterface.draw_rectangle(Obj->Gen_Data.x, Obj->Gen_Data.y, frame_width, frame_Height, DEF
 2266              		.loc 1 1090 95 view .LVU658
 2267 0066 1B1A     		subs	r3, r3, r0
 2268 0068 9BB2     		uxth	r3, r3
1090:Dsp/widget/wgt_core/UI_Controller.c ****     UI_DspInterface.draw_rectangle(Obj->Gen_Data.x, Obj->Gen_Data.y, frame_width, frame_Height, DEF
 2269              		.loc 1 1090 107 view .LVU659
 2270 006a 033B     		subs	r3, r3, #3
1090:Dsp/widget/wgt_core/UI_Controller.c ****     UI_DspInterface.draw_rectangle(Obj->Gen_Data.x, Obj->Gen_Data.y, frame_width, frame_Height, DEF
 2271              		.loc 1 1090 5 view .LVU660
 2272 006c 4FF00108 		mov	r8, #1
 2273 0070 CDF80080 		str	r8, [sp]
1090:Dsp/widget/wgt_core/UI_Controller.c ****     UI_DspInterface.draw_rectangle(Obj->Gen_Data.x, Obj->Gen_Data.y, frame_width, frame_Height, DEF
 2274              		.loc 1 1090 5 view .LVU661
 2275 0074 1BB2     		sxth	r3, r3
 2276 0076 3D68     		ldr	r5, [r7]
 2277 0078 A847     		blx	r5
 2278              	.LVL207:
1091:Dsp/widget/wgt_core/UI_Controller.c **** 
 2279              		.loc 1 1091 5 is_stmt 1 view .LVU662
1091:Dsp/widget/wgt_core/UI_Controller.c **** 
 2280              		.loc 1 1091 20 is_stmt 0 view .LVU663
 2281 007a BF69     		ldr	r7, [r7, #24]
1091:Dsp/widget/wgt_core/UI_Controller.c **** 
 2282              		.loc 1 1091 5 view .LVU664
ARM GAS  /var/folders/lx/hc4sn_b53233_zkc9xbbl97r0000gp/T//ccErXOZH.s 			page 64


 2283 007c CDF80480 		str	r8, [sp, #4]
 2284 0080 CDF80080 		str	r8, [sp]
 2285 0084 0523     		movs	r3, #5
 2286 0086 3246     		mov	r2, r6
 2287 0088 B4F90610 		ldrsh	r1, [r4, #6]	@ unaligned
 2288 008c B4F90400 		ldrsh	r0, [r4, #4]	@ unaligned
 2289 0090 B847     		blx	r7
 2290              	.LVL208:
1093:Dsp/widget/wgt_core/UI_Controller.c ****     {
 2291              		.loc 1 1093 5 is_stmt 1 view .LVU665
1093:Dsp/widget/wgt_core/UI_Controller.c ****     {
 2292              		.loc 1 1093 12 is_stmt 0 view .LVU666
 2293 0092 94F82430 		ldrb	r3, [r4, #36]	@ zero_extendqisi2
1093:Dsp/widget/wgt_core/UI_Controller.c ****     {
 2294              		.loc 1 1093 8 view .LVU667
 2295 0096 43BB     		cbnz	r3, .L187
1095:Dsp/widget/wgt_core/UI_Controller.c ****         block_start_CoordY = Obj->Gen_Data.y + 2;
 2296              		.loc 1 1095 9 is_stmt 1 view .LVU668
1095:Dsp/widget/wgt_core/UI_Controller.c ****         block_start_CoordY = Obj->Gen_Data.y + 2;
 2297              		.loc 1 1095 43 is_stmt 0 view .LVU669
 2298 0098 A088     		ldrh	r0, [r4, #4]	@ unaligned
1095:Dsp/widget/wgt_core/UI_Controller.c ****         block_start_CoordY = Obj->Gen_Data.y + 2;
 2299              		.loc 1 1095 46 view .LVU670
 2300 009a 0230     		adds	r0, r0, #2
 2301              	.LVL209:
1096:Dsp/widget/wgt_core/UI_Controller.c **** 
 2302              		.loc 1 1096 9 is_stmt 1 view .LVU671
1096:Dsp/widget/wgt_core/UI_Controller.c **** 
 2303              		.loc 1 1096 43 is_stmt 0 view .LVU672
 2304 009c E188     		ldrh	r1, [r4, #6]	@ unaligned
1096:Dsp/widget/wgt_core/UI_Controller.c **** 
 2305              		.loc 1 1096 46 view .LVU673
 2306 009e 0231     		adds	r1, r1, #2
 2307              	.LVL210:
1098:Dsp/widget/wgt_core/UI_Controller.c **** 
 2308              		.loc 1 1098 9 is_stmt 1 view .LVU674
1098:Dsp/widget/wgt_core/UI_Controller.c **** 
 2309              		.loc 1 1098 23 is_stmt 0 view .LVU675
 2310 00a0 E369     		ldr	r3, [r4, #28]	@ unaligned
 2311 00a2 06EE903A 		vmov	s13, r3	@ int
1098:Dsp/widget/wgt_core/UI_Controller.c **** 
 2312              		.loc 1 1098 45 view .LVU676
 2313 00a6 A369     		ldr	r3, [r4, #24]	@ unaligned
 2314 00a8 07EE103A 		vmov	s14, r3	@ int
1098:Dsp/widget/wgt_core/UI_Controller.c **** 
 2315              		.loc 1 1098 35 view .LVU677
 2316 00ac B8EEC77A 		vcvt.f32.s32	s14, s14
1098:Dsp/widget/wgt_core/UI_Controller.c **** 
 2317              		.loc 1 1098 33 view .LVU678
 2318 00b0 F8EEE66A 		vcvt.f32.s32	s13, s13
 2319 00b4 86EE876A 		vdiv.f32	s12, s13, s14
1098:Dsp/widget/wgt_core/UI_Controller.c **** 
 2320              		.loc 1 1098 69 view .LVU679
 2321 00b8 731F     		subs	r3, r6, #5
 2322 00ba 07EE903A 		vmov	s15, r3	@ int
1098:Dsp/widget/wgt_core/UI_Controller.c **** 
 2323              		.loc 1 1098 54 view .LVU680
ARM GAS  /var/folders/lx/hc4sn_b53233_zkc9xbbl97r0000gp/T//ccErXOZH.s 			page 65


 2324 00be F8EEE77A 		vcvt.f32.s32	s15, s15
 2325 00c2 67EE867A 		vmul.f32	s15, s15, s12
1098:Dsp/widget/wgt_core/UI_Controller.c **** 
 2326              		.loc 1 1098 17 view .LVU681
 2327 00c6 FDEEE77A 		vcvt.s32.f32	s15, s15
 2328 00ca CDED037A 		vstr.32	s15, [sp, #12]	@ int
 2329              	.LVL211:
1100:Dsp/widget/wgt_core/UI_Controller.c ****     }
 2330              		.loc 1 1100 9 is_stmt 1 view .LVU682
1100:Dsp/widget/wgt_core/UI_Controller.c ****     }
 2331              		.loc 1 1100 24 is_stmt 0 view .LVU683
 2332 00ce 484B     		ldr	r3, .L197+4
 2333 00d0 DD68     		ldr	r5, [r3, #12]
1100:Dsp/widget/wgt_core/UI_Controller.c ****     }
 2334              		.loc 1 1100 9 view .LVU684
 2335 00d2 CDF80080 		str	r8, [sp]
 2336 00d6 4346     		mov	r3, r8
 2337 00d8 9DF80C20 		ldrb	r2, [sp, #12]	@ zero_extendqisi2
 2338 00dc 09B2     		sxth	r1, r1
1100:Dsp/widget/wgt_core/UI_Controller.c ****     }
 2339              		.loc 1 1100 9 view .LVU685
 2340 00de 00B2     		sxth	r0, r0
1100:Dsp/widget/wgt_core/UI_Controller.c ****     }
 2341              		.loc 1 1100 9 view .LVU686
 2342 00e0 A847     		blx	r5
 2343              	.LVL212:
1124:Dsp/widget/wgt_core/UI_Controller.c **** }
 2344              		.loc 1 1124 12 view .LVU687
 2345 00e2 4046     		mov	r0, r8
 2346 00e4 A1E7     		b	.L185
 2347              	.LVL213:
 2348              	.L191:
1058:Dsp/widget/wgt_core/UI_Controller.c ****     uint8_t frame_Height = 0;
 2349              		.loc 1 1058 13 view .LVU688
 2350 00e6 0026     		movs	r6, #0
 2351 00e8 BBE7     		b	.L186
 2352              	.LVL214:
 2353              	.L187:
1102:Dsp/widget/wgt_core/UI_Controller.c ****     {
 2354              		.loc 1 1102 10 is_stmt 1 view .LVU689
1102:Dsp/widget/wgt_core/UI_Controller.c ****     {
 2355              		.loc 1 1102 13 is_stmt 0 view .LVU690
 2356 00ea 012B     		cmp	r3, #1
 2357 00ec 79D1     		bne	.L192
1104:Dsp/widget/wgt_core/UI_Controller.c ****         block_start_CoordY = Obj->Gen_Data.y + 2;
 2358              		.loc 1 1104 9 is_stmt 1 view .LVU691
1104:Dsp/widget/wgt_core/UI_Controller.c ****         block_start_CoordY = Obj->Gen_Data.y + 2;
 2359              		.loc 1 1104 24 is_stmt 0 view .LVU692
 2360 00ee 404B     		ldr	r3, .L197+4
 2361 00f0 D3F81090 		ldr	r9, [r3, #16]
1104:Dsp/widget/wgt_core/UI_Controller.c ****         block_start_CoordY = Obj->Gen_Data.y + 2;
 2362              		.loc 1 1104 50 view .LVU693
 2363 00f4 A088     		ldrh	r0, [r4, #4]	@ unaligned
1104:Dsp/widget/wgt_core/UI_Controller.c ****         block_start_CoordY = Obj->Gen_Data.y + 2;
 2364              		.loc 1 1104 53 view .LVU694
 2365 00f6 7708     		lsrs	r7, r6, #1
 2366 00f8 00EB5600 		add	r0, r0, r6, lsr #1
ARM GAS  /var/folders/lx/hc4sn_b53233_zkc9xbbl97r0000gp/T//ccErXOZH.s 			page 66


1104:Dsp/widget/wgt_core/UI_Controller.c ****         block_start_CoordY = Obj->Gen_Data.y + 2;
 2367              		.loc 1 1104 9 view .LVU695
 2368 00fc 0123     		movs	r3, #1
 2369 00fe 0093     		str	r3, [sp]
 2370 0100 0422     		movs	r2, #4
 2371 0102 B4F90610 		ldrsh	r1, [r4, #6]	@ unaligned
 2372 0106 00B2     		sxth	r0, r0
 2373 0108 C847     		blx	r9
 2374              	.LVL215:
1105:Dsp/widget/wgt_core/UI_Controller.c **** 
 2375              		.loc 1 1105 9 is_stmt 1 view .LVU696
1105:Dsp/widget/wgt_core/UI_Controller.c **** 
 2376              		.loc 1 1105 43 is_stmt 0 view .LVU697
 2377 010a E188     		ldrh	r1, [r4, #6]	@ unaligned
1105:Dsp/widget/wgt_core/UI_Controller.c **** 
 2378              		.loc 1 1105 46 view .LVU698
 2379 010c 0231     		adds	r1, r1, #2
1105:Dsp/widget/wgt_core/UI_Controller.c **** 
 2380              		.loc 1 1105 28 view .LVU699
 2381 010e 09B2     		sxth	r1, r1
 2382              	.LVL216:
1107:Dsp/widget/wgt_core/UI_Controller.c ****         {
 2383              		.loc 1 1107 9 is_stmt 1 view .LVU700
1107:Dsp/widget/wgt_core/UI_Controller.c ****         {
 2384              		.loc 1 1107 16 is_stmt 0 view .LVU701
 2385 0110 E369     		ldr	r3, [r4, #28]	@ unaligned
1107:Dsp/widget/wgt_core/UI_Controller.c ****         {
 2386              		.loc 1 1107 12 view .LVU702
 2387 0112 5345     		cmp	r3, r10
 2388 0114 37DA     		bge	.L188
1109:Dsp/widget/wgt_core/UI_Controller.c ****             block_start_CoordX = Obj->Gen_Data.x + 1 + frame_width / 2 - (Pcnt_Val * (frame_width -
 2389              		.loc 1 1109 13 is_stmt 1 view .LVU703
1109:Dsp/widget/wgt_core/UI_Controller.c ****             block_start_CoordX = Obj->Gen_Data.x + 1 + frame_width / 2 - (Pcnt_Val * (frame_width -
 2390              		.loc 1 1109 30 is_stmt 0 view .LVU704
 2391 0116 A269     		ldr	r2, [r4, #24]	@ unaligned
1109:Dsp/widget/wgt_core/UI_Controller.c ****             block_start_CoordX = Obj->Gen_Data.x + 1 + frame_width / 2 - (Pcnt_Val * (frame_width -
 2392              		.loc 1 1109 38 view .LVU705
 2393 0118 02EBD272 		add	r2, r2, r2, lsr #31
 2394 011c 5010     		asrs	r0, r2, #1
 2395 011e 06EE900A 		vmov	s13, r0	@ int
1109:Dsp/widget/wgt_core/UI_Controller.c ****             block_start_CoordX = Obj->Gen_Data.x + 1 + frame_width / 2 - (Pcnt_Val * (frame_width -
 2396              		.loc 1 1109 43 view .LVU706
 2397 0122 C3EB6203 		rsb	r3, r3, r2, asr #1
1109:Dsp/widget/wgt_core/UI_Controller.c ****             block_start_CoordX = Obj->Gen_Data.x + 1 + frame_width / 2 - (Pcnt_Val * (frame_width -
 2398              		.loc 1 1109 59 view .LVU707
 2399 0126 07EE903A 		vmov	s15, r3	@ int
 2400 012a F8EEE77A 		vcvt.f32.s32	s15, s15
1109:Dsp/widget/wgt_core/UI_Controller.c ****             block_start_CoordX = Obj->Gen_Data.x + 1 + frame_width / 2 - (Pcnt_Val * (frame_width -
 2401              		.loc 1 1109 62 view .LVU708
 2402 012e F8EEE66A 		vcvt.f32.s32	s13, s13
1109:Dsp/widget/wgt_core/UI_Controller.c ****             block_start_CoordX = Obj->Gen_Data.x + 1 + frame_width / 2 - (Pcnt_Val * (frame_width -
 2403              		.loc 1 1109 22 view .LVU709
 2404 0132 87EEA66A 		vdiv.f32	s12, s15, s13
 2405              	.LVL217:
1110:Dsp/widget/wgt_core/UI_Controller.c ****             UI_DspInterface.draw_line_h(block_start_CoordX, block_start_CoordY, (Pcnt_Val * (frame_
 2406              		.loc 1 1110 13 is_stmt 1 view .LVU710
1110:Dsp/widget/wgt_core/UI_Controller.c ****             UI_DspInterface.draw_line_h(block_start_CoordX, block_start_CoordY, (Pcnt_Val * (frame_
ARM GAS  /var/folders/lx/hc4sn_b53233_zkc9xbbl97r0000gp/T//ccErXOZH.s 			page 67


 2407              		.loc 1 1110 47 is_stmt 0 view .LVU711
 2408 0136 B4F90430 		ldrsh	r3, [r4, #4]	@ unaligned
1110:Dsp/widget/wgt_core/UI_Controller.c ****             UI_DspInterface.draw_line_h(block_start_CoordX, block_start_CoordY, (Pcnt_Val * (frame_
 2409              		.loc 1 1110 50 view .LVU712
 2410 013a 0133     		adds	r3, r3, #1
1110:Dsp/widget/wgt_core/UI_Controller.c ****             UI_DspInterface.draw_line_h(block_start_CoordX, block_start_CoordY, (Pcnt_Val * (frame_
 2411              		.loc 1 1110 54 view .LVU713
 2412 013c 3B44     		add	r3, r3, r7
 2413 013e 07EE903A 		vmov	s15, r3	@ int
1110:Dsp/widget/wgt_core/UI_Controller.c ****             UI_DspInterface.draw_line_h(block_start_CoordX, block_start_CoordY, (Pcnt_Val * (frame_
 2414              		.loc 1 1110 99 view .LVU714
 2415 0142 331F     		subs	r3, r6, #4
 2416 0144 07EE103A 		vmov	s14, r3	@ int
1110:Dsp/widget/wgt_core/UI_Controller.c ****             UI_DspInterface.draw_line_h(block_start_CoordX, block_start_CoordY, (Pcnt_Val * (frame_
 2417              		.loc 1 1110 84 view .LVU715
 2418 0148 B8EEC77A 		vcvt.f32.s32	s14, s14
 2419 014c 27EE067A 		vmul.f32	s14, s14, s12
1110:Dsp/widget/wgt_core/UI_Controller.c ****             UI_DspInterface.draw_line_h(block_start_CoordX, block_start_CoordY, (Pcnt_Val * (frame_
 2420              		.loc 1 1110 104 view .LVU716
 2421 0150 F6EE006A 		vmov.f32	s13, #5.0e-1
 2422 0154 27EE267A 		vmul.f32	s14, s14, s13
1110:Dsp/widget/wgt_core/UI_Controller.c ****             UI_DspInterface.draw_line_h(block_start_CoordX, block_start_CoordY, (Pcnt_Val * (frame_
 2423              		.loc 1 1110 72 view .LVU717
 2424 0158 F8EEE77A 		vcvt.f32.s32	s15, s15
 2425 015c 77EEC77A 		vsub.f32	s15, s15, s14
1110:Dsp/widget/wgt_core/UI_Controller.c ****             UI_DspInterface.draw_line_h(block_start_CoordX, block_start_CoordY, (Pcnt_Val * (frame_
 2426              		.loc 1 1110 32 view .LVU718
 2427 0160 FDEEE77A 		vcvt.s32.f32	s15, s15
 2428              	.LVL218:
1111:Dsp/widget/wgt_core/UI_Controller.c ****         }
 2429              		.loc 1 1111 13 is_stmt 1 view .LVU719
1111:Dsp/widget/wgt_core/UI_Controller.c ****         }
 2430              		.loc 1 1111 28 is_stmt 0 view .LVU720
 2431 0164 224B     		ldr	r3, .L197+4
 2432 0166 DD68     		ldr	r5, [r3, #12]
1111:Dsp/widget/wgt_core/UI_Controller.c ****         }
 2433              		.loc 1 1111 13 view .LVU721
 2434 0168 BCEEC77A 		vcvt.u32.f32	s14, s14
 2435 016c 8DED037A 		vstr.32	s14, [sp, #12]	@ int
 2436 0170 0124     		movs	r4, #1
 2437              	.LVL219:
1111:Dsp/widget/wgt_core/UI_Controller.c ****         }
 2438              		.loc 1 1111 13 view .LVU722
 2439 0172 0094     		str	r4, [sp]
 2440 0174 2346     		mov	r3, r4
 2441 0176 9DF80C20 		ldrb	r2, [sp, #12]	@ zero_extendqisi2
 2442 017a 17EE900A 		vmov	r0, s15	@ int
 2443 017e 00B2     		sxth	r0, r0
 2444 0180 A847     		blx	r5
 2445              	.LVL220:
1124:Dsp/widget/wgt_core/UI_Controller.c **** }
 2446              		.loc 1 1124 12 view .LVU723
 2447 0182 2046     		mov	r0, r4
 2448 0184 51E7     		b	.L185
 2449              	.LVL221:
 2450              	.L188:
1113:Dsp/widget/wgt_core/UI_Controller.c ****         {
ARM GAS  /var/folders/lx/hc4sn_b53233_zkc9xbbl97r0000gp/T//ccErXOZH.s 			page 68


 2451              		.loc 1 1113 14 is_stmt 1 view .LVU724
1113:Dsp/widget/wgt_core/UI_Controller.c ****         {
 2452              		.loc 1 1113 17 is_stmt 0 view .LVU725
 2453 0186 5345     		cmp	r3, r10
 2454 0188 2DDD     		ble	.L193
1115:Dsp/widget/wgt_core/UI_Controller.c **** 
 2455              		.loc 1 1115 13 is_stmt 1 view .LVU726
1115:Dsp/widget/wgt_core/UI_Controller.c **** 
 2456              		.loc 1 1115 45 is_stmt 0 view .LVU727
 2457 018a A269     		ldr	r2, [r4, #24]	@ unaligned
1115:Dsp/widget/wgt_core/UI_Controller.c **** 
 2458              		.loc 1 1115 53 view .LVU728
 2459 018c 02EBD272 		add	r2, r2, r2, lsr #31
1115:Dsp/widget/wgt_core/UI_Controller.c **** 
 2460              		.loc 1 1115 39 view .LVU729
 2461 0190 A3EB6203 		sub	r3, r3, r2, asr #1
1115:Dsp/widget/wgt_core/UI_Controller.c **** 
 2462              		.loc 1 1115 59 view .LVU730
 2463 0194 07EE903A 		vmov	s15, r3	@ int
 2464 0198 B8EEE77A 		vcvt.f32.s32	s14, s15
1115:Dsp/widget/wgt_core/UI_Controller.c **** 
 2465              		.loc 1 1115 81 view .LVU731
 2466 019c 5210     		asrs	r2, r2, #1
1115:Dsp/widget/wgt_core/UI_Controller.c **** 
 2467              		.loc 1 1115 62 view .LVU732
 2468 019e 07EE902A 		vmov	s15, r2	@ int
 2469 01a2 F8EEE76A 		vcvt.f32.s32	s13, s15
1115:Dsp/widget/wgt_core/UI_Controller.c **** 
 2470              		.loc 1 1115 22 view .LVU733
 2471 01a6 87EE266A 		vdiv.f32	s12, s14, s13
 2472              	.LVL222:
1117:Dsp/widget/wgt_core/UI_Controller.c ****             UI_DspInterface.draw_line_h(block_start_CoordX, block_start_CoordY, (Pcnt_Val * (frame_
 2473              		.loc 1 1117 13 is_stmt 1 view .LVU734
1117:Dsp/widget/wgt_core/UI_Controller.c ****             UI_DspInterface.draw_line_h(block_start_CoordX, block_start_CoordY, (Pcnt_Val * (frame_
 2474              		.loc 1 1117 47 is_stmt 0 view .LVU735
 2475 01aa A088     		ldrh	r0, [r4, #4]	@ unaligned
1117:Dsp/widget/wgt_core/UI_Controller.c ****             UI_DspInterface.draw_line_h(block_start_CoordX, block_start_CoordY, (Pcnt_Val * (frame_
 2476              		.loc 1 1117 50 view .LVU736
 2477 01ac 3844     		add	r0, r0, r7
 2478              	.LVL223:
1118:Dsp/widget/wgt_core/UI_Controller.c ****         }
 2479              		.loc 1 1118 13 is_stmt 1 view .LVU737
1118:Dsp/widget/wgt_core/UI_Controller.c ****         }
 2480              		.loc 1 1118 28 is_stmt 0 view .LVU738
 2481 01ae 104B     		ldr	r3, .L197+4
 2482 01b0 DD68     		ldr	r5, [r3, #12]
1118:Dsp/widget/wgt_core/UI_Controller.c ****         }
 2483              		.loc 1 1118 106 view .LVU739
 2484 01b2 331F     		subs	r3, r6, #4
 2485 01b4 07EE903A 		vmov	s15, r3	@ int
1118:Dsp/widget/wgt_core/UI_Controller.c ****         }
 2486              		.loc 1 1118 91 view .LVU740
 2487 01b8 F8EEE77A 		vcvt.f32.s32	s15, s15
 2488 01bc 67EE867A 		vmul.f32	s15, s15, s12
1118:Dsp/widget/wgt_core/UI_Controller.c ****         }
 2489              		.loc 1 1118 111 view .LVU741
 2490 01c0 B6EE007A 		vmov.f32	s14, #5.0e-1
ARM GAS  /var/folders/lx/hc4sn_b53233_zkc9xbbl97r0000gp/T//ccErXOZH.s 			page 69


 2491 01c4 67EE877A 		vmul.f32	s15, s15, s14
1118:Dsp/widget/wgt_core/UI_Controller.c ****         }
 2492              		.loc 1 1118 13 view .LVU742
 2493 01c8 FCEEE77A 		vcvt.u32.f32	s15, s15
 2494 01cc CDED037A 		vstr.32	s15, [sp, #12]	@ int
 2495 01d0 0124     		movs	r4, #1
 2496              	.LVL224:
1118:Dsp/widget/wgt_core/UI_Controller.c ****         }
 2497              		.loc 1 1118 13 view .LVU743
 2498 01d2 0094     		str	r4, [sp]
 2499 01d4 2346     		mov	r3, r4
 2500 01d6 9DF80C20 		ldrb	r2, [sp, #12]	@ zero_extendqisi2
 2501 01da 00B2     		sxth	r0, r0
1118:Dsp/widget/wgt_core/UI_Controller.c ****         }
 2502              		.loc 1 1118 13 view .LVU744
 2503 01dc A847     		blx	r5
 2504              	.LVL225:
1124:Dsp/widget/wgt_core/UI_Controller.c **** }
 2505              		.loc 1 1124 12 view .LVU745
 2506 01de 2046     		mov	r0, r4
 2507 01e0 23E7     		b	.L185
 2508              	.LVL226:
 2509              	.L192:
1122:Dsp/widget/wgt_core/UI_Controller.c **** 
 2510              		.loc 1 1122 16 view .LVU746
 2511 01e2 0020     		movs	r0, #0
 2512 01e4 21E7     		b	.L185
 2513              	.LVL227:
 2514              	.L193:
1124:Dsp/widget/wgt_core/UI_Controller.c **** }
 2515              		.loc 1 1124 12 view .LVU747
 2516 01e6 0120     		movs	r0, #1
 2517 01e8 1FE7     		b	.L185
 2518              	.L198:
 2519 01ea 00BF     		.align	2
 2520              	.L197:
 2521 01ec 00000000 		.word	.LANCHOR2
 2522 01f0 00000000 		.word	.LANCHOR0
 2523              		.cfi_endproc
 2524              	.LFE38:
 2526              		.section	.text.UI_ProcessBar_SetLabelPos,"ax",%progbits
 2527              		.align	1
 2528              		.syntax unified
 2529              		.thumb
 2530              		.thumb_func
 2531              		.fpu fpv4-sp-d16
 2533              	UI_ProcessBar_SetLabelPos:
 2534              	.LVL228:
 2535              	.LFB39:
1126:Dsp/widget/wgt_core/UI_Controller.c **** 
1127:Dsp/widget/wgt_core/UI_Controller.c **** static bool UI_ProcessBar_SetLabelPos(UI_ProcessBarObj_TypeDef *Obj, UI_ProcessBar_LabelPos_List Po
1128:Dsp/widget/wgt_core/UI_Controller.c **** {
 2536              		.loc 1 1128 1 is_stmt 1 view -0
 2537              		.cfi_startproc
 2538              		@ args = 0, pretend = 0, frame = 0
 2539              		@ frame_needed = 0, uses_anonymous_args = 0
 2540              		@ link register save eliminated.
ARM GAS  /var/folders/lx/hc4sn_b53233_zkc9xbbl97r0000gp/T//ccErXOZH.s 			page 70


1129:Dsp/widget/wgt_core/UI_Controller.c ****     if ((Obj == NULL) || (Obj->Dsp_Type == UI_ProcBar_DspType_LoadBar))
 2541              		.loc 1 1129 5 view .LVU749
 2542              		.loc 1 1129 8 is_stmt 0 view .LVU750
 2543 0000 20B1     		cbz	r0, .L201
 2544              		.loc 1 1129 30 discriminator 1 view .LVU751
 2545 0002 90F82330 		ldrb	r3, [r0, #35]	@ zero_extendqisi2
 2546              		.loc 1 1129 23 discriminator 1 view .LVU752
 2547 0006 1BB1     		cbz	r3, .L202
1130:Dsp/widget/wgt_core/UI_Controller.c ****         return false;
1131:Dsp/widget/wgt_core/UI_Controller.c **** 
1132:Dsp/widget/wgt_core/UI_Controller.c ****     return true;
 2548              		.loc 1 1132 12 view .LVU753
 2549 0008 0120     		movs	r0, #1
 2550              	.LVL229:
 2551              		.loc 1 1132 12 view .LVU754
 2552 000a 7047     		bx	lr
 2553              	.LVL230:
 2554              	.L201:
1130:Dsp/widget/wgt_core/UI_Controller.c ****         return false;
 2555              		.loc 1 1130 16 view .LVU755
 2556 000c 0020     		movs	r0, #0
 2557              	.LVL231:
1130:Dsp/widget/wgt_core/UI_Controller.c ****         return false;
 2558              		.loc 1 1130 16 view .LVU756
 2559 000e 7047     		bx	lr
 2560              	.LVL232:
 2561              	.L202:
1130:Dsp/widget/wgt_core/UI_Controller.c ****         return false;
 2562              		.loc 1 1130 16 view .LVU757
 2563 0010 0020     		movs	r0, #0
 2564              	.LVL233:
1133:Dsp/widget/wgt_core/UI_Controller.c **** }
 2565              		.loc 1 1133 1 view .LVU758
 2566 0012 7047     		bx	lr
 2567              		.cfi_endproc
 2568              	.LFE39:
 2570              		.section	.text.UI_Drop_Init,"ax",%progbits
 2571              		.align	1
 2572              		.syntax unified
 2573              		.thumb
 2574              		.thumb_func
 2575              		.fpu fpv4-sp-d16
 2577              	UI_Drop_Init:
 2578              	.LVL234:
 2579              	.LFB41:
1134:Dsp/widget/wgt_core/UI_Controller.c **** 
1135:Dsp/widget/wgt_core/UI_Controller.c **** static bool UI_ProcessBar_Ctl(UI_ProcessBarObj_TypeDef *Obj)
1136:Dsp/widget/wgt_core/UI_Controller.c **** {
1137:Dsp/widget/wgt_core/UI_Controller.c ****     char dig_str[3];
1138:Dsp/widget/wgt_core/UI_Controller.c ****     memset(dig_str, NULL, 3);
1139:Dsp/widget/wgt_core/UI_Controller.c **** 
1140:Dsp/widget/wgt_core/UI_Controller.c ****     if ((UI_DspInterface.draw_radius_rectangle == NULL) ||
1141:Dsp/widget/wgt_core/UI_Controller.c ****         (UI_DspInterface.draw_str == NULL))
1142:Dsp/widget/wgt_core/UI_Controller.c ****         return false;
1143:Dsp/widget/wgt_core/UI_Controller.c **** 
1144:Dsp/widget/wgt_core/UI_Controller.c ****     switch (Obj->Dsp_Type)
1145:Dsp/widget/wgt_core/UI_Controller.c ****     {
ARM GAS  /var/folders/lx/hc4sn_b53233_zkc9xbbl97r0000gp/T//ccErXOZH.s 			page 71


1146:Dsp/widget/wgt_core/UI_Controller.c ****     case UI_ProcBar_DspType_LoadBar:
1147:Dsp/widget/wgt_core/UI_Controller.c ****         return UI_ProcessBar_DspLoadBar(Obj);
1148:Dsp/widget/wgt_core/UI_Controller.c **** 
1149:Dsp/widget/wgt_core/UI_Controller.c ****     case UI_ProcBar_DspType_DotBar:
1150:Dsp/widget/wgt_core/UI_Controller.c ****         return UI_ProcessBar_DspDotBar(Obj);
1151:Dsp/widget/wgt_core/UI_Controller.c **** 
1152:Dsp/widget/wgt_core/UI_Controller.c ****     case UI_ProcBar_DspType_FrameBar:
1153:Dsp/widget/wgt_core/UI_Controller.c ****         return UI_ProcessBar_DspFrameBar(Obj);
1154:Dsp/widget/wgt_core/UI_Controller.c **** 
1155:Dsp/widget/wgt_core/UI_Controller.c ****     default:
1156:Dsp/widget/wgt_core/UI_Controller.c ****         return false;
1157:Dsp/widget/wgt_core/UI_Controller.c ****     }
1158:Dsp/widget/wgt_core/UI_Controller.c **** }
1159:Dsp/widget/wgt_core/UI_Controller.c **** 
1160:Dsp/widget/wgt_core/UI_Controller.c **** static bool UI_Drop_Init(UI_DropObj_TypeDef *Obj, char *label, int16_t x, int16_t y)
1161:Dsp/widget/wgt_core/UI_Controller.c **** {
 2580              		.loc 1 1161 1 is_stmt 1 view -0
 2581              		.cfi_startproc
 2582              		@ args = 0, pretend = 0, frame = 0
 2583              		@ frame_needed = 0, uses_anonymous_args = 0
1162:Dsp/widget/wgt_core/UI_Controller.c ****     if (Obj == NULL)
 2584              		.loc 1 1162 5 view .LVU760
 2585              		.loc 1 1162 8 is_stmt 0 view .LVU761
 2586 0000 80B1     		cbz	r0, .L205
1161:Dsp/widget/wgt_core/UI_Controller.c ****     if (Obj == NULL)
 2587              		.loc 1 1161 1 view .LVU762
 2588 0002 10B5     		push	{r4, lr}
 2589              	.LCFI40:
 2590              		.cfi_def_cfa_offset 8
 2591              		.cfi_offset 4, -8
 2592              		.cfi_offset 14, -4
 2593 0004 0446     		mov	r4, r0
1163:Dsp/widget/wgt_core/UI_Controller.c ****         return false;
1164:Dsp/widget/wgt_core/UI_Controller.c **** 
1165:Dsp/widget/wgt_core/UI_Controller.c ****     UI_GenData_Init(&Obj->Gen_Data, label, x, y);
 2594              		.loc 1 1165 5 is_stmt 1 view .LVU763
 2595 0006 FFF7FEFF 		bl	UI_GenData_Init
 2596              	.LVL235:
1166:Dsp/widget/wgt_core/UI_Controller.c **** 
1167:Dsp/widget/wgt_core/UI_Controller.c ****     Obj->CurDrop_Item = NULL;
 2597              		.loc 1 1167 5 view .LVU764
 2598              		.loc 1 1167 23 is_stmt 0 view .LVU765
 2599 000a 0023     		movs	r3, #0
 2600 000c 6374     		strb	r3, [r4, #17]
 2601 000e A374     		strb	r3, [r4, #18]
 2602 0010 E374     		strb	r3, [r4, #19]
 2603 0012 2375     		strb	r3, [r4, #20]
1168:Dsp/widget/wgt_core/UI_Controller.c ****     Obj->item_cnt = 0;
 2604              		.loc 1 1168 5 is_stmt 1 view .LVU766
 2605              		.loc 1 1168 19 is_stmt 0 view .LVU767
 2606 0014 2373     		strb	r3, [r4, #12]
1169:Dsp/widget/wgt_core/UI_Controller.c ****     Obj->DropList = NULL;
 2607              		.loc 1 1169 5 is_stmt 1 view .LVU768
 2608              		.loc 1 1169 19 is_stmt 0 view .LVU769
 2609 0016 6373     		strb	r3, [r4, #13]
 2610 0018 A373     		strb	r3, [r4, #14]
 2611 001a E373     		strb	r3, [r4, #15]
ARM GAS  /var/folders/lx/hc4sn_b53233_zkc9xbbl97r0000gp/T//ccErXOZH.s 			page 72


 2612 001c 2374     		strb	r3, [r4, #16]
1170:Dsp/widget/wgt_core/UI_Controller.c ****     Obj->is_selected = false;
 2613              		.loc 1 1170 5 is_stmt 1 view .LVU770
 2614              		.loc 1 1170 22 is_stmt 0 view .LVU771
 2615 001e 6375     		strb	r3, [r4, #21]
1171:Dsp/widget/wgt_core/UI_Controller.c **** 
1172:Dsp/widget/wgt_core/UI_Controller.c ****     return true;
 2616              		.loc 1 1172 5 is_stmt 1 view .LVU772
 2617              		.loc 1 1172 12 is_stmt 0 view .LVU773
 2618 0020 0120     		movs	r0, #1
1173:Dsp/widget/wgt_core/UI_Controller.c **** }
 2619              		.loc 1 1173 1 view .LVU774
 2620 0022 10BD     		pop	{r4, pc}
 2621              	.LVL236:
 2622              	.L205:
 2623              	.LCFI41:
 2624              		.cfi_def_cfa_offset 0
 2625              		.cfi_restore 4
 2626              		.cfi_restore 14
1163:Dsp/widget/wgt_core/UI_Controller.c **** 
 2627              		.loc 1 1163 16 view .LVU775
 2628 0024 0020     		movs	r0, #0
 2629              	.LVL237:
 2630              		.loc 1 1173 1 view .LVU776
 2631 0026 7047     		bx	lr
 2632              		.cfi_endproc
 2633              	.LFE41:
 2635              		.section	.text.UI_Drop_Move,"ax",%progbits
 2636              		.align	1
 2637              		.syntax unified
 2638              		.thumb
 2639              		.thumb_func
 2640              		.fpu fpv4-sp-d16
 2642              	UI_Drop_Move:
 2643              	.LVL238:
 2644              	.LFB42:
1174:Dsp/widget/wgt_core/UI_Controller.c **** 
1175:Dsp/widget/wgt_core/UI_Controller.c **** static bool UI_Drop_Move(UI_DropObj_TypeDef *Obj, int16_t x, int16_t y)
1176:Dsp/widget/wgt_core/UI_Controller.c **** {
 2645              		.loc 1 1176 1 is_stmt 1 view -0
 2646              		.cfi_startproc
 2647              		@ args = 0, pretend = 0, frame = 0
 2648              		@ frame_needed = 0, uses_anonymous_args = 0
1177:Dsp/widget/wgt_core/UI_Controller.c ****     if (Obj == NULL)
 2649              		.loc 1 1177 5 view .LVU778
 2650              		.loc 1 1177 8 is_stmt 0 view .LVU779
 2651 0000 18B1     		cbz	r0, .L212
1176:Dsp/widget/wgt_core/UI_Controller.c ****     if (Obj == NULL)
 2652              		.loc 1 1176 1 view .LVU780
 2653 0002 08B5     		push	{r3, lr}
 2654              	.LCFI42:
 2655              		.cfi_def_cfa_offset 8
 2656              		.cfi_offset 3, -8
 2657              		.cfi_offset 14, -4
1178:Dsp/widget/wgt_core/UI_Controller.c ****         return false;
1179:Dsp/widget/wgt_core/UI_Controller.c **** 
1180:Dsp/widget/wgt_core/UI_Controller.c ****     return UI_Move(&(Obj->Gen_Data), x, y);
ARM GAS  /var/folders/lx/hc4sn_b53233_zkc9xbbl97r0000gp/T//ccErXOZH.s 			page 73


 2658              		.loc 1 1180 5 is_stmt 1 view .LVU781
 2659              		.loc 1 1180 12 is_stmt 0 view .LVU782
 2660 0004 FFF7FEFF 		bl	UI_Move
 2661              	.LVL239:
1181:Dsp/widget/wgt_core/UI_Controller.c **** }
 2662              		.loc 1 1181 1 view .LVU783
 2663 0008 08BD     		pop	{r3, pc}
 2664              	.LVL240:
 2665              	.L212:
 2666              	.LCFI43:
 2667              		.cfi_def_cfa_offset 0
 2668              		.cfi_restore 3
 2669              		.cfi_restore 14
1178:Dsp/widget/wgt_core/UI_Controller.c ****         return false;
 2670              		.loc 1 1178 16 view .LVU784
 2671 000a 0020     		movs	r0, #0
 2672              	.LVL241:
 2673              		.loc 1 1181 1 view .LVU785
 2674 000c 7047     		bx	lr
 2675              		.cfi_endproc
 2676              	.LFE42:
 2678              		.section	.text.UI_Drop_SetSelect,"ax",%progbits
 2679              		.align	1
 2680              		.syntax unified
 2681              		.thumb
 2682              		.thumb_func
 2683              		.fpu fpv4-sp-d16
 2685              	UI_Drop_SetSelect:
 2686              	.LVL242:
 2687              	.LFB45:
1182:Dsp/widget/wgt_core/UI_Controller.c **** 
1183:Dsp/widget/wgt_core/UI_Controller.c **** static item_obj *UI_Drop_CreateDropItem(uint8_t id, char *item_desc, void *data, uint16_t data_size
1184:Dsp/widget/wgt_core/UI_Controller.c **** {
1185:Dsp/widget/wgt_core/UI_Controller.c ****     item_obj *item_tmp = NULL;
1186:Dsp/widget/wgt_core/UI_Controller.c ****     UI_DropItemDataObj_TypeDef *itemdata_tmp = NULL;
1187:Dsp/widget/wgt_core/UI_Controller.c **** 
1188:Dsp/widget/wgt_core/UI_Controller.c ****     itemdata_tmp = (UI_DropItemDataObj_TypeDef *)MMU_Malloc(sizeof(UI_DropItemDataObj_TypeDef));
1189:Dsp/widget/wgt_core/UI_Controller.c ****     item_tmp = (item_obj *)MMU_Malloc(sizeof(item_obj));
1190:Dsp/widget/wgt_core/UI_Controller.c **** 
1191:Dsp/widget/wgt_core/UI_Controller.c ****     if ((item_tmp == NULL) || (itemdata_tmp == NULL))
1192:Dsp/widget/wgt_core/UI_Controller.c ****         return NULL;
1193:Dsp/widget/wgt_core/UI_Controller.c **** 
1194:Dsp/widget/wgt_core/UI_Controller.c ****     itemdata_tmp->callback = callback;
1195:Dsp/widget/wgt_core/UI_Controller.c ****     itemdata_tmp->data = data;
1196:Dsp/widget/wgt_core/UI_Controller.c ****     itemdata_tmp->describe = item_desc;
1197:Dsp/widget/wgt_core/UI_Controller.c ****     itemdata_tmp->id = id;
1198:Dsp/widget/wgt_core/UI_Controller.c ****     itemdata_tmp->data_size = data_size;
1199:Dsp/widget/wgt_core/UI_Controller.c **** 
1200:Dsp/widget/wgt_core/UI_Controller.c ****     List_ItemInit(item_tmp, itemdata_tmp);
1201:Dsp/widget/wgt_core/UI_Controller.c **** 
1202:Dsp/widget/wgt_core/UI_Controller.c ****     return item_tmp;
1203:Dsp/widget/wgt_core/UI_Controller.c **** }
1204:Dsp/widget/wgt_core/UI_Controller.c **** 
1205:Dsp/widget/wgt_core/UI_Controller.c **** static bool UI_Drop_AddDropItem(UI_DropObj_TypeDef *Obj, char *item_desc, void *data, uint16_t data
1206:Dsp/widget/wgt_core/UI_Controller.c **** {
1207:Dsp/widget/wgt_core/UI_Controller.c ****     item_obj *item_temp = NULL;
1208:Dsp/widget/wgt_core/UI_Controller.c **** 
ARM GAS  /var/folders/lx/hc4sn_b53233_zkc9xbbl97r0000gp/T//ccErXOZH.s 			page 74


1209:Dsp/widget/wgt_core/UI_Controller.c ****     if (Obj == NULL)
1210:Dsp/widget/wgt_core/UI_Controller.c ****         return false;
1211:Dsp/widget/wgt_core/UI_Controller.c **** 
1212:Dsp/widget/wgt_core/UI_Controller.c ****     item_temp = UI_Drop_CreateDropItem(Obj->item_cnt, item_desc, data, data_size, callback);
1213:Dsp/widget/wgt_core/UI_Controller.c **** 
1214:Dsp/widget/wgt_core/UI_Controller.c ****     if (item_temp == NULL)
1215:Dsp/widget/wgt_core/UI_Controller.c ****         return false;
1216:Dsp/widget/wgt_core/UI_Controller.c **** 
1217:Dsp/widget/wgt_core/UI_Controller.c ****     if (Obj->DropList == NULL)
1218:Dsp/widget/wgt_core/UI_Controller.c ****     {
1219:Dsp/widget/wgt_core/UI_Controller.c ****         Obj->DropList = item_temp;
1220:Dsp/widget/wgt_core/UI_Controller.c ****         Obj->CurDrop_Item = Obj->DropList;
1221:Dsp/widget/wgt_core/UI_Controller.c ****         List_Init(Obj->DropList, item_temp, by_order, NULL);
1222:Dsp/widget/wgt_core/UI_Controller.c ****     }
1223:Dsp/widget/wgt_core/UI_Controller.c ****     else
1224:Dsp/widget/wgt_core/UI_Controller.c ****         List_Insert_Item(Obj->DropList, item_temp);
1225:Dsp/widget/wgt_core/UI_Controller.c **** 
1226:Dsp/widget/wgt_core/UI_Controller.c ****     Obj->item_cnt++;
1227:Dsp/widget/wgt_core/UI_Controller.c **** 
1228:Dsp/widget/wgt_core/UI_Controller.c ****     return true;
1229:Dsp/widget/wgt_core/UI_Controller.c **** }
1230:Dsp/widget/wgt_core/UI_Controller.c **** 
1231:Dsp/widget/wgt_core/UI_Controller.c **** static bool UI_Drop_SetSelect(UI_DropObj_TypeDef *Obj, bool state)
1232:Dsp/widget/wgt_core/UI_Controller.c **** {
 2688              		.loc 1 1232 1 is_stmt 1 view -0
 2689              		.cfi_startproc
 2690              		@ args = 0, pretend = 0, frame = 0
 2691              		@ frame_needed = 0, uses_anonymous_args = 0
1233:Dsp/widget/wgt_core/UI_Controller.c ****     if (Obj == NULL)
 2692              		.loc 1 1233 5 view .LVU787
 2693              		.loc 1 1233 8 is_stmt 0 view .LVU788
 2694 0000 70B1     		cbz	r0, .L219
1232:Dsp/widget/wgt_core/UI_Controller.c ****     if (Obj == NULL)
 2695              		.loc 1 1232 1 view .LVU789
 2696 0002 08B5     		push	{r3, lr}
 2697              	.LCFI44:
 2698              		.cfi_def_cfa_offset 8
 2699              		.cfi_offset 3, -8
 2700              		.cfi_offset 14, -4
1234:Dsp/widget/wgt_core/UI_Controller.c ****         return false;
1235:Dsp/widget/wgt_core/UI_Controller.c **** 
1236:Dsp/widget/wgt_core/UI_Controller.c ****     Obj->is_selected = state;
 2701              		.loc 1 1236 5 is_stmt 1 view .LVU790
 2702              		.loc 1 1236 22 is_stmt 0 view .LVU791
 2703 0004 4175     		strb	r1, [r0, #21]
1237:Dsp/widget/wgt_core/UI_Controller.c **** 
1238:Dsp/widget/wgt_core/UI_Controller.c ****     if (!state && (Obj->CurDrop_Item->data != NULL) && (((UI_DropItemDataObj_TypeDef *)Obj->CurDrop
 2704              		.loc 1 1238 5 is_stmt 1 view .LVU792
 2705              		.loc 1 1238 8 is_stmt 0 view .LVU793
 2706 0006 69B9     		cbnz	r1, .L220
 2707              		.loc 1 1238 23 discriminator 1 view .LVU794
 2708 0008 D0F81130 		ldr	r3, [r0, #17]	@ unaligned
 2709              		.loc 1 1238 37 discriminator 1 view .LVU795
 2710 000c 1B69     		ldr	r3, [r3, #16]
 2711              		.loc 1 1238 16 discriminator 1 view .LVU796
 2712 000e 5BB1     		cbz	r3, .L221
 2713              		.loc 1 1238 112 discriminator 2 view .LVU797
ARM GAS  /var/folders/lx/hc4sn_b53233_zkc9xbbl97r0000gp/T//ccErXOZH.s 			page 75


 2714 0010 D3F80B20 		ldr	r2, [r3, #11]	@ unaligned
 2715              		.loc 1 1238 53 discriminator 2 view .LVU798
 2716 0014 52B1     		cbz	r2, .L222
1239:Dsp/widget/wgt_core/UI_Controller.c ****     {
1240:Dsp/widget/wgt_core/UI_Controller.c ****         /* trigger drop item callback */
1241:Dsp/widget/wgt_core/UI_Controller.c ****         ((UI_DropItemDataObj_TypeDef *)Obj->CurDrop_Item->data)->callback(((UI_DropItemDataObj_Type
 2717              		.loc 1 1241 9 is_stmt 1 view .LVU799
 2718              		.loc 1 1241 10 is_stmt 0 view .LVU800
 2719 0016 D3F80500 		ldr	r0, [r3, #5]	@ unaligned
 2720              	.LVL243:
 2721              		.loc 1 1241 10 view .LVU801
 2722 001a 9047     		blx	r2
 2723              	.LVL244:
1242:Dsp/widget/wgt_core/UI_Controller.c ****     }
1243:Dsp/widget/wgt_core/UI_Controller.c **** 
1244:Dsp/widget/wgt_core/UI_Controller.c ****     return true;
 2724              		.loc 1 1244 12 view .LVU802
 2725 001c 0120     		movs	r0, #1
 2726 001e 02E0     		b	.L218
 2727              	.LVL245:
 2728              	.L219:
 2729              	.LCFI45:
 2730              		.cfi_def_cfa_offset 0
 2731              		.cfi_restore 3
 2732              		.cfi_restore 14
1234:Dsp/widget/wgt_core/UI_Controller.c **** 
 2733              		.loc 1 1234 16 view .LVU803
 2734 0020 0020     		movs	r0, #0
 2735              	.LVL246:
1245:Dsp/widget/wgt_core/UI_Controller.c **** }
 2736              		.loc 1 1245 1 view .LVU804
 2737 0022 7047     		bx	lr
 2738              	.LVL247:
 2739              	.L220:
 2740              	.LCFI46:
 2741              		.cfi_def_cfa_offset 8
 2742              		.cfi_offset 3, -8
 2743              		.cfi_offset 14, -4
1244:Dsp/widget/wgt_core/UI_Controller.c **** }
 2744              		.loc 1 1244 12 view .LVU805
 2745 0024 0846     		mov	r0, r1
 2746              	.LVL248:
 2747              	.L218:
 2748              		.loc 1 1245 1 view .LVU806
 2749 0026 08BD     		pop	{r3, pc}
 2750              	.LVL249:
 2751              	.L221:
1244:Dsp/widget/wgt_core/UI_Controller.c **** }
 2752              		.loc 1 1244 12 view .LVU807
 2753 0028 0120     		movs	r0, #1
 2754              	.LVL250:
1244:Dsp/widget/wgt_core/UI_Controller.c **** }
 2755              		.loc 1 1244 12 view .LVU808
 2756 002a FCE7     		b	.L218
 2757              	.LVL251:
 2758              	.L222:
1244:Dsp/widget/wgt_core/UI_Controller.c **** }
ARM GAS  /var/folders/lx/hc4sn_b53233_zkc9xbbl97r0000gp/T//ccErXOZH.s 			page 76


 2759              		.loc 1 1244 12 view .LVU809
 2760 002c 0120     		movs	r0, #1
 2761              	.LVL252:
1244:Dsp/widget/wgt_core/UI_Controller.c **** }
 2762              		.loc 1 1244 12 view .LVU810
 2763 002e FAE7     		b	.L218
 2764              		.cfi_endproc
 2765              	.LFE45:
 2767              		.section	.text.UI_Drop_GetSelect,"ax",%progbits
 2768              		.align	1
 2769              		.syntax unified
 2770              		.thumb
 2771              		.thumb_func
 2772              		.fpu fpv4-sp-d16
 2774              	UI_Drop_GetSelect:
 2775              	.LVL253:
 2776              	.LFB46:
1246:Dsp/widget/wgt_core/UI_Controller.c **** 
1247:Dsp/widget/wgt_core/UI_Controller.c **** static bool UI_Drop_GetSelect(UI_DropObj_TypeDef *Obj)
1248:Dsp/widget/wgt_core/UI_Controller.c **** {
 2777              		.loc 1 1248 1 is_stmt 1 view -0
 2778              		.cfi_startproc
 2779              		@ args = 0, pretend = 0, frame = 0
 2780              		@ frame_needed = 0, uses_anonymous_args = 0
 2781              		@ link register save eliminated.
1249:Dsp/widget/wgt_core/UI_Controller.c ****     if (Obj == NULL)
 2782              		.loc 1 1249 5 view .LVU812
 2783              		.loc 1 1249 8 is_stmt 0 view .LVU813
 2784 0000 08B1     		cbz	r0, .L229
1250:Dsp/widget/wgt_core/UI_Controller.c ****         return false;
1251:Dsp/widget/wgt_core/UI_Controller.c **** 
1252:Dsp/widget/wgt_core/UI_Controller.c ****     return Obj->is_selected;
 2785              		.loc 1 1252 5 is_stmt 1 view .LVU814
 2786              		.loc 1 1252 15 is_stmt 0 view .LVU815
 2787 0002 407D     		ldrb	r0, [r0, #21]	@ zero_extendqisi2
 2788              	.LVL254:
 2789              		.loc 1 1252 15 view .LVU816
 2790 0004 7047     		bx	lr
 2791              	.LVL255:
 2792              	.L229:
1250:Dsp/widget/wgt_core/UI_Controller.c ****         return false;
 2793              		.loc 1 1250 16 view .LVU817
 2794 0006 0020     		movs	r0, #0
 2795              	.LVL256:
1253:Dsp/widget/wgt_core/UI_Controller.c **** }
 2796              		.loc 1 1253 1 view .LVU818
 2797 0008 7047     		bx	lr
 2798              		.cfi_endproc
 2799              	.LFE46:
 2801              		.section	.text.UI_Drop_SelectItem,"ax",%progbits
 2802              		.align	1
 2803              		.syntax unified
 2804              		.thumb
 2805              		.thumb_func
 2806              		.fpu fpv4-sp-d16
 2808              	UI_Drop_SelectItem:
 2809              	.LVL257:
ARM GAS  /var/folders/lx/hc4sn_b53233_zkc9xbbl97r0000gp/T//ccErXOZH.s 			page 77


 2810              	.LFB47:
1254:Dsp/widget/wgt_core/UI_Controller.c **** 
1255:Dsp/widget/wgt_core/UI_Controller.c **** static bool UI_Drop_SelectItem(UI_DropObj_TypeDef *Obj, int8_t *offset)
1256:Dsp/widget/wgt_core/UI_Controller.c **** {
 2811              		.loc 1 1256 1 is_stmt 1 view -0
 2812              		.cfi_startproc
 2813              		@ args = 0, pretend = 0, frame = 0
 2814              		@ frame_needed = 0, uses_anonymous_args = 0
 2815              		@ link register save eliminated.
1257:Dsp/widget/wgt_core/UI_Controller.c ****     item_obj *tmp = NULL;
 2816              		.loc 1 1257 5 view .LVU820
1258:Dsp/widget/wgt_core/UI_Controller.c **** 
1259:Dsp/widget/wgt_core/UI_Controller.c ****     if ((Obj == NULL) || (offset > Obj->item_cnt) || (Obj->CurDrop_Item == NULL))
 2817              		.loc 1 1259 5 view .LVU821
 2818              		.loc 1 1259 8 is_stmt 0 view .LVU822
 2819 0000 8446     		mov	ip, r0
 2820 0002 C8B1     		cbz	r0, .L236
 2821              		.loc 1 1259 39 discriminator 1 view .LVU823
 2822 0004 037B     		ldrb	r3, [r0, #12]	@ zero_extendqisi2
 2823              		.loc 1 1259 23 discriminator 1 view .LVU824
 2824 0006 8B42     		cmp	r3, r1
 2825 0008 18D3     		bcc	.L237
 2826              		.loc 1 1259 58 discriminator 2 view .LVU825
 2827 000a D0F81120 		ldr	r2, [r0, #17]	@ unaligned
 2828              		.loc 1 1259 51 discriminator 2 view .LVU826
 2829 000e 1AB9     		cbnz	r2, .L232
1260:Dsp/widget/wgt_core/UI_Controller.c ****         return false;
 2830              		.loc 1 1260 16 view .LVU827
 2831 0010 0020     		movs	r0, #0
 2832              	.LVL258:
 2833              		.loc 1 1260 16 view .LVU828
 2834 0012 7047     		bx	lr
 2835              	.LVL259:
 2836              	.L233:
1261:Dsp/widget/wgt_core/UI_Controller.c **** 
1262:Dsp/widget/wgt_core/UI_Controller.c ****     tmp = Obj->CurDrop_Item;
1263:Dsp/widget/wgt_core/UI_Controller.c **** 
1264:Dsp/widget/wgt_core/UI_Controller.c ****     while (*offset)
1265:Dsp/widget/wgt_core/UI_Controller.c ****     {
1266:Dsp/widget/wgt_core/UI_Controller.c ****         if (tmp == NULL)
1267:Dsp/widget/wgt_core/UI_Controller.c ****             return false;
1268:Dsp/widget/wgt_core/UI_Controller.c **** 
1269:Dsp/widget/wgt_core/UI_Controller.c ****         if (*offset > 0)
1270:Dsp/widget/wgt_core/UI_Controller.c ****         {
1271:Dsp/widget/wgt_core/UI_Controller.c ****             tmp = tmp->nxt;
1272:Dsp/widget/wgt_core/UI_Controller.c ****             *offset--;
1273:Dsp/widget/wgt_core/UI_Controller.c ****         }
1274:Dsp/widget/wgt_core/UI_Controller.c ****         else if (*offset < 0)
 2837              		.loc 1 1274 14 is_stmt 1 view .LVU829
 2838              		.loc 1 1274 17 is_stmt 0 view .LVU830
 2839 0014 002B     		cmp	r3, #0
 2840 0016 08DB     		blt	.L240
 2841              	.LVL260:
 2842              	.L232:
1264:Dsp/widget/wgt_core/UI_Controller.c ****     {
 2843              		.loc 1 1264 11 is_stmt 1 view .LVU831
1264:Dsp/widget/wgt_core/UI_Controller.c ****     {
ARM GAS  /var/folders/lx/hc4sn_b53233_zkc9xbbl97r0000gp/T//ccErXOZH.s 			page 78


 2844              		.loc 1 1264 12 is_stmt 0 view .LVU832
 2845 0018 91F90030 		ldrsb	r3, [r1]
1264:Dsp/widget/wgt_core/UI_Controller.c ****     {
 2846              		.loc 1 1264 11 view .LVU833
 2847 001c 43B1     		cbz	r3, .L241
1266:Dsp/widget/wgt_core/UI_Controller.c ****             return false;
 2848              		.loc 1 1266 9 is_stmt 1 view .LVU834
1266:Dsp/widget/wgt_core/UI_Controller.c ****             return false;
 2849              		.loc 1 1266 12 is_stmt 0 view .LVU835
 2850 001e 7AB1     		cbz	r2, .L239
1269:Dsp/widget/wgt_core/UI_Controller.c ****         {
 2851              		.loc 1 1269 9 is_stmt 1 view .LVU836
1269:Dsp/widget/wgt_core/UI_Controller.c ****         {
 2852              		.loc 1 1269 12 is_stmt 0 view .LVU837
 2853 0020 002B     		cmp	r3, #0
 2854 0022 F7DD     		ble	.L233
1271:Dsp/widget/wgt_core/UI_Controller.c ****             *offset--;
 2855              		.loc 1 1271 13 is_stmt 1 view .LVU838
1271:Dsp/widget/wgt_core/UI_Controller.c ****             *offset--;
 2856              		.loc 1 1271 17 is_stmt 0 view .LVU839
 2857 0024 D268     		ldr	r2, [r2, #12]
 2858              	.LVL261:
1272:Dsp/widget/wgt_core/UI_Controller.c ****         }
 2859              		.loc 1 1272 13 is_stmt 1 view .LVU840
1272:Dsp/widget/wgt_core/UI_Controller.c ****         }
 2860              		.loc 1 1272 20 is_stmt 0 view .LVU841
 2861 0026 0139     		subs	r1, r1, #1
 2862              	.LVL262:
1272:Dsp/widget/wgt_core/UI_Controller.c ****         }
 2863              		.loc 1 1272 20 view .LVU842
 2864 0028 F6E7     		b	.L232
 2865              	.L240:
1275:Dsp/widget/wgt_core/UI_Controller.c ****         {
1276:Dsp/widget/wgt_core/UI_Controller.c ****             tmp = tmp->prv;
 2866              		.loc 1 1276 13 is_stmt 1 view .LVU843
 2867              		.loc 1 1276 17 is_stmt 0 view .LVU844
 2868 002a 9268     		ldr	r2, [r2, #8]
 2869              	.LVL263:
1277:Dsp/widget/wgt_core/UI_Controller.c ****             *offset++;
 2870              		.loc 1 1277 13 is_stmt 1 view .LVU845
 2871              		.loc 1 1277 20 is_stmt 0 view .LVU846
 2872 002c 0131     		adds	r1, r1, #1
 2873              	.LVL264:
 2874              		.loc 1 1277 20 view .LVU847
 2875 002e F3E7     		b	.L232
 2876              	.L241:
1278:Dsp/widget/wgt_core/UI_Controller.c ****         }
1279:Dsp/widget/wgt_core/UI_Controller.c ****     }
1280:Dsp/widget/wgt_core/UI_Controller.c **** 
1281:Dsp/widget/wgt_core/UI_Controller.c ****     Obj->CurDrop_Item = tmp;
 2877              		.loc 1 1281 5 is_stmt 1 view .LVU848
 2878              		.loc 1 1281 23 is_stmt 0 view .LVU849
 2879 0030 CCF81120 		str	r2, [ip, #17]	@ unaligned
1282:Dsp/widget/wgt_core/UI_Controller.c **** 
1283:Dsp/widget/wgt_core/UI_Controller.c ****     return true;
 2880              		.loc 1 1283 5 is_stmt 1 view .LVU850
 2881              		.loc 1 1283 12 is_stmt 0 view .LVU851
ARM GAS  /var/folders/lx/hc4sn_b53233_zkc9xbbl97r0000gp/T//ccErXOZH.s 			page 79


 2882 0034 0120     		movs	r0, #1
 2883              	.LVL265:
 2884              		.loc 1 1283 12 view .LVU852
 2885 0036 7047     		bx	lr
 2886              	.LVL266:
 2887              	.L236:
1260:Dsp/widget/wgt_core/UI_Controller.c **** 
 2888              		.loc 1 1260 16 view .LVU853
 2889 0038 0020     		movs	r0, #0
 2890              	.LVL267:
1260:Dsp/widget/wgt_core/UI_Controller.c **** 
 2891              		.loc 1 1260 16 view .LVU854
 2892 003a 7047     		bx	lr
 2893              	.LVL268:
 2894              	.L237:
1260:Dsp/widget/wgt_core/UI_Controller.c **** 
 2895              		.loc 1 1260 16 view .LVU855
 2896 003c 0020     		movs	r0, #0
 2897              	.LVL269:
1260:Dsp/widget/wgt_core/UI_Controller.c **** 
 2898              		.loc 1 1260 16 view .LVU856
 2899 003e 7047     		bx	lr
 2900              	.LVL270:
 2901              	.L239:
1267:Dsp/widget/wgt_core/UI_Controller.c **** 
 2902              		.loc 1 1267 20 view .LVU857
 2903 0040 0020     		movs	r0, #0
 2904              	.LVL271:
1284:Dsp/widget/wgt_core/UI_Controller.c **** }
 2905              		.loc 1 1284 1 view .LVU858
 2906 0042 7047     		bx	lr
 2907              		.cfi_endproc
 2908              	.LFE47:
 2910              		.section	.text.UI_DigInput_Init,"ax",%progbits
 2911              		.align	1
 2912              		.syntax unified
 2913              		.thumb
 2914              		.thumb_func
 2915              		.fpu fpv4-sp-d16
 2917              	UI_DigInput_Init:
 2918              	.LVL272:
 2919              	.LFB49:
1285:Dsp/widget/wgt_core/UI_Controller.c **** 
1286:Dsp/widget/wgt_core/UI_Controller.c **** static bool UI_Drop_Ctl(UI_DropObj_TypeDef *Obj)
1287:Dsp/widget/wgt_core/UI_Controller.c **** {
1288:Dsp/widget/wgt_core/UI_Controller.c ****     int16_t str_x = 0;
1289:Dsp/widget/wgt_core/UI_Controller.c ****     int16_t str_y = 0;
1290:Dsp/widget/wgt_core/UI_Controller.c ****     int16_t dropitem_x = 0;
1291:Dsp/widget/wgt_core/UI_Controller.c ****     int16_t dropitem_y = 0;
1292:Dsp/widget/wgt_core/UI_Controller.c **** 
1293:Dsp/widget/wgt_core/UI_Controller.c ****     if ((Obj == NULL) &&
1294:Dsp/widget/wgt_core/UI_Controller.c ****         (UI_DspInterface.draw_str == NULL) &&
1295:Dsp/widget/wgt_core/UI_Controller.c ****         (UI_DspInterface.draw_dig == NULL))
1296:Dsp/widget/wgt_core/UI_Controller.c ****         return false;
1297:Dsp/widget/wgt_core/UI_Controller.c **** 
1298:Dsp/widget/wgt_core/UI_Controller.c ****     str_x = Obj->Gen_Data.x + 3;
1299:Dsp/widget/wgt_core/UI_Controller.c ****     str_y = Obj->Gen_Data.y;
ARM GAS  /var/folders/lx/hc4sn_b53233_zkc9xbbl97r0000gp/T//ccErXOZH.s 			page 80


1300:Dsp/widget/wgt_core/UI_Controller.c **** 
1301:Dsp/widget/wgt_core/UI_Controller.c ****     if (base_font == Font_8)
1302:Dsp/widget/wgt_core/UI_Controller.c ****         str_y += 1;
1303:Dsp/widget/wgt_core/UI_Controller.c **** 
1304:Dsp/widget/wgt_core/UI_Controller.c ****     /* show label */
1305:Dsp/widget/wgt_core/UI_Controller.c ****     UI_DspInterface.draw_str(base_font, Obj->Gen_Data.label, str_x, str_y, true);
1306:Dsp/widget/wgt_core/UI_Controller.c **** 
1307:Dsp/widget/wgt_core/UI_Controller.c ****     // dropitem_y = str_y + base_font + 2;
1308:Dsp/widget/wgt_core/UI_Controller.c ****     dropitem_y = str_y;
1309:Dsp/widget/wgt_core/UI_Controller.c ****     dropitem_x = Obj->Gen_Data.x + STR_DIS * strlen(Obj->Gen_Data.label);
1310:Dsp/widget/wgt_core/UI_Controller.c **** 
1311:Dsp/widget/wgt_core/UI_Controller.c ****     /* show drop item id */
1312:Dsp/widget/wgt_core/UI_Controller.c ****     UI_DspInterface.draw_dig(base_font, ((UI_DropItemDataObj_TypeDef *)(Obj->CurDrop_Item->data))->
1313:Dsp/widget/wgt_core/UI_Controller.c **** 
1314:Dsp/widget/wgt_core/UI_Controller.c ****     /* show drop item label */
1315:Dsp/widget/wgt_core/UI_Controller.c ****     dropitem_x += base_font + 2;
1316:Dsp/widget/wgt_core/UI_Controller.c ****     UI_DspInterface.draw_str(base_font, ((UI_DropItemDataObj_TypeDef *)(Obj->CurDrop_Item->data))->
1317:Dsp/widget/wgt_core/UI_Controller.c **** 
1318:Dsp/widget/wgt_core/UI_Controller.c ****     return true;
1319:Dsp/widget/wgt_core/UI_Controller.c **** }
1320:Dsp/widget/wgt_core/UI_Controller.c **** 
1321:Dsp/widget/wgt_core/UI_Controller.c **** static bool UI_DigInput_Init(UI_DigInputObj_TypeDef *Obj, char *label, int16_t x, int16_t y, UI_Dig
1322:Dsp/widget/wgt_core/UI_Controller.c **** {
 2920              		.loc 1 1322 1 is_stmt 1 view -0
 2921              		.cfi_startproc
 2922              		@ args = 4, pretend = 0, frame = 0
 2923              		@ frame_needed = 0, uses_anonymous_args = 0
1323:Dsp/widget/wgt_core/UI_Controller.c ****     if (Obj == NULL)
 2924              		.loc 1 1323 5 view .LVU860
 2925              		.loc 1 1323 8 is_stmt 0 view .LVU861
 2926 0000 0028     		cmp	r0, #0
 2927 0002 52D0     		beq	.L244
1322:Dsp/widget/wgt_core/UI_Controller.c ****     if (Obj == NULL)
 2928              		.loc 1 1322 1 view .LVU862
 2929 0004 10B5     		push	{r4, lr}
 2930              	.LCFI47:
 2931              		.cfi_def_cfa_offset 8
 2932              		.cfi_offset 4, -8
 2933              		.cfi_offset 14, -4
 2934 0006 0446     		mov	r4, r0
1324:Dsp/widget/wgt_core/UI_Controller.c ****         return false;
1325:Dsp/widget/wgt_core/UI_Controller.c **** 
1326:Dsp/widget/wgt_core/UI_Controller.c ****     UI_GenData_Init(&(Obj->Gen_Data), label, x, y);
 2935              		.loc 1 1326 5 is_stmt 1 view .LVU863
 2936 0008 FFF7FEFF 		bl	UI_GenData_Init
 2937              	.LVL273:
1327:Dsp/widget/wgt_core/UI_Controller.c **** 
1328:Dsp/widget/wgt_core/UI_Controller.c ****     Obj->type = type;
 2938              		.loc 1 1328 5 view .LVU864
 2939              		.loc 1 1328 15 is_stmt 0 view .LVU865
 2940 000c 9DF80830 		ldrb	r3, [sp, #8]	@ zero_extendqisi2
 2941 0010 2373     		strb	r3, [r4, #12]
1329:Dsp/widget/wgt_core/UI_Controller.c ****     Obj->selected = false;
 2942              		.loc 1 1329 5 is_stmt 1 view .LVU866
 2943              		.loc 1 1329 19 is_stmt 0 view .LVU867
 2944 0012 0023     		movs	r3, #0
 2945 0014 84F83F30 		strb	r3, [r4, #63]
ARM GAS  /var/folders/lx/hc4sn_b53233_zkc9xbbl97r0000gp/T//ccErXOZH.s 			page 81


1330:Dsp/widget/wgt_core/UI_Controller.c ****     Obj->InputData_Int.CurVal = 0;
 2946              		.loc 1 1330 5 is_stmt 1 view .LVU868
 2947              		.loc 1 1330 31 is_stmt 0 view .LVU869
 2948 0018 E375     		strb	r3, [r4, #23]
 2949 001a 2376     		strb	r3, [r4, #24]
 2950 001c 6376     		strb	r3, [r4, #25]
 2951 001e A376     		strb	r3, [r4, #26]
1331:Dsp/widget/wgt_core/UI_Controller.c **** 
1332:Dsp/widget/wgt_core/UI_Controller.c ****     Obj->InputData_Int.Max = 0;
 2952              		.loc 1 1332 5 is_stmt 1 view .LVU870
 2953              		.loc 1 1332 28 is_stmt 0 view .LVU871
 2954 0020 6373     		strb	r3, [r4, #13]
 2955 0022 A373     		strb	r3, [r4, #14]
 2956 0024 E373     		strb	r3, [r4, #15]
 2957 0026 2374     		strb	r3, [r4, #16]
1333:Dsp/widget/wgt_core/UI_Controller.c ****     Obj->InputData_Int.Min = 0;
 2958              		.loc 1 1333 5 is_stmt 1 view .LVU872
 2959              		.loc 1 1333 28 is_stmt 0 view .LVU873
 2960 0028 6374     		strb	r3, [r4, #17]
 2961 002a A374     		strb	r3, [r4, #18]
 2962 002c E374     		strb	r3, [r4, #19]
 2963 002e 2375     		strb	r3, [r4, #20]
1334:Dsp/widget/wgt_core/UI_Controller.c ****     Obj->InputData_Int.CurVal = 0;
 2964              		.loc 1 1334 5 is_stmt 1 view .LVU874
1335:Dsp/widget/wgt_core/UI_Controller.c **** 
1336:Dsp/widget/wgt_core/UI_Controller.c ****     Obj->InputData_Dou.Max = 0.0;
 2965              		.loc 1 1336 5 view .LVU875
 2966              		.loc 1 1336 28 is_stmt 0 view .LVU876
 2967 0030 E376     		strb	r3, [r4, #27]
 2968 0032 2377     		strb	r3, [r4, #28]
 2969 0034 6377     		strb	r3, [r4, #29]
 2970 0036 A377     		strb	r3, [r4, #30]
 2971 0038 E377     		strb	r3, [r4, #31]
 2972 003a 84F82030 		strb	r3, [r4, #32]
 2973 003e 84F82130 		strb	r3, [r4, #33]
 2974 0042 84F82230 		strb	r3, [r4, #34]
1337:Dsp/widget/wgt_core/UI_Controller.c ****     Obj->InputData_Dou.Min = 0.0;
 2975              		.loc 1 1337 5 is_stmt 1 view .LVU877
 2976              		.loc 1 1337 28 is_stmt 0 view .LVU878
 2977 0046 84F82330 		strb	r3, [r4, #35]
 2978 004a 84F82430 		strb	r3, [r4, #36]
 2979 004e 84F82530 		strb	r3, [r4, #37]
 2980 0052 84F82630 		strb	r3, [r4, #38]
 2981 0056 84F82730 		strb	r3, [r4, #39]
 2982 005a 84F82830 		strb	r3, [r4, #40]
 2983 005e 84F82930 		strb	r3, [r4, #41]
 2984 0062 84F82A30 		strb	r3, [r4, #42]
1338:Dsp/widget/wgt_core/UI_Controller.c ****     Obj->InputData_Dou.CurVal = 0.0;
 2985              		.loc 1 1338 5 is_stmt 1 view .LVU879
 2986              		.loc 1 1338 31 is_stmt 0 view .LVU880
 2987 0066 84F82B30 		strb	r3, [r4, #43]
 2988 006a 84F82C30 		strb	r3, [r4, #44]
 2989 006e 84F82D30 		strb	r3, [r4, #45]
 2990 0072 84F82E30 		strb	r3, [r4, #46]
 2991 0076 84F82F30 		strb	r3, [r4, #47]
 2992 007a 84F83030 		strb	r3, [r4, #48]
 2993 007e 84F83130 		strb	r3, [r4, #49]
ARM GAS  /var/folders/lx/hc4sn_b53233_zkc9xbbl97r0000gp/T//ccErXOZH.s 			page 82


 2994 0082 84F83230 		strb	r3, [r4, #50]
1339:Dsp/widget/wgt_core/UI_Controller.c **** 
1340:Dsp/widget/wgt_core/UI_Controller.c ****     Obj->InputData_Dou.IntPart = 0;
 2995              		.loc 1 1340 5 is_stmt 1 view .LVU881
 2996              		.loc 1 1340 32 is_stmt 0 view .LVU882
 2997 0086 84F83730 		strb	r3, [r4, #55]
 2998 008a 84F83830 		strb	r3, [r4, #56]
 2999 008e 84F83930 		strb	r3, [r4, #57]
 3000 0092 84F83A30 		strb	r3, [r4, #58]
1341:Dsp/widget/wgt_core/UI_Controller.c ****     Obj->InputData_Dou.PointPart = 0;
 3001              		.loc 1 1341 5 is_stmt 1 view .LVU883
 3002              		.loc 1 1341 34 is_stmt 0 view .LVU884
 3003 0096 84F83B30 		strb	r3, [r4, #59]
 3004 009a 84F83C30 		strb	r3, [r4, #60]
 3005 009e 84F83D30 		strb	r3, [r4, #61]
 3006 00a2 84F83E30 		strb	r3, [r4, #62]
1342:Dsp/widget/wgt_core/UI_Controller.c **** 
1343:Dsp/widget/wgt_core/UI_Controller.c ****     return true;
 3007              		.loc 1 1343 5 is_stmt 1 view .LVU885
 3008              		.loc 1 1343 12 is_stmt 0 view .LVU886
 3009 00a6 0120     		movs	r0, #1
1344:Dsp/widget/wgt_core/UI_Controller.c **** }
 3010              		.loc 1 1344 1 view .LVU887
 3011 00a8 10BD     		pop	{r4, pc}
 3012              	.LVL274:
 3013              	.L244:
 3014              	.LCFI48:
 3015              		.cfi_def_cfa_offset 0
 3016              		.cfi_restore 4
 3017              		.cfi_restore 14
1324:Dsp/widget/wgt_core/UI_Controller.c **** 
 3018              		.loc 1 1324 16 view .LVU888
 3019 00aa 0020     		movs	r0, #0
 3020              	.LVL275:
 3021              		.loc 1 1344 1 view .LVU889
 3022 00ac 7047     		bx	lr
 3023              		.cfi_endproc
 3024              	.LFE49:
 3026              		.section	.text.UI_DigInput_SetIntRange,"ax",%progbits
 3027              		.align	1
 3028              		.syntax unified
 3029              		.thumb
 3030              		.thumb_func
 3031              		.fpu fpv4-sp-d16
 3033              	UI_DigInput_SetIntRange:
 3034              	.LVL276:
 3035              	.LFB50:
1345:Dsp/widget/wgt_core/UI_Controller.c **** 
1346:Dsp/widget/wgt_core/UI_Controller.c **** static bool UI_DigInput_SetIntRange(UI_DigInputObj_TypeDef *Obj, uint8_t efft_int_len, int32_t max,
1347:Dsp/widget/wgt_core/UI_Controller.c **** {
 3036              		.loc 1 1347 1 is_stmt 1 view -0
 3037              		.cfi_startproc
 3038              		@ args = 4, pretend = 0, frame = 0
 3039              		@ frame_needed = 0, uses_anonymous_args = 0
 3040              		@ link register save eliminated.
1348:Dsp/widget/wgt_core/UI_Controller.c ****     if ((Obj == NULL) ||
 3041              		.loc 1 1348 5 view .LVU891
ARM GAS  /var/folders/lx/hc4sn_b53233_zkc9xbbl97r0000gp/T//ccErXOZH.s 			page 83


 3042              		.loc 1 1348 8 is_stmt 0 view .LVU892
 3043 0000 8446     		mov	ip, r0
 3044 0002 78B1     		cbz	r0, .L251
 3045              		.loc 1 1348 23 discriminator 1 view .LVU893
 3046 0004 9A42     		cmp	r2, r3
 3047 0006 0FDD     		ble	.L252
1349:Dsp/widget/wgt_core/UI_Controller.c ****         (max <= min) ||
1350:Dsp/widget/wgt_core/UI_Controller.c ****         (Obj->type == UI_DoubleDig_Input))
 3048              		.loc 1 1350 13 view .LVU894
 3049 0008 007B     		ldrb	r0, [r0, #12]	@ zero_extendqisi2
 3050              	.LVL277:
1349:Dsp/widget/wgt_core/UI_Controller.c ****         (max <= min) ||
 3051              		.loc 1 1349 22 view .LVU895
 3052 000a 0128     		cmp	r0, #1
 3053 000c 0ED0     		beq	.L253
1351:Dsp/widget/wgt_core/UI_Controller.c ****         return false;
1352:Dsp/widget/wgt_core/UI_Controller.c **** 
1353:Dsp/widget/wgt_core/UI_Controller.c ****     Obj->InputData_Int.Max = max;
 3054              		.loc 1 1353 5 is_stmt 1 view .LVU896
 3055              		.loc 1 1353 28 is_stmt 0 view .LVU897
 3056 000e CCF80D20 		str	r2, [ip, #13]	@ unaligned
1354:Dsp/widget/wgt_core/UI_Controller.c ****     Obj->InputData_Int.Min = min;
 3057              		.loc 1 1354 5 is_stmt 1 view .LVU898
 3058              		.loc 1 1354 28 is_stmt 0 view .LVU899
 3059 0012 CCF81130 		str	r3, [ip, #17]	@ unaligned
1355:Dsp/widget/wgt_core/UI_Controller.c ****     Obj->InputData_Int.effective_len = efft_int_len;
 3060              		.loc 1 1355 5 is_stmt 1 view .LVU900
 3061              		.loc 1 1355 38 is_stmt 0 view .LVU901
 3062 0016 8CF81510 		strb	r1, [ip, #21]
1356:Dsp/widget/wgt_core/UI_Controller.c ****     Obj->InputData_Int.CurVal = cur;
 3063              		.loc 1 1356 5 is_stmt 1 view .LVU902
 3064              		.loc 1 1356 31 is_stmt 0 view .LVU903
 3065 001a 009B     		ldr	r3, [sp]
 3066              	.LVL278:
 3067              		.loc 1 1356 31 view .LVU904
 3068 001c CCF81730 		str	r3, [ip, #23]	@ unaligned
1357:Dsp/widget/wgt_core/UI_Controller.c **** 
1358:Dsp/widget/wgt_core/UI_Controller.c ****     return true;
 3069              		.loc 1 1358 5 is_stmt 1 view .LVU905
 3070              		.loc 1 1358 12 is_stmt 0 view .LVU906
 3071 0020 0120     		movs	r0, #1
 3072 0022 7047     		bx	lr
 3073              	.LVL279:
 3074              	.L251:
1351:Dsp/widget/wgt_core/UI_Controller.c **** 
 3075              		.loc 1 1351 16 view .LVU907
 3076 0024 0020     		movs	r0, #0
 3077              	.LVL280:
1351:Dsp/widget/wgt_core/UI_Controller.c **** 
 3078              		.loc 1 1351 16 view .LVU908
 3079 0026 7047     		bx	lr
 3080              	.LVL281:
 3081              	.L252:
1351:Dsp/widget/wgt_core/UI_Controller.c **** 
 3082              		.loc 1 1351 16 view .LVU909
 3083 0028 0020     		movs	r0, #0
 3084              	.LVL282:
ARM GAS  /var/folders/lx/hc4sn_b53233_zkc9xbbl97r0000gp/T//ccErXOZH.s 			page 84


1351:Dsp/widget/wgt_core/UI_Controller.c **** 
 3085              		.loc 1 1351 16 view .LVU910
 3086 002a 7047     		bx	lr
 3087              	.L253:
 3088 002c 0020     		movs	r0, #0
1359:Dsp/widget/wgt_core/UI_Controller.c **** }
 3089              		.loc 1 1359 1 view .LVU911
 3090 002e 7047     		bx	lr
 3091              		.cfi_endproc
 3092              	.LFE50:
 3094              		.global	__aeabi_dsub
 3095              		.global	__aeabi_dcmple
 3096              		.global	__aeabi_d2lz
 3097              		.global	__aeabi_l2d
 3098              		.global	__aeabi_d2uiz
 3099              		.section	.text.UI_DigInput_SetDouRange,"ax",%progbits
 3100              		.align	1
 3101              		.syntax unified
 3102              		.thumb
 3103              		.thumb_func
 3104              		.fpu fpv4-sp-d16
 3106              	UI_DigInput_SetDouRange:
 3107              	.LVL283:
 3108              	.LFB51:
1360:Dsp/widget/wgt_core/UI_Controller.c **** 
1361:Dsp/widget/wgt_core/UI_Controller.c **** static bool UI_DigInput_SetDouRange(UI_DigInputObj_TypeDef *Obj, uint8_t efft_int_len, uint8_t efft
1362:Dsp/widget/wgt_core/UI_Controller.c **** {
 3109              		.loc 1 1362 1 is_stmt 1 view -0
 3110              		.cfi_startproc
 3111              		@ args = 0, pretend = 0, frame = 8
 3112              		@ frame_needed = 0, uses_anonymous_args = 0
 3113              		.loc 1 1362 1 is_stmt 0 view .LVU913
 3114 0000 2DE9F04F 		push	{r4, r5, r6, r7, r8, r9, r10, fp, lr}
 3115              	.LCFI49:
 3116              		.cfi_def_cfa_offset 36
 3117              		.cfi_offset 4, -36
 3118              		.cfi_offset 5, -32
 3119              		.cfi_offset 6, -28
 3120              		.cfi_offset 7, -24
 3121              		.cfi_offset 8, -20
 3122              		.cfi_offset 9, -16
 3123              		.cfi_offset 10, -12
 3124              		.cfi_offset 11, -8
 3125              		.cfi_offset 14, -4
 3126 0004 83B0     		sub	sp, sp, #12
 3127              	.LCFI50:
 3128              		.cfi_def_cfa_offset 48
 3129 0006 0191     		str	r1, [sp, #4]
1363:Dsp/widget/wgt_core/UI_Controller.c ****     if ((Obj == NULL) ||
 3130              		.loc 1 1363 5 is_stmt 1 view .LVU914
 3131              		.loc 1 1363 8 is_stmt 0 view .LVU915
 3132 0008 0028     		cmp	r0, #0
 3133 000a 47D0     		beq	.L256
 3134 000c 1546     		mov	r5, r2
 3135 000e 57EC106B 		vmov	r6, r7, d0
 3136 0012 5BEC11AB 		vmov	r10, fp, d1
 3137 0016 59EC128B 		vmov	r8, r9, d2
ARM GAS  /var/folders/lx/hc4sn_b53233_zkc9xbbl97r0000gp/T//ccErXOZH.s 			page 85


 3138 001a 0446     		mov	r4, r0
 3139              		.loc 1 1363 23 discriminator 1 view .LVU916
 3140 001c 002A     		cmp	r2, #0
 3141 001e 3FD0     		beq	.L257
1364:Dsp/widget/wgt_core/UI_Controller.c ****         (efft_point_len == 0) ||
1365:Dsp/widget/wgt_core/UI_Controller.c ****         (max - min <= 0.00001) ||
 3142              		.loc 1 1365 14 view .LVU917
 3143 0020 11EE102A 		vmov	r2, s2	@ int
 3144              	.LVL284:
 3145              		.loc 1 1365 14 view .LVU918
 3146 0024 5B46     		mov	r3, fp
 3147 0026 10EE100A 		vmov	r0, s0	@ int
 3148              	.LVL285:
 3149              		.loc 1 1365 14 view .LVU919
 3150 002a 3946     		mov	r1, r7
 3151              	.LVL286:
 3152              		.loc 1 1365 14 view .LVU920
 3153 002c FFF7FEFF 		bl	__aeabi_dsub
 3154              	.LVL287:
1364:Dsp/widget/wgt_core/UI_Controller.c ****         (efft_point_len == 0) ||
 3155              		.loc 1 1364 31 view .LVU921
 3156 0030 1FA3     		adr	r3, .L261
 3157 0032 D3E90023 		ldrd	r2, [r3]
 3158 0036 FFF7FEFF 		bl	__aeabi_dcmple
 3159              	.LVL288:
 3160 003a A8BB     		cbnz	r0, .L258
1366:Dsp/widget/wgt_core/UI_Controller.c ****         (Obj->type == UI_IntDig_Input))
 3161              		.loc 1 1366 13 view .LVU922
 3162 003c 237B     		ldrb	r3, [r4, #12]	@ zero_extendqisi2
1365:Dsp/widget/wgt_core/UI_Controller.c ****         (Obj->type == UI_IntDig_Input))
 3163              		.loc 1 1365 32 view .LVU923
 3164 003e ABB3     		cbz	r3, .L259
1367:Dsp/widget/wgt_core/UI_Controller.c ****         return false;
1368:Dsp/widget/wgt_core/UI_Controller.c **** 
1369:Dsp/widget/wgt_core/UI_Controller.c ****     Obj->InputData_Dou.Max = max;
 3165              		.loc 1 1369 5 is_stmt 1 view .LVU924
 3166              		.loc 1 1369 28 is_stmt 0 view .LVU925
 3167 0040 C4F81B60 		str	r6, [r4, #27]	@ unaligned
 3168 0044 C4F81F70 		str	r7, [r4, #31]	@ unaligned
1370:Dsp/widget/wgt_core/UI_Controller.c ****     Obj->InputData_Dou.Min = min;
 3169              		.loc 1 1370 5 is_stmt 1 view .LVU926
 3170              		.loc 1 1370 28 is_stmt 0 view .LVU927
 3171 0048 C4F823A0 		str	r10, [r4, #35]	@ unaligned
 3172 004c C4F827B0 		str	fp, [r4, #39]	@ unaligned
1371:Dsp/widget/wgt_core/UI_Controller.c ****     Obj->InputData_Dou.CurVal = cur;
 3173              		.loc 1 1371 5 is_stmt 1 view .LVU928
 3174              		.loc 1 1371 31 is_stmt 0 view .LVU929
 3175 0050 C4F82B80 		str	r8, [r4, #43]	@ unaligned
 3176 0054 C4F82F90 		str	r9, [r4, #47]	@ unaligned
1372:Dsp/widget/wgt_core/UI_Controller.c ****     Obj->InputData_Dou.effective_int_len = efft_int_len;
 3177              		.loc 1 1372 5 is_stmt 1 view .LVU930
 3178              		.loc 1 1372 42 is_stmt 0 view .LVU931
 3179 0058 019B     		ldr	r3, [sp, #4]
 3180 005a 84F83530 		strb	r3, [r4, #53]
1373:Dsp/widget/wgt_core/UI_Controller.c ****     Obj->InputData_Dou.effective_point_len = efft_point_len;
 3181              		.loc 1 1373 5 is_stmt 1 view .LVU932
 3182              		.loc 1 1373 44 is_stmt 0 view .LVU933
ARM GAS  /var/folders/lx/hc4sn_b53233_zkc9xbbl97r0000gp/T//ccErXOZH.s 			page 86


 3183 005e 84F83650 		strb	r5, [r4, #54]
1374:Dsp/widget/wgt_core/UI_Controller.c **** 
1375:Dsp/widget/wgt_core/UI_Controller.c ****     Obj->callback = NULL;
 3184              		.loc 1 1375 5 is_stmt 1 view .LVU934
 3185              		.loc 1 1375 19 is_stmt 0 view .LVU935
 3186 0062 0023     		movs	r3, #0
 3187 0064 84F84030 		strb	r3, [r4, #64]
 3188 0068 84F84130 		strb	r3, [r4, #65]
 3189 006c 84F84230 		strb	r3, [r4, #66]
 3190 0070 84F84330 		strb	r3, [r4, #67]
1376:Dsp/widget/wgt_core/UI_Controller.c **** 
1377:Dsp/widget/wgt_core/UI_Controller.c ****     Obj->InputData_Dou.IntPart = (int64_t)cur;
 3191              		.loc 1 1377 5 is_stmt 1 view .LVU936
 3192              		.loc 1 1377 34 is_stmt 0 view .LVU937
 3193 0074 4046     		mov	r0, r8
 3194 0076 4946     		mov	r1, r9
 3195 0078 FFF7FEFF 		bl	__aeabi_d2lz
 3196              	.LVL289:
 3197              		.loc 1 1377 32 view .LVU938
 3198 007c C4F83700 		str	r0, [r4, #55]	@ unaligned
1378:Dsp/widget/wgt_core/UI_Controller.c ****     Obj->InputData_Dou.PointPart = cur - (int64_t)cur;
 3199              		.loc 1 1378 5 is_stmt 1 view .LVU939
 3200              		.loc 1 1378 40 is_stmt 0 view .LVU940
 3201 0080 FFF7FEFF 		bl	__aeabi_l2d
 3202              	.LVL290:
 3203 0084 0246     		mov	r2, r0
 3204 0086 0B46     		mov	r3, r1
 3205 0088 4046     		mov	r0, r8
 3206 008a 4946     		mov	r1, r9
 3207 008c FFF7FEFF 		bl	__aeabi_dsub
 3208              	.LVL291:
 3209              		.loc 1 1378 34 view .LVU941
 3210 0090 FFF7FEFF 		bl	__aeabi_d2uiz
 3211              	.LVL292:
 3212 0094 C4F83B00 		str	r0, [r4, #59]	@ unaligned
1379:Dsp/widget/wgt_core/UI_Controller.c **** 
1380:Dsp/widget/wgt_core/UI_Controller.c ****     return true;
 3213              		.loc 1 1380 5 is_stmt 1 view .LVU942
 3214              		.loc 1 1380 12 is_stmt 0 view .LVU943
 3215 0098 0120     		movs	r0, #1
 3216 009a 02E0     		b	.L255
 3217              	.LVL293:
 3218              	.L256:
1367:Dsp/widget/wgt_core/UI_Controller.c **** 
 3219              		.loc 1 1367 16 view .LVU944
 3220 009c 0020     		movs	r0, #0
 3221              	.LVL294:
1367:Dsp/widget/wgt_core/UI_Controller.c **** 
 3222              		.loc 1 1367 16 view .LVU945
 3223 009e 00E0     		b	.L255
 3224              	.LVL295:
 3225              	.L257:
1367:Dsp/widget/wgt_core/UI_Controller.c **** 
 3226              		.loc 1 1367 16 view .LVU946
 3227 00a0 0020     		movs	r0, #0
 3228              	.LVL296:
 3229              	.L255:
ARM GAS  /var/folders/lx/hc4sn_b53233_zkc9xbbl97r0000gp/T//ccErXOZH.s 			page 87


1381:Dsp/widget/wgt_core/UI_Controller.c **** }
 3230              		.loc 1 1381 1 view .LVU947
 3231 00a2 03B0     		add	sp, sp, #12
 3232              	.LCFI51:
 3233              		.cfi_remember_state
 3234              		.cfi_def_cfa_offset 36
 3235              		@ sp needed
 3236 00a4 BDE8F08F 		pop	{r4, r5, r6, r7, r8, r9, r10, fp, pc}
 3237              	.LVL297:
 3238              	.L258:
 3239              	.LCFI52:
 3240              		.cfi_restore_state
1367:Dsp/widget/wgt_core/UI_Controller.c **** 
 3241              		.loc 1 1367 16 view .LVU948
 3242 00a8 0020     		movs	r0, #0
 3243 00aa FAE7     		b	.L255
 3244              	.L259:
 3245 00ac 0020     		movs	r0, #0
 3246 00ae F8E7     		b	.L255
 3247              	.L262:
 3248              		.align	3
 3249              	.L261:
 3250 00b0 F168E388 		.word	-1998362383
 3251 00b4 B5F8E43E 		.word	1055193269
 3252              		.cfi_endproc
 3253              	.LFE51:
 3255              		.section	.text.UI_DigInput_SetCallback,"ax",%progbits
 3256              		.align	1
 3257              		.syntax unified
 3258              		.thumb
 3259              		.thumb_func
 3260              		.fpu fpv4-sp-d16
 3262              	UI_DigInput_SetCallback:
 3263              	.LVL298:
 3264              	.LFB52:
1382:Dsp/widget/wgt_core/UI_Controller.c **** 
1383:Dsp/widget/wgt_core/UI_Controller.c **** static bool UI_DigInput_SetCallback(UI_DigInputObj_TypeDef *Obj, UI_DigInput_Callback callback)
1384:Dsp/widget/wgt_core/UI_Controller.c **** {
 3265              		.loc 1 1384 1 is_stmt 1 view -0
 3266              		.cfi_startproc
 3267              		@ args = 0, pretend = 0, frame = 0
 3268              		@ frame_needed = 0, uses_anonymous_args = 0
 3269              		@ link register save eliminated.
1385:Dsp/widget/wgt_core/UI_Controller.c ****     if (Obj == NULL)
 3270              		.loc 1 1385 5 view .LVU950
 3271              		.loc 1 1385 8 is_stmt 0 view .LVU951
 3272 0000 10B1     		cbz	r0, .L265
1386:Dsp/widget/wgt_core/UI_Controller.c ****         return false;
1387:Dsp/widget/wgt_core/UI_Controller.c **** 
1388:Dsp/widget/wgt_core/UI_Controller.c ****     Obj->callback = callback;
 3273              		.loc 1 1388 5 is_stmt 1 view .LVU952
 3274              		.loc 1 1388 19 is_stmt 0 view .LVU953
 3275 0002 0164     		str	r1, [r0, #64]	@ unaligned
1389:Dsp/widget/wgt_core/UI_Controller.c **** 
1390:Dsp/widget/wgt_core/UI_Controller.c ****     return true;
 3276              		.loc 1 1390 5 is_stmt 1 view .LVU954
 3277              		.loc 1 1390 12 is_stmt 0 view .LVU955
ARM GAS  /var/folders/lx/hc4sn_b53233_zkc9xbbl97r0000gp/T//ccErXOZH.s 			page 88


 3278 0004 0120     		movs	r0, #1
 3279              	.LVL299:
 3280              		.loc 1 1390 12 view .LVU956
 3281 0006 7047     		bx	lr
 3282              	.LVL300:
 3283              	.L265:
1386:Dsp/widget/wgt_core/UI_Controller.c ****         return false;
 3284              		.loc 1 1386 16 view .LVU957
 3285 0008 0020     		movs	r0, #0
 3286              	.LVL301:
1391:Dsp/widget/wgt_core/UI_Controller.c **** }
 3287              		.loc 1 1391 1 view .LVU958
 3288 000a 7047     		bx	lr
 3289              		.cfi_endproc
 3290              	.LFE52:
 3292              		.section	.text.UI_DigInput_GetDoubleVal,"ax",%progbits
 3293              		.align	1
 3294              		.syntax unified
 3295              		.thumb
 3296              		.thumb_func
 3297              		.fpu fpv4-sp-d16
 3299              	UI_DigInput_GetDoubleVal:
 3300              	.LVL302:
 3301              	.LFB53:
1392:Dsp/widget/wgt_core/UI_Controller.c **** 
1393:Dsp/widget/wgt_core/UI_Controller.c **** static bool UI_DigInput_GetDoubleVal(UI_DigInputObj_TypeDef *Obj, double *Out)
1394:Dsp/widget/wgt_core/UI_Controller.c **** {
 3302              		.loc 1 1394 1 is_stmt 1 view -0
 3303              		.cfi_startproc
 3304              		@ args = 0, pretend = 0, frame = 0
 3305              		@ frame_needed = 0, uses_anonymous_args = 0
 3306              		@ link register save eliminated.
1395:Dsp/widget/wgt_core/UI_Controller.c ****     if ((Obj == NULL) || (Obj->type == UI_IntDig_Input))
 3307              		.loc 1 1395 5 view .LVU960
 3308              		.loc 1 1395 8 is_stmt 0 view .LVU961
 3309 0000 58B1     		cbz	r0, .L268
 3310              		.loc 1 1395 30 discriminator 1 view .LVU962
 3311 0002 027B     		ldrb	r2, [r0, #12]	@ zero_extendqisi2
 3312              		.loc 1 1395 23 discriminator 1 view .LVU963
 3313 0004 5AB1     		cbz	r2, .L269
1394:Dsp/widget/wgt_core/UI_Controller.c ****     if ((Obj == NULL) || (Obj->type == UI_IntDig_Input))
 3314              		.loc 1 1394 1 view .LVU964
 3315 0006 30B4     		push	{r4, r5}
 3316              	.LCFI53:
 3317              		.cfi_def_cfa_offset 8
 3318              		.cfi_offset 4, -8
 3319              		.cfi_offset 5, -4
1396:Dsp/widget/wgt_core/UI_Controller.c ****         return false;
1397:Dsp/widget/wgt_core/UI_Controller.c **** 
1398:Dsp/widget/wgt_core/UI_Controller.c ****     *Out = Obj->InputData_Dou.CurVal;
 3320              		.loc 1 1398 5 is_stmt 1 view .LVU965
 3321              		.loc 1 1398 30 is_stmt 0 view .LVU966
 3322 0008 D0F82B40 		ldr	r4, [r0, #43]	@ unaligned
 3323 000c D0F82F50 		ldr	r5, [r0, #47]	@ unaligned
 3324              		.loc 1 1398 10 view .LVU967
 3325 0010 C1E90045 		strd	r4, [r1]
1399:Dsp/widget/wgt_core/UI_Controller.c **** 
ARM GAS  /var/folders/lx/hc4sn_b53233_zkc9xbbl97r0000gp/T//ccErXOZH.s 			page 89


1400:Dsp/widget/wgt_core/UI_Controller.c ****     return true;
 3326              		.loc 1 1400 5 is_stmt 1 view .LVU968
 3327              		.loc 1 1400 12 is_stmt 0 view .LVU969
 3328 0014 0120     		movs	r0, #1
 3329              	.LVL303:
1401:Dsp/widget/wgt_core/UI_Controller.c **** }
 3330              		.loc 1 1401 1 view .LVU970
 3331 0016 30BC     		pop	{r4, r5}
 3332              	.LCFI54:
 3333              		.cfi_restore 5
 3334              		.cfi_restore 4
 3335              		.cfi_def_cfa_offset 0
 3336 0018 7047     		bx	lr
 3337              	.LVL304:
 3338              	.L268:
1396:Dsp/widget/wgt_core/UI_Controller.c ****         return false;
 3339              		.loc 1 1396 16 view .LVU971
 3340 001a 0020     		movs	r0, #0
 3341              	.LVL305:
1396:Dsp/widget/wgt_core/UI_Controller.c ****         return false;
 3342              		.loc 1 1396 16 view .LVU972
 3343 001c 7047     		bx	lr
 3344              	.LVL306:
 3345              	.L269:
1396:Dsp/widget/wgt_core/UI_Controller.c ****         return false;
 3346              		.loc 1 1396 16 view .LVU973
 3347 001e 0020     		movs	r0, #0
 3348              	.LVL307:
 3349              		.loc 1 1401 1 view .LVU974
 3350 0020 7047     		bx	lr
 3351              		.cfi_endproc
 3352              	.LFE53:
 3354              		.section	.text.UI_DigInput_GetIntVal,"ax",%progbits
 3355              		.align	1
 3356              		.syntax unified
 3357              		.thumb
 3358              		.thumb_func
 3359              		.fpu fpv4-sp-d16
 3361              	UI_DigInput_GetIntVal:
 3362              	.LVL308:
 3363              	.LFB54:
1402:Dsp/widget/wgt_core/UI_Controller.c **** 
1403:Dsp/widget/wgt_core/UI_Controller.c **** static bool UI_DigInput_GetIntVal(UI_DigInputObj_TypeDef *Obj, int32_t *Out)
1404:Dsp/widget/wgt_core/UI_Controller.c **** {
 3364              		.loc 1 1404 1 is_stmt 1 view -0
 3365              		.cfi_startproc
 3366              		@ args = 0, pretend = 0, frame = 0
 3367              		@ frame_needed = 0, uses_anonymous_args = 0
 3368              		@ link register save eliminated.
1405:Dsp/widget/wgt_core/UI_Controller.c ****     if ((Obj == NULL) || (Obj->type == UI_DoubleDig_Input))
 3369              		.loc 1 1405 5 view .LVU976
 3370              		.loc 1 1405 8 is_stmt 0 view .LVU977
 3371 0000 38B1     		cbz	r0, .L276
 3372              		.loc 1 1405 30 discriminator 1 view .LVU978
 3373 0002 027B     		ldrb	r2, [r0, #12]	@ zero_extendqisi2
 3374              		.loc 1 1405 23 discriminator 1 view .LVU979
 3375 0004 012A     		cmp	r2, #1
ARM GAS  /var/folders/lx/hc4sn_b53233_zkc9xbbl97r0000gp/T//ccErXOZH.s 			page 90


 3376 0006 06D0     		beq	.L277
1406:Dsp/widget/wgt_core/UI_Controller.c ****         return false;
1407:Dsp/widget/wgt_core/UI_Controller.c **** 
1408:Dsp/widget/wgt_core/UI_Controller.c ****     *Out = Obj->InputData_Int.CurVal;
 3377              		.loc 1 1408 5 is_stmt 1 view .LVU980
 3378              		.loc 1 1408 30 is_stmt 0 view .LVU981
 3379 0008 D0F81730 		ldr	r3, [r0, #23]	@ unaligned
 3380              		.loc 1 1408 10 view .LVU982
 3381 000c 0B60     		str	r3, [r1]
1409:Dsp/widget/wgt_core/UI_Controller.c **** 
1410:Dsp/widget/wgt_core/UI_Controller.c ****     return true;
 3382              		.loc 1 1410 5 is_stmt 1 view .LVU983
 3383              		.loc 1 1410 12 is_stmt 0 view .LVU984
 3384 000e 0120     		movs	r0, #1
 3385              	.LVL309:
 3386              		.loc 1 1410 12 view .LVU985
 3387 0010 7047     		bx	lr
 3388              	.LVL310:
 3389              	.L276:
1406:Dsp/widget/wgt_core/UI_Controller.c ****         return false;
 3390              		.loc 1 1406 16 view .LVU986
 3391 0012 0020     		movs	r0, #0
 3392              	.LVL311:
1406:Dsp/widget/wgt_core/UI_Controller.c ****         return false;
 3393              		.loc 1 1406 16 view .LVU987
 3394 0014 7047     		bx	lr
 3395              	.LVL312:
 3396              	.L277:
1406:Dsp/widget/wgt_core/UI_Controller.c ****         return false;
 3397              		.loc 1 1406 16 view .LVU988
 3398 0016 0020     		movs	r0, #0
 3399              	.LVL313:
1411:Dsp/widget/wgt_core/UI_Controller.c **** }
 3400              		.loc 1 1411 1 view .LVU989
 3401 0018 7047     		bx	lr
 3402              		.cfi_endproc
 3403              	.LFE54:
 3405              		.section	.text.UI_DigInput_SetSelectStatus,"ax",%progbits
 3406              		.align	1
 3407              		.syntax unified
 3408              		.thumb
 3409              		.thumb_func
 3410              		.fpu fpv4-sp-d16
 3412              	UI_DigInput_SetSelectStatus:
 3413              	.LVL314:
 3414              	.LFB55:
1412:Dsp/widget/wgt_core/UI_Controller.c **** 
1413:Dsp/widget/wgt_core/UI_Controller.c **** static bool UI_DigInput_SetSelectStatus(UI_DigInputObj_TypeDef *Obj, bool status)
1414:Dsp/widget/wgt_core/UI_Controller.c **** {
 3415              		.loc 1 1414 1 is_stmt 1 view -0
 3416              		.cfi_startproc
 3417              		@ args = 0, pretend = 0, frame = 0
 3418              		@ frame_needed = 0, uses_anonymous_args = 0
1415:Dsp/widget/wgt_core/UI_Controller.c ****     if (Obj == NULL)
 3419              		.loc 1 1415 5 view .LVU991
 3420              		.loc 1 1415 8 is_stmt 0 view .LVU992
 3421 0000 B0B1     		cbz	r0, .L281
ARM GAS  /var/folders/lx/hc4sn_b53233_zkc9xbbl97r0000gp/T//ccErXOZH.s 			page 91


1414:Dsp/widget/wgt_core/UI_Controller.c ****     if (Obj == NULL)
 3422              		.loc 1 1414 1 view .LVU993
 3423 0002 08B5     		push	{r3, lr}
 3424              	.LCFI55:
 3425              		.cfi_def_cfa_offset 8
 3426              		.cfi_offset 3, -8
 3427              		.cfi_offset 14, -4
 3428 0004 0346     		mov	r3, r0
1416:Dsp/widget/wgt_core/UI_Controller.c ****         return false;
1417:Dsp/widget/wgt_core/UI_Controller.c **** 
1418:Dsp/widget/wgt_core/UI_Controller.c ****     Obj->selected = status;
 3429              		.loc 1 1418 5 is_stmt 1 view .LVU994
 3430              		.loc 1 1418 19 is_stmt 0 view .LVU995
 3431 0006 80F83F10 		strb	r1, [r0, #63]
1419:Dsp/widget/wgt_core/UI_Controller.c **** 
1420:Dsp/widget/wgt_core/UI_Controller.c ****     if (!status && (Obj->callback != NULL))
 3432              		.loc 1 1420 5 is_stmt 1 view .LVU996
 3433              		.loc 1 1420 8 is_stmt 0 view .LVU997
 3434 000a 99B9     		cbnz	r1, .L282
 3435              		.loc 1 1420 24 discriminator 1 view .LVU998
 3436 000c 026C     		ldr	r2, [r0, #64]	@ unaligned
 3437              		.loc 1 1420 17 discriminator 1 view .LVU999
 3438 000e 9AB1     		cbz	r2, .L283
1421:Dsp/widget/wgt_core/UI_Controller.c ****     {
1422:Dsp/widget/wgt_core/UI_Controller.c ****         if (Obj->type == UI_IntDig_Input)
 3439              		.loc 1 1422 9 is_stmt 1 view .LVU1000
 3440              		.loc 1 1422 16 is_stmt 0 view .LVU1001
 3441 0010 007B     		ldrb	r0, [r0, #12]	@ zero_extendqisi2
 3442              	.LVL315:
 3443              		.loc 1 1422 12 view .LVU1002
 3444 0012 28B9     		cbnz	r0, .L280
1423:Dsp/widget/wgt_core/UI_Controller.c ****         {
1424:Dsp/widget/wgt_core/UI_Controller.c ****             Obj->callback(&(Obj->InputData_Int.CurVal), sizeof(int32_t));
 3445              		.loc 1 1424 13 is_stmt 1 view .LVU1003
 3446 0014 0421     		movs	r1, #4
 3447              	.LVL316:
 3448              		.loc 1 1424 13 is_stmt 0 view .LVU1004
 3449 0016 03F11700 		add	r0, r3, #23
 3450 001a 9047     		blx	r2
 3451              	.LVL317:
1425:Dsp/widget/wgt_core/UI_Controller.c ****         }
1426:Dsp/widget/wgt_core/UI_Controller.c ****         else if (Obj->type == UI_DoubleDig_Input)
1427:Dsp/widget/wgt_core/UI_Controller.c ****         {
1428:Dsp/widget/wgt_core/UI_Controller.c ****             Obj->callback(&(Obj->InputData_Dou.CurVal), sizeof(double));
1429:Dsp/widget/wgt_core/UI_Controller.c ****         }
1430:Dsp/widget/wgt_core/UI_Controller.c ****         else
1431:Dsp/widget/wgt_core/UI_Controller.c ****             return false;
1432:Dsp/widget/wgt_core/UI_Controller.c ****     }
1433:Dsp/widget/wgt_core/UI_Controller.c **** 
1434:Dsp/widget/wgt_core/UI_Controller.c ****     return true;
 3452              		.loc 1 1434 12 view .LVU1005
 3453 001c 0120     		movs	r0, #1
 3454 001e 0AE0     		b	.L279
 3455              	.LVL318:
 3456              	.L280:
1426:Dsp/widget/wgt_core/UI_Controller.c ****         {
 3457              		.loc 1 1426 14 is_stmt 1 view .LVU1006
ARM GAS  /var/folders/lx/hc4sn_b53233_zkc9xbbl97r0000gp/T//ccErXOZH.s 			page 92


1426:Dsp/widget/wgt_core/UI_Controller.c ****         {
 3458              		.loc 1 1426 17 is_stmt 0 view .LVU1007
 3459 0020 0128     		cmp	r0, #1
 3460 0022 0BD1     		bne	.L284
1428:Dsp/widget/wgt_core/UI_Controller.c ****         }
 3461              		.loc 1 1428 13 is_stmt 1 view .LVU1008
 3462 0024 0821     		movs	r1, #8
 3463              	.LVL319:
1428:Dsp/widget/wgt_core/UI_Controller.c ****         }
 3464              		.loc 1 1428 13 is_stmt 0 view .LVU1009
 3465 0026 03F12B00 		add	r0, r3, #43
 3466 002a 9047     		blx	r2
 3467              	.LVL320:
 3468              		.loc 1 1434 12 view .LVU1010
 3469 002c 0120     		movs	r0, #1
 3470 002e 02E0     		b	.L279
 3471              	.LVL321:
 3472              	.L281:
 3473              	.LCFI56:
 3474              		.cfi_def_cfa_offset 0
 3475              		.cfi_restore 3
 3476              		.cfi_restore 14
1416:Dsp/widget/wgt_core/UI_Controller.c **** 
 3477              		.loc 1 1416 16 view .LVU1011
 3478 0030 0020     		movs	r0, #0
 3479              	.LVL322:
1435:Dsp/widget/wgt_core/UI_Controller.c **** }
 3480              		.loc 1 1435 1 view .LVU1012
 3481 0032 7047     		bx	lr
 3482              	.LVL323:
 3483              	.L282:
 3484              	.LCFI57:
 3485              		.cfi_def_cfa_offset 8
 3486              		.cfi_offset 3, -8
 3487              		.cfi_offset 14, -4
1434:Dsp/widget/wgt_core/UI_Controller.c **** }
 3488              		.loc 1 1434 12 view .LVU1013
 3489 0034 0846     		mov	r0, r1
 3490              	.LVL324:
 3491              	.L279:
 3492              		.loc 1 1435 1 view .LVU1014
 3493 0036 08BD     		pop	{r3, pc}
 3494              	.LVL325:
 3495              	.L283:
1434:Dsp/widget/wgt_core/UI_Controller.c **** }
 3496              		.loc 1 1434 12 view .LVU1015
 3497 0038 0120     		movs	r0, #1
 3498              	.LVL326:
1434:Dsp/widget/wgt_core/UI_Controller.c **** }
 3499              		.loc 1 1434 12 view .LVU1016
 3500 003a FCE7     		b	.L279
 3501              	.L284:
1431:Dsp/widget/wgt_core/UI_Controller.c ****     }
 3502              		.loc 1 1431 20 view .LVU1017
 3503 003c 0846     		mov	r0, r1
 3504 003e FAE7     		b	.L279
 3505              		.cfi_endproc
ARM GAS  /var/folders/lx/hc4sn_b53233_zkc9xbbl97r0000gp/T//ccErXOZH.s 			page 93


 3506              	.LFE55:
 3508              		.section	.text.UI_DigInput_Move,"ax",%progbits
 3509              		.align	1
 3510              		.syntax unified
 3511              		.thumb
 3512              		.thumb_func
 3513              		.fpu fpv4-sp-d16
 3515              	UI_DigInput_Move:
 3516              	.LVL327:
 3517              	.LFB60:
1436:Dsp/widget/wgt_core/UI_Controller.c **** 
1437:Dsp/widget/wgt_core/UI_Controller.c **** static bool UI_DigInput_GetSelectStatus(UI_DigInputObj_TypeDef *Obj)
1438:Dsp/widget/wgt_core/UI_Controller.c **** {
1439:Dsp/widget/wgt_core/UI_Controller.c ****     if (Obj == NULL)
1440:Dsp/widget/wgt_core/UI_Controller.c ****         return false;
1441:Dsp/widget/wgt_core/UI_Controller.c **** 
1442:Dsp/widget/wgt_core/UI_Controller.c ****     return Obj->selected;
1443:Dsp/widget/wgt_core/UI_Controller.c **** }
1444:Dsp/widget/wgt_core/UI_Controller.c **** 
1445:Dsp/widget/wgt_core/UI_Controller.c **** static bool UI_DigInput_InputValue(UI_DigInputObj_TypeDef *Obj, uint8_t pos, int8_t *val)
1446:Dsp/widget/wgt_core/UI_Controller.c **** {
1447:Dsp/widget/wgt_core/UI_Controller.c ****     if (Obj == NULL)
1448:Dsp/widget/wgt_core/UI_Controller.c ****         return false;
1449:Dsp/widget/wgt_core/UI_Controller.c **** 
1450:Dsp/widget/wgt_core/UI_Controller.c ****     if (Obj->type == UI_IntDig_Input && pos <= Obj->InputData_Int.effective_len)
1451:Dsp/widget/wgt_core/UI_Controller.c ****     {
1452:Dsp/widget/wgt_core/UI_Controller.c ****         UI_DigInput_SetIntValue(Obj, pos, val);
1453:Dsp/widget/wgt_core/UI_Controller.c **** 
1454:Dsp/widget/wgt_core/UI_Controller.c ****         Obj->InputData_Int.selected_pos = pos;
1455:Dsp/widget/wgt_core/UI_Controller.c ****     }
1456:Dsp/widget/wgt_core/UI_Controller.c ****     else if (Obj->type == UI_DoubleDig_Input)
1457:Dsp/widget/wgt_core/UI_Controller.c ****     {
1458:Dsp/widget/wgt_core/UI_Controller.c ****         if (Obj->InputData_Dou.effective_int_len >= pos)
1459:Dsp/widget/wgt_core/UI_Controller.c ****         {
1460:Dsp/widget/wgt_core/UI_Controller.c ****             UI_DigInput_SetIntValue(Obj, pos, val);
1461:Dsp/widget/wgt_core/UI_Controller.c ****             Obj->InputData_Dou.int_selected_pos = pos;
1462:Dsp/widget/wgt_core/UI_Controller.c ****             Obj->InputData_Dou.dou_selected_pos = 0;
1463:Dsp/widget/wgt_core/UI_Controller.c ****         }
1464:Dsp/widget/wgt_core/UI_Controller.c ****         else
1465:Dsp/widget/wgt_core/UI_Controller.c ****         {
1466:Dsp/widget/wgt_core/UI_Controller.c ****             pos -= Obj->InputData_Dou.effective_int_len;
1467:Dsp/widget/wgt_core/UI_Controller.c ****             UI_DigInput_SetDouValue(Obj, pos, val);
1468:Dsp/widget/wgt_core/UI_Controller.c ****             Obj->InputData_Dou.int_selected_pos = 0;
1469:Dsp/widget/wgt_core/UI_Controller.c ****             Obj->InputData_Dou.dou_selected_pos = pos;
1470:Dsp/widget/wgt_core/UI_Controller.c ****         }
1471:Dsp/widget/wgt_core/UI_Controller.c ****     }
1472:Dsp/widget/wgt_core/UI_Controller.c ****     else
1473:Dsp/widget/wgt_core/UI_Controller.c ****         return false;
1474:Dsp/widget/wgt_core/UI_Controller.c **** 
1475:Dsp/widget/wgt_core/UI_Controller.c ****     return true;
1476:Dsp/widget/wgt_core/UI_Controller.c **** }
1477:Dsp/widget/wgt_core/UI_Controller.c **** 
1478:Dsp/widget/wgt_core/UI_Controller.c **** static bool UI_DigInput_SetIntValue(UI_DigInputObj_TypeDef *Obj, uint8_t int_pos, int8_t *val)
1479:Dsp/widget/wgt_core/UI_Controller.c **** {
1480:Dsp/widget/wgt_core/UI_Controller.c ****     if (Obj == NULL)
1481:Dsp/widget/wgt_core/UI_Controller.c ****         return false;
1482:Dsp/widget/wgt_core/UI_Controller.c **** 
ARM GAS  /var/folders/lx/hc4sn_b53233_zkc9xbbl97r0000gp/T//ccErXOZH.s 			page 94


1483:Dsp/widget/wgt_core/UI_Controller.c ****     if (Obj->type == UI_IntDig_Input)
1484:Dsp/widget/wgt_core/UI_Controller.c ****     {
1485:Dsp/widget/wgt_core/UI_Controller.c ****         if (Obj->InputData_Int.effective_len < int_pos)
1486:Dsp/widget/wgt_core/UI_Controller.c ****             return false;
1487:Dsp/widget/wgt_core/UI_Controller.c **** 
1488:Dsp/widget/wgt_core/UI_Controller.c ****         Obj->InputData_Int.CurVal += pow(10, int_pos) * (*val);
1489:Dsp/widget/wgt_core/UI_Controller.c ****         if (Obj->InputData_Int.Max <= Obj->InputData_Int.CurVal)
1490:Dsp/widget/wgt_core/UI_Controller.c ****         {
1491:Dsp/widget/wgt_core/UI_Controller.c ****             Obj->InputData_Int.CurVal = Obj->InputData_Int.Max;
1492:Dsp/widget/wgt_core/UI_Controller.c ****         }
1493:Dsp/widget/wgt_core/UI_Controller.c ****         else if (Obj->InputData_Int.Min <= Obj->InputData_Int.CurVal)
1494:Dsp/widget/wgt_core/UI_Controller.c ****             Obj->InputData_Int.CurVal = Obj->InputData_Int.Min;
1495:Dsp/widget/wgt_core/UI_Controller.c ****     }
1496:Dsp/widget/wgt_core/UI_Controller.c ****     else if (Obj->type == UI_DoubleDig_Input)
1497:Dsp/widget/wgt_core/UI_Controller.c ****     {
1498:Dsp/widget/wgt_core/UI_Controller.c ****         if (Obj->InputData_Dou.effective_int_len < int_pos)
1499:Dsp/widget/wgt_core/UI_Controller.c ****             return false;
1500:Dsp/widget/wgt_core/UI_Controller.c **** 
1501:Dsp/widget/wgt_core/UI_Controller.c ****         Obj->InputData_Dou.CurVal += pow(10, int_pos) * (*val);
1502:Dsp/widget/wgt_core/UI_Controller.c ****         Obj->InputData_Dou.IntPart = (int64_t)Obj->InputData_Dou.CurVal;
1503:Dsp/widget/wgt_core/UI_Controller.c ****     }
1504:Dsp/widget/wgt_core/UI_Controller.c ****     else
1505:Dsp/widget/wgt_core/UI_Controller.c ****         return false;
1506:Dsp/widget/wgt_core/UI_Controller.c **** 
1507:Dsp/widget/wgt_core/UI_Controller.c ****     *val = 0;
1508:Dsp/widget/wgt_core/UI_Controller.c ****     return true;
1509:Dsp/widget/wgt_core/UI_Controller.c **** }
1510:Dsp/widget/wgt_core/UI_Controller.c **** 
1511:Dsp/widget/wgt_core/UI_Controller.c **** static bool UI_DigInput_SetDouValue(UI_DigInputObj_TypeDef *Obj, uint8_t dou_pos, int8_t *val)
1512:Dsp/widget/wgt_core/UI_Controller.c **** {
1513:Dsp/widget/wgt_core/UI_Controller.c ****     int8_t power = 0;
1514:Dsp/widget/wgt_core/UI_Controller.c **** 
1515:Dsp/widget/wgt_core/UI_Controller.c ****     if ((Obj == NULL) || (Obj->type == UI_IntDig_Input) || (Obj->InputData_Dou.effective_point_len 
1516:Dsp/widget/wgt_core/UI_Controller.c ****         return false;
1517:Dsp/widget/wgt_core/UI_Controller.c **** 
1518:Dsp/widget/wgt_core/UI_Controller.c ****     power = -1 * dou_pos;
1519:Dsp/widget/wgt_core/UI_Controller.c ****     Obj->InputData_Dou.CurVal += pow(10, power) * (*val);
1520:Dsp/widget/wgt_core/UI_Controller.c ****     Obj->InputData_Dou.PointPart = Obj->InputData_Dou.CurVal - (int64_t)(Obj->InputData_Dou.CurVal)
1521:Dsp/widget/wgt_core/UI_Controller.c **** 
1522:Dsp/widget/wgt_core/UI_Controller.c ****     *val = 0;
1523:Dsp/widget/wgt_core/UI_Controller.c **** 
1524:Dsp/widget/wgt_core/UI_Controller.c ****     return true;
1525:Dsp/widget/wgt_core/UI_Controller.c **** }
1526:Dsp/widget/wgt_core/UI_Controller.c **** 
1527:Dsp/widget/wgt_core/UI_Controller.c **** static bool UI_DigInput_Move(UI_DigInputObj_TypeDef *Obj, int16_t x, int16_t y)
1528:Dsp/widget/wgt_core/UI_Controller.c **** {
 3518              		.loc 1 1528 1 is_stmt 1 view -0
 3519              		.cfi_startproc
 3520              		@ args = 0, pretend = 0, frame = 0
 3521              		@ frame_needed = 0, uses_anonymous_args = 0
1529:Dsp/widget/wgt_core/UI_Controller.c ****     if (Obj == NULL)
 3522              		.loc 1 1529 5 view .LVU1019
 3523              		.loc 1 1529 8 is_stmt 0 view .LVU1020
 3524 0000 18B1     		cbz	r0, .L291
1528:Dsp/widget/wgt_core/UI_Controller.c ****     if (Obj == NULL)
 3525              		.loc 1 1528 1 view .LVU1021
 3526 0002 08B5     		push	{r3, lr}
ARM GAS  /var/folders/lx/hc4sn_b53233_zkc9xbbl97r0000gp/T//ccErXOZH.s 			page 95


 3527              	.LCFI58:
 3528              		.cfi_def_cfa_offset 8
 3529              		.cfi_offset 3, -8
 3530              		.cfi_offset 14, -4
1530:Dsp/widget/wgt_core/UI_Controller.c ****         return false;
1531:Dsp/widget/wgt_core/UI_Controller.c **** 
1532:Dsp/widget/wgt_core/UI_Controller.c ****     return UI_Move(&(Obj->Gen_Data), x, y);
 3531              		.loc 1 1532 5 is_stmt 1 view .LVU1022
 3532              		.loc 1 1532 12 is_stmt 0 view .LVU1023
 3533 0004 FFF7FEFF 		bl	UI_Move
 3534              	.LVL328:
1533:Dsp/widget/wgt_core/UI_Controller.c **** }
 3535              		.loc 1 1533 1 view .LVU1024
 3536 0008 08BD     		pop	{r3, pc}
 3537              	.LVL329:
 3538              	.L291:
 3539              	.LCFI59:
 3540              		.cfi_def_cfa_offset 0
 3541              		.cfi_restore 3
 3542              		.cfi_restore 14
1530:Dsp/widget/wgt_core/UI_Controller.c ****         return false;
 3543              		.loc 1 1530 16 view .LVU1025
 3544 000a 0020     		movs	r0, #0
 3545              	.LVL330:
 3546              		.loc 1 1533 1 view .LVU1026
 3547 000c 7047     		bx	lr
 3548              		.cfi_endproc
 3549              	.LFE60:
 3551              		.section	.text.UI_DigInput_GetEffectSize,"ax",%progbits
 3552              		.align	1
 3553              		.syntax unified
 3554              		.thumb
 3555              		.thumb_func
 3556              		.fpu fpv4-sp-d16
 3558              	UI_DigInput_GetEffectSize:
 3559              	.LVL331:
 3560              	.LFB61:
1534:Dsp/widget/wgt_core/UI_Controller.c **** 
1535:Dsp/widget/wgt_core/UI_Controller.c **** static int8_t UI_DigInput_GetEffectSize(UI_DigInputObj_TypeDef *Obj, UI_DigInput_SelectedPart part)
1536:Dsp/widget/wgt_core/UI_Controller.c **** {
 3561              		.loc 1 1536 1 is_stmt 1 view -0
 3562              		.cfi_startproc
 3563              		@ args = 0, pretend = 0, frame = 0
 3564              		@ frame_needed = 0, uses_anonymous_args = 0
 3565              		@ link register save eliminated.
1537:Dsp/widget/wgt_core/UI_Controller.c ****     if (Obj == NULL)
 3566              		.loc 1 1537 5 view .LVU1028
 3567              		.loc 1 1537 8 is_stmt 0 view .LVU1029
 3568 0000 80B1     		cbz	r0, .L300
1538:Dsp/widget/wgt_core/UI_Controller.c ****         return -1;
1539:Dsp/widget/wgt_core/UI_Controller.c **** 
1540:Dsp/widget/wgt_core/UI_Controller.c ****     if (Obj->type == UI_IntDig_Input)
 3569              		.loc 1 1540 5 is_stmt 1 view .LVU1030
 3570              		.loc 1 1540 12 is_stmt 0 view .LVU1031
 3571 0002 027B     		ldrb	r2, [r0, #12]	@ zero_extendqisi2
 3572              		.loc 1 1540 8 view .LVU1032
 3573 0004 1AB9     		cbnz	r2, .L298
ARM GAS  /var/folders/lx/hc4sn_b53233_zkc9xbbl97r0000gp/T//ccErXOZH.s 			page 96


1541:Dsp/widget/wgt_core/UI_Controller.c ****     {
1542:Dsp/widget/wgt_core/UI_Controller.c ****         if (part != DigInput_IntPart)
 3574              		.loc 1 1542 9 is_stmt 1 view .LVU1033
 3575              		.loc 1 1542 12 is_stmt 0 view .LVU1034
 3576 0006 81B9     		cbnz	r1, .L301
1543:Dsp/widget/wgt_core/UI_Controller.c ****             return -1;
1544:Dsp/widget/wgt_core/UI_Controller.c **** 
1545:Dsp/widget/wgt_core/UI_Controller.c ****         return Obj->InputData_Int.effective_len;
 3577              		.loc 1 1545 9 is_stmt 1 view .LVU1035
 3578              		.loc 1 1545 34 is_stmt 0 view .LVU1036
 3579 0008 90F91500 		ldrsb	r0, [r0, #21]
 3580              	.LVL332:
 3581              		.loc 1 1545 34 view .LVU1037
 3582 000c 7047     		bx	lr
 3583              	.LVL333:
 3584              	.L298:
1546:Dsp/widget/wgt_core/UI_Controller.c ****     }
1547:Dsp/widget/wgt_core/UI_Controller.c ****     else if (Obj->type == UI_DoubleDig_Input)
 3585              		.loc 1 1547 10 is_stmt 1 view .LVU1038
 3586              		.loc 1 1547 13 is_stmt 0 view .LVU1039
 3587 000e 012A     		cmp	r2, #1
 3588 0010 0ED1     		bne	.L302
1548:Dsp/widget/wgt_core/UI_Controller.c ****     {
1549:Dsp/widget/wgt_core/UI_Controller.c ****         if (part == DigInput_IntPart)
 3589              		.loc 1 1549 9 is_stmt 1 view .LVU1040
 3590              		.loc 1 1549 12 is_stmt 0 view .LVU1041
 3591 0012 21B1     		cbz	r1, .L304
1550:Dsp/widget/wgt_core/UI_Controller.c ****             return Obj->InputData_Dou.effective_int_len;
1551:Dsp/widget/wgt_core/UI_Controller.c ****         else if (part == DigInput_PointPart)
 3592              		.loc 1 1551 14 is_stmt 1 view .LVU1042
 3593              		.loc 1 1551 17 is_stmt 0 view .LVU1043
 3594 0014 0129     		cmp	r1, #1
 3595 0016 0ED1     		bne	.L303
1552:Dsp/widget/wgt_core/UI_Controller.c ****             return Obj->InputData_Dou.effective_point_len;
 3596              		.loc 1 1552 13 is_stmt 1 view .LVU1044
 3597              		.loc 1 1552 38 is_stmt 0 view .LVU1045
 3598 0018 90F93600 		ldrsb	r0, [r0, #54]
 3599              	.LVL334:
 3600              		.loc 1 1552 38 view .LVU1046
 3601 001c 7047     		bx	lr
 3602              	.LVL335:
 3603              	.L304:
1550:Dsp/widget/wgt_core/UI_Controller.c ****             return Obj->InputData_Dou.effective_int_len;
 3604              		.loc 1 1550 13 is_stmt 1 view .LVU1047
1550:Dsp/widget/wgt_core/UI_Controller.c ****             return Obj->InputData_Dou.effective_int_len;
 3605              		.loc 1 1550 38 is_stmt 0 view .LVU1048
 3606 001e 90F93500 		ldrsb	r0, [r0, #53]
 3607              	.LVL336:
1550:Dsp/widget/wgt_core/UI_Controller.c ****             return Obj->InputData_Dou.effective_int_len;
 3608              		.loc 1 1550 38 view .LVU1049
 3609 0022 7047     		bx	lr
 3610              	.LVL337:
 3611              	.L300:
1538:Dsp/widget/wgt_core/UI_Controller.c **** 
 3612              		.loc 1 1538 16 view .LVU1050
 3613 0024 4FF0FF30 		mov	r0, #-1
 3614              	.LVL338:
ARM GAS  /var/folders/lx/hc4sn_b53233_zkc9xbbl97r0000gp/T//ccErXOZH.s 			page 97


1538:Dsp/widget/wgt_core/UI_Controller.c **** 
 3615              		.loc 1 1538 16 view .LVU1051
 3616 0028 7047     		bx	lr
 3617              	.LVL339:
 3618              	.L301:
1543:Dsp/widget/wgt_core/UI_Controller.c **** 
 3619              		.loc 1 1543 20 view .LVU1052
 3620 002a 4FF0FF30 		mov	r0, #-1
 3621              	.LVL340:
1543:Dsp/widget/wgt_core/UI_Controller.c **** 
 3622              		.loc 1 1543 20 view .LVU1053
 3623 002e 7047     		bx	lr
 3624              	.LVL341:
 3625              	.L302:
1553:Dsp/widget/wgt_core/UI_Controller.c **** 
1554:Dsp/widget/wgt_core/UI_Controller.c ****         return -1;
1555:Dsp/widget/wgt_core/UI_Controller.c ****     }
1556:Dsp/widget/wgt_core/UI_Controller.c ****     else
1557:Dsp/widget/wgt_core/UI_Controller.c ****         return -1;
 3626              		.loc 1 1557 16 view .LVU1054
 3627 0030 4FF0FF30 		mov	r0, #-1
 3628              	.LVL342:
 3629              		.loc 1 1557 16 view .LVU1055
 3630 0034 7047     		bx	lr
 3631              	.LVL343:
 3632              	.L303:
1554:Dsp/widget/wgt_core/UI_Controller.c ****     }
 3633              		.loc 1 1554 16 view .LVU1056
 3634 0036 4FF0FF30 		mov	r0, #-1
 3635              	.LVL344:
1558:Dsp/widget/wgt_core/UI_Controller.c **** }
 3636              		.loc 1 1558 1 view .LVU1057
 3637 003a 7047     		bx	lr
 3638              		.cfi_endproc
 3639              	.LFE61:
 3641              		.section	.text.UI_StrInput_Move,"ax",%progbits
 3642              		.align	1
 3643              		.syntax unified
 3644              		.thumb
 3645              		.thumb_func
 3646              		.fpu fpv4-sp-d16
 3648              	UI_StrInput_Move:
 3649              	.LVL345:
 3650              	.LFB64:
1559:Dsp/widget/wgt_core/UI_Controller.c **** 
1560:Dsp/widget/wgt_core/UI_Controller.c **** static bool UI_DigInput_CTL(UI_DigInputObj_TypeDef *Obj)
1561:Dsp/widget/wgt_core/UI_Controller.c **** {
1562:Dsp/widget/wgt_core/UI_Controller.c ****     int16_t dig_dsp_offset = 0;
1563:Dsp/widget/wgt_core/UI_Controller.c ****     int16_t str_x = 0;
1564:Dsp/widget/wgt_core/UI_Controller.c ****     int32_t int_dsp_val = 0;
1565:Dsp/widget/wgt_core/UI_Controller.c ****     int32_t dou_dsp_val = 0.0;
1566:Dsp/widget/wgt_core/UI_Controller.c **** 
1567:Dsp/widget/wgt_core/UI_Controller.c ****     if (Obj == NULL)
1568:Dsp/widget/wgt_core/UI_Controller.c ****         return false;
1569:Dsp/widget/wgt_core/UI_Controller.c **** 
1570:Dsp/widget/wgt_core/UI_Controller.c ****     str_x = Obj->Gen_Data.x + 3;
1571:Dsp/widget/wgt_core/UI_Controller.c **** 
ARM GAS  /var/folders/lx/hc4sn_b53233_zkc9xbbl97r0000gp/T//ccErXOZH.s 			page 98


1572:Dsp/widget/wgt_core/UI_Controller.c ****     UI_DspInterface.draw_str(base_font, Obj->Gen_Data.label, str_x, Obj->Gen_Data.y, true);
1573:Dsp/widget/wgt_core/UI_Controller.c ****     dig_dsp_offset = strlen(Obj->Gen_Data.label) * STR_DIS + 5;
1574:Dsp/widget/wgt_core/UI_Controller.c **** 
1575:Dsp/widget/wgt_core/UI_Controller.c ****     if ((Obj->InputData_Int.CurVal < 0) || (Obj->InputData_Dou.CurVal < 0))
1576:Dsp/widget/wgt_core/UI_Controller.c ****     {
1577:Dsp/widget/wgt_core/UI_Controller.c ****         UI_DspInterface.draw_str(base_font, "-", str_x + dig_dsp_offset, Obj->Gen_Data.y, true);
1578:Dsp/widget/wgt_core/UI_Controller.c ****         dig_dsp_offset += STR_DIS;
1579:Dsp/widget/wgt_core/UI_Controller.c ****     }
1580:Dsp/widget/wgt_core/UI_Controller.c **** 
1581:Dsp/widget/wgt_core/UI_Controller.c ****     switch (Obj->type)
1582:Dsp/widget/wgt_core/UI_Controller.c ****     {
1583:Dsp/widget/wgt_core/UI_Controller.c ****     case UI_IntDig_Input:
1584:Dsp/widget/wgt_core/UI_Controller.c ****         int_dsp_val = abs(Obj->InputData_Int.CurVal);
1585:Dsp/widget/wgt_core/UI_Controller.c **** 
1586:Dsp/widget/wgt_core/UI_Controller.c ****         for (int8_t i = (Obj->InputData_Int.effective_len - 1); i >= 0; i--)
1587:Dsp/widget/wgt_core/UI_Controller.c ****         {
1588:Dsp/widget/wgt_core/UI_Controller.c ****             UI_DspInterface.draw_dig(base_font, int_dsp_val / (int)pow(10, i), str_x + dig_dsp_offs
1589:Dsp/widget/wgt_core/UI_Controller.c ****             int_dsp_val %= (int)pow(10, i);
1590:Dsp/widget/wgt_core/UI_Controller.c ****             dig_dsp_offset += STR_DIS;
1591:Dsp/widget/wgt_core/UI_Controller.c ****         }
1592:Dsp/widget/wgt_core/UI_Controller.c ****         break;
1593:Dsp/widget/wgt_core/UI_Controller.c **** 
1594:Dsp/widget/wgt_core/UI_Controller.c ****     case UI_DoubleDig_Input:
1595:Dsp/widget/wgt_core/UI_Controller.c ****         /* still in debug down below */
1596:Dsp/widget/wgt_core/UI_Controller.c ****         int_dsp_val = abs(Obj->InputData_Dou.IntPart);
1597:Dsp/widget/wgt_core/UI_Controller.c ****         dou_dsp_val = abs(pow(10, Obj->InputData_Dou.effective_point_len) * Obj->InputData_Dou.Poin
1598:Dsp/widget/wgt_core/UI_Controller.c **** 
1599:Dsp/widget/wgt_core/UI_Controller.c ****         for (int8_t i = (Obj->InputData_Dou.effective_int_len - 1); i >= 0; i--)
1600:Dsp/widget/wgt_core/UI_Controller.c ****         {
1601:Dsp/widget/wgt_core/UI_Controller.c ****             UI_DspInterface.draw_dig(base_font, Obj->InputData_Int.CurVal / (int)pow(10, i), str_x 
1602:Dsp/widget/wgt_core/UI_Controller.c ****             dig_dsp_offset += STR_DIS;
1603:Dsp/widget/wgt_core/UI_Controller.c ****         }
1604:Dsp/widget/wgt_core/UI_Controller.c **** 
1605:Dsp/widget/wgt_core/UI_Controller.c ****         UI_DspInterface.draw_str(base_font, ".", str_x + dig_dsp_offset, Obj->Gen_Data.y, true);
1606:Dsp/widget/wgt_core/UI_Controller.c ****         dig_dsp_offset += STR_DIS;
1607:Dsp/widget/wgt_core/UI_Controller.c **** 
1608:Dsp/widget/wgt_core/UI_Controller.c ****         for (uint8_t i = (Obj->InputData_Dou.effective_point_len - 1); i > 0; i++)
1609:Dsp/widget/wgt_core/UI_Controller.c ****         {
1610:Dsp/widget/wgt_core/UI_Controller.c ****             UI_DspInterface.draw_dig(base_font, Obj->InputData_Dou.PointPart / (int)pow(10, i), str
1611:Dsp/widget/wgt_core/UI_Controller.c ****             dig_dsp_offset += STR_DIS;
1612:Dsp/widget/wgt_core/UI_Controller.c ****         }
1613:Dsp/widget/wgt_core/UI_Controller.c ****         break;
1614:Dsp/widget/wgt_core/UI_Controller.c **** 
1615:Dsp/widget/wgt_core/UI_Controller.c ****     default:
1616:Dsp/widget/wgt_core/UI_Controller.c ****         return false;
1617:Dsp/widget/wgt_core/UI_Controller.c ****     }
1618:Dsp/widget/wgt_core/UI_Controller.c **** 
1619:Dsp/widget/wgt_core/UI_Controller.c ****     return true;
1620:Dsp/widget/wgt_core/UI_Controller.c **** }
1621:Dsp/widget/wgt_core/UI_Controller.c **** 
1622:Dsp/widget/wgt_core/UI_Controller.c **** static bool UI_StrInput_Init(UI_StrInputObj_TypeDef *Obj, char *label, int16_t x, int16_t y, UI_Str
1623:Dsp/widget/wgt_core/UI_Controller.c **** {
1624:Dsp/widget/wgt_core/UI_Controller.c ****     if (Obj == NULL)
1625:Dsp/widget/wgt_core/UI_Controller.c ****         return false;
1626:Dsp/widget/wgt_core/UI_Controller.c **** 
1627:Dsp/widget/wgt_core/UI_Controller.c ****     UI_GenData_Init(&(Obj->Gen_Data), label, x, y);
1628:Dsp/widget/wgt_core/UI_Controller.c ****     memset(Obj->str, NULL, sizeof(Obj->str));
ARM GAS  /var/folders/lx/hc4sn_b53233_zkc9xbbl97r0000gp/T//ccErXOZH.s 			page 99


1629:Dsp/widget/wgt_core/UI_Controller.c ****     Obj->selected_pos = 0;
1630:Dsp/widget/wgt_core/UI_Controller.c ****     Obj->selected = false;
1631:Dsp/widget/wgt_core/UI_Controller.c ****     Obj->callback = NULL;
1632:Dsp/widget/wgt_core/UI_Controller.c ****     Obj->type = type;
1633:Dsp/widget/wgt_core/UI_Controller.c **** 
1634:Dsp/widget/wgt_core/UI_Controller.c ****     return true;
1635:Dsp/widget/wgt_core/UI_Controller.c **** }
1636:Dsp/widget/wgt_core/UI_Controller.c **** 
1637:Dsp/widget/wgt_core/UI_Controller.c **** static bool UI_StrInput_Move(UI_StrInputObj_TypeDef *Obj, int16_t x, int16_t y)
1638:Dsp/widget/wgt_core/UI_Controller.c **** {
 3651              		.loc 1 1638 1 is_stmt 1 view -0
 3652              		.cfi_startproc
 3653              		@ args = 0, pretend = 0, frame = 0
 3654              		@ frame_needed = 0, uses_anonymous_args = 0
1639:Dsp/widget/wgt_core/UI_Controller.c ****     if (Obj == NULL)
 3655              		.loc 1 1639 5 view .LVU1059
 3656              		.loc 1 1639 8 is_stmt 0 view .LVU1060
 3657 0000 18B1     		cbz	r0, .L307
1638:Dsp/widget/wgt_core/UI_Controller.c ****     if (Obj == NULL)
 3658              		.loc 1 1638 1 view .LVU1061
 3659 0002 08B5     		push	{r3, lr}
 3660              	.LCFI60:
 3661              		.cfi_def_cfa_offset 8
 3662              		.cfi_offset 3, -8
 3663              		.cfi_offset 14, -4
1640:Dsp/widget/wgt_core/UI_Controller.c ****         return false;
1641:Dsp/widget/wgt_core/UI_Controller.c **** 
1642:Dsp/widget/wgt_core/UI_Controller.c ****     return UI_Move(&(Obj->Gen_Data), x, y);
 3664              		.loc 1 1642 5 is_stmt 1 view .LVU1062
 3665              		.loc 1 1642 12 is_stmt 0 view .LVU1063
 3666 0004 FFF7FEFF 		bl	UI_Move
 3667              	.LVL346:
1643:Dsp/widget/wgt_core/UI_Controller.c **** }
 3668              		.loc 1 1643 1 view .LVU1064
 3669 0008 08BD     		pop	{r3, pc}
 3670              	.LVL347:
 3671              	.L307:
 3672              	.LCFI61:
 3673              		.cfi_def_cfa_offset 0
 3674              		.cfi_restore 3
 3675              		.cfi_restore 14
1640:Dsp/widget/wgt_core/UI_Controller.c ****         return false;
 3676              		.loc 1 1640 16 view .LVU1065
 3677 000a 0020     		movs	r0, #0
 3678              	.LVL348:
 3679              		.loc 1 1643 1 view .LVU1066
 3680 000c 7047     		bx	lr
 3681              		.cfi_endproc
 3682              	.LFE64:
 3684              		.section	.text.UI_StrInput_SetCallback,"ax",%progbits
 3685              		.align	1
 3686              		.syntax unified
 3687              		.thumb
 3688              		.thumb_func
 3689              		.fpu fpv4-sp-d16
 3691              	UI_StrInput_SetCallback:
 3692              	.LVL349:
ARM GAS  /var/folders/lx/hc4sn_b53233_zkc9xbbl97r0000gp/T//ccErXOZH.s 			page 100


 3693              	.LFB65:
1644:Dsp/widget/wgt_core/UI_Controller.c **** 
1645:Dsp/widget/wgt_core/UI_Controller.c **** static bool UI_StrInput_SetCallback(UI_StrInputObj_TypeDef *Obj, UI_StrInput_Callback callback)
1646:Dsp/widget/wgt_core/UI_Controller.c **** {
 3694              		.loc 1 1646 1 is_stmt 1 view -0
 3695              		.cfi_startproc
 3696              		@ args = 0, pretend = 0, frame = 0
 3697              		@ frame_needed = 0, uses_anonymous_args = 0
 3698              		@ link register save eliminated.
1647:Dsp/widget/wgt_core/UI_Controller.c ****     if (Obj == NULL)
 3699              		.loc 1 1647 5 view .LVU1068
 3700              		.loc 1 1647 8 is_stmt 0 view .LVU1069
 3701 0000 18B1     		cbz	r0, .L314
1648:Dsp/widget/wgt_core/UI_Controller.c ****         return false;
1649:Dsp/widget/wgt_core/UI_Controller.c **** 
1650:Dsp/widget/wgt_core/UI_Controller.c ****     Obj->callback = callback;
 3702              		.loc 1 1650 5 is_stmt 1 view .LVU1070
 3703              		.loc 1 1650 19 is_stmt 0 view .LVU1071
 3704 0002 C0F81F10 		str	r1, [r0, #31]	@ unaligned
1651:Dsp/widget/wgt_core/UI_Controller.c **** 
1652:Dsp/widget/wgt_core/UI_Controller.c ****     return true;
 3705              		.loc 1 1652 5 is_stmt 1 view .LVU1072
 3706              		.loc 1 1652 12 is_stmt 0 view .LVU1073
 3707 0006 0120     		movs	r0, #1
 3708              	.LVL350:
 3709              		.loc 1 1652 12 view .LVU1074
 3710 0008 7047     		bx	lr
 3711              	.LVL351:
 3712              	.L314:
1648:Dsp/widget/wgt_core/UI_Controller.c ****         return false;
 3713              		.loc 1 1648 16 view .LVU1075
 3714 000a 0020     		movs	r0, #0
 3715              	.LVL352:
1653:Dsp/widget/wgt_core/UI_Controller.c **** }
 3716              		.loc 1 1653 1 view .LVU1076
 3717 000c 7047     		bx	lr
 3718              		.cfi_endproc
 3719              	.LFE65:
 3721              		.section	.text.UI_StrInput_SetChar,"ax",%progbits
 3722              		.align	1
 3723              		.syntax unified
 3724              		.thumb
 3725              		.thumb_func
 3726              		.fpu fpv4-sp-d16
 3728              	UI_StrInput_SetChar:
 3729              	.LVL353:
 3730              	.LFB67:
1654:Dsp/widget/wgt_core/UI_Controller.c **** 
1655:Dsp/widget/wgt_core/UI_Controller.c **** static bool UI_StrInput_Select(UI_StrInputObj_TypeDef *Obj, bool state)
1656:Dsp/widget/wgt_core/UI_Controller.c **** {
1657:Dsp/widget/wgt_core/UI_Controller.c ****     if ((Obj == NULL) || (Obj->type == UI_StrCTLtype_Dsp))
1658:Dsp/widget/wgt_core/UI_Controller.c ****         return false;
1659:Dsp/widget/wgt_core/UI_Controller.c **** 
1660:Dsp/widget/wgt_core/UI_Controller.c ****     Obj->selected = state;
1661:Dsp/widget/wgt_core/UI_Controller.c ****     if (!state)
1662:Dsp/widget/wgt_core/UI_Controller.c ****     {
1663:Dsp/widget/wgt_core/UI_Controller.c ****         if (Obj->callback != NULL)
ARM GAS  /var/folders/lx/hc4sn_b53233_zkc9xbbl97r0000gp/T//ccErXOZH.s 			page 101


1664:Dsp/widget/wgt_core/UI_Controller.c ****             Obj->callback(Obj->str, strlen(Obj->str));
1665:Dsp/widget/wgt_core/UI_Controller.c ****     }
1666:Dsp/widget/wgt_core/UI_Controller.c **** 
1667:Dsp/widget/wgt_core/UI_Controller.c ****     Obj->selected_pos = 0;
1668:Dsp/widget/wgt_core/UI_Controller.c **** 
1669:Dsp/widget/wgt_core/UI_Controller.c ****     return true;
1670:Dsp/widget/wgt_core/UI_Controller.c **** }
1671:Dsp/widget/wgt_core/UI_Controller.c **** 
1672:Dsp/widget/wgt_core/UI_Controller.c **** static bool UI_StrInput_SetChar(UI_StrInputObj_TypeDef *Obj, uint8_t index, char input)
1673:Dsp/widget/wgt_core/UI_Controller.c **** {
 3731              		.loc 1 1673 1 is_stmt 1 view -0
 3732              		.cfi_startproc
 3733              		@ args = 0, pretend = 0, frame = 0
 3734              		@ frame_needed = 0, uses_anonymous_args = 0
 3735              		@ link register save eliminated.
1674:Dsp/widget/wgt_core/UI_Controller.c ****     if ((Obj == NULL) && (index < MAX_INPUTSTR_LEN) || (Obj->type == UI_StrCTLtype_Dsp))
 3736              		.loc 1 1674 5 view .LVU1078
 3737              		.loc 1 1674 8 is_stmt 0 view .LVU1079
 3738 0000 0346     		mov	r3, r0
 3739 0002 38B1     		cbz	r0, .L320
 3740              	.L316:
 3741              		.loc 1 1674 60 discriminator 3 view .LVU1080
 3742 0004 987F     		ldrb	r0, [r3, #30]	@ zero_extendqisi2
 3743              	.LVL354:
 3744              		.loc 1 1674 53 discriminator 3 view .LVU1081
 3745 0006 0128     		cmp	r0, #1
 3746 0008 08D0     		beq	.L319
1675:Dsp/widget/wgt_core/UI_Controller.c ****         return false;
1676:Dsp/widget/wgt_core/UI_Controller.c **** 
1677:Dsp/widget/wgt_core/UI_Controller.c ****     Obj->selected_pos = index;
 3747              		.loc 1 1677 5 is_stmt 1 view .LVU1082
 3748              		.loc 1 1677 23 is_stmt 0 view .LVU1083
 3749 000a 5977     		strb	r1, [r3, #29]
1678:Dsp/widget/wgt_core/UI_Controller.c ****     Obj->str[index] = input;
 3750              		.loc 1 1678 5 is_stmt 1 view .LVU1084
 3751              		.loc 1 1678 21 is_stmt 0 view .LVU1085
 3752 000c 0B44     		add	r3, r3, r1
 3753              	.LVL355:
 3754              		.loc 1 1678 21 view .LVU1086
 3755 000e 1A73     		strb	r2, [r3, #12]
1679:Dsp/widget/wgt_core/UI_Controller.c **** 
1680:Dsp/widget/wgt_core/UI_Controller.c ****     return true;
 3756              		.loc 1 1680 5 is_stmt 1 view .LVU1087
 3757              		.loc 1 1680 12 is_stmt 0 view .LVU1088
 3758 0010 0120     		movs	r0, #1
 3759 0012 7047     		bx	lr
 3760              	.LVL356:
 3761              	.L320:
1674:Dsp/widget/wgt_core/UI_Controller.c ****         return false;
 3762              		.loc 1 1674 23 discriminator 1 view .LVU1089
 3763 0014 0F29     		cmp	r1, #15
 3764 0016 F5D8     		bhi	.L316
1675:Dsp/widget/wgt_core/UI_Controller.c **** 
 3765              		.loc 1 1675 16 view .LVU1090
 3766 0018 0020     		movs	r0, #0
 3767              	.LVL357:
1675:Dsp/widget/wgt_core/UI_Controller.c **** 
ARM GAS  /var/folders/lx/hc4sn_b53233_zkc9xbbl97r0000gp/T//ccErXOZH.s 			page 102


 3768              		.loc 1 1675 16 view .LVU1091
 3769 001a 7047     		bx	lr
 3770              	.L319:
1675:Dsp/widget/wgt_core/UI_Controller.c **** 
 3771              		.loc 1 1675 16 view .LVU1092
 3772 001c 0020     		movs	r0, #0
1681:Dsp/widget/wgt_core/UI_Controller.c **** }
 3773              		.loc 1 1681 1 view .LVU1093
 3774 001e 7047     		bx	lr
 3775              		.cfi_endproc
 3776              	.LFE67:
 3778              		.section	.text.UI_StrInput_GetStr,"ax",%progbits
 3779              		.align	1
 3780              		.syntax unified
 3781              		.thumb
 3782              		.thumb_func
 3783              		.fpu fpv4-sp-d16
 3785              	UI_StrInput_GetStr:
 3786              	.LVL358:
 3787              	.LFB68:
1682:Dsp/widget/wgt_core/UI_Controller.c **** 
1683:Dsp/widget/wgt_core/UI_Controller.c **** static char *UI_StrInput_GetStr(UI_StrInputObj_TypeDef *Obj)
1684:Dsp/widget/wgt_core/UI_Controller.c **** {
 3788              		.loc 1 1684 1 is_stmt 1 view -0
 3789              		.cfi_startproc
 3790              		@ args = 0, pretend = 0, frame = 0
 3791              		@ frame_needed = 0, uses_anonymous_args = 0
 3792              		@ link register save eliminated.
1685:Dsp/widget/wgt_core/UI_Controller.c ****     if (Obj == NULL)
 3793              		.loc 1 1685 5 view .LVU1095
 3794              		.loc 1 1685 8 is_stmt 0 view .LVU1096
 3795 0000 08B1     		cbz	r0, .L323
1686:Dsp/widget/wgt_core/UI_Controller.c ****         return NULL;
1687:Dsp/widget/wgt_core/UI_Controller.c **** 
1688:Dsp/widget/wgt_core/UI_Controller.c ****     return Obj->str;
 3796              		.loc 1 1688 5 is_stmt 1 view .LVU1097
 3797              		.loc 1 1688 12 is_stmt 0 view .LVU1098
 3798 0002 0C30     		adds	r0, r0, #12
 3799              	.LVL359:
 3800              		.loc 1 1688 12 view .LVU1099
 3801 0004 7047     		bx	lr
 3802              	.LVL360:
 3803              	.L323:
1689:Dsp/widget/wgt_core/UI_Controller.c **** }
 3804              		.loc 1 1689 1 view .LVU1100
 3805 0006 7047     		bx	lr
 3806              		.cfi_endproc
 3807              	.LFE68:
 3809              		.section	.text.UI_TriggerLabel_Init,"ax",%progbits
 3810              		.align	1
 3811              		.syntax unified
 3812              		.thumb
 3813              		.thumb_func
 3814              		.fpu fpv4-sp-d16
 3816              	UI_TriggerLabel_Init:
 3817              	.LVL361:
 3818              	.LFB70:
ARM GAS  /var/folders/lx/hc4sn_b53233_zkc9xbbl97r0000gp/T//ccErXOZH.s 			page 103


1690:Dsp/widget/wgt_core/UI_Controller.c **** 
1691:Dsp/widget/wgt_core/UI_Controller.c **** static bool UI_StrInput_Ctl(UI_StrInputObj_TypeDef *Obj)
1692:Dsp/widget/wgt_core/UI_Controller.c **** {
1693:Dsp/widget/wgt_core/UI_Controller.c ****     int16_t str_dsp_offset = 0;
1694:Dsp/widget/wgt_core/UI_Controller.c ****     int16_t str_x = 0;
1695:Dsp/widget/wgt_core/UI_Controller.c **** 
1696:Dsp/widget/wgt_core/UI_Controller.c ****     if (Obj == NULL)
1697:Dsp/widget/wgt_core/UI_Controller.c ****         return false;
1698:Dsp/widget/wgt_core/UI_Controller.c **** 
1699:Dsp/widget/wgt_core/UI_Controller.c ****     str_x = Obj->Gen_Data.x + 3;
1700:Dsp/widget/wgt_core/UI_Controller.c **** 
1701:Dsp/widget/wgt_core/UI_Controller.c ****     UI_DspInterface.draw_str(base_font, Obj->Gen_Data.label, str_x, Obj->Gen_Data.y, true);
1702:Dsp/widget/wgt_core/UI_Controller.c **** 
1703:Dsp/widget/wgt_core/UI_Controller.c ****     str_dsp_offset = STR_DIS * strlen(Obj->Gen_Data.label) + 5;
1704:Dsp/widget/wgt_core/UI_Controller.c ****     UI_DspInterface.draw_str(base_font, Obj->str, str_x + str_dsp_offset, Obj->Gen_Data.y, true);
1705:Dsp/widget/wgt_core/UI_Controller.c **** 
1706:Dsp/widget/wgt_core/UI_Controller.c ****     return true;
1707:Dsp/widget/wgt_core/UI_Controller.c **** }
1708:Dsp/widget/wgt_core/UI_Controller.c **** 
1709:Dsp/widget/wgt_core/UI_Controller.c **** static bool UI_TriggerLabel_Init(UI_TriggerLabelObj_TypeDef *Obj, char *label, int16_t x, int16_t y
1710:Dsp/widget/wgt_core/UI_Controller.c **** {
 3819              		.loc 1 1710 1 is_stmt 1 view -0
 3820              		.cfi_startproc
 3821              		@ args = 0, pretend = 0, frame = 0
 3822              		@ frame_needed = 0, uses_anonymous_args = 0
1711:Dsp/widget/wgt_core/UI_Controller.c ****     if (Obj == NULL)
 3823              		.loc 1 1711 5 view .LVU1102
 3824              		.loc 1 1711 8 is_stmt 0 view .LVU1103
 3825 0000 50B1     		cbz	r0, .L326
1710:Dsp/widget/wgt_core/UI_Controller.c ****     if (Obj == NULL)
 3826              		.loc 1 1710 1 view .LVU1104
 3827 0002 10B5     		push	{r4, lr}
 3828              	.LCFI62:
 3829              		.cfi_def_cfa_offset 8
 3830              		.cfi_offset 4, -8
 3831              		.cfi_offset 14, -4
 3832 0004 0446     		mov	r4, r0
1712:Dsp/widget/wgt_core/UI_Controller.c ****         return false;
1713:Dsp/widget/wgt_core/UI_Controller.c **** 
1714:Dsp/widget/wgt_core/UI_Controller.c ****     UI_GenData_Init(&(Obj->Gen_Data), label, x, y);
 3833              		.loc 1 1714 5 is_stmt 1 view .LVU1105
 3834 0006 FFF7FEFF 		bl	UI_GenData_Init
 3835              	.LVL362:
1715:Dsp/widget/wgt_core/UI_Controller.c ****     Obj->callback = NULL;
 3836              		.loc 1 1715 5 view .LVU1106
 3837              		.loc 1 1715 19 is_stmt 0 view .LVU1107
 3838 000a 0023     		movs	r3, #0
 3839 000c 2373     		strb	r3, [r4, #12]
 3840 000e 6373     		strb	r3, [r4, #13]
 3841 0010 A373     		strb	r3, [r4, #14]
 3842 0012 E373     		strb	r3, [r4, #15]
1716:Dsp/widget/wgt_core/UI_Controller.c **** 
1717:Dsp/widget/wgt_core/UI_Controller.c ****     return true;
 3843              		.loc 1 1717 5 is_stmt 1 view .LVU1108
 3844              		.loc 1 1717 12 is_stmt 0 view .LVU1109
 3845 0014 0120     		movs	r0, #1
1718:Dsp/widget/wgt_core/UI_Controller.c **** }
ARM GAS  /var/folders/lx/hc4sn_b53233_zkc9xbbl97r0000gp/T//ccErXOZH.s 			page 104


 3846              		.loc 1 1718 1 view .LVU1110
 3847 0016 10BD     		pop	{r4, pc}
 3848              	.LVL363:
 3849              	.L326:
 3850              	.LCFI63:
 3851              		.cfi_def_cfa_offset 0
 3852              		.cfi_restore 4
 3853              		.cfi_restore 14
1712:Dsp/widget/wgt_core/UI_Controller.c **** 
 3854              		.loc 1 1712 16 view .LVU1111
 3855 0018 0020     		movs	r0, #0
 3856              	.LVL364:
 3857              		.loc 1 1718 1 view .LVU1112
 3858 001a 7047     		bx	lr
 3859              		.cfi_endproc
 3860              	.LFE70:
 3862              		.section	.text.UI_TriggerLabel_SetCallback,"ax",%progbits
 3863              		.align	1
 3864              		.syntax unified
 3865              		.thumb
 3866              		.thumb_func
 3867              		.fpu fpv4-sp-d16
 3869              	UI_TriggerLabel_SetCallback:
 3870              	.LVL365:
 3871              	.LFB71:
1719:Dsp/widget/wgt_core/UI_Controller.c **** 
1720:Dsp/widget/wgt_core/UI_Controller.c **** static bool UI_TriggerLabel_SetCallback(UI_TriggerLabelObj_TypeDef *Obj, UI_TriggerLabel_Callback c
1721:Dsp/widget/wgt_core/UI_Controller.c **** {
 3872              		.loc 1 1721 1 is_stmt 1 view -0
 3873              		.cfi_startproc
 3874              		@ args = 0, pretend = 0, frame = 0
 3875              		@ frame_needed = 0, uses_anonymous_args = 0
 3876              		@ link register save eliminated.
1722:Dsp/widget/wgt_core/UI_Controller.c ****     if (Obj == NULL)
 3877              		.loc 1 1722 5 view .LVU1114
 3878              		.loc 1 1722 8 is_stmt 0 view .LVU1115
 3879 0000 10B1     		cbz	r0, .L333
1723:Dsp/widget/wgt_core/UI_Controller.c ****         return false;
1724:Dsp/widget/wgt_core/UI_Controller.c **** 
1725:Dsp/widget/wgt_core/UI_Controller.c ****     Obj->callback = callback;
 3880              		.loc 1 1725 5 is_stmt 1 view .LVU1116
 3881              		.loc 1 1725 19 is_stmt 0 view .LVU1117
 3882 0002 C160     		str	r1, [r0, #12]	@ unaligned
1726:Dsp/widget/wgt_core/UI_Controller.c **** 
1727:Dsp/widget/wgt_core/UI_Controller.c ****     return true;
 3883              		.loc 1 1727 5 is_stmt 1 view .LVU1118
 3884              		.loc 1 1727 12 is_stmt 0 view .LVU1119
 3885 0004 0120     		movs	r0, #1
 3886              	.LVL366:
 3887              		.loc 1 1727 12 view .LVU1120
 3888 0006 7047     		bx	lr
 3889              	.LVL367:
 3890              	.L333:
1723:Dsp/widget/wgt_core/UI_Controller.c ****         return false;
 3891              		.loc 1 1723 16 view .LVU1121
 3892 0008 0020     		movs	r0, #0
 3893              	.LVL368:
ARM GAS  /var/folders/lx/hc4sn_b53233_zkc9xbbl97r0000gp/T//ccErXOZH.s 			page 105


1728:Dsp/widget/wgt_core/UI_Controller.c **** }
 3894              		.loc 1 1728 1 view .LVU1122
 3895 000a 7047     		bx	lr
 3896              		.cfi_endproc
 3897              	.LFE71:
 3899              		.section	.text.UI_TriggerLabel_Trigger,"ax",%progbits
 3900              		.align	1
 3901              		.syntax unified
 3902              		.thumb
 3903              		.thumb_func
 3904              		.fpu fpv4-sp-d16
 3906              	UI_TriggerLabel_Trigger:
 3907              	.LVL369:
 3908              	.LFB72:
1729:Dsp/widget/wgt_core/UI_Controller.c **** 
1730:Dsp/widget/wgt_core/UI_Controller.c **** static bool UI_TriggerLabel_Trigger(UI_TriggerLabelObj_TypeDef *Obj)
1731:Dsp/widget/wgt_core/UI_Controller.c **** {
 3909              		.loc 1 1731 1 is_stmt 1 view -0
 3910              		.cfi_startproc
 3911              		@ args = 0, pretend = 0, frame = 0
 3912              		@ frame_needed = 0, uses_anonymous_args = 0
1732:Dsp/widget/wgt_core/UI_Controller.c ****     if (Obj == NULL)
 3913              		.loc 1 1732 5 view .LVU1124
 3914              		.loc 1 1732 8 is_stmt 0 view .LVU1125
 3915 0000 28B1     		cbz	r0, .L336
1731:Dsp/widget/wgt_core/UI_Controller.c ****     if (Obj == NULL)
 3916              		.loc 1 1731 1 view .LVU1126
 3917 0002 08B5     		push	{r3, lr}
 3918              	.LCFI64:
 3919              		.cfi_def_cfa_offset 8
 3920              		.cfi_offset 3, -8
 3921              		.cfi_offset 14, -4
1733:Dsp/widget/wgt_core/UI_Controller.c ****         return false;
1734:Dsp/widget/wgt_core/UI_Controller.c **** 
1735:Dsp/widget/wgt_core/UI_Controller.c ****     if (Obj->callback != NULL)
 3922              		.loc 1 1735 5 is_stmt 1 view .LVU1127
 3923              		.loc 1 1735 12 is_stmt 0 view .LVU1128
 3924 0004 C368     		ldr	r3, [r0, #12]	@ unaligned
 3925              		.loc 1 1735 8 view .LVU1129
 3926 0006 23B1     		cbz	r3, .L337
1736:Dsp/widget/wgt_core/UI_Controller.c ****         Obj->callback();
 3927              		.loc 1 1736 9 is_stmt 1 view .LVU1130
 3928 0008 9847     		blx	r3
 3929              	.LVL370:
1737:Dsp/widget/wgt_core/UI_Controller.c **** 
1738:Dsp/widget/wgt_core/UI_Controller.c ****     return true;
 3930              		.loc 1 1738 12 is_stmt 0 view .LVU1131
 3931 000a 0120     		movs	r0, #1
 3932              	.L335:
1739:Dsp/widget/wgt_core/UI_Controller.c **** }
 3933              		.loc 1 1739 1 view .LVU1132
 3934 000c 08BD     		pop	{r3, pc}
 3935              	.LVL371:
 3936              	.L336:
 3937              	.LCFI65:
 3938              		.cfi_def_cfa_offset 0
 3939              		.cfi_restore 3
ARM GAS  /var/folders/lx/hc4sn_b53233_zkc9xbbl97r0000gp/T//ccErXOZH.s 			page 106


 3940              		.cfi_restore 14
1733:Dsp/widget/wgt_core/UI_Controller.c **** 
 3941              		.loc 1 1733 16 view .LVU1133
 3942 000e 0020     		movs	r0, #0
 3943              	.LVL372:
 3944              		.loc 1 1739 1 view .LVU1134
 3945 0010 7047     		bx	lr
 3946              	.LVL373:
 3947              	.L337:
 3948              	.LCFI66:
 3949              		.cfi_def_cfa_offset 8
 3950              		.cfi_offset 3, -8
 3951              		.cfi_offset 14, -4
1738:Dsp/widget/wgt_core/UI_Controller.c **** }
 3952              		.loc 1 1738 12 view .LVU1135
 3953 0012 0120     		movs	r0, #1
 3954              	.LVL374:
1738:Dsp/widget/wgt_core/UI_Controller.c **** }
 3955              		.loc 1 1738 12 view .LVU1136
 3956 0014 FAE7     		b	.L335
 3957              		.cfi_endproc
 3958              	.LFE72:
 3960              		.section	.text.UI_TriggerLabel_Move,"ax",%progbits
 3961              		.align	1
 3962              		.syntax unified
 3963              		.thumb
 3964              		.thumb_func
 3965              		.fpu fpv4-sp-d16
 3967              	UI_TriggerLabel_Move:
 3968              	.LVL375:
 3969              	.LFB73:
1740:Dsp/widget/wgt_core/UI_Controller.c **** 
1741:Dsp/widget/wgt_core/UI_Controller.c **** static bool UI_TriggerLabel_Move(UI_TriggerLabelObj_TypeDef *Obj, int16_t x, int16_t y)
1742:Dsp/widget/wgt_core/UI_Controller.c **** {
 3970              		.loc 1 1742 1 is_stmt 1 view -0
 3971              		.cfi_startproc
 3972              		@ args = 0, pretend = 0, frame = 0
 3973              		@ frame_needed = 0, uses_anonymous_args = 0
1743:Dsp/widget/wgt_core/UI_Controller.c ****     if (Obj == NULL)
 3974              		.loc 1 1743 5 view .LVU1138
 3975              		.loc 1 1743 8 is_stmt 0 view .LVU1139
 3976 0000 18B1     		cbz	r0, .L344
1742:Dsp/widget/wgt_core/UI_Controller.c ****     if (Obj == NULL)
 3977              		.loc 1 1742 1 view .LVU1140
 3978 0002 08B5     		push	{r3, lr}
 3979              	.LCFI67:
 3980              		.cfi_def_cfa_offset 8
 3981              		.cfi_offset 3, -8
 3982              		.cfi_offset 14, -4
1744:Dsp/widget/wgt_core/UI_Controller.c ****         return false;
1745:Dsp/widget/wgt_core/UI_Controller.c **** 
1746:Dsp/widget/wgt_core/UI_Controller.c ****     return UI_Move(&(Obj->Gen_Data), x, y);
 3983              		.loc 1 1746 5 is_stmt 1 view .LVU1141
 3984              		.loc 1 1746 12 is_stmt 0 view .LVU1142
 3985 0004 FFF7FEFF 		bl	UI_Move
 3986              	.LVL376:
1747:Dsp/widget/wgt_core/UI_Controller.c **** }
ARM GAS  /var/folders/lx/hc4sn_b53233_zkc9xbbl97r0000gp/T//ccErXOZH.s 			page 107


 3987              		.loc 1 1747 1 view .LVU1143
 3988 0008 08BD     		pop	{r3, pc}
 3989              	.LVL377:
 3990              	.L344:
 3991              	.LCFI68:
 3992              		.cfi_def_cfa_offset 0
 3993              		.cfi_restore 3
 3994              		.cfi_restore 14
1744:Dsp/widget/wgt_core/UI_Controller.c ****         return false;
 3995              		.loc 1 1744 16 view .LVU1144
 3996 000a 0020     		movs	r0, #0
 3997              	.LVL378:
 3998              		.loc 1 1747 1 view .LVU1145
 3999 000c 7047     		bx	lr
 4000              		.cfi_endproc
 4001              	.LFE73:
 4003              		.section	.text.UI_TriggerLabel_Ctl,"ax",%progbits
 4004              		.align	1
 4005              		.syntax unified
 4006              		.thumb
 4007              		.thumb_func
 4008              		.fpu fpv4-sp-d16
 4010              	UI_TriggerLabel_Ctl:
 4011              	.LVL379:
 4012              	.LFB74:
1748:Dsp/widget/wgt_core/UI_Controller.c **** 
1749:Dsp/widget/wgt_core/UI_Controller.c **** static bool UI_TriggerLabel_Ctl(UI_TriggerLabelObj_TypeDef *Obj)
1750:Dsp/widget/wgt_core/UI_Controller.c **** {
 4013              		.loc 1 1750 1 is_stmt 1 view -0
 4014              		.cfi_startproc
 4015              		@ args = 0, pretend = 0, frame = 0
 4016              		@ frame_needed = 0, uses_anonymous_args = 0
1751:Dsp/widget/wgt_core/UI_Controller.c ****     int16_t str_x = 0;
 4017              		.loc 1 1751 5 view .LVU1147
1752:Dsp/widget/wgt_core/UI_Controller.c **** 
1753:Dsp/widget/wgt_core/UI_Controller.c ****     if (Obj == NULL)
 4018              		.loc 1 1753 5 view .LVU1148
 4019              		.loc 1 1753 8 is_stmt 0 view .LVU1149
 4020 0000 88B1     		cbz	r0, .L351
1750:Dsp/widget/wgt_core/UI_Controller.c ****     int16_t str_x = 0;
 4021              		.loc 1 1750 1 view .LVU1150
 4022 0002 30B5     		push	{r4, r5, lr}
 4023              	.LCFI69:
 4024              		.cfi_def_cfa_offset 12
 4025              		.cfi_offset 4, -12
 4026              		.cfi_offset 5, -8
 4027              		.cfi_offset 14, -4
 4028 0004 83B0     		sub	sp, sp, #12
 4029              	.LCFI70:
 4030              		.cfi_def_cfa_offset 24
1754:Dsp/widget/wgt_core/UI_Controller.c ****         return false;
1755:Dsp/widget/wgt_core/UI_Controller.c **** 
1756:Dsp/widget/wgt_core/UI_Controller.c ****     str_x = Obj->Gen_Data.x + 3;
 4031              		.loc 1 1756 5 is_stmt 1 view .LVU1151
 4032              		.loc 1 1756 26 is_stmt 0 view .LVU1152
 4033 0006 8288     		ldrh	r2, [r0, #4]	@ unaligned
 4034              		.loc 1 1756 29 view .LVU1153
ARM GAS  /var/folders/lx/hc4sn_b53233_zkc9xbbl97r0000gp/T//ccErXOZH.s 			page 108


 4035 0008 0332     		adds	r2, r2, #3
 4036              	.LVL380:
1757:Dsp/widget/wgt_core/UI_Controller.c **** 
1758:Dsp/widget/wgt_core/UI_Controller.c ****     UI_DspInterface.draw_str(base_font, Obj->Gen_Data.label, str_x, Obj->Gen_Data.y, true);
 4037              		.loc 1 1758 5 is_stmt 1 view .LVU1154
 4038              		.loc 1 1758 20 is_stmt 0 view .LVU1155
 4039 000a 084B     		ldr	r3, .L356
 4040 000c 1D68     		ldr	r5, [r3]
 4041              		.loc 1 1758 5 view .LVU1156
 4042 000e 0124     		movs	r4, #1
 4043 0010 0094     		str	r4, [sp]
 4044 0012 B0F90630 		ldrsh	r3, [r0, #6]	@ unaligned
 4045 0016 12B2     		sxth	r2, r2
 4046              		.loc 1 1758 5 view .LVU1157
 4047 0018 0168     		ldr	r1, [r0]	@ unaligned
 4048 001a 0548     		ldr	r0, .L356+4
 4049              	.LVL381:
 4050              		.loc 1 1758 5 view .LVU1158
 4051 001c 0078     		ldrb	r0, [r0]	@ zero_extendqisi2
 4052 001e A847     		blx	r5
 4053              	.LVL382:
1759:Dsp/widget/wgt_core/UI_Controller.c **** 
1760:Dsp/widget/wgt_core/UI_Controller.c ****     return true;
 4054              		.loc 1 1760 5 is_stmt 1 view .LVU1159
 4055              		.loc 1 1760 12 is_stmt 0 view .LVU1160
 4056 0020 2046     		mov	r0, r4
1761:Dsp/widget/wgt_core/UI_Controller.c **** }
 4057              		.loc 1 1761 1 view .LVU1161
 4058 0022 03B0     		add	sp, sp, #12
 4059              	.LCFI71:
 4060              		.cfi_def_cfa_offset 12
 4061              		@ sp needed
 4062 0024 30BD     		pop	{r4, r5, pc}
 4063              	.LVL383:
 4064              	.L351:
 4065              	.LCFI72:
 4066              		.cfi_def_cfa_offset 0
 4067              		.cfi_restore 4
 4068              		.cfi_restore 5
 4069              		.cfi_restore 14
1754:Dsp/widget/wgt_core/UI_Controller.c **** 
 4070              		.loc 1 1754 16 view .LVU1162
 4071 0026 0020     		movs	r0, #0
 4072              	.LVL384:
 4073              		.loc 1 1761 1 view .LVU1163
 4074 0028 7047     		bx	lr
 4075              	.L357:
 4076 002a 00BF     		.align	2
 4077              	.L356:
 4078 002c 00000000 		.word	.LANCHOR0
 4079 0030 00000000 		.word	.LANCHOR2
 4080              		.cfi_endproc
 4081              	.LFE74:
 4083              		.section	.text.UI_StrInput_Init,"ax",%progbits
 4084              		.align	1
 4085              		.syntax unified
 4086              		.thumb
ARM GAS  /var/folders/lx/hc4sn_b53233_zkc9xbbl97r0000gp/T//ccErXOZH.s 			page 109


 4087              		.thumb_func
 4088              		.fpu fpv4-sp-d16
 4090              	UI_StrInput_Init:
 4091              	.LVL385:
 4092              	.LFB63:
1623:Dsp/widget/wgt_core/UI_Controller.c ****     if (Obj == NULL)
 4093              		.loc 1 1623 1 is_stmt 1 view -0
 4094              		.cfi_startproc
 4095              		@ args = 4, pretend = 0, frame = 0
 4096              		@ frame_needed = 0, uses_anonymous_args = 0
1624:Dsp/widget/wgt_core/UI_Controller.c ****         return false;
 4097              		.loc 1 1624 5 view .LVU1165
1624:Dsp/widget/wgt_core/UI_Controller.c ****         return false;
 4098              		.loc 1 1624 8 is_stmt 0 view .LVU1166
 4099 0000 B0B1     		cbz	r0, .L360
1623:Dsp/widget/wgt_core/UI_Controller.c ****     if (Obj == NULL)
 4100              		.loc 1 1623 1 view .LVU1167
 4101 0002 10B5     		push	{r4, lr}
 4102              	.LCFI73:
 4103              		.cfi_def_cfa_offset 8
 4104              		.cfi_offset 4, -8
 4105              		.cfi_offset 14, -4
 4106 0004 0446     		mov	r4, r0
1627:Dsp/widget/wgt_core/UI_Controller.c ****     memset(Obj->str, NULL, sizeof(Obj->str));
 4107              		.loc 1 1627 5 is_stmt 1 view .LVU1168
 4108 0006 FFF7FEFF 		bl	UI_GenData_Init
 4109              	.LVL386:
1628:Dsp/widget/wgt_core/UI_Controller.c ****     Obj->selected_pos = 0;
 4110              		.loc 1 1628 5 view .LVU1169
 4111 000a 0023     		movs	r3, #0
 4112 000c E360     		str	r3, [r4, #12]	@ unaligned
 4113 000e 2361     		str	r3, [r4, #16]	@ unaligned
 4114 0010 6361     		str	r3, [r4, #20]	@ unaligned
 4115 0012 A361     		str	r3, [r4, #24]	@ unaligned
1629:Dsp/widget/wgt_core/UI_Controller.c ****     Obj->selected = false;
 4116              		.loc 1 1629 5 view .LVU1170
1629:Dsp/widget/wgt_core/UI_Controller.c ****     Obj->selected = false;
 4117              		.loc 1 1629 23 is_stmt 0 view .LVU1171
 4118 0014 6377     		strb	r3, [r4, #29]
1630:Dsp/widget/wgt_core/UI_Controller.c ****     Obj->callback = NULL;
 4119              		.loc 1 1630 5 is_stmt 1 view .LVU1172
1630:Dsp/widget/wgt_core/UI_Controller.c ****     Obj->callback = NULL;
 4120              		.loc 1 1630 19 is_stmt 0 view .LVU1173
 4121 0016 2377     		strb	r3, [r4, #28]
1631:Dsp/widget/wgt_core/UI_Controller.c ****     Obj->type = type;
 4122              		.loc 1 1631 5 is_stmt 1 view .LVU1174
1631:Dsp/widget/wgt_core/UI_Controller.c ****     Obj->type = type;
 4123              		.loc 1 1631 19 is_stmt 0 view .LVU1175
 4124 0018 E377     		strb	r3, [r4, #31]
 4125 001a 84F82030 		strb	r3, [r4, #32]
 4126 001e 84F82130 		strb	r3, [r4, #33]
 4127 0022 84F82230 		strb	r3, [r4, #34]
1632:Dsp/widget/wgt_core/UI_Controller.c **** 
 4128              		.loc 1 1632 5 is_stmt 1 view .LVU1176
1632:Dsp/widget/wgt_core/UI_Controller.c **** 
 4129              		.loc 1 1632 15 is_stmt 0 view .LVU1177
 4130 0026 9DF80830 		ldrb	r3, [sp, #8]	@ zero_extendqisi2
ARM GAS  /var/folders/lx/hc4sn_b53233_zkc9xbbl97r0000gp/T//ccErXOZH.s 			page 110


 4131 002a A377     		strb	r3, [r4, #30]
1634:Dsp/widget/wgt_core/UI_Controller.c **** }
 4132              		.loc 1 1634 5 is_stmt 1 view .LVU1178
1634:Dsp/widget/wgt_core/UI_Controller.c **** }
 4133              		.loc 1 1634 12 is_stmt 0 view .LVU1179
 4134 002c 0120     		movs	r0, #1
1635:Dsp/widget/wgt_core/UI_Controller.c **** 
 4135              		.loc 1 1635 1 view .LVU1180
 4136 002e 10BD     		pop	{r4, pc}
 4137              	.LVL387:
 4138              	.L360:
 4139              	.LCFI74:
 4140              		.cfi_def_cfa_offset 0
 4141              		.cfi_restore 4
 4142              		.cfi_restore 14
1625:Dsp/widget/wgt_core/UI_Controller.c **** 
 4143              		.loc 1 1625 16 view .LVU1181
 4144 0030 0020     		movs	r0, #0
 4145              	.LVL388:
1635:Dsp/widget/wgt_core/UI_Controller.c **** 
 4146              		.loc 1 1635 1 view .LVU1182
 4147 0032 7047     		bx	lr
 4148              		.cfi_endproc
 4149              	.LFE63:
 4151              		.section	.text.UI_CheckBox_Ctl,"ax",%progbits
 4152              		.align	1
 4153              		.syntax unified
 4154              		.thumb
 4155              		.thumb_func
 4156              		.fpu fpv4-sp-d16
 4158              	UI_CheckBox_Ctl:
 4159              	.LVL389:
 4160              	.LFB23:
 722:Dsp/widget/wgt_core/UI_Controller.c ****     int16_t frame_x = 0;
 4161              		.loc 1 722 1 is_stmt 1 view -0
 4162              		.cfi_startproc
 4163              		@ args = 0, pretend = 0, frame = 0
 4164              		@ frame_needed = 0, uses_anonymous_args = 0
 722:Dsp/widget/wgt_core/UI_Controller.c ****     int16_t frame_x = 0;
 4165              		.loc 1 722 1 is_stmt 0 view .LVU1184
 4166 0000 2DE9F04F 		push	{r4, r5, r6, r7, r8, r9, r10, fp, lr}
 4167              	.LCFI75:
 4168              		.cfi_def_cfa_offset 36
 4169              		.cfi_offset 4, -36
 4170              		.cfi_offset 5, -32
 4171              		.cfi_offset 6, -28
 4172              		.cfi_offset 7, -24
 4173              		.cfi_offset 8, -20
 4174              		.cfi_offset 9, -16
 4175              		.cfi_offset 10, -12
 4176              		.cfi_offset 11, -8
 4177              		.cfi_offset 14, -4
 4178 0004 83B0     		sub	sp, sp, #12
 4179              	.LCFI76:
 4180              		.cfi_def_cfa_offset 48
 723:Dsp/widget/wgt_core/UI_Controller.c ****     int16_t frame_y = 0;
 4181              		.loc 1 723 5 is_stmt 1 view .LVU1185
ARM GAS  /var/folders/lx/hc4sn_b53233_zkc9xbbl97r0000gp/T//ccErXOZH.s 			page 111


 4182              	.LVL390:
 724:Dsp/widget/wgt_core/UI_Controller.c ****     int16_t str_x = 0;
 4183              		.loc 1 724 5 view .LVU1186
 725:Dsp/widget/wgt_core/UI_Controller.c ****     int16_t str_y = 0;
 4184              		.loc 1 725 5 view .LVU1187
 726:Dsp/widget/wgt_core/UI_Controller.c **** 
 4185              		.loc 1 726 5 view .LVU1188
 728:Dsp/widget/wgt_core/UI_Controller.c ****         (UI_DspInterface.draw_str == NULL) ||
 4186              		.loc 1 728 5 view .LVU1189
 728:Dsp/widget/wgt_core/UI_Controller.c ****         (UI_DspInterface.draw_str == NULL) ||
 4187              		.loc 1 728 8 is_stmt 0 view .LVU1190
 4188 0006 0028     		cmp	r0, #0
 4189 0008 49D0     		beq	.L368
 4190 000a 0646     		mov	r6, r0
 729:Dsp/widget/wgt_core/UI_Controller.c ****         (UI_DspInterface.fill_rectangle == NULL) ||
 4191              		.loc 1 729 25 discriminator 1 view .LVU1191
 4192 000c 2A4B     		ldr	r3, .L375
 4193 000e 1F68     		ldr	r7, [r3]
 728:Dsp/widget/wgt_core/UI_Controller.c ****         (UI_DspInterface.draw_str == NULL) ||
 4194              		.loc 1 728 23 discriminator 1 view .LVU1192
 4195 0010 002F     		cmp	r7, #0
 4196 0012 46D0     		beq	.L369
 730:Dsp/widget/wgt_core/UI_Controller.c ****         (UI_DspInterface.draw_rectangle == NULL))
 4197              		.loc 1 730 25 view .LVU1193
 4198 0014 5B6A     		ldr	r3, [r3, #36]
 729:Dsp/widget/wgt_core/UI_Controller.c ****         (UI_DspInterface.fill_rectangle == NULL) ||
 4199              		.loc 1 729 44 view .LVU1194
 4200 0016 002B     		cmp	r3, #0
 4201 0018 45D0     		beq	.L370
 731:Dsp/widget/wgt_core/UI_Controller.c ****         return false;
 4202              		.loc 1 731 25 view .LVU1195
 4203 001a 274B     		ldr	r3, .L375
 4204 001c 9B69     		ldr	r3, [r3, #24]
 730:Dsp/widget/wgt_core/UI_Controller.c ****         (UI_DspInterface.draw_rectangle == NULL))
 4205              		.loc 1 730 50 view .LVU1196
 4206 001e 002B     		cmp	r3, #0
 4207 0020 43D0     		beq	.L371
 734:Dsp/widget/wgt_core/UI_Controller.c ****     frame_y = Obj->Gen_Data.y + 2;
 4208              		.loc 1 734 5 is_stmt 1 view .LVU1197
 734:Dsp/widget/wgt_core/UI_Controller.c ****     frame_y = Obj->Gen_Data.y + 2;
 4209              		.loc 1 734 35 is_stmt 0 view .LVU1198
 4210 0022 D0F80080 		ldr	r8, [r0]	@ unaligned
 734:Dsp/widget/wgt_core/UI_Controller.c ****     frame_y = Obj->Gen_Data.y + 2;
 4211              		.loc 1 734 15 view .LVU1199
 4212 0026 4046     		mov	r0, r8
 4213              	.LVL391:
 734:Dsp/widget/wgt_core/UI_Controller.c ****     frame_y = Obj->Gen_Data.y + 2;
 4214              		.loc 1 734 15 view .LVU1200
 4215 0028 FFF7FEFF 		bl	strlen
 4216              	.LVL392:
 734:Dsp/widget/wgt_core/UI_Controller.c ****     frame_y = Obj->Gen_Data.y + 2;
 4217              		.loc 1 734 13 view .LVU1201
 4218 002c 00EB4000 		add	r0, r0, r0, lsl #1
 4219 0030 4400     		lsls	r4, r0, #1
 4220 0032 A4B2     		uxth	r4, r4
 4221              	.LVL393:
 735:Dsp/widget/wgt_core/UI_Controller.c ****     frame_x += DEFAULT_CHECKBOX_OFFSET;
ARM GAS  /var/folders/lx/hc4sn_b53233_zkc9xbbl97r0000gp/T//ccErXOZH.s 			page 112


 4222              		.loc 1 735 5 is_stmt 1 view .LVU1202
 735:Dsp/widget/wgt_core/UI_Controller.c ****     frame_x += DEFAULT_CHECKBOX_OFFSET;
 4223              		.loc 1 735 28 is_stmt 0 view .LVU1203
 4224 0034 B6F90650 		ldrsh	r5, [r6, #6]	@ unaligned
 4225 0038 2BB2     		sxth	r3, r5
 4226 003a ADB2     		uxth	r5, r5
 735:Dsp/widget/wgt_core/UI_Controller.c ****     frame_x += DEFAULT_CHECKBOX_OFFSET;
 4227              		.loc 1 735 31 view .LVU1204
 4228 003c 05F1020A 		add	r10, r5, #2
 735:Dsp/widget/wgt_core/UI_Controller.c ****     frame_x += DEFAULT_CHECKBOX_OFFSET;
 4229              		.loc 1 735 13 view .LVU1205
 4230 0040 0FFA8AFA 		sxth	r10, r10
 4231              	.LVL394:
 736:Dsp/widget/wgt_core/UI_Controller.c **** 
 4232              		.loc 1 736 5 is_stmt 1 view .LVU1206
 736:Dsp/widget/wgt_core/UI_Controller.c **** 
 4233              		.loc 1 736 13 is_stmt 0 view .LVU1207
 4234 0044 04F10509 		add	r9, r4, #5
 4235 0048 0FFA89F9 		sxth	r9, r9
 4236              	.LVL395:
 738:Dsp/widget/wgt_core/UI_Controller.c ****     str_y = Obj->Gen_Data.y;
 4237              		.loc 1 738 5 is_stmt 1 view .LVU1208
 738:Dsp/widget/wgt_core/UI_Controller.c ****     str_y = Obj->Gen_Data.y;
 4238              		.loc 1 738 26 is_stmt 0 view .LVU1209
 4239 004c B288     		ldrh	r2, [r6, #4]	@ unaligned
 738:Dsp/widget/wgt_core/UI_Controller.c ****     str_y = Obj->Gen_Data.y;
 4240              		.loc 1 738 29 view .LVU1210
 4241 004e 0332     		adds	r2, r2, #3
 738:Dsp/widget/wgt_core/UI_Controller.c ****     str_y = Obj->Gen_Data.y;
 4242              		.loc 1 738 11 view .LVU1211
 4243 0050 12B2     		sxth	r2, r2
 4244              	.LVL396:
 739:Dsp/widget/wgt_core/UI_Controller.c **** 
 4245              		.loc 1 739 5 is_stmt 1 view .LVU1212
 741:Dsp/widget/wgt_core/UI_Controller.c ****         str_y += 1;
 4246              		.loc 1 741 5 view .LVU1213
 741:Dsp/widget/wgt_core/UI_Controller.c ****         str_y += 1;
 4247              		.loc 1 741 19 is_stmt 0 view .LVU1214
 4248 0052 1A49     		ldr	r1, .L375+4
 4249 0054 0878     		ldrb	r0, [r1]	@ zero_extendqisi2
 741:Dsp/widget/wgt_core/UI_Controller.c ****         str_y += 1;
 4250              		.loc 1 741 8 view .LVU1215
 4251 0056 0828     		cmp	r0, #8
 4252 0058 1ED0     		beq	.L374
 4253              	.LVL397:
 4254              	.L367:
 744:Dsp/widget/wgt_core/UI_Controller.c ****     UI_DspInterface.draw_rectangle(frame_x, frame_y, DEFAULT_CHECKBOX_FRAME_SIZE, DEFAULT_CHECKBOX_
 4255              		.loc 1 744 5 is_stmt 1 view .LVU1216
 4256 005a 4FF0010B 		mov	fp, #1
 4257 005e CDF800B0 		str	fp, [sp]
 4258 0062 4146     		mov	r1, r8
 4259 0064 B847     		blx	r7
 4260              	.LVL398:
 745:Dsp/widget/wgt_core/UI_Controller.c **** 
 4261              		.loc 1 745 5 view .LVU1217
 745:Dsp/widget/wgt_core/UI_Controller.c **** 
 4262              		.loc 1 745 20 is_stmt 0 view .LVU1218
ARM GAS  /var/folders/lx/hc4sn_b53233_zkc9xbbl97r0000gp/T//ccErXOZH.s 			page 113


 4263 0066 144B     		ldr	r3, .L375
 4264 0068 9F69     		ldr	r7, [r3, #24]
 745:Dsp/widget/wgt_core/UI_Controller.c **** 
 4265              		.loc 1 745 5 view .LVU1219
 4266 006a CDF804B0 		str	fp, [sp, #4]
 4267 006e CDF800B0 		str	fp, [sp]
 4268 0072 0723     		movs	r3, #7
 4269 0074 1A46     		mov	r2, r3
 4270 0076 5146     		mov	r1, r10
 4271 0078 4846     		mov	r0, r9
 4272 007a B847     		blx	r7
 4273              	.LVL399:
 747:Dsp/widget/wgt_core/UI_Controller.c ****         UI_DspInterface.fill_rectangle(frame_x + 2, frame_y + 2, DEFAULT_CHECKBOX_FILLFRAME, DEFAUL
 4274              		.loc 1 747 5 is_stmt 1 view .LVU1220
 747:Dsp/widget/wgt_core/UI_Controller.c ****         UI_DspInterface.fill_rectangle(frame_x + 2, frame_y + 2, DEFAULT_CHECKBOX_FILLFRAME, DEFAUL
 4275              		.loc 1 747 12 is_stmt 0 view .LVU1221
 4276 007c 367C     		ldrb	r6, [r6, #16]	@ zero_extendqisi2
 4277              	.LVL400:
 747:Dsp/widget/wgt_core/UI_Controller.c ****         UI_DspInterface.fill_rectangle(frame_x + 2, frame_y + 2, DEFAULT_CHECKBOX_FILLFRAME, DEFAUL
 4278              		.loc 1 747 8 view .LVU1222
 4279 007e B6B1     		cbz	r6, .L372
 748:Dsp/widget/wgt_core/UI_Controller.c **** 
 4280              		.loc 1 748 9 is_stmt 1 view .LVU1223
 748:Dsp/widget/wgt_core/UI_Controller.c **** 
 4281              		.loc 1 748 24 is_stmt 0 view .LVU1224
 4282 0080 0D4B     		ldr	r3, .L375
 4283 0082 5F6A     		ldr	r7, [r3, #36]
 748:Dsp/widget/wgt_core/UI_Controller.c **** 
 4284              		.loc 1 748 48 view .LVU1225
 4285 0084 E01D     		adds	r0, r4, #7
 748:Dsp/widget/wgt_core/UI_Controller.c **** 
 4286              		.loc 1 748 61 view .LVU1226
 4287 0086 291D     		adds	r1, r5, #4
 748:Dsp/widget/wgt_core/UI_Controller.c **** 
 4288              		.loc 1 748 9 view .LVU1227
 4289 0088 CDF800B0 		str	fp, [sp]
 4290 008c 0323     		movs	r3, #3
 4291 008e 1A46     		mov	r2, r3
 4292 0090 09B2     		sxth	r1, r1
 4293 0092 00B2     		sxth	r0, r0
 4294 0094 B847     		blx	r7
 4295              	.LVL401:
 4296 0096 0BE0     		b	.L366
 4297              	.LVL402:
 4298              	.L374:
 742:Dsp/widget/wgt_core/UI_Controller.c **** 
 4299              		.loc 1 742 9 is_stmt 1 view .LVU1228
 742:Dsp/widget/wgt_core/UI_Controller.c **** 
 4300              		.loc 1 742 15 is_stmt 0 view .LVU1229
 4301 0098 6B1C     		adds	r3, r5, #1
 4302 009a 1BB2     		sxth	r3, r3
 4303              	.LVL403:
 742:Dsp/widget/wgt_core/UI_Controller.c **** 
 4304              		.loc 1 742 15 view .LVU1230
 4305 009c DDE7     		b	.L367
 4306              	.LVL404:
 4307              	.L368:
ARM GAS  /var/folders/lx/hc4sn_b53233_zkc9xbbl97r0000gp/T//ccErXOZH.s 			page 114


 732:Dsp/widget/wgt_core/UI_Controller.c **** 
 4308              		.loc 1 732 16 view .LVU1231
 4309 009e 0026     		movs	r6, #0
 4310 00a0 06E0     		b	.L366
 4311              	.L369:
 732:Dsp/widget/wgt_core/UI_Controller.c **** 
 4312              		.loc 1 732 16 view .LVU1232
 4313 00a2 0026     		movs	r6, #0
 4314 00a4 04E0     		b	.L366
 4315              	.L370:
 732:Dsp/widget/wgt_core/UI_Controller.c **** 
 4316              		.loc 1 732 16 view .LVU1233
 4317 00a6 0026     		movs	r6, #0
 4318 00a8 02E0     		b	.L366
 4319              	.L371:
 732:Dsp/widget/wgt_core/UI_Controller.c **** 
 4320              		.loc 1 732 16 view .LVU1234
 4321 00aa 0026     		movs	r6, #0
 4322 00ac 00E0     		b	.L366
 4323              	.LVL405:
 4324              	.L372:
 750:Dsp/widget/wgt_core/UI_Controller.c **** }
 4325              		.loc 1 750 12 view .LVU1235
 4326 00ae 0126     		movs	r6, #1
 4327              	.LVL406:
 4328              	.L366:
 751:Dsp/widget/wgt_core/UI_Controller.c **** 
 4329              		.loc 1 751 1 view .LVU1236
 4330 00b0 3046     		mov	r0, r6
 4331 00b2 03B0     		add	sp, sp, #12
 4332              	.LCFI77:
 4333              		.cfi_def_cfa_offset 36
 4334              		@ sp needed
 4335 00b4 BDE8F08F 		pop	{r4, r5, r6, r7, r8, r9, r10, fp, pc}
 4336              	.L376:
 4337              		.align	2
 4338              	.L375:
 4339 00b8 00000000 		.word	.LANCHOR0
 4340 00bc 00000000 		.word	.LANCHOR2
 4341              		.cfi_endproc
 4342              	.LFE23:
 4344              		.section	.text.UI_SlideBar_CTL,"ax",%progbits
 4345              		.align	1
 4346              		.syntax unified
 4347              		.thumb
 4348              		.thumb_func
 4349              		.fpu fpv4-sp-d16
 4351              	UI_SlideBar_CTL:
 4352              	.LVL407:
 4353              	.LFB29:
 835:Dsp/widget/wgt_core/UI_Controller.c ****     int16_t Block_CoordX = 0;
 4354              		.loc 1 835 1 is_stmt 1 view -0
 4355              		.cfi_startproc
 4356              		@ args = 0, pretend = 0, frame = 0
 4357              		@ frame_needed = 0, uses_anonymous_args = 0
 836:Dsp/widget/wgt_core/UI_Controller.c ****     int16_t Block_CoordY = 0;
 4358              		.loc 1 836 5 view .LVU1238
ARM GAS  /var/folders/lx/hc4sn_b53233_zkc9xbbl97r0000gp/T//ccErXOZH.s 			page 115


 837:Dsp/widget/wgt_core/UI_Controller.c ****     int16_t input_trip = 0;
 4359              		.loc 1 837 5 view .LVU1239
 838:Dsp/widget/wgt_core/UI_Controller.c ****     int16_t str_y = Obj->Gen_Data.y;
 4360              		.loc 1 838 5 view .LVU1240
 839:Dsp/widget/wgt_core/UI_Controller.c **** 
 4361              		.loc 1 839 5 view .LVU1241
 839:Dsp/widget/wgt_core/UI_Controller.c **** 
 4362              		.loc 1 839 13 is_stmt 0 view .LVU1242
 4363 0000 B0F90620 		ldrsh	r2, [r0, #6]	@ unaligned
 4364              	.LVL408:
 841:Dsp/widget/wgt_core/UI_Controller.c ****         (UI_DspInterface.draw_str == NULL) ||
 4365              		.loc 1 841 5 is_stmt 1 view .LVU1243
 841:Dsp/widget/wgt_core/UI_Controller.c ****         (UI_DspInterface.draw_str == NULL) ||
 4366              		.loc 1 841 8 is_stmt 0 view .LVU1244
 4367 0004 0028     		cmp	r0, #0
 4368 0006 7BD0     		beq	.L381
 835:Dsp/widget/wgt_core/UI_Controller.c ****     int16_t Block_CoordX = 0;
 4369              		.loc 1 835 1 discriminator 1 view .LVU1245
 4370 0008 2DE9F041 		push	{r4, r5, r6, r7, r8, lr}
 4371              	.LCFI78:
 4372              		.cfi_def_cfa_offset 24
 4373              		.cfi_offset 4, -24
 4374              		.cfi_offset 5, -20
 4375              		.cfi_offset 6, -16
 4376              		.cfi_offset 7, -12
 4377              		.cfi_offset 8, -8
 4378              		.cfi_offset 14, -4
 4379 000c 82B0     		sub	sp, sp, #8
 4380              	.LCFI79:
 4381              		.cfi_def_cfa_offset 32
 4382 000e 0446     		mov	r4, r0
 4383 0010 1346     		mov	r3, r2
 842:Dsp/widget/wgt_core/UI_Controller.c ****         (UI_DspInterface.fill_rectangle == NULL))
 4384              		.loc 1 842 25 discriminator 1 view .LVU1246
 4385 0012 3F49     		ldr	r1, .L390
 4386 0014 0E68     		ldr	r6, [r1]
 841:Dsp/widget/wgt_core/UI_Controller.c ****         (UI_DspInterface.draw_str == NULL) ||
 4387              		.loc 1 841 23 discriminator 1 view .LVU1247
 4388 0016 002E     		cmp	r6, #0
 4389 0018 74D0     		beq	.L382
 843:Dsp/widget/wgt_core/UI_Controller.c ****         return false;
 4390              		.loc 1 843 25 view .LVU1248
 4391 001a 496A     		ldr	r1, [r1, #36]
 842:Dsp/widget/wgt_core/UI_Controller.c ****         (UI_DspInterface.fill_rectangle == NULL))
 4392              		.loc 1 842 44 view .LVU1249
 4393 001c 0029     		cmp	r1, #0
 4394 001e 73D0     		beq	.L383
 846:Dsp/widget/wgt_core/UI_Controller.c ****         str_y += 1;
 4395              		.loc 1 846 5 is_stmt 1 view .LVU1250
 846:Dsp/widget/wgt_core/UI_Controller.c ****         str_y += 1;
 4396              		.loc 1 846 19 is_stmt 0 view .LVU1251
 4397 0020 3C49     		ldr	r1, .L390+4
 4398 0022 0878     		ldrb	r0, [r1]	@ zero_extendqisi2
 4399              	.LVL409:
 846:Dsp/widget/wgt_core/UI_Controller.c ****         str_y += 1;
 4400              		.loc 1 846 8 view .LVU1252
 4401 0024 0828     		cmp	r0, #8
ARM GAS  /var/folders/lx/hc4sn_b53233_zkc9xbbl97r0000gp/T//ccErXOZH.s 			page 116


 4402 0026 64D0     		beq	.L389
 4403              	.LVL410:
 4404              	.L379:
 849:Dsp/widget/wgt_core/UI_Controller.c **** 
 4405              		.loc 1 849 5 is_stmt 1 view .LVU1253
 849:Dsp/widget/wgt_core/UI_Controller.c **** 
 4406              		.loc 1 849 21 is_stmt 0 view .LVU1254
 4407 0028 D4F81520 		ldr	r2, [r4, #21]	@ unaligned
 4408 002c 07EE902A 		vmov	s15, r2	@ int
 849:Dsp/widget/wgt_core/UI_Controller.c **** 
 4409              		.loc 1 849 38 view .LVU1255
 4410 0030 D4F81120 		ldr	r2, [r4, #17]	@ unaligned
 849:Dsp/widget/wgt_core/UI_Controller.c **** 
 4411              		.loc 1 849 33 view .LVU1256
 4412 0034 07EE102A 		vmov	s14, r2
 4413 0038 77EEC77A 		vsub.f32	s15, s15, s14
 849:Dsp/widget/wgt_core/UI_Controller.c **** 
 4414              		.loc 1 849 16 view .LVU1257
 4415 003c FDEEE77A 		vcvt.s32.f32	s15, s15
 4416 0040 17EE902A 		vmov	r2, s15	@ int
 4417 0044 15B2     		sxth	r5, r2
 4418              	.LVL411:
 851:Dsp/widget/wgt_core/UI_Controller.c **** 
 4419              		.loc 1 851 5 is_stmt 1 view .LVU1258
 851:Dsp/widget/wgt_core/UI_Controller.c **** 
 4420              		.loc 1 851 75 is_stmt 0 view .LVU1259
 4421 0046 A288     		ldrh	r2, [r4, #4]	@ unaligned
 851:Dsp/widget/wgt_core/UI_Controller.c **** 
 4422              		.loc 1 851 78 view .LVU1260
 4423 0048 0332     		adds	r2, r2, #3
 851:Dsp/widget/wgt_core/UI_Controller.c **** 
 4424              		.loc 1 851 5 view .LVU1261
 4425 004a 0121     		movs	r1, #1
 4426 004c 0091     		str	r1, [sp]
 4427 004e 12B2     		sxth	r2, r2
 4428 0050 2168     		ldr	r1, [r4]	@ unaligned
 4429 0052 B047     		blx	r6
 4430              	.LVL412:
 853:Dsp/widget/wgt_core/UI_Controller.c ****     {
 4431              		.loc 1 853 5 is_stmt 1 view .LVU1262
 853:Dsp/widget/wgt_core/UI_Controller.c ****     {
 4432              		.loc 1 853 12 is_stmt 0 view .LVU1263
 4433 0054 237B     		ldrb	r3, [r4, #12]	@ zero_extendqisi2
 853:Dsp/widget/wgt_core/UI_Controller.c ****     {
 4434              		.loc 1 853 8 view .LVU1264
 4435 0056 002B     		cmp	r3, #0
 4436 0058 4ED1     		bne	.L380
 855:Dsp/widget/wgt_core/UI_Controller.c ****         Obj->BarCoord_Y = Obj->Gen_Data.y + 5;
 4437              		.loc 1 855 9 is_stmt 1 view .LVU1265
 855:Dsp/widget/wgt_core/UI_Controller.c ****         Obj->BarCoord_Y = Obj->Gen_Data.y + 5;
 4438              		.loc 1 855 40 is_stmt 0 view .LVU1266
 4439 005a A688     		ldrh	r6, [r4, #4]	@ unaligned
 855:Dsp/widget/wgt_core/UI_Controller.c ****         Obj->BarCoord_Y = Obj->Gen_Data.y + 5;
 4440              		.loc 1 855 45 view .LVU1267
 4441 005c 2068     		ldr	r0, [r4]	@ unaligned
 4442 005e FFF7FEFF 		bl	strlen
 4443              	.LVL413:
ARM GAS  /var/folders/lx/hc4sn_b53233_zkc9xbbl97r0000gp/T//ccErXOZH.s 			page 117


 855:Dsp/widget/wgt_core/UI_Controller.c ****         Obj->BarCoord_Y = Obj->Gen_Data.y + 5;
 4444              		.loc 1 855 43 view .LVU1268
 4445 0062 00EB4003 		add	r3, r0, r0, lsl #1
 4446 0066 06EB4303 		add	r3, r6, r3, lsl #1
 4447 006a 9BB2     		uxth	r3, r3
 855:Dsp/widget/wgt_core/UI_Controller.c ****         Obj->BarCoord_Y = Obj->Gen_Data.y + 5;
 4448              		.loc 1 855 83 view .LVU1269
 4449 006c 0533     		adds	r3, r3, #5
 4450 006e 18B2     		sxth	r0, r3
 855:Dsp/widget/wgt_core/UI_Controller.c ****         Obj->BarCoord_Y = Obj->Gen_Data.y + 5;
 4451              		.loc 1 855 25 view .LVU1270
 4452 0070 A384     		strh	r3, [r4, #36]	@ unaligned
 856:Dsp/widget/wgt_core/UI_Controller.c **** 
 4453              		.loc 1 856 9 is_stmt 1 view .LVU1271
 856:Dsp/widget/wgt_core/UI_Controller.c **** 
 4454              		.loc 1 856 40 is_stmt 0 view .LVU1272
 4455 0072 E188     		ldrh	r1, [r4, #6]	@ unaligned
 856:Dsp/widget/wgt_core/UI_Controller.c **** 
 4456              		.loc 1 856 43 view .LVU1273
 4457 0074 0531     		adds	r1, r1, #5
 856:Dsp/widget/wgt_core/UI_Controller.c **** 
 4458              		.loc 1 856 25 view .LVU1274
 4459 0076 E184     		strh	r1, [r4, #38]	@ unaligned
 858:Dsp/widget/wgt_core/UI_Controller.c ****         Block_CoordX += (Obj->cur_val - Obj->limit_min) / ((float)(input_trip)) * (DEFAULT_SLIDERBA
 4460              		.loc 1 858 9 is_stmt 1 view .LVU1275
 4461              	.LVL414:
 859:Dsp/widget/wgt_core/UI_Controller.c **** 
 4462              		.loc 1 859 9 view .LVU1276
 859:Dsp/widget/wgt_core/UI_Controller.c **** 
 4463              		.loc 1 859 29 is_stmt 0 view .LVU1277
 4464 0078 D4F81F30 		ldr	r3, [r4, #31]	@ unaligned
 4465 007c 06EE903A 		vmov	s13, r3	@ int
 859:Dsp/widget/wgt_core/UI_Controller.c **** 
 4466              		.loc 1 859 44 view .LVU1278
 4467 0080 D4F81130 		ldr	r3, [r4, #17]	@ unaligned
 859:Dsp/widget/wgt_core/UI_Controller.c **** 
 4468              		.loc 1 859 39 view .LVU1279
 4469 0084 07EE903A 		vmov	s15, r3
 4470 0088 76EEE76A 		vsub.f32	s13, s13, s15
 859:Dsp/widget/wgt_core/UI_Controller.c **** 
 4471              		.loc 1 859 60 view .LVU1280
 4472 008c 07EE905A 		vmov	s15, r5	@ int
 4473 0090 B8EEE77A 		vcvt.f32.s32	s14, s15
 859:Dsp/widget/wgt_core/UI_Controller.c **** 
 4474              		.loc 1 859 57 view .LVU1281
 4475 0094 C6EE877A 		vdiv.f32	s15, s13, s14
 859:Dsp/widget/wgt_core/UI_Controller.c **** 
 4476              		.loc 1 859 81 view .LVU1282
 4477 0098 9FED1F7A 		vldr.32	s14, .L390+8
 4478 009c 27EE877A 		vmul.f32	s14, s15, s14
 859:Dsp/widget/wgt_core/UI_Controller.c **** 
 4479              		.loc 1 859 22 view .LVU1283
 4480 00a0 07EE900A 		vmov	s15, r0	@ int
 4481 00a4 F8EEE77A 		vcvt.f32.s32	s15, s15
 4482 00a8 77EE877A 		vadd.f32	s15, s15, s14
 4483 00ac FDEEE77A 		vcvt.s32.f32	s15, s15
 4484 00b0 17EE903A 		vmov	r3, s15	@ int
ARM GAS  /var/folders/lx/hc4sn_b53233_zkc9xbbl97r0000gp/T//ccErXOZH.s 			page 118


 4485 00b4 0FFA83F8 		sxth	r8, r3
 4486              	.LVL415:
 861:Dsp/widget/wgt_core/UI_Controller.c **** 
 4487              		.loc 1 861 9 is_stmt 1 view .LVU1284
 861:Dsp/widget/wgt_core/UI_Controller.c **** 
 4488              		.loc 1 861 24 is_stmt 0 view .LVU1285
 4489 00b8 154F     		ldr	r7, .L390
 861:Dsp/widget/wgt_core/UI_Controller.c **** 
 4490              		.loc 1 861 9 view .LVU1286
 4491 00ba 0125     		movs	r5, #1
 4492              	.LVL416:
 861:Dsp/widget/wgt_core/UI_Controller.c **** 
 4493              		.loc 1 861 9 view .LVU1287
 4494 00bc 0095     		str	r5, [sp]
 4495 00be 0223     		movs	r3, #2
 4496 00c0 2822     		movs	r2, #40
 4497 00c2 09B2     		sxth	r1, r1
 4498 00c4 7E6A     		ldr	r6, [r7, #36]
 4499 00c6 B047     		blx	r6
 4500              	.LVL417:
 863:Dsp/widget/wgt_core/UI_Controller.c ****         UI_DspInterface.fill_rectangle(Block_CoordX, Block_CoordY, DEFAULT_SLIDERBAR_BLOCK_WIDTH, D
 4501              		.loc 1 863 9 is_stmt 1 view .LVU1288
 863:Dsp/widget/wgt_core/UI_Controller.c ****         UI_DspInterface.fill_rectangle(Block_CoordX, Block_CoordY, DEFAULT_SLIDERBAR_BLOCK_WIDTH, D
 4502              		.loc 1 863 37 is_stmt 0 view .LVU1289
 4503 00c8 E488     		ldrh	r4, [r4, #6]	@ unaligned
 4504              	.LVL418:
 863:Dsp/widget/wgt_core/UI_Controller.c ****         UI_DspInterface.fill_rectangle(Block_CoordX, Block_CoordY, DEFAULT_SLIDERBAR_BLOCK_WIDTH, D
 4505              		.loc 1 863 40 view .LVU1290
 4506 00ca E11C     		adds	r1, r4, #3
 4507              	.LVL419:
 864:Dsp/widget/wgt_core/UI_Controller.c ****         UI_DspInterface.fill_rectangle(Block_CoordX, Block_CoordY + (DEFAULT_SLIDERBAR_BLOCK_HIGH /
 4508              		.loc 1 864 9 is_stmt 1 view .LVU1291
 4509 00cc 0095     		str	r5, [sp]
 4510 00ce 0623     		movs	r3, #6
 4511 00d0 0322     		movs	r2, #3
 4512 00d2 09B2     		sxth	r1, r1
 864:Dsp/widget/wgt_core/UI_Controller.c ****         UI_DspInterface.fill_rectangle(Block_CoordX, Block_CoordY + (DEFAULT_SLIDERBAR_BLOCK_HIGH /
 4513              		.loc 1 864 9 is_stmt 0 view .LVU1292
 4514 00d4 4046     		mov	r0, r8
 4515 00d6 7E6A     		ldr	r6, [r7, #36]
 4516 00d8 B047     		blx	r6
 4517              	.LVL420:
 865:Dsp/widget/wgt_core/UI_Controller.c ****     }
 4518              		.loc 1 865 9 is_stmt 1 view .LVU1293
 865:Dsp/widget/wgt_core/UI_Controller.c ****     }
 4519              		.loc 1 865 24 is_stmt 0 view .LVU1294
 4520 00da 7F6A     		ldr	r7, [r7, #36]
 865:Dsp/widget/wgt_core/UI_Controller.c ****     }
 4521              		.loc 1 865 67 view .LVU1295
 4522 00dc 611D     		adds	r1, r4, #5
 865:Dsp/widget/wgt_core/UI_Controller.c ****     }
 4523              		.loc 1 865 9 view .LVU1296
 4524 00de 0095     		str	r5, [sp]
 4525 00e0 0223     		movs	r3, #2
 4526 00e2 0322     		movs	r2, #3
 4527 00e4 09B2     		sxth	r1, r1
 4528 00e6 4046     		mov	r0, r8
ARM GAS  /var/folders/lx/hc4sn_b53233_zkc9xbbl97r0000gp/T//ccErXOZH.s 			page 119


 4529 00e8 B847     		blx	r7
 4530              	.LVL421:
 873:Dsp/widget/wgt_core/UI_Controller.c **** }
 4531              		.loc 1 873 12 view .LVU1297
 4532 00ea 2846     		mov	r0, r5
 4533              	.LVL422:
 4534              	.L378:
 874:Dsp/widget/wgt_core/UI_Controller.c **** 
 4535              		.loc 1 874 1 view .LVU1298
 4536 00ec 02B0     		add	sp, sp, #8
 4537              	.LCFI80:
 4538              		.cfi_remember_state
 4539              		.cfi_def_cfa_offset 24
 4540              		@ sp needed
 4541 00ee BDE8F081 		pop	{r4, r5, r6, r7, r8, pc}
 4542              	.LVL423:
 4543              	.L389:
 4544              	.LCFI81:
 4545              		.cfi_restore_state
 847:Dsp/widget/wgt_core/UI_Controller.c **** 
 4546              		.loc 1 847 9 is_stmt 1 view .LVU1299
 847:Dsp/widget/wgt_core/UI_Controller.c **** 
 4547              		.loc 1 847 15 is_stmt 0 view .LVU1300
 4548 00f2 0132     		adds	r2, r2, #1
 4549              	.LVL424:
 847:Dsp/widget/wgt_core/UI_Controller.c **** 
 4550              		.loc 1 847 15 view .LVU1301
 4551 00f4 13B2     		sxth	r3, r2
 4552              	.LVL425:
 847:Dsp/widget/wgt_core/UI_Controller.c **** 
 4553              		.loc 1 847 15 view .LVU1302
 4554 00f6 97E7     		b	.L379
 4555              	.LVL426:
 4556              	.L380:
 867:Dsp/widget/wgt_core/UI_Controller.c ****     {
 4557              		.loc 1 867 10 is_stmt 1 view .LVU1303
 867:Dsp/widget/wgt_core/UI_Controller.c ****     {
 4558              		.loc 1 867 13 is_stmt 0 view .LVU1304
 4559 00f8 012B     		cmp	r3, #1
 4560 00fa 07D1     		bne	.L384
 873:Dsp/widget/wgt_core/UI_Controller.c **** }
 4561              		.loc 1 873 12 view .LVU1305
 4562 00fc 0120     		movs	r0, #1
 4563 00fe F5E7     		b	.L378
 4564              	.LVL427:
 4565              	.L381:
 4566              	.LCFI82:
 4567              		.cfi_def_cfa_offset 0
 4568              		.cfi_restore 4
 4569              		.cfi_restore 5
 4570              		.cfi_restore 6
 4571              		.cfi_restore 7
 4572              		.cfi_restore 8
 4573              		.cfi_restore 14
 844:Dsp/widget/wgt_core/UI_Controller.c **** 
 4574              		.loc 1 844 16 view .LVU1306
 4575 0100 0020     		movs	r0, #0
ARM GAS  /var/folders/lx/hc4sn_b53233_zkc9xbbl97r0000gp/T//ccErXOZH.s 			page 120


 4576              	.LVL428:
 874:Dsp/widget/wgt_core/UI_Controller.c **** 
 4577              		.loc 1 874 1 view .LVU1307
 4578 0102 7047     		bx	lr
 4579              	.LVL429:
 4580              	.L382:
 4581              	.LCFI83:
 4582              		.cfi_def_cfa_offset 32
 4583              		.cfi_offset 4, -24
 4584              		.cfi_offset 5, -20
 4585              		.cfi_offset 6, -16
 4586              		.cfi_offset 7, -12
 4587              		.cfi_offset 8, -8
 4588              		.cfi_offset 14, -4
 844:Dsp/widget/wgt_core/UI_Controller.c **** 
 4589              		.loc 1 844 16 view .LVU1308
 4590 0104 0020     		movs	r0, #0
 4591              	.LVL430:
 844:Dsp/widget/wgt_core/UI_Controller.c **** 
 4592              		.loc 1 844 16 view .LVU1309
 4593 0106 F1E7     		b	.L378
 4594              	.LVL431:
 4595              	.L383:
 844:Dsp/widget/wgt_core/UI_Controller.c **** 
 4596              		.loc 1 844 16 view .LVU1310
 4597 0108 0020     		movs	r0, #0
 4598              	.LVL432:
 844:Dsp/widget/wgt_core/UI_Controller.c **** 
 4599              		.loc 1 844 16 view .LVU1311
 4600 010a EFE7     		b	.L378
 4601              	.LVL433:
 4602              	.L384:
 871:Dsp/widget/wgt_core/UI_Controller.c **** 
 4603              		.loc 1 871 16 view .LVU1312
 4604 010c 0020     		movs	r0, #0
 4605 010e EDE7     		b	.L378
 4606              	.L391:
 4607              		.align	2
 4608              	.L390:
 4609 0110 00000000 		.word	.LANCHOR0
 4610 0114 00000000 		.word	.LANCHOR2
 4611 0118 00001442 		.word	1108606976
 4612              		.cfi_endproc
 4613              	.LFE29:
 4615              		.section	.text.UI_Drop_Ctl,"ax",%progbits
 4616              		.align	1
 4617              		.syntax unified
 4618              		.thumb
 4619              		.thumb_func
 4620              		.fpu fpv4-sp-d16
 4622              	UI_Drop_Ctl:
 4623              	.LVL434:
 4624              	.LFB48:
1287:Dsp/widget/wgt_core/UI_Controller.c ****     int16_t str_x = 0;
 4625              		.loc 1 1287 1 is_stmt 1 view -0
 4626              		.cfi_startproc
 4627              		@ args = 0, pretend = 0, frame = 0
ARM GAS  /var/folders/lx/hc4sn_b53233_zkc9xbbl97r0000gp/T//ccErXOZH.s 			page 121


 4628              		@ frame_needed = 0, uses_anonymous_args = 0
1287:Dsp/widget/wgt_core/UI_Controller.c ****     int16_t str_x = 0;
 4629              		.loc 1 1287 1 is_stmt 0 view .LVU1314
 4630 0000 2DE9F047 		push	{r4, r5, r6, r7, r8, r9, r10, lr}
 4631              	.LCFI84:
 4632              		.cfi_def_cfa_offset 32
 4633              		.cfi_offset 4, -32
 4634              		.cfi_offset 5, -28
 4635              		.cfi_offset 6, -24
 4636              		.cfi_offset 7, -20
 4637              		.cfi_offset 8, -16
 4638              		.cfi_offset 9, -12
 4639              		.cfi_offset 10, -8
 4640              		.cfi_offset 14, -4
 4641 0004 82B0     		sub	sp, sp, #8
 4642              	.LCFI85:
 4643              		.cfi_def_cfa_offset 40
1288:Dsp/widget/wgt_core/UI_Controller.c ****     int16_t str_y = 0;
 4644              		.loc 1 1288 5 is_stmt 1 view .LVU1315
 4645              	.LVL435:
1289:Dsp/widget/wgt_core/UI_Controller.c ****     int16_t dropitem_x = 0;
 4646              		.loc 1 1289 5 view .LVU1316
1290:Dsp/widget/wgt_core/UI_Controller.c ****     int16_t dropitem_y = 0;
 4647              		.loc 1 1290 5 view .LVU1317
1291:Dsp/widget/wgt_core/UI_Controller.c **** 
 4648              		.loc 1 1291 5 view .LVU1318
1293:Dsp/widget/wgt_core/UI_Controller.c ****         (UI_DspInterface.draw_str == NULL) &&
 4649              		.loc 1 1293 5 view .LVU1319
1293:Dsp/widget/wgt_core/UI_Controller.c ****         (UI_DspInterface.draw_str == NULL) &&
 4650              		.loc 1 1293 8 is_stmt 0 view .LVU1320
 4651 0006 0446     		mov	r4, r0
 4652 0008 0028     		cmp	r0, #0
 4653 000a 3FD0     		beq	.L398
 4654              	.L393:
1298:Dsp/widget/wgt_core/UI_Controller.c ****     str_y = Obj->Gen_Data.y;
 4655              		.loc 1 1298 5 is_stmt 1 view .LVU1321
1298:Dsp/widget/wgt_core/UI_Controller.c ****     str_y = Obj->Gen_Data.y;
 4656              		.loc 1 1298 26 is_stmt 0 view .LVU1322
 4657 000c A288     		ldrh	r2, [r4, #4]	@ unaligned
1298:Dsp/widget/wgt_core/UI_Controller.c ****     str_y = Obj->Gen_Data.y;
 4658              		.loc 1 1298 29 view .LVU1323
 4659 000e 0332     		adds	r2, r2, #3
1298:Dsp/widget/wgt_core/UI_Controller.c ****     str_y = Obj->Gen_Data.y;
 4660              		.loc 1 1298 11 view .LVU1324
 4661 0010 12B2     		sxth	r2, r2
 4662              	.LVL436:
1299:Dsp/widget/wgt_core/UI_Controller.c **** 
 4663              		.loc 1 1299 5 is_stmt 1 view .LVU1325
1299:Dsp/widget/wgt_core/UI_Controller.c **** 
 4664              		.loc 1 1299 11 is_stmt 0 view .LVU1326
 4665 0012 B4F90630 		ldrsh	r3, [r4, #6]	@ unaligned
 4666 0016 1F46     		mov	r7, r3
 4667              	.LVL437:
1301:Dsp/widget/wgt_core/UI_Controller.c ****         str_y += 1;
 4668              		.loc 1 1301 5 is_stmt 1 view .LVU1327
1301:Dsp/widget/wgt_core/UI_Controller.c ****         str_y += 1;
 4669              		.loc 1 1301 19 is_stmt 0 view .LVU1328
ARM GAS  /var/folders/lx/hc4sn_b53233_zkc9xbbl97r0000gp/T//ccErXOZH.s 			page 122


 4670 0018 2349     		ldr	r1, .L400
 4671 001a 0878     		ldrb	r0, [r1]	@ zero_extendqisi2
 4672              	.LVL438:
1301:Dsp/widget/wgt_core/UI_Controller.c ****         str_y += 1;
 4673              		.loc 1 1301 8 view .LVU1329
 4674 001c 0828     		cmp	r0, #8
 4675 001e 3FD0     		beq	.L399
 4676              	.LVL439:
 4677              	.L395:
1305:Dsp/widget/wgt_core/UI_Controller.c **** 
 4678              		.loc 1 1305 5 is_stmt 1 view .LVU1330
1305:Dsp/widget/wgt_core/UI_Controller.c **** 
 4679              		.loc 1 1305 20 is_stmt 0 view .LVU1331
 4680 0020 DFF88880 		ldr	r8, .L400+4
 4681 0024 D8F80060 		ldr	r6, [r8]
1305:Dsp/widget/wgt_core/UI_Controller.c **** 
 4682              		.loc 1 1305 5 view .LVU1332
 4683 0028 0125     		movs	r5, #1
 4684 002a 0095     		str	r5, [sp]
 4685 002c 3B46     		mov	r3, r7
 4686 002e 2168     		ldr	r1, [r4]	@ unaligned
 4687 0030 B047     		blx	r6
 4688              	.LVL440:
1308:Dsp/widget/wgt_core/UI_Controller.c ****     dropitem_x = Obj->Gen_Data.x + STR_DIS * strlen(Obj->Gen_Data.label);
 4689              		.loc 1 1308 5 is_stmt 1 view .LVU1333
1309:Dsp/widget/wgt_core/UI_Controller.c **** 
 4690              		.loc 1 1309 5 view .LVU1334
1309:Dsp/widget/wgt_core/UI_Controller.c **** 
 4691              		.loc 1 1309 31 is_stmt 0 view .LVU1335
 4692 0032 A688     		ldrh	r6, [r4, #4]	@ unaligned
1309:Dsp/widget/wgt_core/UI_Controller.c **** 
 4693              		.loc 1 1309 46 view .LVU1336
 4694 0034 2068     		ldr	r0, [r4]	@ unaligned
 4695 0036 FFF7FEFF 		bl	strlen
 4696              	.LVL441:
1309:Dsp/widget/wgt_core/UI_Controller.c **** 
 4697              		.loc 1 1309 34 view .LVU1337
 4698 003a 00EB4000 		add	r0, r0, r0, lsl #1
 4699 003e 06EB4002 		add	r2, r6, r0, lsl #1
 4700 0042 1FFA82FA 		uxth	r10, r2
 4701              	.LVL442:
1312:Dsp/widget/wgt_core/UI_Controller.c **** 
 4702              		.loc 1 1312 5 is_stmt 1 view .LVU1338
1312:Dsp/widget/wgt_core/UI_Controller.c **** 
 4703              		.loc 1 1312 76 is_stmt 0 view .LVU1339
 4704 0046 D4F81130 		ldr	r3, [r4, #17]	@ unaligned
1312:Dsp/widget/wgt_core/UI_Controller.c **** 
 4705              		.loc 1 1312 90 view .LVU1340
 4706 004a 1B69     		ldr	r3, [r3, #16]
1312:Dsp/widget/wgt_core/UI_Controller.c **** 
 4707              		.loc 1 1312 98 view .LVU1341
 4708 004c 1978     		ldrb	r1, [r3]	@ zero_extendqisi2
1312:Dsp/widget/wgt_core/UI_Controller.c **** 
 4709              		.loc 1 1312 5 view .LVU1342
 4710 004e DFF85890 		ldr	r9, .L400
 4711 0052 0095     		str	r5, [sp]
 4712 0054 3B46     		mov	r3, r7
ARM GAS  /var/folders/lx/hc4sn_b53233_zkc9xbbl97r0000gp/T//ccErXOZH.s 			page 123


 4713 0056 12B2     		sxth	r2, r2
1312:Dsp/widget/wgt_core/UI_Controller.c **** 
 4714              		.loc 1 1312 5 view .LVU1343
 4715 0058 2944     		add	r1, r1, r5
 4716 005a 99F80000 		ldrb	r0, [r9]	@ zero_extendqisi2
 4717 005e D8F80460 		ldr	r6, [r8, #4]
 4718 0062 B047     		blx	r6
 4719              	.LVL443:
1315:Dsp/widget/wgt_core/UI_Controller.c ****     UI_DspInterface.draw_str(base_font, ((UI_DropItemDataObj_TypeDef *)(Obj->CurDrop_Item->data))->
 4720              		.loc 1 1315 5 is_stmt 1 view .LVU1344
1315:Dsp/widget/wgt_core/UI_Controller.c ****     UI_DspInterface.draw_str(base_font, ((UI_DropItemDataObj_TypeDef *)(Obj->CurDrop_Item->data))->
 4721              		.loc 1 1315 16 is_stmt 0 view .LVU1345
 4722 0064 99F80000 		ldrb	r0, [r9]	@ zero_extendqisi2
 4723 0068 0AEB0002 		add	r2, r10, r0
 4724 006c 0232     		adds	r2, r2, #2
 4725              	.LVL444:
1316:Dsp/widget/wgt_core/UI_Controller.c **** 
 4726              		.loc 1 1316 5 is_stmt 1 view .LVU1346
1316:Dsp/widget/wgt_core/UI_Controller.c **** 
 4727              		.loc 1 1316 20 is_stmt 0 view .LVU1347
 4728 006e D8F80060 		ldr	r6, [r8]
1316:Dsp/widget/wgt_core/UI_Controller.c **** 
 4729              		.loc 1 1316 76 view .LVU1348
 4730 0072 D4F81130 		ldr	r3, [r4, #17]	@ unaligned
1316:Dsp/widget/wgt_core/UI_Controller.c **** 
 4731              		.loc 1 1316 90 view .LVU1349
 4732 0076 1B69     		ldr	r3, [r3, #16]
1316:Dsp/widget/wgt_core/UI_Controller.c **** 
 4733              		.loc 1 1316 5 view .LVU1350
 4734 0078 D3F80110 		ldr	r1, [r3, #1]	@ unaligned
 4735 007c 0095     		str	r5, [sp]
 4736 007e 3B46     		mov	r3, r7
 4737 0080 12B2     		sxth	r2, r2
1316:Dsp/widget/wgt_core/UI_Controller.c **** 
 4738              		.loc 1 1316 5 view .LVU1351
 4739 0082 B047     		blx	r6
 4740              	.LVL445:
1318:Dsp/widget/wgt_core/UI_Controller.c **** }
 4741              		.loc 1 1318 5 is_stmt 1 view .LVU1352
1318:Dsp/widget/wgt_core/UI_Controller.c **** }
 4742              		.loc 1 1318 12 is_stmt 0 view .LVU1353
 4743 0084 2846     		mov	r0, r5
 4744              	.LVL446:
 4745              	.L394:
1319:Dsp/widget/wgt_core/UI_Controller.c **** 
 4746              		.loc 1 1319 1 view .LVU1354
 4747 0086 02B0     		add	sp, sp, #8
 4748              	.LCFI86:
 4749              		.cfi_remember_state
 4750              		.cfi_def_cfa_offset 32
 4751              		@ sp needed
 4752 0088 BDE8F087 		pop	{r4, r5, r6, r7, r8, r9, r10, pc}
 4753              	.LVL447:
 4754              	.L398:
 4755              	.LCFI87:
 4756              		.cfi_restore_state
1294:Dsp/widget/wgt_core/UI_Controller.c ****         (UI_DspInterface.draw_dig == NULL))
ARM GAS  /var/folders/lx/hc4sn_b53233_zkc9xbbl97r0000gp/T//ccErXOZH.s 			page 124


 4757              		.loc 1 1294 25 discriminator 1 view .LVU1355
 4758 008c 074B     		ldr	r3, .L400+4
 4759 008e 1B68     		ldr	r3, [r3]
1293:Dsp/widget/wgt_core/UI_Controller.c ****         (UI_DspInterface.draw_str == NULL) &&
 4760              		.loc 1 1293 23 discriminator 1 view .LVU1356
 4761 0090 002B     		cmp	r3, #0
 4762 0092 BBD1     		bne	.L393
1295:Dsp/widget/wgt_core/UI_Controller.c ****         return false;
 4763              		.loc 1 1295 25 view .LVU1357
 4764 0094 054B     		ldr	r3, .L400+4
 4765 0096 5B68     		ldr	r3, [r3, #4]
1294:Dsp/widget/wgt_core/UI_Controller.c ****         (UI_DspInterface.draw_dig == NULL))
 4766              		.loc 1 1294 44 view .LVU1358
 4767 0098 002B     		cmp	r3, #0
 4768 009a B7D1     		bne	.L393
1296:Dsp/widget/wgt_core/UI_Controller.c **** 
 4769              		.loc 1 1296 16 view .LVU1359
 4770 009c 0020     		movs	r0, #0
 4771              	.LVL448:
1296:Dsp/widget/wgt_core/UI_Controller.c **** 
 4772              		.loc 1 1296 16 view .LVU1360
 4773 009e F2E7     		b	.L394
 4774              	.LVL449:
 4775              	.L399:
1302:Dsp/widget/wgt_core/UI_Controller.c **** 
 4776              		.loc 1 1302 9 is_stmt 1 view .LVU1361
1302:Dsp/widget/wgt_core/UI_Controller.c **** 
 4777              		.loc 1 1302 15 is_stmt 0 view .LVU1362
 4778 00a0 0133     		adds	r3, r3, #1
 4779              	.LVL450:
1302:Dsp/widget/wgt_core/UI_Controller.c **** 
 4780              		.loc 1 1302 15 view .LVU1363
 4781 00a2 1FB2     		sxth	r7, r3
 4782              	.LVL451:
1302:Dsp/widget/wgt_core/UI_Controller.c **** 
 4783              		.loc 1 1302 15 view .LVU1364
 4784 00a4 BCE7     		b	.L395
 4785              	.L401:
 4786 00a6 00BF     		.align	2
 4787              	.L400:
 4788 00a8 00000000 		.word	.LANCHOR2
 4789 00ac 00000000 		.word	.LANCHOR0
 4790              		.cfi_endproc
 4791              	.LFE48:
 4793              		.section	.text.UI_StrInput_Ctl,"ax",%progbits
 4794              		.align	1
 4795              		.syntax unified
 4796              		.thumb
 4797              		.thumb_func
 4798              		.fpu fpv4-sp-d16
 4800              	UI_StrInput_Ctl:
 4801              	.LVL452:
 4802              	.LFB69:
1692:Dsp/widget/wgt_core/UI_Controller.c ****     int16_t str_dsp_offset = 0;
 4803              		.loc 1 1692 1 is_stmt 1 view -0
 4804              		.cfi_startproc
 4805              		@ args = 0, pretend = 0, frame = 0
ARM GAS  /var/folders/lx/hc4sn_b53233_zkc9xbbl97r0000gp/T//ccErXOZH.s 			page 125


 4806              		@ frame_needed = 0, uses_anonymous_args = 0
1693:Dsp/widget/wgt_core/UI_Controller.c ****     int16_t str_x = 0;
 4807              		.loc 1 1693 5 view .LVU1366
1694:Dsp/widget/wgt_core/UI_Controller.c **** 
 4808              		.loc 1 1694 5 view .LVU1367
1696:Dsp/widget/wgt_core/UI_Controller.c ****         return false;
 4809              		.loc 1 1696 5 view .LVU1368
1696:Dsp/widget/wgt_core/UI_Controller.c ****         return false;
 4810              		.loc 1 1696 8 is_stmt 0 view .LVU1369
 4811 0000 60B3     		cbz	r0, .L404
1692:Dsp/widget/wgt_core/UI_Controller.c ****     int16_t str_dsp_offset = 0;
 4812              		.loc 1 1692 1 view .LVU1370
 4813 0002 2DE9F043 		push	{r4, r5, r6, r7, r8, r9, lr}
 4814              	.LCFI88:
 4815              		.cfi_def_cfa_offset 28
 4816              		.cfi_offset 4, -28
 4817              		.cfi_offset 5, -24
 4818              		.cfi_offset 6, -20
 4819              		.cfi_offset 7, -16
 4820              		.cfi_offset 8, -12
 4821              		.cfi_offset 9, -8
 4822              		.cfi_offset 14, -4
 4823 0006 83B0     		sub	sp, sp, #12
 4824              	.LCFI89:
 4825              		.cfi_def_cfa_offset 40
 4826 0008 0546     		mov	r5, r0
1699:Dsp/widget/wgt_core/UI_Controller.c **** 
 4827              		.loc 1 1699 5 is_stmt 1 view .LVU1371
1699:Dsp/widget/wgt_core/UI_Controller.c **** 
 4828              		.loc 1 1699 26 is_stmt 0 view .LVU1372
 4829 000a 8288     		ldrh	r2, [r0, #4]	@ unaligned
1699:Dsp/widget/wgt_core/UI_Controller.c **** 
 4830              		.loc 1 1699 29 view .LVU1373
 4831 000c 0332     		adds	r2, r2, #3
 4832 000e 1FFA82F9 		uxth	r9, r2
 4833              	.LVL453:
1701:Dsp/widget/wgt_core/UI_Controller.c **** 
 4834              		.loc 1 1701 5 is_stmt 1 view .LVU1374
1701:Dsp/widget/wgt_core/UI_Controller.c **** 
 4835              		.loc 1 1701 20 is_stmt 0 view .LVU1375
 4836 0012 DFF85080 		ldr	r8, .L409+4
 4837 0016 D8F80060 		ldr	r6, [r8]
1701:Dsp/widget/wgt_core/UI_Controller.c **** 
 4838              		.loc 1 1701 5 view .LVU1376
 4839 001a 114F     		ldr	r7, .L409
 4840 001c 0124     		movs	r4, #1
 4841 001e 0094     		str	r4, [sp]
 4842 0020 B0F90630 		ldrsh	r3, [r0, #6]	@ unaligned
 4843 0024 12B2     		sxth	r2, r2
1701:Dsp/widget/wgt_core/UI_Controller.c **** 
 4844              		.loc 1 1701 5 view .LVU1377
 4845 0026 0168     		ldr	r1, [r0]	@ unaligned
 4846 0028 3878     		ldrb	r0, [r7]	@ zero_extendqisi2
 4847              	.LVL454:
1701:Dsp/widget/wgt_core/UI_Controller.c **** 
 4848              		.loc 1 1701 5 view .LVU1378
 4849 002a B047     		blx	r6
ARM GAS  /var/folders/lx/hc4sn_b53233_zkc9xbbl97r0000gp/T//ccErXOZH.s 			page 126


 4850              	.LVL455:
1703:Dsp/widget/wgt_core/UI_Controller.c ****     UI_DspInterface.draw_str(base_font, Obj->str, str_x + str_dsp_offset, Obj->Gen_Data.y, true);
 4851              		.loc 1 1703 5 is_stmt 1 view .LVU1379
1703:Dsp/widget/wgt_core/UI_Controller.c ****     UI_DspInterface.draw_str(base_font, Obj->str, str_x + str_dsp_offset, Obj->Gen_Data.y, true);
 4852              		.loc 1 1703 52 is_stmt 0 view .LVU1380
 4853 002c 2E46     		mov	r6, r5
1703:Dsp/widget/wgt_core/UI_Controller.c ****     UI_DspInterface.draw_str(base_font, Obj->str, str_x + str_dsp_offset, Obj->Gen_Data.y, true);
 4854              		.loc 1 1703 32 view .LVU1381
 4855 002e 56F80C0B 		ldr	r0, [r6], #12	@ unaligned
 4856 0032 FFF7FEFF 		bl	strlen
 4857              	.LVL456:
1703:Dsp/widget/wgt_core/UI_Controller.c ****     UI_DspInterface.draw_str(base_font, Obj->str, str_x + str_dsp_offset, Obj->Gen_Data.y, true);
 4858              		.loc 1 1703 60 view .LVU1382
 4859 0036 00EB4002 		add	r2, r0, r0, lsl #1
 4860 003a A240     		lsls	r2, r2, r4
 4861 003c 0532     		adds	r2, r2, #5
 4862              	.LVL457:
1704:Dsp/widget/wgt_core/UI_Controller.c **** 
 4863              		.loc 1 1704 5 is_stmt 1 view .LVU1383
1704:Dsp/widget/wgt_core/UI_Controller.c **** 
 4864              		.loc 1 1704 20 is_stmt 0 view .LVU1384
 4865 003e D8F80080 		ldr	r8, [r8]
1704:Dsp/widget/wgt_core/UI_Controller.c **** 
 4866              		.loc 1 1704 57 view .LVU1385
 4867 0042 19FA82F2 		uxtah	r2, r9, r2
 4868              	.LVL458:
1704:Dsp/widget/wgt_core/UI_Controller.c **** 
 4869              		.loc 1 1704 5 view .LVU1386
 4870 0046 0094     		str	r4, [sp]
 4871 0048 B5F90630 		ldrsh	r3, [r5, #6]	@ unaligned
 4872 004c 12B2     		sxth	r2, r2
 4873 004e 3146     		mov	r1, r6
 4874 0050 3878     		ldrb	r0, [r7]	@ zero_extendqisi2
 4875              	.LVL459:
1704:Dsp/widget/wgt_core/UI_Controller.c **** 
 4876              		.loc 1 1704 5 view .LVU1387
 4877 0052 C047     		blx	r8
 4878              	.LVL460:
1706:Dsp/widget/wgt_core/UI_Controller.c **** }
 4879              		.loc 1 1706 5 is_stmt 1 view .LVU1388
1706:Dsp/widget/wgt_core/UI_Controller.c **** }
 4880              		.loc 1 1706 12 is_stmt 0 view .LVU1389
 4881 0054 2046     		mov	r0, r4
1707:Dsp/widget/wgt_core/UI_Controller.c **** 
 4882              		.loc 1 1707 1 view .LVU1390
 4883 0056 03B0     		add	sp, sp, #12
 4884              	.LCFI90:
 4885              		.cfi_def_cfa_offset 28
 4886              		@ sp needed
 4887 0058 BDE8F083 		pop	{r4, r5, r6, r7, r8, r9, pc}
 4888              	.LVL461:
 4889              	.L404:
 4890              	.LCFI91:
 4891              		.cfi_def_cfa_offset 0
 4892              		.cfi_restore 4
 4893              		.cfi_restore 5
 4894              		.cfi_restore 6
ARM GAS  /var/folders/lx/hc4sn_b53233_zkc9xbbl97r0000gp/T//ccErXOZH.s 			page 127


 4895              		.cfi_restore 7
 4896              		.cfi_restore 8
 4897              		.cfi_restore 9
 4898              		.cfi_restore 14
1697:Dsp/widget/wgt_core/UI_Controller.c **** 
 4899              		.loc 1 1697 16 view .LVU1391
 4900 005c 0020     		movs	r0, #0
 4901              	.LVL462:
1707:Dsp/widget/wgt_core/UI_Controller.c **** 
 4902              		.loc 1 1707 1 view .LVU1392
 4903 005e 7047     		bx	lr
 4904              	.L410:
 4905              		.align	2
 4906              	.L409:
 4907 0060 00000000 		.word	.LANCHOR2
 4908 0064 00000000 		.word	.LANCHOR0
 4909              		.cfi_endproc
 4910              	.LFE69:
 4912              		.section	.text.UI_StrInput_Select,"ax",%progbits
 4913              		.align	1
 4914              		.syntax unified
 4915              		.thumb
 4916              		.thumb_func
 4917              		.fpu fpv4-sp-d16
 4919              	UI_StrInput_Select:
 4920              	.LVL463:
 4921              	.LFB66:
1656:Dsp/widget/wgt_core/UI_Controller.c ****     if ((Obj == NULL) || (Obj->type == UI_StrCTLtype_Dsp))
 4922              		.loc 1 1656 1 is_stmt 1 view -0
 4923              		.cfi_startproc
 4924              		@ args = 0, pretend = 0, frame = 0
 4925              		@ frame_needed = 0, uses_anonymous_args = 0
1657:Dsp/widget/wgt_core/UI_Controller.c ****         return false;
 4926              		.loc 1 1657 5 view .LVU1394
1657:Dsp/widget/wgt_core/UI_Controller.c ****         return false;
 4927              		.loc 1 1657 8 is_stmt 0 view .LVU1395
 4928 0000 A8B1     		cbz	r0, .L414
1656:Dsp/widget/wgt_core/UI_Controller.c ****     if ((Obj == NULL) || (Obj->type == UI_StrCTLtype_Dsp))
 4929              		.loc 1 1656 1 discriminator 1 view .LVU1396
 4930 0002 70B5     		push	{r4, r5, r6, lr}
 4931              	.LCFI92:
 4932              		.cfi_def_cfa_offset 16
 4933              		.cfi_offset 4, -16
 4934              		.cfi_offset 5, -12
 4935              		.cfi_offset 6, -8
 4936              		.cfi_offset 14, -4
 4937 0004 0446     		mov	r4, r0
1657:Dsp/widget/wgt_core/UI_Controller.c ****         return false;
 4938              		.loc 1 1657 30 discriminator 1 view .LVU1397
 4939 0006 837F     		ldrb	r3, [r0, #30]	@ zero_extendqisi2
1657:Dsp/widget/wgt_core/UI_Controller.c ****         return false;
 4940              		.loc 1 1657 23 discriminator 1 view .LVU1398
 4941 0008 012B     		cmp	r3, #1
 4942 000a 12D0     		beq	.L415
1660:Dsp/widget/wgt_core/UI_Controller.c ****     if (!state)
 4943              		.loc 1 1660 5 is_stmt 1 view .LVU1399
1660:Dsp/widget/wgt_core/UI_Controller.c ****     if (!state)
ARM GAS  /var/folders/lx/hc4sn_b53233_zkc9xbbl97r0000gp/T//ccErXOZH.s 			page 128


 4944              		.loc 1 1660 19 is_stmt 0 view .LVU1400
 4945 000c 0177     		strb	r1, [r0, #28]
1661:Dsp/widget/wgt_core/UI_Controller.c ****     {
 4946              		.loc 1 1661 5 is_stmt 1 view .LVU1401
1661:Dsp/widget/wgt_core/UI_Controller.c ****     {
 4947              		.loc 1 1661 8 is_stmt 0 view .LVU1402
 4948 000e 51B9     		cbnz	r1, .L413
1663:Dsp/widget/wgt_core/UI_Controller.c ****             Obj->callback(Obj->str, strlen(Obj->str));
 4949              		.loc 1 1663 9 is_stmt 1 view .LVU1403
1663:Dsp/widget/wgt_core/UI_Controller.c ****             Obj->callback(Obj->str, strlen(Obj->str));
 4950              		.loc 1 1663 16 is_stmt 0 view .LVU1404
 4951 0010 D0F81F50 		ldr	r5, [r0, #31]	@ unaligned
1663:Dsp/widget/wgt_core/UI_Controller.c ****             Obj->callback(Obj->str, strlen(Obj->str));
 4952              		.loc 1 1663 12 view .LVU1405
 4953 0014 3DB1     		cbz	r5, .L413
1664:Dsp/widget/wgt_core/UI_Controller.c ****     }
 4954              		.loc 1 1664 13 is_stmt 1 view .LVU1406
1664:Dsp/widget/wgt_core/UI_Controller.c ****     }
 4955              		.loc 1 1664 30 is_stmt 0 view .LVU1407
 4956 0016 00F10C06 		add	r6, r0, #12
1664:Dsp/widget/wgt_core/UI_Controller.c ****     }
 4957              		.loc 1 1664 37 view .LVU1408
 4958 001a 3046     		mov	r0, r6
 4959              	.LVL464:
1664:Dsp/widget/wgt_core/UI_Controller.c ****     }
 4960              		.loc 1 1664 37 view .LVU1409
 4961 001c FFF7FEFF 		bl	strlen
 4962              	.LVL465:
1664:Dsp/widget/wgt_core/UI_Controller.c ****     }
 4963              		.loc 1 1664 13 view .LVU1410
 4964 0020 C1B2     		uxtb	r1, r0
 4965 0022 3046     		mov	r0, r6
 4966 0024 A847     		blx	r5
 4967              	.LVL466:
 4968              	.L413:
1667:Dsp/widget/wgt_core/UI_Controller.c **** 
 4969              		.loc 1 1667 5 is_stmt 1 view .LVU1411
1667:Dsp/widget/wgt_core/UI_Controller.c **** 
 4970              		.loc 1 1667 23 is_stmt 0 view .LVU1412
 4971 0026 0023     		movs	r3, #0
 4972 0028 6377     		strb	r3, [r4, #29]
1669:Dsp/widget/wgt_core/UI_Controller.c **** }
 4973              		.loc 1 1669 5 is_stmt 1 view .LVU1413
1669:Dsp/widget/wgt_core/UI_Controller.c **** }
 4974              		.loc 1 1669 12 is_stmt 0 view .LVU1414
 4975 002a 0120     		movs	r0, #1
 4976              	.L412:
1670:Dsp/widget/wgt_core/UI_Controller.c **** 
 4977              		.loc 1 1670 1 view .LVU1415
 4978 002c 70BD     		pop	{r4, r5, r6, pc}
 4979              	.LVL467:
 4980              	.L414:
 4981              	.LCFI93:
 4982              		.cfi_def_cfa_offset 0
 4983              		.cfi_restore 4
 4984              		.cfi_restore 5
 4985              		.cfi_restore 6
ARM GAS  /var/folders/lx/hc4sn_b53233_zkc9xbbl97r0000gp/T//ccErXOZH.s 			page 129


 4986              		.cfi_restore 14
1658:Dsp/widget/wgt_core/UI_Controller.c **** 
 4987              		.loc 1 1658 16 view .LVU1416
 4988 002e 0020     		movs	r0, #0
 4989              	.LVL468:
1670:Dsp/widget/wgt_core/UI_Controller.c **** 
 4990              		.loc 1 1670 1 view .LVU1417
 4991 0030 7047     		bx	lr
 4992              	.LVL469:
 4993              	.L415:
 4994              	.LCFI94:
 4995              		.cfi_def_cfa_offset 16
 4996              		.cfi_offset 4, -16
 4997              		.cfi_offset 5, -12
 4998              		.cfi_offset 6, -8
 4999              		.cfi_offset 14, -4
1658:Dsp/widget/wgt_core/UI_Controller.c **** 
 5000              		.loc 1 1658 16 view .LVU1418
 5001 0032 0020     		movs	r0, #0
 5002              	.LVL470:
1658:Dsp/widget/wgt_core/UI_Controller.c **** 
 5003              		.loc 1 1658 16 view .LVU1419
 5004 0034 FAE7     		b	.L412
 5005              		.cfi_endproc
 5006              	.LFE66:
 5008              		.section	.rodata.UI_Button_Ctl.str1.4,"aMS",%progbits,1
 5009              		.align	2
 5010              	.LC2:
 5011 0000 5B00     		.ascii	"[\000"
 5012 0002 0000     		.align	2
 5013              	.LC3:
 5014 0004 5D00     		.ascii	"]\000"
 5015              		.section	.text.UI_Button_Ctl,"ax",%progbits
 5016              		.align	1
 5017              		.syntax unified
 5018              		.thumb
 5019              		.thumb_func
 5020              		.fpu fpv4-sp-d16
 5022              	UI_Button_Ctl:
 5023              	.LVL471:
 5024              	.LFB18:
 576:Dsp/widget/wgt_core/UI_Controller.c ****     int8_t label_dsp_offset = 0;
 5025              		.loc 1 576 1 is_stmt 1 view -0
 5026              		.cfi_startproc
 5027              		@ args = 0, pretend = 0, frame = 64
 5028              		@ frame_needed = 0, uses_anonymous_args = 0
 576:Dsp/widget/wgt_core/UI_Controller.c ****     int8_t label_dsp_offset = 0;
 5029              		.loc 1 576 1 is_stmt 0 view .LVU1421
 5030 0000 70B5     		push	{r4, r5, r6, lr}
 5031              	.LCFI95:
 5032              		.cfi_def_cfa_offset 16
 5033              		.cfi_offset 4, -16
 5034              		.cfi_offset 5, -12
 5035              		.cfi_offset 6, -8
 5036              		.cfi_offset 14, -4
 5037 0002 94B0     		sub	sp, sp, #80
 5038              	.LCFI96:
ARM GAS  /var/folders/lx/hc4sn_b53233_zkc9xbbl97r0000gp/T//ccErXOZH.s 			page 130


 5039              		.cfi_def_cfa_offset 96
 5040 0004 0446     		mov	r4, r0
 577:Dsp/widget/wgt_core/UI_Controller.c ****     char pushlabel_buff[32];
 5041              		.loc 1 577 5 is_stmt 1 view .LVU1422
 5042              	.LVL472:
 578:Dsp/widget/wgt_core/UI_Controller.c ****     char releaselabel_buff[32];
 5043              		.loc 1 578 5 view .LVU1423
 579:Dsp/widget/wgt_core/UI_Controller.c **** 
 5044              		.loc 1 579 5 view .LVU1424
 581:Dsp/widget/wgt_core/UI_Controller.c ****     memset(pushlabel_buff, '\0', 32);
 5045              		.loc 1 581 5 view .LVU1425
 5046 0006 2025     		movs	r5, #32
 5047 0008 2A46     		mov	r2, r5
 5048 000a 0021     		movs	r1, #0
 5049 000c 04A8     		add	r0, sp, #16
 5050              	.LVL473:
 581:Dsp/widget/wgt_core/UI_Controller.c ****     memset(pushlabel_buff, '\0', 32);
 5051              		.loc 1 581 5 is_stmt 0 view .LVU1426
 5052 000e FFF7FEFF 		bl	memset
 5053              	.LVL474:
 582:Dsp/widget/wgt_core/UI_Controller.c **** 
 5054              		.loc 1 582 5 is_stmt 1 view .LVU1427
 5055 0012 2A46     		mov	r2, r5
 5056 0014 0021     		movs	r1, #0
 5057 0016 0CA8     		add	r0, sp, #48
 5058 0018 FFF7FEFF 		bl	memset
 5059              	.LVL475:
 584:Dsp/widget/wgt_core/UI_Controller.c ****         return false;
 5060              		.loc 1 584 5 view .LVU1428
 584:Dsp/widget/wgt_core/UI_Controller.c ****         return false;
 5061              		.loc 1 584 8 is_stmt 0 view .LVU1429
 5062 001c 002C     		cmp	r4, #0
 5063 001e 00F0E180 		beq	.L431
 587:Dsp/widget/wgt_core/UI_Controller.c ****     {
 5064              		.loc 1 587 5 is_stmt 1 view .LVU1430
 587:Dsp/widget/wgt_core/UI_Controller.c ****     {
 5065              		.loc 1 587 12 is_stmt 0 view .LVU1431
 5066 0022 A37B     		ldrb	r3, [r4, #14]	@ zero_extendqisi2
 587:Dsp/widget/wgt_core/UI_Controller.c ****     {
 5067              		.loc 1 587 8 view .LVU1432
 5068 0024 012B     		cmp	r3, #1
 5069 0026 19D0     		beq	.L439
 5070              	.L422:
 605:Dsp/widget/wgt_core/UI_Controller.c ****     {
 5071              		.loc 1 605 5 is_stmt 1 view .LVU1433
 605:Dsp/widget/wgt_core/UI_Controller.c ****     {
 5072              		.loc 1 605 25 is_stmt 0 view .LVU1434
 5073 0028 744B     		ldr	r3, .L447
 5074 002a 1B68     		ldr	r3, [r3]
 605:Dsp/widget/wgt_core/UI_Controller.c ****     {
 5075              		.loc 1 605 8 view .LVU1435
 5076 002c 002B     		cmp	r3, #0
 5077 002e 00F0DD80 		beq	.L433
 605:Dsp/widget/wgt_core/UI_Controller.c ****     {
 5078              		.loc 1 605 63 discriminator 1 view .LVU1436
 5079 0032 724B     		ldr	r3, .L447
 5080 0034 1D6B     		ldr	r5, [r3, #48]
ARM GAS  /var/folders/lx/hc4sn_b53233_zkc9xbbl97r0000gp/T//ccErXOZH.s 			page 131


 605:Dsp/widget/wgt_core/UI_Controller.c ****     {
 5081              		.loc 1 605 44 discriminator 1 view .LVU1437
 5082 0036 002D     		cmp	r5, #0
 5083 0038 00F0DB80 		beq	.L434
 605:Dsp/widget/wgt_core/UI_Controller.c ****     {
 5084              		.loc 1 605 114 discriminator 2 view .LVU1438
 5085 003c 5E69     		ldr	r6, [r3, #20]
 605:Dsp/widget/wgt_core/UI_Controller.c ****     {
 5086              		.loc 1 605 95 discriminator 2 view .LVU1439
 5087 003e 002E     		cmp	r6, #0
 5088 0040 00F0D980 		beq	.L435
 607:Dsp/widget/wgt_core/UI_Controller.c ****         {
 5089              		.loc 1 607 9 is_stmt 1 view .LVU1440
 607:Dsp/widget/wgt_core/UI_Controller.c ****         {
 5090              		.loc 1 607 16 is_stmt 0 view .LVU1441
 5091 0044 637B     		ldrb	r3, [r4, #13]	@ zero_extendqisi2
 607:Dsp/widget/wgt_core/UI_Controller.c ****         {
 5092              		.loc 1 607 12 view .LVU1442
 5093 0046 012B     		cmp	r3, #1
 5094 0048 1AD0     		beq	.L440
 633:Dsp/widget/wgt_core/UI_Controller.c ****             {
 5095              		.loc 1 633 13 is_stmt 1 view .LVU1443
 633:Dsp/widget/wgt_core/UI_Controller.c ****             {
 5096              		.loc 1 633 20 is_stmt 0 view .LVU1444
 5097 004a 94F82130 		ldrb	r3, [r4, #33]	@ zero_extendqisi2
 633:Dsp/widget/wgt_core/UI_Controller.c ****             {
 5098              		.loc 1 633 16 view .LVU1445
 5099 004e 002B     		cmp	r3, #0
 5100 0050 5BD0     		beq	.L441
 641:Dsp/widget/wgt_core/UI_Controller.c ****             {
 5101              		.loc 1 641 18 is_stmt 1 view .LVU1446
 641:Dsp/widget/wgt_core/UI_Controller.c ****             {
 5102              		.loc 1 641 21 is_stmt 0 view .LVU1447
 5103 0052 012B     		cmp	r3, #1
 5104 0054 00F09080 		beq	.L442
 654:Dsp/widget/wgt_core/UI_Controller.c **** 
 5105              		.loc 1 654 24 view .LVU1448
 5106 0058 0020     		movs	r0, #0
 5107 005a C8E0     		b	.L421
 5108              	.L439:
 589:Dsp/widget/wgt_core/UI_Controller.c ****         {
 5109              		.loc 1 589 9 is_stmt 1 view .LVU1449
 589:Dsp/widget/wgt_core/UI_Controller.c ****         {
 5110              		.loc 1 589 16 is_stmt 0 view .LVU1450
 5111 005c 637B     		ldrb	r3, [r4, #13]	@ zero_extendqisi2
 589:Dsp/widget/wgt_core/UI_Controller.c ****         {
 5112              		.loc 1 589 12 view .LVU1451
 5113 005e 012B     		cmp	r3, #1
 5114 0060 08D0     		beq	.L443
 594:Dsp/widget/wgt_core/UI_Controller.c ****         {
 5115              		.loc 1 594 14 is_stmt 1 view .LVU1452
 594:Dsp/widget/wgt_core/UI_Controller.c ****         {
 5116              		.loc 1 594 17 is_stmt 0 view .LVU1453
 5117 0062 002B     		cmp	r3, #0
 5118 0064 40F0C080 		bne	.L432
 596:Dsp/widget/wgt_core/UI_Controller.c ****                 Obj->release_callback();
 5119              		.loc 1 596 13 is_stmt 1 view .LVU1454
ARM GAS  /var/folders/lx/hc4sn_b53233_zkc9xbbl97r0000gp/T//ccErXOZH.s 			page 132


 596:Dsp/widget/wgt_core/UI_Controller.c ****                 Obj->release_callback();
 5120              		.loc 1 596 20 is_stmt 0 view .LVU1455
 5121 0068 D4F81330 		ldr	r3, [r4, #19]	@ unaligned
 596:Dsp/widget/wgt_core/UI_Controller.c ****                 Obj->release_callback();
 5122              		.loc 1 596 16 view .LVU1456
 5123 006c 002B     		cmp	r3, #0
 5124 006e DBD0     		beq	.L422
 597:Dsp/widget/wgt_core/UI_Controller.c ****         }
 5125              		.loc 1 597 17 is_stmt 1 view .LVU1457
 5126 0070 9847     		blx	r3
 5127              	.LVL476:
 5128 0072 D9E7     		b	.L422
 5129              	.L443:
 591:Dsp/widget/wgt_core/UI_Controller.c ****                 Obj->push_callback();
 5130              		.loc 1 591 13 view .LVU1458
 591:Dsp/widget/wgt_core/UI_Controller.c ****                 Obj->push_callback();
 5131              		.loc 1 591 20 is_stmt 0 view .LVU1459
 5132 0074 D4F80F30 		ldr	r3, [r4, #15]	@ unaligned
 591:Dsp/widget/wgt_core/UI_Controller.c ****                 Obj->push_callback();
 5133              		.loc 1 591 16 view .LVU1460
 5134 0078 002B     		cmp	r3, #0
 5135 007a D5D0     		beq	.L422
 592:Dsp/widget/wgt_core/UI_Controller.c ****         }
 5136              		.loc 1 592 17 is_stmt 1 view .LVU1461
 5137 007c 9847     		blx	r3
 5138              	.LVL477:
 5139 007e D3E7     		b	.L422
 5140              	.L440:
 609:Dsp/widget/wgt_core/UI_Controller.c ****             {
 5141              		.loc 1 609 13 view .LVU1462
 609:Dsp/widget/wgt_core/UI_Controller.c ****             {
 5142              		.loc 1 609 20 is_stmt 0 view .LVU1463
 5143 0080 94F82130 		ldrb	r3, [r4, #33]	@ zero_extendqisi2
 609:Dsp/widget/wgt_core/UI_Controller.c ****             {
 5144              		.loc 1 609 16 view .LVU1464
 5145 0084 1BB1     		cbz	r3, .L444
 616:Dsp/widget/wgt_core/UI_Controller.c ****             {
 5146              		.loc 1 616 18 is_stmt 1 view .LVU1465
 616:Dsp/widget/wgt_core/UI_Controller.c ****             {
 5147              		.loc 1 616 21 is_stmt 0 view .LVU1466
 5148 0086 012B     		cmp	r3, #1
 5149 0088 2AD0     		beq	.L445
 624:Dsp/widget/wgt_core/UI_Controller.c **** 
 5150              		.loc 1 624 24 view .LVU1467
 5151 008a 0020     		movs	r0, #0
 5152 008c AFE0     		b	.L421
 5153              	.L444:
 612:Dsp/widget/wgt_core/UI_Controller.c ****                 memcpy(pushlabel_buff, Obj->PushDown_Label, strlen(Obj->PushDown_Label));
 5154              		.loc 1 612 17 is_stmt 1 view .LVU1468
 5155 008e 0123     		movs	r3, #1
 5156 0090 0193     		str	r3, [sp, #4]
 5157 0092 0323     		movs	r3, #3
 5158 0094 0093     		str	r3, [sp]
 5159 0096 94F82030 		ldrb	r3, [r4, #32]	@ zero_extendqisi2
 5160 009a E27F     		ldrb	r2, [r4, #31]	@ zero_extendqisi2
 5161 009c B4F90610 		ldrsh	r1, [r4, #6]	@ unaligned
 5162 00a0 B4F90400 		ldrsh	r0, [r4, #4]	@ unaligned
ARM GAS  /var/folders/lx/hc4sn_b53233_zkc9xbbl97r0000gp/T//ccErXOZH.s 			page 133


 5163 00a4 A847     		blx	r5
 5164              	.LVL478:
 613:Dsp/widget/wgt_core/UI_Controller.c ****                 label_dsp_offset = 5;
 5165              		.loc 1 613 17 view .LVU1469
 613:Dsp/widget/wgt_core/UI_Controller.c ****                 label_dsp_offset = 5;
 5166              		.loc 1 613 43 is_stmt 0 view .LVU1470
 5167 00a6 D4F81750 		ldr	r5, [r4, #23]	@ unaligned
 613:Dsp/widget/wgt_core/UI_Controller.c ****                 label_dsp_offset = 5;
 5168              		.loc 1 613 17 view .LVU1471
 5169 00aa 2846     		mov	r0, r5
 5170 00ac FFF7FEFF 		bl	strlen
 5171              	.LVL479:
 5172 00b0 0246     		mov	r2, r0
 5173 00b2 2946     		mov	r1, r5
 5174 00b4 0CA8     		add	r0, sp, #48
 5175 00b6 FFF7FEFF 		bl	memcpy
 5176              	.LVL480:
 614:Dsp/widget/wgt_core/UI_Controller.c ****             }
 5177              		.loc 1 614 17 is_stmt 1 view .LVU1472
 614:Dsp/widget/wgt_core/UI_Controller.c ****             }
 5178              		.loc 1 614 34 is_stmt 0 view .LVU1473
 5179 00ba 0521     		movs	r1, #5
 5180              	.LVL481:
 5181              	.L426:
 627:Dsp/widget/wgt_core/UI_Controller.c ****                 UI_DspInterface.draw_str(base_font, pushlabel_buff, Obj->Gen_Data.x + label_dsp_off
 5182              		.loc 1 627 13 is_stmt 1 view .LVU1474
 627:Dsp/widget/wgt_core/UI_Controller.c ****                 UI_DspInterface.draw_str(base_font, pushlabel_buff, Obj->Gen_Data.x + label_dsp_off
 5183              		.loc 1 627 20 is_stmt 0 view .LVU1475
 5184 00bc D4F81730 		ldr	r3, [r4, #23]	@ unaligned
 627:Dsp/widget/wgt_core/UI_Controller.c ****                 UI_DspInterface.draw_str(base_font, pushlabel_buff, Obj->Gen_Data.x + label_dsp_off
 5185              		.loc 1 627 16 view .LVU1476
 5186 00c0 002B     		cmp	r3, #0
 5187 00c2 57D0     		beq	.L427
 628:Dsp/widget/wgt_core/UI_Controller.c ****             // UI_DspInterface.draw_str(base_font, Obj->PushDown_Label, Obj->Gen_Data.x + label_dsp
 5188              		.loc 1 628 17 is_stmt 1 view .LVU1477
 628:Dsp/widget/wgt_core/UI_Controller.c ****             // UI_DspInterface.draw_str(base_font, Obj->PushDown_Label, Obj->Gen_Data.x + label_dsp
 5189              		.loc 1 628 32 is_stmt 0 view .LVU1478
 5190 00c4 4D4B     		ldr	r3, .L447
 5191 00c6 1D68     		ldr	r5, [r3]
 628:Dsp/widget/wgt_core/UI_Controller.c ****             // UI_DspInterface.draw_str(base_font, Obj->PushDown_Label, Obj->Gen_Data.x + label_dsp
 5192              		.loc 1 628 82 view .LVU1479
 5193 00c8 A288     		ldrh	r2, [r4, #4]	@ unaligned
 628:Dsp/widget/wgt_core/UI_Controller.c ****             // UI_DspInterface.draw_str(base_font, Obj->PushDown_Label, Obj->Gen_Data.x + label_dsp
 5194              		.loc 1 628 85 view .LVU1480
 5195 00ca 0A44     		add	r2, r2, r1
 628:Dsp/widget/wgt_core/UI_Controller.c ****             // UI_DspInterface.draw_str(base_font, Obj->PushDown_Label, Obj->Gen_Data.x + label_dsp
 5196              		.loc 1 628 17 view .LVU1481
 5197 00cc 0123     		movs	r3, #1
 5198 00ce 0093     		str	r3, [sp]
 5199 00d0 B4F90630 		ldrsh	r3, [r4, #6]	@ unaligned
 5200 00d4 12B2     		sxth	r2, r2
 5201 00d6 0CA9     		add	r1, sp, #48
 5202              	.LVL482:
 628:Dsp/widget/wgt_core/UI_Controller.c ****             // UI_DspInterface.draw_str(base_font, Obj->PushDown_Label, Obj->Gen_Data.x + label_dsp
 5203              		.loc 1 628 17 view .LVU1482
 5204 00d8 4948     		ldr	r0, .L447+4
 5205 00da 0078     		ldrb	r0, [r0]	@ zero_extendqisi2
ARM GAS  /var/folders/lx/hc4sn_b53233_zkc9xbbl97r0000gp/T//ccErXOZH.s 			page 134


 5206 00dc A847     		blx	r5
 5207              	.LVL483:
 5208 00de 49E0     		b	.L427
 5209              	.LVL484:
 5210              	.L445:
 618:Dsp/widget/wgt_core/UI_Controller.c ****                 strcat(pushlabel_buff, Obj->PushDown_Label);
 5211              		.loc 1 618 17 is_stmt 1 view .LVU1483
 5212 00e0 0CA8     		add	r0, sp, #48
 5213 00e2 FFF7FEFF 		bl	strlen
 5214              	.LVL485:
 5215 00e6 474B     		ldr	r3, .L447+8
 5216 00e8 1B88     		ldrh	r3, [r3]	@ unaligned
 5217 00ea 0CAA     		add	r2, sp, #48
 5218 00ec 1352     		strh	r3, [r2, r0]	@ unaligned
 619:Dsp/widget/wgt_core/UI_Controller.c ****                 strcat(pushlabel_buff, "]");
 5219              		.loc 1 619 17 view .LVU1484
 5220 00ee D4F81710 		ldr	r1, [r4, #23]	@ unaligned
 5221 00f2 1046     		mov	r0, r2
 5222 00f4 FFF7FEFF 		bl	strcat
 5223              	.LVL486:
 620:Dsp/widget/wgt_core/UI_Controller.c ****                 label_dsp_offset = 0;
 5224              		.loc 1 620 17 view .LVU1485
 5225 00f8 0CA8     		add	r0, sp, #48
 5226 00fa FFF7FEFF 		bl	strlen
 5227              	.LVL487:
 5228 00fe 424B     		ldr	r3, .L447+12
 5229 0100 1B88     		ldrh	r3, [r3]	@ unaligned
 5230 0102 0CAA     		add	r2, sp, #48
 5231 0104 1352     		strh	r3, [r2, r0]	@ unaligned
 621:Dsp/widget/wgt_core/UI_Controller.c ****             }
 5232              		.loc 1 621 17 view .LVU1486
 621:Dsp/widget/wgt_core/UI_Controller.c ****             }
 5233              		.loc 1 621 34 is_stmt 0 view .LVU1487
 5234 0106 0021     		movs	r1, #0
 5235 0108 D8E7     		b	.L426
 5236              	.L441:
 636:Dsp/widget/wgt_core/UI_Controller.c ****                 memcpy(pushlabel_buff, Obj->PushDown_Label, strlen(Obj->PushDown_Label));
 5237              		.loc 1 636 17 is_stmt 1 view .LVU1488
 5238 010a 0123     		movs	r3, #1
 5239 010c 0293     		str	r3, [sp, #8]
 5240 010e 0193     		str	r3, [sp, #4]
 5241 0110 0323     		movs	r3, #3
 5242 0112 0093     		str	r3, [sp]
 5243 0114 94F82030 		ldrb	r3, [r4, #32]	@ zero_extendqisi2
 5244 0118 E27F     		ldrb	r2, [r4, #31]	@ zero_extendqisi2
 5245 011a B4F90610 		ldrsh	r1, [r4, #6]	@ unaligned
 5246 011e B4F90400 		ldrsh	r0, [r4, #4]	@ unaligned
 5247 0122 B047     		blx	r6
 5248              	.LVL488:
 637:Dsp/widget/wgt_core/UI_Controller.c ****                 memcpy(releaselabel_buff, Obj->Release_Label, strlen(Obj->Release_Label));
 5249              		.loc 1 637 17 view .LVU1489
 637:Dsp/widget/wgt_core/UI_Controller.c ****                 memcpy(releaselabel_buff, Obj->Release_Label, strlen(Obj->Release_Label));
 5250              		.loc 1 637 43 is_stmt 0 view .LVU1490
 5251 0124 D4F81750 		ldr	r5, [r4, #23]	@ unaligned
 637:Dsp/widget/wgt_core/UI_Controller.c ****                 memcpy(releaselabel_buff, Obj->Release_Label, strlen(Obj->Release_Label));
 5252              		.loc 1 637 17 view .LVU1491
 5253 0128 2846     		mov	r0, r5
ARM GAS  /var/folders/lx/hc4sn_b53233_zkc9xbbl97r0000gp/T//ccErXOZH.s 			page 135


 5254 012a FFF7FEFF 		bl	strlen
 5255              	.LVL489:
 5256 012e 0246     		mov	r2, r0
 5257 0130 2946     		mov	r1, r5
 5258 0132 0CA8     		add	r0, sp, #48
 5259 0134 FFF7FEFF 		bl	memcpy
 5260              	.LVL490:
 638:Dsp/widget/wgt_core/UI_Controller.c ****                 label_dsp_offset = 5;
 5261              		.loc 1 638 17 is_stmt 1 view .LVU1492
 638:Dsp/widget/wgt_core/UI_Controller.c ****                 label_dsp_offset = 5;
 5262              		.loc 1 638 46 is_stmt 0 view .LVU1493
 5263 0138 D4F81B50 		ldr	r5, [r4, #27]	@ unaligned
 638:Dsp/widget/wgt_core/UI_Controller.c ****                 label_dsp_offset = 5;
 5264              		.loc 1 638 17 view .LVU1494
 5265 013c 2846     		mov	r0, r5
 5266 013e FFF7FEFF 		bl	strlen
 5267              	.LVL491:
 5268 0142 0246     		mov	r2, r0
 5269 0144 2946     		mov	r1, r5
 5270 0146 04A8     		add	r0, sp, #16
 5271 0148 FFF7FEFF 		bl	memcpy
 5272              	.LVL492:
 639:Dsp/widget/wgt_core/UI_Controller.c ****             }
 5273              		.loc 1 639 17 is_stmt 1 view .LVU1495
 639:Dsp/widget/wgt_core/UI_Controller.c ****             }
 5274              		.loc 1 639 34 is_stmt 0 view .LVU1496
 5275 014c 0521     		movs	r1, #5
 5276              	.LVL493:
 5277              	.L429:
 656:Dsp/widget/wgt_core/UI_Controller.c ****             {
 5278              		.loc 1 656 13 is_stmt 1 view .LVU1497
 656:Dsp/widget/wgt_core/UI_Controller.c ****             {
 5279              		.loc 1 656 20 is_stmt 0 view .LVU1498
 5280 014e A37B     		ldrb	r3, [r4, #14]	@ zero_extendqisi2
 656:Dsp/widget/wgt_core/UI_Controller.c ****             {
 5281              		.loc 1 656 16 view .LVU1499
 5282 0150 012B     		cmp	r3, #1
 5283 0152 35D0     		beq	.L446
 665:Dsp/widget/wgt_core/UI_Controller.c ****                     // UI_DspInterface.draw_str(base_font, Obj->PushDown_Label, Obj->Gen_Data.x + l
 5284              		.loc 1 665 17 is_stmt 1 view .LVU1500
 665:Dsp/widget/wgt_core/UI_Controller.c ****                     // UI_DspInterface.draw_str(base_font, Obj->PushDown_Label, Obj->Gen_Data.x + l
 5285              		.loc 1 665 24 is_stmt 0 view .LVU1501
 5286 0154 D4F81730 		ldr	r3, [r4, #23]	@ unaligned
 665:Dsp/widget/wgt_core/UI_Controller.c ****                     // UI_DspInterface.draw_str(base_font, Obj->PushDown_Label, Obj->Gen_Data.x + l
 5287              		.loc 1 665 20 view .LVU1502
 5288 0158 63B1     		cbz	r3, .L427
 667:Dsp/widget/wgt_core/UI_Controller.c ****             }
 5289              		.loc 1 667 21 is_stmt 1 view .LVU1503
 667:Dsp/widget/wgt_core/UI_Controller.c ****             }
 5290              		.loc 1 667 36 is_stmt 0 view .LVU1504
 5291 015a 284B     		ldr	r3, .L447
 5292 015c 1D68     		ldr	r5, [r3]
 667:Dsp/widget/wgt_core/UI_Controller.c ****             }
 5293              		.loc 1 667 86 view .LVU1505
 5294 015e A288     		ldrh	r2, [r4, #4]	@ unaligned
 667:Dsp/widget/wgt_core/UI_Controller.c ****             }
 5295              		.loc 1 667 89 view .LVU1506
ARM GAS  /var/folders/lx/hc4sn_b53233_zkc9xbbl97r0000gp/T//ccErXOZH.s 			page 136


 5296 0160 0A44     		add	r2, r2, r1
 667:Dsp/widget/wgt_core/UI_Controller.c ****             }
 5297              		.loc 1 667 21 view .LVU1507
 5298 0162 0123     		movs	r3, #1
 5299 0164 0093     		str	r3, [sp]
 5300 0166 B4F90630 		ldrsh	r3, [r4, #6]	@ unaligned
 5301 016a 12B2     		sxth	r2, r2
 5302 016c 0CA9     		add	r1, sp, #48
 5303              	.LVL494:
 667:Dsp/widget/wgt_core/UI_Controller.c ****             }
 5304              		.loc 1 667 21 view .LVU1508
 5305 016e 2448     		ldr	r0, .L447+4
 5306 0170 0078     		ldrb	r0, [r0]	@ zero_extendqisi2
 5307 0172 A847     		blx	r5
 5308              	.LVL495:
 5309              	.L427:
 671:Dsp/widget/wgt_core/UI_Controller.c ****     }
 5310              		.loc 1 671 9 is_stmt 1 view .LVU1509
 671:Dsp/widget/wgt_core/UI_Controller.c ****     }
 5311              		.loc 1 671 16 is_stmt 0 view .LVU1510
 5312 0174 0120     		movs	r0, #1
 5313 0176 3AE0     		b	.L421
 5314              	.LVL496:
 5315              	.L442:
 643:Dsp/widget/wgt_core/UI_Controller.c ****                 strcat(pushlabel_buff, Obj->PushDown_Label);
 5316              		.loc 1 643 17 is_stmt 1 view .LVU1511
 5317 0178 0CA8     		add	r0, sp, #48
 5318 017a FFF7FEFF 		bl	strlen
 5319              	.LVL497:
 5320 017e 214B     		ldr	r3, .L447+8
 5321 0180 1E88     		ldrh	r6, [r3]	@ unaligned
 5322 0182 0CAB     		add	r3, sp, #48
 5323 0184 1E52     		strh	r6, [r3, r0]	@ unaligned
 644:Dsp/widget/wgt_core/UI_Controller.c ****                 strcat(pushlabel_buff, "]");
 5324              		.loc 1 644 17 view .LVU1512
 5325 0186 D4F81710 		ldr	r1, [r4, #23]	@ unaligned
 5326 018a 1846     		mov	r0, r3
 5327 018c FFF7FEFF 		bl	strcat
 5328              	.LVL498:
 645:Dsp/widget/wgt_core/UI_Controller.c **** 
 5329              		.loc 1 645 17 view .LVU1513
 5330 0190 0CA8     		add	r0, sp, #48
 5331 0192 FFF7FEFF 		bl	strlen
 5332              	.LVL499:
 5333 0196 1C4B     		ldr	r3, .L447+12
 5334 0198 1D88     		ldrh	r5, [r3]	@ unaligned
 5335 019a 0CAB     		add	r3, sp, #48
 5336 019c 1D52     		strh	r5, [r3, r0]	@ unaligned
 647:Dsp/widget/wgt_core/UI_Controller.c ****                 strcat(releaselabel_buff, Obj->Release_Label);
 5337              		.loc 1 647 17 view .LVU1514
 5338 019e 04A8     		add	r0, sp, #16
 5339 01a0 FFF7FEFF 		bl	strlen
 5340              	.LVL500:
 5341 01a4 04AB     		add	r3, sp, #16
 5342 01a6 1E52     		strh	r6, [r3, r0]	@ unaligned
 648:Dsp/widget/wgt_core/UI_Controller.c ****                 strcat(releaselabel_buff, "]");
 5343              		.loc 1 648 17 view .LVU1515
ARM GAS  /var/folders/lx/hc4sn_b53233_zkc9xbbl97r0000gp/T//ccErXOZH.s 			page 137


 5344 01a8 D4F81B10 		ldr	r1, [r4, #27]	@ unaligned
 5345 01ac 1846     		mov	r0, r3
 5346 01ae FFF7FEFF 		bl	strcat
 5347              	.LVL501:
 649:Dsp/widget/wgt_core/UI_Controller.c **** 
 5348              		.loc 1 649 17 view .LVU1516
 5349 01b2 04A8     		add	r0, sp, #16
 5350 01b4 FFF7FEFF 		bl	strlen
 5351              	.LVL502:
 5352 01b8 04AB     		add	r3, sp, #16
 5353 01ba 1D52     		strh	r5, [r3, r0]	@ unaligned
 651:Dsp/widget/wgt_core/UI_Controller.c ****             }
 5354              		.loc 1 651 17 view .LVU1517
 651:Dsp/widget/wgt_core/UI_Controller.c ****             }
 5355              		.loc 1 651 34 is_stmt 0 view .LVU1518
 5356 01bc 0021     		movs	r1, #0
 5357 01be C6E7     		b	.L429
 5358              	.LVL503:
 5359              	.L446:
 659:Dsp/widget/wgt_core/UI_Controller.c ****                     // UI_DspInterface.draw_str(base_font, Obj->Release_Label, Obj->Gen_Data.x + la
 5360              		.loc 1 659 17 is_stmt 1 view .LVU1519
 659:Dsp/widget/wgt_core/UI_Controller.c ****                     // UI_DspInterface.draw_str(base_font, Obj->Release_Label, Obj->Gen_Data.x + la
 5361              		.loc 1 659 24 is_stmt 0 view .LVU1520
 5362 01c0 D4F81B30 		ldr	r3, [r4, #27]	@ unaligned
 659:Dsp/widget/wgt_core/UI_Controller.c ****                     // UI_DspInterface.draw_str(base_font, Obj->Release_Label, Obj->Gen_Data.x + la
 5363              		.loc 1 659 20 view .LVU1521
 5364 01c4 002B     		cmp	r3, #0
 5365 01c6 D5D0     		beq	.L427
 661:Dsp/widget/wgt_core/UI_Controller.c ****             }
 5366              		.loc 1 661 21 is_stmt 1 view .LVU1522
 661:Dsp/widget/wgt_core/UI_Controller.c ****             }
 5367              		.loc 1 661 36 is_stmt 0 view .LVU1523
 5368 01c8 0C4B     		ldr	r3, .L447
 5369 01ca 1D68     		ldr	r5, [r3]
 661:Dsp/widget/wgt_core/UI_Controller.c ****             }
 5370              		.loc 1 661 89 view .LVU1524
 5371 01cc A288     		ldrh	r2, [r4, #4]	@ unaligned
 661:Dsp/widget/wgt_core/UI_Controller.c ****             }
 5372              		.loc 1 661 92 view .LVU1525
 5373 01ce 0A44     		add	r2, r2, r1
 661:Dsp/widget/wgt_core/UI_Controller.c ****             }
 5374              		.loc 1 661 21 view .LVU1526
 5375 01d0 0123     		movs	r3, #1
 5376 01d2 0093     		str	r3, [sp]
 5377 01d4 B4F90630 		ldrsh	r3, [r4, #6]	@ unaligned
 5378 01d8 12B2     		sxth	r2, r2
 5379 01da 04A9     		add	r1, sp, #16
 5380              	.LVL504:
 661:Dsp/widget/wgt_core/UI_Controller.c ****             }
 5381              		.loc 1 661 21 view .LVU1527
 5382 01dc 0848     		ldr	r0, .L447+4
 5383 01de 0078     		ldrb	r0, [r0]	@ zero_extendqisi2
 5384 01e0 A847     		blx	r5
 5385              	.LVL505:
 5386 01e2 C7E7     		b	.L427
 5387              	.LVL506:
 5388              	.L431:
ARM GAS  /var/folders/lx/hc4sn_b53233_zkc9xbbl97r0000gp/T//ccErXOZH.s 			page 138


 585:Dsp/widget/wgt_core/UI_Controller.c **** 
 5389              		.loc 1 585 16 view .LVU1528
 5390 01e4 0020     		movs	r0, #0
 5391 01e6 02E0     		b	.L421
 5392              	.L432:
 600:Dsp/widget/wgt_core/UI_Controller.c ****     }
 5393              		.loc 1 600 20 view .LVU1529
 5394 01e8 0020     		movs	r0, #0
 5395 01ea 00E0     		b	.L421
 5396              	.L433:
 674:Dsp/widget/wgt_core/UI_Controller.c **** }
 5397              		.loc 1 674 12 view .LVU1530
 5398 01ec 0020     		movs	r0, #0
 5399              	.LVL507:
 5400              	.L421:
 675:Dsp/widget/wgt_core/UI_Controller.c **** 
 5401              		.loc 1 675 1 view .LVU1531
 5402 01ee 14B0     		add	sp, sp, #80
 5403              	.LCFI97:
 5404              		.cfi_remember_state
 5405              		.cfi_def_cfa_offset 16
 5406              		@ sp needed
 5407 01f0 70BD     		pop	{r4, r5, r6, pc}
 5408              	.LVL508:
 5409              	.L434:
 5410              	.LCFI98:
 5411              		.cfi_restore_state
 674:Dsp/widget/wgt_core/UI_Controller.c **** }
 5412              		.loc 1 674 12 view .LVU1532
 5413 01f2 0020     		movs	r0, #0
 5414 01f4 FBE7     		b	.L421
 5415              	.L435:
 5416 01f6 0020     		movs	r0, #0
 5417 01f8 F9E7     		b	.L421
 5418              	.L448:
 5419 01fa 00BF     		.align	2
 5420              	.L447:
 5421 01fc 00000000 		.word	.LANCHOR0
 5422 0200 00000000 		.word	.LANCHOR2
 5423 0204 00000000 		.word	.LC2
 5424 0208 04000000 		.word	.LC3
 5425              		.cfi_endproc
 5426              	.LFE18:
 5428              		.section	.rodata.UI_ProcessBar_DspLoadBar.str1.4,"aMS",%progbits,1
 5429              		.align	2
 5430              	.LC4:
 5431 0000 4F6E2050 		.ascii	"On Process : %d%%\000"
 5431      726F6365 
 5431      7373203A 
 5431      20256425 
 5431      2500
 5432              		.section	.text.UI_ProcessBar_DspLoadBar,"ax",%progbits
 5433              		.align	1
 5434              		.syntax unified
 5435              		.thumb
 5436              		.thumb_func
 5437              		.fpu fpv4-sp-d16
ARM GAS  /var/folders/lx/hc4sn_b53233_zkc9xbbl97r0000gp/T//ccErXOZH.s 			page 139


 5439              	UI_ProcessBar_DspLoadBar:
 5440              	.LVL509:
 5441              	.LFB36:
 974:Dsp/widget/wgt_core/UI_Controller.c ****     uint8_t frame_radius = 0;
 5442              		.loc 1 974 1 is_stmt 1 view -0
 5443              		.cfi_startproc
 5444              		@ args = 0, pretend = 0, frame = 32
 5445              		@ frame_needed = 0, uses_anonymous_args = 0
 975:Dsp/widget/wgt_core/UI_Controller.c ****     int16_t Str_CoordX = 0;
 5446              		.loc 1 975 5 view .LVU1534
 976:Dsp/widget/wgt_core/UI_Controller.c ****     int16_t Str_CoordY = 0;
 5447              		.loc 1 976 5 view .LVU1535
 977:Dsp/widget/wgt_core/UI_Controller.c ****     float Pcnt_Val = 0;
 5448              		.loc 1 977 5 view .LVU1536
 978:Dsp/widget/wgt_core/UI_Controller.c ****     char dsp_str[20];
 5449              		.loc 1 978 5 view .LVU1537
 979:Dsp/widget/wgt_core/UI_Controller.c **** 
 5450              		.loc 1 979 5 view .LVU1538
 981:Dsp/widget/wgt_core/UI_Controller.c ****         return false;
 5451              		.loc 1 981 5 view .LVU1539
 981:Dsp/widget/wgt_core/UI_Controller.c ****         return false;
 5452              		.loc 1 981 8 is_stmt 0 view .LVU1540
 5453 0000 0028     		cmp	r0, #0
 5454 0002 77D0     		beq	.L451
 974:Dsp/widget/wgt_core/UI_Controller.c ****     uint8_t frame_radius = 0;
 5455              		.loc 1 974 1 view .LVU1541
 5456 0004 2DE9F04F 		push	{r4, r5, r6, r7, r8, r9, r10, fp, lr}
 5457              	.LCFI99:
 5458              		.cfi_def_cfa_offset 36
 5459              		.cfi_offset 4, -36
 5460              		.cfi_offset 5, -32
 5461              		.cfi_offset 6, -28
 5462              		.cfi_offset 7, -24
 5463              		.cfi_offset 8, -20
 5464              		.cfi_offset 9, -16
 5465              		.cfi_offset 10, -12
 5466              		.cfi_offset 11, -8
 5467              		.cfi_offset 14, -4
 5468 0008 2DED028B 		vpush.64	{d8}
 5469              	.LCFI100:
 5470              		.cfi_def_cfa_offset 44
 5471              		.cfi_offset 80, -44
 5472              		.cfi_offset 81, -40
 5473 000c 8DB0     		sub	sp, sp, #52
 5474              	.LCFI101:
 5475              		.cfi_def_cfa_offset 96
 5476 000e 0646     		mov	r6, r0
 984:Dsp/widget/wgt_core/UI_Controller.c **** 
 5477              		.loc 1 984 5 is_stmt 1 view .LVU1542
 5478 0010 0023     		movs	r3, #0
 5479 0012 0793     		str	r3, [sp, #28]
 5480 0014 0893     		str	r3, [sp, #32]
 5481 0016 0993     		str	r3, [sp, #36]
 5482 0018 0A93     		str	r3, [sp, #40]
 5483 001a 0B93     		str	r3, [sp, #44]
 986:Dsp/widget/wgt_core/UI_Controller.c ****     sprintf(dsp_str, "On Process : %d%%", (uint8_t)(Pcnt_Val * 100));
 5484              		.loc 1 986 5 view .LVU1543
ARM GAS  /var/folders/lx/hc4sn_b53233_zkc9xbbl97r0000gp/T//ccErXOZH.s 			page 140


 986:Dsp/widget/wgt_core/UI_Controller.c ****     sprintf(dsp_str, "On Process : %d%%", (uint8_t)(Pcnt_Val * 100));
 5485              		.loc 1 986 20 is_stmt 0 view .LVU1544
 5486 001c C369     		ldr	r3, [r0, #28]	@ unaligned
 5487 001e 07EE103A 		vmov	s14, r3	@ int
 986:Dsp/widget/wgt_core/UI_Controller.c ****     sprintf(dsp_str, "On Process : %d%%", (uint8_t)(Pcnt_Val * 100));
 5488              		.loc 1 986 30 view .LVU1545
 5489 0022 B8EEC77A 		vcvt.f32.s32	s14, s14
 986:Dsp/widget/wgt_core/UI_Controller.c ****     sprintf(dsp_str, "On Process : %d%%", (uint8_t)(Pcnt_Val * 100));
 5490              		.loc 1 986 42 view .LVU1546
 5491 0026 8369     		ldr	r3, [r0, #24]	@ unaligned
 5492 0028 07EE903A 		vmov	s15, r3	@ int
 986:Dsp/widget/wgt_core/UI_Controller.c ****     sprintf(dsp_str, "On Process : %d%%", (uint8_t)(Pcnt_Val * 100));
 5493              		.loc 1 986 32 view .LVU1547
 5494 002c F8EEE77A 		vcvt.f32.s32	s15, s15
 986:Dsp/widget/wgt_core/UI_Controller.c ****     sprintf(dsp_str, "On Process : %d%%", (uint8_t)(Pcnt_Val * 100));
 5495              		.loc 1 986 14 view .LVU1548
 5496 0030 87EE278A 		vdiv.f32	s16, s14, s15
 5497              	.LVL510:
 987:Dsp/widget/wgt_core/UI_Controller.c **** 
 5498              		.loc 1 987 5 is_stmt 1 view .LVU1549
 987:Dsp/widget/wgt_core/UI_Controller.c **** 
 5499              		.loc 1 987 62 is_stmt 0 view .LVU1550
 5500 0034 DFED307A 		vldr.32	s15, .L456
 5501 0038 68EE277A 		vmul.f32	s15, s16, s15
 987:Dsp/widget/wgt_core/UI_Controller.c **** 
 5502              		.loc 1 987 43 view .LVU1551
 5503 003c FCEEE77A 		vcvt.u32.f32	s15, s15
 5504 0040 CDED057A 		vstr.32	s15, [sp, #20]	@ int
 987:Dsp/widget/wgt_core/UI_Controller.c **** 
 5505              		.loc 1 987 5 view .LVU1552
 5506 0044 9DF81420 		ldrb	r2, [sp, #20]	@ zero_extendqisi2
 5507 0048 2C49     		ldr	r1, .L456+4
 5508 004a 07A8     		add	r0, sp, #28
 5509              	.LVL511:
 987:Dsp/widget/wgt_core/UI_Controller.c **** 
 5510              		.loc 1 987 5 view .LVU1553
 5511 004c FFF7FEFF 		bl	sprintf
 5512              	.LVL512:
 989:Dsp/widget/wgt_core/UI_Controller.c ****     Str_CoordY = Obj->Gen_Data.y - base_font - 2;
 5513              		.loc 1 989 5 is_stmt 1 view .LVU1554
 989:Dsp/widget/wgt_core/UI_Controller.c ****     Str_CoordY = Obj->Gen_Data.y - base_font - 2;
 5514              		.loc 1 989 31 is_stmt 0 view .LVU1555
 5515 0050 B6F904B0 		ldrsh	fp, [r6, #4]	@ unaligned
 5516 0054 0FFA8BFA 		sxth	r10, fp
 5517 0058 1FFA8BFB 		uxth	fp, fp
 989:Dsp/widget/wgt_core/UI_Controller.c ****     Str_CoordY = Obj->Gen_Data.y - base_font - 2;
 5518              		.loc 1 989 40 view .LVU1556
 5519 005c 96F82090 		ldrb	r9, [r6, #32]	@ zero_extendqisi2
 989:Dsp/widget/wgt_core/UI_Controller.c ****     Str_CoordY = Obj->Gen_Data.y - base_font - 2;
 5520              		.loc 1 989 51 view .LVU1557
 5521 0060 07A8     		add	r0, sp, #28
 5522 0062 FFF7FEFF 		bl	strlen
 5523              	.LVL513:
 989:Dsp/widget/wgt_core/UI_Controller.c ****     Str_CoordY = Obj->Gen_Data.y - base_font - 2;
 5524              		.loc 1 989 67 view .LVU1558
 5525 0066 00EB4000 		add	r0, r0, r0, lsl #1
 989:Dsp/widget/wgt_core/UI_Controller.c ****     Str_CoordY = Obj->Gen_Data.y - base_font - 2;
ARM GAS  /var/folders/lx/hc4sn_b53233_zkc9xbbl97r0000gp/T//ccErXOZH.s 			page 141


 5526              		.loc 1 989 48 view .LVU1559
 5527 006a A9EB4000 		sub	r0, r9, r0, lsl #1
 989:Dsp/widget/wgt_core/UI_Controller.c ****     Str_CoordY = Obj->Gen_Data.y - base_font - 2;
 5528              		.loc 1 989 34 view .LVU1560
 5529 006e 0BEB500B 		add	fp, fp, r0, lsr #1
 989:Dsp/widget/wgt_core/UI_Controller.c ****     Str_CoordY = Obj->Gen_Data.y - base_font - 2;
 5530              		.loc 1 989 16 view .LVU1561
 5531 0072 0FFA8BFB 		sxth	fp, fp
 5532              	.LVL514:
 990:Dsp/widget/wgt_core/UI_Controller.c **** 
 5533              		.loc 1 990 5 is_stmt 1 view .LVU1562
 990:Dsp/widget/wgt_core/UI_Controller.c **** 
 5534              		.loc 1 990 31 is_stmt 0 view .LVU1563
 5535 0076 B6F90610 		ldrsh	r1, [r6, #6]	@ unaligned
 5536 007a 8CB2     		uxth	r4, r1
 990:Dsp/widget/wgt_core/UI_Controller.c **** 
 5537              		.loc 1 990 34 view .LVU1564
 5538 007c DFF88480 		ldr	r8, .L456+12
 5539 0080 98F80030 		ldrb	r3, [r8]	@ zero_extendqisi2
 5540 0084 E41A     		subs	r4, r4, r3
 5541 0086 A4B2     		uxth	r4, r4
 990:Dsp/widget/wgt_core/UI_Controller.c **** 
 5542              		.loc 1 990 46 view .LVU1565
 5543 0088 023C     		subs	r4, r4, #2
 990:Dsp/widget/wgt_core/UI_Controller.c **** 
 5544              		.loc 1 990 16 view .LVU1566
 5545 008a 23B2     		sxth	r3, r4
 5546 008c 0593     		str	r3, [sp, #20]
 5547              	.LVL515:
 993:Dsp/widget/wgt_core/UI_Controller.c ****     UI_DspInterface.draw_str(base_font, dsp_str, Str_CoordX, Str_CoordY, true);
 5548              		.loc 1 993 5 is_stmt 1 view .LVU1567
 993:Dsp/widget/wgt_core/UI_Controller.c ****     UI_DspInterface.draw_str(base_font, dsp_str, Str_CoordX, Str_CoordY, true);
 5549              		.loc 1 993 20 is_stmt 0 view .LVU1568
 5550 008e 1C4F     		ldr	r7, .L456+8
 993:Dsp/widget/wgt_core/UI_Controller.c ****     UI_DspInterface.draw_str(base_font, dsp_str, Str_CoordX, Str_CoordY, true);
 5551              		.loc 1 993 5 view .LVU1569
 5552 0090 0125     		movs	r5, #1
 5553 0092 0295     		str	r5, [sp, #8]
 5554 0094 0195     		str	r5, [sp, #4]
 5555 0096 0223     		movs	r3, #2
 5556 0098 0093     		str	r3, [sp]
 5557 009a 0523     		movs	r3, #5
 5558 009c 4A46     		mov	r2, r9
 5559 009e 09B2     		sxth	r1, r1
 5560 00a0 5046     		mov	r0, r10
 5561 00a2 7C69     		ldr	r4, [r7, #20]
 5562 00a4 A047     		blx	r4
 5563              	.LVL516:
 994:Dsp/widget/wgt_core/UI_Controller.c ****     UI_DspInterface.draw_line_h(Obj->Gen_Data.x + 2, Obj->Gen_Data.y + 2, Pcnt_Val * (Obj->width - 
 5564              		.loc 1 994 5 is_stmt 1 view .LVU1570
 5565 00a6 0095     		str	r5, [sp]
 5566 00a8 059B     		ldr	r3, [sp, #20]
 5567 00aa 5A46     		mov	r2, fp
 5568 00ac 07A9     		add	r1, sp, #28
 5569 00ae 98F80000 		ldrb	r0, [r8]	@ zero_extendqisi2
 5570 00b2 3C68     		ldr	r4, [r7]
 5571 00b4 A047     		blx	r4
ARM GAS  /var/folders/lx/hc4sn_b53233_zkc9xbbl97r0000gp/T//ccErXOZH.s 			page 142


 5572              	.LVL517:
 995:Dsp/widget/wgt_core/UI_Controller.c **** 
 5573              		.loc 1 995 5 view .LVU1571
 995:Dsp/widget/wgt_core/UI_Controller.c **** 
 5574              		.loc 1 995 20 is_stmt 0 view .LVU1572
 5575 00b6 FC68     		ldr	r4, [r7, #12]
 995:Dsp/widget/wgt_core/UI_Controller.c **** 
 5576              		.loc 1 995 46 view .LVU1573
 5577 00b8 B088     		ldrh	r0, [r6, #4]	@ unaligned
 995:Dsp/widget/wgt_core/UI_Controller.c **** 
 5578              		.loc 1 995 49 view .LVU1574
 5579 00ba 0230     		adds	r0, r0, #2
 995:Dsp/widget/wgt_core/UI_Controller.c **** 
 5580              		.loc 1 995 67 view .LVU1575
 5581 00bc F188     		ldrh	r1, [r6, #6]	@ unaligned
 995:Dsp/widget/wgt_core/UI_Controller.c **** 
 5582              		.loc 1 995 70 view .LVU1576
 5583 00be 0231     		adds	r1, r1, #2
 995:Dsp/widget/wgt_core/UI_Controller.c **** 
 5584              		.loc 1 995 90 view .LVU1577
 5585 00c0 96F82030 		ldrb	r3, [r6, #32]	@ zero_extendqisi2
 995:Dsp/widget/wgt_core/UI_Controller.c **** 
 5586              		.loc 1 995 98 view .LVU1578
 5587 00c4 063B     		subs	r3, r3, #6
 5588 00c6 07EE903A 		vmov	s15, r3	@ int
 995:Dsp/widget/wgt_core/UI_Controller.c **** 
 5589              		.loc 1 995 84 view .LVU1579
 5590 00ca F8EEE77A 		vcvt.f32.s32	s15, s15
 5591 00ce 67EE887A 		vmul.f32	s15, s15, s16
 995:Dsp/widget/wgt_core/UI_Controller.c **** 
 5592              		.loc 1 995 5 view .LVU1580
 5593 00d2 FCEEE77A 		vcvt.u32.f32	s15, s15
 5594 00d6 CDED057A 		vstr.32	s15, [sp, #20]	@ int
 5595              	.LVL518:
 995:Dsp/widget/wgt_core/UI_Controller.c **** 
 5596              		.loc 1 995 5 view .LVU1581
 5597 00da 0095     		str	r5, [sp]
 5598 00dc 2B46     		mov	r3, r5
 5599 00de 9DF81420 		ldrb	r2, [sp, #20]	@ zero_extendqisi2
 5600 00e2 09B2     		sxth	r1, r1
 5601 00e4 00B2     		sxth	r0, r0
 5602 00e6 A047     		blx	r4
 5603              	.LVL519:
 997:Dsp/widget/wgt_core/UI_Controller.c **** }
 5604              		.loc 1 997 5 is_stmt 1 view .LVU1582
 997:Dsp/widget/wgt_core/UI_Controller.c **** }
 5605              		.loc 1 997 12 is_stmt 0 view .LVU1583
 5606 00e8 2846     		mov	r0, r5
 998:Dsp/widget/wgt_core/UI_Controller.c **** 
 5607              		.loc 1 998 1 view .LVU1584
 5608 00ea 0DB0     		add	sp, sp, #52
 5609              	.LCFI102:
 5610              		.cfi_def_cfa_offset 44
 5611              		@ sp needed
 5612 00ec BDEC028B 		vldm	sp!, {d8}
 5613              	.LCFI103:
 5614              		.cfi_restore 80
ARM GAS  /var/folders/lx/hc4sn_b53233_zkc9xbbl97r0000gp/T//ccErXOZH.s 			page 143


 5615              		.cfi_restore 81
 5616              		.cfi_def_cfa_offset 36
 5617              	.LVL520:
 998:Dsp/widget/wgt_core/UI_Controller.c **** 
 5618              		.loc 1 998 1 view .LVU1585
 5619 00f0 BDE8F08F 		pop	{r4, r5, r6, r7, r8, r9, r10, fp, pc}
 5620              	.LVL521:
 5621              	.L451:
 5622              	.LCFI104:
 5623              		.cfi_def_cfa_offset 0
 5624              		.cfi_restore 4
 5625              		.cfi_restore 5
 5626              		.cfi_restore 6
 5627              		.cfi_restore 7
 5628              		.cfi_restore 8
 5629              		.cfi_restore 9
 5630              		.cfi_restore 10
 5631              		.cfi_restore 11
 5632              		.cfi_restore 14
 982:Dsp/widget/wgt_core/UI_Controller.c **** 
 5633              		.loc 1 982 16 view .LVU1586
 5634 00f4 0020     		movs	r0, #0
 5635              	.LVL522:
 998:Dsp/widget/wgt_core/UI_Controller.c **** 
 5636              		.loc 1 998 1 view .LVU1587
 5637 00f6 7047     		bx	lr
 5638              	.L457:
 5639              		.align	2
 5640              	.L456:
 5641 00f8 0000C842 		.word	1120403456
 5642 00fc 00000000 		.word	.LC4
 5643 0100 00000000 		.word	.LANCHOR0
 5644 0104 00000000 		.word	.LANCHOR2
 5645              		.cfi_endproc
 5646              	.LFE36:
 5648              		.section	.text.UI_ProcessBar_Ctl,"ax",%progbits
 5649              		.align	1
 5650              		.syntax unified
 5651              		.thumb
 5652              		.thumb_func
 5653              		.fpu fpv4-sp-d16
 5655              	UI_ProcessBar_Ctl:
 5656              	.LVL523:
 5657              	.LFB40:
1136:Dsp/widget/wgt_core/UI_Controller.c ****     char dig_str[3];
 5658              		.loc 1 1136 1 is_stmt 1 view -0
 5659              		.cfi_startproc
 5660              		@ args = 0, pretend = 0, frame = 8
 5661              		@ frame_needed = 0, uses_anonymous_args = 0
1136:Dsp/widget/wgt_core/UI_Controller.c ****     char dig_str[3];
 5662              		.loc 1 1136 1 is_stmt 0 view .LVU1589
 5663 0000 00B5     		push	{lr}
 5664              	.LCFI105:
 5665              		.cfi_def_cfa_offset 4
 5666              		.cfi_offset 14, -4
 5667 0002 83B0     		sub	sp, sp, #12
 5668              	.LCFI106:
ARM GAS  /var/folders/lx/hc4sn_b53233_zkc9xbbl97r0000gp/T//ccErXOZH.s 			page 144


 5669              		.cfi_def_cfa_offset 16
1137:Dsp/widget/wgt_core/UI_Controller.c ****     memset(dig_str, NULL, 3);
 5670              		.loc 1 1137 5 is_stmt 1 view .LVU1590
1138:Dsp/widget/wgt_core/UI_Controller.c **** 
 5671              		.loc 1 1138 5 view .LVU1591
 5672 0004 0023     		movs	r3, #0
 5673 0006 ADF80430 		strh	r3, [sp, #4]	@ movhi
 5674 000a 8DF80630 		strb	r3, [sp, #6]
1140:Dsp/widget/wgt_core/UI_Controller.c ****         (UI_DspInterface.draw_str == NULL))
 5675              		.loc 1 1140 5 view .LVU1592
1140:Dsp/widget/wgt_core/UI_Controller.c ****         (UI_DspInterface.draw_str == NULL))
 5676              		.loc 1 1140 25 is_stmt 0 view .LVU1593
 5677 000e 0F4B     		ldr	r3, .L467
 5678 0010 5B69     		ldr	r3, [r3, #20]
1140:Dsp/widget/wgt_core/UI_Controller.c ****         (UI_DspInterface.draw_str == NULL))
 5679              		.loc 1 1140 8 view .LVU1594
 5680 0012 B3B1     		cbz	r3, .L462
1141:Dsp/widget/wgt_core/UI_Controller.c ****         return false;
 5681              		.loc 1 1141 25 discriminator 1 view .LVU1595
 5682 0014 0D4B     		ldr	r3, .L467
 5683 0016 1B68     		ldr	r3, [r3]
1140:Dsp/widget/wgt_core/UI_Controller.c ****         (UI_DspInterface.draw_str == NULL))
 5684              		.loc 1 1140 57 discriminator 1 view .LVU1596
 5685 0018 ABB1     		cbz	r3, .L463
1144:Dsp/widget/wgt_core/UI_Controller.c ****     {
 5686              		.loc 1 1144 5 is_stmt 1 view .LVU1597
1144:Dsp/widget/wgt_core/UI_Controller.c ****     {
 5687              		.loc 1 1144 16 is_stmt 0 view .LVU1598
 5688 001a 90F82330 		ldrb	r3, [r0, #35]	@ zero_extendqisi2
1144:Dsp/widget/wgt_core/UI_Controller.c ****     {
 5689              		.loc 1 1144 5 view .LVU1599
 5690 001e 012B     		cmp	r3, #1
 5691 0020 09D0     		beq	.L460
 5692 0022 022B     		cmp	r3, #2
 5693 0024 0AD0     		beq	.L461
 5694 0026 1BB1     		cbz	r3, .L466
 5695 0028 0020     		movs	r0, #0
 5696              	.LVL524:
 5697              	.L459:
1158:Dsp/widget/wgt_core/UI_Controller.c **** 
 5698              		.loc 1 1158 1 view .LVU1600
 5699 002a 03B0     		add	sp, sp, #12
 5700              	.LCFI107:
 5701              		.cfi_remember_state
 5702              		.cfi_def_cfa_offset 4
 5703              		@ sp needed
 5704 002c 5DF804FB 		ldr	pc, [sp], #4
 5705              	.LVL525:
 5706              	.L466:
 5707              	.LCFI108:
 5708              		.cfi_restore_state
1147:Dsp/widget/wgt_core/UI_Controller.c **** 
 5709              		.loc 1 1147 9 is_stmt 1 view .LVU1601
1147:Dsp/widget/wgt_core/UI_Controller.c **** 
 5710              		.loc 1 1147 16 is_stmt 0 view .LVU1602
 5711 0030 FFF7FEFF 		bl	UI_ProcessBar_DspLoadBar
 5712              	.LVL526:
ARM GAS  /var/folders/lx/hc4sn_b53233_zkc9xbbl97r0000gp/T//ccErXOZH.s 			page 145


1147:Dsp/widget/wgt_core/UI_Controller.c **** 
 5713              		.loc 1 1147 16 view .LVU1603
 5714 0034 F9E7     		b	.L459
 5715              	.LVL527:
 5716              	.L460:
1150:Dsp/widget/wgt_core/UI_Controller.c **** 
 5717              		.loc 1 1150 9 is_stmt 1 view .LVU1604
1150:Dsp/widget/wgt_core/UI_Controller.c **** 
 5718              		.loc 1 1150 16 is_stmt 0 view .LVU1605
 5719 0036 FFF7FEFF 		bl	UI_ProcessBar_DspDotBar
 5720              	.LVL528:
1150:Dsp/widget/wgt_core/UI_Controller.c **** 
 5721              		.loc 1 1150 16 view .LVU1606
 5722 003a F6E7     		b	.L459
 5723              	.LVL529:
 5724              	.L461:
1153:Dsp/widget/wgt_core/UI_Controller.c **** 
 5725              		.loc 1 1153 9 is_stmt 1 view .LVU1607
1153:Dsp/widget/wgt_core/UI_Controller.c **** 
 5726              		.loc 1 1153 16 is_stmt 0 view .LVU1608
 5727 003c FFF7FEFF 		bl	UI_ProcessBar_DspFrameBar
 5728              	.LVL530:
1153:Dsp/widget/wgt_core/UI_Controller.c **** 
 5729              		.loc 1 1153 16 view .LVU1609
 5730 0040 F3E7     		b	.L459
 5731              	.LVL531:
 5732              	.L462:
1142:Dsp/widget/wgt_core/UI_Controller.c **** 
 5733              		.loc 1 1142 16 view .LVU1610
 5734 0042 0020     		movs	r0, #0
 5735              	.LVL532:
1142:Dsp/widget/wgt_core/UI_Controller.c **** 
 5736              		.loc 1 1142 16 view .LVU1611
 5737 0044 F1E7     		b	.L459
 5738              	.LVL533:
 5739              	.L463:
1142:Dsp/widget/wgt_core/UI_Controller.c **** 
 5740              		.loc 1 1142 16 view .LVU1612
 5741 0046 0020     		movs	r0, #0
 5742              	.LVL534:
1142:Dsp/widget/wgt_core/UI_Controller.c **** 
 5743              		.loc 1 1142 16 view .LVU1613
 5744 0048 EFE7     		b	.L459
 5745              	.L468:
 5746 004a 00BF     		.align	2
 5747              	.L467:
 5748 004c 00000000 		.word	.LANCHOR0
 5749              		.cfi_endproc
 5750              	.LFE40:
 5752              		.section	.text.UI_Drop_CreateDropItem,"ax",%progbits
 5753              		.align	1
 5754              		.syntax unified
 5755              		.thumb
 5756              		.thumb_func
 5757              		.fpu fpv4-sp-d16
 5759              	UI_Drop_CreateDropItem:
 5760              	.LVL535:
ARM GAS  /var/folders/lx/hc4sn_b53233_zkc9xbbl97r0000gp/T//ccErXOZH.s 			page 146


 5761              	.LFB43:
1184:Dsp/widget/wgt_core/UI_Controller.c ****     item_obj *item_tmp = NULL;
 5762              		.loc 1 1184 1 is_stmt 1 view -0
 5763              		.cfi_startproc
 5764              		@ args = 4, pretend = 0, frame = 0
 5765              		@ frame_needed = 0, uses_anonymous_args = 0
1184:Dsp/widget/wgt_core/UI_Controller.c ****     item_obj *item_tmp = NULL;
 5766              		.loc 1 1184 1 is_stmt 0 view .LVU1615
 5767 0000 2DE9F843 		push	{r3, r4, r5, r6, r7, r8, r9, lr}
 5768              	.LCFI109:
 5769              		.cfi_def_cfa_offset 32
 5770              		.cfi_offset 3, -32
 5771              		.cfi_offset 4, -28
 5772              		.cfi_offset 5, -24
 5773              		.cfi_offset 6, -20
 5774              		.cfi_offset 7, -16
 5775              		.cfi_offset 8, -12
 5776              		.cfi_offset 9, -8
 5777              		.cfi_offset 14, -4
 5778 0004 0646     		mov	r6, r0
 5779 0006 0F46     		mov	r7, r1
 5780 0008 9046     		mov	r8, r2
 5781 000a 9946     		mov	r9, r3
1185:Dsp/widget/wgt_core/UI_Controller.c ****     UI_DropItemDataObj_TypeDef *itemdata_tmp = NULL;
 5782              		.loc 1 1185 5 is_stmt 1 view .LVU1616
 5783              	.LVL536:
1186:Dsp/widget/wgt_core/UI_Controller.c **** 
 5784              		.loc 1 1186 5 view .LVU1617
1188:Dsp/widget/wgt_core/UI_Controller.c ****     item_tmp = (item_obj *)MMU_Malloc(sizeof(item_obj));
 5785              		.loc 1 1188 5 view .LVU1618
1188:Dsp/widget/wgt_core/UI_Controller.c ****     item_tmp = (item_obj *)MMU_Malloc(sizeof(item_obj));
 5786              		.loc 1 1188 50 is_stmt 0 view .LVU1619
 5787 000c 0F20     		movs	r0, #15
 5788              	.LVL537:
1188:Dsp/widget/wgt_core/UI_Controller.c ****     item_tmp = (item_obj *)MMU_Malloc(sizeof(item_obj));
 5789              		.loc 1 1188 50 view .LVU1620
 5790 000e FFF7FEFF 		bl	MMU_Malloc
 5791              	.LVL538:
1188:Dsp/widget/wgt_core/UI_Controller.c ****     item_tmp = (item_obj *)MMU_Malloc(sizeof(item_obj));
 5792              		.loc 1 1188 50 view .LVU1621
 5793 0012 0446     		mov	r4, r0
 5794              	.LVL539:
1189:Dsp/widget/wgt_core/UI_Controller.c **** 
 5795              		.loc 1 1189 5 is_stmt 1 view .LVU1622
1189:Dsp/widget/wgt_core/UI_Controller.c **** 
 5796              		.loc 1 1189 28 is_stmt 0 view .LVU1623
 5797 0014 1420     		movs	r0, #20
 5798              	.LVL540:
1189:Dsp/widget/wgt_core/UI_Controller.c **** 
 5799              		.loc 1 1189 28 view .LVU1624
 5800 0016 FFF7FEFF 		bl	MMU_Malloc
 5801              	.LVL541:
1191:Dsp/widget/wgt_core/UI_Controller.c ****         return NULL;
 5802              		.loc 1 1191 5 is_stmt 1 view .LVU1625
1191:Dsp/widget/wgt_core/UI_Controller.c ****         return NULL;
 5803              		.loc 1 1191 8 is_stmt 0 view .LVU1626
 5804 001a 0546     		mov	r5, r0
ARM GAS  /var/folders/lx/hc4sn_b53233_zkc9xbbl97r0000gp/T//ccErXOZH.s 			page 147


 5805 001c 68B1     		cbz	r0, .L469
1191:Dsp/widget/wgt_core/UI_Controller.c ****         return NULL;
 5806              		.loc 1 1191 28 discriminator 1 view .LVU1627
 5807 001e 7CB1     		cbz	r4, .L471
1194:Dsp/widget/wgt_core/UI_Controller.c ****     itemdata_tmp->data = data;
 5808              		.loc 1 1194 5 is_stmt 1 view .LVU1628
1194:Dsp/widget/wgt_core/UI_Controller.c ****     itemdata_tmp->data = data;
 5809              		.loc 1 1194 28 is_stmt 0 view .LVU1629
 5810 0020 089B     		ldr	r3, [sp, #32]
 5811 0022 C4F80B30 		str	r3, [r4, #11]	@ unaligned
1195:Dsp/widget/wgt_core/UI_Controller.c ****     itemdata_tmp->describe = item_desc;
 5812              		.loc 1 1195 5 is_stmt 1 view .LVU1630
1195:Dsp/widget/wgt_core/UI_Controller.c ****     itemdata_tmp->describe = item_desc;
 5813              		.loc 1 1195 24 is_stmt 0 view .LVU1631
 5814 0026 C4F80580 		str	r8, [r4, #5]	@ unaligned
1196:Dsp/widget/wgt_core/UI_Controller.c ****     itemdata_tmp->id = id;
 5815              		.loc 1 1196 5 is_stmt 1 view .LVU1632
1196:Dsp/widget/wgt_core/UI_Controller.c ****     itemdata_tmp->id = id;
 5816              		.loc 1 1196 28 is_stmt 0 view .LVU1633
 5817 002a C4F80170 		str	r7, [r4, #1]	@ unaligned
1197:Dsp/widget/wgt_core/UI_Controller.c ****     itemdata_tmp->data_size = data_size;
 5818              		.loc 1 1197 5 is_stmt 1 view .LVU1634
1197:Dsp/widget/wgt_core/UI_Controller.c ****     itemdata_tmp->data_size = data_size;
 5819              		.loc 1 1197 22 is_stmt 0 view .LVU1635
 5820 002e 2670     		strb	r6, [r4]
1198:Dsp/widget/wgt_core/UI_Controller.c **** 
 5821              		.loc 1 1198 5 is_stmt 1 view .LVU1636
1198:Dsp/widget/wgt_core/UI_Controller.c **** 
 5822              		.loc 1 1198 29 is_stmt 0 view .LVU1637
 5823 0030 A4F80990 		strh	r9, [r4, #9]	@ unaligned
1200:Dsp/widget/wgt_core/UI_Controller.c **** 
 5824              		.loc 1 1200 5 is_stmt 1 view .LVU1638
 5825 0034 2146     		mov	r1, r4
 5826 0036 FFF7FEFF 		bl	List_ItemInit
 5827              	.LVL542:
1202:Dsp/widget/wgt_core/UI_Controller.c **** }
 5828              		.loc 1 1202 5 view .LVU1639
 5829              	.L469:
1203:Dsp/widget/wgt_core/UI_Controller.c **** 
 5830              		.loc 1 1203 1 is_stmt 0 view .LVU1640
 5831 003a 2846     		mov	r0, r5
 5832 003c BDE8F883 		pop	{r3, r4, r5, r6, r7, r8, r9, pc}
 5833              	.LVL543:
 5834              	.L471:
1192:Dsp/widget/wgt_core/UI_Controller.c **** 
 5835              		.loc 1 1192 16 view .LVU1641
 5836 0040 2546     		mov	r5, r4
 5837 0042 FAE7     		b	.L469
 5838              		.cfi_endproc
 5839              	.LFE43:
 5841              		.section	.text.UI_Drop_AddDropItem,"ax",%progbits
 5842              		.align	1
 5843              		.syntax unified
 5844              		.thumb
 5845              		.thumb_func
 5846              		.fpu fpv4-sp-d16
 5848              	UI_Drop_AddDropItem:
ARM GAS  /var/folders/lx/hc4sn_b53233_zkc9xbbl97r0000gp/T//ccErXOZH.s 			page 148


 5849              	.LVL544:
 5850              	.LFB44:
1206:Dsp/widget/wgt_core/UI_Controller.c ****     item_obj *item_temp = NULL;
 5851              		.loc 1 1206 1 is_stmt 1 view -0
 5852              		.cfi_startproc
 5853              		@ args = 4, pretend = 0, frame = 0
 5854              		@ frame_needed = 0, uses_anonymous_args = 0
1207:Dsp/widget/wgt_core/UI_Controller.c **** 
 5855              		.loc 1 1207 5 view .LVU1643
1209:Dsp/widget/wgt_core/UI_Controller.c ****         return false;
 5856              		.loc 1 1209 5 view .LVU1644
1209:Dsp/widget/wgt_core/UI_Controller.c ****         return false;
 5857              		.loc 1 1209 8 is_stmt 0 view .LVU1645
 5858 0000 F0B1     		cbz	r0, .L477
1206:Dsp/widget/wgt_core/UI_Controller.c ****     item_obj *item_temp = NULL;
 5859              		.loc 1 1206 1 view .LVU1646
 5860 0002 10B5     		push	{r4, lr}
 5861              	.LCFI110:
 5862              		.cfi_def_cfa_offset 8
 5863              		.cfi_offset 4, -8
 5864              		.cfi_offset 14, -4
 5865 0004 82B0     		sub	sp, sp, #8
 5866              	.LCFI111:
 5867              		.cfi_def_cfa_offset 16
 5868 0006 0446     		mov	r4, r0
1212:Dsp/widget/wgt_core/UI_Controller.c **** 
 5869              		.loc 1 1212 5 is_stmt 1 view .LVU1647
1212:Dsp/widget/wgt_core/UI_Controller.c **** 
 5870              		.loc 1 1212 17 is_stmt 0 view .LVU1648
 5871 0008 0498     		ldr	r0, [sp, #16]
 5872              	.LVL545:
1212:Dsp/widget/wgt_core/UI_Controller.c **** 
 5873              		.loc 1 1212 17 view .LVU1649
 5874 000a 0090     		str	r0, [sp]
 5875 000c 207B     		ldrb	r0, [r4, #12]	@ zero_extendqisi2
 5876 000e FFF7FEFF 		bl	UI_Drop_CreateDropItem
 5877              	.LVL546:
1214:Dsp/widget/wgt_core/UI_Controller.c ****         return false;
 5878              		.loc 1 1214 5 is_stmt 1 view .LVU1650
1214:Dsp/widget/wgt_core/UI_Controller.c ****         return false;
 5879              		.loc 1 1214 8 is_stmt 0 view .LVU1651
 5880 0012 0146     		mov	r1, r0
 5881 0014 B0B1     		cbz	r0, .L478
1217:Dsp/widget/wgt_core/UI_Controller.c ****     {
 5882              		.loc 1 1217 5 is_stmt 1 view .LVU1652
1217:Dsp/widget/wgt_core/UI_Controller.c ****     {
 5883              		.loc 1 1217 12 is_stmt 0 view .LVU1653
 5884 0016 D4F80D00 		ldr	r0, [r4, #13]	@ unaligned
 5885              	.LVL547:
1217:Dsp/widget/wgt_core/UI_Controller.c ****     {
 5886              		.loc 1 1217 8 view .LVU1654
 5887 001a 38B1     		cbz	r0, .L483
1224:Dsp/widget/wgt_core/UI_Controller.c **** 
 5888              		.loc 1 1224 9 is_stmt 1 view .LVU1655
 5889 001c FFF7FEFF 		bl	List_Insert_Item
 5890              	.LVL548:
 5891              	.L476:
ARM GAS  /var/folders/lx/hc4sn_b53233_zkc9xbbl97r0000gp/T//ccErXOZH.s 			page 149


1226:Dsp/widget/wgt_core/UI_Controller.c **** 
 5892              		.loc 1 1226 5 view .LVU1656
1226:Dsp/widget/wgt_core/UI_Controller.c **** 
 5893              		.loc 1 1226 8 is_stmt 0 view .LVU1657
 5894 0020 237B     		ldrb	r3, [r4, #12]	@ zero_extendqisi2
1226:Dsp/widget/wgt_core/UI_Controller.c **** 
 5895              		.loc 1 1226 18 view .LVU1658
 5896 0022 0133     		adds	r3, r3, #1
 5897 0024 2373     		strb	r3, [r4, #12]
1228:Dsp/widget/wgt_core/UI_Controller.c **** }
 5898              		.loc 1 1228 5 is_stmt 1 view .LVU1659
1228:Dsp/widget/wgt_core/UI_Controller.c **** }
 5899              		.loc 1 1228 12 is_stmt 0 view .LVU1660
 5900 0026 0120     		movs	r0, #1
 5901              	.L474:
1229:Dsp/widget/wgt_core/UI_Controller.c **** 
 5902              		.loc 1 1229 1 view .LVU1661
 5903 0028 02B0     		add	sp, sp, #8
 5904              	.LCFI112:
 5905              		.cfi_remember_state
 5906              		.cfi_def_cfa_offset 8
 5907              		@ sp needed
 5908 002a 10BD     		pop	{r4, pc}
 5909              	.LVL549:
 5910              	.L483:
 5911              	.LCFI113:
 5912              		.cfi_restore_state
1219:Dsp/widget/wgt_core/UI_Controller.c ****         Obj->CurDrop_Item = Obj->DropList;
 5913              		.loc 1 1219 9 is_stmt 1 view .LVU1662
1219:Dsp/widget/wgt_core/UI_Controller.c ****         Obj->CurDrop_Item = Obj->DropList;
 5914              		.loc 1 1219 23 is_stmt 0 view .LVU1663
 5915 002c C4F80D10 		str	r1, [r4, #13]	@ unaligned
1220:Dsp/widget/wgt_core/UI_Controller.c ****         List_Init(Obj->DropList, item_temp, by_order, NULL);
 5916              		.loc 1 1220 9 is_stmt 1 view .LVU1664
1220:Dsp/widget/wgt_core/UI_Controller.c ****         List_Init(Obj->DropList, item_temp, by_order, NULL);
 5917              		.loc 1 1220 27 is_stmt 0 view .LVU1665
 5918 0030 C4F81110 		str	r1, [r4, #17]	@ unaligned
1221:Dsp/widget/wgt_core/UI_Controller.c ****     }
 5919              		.loc 1 1221 9 is_stmt 1 view .LVU1666
 5920 0034 0023     		movs	r3, #0
 5921 0036 0122     		movs	r2, #1
 5922 0038 0846     		mov	r0, r1
 5923 003a FFF7FEFF 		bl	List_Init
 5924              	.LVL550:
1221:Dsp/widget/wgt_core/UI_Controller.c ****     }
 5925              		.loc 1 1221 9 is_stmt 0 view .LVU1667
 5926 003e EFE7     		b	.L476
 5927              	.LVL551:
 5928              	.L477:
 5929              	.LCFI114:
 5930              		.cfi_def_cfa_offset 0
 5931              		.cfi_restore 4
 5932              		.cfi_restore 14
1210:Dsp/widget/wgt_core/UI_Controller.c **** 
 5933              		.loc 1 1210 16 view .LVU1668
 5934 0040 0020     		movs	r0, #0
 5935              	.LVL552:
ARM GAS  /var/folders/lx/hc4sn_b53233_zkc9xbbl97r0000gp/T//ccErXOZH.s 			page 150


1229:Dsp/widget/wgt_core/UI_Controller.c **** 
 5936              		.loc 1 1229 1 view .LVU1669
 5937 0042 7047     		bx	lr
 5938              	.LVL553:
 5939              	.L478:
 5940              	.LCFI115:
 5941              		.cfi_def_cfa_offset 16
 5942              		.cfi_offset 4, -8
 5943              		.cfi_offset 14, -4
1215:Dsp/widget/wgt_core/UI_Controller.c **** 
 5944              		.loc 1 1215 16 view .LVU1670
 5945 0044 0020     		movs	r0, #0
 5946              	.LVL554:
1215:Dsp/widget/wgt_core/UI_Controller.c **** 
 5947              		.loc 1 1215 16 view .LVU1671
 5948 0046 EFE7     		b	.L474
 5949              		.cfi_endproc
 5950              	.LFE44:
 5952              		.global	__aeabi_dcmplt
 5953              		.section	.rodata.UI_DigInput_CTL.str1.4,"aMS",%progbits,1
 5954              		.align	2
 5955              	.LC5:
 5956 0000 2D00     		.ascii	"-\000"
 5957              		.global	__aeabi_i2d
 5958              		.global	__aeabi_d2iz
 5959              		.global	__aeabi_ui2d
 5960 0002 0000     		.align	2
 5961              	.LC6:
 5962 0004 2E00     		.ascii	".\000"
 5963              		.section	.text.UI_DigInput_CTL,"ax",%progbits
 5964              		.align	1
 5965              		.syntax unified
 5966              		.thumb
 5967              		.thumb_func
 5968              		.fpu fpv4-sp-d16
 5970              	UI_DigInput_CTL:
 5971              	.LVL555:
 5972              	.LFB62:
1561:Dsp/widget/wgt_core/UI_Controller.c ****     int16_t dig_dsp_offset = 0;
 5973              		.loc 1 1561 1 is_stmt 1 view -0
 5974              		.cfi_startproc
 5975              		@ args = 0, pretend = 0, frame = 0
 5976              		@ frame_needed = 0, uses_anonymous_args = 0
1562:Dsp/widget/wgt_core/UI_Controller.c ****     int16_t str_x = 0;
 5977              		.loc 1 1562 5 view .LVU1673
1563:Dsp/widget/wgt_core/UI_Controller.c ****     int32_t int_dsp_val = 0;
 5978              		.loc 1 1563 5 view .LVU1674
1564:Dsp/widget/wgt_core/UI_Controller.c ****     int32_t dou_dsp_val = 0.0;
 5979              		.loc 1 1564 5 view .LVU1675
1565:Dsp/widget/wgt_core/UI_Controller.c **** 
 5980              		.loc 1 1565 5 view .LVU1676
1567:Dsp/widget/wgt_core/UI_Controller.c ****         return false;
 5981              		.loc 1 1567 5 view .LVU1677
1567:Dsp/widget/wgt_core/UI_Controller.c ****         return false;
 5982              		.loc 1 1567 8 is_stmt 0 view .LVU1678
 5983 0000 0028     		cmp	r0, #0
 5984 0002 00F00381 		beq	.L497
ARM GAS  /var/folders/lx/hc4sn_b53233_zkc9xbbl97r0000gp/T//ccErXOZH.s 			page 151


1561:Dsp/widget/wgt_core/UI_Controller.c ****     int16_t dig_dsp_offset = 0;
 5985              		.loc 1 1561 1 view .LVU1679
 5986 0006 2DE9F047 		push	{r4, r5, r6, r7, r8, r9, r10, lr}
 5987              	.LCFI116:
 5988              		.cfi_def_cfa_offset 32
 5989              		.cfi_offset 4, -32
 5990              		.cfi_offset 5, -28
 5991              		.cfi_offset 6, -24
 5992              		.cfi_offset 7, -20
 5993              		.cfi_offset 8, -16
 5994              		.cfi_offset 9, -12
 5995              		.cfi_offset 10, -8
 5996              		.cfi_offset 14, -4
 5997 000a 2DED048B 		vpush.64	{d8, d9}
 5998              	.LCFI117:
 5999              		.cfi_def_cfa_offset 48
 6000              		.cfi_offset 80, -48
 6001              		.cfi_offset 81, -44
 6002              		.cfi_offset 82, -40
 6003              		.cfi_offset 83, -36
 6004 000e 82B0     		sub	sp, sp, #8
 6005              	.LCFI118:
 6006              		.cfi_def_cfa_offset 56
 6007 0010 0546     		mov	r5, r0
1570:Dsp/widget/wgt_core/UI_Controller.c **** 
 6008              		.loc 1 1570 5 is_stmt 1 view .LVU1680
1570:Dsp/widget/wgt_core/UI_Controller.c **** 
 6009              		.loc 1 1570 26 is_stmt 0 view .LVU1681
 6010 0012 8288     		ldrh	r2, [r0, #4]	@ unaligned
1570:Dsp/widget/wgt_core/UI_Controller.c **** 
 6011              		.loc 1 1570 29 view .LVU1682
 6012 0014 0332     		adds	r2, r2, #3
 6013 0016 96B2     		uxth	r6, r2
 6014              	.LVL556:
1572:Dsp/widget/wgt_core/UI_Controller.c ****     dig_dsp_offset = strlen(Obj->Gen_Data.label) * STR_DIS + 5;
 6015              		.loc 1 1572 5 is_stmt 1 view .LVU1683
1572:Dsp/widget/wgt_core/UI_Controller.c ****     dig_dsp_offset = strlen(Obj->Gen_Data.label) * STR_DIS + 5;
 6016              		.loc 1 1572 20 is_stmt 0 view .LVU1684
 6017 0018 7F4B     		ldr	r3, .L502+8
 6018 001a 1C68     		ldr	r4, [r3]
1572:Dsp/widget/wgt_core/UI_Controller.c ****     dig_dsp_offset = strlen(Obj->Gen_Data.label) * STR_DIS + 5;
 6019              		.loc 1 1572 5 view .LVU1685
 6020 001c 0123     		movs	r3, #1
 6021 001e 0093     		str	r3, [sp]
 6022 0020 B0F90630 		ldrsh	r3, [r0, #6]	@ unaligned
 6023 0024 12B2     		sxth	r2, r2
1572:Dsp/widget/wgt_core/UI_Controller.c ****     dig_dsp_offset = strlen(Obj->Gen_Data.label) * STR_DIS + 5;
 6024              		.loc 1 1572 5 view .LVU1686
 6025 0026 0168     		ldr	r1, [r0]	@ unaligned
 6026 0028 7C48     		ldr	r0, .L502+12
 6027              	.LVL557:
1572:Dsp/widget/wgt_core/UI_Controller.c ****     dig_dsp_offset = strlen(Obj->Gen_Data.label) * STR_DIS + 5;
 6028              		.loc 1 1572 5 view .LVU1687
 6029 002a 0078     		ldrb	r0, [r0]	@ zero_extendqisi2
 6030 002c A047     		blx	r4
 6031              	.LVL558:
1573:Dsp/widget/wgt_core/UI_Controller.c **** 
ARM GAS  /var/folders/lx/hc4sn_b53233_zkc9xbbl97r0000gp/T//ccErXOZH.s 			page 152


 6032              		.loc 1 1573 5 is_stmt 1 view .LVU1688
1573:Dsp/widget/wgt_core/UI_Controller.c **** 
 6033              		.loc 1 1573 22 is_stmt 0 view .LVU1689
 6034 002e 2868     		ldr	r0, [r5]	@ unaligned
 6035 0030 FFF7FEFF 		bl	strlen
 6036              	.LVL559:
1573:Dsp/widget/wgt_core/UI_Controller.c **** 
 6037              		.loc 1 1573 60 view .LVU1690
 6038 0034 00EB4000 		add	r0, r0, r0, lsl #1
 6039 0038 4700     		lsls	r7, r0, #1
 6040 003a BFB2     		uxth	r7, r7
 6041 003c 7C1D     		adds	r4, r7, #5
 6042 003e 1FFA84F8 		uxth	r8, r4
1573:Dsp/widget/wgt_core/UI_Controller.c **** 
 6043              		.loc 1 1573 20 view .LVU1691
 6044 0042 24B2     		sxth	r4, r4
 6045              	.LVL560:
1575:Dsp/widget/wgt_core/UI_Controller.c ****     {
 6046              		.loc 1 1575 5 is_stmt 1 view .LVU1692
1575:Dsp/widget/wgt_core/UI_Controller.c ****     {
 6047              		.loc 1 1575 28 is_stmt 0 view .LVU1693
 6048 0044 D5F81730 		ldr	r3, [r5, #23]	@ unaligned
1575:Dsp/widget/wgt_core/UI_Controller.c ****     {
 6049              		.loc 1 1575 8 view .LVU1694
 6050 0048 002B     		cmp	r3, #0
 6051 004a 08DB     		blt	.L486
1575:Dsp/widget/wgt_core/UI_Controller.c ****     {
 6052              		.loc 1 1575 63 discriminator 1 view .LVU1695
 6053 004c D5F82B00 		ldr	r0, [r5, #43]	@ unaligned
 6054 0050 D5F82F10 		ldr	r1, [r5, #47]	@ unaligned
1575:Dsp/widget/wgt_core/UI_Controller.c ****     {
 6055              		.loc 1 1575 41 discriminator 1 view .LVU1696
 6056 0054 0022     		movs	r2, #0
 6057 0056 0023     		movs	r3, #0
 6058 0058 FFF7FEFF 		bl	__aeabi_dcmplt
 6059              	.LVL561:
 6060 005c 78B1     		cbz	r0, .L487
 6061              	.L486:
1577:Dsp/widget/wgt_core/UI_Controller.c ****         dig_dsp_offset += STR_DIS;
 6062              		.loc 1 1577 9 is_stmt 1 view .LVU1697
1577:Dsp/widget/wgt_core/UI_Controller.c ****         dig_dsp_offset += STR_DIS;
 6063              		.loc 1 1577 24 is_stmt 0 view .LVU1698
 6064 005e 6E4B     		ldr	r3, .L502+8
 6065 0060 1C68     		ldr	r4, [r3]
 6066              	.LVL562:
1577:Dsp/widget/wgt_core/UI_Controller.c ****         dig_dsp_offset += STR_DIS;
 6067              		.loc 1 1577 56 view .LVU1699
 6068 0062 06EB0802 		add	r2, r6, r8
1577:Dsp/widget/wgt_core/UI_Controller.c ****         dig_dsp_offset += STR_DIS;
 6069              		.loc 1 1577 9 view .LVU1700
 6070 0066 0123     		movs	r3, #1
 6071 0068 0093     		str	r3, [sp]
 6072 006a B5F90630 		ldrsh	r3, [r5, #6]	@ unaligned
 6073 006e 12B2     		sxth	r2, r2
 6074 0070 6B49     		ldr	r1, .L502+16
 6075 0072 6A48     		ldr	r0, .L502+12
 6076 0074 0078     		ldrb	r0, [r0]	@ zero_extendqisi2
ARM GAS  /var/folders/lx/hc4sn_b53233_zkc9xbbl97r0000gp/T//ccErXOZH.s 			page 153


 6077 0076 A047     		blx	r4
 6078              	.LVL563:
1578:Dsp/widget/wgt_core/UI_Controller.c ****     }
 6079              		.loc 1 1578 9 is_stmt 1 view .LVU1701
1578:Dsp/widget/wgt_core/UI_Controller.c ****     }
 6080              		.loc 1 1578 24 is_stmt 0 view .LVU1702
 6081 0078 07F10B04 		add	r4, r7, #11
 6082 007c 24B2     		sxth	r4, r4
 6083              	.LVL564:
 6084              	.L487:
1581:Dsp/widget/wgt_core/UI_Controller.c ****     {
 6085              		.loc 1 1581 5 is_stmt 1 view .LVU1703
1581:Dsp/widget/wgt_core/UI_Controller.c ****     {
 6086              		.loc 1 1581 16 is_stmt 0 view .LVU1704
 6087 007e 2B7B     		ldrb	r3, [r5, #12]	@ zero_extendqisi2
1581:Dsp/widget/wgt_core/UI_Controller.c ****     {
 6088              		.loc 1 1581 5 view .LVU1705
 6089 0080 3BB1     		cbz	r3, .L489
1581:Dsp/widget/wgt_core/UI_Controller.c ****     {
 6090              		.loc 1 1581 5 view .LVU1706
 6091 0082 012B     		cmp	r3, #1
 6092 0084 4FD0     		beq	.L490
 6093 0086 0020     		movs	r0, #0
 6094              	.LVL565:
 6095              	.L485:
1620:Dsp/widget/wgt_core/UI_Controller.c **** 
 6096              		.loc 1 1620 1 view .LVU1707
 6097 0088 02B0     		add	sp, sp, #8
 6098              	.LCFI119:
 6099              		.cfi_remember_state
 6100              		.cfi_def_cfa_offset 48
 6101              		@ sp needed
 6102 008a BDEC048B 		vldm	sp!, {d8-d9}
 6103              	.LCFI120:
 6104              		.cfi_restore 82
 6105              		.cfi_restore 83
 6106              		.cfi_restore 80
 6107              		.cfi_restore 81
 6108              		.cfi_def_cfa_offset 32
 6109 008e BDE8F087 		pop	{r4, r5, r6, r7, r8, r9, r10, pc}
 6110              	.LVL566:
 6111              	.L489:
 6112              	.LCFI121:
 6113              		.cfi_restore_state
1584:Dsp/widget/wgt_core/UI_Controller.c **** 
 6114              		.loc 1 1584 9 is_stmt 1 view .LVU1708
1584:Dsp/widget/wgt_core/UI_Controller.c **** 
 6115              		.loc 1 1584 45 is_stmt 0 view .LVU1709
 6116 0092 D5F81780 		ldr	r8, [r5, #23]	@ unaligned
1584:Dsp/widget/wgt_core/UI_Controller.c **** 
 6117              		.loc 1 1584 21 view .LVU1710
 6118 0096 B8F1000F 		cmp	r8, #0
 6119 009a B8BF     		it	lt
 6120 009c C8F10008 		rsblt	r8, r8, #0
 6121              	.LVL567:
1586:Dsp/widget/wgt_core/UI_Controller.c ****         {
 6122              		.loc 1 1586 9 is_stmt 1 view .LVU1711
ARM GAS  /var/folders/lx/hc4sn_b53233_zkc9xbbl97r0000gp/T//ccErXOZH.s 			page 154


 6123              	.LBB5:
1586:Dsp/widget/wgt_core/UI_Controller.c ****         {
 6124              		.loc 1 1586 14 view .LVU1712
1586:Dsp/widget/wgt_core/UI_Controller.c ****         {
 6125              		.loc 1 1586 44 is_stmt 0 view .LVU1713
 6126 00a0 6F7D     		ldrb	r7, [r5, #21]	@ zero_extendqisi2
1586:Dsp/widget/wgt_core/UI_Controller.c ****         {
 6127              		.loc 1 1586 59 view .LVU1714
 6128 00a2 013F     		subs	r7, r7, #1
1586:Dsp/widget/wgt_core/UI_Controller.c ****         {
 6129              		.loc 1 1586 21 view .LVU1715
 6130 00a4 7FB2     		sxtb	r7, r7
 6131              	.LVL568:
1586:Dsp/widget/wgt_core/UI_Controller.c ****         {
 6132              		.loc 1 1586 9 view .LVU1716
 6133 00a6 3AE0     		b	.L491
 6134              	.L492:
1588:Dsp/widget/wgt_core/UI_Controller.c ****             int_dsp_val %= (int)pow(10, i);
 6135              		.loc 1 1588 13 is_stmt 1 discriminator 3 view .LVU1717
1588:Dsp/widget/wgt_core/UI_Controller.c ****             int_dsp_val %= (int)pow(10, i);
 6136              		.loc 1 1588 28 is_stmt 0 discriminator 3 view .LVU1718
 6137 00a8 5B4B     		ldr	r3, .L502+8
 6138 00aa D3F80490 		ldr	r9, [r3, #4]
1588:Dsp/widget/wgt_core/UI_Controller.c ****             int_dsp_val %= (int)pow(10, i);
 6139              		.loc 1 1588 13 discriminator 3 view .LVU1719
 6140 00ae 5B4B     		ldr	r3, .L502+12
 6141 00b0 93F800A0 		ldrb	r10, [r3]	@ zero_extendqisi2
1588:Dsp/widget/wgt_core/UI_Controller.c ****             int_dsp_val %= (int)pow(10, i);
 6142              		.loc 1 1588 68 discriminator 3 view .LVU1720
 6143 00b4 3846     		mov	r0, r7
 6144 00b6 FFF7FEFF 		bl	__aeabi_i2d
 6145              	.LVL569:
 6146 00ba 41EC180B 		vmov	d8, r0, r1
 6147 00be 9FED549B 		vldr.64	d9, .L502
 6148 00c2 41EC110B 		vmov	d1, r0, r1
 6149 00c6 B0EE490A 		vmov.f32	s0, s18
 6150 00ca F0EE690A 		vmov.f32	s1, s19
 6151 00ce FFF7FEFF 		bl	pow
 6152              	.LVL570:
 6153 00d2 51EC100B 		vmov	r0, r1, d0
1588:Dsp/widget/wgt_core/UI_Controller.c ****             int_dsp_val %= (int)pow(10, i);
 6154              		.loc 1 1588 63 discriminator 3 view .LVU1721
 6155 00d6 FFF7FEFF 		bl	__aeabi_d2iz
 6156              	.LVL571:
1588:Dsp/widget/wgt_core/UI_Controller.c ****             int_dsp_val %= (int)pow(10, i);
 6157              		.loc 1 1588 61 discriminator 3 view .LVU1722
 6158 00da 98FBF0F1 		sdiv	r1, r8, r0
1588:Dsp/widget/wgt_core/UI_Controller.c ****             int_dsp_val %= (int)pow(10, i);
 6159              		.loc 1 1588 86 discriminator 3 view .LVU1723
 6160 00de A4B2     		uxth	r4, r4
1588:Dsp/widget/wgt_core/UI_Controller.c ****             int_dsp_val %= (int)pow(10, i);
 6161              		.loc 1 1588 86 discriminator 3 view .LVU1724
 6162 00e0 3219     		adds	r2, r6, r4
1588:Dsp/widget/wgt_core/UI_Controller.c ****             int_dsp_val %= (int)pow(10, i);
 6163              		.loc 1 1588 13 discriminator 3 view .LVU1725
 6164 00e2 0123     		movs	r3, #1
 6165 00e4 0093     		str	r3, [sp]
ARM GAS  /var/folders/lx/hc4sn_b53233_zkc9xbbl97r0000gp/T//ccErXOZH.s 			page 155


 6166 00e6 B5F90630 		ldrsh	r3, [r5, #6]	@ unaligned
 6167 00ea 12B2     		sxth	r2, r2
 6168 00ec 09B2     		sxth	r1, r1
 6169 00ee 5046     		mov	r0, r10
 6170 00f0 C847     		blx	r9
 6171              	.LVL572:
1589:Dsp/widget/wgt_core/UI_Controller.c ****             dig_dsp_offset += STR_DIS;
 6172              		.loc 1 1589 13 is_stmt 1 discriminator 3 view .LVU1726
1589:Dsp/widget/wgt_core/UI_Controller.c ****             dig_dsp_offset += STR_DIS;
 6173              		.loc 1 1589 33 is_stmt 0 discriminator 3 view .LVU1727
 6174 00f2 B0EE481A 		vmov.f32	s2, s16
 6175 00f6 F0EE681A 		vmov.f32	s3, s17
 6176 00fa B0EE490A 		vmov.f32	s0, s18
 6177 00fe F0EE690A 		vmov.f32	s1, s19
 6178 0102 FFF7FEFF 		bl	pow
 6179              	.LVL573:
 6180 0106 51EC100B 		vmov	r0, r1, d0
1589:Dsp/widget/wgt_core/UI_Controller.c ****             dig_dsp_offset += STR_DIS;
 6181              		.loc 1 1589 28 discriminator 3 view .LVU1728
 6182 010a FFF7FEFF 		bl	__aeabi_d2iz
 6183              	.LVL574:
1589:Dsp/widget/wgt_core/UI_Controller.c ****             dig_dsp_offset += STR_DIS;
 6184              		.loc 1 1589 25 discriminator 3 view .LVU1729
 6185 010e 98FBF0F3 		sdiv	r3, r8, r0
 6186 0112 00FB1388 		mls	r8, r0, r3, r8
 6187              	.LVL575:
1590:Dsp/widget/wgt_core/UI_Controller.c ****         }
 6188              		.loc 1 1590 13 is_stmt 1 discriminator 3 view .LVU1730
1590:Dsp/widget/wgt_core/UI_Controller.c ****         }
 6189              		.loc 1 1590 28 is_stmt 0 discriminator 3 view .LVU1731
 6190 0116 0634     		adds	r4, r4, #6
 6191              	.LVL576:
1590:Dsp/widget/wgt_core/UI_Controller.c ****         }
 6192              		.loc 1 1590 28 discriminator 3 view .LVU1732
 6193 0118 24B2     		sxth	r4, r4
 6194              	.LVL577:
1586:Dsp/widget/wgt_core/UI_Controller.c ****         {
 6195              		.loc 1 1586 73 is_stmt 1 discriminator 3 view .LVU1733
1586:Dsp/widget/wgt_core/UI_Controller.c ****         {
 6196              		.loc 1 1586 74 is_stmt 0 discriminator 3 view .LVU1734
 6197 011a 013F     		subs	r7, r7, #1
 6198              	.LVL578:
1586:Dsp/widget/wgt_core/UI_Controller.c ****         {
 6199              		.loc 1 1586 74 discriminator 3 view .LVU1735
 6200 011c 7FB2     		sxtb	r7, r7
 6201              	.LVL579:
 6202              	.L491:
1586:Dsp/widget/wgt_core/UI_Controller.c ****         {
 6203              		.loc 1 1586 65 is_stmt 1 discriminator 1 view .LVU1736
1586:Dsp/widget/wgt_core/UI_Controller.c ****         {
 6204              		.loc 1 1586 9 is_stmt 0 discriminator 1 view .LVU1737
 6205 011e 002F     		cmp	r7, #0
 6206 0120 C2DA     		bge	.L492
1586:Dsp/widget/wgt_core/UI_Controller.c ****         {
 6207              		.loc 1 1586 9 discriminator 1 view .LVU1738
 6208              	.LBE5:
1619:Dsp/widget/wgt_core/UI_Controller.c **** }
ARM GAS  /var/folders/lx/hc4sn_b53233_zkc9xbbl97r0000gp/T//ccErXOZH.s 			page 156


 6209              		.loc 1 1619 12 view .LVU1739
 6210 0122 0120     		movs	r0, #1
 6211 0124 B0E7     		b	.L485
 6212              	.LVL580:
 6213              	.L490:
1596:Dsp/widget/wgt_core/UI_Controller.c ****         dou_dsp_val = abs(pow(10, Obj->InputData_Dou.effective_point_len) * Obj->InputData_Dou.Poin
 6214              		.loc 1 1596 9 is_stmt 1 view .LVU1740
1597:Dsp/widget/wgt_core/UI_Controller.c **** 
 6215              		.loc 1 1597 9 view .LVU1741
1597:Dsp/widget/wgt_core/UI_Controller.c **** 
 6216              		.loc 1 1597 27 is_stmt 0 view .LVU1742
 6217 0126 95F83600 		ldrb	r0, [r5, #54]	@ zero_extendqisi2
 6218 012a FFF7FEFF 		bl	__aeabi_ui2d
 6219              	.LVL581:
1597:Dsp/widget/wgt_core/UI_Controller.c **** 
 6220              		.loc 1 1597 27 view .LVU1743
 6221 012e 41EC110B 		vmov	d1, r0, r1
 6222 0132 9FED370B 		vldr.64	d0, .L502
 6223 0136 FFF7FEFF 		bl	pow
 6224              	.LVL582:
1599:Dsp/widget/wgt_core/UI_Controller.c ****         {
 6225              		.loc 1 1599 9 is_stmt 1 view .LVU1744
 6226              	.LBB6:
1599:Dsp/widget/wgt_core/UI_Controller.c ****         {
 6227              		.loc 1 1599 14 view .LVU1745
1599:Dsp/widget/wgt_core/UI_Controller.c ****         {
 6228              		.loc 1 1599 44 is_stmt 0 view .LVU1746
 6229 013a 95F83570 		ldrb	r7, [r5, #53]	@ zero_extendqisi2
1599:Dsp/widget/wgt_core/UI_Controller.c ****         {
 6230              		.loc 1 1599 63 view .LVU1747
 6231 013e 013F     		subs	r7, r7, #1
1599:Dsp/widget/wgt_core/UI_Controller.c ****         {
 6232              		.loc 1 1599 21 view .LVU1748
 6233 0140 7FB2     		sxtb	r7, r7
 6234              	.LVL583:
1599:Dsp/widget/wgt_core/UI_Controller.c ****         {
 6235              		.loc 1 1599 9 view .LVU1749
 6236 0142 24E0     		b	.L493
 6237              	.L494:
1601:Dsp/widget/wgt_core/UI_Controller.c ****             dig_dsp_offset += STR_DIS;
 6238              		.loc 1 1601 13 is_stmt 1 discriminator 3 view .LVU1750
1601:Dsp/widget/wgt_core/UI_Controller.c ****             dig_dsp_offset += STR_DIS;
 6239              		.loc 1 1601 28 is_stmt 0 discriminator 3 view .LVU1751
 6240 0144 344B     		ldr	r3, .L502+8
 6241 0146 D3F80480 		ldr	r8, [r3, #4]
1601:Dsp/widget/wgt_core/UI_Controller.c ****             dig_dsp_offset += STR_DIS;
 6242              		.loc 1 1601 13 discriminator 3 view .LVU1752
 6243 014a 344B     		ldr	r3, .L502+12
 6244 014c 93F80090 		ldrb	r9, [r3]	@ zero_extendqisi2
1601:Dsp/widget/wgt_core/UI_Controller.c ****             dig_dsp_offset += STR_DIS;
 6245              		.loc 1 1601 67 discriminator 3 view .LVU1753
 6246 0150 D5F817A0 		ldr	r10, [r5, #23]	@ unaligned
1601:Dsp/widget/wgt_core/UI_Controller.c ****             dig_dsp_offset += STR_DIS;
 6247              		.loc 1 1601 82 discriminator 3 view .LVU1754
 6248 0154 3846     		mov	r0, r7
 6249 0156 FFF7FEFF 		bl	__aeabi_i2d
 6250              	.LVL584:
ARM GAS  /var/folders/lx/hc4sn_b53233_zkc9xbbl97r0000gp/T//ccErXOZH.s 			page 157


 6251 015a 41EC110B 		vmov	d1, r0, r1
 6252 015e 9FED2C0B 		vldr.64	d0, .L502
 6253 0162 FFF7FEFF 		bl	pow
 6254              	.LVL585:
 6255 0166 51EC100B 		vmov	r0, r1, d0
1601:Dsp/widget/wgt_core/UI_Controller.c ****             dig_dsp_offset += STR_DIS;
 6256              		.loc 1 1601 77 discriminator 3 view .LVU1755
 6257 016a FFF7FEFF 		bl	__aeabi_d2iz
 6258              	.LVL586:
1601:Dsp/widget/wgt_core/UI_Controller.c ****             dig_dsp_offset += STR_DIS;
 6259              		.loc 1 1601 75 discriminator 3 view .LVU1756
 6260 016e 9AFBF0F1 		sdiv	r1, r10, r0
1601:Dsp/widget/wgt_core/UI_Controller.c ****             dig_dsp_offset += STR_DIS;
 6261              		.loc 1 1601 100 discriminator 3 view .LVU1757
 6262 0172 A4B2     		uxth	r4, r4
1601:Dsp/widget/wgt_core/UI_Controller.c ****             dig_dsp_offset += STR_DIS;
 6263              		.loc 1 1601 100 discriminator 3 view .LVU1758
 6264 0174 3219     		adds	r2, r6, r4
1601:Dsp/widget/wgt_core/UI_Controller.c ****             dig_dsp_offset += STR_DIS;
 6265              		.loc 1 1601 13 discriminator 3 view .LVU1759
 6266 0176 0123     		movs	r3, #1
 6267 0178 0093     		str	r3, [sp]
 6268 017a B5F90630 		ldrsh	r3, [r5, #6]	@ unaligned
 6269 017e 12B2     		sxth	r2, r2
 6270 0180 09B2     		sxth	r1, r1
 6271 0182 4846     		mov	r0, r9
 6272 0184 C047     		blx	r8
 6273              	.LVL587:
1602:Dsp/widget/wgt_core/UI_Controller.c ****         }
 6274              		.loc 1 1602 13 is_stmt 1 discriminator 3 view .LVU1760
1602:Dsp/widget/wgt_core/UI_Controller.c ****         }
 6275              		.loc 1 1602 28 is_stmt 0 discriminator 3 view .LVU1761
 6276 0186 0634     		adds	r4, r4, #6
 6277              	.LVL588:
1602:Dsp/widget/wgt_core/UI_Controller.c ****         }
 6278              		.loc 1 1602 28 discriminator 3 view .LVU1762
 6279 0188 24B2     		sxth	r4, r4
 6280              	.LVL589:
1599:Dsp/widget/wgt_core/UI_Controller.c ****         {
 6281              		.loc 1 1599 77 is_stmt 1 discriminator 3 view .LVU1763
1599:Dsp/widget/wgt_core/UI_Controller.c ****         {
 6282              		.loc 1 1599 78 is_stmt 0 discriminator 3 view .LVU1764
 6283 018a 013F     		subs	r7, r7, #1
 6284              	.LVL590:
1599:Dsp/widget/wgt_core/UI_Controller.c ****         {
 6285              		.loc 1 1599 78 discriminator 3 view .LVU1765
 6286 018c 7FB2     		sxtb	r7, r7
 6287              	.LVL591:
 6288              	.L493:
1599:Dsp/widget/wgt_core/UI_Controller.c ****         {
 6289              		.loc 1 1599 69 is_stmt 1 discriminator 1 view .LVU1766
1599:Dsp/widget/wgt_core/UI_Controller.c ****         {
 6290              		.loc 1 1599 9 is_stmt 0 discriminator 1 view .LVU1767
 6291 018e 002F     		cmp	r7, #0
 6292 0190 D8DA     		bge	.L494
1599:Dsp/widget/wgt_core/UI_Controller.c ****         {
 6293              		.loc 1 1599 9 discriminator 1 view .LVU1768
ARM GAS  /var/folders/lx/hc4sn_b53233_zkc9xbbl97r0000gp/T//ccErXOZH.s 			page 158


 6294              	.LBE6:
1605:Dsp/widget/wgt_core/UI_Controller.c ****         dig_dsp_offset += STR_DIS;
 6295              		.loc 1 1605 9 is_stmt 1 view .LVU1769
1605:Dsp/widget/wgt_core/UI_Controller.c ****         dig_dsp_offset += STR_DIS;
 6296              		.loc 1 1605 24 is_stmt 0 view .LVU1770
 6297 0192 214B     		ldr	r3, .L502+8
 6298 0194 1F68     		ldr	r7, [r3]
 6299              	.LVL592:
1605:Dsp/widget/wgt_core/UI_Controller.c ****         dig_dsp_offset += STR_DIS;
 6300              		.loc 1 1605 56 view .LVU1771
 6301 0196 A4B2     		uxth	r4, r4
1605:Dsp/widget/wgt_core/UI_Controller.c ****         dig_dsp_offset += STR_DIS;
 6302              		.loc 1 1605 56 view .LVU1772
 6303 0198 3219     		adds	r2, r6, r4
1605:Dsp/widget/wgt_core/UI_Controller.c ****         dig_dsp_offset += STR_DIS;
 6304              		.loc 1 1605 9 view .LVU1773
 6305 019a 0123     		movs	r3, #1
 6306 019c 0093     		str	r3, [sp]
 6307 019e B5F90630 		ldrsh	r3, [r5, #6]	@ unaligned
 6308 01a2 12B2     		sxth	r2, r2
 6309 01a4 1F49     		ldr	r1, .L502+20
 6310 01a6 1D48     		ldr	r0, .L502+12
 6311 01a8 0078     		ldrb	r0, [r0]	@ zero_extendqisi2
 6312 01aa B847     		blx	r7
 6313              	.LVL593:
1606:Dsp/widget/wgt_core/UI_Controller.c **** 
 6314              		.loc 1 1606 9 is_stmt 1 view .LVU1774
1606:Dsp/widget/wgt_core/UI_Controller.c **** 
 6315              		.loc 1 1606 24 is_stmt 0 view .LVU1775
 6316 01ac 0634     		adds	r4, r4, #6
 6317              	.LVL594:
1606:Dsp/widget/wgt_core/UI_Controller.c **** 
 6318              		.loc 1 1606 24 view .LVU1776
 6319 01ae 24B2     		sxth	r4, r4
 6320              	.LVL595:
1608:Dsp/widget/wgt_core/UI_Controller.c ****         {
 6321              		.loc 1 1608 9 is_stmt 1 view .LVU1777
 6322              	.LBB7:
1608:Dsp/widget/wgt_core/UI_Controller.c ****         {
 6323              		.loc 1 1608 14 view .LVU1778
1608:Dsp/widget/wgt_core/UI_Controller.c ****         {
 6324              		.loc 1 1608 45 is_stmt 0 view .LVU1779
 6325 01b0 95F83670 		ldrb	r7, [r5, #54]	@ zero_extendqisi2
1608:Dsp/widget/wgt_core/UI_Controller.c ****         {
 6326              		.loc 1 1608 22 view .LVU1780
 6327 01b4 013F     		subs	r7, r7, #1
 6328 01b6 FFB2     		uxtb	r7, r7
 6329              	.LVL596:
1608:Dsp/widget/wgt_core/UI_Controller.c ****         {
 6330              		.loc 1 1608 9 view .LVU1781
 6331 01b8 24E0     		b	.L495
 6332              	.L496:
1610:Dsp/widget/wgt_core/UI_Controller.c ****             dig_dsp_offset += STR_DIS;
 6333              		.loc 1 1610 13 is_stmt 1 discriminator 3 view .LVU1782
1610:Dsp/widget/wgt_core/UI_Controller.c ****             dig_dsp_offset += STR_DIS;
 6334              		.loc 1 1610 28 is_stmt 0 discriminator 3 view .LVU1783
 6335 01ba 174B     		ldr	r3, .L502+8
ARM GAS  /var/folders/lx/hc4sn_b53233_zkc9xbbl97r0000gp/T//ccErXOZH.s 			page 159


 6336 01bc D3F80480 		ldr	r8, [r3, #4]
1610:Dsp/widget/wgt_core/UI_Controller.c ****             dig_dsp_offset += STR_DIS;
 6337              		.loc 1 1610 13 discriminator 3 view .LVU1784
 6338 01c0 164B     		ldr	r3, .L502+12
 6339 01c2 93F80090 		ldrb	r9, [r3]	@ zero_extendqisi2
1610:Dsp/widget/wgt_core/UI_Controller.c ****             dig_dsp_offset += STR_DIS;
 6340              		.loc 1 1610 67 discriminator 3 view .LVU1785
 6341 01c6 D5F83BA0 		ldr	r10, [r5, #59]	@ unaligned
1610:Dsp/widget/wgt_core/UI_Controller.c ****             dig_dsp_offset += STR_DIS;
 6342              		.loc 1 1610 85 discriminator 3 view .LVU1786
 6343 01ca 3846     		mov	r0, r7
 6344 01cc FFF7FEFF 		bl	__aeabi_ui2d
 6345              	.LVL597:
 6346 01d0 41EC110B 		vmov	d1, r0, r1
 6347 01d4 9FED0E0B 		vldr.64	d0, .L502
 6348 01d8 FFF7FEFF 		bl	pow
 6349              	.LVL598:
 6350 01dc 51EC100B 		vmov	r0, r1, d0
1610:Dsp/widget/wgt_core/UI_Controller.c ****             dig_dsp_offset += STR_DIS;
 6351              		.loc 1 1610 80 discriminator 3 view .LVU1787
 6352 01e0 FFF7FEFF 		bl	__aeabi_d2iz
 6353              	.LVL599:
1610:Dsp/widget/wgt_core/UI_Controller.c ****             dig_dsp_offset += STR_DIS;
 6354              		.loc 1 1610 78 discriminator 3 view .LVU1788
 6355 01e4 BAFBF0F1 		udiv	r1, r10, r0
1610:Dsp/widget/wgt_core/UI_Controller.c ****             dig_dsp_offset += STR_DIS;
 6356              		.loc 1 1610 103 discriminator 3 view .LVU1789
 6357 01e8 A4B2     		uxth	r4, r4
1610:Dsp/widget/wgt_core/UI_Controller.c ****             dig_dsp_offset += STR_DIS;
 6358              		.loc 1 1610 103 discriminator 3 view .LVU1790
 6359 01ea 3219     		adds	r2, r6, r4
1610:Dsp/widget/wgt_core/UI_Controller.c ****             dig_dsp_offset += STR_DIS;
 6360              		.loc 1 1610 13 discriminator 3 view .LVU1791
 6361 01ec 0123     		movs	r3, #1
 6362 01ee 0093     		str	r3, [sp]
 6363 01f0 B5F90630 		ldrsh	r3, [r5, #6]	@ unaligned
 6364 01f4 12B2     		sxth	r2, r2
 6365 01f6 09B2     		sxth	r1, r1
 6366 01f8 4846     		mov	r0, r9
 6367 01fa C047     		blx	r8
 6368              	.LVL600:
1611:Dsp/widget/wgt_core/UI_Controller.c ****         }
 6369              		.loc 1 1611 13 is_stmt 1 discriminator 3 view .LVU1792
1611:Dsp/widget/wgt_core/UI_Controller.c ****         }
 6370              		.loc 1 1611 28 is_stmt 0 discriminator 3 view .LVU1793
 6371 01fc 0634     		adds	r4, r4, #6
 6372              	.LVL601:
1611:Dsp/widget/wgt_core/UI_Controller.c ****         }
 6373              		.loc 1 1611 28 discriminator 3 view .LVU1794
 6374 01fe 24B2     		sxth	r4, r4
 6375              	.LVL602:
1608:Dsp/widget/wgt_core/UI_Controller.c ****         {
 6376              		.loc 1 1608 79 is_stmt 1 discriminator 3 view .LVU1795
1608:Dsp/widget/wgt_core/UI_Controller.c ****         {
 6377              		.loc 1 1608 80 is_stmt 0 discriminator 3 view .LVU1796
 6378 0200 0137     		adds	r7, r7, #1
 6379              	.LVL603:
ARM GAS  /var/folders/lx/hc4sn_b53233_zkc9xbbl97r0000gp/T//ccErXOZH.s 			page 160


1608:Dsp/widget/wgt_core/UI_Controller.c ****         {
 6380              		.loc 1 1608 80 discriminator 3 view .LVU1797
 6381 0202 FFB2     		uxtb	r7, r7
 6382              	.LVL604:
 6383              	.L495:
1608:Dsp/widget/wgt_core/UI_Controller.c ****         {
 6384              		.loc 1 1608 72 is_stmt 1 discriminator 1 view .LVU1798
1608:Dsp/widget/wgt_core/UI_Controller.c ****         {
 6385              		.loc 1 1608 9 is_stmt 0 discriminator 1 view .LVU1799
 6386 0204 002F     		cmp	r7, #0
 6387 0206 D8D1     		bne	.L496
1608:Dsp/widget/wgt_core/UI_Controller.c ****         {
 6388              		.loc 1 1608 9 discriminator 1 view .LVU1800
 6389              	.LBE7:
1619:Dsp/widget/wgt_core/UI_Controller.c **** }
 6390              		.loc 1 1619 12 view .LVU1801
 6391 0208 0120     		movs	r0, #1
 6392              	.LBB8:
 6393 020a 3DE7     		b	.L485
 6394              	.LVL605:
 6395              	.L497:
 6396              	.LCFI122:
 6397              		.cfi_def_cfa_offset 0
 6398              		.cfi_restore 4
 6399              		.cfi_restore 5
 6400              		.cfi_restore 6
 6401              		.cfi_restore 7
 6402              		.cfi_restore 8
 6403              		.cfi_restore 9
 6404              		.cfi_restore 10
 6405              		.cfi_restore 14
 6406              		.cfi_restore 80
 6407              		.cfi_restore 81
 6408              		.cfi_restore 82
 6409              		.cfi_restore 83
1619:Dsp/widget/wgt_core/UI_Controller.c **** }
 6410              		.loc 1 1619 12 view .LVU1802
 6411              	.LBE8:
1568:Dsp/widget/wgt_core/UI_Controller.c **** 
 6412              		.loc 1 1568 16 view .LVU1803
 6413 020c 0020     		movs	r0, #0
 6414              	.LVL606:
1620:Dsp/widget/wgt_core/UI_Controller.c **** 
 6415              		.loc 1 1620 1 view .LVU1804
 6416 020e 7047     		bx	lr
 6417              	.L503:
 6418              		.align	3
 6419              	.L502:
 6420 0210 00000000 		.word	0
 6421 0214 00002440 		.word	1076101120
 6422 0218 00000000 		.word	.LANCHOR0
 6423 021c 00000000 		.word	.LANCHOR2
 6424 0220 00000000 		.word	.LC5
 6425 0224 04000000 		.word	.LC6
 6426              		.cfi_endproc
 6427              	.LFE62:
 6429              		.global	__aeabi_dmul
ARM GAS  /var/folders/lx/hc4sn_b53233_zkc9xbbl97r0000gp/T//ccErXOZH.s 			page 161


 6430              		.global	__aeabi_dadd
 6431              		.section	.text.UI_DigInput_SetIntValue,"ax",%progbits
 6432              		.align	1
 6433              		.syntax unified
 6434              		.thumb
 6435              		.thumb_func
 6436              		.fpu fpv4-sp-d16
 6438              	UI_DigInput_SetIntValue:
 6439              	.LVL607:
 6440              	.LFB58:
1479:Dsp/widget/wgt_core/UI_Controller.c ****     if (Obj == NULL)
 6441              		.loc 1 1479 1 is_stmt 1 view -0
 6442              		.cfi_startproc
 6443              		@ args = 0, pretend = 0, frame = 0
 6444              		@ frame_needed = 0, uses_anonymous_args = 0
1480:Dsp/widget/wgt_core/UI_Controller.c ****         return false;
 6445              		.loc 1 1480 5 view .LVU1806
1480:Dsp/widget/wgt_core/UI_Controller.c ****         return false;
 6446              		.loc 1 1480 8 is_stmt 0 view .LVU1807
 6447 0000 0028     		cmp	r0, #0
 6448 0002 67D0     		beq	.L509
1479:Dsp/widget/wgt_core/UI_Controller.c ****     if (Obj == NULL)
 6449              		.loc 1 1479 1 view .LVU1808
 6450 0004 F8B5     		push	{r3, r4, r5, r6, r7, lr}
 6451              	.LCFI123:
 6452              		.cfi_def_cfa_offset 24
 6453              		.cfi_offset 3, -24
 6454              		.cfi_offset 4, -20
 6455              		.cfi_offset 5, -16
 6456              		.cfi_offset 6, -12
 6457              		.cfi_offset 7, -8
 6458              		.cfi_offset 14, -4
 6459 0006 1546     		mov	r5, r2
 6460 0008 0446     		mov	r4, r0
1483:Dsp/widget/wgt_core/UI_Controller.c ****     {
 6461              		.loc 1 1483 5 is_stmt 1 view .LVU1809
1483:Dsp/widget/wgt_core/UI_Controller.c ****     {
 6462              		.loc 1 1483 12 is_stmt 0 view .LVU1810
 6463 000a 037B     		ldrb	r3, [r0, #12]	@ zero_extendqisi2
1483:Dsp/widget/wgt_core/UI_Controller.c ****     {
 6464              		.loc 1 1483 8 view .LVU1811
 6465 000c B3BB     		cbnz	r3, .L506
1485:Dsp/widget/wgt_core/UI_Controller.c ****             return false;
 6466              		.loc 1 1485 9 is_stmt 1 view .LVU1812
1485:Dsp/widget/wgt_core/UI_Controller.c ****             return false;
 6467              		.loc 1 1485 31 is_stmt 0 view .LVU1813
 6468 000e 437D     		ldrb	r3, [r0, #21]	@ zero_extendqisi2
1485:Dsp/widget/wgt_core/UI_Controller.c ****             return false;
 6469              		.loc 1 1485 12 view .LVU1814
 6470 0010 8B42     		cmp	r3, r1
 6471 0012 01D2     		bcs	.L517
1486:Dsp/widget/wgt_core/UI_Controller.c **** 
 6472              		.loc 1 1486 20 view .LVU1815
 6473 0014 0020     		movs	r0, #0
 6474              	.LVL608:
1486:Dsp/widget/wgt_core/UI_Controller.c **** 
 6475              		.loc 1 1486 20 view .LVU1816
ARM GAS  /var/folders/lx/hc4sn_b53233_zkc9xbbl97r0000gp/T//ccErXOZH.s 			page 162


 6476 0016 29E0     		b	.L505
 6477              	.LVL609:
 6478              	.L517:
1488:Dsp/widget/wgt_core/UI_Controller.c ****         if (Obj->InputData_Int.Max <= Obj->InputData_Int.CurVal)
 6479              		.loc 1 1488 9 is_stmt 1 view .LVU1817
1488:Dsp/widget/wgt_core/UI_Controller.c ****         if (Obj->InputData_Int.Max <= Obj->InputData_Int.CurVal)
 6480              		.loc 1 1488 38 is_stmt 0 view .LVU1818
 6481 0018 0846     		mov	r0, r1
 6482              	.LVL610:
1488:Dsp/widget/wgt_core/UI_Controller.c ****         if (Obj->InputData_Int.Max <= Obj->InputData_Int.CurVal)
 6483              		.loc 1 1488 38 view .LVU1819
 6484 001a FFF7FEFF 		bl	__aeabi_ui2d
 6485              	.LVL611:
1488:Dsp/widget/wgt_core/UI_Controller.c ****         if (Obj->InputData_Int.Max <= Obj->InputData_Int.CurVal)
 6486              		.loc 1 1488 38 view .LVU1820
 6487 001e 41EC110B 		vmov	d1, r0, r1
 6488 0022 9FED2F0B 		vldr.64	d0, .L519
 6489 0026 FFF7FEFF 		bl	pow
 6490              	.LVL612:
 6491 002a 57EC106B 		vmov	r6, r7, d0
1488:Dsp/widget/wgt_core/UI_Controller.c ****         if (Obj->InputData_Int.Max <= Obj->InputData_Int.CurVal)
 6492              		.loc 1 1488 55 view .LVU1821
 6493 002e 95F90000 		ldrsb	r0, [r5]
 6494 0032 FFF7FEFF 		bl	__aeabi_i2d
 6495              	.LVL613:
 6496 0036 3246     		mov	r2, r6
 6497 0038 3B46     		mov	r3, r7
 6498 003a FFF7FEFF 		bl	__aeabi_dmul
 6499              	.LVL614:
 6500 003e 0646     		mov	r6, r0
 6501 0040 0F46     		mov	r7, r1
1488:Dsp/widget/wgt_core/UI_Controller.c ****         if (Obj->InputData_Int.Max <= Obj->InputData_Int.CurVal)
 6502              		.loc 1 1488 35 view .LVU1822
 6503 0042 D4F81700 		ldr	r0, [r4, #23]	@ unaligned
 6504 0046 FFF7FEFF 		bl	__aeabi_i2d
 6505              	.LVL615:
 6506 004a 3246     		mov	r2, r6
 6507 004c 3B46     		mov	r3, r7
 6508 004e FFF7FEFF 		bl	__aeabi_dadd
 6509              	.LVL616:
 6510 0052 FFF7FEFF 		bl	__aeabi_d2iz
 6511              	.LVL617:
 6512 0056 C4F81700 		str	r0, [r4, #23]	@ unaligned
1489:Dsp/widget/wgt_core/UI_Controller.c ****         {
 6513              		.loc 1 1489 9 is_stmt 1 view .LVU1823
1489:Dsp/widget/wgt_core/UI_Controller.c ****         {
 6514              		.loc 1 1489 31 is_stmt 0 view .LVU1824
 6515 005a D4F80D30 		ldr	r3, [r4, #13]	@ unaligned
1489:Dsp/widget/wgt_core/UI_Controller.c ****         {
 6516              		.loc 1 1489 12 view .LVU1825
 6517 005e 9842     		cmp	r0, r3
 6518 0060 05DB     		blt	.L507
1491:Dsp/widget/wgt_core/UI_Controller.c ****         }
 6519              		.loc 1 1491 13 is_stmt 1 view .LVU1826
1491:Dsp/widget/wgt_core/UI_Controller.c ****         }
 6520              		.loc 1 1491 39 is_stmt 0 view .LVU1827
 6521 0062 C4F81730 		str	r3, [r4, #23]	@ unaligned
ARM GAS  /var/folders/lx/hc4sn_b53233_zkc9xbbl97r0000gp/T//ccErXOZH.s 			page 163


 6522              	.L508:
1507:Dsp/widget/wgt_core/UI_Controller.c ****     return true;
 6523              		.loc 1 1507 5 is_stmt 1 view .LVU1828
1507:Dsp/widget/wgt_core/UI_Controller.c ****     return true;
 6524              		.loc 1 1507 10 is_stmt 0 view .LVU1829
 6525 0066 0023     		movs	r3, #0
 6526 0068 2B70     		strb	r3, [r5]
1508:Dsp/widget/wgt_core/UI_Controller.c **** }
 6527              		.loc 1 1508 5 is_stmt 1 view .LVU1830
1508:Dsp/widget/wgt_core/UI_Controller.c **** }
 6528              		.loc 1 1508 12 is_stmt 0 view .LVU1831
 6529 006a 0120     		movs	r0, #1
 6530              	.L505:
1509:Dsp/widget/wgt_core/UI_Controller.c **** 
 6531              		.loc 1 1509 1 view .LVU1832
 6532 006c F8BD     		pop	{r3, r4, r5, r6, r7, pc}
 6533              	.LVL618:
 6534              	.L507:
1493:Dsp/widget/wgt_core/UI_Controller.c ****             Obj->InputData_Int.CurVal = Obj->InputData_Int.Min;
 6535              		.loc 1 1493 14 is_stmt 1 view .LVU1833
1493:Dsp/widget/wgt_core/UI_Controller.c ****             Obj->InputData_Int.CurVal = Obj->InputData_Int.Min;
 6536              		.loc 1 1493 36 is_stmt 0 view .LVU1834
 6537 006e D4F81130 		ldr	r3, [r4, #17]	@ unaligned
1493:Dsp/widget/wgt_core/UI_Controller.c ****             Obj->InputData_Int.CurVal = Obj->InputData_Int.Min;
 6538              		.loc 1 1493 17 view .LVU1835
 6539 0072 9842     		cmp	r0, r3
 6540 0074 F7DB     		blt	.L508
1494:Dsp/widget/wgt_core/UI_Controller.c ****     }
 6541              		.loc 1 1494 13 is_stmt 1 view .LVU1836
1494:Dsp/widget/wgt_core/UI_Controller.c ****     }
 6542              		.loc 1 1494 39 is_stmt 0 view .LVU1837
 6543 0076 C4F81730 		str	r3, [r4, #23]	@ unaligned
 6544 007a F4E7     		b	.L508
 6545              	.LVL619:
 6546              	.L506:
1496:Dsp/widget/wgt_core/UI_Controller.c ****     {
 6547              		.loc 1 1496 10 is_stmt 1 view .LVU1838
1496:Dsp/widget/wgt_core/UI_Controller.c ****     {
 6548              		.loc 1 1496 13 is_stmt 0 view .LVU1839
 6549 007c 012B     		cmp	r3, #1
 6550 007e 2BD1     		bne	.L511
1498:Dsp/widget/wgt_core/UI_Controller.c ****             return false;
 6551              		.loc 1 1498 9 is_stmt 1 view .LVU1840
1498:Dsp/widget/wgt_core/UI_Controller.c ****             return false;
 6552              		.loc 1 1498 31 is_stmt 0 view .LVU1841
 6553 0080 90F83530 		ldrb	r3, [r0, #53]	@ zero_extendqisi2
1498:Dsp/widget/wgt_core/UI_Controller.c ****             return false;
 6554              		.loc 1 1498 12 view .LVU1842
 6555 0084 8B42     		cmp	r3, r1
 6556 0086 01D2     		bcs	.L518
1499:Dsp/widget/wgt_core/UI_Controller.c **** 
 6557              		.loc 1 1499 20 view .LVU1843
 6558 0088 0020     		movs	r0, #0
 6559              	.LVL620:
1499:Dsp/widget/wgt_core/UI_Controller.c **** 
 6560              		.loc 1 1499 20 view .LVU1844
 6561 008a EFE7     		b	.L505
ARM GAS  /var/folders/lx/hc4sn_b53233_zkc9xbbl97r0000gp/T//ccErXOZH.s 			page 164


 6562              	.LVL621:
 6563              	.L518:
1501:Dsp/widget/wgt_core/UI_Controller.c ****         Obj->InputData_Dou.IntPart = (int64_t)Obj->InputData_Dou.CurVal;
 6564              		.loc 1 1501 9 is_stmt 1 view .LVU1845
1501:Dsp/widget/wgt_core/UI_Controller.c ****         Obj->InputData_Dou.IntPart = (int64_t)Obj->InputData_Dou.CurVal;
 6565              		.loc 1 1501 38 is_stmt 0 view .LVU1846
 6566 008c 0846     		mov	r0, r1
 6567              	.LVL622:
1501:Dsp/widget/wgt_core/UI_Controller.c ****         Obj->InputData_Dou.IntPart = (int64_t)Obj->InputData_Dou.CurVal;
 6568              		.loc 1 1501 38 view .LVU1847
 6569 008e FFF7FEFF 		bl	__aeabi_ui2d
 6570              	.LVL623:
1501:Dsp/widget/wgt_core/UI_Controller.c ****         Obj->InputData_Dou.IntPart = (int64_t)Obj->InputData_Dou.CurVal;
 6571              		.loc 1 1501 38 view .LVU1848
 6572 0092 41EC110B 		vmov	d1, r0, r1
 6573 0096 9FED120B 		vldr.64	d0, .L519
 6574 009a FFF7FEFF 		bl	pow
 6575              	.LVL624:
 6576 009e 57EC106B 		vmov	r6, r7, d0
1501:Dsp/widget/wgt_core/UI_Controller.c ****         Obj->InputData_Dou.IntPart = (int64_t)Obj->InputData_Dou.CurVal;
 6577              		.loc 1 1501 55 view .LVU1849
 6578 00a2 95F90000 		ldrsb	r0, [r5]
 6579 00a6 FFF7FEFF 		bl	__aeabi_i2d
 6580              	.LVL625:
 6581 00aa 3246     		mov	r2, r6
 6582 00ac 3B46     		mov	r3, r7
 6583 00ae FFF7FEFF 		bl	__aeabi_dmul
 6584              	.LVL626:
 6585 00b2 0246     		mov	r2, r0
 6586 00b4 0B46     		mov	r3, r1
1501:Dsp/widget/wgt_core/UI_Controller.c ****         Obj->InputData_Dou.IntPart = (int64_t)Obj->InputData_Dou.CurVal;
 6587              		.loc 1 1501 35 view .LVU1850
 6588 00b6 D4F82B00 		ldr	r0, [r4, #43]	@ unaligned
 6589 00ba D4F82F10 		ldr	r1, [r4, #47]	@ unaligned
 6590 00be FFF7FEFF 		bl	__aeabi_dadd
 6591              	.LVL627:
 6592 00c2 C4F82B00 		str	r0, [r4, #43]	@ unaligned
 6593 00c6 C4F82F10 		str	r1, [r4, #47]	@ unaligned
1502:Dsp/widget/wgt_core/UI_Controller.c ****     }
 6594              		.loc 1 1502 9 is_stmt 1 view .LVU1851
1502:Dsp/widget/wgt_core/UI_Controller.c ****     }
 6595              		.loc 1 1502 38 is_stmt 0 view .LVU1852
 6596 00ca FFF7FEFF 		bl	__aeabi_d2lz
 6597              	.LVL628:
1502:Dsp/widget/wgt_core/UI_Controller.c ****     }
 6598              		.loc 1 1502 36 view .LVU1853
 6599 00ce C4F83700 		str	r0, [r4, #55]	@ unaligned
 6600 00d2 C8E7     		b	.L508
 6601              	.LVL629:
 6602              	.L509:
 6603              	.LCFI124:
 6604              		.cfi_def_cfa_offset 0
 6605              		.cfi_restore 3
 6606              		.cfi_restore 4
 6607              		.cfi_restore 5
 6608              		.cfi_restore 6
 6609              		.cfi_restore 7
ARM GAS  /var/folders/lx/hc4sn_b53233_zkc9xbbl97r0000gp/T//ccErXOZH.s 			page 165


 6610              		.cfi_restore 14
1481:Dsp/widget/wgt_core/UI_Controller.c **** 
 6611              		.loc 1 1481 16 view .LVU1854
 6612 00d4 0020     		movs	r0, #0
 6613              	.LVL630:
1509:Dsp/widget/wgt_core/UI_Controller.c **** 
 6614              		.loc 1 1509 1 view .LVU1855
 6615 00d6 7047     		bx	lr
 6616              	.LVL631:
 6617              	.L511:
 6618              	.LCFI125:
 6619              		.cfi_def_cfa_offset 24
 6620              		.cfi_offset 3, -24
 6621              		.cfi_offset 4, -20
 6622              		.cfi_offset 5, -16
 6623              		.cfi_offset 6, -12
 6624              		.cfi_offset 7, -8
 6625              		.cfi_offset 14, -4
1505:Dsp/widget/wgt_core/UI_Controller.c **** 
 6626              		.loc 1 1505 16 view .LVU1856
 6627 00d8 0020     		movs	r0, #0
 6628              	.LVL632:
1505:Dsp/widget/wgt_core/UI_Controller.c **** 
 6629              		.loc 1 1505 16 view .LVU1857
 6630 00da C7E7     		b	.L505
 6631              	.L520:
 6632 00dc AFF30080 		.align	3
 6633              	.L519:
 6634 00e0 00000000 		.word	0
 6635 00e4 00002440 		.word	1076101120
 6636              		.cfi_endproc
 6637              	.LFE58:
 6639              		.section	.text.UI_DigInput_SetDouValue,"ax",%progbits
 6640              		.align	1
 6641              		.syntax unified
 6642              		.thumb
 6643              		.thumb_func
 6644              		.fpu fpv4-sp-d16
 6646              	UI_DigInput_SetDouValue:
 6647              	.LVL633:
 6648              	.LFB59:
1512:Dsp/widget/wgt_core/UI_Controller.c ****     int8_t power = 0;
 6649              		.loc 1 1512 1 is_stmt 1 view -0
 6650              		.cfi_startproc
 6651              		@ args = 0, pretend = 0, frame = 0
 6652              		@ frame_needed = 0, uses_anonymous_args = 0
1513:Dsp/widget/wgt_core/UI_Controller.c **** 
 6653              		.loc 1 1513 5 view .LVU1859
1515:Dsp/widget/wgt_core/UI_Controller.c ****         return false;
 6654              		.loc 1 1515 5 view .LVU1860
1515:Dsp/widget/wgt_core/UI_Controller.c ****         return false;
 6655              		.loc 1 1515 8 is_stmt 0 view .LVU1861
 6656 0000 0028     		cmp	r0, #0
 6657 0002 3ED0     		beq	.L523
1512:Dsp/widget/wgt_core/UI_Controller.c ****     int8_t power = 0;
 6658              		.loc 1 1512 1 discriminator 1 view .LVU1862
 6659 0004 F8B5     		push	{r3, r4, r5, r6, r7, lr}
ARM GAS  /var/folders/lx/hc4sn_b53233_zkc9xbbl97r0000gp/T//ccErXOZH.s 			page 166


 6660              	.LCFI126:
 6661              		.cfi_def_cfa_offset 24
 6662              		.cfi_offset 3, -24
 6663              		.cfi_offset 4, -20
 6664              		.cfi_offset 5, -16
 6665              		.cfi_offset 6, -12
 6666              		.cfi_offset 7, -8
 6667              		.cfi_offset 14, -4
 6668 0006 1546     		mov	r5, r2
 6669 0008 0446     		mov	r4, r0
1515:Dsp/widget/wgt_core/UI_Controller.c ****         return false;
 6670              		.loc 1 1515 30 discriminator 1 view .LVU1863
 6671 000a 037B     		ldrb	r3, [r0, #12]	@ zero_extendqisi2
1515:Dsp/widget/wgt_core/UI_Controller.c ****         return false;
 6672              		.loc 1 1515 23 discriminator 1 view .LVU1864
 6673 000c DBB3     		cbz	r3, .L524
1515:Dsp/widget/wgt_core/UI_Controller.c ****         return false;
 6674              		.loc 1 1515 79 discriminator 2 view .LVU1865
 6675 000e 90F83630 		ldrb	r3, [r0, #54]	@ zero_extendqisi2
1515:Dsp/widget/wgt_core/UI_Controller.c ****         return false;
 6676              		.loc 1 1515 57 discriminator 2 view .LVU1866
 6677 0012 8B42     		cmp	r3, r1
 6678 0014 01D2     		bcs	.L530
1516:Dsp/widget/wgt_core/UI_Controller.c **** 
 6679              		.loc 1 1516 16 view .LVU1867
 6680 0016 0020     		movs	r0, #0
 6681              	.LVL634:
1516:Dsp/widget/wgt_core/UI_Controller.c **** 
 6682              		.loc 1 1516 16 view .LVU1868
 6683 0018 36E0     		b	.L522
 6684              	.LVL635:
 6685              	.L530:
1518:Dsp/widget/wgt_core/UI_Controller.c ****     Obj->InputData_Dou.CurVal += pow(10, power) * (*val);
 6686              		.loc 1 1518 5 is_stmt 1 view .LVU1869
1518:Dsp/widget/wgt_core/UI_Controller.c ****     Obj->InputData_Dou.CurVal += pow(10, power) * (*val);
 6687              		.loc 1 1518 11 is_stmt 0 view .LVU1870
 6688 001a 4942     		rsbs	r1, r1, #0
 6689              	.LVL636:
1519:Dsp/widget/wgt_core/UI_Controller.c ****     Obj->InputData_Dou.PointPart = Obj->InputData_Dou.CurVal - (int64_t)(Obj->InputData_Dou.CurVal)
 6690              		.loc 1 1519 5 is_stmt 1 view .LVU1871
1519:Dsp/widget/wgt_core/UI_Controller.c ****     Obj->InputData_Dou.PointPart = Obj->InputData_Dou.CurVal - (int64_t)(Obj->InputData_Dou.CurVal)
 6691              		.loc 1 1519 34 is_stmt 0 view .LVU1872
 6692 001c 48B2     		sxtb	r0, r1
 6693              	.LVL637:
1519:Dsp/widget/wgt_core/UI_Controller.c ****     Obj->InputData_Dou.PointPart = Obj->InputData_Dou.CurVal - (int64_t)(Obj->InputData_Dou.CurVal)
 6694              		.loc 1 1519 34 view .LVU1873
 6695 001e FFF7FEFF 		bl	__aeabi_i2d
 6696              	.LVL638:
1519:Dsp/widget/wgt_core/UI_Controller.c ****     Obj->InputData_Dou.PointPart = Obj->InputData_Dou.CurVal - (int64_t)(Obj->InputData_Dou.CurVal)
 6697              		.loc 1 1519 34 view .LVU1874
 6698 0022 41EC110B 		vmov	d1, r0, r1
 6699 0026 9FED1A0B 		vldr.64	d0, .L531
 6700 002a FFF7FEFF 		bl	pow
 6701              	.LVL639:
 6702 002e 57EC106B 		vmov	r6, r7, d0
1519:Dsp/widget/wgt_core/UI_Controller.c ****     Obj->InputData_Dou.PointPart = Obj->InputData_Dou.CurVal - (int64_t)(Obj->InputData_Dou.CurVal)
 6703              		.loc 1 1519 49 view .LVU1875
ARM GAS  /var/folders/lx/hc4sn_b53233_zkc9xbbl97r0000gp/T//ccErXOZH.s 			page 167


 6704 0032 95F90000 		ldrsb	r0, [r5]
 6705 0036 FFF7FEFF 		bl	__aeabi_i2d
 6706              	.LVL640:
 6707 003a 3246     		mov	r2, r6
 6708 003c 3B46     		mov	r3, r7
 6709 003e FFF7FEFF 		bl	__aeabi_dmul
 6710              	.LVL641:
 6711 0042 0246     		mov	r2, r0
 6712 0044 0B46     		mov	r3, r1
1519:Dsp/widget/wgt_core/UI_Controller.c ****     Obj->InputData_Dou.PointPart = Obj->InputData_Dou.CurVal - (int64_t)(Obj->InputData_Dou.CurVal)
 6713              		.loc 1 1519 31 view .LVU1876
 6714 0046 D4F82B00 		ldr	r0, [r4, #43]	@ unaligned
 6715 004a D4F82F10 		ldr	r1, [r4, #47]	@ unaligned
 6716 004e FFF7FEFF 		bl	__aeabi_dadd
 6717              	.LVL642:
 6718 0052 0646     		mov	r6, r0
 6719 0054 0F46     		mov	r7, r1
 6720 0056 C4F82B00 		str	r0, [r4, #43]	@ unaligned
 6721 005a C4F82F10 		str	r1, [r4, #47]	@ unaligned
1520:Dsp/widget/wgt_core/UI_Controller.c **** 
 6722              		.loc 1 1520 5 is_stmt 1 view .LVU1877
1520:Dsp/widget/wgt_core/UI_Controller.c **** 
 6723              		.loc 1 1520 64 is_stmt 0 view .LVU1878
 6724 005e FFF7FEFF 		bl	__aeabi_d2lz
 6725              	.LVL643:
1520:Dsp/widget/wgt_core/UI_Controller.c **** 
 6726              		.loc 1 1520 62 view .LVU1879
 6727 0062 FFF7FEFF 		bl	__aeabi_l2d
 6728              	.LVL644:
 6729 0066 0246     		mov	r2, r0
 6730 0068 0B46     		mov	r3, r1
 6731 006a 3046     		mov	r0, r6
 6732 006c 3946     		mov	r1, r7
 6733 006e FFF7FEFF 		bl	__aeabi_dsub
 6734              	.LVL645:
1520:Dsp/widget/wgt_core/UI_Controller.c **** 
 6735              		.loc 1 1520 34 view .LVU1880
 6736 0072 FFF7FEFF 		bl	__aeabi_d2uiz
 6737              	.LVL646:
 6738 0076 C4F83B00 		str	r0, [r4, #59]	@ unaligned
1522:Dsp/widget/wgt_core/UI_Controller.c **** 
 6739              		.loc 1 1522 5 is_stmt 1 view .LVU1881
1522:Dsp/widget/wgt_core/UI_Controller.c **** 
 6740              		.loc 1 1522 10 is_stmt 0 view .LVU1882
 6741 007a 0023     		movs	r3, #0
 6742 007c 2B70     		strb	r3, [r5]
1524:Dsp/widget/wgt_core/UI_Controller.c **** }
 6743              		.loc 1 1524 5 is_stmt 1 view .LVU1883
1524:Dsp/widget/wgt_core/UI_Controller.c **** }
 6744              		.loc 1 1524 12 is_stmt 0 view .LVU1884
 6745 007e 0120     		movs	r0, #1
 6746 0080 02E0     		b	.L522
 6747              	.LVL647:
 6748              	.L523:
 6749              	.LCFI127:
 6750              		.cfi_def_cfa_offset 0
 6751              		.cfi_restore 3
ARM GAS  /var/folders/lx/hc4sn_b53233_zkc9xbbl97r0000gp/T//ccErXOZH.s 			page 168


 6752              		.cfi_restore 4
 6753              		.cfi_restore 5
 6754              		.cfi_restore 6
 6755              		.cfi_restore 7
 6756              		.cfi_restore 14
1516:Dsp/widget/wgt_core/UI_Controller.c **** 
 6757              		.loc 1 1516 16 view .LVU1885
 6758 0082 0020     		movs	r0, #0
 6759              	.LVL648:
1525:Dsp/widget/wgt_core/UI_Controller.c **** 
 6760              		.loc 1 1525 1 view .LVU1886
 6761 0084 7047     		bx	lr
 6762              	.LVL649:
 6763              	.L524:
 6764              	.LCFI128:
 6765              		.cfi_def_cfa_offset 24
 6766              		.cfi_offset 3, -24
 6767              		.cfi_offset 4, -20
 6768              		.cfi_offset 5, -16
 6769              		.cfi_offset 6, -12
 6770              		.cfi_offset 7, -8
 6771              		.cfi_offset 14, -4
1516:Dsp/widget/wgt_core/UI_Controller.c **** 
 6772              		.loc 1 1516 16 view .LVU1887
 6773 0086 0020     		movs	r0, #0
 6774              	.LVL650:
 6775              	.L522:
1525:Dsp/widget/wgt_core/UI_Controller.c **** 
 6776              		.loc 1 1525 1 view .LVU1888
 6777 0088 F8BD     		pop	{r3, r4, r5, r6, r7, pc}
 6778              	.LVL651:
 6779              	.L532:
1525:Dsp/widget/wgt_core/UI_Controller.c **** 
 6780              		.loc 1 1525 1 view .LVU1889
 6781 008a 00BFAFF3 		.align	3
 6781      0080
 6782              	.L531:
 6783 0090 00000000 		.word	0
 6784 0094 00002440 		.word	1076101120
 6785              		.cfi_endproc
 6786              	.LFE59:
 6788              		.section	.text.UI_DigInput_InputValue,"ax",%progbits
 6789              		.align	1
 6790              		.syntax unified
 6791              		.thumb
 6792              		.thumb_func
 6793              		.fpu fpv4-sp-d16
 6795              	UI_DigInput_InputValue:
 6796              	.LVL652:
 6797              	.LFB57:
1446:Dsp/widget/wgt_core/UI_Controller.c ****     if (Obj == NULL)
 6798              		.loc 1 1446 1 is_stmt 1 view -0
 6799              		.cfi_startproc
 6800              		@ args = 0, pretend = 0, frame = 0
 6801              		@ frame_needed = 0, uses_anonymous_args = 0
1447:Dsp/widget/wgt_core/UI_Controller.c ****         return false;
 6802              		.loc 1 1447 5 view .LVU1891
ARM GAS  /var/folders/lx/hc4sn_b53233_zkc9xbbl97r0000gp/T//ccErXOZH.s 			page 169


1447:Dsp/widget/wgt_core/UI_Controller.c ****         return false;
 6803              		.loc 1 1447 8 is_stmt 0 view .LVU1892
 6804 0000 58B3     		cbz	r0, .L537
1446:Dsp/widget/wgt_core/UI_Controller.c ****     if (Obj == NULL)
 6805              		.loc 1 1446 1 view .LVU1893
 6806 0002 38B5     		push	{r3, r4, r5, lr}
 6807              	.LCFI129:
 6808              		.cfi_def_cfa_offset 16
 6809              		.cfi_offset 3, -16
 6810              		.cfi_offset 4, -12
 6811              		.cfi_offset 5, -8
 6812              		.cfi_offset 14, -4
 6813 0004 0C46     		mov	r4, r1
 6814 0006 0546     		mov	r5, r0
1450:Dsp/widget/wgt_core/UI_Controller.c ****     {
 6815              		.loc 1 1450 5 is_stmt 1 view .LVU1894
1450:Dsp/widget/wgt_core/UI_Controller.c ****     {
 6816              		.loc 1 1450 12 is_stmt 0 view .LVU1895
 6817 0008 037B     		ldrb	r3, [r0, #12]	@ zero_extendqisi2
1450:Dsp/widget/wgt_core/UI_Controller.c ****     {
 6818              		.loc 1 1450 8 view .LVU1896
 6819 000a 13B9     		cbnz	r3, .L535
1450:Dsp/widget/wgt_core/UI_Controller.c ****     {
 6820              		.loc 1 1450 66 discriminator 1 view .LVU1897
 6821 000c 417D     		ldrb	r1, [r0, #21]	@ zero_extendqisi2
 6822              	.LVL653:
1450:Dsp/widget/wgt_core/UI_Controller.c ****     {
 6823              		.loc 1 1450 38 discriminator 1 view .LVU1898
 6824 000e A142     		cmp	r1, r4
 6825 0010 10D2     		bcs	.L543
 6826              	.L535:
1456:Dsp/widget/wgt_core/UI_Controller.c ****     {
 6827              		.loc 1 1456 10 is_stmt 1 view .LVU1899
1456:Dsp/widget/wgt_core/UI_Controller.c ****     {
 6828              		.loc 1 1456 13 is_stmt 0 view .LVU1900
 6829 0012 012B     		cmp	r3, #1
 6830 0014 23D1     		bne	.L538
1458:Dsp/widget/wgt_core/UI_Controller.c ****         {
 6831              		.loc 1 1458 9 is_stmt 1 view .LVU1901
1458:Dsp/widget/wgt_core/UI_Controller.c ****         {
 6832              		.loc 1 1458 31 is_stmt 0 view .LVU1902
 6833 0016 95F83510 		ldrb	r1, [r5, #53]	@ zero_extendqisi2
1458:Dsp/widget/wgt_core/UI_Controller.c ****         {
 6834              		.loc 1 1458 12 view .LVU1903
 6835 001a A142     		cmp	r1, r4
 6836 001c 10D3     		bcc	.L536
1460:Dsp/widget/wgt_core/UI_Controller.c ****             Obj->InputData_Dou.int_selected_pos = pos;
 6837              		.loc 1 1460 13 is_stmt 1 view .LVU1904
 6838 001e 2146     		mov	r1, r4
 6839 0020 2846     		mov	r0, r5
 6840              	.LVL654:
1460:Dsp/widget/wgt_core/UI_Controller.c ****             Obj->InputData_Dou.int_selected_pos = pos;
 6841              		.loc 1 1460 13 is_stmt 0 view .LVU1905
 6842 0022 FFF7FEFF 		bl	UI_DigInput_SetIntValue
 6843              	.LVL655:
1461:Dsp/widget/wgt_core/UI_Controller.c ****             Obj->InputData_Dou.dou_selected_pos = 0;
 6844              		.loc 1 1461 13 is_stmt 1 view .LVU1906
ARM GAS  /var/folders/lx/hc4sn_b53233_zkc9xbbl97r0000gp/T//ccErXOZH.s 			page 170


1461:Dsp/widget/wgt_core/UI_Controller.c ****             Obj->InputData_Dou.dou_selected_pos = 0;
 6845              		.loc 1 1461 49 is_stmt 0 view .LVU1907
 6846 0026 85F83340 		strb	r4, [r5, #51]
1462:Dsp/widget/wgt_core/UI_Controller.c ****         }
 6847              		.loc 1 1462 13 is_stmt 1 view .LVU1908
1462:Dsp/widget/wgt_core/UI_Controller.c ****         }
 6848              		.loc 1 1462 49 is_stmt 0 view .LVU1909
 6849 002a 0023     		movs	r3, #0
 6850 002c 85F83430 		strb	r3, [r5, #52]
1475:Dsp/widget/wgt_core/UI_Controller.c **** }
 6851              		.loc 1 1475 12 view .LVU1910
 6852 0030 0120     		movs	r0, #1
 6853 0032 15E0     		b	.L534
 6854              	.LVL656:
 6855              	.L543:
1452:Dsp/widget/wgt_core/UI_Controller.c **** 
 6856              		.loc 1 1452 9 is_stmt 1 view .LVU1911
 6857 0034 2146     		mov	r1, r4
 6858 0036 FFF7FEFF 		bl	UI_DigInput_SetIntValue
 6859              	.LVL657:
1454:Dsp/widget/wgt_core/UI_Controller.c ****     }
 6860              		.loc 1 1454 9 view .LVU1912
1454:Dsp/widget/wgt_core/UI_Controller.c ****     }
 6861              		.loc 1 1454 41 is_stmt 0 view .LVU1913
 6862 003a AC75     		strb	r4, [r5, #22]
1475:Dsp/widget/wgt_core/UI_Controller.c **** }
 6863              		.loc 1 1475 12 view .LVU1914
 6864 003c 0120     		movs	r0, #1
1454:Dsp/widget/wgt_core/UI_Controller.c ****     }
 6865              		.loc 1 1454 41 view .LVU1915
 6866 003e 0FE0     		b	.L534
 6867              	.LVL658:
 6868              	.L536:
1466:Dsp/widget/wgt_core/UI_Controller.c ****             UI_DigInput_SetDouValue(Obj, pos, val);
 6869              		.loc 1 1466 13 is_stmt 1 view .LVU1916
1466:Dsp/widget/wgt_core/UI_Controller.c ****             UI_DigInput_SetDouValue(Obj, pos, val);
 6870              		.loc 1 1466 17 is_stmt 0 view .LVU1917
 6871 0040 641A     		subs	r4, r4, r1
 6872 0042 E4B2     		uxtb	r4, r4
 6873              	.LVL659:
1467:Dsp/widget/wgt_core/UI_Controller.c ****             Obj->InputData_Dou.int_selected_pos = 0;
 6874              		.loc 1 1467 13 is_stmt 1 view .LVU1918
 6875 0044 2146     		mov	r1, r4
 6876 0046 2846     		mov	r0, r5
 6877              	.LVL660:
1467:Dsp/widget/wgt_core/UI_Controller.c ****             Obj->InputData_Dou.int_selected_pos = 0;
 6878              		.loc 1 1467 13 is_stmt 0 view .LVU1919
 6879 0048 FFF7FEFF 		bl	UI_DigInput_SetDouValue
 6880              	.LVL661:
1468:Dsp/widget/wgt_core/UI_Controller.c ****             Obj->InputData_Dou.dou_selected_pos = pos;
 6881              		.loc 1 1468 13 is_stmt 1 view .LVU1920
1468:Dsp/widget/wgt_core/UI_Controller.c ****             Obj->InputData_Dou.dou_selected_pos = pos;
 6882              		.loc 1 1468 49 is_stmt 0 view .LVU1921
 6883 004c 0023     		movs	r3, #0
 6884 004e 85F83330 		strb	r3, [r5, #51]
1469:Dsp/widget/wgt_core/UI_Controller.c ****         }
 6885              		.loc 1 1469 13 is_stmt 1 view .LVU1922
ARM GAS  /var/folders/lx/hc4sn_b53233_zkc9xbbl97r0000gp/T//ccErXOZH.s 			page 171


1469:Dsp/widget/wgt_core/UI_Controller.c ****         }
 6886              		.loc 1 1469 49 is_stmt 0 view .LVU1923
 6887 0052 85F83440 		strb	r4, [r5, #52]
1475:Dsp/widget/wgt_core/UI_Controller.c **** }
 6888              		.loc 1 1475 12 view .LVU1924
 6889 0056 0120     		movs	r0, #1
 6890 0058 02E0     		b	.L534
 6891              	.LVL662:
 6892              	.L537:
 6893              	.LCFI130:
 6894              		.cfi_def_cfa_offset 0
 6895              		.cfi_restore 3
 6896              		.cfi_restore 4
 6897              		.cfi_restore 5
 6898              		.cfi_restore 14
1448:Dsp/widget/wgt_core/UI_Controller.c **** 
 6899              		.loc 1 1448 16 view .LVU1925
 6900 005a 0020     		movs	r0, #0
 6901              	.LVL663:
1476:Dsp/widget/wgt_core/UI_Controller.c **** 
 6902              		.loc 1 1476 1 view .LVU1926
 6903 005c 7047     		bx	lr
 6904              	.LVL664:
 6905              	.L538:
 6906              	.LCFI131:
 6907              		.cfi_def_cfa_offset 16
 6908              		.cfi_offset 3, -16
 6909              		.cfi_offset 4, -12
 6910              		.cfi_offset 5, -8
 6911              		.cfi_offset 14, -4
1473:Dsp/widget/wgt_core/UI_Controller.c **** 
 6912              		.loc 1 1473 16 view .LVU1927
 6913 005e 0020     		movs	r0, #0
 6914              	.LVL665:
 6915              	.L534:
1476:Dsp/widget/wgt_core/UI_Controller.c **** 
 6916              		.loc 1 1476 1 view .LVU1928
 6917 0060 38BD     		pop	{r3, r4, r5, pc}
1476:Dsp/widget/wgt_core/UI_Controller.c **** 
 6918              		.loc 1 1476 1 view .LVU1929
 6919              		.cfi_endproc
 6920              	.LFE57:
 6922              		.section	.text.UI_Set_FontType,"ax",%progbits
 6923              		.align	1
 6924              		.global	UI_Set_FontType
 6925              		.syntax unified
 6926              		.thumb
 6927              		.thumb_func
 6928              		.fpu fpv4-sp-d16
 6930              	UI_Set_FontType:
 6931              	.LVL666:
 6932              	.LFB3:
 192:Dsp/widget/wgt_core/UI_Controller.c ****     if (font < Font_8 || font > Font_16)
 6933              		.loc 1 192 1 is_stmt 1 view -0
 6934              		.cfi_startproc
 6935              		@ args = 0, pretend = 0, frame = 0
 6936              		@ frame_needed = 0, uses_anonymous_args = 0
ARM GAS  /var/folders/lx/hc4sn_b53233_zkc9xbbl97r0000gp/T//ccErXOZH.s 			page 172


 6937              		@ link register save eliminated.
 193:Dsp/widget/wgt_core/UI_Controller.c ****         return false;
 6938              		.loc 1 193 5 view .LVU1931
 193:Dsp/widget/wgt_core/UI_Controller.c ****         return false;
 6939              		.loc 1 193 23 is_stmt 0 view .LVU1932
 6940 0000 A0F10803 		sub	r3, r0, #8
 6941 0004 DBB2     		uxtb	r3, r3
 193:Dsp/widget/wgt_core/UI_Controller.c ****         return false;
 6942              		.loc 1 193 8 view .LVU1933
 6943 0006 082B     		cmp	r3, #8
 6944 0008 03D8     		bhi	.L546
 196:Dsp/widget/wgt_core/UI_Controller.c **** 
 6945              		.loc 1 196 5 is_stmt 1 view .LVU1934
 196:Dsp/widget/wgt_core/UI_Controller.c **** 
 6946              		.loc 1 196 15 is_stmt 0 view .LVU1935
 6947 000a 034B     		ldr	r3, .L547
 6948 000c 1870     		strb	r0, [r3]
 198:Dsp/widget/wgt_core/UI_Controller.c **** }
 6949              		.loc 1 198 5 is_stmt 1 view .LVU1936
 198:Dsp/widget/wgt_core/UI_Controller.c **** }
 6950              		.loc 1 198 12 is_stmt 0 view .LVU1937
 6951 000e 0120     		movs	r0, #1
 6952              	.LVL667:
 198:Dsp/widget/wgt_core/UI_Controller.c **** }
 6953              		.loc 1 198 12 view .LVU1938
 6954 0010 7047     		bx	lr
 6955              	.LVL668:
 6956              	.L546:
 194:Dsp/widget/wgt_core/UI_Controller.c **** 
 6957              		.loc 1 194 16 view .LVU1939
 6958 0012 0020     		movs	r0, #0
 6959              	.LVL669:
 199:Dsp/widget/wgt_core/UI_Controller.c **** 
 6960              		.loc 1 199 1 view .LVU1940
 6961 0014 7047     		bx	lr
 6962              	.L548:
 6963 0016 00BF     		.align	2
 6964              	.L547:
 6965 0018 00000000 		.word	.LANCHOR2
 6966              		.cfi_endproc
 6967              	.LFE3:
 6969              		.section	.text.UI_Get_FontType,"ax",%progbits
 6970              		.align	1
 6971              		.global	UI_Get_FontType
 6972              		.syntax unified
 6973              		.thumb
 6974              		.thumb_func
 6975              		.fpu fpv4-sp-d16
 6977              	UI_Get_FontType:
 6978              	.LFB4:
 202:Dsp/widget/wgt_core/UI_Controller.c ****     return base_font;
 6979              		.loc 1 202 1 is_stmt 1 view -0
 6980              		.cfi_startproc
 6981              		@ args = 0, pretend = 0, frame = 0
 6982              		@ frame_needed = 0, uses_anonymous_args = 0
 6983              		@ link register save eliminated.
 203:Dsp/widget/wgt_core/UI_Controller.c **** }
ARM GAS  /var/folders/lx/hc4sn_b53233_zkc9xbbl97r0000gp/T//ccErXOZH.s 			page 173


 6984              		.loc 1 203 5 view .LVU1942
 204:Dsp/widget/wgt_core/UI_Controller.c **** 
 6985              		.loc 1 204 1 is_stmt 0 view .LVU1943
 6986 0000 014B     		ldr	r3, .L550
 6987 0002 1878     		ldrb	r0, [r3]	@ zero_extendqisi2
 6988 0004 7047     		bx	lr
 6989              	.L551:
 6990 0006 00BF     		.align	2
 6991              	.L550:
 6992 0008 00000000 		.word	.LANCHOR2
 6993              		.cfi_endproc
 6994              	.LFE4:
 6996              		.section	.text.UI_Set_DspInterface,"ax",%progbits
 6997              		.align	1
 6998              		.global	UI_Set_DspInterface
 6999              		.syntax unified
 7000              		.thumb
 7001              		.thumb_func
 7002              		.fpu fpv4-sp-d16
 7004              	UI_Set_DspInterface:
 7005              	.LVL670:
 7006              	.LFB5:
 219:Dsp/widget/wgt_core/UI_Controller.c ****     UI_DspInterface.draw_circle = circle;
 7007              		.loc 1 219 1 is_stmt 1 view -0
 7008              		.cfi_startproc
 7009              		@ args = 36, pretend = 0, frame = 0
 7010              		@ frame_needed = 0, uses_anonymous_args = 0
 7011              		@ link register save eliminated.
 219:Dsp/widget/wgt_core/UI_Controller.c ****     UI_DspInterface.draw_circle = circle;
 7012              		.loc 1 219 1 is_stmt 0 view .LVU1945
 7013 0000 30B4     		push	{r4, r5}
 7014              	.LCFI132:
 7015              		.cfi_def_cfa_offset 8
 7016              		.cfi_offset 4, -8
 7017              		.cfi_offset 5, -4
 220:Dsp/widget/wgt_core/UI_Controller.c ****     UI_DspInterface.draw_circle_section = circle_section;
 7018              		.loc 1 220 5 is_stmt 1 view .LVU1946
 220:Dsp/widget/wgt_core/UI_Controller.c ****     UI_DspInterface.draw_circle_section = circle_section;
 7019              		.loc 1 220 33 is_stmt 0 view .LVU1947
 7020 0002 0C4C     		ldr	r4, .L554
 7021 0004 039D     		ldr	r5, [sp, #12]
 7022 0006 E561     		str	r5, [r4, #28]
 221:Dsp/widget/wgt_core/UI_Controller.c ****     UI_DspInterface.draw_line_h = line_h;
 7023              		.loc 1 221 5 is_stmt 1 view .LVU1948
 221:Dsp/widget/wgt_core/UI_Controller.c ****     UI_DspInterface.draw_line_h = line_h;
 7024              		.loc 1 221 41 is_stmt 0 view .LVU1949
 7025 0008 049D     		ldr	r5, [sp, #16]
 7026 000a 2562     		str	r5, [r4, #32]
 222:Dsp/widget/wgt_core/UI_Controller.c ****     UI_DspInterface.draw_line_v = line_v;
 7027              		.loc 1 222 5 is_stmt 1 view .LVU1950
 222:Dsp/widget/wgt_core/UI_Controller.c ****     UI_DspInterface.draw_line_v = line_v;
 7028              		.loc 1 222 33 is_stmt 0 view .LVU1951
 7029 000c E160     		str	r1, [r4, #12]
 223:Dsp/widget/wgt_core/UI_Controller.c ****     UI_DspInterface.draw_point = point;
 7030              		.loc 1 223 5 is_stmt 1 view .LVU1952
 223:Dsp/widget/wgt_core/UI_Controller.c ****     UI_DspInterface.draw_point = point;
 7031              		.loc 1 223 33 is_stmt 0 view .LVU1953
ARM GAS  /var/folders/lx/hc4sn_b53233_zkc9xbbl97r0000gp/T//ccErXOZH.s 			page 174


 7032 000e 2261     		str	r2, [r4, #16]
 224:Dsp/widget/wgt_core/UI_Controller.c ****     UI_DspInterface.draw_rectangle = rectangle;
 7033              		.loc 1 224 5 is_stmt 1 view .LVU1954
 224:Dsp/widget/wgt_core/UI_Controller.c ****     UI_DspInterface.draw_rectangle = rectangle;
 7034              		.loc 1 224 32 is_stmt 0 view .LVU1955
 7035 0010 A060     		str	r0, [r4, #8]
 225:Dsp/widget/wgt_core/UI_Controller.c ****     UI_DspInterface.draw_radius_rectangle = radius_rectangle;
 7036              		.loc 1 225 5 is_stmt 1 view .LVU1956
 225:Dsp/widget/wgt_core/UI_Controller.c ****     UI_DspInterface.draw_radius_rectangle = radius_rectangle;
 7037              		.loc 1 225 36 is_stmt 0 view .LVU1957
 7038 0012 A361     		str	r3, [r4, #24]
 226:Dsp/widget/wgt_core/UI_Controller.c ****     UI_DspInterface.draw_str = str;
 7039              		.loc 1 226 5 is_stmt 1 view .LVU1958
 226:Dsp/widget/wgt_core/UI_Controller.c ****     UI_DspInterface.draw_str = str;
 7040              		.loc 1 226 43 is_stmt 0 view .LVU1959
 7041 0014 029B     		ldr	r3, [sp, #8]
 7042              	.LVL671:
 226:Dsp/widget/wgt_core/UI_Controller.c ****     UI_DspInterface.draw_str = str;
 7043              		.loc 1 226 43 view .LVU1960
 7044 0016 6361     		str	r3, [r4, #20]
 227:Dsp/widget/wgt_core/UI_Controller.c ****     UI_DspInterface.draw_dig = dig;
 7045              		.loc 1 227 5 is_stmt 1 view .LVU1961
 227:Dsp/widget/wgt_core/UI_Controller.c ****     UI_DspInterface.draw_dig = dig;
 7046              		.loc 1 227 30 is_stmt 0 view .LVU1962
 7047 0018 059B     		ldr	r3, [sp, #20]
 7048 001a 2360     		str	r3, [r4]
 228:Dsp/widget/wgt_core/UI_Controller.c **** 
 7049              		.loc 1 228 5 is_stmt 1 view .LVU1963
 228:Dsp/widget/wgt_core/UI_Controller.c **** 
 7050              		.loc 1 228 30 is_stmt 0 view .LVU1964
 7051 001c 069B     		ldr	r3, [sp, #24]
 7052 001e 6360     		str	r3, [r4, #4]
 230:Dsp/widget/wgt_core/UI_Controller.c ****     UI_DspInterface.fill_circle_section = fillcircle_section;
 7053              		.loc 1 230 5 is_stmt 1 view .LVU1965
 230:Dsp/widget/wgt_core/UI_Controller.c ****     UI_DspInterface.fill_circle_section = fillcircle_section;
 7054              		.loc 1 230 33 is_stmt 0 view .LVU1966
 7055 0020 079B     		ldr	r3, [sp, #28]
 7056 0022 A362     		str	r3, [r4, #40]
 231:Dsp/widget/wgt_core/UI_Controller.c ****     UI_DspInterface.fill_radius_rectangle = fill_radius_rectangle;
 7057              		.loc 1 231 5 is_stmt 1 view .LVU1967
 231:Dsp/widget/wgt_core/UI_Controller.c ****     UI_DspInterface.fill_radius_rectangle = fill_radius_rectangle;
 7058              		.loc 1 231 41 is_stmt 0 view .LVU1968
 7059 0024 089B     		ldr	r3, [sp, #32]
 7060 0026 E362     		str	r3, [r4, #44]
 232:Dsp/widget/wgt_core/UI_Controller.c ****     UI_DspInterface.fill_rectangle = fill_rectangle;
 7061              		.loc 1 232 5 is_stmt 1 view .LVU1969
 232:Dsp/widget/wgt_core/UI_Controller.c ****     UI_DspInterface.fill_rectangle = fill_rectangle;
 7062              		.loc 1 232 43 is_stmt 0 view .LVU1970
 7063 0028 0A9B     		ldr	r3, [sp, #40]
 7064 002a 2363     		str	r3, [r4, #48]
 233:Dsp/widget/wgt_core/UI_Controller.c **** }
 7065              		.loc 1 233 5 is_stmt 1 view .LVU1971
 233:Dsp/widget/wgt_core/UI_Controller.c **** }
 7066              		.loc 1 233 36 is_stmt 0 view .LVU1972
 7067 002c 099B     		ldr	r3, [sp, #36]
 7068 002e 6362     		str	r3, [r4, #36]
 234:Dsp/widget/wgt_core/UI_Controller.c **** 
ARM GAS  /var/folders/lx/hc4sn_b53233_zkc9xbbl97r0000gp/T//ccErXOZH.s 			page 175


 7069              		.loc 1 234 1 view .LVU1973
 7070 0030 30BC     		pop	{r4, r5}
 7071              	.LCFI133:
 7072              		.cfi_restore 5
 7073              		.cfi_restore 4
 7074              		.cfi_def_cfa_offset 0
 7075              	.LVL672:
 234:Dsp/widget/wgt_core/UI_Controller.c **** 
 7076              		.loc 1 234 1 view .LVU1974
 7077 0032 7047     		bx	lr
 7078              	.L555:
 7079              		.align	2
 7080              	.L554:
 7081 0034 00000000 		.word	.LANCHOR0
 7082              		.cfi_endproc
 7083              	.LFE5:
 7085              		.section	.text.UI_Set_GetWidgetWidthMathod,"ax",%progbits
 7086              		.align	1
 7087              		.global	UI_Set_GetWidgetWidthMathod
 7088              		.syntax unified
 7089              		.thumb
 7090              		.thumb_func
 7091              		.fpu fpv4-sp-d16
 7093              	UI_Set_GetWidgetWidthMathod:
 7094              	.LVL673:
 7095              	.LFB6:
 237:Dsp/widget/wgt_core/UI_Controller.c ****     UI_Get_WidgetWidth = mathod;
 7096              		.loc 1 237 1 is_stmt 1 view -0
 7097              		.cfi_startproc
 7098              		@ args = 0, pretend = 0, frame = 0
 7099              		@ frame_needed = 0, uses_anonymous_args = 0
 7100              		@ link register save eliminated.
 238:Dsp/widget/wgt_core/UI_Controller.c **** }
 7101              		.loc 1 238 5 view .LVU1976
 238:Dsp/widget/wgt_core/UI_Controller.c **** }
 7102              		.loc 1 238 24 is_stmt 0 view .LVU1977
 7103 0000 014B     		ldr	r3, .L557
 7104 0002 1860     		str	r0, [r3]
 239:Dsp/widget/wgt_core/UI_Controller.c **** 
 7105              		.loc 1 239 1 view .LVU1978
 7106 0004 7047     		bx	lr
 7107              	.L558:
 7108 0006 00BF     		.align	2
 7109              	.L557:
 7110 0008 00000000 		.word	.LANCHOR1
 7111              		.cfi_endproc
 7112              	.LFE6:
 7114              		.section	.text.UI_ShowSelector,"ax",%progbits
 7115              		.align	1
 7116              		.global	UI_ShowSelector
 7117              		.syntax unified
 7118              		.thumb
 7119              		.thumb_func
 7120              		.fpu fpv4-sp-d16
 7122              	UI_ShowSelector:
 7123              	.LVL674:
 7124              	.LFB8:
ARM GAS  /var/folders/lx/hc4sn_b53233_zkc9xbbl97r0000gp/T//ccErXOZH.s 			page 176


 266:Dsp/widget/wgt_core/UI_Controller.c ****     /* Radius Ractangele Frame type button selector coordinate */
 7125              		.loc 1 266 1 is_stmt 1 view -0
 7126              		.cfi_startproc
 7127              		@ args = 0, pretend = 0, frame = 0
 7128              		@ frame_needed = 0, uses_anonymous_args = 0
 266:Dsp/widget/wgt_core/UI_Controller.c ****     /* Radius Ractangele Frame type button selector coordinate */
 7129              		.loc 1 266 1 is_stmt 0 view .LVU1980
 7130 0000 2DE9F047 		push	{r4, r5, r6, r7, r8, r9, r10, lr}
 7131              	.LCFI134:
 7132              		.cfi_def_cfa_offset 32
 7133              		.cfi_offset 4, -32
 7134              		.cfi_offset 5, -28
 7135              		.cfi_offset 6, -24
 7136              		.cfi_offset 7, -20
 7137              		.cfi_offset 8, -16
 7138              		.cfi_offset 9, -12
 7139              		.cfi_offset 10, -8
 7140              		.cfi_offset 14, -4
 7141 0004 82B0     		sub	sp, sp, #8
 7142              	.LCFI135:
 7143              		.cfi_def_cfa_offset 40
 7144 0006 0446     		mov	r4, r0
 268:Dsp/widget/wgt_core/UI_Controller.c ****     int16_t Btn_Slct_LftUp_Y = 0;
 7145              		.loc 1 268 5 is_stmt 1 view .LVU1981
 7146              	.LVL675:
 269:Dsp/widget/wgt_core/UI_Controller.c ****     int16_t Btn_Slct_LftDwn_X = 0;
 7147              		.loc 1 269 5 view .LVU1982
 270:Dsp/widget/wgt_core/UI_Controller.c ****     int16_t Btn_Slct_LftDwn_Y = 0;
 7148              		.loc 1 270 5 view .LVU1983
 271:Dsp/widget/wgt_core/UI_Controller.c ****     int16_t Btn_Slct_RgtUp_X = 0;
 7149              		.loc 1 271 5 view .LVU1984
 272:Dsp/widget/wgt_core/UI_Controller.c ****     int16_t Btn_Slct_RgtUp_Y = 0;
 7150              		.loc 1 272 5 view .LVU1985
 273:Dsp/widget/wgt_core/UI_Controller.c ****     int16_t Btn_Slct_RgtDwn_X = 0;
 7151              		.loc 1 273 5 view .LVU1986
 274:Dsp/widget/wgt_core/UI_Controller.c ****     int16_t Btn_Slct_RgtDwn_Y = 0;
 7152              		.loc 1 274 5 view .LVU1987
 275:Dsp/widget/wgt_core/UI_Controller.c **** 
 7153              		.loc 1 275 5 view .LVU1988
 278:Dsp/widget/wgt_core/UI_Controller.c ****     int16_t block_y;
 7154              		.loc 1 278 5 view .LVU1989
 279:Dsp/widget/wgt_core/UI_Controller.c **** 
 7155              		.loc 1 279 5 view .LVU1990
 281:Dsp/widget/wgt_core/UI_Controller.c ****     uint8_t selector_height = 0;
 7156              		.loc 1 281 5 view .LVU1991
 282:Dsp/widget/wgt_core/UI_Controller.c **** 
 7157              		.loc 1 282 5 view .LVU1992
 284:Dsp/widget/wgt_core/UI_Controller.c ****     {
 7158              		.loc 1 284 5 view .LVU1993
 284:Dsp/widget/wgt_core/UI_Controller.c ****     {
 7159              		.loc 1 284 28 is_stmt 0 view .LVU1994
 7160 0008 8A4B     		ldr	r3, .L587
 7161 000a 1B68     		ldr	r3, [r3]
 284:Dsp/widget/wgt_core/UI_Controller.c ****     {
 7162              		.loc 1 284 8 view .LVU1995
 7163 000c 93B1     		cbz	r3, .L574
 286:Dsp/widget/wgt_core/UI_Controller.c **** 
ARM GAS  /var/folders/lx/hc4sn_b53233_zkc9xbbl97r0000gp/T//ccErXOZH.s 			page 177


 7164              		.loc 1 286 9 is_stmt 1 view .LVU1996
 286:Dsp/widget/wgt_core/UI_Controller.c **** 
 7165              		.loc 1 286 24 is_stmt 0 view .LVU1997
 7166 000e 9847     		blx	r3
 7167              	.LVL676:
 288:Dsp/widget/wgt_core/UI_Controller.c ****             return UI_Fresh_Error;
 7168              		.loc 1 288 9 is_stmt 1 view .LVU1998
 288:Dsp/widget/wgt_core/UI_Controller.c ****             return UI_Fresh_Error;
 7169              		.loc 1 288 12 is_stmt 0 view .LVU1999
 7170 0010 0546     		mov	r5, r0
 7171 0012 58B1     		cbz	r0, .L561
 7172              	.LVL677:
 7173              	.L560:
 292:Dsp/widget/wgt_core/UI_Controller.c ****         return UI_Fresh_Error;
 7174              		.loc 1 292 5 is_stmt 1 view .LVU2000
 292:Dsp/widget/wgt_core/UI_Controller.c ****         return UI_Fresh_Error;
 7175              		.loc 1 292 8 is_stmt 0 view .LVU2001
 7176 0014 002C     		cmp	r4, #0
 7177 0016 00F0FE80 		beq	.L575
 295:Dsp/widget/wgt_core/UI_Controller.c ****     {
 7178              		.loc 1 295 5 is_stmt 1 view .LVU2002
 7179 001a 874B     		ldr	r3, .L587+4
 7180 001c 1B78     		ldrb	r3, [r3]	@ zero_extendqisi2
 7181 001e 0C2B     		cmp	r3, #12
 7182 0020 19D0     		beq	.L576
 7183 0022 102B     		cmp	r3, #16
 7184 0024 19D0     		beq	.L577
 7185 0026 082B     		cmp	r3, #8
 7186 0028 06D0     		beq	.L586
 7187 002a 0025     		movs	r5, #0
 7188              	.LVL678:
 7189              	.L561:
 431:Dsp/widget/wgt_core/UI_Controller.c **** 
 7190              		.loc 1 431 1 is_stmt 0 view .LVU2003
 7191 002c 2846     		mov	r0, r5
 7192 002e 02B0     		add	sp, sp, #8
 7193              	.LCFI136:
 7194              		.cfi_remember_state
 7195              		.cfi_def_cfa_offset 32
 7196              		@ sp needed
 7197 0030 BDE8F087 		pop	{r4, r5, r6, r7, r8, r9, r10, pc}
 7198              	.LVL679:
 7199              	.L574:
 7200              	.LCFI137:
 7201              		.cfi_restore_state
 281:Dsp/widget/wgt_core/UI_Controller.c ****     uint8_t selector_height = 0;
 7202              		.loc 1 281 13 view .LVU2004
 7203 0034 8025     		movs	r5, #128
 7204 0036 EDE7     		b	.L560
 7205              	.LVL680:
 7206              	.L586:
 295:Dsp/widget/wgt_core/UI_Controller.c ****     {
 7207              		.loc 1 295 5 view .LVU2005
 7208 0038 0927     		movs	r7, #9
 7209              	.L562:
 7210              	.LVL681:
 310:Dsp/widget/wgt_core/UI_Controller.c ****     {
ARM GAS  /var/folders/lx/hc4sn_b53233_zkc9xbbl97r0000gp/T//ccErXOZH.s 			page 178


 7211              		.loc 1 310 5 is_stmt 1 view .LVU2006
 310:Dsp/widget/wgt_core/UI_Controller.c ****     {
 7212              		.loc 1 310 27 is_stmt 0 view .LVU2007
 7213 003a 2678     		ldrb	r6, [r4]	@ zero_extendqisi2
 7214 003c 072E     		cmp	r6, #7
 7215 003e 00F2EC80 		bhi	.L579
 7216 0042 DFE816F0 		tbh	[pc, r6, lsl #1]
 7217              	.L564:
 7218 0046 0E00     		.2byte	(.L571-.L564)/2
 7219 0048 6C00     		.2byte	(.L570-.L564)/2
 7220 004a 7D00     		.2byte	(.L569-.L564)/2
 7221 004c 0C00     		.2byte	(.L568-.L564)/2
 7222 004e A200     		.2byte	(.L567-.L564)/2
 7223 0050 B500     		.2byte	(.L566-.L564)/2
 7224 0052 C800     		.2byte	(.L565-.L564)/2
 7225 0054 D900     		.2byte	(.L563-.L564)/2
 7226              	.LVL682:
 7227              		.p2align 1
 7228              	.L576:
 303:Dsp/widget/wgt_core/UI_Controller.c ****         break;
 7229              		.loc 1 303 25 view .LVU2008
 7230 0056 0B27     		movs	r7, #11
 7231 0058 EFE7     		b	.L562
 7232              	.L577:
 7233 005a 0B27     		movs	r7, #11
 7234 005c EDE7     		b	.L562
 7235              	.LVL683:
 7236              	.L568:
 310:Dsp/widget/wgt_core/UI_Controller.c ****     {
 7237              		.loc 1 310 27 view .LVU2009
 7238 005e 0225     		movs	r5, #2
 7239              	.LVL684:
 310:Dsp/widget/wgt_core/UI_Controller.c ****     {
 7240              		.loc 1 310 27 view .LVU2010
 7241 0060 E4E7     		b	.L561
 7242              	.LVL685:
 7243              	.L571:
 314:Dsp/widget/wgt_core/UI_Controller.c ****             return UI_Fresh_Error;
 7244              		.loc 1 314 9 is_stmt 1 view .LVU2011
 314:Dsp/widget/wgt_core/UI_Controller.c ****             return UI_Fresh_Error;
 7245              		.loc 1 314 28 is_stmt 0 view .LVU2012
 7246 0062 764B     		ldr	r3, .L587+8
 7247 0064 DB6A     		ldr	r3, [r3, #44]
 314:Dsp/widget/wgt_core/UI_Controller.c ****             return UI_Fresh_Error;
 7248              		.loc 1 314 12 view .LVU2013
 7249 0066 002B     		cmp	r3, #0
 7250 0068 00F0D980 		beq	.L580
 317:Dsp/widget/wgt_core/UI_Controller.c ****         {
 7251              		.loc 1 317 9 is_stmt 1 view .LVU2014
 317:Dsp/widget/wgt_core/UI_Controller.c ****         {
 7252              		.loc 1 317 13 is_stmt 0 view .LVU2015
 7253 006c 6368     		ldr	r3, [r4, #4]
 317:Dsp/widget/wgt_core/UI_Controller.c ****         {
 7254              		.loc 1 317 45 view .LVU2016
 7255 006e 93F82150 		ldrb	r5, [r3, #33]	@ zero_extendqisi2
 7256              	.LVL686:
 317:Dsp/widget/wgt_core/UI_Controller.c ****         {
ARM GAS  /var/folders/lx/hc4sn_b53233_zkc9xbbl97r0000gp/T//ccErXOZH.s 			page 179


 7257              		.loc 1 317 12 view .LVU2017
 7258 0072 002D     		cmp	r5, #0
 7259 0074 36D1     		bne	.L572
 320:Dsp/widget/wgt_core/UI_Controller.c ****             Btn_Slct_LftUp_Y = HandleToButtonObj(item->Handler)->Gen_Data.y + HandleToButtonObj(ite
 7260              		.loc 1 320 13 is_stmt 1 view .LVU2018
 320:Dsp/widget/wgt_core/UI_Controller.c ****             Btn_Slct_LftUp_Y = HandleToButtonObj(item->Handler)->Gen_Data.y + HandleToButtonObj(ite
 7261              		.loc 1 320 30 is_stmt 0 view .LVU2019
 7262 0076 B3F90460 		ldrsh	r6, [r3, #4]	@ unaligned
 7263 007a 0FFA86FA 		sxth	r10, r6
 7264              	.LVL687:
 321:Dsp/widget/wgt_core/UI_Controller.c **** 
 7265              		.loc 1 321 13 is_stmt 1 view .LVU2020
 321:Dsp/widget/wgt_core/UI_Controller.c **** 
 7266              		.loc 1 321 74 is_stmt 0 view .LVU2021
 7267 007e B3F90620 		ldrsh	r2, [r3, #6]	@ unaligned
 7268 0082 0FFA82F9 		sxth	r9, r2
 321:Dsp/widget/wgt_core/UI_Controller.c **** 
 7269              		.loc 1 321 111 view .LVU2022
 7270 0086 93F82040 		ldrb	r4, [r3, #32]	@ zero_extendqisi2
 7271              	.LVL688:
 321:Dsp/widget/wgt_core/UI_Controller.c **** 
 7272              		.loc 1 321 77 view .LVU2023
 7273 008a 14FA82F4 		uxtah	r4, r4, r2
 7274 008e A4B2     		uxth	r4, r4
 321:Dsp/widget/wgt_core/UI_Controller.c **** 
 7275              		.loc 1 321 120 view .LVU2024
 7276 0090 013C     		subs	r4, r4, #1
 321:Dsp/widget/wgt_core/UI_Controller.c **** 
 7277              		.loc 1 321 30 view .LVU2025
 7278 0092 0FFA84F8 		sxth	r8, r4
 7279              	.LVL689:
 323:Dsp/widget/wgt_core/UI_Controller.c ****             Btn_Slct_LftDwn_Y = HandleToButtonObj(item->Handler)->Gen_Data.y;
 7280              		.loc 1 323 13 is_stmt 1 view .LVU2026
 324:Dsp/widget/wgt_core/UI_Controller.c **** 
 7281              		.loc 1 324 13 view .LVU2027
 326:Dsp/widget/wgt_core/UI_Controller.c ****             Btn_Slct_RgtUp_Y = Btn_Slct_LftUp_Y;
 7282              		.loc 1 326 13 view .LVU2028
 326:Dsp/widget/wgt_core/UI_Controller.c ****             Btn_Slct_RgtUp_Y = Btn_Slct_LftUp_Y;
 7283              		.loc 1 326 111 is_stmt 0 view .LVU2029
 7284 0096 DB7F     		ldrb	r3, [r3, #31]	@ zero_extendqisi2
 326:Dsp/widget/wgt_core/UI_Controller.c ****             Btn_Slct_RgtUp_Y = Btn_Slct_LftUp_Y;
 7285              		.loc 1 326 77 view .LVU2030
 7286 0098 13FA86F6 		uxtah	r6, r3, r6
 7287              	.LVL690:
 326:Dsp/widget/wgt_core/UI_Controller.c ****             Btn_Slct_RgtUp_Y = Btn_Slct_LftUp_Y;
 7288              		.loc 1 326 30 view .LVU2031
 7289 009c 36B2     		sxth	r6, r6
 7290              	.LVL691:
 327:Dsp/widget/wgt_core/UI_Controller.c **** 
 7291              		.loc 1 327 13 is_stmt 1 view .LVU2032
 329:Dsp/widget/wgt_core/UI_Controller.c ****             Btn_Slct_RgtDwn_Y = Btn_Slct_LftDwn_Y;
 7292              		.loc 1 329 13 view .LVU2033
 330:Dsp/widget/wgt_core/UI_Controller.c **** 
 7293              		.loc 1 330 13 view .LVU2034
 333:Dsp/widget/wgt_core/UI_Controller.c ****             UI_DspInterface.draw_circle_section(Btn_Slct_LftDwn_X, Btn_Slct_LftDwn_Y, BUTTON_SELECT
 7294              		.loc 1 333 13 view .LVU2035
 333:Dsp/widget/wgt_core/UI_Controller.c ****             UI_DspInterface.draw_circle_section(Btn_Slct_LftDwn_X, Btn_Slct_LftDwn_Y, BUTTON_SELECT
ARM GAS  /var/folders/lx/hc4sn_b53233_zkc9xbbl97r0000gp/T//ccErXOZH.s 			page 180


 7295              		.loc 1 333 28 is_stmt 0 view .LVU2036
 7296 009e 674F     		ldr	r7, .L587+8
 7297              	.LVL692:
 333:Dsp/widget/wgt_core/UI_Controller.c ****             UI_DspInterface.draw_circle_section(Btn_Slct_LftDwn_X, Btn_Slct_LftDwn_Y, BUTTON_SELECT
 7298              		.loc 1 333 13 view .LVU2037
 7299 00a0 0125     		movs	r5, #1
 7300 00a2 0195     		str	r5, [sp, #4]
 7301 00a4 0095     		str	r5, [sp]
 7302 00a6 0423     		movs	r3, #4
 7303 00a8 0222     		movs	r2, #2
 7304              	.LVL693:
 333:Dsp/widget/wgt_core/UI_Controller.c ****             UI_DspInterface.draw_circle_section(Btn_Slct_LftDwn_X, Btn_Slct_LftDwn_Y, BUTTON_SELECT
 7305              		.loc 1 333 13 view .LVU2038
 7306 00aa 4146     		mov	r1, r8
 7307 00ac 5046     		mov	r0, r10
 7308 00ae 3C6A     		ldr	r4, [r7, #32]
 7309 00b0 A047     		blx	r4
 7310              	.LVL694:
 334:Dsp/widget/wgt_core/UI_Controller.c ****             UI_DspInterface.draw_circle_section(Btn_Slct_RgtUp_X, Btn_Slct_RgtUp_Y, BUTTON_SELECTOR
 7311              		.loc 1 334 13 is_stmt 1 view .LVU2039
 7312 00b2 0195     		str	r5, [sp, #4]
 7313 00b4 0095     		str	r5, [sp]
 7314 00b6 0223     		movs	r3, #2
 7315 00b8 1A46     		mov	r2, r3
 7316 00ba 4946     		mov	r1, r9
 7317 00bc 5046     		mov	r0, r10
 7318 00be 3C6A     		ldr	r4, [r7, #32]
 7319 00c0 A047     		blx	r4
 7320              	.LVL695:
 335:Dsp/widget/wgt_core/UI_Controller.c ****             UI_DspInterface.draw_circle_section(Btn_Slct_RgtDwn_X, Btn_Slct_RgtDwn_Y, BUTTON_SELECT
 7321              		.loc 1 335 13 view .LVU2040
 7322 00c2 0195     		str	r5, [sp, #4]
 7323 00c4 0095     		str	r5, [sp]
 7324 00c6 0823     		movs	r3, #8
 7325 00c8 0222     		movs	r2, #2
 7326 00ca 4146     		mov	r1, r8
 7327 00cc 3046     		mov	r0, r6
 7328 00ce 3C6A     		ldr	r4, [r7, #32]
 7329 00d0 A047     		blx	r4
 7330              	.LVL696:
 336:Dsp/widget/wgt_core/UI_Controller.c ****         }
 7331              		.loc 1 336 13 view .LVU2041
 336:Dsp/widget/wgt_core/UI_Controller.c ****         }
 7332              		.loc 1 336 28 is_stmt 0 view .LVU2042
 7333 00d2 3C6A     		ldr	r4, [r7, #32]
 336:Dsp/widget/wgt_core/UI_Controller.c ****         }
 7334              		.loc 1 336 13 view .LVU2043
 7335 00d4 0195     		str	r5, [sp, #4]
 7336 00d6 0095     		str	r5, [sp]
 7337 00d8 2B46     		mov	r3, r5
 7338 00da 0222     		movs	r2, #2
 7339 00dc 4946     		mov	r1, r9
 7340 00de 3046     		mov	r0, r6
 7341 00e0 A047     		blx	r4
 7342              	.LVL697:
 7343 00e2 A3E7     		b	.L561
 7344              	.LVL698:
ARM GAS  /var/folders/lx/hc4sn_b53233_zkc9xbbl97r0000gp/T//ccErXOZH.s 			page 181


 7345              	.L572:
 338:Dsp/widget/wgt_core/UI_Controller.c ****         {
 7346              		.loc 1 338 14 is_stmt 1 view .LVU2044
 338:Dsp/widget/wgt_core/UI_Controller.c ****         {
 7347              		.loc 1 338 17 is_stmt 0 view .LVU2045
 7348 00e4 012D     		cmp	r5, #1
 7349 00e6 40F09C80 		bne	.L581
 340:Dsp/widget/wgt_core/UI_Controller.c ****             block_y = HandleToButtonObj(item->Handler)->Gen_Data.y + 1;
 7350              		.loc 1 340 13 is_stmt 1 view .LVU2046
 340:Dsp/widget/wgt_core/UI_Controller.c ****             block_y = HandleToButtonObj(item->Handler)->Gen_Data.y + 1;
 7351              		.loc 1 340 65 is_stmt 0 view .LVU2047
 7352 00ea 9C88     		ldrh	r4, [r3, #4]	@ unaligned
 7353              	.LVL699:
 340:Dsp/widget/wgt_core/UI_Controller.c ****             block_y = HandleToButtonObj(item->Handler)->Gen_Data.y + 1;
 7354              		.loc 1 340 68 view .LVU2048
 7355 00ec 0334     		adds	r4, r4, #3
 340:Dsp/widget/wgt_core/UI_Controller.c ****             block_y = HandleToButtonObj(item->Handler)->Gen_Data.y + 1;
 7356              		.loc 1 340 21 view .LVU2049
 7357 00ee 24B2     		sxth	r4, r4
 7358              	.LVL700:
 341:Dsp/widget/wgt_core/UI_Controller.c **** 
 7359              		.loc 1 341 13 is_stmt 1 view .LVU2050
 341:Dsp/widget/wgt_core/UI_Controller.c **** 
 7360              		.loc 1 341 65 is_stmt 0 view .LVU2051
 7361 00f0 DE88     		ldrh	r6, [r3, #6]	@ unaligned
 341:Dsp/widget/wgt_core/UI_Controller.c **** 
 7362              		.loc 1 341 68 view .LVU2052
 7363 00f2 0136     		adds	r6, r6, #1
 341:Dsp/widget/wgt_core/UI_Controller.c **** 
 7364              		.loc 1 341 21 view .LVU2053
 7365 00f4 36B2     		sxth	r6, r6
 7366              	.LVL701:
 343:Dsp/widget/wgt_core/UI_Controller.c **** 
 7367              		.loc 1 343 13 is_stmt 1 view .LVU2054
 343:Dsp/widget/wgt_core/UI_Controller.c **** 
 7368              		.loc 1 343 29 is_stmt 0 view .LVU2055
 7369 00f6 1868     		ldr	r0, [r3]	@ unaligned
 7370 00f8 FFF7FEFF 		bl	strlen
 7371              	.LVL702:
 343:Dsp/widget/wgt_core/UI_Controller.c **** 
 7372              		.loc 1 343 91 view .LVU2056
 7373 00fc 00EB4000 		add	r0, r0, r0, lsl #1
 7374 0100 4200     		lsls	r2, r0, #1
 7375 0102 D2B2     		uxtb	r2, r2
 7376              	.LVL703:
 345:Dsp/widget/wgt_core/UI_Controller.c ****         }
 7377              		.loc 1 345 13 is_stmt 1 view .LVU2057
 345:Dsp/widget/wgt_core/UI_Controller.c ****         }
 7378              		.loc 1 345 28 is_stmt 0 view .LVU2058
 7379 0104 4D4B     		ldr	r3, .L587+8
 7380 0106 D3F82480 		ldr	r8, [r3, #36]
 345:Dsp/widget/wgt_core/UI_Controller.c ****         }
 7381              		.loc 1 345 13 view .LVU2059
 7382 010a 1232     		adds	r2, r2, #18
 7383              	.LVL704:
 345:Dsp/widget/wgt_core/UI_Controller.c ****         }
 7384              		.loc 1 345 13 view .LVU2060
ARM GAS  /var/folders/lx/hc4sn_b53233_zkc9xbbl97r0000gp/T//ccErXOZH.s 			page 182


 7385 010c 0123     		movs	r3, #1
 7386 010e 0093     		str	r3, [sp]
 7387 0110 3B46     		mov	r3, r7
 7388 0112 02F0FE02 		and	r2, r2, #254
 7389              	.LVL705:
 345:Dsp/widget/wgt_core/UI_Controller.c ****         }
 7390              		.loc 1 345 13 view .LVU2061
 7391 0116 3146     		mov	r1, r6
 7392 0118 2046     		mov	r0, r4
 7393              	.LVL706:
 345:Dsp/widget/wgt_core/UI_Controller.c ****         }
 7394              		.loc 1 345 13 view .LVU2062
 7395 011a C047     		blx	r8
 7396              	.LVL707:
 7397 011c 86E7     		b	.L561
 7398              	.LVL708:
 7399              	.L570:
 352:Dsp/widget/wgt_core/UI_Controller.c ****         block_y = HandleToCheckBoxObj(item->Handler)->Gen_Data.y + 1;
 7400              		.loc 1 352 9 is_stmt 1 view .LVU2063
 352:Dsp/widget/wgt_core/UI_Controller.c ****         block_y = HandleToCheckBoxObj(item->Handler)->Gen_Data.y + 1;
 7401              		.loc 1 352 19 is_stmt 0 view .LVU2064
 7402 011e 6368     		ldr	r3, [r4, #4]
 352:Dsp/widget/wgt_core/UI_Controller.c ****         block_y = HandleToCheckBoxObj(item->Handler)->Gen_Data.y + 1;
 7403              		.loc 1 352 63 view .LVU2065
 7404 0120 9888     		ldrh	r0, [r3, #4]	@ unaligned
 352:Dsp/widget/wgt_core/UI_Controller.c ****         block_y = HandleToCheckBoxObj(item->Handler)->Gen_Data.y + 1;
 7405              		.loc 1 352 66 view .LVU2066
 7406 0122 0330     		adds	r0, r0, #3
 7407              	.LVL709:
 353:Dsp/widget/wgt_core/UI_Controller.c **** 
 7408              		.loc 1 353 9 is_stmt 1 view .LVU2067
 353:Dsp/widget/wgt_core/UI_Controller.c **** 
 7409              		.loc 1 353 63 is_stmt 0 view .LVU2068
 7410 0124 D988     		ldrh	r1, [r3, #6]	@ unaligned
 353:Dsp/widget/wgt_core/UI_Controller.c **** 
 7411              		.loc 1 353 66 view .LVU2069
 7412 0126 0131     		adds	r1, r1, #1
 7413              	.LVL710:
 355:Dsp/widget/wgt_core/UI_Controller.c ****         break;
 7414              		.loc 1 355 9 is_stmt 1 view .LVU2070
 355:Dsp/widget/wgt_core/UI_Controller.c ****         break;
 7415              		.loc 1 355 24 is_stmt 0 view .LVU2071
 7416 0128 444B     		ldr	r3, .L587+8
 7417 012a 5C6A     		ldr	r4, [r3, #36]
 7418              	.LVL711:
 355:Dsp/widget/wgt_core/UI_Controller.c ****         break;
 7419              		.loc 1 355 9 view .LVU2072
 7420 012c AA1F     		subs	r2, r5, #6
 7421 012e 0123     		movs	r3, #1
 7422 0130 0093     		str	r3, [sp]
 7423 0132 3B46     		mov	r3, r7
 7424 0134 D2B2     		uxtb	r2, r2
 7425 0136 09B2     		sxth	r1, r1
 355:Dsp/widget/wgt_core/UI_Controller.c ****         break;
 7426              		.loc 1 355 9 view .LVU2073
 7427 0138 00B2     		sxth	r0, r0
 355:Dsp/widget/wgt_core/UI_Controller.c ****         break;
ARM GAS  /var/folders/lx/hc4sn_b53233_zkc9xbbl97r0000gp/T//ccErXOZH.s 			page 183


 7428              		.loc 1 355 9 view .LVU2074
 7429 013a A047     		blx	r4
 7430              	.LVL712:
 356:Dsp/widget/wgt_core/UI_Controller.c **** 
 7431              		.loc 1 356 9 is_stmt 1 view .LVU2075
 430:Dsp/widget/wgt_core/UI_Controller.c **** }
 7432              		.loc 1 430 12 is_stmt 0 view .LVU2076
 7433 013c 3546     		mov	r5, r6
 7434              	.LVL713:
 356:Dsp/widget/wgt_core/UI_Controller.c **** 
 7435              		.loc 1 356 9 view .LVU2077
 7436 013e 75E7     		b	.L561
 7437              	.LVL714:
 7438              	.L569:
 359:Dsp/widget/wgt_core/UI_Controller.c **** 
 7439              		.loc 1 359 9 is_stmt 1 view .LVU2078
 359:Dsp/widget/wgt_core/UI_Controller.c **** 
 7440              		.loc 1 359 19 is_stmt 0 view .LVU2079
 7441 0140 6668     		ldr	r6, [r4, #4]
 359:Dsp/widget/wgt_core/UI_Controller.c **** 
 7442              		.loc 1 359 63 view .LVU2080
 7443 0142 F488     		ldrh	r4, [r6, #6]	@ unaligned
 7444              	.LVL715:
 359:Dsp/widget/wgt_core/UI_Controller.c **** 
 7445              		.loc 1 359 66 view .LVU2081
 7446 0144 0134     		adds	r4, r4, #1
 359:Dsp/widget/wgt_core/UI_Controller.c **** 
 7447              		.loc 1 359 17 view .LVU2082
 7448 0146 24B2     		sxth	r4, r4
 7449              	.LVL716:
 361:Dsp/widget/wgt_core/UI_Controller.c ****         {
 7450              		.loc 1 361 9 is_stmt 1 view .LVU2083
 361:Dsp/widget/wgt_core/UI_Controller.c ****         {
 7451              		.loc 1 361 14 is_stmt 0 view .LVU2084
 7452 0148 3046     		mov	r0, r6
 7453 014a FFF7FEFF 		bl	UI_SlideBar_IsSelected
 7454              	.LVL717:
 361:Dsp/widget/wgt_core/UI_Controller.c ****         {
 7455              		.loc 1 361 12 view .LVU2085
 7456 014e 60B9     		cbnz	r0, .L573
 363:Dsp/widget/wgt_core/UI_Controller.c **** 
 7457              		.loc 1 363 13 is_stmt 1 view .LVU2086
 363:Dsp/widget/wgt_core/UI_Controller.c **** 
 7458              		.loc 1 363 67 is_stmt 0 view .LVU2087
 7459 0150 B088     		ldrh	r0, [r6, #4]	@ unaligned
 363:Dsp/widget/wgt_core/UI_Controller.c **** 
 7460              		.loc 1 363 70 view .LVU2088
 7461 0152 0330     		adds	r0, r0, #3
 7462              	.LVL718:
 365:Dsp/widget/wgt_core/UI_Controller.c ****         }
 7463              		.loc 1 365 13 is_stmt 1 view .LVU2089
 365:Dsp/widget/wgt_core/UI_Controller.c ****         }
 7464              		.loc 1 365 28 is_stmt 0 view .LVU2090
 7465 0154 394B     		ldr	r3, .L587+8
 7466 0156 5E6A     		ldr	r6, [r3, #36]
 365:Dsp/widget/wgt_core/UI_Controller.c ****         }
 7467              		.loc 1 365 13 view .LVU2091
ARM GAS  /var/folders/lx/hc4sn_b53233_zkc9xbbl97r0000gp/T//ccErXOZH.s 			page 184


 7468 0158 AA1F     		subs	r2, r5, #6
 7469 015a 0125     		movs	r5, #1
 7470              	.LVL719:
 365:Dsp/widget/wgt_core/UI_Controller.c ****         }
 7471              		.loc 1 365 13 view .LVU2092
 7472 015c 0095     		str	r5, [sp]
 7473 015e 3B46     		mov	r3, r7
 7474 0160 D2B2     		uxtb	r2, r2
 7475 0162 2146     		mov	r1, r4
 7476 0164 00B2     		sxth	r0, r0
 365:Dsp/widget/wgt_core/UI_Controller.c ****         }
 7477              		.loc 1 365 13 view .LVU2093
 7478 0166 B047     		blx	r6
 7479              	.LVL720:
 365:Dsp/widget/wgt_core/UI_Controller.c ****         }
 7480              		.loc 1 365 13 view .LVU2094
 7481 0168 60E7     		b	.L561
 7482              	.LVL721:
 7483              	.L573:
 369:Dsp/widget/wgt_core/UI_Controller.c **** 
 7484              		.loc 1 369 13 is_stmt 1 view .LVU2095
 369:Dsp/widget/wgt_core/UI_Controller.c **** 
 7485              		.loc 1 369 57 is_stmt 0 view .LVU2096
 7486 016a B08C     		ldrh	r0, [r6, #36]	@ unaligned
 369:Dsp/widget/wgt_core/UI_Controller.c **** 
 7487              		.loc 1 369 70 view .LVU2097
 7488 016c 0338     		subs	r0, r0, #3
 7489 016e 82B2     		uxth	r2, r0
 7490              	.LVL722:
 371:Dsp/widget/wgt_core/UI_Controller.c ****         }
 7491              		.loc 1 371 13 is_stmt 1 view .LVU2098
 371:Dsp/widget/wgt_core/UI_Controller.c ****         }
 7492              		.loc 1 371 28 is_stmt 0 view .LVU2099
 7493 0170 324B     		ldr	r3, .L587+8
 7494 0172 5E6A     		ldr	r6, [r3, #36]
 371:Dsp/widget/wgt_core/UI_Controller.c ****         }
 7495              		.loc 1 371 76 view .LVU2100
 7496 0174 AA1A     		subs	r2, r5, r2
 7497 0176 D2B2     		uxtb	r2, r2
 371:Dsp/widget/wgt_core/UI_Controller.c ****         }
 7498              		.loc 1 371 13 view .LVU2101
 7499 0178 063A     		subs	r2, r2, #6
 7500 017a 0125     		movs	r5, #1
 7501              	.LVL723:
 371:Dsp/widget/wgt_core/UI_Controller.c ****         }
 7502              		.loc 1 371 13 view .LVU2102
 7503 017c 0095     		str	r5, [sp]
 7504 017e 3B46     		mov	r3, r7
 7505 0180 D2B2     		uxtb	r2, r2
 7506 0182 2146     		mov	r1, r4
 7507 0184 00B2     		sxth	r0, r0
 371:Dsp/widget/wgt_core/UI_Controller.c ****         }
 7508              		.loc 1 371 13 view .LVU2103
 7509 0186 B047     		blx	r6
 7510              	.LVL724:
 371:Dsp/widget/wgt_core/UI_Controller.c ****         }
 7511              		.loc 1 371 13 view .LVU2104
ARM GAS  /var/folders/lx/hc4sn_b53233_zkc9xbbl97r0000gp/T//ccErXOZH.s 			page 185


 7512 0188 50E7     		b	.L561
 7513              	.LVL725:
 7514              	.L567:
 380:Dsp/widget/wgt_core/UI_Controller.c ****         {
 7515              		.loc 1 380 9 is_stmt 1 view .LVU2105
 380:Dsp/widget/wgt_core/UI_Controller.c ****         {
 7516              		.loc 1 380 13 is_stmt 0 view .LVU2106
 7517 018a 6368     		ldr	r3, [r4, #4]
 380:Dsp/widget/wgt_core/UI_Controller.c ****         {
 7518              		.loc 1 380 43 view .LVU2107
 7519 018c 5A7D     		ldrb	r2, [r3, #21]	@ zero_extendqisi2
 380:Dsp/widget/wgt_core/UI_Controller.c ****         {
 7520              		.loc 1 380 12 view .LVU2108
 7521 018e 002A     		cmp	r2, #0
 7522 0190 49D1     		bne	.L582
 386:Dsp/widget/wgt_core/UI_Controller.c ****             block_y = HandleToDropObj(item->Handler)->Gen_Data.y + 1;
 7523              		.loc 1 386 13 is_stmt 1 view .LVU2109
 386:Dsp/widget/wgt_core/UI_Controller.c ****             block_y = HandleToDropObj(item->Handler)->Gen_Data.y + 1;
 7524              		.loc 1 386 63 is_stmt 0 view .LVU2110
 7525 0192 9888     		ldrh	r0, [r3, #4]	@ unaligned
 386:Dsp/widget/wgt_core/UI_Controller.c ****             block_y = HandleToDropObj(item->Handler)->Gen_Data.y + 1;
 7526              		.loc 1 386 66 view .LVU2111
 7527 0194 0330     		adds	r0, r0, #3
 7528              	.LVL726:
 387:Dsp/widget/wgt_core/UI_Controller.c ****             UI_DspInterface.fill_rectangle(block_x, block_y, (widget_width - 6), selector_height, t
 7529              		.loc 1 387 13 is_stmt 1 view .LVU2112
 387:Dsp/widget/wgt_core/UI_Controller.c ****             UI_DspInterface.fill_rectangle(block_x, block_y, (widget_width - 6), selector_height, t
 7530              		.loc 1 387 63 is_stmt 0 view .LVU2113
 7531 0196 D988     		ldrh	r1, [r3, #6]	@ unaligned
 387:Dsp/widget/wgt_core/UI_Controller.c ****             UI_DspInterface.fill_rectangle(block_x, block_y, (widget_width - 6), selector_height, t
 7532              		.loc 1 387 66 view .LVU2114
 7533 0198 0131     		adds	r1, r1, #1
 7534              	.LVL727:
 388:Dsp/widget/wgt_core/UI_Controller.c ****         }
 7535              		.loc 1 388 13 is_stmt 1 view .LVU2115
 388:Dsp/widget/wgt_core/UI_Controller.c ****         }
 7536              		.loc 1 388 28 is_stmt 0 view .LVU2116
 7537 019a 284B     		ldr	r3, .L587+8
 7538 019c 5C6A     		ldr	r4, [r3, #36]
 7539              	.LVL728:
 388:Dsp/widget/wgt_core/UI_Controller.c ****         }
 7540              		.loc 1 388 13 view .LVU2117
 7541 019e AA1F     		subs	r2, r5, #6
 7542 01a0 0125     		movs	r5, #1
 7543              	.LVL729:
 388:Dsp/widget/wgt_core/UI_Controller.c ****         }
 7544              		.loc 1 388 13 view .LVU2118
 7545 01a2 0095     		str	r5, [sp]
 7546 01a4 3B46     		mov	r3, r7
 7547 01a6 D2B2     		uxtb	r2, r2
 7548 01a8 09B2     		sxth	r1, r1
 388:Dsp/widget/wgt_core/UI_Controller.c ****         }
 7549              		.loc 1 388 13 view .LVU2119
 7550 01aa 00B2     		sxth	r0, r0
 388:Dsp/widget/wgt_core/UI_Controller.c ****         }
 7551              		.loc 1 388 13 view .LVU2120
 7552 01ac A047     		blx	r4
ARM GAS  /var/folders/lx/hc4sn_b53233_zkc9xbbl97r0000gp/T//ccErXOZH.s 			page 186


 7553              	.LVL730:
 388:Dsp/widget/wgt_core/UI_Controller.c ****         }
 7554              		.loc 1 388 13 view .LVU2121
 7555 01ae 3DE7     		b	.L561
 7556              	.LVL731:
 7557              	.L566:
 393:Dsp/widget/wgt_core/UI_Controller.c **** 
 7558              		.loc 1 393 9 is_stmt 1 view .LVU2122
 393:Dsp/widget/wgt_core/UI_Controller.c **** 
 7559              		.loc 1 393 19 is_stmt 0 view .LVU2123
 7560 01b0 6368     		ldr	r3, [r4, #4]
 393:Dsp/widget/wgt_core/UI_Controller.c **** 
 7561              		.loc 1 393 17 view .LVU2124
 7562 01b2 B3F90610 		ldrsh	r1, [r3, #6]	@ unaligned
 7563              	.LVL732:
 395:Dsp/widget/wgt_core/UI_Controller.c ****         {
 7564              		.loc 1 395 9 is_stmt 1 view .LVU2125
 395:Dsp/widget/wgt_core/UI_Controller.c ****         {
 7565              		.loc 1 395 47 is_stmt 0 view .LVU2126
 7566 01b6 93F83F20 		ldrb	r2, [r3, #63]	@ zero_extendqisi2
 395:Dsp/widget/wgt_core/UI_Controller.c ****         {
 7567              		.loc 1 395 12 view .LVU2127
 7568 01ba 002A     		cmp	r2, #0
 7569 01bc 35D1     		bne	.L583
 401:Dsp/widget/wgt_core/UI_Controller.c ****             UI_DspInterface.fill_rectangle(block_x, block_y, (widget_width - 6), selector_height, t
 7570              		.loc 1 401 13 is_stmt 1 view .LVU2128
 401:Dsp/widget/wgt_core/UI_Controller.c ****             UI_DspInterface.fill_rectangle(block_x, block_y, (widget_width - 6), selector_height, t
 7571              		.loc 1 401 67 is_stmt 0 view .LVU2129
 7572 01be 9888     		ldrh	r0, [r3, #4]	@ unaligned
 401:Dsp/widget/wgt_core/UI_Controller.c ****             UI_DspInterface.fill_rectangle(block_x, block_y, (widget_width - 6), selector_height, t
 7573              		.loc 1 401 70 view .LVU2130
 7574 01c0 0330     		adds	r0, r0, #3
 7575              	.LVL733:
 402:Dsp/widget/wgt_core/UI_Controller.c ****         }
 7576              		.loc 1 402 13 is_stmt 1 view .LVU2131
 402:Dsp/widget/wgt_core/UI_Controller.c ****         }
 7577              		.loc 1 402 28 is_stmt 0 view .LVU2132
 7578 01c2 1E4B     		ldr	r3, .L587+8
 7579              	.LVL734:
 402:Dsp/widget/wgt_core/UI_Controller.c ****         }
 7580              		.loc 1 402 28 view .LVU2133
 7581 01c4 5C6A     		ldr	r4, [r3, #36]
 7582              	.LVL735:
 402:Dsp/widget/wgt_core/UI_Controller.c ****         }
 7583              		.loc 1 402 13 view .LVU2134
 7584 01c6 AA1F     		subs	r2, r5, #6
 7585 01c8 0125     		movs	r5, #1
 7586              	.LVL736:
 402:Dsp/widget/wgt_core/UI_Controller.c ****         }
 7587              		.loc 1 402 13 view .LVU2135
 7588 01ca 0095     		str	r5, [sp]
 7589              	.LVL737:
 402:Dsp/widget/wgt_core/UI_Controller.c ****         }
 7590              		.loc 1 402 13 view .LVU2136
 7591 01cc 3B46     		mov	r3, r7
 7592 01ce D2B2     		uxtb	r2, r2
 7593 01d0 00B2     		sxth	r0, r0
ARM GAS  /var/folders/lx/hc4sn_b53233_zkc9xbbl97r0000gp/T//ccErXOZH.s 			page 187


 402:Dsp/widget/wgt_core/UI_Controller.c ****         }
 7594              		.loc 1 402 13 view .LVU2137
 7595 01d2 A047     		blx	r4
 7596              	.LVL738:
 402:Dsp/widget/wgt_core/UI_Controller.c ****         }
 7597              		.loc 1 402 13 view .LVU2138
 7598 01d4 2AE7     		b	.L561
 7599              	.LVL739:
 7600              	.L565:
 407:Dsp/widget/wgt_core/UI_Controller.c **** 
 7601              		.loc 1 407 9 is_stmt 1 view .LVU2139
 407:Dsp/widget/wgt_core/UI_Controller.c **** 
 7602              		.loc 1 407 19 is_stmt 0 view .LVU2140
 7603 01d6 6368     		ldr	r3, [r4, #4]
 407:Dsp/widget/wgt_core/UI_Controller.c **** 
 7604              		.loc 1 407 17 view .LVU2141
 7605 01d8 B3F90610 		ldrsh	r1, [r3, #6]	@ unaligned
 7606              	.LVL740:
 409:Dsp/widget/wgt_core/UI_Controller.c ****         {
 7607              		.loc 1 409 9 is_stmt 1 view .LVU2142
 409:Dsp/widget/wgt_core/UI_Controller.c ****         {
 7608              		.loc 1 409 47 is_stmt 0 view .LVU2143
 7609 01dc 1A7F     		ldrb	r2, [r3, #28]	@ zero_extendqisi2
 409:Dsp/widget/wgt_core/UI_Controller.c ****         {
 7610              		.loc 1 409 12 view .LVU2144
 7611 01de 32BB     		cbnz	r2, .L584
 415:Dsp/widget/wgt_core/UI_Controller.c ****             UI_DspInterface.fill_rectangle(block_x, block_y, (widget_width - 6), selector_height, t
 7612              		.loc 1 415 13 is_stmt 1 view .LVU2145
 415:Dsp/widget/wgt_core/UI_Controller.c ****             UI_DspInterface.fill_rectangle(block_x, block_y, (widget_width - 6), selector_height, t
 7613              		.loc 1 415 67 is_stmt 0 view .LVU2146
 7614 01e0 9888     		ldrh	r0, [r3, #4]	@ unaligned
 415:Dsp/widget/wgt_core/UI_Controller.c ****             UI_DspInterface.fill_rectangle(block_x, block_y, (widget_width - 6), selector_height, t
 7615              		.loc 1 415 70 view .LVU2147
 7616 01e2 0330     		adds	r0, r0, #3
 7617              	.LVL741:
 416:Dsp/widget/wgt_core/UI_Controller.c ****         }
 7618              		.loc 1 416 13 is_stmt 1 view .LVU2148
 416:Dsp/widget/wgt_core/UI_Controller.c ****         }
 7619              		.loc 1 416 28 is_stmt 0 view .LVU2149
 7620 01e4 154B     		ldr	r3, .L587+8
 7621              	.LVL742:
 416:Dsp/widget/wgt_core/UI_Controller.c ****         }
 7622              		.loc 1 416 28 view .LVU2150
 7623 01e6 5C6A     		ldr	r4, [r3, #36]
 7624              	.LVL743:
 416:Dsp/widget/wgt_core/UI_Controller.c ****         }
 7625              		.loc 1 416 13 view .LVU2151
 7626 01e8 AA1F     		subs	r2, r5, #6
 7627 01ea 0125     		movs	r5, #1
 7628              	.LVL744:
 416:Dsp/widget/wgt_core/UI_Controller.c ****         }
 7629              		.loc 1 416 13 view .LVU2152
 7630 01ec 0095     		str	r5, [sp]
 7631              	.LVL745:
 416:Dsp/widget/wgt_core/UI_Controller.c ****         }
 7632              		.loc 1 416 13 view .LVU2153
 7633 01ee 3B46     		mov	r3, r7
ARM GAS  /var/folders/lx/hc4sn_b53233_zkc9xbbl97r0000gp/T//ccErXOZH.s 			page 188


 7634 01f0 D2B2     		uxtb	r2, r2
 7635 01f2 00B2     		sxth	r0, r0
 416:Dsp/widget/wgt_core/UI_Controller.c ****         }
 7636              		.loc 1 416 13 view .LVU2154
 7637 01f4 A047     		blx	r4
 7638              	.LVL746:
 416:Dsp/widget/wgt_core/UI_Controller.c ****         }
 7639              		.loc 1 416 13 view .LVU2155
 7640 01f6 19E7     		b	.L561
 7641              	.LVL747:
 7642              	.L563:
 421:Dsp/widget/wgt_core/UI_Controller.c ****         block_x = HandleToTriggerLabelObj(item->Handler)->Gen_Data.x + 3;
 7643              		.loc 1 421 9 is_stmt 1 view .LVU2156
 421:Dsp/widget/wgt_core/UI_Controller.c ****         block_x = HandleToTriggerLabelObj(item->Handler)->Gen_Data.x + 3;
 7644              		.loc 1 421 19 is_stmt 0 view .LVU2157
 7645 01f8 6368     		ldr	r3, [r4, #4]
 421:Dsp/widget/wgt_core/UI_Controller.c ****         block_x = HandleToTriggerLabelObj(item->Handler)->Gen_Data.x + 3;
 7646              		.loc 1 421 17 view .LVU2158
 7647 01fa B3F90610 		ldrsh	r1, [r3, #6]	@ unaligned
 7648              	.LVL748:
 422:Dsp/widget/wgt_core/UI_Controller.c ****         UI_DspInterface.fill_rectangle(block_x, block_y, (widget_width - 6), selector_height, true)
 7649              		.loc 1 422 9 is_stmt 1 view .LVU2159
 422:Dsp/widget/wgt_core/UI_Controller.c ****         UI_DspInterface.fill_rectangle(block_x, block_y, (widget_width - 6), selector_height, true)
 7650              		.loc 1 422 67 is_stmt 0 view .LVU2160
 7651 01fe 9888     		ldrh	r0, [r3, #4]	@ unaligned
 422:Dsp/widget/wgt_core/UI_Controller.c ****         UI_DspInterface.fill_rectangle(block_x, block_y, (widget_width - 6), selector_height, true)
 7652              		.loc 1 422 70 view .LVU2161
 7653 0200 0330     		adds	r0, r0, #3
 7654              	.LVL749:
 423:Dsp/widget/wgt_core/UI_Controller.c ****         break;
 7655              		.loc 1 423 9 is_stmt 1 view .LVU2162
 423:Dsp/widget/wgt_core/UI_Controller.c ****         break;
 7656              		.loc 1 423 24 is_stmt 0 view .LVU2163
 7657 0202 0E4B     		ldr	r3, .L587+8
 7658              	.LVL750:
 423:Dsp/widget/wgt_core/UI_Controller.c ****         break;
 7659              		.loc 1 423 24 view .LVU2164
 7660 0204 5C6A     		ldr	r4, [r3, #36]
 7661              	.LVL751:
 423:Dsp/widget/wgt_core/UI_Controller.c ****         break;
 7662              		.loc 1 423 9 view .LVU2165
 7663 0206 AA1F     		subs	r2, r5, #6
 7664 0208 0125     		movs	r5, #1
 7665              	.LVL752:
 423:Dsp/widget/wgt_core/UI_Controller.c ****         break;
 7666              		.loc 1 423 9 view .LVU2166
 7667 020a 0095     		str	r5, [sp]
 7668              	.LVL753:
 423:Dsp/widget/wgt_core/UI_Controller.c ****         break;
 7669              		.loc 1 423 9 view .LVU2167
 7670 020c 3B46     		mov	r3, r7
 7671 020e D2B2     		uxtb	r2, r2
 7672 0210 00B2     		sxth	r0, r0
 423:Dsp/widget/wgt_core/UI_Controller.c ****         break;
 7673              		.loc 1 423 9 view .LVU2168
 7674 0212 A047     		blx	r4
 7675              	.LVL754:
ARM GAS  /var/folders/lx/hc4sn_b53233_zkc9xbbl97r0000gp/T//ccErXOZH.s 			page 189


 424:Dsp/widget/wgt_core/UI_Controller.c **** 
 7676              		.loc 1 424 9 is_stmt 1 view .LVU2169
 7677 0214 0AE7     		b	.L561
 7678              	.LVL755:
 7679              	.L575:
 293:Dsp/widget/wgt_core/UI_Controller.c **** 
 7680              		.loc 1 293 16 is_stmt 0 view .LVU2170
 7681 0216 0025     		movs	r5, #0
 7682              	.LVL756:
 293:Dsp/widget/wgt_core/UI_Controller.c **** 
 7683              		.loc 1 293 16 view .LVU2171
 7684 0218 08E7     		b	.L561
 7685              	.LVL757:
 7686              	.L579:
 427:Dsp/widget/wgt_core/UI_Controller.c ****     }
 7687              		.loc 1 427 16 view .LVU2172
 7688 021a 0025     		movs	r5, #0
 7689              	.LVL758:
 427:Dsp/widget/wgt_core/UI_Controller.c ****     }
 7690              		.loc 1 427 16 view .LVU2173
 7691 021c 06E7     		b	.L561
 7692              	.LVL759:
 7693              	.L580:
 315:Dsp/widget/wgt_core/UI_Controller.c **** 
 7694              		.loc 1 315 20 view .LVU2174
 7695 021e 3546     		mov	r5, r6
 7696              	.LVL760:
 315:Dsp/widget/wgt_core/UI_Controller.c **** 
 7697              		.loc 1 315 20 view .LVU2175
 7698 0220 04E7     		b	.L561
 7699              	.L581:
 348:Dsp/widget/wgt_core/UI_Controller.c ****         break;
 7700              		.loc 1 348 20 view .LVU2176
 7701 0222 3546     		mov	r5, r6
 7702 0224 02E7     		b	.L561
 7703              	.LVL761:
 7704              	.L582:
 430:Dsp/widget/wgt_core/UI_Controller.c **** }
 7705              		.loc 1 430 12 view .LVU2177
 7706 0226 0125     		movs	r5, #1
 7707              	.LVL762:
 430:Dsp/widget/wgt_core/UI_Controller.c **** }
 7708              		.loc 1 430 12 view .LVU2178
 7709 0228 00E7     		b	.L561
 7710              	.LVL763:
 7711              	.L583:
 430:Dsp/widget/wgt_core/UI_Controller.c **** }
 7712              		.loc 1 430 12 view .LVU2179
 7713 022a 0125     		movs	r5, #1
 7714              	.LVL764:
 430:Dsp/widget/wgt_core/UI_Controller.c **** }
 7715              		.loc 1 430 12 view .LVU2180
 7716 022c FEE6     		b	.L561
 7717              	.LVL765:
 7718              	.L584:
 430:Dsp/widget/wgt_core/UI_Controller.c **** }
 7719              		.loc 1 430 12 view .LVU2181
ARM GAS  /var/folders/lx/hc4sn_b53233_zkc9xbbl97r0000gp/T//ccErXOZH.s 			page 190


 7720 022e 0125     		movs	r5, #1
 7721              	.LVL766:
 430:Dsp/widget/wgt_core/UI_Controller.c **** }
 7722              		.loc 1 430 12 view .LVU2182
 7723 0230 FCE6     		b	.L561
 7724              	.L588:
 7725 0232 00BF     		.align	2
 7726              	.L587:
 7727 0234 00000000 		.word	.LANCHOR1
 7728 0238 00000000 		.word	.LANCHOR2
 7729 023c 00000000 		.word	.LANCHOR0
 7730              		.cfi_endproc
 7731              	.LFE8:
 7733              		.global	UI_TriggerLabel
 7734              		.global	UI_StrInput
 7735              		.global	UI_DigInput
 7736              		.global	UI_Drop
 7737              		.global	UI_ProcessBar
 7738              		.global	UI_SlideBar
 7739              		.global	UI_CheckBox
 7740              		.global	UI_Button
 7741              		.global	UI_Get_WidgetWidth
 7742              		.section	.bss.UI_DspInterface,"aw",%nobits
 7743              		.align	2
 7744              		.set	.LANCHOR0,. + 0
 7747              	UI_DspInterface:
 7748 0000 00000000 		.space	52
 7748      00000000 
 7748      00000000 
 7748      00000000 
 7748      00000000 
 7749              		.section	.bss.UI_Get_WidgetWidth,"aw",%nobits
 7750              		.align	2
 7751              		.set	.LANCHOR1,. + 0
 7754              	UI_Get_WidgetWidth:
 7755 0000 00000000 		.space	4
 7756              		.section	.data.UI_Button,"aw"
 7757              		.align	2
 7760              	UI_Button:
 7761 0000 00000000 		.word	UI_Button_Init
 7762 0004 00000000 		.word	UI_Button_Set_TriggerCallback
 7763 0008 00000000 		.word	UI_Button_Set_Label
 7764 000c 00000000 		.word	UI_Button_Push
 7765 0010 00000000 		.word	UI_Button_Release
 7766 0014 00000000 		.space	4
 7767 0018 00000000 		.word	UI_Button_Ctl
 7768 001c 00000000 		.word	UI_Button_Move
 7769              		.section	.data.UI_CheckBox,"aw"
 7770              		.align	2
 7773              	UI_CheckBox:
 7774 0000 00000000 		.word	UI_CheckBox_Init
 7775 0004 00000000 		.word	UI_CheckBox_SetCallback
 7776 0008 00000000 		.word	UI_CheckBox_Move
 7777 000c 00000000 		.word	UI_CheckBox_Trigger
 7778 0010 00000000 		.word	UI_CheckBox_Ctl
 7779              		.section	.data.UI_DigInput,"aw"
 7780              		.align	2
ARM GAS  /var/folders/lx/hc4sn_b53233_zkc9xbbl97r0000gp/T//ccErXOZH.s 			page 191


 7783              	UI_DigInput:
 7784 0000 00000000 		.word	UI_DigInput_Init
 7785 0004 00000000 		.word	UI_DigInput_SetIntRange
 7786 0008 00000000 		.word	UI_DigInput_SetDouRange
 7787 000c 00000000 		.word	UI_DigInput_Move
 7788 0010 00000000 		.word	UI_DigInput_GetIntVal
 7789 0014 00000000 		.word	UI_DigInput_GetDoubleVal
 7790 0018 00000000 		.word	UI_DigInput_SetCallback
 7791 001c 00000000 		.word	UI_DigInput_GetEffectSize
 7792 0020 00000000 		.word	UI_DigInput_SetSelectStatus
 7793 0024 00000000 		.word	UI_DigInput_InputValue
 7794 0028 00000000 		.word	UI_DigInput_CTL
 7795              		.section	.data.UI_Drop,"aw"
 7796              		.align	2
 7799              	UI_Drop:
 7800 0000 00000000 		.word	UI_Drop_Init
 7801 0004 00000000 		.word	UI_Drop_AddDropItem
 7802 0008 00000000 		.word	UI_Drop_Move
 7803 000c 00000000 		.word	UI_Drop_SelectItem
 7804 0010 00000000 		.word	UI_Drop_SetSelect
 7805 0014 00000000 		.word	UI_Drop_GetSelect
 7806 0018 00000000 		.word	UI_Drop_Ctl
 7807              		.section	.data.UI_ProcessBar,"aw"
 7808              		.align	2
 7811              	UI_ProcessBar:
 7812 0000 00000000 		.word	UI_ProcessBar_Init
 7813 0004 00000000 		.word	UI_ProcessBar_Move
 7814 0008 00000000 		.word	UI_ProcessBar_SetDspDir
 7815 000c 00000000 		.word	UI_ProcessBar_SetCurVal
 7816 0010 00000000 		.word	UI_ProcessBar_Ctl
 7817 0014 00000000 		.space	8
 7817      00000000 
 7818 001c 00000000 		.word	UI_ProcessBar_SetLabelPos
 7819              		.section	.data.UI_SlideBar,"aw"
 7820              		.align	2
 7823              	UI_SlideBar:
 7824 0000 00000000 		.word	UI_SlideBar_Init
 7825 0004 00000000 		.word	UI_SlideBar_SetCallBack
 7826 0008 00000000 		.word	UI_SlideBar_Move
 7827 000c 00000000 		.word	UI_SlideBar_Input
 7828 0010 00000000 		.word	UI_SlideBar_Trigger
 7829 0014 00000000 		.word	UI_SlideBar_CTL
 7830 0018 00000000 		.word	UI_SlideBar_SetSelect
 7831 001c 00000000 		.word	UI_SlideBar_IsSelected
 7832              		.section	.data.UI_StrInput,"aw"
 7833              		.align	2
 7836              	UI_StrInput:
 7837 0000 00000000 		.word	UI_StrInput_Init
 7838 0004 00000000 		.word	UI_StrInput_Move
 7839 0008 00000000 		.word	UI_StrInput_SetCallback
 7840 000c 00000000 		.word	UI_StrInput_Select
 7841 0010 00000000 		.word	UI_StrInput_SetChar
 7842 0014 00000000 		.word	UI_StrInput_GetStr
 7843 0018 00000000 		.word	UI_StrInput_Ctl
 7844              		.section	.data.UI_TriggerLabel,"aw"
 7845              		.align	2
 7848              	UI_TriggerLabel:
ARM GAS  /var/folders/lx/hc4sn_b53233_zkc9xbbl97r0000gp/T//ccErXOZH.s 			page 192


 7849 0000 00000000 		.word	UI_TriggerLabel_Init
 7850 0004 00000000 		.word	UI_TriggerLabel_Move
 7851 0008 00000000 		.word	UI_TriggerLabel_SetCallback
 7852 000c 00000000 		.word	UI_TriggerLabel_Trigger
 7853 0010 00000000 		.word	UI_TriggerLabel_Ctl
 7854              		.section	.data.base_font,"aw"
 7855              		.set	.LANCHOR2,. + 0
 7858              	base_font:
 7859 0000 08       		.byte	8
 7860              		.text
 7861              	.Letext0:
 7862              		.file 2 "/usr/local/arm-none-eabi-gcc/gcc-arm-none-eabi-10-2020-q4-major/arm-none-eabi/include/mac
 7863              		.file 3 "/usr/local/arm-none-eabi-gcc/gcc-arm-none-eabi-10-2020-q4-major/arm-none-eabi/include/sys
 7864              		.file 4 "Dsp/screen/font/oledfont.h"
 7865              		.file 5 "SYS/data_structure/linked_list.h"
 7866              		.file 6 "Dsp/widget/wgt_core/UI_Controller.h"
 7867              		.file 7 "/usr/local/arm-none-eabi-gcc/gcc-arm-none-eabi-10-2020-q4-major/arm-none-eabi/include/str
 7868              		.file 8 "SYS/memng/mmu.h"
 7869              		.file 9 "/usr/local/arm-none-eabi-gcc/gcc-arm-none-eabi-10-2020-q4-major/arm-none-eabi/include/std
 7870              		.file 10 "<built-in>"
 7871              		.file 11 "/usr/local/arm-none-eabi-gcc/gcc-arm-none-eabi-10-2020-q4-major/arm-none-eabi/include/ma
ARM GAS  /var/folders/lx/hc4sn_b53233_zkc9xbbl97r0000gp/T//ccErXOZH.s 			page 193


DEFINED SYMBOLS
                            *ABS*:0000000000000000 UI_Controller.c
/var/folders/lx/hc4sn_b53233_zkc9xbbl97r0000gp/T//ccErXOZH.s:18     .text.UI_Draw_HorDotLine:0000000000000000 $t
/var/folders/lx/hc4sn_b53233_zkc9xbbl97r0000gp/T//ccErXOZH.s:25     .text.UI_Draw_HorDotLine:0000000000000000 UI_Draw_HorDotLine
/var/folders/lx/hc4sn_b53233_zkc9xbbl97r0000gp/T//ccErXOZH.s:153    .text.UI_Draw_HorDotLine:0000000000000060 $d
/var/folders/lx/hc4sn_b53233_zkc9xbbl97r0000gp/T//ccErXOZH.s:159    .text.UI_GenData_Init:0000000000000000 $t
/var/folders/lx/hc4sn_b53233_zkc9xbbl97r0000gp/T//ccErXOZH.s:165    .text.UI_GenData_Init:0000000000000000 UI_GenData_Init
/var/folders/lx/hc4sn_b53233_zkc9xbbl97r0000gp/T//ccErXOZH.s:197    .text.UI_Move:0000000000000000 $t
/var/folders/lx/hc4sn_b53233_zkc9xbbl97r0000gp/T//ccErXOZH.s:203    .text.UI_Move:0000000000000000 UI_Move
/var/folders/lx/hc4sn_b53233_zkc9xbbl97r0000gp/T//ccErXOZH.s:237    .rodata.UI_Button_Init.str1.4:0000000000000000 $d
/var/folders/lx/hc4sn_b53233_zkc9xbbl97r0000gp/T//ccErXOZH.s:244    .text.UI_Button_Init:0000000000000000 $t
/var/folders/lx/hc4sn_b53233_zkc9xbbl97r0000gp/T//ccErXOZH.s:250    .text.UI_Button_Init:0000000000000000 UI_Button_Init
/var/folders/lx/hc4sn_b53233_zkc9xbbl97r0000gp/T//ccErXOZH.s:321    .text.UI_Button_Init:0000000000000048 $d
/var/folders/lx/hc4sn_b53233_zkc9xbbl97r0000gp/T//ccErXOZH.s:327    .text.UI_Button_Set_Label:0000000000000000 $t
/var/folders/lx/hc4sn_b53233_zkc9xbbl97r0000gp/T//ccErXOZH.s:333    .text.UI_Button_Set_Label:0000000000000000 UI_Button_Set_Label
/var/folders/lx/hc4sn_b53233_zkc9xbbl97r0000gp/T//ccErXOZH.s:377    .text.UI_Button_Set_TriggerCallback:0000000000000000 $t
/var/folders/lx/hc4sn_b53233_zkc9xbbl97r0000gp/T//ccErXOZH.s:383    .text.UI_Button_Set_TriggerCallback:0000000000000000 UI_Button_Set_TriggerCallback
/var/folders/lx/hc4sn_b53233_zkc9xbbl97r0000gp/T//ccErXOZH.s:437    .text.UI_Button_Push:0000000000000000 $t
/var/folders/lx/hc4sn_b53233_zkc9xbbl97r0000gp/T//ccErXOZH.s:443    .text.UI_Button_Push:0000000000000000 UI_Button_Push
/var/folders/lx/hc4sn_b53233_zkc9xbbl97r0000gp/T//ccErXOZH.s:560    .text.UI_Button_Release:0000000000000000 $t
/var/folders/lx/hc4sn_b53233_zkc9xbbl97r0000gp/T//ccErXOZH.s:566    .text.UI_Button_Release:0000000000000000 UI_Button_Release
/var/folders/lx/hc4sn_b53233_zkc9xbbl97r0000gp/T//ccErXOZH.s:652    .text.UI_Button_Move:0000000000000000 $t
/var/folders/lx/hc4sn_b53233_zkc9xbbl97r0000gp/T//ccErXOZH.s:658    .text.UI_Button_Move:0000000000000000 UI_Button_Move
/var/folders/lx/hc4sn_b53233_zkc9xbbl97r0000gp/T//ccErXOZH.s:699    .text.UI_CheckBox_Init:0000000000000000 $t
/var/folders/lx/hc4sn_b53233_zkc9xbbl97r0000gp/T//ccErXOZH.s:705    .text.UI_CheckBox_Init:0000000000000000 UI_CheckBox_Init
/var/folders/lx/hc4sn_b53233_zkc9xbbl97r0000gp/T//ccErXOZH.s:756    .text.UI_CheckBox_SetCallback:0000000000000000 $t
/var/folders/lx/hc4sn_b53233_zkc9xbbl97r0000gp/T//ccErXOZH.s:762    .text.UI_CheckBox_SetCallback:0000000000000000 UI_CheckBox_SetCallback
/var/folders/lx/hc4sn_b53233_zkc9xbbl97r0000gp/T//ccErXOZH.s:793    .text.UI_CheckBox_Move:0000000000000000 $t
/var/folders/lx/hc4sn_b53233_zkc9xbbl97r0000gp/T//ccErXOZH.s:799    .text.UI_CheckBox_Move:0000000000000000 UI_CheckBox_Move
/var/folders/lx/hc4sn_b53233_zkc9xbbl97r0000gp/T//ccErXOZH.s:836    .text.UI_CheckBox_Trigger:0000000000000000 $t
/var/folders/lx/hc4sn_b53233_zkc9xbbl97r0000gp/T//ccErXOZH.s:842    .text.UI_CheckBox_Trigger:0000000000000000 UI_CheckBox_Trigger
/var/folders/lx/hc4sn_b53233_zkc9xbbl97r0000gp/T//ccErXOZH.s:904    .text.UI_SlideBar_Init:0000000000000000 $t
/var/folders/lx/hc4sn_b53233_zkc9xbbl97r0000gp/T//ccErXOZH.s:910    .text.UI_SlideBar_Init:0000000000000000 UI_SlideBar_Init
/var/folders/lx/hc4sn_b53233_zkc9xbbl97r0000gp/T//ccErXOZH.s:1056   .text.UI_SlideBar_Move:0000000000000000 $t
/var/folders/lx/hc4sn_b53233_zkc9xbbl97r0000gp/T//ccErXOZH.s:1062   .text.UI_SlideBar_Move:0000000000000000 UI_SlideBar_Move
/var/folders/lx/hc4sn_b53233_zkc9xbbl97r0000gp/T//ccErXOZH.s:1099   .text.UI_SlideBar_SetCallBack:0000000000000000 $t
/var/folders/lx/hc4sn_b53233_zkc9xbbl97r0000gp/T//ccErXOZH.s:1105   .text.UI_SlideBar_SetCallBack:0000000000000000 UI_SlideBar_SetCallBack
/var/folders/lx/hc4sn_b53233_zkc9xbbl97r0000gp/T//ccErXOZH.s:1136   .text.UI_SlideBar_Input:0000000000000000 $t
/var/folders/lx/hc4sn_b53233_zkc9xbbl97r0000gp/T//ccErXOZH.s:1142   .text.UI_SlideBar_Input:0000000000000000 UI_SlideBar_Input
/var/folders/lx/hc4sn_b53233_zkc9xbbl97r0000gp/T//ccErXOZH.s:1235   .text.UI_SlideBar_Trigger:0000000000000000 $t
/var/folders/lx/hc4sn_b53233_zkc9xbbl97r0000gp/T//ccErXOZH.s:1241   .text.UI_SlideBar_Trigger:0000000000000000 UI_SlideBar_Trigger
/var/folders/lx/hc4sn_b53233_zkc9xbbl97r0000gp/T//ccErXOZH.s:1305   .text.UI_SlideBar_SetSelect:0000000000000000 $t
/var/folders/lx/hc4sn_b53233_zkc9xbbl97r0000gp/T//ccErXOZH.s:1311   .text.UI_SlideBar_SetSelect:0000000000000000 UI_SlideBar_SetSelect
/var/folders/lx/hc4sn_b53233_zkc9xbbl97r0000gp/T//ccErXOZH.s:1333   .text.UI_SlideBar_IsSelected:0000000000000000 $t
/var/folders/lx/hc4sn_b53233_zkc9xbbl97r0000gp/T//ccErXOZH.s:1339   .text.UI_SlideBar_IsSelected:0000000000000000 UI_SlideBar_IsSelected
/var/folders/lx/hc4sn_b53233_zkc9xbbl97r0000gp/T//ccErXOZH.s:1367   .text.UI_ProcessBar_Init:0000000000000000 $t
/var/folders/lx/hc4sn_b53233_zkc9xbbl97r0000gp/T//ccErXOZH.s:1373   .text.UI_ProcessBar_Init:0000000000000000 UI_ProcessBar_Init
/var/folders/lx/hc4sn_b53233_zkc9xbbl97r0000gp/T//ccErXOZH.s:1503   .text.UI_ProcessBar_Init:000000000000007c $d
/var/folders/lx/hc4sn_b53233_zkc9xbbl97r0000gp/T//ccErXOZH.s:1508   .text.UI_ProcessBar_SetDspDir:0000000000000000 $t
/var/folders/lx/hc4sn_b53233_zkc9xbbl97r0000gp/T//ccErXOZH.s:1514   .text.UI_ProcessBar_SetDspDir:0000000000000000 UI_ProcessBar_SetDspDir
/var/folders/lx/hc4sn_b53233_zkc9xbbl97r0000gp/T//ccErXOZH.s:1559   .text.UI_ProcessBar_SetCurVal:0000000000000000 $t
/var/folders/lx/hc4sn_b53233_zkc9xbbl97r0000gp/T//ccErXOZH.s:1565   .text.UI_ProcessBar_SetCurVal:0000000000000000 UI_ProcessBar_SetCurVal
/var/folders/lx/hc4sn_b53233_zkc9xbbl97r0000gp/T//ccErXOZH.s:1653   .text.UI_ProcessBar_Move:0000000000000000 $t
/var/folders/lx/hc4sn_b53233_zkc9xbbl97r0000gp/T//ccErXOZH.s:1659   .text.UI_ProcessBar_Move:0000000000000000 UI_ProcessBar_Move
/var/folders/lx/hc4sn_b53233_zkc9xbbl97r0000gp/T//ccErXOZH.s:1700   .text.UI_ProcessBar_DspDotBar:0000000000000000 $t
/var/folders/lx/hc4sn_b53233_zkc9xbbl97r0000gp/T//ccErXOZH.s:1706   .text.UI_ProcessBar_DspDotBar:0000000000000000 UI_ProcessBar_DspDotBar
/var/folders/lx/hc4sn_b53233_zkc9xbbl97r0000gp/T//ccErXOZH.s:2129   .text.UI_ProcessBar_DspDotBar:0000000000000240 $d
ARM GAS  /var/folders/lx/hc4sn_b53233_zkc9xbbl97r0000gp/T//ccErXOZH.s 			page 194


/var/folders/lx/hc4sn_b53233_zkc9xbbl97r0000gp/T//ccErXOZH.s:2135   .text.UI_ProcessBar_DspFrameBar:0000000000000000 $t
/var/folders/lx/hc4sn_b53233_zkc9xbbl97r0000gp/T//ccErXOZH.s:2141   .text.UI_ProcessBar_DspFrameBar:0000000000000000 UI_ProcessBar_DspFrameBar
/var/folders/lx/hc4sn_b53233_zkc9xbbl97r0000gp/T//ccErXOZH.s:2521   .text.UI_ProcessBar_DspFrameBar:00000000000001ec $d
/var/folders/lx/hc4sn_b53233_zkc9xbbl97r0000gp/T//ccErXOZH.s:2527   .text.UI_ProcessBar_SetLabelPos:0000000000000000 $t
/var/folders/lx/hc4sn_b53233_zkc9xbbl97r0000gp/T//ccErXOZH.s:2533   .text.UI_ProcessBar_SetLabelPos:0000000000000000 UI_ProcessBar_SetLabelPos
/var/folders/lx/hc4sn_b53233_zkc9xbbl97r0000gp/T//ccErXOZH.s:2571   .text.UI_Drop_Init:0000000000000000 $t
/var/folders/lx/hc4sn_b53233_zkc9xbbl97r0000gp/T//ccErXOZH.s:2577   .text.UI_Drop_Init:0000000000000000 UI_Drop_Init
/var/folders/lx/hc4sn_b53233_zkc9xbbl97r0000gp/T//ccErXOZH.s:2636   .text.UI_Drop_Move:0000000000000000 $t
/var/folders/lx/hc4sn_b53233_zkc9xbbl97r0000gp/T//ccErXOZH.s:2642   .text.UI_Drop_Move:0000000000000000 UI_Drop_Move
/var/folders/lx/hc4sn_b53233_zkc9xbbl97r0000gp/T//ccErXOZH.s:2679   .text.UI_Drop_SetSelect:0000000000000000 $t
/var/folders/lx/hc4sn_b53233_zkc9xbbl97r0000gp/T//ccErXOZH.s:2685   .text.UI_Drop_SetSelect:0000000000000000 UI_Drop_SetSelect
/var/folders/lx/hc4sn_b53233_zkc9xbbl97r0000gp/T//ccErXOZH.s:2768   .text.UI_Drop_GetSelect:0000000000000000 $t
/var/folders/lx/hc4sn_b53233_zkc9xbbl97r0000gp/T//ccErXOZH.s:2774   .text.UI_Drop_GetSelect:0000000000000000 UI_Drop_GetSelect
/var/folders/lx/hc4sn_b53233_zkc9xbbl97r0000gp/T//ccErXOZH.s:2802   .text.UI_Drop_SelectItem:0000000000000000 $t
/var/folders/lx/hc4sn_b53233_zkc9xbbl97r0000gp/T//ccErXOZH.s:2808   .text.UI_Drop_SelectItem:0000000000000000 UI_Drop_SelectItem
/var/folders/lx/hc4sn_b53233_zkc9xbbl97r0000gp/T//ccErXOZH.s:2911   .text.UI_DigInput_Init:0000000000000000 $t
/var/folders/lx/hc4sn_b53233_zkc9xbbl97r0000gp/T//ccErXOZH.s:2917   .text.UI_DigInput_Init:0000000000000000 UI_DigInput_Init
/var/folders/lx/hc4sn_b53233_zkc9xbbl97r0000gp/T//ccErXOZH.s:3027   .text.UI_DigInput_SetIntRange:0000000000000000 $t
/var/folders/lx/hc4sn_b53233_zkc9xbbl97r0000gp/T//ccErXOZH.s:3033   .text.UI_DigInput_SetIntRange:0000000000000000 UI_DigInput_SetIntRange
/var/folders/lx/hc4sn_b53233_zkc9xbbl97r0000gp/T//ccErXOZH.s:3100   .text.UI_DigInput_SetDouRange:0000000000000000 $t
/var/folders/lx/hc4sn_b53233_zkc9xbbl97r0000gp/T//ccErXOZH.s:3106   .text.UI_DigInput_SetDouRange:0000000000000000 UI_DigInput_SetDouRange
/var/folders/lx/hc4sn_b53233_zkc9xbbl97r0000gp/T//ccErXOZH.s:3250   .text.UI_DigInput_SetDouRange:00000000000000b0 $d
/var/folders/lx/hc4sn_b53233_zkc9xbbl97r0000gp/T//ccErXOZH.s:3256   .text.UI_DigInput_SetCallback:0000000000000000 $t
/var/folders/lx/hc4sn_b53233_zkc9xbbl97r0000gp/T//ccErXOZH.s:3262   .text.UI_DigInput_SetCallback:0000000000000000 UI_DigInput_SetCallback
/var/folders/lx/hc4sn_b53233_zkc9xbbl97r0000gp/T//ccErXOZH.s:3293   .text.UI_DigInput_GetDoubleVal:0000000000000000 $t
/var/folders/lx/hc4sn_b53233_zkc9xbbl97r0000gp/T//ccErXOZH.s:3299   .text.UI_DigInput_GetDoubleVal:0000000000000000 UI_DigInput_GetDoubleVal
/var/folders/lx/hc4sn_b53233_zkc9xbbl97r0000gp/T//ccErXOZH.s:3355   .text.UI_DigInput_GetIntVal:0000000000000000 $t
/var/folders/lx/hc4sn_b53233_zkc9xbbl97r0000gp/T//ccErXOZH.s:3361   .text.UI_DigInput_GetIntVal:0000000000000000 UI_DigInput_GetIntVal
/var/folders/lx/hc4sn_b53233_zkc9xbbl97r0000gp/T//ccErXOZH.s:3406   .text.UI_DigInput_SetSelectStatus:0000000000000000 $t
/var/folders/lx/hc4sn_b53233_zkc9xbbl97r0000gp/T//ccErXOZH.s:3412   .text.UI_DigInput_SetSelectStatus:0000000000000000 UI_DigInput_SetSelectStatus
/var/folders/lx/hc4sn_b53233_zkc9xbbl97r0000gp/T//ccErXOZH.s:3509   .text.UI_DigInput_Move:0000000000000000 $t
/var/folders/lx/hc4sn_b53233_zkc9xbbl97r0000gp/T//ccErXOZH.s:3515   .text.UI_DigInput_Move:0000000000000000 UI_DigInput_Move
/var/folders/lx/hc4sn_b53233_zkc9xbbl97r0000gp/T//ccErXOZH.s:3552   .text.UI_DigInput_GetEffectSize:0000000000000000 $t
/var/folders/lx/hc4sn_b53233_zkc9xbbl97r0000gp/T//ccErXOZH.s:3558   .text.UI_DigInput_GetEffectSize:0000000000000000 UI_DigInput_GetEffectSize
/var/folders/lx/hc4sn_b53233_zkc9xbbl97r0000gp/T//ccErXOZH.s:3642   .text.UI_StrInput_Move:0000000000000000 $t
/var/folders/lx/hc4sn_b53233_zkc9xbbl97r0000gp/T//ccErXOZH.s:3648   .text.UI_StrInput_Move:0000000000000000 UI_StrInput_Move
/var/folders/lx/hc4sn_b53233_zkc9xbbl97r0000gp/T//ccErXOZH.s:3685   .text.UI_StrInput_SetCallback:0000000000000000 $t
/var/folders/lx/hc4sn_b53233_zkc9xbbl97r0000gp/T//ccErXOZH.s:3691   .text.UI_StrInput_SetCallback:0000000000000000 UI_StrInput_SetCallback
/var/folders/lx/hc4sn_b53233_zkc9xbbl97r0000gp/T//ccErXOZH.s:3722   .text.UI_StrInput_SetChar:0000000000000000 $t
/var/folders/lx/hc4sn_b53233_zkc9xbbl97r0000gp/T//ccErXOZH.s:3728   .text.UI_StrInput_SetChar:0000000000000000 UI_StrInput_SetChar
/var/folders/lx/hc4sn_b53233_zkc9xbbl97r0000gp/T//ccErXOZH.s:3779   .text.UI_StrInput_GetStr:0000000000000000 $t
/var/folders/lx/hc4sn_b53233_zkc9xbbl97r0000gp/T//ccErXOZH.s:3785   .text.UI_StrInput_GetStr:0000000000000000 UI_StrInput_GetStr
/var/folders/lx/hc4sn_b53233_zkc9xbbl97r0000gp/T//ccErXOZH.s:3810   .text.UI_TriggerLabel_Init:0000000000000000 $t
/var/folders/lx/hc4sn_b53233_zkc9xbbl97r0000gp/T//ccErXOZH.s:3816   .text.UI_TriggerLabel_Init:0000000000000000 UI_TriggerLabel_Init
/var/folders/lx/hc4sn_b53233_zkc9xbbl97r0000gp/T//ccErXOZH.s:3863   .text.UI_TriggerLabel_SetCallback:0000000000000000 $t
/var/folders/lx/hc4sn_b53233_zkc9xbbl97r0000gp/T//ccErXOZH.s:3869   .text.UI_TriggerLabel_SetCallback:0000000000000000 UI_TriggerLabel_SetCallback
/var/folders/lx/hc4sn_b53233_zkc9xbbl97r0000gp/T//ccErXOZH.s:3900   .text.UI_TriggerLabel_Trigger:0000000000000000 $t
/var/folders/lx/hc4sn_b53233_zkc9xbbl97r0000gp/T//ccErXOZH.s:3906   .text.UI_TriggerLabel_Trigger:0000000000000000 UI_TriggerLabel_Trigger
/var/folders/lx/hc4sn_b53233_zkc9xbbl97r0000gp/T//ccErXOZH.s:3961   .text.UI_TriggerLabel_Move:0000000000000000 $t
/var/folders/lx/hc4sn_b53233_zkc9xbbl97r0000gp/T//ccErXOZH.s:3967   .text.UI_TriggerLabel_Move:0000000000000000 UI_TriggerLabel_Move
/var/folders/lx/hc4sn_b53233_zkc9xbbl97r0000gp/T//ccErXOZH.s:4004   .text.UI_TriggerLabel_Ctl:0000000000000000 $t
/var/folders/lx/hc4sn_b53233_zkc9xbbl97r0000gp/T//ccErXOZH.s:4010   .text.UI_TriggerLabel_Ctl:0000000000000000 UI_TriggerLabel_Ctl
/var/folders/lx/hc4sn_b53233_zkc9xbbl97r0000gp/T//ccErXOZH.s:4078   .text.UI_TriggerLabel_Ctl:000000000000002c $d
/var/folders/lx/hc4sn_b53233_zkc9xbbl97r0000gp/T//ccErXOZH.s:4084   .text.UI_StrInput_Init:0000000000000000 $t
/var/folders/lx/hc4sn_b53233_zkc9xbbl97r0000gp/T//ccErXOZH.s:4090   .text.UI_StrInput_Init:0000000000000000 UI_StrInput_Init
/var/folders/lx/hc4sn_b53233_zkc9xbbl97r0000gp/T//ccErXOZH.s:4152   .text.UI_CheckBox_Ctl:0000000000000000 $t
/var/folders/lx/hc4sn_b53233_zkc9xbbl97r0000gp/T//ccErXOZH.s:4158   .text.UI_CheckBox_Ctl:0000000000000000 UI_CheckBox_Ctl
ARM GAS  /var/folders/lx/hc4sn_b53233_zkc9xbbl97r0000gp/T//ccErXOZH.s 			page 195


/var/folders/lx/hc4sn_b53233_zkc9xbbl97r0000gp/T//ccErXOZH.s:4339   .text.UI_CheckBox_Ctl:00000000000000b8 $d
/var/folders/lx/hc4sn_b53233_zkc9xbbl97r0000gp/T//ccErXOZH.s:4345   .text.UI_SlideBar_CTL:0000000000000000 $t
/var/folders/lx/hc4sn_b53233_zkc9xbbl97r0000gp/T//ccErXOZH.s:4351   .text.UI_SlideBar_CTL:0000000000000000 UI_SlideBar_CTL
/var/folders/lx/hc4sn_b53233_zkc9xbbl97r0000gp/T//ccErXOZH.s:4609   .text.UI_SlideBar_CTL:0000000000000110 $d
/var/folders/lx/hc4sn_b53233_zkc9xbbl97r0000gp/T//ccErXOZH.s:4616   .text.UI_Drop_Ctl:0000000000000000 $t
/var/folders/lx/hc4sn_b53233_zkc9xbbl97r0000gp/T//ccErXOZH.s:4622   .text.UI_Drop_Ctl:0000000000000000 UI_Drop_Ctl
/var/folders/lx/hc4sn_b53233_zkc9xbbl97r0000gp/T//ccErXOZH.s:4788   .text.UI_Drop_Ctl:00000000000000a8 $d
/var/folders/lx/hc4sn_b53233_zkc9xbbl97r0000gp/T//ccErXOZH.s:4794   .text.UI_StrInput_Ctl:0000000000000000 $t
/var/folders/lx/hc4sn_b53233_zkc9xbbl97r0000gp/T//ccErXOZH.s:4800   .text.UI_StrInput_Ctl:0000000000000000 UI_StrInput_Ctl
/var/folders/lx/hc4sn_b53233_zkc9xbbl97r0000gp/T//ccErXOZH.s:4907   .text.UI_StrInput_Ctl:0000000000000060 $d
/var/folders/lx/hc4sn_b53233_zkc9xbbl97r0000gp/T//ccErXOZH.s:4913   .text.UI_StrInput_Select:0000000000000000 $t
/var/folders/lx/hc4sn_b53233_zkc9xbbl97r0000gp/T//ccErXOZH.s:4919   .text.UI_StrInput_Select:0000000000000000 UI_StrInput_Select
/var/folders/lx/hc4sn_b53233_zkc9xbbl97r0000gp/T//ccErXOZH.s:5009   .rodata.UI_Button_Ctl.str1.4:0000000000000000 $d
/var/folders/lx/hc4sn_b53233_zkc9xbbl97r0000gp/T//ccErXOZH.s:5016   .text.UI_Button_Ctl:0000000000000000 $t
/var/folders/lx/hc4sn_b53233_zkc9xbbl97r0000gp/T//ccErXOZH.s:5022   .text.UI_Button_Ctl:0000000000000000 UI_Button_Ctl
/var/folders/lx/hc4sn_b53233_zkc9xbbl97r0000gp/T//ccErXOZH.s:5421   .text.UI_Button_Ctl:00000000000001fc $d
/var/folders/lx/hc4sn_b53233_zkc9xbbl97r0000gp/T//ccErXOZH.s:5429   .rodata.UI_ProcessBar_DspLoadBar.str1.4:0000000000000000 $d
/var/folders/lx/hc4sn_b53233_zkc9xbbl97r0000gp/T//ccErXOZH.s:5433   .text.UI_ProcessBar_DspLoadBar:0000000000000000 $t
/var/folders/lx/hc4sn_b53233_zkc9xbbl97r0000gp/T//ccErXOZH.s:5439   .text.UI_ProcessBar_DspLoadBar:0000000000000000 UI_ProcessBar_DspLoadBar
/var/folders/lx/hc4sn_b53233_zkc9xbbl97r0000gp/T//ccErXOZH.s:5641   .text.UI_ProcessBar_DspLoadBar:00000000000000f8 $d
/var/folders/lx/hc4sn_b53233_zkc9xbbl97r0000gp/T//ccErXOZH.s:5649   .text.UI_ProcessBar_Ctl:0000000000000000 $t
/var/folders/lx/hc4sn_b53233_zkc9xbbl97r0000gp/T//ccErXOZH.s:5655   .text.UI_ProcessBar_Ctl:0000000000000000 UI_ProcessBar_Ctl
/var/folders/lx/hc4sn_b53233_zkc9xbbl97r0000gp/T//ccErXOZH.s:5748   .text.UI_ProcessBar_Ctl:000000000000004c $d
/var/folders/lx/hc4sn_b53233_zkc9xbbl97r0000gp/T//ccErXOZH.s:5753   .text.UI_Drop_CreateDropItem:0000000000000000 $t
/var/folders/lx/hc4sn_b53233_zkc9xbbl97r0000gp/T//ccErXOZH.s:5759   .text.UI_Drop_CreateDropItem:0000000000000000 UI_Drop_CreateDropItem
/var/folders/lx/hc4sn_b53233_zkc9xbbl97r0000gp/T//ccErXOZH.s:5842   .text.UI_Drop_AddDropItem:0000000000000000 $t
/var/folders/lx/hc4sn_b53233_zkc9xbbl97r0000gp/T//ccErXOZH.s:5848   .text.UI_Drop_AddDropItem:0000000000000000 UI_Drop_AddDropItem
/var/folders/lx/hc4sn_b53233_zkc9xbbl97r0000gp/T//ccErXOZH.s:5954   .rodata.UI_DigInput_CTL.str1.4:0000000000000000 $d
/var/folders/lx/hc4sn_b53233_zkc9xbbl97r0000gp/T//ccErXOZH.s:5964   .text.UI_DigInput_CTL:0000000000000000 $t
/var/folders/lx/hc4sn_b53233_zkc9xbbl97r0000gp/T//ccErXOZH.s:5970   .text.UI_DigInput_CTL:0000000000000000 UI_DigInput_CTL
/var/folders/lx/hc4sn_b53233_zkc9xbbl97r0000gp/T//ccErXOZH.s:6420   .text.UI_DigInput_CTL:0000000000000210 $d
/var/folders/lx/hc4sn_b53233_zkc9xbbl97r0000gp/T//ccErXOZH.s:6432   .text.UI_DigInput_SetIntValue:0000000000000000 $t
/var/folders/lx/hc4sn_b53233_zkc9xbbl97r0000gp/T//ccErXOZH.s:6438   .text.UI_DigInput_SetIntValue:0000000000000000 UI_DigInput_SetIntValue
/var/folders/lx/hc4sn_b53233_zkc9xbbl97r0000gp/T//ccErXOZH.s:6634   .text.UI_DigInput_SetIntValue:00000000000000e0 $d
/var/folders/lx/hc4sn_b53233_zkc9xbbl97r0000gp/T//ccErXOZH.s:6640   .text.UI_DigInput_SetDouValue:0000000000000000 $t
/var/folders/lx/hc4sn_b53233_zkc9xbbl97r0000gp/T//ccErXOZH.s:6646   .text.UI_DigInput_SetDouValue:0000000000000000 UI_DigInput_SetDouValue
/var/folders/lx/hc4sn_b53233_zkc9xbbl97r0000gp/T//ccErXOZH.s:6783   .text.UI_DigInput_SetDouValue:0000000000000090 $d
/var/folders/lx/hc4sn_b53233_zkc9xbbl97r0000gp/T//ccErXOZH.s:6789   .text.UI_DigInput_InputValue:0000000000000000 $t
/var/folders/lx/hc4sn_b53233_zkc9xbbl97r0000gp/T//ccErXOZH.s:6795   .text.UI_DigInput_InputValue:0000000000000000 UI_DigInput_InputValue
/var/folders/lx/hc4sn_b53233_zkc9xbbl97r0000gp/T//ccErXOZH.s:6923   .text.UI_Set_FontType:0000000000000000 $t
/var/folders/lx/hc4sn_b53233_zkc9xbbl97r0000gp/T//ccErXOZH.s:6930   .text.UI_Set_FontType:0000000000000000 UI_Set_FontType
/var/folders/lx/hc4sn_b53233_zkc9xbbl97r0000gp/T//ccErXOZH.s:6965   .text.UI_Set_FontType:0000000000000018 $d
/var/folders/lx/hc4sn_b53233_zkc9xbbl97r0000gp/T//ccErXOZH.s:6970   .text.UI_Get_FontType:0000000000000000 $t
/var/folders/lx/hc4sn_b53233_zkc9xbbl97r0000gp/T//ccErXOZH.s:6977   .text.UI_Get_FontType:0000000000000000 UI_Get_FontType
/var/folders/lx/hc4sn_b53233_zkc9xbbl97r0000gp/T//ccErXOZH.s:6992   .text.UI_Get_FontType:0000000000000008 $d
/var/folders/lx/hc4sn_b53233_zkc9xbbl97r0000gp/T//ccErXOZH.s:6997   .text.UI_Set_DspInterface:0000000000000000 $t
/var/folders/lx/hc4sn_b53233_zkc9xbbl97r0000gp/T//ccErXOZH.s:7004   .text.UI_Set_DspInterface:0000000000000000 UI_Set_DspInterface
/var/folders/lx/hc4sn_b53233_zkc9xbbl97r0000gp/T//ccErXOZH.s:7081   .text.UI_Set_DspInterface:0000000000000034 $d
/var/folders/lx/hc4sn_b53233_zkc9xbbl97r0000gp/T//ccErXOZH.s:7086   .text.UI_Set_GetWidgetWidthMathod:0000000000000000 $t
/var/folders/lx/hc4sn_b53233_zkc9xbbl97r0000gp/T//ccErXOZH.s:7093   .text.UI_Set_GetWidgetWidthMathod:0000000000000000 UI_Set_GetWidgetWidthMathod
/var/folders/lx/hc4sn_b53233_zkc9xbbl97r0000gp/T//ccErXOZH.s:7110   .text.UI_Set_GetWidgetWidthMathod:0000000000000008 $d
/var/folders/lx/hc4sn_b53233_zkc9xbbl97r0000gp/T//ccErXOZH.s:7115   .text.UI_ShowSelector:0000000000000000 $t
/var/folders/lx/hc4sn_b53233_zkc9xbbl97r0000gp/T//ccErXOZH.s:7122   .text.UI_ShowSelector:0000000000000000 UI_ShowSelector
/var/folders/lx/hc4sn_b53233_zkc9xbbl97r0000gp/T//ccErXOZH.s:7218   .text.UI_ShowSelector:0000000000000046 $d
/var/folders/lx/hc4sn_b53233_zkc9xbbl97r0000gp/T//ccErXOZH.s:7227   .text.UI_ShowSelector:0000000000000056 $t
/var/folders/lx/hc4sn_b53233_zkc9xbbl97r0000gp/T//ccErXOZH.s:7727   .text.UI_ShowSelector:0000000000000234 $d
/var/folders/lx/hc4sn_b53233_zkc9xbbl97r0000gp/T//ccErXOZH.s:7848   .data.UI_TriggerLabel:0000000000000000 UI_TriggerLabel
ARM GAS  /var/folders/lx/hc4sn_b53233_zkc9xbbl97r0000gp/T//ccErXOZH.s 			page 196


/var/folders/lx/hc4sn_b53233_zkc9xbbl97r0000gp/T//ccErXOZH.s:7836   .data.UI_StrInput:0000000000000000 UI_StrInput
/var/folders/lx/hc4sn_b53233_zkc9xbbl97r0000gp/T//ccErXOZH.s:7783   .data.UI_DigInput:0000000000000000 UI_DigInput
/var/folders/lx/hc4sn_b53233_zkc9xbbl97r0000gp/T//ccErXOZH.s:7799   .data.UI_Drop:0000000000000000 UI_Drop
/var/folders/lx/hc4sn_b53233_zkc9xbbl97r0000gp/T//ccErXOZH.s:7811   .data.UI_ProcessBar:0000000000000000 UI_ProcessBar
/var/folders/lx/hc4sn_b53233_zkc9xbbl97r0000gp/T//ccErXOZH.s:7823   .data.UI_SlideBar:0000000000000000 UI_SlideBar
/var/folders/lx/hc4sn_b53233_zkc9xbbl97r0000gp/T//ccErXOZH.s:7773   .data.UI_CheckBox:0000000000000000 UI_CheckBox
/var/folders/lx/hc4sn_b53233_zkc9xbbl97r0000gp/T//ccErXOZH.s:7760   .data.UI_Button:0000000000000000 UI_Button
/var/folders/lx/hc4sn_b53233_zkc9xbbl97r0000gp/T//ccErXOZH.s:7754   .bss.UI_Get_WidgetWidth:0000000000000000 UI_Get_WidgetWidth
/var/folders/lx/hc4sn_b53233_zkc9xbbl97r0000gp/T//ccErXOZH.s:7743   .bss.UI_DspInterface:0000000000000000 $d
/var/folders/lx/hc4sn_b53233_zkc9xbbl97r0000gp/T//ccErXOZH.s:7747   .bss.UI_DspInterface:0000000000000000 UI_DspInterface
/var/folders/lx/hc4sn_b53233_zkc9xbbl97r0000gp/T//ccErXOZH.s:7750   .bss.UI_Get_WidgetWidth:0000000000000000 $d
/var/folders/lx/hc4sn_b53233_zkc9xbbl97r0000gp/T//ccErXOZH.s:7757   .data.UI_Button:0000000000000000 $d
/var/folders/lx/hc4sn_b53233_zkc9xbbl97r0000gp/T//ccErXOZH.s:7770   .data.UI_CheckBox:0000000000000000 $d
/var/folders/lx/hc4sn_b53233_zkc9xbbl97r0000gp/T//ccErXOZH.s:7780   .data.UI_DigInput:0000000000000000 $d
/var/folders/lx/hc4sn_b53233_zkc9xbbl97r0000gp/T//ccErXOZH.s:7796   .data.UI_Drop:0000000000000000 $d
/var/folders/lx/hc4sn_b53233_zkc9xbbl97r0000gp/T//ccErXOZH.s:7808   .data.UI_ProcessBar:0000000000000000 $d
/var/folders/lx/hc4sn_b53233_zkc9xbbl97r0000gp/T//ccErXOZH.s:7820   .data.UI_SlideBar:0000000000000000 $d
/var/folders/lx/hc4sn_b53233_zkc9xbbl97r0000gp/T//ccErXOZH.s:7833   .data.UI_StrInput:0000000000000000 $d
/var/folders/lx/hc4sn_b53233_zkc9xbbl97r0000gp/T//ccErXOZH.s:7845   .data.UI_TriggerLabel:0000000000000000 $d
/var/folders/lx/hc4sn_b53233_zkc9xbbl97r0000gp/T//ccErXOZH.s:7858   .data.base_font:0000000000000000 base_font

UNDEFINED SYMBOLS
__aeabi_dsub
__aeabi_dcmple
__aeabi_d2lz
__aeabi_l2d
__aeabi_d2uiz
strlen
memset
memcpy
strcat
sprintf
MMU_Malloc
List_ItemInit
List_Insert_Item
List_Init
__aeabi_dcmplt
__aeabi_i2d
__aeabi_d2iz
__aeabi_ui2d
pow
__aeabi_dmul
__aeabi_dadd
