ARM GAS  /var/folders/lx/hc4sn_b53233_zkc9xbbl97r0000gp/T//cckGtd2P.s 			page 1


   1              		.cpu cortex-m4
   2              		.eabi_attribute 27, 1
   3              		.eabi_attribute 28, 1
   4              		.eabi_attribute 20, 1
   5              		.eabi_attribute 21, 1
   6              		.eabi_attribute 23, 3
   7              		.eabi_attribute 24, 1
   8              		.eabi_attribute 25, 1
   9              		.eabi_attribute 26, 1
  10              		.eabi_attribute 30, 1
  11              		.eabi_attribute 34, 1
  12              		.eabi_attribute 18, 4
  13              		.file	"UI_Controller.c"
  14              		.text
  15              	.Ltext0:
  16              		.cfi_sections	.debug_frame
  17              		.section	.text.UI_GenData_Init,"ax",%progbits
  18              		.align	1
  19              		.arch armv7e-m
  20              		.syntax unified
  21              		.thumb
  22              		.thumb_func
  23              		.fpu fpv4-sp-d16
  25              	UI_GenData_Init:
  26              	.LVL0:
  27              	.LFB2:
  28              		.file 1 "Dsp/widget/wgt_core/UI_Controller.c"
   1:Dsp/widget/wgt_core/UI_Controller.c **** #include "UI_Controller.h"
   2:Dsp/widget/wgt_core/UI_Controller.c **** #include <stdlib.h>
   3:Dsp/widget/wgt_core/UI_Controller.c **** 
   4:Dsp/widget/wgt_core/UI_Controller.c **** #define DEFAULT_FONT font_12
   5:Dsp/widget/wgt_core/UI_Controller.c **** #define DEFAULT_BUTTON_PUSH_LABEL "yes"
   6:Dsp/widget/wgt_core/UI_Controller.c **** #define DEFAULT_BUTTON_RELEASE_LABEL "no"
   7:Dsp/widget/wgt_core/UI_Controller.c **** #define DEFAULT_BUTTON_WIDTH 25
   8:Dsp/widget/wgt_core/UI_Controller.c **** #define DEFAULT_BUTTON_HEIGHT 14
   9:Dsp/widget/wgt_core/UI_Controller.c **** #define DEFAULT__BUTTON_RADIUS 3
  10:Dsp/widget/wgt_core/UI_Controller.c **** 
  11:Dsp/widget/wgt_core/UI_Controller.c **** /* internal object */
  12:Dsp/widget/wgt_core/UI_Controller.c **** static UI_DrawInterface_TypeDef UI_DspInterface;
  13:Dsp/widget/wgt_core/UI_Controller.c **** 
  14:Dsp/widget/wgt_core/UI_Controller.c **** /* external function */
  15:Dsp/widget/wgt_core/UI_Controller.c **** static bool UI_Button_Init(UI_ButtonObj_TypeDef *Obj, char *label, int8_t x, int8_t y, uint8_t widt
  16:Dsp/widget/wgt_core/UI_Controller.c **** static bool UI_Button_Set_Label(UI_ButtonObj_TypeDef *Obj, UI_Button_State_List state, char *label)
  17:Dsp/widget/wgt_core/UI_Controller.c **** static bool UI_Button_Set_TriggerCallback(UI_ButtonObj_TypeDef *Obj, UI_Button_Trigger_Type type, U
  18:Dsp/widget/wgt_core/UI_Controller.c **** static bool UI_Button_Push(UI_ButtonObj_TypeDef *Obj);
  19:Dsp/widget/wgt_core/UI_Controller.c **** static bool UI_Button_Release(UI_ButtonObj_TypeDef *Obj);
  20:Dsp/widget/wgt_core/UI_Controller.c **** static bool UI_Button_Move(UI_ButtonObj_TypeDef *Obj, uint8_t x, uint8_t y);
  21:Dsp/widget/wgt_core/UI_Controller.c **** static bool UI_Button_Ctl(UI_ButtonObj_TypeDef *Obj);
  22:Dsp/widget/wgt_core/UI_Controller.c **** 
  23:Dsp/widget/wgt_core/UI_Controller.c **** /* general function */
  24:Dsp/widget/wgt_core/UI_Controller.c **** static bool UI_Get_InitSate(UI_GeneralData_TypeDef GenData);
  25:Dsp/widget/wgt_core/UI_Controller.c **** static bool UI_Selecte(UI_GeneralData_TypeDef *GenData, bool select);
  26:Dsp/widget/wgt_core/UI_Controller.c **** static bool UI_Get_Selected(UI_GeneralData_TypeDef GenData);
  27:Dsp/widget/wgt_core/UI_Controller.c **** static bool UI_Move(UI_GeneralData_TypeDef *GenUI_Info, int8_t dst_x, int8_t dst_y);
  28:Dsp/widget/wgt_core/UI_Controller.c **** 
  29:Dsp/widget/wgt_core/UI_Controller.c **** /* external Object var */
  30:Dsp/widget/wgt_core/UI_Controller.c **** UI_Button_Interface_TypeDef UI_Button = {
ARM GAS  /var/folders/lx/hc4sn_b53233_zkc9xbbl97r0000gp/T//cckGtd2P.s 			page 2


  31:Dsp/widget/wgt_core/UI_Controller.c ****     .ctl = UI_Button_Ctl,
  32:Dsp/widget/wgt_core/UI_Controller.c ****     .init = UI_Button_Init,
  33:Dsp/widget/wgt_core/UI_Controller.c ****     .push = UI_Button_Push,
  34:Dsp/widget/wgt_core/UI_Controller.c ****     .move = UI_Button_Move,
  35:Dsp/widget/wgt_core/UI_Controller.c ****     .release = UI_Button_Release,
  36:Dsp/widget/wgt_core/UI_Controller.c ****     .set_label = UI_Button_Set_Label,
  37:Dsp/widget/wgt_core/UI_Controller.c ****     .set_trogger_callback = UI_Button_Set_TriggerCallback,
  38:Dsp/widget/wgt_core/UI_Controller.c **** };
  39:Dsp/widget/wgt_core/UI_Controller.c **** 
  40:Dsp/widget/wgt_core/UI_Controller.c **** /******************************* general function *********************************/
  41:Dsp/widget/wgt_core/UI_Controller.c **** 
  42:Dsp/widget/wgt_core/UI_Controller.c **** void UI_Set_DspInterface(UI_DrawPoint point,
  43:Dsp/widget/wgt_core/UI_Controller.c ****                          UI_DrawLine line,
  44:Dsp/widget/wgt_core/UI_Controller.c ****                          UI_DrawRectangle rectangle,
  45:Dsp/widget/wgt_core/UI_Controller.c ****                          UI_DrawRadiusRectangle radius_rectangle,
  46:Dsp/widget/wgt_core/UI_Controller.c ****                          UI_DrawCircle circle,
  47:Dsp/widget/wgt_core/UI_Controller.c ****                          UI_DrawStr str,
  48:Dsp/widget/wgt_core/UI_Controller.c ****                          UI_FillCircle fill_circle,
  49:Dsp/widget/wgt_core/UI_Controller.c ****                          UI_FillRectangle fill_rectangle,
  50:Dsp/widget/wgt_core/UI_Controller.c ****                          UI_FillRadiusRectangle fill_radius_rectangle)
  51:Dsp/widget/wgt_core/UI_Controller.c **** {
  52:Dsp/widget/wgt_core/UI_Controller.c ****     UI_DspInterface.draw_circle = circle;
  53:Dsp/widget/wgt_core/UI_Controller.c ****     UI_DspInterface.draw_line = line;
  54:Dsp/widget/wgt_core/UI_Controller.c ****     UI_DspInterface.draw_point = point;
  55:Dsp/widget/wgt_core/UI_Controller.c ****     UI_DspInterface.draw_rectangle = rectangle;
  56:Dsp/widget/wgt_core/UI_Controller.c ****     UI_DspInterface.draw_radius_rectangle = radius_rectangle;
  57:Dsp/widget/wgt_core/UI_Controller.c ****     UI_DspInterface.draw_str = str;
  58:Dsp/widget/wgt_core/UI_Controller.c **** 
  59:Dsp/widget/wgt_core/UI_Controller.c ****     UI_DspInterface.fill_circle = fill_circle;
  60:Dsp/widget/wgt_core/UI_Controller.c ****     UI_DspInterface.fill_radius_rectangle = fill_radius_rectangle;
  61:Dsp/widget/wgt_core/UI_Controller.c ****     UI_DspInterface.fill_rectangle = fill_rectangle;
  62:Dsp/widget/wgt_core/UI_Controller.c **** }
  63:Dsp/widget/wgt_core/UI_Controller.c **** 
  64:Dsp/widget/wgt_core/UI_Controller.c **** /* still in developing about this selector */
  65:Dsp/widget/wgt_core/UI_Controller.c **** bool UI_ShowSelector(WidgetUI_Item_TypeDef *item)
  66:Dsp/widget/wgt_core/UI_Controller.c **** {
  67:Dsp/widget/wgt_core/UI_Controller.c ****     if (item == NULL)
  68:Dsp/widget/wgt_core/UI_Controller.c ****         return false;
  69:Dsp/widget/wgt_core/UI_Controller.c **** 
  70:Dsp/widget/wgt_core/UI_Controller.c ****     switch ((uint8_t)(item->type))
  71:Dsp/widget/wgt_core/UI_Controller.c ****     {
  72:Dsp/widget/wgt_core/UI_Controller.c ****     case UI_Type_Button:
  73:Dsp/widget/wgt_core/UI_Controller.c ****         // show button selector
  74:Dsp/widget/wgt_core/UI_Controller.c ****         break;
  75:Dsp/widget/wgt_core/UI_Controller.c **** 
  76:Dsp/widget/wgt_core/UI_Controller.c ****     default:
  77:Dsp/widget/wgt_core/UI_Controller.c ****         break;
  78:Dsp/widget/wgt_core/UI_Controller.c ****     }
  79:Dsp/widget/wgt_core/UI_Controller.c ****     return true;
  80:Dsp/widget/wgt_core/UI_Controller.c **** }
  81:Dsp/widget/wgt_core/UI_Controller.c **** 
  82:Dsp/widget/wgt_core/UI_Controller.c **** static void UI_GenData_Init(UI_GeneralData_TypeDef *GenData, char *label, uint8_t x, uint8_t y)
  83:Dsp/widget/wgt_core/UI_Controller.c **** {
  29              		.loc 1 83 1 view -0
  30              		.cfi_startproc
  31              		@ args = 0, pretend = 0, frame = 0
  32              		@ frame_needed = 0, uses_anonymous_args = 0
ARM GAS  /var/folders/lx/hc4sn_b53233_zkc9xbbl97r0000gp/T//cckGtd2P.s 			page 3


  33              		@ link register save eliminated.
  84:Dsp/widget/wgt_core/UI_Controller.c ****     GenData->label = label;
  34              		.loc 1 84 5 view .LVU1
  35              		.loc 1 84 20 is_stmt 0 view .LVU2
  36 0000 0160     		str	r1, [r0]
  85:Dsp/widget/wgt_core/UI_Controller.c **** 
  86:Dsp/widget/wgt_core/UI_Controller.c ****     GenData->x = x;
  37              		.loc 1 86 5 is_stmt 1 view .LVU3
  38              		.loc 1 86 16 is_stmt 0 view .LVU4
  39 0002 0271     		strb	r2, [r0, #4]
  87:Dsp/widget/wgt_core/UI_Controller.c ****     GenData->y = y;
  40              		.loc 1 87 5 is_stmt 1 view .LVU5
  41              		.loc 1 87 16 is_stmt 0 view .LVU6
  42 0004 4371     		strb	r3, [r0, #5]
  88:Dsp/widget/wgt_core/UI_Controller.c **** 
  89:Dsp/widget/wgt_core/UI_Controller.c ****     GenData->init = false;
  43              		.loc 1 89 5 is_stmt 1 view .LVU7
  44              		.loc 1 89 19 is_stmt 0 view .LVU8
  45 0006 0023     		movs	r3, #0
  46              	.LVL1:
  47              		.loc 1 89 19 view .LVU9
  48 0008 8371     		strb	r3, [r0, #6]
  90:Dsp/widget/wgt_core/UI_Controller.c **** }
  49              		.loc 1 90 1 view .LVU10
  50 000a 7047     		bx	lr
  51              		.cfi_endproc
  52              	.LFE2:
  54              		.section	.text.UI_Move,"ax",%progbits
  55              		.align	1
  56              		.syntax unified
  57              		.thumb
  58              		.thumb_func
  59              		.fpu fpv4-sp-d16
  61              	UI_Move:
  62              	.LVL2:
  63              	.LFB3:
  91:Dsp/widget/wgt_core/UI_Controller.c **** 
  92:Dsp/widget/wgt_core/UI_Controller.c **** static bool UI_Move(UI_GeneralData_TypeDef *GenUI_Info, int8_t dst_x, int8_t dst_y)
  93:Dsp/widget/wgt_core/UI_Controller.c **** {
  64              		.loc 1 93 1 is_stmt 1 view -0
  65              		.cfi_startproc
  66              		@ args = 0, pretend = 0, frame = 0
  67              		@ frame_needed = 0, uses_anonymous_args = 0
  68              		@ link register save eliminated.
  94:Dsp/widget/wgt_core/UI_Controller.c ****     if (GenUI_Info == NULL)
  69              		.loc 1 94 5 view .LVU12
  70              		.loc 1 94 8 is_stmt 0 view .LVU13
  71 0000 18B1     		cbz	r0, .L4
  95:Dsp/widget/wgt_core/UI_Controller.c ****         return false;
  96:Dsp/widget/wgt_core/UI_Controller.c **** 
  97:Dsp/widget/wgt_core/UI_Controller.c ****     GenUI_Info->x = dst_x;
  72              		.loc 1 97 5 is_stmt 1 view .LVU14
  73              		.loc 1 97 19 is_stmt 0 view .LVU15
  74 0002 0171     		strb	r1, [r0, #4]
  98:Dsp/widget/wgt_core/UI_Controller.c ****     GenUI_Info->y = dst_y;
  75              		.loc 1 98 5 is_stmt 1 view .LVU16
  76              		.loc 1 98 19 is_stmt 0 view .LVU17
ARM GAS  /var/folders/lx/hc4sn_b53233_zkc9xbbl97r0000gp/T//cckGtd2P.s 			page 4


  77 0004 4271     		strb	r2, [r0, #5]
  99:Dsp/widget/wgt_core/UI_Controller.c **** 
 100:Dsp/widget/wgt_core/UI_Controller.c ****     return true;
  78              		.loc 1 100 5 is_stmt 1 view .LVU18
  79              		.loc 1 100 12 is_stmt 0 view .LVU19
  80 0006 0120     		movs	r0, #1
  81              	.LVL3:
  82              		.loc 1 100 12 view .LVU20
  83 0008 7047     		bx	lr
  84              	.LVL4:
  85              	.L4:
  95:Dsp/widget/wgt_core/UI_Controller.c **** 
  86              		.loc 1 95 16 view .LVU21
  87 000a 0020     		movs	r0, #0
  88              	.LVL5:
 101:Dsp/widget/wgt_core/UI_Controller.c **** }
  89              		.loc 1 101 1 view .LVU22
  90 000c 7047     		bx	lr
  91              		.cfi_endproc
  92              	.LFE3:
  94              		.section	.rodata.UI_Button_Init.str1.4,"aMS",%progbits,1
  95              		.align	2
  96              	.LC0:
  97 0000 79657300 		.ascii	"yes\000"
  98              		.align	2
  99              	.LC1:
 100 0004 6E6F00   		.ascii	"no\000"
 101              		.section	.text.UI_Button_Init,"ax",%progbits
 102              		.align	1
 103              		.syntax unified
 104              		.thumb
 105              		.thumb_func
 106              		.fpu fpv4-sp-d16
 108              	UI_Button_Init:
 109              	.LVL6:
 110              	.LFB4:
 102:Dsp/widget/wgt_core/UI_Controller.c **** 
 103:Dsp/widget/wgt_core/UI_Controller.c **** /********************************************** UI Button Object **********************************
 104:Dsp/widget/wgt_core/UI_Controller.c **** /*
 105:Dsp/widget/wgt_core/UI_Controller.c **** *  the operation of button ctl is a async operation
 106:Dsp/widget/wgt_core/UI_Controller.c **** *  exti irq or input signal triiger first then out of the trigger code 
 107:Dsp/widget/wgt_core/UI_Controller.c **** *  check signal value doing process
 108:Dsp/widget/wgt_core/UI_Controller.c **** */
 109:Dsp/widget/wgt_core/UI_Controller.c **** static bool UI_Button_Init(UI_ButtonObj_TypeDef *Obj, char *label, int8_t x, int8_t y, uint8_t widt
 110:Dsp/widget/wgt_core/UI_Controller.c **** {
 111              		.loc 1 110 1 is_stmt 1 view -0
 112              		.cfi_startproc
 113              		@ args = 16, pretend = 0, frame = 0
 114              		@ frame_needed = 0, uses_anonymous_args = 0
 115              		.loc 1 110 1 is_stmt 0 view .LVU24
 116 0000 10B5     		push	{r4, lr}
 117              	.LCFI0:
 118              		.cfi_def_cfa_offset 8
 119              		.cfi_offset 4, -8
 120              		.cfi_offset 14, -4
 121 0002 9DF814C0 		ldrb	ip, [sp, #20]	@ zero_extendqisi2
 111:Dsp/widget/wgt_core/UI_Controller.c ****     if (Obj == NULL)
ARM GAS  /var/folders/lx/hc4sn_b53233_zkc9xbbl97r0000gp/T//cckGtd2P.s 			page 5


 122              		.loc 1 111 5 is_stmt 1 view .LVU25
 123              		.loc 1 111 8 is_stmt 0 view .LVU26
 124 0006 C8B1     		cbz	r0, .L7
 125 0008 0446     		mov	r4, r0
 112:Dsp/widget/wgt_core/UI_Controller.c ****         return false;
 113:Dsp/widget/wgt_core/UI_Controller.c **** 
 114:Dsp/widget/wgt_core/UI_Controller.c ****     Obj->default_state = state;
 126              		.loc 1 114 5 is_stmt 1 view .LVU27
 127              		.loc 1 114 24 is_stmt 0 view .LVU28
 128 000a 80F808C0 		strb	ip, [r0, #8]
 115:Dsp/widget/wgt_core/UI_Controller.c ****     Obj->state = state;
 129              		.loc 1 115 5 is_stmt 1 view .LVU29
 130              		.loc 1 115 16 is_stmt 0 view .LVU30
 131 000e 80F809C0 		strb	ip, [r0, #9]
 116:Dsp/widget/wgt_core/UI_Controller.c ****     Obj->type = type;
 132              		.loc 1 116 5 is_stmt 1 view .LVU31
 133              		.loc 1 116 15 is_stmt 0 view .LVU32
 134 0012 9DF81000 		ldrb	r0, [sp, #16]	@ zero_extendqisi2
 135              	.LVL7:
 136              		.loc 1 116 15 view .LVU33
 137 0016 A072     		strb	r0, [r4, #10]
 117:Dsp/widget/wgt_core/UI_Controller.c **** 
 118:Dsp/widget/wgt_core/UI_Controller.c ****     UI_GenData_Init(&Obj->Gen_Data, label, x, y);
 138              		.loc 1 118 5 is_stmt 1 view .LVU34
 139 0018 DBB2     		uxtb	r3, r3
 140              		.loc 1 118 5 is_stmt 0 view .LVU35
 141 001a D2B2     		uxtb	r2, r2
 142              		.loc 1 118 5 view .LVU36
 143 001c 2046     		mov	r0, r4
 144 001e FFF7FEFF 		bl	UI_GenData_Init
 145              	.LVL8:
 119:Dsp/widget/wgt_core/UI_Controller.c **** 
 120:Dsp/widget/wgt_core/UI_Controller.c ****     Obj->width = width;
 146              		.loc 1 120 5 is_stmt 1 view .LVU37
 147              		.loc 1 120 16 is_stmt 0 view .LVU38
 148 0022 9DF80830 		ldrb	r3, [sp, #8]	@ zero_extendqisi2
 149 0026 2377     		strb	r3, [r4, #28]
 121:Dsp/widget/wgt_core/UI_Controller.c ****     Obj->height = height;
 150              		.loc 1 121 5 is_stmt 1 view .LVU39
 151              		.loc 1 121 17 is_stmt 0 view .LVU40
 152 0028 9DF80C30 		ldrb	r3, [sp, #12]	@ zero_extendqisi2
 153 002c 6377     		strb	r3, [r4, #29]
 122:Dsp/widget/wgt_core/UI_Controller.c **** 
 123:Dsp/widget/wgt_core/UI_Controller.c ****     Obj->PushDown_Label = DEFAULT_BUTTON_PUSH_LABEL;
 154              		.loc 1 123 5 is_stmt 1 view .LVU41
 155              		.loc 1 123 25 is_stmt 0 view .LVU42
 156 002e 044B     		ldr	r3, .L9
 157 0030 6361     		str	r3, [r4, #20]
 124:Dsp/widget/wgt_core/UI_Controller.c ****     Obj->Release_Label = DEFAULT_BUTTON_RELEASE_LABEL;
 158              		.loc 1 124 5 is_stmt 1 view .LVU43
 159              		.loc 1 124 24 is_stmt 0 view .LVU44
 160 0032 044B     		ldr	r3, .L9+4
 161 0034 A361     		str	r3, [r4, #24]
 125:Dsp/widget/wgt_core/UI_Controller.c **** 
 126:Dsp/widget/wgt_core/UI_Controller.c ****     Obj->Gen_Data.init = true;
 162              		.loc 1 126 5 is_stmt 1 view .LVU45
 163              		.loc 1 126 24 is_stmt 0 view .LVU46
ARM GAS  /var/folders/lx/hc4sn_b53233_zkc9xbbl97r0000gp/T//cckGtd2P.s 			page 6


 164 0036 0120     		movs	r0, #1
 165 0038 A071     		strb	r0, [r4, #6]
 127:Dsp/widget/wgt_core/UI_Controller.c **** 
 128:Dsp/widget/wgt_core/UI_Controller.c ****     return true;
 166              		.loc 1 128 5 is_stmt 1 view .LVU47
 167              	.LVL9:
 168              	.L6:
 129:Dsp/widget/wgt_core/UI_Controller.c **** }
 169              		.loc 1 129 1 is_stmt 0 view .LVU48
 170 003a 10BD     		pop	{r4, pc}
 171              	.LVL10:
 172              	.L7:
 112:Dsp/widget/wgt_core/UI_Controller.c **** 
 173              		.loc 1 112 16 view .LVU49
 174 003c 0020     		movs	r0, #0
 175              	.LVL11:
 112:Dsp/widget/wgt_core/UI_Controller.c **** 
 176              		.loc 1 112 16 view .LVU50
 177 003e FCE7     		b	.L6
 178              	.L10:
 179              		.align	2
 180              	.L9:
 181 0040 00000000 		.word	.LC0
 182 0044 04000000 		.word	.LC1
 183              		.cfi_endproc
 184              	.LFE4:
 186              		.section	.text.UI_Button_Set_Label,"ax",%progbits
 187              		.align	1
 188              		.syntax unified
 189              		.thumb
 190              		.thumb_func
 191              		.fpu fpv4-sp-d16
 193              	UI_Button_Set_Label:
 194              	.LVL12:
 195              	.LFB5:
 130:Dsp/widget/wgt_core/UI_Controller.c **** 
 131:Dsp/widget/wgt_core/UI_Controller.c **** static bool UI_Button_Set_Label(UI_ButtonObj_TypeDef *Obj, UI_Button_State_List state, char *label)
 132:Dsp/widget/wgt_core/UI_Controller.c **** {
 196              		.loc 1 132 1 is_stmt 1 view -0
 197              		.cfi_startproc
 198              		@ args = 0, pretend = 0, frame = 0
 199              		@ frame_needed = 0, uses_anonymous_args = 0
 200              		@ link register save eliminated.
 133:Dsp/widget/wgt_core/UI_Controller.c ****     if (Obj == NULL)
 201              		.loc 1 133 5 view .LVU52
 202              		.loc 1 133 8 is_stmt 0 view .LVU53
 203 0000 38B1     		cbz	r0, .L14
 134:Dsp/widget/wgt_core/UI_Controller.c ****         return false;
 135:Dsp/widget/wgt_core/UI_Controller.c **** 
 136:Dsp/widget/wgt_core/UI_Controller.c ****     if (state == UI_Btn_PushDwn)
 204              		.loc 1 136 5 is_stmt 1 view .LVU54
 205              		.loc 1 136 8 is_stmt 0 view .LVU55
 206 0002 0129     		cmp	r1, #1
 207 0004 02D0     		beq	.L15
 137:Dsp/widget/wgt_core/UI_Controller.c ****         Obj->PushDown_Label = label;
 138:Dsp/widget/wgt_core/UI_Controller.c ****     else
 139:Dsp/widget/wgt_core/UI_Controller.c ****         Obj->Release_Label = label;
ARM GAS  /var/folders/lx/hc4sn_b53233_zkc9xbbl97r0000gp/T//cckGtd2P.s 			page 7


 208              		.loc 1 139 9 is_stmt 1 view .LVU56
 209              		.loc 1 139 28 is_stmt 0 view .LVU57
 210 0006 8261     		str	r2, [r0, #24]
 140:Dsp/widget/wgt_core/UI_Controller.c **** 
 141:Dsp/widget/wgt_core/UI_Controller.c ****     return true;
 211              		.loc 1 141 12 view .LVU58
 212 0008 0120     		movs	r0, #1
 213              	.LVL13:
 214              		.loc 1 141 12 view .LVU59
 215 000a 7047     		bx	lr
 216              	.LVL14:
 217              	.L15:
 137:Dsp/widget/wgt_core/UI_Controller.c ****         Obj->PushDown_Label = label;
 218              		.loc 1 137 9 is_stmt 1 view .LVU60
 137:Dsp/widget/wgt_core/UI_Controller.c ****         Obj->PushDown_Label = label;
 219              		.loc 1 137 29 is_stmt 0 view .LVU61
 220 000c 4261     		str	r2, [r0, #20]
 221              		.loc 1 141 12 view .LVU62
 222 000e 0120     		movs	r0, #1
 223              	.LVL15:
 224              		.loc 1 141 12 view .LVU63
 225 0010 7047     		bx	lr
 226              	.LVL16:
 227              	.L14:
 134:Dsp/widget/wgt_core/UI_Controller.c **** 
 228              		.loc 1 134 16 view .LVU64
 229 0012 0020     		movs	r0, #0
 230              	.LVL17:
 142:Dsp/widget/wgt_core/UI_Controller.c **** }
 231              		.loc 1 142 1 view .LVU65
 232 0014 7047     		bx	lr
 233              		.cfi_endproc
 234              	.LFE5:
 236              		.section	.text.UI_Button_Set_TriggerCallback,"ax",%progbits
 237              		.align	1
 238              		.syntax unified
 239              		.thumb
 240              		.thumb_func
 241              		.fpu fpv4-sp-d16
 243              	UI_Button_Set_TriggerCallback:
 244              	.LVL18:
 245              	.LFB6:
 143:Dsp/widget/wgt_core/UI_Controller.c **** 
 144:Dsp/widget/wgt_core/UI_Controller.c **** static bool UI_Button_Set_TriggerCallback(UI_ButtonObj_TypeDef *Obj, UI_Button_Trigger_Type type, U
 145:Dsp/widget/wgt_core/UI_Controller.c **** {
 246              		.loc 1 145 1 is_stmt 1 view -0
 247              		.cfi_startproc
 248              		@ args = 0, pretend = 0, frame = 0
 249              		@ frame_needed = 0, uses_anonymous_args = 0
 250              		@ link register save eliminated.
 146:Dsp/widget/wgt_core/UI_Controller.c ****     if (Obj == NULL)
 251              		.loc 1 146 5 view .LVU67
 252              		.loc 1 146 8 is_stmt 0 view .LVU68
 253 0000 40B1     		cbz	r0, .L19
 147:Dsp/widget/wgt_core/UI_Controller.c ****         return false;
 148:Dsp/widget/wgt_core/UI_Controller.c **** 
 149:Dsp/widget/wgt_core/UI_Controller.c ****     if (type == Push_Trigger)
ARM GAS  /var/folders/lx/hc4sn_b53233_zkc9xbbl97r0000gp/T//cckGtd2P.s 			page 8


 254              		.loc 1 149 5 is_stmt 1 view .LVU69
 255              		.loc 1 149 8 is_stmt 0 view .LVU70
 256 0002 11B9     		cbnz	r1, .L18
 150:Dsp/widget/wgt_core/UI_Controller.c ****     {
 151:Dsp/widget/wgt_core/UI_Controller.c ****         Obj->push_callback = callback;
 257              		.loc 1 151 9 is_stmt 1 view .LVU71
 258              		.loc 1 151 28 is_stmt 0 view .LVU72
 259 0004 C260     		str	r2, [r0, #12]
 152:Dsp/widget/wgt_core/UI_Controller.c ****     }
 153:Dsp/widget/wgt_core/UI_Controller.c ****     else if (type == Release_Trigger)
 154:Dsp/widget/wgt_core/UI_Controller.c ****     {
 155:Dsp/widget/wgt_core/UI_Controller.c ****         Obj->release_callback = callback;
 156:Dsp/widget/wgt_core/UI_Controller.c ****     }
 157:Dsp/widget/wgt_core/UI_Controller.c ****     else
 158:Dsp/widget/wgt_core/UI_Controller.c ****         return false;
 159:Dsp/widget/wgt_core/UI_Controller.c **** 
 160:Dsp/widget/wgt_core/UI_Controller.c ****     return true;
 260              		.loc 1 160 12 view .LVU73
 261 0006 0120     		movs	r0, #1
 262              	.LVL19:
 263              		.loc 1 160 12 view .LVU74
 264 0008 7047     		bx	lr
 265              	.LVL20:
 266              	.L18:
 153:Dsp/widget/wgt_core/UI_Controller.c ****     {
 267              		.loc 1 153 10 is_stmt 1 view .LVU75
 153:Dsp/widget/wgt_core/UI_Controller.c ****     {
 268              		.loc 1 153 13 is_stmt 0 view .LVU76
 269 000a 0129     		cmp	r1, #1
 270 000c 04D1     		bne	.L20
 155:Dsp/widget/wgt_core/UI_Controller.c ****     }
 271              		.loc 1 155 9 is_stmt 1 view .LVU77
 155:Dsp/widget/wgt_core/UI_Controller.c ****     }
 272              		.loc 1 155 31 is_stmt 0 view .LVU78
 273 000e 0261     		str	r2, [r0, #16]
 274              		.loc 1 160 12 view .LVU79
 275 0010 0120     		movs	r0, #1
 276              	.LVL21:
 277              		.loc 1 160 12 view .LVU80
 278 0012 7047     		bx	lr
 279              	.LVL22:
 280              	.L19:
 147:Dsp/widget/wgt_core/UI_Controller.c **** 
 281              		.loc 1 147 16 view .LVU81
 282 0014 0020     		movs	r0, #0
 283              	.LVL23:
 147:Dsp/widget/wgt_core/UI_Controller.c **** 
 284              		.loc 1 147 16 view .LVU82
 285 0016 7047     		bx	lr
 286              	.LVL24:
 287              	.L20:
 158:Dsp/widget/wgt_core/UI_Controller.c **** 
 288              		.loc 1 158 16 view .LVU83
 289 0018 0020     		movs	r0, #0
 290              	.LVL25:
 161:Dsp/widget/wgt_core/UI_Controller.c **** }
 291              		.loc 1 161 1 view .LVU84
ARM GAS  /var/folders/lx/hc4sn_b53233_zkc9xbbl97r0000gp/T//cckGtd2P.s 			page 9


 292 001a 7047     		bx	lr
 293              		.cfi_endproc
 294              	.LFE6:
 296              		.section	.text.UI_Button_Push,"ax",%progbits
 297              		.align	1
 298              		.syntax unified
 299              		.thumb
 300              		.thumb_func
 301              		.fpu fpv4-sp-d16
 303              	UI_Button_Push:
 304              	.LVL26:
 305              	.LFB7:
 162:Dsp/widget/wgt_core/UI_Controller.c **** 
 163:Dsp/widget/wgt_core/UI_Controller.c **** static bool UI_Button_Push(UI_ButtonObj_TypeDef *Obj)
 164:Dsp/widget/wgt_core/UI_Controller.c **** {
 306              		.loc 1 164 1 is_stmt 1 view -0
 307              		.cfi_startproc
 308              		@ args = 0, pretend = 0, frame = 0
 309              		@ frame_needed = 0, uses_anonymous_args = 0
 165:Dsp/widget/wgt_core/UI_Controller.c ****     if (Obj == NULL)
 310              		.loc 1 165 5 view .LVU86
 311              		.loc 1 165 8 is_stmt 0 view .LVU87
 312 0000 E8B1     		cbz	r0, .L25
 164:Dsp/widget/wgt_core/UI_Controller.c ****     if (Obj == NULL)
 313              		.loc 1 164 1 view .LVU88
 314 0002 08B5     		push	{r3, lr}
 315              	.LCFI1:
 316              		.cfi_def_cfa_offset 8
 317              		.cfi_offset 3, -8
 318              		.cfi_offset 14, -4
 319 0004 0346     		mov	r3, r0
 166:Dsp/widget/wgt_core/UI_Controller.c ****         return false;
 167:Dsp/widget/wgt_core/UI_Controller.c **** 
 168:Dsp/widget/wgt_core/UI_Controller.c ****     if (Obj->type == Lock_Btn)
 320              		.loc 1 168 5 is_stmt 1 view .LVU89
 321              		.loc 1 168 12 is_stmt 0 view .LVU90
 322 0006 827A     		ldrb	r2, [r0, #10]	@ zero_extendqisi2
 323              		.loc 1 168 8 view .LVU91
 324 0008 012A     		cmp	r2, #1
 325 000a 06D0     		beq	.L33
 169:Dsp/widget/wgt_core/UI_Controller.c ****     {
 170:Dsp/widget/wgt_core/UI_Controller.c ****         if (Obj->state == UI_Btn_RlsUp)
 171:Dsp/widget/wgt_core/UI_Controller.c ****             Obj->state = UI_Btn_PushDwn;
 172:Dsp/widget/wgt_core/UI_Controller.c ****         else
 173:Dsp/widget/wgt_core/UI_Controller.c ****             Obj->state = UI_Btn_RlsUp;
 174:Dsp/widget/wgt_core/UI_Controller.c ****     }
 175:Dsp/widget/wgt_core/UI_Controller.c ****     else if (Obj->type == Reset_Btn)
 326              		.loc 1 175 10 is_stmt 1 view .LVU92
 327              		.loc 1 175 13 is_stmt 0 view .LVU93
 328 000c CAB9     		cbnz	r2, .L26
 176:Dsp/widget/wgt_core/UI_Controller.c ****     {
 177:Dsp/widget/wgt_core/UI_Controller.c ****         if (Obj->default_state == Obj->state)
 329              		.loc 1 177 9 is_stmt 1 view .LVU94
 330              		.loc 1 177 16 is_stmt 0 view .LVU95
 331 000e 027A     		ldrb	r2, [r0, #8]	@ zero_extendqisi2
 332              		.loc 1 177 38 view .LVU96
 333 0010 417A     		ldrb	r1, [r0, #9]	@ zero_extendqisi2
ARM GAS  /var/folders/lx/hc4sn_b53233_zkc9xbbl97r0000gp/T//cckGtd2P.s 			page 10


 334              		.loc 1 177 12 view .LVU97
 335 0012 8A42     		cmp	r2, r1
 336 0014 0AD0     		beq	.L34
 178:Dsp/widget/wgt_core/UI_Controller.c ****         {
 179:Dsp/widget/wgt_core/UI_Controller.c ****             Obj->state = !Obj->default_state;
 180:Dsp/widget/wgt_core/UI_Controller.c **** 
 181:Dsp/widget/wgt_core/UI_Controller.c ****             if (Obj->push_callback != NULL)
 182:Dsp/widget/wgt_core/UI_Controller.c ****                 Obj->push_callback();
 183:Dsp/widget/wgt_core/UI_Controller.c ****         }
 184:Dsp/widget/wgt_core/UI_Controller.c ****     }
 185:Dsp/widget/wgt_core/UI_Controller.c ****     else
 186:Dsp/widget/wgt_core/UI_Controller.c ****         return false;
 187:Dsp/widget/wgt_core/UI_Controller.c **** 
 188:Dsp/widget/wgt_core/UI_Controller.c ****     return true;
 337              		.loc 1 188 12 view .LVU98
 338 0016 0120     		movs	r0, #1
 339              	.LVL27:
 340              	.L22:
 189:Dsp/widget/wgt_core/UI_Controller.c **** }
 341              		.loc 1 189 1 view .LVU99
 342 0018 08BD     		pop	{r3, pc}
 343              	.LVL28:
 344              	.L33:
 170:Dsp/widget/wgt_core/UI_Controller.c ****             Obj->state = UI_Btn_PushDwn;
 345              		.loc 1 170 9 is_stmt 1 view .LVU100
 170:Dsp/widget/wgt_core/UI_Controller.c ****             Obj->state = UI_Btn_PushDwn;
 346              		.loc 1 170 16 is_stmt 0 view .LVU101
 347 001a 427A     		ldrb	r2, [r0, #9]	@ zero_extendqisi2
 170:Dsp/widget/wgt_core/UI_Controller.c ****             Obj->state = UI_Btn_PushDwn;
 348              		.loc 1 170 12 view .LVU102
 349 001c 12B9     		cbnz	r2, .L24
 171:Dsp/widget/wgt_core/UI_Controller.c ****         else
 350              		.loc 1 171 13 is_stmt 1 view .LVU103
 171:Dsp/widget/wgt_core/UI_Controller.c ****         else
 351              		.loc 1 171 24 is_stmt 0 view .LVU104
 352 001e 0120     		movs	r0, #1
 353              	.LVL29:
 171:Dsp/widget/wgt_core/UI_Controller.c ****         else
 354              		.loc 1 171 24 view .LVU105
 355 0020 5872     		strb	r0, [r3, #9]
 356 0022 F9E7     		b	.L22
 357              	.LVL30:
 358              	.L24:
 173:Dsp/widget/wgt_core/UI_Controller.c ****     }
 359              		.loc 1 173 13 is_stmt 1 view .LVU106
 173:Dsp/widget/wgt_core/UI_Controller.c ****     }
 360              		.loc 1 173 24 is_stmt 0 view .LVU107
 361 0024 0022     		movs	r2, #0
 362 0026 4272     		strb	r2, [r0, #9]
 188:Dsp/widget/wgt_core/UI_Controller.c **** }
 363              		.loc 1 188 12 view .LVU108
 364 0028 0120     		movs	r0, #1
 365              	.LVL31:
 188:Dsp/widget/wgt_core/UI_Controller.c **** }
 366              		.loc 1 188 12 view .LVU109
 367 002a F5E7     		b	.L22
 368              	.LVL32:
ARM GAS  /var/folders/lx/hc4sn_b53233_zkc9xbbl97r0000gp/T//cckGtd2P.s 			page 11


 369              	.L34:
 179:Dsp/widget/wgt_core/UI_Controller.c **** 
 370              		.loc 1 179 13 is_stmt 1 view .LVU110
 179:Dsp/widget/wgt_core/UI_Controller.c **** 
 371              		.loc 1 179 26 is_stmt 0 view .LVU111
 372 002c B2FA82F2 		clz	r2, r2
 373 0030 5209     		lsrs	r2, r2, #5
 179:Dsp/widget/wgt_core/UI_Controller.c **** 
 374              		.loc 1 179 24 view .LVU112
 375 0032 4272     		strb	r2, [r0, #9]
 181:Dsp/widget/wgt_core/UI_Controller.c ****                 Obj->push_callback();
 376              		.loc 1 181 13 is_stmt 1 view .LVU113
 181:Dsp/widget/wgt_core/UI_Controller.c ****                 Obj->push_callback();
 377              		.loc 1 181 20 is_stmt 0 view .LVU114
 378 0034 C368     		ldr	r3, [r0, #12]
 181:Dsp/widget/wgt_core/UI_Controller.c ****                 Obj->push_callback();
 379              		.loc 1 181 16 view .LVU115
 380 0036 33B1     		cbz	r3, .L28
 182:Dsp/widget/wgt_core/UI_Controller.c ****         }
 381              		.loc 1 182 17 is_stmt 1 view .LVU116
 382 0038 9847     		blx	r3
 383              	.LVL33:
 188:Dsp/widget/wgt_core/UI_Controller.c **** }
 384              		.loc 1 188 12 is_stmt 0 view .LVU117
 385 003a 0120     		movs	r0, #1
 386 003c ECE7     		b	.L22
 387              	.LVL34:
 388              	.L25:
 389              	.LCFI2:
 390              		.cfi_def_cfa_offset 0
 391              		.cfi_restore 3
 392              		.cfi_restore 14
 166:Dsp/widget/wgt_core/UI_Controller.c **** 
 393              		.loc 1 166 16 view .LVU118
 394 003e 0020     		movs	r0, #0
 395              	.LVL35:
 396              		.loc 1 189 1 view .LVU119
 397 0040 7047     		bx	lr
 398              	.LVL36:
 399              	.L26:
 400              	.LCFI3:
 401              		.cfi_def_cfa_offset 8
 402              		.cfi_offset 3, -8
 403              		.cfi_offset 14, -4
 186:Dsp/widget/wgt_core/UI_Controller.c **** 
 404              		.loc 1 186 16 view .LVU120
 405 0042 0020     		movs	r0, #0
 406              	.LVL37:
 186:Dsp/widget/wgt_core/UI_Controller.c **** 
 407              		.loc 1 186 16 view .LVU121
 408 0044 E8E7     		b	.L22
 409              	.LVL38:
 410              	.L28:
 188:Dsp/widget/wgt_core/UI_Controller.c **** }
 411              		.loc 1 188 12 view .LVU122
 412 0046 0120     		movs	r0, #1
 413              	.LVL39:
ARM GAS  /var/folders/lx/hc4sn_b53233_zkc9xbbl97r0000gp/T//cckGtd2P.s 			page 12


 188:Dsp/widget/wgt_core/UI_Controller.c **** }
 414              		.loc 1 188 12 view .LVU123
 415 0048 E6E7     		b	.L22
 416              		.cfi_endproc
 417              	.LFE7:
 419              		.section	.text.UI_Button_Release,"ax",%progbits
 420              		.align	1
 421              		.syntax unified
 422              		.thumb
 423              		.thumb_func
 424              		.fpu fpv4-sp-d16
 426              	UI_Button_Release:
 427              	.LVL40:
 428              	.LFB8:
 190:Dsp/widget/wgt_core/UI_Controller.c **** 
 191:Dsp/widget/wgt_core/UI_Controller.c **** static bool UI_Button_Release(UI_ButtonObj_TypeDef *Obj)
 192:Dsp/widget/wgt_core/UI_Controller.c **** {
 429              		.loc 1 192 1 is_stmt 1 view -0
 430              		.cfi_startproc
 431              		@ args = 0, pretend = 0, frame = 0
 432              		@ frame_needed = 0, uses_anonymous_args = 0
 193:Dsp/widget/wgt_core/UI_Controller.c ****     if (Obj == NULL)
 433              		.loc 1 193 5 view .LVU125
 434              		.loc 1 193 8 is_stmt 0 view .LVU126
 435 0000 68B1     		cbz	r0, .L37
 192:Dsp/widget/wgt_core/UI_Controller.c ****     if (Obj == NULL)
 436              		.loc 1 192 1 view .LVU127
 437 0002 08B5     		push	{r3, lr}
 438              	.LCFI4:
 439              		.cfi_def_cfa_offset 8
 440              		.cfi_offset 3, -8
 441              		.cfi_offset 14, -4
 194:Dsp/widget/wgt_core/UI_Controller.c ****         return false;
 195:Dsp/widget/wgt_core/UI_Controller.c **** 
 196:Dsp/widget/wgt_core/UI_Controller.c ****     if (Obj->type == Lock_Btn)
 442              		.loc 1 196 5 is_stmt 1 view .LVU128
 443              		.loc 1 196 12 is_stmt 0 view .LVU129
 444 0004 827A     		ldrb	r2, [r0, #10]	@ zero_extendqisi2
 445              		.loc 1 196 8 view .LVU130
 446 0006 012A     		cmp	r2, #1
 447 0008 0BD0     		beq	.L38
 197:Dsp/widget/wgt_core/UI_Controller.c ****         return true;
 198:Dsp/widget/wgt_core/UI_Controller.c **** 
 199:Dsp/widget/wgt_core/UI_Controller.c ****     if (Obj->default_state != Obj->state)
 448              		.loc 1 199 5 is_stmt 1 view .LVU131
 449              		.loc 1 199 12 is_stmt 0 view .LVU132
 450 000a 027A     		ldrb	r2, [r0, #8]	@ zero_extendqisi2
 451              		.loc 1 199 34 view .LVU133
 452 000c 417A     		ldrb	r1, [r0, #9]	@ zero_extendqisi2
 453              		.loc 1 199 8 view .LVU134
 454 000e 8A42     		cmp	r2, r1
 455 0010 09D0     		beq	.L39
 200:Dsp/widget/wgt_core/UI_Controller.c ****     {
 201:Dsp/widget/wgt_core/UI_Controller.c ****         Obj->state = Obj->default_state;
 456              		.loc 1 201 9 is_stmt 1 view .LVU135
 457              		.loc 1 201 20 is_stmt 0 view .LVU136
 458 0012 4272     		strb	r2, [r0, #9]
ARM GAS  /var/folders/lx/hc4sn_b53233_zkc9xbbl97r0000gp/T//cckGtd2P.s 			page 13


 202:Dsp/widget/wgt_core/UI_Controller.c **** 
 203:Dsp/widget/wgt_core/UI_Controller.c ****         if (Obj->release_callback != NULL)
 459              		.loc 1 203 9 is_stmt 1 view .LVU137
 460              		.loc 1 203 16 is_stmt 0 view .LVU138
 461 0014 0369     		ldr	r3, [r0, #16]
 462              		.loc 1 203 12 view .LVU139
 463 0016 43B1     		cbz	r3, .L40
 204:Dsp/widget/wgt_core/UI_Controller.c ****             Obj->release_callback();
 464              		.loc 1 204 13 is_stmt 1 view .LVU140
 465 0018 9847     		blx	r3
 466              	.LVL41:
 205:Dsp/widget/wgt_core/UI_Controller.c ****     }
 206:Dsp/widget/wgt_core/UI_Controller.c **** 
 207:Dsp/widget/wgt_core/UI_Controller.c ****     return true;
 467              		.loc 1 207 12 is_stmt 0 view .LVU141
 468 001a 0120     		movs	r0, #1
 469              	.L36:
 208:Dsp/widget/wgt_core/UI_Controller.c **** }
 470              		.loc 1 208 1 view .LVU142
 471 001c 08BD     		pop	{r3, pc}
 472              	.LVL42:
 473              	.L37:
 474              	.LCFI5:
 475              		.cfi_def_cfa_offset 0
 476              		.cfi_restore 3
 477              		.cfi_restore 14
 194:Dsp/widget/wgt_core/UI_Controller.c **** 
 478              		.loc 1 194 16 view .LVU143
 479 001e 0020     		movs	r0, #0
 480              	.LVL43:
 481              		.loc 1 208 1 view .LVU144
 482 0020 7047     		bx	lr
 483              	.LVL44:
 484              	.L38:
 485              	.LCFI6:
 486              		.cfi_def_cfa_offset 8
 487              		.cfi_offset 3, -8
 488              		.cfi_offset 14, -4
 197:Dsp/widget/wgt_core/UI_Controller.c **** 
 489              		.loc 1 197 16 view .LVU145
 490 0022 0120     		movs	r0, #1
 491              	.LVL45:
 197:Dsp/widget/wgt_core/UI_Controller.c **** 
 492              		.loc 1 197 16 view .LVU146
 493 0024 FAE7     		b	.L36
 494              	.LVL46:
 495              	.L39:
 207:Dsp/widget/wgt_core/UI_Controller.c **** }
 496              		.loc 1 207 12 view .LVU147
 497 0026 0120     		movs	r0, #1
 498              	.LVL47:
 207:Dsp/widget/wgt_core/UI_Controller.c **** }
 499              		.loc 1 207 12 view .LVU148
 500 0028 F8E7     		b	.L36
 501              	.LVL48:
 502              	.L40:
 207:Dsp/widget/wgt_core/UI_Controller.c **** }
ARM GAS  /var/folders/lx/hc4sn_b53233_zkc9xbbl97r0000gp/T//cckGtd2P.s 			page 14


 503              		.loc 1 207 12 view .LVU149
 504 002a 0120     		movs	r0, #1
 505              	.LVL49:
 207:Dsp/widget/wgt_core/UI_Controller.c **** }
 506              		.loc 1 207 12 view .LVU150
 507 002c F6E7     		b	.L36
 508              		.cfi_endproc
 509              	.LFE8:
 511              		.section	.text.UI_Button_Move,"ax",%progbits
 512              		.align	1
 513              		.syntax unified
 514              		.thumb
 515              		.thumb_func
 516              		.fpu fpv4-sp-d16
 518              	UI_Button_Move:
 519              	.LVL50:
 520              	.LFB9:
 209:Dsp/widget/wgt_core/UI_Controller.c **** 
 210:Dsp/widget/wgt_core/UI_Controller.c **** static bool UI_Button_Move(UI_ButtonObj_TypeDef *Obj, uint8_t x, uint8_t y)
 211:Dsp/widget/wgt_core/UI_Controller.c **** {
 521              		.loc 1 211 1 is_stmt 1 view -0
 522              		.cfi_startproc
 523              		@ args = 0, pretend = 0, frame = 0
 524              		@ frame_needed = 0, uses_anonymous_args = 0
 212:Dsp/widget/wgt_core/UI_Controller.c ****     if (Obj == NULL)
 525              		.loc 1 212 5 view .LVU152
 526              		.loc 1 212 8 is_stmt 0 view .LVU153
 527 0000 28B1     		cbz	r0, .L47
 211:Dsp/widget/wgt_core/UI_Controller.c ****     if (Obj == NULL)
 528              		.loc 1 211 1 view .LVU154
 529 0002 08B5     		push	{r3, lr}
 530              	.LCFI7:
 531              		.cfi_def_cfa_offset 8
 532              		.cfi_offset 3, -8
 533              		.cfi_offset 14, -4
 213:Dsp/widget/wgt_core/UI_Controller.c ****         return false;
 214:Dsp/widget/wgt_core/UI_Controller.c **** 
 215:Dsp/widget/wgt_core/UI_Controller.c ****     return UI_Move(&(Obj->Gen_Data), x, y);
 534              		.loc 1 215 5 is_stmt 1 view .LVU155
 535              		.loc 1 215 12 is_stmt 0 view .LVU156
 536 0004 52B2     		sxtb	r2, r2
 537              		.loc 1 215 12 view .LVU157
 538 0006 49B2     		sxtb	r1, r1
 539              		.loc 1 215 12 view .LVU158
 540 0008 FFF7FEFF 		bl	UI_Move
 541              	.LVL51:
 216:Dsp/widget/wgt_core/UI_Controller.c **** }
 542              		.loc 1 216 1 view .LVU159
 543 000c 08BD     		pop	{r3, pc}
 544              	.LVL52:
 545              	.L47:
 546              	.LCFI8:
 547              		.cfi_def_cfa_offset 0
 548              		.cfi_restore 3
 549              		.cfi_restore 14
 213:Dsp/widget/wgt_core/UI_Controller.c ****         return false;
 550              		.loc 1 213 16 view .LVU160
ARM GAS  /var/folders/lx/hc4sn_b53233_zkc9xbbl97r0000gp/T//cckGtd2P.s 			page 15


 551 000e 0020     		movs	r0, #0
 552              	.LVL53:
 553              		.loc 1 216 1 view .LVU161
 554 0010 7047     		bx	lr
 555              		.cfi_endproc
 556              	.LFE9:
 558              		.section	.text.UI_Button_Ctl,"ax",%progbits
 559              		.align	1
 560              		.syntax unified
 561              		.thumb
 562              		.thumb_func
 563              		.fpu fpv4-sp-d16
 565              	UI_Button_Ctl:
 566              	.LVL54:
 567              	.LFB10:
 217:Dsp/widget/wgt_core/UI_Controller.c **** 
 218:Dsp/widget/wgt_core/UI_Controller.c **** static bool UI_Button_Ctl(UI_ButtonObj_TypeDef *Obj)
 219:Dsp/widget/wgt_core/UI_Controller.c **** {
 568              		.loc 1 219 1 is_stmt 1 view -0
 569              		.cfi_startproc
 570              		@ args = 0, pretend = 0, frame = 0
 571              		@ frame_needed = 0, uses_anonymous_args = 0
 220:Dsp/widget/wgt_core/UI_Controller.c ****     if (Obj == NULL)
 572              		.loc 1 220 5 view .LVU163
 573              		.loc 1 220 8 is_stmt 0 view .LVU164
 574 0000 0028     		cmp	r0, #0
 575 0002 55D0     		beq	.L57
 219:Dsp/widget/wgt_core/UI_Controller.c ****     if (Obj == NULL)
 576              		.loc 1 219 1 view .LVU165
 577 0004 70B5     		push	{r4, r5, r6, lr}
 578              	.LCFI9:
 579              		.cfi_def_cfa_offset 16
 580              		.cfi_offset 4, -16
 581              		.cfi_offset 5, -12
 582              		.cfi_offset 6, -8
 583              		.cfi_offset 14, -4
 584 0006 82B0     		sub	sp, sp, #8
 585              	.LCFI10:
 586              		.cfi_def_cfa_offset 24
 587 0008 0446     		mov	r4, r0
 221:Dsp/widget/wgt_core/UI_Controller.c ****         return false;
 222:Dsp/widget/wgt_core/UI_Controller.c **** 
 223:Dsp/widget/wgt_core/UI_Controller.c ****     if (Obj->type == Lock_Btn)
 588              		.loc 1 223 5 is_stmt 1 view .LVU166
 589              		.loc 1 223 12 is_stmt 0 view .LVU167
 590 000a 837A     		ldrb	r3, [r0, #10]	@ zero_extendqisi2
 591              		.loc 1 223 8 view .LVU168
 592 000c 012B     		cmp	r3, #1
 593 000e 28D0     		beq	.L68
 594              	.LVL55:
 595              	.L54:
 224:Dsp/widget/wgt_core/UI_Controller.c ****     {
 225:Dsp/widget/wgt_core/UI_Controller.c ****         if (Obj->state == UI_Btn_PushDwn)
 226:Dsp/widget/wgt_core/UI_Controller.c ****         {
 227:Dsp/widget/wgt_core/UI_Controller.c ****             Obj->push_callback();
 228:Dsp/widget/wgt_core/UI_Controller.c ****         }
 229:Dsp/widget/wgt_core/UI_Controller.c ****         else if (Obj->state == UI_Btn_RlsUp)
ARM GAS  /var/folders/lx/hc4sn_b53233_zkc9xbbl97r0000gp/T//cckGtd2P.s 			page 16


 230:Dsp/widget/wgt_core/UI_Controller.c ****         {
 231:Dsp/widget/wgt_core/UI_Controller.c ****             Obj->release_callback();
 232:Dsp/widget/wgt_core/UI_Controller.c ****         }
 233:Dsp/widget/wgt_core/UI_Controller.c ****         else
 234:Dsp/widget/wgt_core/UI_Controller.c ****             return false;
 235:Dsp/widget/wgt_core/UI_Controller.c ****     }
 236:Dsp/widget/wgt_core/UI_Controller.c **** 
 237:Dsp/widget/wgt_core/UI_Controller.c ****     /* display button on screen object */
 238:Dsp/widget/wgt_core/UI_Controller.c ****     /* invert display color when button been push down */
 239:Dsp/widget/wgt_core/UI_Controller.c ****     if ((UI_DspInterface.draw_str != NULL) && (UI_DspInterface.fill_radius_rectangle != NULL) && (U
 596              		.loc 1 239 5 is_stmt 1 view .LVU169
 597              		.loc 1 239 25 is_stmt 0 view .LVU170
 598 0010 2E4B     		ldr	r3, .L71
 599 0012 5B69     		ldr	r3, [r3, #20]
 600              		.loc 1 239 8 view .LVU171
 601 0014 002B     		cmp	r3, #0
 602 0016 4FD0     		beq	.L59
 603              		.loc 1 239 63 discriminator 1 view .LVU172
 604 0018 2C4B     		ldr	r3, .L71
 605 001a 1D6A     		ldr	r5, [r3, #32]
 606              		.loc 1 239 44 discriminator 1 view .LVU173
 607 001c 002D     		cmp	r5, #0
 608 001e 4DD0     		beq	.L60
 609              		.loc 1 239 114 discriminator 2 view .LVU174
 610 0020 9E68     		ldr	r6, [r3, #8]
 611              		.loc 1 239 95 discriminator 2 view .LVU175
 612 0022 002E     		cmp	r6, #0
 613 0024 4CD0     		beq	.L61
 240:Dsp/widget/wgt_core/UI_Controller.c ****     {
 241:Dsp/widget/wgt_core/UI_Controller.c ****         if (Obj->state == UI_Btn_PushDwn)
 614              		.loc 1 241 9 is_stmt 1 view .LVU176
 615              		.loc 1 241 16 is_stmt 0 view .LVU177
 616 0026 637A     		ldrb	r3, [r4, #9]	@ zero_extendqisi2
 617              		.loc 1 241 12 view .LVU178
 618 0028 012B     		cmp	r3, #1
 619 002a 24D0     		beq	.L69
 242:Dsp/widget/wgt_core/UI_Controller.c ****         {
 243:Dsp/widget/wgt_core/UI_Controller.c ****             /* fill button frame */
 244:Dsp/widget/wgt_core/UI_Controller.c ****             UI_DspInterface.fill_radius_rectangle(Obj->Gen_Data.x + 1, Obj->Gen_Data.y + 1, Obj->wi
 245:Dsp/widget/wgt_core/UI_Controller.c **** 
 246:Dsp/widget/wgt_core/UI_Controller.c ****             /* invert string display */
 247:Dsp/widget/wgt_core/UI_Controller.c ****             if (Obj->PushDown_Label != NULL)
 248:Dsp/widget/wgt_core/UI_Controller.c ****                 UI_DspInterface.draw_str(Default_Font, Obj->PushDown_Label, Obj->Gen_Data.x, Obj->G
 249:Dsp/widget/wgt_core/UI_Controller.c ****         }
 250:Dsp/widget/wgt_core/UI_Controller.c ****         else
 251:Dsp/widget/wgt_core/UI_Controller.c ****         {
 252:Dsp/widget/wgt_core/UI_Controller.c ****             /* draw button frame */
 253:Dsp/widget/wgt_core/UI_Controller.c ****             UI_DspInterface.draw_radius_rectangle(Obj->Gen_Data.x, Obj->Gen_Data.y, Obj->width, Obj
 620              		.loc 1 253 13 is_stmt 1 view .LVU179
 621 002c 0123     		movs	r3, #1
 622 002e 0193     		str	r3, [sp, #4]
 623 0030 0223     		movs	r3, #2
 624 0032 0093     		str	r3, [sp]
 625 0034 637F     		ldrb	r3, [r4, #29]	@ zero_extendqisi2
 626 0036 227F     		ldrb	r2, [r4, #28]	@ zero_extendqisi2
 627 0038 94F90510 		ldrsb	r1, [r4, #5]
 628 003c 94F90400 		ldrsb	r0, [r4, #4]
ARM GAS  /var/folders/lx/hc4sn_b53233_zkc9xbbl97r0000gp/T//cckGtd2P.s 			page 17


 629 0040 B047     		blx	r6
 630              	.LVL56:
 254:Dsp/widget/wgt_core/UI_Controller.c **** 
 255:Dsp/widget/wgt_core/UI_Controller.c ****             /* display label normally */
 256:Dsp/widget/wgt_core/UI_Controller.c ****             if (Obj->Release_Label != NULL)
 631              		.loc 1 256 13 view .LVU180
 632              		.loc 1 256 20 is_stmt 0 view .LVU181
 633 0042 A169     		ldr	r1, [r4, #24]
 634              		.loc 1 256 16 view .LVU182
 635 0044 0029     		cmp	r1, #0
 636 0046 3FD0     		beq	.L63
 257:Dsp/widget/wgt_core/UI_Controller.c ****                 UI_DspInterface.draw_str(Default_Font, Obj->Release_Label, Obj->Gen_Data.x, Obj->Ge
 637              		.loc 1 257 17 is_stmt 1 view .LVU183
 638              		.loc 1 257 32 is_stmt 0 view .LVU184
 639 0048 204B     		ldr	r3, .L71
 640 004a 5D69     		ldr	r5, [r3, #20]
 641              		.loc 1 257 17 view .LVU185
 642 004c 0023     		movs	r3, #0
 643 004e 0093     		str	r3, [sp]
 644 0050 94F90530 		ldrsb	r3, [r4, #5]
 645 0054 94F90420 		ldrsb	r2, [r4, #4]
 646 0058 0C20     		movs	r0, #12
 647 005a A847     		blx	r5
 648              	.LVL57:
 258:Dsp/widget/wgt_core/UI_Controller.c ****         }
 259:Dsp/widget/wgt_core/UI_Controller.c ****     }
 260:Dsp/widget/wgt_core/UI_Controller.c ****     else
 261:Dsp/widget/wgt_core/UI_Controller.c ****         return false;
 262:Dsp/widget/wgt_core/UI_Controller.c **** 
 263:Dsp/widget/wgt_core/UI_Controller.c ****     return true;
 649              		.loc 1 263 12 view .LVU186
 650 005c 0120     		movs	r0, #1
 651              	.L53:
 264:Dsp/widget/wgt_core/UI_Controller.c **** }
 652              		.loc 1 264 1 view .LVU187
 653 005e 02B0     		add	sp, sp, #8
 654              	.LCFI11:
 655              		.cfi_remember_state
 656              		.cfi_def_cfa_offset 16
 657              		@ sp needed
 658 0060 70BD     		pop	{r4, r5, r6, pc}
 659              	.LVL58:
 660              	.L68:
 661              	.LCFI12:
 662              		.cfi_restore_state
 225:Dsp/widget/wgt_core/UI_Controller.c ****         {
 663              		.loc 1 225 9 is_stmt 1 view .LVU188
 225:Dsp/widget/wgt_core/UI_Controller.c ****         {
 664              		.loc 1 225 16 is_stmt 0 view .LVU189
 665 0062 437A     		ldrb	r3, [r0, #9]	@ zero_extendqisi2
 225:Dsp/widget/wgt_core/UI_Controller.c ****         {
 666              		.loc 1 225 12 view .LVU190
 667 0064 012B     		cmp	r3, #1
 668 0066 03D0     		beq	.L70
 229:Dsp/widget/wgt_core/UI_Controller.c ****         {
 669              		.loc 1 229 14 is_stmt 1 view .LVU191
 229:Dsp/widget/wgt_core/UI_Controller.c ****         {
ARM GAS  /var/folders/lx/hc4sn_b53233_zkc9xbbl97r0000gp/T//cckGtd2P.s 			page 18


 670              		.loc 1 229 17 is_stmt 0 view .LVU192
 671 0068 23BB     		cbnz	r3, .L58
 231:Dsp/widget/wgt_core/UI_Controller.c ****         }
 672              		.loc 1 231 13 is_stmt 1 view .LVU193
 231:Dsp/widget/wgt_core/UI_Controller.c ****         }
 673              		.loc 1 231 16 is_stmt 0 view .LVU194
 674 006a 0369     		ldr	r3, [r0, #16]
 231:Dsp/widget/wgt_core/UI_Controller.c ****         }
 675              		.loc 1 231 13 view .LVU195
 676 006c 9847     		blx	r3
 677              	.LVL59:
 231:Dsp/widget/wgt_core/UI_Controller.c ****         }
 678              		.loc 1 231 13 view .LVU196
 679 006e CFE7     		b	.L54
 680              	.LVL60:
 681              	.L70:
 227:Dsp/widget/wgt_core/UI_Controller.c ****         }
 682              		.loc 1 227 13 is_stmt 1 view .LVU197
 227:Dsp/widget/wgt_core/UI_Controller.c ****         }
 683              		.loc 1 227 16 is_stmt 0 view .LVU198
 684 0070 C368     		ldr	r3, [r0, #12]
 227:Dsp/widget/wgt_core/UI_Controller.c ****         }
 685              		.loc 1 227 13 view .LVU199
 686 0072 9847     		blx	r3
 687              	.LVL61:
 227:Dsp/widget/wgt_core/UI_Controller.c ****         }
 688              		.loc 1 227 13 view .LVU200
 689 0074 CCE7     		b	.L54
 690              	.L69:
 244:Dsp/widget/wgt_core/UI_Controller.c **** 
 691              		.loc 1 244 13 is_stmt 1 view .LVU201
 244:Dsp/widget/wgt_core/UI_Controller.c **** 
 692              		.loc 1 244 64 is_stmt 0 view .LVU202
 693 0076 2079     		ldrb	r0, [r4, #4]	@ zero_extendqisi2
 244:Dsp/widget/wgt_core/UI_Controller.c **** 
 694              		.loc 1 244 67 view .LVU203
 695 0078 0130     		adds	r0, r0, #1
 244:Dsp/widget/wgt_core/UI_Controller.c **** 
 696              		.loc 1 244 85 view .LVU204
 697 007a 6179     		ldrb	r1, [r4, #5]	@ zero_extendqisi2
 244:Dsp/widget/wgt_core/UI_Controller.c **** 
 698              		.loc 1 244 88 view .LVU205
 699 007c 0131     		adds	r1, r1, #1
 244:Dsp/widget/wgt_core/UI_Controller.c **** 
 700              		.loc 1 244 96 view .LVU206
 701 007e 227F     		ldrb	r2, [r4, #28]	@ zero_extendqisi2
 244:Dsp/widget/wgt_core/UI_Controller.c **** 
 702              		.loc 1 244 112 view .LVU207
 703 0080 637F     		ldrb	r3, [r4, #29]	@ zero_extendqisi2
 244:Dsp/widget/wgt_core/UI_Controller.c **** 
 704              		.loc 1 244 13 view .LVU208
 705 0082 013B     		subs	r3, r3, #1
 706 0084 013A     		subs	r2, r2, #1
 707 0086 0226     		movs	r6, #2
 708 0088 0096     		str	r6, [sp]
 709 008a DBB2     		uxtb	r3, r3
 710 008c D2B2     		uxtb	r2, r2
ARM GAS  /var/folders/lx/hc4sn_b53233_zkc9xbbl97r0000gp/T//cckGtd2P.s 			page 19


 711 008e 49B2     		sxtb	r1, r1
 712 0090 40B2     		sxtb	r0, r0
 713 0092 A847     		blx	r5
 714              	.LVL62:
 247:Dsp/widget/wgt_core/UI_Controller.c ****                 UI_DspInterface.draw_str(Default_Font, Obj->PushDown_Label, Obj->Gen_Data.x, Obj->G
 715              		.loc 1 247 13 is_stmt 1 view .LVU209
 247:Dsp/widget/wgt_core/UI_Controller.c ****                 UI_DspInterface.draw_str(Default_Font, Obj->PushDown_Label, Obj->Gen_Data.x, Obj->G
 716              		.loc 1 247 20 is_stmt 0 view .LVU210
 717 0094 6169     		ldr	r1, [r4, #20]
 247:Dsp/widget/wgt_core/UI_Controller.c ****                 UI_DspInterface.draw_str(Default_Font, Obj->PushDown_Label, Obj->Gen_Data.x, Obj->G
 718              		.loc 1 247 16 view .LVU211
 719 0096 A9B1     		cbz	r1, .L62
 248:Dsp/widget/wgt_core/UI_Controller.c ****         }
 720              		.loc 1 248 17 is_stmt 1 view .LVU212
 248:Dsp/widget/wgt_core/UI_Controller.c ****         }
 721              		.loc 1 248 32 is_stmt 0 view .LVU213
 722 0098 0C4B     		ldr	r3, .L71
 723 009a 5E69     		ldr	r6, [r3, #20]
 248:Dsp/widget/wgt_core/UI_Controller.c ****         }
 724              		.loc 1 248 17 view .LVU214
 725 009c 0125     		movs	r5, #1
 726 009e 0095     		str	r5, [sp]
 727 00a0 94F90530 		ldrsb	r3, [r4, #5]
 728 00a4 94F90420 		ldrsb	r2, [r4, #4]
 729 00a8 0C20     		movs	r0, #12
 730 00aa B047     		blx	r6
 731              	.LVL63:
 263:Dsp/widget/wgt_core/UI_Controller.c **** }
 732              		.loc 1 263 12 view .LVU215
 733 00ac 2846     		mov	r0, r5
 734 00ae D6E7     		b	.L53
 735              	.LVL64:
 736              	.L57:
 737              	.LCFI13:
 738              		.cfi_def_cfa_offset 0
 739              		.cfi_restore 4
 740              		.cfi_restore 5
 741              		.cfi_restore 6
 742              		.cfi_restore 14
 221:Dsp/widget/wgt_core/UI_Controller.c **** 
 743              		.loc 1 221 16 view .LVU216
 744 00b0 0020     		movs	r0, #0
 745              	.LVL65:
 746              		.loc 1 264 1 view .LVU217
 747 00b2 7047     		bx	lr
 748              	.LVL66:
 749              	.L58:
 750              	.LCFI14:
 751              		.cfi_def_cfa_offset 24
 752              		.cfi_offset 4, -16
 753              		.cfi_offset 5, -12
 754              		.cfi_offset 6, -8
 755              		.cfi_offset 14, -4
 234:Dsp/widget/wgt_core/UI_Controller.c ****     }
 756              		.loc 1 234 20 view .LVU218
 757 00b4 0020     		movs	r0, #0
 758              	.LVL67:
ARM GAS  /var/folders/lx/hc4sn_b53233_zkc9xbbl97r0000gp/T//cckGtd2P.s 			page 20


 234:Dsp/widget/wgt_core/UI_Controller.c ****     }
 759              		.loc 1 234 20 view .LVU219
 760 00b6 D2E7     		b	.L53
 761              	.L59:
 261:Dsp/widget/wgt_core/UI_Controller.c **** 
 762              		.loc 1 261 16 view .LVU220
 763 00b8 0020     		movs	r0, #0
 764 00ba D0E7     		b	.L53
 765              	.L60:
 766 00bc 0020     		movs	r0, #0
 767 00be CEE7     		b	.L53
 768              	.L61:
 769 00c0 0020     		movs	r0, #0
 770 00c2 CCE7     		b	.L53
 771              	.L62:
 263:Dsp/widget/wgt_core/UI_Controller.c **** }
 772              		.loc 1 263 12 view .LVU221
 773 00c4 0120     		movs	r0, #1
 774 00c6 CAE7     		b	.L53
 775              	.L63:
 263:Dsp/widget/wgt_core/UI_Controller.c **** }
 776              		.loc 1 263 12 view .LVU222
 777 00c8 0120     		movs	r0, #1
 778 00ca C8E7     		b	.L53
 779              	.L72:
 780              		.align	2
 781              	.L71:
 782 00cc 00000000 		.word	.LANCHOR0
 783              		.cfi_endproc
 784              	.LFE10:
 786              		.section	.text.UI_Set_DspInterface,"ax",%progbits
 787              		.align	1
 788              		.global	UI_Set_DspInterface
 789              		.syntax unified
 790              		.thumb
 791              		.thumb_func
 792              		.fpu fpv4-sp-d16
 794              	UI_Set_DspInterface:
 795              	.LVL68:
 796              	.LFB0:
  51:Dsp/widget/wgt_core/UI_Controller.c ****     UI_DspInterface.draw_circle = circle;
 797              		.loc 1 51 1 is_stmt 1 view -0
 798              		.cfi_startproc
 799              		@ args = 20, pretend = 0, frame = 0
 800              		@ frame_needed = 0, uses_anonymous_args = 0
 801              		@ link register save eliminated.
  51:Dsp/widget/wgt_core/UI_Controller.c ****     UI_DspInterface.draw_circle = circle;
 802              		.loc 1 51 1 is_stmt 0 view .LVU224
 803 0000 30B4     		push	{r4, r5}
 804              	.LCFI15:
 805              		.cfi_def_cfa_offset 8
 806              		.cfi_offset 4, -8
 807              		.cfi_offset 5, -4
  52:Dsp/widget/wgt_core/UI_Controller.c ****     UI_DspInterface.draw_line = line;
 808              		.loc 1 52 5 is_stmt 1 view .LVU225
  52:Dsp/widget/wgt_core/UI_Controller.c ****     UI_DspInterface.draw_line = line;
 809              		.loc 1 52 33 is_stmt 0 view .LVU226
ARM GAS  /var/folders/lx/hc4sn_b53233_zkc9xbbl97r0000gp/T//cckGtd2P.s 			page 21


 810 0002 084C     		ldr	r4, .L75
 811 0004 029D     		ldr	r5, [sp, #8]
 812 0006 2561     		str	r5, [r4, #16]
  53:Dsp/widget/wgt_core/UI_Controller.c ****     UI_DspInterface.draw_point = point;
 813              		.loc 1 53 5 is_stmt 1 view .LVU227
  53:Dsp/widget/wgt_core/UI_Controller.c ****     UI_DspInterface.draw_point = point;
 814              		.loc 1 53 31 is_stmt 0 view .LVU228
 815 0008 6160     		str	r1, [r4, #4]
  54:Dsp/widget/wgt_core/UI_Controller.c ****     UI_DspInterface.draw_rectangle = rectangle;
 816              		.loc 1 54 5 is_stmt 1 view .LVU229
  54:Dsp/widget/wgt_core/UI_Controller.c ****     UI_DspInterface.draw_rectangle = rectangle;
 817              		.loc 1 54 32 is_stmt 0 view .LVU230
 818 000a 2060     		str	r0, [r4]
  55:Dsp/widget/wgt_core/UI_Controller.c ****     UI_DspInterface.draw_radius_rectangle = radius_rectangle;
 819              		.loc 1 55 5 is_stmt 1 view .LVU231
  55:Dsp/widget/wgt_core/UI_Controller.c ****     UI_DspInterface.draw_radius_rectangle = radius_rectangle;
 820              		.loc 1 55 36 is_stmt 0 view .LVU232
 821 000c E260     		str	r2, [r4, #12]
  56:Dsp/widget/wgt_core/UI_Controller.c ****     UI_DspInterface.draw_str = str;
 822              		.loc 1 56 5 is_stmt 1 view .LVU233
  56:Dsp/widget/wgt_core/UI_Controller.c ****     UI_DspInterface.draw_str = str;
 823              		.loc 1 56 43 is_stmt 0 view .LVU234
 824 000e A360     		str	r3, [r4, #8]
  57:Dsp/widget/wgt_core/UI_Controller.c **** 
 825              		.loc 1 57 5 is_stmt 1 view .LVU235
  57:Dsp/widget/wgt_core/UI_Controller.c **** 
 826              		.loc 1 57 30 is_stmt 0 view .LVU236
 827 0010 039B     		ldr	r3, [sp, #12]
 828              	.LVL69:
  57:Dsp/widget/wgt_core/UI_Controller.c **** 
 829              		.loc 1 57 30 view .LVU237
 830 0012 6361     		str	r3, [r4, #20]
  59:Dsp/widget/wgt_core/UI_Controller.c ****     UI_DspInterface.fill_radius_rectangle = fill_radius_rectangle;
 831              		.loc 1 59 5 is_stmt 1 view .LVU238
  59:Dsp/widget/wgt_core/UI_Controller.c ****     UI_DspInterface.fill_radius_rectangle = fill_radius_rectangle;
 832              		.loc 1 59 33 is_stmt 0 view .LVU239
 833 0014 049B     		ldr	r3, [sp, #16]
 834 0016 E361     		str	r3, [r4, #28]
  60:Dsp/widget/wgt_core/UI_Controller.c ****     UI_DspInterface.fill_rectangle = fill_rectangle;
 835              		.loc 1 60 5 is_stmt 1 view .LVU240
  60:Dsp/widget/wgt_core/UI_Controller.c ****     UI_DspInterface.fill_rectangle = fill_rectangle;
 836              		.loc 1 60 43 is_stmt 0 view .LVU241
 837 0018 069B     		ldr	r3, [sp, #24]
 838 001a 2362     		str	r3, [r4, #32]
  61:Dsp/widget/wgt_core/UI_Controller.c **** }
 839              		.loc 1 61 5 is_stmt 1 view .LVU242
  61:Dsp/widget/wgt_core/UI_Controller.c **** }
 840              		.loc 1 61 36 is_stmt 0 view .LVU243
 841 001c 059B     		ldr	r3, [sp, #20]
 842 001e A361     		str	r3, [r4, #24]
  62:Dsp/widget/wgt_core/UI_Controller.c **** 
 843              		.loc 1 62 1 view .LVU244
 844 0020 30BC     		pop	{r4, r5}
 845              	.LCFI16:
 846              		.cfi_restore 5
 847              		.cfi_restore 4
 848              		.cfi_def_cfa_offset 0
ARM GAS  /var/folders/lx/hc4sn_b53233_zkc9xbbl97r0000gp/T//cckGtd2P.s 			page 22


 849              	.LVL70:
  62:Dsp/widget/wgt_core/UI_Controller.c **** 
 850              		.loc 1 62 1 view .LVU245
 851 0022 7047     		bx	lr
 852              	.L76:
 853              		.align	2
 854              	.L75:
 855 0024 00000000 		.word	.LANCHOR0
 856              		.cfi_endproc
 857              	.LFE0:
 859              		.section	.text.UI_ShowSelector,"ax",%progbits
 860              		.align	1
 861              		.global	UI_ShowSelector
 862              		.syntax unified
 863              		.thumb
 864              		.thumb_func
 865              		.fpu fpv4-sp-d16
 867              	UI_ShowSelector:
 868              	.LVL71:
 869              	.LFB1:
  66:Dsp/widget/wgt_core/UI_Controller.c ****     if (item == NULL)
 870              		.loc 1 66 1 is_stmt 1 view -0
 871              		.cfi_startproc
 872              		@ args = 0, pretend = 0, frame = 0
 873              		@ frame_needed = 0, uses_anonymous_args = 0
 874              		@ link register save eliminated.
  67:Dsp/widget/wgt_core/UI_Controller.c ****         return false;
 875              		.loc 1 67 5 view .LVU247
  67:Dsp/widget/wgt_core/UI_Controller.c ****         return false;
 876              		.loc 1 67 8 is_stmt 0 view .LVU248
 877 0000 08B1     		cbz	r0, .L79
  79:Dsp/widget/wgt_core/UI_Controller.c **** }
 878              		.loc 1 79 12 view .LVU249
 879 0002 0120     		movs	r0, #1
 880              	.LVL72:
  79:Dsp/widget/wgt_core/UI_Controller.c **** }
 881              		.loc 1 79 12 view .LVU250
 882 0004 7047     		bx	lr
 883              	.LVL73:
 884              	.L79:
  68:Dsp/widget/wgt_core/UI_Controller.c **** 
 885              		.loc 1 68 16 view .LVU251
 886 0006 0020     		movs	r0, #0
 887              	.LVL74:
  80:Dsp/widget/wgt_core/UI_Controller.c **** 
 888              		.loc 1 80 1 view .LVU252
 889 0008 7047     		bx	lr
 890              		.cfi_endproc
 891              	.LFE1:
 893              		.global	UI_Button
 894              		.section	.bss.UI_DspInterface,"aw",%nobits
 895              		.align	2
 896              		.set	.LANCHOR0,. + 0
 899              	UI_DspInterface:
 900 0000 00000000 		.space	36
 900      00000000 
 900      00000000 
ARM GAS  /var/folders/lx/hc4sn_b53233_zkc9xbbl97r0000gp/T//cckGtd2P.s 			page 23


 900      00000000 
 900      00000000 
 901              		.section	.data.UI_Button,"aw"
 902              		.align	2
 905              	UI_Button:
 906 0000 00000000 		.word	UI_Button_Init
 907 0004 00000000 		.word	UI_Button_Set_TriggerCallback
 908 0008 00000000 		.word	UI_Button_Set_Label
 909 000c 00000000 		.word	UI_Button_Push
 910 0010 00000000 		.word	UI_Button_Release
 911 0014 00000000 		.word	UI_Button_Ctl
 912 0018 00000000 		.word	UI_Button_Move
 913              		.text
 914              	.Letext0:
 915              		.file 2 "/usr/local/arm-none-eabi-gcc/gcc-arm-none-eabi-10-2020-q4-major/arm-none-eabi/include/mac
 916              		.file 3 "/usr/local/arm-none-eabi-gcc/gcc-arm-none-eabi-10-2020-q4-major/arm-none-eabi/include/sys
 917              		.file 4 "Dsp/widget/wgt_core/UI_Controller.h"
 918              		.file 5 "Dsp/screen/font/oledfont.h"
ARM GAS  /var/folders/lx/hc4sn_b53233_zkc9xbbl97r0000gp/T//cckGtd2P.s 			page 24


DEFINED SYMBOLS
                            *ABS*:0000000000000000 UI_Controller.c
/var/folders/lx/hc4sn_b53233_zkc9xbbl97r0000gp/T//cckGtd2P.s:18     .text.UI_GenData_Init:0000000000000000 $t
/var/folders/lx/hc4sn_b53233_zkc9xbbl97r0000gp/T//cckGtd2P.s:25     .text.UI_GenData_Init:0000000000000000 UI_GenData_Init
/var/folders/lx/hc4sn_b53233_zkc9xbbl97r0000gp/T//cckGtd2P.s:55     .text.UI_Move:0000000000000000 $t
/var/folders/lx/hc4sn_b53233_zkc9xbbl97r0000gp/T//cckGtd2P.s:61     .text.UI_Move:0000000000000000 UI_Move
/var/folders/lx/hc4sn_b53233_zkc9xbbl97r0000gp/T//cckGtd2P.s:95     .rodata.UI_Button_Init.str1.4:0000000000000000 $d
/var/folders/lx/hc4sn_b53233_zkc9xbbl97r0000gp/T//cckGtd2P.s:102    .text.UI_Button_Init:0000000000000000 $t
/var/folders/lx/hc4sn_b53233_zkc9xbbl97r0000gp/T//cckGtd2P.s:108    .text.UI_Button_Init:0000000000000000 UI_Button_Init
/var/folders/lx/hc4sn_b53233_zkc9xbbl97r0000gp/T//cckGtd2P.s:181    .text.UI_Button_Init:0000000000000040 $d
/var/folders/lx/hc4sn_b53233_zkc9xbbl97r0000gp/T//cckGtd2P.s:187    .text.UI_Button_Set_Label:0000000000000000 $t
/var/folders/lx/hc4sn_b53233_zkc9xbbl97r0000gp/T//cckGtd2P.s:193    .text.UI_Button_Set_Label:0000000000000000 UI_Button_Set_Label
/var/folders/lx/hc4sn_b53233_zkc9xbbl97r0000gp/T//cckGtd2P.s:237    .text.UI_Button_Set_TriggerCallback:0000000000000000 $t
/var/folders/lx/hc4sn_b53233_zkc9xbbl97r0000gp/T//cckGtd2P.s:243    .text.UI_Button_Set_TriggerCallback:0000000000000000 UI_Button_Set_TriggerCallback
/var/folders/lx/hc4sn_b53233_zkc9xbbl97r0000gp/T//cckGtd2P.s:297    .text.UI_Button_Push:0000000000000000 $t
/var/folders/lx/hc4sn_b53233_zkc9xbbl97r0000gp/T//cckGtd2P.s:303    .text.UI_Button_Push:0000000000000000 UI_Button_Push
/var/folders/lx/hc4sn_b53233_zkc9xbbl97r0000gp/T//cckGtd2P.s:420    .text.UI_Button_Release:0000000000000000 $t
/var/folders/lx/hc4sn_b53233_zkc9xbbl97r0000gp/T//cckGtd2P.s:426    .text.UI_Button_Release:0000000000000000 UI_Button_Release
/var/folders/lx/hc4sn_b53233_zkc9xbbl97r0000gp/T//cckGtd2P.s:512    .text.UI_Button_Move:0000000000000000 $t
/var/folders/lx/hc4sn_b53233_zkc9xbbl97r0000gp/T//cckGtd2P.s:518    .text.UI_Button_Move:0000000000000000 UI_Button_Move
/var/folders/lx/hc4sn_b53233_zkc9xbbl97r0000gp/T//cckGtd2P.s:559    .text.UI_Button_Ctl:0000000000000000 $t
/var/folders/lx/hc4sn_b53233_zkc9xbbl97r0000gp/T//cckGtd2P.s:565    .text.UI_Button_Ctl:0000000000000000 UI_Button_Ctl
/var/folders/lx/hc4sn_b53233_zkc9xbbl97r0000gp/T//cckGtd2P.s:782    .text.UI_Button_Ctl:00000000000000cc $d
/var/folders/lx/hc4sn_b53233_zkc9xbbl97r0000gp/T//cckGtd2P.s:787    .text.UI_Set_DspInterface:0000000000000000 $t
/var/folders/lx/hc4sn_b53233_zkc9xbbl97r0000gp/T//cckGtd2P.s:794    .text.UI_Set_DspInterface:0000000000000000 UI_Set_DspInterface
/var/folders/lx/hc4sn_b53233_zkc9xbbl97r0000gp/T//cckGtd2P.s:855    .text.UI_Set_DspInterface:0000000000000024 $d
/var/folders/lx/hc4sn_b53233_zkc9xbbl97r0000gp/T//cckGtd2P.s:860    .text.UI_ShowSelector:0000000000000000 $t
/var/folders/lx/hc4sn_b53233_zkc9xbbl97r0000gp/T//cckGtd2P.s:867    .text.UI_ShowSelector:0000000000000000 UI_ShowSelector
/var/folders/lx/hc4sn_b53233_zkc9xbbl97r0000gp/T//cckGtd2P.s:905    .data.UI_Button:0000000000000000 UI_Button
/var/folders/lx/hc4sn_b53233_zkc9xbbl97r0000gp/T//cckGtd2P.s:895    .bss.UI_DspInterface:0000000000000000 $d
/var/folders/lx/hc4sn_b53233_zkc9xbbl97r0000gp/T//cckGtd2P.s:899    .bss.UI_DspInterface:0000000000000000 UI_DspInterface
/var/folders/lx/hc4sn_b53233_zkc9xbbl97r0000gp/T//cckGtd2P.s:902    .data.UI_Button:0000000000000000 $d

NO UNDEFINED SYMBOLS
