ARM GAS  /var/folders/lx/hc4sn_b53233_zkc9xbbl97r0000gp/T//ccKzY9YJ.s 			page 1


   1              		.cpu cortex-m4
   2              		.eabi_attribute 27, 1
   3              		.eabi_attribute 28, 1
   4              		.eabi_attribute 20, 1
   5              		.eabi_attribute 21, 1
   6              		.eabi_attribute 23, 3
   7              		.eabi_attribute 24, 1
   8              		.eabi_attribute 25, 1
   9              		.eabi_attribute 26, 1
  10              		.eabi_attribute 30, 1
  11              		.eabi_attribute 34, 1
  12              		.eabi_attribute 18, 4
  13              		.file	"UI_Controller.c"
  14              		.text
  15              	.Ltext0:
  16              		.cfi_sections	.debug_frame
  17              		.section	.text.UI_GenData_Init,"ax",%progbits
  18              		.align	1
  19              		.arch armv7e-m
  20              		.syntax unified
  21              		.thumb
  22              		.thumb_func
  23              		.fpu fpv4-sp-d16
  25              	UI_GenData_Init:
  26              	.LVL0:
  27              	.LFB3:
  28              		.file 1 "Dsp/widget/wgt_core/UI_Controller.c"
   1:Dsp/widget/wgt_core/UI_Controller.c **** #include "UI_Controller.h"
   2:Dsp/widget/wgt_core/UI_Controller.c **** #include "runtime.h"
   3:Dsp/widget/wgt_core/UI_Controller.c **** #include <stdlib.h>
   4:Dsp/widget/wgt_core/UI_Controller.c **** 
   5:Dsp/widget/wgt_core/UI_Controller.c **** /* internal object */
   6:Dsp/widget/wgt_core/UI_Controller.c **** static UI_DrawInterface_TypeDef UI_DspInterface;
   7:Dsp/widget/wgt_core/UI_Controller.c **** 
   8:Dsp/widget/wgt_core/UI_Controller.c **** /* external function */
   9:Dsp/widget/wgt_core/UI_Controller.c **** /* UI Get General Get Mathod */
  10:Dsp/widget/wgt_core/UI_Controller.c **** UI_GetWidget_Width UI_Get_WidgetWidth = NULL;
  11:Dsp/widget/wgt_core/UI_Controller.c **** // UI_GetWidget_Height UI_Get_WidgetHeight = NULL;
  12:Dsp/widget/wgt_core/UI_Controller.c **** 
  13:Dsp/widget/wgt_core/UI_Controller.c **** /* UI button section */
  14:Dsp/widget/wgt_core/UI_Controller.c **** static bool UI_Button_Init(UI_ButtonObj_TypeDef *Obj, char *label, int16_t x, int16_t y, uint8_t wi
  15:Dsp/widget/wgt_core/UI_Controller.c **** static bool UI_Button_Set_Label(UI_ButtonObj_TypeDef *Obj, UI_Button_State_List state, char *label)
  16:Dsp/widget/wgt_core/UI_Controller.c **** static bool UI_Button_Set_TriggerCallback(UI_ButtonObj_TypeDef *Obj, UI_Button_Trigger_Type type, U
  17:Dsp/widget/wgt_core/UI_Controller.c **** static bool UI_Button_Push(UI_ButtonObj_TypeDef *Obj);
  18:Dsp/widget/wgt_core/UI_Controller.c **** static bool UI_Button_Release(UI_ButtonObj_TypeDef *Obj);
  19:Dsp/widget/wgt_core/UI_Controller.c **** static bool UI_Button_Move(UI_ButtonObj_TypeDef *Obj, uint16_t x, uint16_t y);
  20:Dsp/widget/wgt_core/UI_Controller.c **** static bool UI_Button_Ctl(UI_ButtonObj_TypeDef *Obj);
  21:Dsp/widget/wgt_core/UI_Controller.c **** 
  22:Dsp/widget/wgt_core/UI_Controller.c **** /* UI check box section */
  23:Dsp/widget/wgt_core/UI_Controller.c **** static bool UI_CheckBox_Init(UI_CheckBoxObj_TypeDef *Obj, char *label, int16_t x, int16_t y, bool s
  24:Dsp/widget/wgt_core/UI_Controller.c **** static bool UI_CheckBox_SetCallback(UI_CheckBoxObj_TypeDef *Obj, UI_CheckBoxTrigger_Callback callba
  25:Dsp/widget/wgt_core/UI_Controller.c **** static bool UI_CheckBox_Move(UI_CheckBoxObj_TypeDef *Obj, int16_t x, int16_t y);
  26:Dsp/widget/wgt_core/UI_Controller.c **** static bool UI_CheckBox_Trigger(UI_CheckBoxObj_TypeDef *Obj);
  27:Dsp/widget/wgt_core/UI_Controller.c **** static bool UI_CheckBox_Ctl(UI_CheckBoxObj_TypeDef *Obj);
  28:Dsp/widget/wgt_core/UI_Controller.c **** 
  29:Dsp/widget/wgt_core/UI_Controller.c **** /* UI slider bar section */
  30:Dsp/widget/wgt_core/UI_Controller.c **** static bool UI_SlideBar_Init(UI_SlideBarObj_TypeDef *Obj, UI_SliderBar_Mode_List mode, char *label,
ARM GAS  /var/folders/lx/hc4sn_b53233_zkc9xbbl97r0000gp/T//ccKzY9YJ.s 			page 2


  31:Dsp/widget/wgt_core/UI_Controller.c **** static bool UI_SlideBar_Move(UI_SlideBarObj_TypeDef *Obj, int16_t x, int16_t y);
  32:Dsp/widget/wgt_core/UI_Controller.c **** static bool UI_SlideBar_SetCallBack(UI_SlideBarObj_TypeDef *Obj, UI_SliderBarTrigger_Callback callb
  33:Dsp/widget/wgt_core/UI_Controller.c **** static bool UI_SlideBar_Input(UI_SlideBarObj_TypeDef *Obj, int16_t *step);
  34:Dsp/widget/wgt_core/UI_Controller.c **** static bool UI_SlideBar_Trigger(UI_SlideBarObj_TypeDef *Obj);
  35:Dsp/widget/wgt_core/UI_Controller.c **** static bool UI_SlideBar_CTL(UI_SlideBarObj_TypeDef *Obj);
  36:Dsp/widget/wgt_core/UI_Controller.c **** static void UI_SlideBar_SetSelect(UI_SlideBarObj_TypeDef *Obj, bool select);
  37:Dsp/widget/wgt_core/UI_Controller.c **** static bool UI_SlideBar_IsSelected(UI_SlideBarObj_TypeDef *Obj);
  38:Dsp/widget/wgt_core/UI_Controller.c **** 
  39:Dsp/widget/wgt_core/UI_Controller.c **** /* general function */
  40:Dsp/widget/wgt_core/UI_Controller.c **** static bool UI_Get_InitSate(UI_GeneralData_TypeDef GenData);
  41:Dsp/widget/wgt_core/UI_Controller.c **** static bool UI_Selecte(UI_GeneralData_TypeDef *GenData, bool select);
  42:Dsp/widget/wgt_core/UI_Controller.c **** static bool UI_Get_Selected(UI_GeneralData_TypeDef GenData);
  43:Dsp/widget/wgt_core/UI_Controller.c **** static bool UI_Move(UI_GeneralData_TypeDef *GenUI_Info, int16_t dst_x, int16_t dst_y);
  44:Dsp/widget/wgt_core/UI_Controller.c **** 
  45:Dsp/widget/wgt_core/UI_Controller.c **** /* external Object var */
  46:Dsp/widget/wgt_core/UI_Controller.c **** UI_Button_Interface_TypeDef UI_Button = {
  47:Dsp/widget/wgt_core/UI_Controller.c ****     .ctl = UI_Button_Ctl,
  48:Dsp/widget/wgt_core/UI_Controller.c ****     .init = UI_Button_Init,
  49:Dsp/widget/wgt_core/UI_Controller.c ****     .push = UI_Button_Push,
  50:Dsp/widget/wgt_core/UI_Controller.c ****     .move = UI_Button_Move,
  51:Dsp/widget/wgt_core/UI_Controller.c ****     .release = UI_Button_Release,
  52:Dsp/widget/wgt_core/UI_Controller.c ****     .set_label = UI_Button_Set_Label,
  53:Dsp/widget/wgt_core/UI_Controller.c ****     .set_trogger_callback = UI_Button_Set_TriggerCallback,
  54:Dsp/widget/wgt_core/UI_Controller.c **** };
  55:Dsp/widget/wgt_core/UI_Controller.c **** 
  56:Dsp/widget/wgt_core/UI_Controller.c **** UI_CheckBox_Interface_TypeDef UI_CheckBox = {
  57:Dsp/widget/wgt_core/UI_Controller.c ****     .ctl = UI_CheckBox_Ctl,
  58:Dsp/widget/wgt_core/UI_Controller.c ****     .init = UI_CheckBox_Init,
  59:Dsp/widget/wgt_core/UI_Controller.c ****     .Set_Callback = UI_CheckBox_SetCallback,
  60:Dsp/widget/wgt_core/UI_Controller.c ****     .Move = UI_CheckBox_Move,
  61:Dsp/widget/wgt_core/UI_Controller.c ****     .Trigger = UI_CheckBox_Trigger,
  62:Dsp/widget/wgt_core/UI_Controller.c **** };
  63:Dsp/widget/wgt_core/UI_Controller.c **** 
  64:Dsp/widget/wgt_core/UI_Controller.c **** UI_SliderBar_Interface_TypeDef UI_SlideBar = {
  65:Dsp/widget/wgt_core/UI_Controller.c ****     .init = UI_SlideBar_Init,
  66:Dsp/widget/wgt_core/UI_Controller.c ****     .Move = UI_SlideBar_Move,
  67:Dsp/widget/wgt_core/UI_Controller.c ****     .Set_Callbak = UI_SlideBar_SetCallBack,
  68:Dsp/widget/wgt_core/UI_Controller.c ****     .Input = UI_SlideBar_Input,
  69:Dsp/widget/wgt_core/UI_Controller.c ****     .Trigger = UI_SlideBar_Trigger,
  70:Dsp/widget/wgt_core/UI_Controller.c ****     .ctl = UI_SlideBar_CTL,
  71:Dsp/widget/wgt_core/UI_Controller.c ****     .Set_Select = UI_SlideBar_SetSelect,
  72:Dsp/widget/wgt_core/UI_Controller.c ****     .Get_Select = UI_SlideBar_IsSelected,
  73:Dsp/widget/wgt_core/UI_Controller.c **** };
  74:Dsp/widget/wgt_core/UI_Controller.c **** 
  75:Dsp/widget/wgt_core/UI_Controller.c **** /******************************* general function *********************************/
  76:Dsp/widget/wgt_core/UI_Controller.c **** 
  77:Dsp/widget/wgt_core/UI_Controller.c **** void UI_Set_DspInterface(UI_DrawPoint point,
  78:Dsp/widget/wgt_core/UI_Controller.c ****                          UI_DrawLine line,
  79:Dsp/widget/wgt_core/UI_Controller.c ****                          UI_DrawRectangle rectangle,
  80:Dsp/widget/wgt_core/UI_Controller.c ****                          UI_DrawRadiusRectangle radius_rectangle,
  81:Dsp/widget/wgt_core/UI_Controller.c ****                          UI_DrawCircle circle,
  82:Dsp/widget/wgt_core/UI_Controller.c ****                          UI_DrawCircleSection circle_section,
  83:Dsp/widget/wgt_core/UI_Controller.c ****                          UI_DrawStr str,
  84:Dsp/widget/wgt_core/UI_Controller.c ****                          UI_FillCircle fill_circle,
  85:Dsp/widget/wgt_core/UI_Controller.c ****                          UI_FillCircle_Section fillcircle_section,
  86:Dsp/widget/wgt_core/UI_Controller.c ****                          UI_FillRectangle fill_rectangle,
  87:Dsp/widget/wgt_core/UI_Controller.c ****                          UI_FillRadiusRectangle fill_radius_rectangle)
ARM GAS  /var/folders/lx/hc4sn_b53233_zkc9xbbl97r0000gp/T//ccKzY9YJ.s 			page 3


  88:Dsp/widget/wgt_core/UI_Controller.c **** {
  89:Dsp/widget/wgt_core/UI_Controller.c ****     UI_DspInterface.draw_circle = circle;
  90:Dsp/widget/wgt_core/UI_Controller.c ****     UI_DspInterface.draw_circle_section = circle_section;
  91:Dsp/widget/wgt_core/UI_Controller.c ****     UI_DspInterface.draw_line = line;
  92:Dsp/widget/wgt_core/UI_Controller.c ****     UI_DspInterface.draw_point = point;
  93:Dsp/widget/wgt_core/UI_Controller.c ****     UI_DspInterface.draw_rectangle = rectangle;
  94:Dsp/widget/wgt_core/UI_Controller.c ****     UI_DspInterface.draw_radius_rectangle = radius_rectangle;
  95:Dsp/widget/wgt_core/UI_Controller.c ****     UI_DspInterface.draw_str = str;
  96:Dsp/widget/wgt_core/UI_Controller.c **** 
  97:Dsp/widget/wgt_core/UI_Controller.c ****     UI_DspInterface.fill_circle = fill_circle;
  98:Dsp/widget/wgt_core/UI_Controller.c ****     UI_DspInterface.fill_circle_section = fillcircle_section;
  99:Dsp/widget/wgt_core/UI_Controller.c ****     UI_DspInterface.fill_radius_rectangle = fill_radius_rectangle;
 100:Dsp/widget/wgt_core/UI_Controller.c ****     UI_DspInterface.fill_rectangle = fill_rectangle;
 101:Dsp/widget/wgt_core/UI_Controller.c **** }
 102:Dsp/widget/wgt_core/UI_Controller.c **** 
 103:Dsp/widget/wgt_core/UI_Controller.c **** void UI_Set_GetWidgetWidthMathod(UI_GetWidget_Width mathod)
 104:Dsp/widget/wgt_core/UI_Controller.c **** {
 105:Dsp/widget/wgt_core/UI_Controller.c ****     UI_Get_WidgetWidth = mathod;
 106:Dsp/widget/wgt_core/UI_Controller.c **** }
 107:Dsp/widget/wgt_core/UI_Controller.c **** 
 108:Dsp/widget/wgt_core/UI_Controller.c **** /* still in developing about this selector */
 109:Dsp/widget/wgt_core/UI_Controller.c **** /* FYI different UI Item Got different selector */
 110:Dsp/widget/wgt_core/UI_Controller.c **** bool UI_ShowSelector(WidgetUI_Item_TypeDef *item)
 111:Dsp/widget/wgt_core/UI_Controller.c **** {
 112:Dsp/widget/wgt_core/UI_Controller.c ****     /* button selector coordinate */
 113:Dsp/widget/wgt_core/UI_Controller.c ****     int16_t Btn_Slct_LftUp_X = 0;
 114:Dsp/widget/wgt_core/UI_Controller.c ****     int16_t Btn_Slct_LftUp_Y = 0;
 115:Dsp/widget/wgt_core/UI_Controller.c ****     int16_t Btn_Slct_LftDwn_X = 0;
 116:Dsp/widget/wgt_core/UI_Controller.c ****     int16_t Btn_Slct_LftDwn_Y = 0;
 117:Dsp/widget/wgt_core/UI_Controller.c ****     int16_t Btn_Slct_RgtUp_X = 0;
 118:Dsp/widget/wgt_core/UI_Controller.c ****     int16_t Btn_Slct_RgtUp_Y = 0;
 119:Dsp/widget/wgt_core/UI_Controller.c ****     int16_t Btn_Slct_RgtDwn_X = 0;
 120:Dsp/widget/wgt_core/UI_Controller.c ****     int16_t Btn_Slct_RgtDwn_Y = 0;
 121:Dsp/widget/wgt_core/UI_Controller.c **** 
 122:Dsp/widget/wgt_core/UI_Controller.c ****     /* selector block coordinate */
 123:Dsp/widget/wgt_core/UI_Controller.c ****     int16_t block_x;
 124:Dsp/widget/wgt_core/UI_Controller.c ****     int16_t block_y;
 125:Dsp/widget/wgt_core/UI_Controller.c **** 
 126:Dsp/widget/wgt_core/UI_Controller.c ****     uint8_t widget_width = 128;
 127:Dsp/widget/wgt_core/UI_Controller.c **** 
 128:Dsp/widget/wgt_core/UI_Controller.c ****     if (UI_Get_WidgetWidth != NULL)
 129:Dsp/widget/wgt_core/UI_Controller.c ****     {
 130:Dsp/widget/wgt_core/UI_Controller.c ****         widget_width = UI_Get_WidgetWidth();
 131:Dsp/widget/wgt_core/UI_Controller.c **** 
 132:Dsp/widget/wgt_core/UI_Controller.c ****         if (widget_width == 0)
 133:Dsp/widget/wgt_core/UI_Controller.c ****             return false;
 134:Dsp/widget/wgt_core/UI_Controller.c ****     }
 135:Dsp/widget/wgt_core/UI_Controller.c **** 
 136:Dsp/widget/wgt_core/UI_Controller.c ****     if (item == NULL)
 137:Dsp/widget/wgt_core/UI_Controller.c ****         return false;
 138:Dsp/widget/wgt_core/UI_Controller.c **** 
 139:Dsp/widget/wgt_core/UI_Controller.c ****     switch ((uint8_t)(item->type))
 140:Dsp/widget/wgt_core/UI_Controller.c ****     {
 141:Dsp/widget/wgt_core/UI_Controller.c ****     case UI_Type_Button:
 142:Dsp/widget/wgt_core/UI_Controller.c **** 
 143:Dsp/widget/wgt_core/UI_Controller.c ****         if (UI_DspInterface.fill_circle_section == NULL)
 144:Dsp/widget/wgt_core/UI_Controller.c ****             return false;
ARM GAS  /var/folders/lx/hc4sn_b53233_zkc9xbbl97r0000gp/T//ccKzY9YJ.s 			page 4


 145:Dsp/widget/wgt_core/UI_Controller.c **** 
 146:Dsp/widget/wgt_core/UI_Controller.c ****         /* comput button selector coordinate first */
 147:Dsp/widget/wgt_core/UI_Controller.c ****         Btn_Slct_LftUp_X = HandleToButtonObj(item->Handler)->Gen_Data.x;
 148:Dsp/widget/wgt_core/UI_Controller.c ****         Btn_Slct_LftUp_Y = HandleToButtonObj(item->Handler)->Gen_Data.y + HandleToButtonObj(item->H
 149:Dsp/widget/wgt_core/UI_Controller.c **** 
 150:Dsp/widget/wgt_core/UI_Controller.c ****         Btn_Slct_LftDwn_X = Btn_Slct_LftUp_X;
 151:Dsp/widget/wgt_core/UI_Controller.c ****         Btn_Slct_LftDwn_Y = HandleToButtonObj(item->Handler)->Gen_Data.y;
 152:Dsp/widget/wgt_core/UI_Controller.c **** 
 153:Dsp/widget/wgt_core/UI_Controller.c ****         Btn_Slct_RgtUp_X = HandleToButtonObj(item->Handler)->Gen_Data.x + HandleToButtonObj(item->H
 154:Dsp/widget/wgt_core/UI_Controller.c ****         Btn_Slct_RgtUp_Y = Btn_Slct_LftUp_Y;
 155:Dsp/widget/wgt_core/UI_Controller.c **** 
 156:Dsp/widget/wgt_core/UI_Controller.c ****         Btn_Slct_RgtDwn_X = Btn_Slct_RgtUp_X;
 157:Dsp/widget/wgt_core/UI_Controller.c ****         Btn_Slct_RgtDwn_Y = Btn_Slct_LftDwn_Y;
 158:Dsp/widget/wgt_core/UI_Controller.c **** 
 159:Dsp/widget/wgt_core/UI_Controller.c ****         // show button selector
 160:Dsp/widget/wgt_core/UI_Controller.c ****         UI_DspInterface.draw_circle_section(Btn_Slct_LftUp_X, Btn_Slct_LftUp_Y, BUTTON_SELECTOR_RAD
 161:Dsp/widget/wgt_core/UI_Controller.c ****         UI_DspInterface.draw_circle_section(Btn_Slct_LftDwn_X, Btn_Slct_LftDwn_Y, BUTTON_SELECTOR_R
 162:Dsp/widget/wgt_core/UI_Controller.c ****         UI_DspInterface.draw_circle_section(Btn_Slct_RgtUp_X, Btn_Slct_RgtUp_Y, BUTTON_SELECTOR_RAD
 163:Dsp/widget/wgt_core/UI_Controller.c ****         UI_DspInterface.draw_circle_section(Btn_Slct_RgtDwn_X, Btn_Slct_RgtDwn_Y, BUTTON_SELECTOR_R
 164:Dsp/widget/wgt_core/UI_Controller.c ****         break;
 165:Dsp/widget/wgt_core/UI_Controller.c **** 
 166:Dsp/widget/wgt_core/UI_Controller.c ****     case UI_Type_CheckBox:
 167:Dsp/widget/wgt_core/UI_Controller.c ****         block_x = HandleToCheckBoxObj(item->Handler)->Gen_Data.x + 3;
 168:Dsp/widget/wgt_core/UI_Controller.c ****         block_y = HandleToCheckBoxObj(item->Handler)->Gen_Data.y + 1;
 169:Dsp/widget/wgt_core/UI_Controller.c **** 
 170:Dsp/widget/wgt_core/UI_Controller.c ****         UI_DspInterface.fill_rectangle(block_x, block_y, (widget_width - 6), Default_Font - 1, true
 171:Dsp/widget/wgt_core/UI_Controller.c ****         break;
 172:Dsp/widget/wgt_core/UI_Controller.c **** 
 173:Dsp/widget/wgt_core/UI_Controller.c ****     case UI_Type_SlideBar:
 174:Dsp/widget/wgt_core/UI_Controller.c ****         block_y = HandleToSlideBarObj(item->Handler)->Gen_Data.y + 1;
 175:Dsp/widget/wgt_core/UI_Controller.c **** 
 176:Dsp/widget/wgt_core/UI_Controller.c ****         if (!UI_SlideBar_IsSelected(HandleToButtonObj(item->Handler)))
 177:Dsp/widget/wgt_core/UI_Controller.c ****         {
 178:Dsp/widget/wgt_core/UI_Controller.c ****             block_x = HandleToSlideBarObj(item->Handler)->Gen_Data.x + 3;
 179:Dsp/widget/wgt_core/UI_Controller.c **** 
 180:Dsp/widget/wgt_core/UI_Controller.c ****             UI_DspInterface.fill_rectangle(block_x, block_y, (widget_width - 6), Default_Font - 1, 
 181:Dsp/widget/wgt_core/UI_Controller.c ****         }
 182:Dsp/widget/wgt_core/UI_Controller.c ****         else
 183:Dsp/widget/wgt_core/UI_Controller.c ****         {
 184:Dsp/widget/wgt_core/UI_Controller.c ****             block_x = HandleToSlideBarObj(item->Handler)->BarCoord_X - 3;
 185:Dsp/widget/wgt_core/UI_Controller.c **** 
 186:Dsp/widget/wgt_core/UI_Controller.c ****             UI_DspInterface.fill_rectangle(block_x, block_y, (widget_width - block_x - 6), Default_
 187:Dsp/widget/wgt_core/UI_Controller.c ****         }
 188:Dsp/widget/wgt_core/UI_Controller.c ****         break;
 189:Dsp/widget/wgt_core/UI_Controller.c **** 
 190:Dsp/widget/wgt_core/UI_Controller.c ****     default:
 191:Dsp/widget/wgt_core/UI_Controller.c ****         break;
 192:Dsp/widget/wgt_core/UI_Controller.c ****     }
 193:Dsp/widget/wgt_core/UI_Controller.c ****     return true;
 194:Dsp/widget/wgt_core/UI_Controller.c **** }
 195:Dsp/widget/wgt_core/UI_Controller.c **** 
 196:Dsp/widget/wgt_core/UI_Controller.c **** static void UI_GenData_Init(UI_GeneralData_TypeDef *GenData, char *label, int16_t x, int16_t y)
 197:Dsp/widget/wgt_core/UI_Controller.c **** {
  29              		.loc 1 197 1 view -0
  30              		.cfi_startproc
  31              		@ args = 0, pretend = 0, frame = 0
  32              		@ frame_needed = 0, uses_anonymous_args = 0
ARM GAS  /var/folders/lx/hc4sn_b53233_zkc9xbbl97r0000gp/T//ccKzY9YJ.s 			page 5


  33              		@ link register save eliminated.
 198:Dsp/widget/wgt_core/UI_Controller.c ****     GenData->label = label;
  34              		.loc 1 198 5 view .LVU1
  35              		.loc 1 198 20 is_stmt 0 view .LVU2
  36 0000 0160     		str	r1, [r0]
 199:Dsp/widget/wgt_core/UI_Controller.c **** 
 200:Dsp/widget/wgt_core/UI_Controller.c ****     GenData->x = x;
  37              		.loc 1 200 5 is_stmt 1 view .LVU3
  38              		.loc 1 200 16 is_stmt 0 view .LVU4
  39 0002 8280     		strh	r2, [r0, #4]	@ movhi
 201:Dsp/widget/wgt_core/UI_Controller.c ****     GenData->y = y;
  40              		.loc 1 201 5 is_stmt 1 view .LVU5
  41              		.loc 1 201 16 is_stmt 0 view .LVU6
  42 0004 C380     		strh	r3, [r0, #6]	@ movhi
 202:Dsp/widget/wgt_core/UI_Controller.c **** 
 203:Dsp/widget/wgt_core/UI_Controller.c ****     GenData->operatable = false;
  43              		.loc 1 203 5 is_stmt 1 view .LVU7
  44              		.loc 1 203 25 is_stmt 0 view .LVU8
  45 0006 0023     		movs	r3, #0
  46              	.LVL1:
  47              		.loc 1 203 25 view .LVU9
  48 0008 0372     		strb	r3, [r0, #8]
 204:Dsp/widget/wgt_core/UI_Controller.c **** }
  49              		.loc 1 204 1 view .LVU10
  50 000a 7047     		bx	lr
  51              		.cfi_endproc
  52              	.LFE3:
  54              		.section	.text.UI_Move,"ax",%progbits
  55              		.align	1
  56              		.syntax unified
  57              		.thumb
  58              		.thumb_func
  59              		.fpu fpv4-sp-d16
  61              	UI_Move:
  62              	.LVL2:
  63              	.LFB4:
 205:Dsp/widget/wgt_core/UI_Controller.c **** 
 206:Dsp/widget/wgt_core/UI_Controller.c **** static bool UI_Move(UI_GeneralData_TypeDef *GenUI_Info, int16_t dst_x, int16_t dst_y)
 207:Dsp/widget/wgt_core/UI_Controller.c **** {
  64              		.loc 1 207 1 is_stmt 1 view -0
  65              		.cfi_startproc
  66              		@ args = 0, pretend = 0, frame = 0
  67              		@ frame_needed = 0, uses_anonymous_args = 0
  68              		@ link register save eliminated.
 208:Dsp/widget/wgt_core/UI_Controller.c ****     if (GenUI_Info == NULL)
  69              		.loc 1 208 5 view .LVU12
  70              		.loc 1 208 8 is_stmt 0 view .LVU13
  71 0000 18B1     		cbz	r0, .L4
 209:Dsp/widget/wgt_core/UI_Controller.c ****         return false;
 210:Dsp/widget/wgt_core/UI_Controller.c **** 
 211:Dsp/widget/wgt_core/UI_Controller.c ****     GenUI_Info->x = dst_x;
  72              		.loc 1 211 5 is_stmt 1 view .LVU14
  73              		.loc 1 211 19 is_stmt 0 view .LVU15
  74 0002 8180     		strh	r1, [r0, #4]	@ movhi
 212:Dsp/widget/wgt_core/UI_Controller.c ****     GenUI_Info->y = dst_y;
  75              		.loc 1 212 5 is_stmt 1 view .LVU16
  76              		.loc 1 212 19 is_stmt 0 view .LVU17
ARM GAS  /var/folders/lx/hc4sn_b53233_zkc9xbbl97r0000gp/T//ccKzY9YJ.s 			page 6


  77 0004 C280     		strh	r2, [r0, #6]	@ movhi
 213:Dsp/widget/wgt_core/UI_Controller.c **** 
 214:Dsp/widget/wgt_core/UI_Controller.c ****     return true;
  78              		.loc 1 214 5 is_stmt 1 view .LVU18
  79              		.loc 1 214 12 is_stmt 0 view .LVU19
  80 0006 0120     		movs	r0, #1
  81              	.LVL3:
  82              		.loc 1 214 12 view .LVU20
  83 0008 7047     		bx	lr
  84              	.LVL4:
  85              	.L4:
 209:Dsp/widget/wgt_core/UI_Controller.c **** 
  86              		.loc 1 209 16 view .LVU21
  87 000a 0020     		movs	r0, #0
  88              	.LVL5:
 215:Dsp/widget/wgt_core/UI_Controller.c **** }
  89              		.loc 1 215 1 view .LVU22
  90 000c 7047     		bx	lr
  91              		.cfi_endproc
  92              	.LFE4:
  94              		.section	.rodata.UI_Button_Init.str1.4,"aMS",%progbits,1
  95              		.align	2
  96              	.LC0:
  97 0000 79657300 		.ascii	"yes\000"
  98              		.align	2
  99              	.LC1:
 100 0004 6E6F00   		.ascii	"no\000"
 101              		.section	.text.UI_Button_Init,"ax",%progbits
 102              		.align	1
 103              		.syntax unified
 104              		.thumb
 105              		.thumb_func
 106              		.fpu fpv4-sp-d16
 108              	UI_Button_Init:
 109              	.LVL6:
 110              	.LFB5:
 216:Dsp/widget/wgt_core/UI_Controller.c **** 
 217:Dsp/widget/wgt_core/UI_Controller.c **** /********************************************** UI Button Object **********************************
 218:Dsp/widget/wgt_core/UI_Controller.c **** static bool UI_Button_Init(UI_ButtonObj_TypeDef *Obj, char *label, int16_t x, int16_t y, uint8_t wi
 219:Dsp/widget/wgt_core/UI_Controller.c **** {
 111              		.loc 1 219 1 is_stmt 1 view -0
 112              		.cfi_startproc
 113              		@ args = 16, pretend = 0, frame = 0
 114              		@ frame_needed = 0, uses_anonymous_args = 0
 115              		.loc 1 219 1 is_stmt 0 view .LVU24
 116 0000 10B5     		push	{r4, lr}
 117              	.LCFI0:
 118              		.cfi_def_cfa_offset 8
 119              		.cfi_offset 4, -8
 120              		.cfi_offset 14, -4
 121 0002 9DF814C0 		ldrb	ip, [sp, #20]	@ zero_extendqisi2
 220:Dsp/widget/wgt_core/UI_Controller.c ****     if (Obj == NULL)
 122              		.loc 1 220 5 is_stmt 1 view .LVU25
 123              		.loc 1 220 8 is_stmt 0 view .LVU26
 124 0006 C8B1     		cbz	r0, .L7
 125 0008 0446     		mov	r4, r0
 221:Dsp/widget/wgt_core/UI_Controller.c ****         return false;
ARM GAS  /var/folders/lx/hc4sn_b53233_zkc9xbbl97r0000gp/T//ccKzY9YJ.s 			page 7


 222:Dsp/widget/wgt_core/UI_Controller.c **** 
 223:Dsp/widget/wgt_core/UI_Controller.c ****     Obj->default_state = state;
 126              		.loc 1 223 5 is_stmt 1 view .LVU27
 127              		.loc 1 223 24 is_stmt 0 view .LVU28
 128 000a 80F80CC0 		strb	ip, [r0, #12]
 224:Dsp/widget/wgt_core/UI_Controller.c ****     Obj->state = state;
 129              		.loc 1 224 5 is_stmt 1 view .LVU29
 130              		.loc 1 224 16 is_stmt 0 view .LVU30
 131 000e 80F80DC0 		strb	ip, [r0, #13]
 225:Dsp/widget/wgt_core/UI_Controller.c ****     Obj->type = type;
 132              		.loc 1 225 5 is_stmt 1 view .LVU31
 133              		.loc 1 225 15 is_stmt 0 view .LVU32
 134 0012 9DF81000 		ldrb	r0, [sp, #16]	@ zero_extendqisi2
 135              	.LVL7:
 136              		.loc 1 225 15 view .LVU33
 137 0016 A073     		strb	r0, [r4, #14]
 226:Dsp/widget/wgt_core/UI_Controller.c **** 
 227:Dsp/widget/wgt_core/UI_Controller.c ****     UI_GenData_Init(&Obj->Gen_Data, label, x, y);
 138              		.loc 1 227 5 is_stmt 1 view .LVU34
 139 0018 2046     		mov	r0, r4
 140 001a FFF7FEFF 		bl	UI_GenData_Init
 141              	.LVL8:
 228:Dsp/widget/wgt_core/UI_Controller.c **** 
 229:Dsp/widget/wgt_core/UI_Controller.c ****     Obj->width = width;
 142              		.loc 1 229 5 view .LVU35
 143              		.loc 1 229 16 is_stmt 0 view .LVU36
 144 001e 9DF80830 		ldrb	r3, [sp, #8]	@ zero_extendqisi2
 145 0022 E377     		strb	r3, [r4, #31]
 230:Dsp/widget/wgt_core/UI_Controller.c ****     Obj->height = height;
 146              		.loc 1 230 5 is_stmt 1 view .LVU37
 147              		.loc 1 230 17 is_stmt 0 view .LVU38
 148 0024 9DF80C30 		ldrb	r3, [sp, #12]	@ zero_extendqisi2
 149 0028 84F82030 		strb	r3, [r4, #32]
 231:Dsp/widget/wgt_core/UI_Controller.c **** 
 232:Dsp/widget/wgt_core/UI_Controller.c ****     Obj->PushDown_Label = DEFAULT_BUTTON_PUSH_LABEL;
 150              		.loc 1 232 5 is_stmt 1 view .LVU39
 151              		.loc 1 232 25 is_stmt 0 view .LVU40
 152 002c 044B     		ldr	r3, .L9
 153 002e C4F81730 		str	r3, [r4, #23]	@ unaligned
 233:Dsp/widget/wgt_core/UI_Controller.c ****     Obj->Release_Label = DEFAULT_BUTTON_RELEASE_LABEL;
 154              		.loc 1 233 5 is_stmt 1 view .LVU41
 155              		.loc 1 233 24 is_stmt 0 view .LVU42
 156 0032 044B     		ldr	r3, .L9+4
 157 0034 C4F81B30 		str	r3, [r4, #27]	@ unaligned
 234:Dsp/widget/wgt_core/UI_Controller.c **** 
 235:Dsp/widget/wgt_core/UI_Controller.c ****     return true;
 158              		.loc 1 235 5 is_stmt 1 view .LVU43
 159              		.loc 1 235 12 is_stmt 0 view .LVU44
 160 0038 0120     		movs	r0, #1
 161              	.LVL9:
 162              	.L6:
 236:Dsp/widget/wgt_core/UI_Controller.c **** }
 163              		.loc 1 236 1 view .LVU45
 164 003a 10BD     		pop	{r4, pc}
 165              	.LVL10:
 166              	.L7:
 221:Dsp/widget/wgt_core/UI_Controller.c **** 
ARM GAS  /var/folders/lx/hc4sn_b53233_zkc9xbbl97r0000gp/T//ccKzY9YJ.s 			page 8


 167              		.loc 1 221 16 view .LVU46
 168 003c 0020     		movs	r0, #0
 169              	.LVL11:
 221:Dsp/widget/wgt_core/UI_Controller.c **** 
 170              		.loc 1 221 16 view .LVU47
 171 003e FCE7     		b	.L6
 172              	.L10:
 173              		.align	2
 174              	.L9:
 175 0040 00000000 		.word	.LC0
 176 0044 04000000 		.word	.LC1
 177              		.cfi_endproc
 178              	.LFE5:
 180              		.section	.text.UI_Button_Set_Label,"ax",%progbits
 181              		.align	1
 182              		.syntax unified
 183              		.thumb
 184              		.thumb_func
 185              		.fpu fpv4-sp-d16
 187              	UI_Button_Set_Label:
 188              	.LVL12:
 189              	.LFB6:
 237:Dsp/widget/wgt_core/UI_Controller.c **** 
 238:Dsp/widget/wgt_core/UI_Controller.c **** static bool UI_Button_Set_Label(UI_ButtonObj_TypeDef *Obj, UI_Button_State_List state, char *label)
 239:Dsp/widget/wgt_core/UI_Controller.c **** {
 190              		.loc 1 239 1 is_stmt 1 view -0
 191              		.cfi_startproc
 192              		@ args = 0, pretend = 0, frame = 0
 193              		@ frame_needed = 0, uses_anonymous_args = 0
 194              		@ link register save eliminated.
 240:Dsp/widget/wgt_core/UI_Controller.c ****     if (Obj == NULL)
 195              		.loc 1 240 5 view .LVU49
 196              		.loc 1 240 8 is_stmt 0 view .LVU50
 197 0000 48B1     		cbz	r0, .L14
 241:Dsp/widget/wgt_core/UI_Controller.c ****         return false;
 242:Dsp/widget/wgt_core/UI_Controller.c **** 
 243:Dsp/widget/wgt_core/UI_Controller.c ****     if (state == UI_Btn_PushDwn)
 198              		.loc 1 243 5 is_stmt 1 view .LVU51
 199              		.loc 1 243 8 is_stmt 0 view .LVU52
 200 0002 0129     		cmp	r1, #1
 201 0004 03D0     		beq	.L15
 244:Dsp/widget/wgt_core/UI_Controller.c ****         Obj->PushDown_Label = label;
 245:Dsp/widget/wgt_core/UI_Controller.c ****     else
 246:Dsp/widget/wgt_core/UI_Controller.c ****         Obj->Release_Label = label;
 202              		.loc 1 246 9 is_stmt 1 view .LVU53
 203              		.loc 1 246 28 is_stmt 0 view .LVU54
 204 0006 C0F81B20 		str	r2, [r0, #27]	@ unaligned
 247:Dsp/widget/wgt_core/UI_Controller.c **** 
 248:Dsp/widget/wgt_core/UI_Controller.c ****     return true;
 205              		.loc 1 248 12 view .LVU55
 206 000a 0120     		movs	r0, #1
 207              	.LVL13:
 208              		.loc 1 248 12 view .LVU56
 209 000c 7047     		bx	lr
 210              	.LVL14:
 211              	.L15:
 244:Dsp/widget/wgt_core/UI_Controller.c ****         Obj->PushDown_Label = label;
ARM GAS  /var/folders/lx/hc4sn_b53233_zkc9xbbl97r0000gp/T//ccKzY9YJ.s 			page 9


 212              		.loc 1 244 9 is_stmt 1 view .LVU57
 244:Dsp/widget/wgt_core/UI_Controller.c ****         Obj->PushDown_Label = label;
 213              		.loc 1 244 29 is_stmt 0 view .LVU58
 214 000e C0F81720 		str	r2, [r0, #23]	@ unaligned
 215              		.loc 1 248 12 view .LVU59
 216 0012 0120     		movs	r0, #1
 217              	.LVL15:
 218              		.loc 1 248 12 view .LVU60
 219 0014 7047     		bx	lr
 220              	.LVL16:
 221              	.L14:
 241:Dsp/widget/wgt_core/UI_Controller.c **** 
 222              		.loc 1 241 16 view .LVU61
 223 0016 0020     		movs	r0, #0
 224              	.LVL17:
 249:Dsp/widget/wgt_core/UI_Controller.c **** }
 225              		.loc 1 249 1 view .LVU62
 226 0018 7047     		bx	lr
 227              		.cfi_endproc
 228              	.LFE6:
 230              		.section	.text.UI_Button_Set_TriggerCallback,"ax",%progbits
 231              		.align	1
 232              		.syntax unified
 233              		.thumb
 234              		.thumb_func
 235              		.fpu fpv4-sp-d16
 237              	UI_Button_Set_TriggerCallback:
 238              	.LVL18:
 239              	.LFB7:
 250:Dsp/widget/wgt_core/UI_Controller.c **** 
 251:Dsp/widget/wgt_core/UI_Controller.c **** static bool UI_Button_Set_TriggerCallback(UI_ButtonObj_TypeDef *Obj, UI_Button_Trigger_Type type, U
 252:Dsp/widget/wgt_core/UI_Controller.c **** {
 240              		.loc 1 252 1 is_stmt 1 view -0
 241              		.cfi_startproc
 242              		@ args = 0, pretend = 0, frame = 0
 243              		@ frame_needed = 0, uses_anonymous_args = 0
 244              		@ link register save eliminated.
 253:Dsp/widget/wgt_core/UI_Controller.c ****     if (Obj == NULL)
 245              		.loc 1 253 5 view .LVU64
 246              		.loc 1 253 8 is_stmt 0 view .LVU65
 247 0000 50B1     		cbz	r0, .L19
 254:Dsp/widget/wgt_core/UI_Controller.c ****         return false;
 255:Dsp/widget/wgt_core/UI_Controller.c **** 
 256:Dsp/widget/wgt_core/UI_Controller.c ****     if (type == Push_Trigger)
 248              		.loc 1 256 5 is_stmt 1 view .LVU66
 249              		.loc 1 256 8 is_stmt 0 view .LVU67
 250 0002 0129     		cmp	r1, #1
 251 0004 04D0     		beq	.L21
 257:Dsp/widget/wgt_core/UI_Controller.c ****     {
 258:Dsp/widget/wgt_core/UI_Controller.c ****         Obj->push_callback = callback;
 259:Dsp/widget/wgt_core/UI_Controller.c ****     }
 260:Dsp/widget/wgt_core/UI_Controller.c ****     else if (type == Release_Trigger)
 252              		.loc 1 260 10 is_stmt 1 view .LVU68
 253              		.loc 1 260 13 is_stmt 0 view .LVU69
 254 0006 49B9     		cbnz	r1, .L20
 261:Dsp/widget/wgt_core/UI_Controller.c ****     {
 262:Dsp/widget/wgt_core/UI_Controller.c ****         Obj->release_callback = callback;
ARM GAS  /var/folders/lx/hc4sn_b53233_zkc9xbbl97r0000gp/T//ccKzY9YJ.s 			page 10


 255              		.loc 1 262 9 is_stmt 1 view .LVU70
 256              		.loc 1 262 31 is_stmt 0 view .LVU71
 257 0008 C0F81320 		str	r2, [r0, #19]	@ unaligned
 263:Dsp/widget/wgt_core/UI_Controller.c ****     }
 264:Dsp/widget/wgt_core/UI_Controller.c ****     else
 265:Dsp/widget/wgt_core/UI_Controller.c ****         return false;
 266:Dsp/widget/wgt_core/UI_Controller.c **** 
 267:Dsp/widget/wgt_core/UI_Controller.c ****     return true;
 258              		.loc 1 267 12 view .LVU72
 259 000c 0120     		movs	r0, #1
 260              	.LVL19:
 261              		.loc 1 267 12 view .LVU73
 262 000e 7047     		bx	lr
 263              	.LVL20:
 264              	.L21:
 258:Dsp/widget/wgt_core/UI_Controller.c ****     }
 265              		.loc 1 258 9 is_stmt 1 view .LVU74
 258:Dsp/widget/wgt_core/UI_Controller.c ****     }
 266              		.loc 1 258 28 is_stmt 0 view .LVU75
 267 0010 C0F80F20 		str	r2, [r0, #15]	@ unaligned
 268              		.loc 1 267 12 view .LVU76
 269 0014 0120     		movs	r0, #1
 270              	.LVL21:
 271              		.loc 1 267 12 view .LVU77
 272 0016 7047     		bx	lr
 273              	.LVL22:
 274              	.L19:
 254:Dsp/widget/wgt_core/UI_Controller.c **** 
 275              		.loc 1 254 16 view .LVU78
 276 0018 0020     		movs	r0, #0
 277              	.LVL23:
 254:Dsp/widget/wgt_core/UI_Controller.c **** 
 278              		.loc 1 254 16 view .LVU79
 279 001a 7047     		bx	lr
 280              	.LVL24:
 281              	.L20:
 265:Dsp/widget/wgt_core/UI_Controller.c **** 
 282              		.loc 1 265 16 view .LVU80
 283 001c 0020     		movs	r0, #0
 284              	.LVL25:
 268:Dsp/widget/wgt_core/UI_Controller.c **** }
 285              		.loc 1 268 1 view .LVU81
 286 001e 7047     		bx	lr
 287              		.cfi_endproc
 288              	.LFE7:
 290              		.section	.text.UI_Button_Push,"ax",%progbits
 291              		.align	1
 292              		.syntax unified
 293              		.thumb
 294              		.thumb_func
 295              		.fpu fpv4-sp-d16
 297              	UI_Button_Push:
 298              	.LVL26:
 299              	.LFB8:
 269:Dsp/widget/wgt_core/UI_Controller.c **** 
 270:Dsp/widget/wgt_core/UI_Controller.c **** static bool UI_Button_Push(UI_ButtonObj_TypeDef *Obj)
 271:Dsp/widget/wgt_core/UI_Controller.c **** {
ARM GAS  /var/folders/lx/hc4sn_b53233_zkc9xbbl97r0000gp/T//ccKzY9YJ.s 			page 11


 300              		.loc 1 271 1 is_stmt 1 view -0
 301              		.cfi_startproc
 302              		@ args = 0, pretend = 0, frame = 0
 303              		@ frame_needed = 0, uses_anonymous_args = 0
 272:Dsp/widget/wgt_core/UI_Controller.c ****     if (Obj == NULL)
 304              		.loc 1 272 5 view .LVU83
 305              		.loc 1 272 8 is_stmt 0 view .LVU84
 306 0000 F0B1     		cbz	r0, .L26
 271:Dsp/widget/wgt_core/UI_Controller.c ****     if (Obj == NULL)
 307              		.loc 1 271 1 view .LVU85
 308 0002 08B5     		push	{r3, lr}
 309              	.LCFI1:
 310              		.cfi_def_cfa_offset 8
 311              		.cfi_offset 3, -8
 312              		.cfi_offset 14, -4
 313 0004 0346     		mov	r3, r0
 273:Dsp/widget/wgt_core/UI_Controller.c ****         return false;
 274:Dsp/widget/wgt_core/UI_Controller.c **** 
 275:Dsp/widget/wgt_core/UI_Controller.c ****     if (Obj->type == Lock_Btn)
 314              		.loc 1 275 5 is_stmt 1 view .LVU86
 315              		.loc 1 275 12 is_stmt 0 view .LVU87
 316 0006 827B     		ldrb	r2, [r0, #14]	@ zero_extendqisi2
 317              		.loc 1 275 8 view .LVU88
 318 0008 012A     		cmp	r2, #1
 319 000a 06D0     		beq	.L34
 276:Dsp/widget/wgt_core/UI_Controller.c ****     {
 277:Dsp/widget/wgt_core/UI_Controller.c ****         if (Obj->state == UI_Btn_RlsUp)
 278:Dsp/widget/wgt_core/UI_Controller.c ****             Obj->state = UI_Btn_PushDwn;
 279:Dsp/widget/wgt_core/UI_Controller.c ****         else
 280:Dsp/widget/wgt_core/UI_Controller.c ****             Obj->state = UI_Btn_RlsUp;
 281:Dsp/widget/wgt_core/UI_Controller.c ****     }
 282:Dsp/widget/wgt_core/UI_Controller.c ****     else if (Obj->type == Reset_Btn)
 320              		.loc 1 282 10 is_stmt 1 view .LVU89
 321              		.loc 1 282 13 is_stmt 0 view .LVU90
 322 000c D2B9     		cbnz	r2, .L27
 283:Dsp/widget/wgt_core/UI_Controller.c ****     {
 284:Dsp/widget/wgt_core/UI_Controller.c ****         if (Obj->default_state == Obj->state)
 323              		.loc 1 284 9 is_stmt 1 view .LVU91
 324              		.loc 1 284 16 is_stmt 0 view .LVU92
 325 000e 027B     		ldrb	r2, [r0, #12]	@ zero_extendqisi2
 326              		.loc 1 284 38 view .LVU93
 327 0010 417B     		ldrb	r1, [r0, #13]	@ zero_extendqisi2
 328              		.loc 1 284 12 view .LVU94
 329 0012 8A42     		cmp	r2, r1
 330 0014 0AD0     		beq	.L35
 285:Dsp/widget/wgt_core/UI_Controller.c ****         {
 286:Dsp/widget/wgt_core/UI_Controller.c ****             Obj->state = !Obj->default_state;
 287:Dsp/widget/wgt_core/UI_Controller.c **** 
 288:Dsp/widget/wgt_core/UI_Controller.c ****             if (Obj->push_callback != NULL)
 289:Dsp/widget/wgt_core/UI_Controller.c ****                 Obj->push_callback();
 290:Dsp/widget/wgt_core/UI_Controller.c ****         }
 291:Dsp/widget/wgt_core/UI_Controller.c ****     }
 292:Dsp/widget/wgt_core/UI_Controller.c ****     else
 293:Dsp/widget/wgt_core/UI_Controller.c ****         return false;
 294:Dsp/widget/wgt_core/UI_Controller.c **** 
 295:Dsp/widget/wgt_core/UI_Controller.c ****     return true;
 331              		.loc 1 295 12 view .LVU95
ARM GAS  /var/folders/lx/hc4sn_b53233_zkc9xbbl97r0000gp/T//ccKzY9YJ.s 			page 12


 332 0016 0120     		movs	r0, #1
 333              	.LVL27:
 334              	.L23:
 296:Dsp/widget/wgt_core/UI_Controller.c **** }
 335              		.loc 1 296 1 view .LVU96
 336 0018 08BD     		pop	{r3, pc}
 337              	.LVL28:
 338              	.L34:
 277:Dsp/widget/wgt_core/UI_Controller.c ****             Obj->state = UI_Btn_PushDwn;
 339              		.loc 1 277 9 is_stmt 1 view .LVU97
 277:Dsp/widget/wgt_core/UI_Controller.c ****             Obj->state = UI_Btn_PushDwn;
 340              		.loc 1 277 16 is_stmt 0 view .LVU98
 341 001a 427B     		ldrb	r2, [r0, #13]	@ zero_extendqisi2
 277:Dsp/widget/wgt_core/UI_Controller.c ****             Obj->state = UI_Btn_PushDwn;
 342              		.loc 1 277 12 view .LVU99
 343 001c 12B9     		cbnz	r2, .L25
 278:Dsp/widget/wgt_core/UI_Controller.c ****         else
 344              		.loc 1 278 13 is_stmt 1 view .LVU100
 278:Dsp/widget/wgt_core/UI_Controller.c ****         else
 345              		.loc 1 278 24 is_stmt 0 view .LVU101
 346 001e 0120     		movs	r0, #1
 347              	.LVL29:
 278:Dsp/widget/wgt_core/UI_Controller.c ****         else
 348              		.loc 1 278 24 view .LVU102
 349 0020 5873     		strb	r0, [r3, #13]
 350 0022 F9E7     		b	.L23
 351              	.LVL30:
 352              	.L25:
 280:Dsp/widget/wgt_core/UI_Controller.c ****     }
 353              		.loc 1 280 13 is_stmt 1 view .LVU103
 280:Dsp/widget/wgt_core/UI_Controller.c ****     }
 354              		.loc 1 280 24 is_stmt 0 view .LVU104
 355 0024 0022     		movs	r2, #0
 356 0026 4273     		strb	r2, [r0, #13]
 295:Dsp/widget/wgt_core/UI_Controller.c **** }
 357              		.loc 1 295 12 view .LVU105
 358 0028 0120     		movs	r0, #1
 359              	.LVL31:
 295:Dsp/widget/wgt_core/UI_Controller.c **** }
 360              		.loc 1 295 12 view .LVU106
 361 002a F5E7     		b	.L23
 362              	.LVL32:
 363              	.L35:
 286:Dsp/widget/wgt_core/UI_Controller.c **** 
 364              		.loc 1 286 13 is_stmt 1 view .LVU107
 286:Dsp/widget/wgt_core/UI_Controller.c **** 
 365              		.loc 1 286 26 is_stmt 0 view .LVU108
 366 002c B2FA82F2 		clz	r2, r2
 367 0030 5209     		lsrs	r2, r2, #5
 286:Dsp/widget/wgt_core/UI_Controller.c **** 
 368              		.loc 1 286 24 view .LVU109
 369 0032 4273     		strb	r2, [r0, #13]
 288:Dsp/widget/wgt_core/UI_Controller.c ****                 Obj->push_callback();
 370              		.loc 1 288 13 is_stmt 1 view .LVU110
 288:Dsp/widget/wgt_core/UI_Controller.c ****                 Obj->push_callback();
 371              		.loc 1 288 20 is_stmt 0 view .LVU111
 372 0034 D0F80F30 		ldr	r3, [r0, #15]	@ unaligned
ARM GAS  /var/folders/lx/hc4sn_b53233_zkc9xbbl97r0000gp/T//ccKzY9YJ.s 			page 13


 288:Dsp/widget/wgt_core/UI_Controller.c ****                 Obj->push_callback();
 373              		.loc 1 288 16 view .LVU112
 374 0038 33B1     		cbz	r3, .L29
 289:Dsp/widget/wgt_core/UI_Controller.c ****         }
 375              		.loc 1 289 17 is_stmt 1 view .LVU113
 376 003a 9847     		blx	r3
 377              	.LVL33:
 295:Dsp/widget/wgt_core/UI_Controller.c **** }
 378              		.loc 1 295 12 is_stmt 0 view .LVU114
 379 003c 0120     		movs	r0, #1
 380 003e EBE7     		b	.L23
 381              	.LVL34:
 382              	.L26:
 383              	.LCFI2:
 384              		.cfi_def_cfa_offset 0
 385              		.cfi_restore 3
 386              		.cfi_restore 14
 273:Dsp/widget/wgt_core/UI_Controller.c **** 
 387              		.loc 1 273 16 view .LVU115
 388 0040 0020     		movs	r0, #0
 389              	.LVL35:
 390              		.loc 1 296 1 view .LVU116
 391 0042 7047     		bx	lr
 392              	.LVL36:
 393              	.L27:
 394              	.LCFI3:
 395              		.cfi_def_cfa_offset 8
 396              		.cfi_offset 3, -8
 397              		.cfi_offset 14, -4
 293:Dsp/widget/wgt_core/UI_Controller.c **** 
 398              		.loc 1 293 16 view .LVU117
 399 0044 0020     		movs	r0, #0
 400              	.LVL37:
 293:Dsp/widget/wgt_core/UI_Controller.c **** 
 401              		.loc 1 293 16 view .LVU118
 402 0046 E7E7     		b	.L23
 403              	.LVL38:
 404              	.L29:
 295:Dsp/widget/wgt_core/UI_Controller.c **** }
 405              		.loc 1 295 12 view .LVU119
 406 0048 0120     		movs	r0, #1
 407              	.LVL39:
 295:Dsp/widget/wgt_core/UI_Controller.c **** }
 408              		.loc 1 295 12 view .LVU120
 409 004a E5E7     		b	.L23
 410              		.cfi_endproc
 411              	.LFE8:
 413              		.section	.text.UI_Button_Release,"ax",%progbits
 414              		.align	1
 415              		.syntax unified
 416              		.thumb
 417              		.thumb_func
 418              		.fpu fpv4-sp-d16
 420              	UI_Button_Release:
 421              	.LVL40:
 422              	.LFB9:
 297:Dsp/widget/wgt_core/UI_Controller.c **** 
ARM GAS  /var/folders/lx/hc4sn_b53233_zkc9xbbl97r0000gp/T//ccKzY9YJ.s 			page 14


 298:Dsp/widget/wgt_core/UI_Controller.c **** static bool UI_Button_Release(UI_ButtonObj_TypeDef *Obj)
 299:Dsp/widget/wgt_core/UI_Controller.c **** {
 423              		.loc 1 299 1 is_stmt 1 view -0
 424              		.cfi_startproc
 425              		@ args = 0, pretend = 0, frame = 0
 426              		@ frame_needed = 0, uses_anonymous_args = 0
 300:Dsp/widget/wgt_core/UI_Controller.c ****     if (Obj == NULL)
 427              		.loc 1 300 5 view .LVU122
 428              		.loc 1 300 8 is_stmt 0 view .LVU123
 429 0000 70B1     		cbz	r0, .L38
 299:Dsp/widget/wgt_core/UI_Controller.c ****     if (Obj == NULL)
 430              		.loc 1 299 1 view .LVU124
 431 0002 08B5     		push	{r3, lr}
 432              	.LCFI4:
 433              		.cfi_def_cfa_offset 8
 434              		.cfi_offset 3, -8
 435              		.cfi_offset 14, -4
 301:Dsp/widget/wgt_core/UI_Controller.c ****         return false;
 302:Dsp/widget/wgt_core/UI_Controller.c **** 
 303:Dsp/widget/wgt_core/UI_Controller.c ****     if (Obj->type == Lock_Btn)
 436              		.loc 1 303 5 is_stmt 1 view .LVU125
 437              		.loc 1 303 12 is_stmt 0 view .LVU126
 438 0004 827B     		ldrb	r2, [r0, #14]	@ zero_extendqisi2
 439              		.loc 1 303 8 view .LVU127
 440 0006 012A     		cmp	r2, #1
 441 0008 0CD0     		beq	.L39
 304:Dsp/widget/wgt_core/UI_Controller.c ****         return true;
 305:Dsp/widget/wgt_core/UI_Controller.c **** 
 306:Dsp/widget/wgt_core/UI_Controller.c ****     if (Obj->default_state != Obj->state)
 442              		.loc 1 306 5 is_stmt 1 view .LVU128
 443              		.loc 1 306 12 is_stmt 0 view .LVU129
 444 000a 027B     		ldrb	r2, [r0, #12]	@ zero_extendqisi2
 445              		.loc 1 306 34 view .LVU130
 446 000c 417B     		ldrb	r1, [r0, #13]	@ zero_extendqisi2
 447              		.loc 1 306 8 view .LVU131
 448 000e 8A42     		cmp	r2, r1
 449 0010 0AD0     		beq	.L40
 307:Dsp/widget/wgt_core/UI_Controller.c ****     {
 308:Dsp/widget/wgt_core/UI_Controller.c ****         Obj->state = Obj->default_state;
 450              		.loc 1 308 9 is_stmt 1 view .LVU132
 451              		.loc 1 308 20 is_stmt 0 view .LVU133
 452 0012 4273     		strb	r2, [r0, #13]
 309:Dsp/widget/wgt_core/UI_Controller.c **** 
 310:Dsp/widget/wgt_core/UI_Controller.c ****         if (Obj->release_callback != NULL)
 453              		.loc 1 310 9 is_stmt 1 view .LVU134
 454              		.loc 1 310 16 is_stmt 0 view .LVU135
 455 0014 D0F81330 		ldr	r3, [r0, #19]	@ unaligned
 456              		.loc 1 310 12 view .LVU136
 457 0018 43B1     		cbz	r3, .L41
 311:Dsp/widget/wgt_core/UI_Controller.c ****             Obj->release_callback();
 458              		.loc 1 311 13 is_stmt 1 view .LVU137
 459 001a 9847     		blx	r3
 460              	.LVL41:
 312:Dsp/widget/wgt_core/UI_Controller.c ****     }
 313:Dsp/widget/wgt_core/UI_Controller.c **** 
 314:Dsp/widget/wgt_core/UI_Controller.c ****     return true;
 461              		.loc 1 314 12 is_stmt 0 view .LVU138
ARM GAS  /var/folders/lx/hc4sn_b53233_zkc9xbbl97r0000gp/T//ccKzY9YJ.s 			page 15


 462 001c 0120     		movs	r0, #1
 463              	.L37:
 315:Dsp/widget/wgt_core/UI_Controller.c **** }
 464              		.loc 1 315 1 view .LVU139
 465 001e 08BD     		pop	{r3, pc}
 466              	.LVL42:
 467              	.L38:
 468              	.LCFI5:
 469              		.cfi_def_cfa_offset 0
 470              		.cfi_restore 3
 471              		.cfi_restore 14
 301:Dsp/widget/wgt_core/UI_Controller.c **** 
 472              		.loc 1 301 16 view .LVU140
 473 0020 0020     		movs	r0, #0
 474              	.LVL43:
 475              		.loc 1 315 1 view .LVU141
 476 0022 7047     		bx	lr
 477              	.LVL44:
 478              	.L39:
 479              	.LCFI6:
 480              		.cfi_def_cfa_offset 8
 481              		.cfi_offset 3, -8
 482              		.cfi_offset 14, -4
 304:Dsp/widget/wgt_core/UI_Controller.c **** 
 483              		.loc 1 304 16 view .LVU142
 484 0024 0120     		movs	r0, #1
 485              	.LVL45:
 304:Dsp/widget/wgt_core/UI_Controller.c **** 
 486              		.loc 1 304 16 view .LVU143
 487 0026 FAE7     		b	.L37
 488              	.LVL46:
 489              	.L40:
 314:Dsp/widget/wgt_core/UI_Controller.c **** }
 490              		.loc 1 314 12 view .LVU144
 491 0028 0120     		movs	r0, #1
 492              	.LVL47:
 314:Dsp/widget/wgt_core/UI_Controller.c **** }
 493              		.loc 1 314 12 view .LVU145
 494 002a F8E7     		b	.L37
 495              	.LVL48:
 496              	.L41:
 314:Dsp/widget/wgt_core/UI_Controller.c **** }
 497              		.loc 1 314 12 view .LVU146
 498 002c 0120     		movs	r0, #1
 499              	.LVL49:
 314:Dsp/widget/wgt_core/UI_Controller.c **** }
 500              		.loc 1 314 12 view .LVU147
 501 002e F6E7     		b	.L37
 502              		.cfi_endproc
 503              	.LFE9:
 505              		.section	.text.UI_Button_Move,"ax",%progbits
 506              		.align	1
 507              		.syntax unified
 508              		.thumb
 509              		.thumb_func
 510              		.fpu fpv4-sp-d16
 512              	UI_Button_Move:
ARM GAS  /var/folders/lx/hc4sn_b53233_zkc9xbbl97r0000gp/T//ccKzY9YJ.s 			page 16


 513              	.LVL50:
 514              	.LFB10:
 316:Dsp/widget/wgt_core/UI_Controller.c **** 
 317:Dsp/widget/wgt_core/UI_Controller.c **** static bool UI_Button_Move(UI_ButtonObj_TypeDef *Obj, uint16_t x, uint16_t y)
 318:Dsp/widget/wgt_core/UI_Controller.c **** {
 515              		.loc 1 318 1 is_stmt 1 view -0
 516              		.cfi_startproc
 517              		@ args = 0, pretend = 0, frame = 0
 518              		@ frame_needed = 0, uses_anonymous_args = 0
 319:Dsp/widget/wgt_core/UI_Controller.c ****     if (Obj == NULL)
 519              		.loc 1 319 5 view .LVU149
 520              		.loc 1 319 8 is_stmt 0 view .LVU150
 521 0000 28B1     		cbz	r0, .L48
 318:Dsp/widget/wgt_core/UI_Controller.c ****     if (Obj == NULL)
 522              		.loc 1 318 1 view .LVU151
 523 0002 08B5     		push	{r3, lr}
 524              	.LCFI7:
 525              		.cfi_def_cfa_offset 8
 526              		.cfi_offset 3, -8
 527              		.cfi_offset 14, -4
 320:Dsp/widget/wgt_core/UI_Controller.c ****         return false;
 321:Dsp/widget/wgt_core/UI_Controller.c **** 
 322:Dsp/widget/wgt_core/UI_Controller.c ****     return UI_Move(&(Obj->Gen_Data), x, y);
 528              		.loc 1 322 5 is_stmt 1 view .LVU152
 529              		.loc 1 322 12 is_stmt 0 view .LVU153
 530 0004 12B2     		sxth	r2, r2
 531              		.loc 1 322 12 view .LVU154
 532 0006 09B2     		sxth	r1, r1
 533              		.loc 1 322 12 view .LVU155
 534 0008 FFF7FEFF 		bl	UI_Move
 535              	.LVL51:
 323:Dsp/widget/wgt_core/UI_Controller.c **** }
 536              		.loc 1 323 1 view .LVU156
 537 000c 08BD     		pop	{r3, pc}
 538              	.LVL52:
 539              	.L48:
 540              	.LCFI8:
 541              		.cfi_def_cfa_offset 0
 542              		.cfi_restore 3
 543              		.cfi_restore 14
 320:Dsp/widget/wgt_core/UI_Controller.c ****         return false;
 544              		.loc 1 320 16 view .LVU157
 545 000e 0020     		movs	r0, #0
 546              	.LVL53:
 547              		.loc 1 323 1 view .LVU158
 548 0010 7047     		bx	lr
 549              		.cfi_endproc
 550              	.LFE10:
 552              		.section	.text.UI_Button_Ctl,"ax",%progbits
 553              		.align	1
 554              		.syntax unified
 555              		.thumb
 556              		.thumb_func
 557              		.fpu fpv4-sp-d16
 559              	UI_Button_Ctl:
 560              	.LVL54:
 561              	.LFB11:
ARM GAS  /var/folders/lx/hc4sn_b53233_zkc9xbbl97r0000gp/T//ccKzY9YJ.s 			page 17


 324:Dsp/widget/wgt_core/UI_Controller.c **** 
 325:Dsp/widget/wgt_core/UI_Controller.c **** static bool UI_Button_Ctl(UI_ButtonObj_TypeDef *Obj)
 326:Dsp/widget/wgt_core/UI_Controller.c **** {
 562              		.loc 1 326 1 is_stmt 1 view -0
 563              		.cfi_startproc
 564              		@ args = 0, pretend = 0, frame = 0
 565              		@ frame_needed = 0, uses_anonymous_args = 0
 327:Dsp/widget/wgt_core/UI_Controller.c ****     if (Obj == NULL)
 566              		.loc 1 327 5 view .LVU160
 567              		.loc 1 327 8 is_stmt 0 view .LVU161
 568 0000 0028     		cmp	r0, #0
 569 0002 70D0     		beq	.L59
 326:Dsp/widget/wgt_core/UI_Controller.c ****     if (Obj == NULL)
 570              		.loc 1 326 1 view .LVU162
 571 0004 70B5     		push	{r4, r5, r6, lr}
 572              	.LCFI9:
 573              		.cfi_def_cfa_offset 16
 574              		.cfi_offset 4, -16
 575              		.cfi_offset 5, -12
 576              		.cfi_offset 6, -8
 577              		.cfi_offset 14, -4
 578 0006 84B0     		sub	sp, sp, #16
 579              	.LCFI10:
 580              		.cfi_def_cfa_offset 32
 581 0008 0446     		mov	r4, r0
 328:Dsp/widget/wgt_core/UI_Controller.c ****         return false;
 329:Dsp/widget/wgt_core/UI_Controller.c **** 
 330:Dsp/widget/wgt_core/UI_Controller.c ****     if (Obj->type == Lock_Btn)
 582              		.loc 1 330 5 is_stmt 1 view .LVU163
 583              		.loc 1 330 12 is_stmt 0 view .LVU164
 584 000a 837B     		ldrb	r3, [r0, #14]	@ zero_extendqisi2
 585              		.loc 1 330 8 view .LVU165
 586 000c 012B     		cmp	r3, #1
 587 000e 2ED0     		beq	.L71
 588              	.LVL55:
 589              	.L55:
 331:Dsp/widget/wgt_core/UI_Controller.c ****     {
 332:Dsp/widget/wgt_core/UI_Controller.c ****         if (Obj->state == UI_Btn_PushDwn)
 333:Dsp/widget/wgt_core/UI_Controller.c ****         {
 334:Dsp/widget/wgt_core/UI_Controller.c ****             if (Obj->push_callback)
 335:Dsp/widget/wgt_core/UI_Controller.c ****                 Obj->push_callback();
 336:Dsp/widget/wgt_core/UI_Controller.c ****         }
 337:Dsp/widget/wgt_core/UI_Controller.c ****         else if (Obj->state == UI_Btn_RlsUp)
 338:Dsp/widget/wgt_core/UI_Controller.c ****         {
 339:Dsp/widget/wgt_core/UI_Controller.c ****             if (Obj->release_callback)
 340:Dsp/widget/wgt_core/UI_Controller.c ****                 Obj->release_callback();
 341:Dsp/widget/wgt_core/UI_Controller.c ****         }
 342:Dsp/widget/wgt_core/UI_Controller.c ****         else
 343:Dsp/widget/wgt_core/UI_Controller.c ****             return false;
 344:Dsp/widget/wgt_core/UI_Controller.c ****     }
 345:Dsp/widget/wgt_core/UI_Controller.c **** 
 346:Dsp/widget/wgt_core/UI_Controller.c ****     /* display button on screen object */
 347:Dsp/widget/wgt_core/UI_Controller.c ****     /* invert display color when button been push down */
 348:Dsp/widget/wgt_core/UI_Controller.c ****     if ((UI_DspInterface.draw_str != NULL) && (UI_DspInterface.fill_radius_rectangle != NULL) && (U
 590              		.loc 1 348 5 is_stmt 1 view .LVU166
 591              		.loc 1 348 25 is_stmt 0 view .LVU167
 592 0010 3D4B     		ldr	r3, .L75
ARM GAS  /var/folders/lx/hc4sn_b53233_zkc9xbbl97r0000gp/T//ccKzY9YJ.s 			page 18


 593 0012 1B68     		ldr	r3, [r3]
 594              		.loc 1 348 8 view .LVU168
 595 0014 002B     		cmp	r3, #0
 596 0016 6AD0     		beq	.L61
 597              		.loc 1 348 63 discriminator 1 view .LVU169
 598 0018 3B4B     		ldr	r3, .L75
 599 001a 9D6A     		ldr	r5, [r3, #40]
 600              		.loc 1 348 44 discriminator 1 view .LVU170
 601 001c 002D     		cmp	r5, #0
 602 001e 69D0     		beq	.L62
 603              		.loc 1 348 114 discriminator 2 view .LVU171
 604 0020 DE68     		ldr	r6, [r3, #12]
 605              		.loc 1 348 95 discriminator 2 view .LVU172
 606 0022 002E     		cmp	r6, #0
 607 0024 68D0     		beq	.L63
 349:Dsp/widget/wgt_core/UI_Controller.c ****     {
 350:Dsp/widget/wgt_core/UI_Controller.c ****         if (Obj->state == UI_Btn_PushDwn)
 608              		.loc 1 350 9 is_stmt 1 view .LVU173
 609              		.loc 1 350 16 is_stmt 0 view .LVU174
 610 0026 637B     		ldrb	r3, [r4, #13]	@ zero_extendqisi2
 611              		.loc 1 350 12 view .LVU175
 612 0028 012B     		cmp	r3, #1
 613 002a 31D0     		beq	.L72
 351:Dsp/widget/wgt_core/UI_Controller.c ****         {
 352:Dsp/widget/wgt_core/UI_Controller.c ****             /* fill button frame */
 353:Dsp/widget/wgt_core/UI_Controller.c ****             UI_DspInterface.fill_radius_rectangle(Obj->Gen_Data.x, Obj->Gen_Data.y, Obj->width, Obj
 354:Dsp/widget/wgt_core/UI_Controller.c **** 
 355:Dsp/widget/wgt_core/UI_Controller.c ****             /* invert string display */
 356:Dsp/widget/wgt_core/UI_Controller.c ****             if (Obj->PushDown_Label != NULL)
 357:Dsp/widget/wgt_core/UI_Controller.c ****                 UI_DspInterface.draw_str(Default_Font, Obj->PushDown_Label, Obj->Gen_Data.x + 5, Ob
 358:Dsp/widget/wgt_core/UI_Controller.c ****         }
 359:Dsp/widget/wgt_core/UI_Controller.c ****         else
 360:Dsp/widget/wgt_core/UI_Controller.c ****         {
 361:Dsp/widget/wgt_core/UI_Controller.c ****             /* draw button frame */
 362:Dsp/widget/wgt_core/UI_Controller.c ****             UI_DspInterface.draw_radius_rectangle(Obj->Gen_Data.x, Obj->Gen_Data.y, Obj->width, Obj
 614              		.loc 1 362 13 is_stmt 1 view .LVU176
 615 002c 0123     		movs	r3, #1
 616 002e 0293     		str	r3, [sp, #8]
 617 0030 0193     		str	r3, [sp, #4]
 618 0032 0323     		movs	r3, #3
 619 0034 0093     		str	r3, [sp]
 620 0036 94F82030 		ldrb	r3, [r4, #32]	@ zero_extendqisi2
 621 003a E27F     		ldrb	r2, [r4, #31]	@ zero_extendqisi2
 622 003c B4F90610 		ldrsh	r1, [r4, #6]	@ unaligned
 623 0040 B4F90400 		ldrsh	r0, [r4, #4]	@ unaligned
 624 0044 B047     		blx	r6
 625              	.LVL56:
 363:Dsp/widget/wgt_core/UI_Controller.c **** 
 364:Dsp/widget/wgt_core/UI_Controller.c ****             if (Obj->type == Lock_Btn)
 626              		.loc 1 364 13 view .LVU177
 627              		.loc 1 364 20 is_stmt 0 view .LVU178
 628 0046 A37B     		ldrb	r3, [r4, #14]	@ zero_extendqisi2
 629              		.loc 1 364 16 view .LVU179
 630 0048 012B     		cmp	r3, #1
 631 004a 3CD0     		beq	.L73
 365:Dsp/widget/wgt_core/UI_Controller.c ****             {
 366:Dsp/widget/wgt_core/UI_Controller.c ****                 /* display label normally */
ARM GAS  /var/folders/lx/hc4sn_b53233_zkc9xbbl97r0000gp/T//ccKzY9YJ.s 			page 19


 367:Dsp/widget/wgt_core/UI_Controller.c ****                 if (Obj->Release_Label != NULL)
 368:Dsp/widget/wgt_core/UI_Controller.c ****                     UI_DspInterface.draw_str(Default_Font, Obj->Release_Label, Obj->Gen_Data.x + 9,
 369:Dsp/widget/wgt_core/UI_Controller.c ****             }
 370:Dsp/widget/wgt_core/UI_Controller.c ****             else
 371:Dsp/widget/wgt_core/UI_Controller.c ****             {
 372:Dsp/widget/wgt_core/UI_Controller.c ****                 if (Obj->PushDown_Label != NULL)
 632              		.loc 1 372 17 is_stmt 1 view .LVU180
 633              		.loc 1 372 24 is_stmt 0 view .LVU181
 634 004c D4F81710 		ldr	r1, [r4, #23]	@ unaligned
 635              		.loc 1 372 20 view .LVU182
 636 0050 0029     		cmp	r1, #0
 637 0052 57D0     		beq	.L66
 373:Dsp/widget/wgt_core/UI_Controller.c ****                     UI_DspInterface.draw_str(Default_Font, Obj->PushDown_Label, Obj->Gen_Data.x + 5
 638              		.loc 1 373 21 is_stmt 1 view .LVU183
 639              		.loc 1 373 36 is_stmt 0 view .LVU184
 640 0054 2C4B     		ldr	r3, .L75
 641 0056 1E68     		ldr	r6, [r3]
 642              		.loc 1 373 94 view .LVU185
 643 0058 A288     		ldrh	r2, [r4, #4]	@ unaligned
 644              		.loc 1 373 97 view .LVU186
 645 005a 0532     		adds	r2, r2, #5
 646              		.loc 1 373 21 view .LVU187
 647 005c 0125     		movs	r5, #1
 648 005e 0095     		str	r5, [sp]
 649 0060 B4F90630 		ldrsh	r3, [r4, #6]	@ unaligned
 650 0064 12B2     		sxth	r2, r2
 651 0066 0C20     		movs	r0, #12
 652 0068 B047     		blx	r6
 653              	.LVL57:
 374:Dsp/widget/wgt_core/UI_Controller.c ****             }
 375:Dsp/widget/wgt_core/UI_Controller.c ****         }
 376:Dsp/widget/wgt_core/UI_Controller.c ****     }
 377:Dsp/widget/wgt_core/UI_Controller.c ****     else
 378:Dsp/widget/wgt_core/UI_Controller.c ****         return false;
 379:Dsp/widget/wgt_core/UI_Controller.c **** 
 380:Dsp/widget/wgt_core/UI_Controller.c ****     return true;
 654              		.loc 1 380 12 view .LVU188
 655 006a 2846     		mov	r0, r5
 656 006c 40E0     		b	.L54
 657              	.LVL58:
 658              	.L71:
 332:Dsp/widget/wgt_core/UI_Controller.c ****         {
 659              		.loc 1 332 9 is_stmt 1 view .LVU189
 332:Dsp/widget/wgt_core/UI_Controller.c ****         {
 660              		.loc 1 332 16 is_stmt 0 view .LVU190
 661 006e 437B     		ldrb	r3, [r0, #13]	@ zero_extendqisi2
 332:Dsp/widget/wgt_core/UI_Controller.c ****         {
 662              		.loc 1 332 12 view .LVU191
 663 0070 012B     		cmp	r3, #1
 664 0072 07D0     		beq	.L74
 337:Dsp/widget/wgt_core/UI_Controller.c ****         {
 665              		.loc 1 337 14 is_stmt 1 view .LVU192
 337:Dsp/widget/wgt_core/UI_Controller.c ****         {
 666              		.loc 1 337 17 is_stmt 0 view .LVU193
 667 0074 002B     		cmp	r3, #0
 668 0076 38D1     		bne	.L60
 339:Dsp/widget/wgt_core/UI_Controller.c ****                 Obj->release_callback();
ARM GAS  /var/folders/lx/hc4sn_b53233_zkc9xbbl97r0000gp/T//ccKzY9YJ.s 			page 20


 669              		.loc 1 339 13 is_stmt 1 view .LVU194
 339:Dsp/widget/wgt_core/UI_Controller.c ****                 Obj->release_callback();
 670              		.loc 1 339 20 is_stmt 0 view .LVU195
 671 0078 D0F81330 		ldr	r3, [r0, #19]	@ unaligned
 339:Dsp/widget/wgt_core/UI_Controller.c ****                 Obj->release_callback();
 672              		.loc 1 339 16 view .LVU196
 673 007c 002B     		cmp	r3, #0
 674 007e C7D0     		beq	.L55
 340:Dsp/widget/wgt_core/UI_Controller.c ****         }
 675              		.loc 1 340 17 is_stmt 1 view .LVU197
 676 0080 9847     		blx	r3
 677              	.LVL59:
 340:Dsp/widget/wgt_core/UI_Controller.c ****         }
 678              		.loc 1 340 17 is_stmt 0 view .LVU198
 679 0082 C5E7     		b	.L55
 680              	.LVL60:
 681              	.L74:
 334:Dsp/widget/wgt_core/UI_Controller.c ****                 Obj->push_callback();
 682              		.loc 1 334 13 is_stmt 1 view .LVU199
 334:Dsp/widget/wgt_core/UI_Controller.c ****                 Obj->push_callback();
 683              		.loc 1 334 20 is_stmt 0 view .LVU200
 684 0084 D0F80F30 		ldr	r3, [r0, #15]	@ unaligned
 334:Dsp/widget/wgt_core/UI_Controller.c ****                 Obj->push_callback();
 685              		.loc 1 334 16 view .LVU201
 686 0088 002B     		cmp	r3, #0
 687 008a C1D0     		beq	.L55
 335:Dsp/widget/wgt_core/UI_Controller.c ****         }
 688              		.loc 1 335 17 is_stmt 1 view .LVU202
 689 008c 9847     		blx	r3
 690              	.LVL61:
 335:Dsp/widget/wgt_core/UI_Controller.c ****         }
 691              		.loc 1 335 17 is_stmt 0 view .LVU203
 692 008e BFE7     		b	.L55
 693              	.L72:
 353:Dsp/widget/wgt_core/UI_Controller.c **** 
 694              		.loc 1 353 13 is_stmt 1 view .LVU204
 695 0090 0193     		str	r3, [sp, #4]
 696 0092 0323     		movs	r3, #3
 697 0094 0093     		str	r3, [sp]
 698 0096 94F82030 		ldrb	r3, [r4, #32]	@ zero_extendqisi2
 699 009a E27F     		ldrb	r2, [r4, #31]	@ zero_extendqisi2
 700 009c B4F90610 		ldrsh	r1, [r4, #6]	@ unaligned
 701 00a0 B4F90400 		ldrsh	r0, [r4, #4]	@ unaligned
 702 00a4 A847     		blx	r5
 703              	.LVL62:
 356:Dsp/widget/wgt_core/UI_Controller.c ****                 UI_DspInterface.draw_str(Default_Font, Obj->PushDown_Label, Obj->Gen_Data.x + 5, Ob
 704              		.loc 1 356 13 view .LVU205
 356:Dsp/widget/wgt_core/UI_Controller.c ****                 UI_DspInterface.draw_str(Default_Font, Obj->PushDown_Label, Obj->Gen_Data.x + 5, Ob
 705              		.loc 1 356 20 is_stmt 0 view .LVU206
 706 00a6 D4F81710 		ldr	r1, [r4, #23]	@ unaligned
 356:Dsp/widget/wgt_core/UI_Controller.c ****                 UI_DspInterface.draw_str(Default_Font, Obj->PushDown_Label, Obj->Gen_Data.x + 5, Ob
 707              		.loc 1 356 16 view .LVU207
 708 00aa 39B3     		cbz	r1, .L64
 357:Dsp/widget/wgt_core/UI_Controller.c ****         }
 709              		.loc 1 357 17 is_stmt 1 view .LVU208
 357:Dsp/widget/wgt_core/UI_Controller.c ****         }
 710              		.loc 1 357 32 is_stmt 0 view .LVU209
ARM GAS  /var/folders/lx/hc4sn_b53233_zkc9xbbl97r0000gp/T//ccKzY9YJ.s 			page 21


 711 00ac 164B     		ldr	r3, .L75
 712 00ae 1E68     		ldr	r6, [r3]
 357:Dsp/widget/wgt_core/UI_Controller.c ****         }
 713              		.loc 1 357 90 view .LVU210
 714 00b0 A288     		ldrh	r2, [r4, #4]	@ unaligned
 357:Dsp/widget/wgt_core/UI_Controller.c ****         }
 715              		.loc 1 357 93 view .LVU211
 716 00b2 0532     		adds	r2, r2, #5
 357:Dsp/widget/wgt_core/UI_Controller.c ****         }
 717              		.loc 1 357 17 view .LVU212
 718 00b4 0125     		movs	r5, #1
 719 00b6 0095     		str	r5, [sp]
 720 00b8 B4F90630 		ldrsh	r3, [r4, #6]	@ unaligned
 721 00bc 12B2     		sxth	r2, r2
 722 00be 0C20     		movs	r0, #12
 723 00c0 B047     		blx	r6
 724              	.LVL63:
 725              		.loc 1 380 12 view .LVU213
 726 00c2 2846     		mov	r0, r5
 727 00c4 14E0     		b	.L54
 728              	.L73:
 367:Dsp/widget/wgt_core/UI_Controller.c ****                     UI_DspInterface.draw_str(Default_Font, Obj->Release_Label, Obj->Gen_Data.x + 9,
 729              		.loc 1 367 17 is_stmt 1 view .LVU214
 367:Dsp/widget/wgt_core/UI_Controller.c ****                     UI_DspInterface.draw_str(Default_Font, Obj->Release_Label, Obj->Gen_Data.x + 9,
 730              		.loc 1 367 24 is_stmt 0 view .LVU215
 731 00c6 D4F81B10 		ldr	r1, [r4, #27]	@ unaligned
 367:Dsp/widget/wgt_core/UI_Controller.c ****                     UI_DspInterface.draw_str(Default_Font, Obj->Release_Label, Obj->Gen_Data.x + 9,
 732              		.loc 1 367 20 view .LVU216
 733 00ca C9B1     		cbz	r1, .L65
 368:Dsp/widget/wgt_core/UI_Controller.c ****             }
 734              		.loc 1 368 21 is_stmt 1 view .LVU217
 368:Dsp/widget/wgt_core/UI_Controller.c ****             }
 735              		.loc 1 368 36 is_stmt 0 view .LVU218
 736 00cc 0E4B     		ldr	r3, .L75
 737 00ce 1E68     		ldr	r6, [r3]
 368:Dsp/widget/wgt_core/UI_Controller.c ****             }
 738              		.loc 1 368 93 view .LVU219
 739 00d0 A288     		ldrh	r2, [r4, #4]	@ unaligned
 368:Dsp/widget/wgt_core/UI_Controller.c ****             }
 740              		.loc 1 368 96 view .LVU220
 741 00d2 0932     		adds	r2, r2, #9
 368:Dsp/widget/wgt_core/UI_Controller.c ****             }
 742              		.loc 1 368 21 view .LVU221
 743 00d4 0125     		movs	r5, #1
 744 00d6 0095     		str	r5, [sp]
 745 00d8 B4F90630 		ldrsh	r3, [r4, #6]	@ unaligned
 746 00dc 12B2     		sxth	r2, r2
 747 00de 0C20     		movs	r0, #12
 748 00e0 B047     		blx	r6
 749              	.LVL64:
 750              		.loc 1 380 12 view .LVU222
 751 00e2 2846     		mov	r0, r5
 752 00e4 04E0     		b	.L54
 753              	.LVL65:
 754              	.L59:
 755              	.LCFI11:
 756              		.cfi_def_cfa_offset 0
ARM GAS  /var/folders/lx/hc4sn_b53233_zkc9xbbl97r0000gp/T//ccKzY9YJ.s 			page 22


 757              		.cfi_restore 4
 758              		.cfi_restore 5
 759              		.cfi_restore 6
 760              		.cfi_restore 14
 328:Dsp/widget/wgt_core/UI_Controller.c **** 
 761              		.loc 1 328 16 view .LVU223
 762 00e6 0020     		movs	r0, #0
 763              	.LVL66:
 381:Dsp/widget/wgt_core/UI_Controller.c **** }
 764              		.loc 1 381 1 view .LVU224
 765 00e8 7047     		bx	lr
 766              	.LVL67:
 767              	.L60:
 768              	.LCFI12:
 769              		.cfi_def_cfa_offset 32
 770              		.cfi_offset 4, -16
 771              		.cfi_offset 5, -12
 772              		.cfi_offset 6, -8
 773              		.cfi_offset 14, -4
 343:Dsp/widget/wgt_core/UI_Controller.c ****     }
 774              		.loc 1 343 20 view .LVU225
 775 00ea 0020     		movs	r0, #0
 776              	.LVL68:
 343:Dsp/widget/wgt_core/UI_Controller.c ****     }
 777              		.loc 1 343 20 view .LVU226
 778 00ec 00E0     		b	.L54
 779              	.L61:
 378:Dsp/widget/wgt_core/UI_Controller.c **** 
 780              		.loc 1 378 16 view .LVU227
 781 00ee 0020     		movs	r0, #0
 782              	.L54:
 783              		.loc 1 381 1 view .LVU228
 784 00f0 04B0     		add	sp, sp, #16
 785              	.LCFI13:
 786              		.cfi_remember_state
 787              		.cfi_def_cfa_offset 16
 788              		@ sp needed
 789 00f2 70BD     		pop	{r4, r5, r6, pc}
 790              	.LVL69:
 791              	.L62:
 792              	.LCFI14:
 793              		.cfi_restore_state
 378:Dsp/widget/wgt_core/UI_Controller.c **** 
 794              		.loc 1 378 16 view .LVU229
 795 00f4 0020     		movs	r0, #0
 796 00f6 FBE7     		b	.L54
 797              	.L63:
 798 00f8 0020     		movs	r0, #0
 799 00fa F9E7     		b	.L54
 800              	.L64:
 380:Dsp/widget/wgt_core/UI_Controller.c **** }
 801              		.loc 1 380 12 view .LVU230
 802 00fc 0120     		movs	r0, #1
 803 00fe F7E7     		b	.L54
 804              	.L65:
 380:Dsp/widget/wgt_core/UI_Controller.c **** }
 805              		.loc 1 380 12 view .LVU231
ARM GAS  /var/folders/lx/hc4sn_b53233_zkc9xbbl97r0000gp/T//ccKzY9YJ.s 			page 23


 806 0100 0120     		movs	r0, #1
 807 0102 F5E7     		b	.L54
 808              	.L66:
 380:Dsp/widget/wgt_core/UI_Controller.c **** }
 809              		.loc 1 380 12 view .LVU232
 810 0104 0120     		movs	r0, #1
 811 0106 F3E7     		b	.L54
 812              	.L76:
 813              		.align	2
 814              	.L75:
 815 0108 00000000 		.word	.LANCHOR0
 816              		.cfi_endproc
 817              	.LFE11:
 819              		.section	.text.UI_CheckBox_Init,"ax",%progbits
 820              		.align	1
 821              		.syntax unified
 822              		.thumb
 823              		.thumb_func
 824              		.fpu fpv4-sp-d16
 826              	UI_CheckBox_Init:
 827              	.LVL70:
 828              	.LFB12:
 382:Dsp/widget/wgt_core/UI_Controller.c **** 
 383:Dsp/widget/wgt_core/UI_Controller.c **** static bool UI_CheckBox_Init(UI_CheckBoxObj_TypeDef *Obj, char *label, int16_t x, int16_t y, bool s
 384:Dsp/widget/wgt_core/UI_Controller.c **** {
 829              		.loc 1 384 1 is_stmt 1 view -0
 830              		.cfi_startproc
 831              		@ args = 4, pretend = 0, frame = 0
 832              		@ frame_needed = 0, uses_anonymous_args = 0
 385:Dsp/widget/wgt_core/UI_Controller.c ****     if (Obj == NULL)
 833              		.loc 1 385 5 view .LVU234
 834              		.loc 1 385 8 is_stmt 0 view .LVU235
 835 0000 68B1     		cbz	r0, .L79
 384:Dsp/widget/wgt_core/UI_Controller.c ****     if (Obj == NULL)
 836              		.loc 1 384 1 view .LVU236
 837 0002 10B5     		push	{r4, lr}
 838              	.LCFI15:
 839              		.cfi_def_cfa_offset 8
 840              		.cfi_offset 4, -8
 841              		.cfi_offset 14, -4
 842 0004 0446     		mov	r4, r0
 386:Dsp/widget/wgt_core/UI_Controller.c ****         return false;
 387:Dsp/widget/wgt_core/UI_Controller.c **** 
 388:Dsp/widget/wgt_core/UI_Controller.c ****     UI_GenData_Init(&Obj->Gen_Data, label, x, y);
 843              		.loc 1 388 5 is_stmt 1 view .LVU237
 844 0006 FFF7FEFF 		bl	UI_GenData_Init
 845              	.LVL71:
 389:Dsp/widget/wgt_core/UI_Controller.c **** 
 390:Dsp/widget/wgt_core/UI_Controller.c ****     Obj->checked = state;
 846              		.loc 1 390 5 view .LVU238
 847              		.loc 1 390 18 is_stmt 0 view .LVU239
 848 000a 9DF80830 		ldrb	r3, [sp, #8]	@ zero_extendqisi2
 849 000e 2374     		strb	r3, [r4, #16]
 391:Dsp/widget/wgt_core/UI_Controller.c ****     Obj->callback = NULL;
 850              		.loc 1 391 5 is_stmt 1 view .LVU240
 851              		.loc 1 391 19 is_stmt 0 view .LVU241
 852 0010 0023     		movs	r3, #0
ARM GAS  /var/folders/lx/hc4sn_b53233_zkc9xbbl97r0000gp/T//ccKzY9YJ.s 			page 24


 853 0012 2373     		strb	r3, [r4, #12]
 854 0014 6373     		strb	r3, [r4, #13]
 855 0016 A373     		strb	r3, [r4, #14]
 856 0018 E373     		strb	r3, [r4, #15]
 392:Dsp/widget/wgt_core/UI_Controller.c **** 
 393:Dsp/widget/wgt_core/UI_Controller.c ****     return true;
 857              		.loc 1 393 5 is_stmt 1 view .LVU242
 858              		.loc 1 393 12 is_stmt 0 view .LVU243
 859 001a 0120     		movs	r0, #1
 394:Dsp/widget/wgt_core/UI_Controller.c **** }
 860              		.loc 1 394 1 view .LVU244
 861 001c 10BD     		pop	{r4, pc}
 862              	.LVL72:
 863              	.L79:
 864              	.LCFI16:
 865              		.cfi_def_cfa_offset 0
 866              		.cfi_restore 4
 867              		.cfi_restore 14
 386:Dsp/widget/wgt_core/UI_Controller.c **** 
 868              		.loc 1 386 16 view .LVU245
 869 001e 0020     		movs	r0, #0
 870              	.LVL73:
 871              		.loc 1 394 1 view .LVU246
 872 0020 7047     		bx	lr
 873              		.cfi_endproc
 874              	.LFE12:
 876              		.section	.text.UI_CheckBox_SetCallback,"ax",%progbits
 877              		.align	1
 878              		.syntax unified
 879              		.thumb
 880              		.thumb_func
 881              		.fpu fpv4-sp-d16
 883              	UI_CheckBox_SetCallback:
 884              	.LVL74:
 885              	.LFB13:
 395:Dsp/widget/wgt_core/UI_Controller.c **** 
 396:Dsp/widget/wgt_core/UI_Controller.c **** static bool UI_CheckBox_SetCallback(UI_CheckBoxObj_TypeDef *Obj, UI_CheckBoxTrigger_Callback callba
 397:Dsp/widget/wgt_core/UI_Controller.c **** {
 886              		.loc 1 397 1 is_stmt 1 view -0
 887              		.cfi_startproc
 888              		@ args = 0, pretend = 0, frame = 0
 889              		@ frame_needed = 0, uses_anonymous_args = 0
 890              		@ link register save eliminated.
 398:Dsp/widget/wgt_core/UI_Controller.c ****     if (Obj == NULL)
 891              		.loc 1 398 5 view .LVU248
 892              		.loc 1 398 8 is_stmt 0 view .LVU249
 893 0000 10B1     		cbz	r0, .L86
 399:Dsp/widget/wgt_core/UI_Controller.c ****         return false;
 400:Dsp/widget/wgt_core/UI_Controller.c **** 
 401:Dsp/widget/wgt_core/UI_Controller.c ****     Obj->callback = callback;
 894              		.loc 1 401 5 is_stmt 1 view .LVU250
 895              		.loc 1 401 19 is_stmt 0 view .LVU251
 896 0002 C160     		str	r1, [r0, #12]	@ unaligned
 402:Dsp/widget/wgt_core/UI_Controller.c **** 
 403:Dsp/widget/wgt_core/UI_Controller.c ****     return true;
 897              		.loc 1 403 5 is_stmt 1 view .LVU252
 898              		.loc 1 403 12 is_stmt 0 view .LVU253
ARM GAS  /var/folders/lx/hc4sn_b53233_zkc9xbbl97r0000gp/T//ccKzY9YJ.s 			page 25


 899 0004 0120     		movs	r0, #1
 900              	.LVL75:
 901              		.loc 1 403 12 view .LVU254
 902 0006 7047     		bx	lr
 903              	.LVL76:
 904              	.L86:
 399:Dsp/widget/wgt_core/UI_Controller.c ****         return false;
 905              		.loc 1 399 16 view .LVU255
 906 0008 0020     		movs	r0, #0
 907              	.LVL77:
 404:Dsp/widget/wgt_core/UI_Controller.c **** }
 908              		.loc 1 404 1 view .LVU256
 909 000a 7047     		bx	lr
 910              		.cfi_endproc
 911              	.LFE13:
 913              		.section	.text.UI_CheckBox_Move,"ax",%progbits
 914              		.align	1
 915              		.syntax unified
 916              		.thumb
 917              		.thumb_func
 918              		.fpu fpv4-sp-d16
 920              	UI_CheckBox_Move:
 921              	.LVL78:
 922              	.LFB14:
 405:Dsp/widget/wgt_core/UI_Controller.c **** 
 406:Dsp/widget/wgt_core/UI_Controller.c **** static bool UI_CheckBox_Move(UI_CheckBoxObj_TypeDef *Obj, int16_t x, int16_t y)
 407:Dsp/widget/wgt_core/UI_Controller.c **** {
 923              		.loc 1 407 1 is_stmt 1 view -0
 924              		.cfi_startproc
 925              		@ args = 0, pretend = 0, frame = 0
 926              		@ frame_needed = 0, uses_anonymous_args = 0
 408:Dsp/widget/wgt_core/UI_Controller.c ****     if (Obj == NULL)
 927              		.loc 1 408 5 view .LVU258
 928              		.loc 1 408 8 is_stmt 0 view .LVU259
 929 0000 18B1     		cbz	r0, .L89
 407:Dsp/widget/wgt_core/UI_Controller.c ****     if (Obj == NULL)
 930              		.loc 1 407 1 view .LVU260
 931 0002 08B5     		push	{r3, lr}
 932              	.LCFI17:
 933              		.cfi_def_cfa_offset 8
 934              		.cfi_offset 3, -8
 935              		.cfi_offset 14, -4
 409:Dsp/widget/wgt_core/UI_Controller.c ****         return false;
 410:Dsp/widget/wgt_core/UI_Controller.c **** 
 411:Dsp/widget/wgt_core/UI_Controller.c ****     return UI_Move(&(Obj->Gen_Data), x, y);
 936              		.loc 1 411 5 is_stmt 1 view .LVU261
 937              		.loc 1 411 12 is_stmt 0 view .LVU262
 938 0004 FFF7FEFF 		bl	UI_Move
 939              	.LVL79:
 412:Dsp/widget/wgt_core/UI_Controller.c **** }
 940              		.loc 1 412 1 view .LVU263
 941 0008 08BD     		pop	{r3, pc}
 942              	.LVL80:
 943              	.L89:
 944              	.LCFI18:
 945              		.cfi_def_cfa_offset 0
 946              		.cfi_restore 3
ARM GAS  /var/folders/lx/hc4sn_b53233_zkc9xbbl97r0000gp/T//ccKzY9YJ.s 			page 26


 947              		.cfi_restore 14
 409:Dsp/widget/wgt_core/UI_Controller.c ****         return false;
 948              		.loc 1 409 16 view .LVU264
 949 000a 0020     		movs	r0, #0
 950              	.LVL81:
 951              		.loc 1 412 1 view .LVU265
 952 000c 7047     		bx	lr
 953              		.cfi_endproc
 954              	.LFE14:
 956              		.section	.text.UI_CheckBox_Trigger,"ax",%progbits
 957              		.align	1
 958              		.syntax unified
 959              		.thumb
 960              		.thumb_func
 961              		.fpu fpv4-sp-d16
 963              	UI_CheckBox_Trigger:
 964              	.LVL82:
 965              	.LFB15:
 413:Dsp/widget/wgt_core/UI_Controller.c **** 
 414:Dsp/widget/wgt_core/UI_Controller.c **** static bool UI_CheckBox_Trigger(UI_CheckBoxObj_TypeDef *Obj)
 415:Dsp/widget/wgt_core/UI_Controller.c **** {
 966              		.loc 1 415 1 is_stmt 1 view -0
 967              		.cfi_startproc
 968              		@ args = 0, pretend = 0, frame = 0
 969              		@ frame_needed = 0, uses_anonymous_args = 0
 416:Dsp/widget/wgt_core/UI_Controller.c ****     if (Obj == NULL)
 970              		.loc 1 416 5 view .LVU267
 971              		.loc 1 416 8 is_stmt 0 view .LVU268
 972 0000 50B1     		cbz	r0, .L96
 415:Dsp/widget/wgt_core/UI_Controller.c ****     if (Obj == NULL)
 973              		.loc 1 415 1 view .LVU269
 974 0002 08B5     		push	{r3, lr}
 975              	.LCFI19:
 976              		.cfi_def_cfa_offset 8
 977              		.cfi_offset 3, -8
 978              		.cfi_offset 14, -4
 979 0004 0346     		mov	r3, r0
 417:Dsp/widget/wgt_core/UI_Controller.c ****         return false;
 418:Dsp/widget/wgt_core/UI_Controller.c **** 
 419:Dsp/widget/wgt_core/UI_Controller.c ****     Obj->checked = !Obj->checked;
 980              		.loc 1 419 5 is_stmt 1 view .LVU270
 981              		.loc 1 419 24 is_stmt 0 view .LVU271
 982 0006 007C     		ldrb	r0, [r0, #16]	@ zero_extendqisi2
 983              	.LVL83:
 984              		.loc 1 419 5 view .LVU272
 985 0008 80F00100 		eor	r0, r0, #1
 986              		.loc 1 419 18 view .LVU273
 987 000c 1874     		strb	r0, [r3, #16]
 420:Dsp/widget/wgt_core/UI_Controller.c **** 
 421:Dsp/widget/wgt_core/UI_Controller.c ****     if (Obj->callback)
 988              		.loc 1 421 5 is_stmt 1 view .LVU274
 989              		.loc 1 421 12 is_stmt 0 view .LVU275
 990 000e DB68     		ldr	r3, [r3, #12]	@ unaligned
 991              	.LVL84:
 992              		.loc 1 421 8 view .LVU276
 993 0010 23B1     		cbz	r3, .L97
 422:Dsp/widget/wgt_core/UI_Controller.c ****         Obj->callback(Obj->checked);
ARM GAS  /var/folders/lx/hc4sn_b53233_zkc9xbbl97r0000gp/T//ccKzY9YJ.s 			page 27


 994              		.loc 1 422 9 is_stmt 1 view .LVU277
 995 0012 9847     		blx	r3
 996              	.LVL85:
 423:Dsp/widget/wgt_core/UI_Controller.c **** 
 424:Dsp/widget/wgt_core/UI_Controller.c ****     return true;
 997              		.loc 1 424 12 is_stmt 0 view .LVU278
 998 0014 0120     		movs	r0, #1
 999              	.L95:
 425:Dsp/widget/wgt_core/UI_Controller.c **** }
 1000              		.loc 1 425 1 view .LVU279
 1001 0016 08BD     		pop	{r3, pc}
 1002              	.LVL86:
 1003              	.L96:
 1004              	.LCFI20:
 1005              		.cfi_def_cfa_offset 0
 1006              		.cfi_restore 3
 1007              		.cfi_restore 14
 417:Dsp/widget/wgt_core/UI_Controller.c **** 
 1008              		.loc 1 417 16 view .LVU280
 1009 0018 0020     		movs	r0, #0
 1010              	.LVL87:
 1011              		.loc 1 425 1 view .LVU281
 1012 001a 7047     		bx	lr
 1013              	.L97:
 1014              	.LCFI21:
 1015              		.cfi_def_cfa_offset 8
 1016              		.cfi_offset 3, -8
 1017              		.cfi_offset 14, -4
 424:Dsp/widget/wgt_core/UI_Controller.c **** }
 1018              		.loc 1 424 12 view .LVU282
 1019 001c 0120     		movs	r0, #1
 1020 001e FAE7     		b	.L95
 1021              		.cfi_endproc
 1022              	.LFE15:
 1024              		.section	.text.UI_SlideBar_Init,"ax",%progbits
 1025              		.align	1
 1026              		.syntax unified
 1027              		.thumb
 1028              		.thumb_func
 1029              		.fpu fpv4-sp-d16
 1031              	UI_SlideBar_Init:
 1032              	.LVL88:
 1033              	.LFB17:
 426:Dsp/widget/wgt_core/UI_Controller.c **** 
 427:Dsp/widget/wgt_core/UI_Controller.c **** static bool UI_CheckBox_Ctl(UI_CheckBoxObj_TypeDef *Obj)
 428:Dsp/widget/wgt_core/UI_Controller.c **** {
 429:Dsp/widget/wgt_core/UI_Controller.c ****     uint16_t StrDsp_x = 0;
 430:Dsp/widget/wgt_core/UI_Controller.c ****     int16_t frame_y = 0;
 431:Dsp/widget/wgt_core/UI_Controller.c **** 
 432:Dsp/widget/wgt_core/UI_Controller.c ****     if ((Obj == NULL) ||
 433:Dsp/widget/wgt_core/UI_Controller.c ****         (UI_DspInterface.draw_str == NULL) ||
 434:Dsp/widget/wgt_core/UI_Controller.c ****         (UI_DspInterface.fill_rectangle == NULL) ||
 435:Dsp/widget/wgt_core/UI_Controller.c ****         (UI_DspInterface.draw_rectangle == NULL))
 436:Dsp/widget/wgt_core/UI_Controller.c ****         return false;
 437:Dsp/widget/wgt_core/UI_Controller.c **** 
 438:Dsp/widget/wgt_core/UI_Controller.c ****     StrDsp_x = strlen(Obj->Gen_Data.label) * FONT_WIDTH;
 439:Dsp/widget/wgt_core/UI_Controller.c ****     frame_y = Obj->Gen_Data.y + 3;
ARM GAS  /var/folders/lx/hc4sn_b53233_zkc9xbbl97r0000gp/T//ccKzY9YJ.s 			page 28


 440:Dsp/widget/wgt_core/UI_Controller.c ****     StrDsp_x += DEFAULT_CHECKBOX_OFFSET;
 441:Dsp/widget/wgt_core/UI_Controller.c **** 
 442:Dsp/widget/wgt_core/UI_Controller.c ****     UI_DspInterface.draw_str(Default_Font, Obj->Gen_Data.label, Obj->Gen_Data.x + 3, Obj->Gen_Data.
 443:Dsp/widget/wgt_core/UI_Controller.c ****     UI_DspInterface.draw_rectangle(StrDsp_x, frame_y, DEFAULT_CHECKBOX_FRAME_SIZE, DEFAULT_CHECKBOX
 444:Dsp/widget/wgt_core/UI_Controller.c **** 
 445:Dsp/widget/wgt_core/UI_Controller.c ****     if (Obj->checked)
 446:Dsp/widget/wgt_core/UI_Controller.c ****         UI_DspInterface.fill_rectangle(StrDsp_x + 2, frame_y + 2, DEFAULT_CHECKBOX_FILLFRAME, DEFAU
 447:Dsp/widget/wgt_core/UI_Controller.c **** 
 448:Dsp/widget/wgt_core/UI_Controller.c ****     return true;
 449:Dsp/widget/wgt_core/UI_Controller.c **** }
 450:Dsp/widget/wgt_core/UI_Controller.c **** 
 451:Dsp/widget/wgt_core/UI_Controller.c **** static bool UI_SlideBar_Init(UI_SlideBarObj_TypeDef *Obj, UI_SliderBar_Mode_List mode, char *label,
 452:Dsp/widget/wgt_core/UI_Controller.c **** {
 1034              		.loc 1 452 1 is_stmt 1 view -0
 1035              		.cfi_startproc
 1036              		@ args = 20, pretend = 0, frame = 0
 1037              		@ frame_needed = 0, uses_anonymous_args = 0
 1038              		.loc 1 452 1 is_stmt 0 view .LVU284
 1039 0000 2DE9F843 		push	{r3, r4, r5, r6, r7, r8, r9, lr}
 1040              	.LCFI22:
 1041              		.cfi_def_cfa_offset 32
 1042              		.cfi_offset 3, -32
 1043              		.cfi_offset 4, -28
 1044              		.cfi_offset 5, -24
 1045              		.cfi_offset 6, -20
 1046              		.cfi_offset 7, -16
 1047              		.cfi_offset 8, -12
 1048              		.cfi_offset 9, -8
 1049              		.cfi_offset 14, -4
 1050 0004 BDF92440 		ldrsh	r4, [sp, #36]
 1051 0008 BDF92850 		ldrsh	r5, [sp, #40]
 1052 000c BDF92C60 		ldrsh	r6, [sp, #44]
 1053 0010 BDF93080 		ldrsh	r8, [sp, #48]
 453:Dsp/widget/wgt_core/UI_Controller.c ****     if ((Obj == NULL) ||
 1054              		.loc 1 453 5 is_stmt 1 view .LVU285
 1055              		.loc 1 453 8 is_stmt 0 view .LVU286
 1056 0014 0028     		cmp	r0, #0
 1057 0016 49D0     		beq	.L104
 1058 0018 9446     		mov	ip, r2
 1059 001a 1A46     		mov	r2, r3
 1060              	.LVL89:
 1061              		.loc 1 453 8 view .LVU287
 1062 001c 0746     		mov	r7, r0
 1063              		.loc 1 453 23 discriminator 1 view .LVU288
 1064 001e AC42     		cmp	r4, r5
 1065 0020 46DD     		ble	.L105
 454:Dsp/widget/wgt_core/UI_Controller.c ****         (limit_max <= limit_min) ||
 1066              		.loc 1 454 34 view .LVU289
 1067 0022 B542     		cmp	r5, r6
 1068 0024 47DC     		bgt	.L106
 455:Dsp/widget/wgt_core/UI_Controller.c ****         (start_val < limit_min) ||
 1069              		.loc 1 455 33 view .LVU290
 1070 0026 B442     		cmp	r4, r6
 1071 0028 47DB     		blt	.L107
 456:Dsp/widget/wgt_core/UI_Controller.c ****         (start_val > limit_max) ||
 1072              		.loc 1 456 33 view .LVU291
 1073 002a 0129     		cmp	r1, #1
ARM GAS  /var/folders/lx/hc4sn_b53233_zkc9xbbl97r0000gp/T//ccKzY9YJ.s 			page 29


 1074 002c 01D9     		bls	.L110
 457:Dsp/widget/wgt_core/UI_Controller.c ****         (mode > SliderBar_Vertical_Mode))
 458:Dsp/widget/wgt_core/UI_Controller.c ****         return false;
 1075              		.loc 1 458 16 view .LVU292
 1076 002e 0020     		movs	r0, #0
 1077              	.LVL90:
 1078              		.loc 1 458 16 view .LVU293
 1079 0030 3FE0     		b	.L103
 1080              	.LVL91:
 1081              	.L110:
 459:Dsp/widget/wgt_core/UI_Controller.c **** 
 460:Dsp/widget/wgt_core/UI_Controller.c ****     Obj->mode = mode;
 1082              		.loc 1 460 5 is_stmt 1 view .LVU294
 1083              		.loc 1 460 15 is_stmt 0 view .LVU295
 1084 0032 0173     		strb	r1, [r0, #12]
 461:Dsp/widget/wgt_core/UI_Controller.c ****     Obj->is_selected = false;
 1085              		.loc 1 461 5 is_stmt 1 view .LVU296
 1086              		.loc 1 461 22 is_stmt 0 view .LVU297
 1087 0034 4FF00009 		mov	r9, #0
 1088 0038 80F82390 		strb	r9, [r0, #35]
 462:Dsp/widget/wgt_core/UI_Controller.c **** 
 463:Dsp/widget/wgt_core/UI_Controller.c ****     UI_GenData_Init(&(Obj->Gen_Data), label, x, y);
 1089              		.loc 1 463 5 is_stmt 1 view .LVU298
 1090 003c BDF92030 		ldrsh	r3, [sp, #32]
 1091              	.LVL92:
 1092              		.loc 1 463 5 is_stmt 0 view .LVU299
 1093 0040 6146     		mov	r1, ip
 1094              	.LVL93:
 1095              		.loc 1 463 5 view .LVU300
 1096 0042 FFF7FEFF 		bl	UI_GenData_Init
 1097              	.LVL94:
 464:Dsp/widget/wgt_core/UI_Controller.c **** 
 465:Dsp/widget/wgt_core/UI_Controller.c ****     Obj->limit_max = limit_max;
 1098              		.loc 1 465 5 is_stmt 1 view .LVU301
 1099              		.loc 1 465 20 is_stmt 0 view .LVU302
 1100 0046 07EE904A 		vmov	s15, r4	@ int
 1101 004a F8EEE77A 		vcvt.f32.s32	s15, s15
 1102 004e 17EE903A 		vmov	r3, s15
 1103 0052 C7F81530 		str	r3, [r7, #21]	@ unaligned
 466:Dsp/widget/wgt_core/UI_Controller.c ****     Obj->limit_min = limit_min;
 1104              		.loc 1 466 5 is_stmt 1 view .LVU303
 1105              		.loc 1 466 20 is_stmt 0 view .LVU304
 1106 0056 07EE905A 		vmov	s15, r5	@ int
 1107 005a F8EEE77A 		vcvt.f32.s32	s15, s15
 1108 005e 17EE903A 		vmov	r3, s15
 1109 0062 C7F81130 		str	r3, [r7, #17]	@ unaligned
 467:Dsp/widget/wgt_core/UI_Controller.c **** 
 468:Dsp/widget/wgt_core/UI_Controller.c ****     Obj->step_len = step_len;
 1110              		.loc 1 468 5 is_stmt 1 view .LVU305
 1111              		.loc 1 468 19 is_stmt 0 view .LVU306
 1112 0066 A7F81D80 		strh	r8, [r7, #29]	@ unaligned
 469:Dsp/widget/wgt_core/UI_Controller.c ****     Obj->scale = (limit_max - limit_min) / (float)step_len;
 1113              		.loc 1 469 5 is_stmt 1 view .LVU307
 1114              		.loc 1 469 29 is_stmt 0 view .LVU308
 1115 006a 641B     		subs	r4, r4, r5
 1116              		.loc 1 469 44 view .LVU309
 1117 006c 07EE908A 		vmov	s15, r8	@ int
ARM GAS  /var/folders/lx/hc4sn_b53233_zkc9xbbl97r0000gp/T//ccKzY9YJ.s 			page 30


 1118 0070 B8EEE77A 		vcvt.f32.s32	s14, s15
 1119              		.loc 1 469 42 view .LVU310
 1120 0074 07EE904A 		vmov	s15, r4	@ int
 1121 0078 F8EEE77A 		vcvt.f32.s32	s15, s15
 1122              		.loc 1 469 16 view .LVU311
 1123 007c C7EE877A 		vdiv.f32	s15, s15, s14
 1124 0080 17EE903A 		vmov	r3, s15
 1125 0084 C7F81930 		str	r3, [r7, #25]	@ unaligned
 470:Dsp/widget/wgt_core/UI_Controller.c ****     Obj->cur_val = start_val;
 1126              		.loc 1 470 5 is_stmt 1 view .LVU312
 1127              		.loc 1 470 18 is_stmt 0 view .LVU313
 1128 0088 07EE906A 		vmov	s15, r6	@ int
 1129 008c F8EEE77A 		vcvt.f32.s32	s15, s15
 1130 0090 17EE906A 		vmov	r6, s15
 1131 0094 C7F81F60 		str	r6, [r7, #31]	@ unaligned
 471:Dsp/widget/wgt_core/UI_Controller.c **** 
 472:Dsp/widget/wgt_core/UI_Controller.c ****     Obj->BarCoord_X = 0;
 1132              		.loc 1 472 5 is_stmt 1 view .LVU314
 1133              		.loc 1 472 21 is_stmt 0 view .LVU315
 1134 0098 87F82490 		strb	r9, [r7, #36]
 1135 009c 87F82590 		strb	r9, [r7, #37]
 473:Dsp/widget/wgt_core/UI_Controller.c ****     Obj->BarCoord_Y = 0;
 1136              		.loc 1 473 5 is_stmt 1 view .LVU316
 1137              		.loc 1 473 21 is_stmt 0 view .LVU317
 1138 00a0 87F82690 		strb	r9, [r7, #38]
 1139 00a4 87F82790 		strb	r9, [r7, #39]
 474:Dsp/widget/wgt_core/UI_Controller.c **** 
 475:Dsp/widget/wgt_core/UI_Controller.c ****     return true;
 1140              		.loc 1 475 5 is_stmt 1 view .LVU318
 1141              		.loc 1 475 12 is_stmt 0 view .LVU319
 1142 00a8 0120     		movs	r0, #1
 1143 00aa 02E0     		b	.L103
 1144              	.LVL95:
 1145              	.L104:
 458:Dsp/widget/wgt_core/UI_Controller.c **** 
 1146              		.loc 1 458 16 view .LVU320
 1147 00ac 0020     		movs	r0, #0
 1148              	.LVL96:
 458:Dsp/widget/wgt_core/UI_Controller.c **** 
 1149              		.loc 1 458 16 view .LVU321
 1150 00ae 00E0     		b	.L103
 1151              	.LVL97:
 1152              	.L105:
 458:Dsp/widget/wgt_core/UI_Controller.c **** 
 1153              		.loc 1 458 16 view .LVU322
 1154 00b0 0020     		movs	r0, #0
 1155              	.LVL98:
 1156              	.L103:
 476:Dsp/widget/wgt_core/UI_Controller.c **** }
 1157              		.loc 1 476 1 view .LVU323
 1158 00b2 BDE8F883 		pop	{r3, r4, r5, r6, r7, r8, r9, pc}
 1159              	.LVL99:
 1160              	.L106:
 458:Dsp/widget/wgt_core/UI_Controller.c **** 
 1161              		.loc 1 458 16 view .LVU324
 1162 00b6 0020     		movs	r0, #0
 1163              	.LVL100:
ARM GAS  /var/folders/lx/hc4sn_b53233_zkc9xbbl97r0000gp/T//ccKzY9YJ.s 			page 31


 458:Dsp/widget/wgt_core/UI_Controller.c **** 
 1164              		.loc 1 458 16 view .LVU325
 1165 00b8 FBE7     		b	.L103
 1166              	.LVL101:
 1167              	.L107:
 458:Dsp/widget/wgt_core/UI_Controller.c **** 
 1168              		.loc 1 458 16 view .LVU326
 1169 00ba 0020     		movs	r0, #0
 1170              	.LVL102:
 458:Dsp/widget/wgt_core/UI_Controller.c **** 
 1171              		.loc 1 458 16 view .LVU327
 1172 00bc F9E7     		b	.L103
 1173              		.cfi_endproc
 1174              	.LFE17:
 1176              		.section	.text.UI_SlideBar_Move,"ax",%progbits
 1177              		.align	1
 1178              		.syntax unified
 1179              		.thumb
 1180              		.thumb_func
 1181              		.fpu fpv4-sp-d16
 1183              	UI_SlideBar_Move:
 1184              	.LVL103:
 1185              	.LFB18:
 477:Dsp/widget/wgt_core/UI_Controller.c **** 
 478:Dsp/widget/wgt_core/UI_Controller.c **** static bool UI_SlideBar_Move(UI_SlideBarObj_TypeDef *Obj, int16_t x, int16_t y)
 479:Dsp/widget/wgt_core/UI_Controller.c **** {
 1186              		.loc 1 479 1 is_stmt 1 view -0
 1187              		.cfi_startproc
 1188              		@ args = 0, pretend = 0, frame = 0
 1189              		@ frame_needed = 0, uses_anonymous_args = 0
 480:Dsp/widget/wgt_core/UI_Controller.c ****     if (Obj == NULL)
 1190              		.loc 1 480 5 view .LVU329
 1191              		.loc 1 480 8 is_stmt 0 view .LVU330
 1192 0000 18B1     		cbz	r0, .L113
 479:Dsp/widget/wgt_core/UI_Controller.c ****     if (Obj == NULL)
 1193              		.loc 1 479 1 view .LVU331
 1194 0002 08B5     		push	{r3, lr}
 1195              	.LCFI23:
 1196              		.cfi_def_cfa_offset 8
 1197              		.cfi_offset 3, -8
 1198              		.cfi_offset 14, -4
 481:Dsp/widget/wgt_core/UI_Controller.c ****         return false;
 482:Dsp/widget/wgt_core/UI_Controller.c **** 
 483:Dsp/widget/wgt_core/UI_Controller.c ****     return UI_Move(&(Obj->Gen_Data), x, y);
 1199              		.loc 1 483 5 is_stmt 1 view .LVU332
 1200              		.loc 1 483 12 is_stmt 0 view .LVU333
 1201 0004 FFF7FEFF 		bl	UI_Move
 1202              	.LVL104:
 484:Dsp/widget/wgt_core/UI_Controller.c **** }
 1203              		.loc 1 484 1 view .LVU334
 1204 0008 08BD     		pop	{r3, pc}
 1205              	.LVL105:
 1206              	.L113:
 1207              	.LCFI24:
 1208              		.cfi_def_cfa_offset 0
 1209              		.cfi_restore 3
 1210              		.cfi_restore 14
ARM GAS  /var/folders/lx/hc4sn_b53233_zkc9xbbl97r0000gp/T//ccKzY9YJ.s 			page 32


 481:Dsp/widget/wgt_core/UI_Controller.c ****         return false;
 1211              		.loc 1 481 16 view .LVU335
 1212 000a 0020     		movs	r0, #0
 1213              	.LVL106:
 1214              		.loc 1 484 1 view .LVU336
 1215 000c 7047     		bx	lr
 1216              		.cfi_endproc
 1217              	.LFE18:
 1219              		.section	.text.UI_SlideBar_SetCallBack,"ax",%progbits
 1220              		.align	1
 1221              		.syntax unified
 1222              		.thumb
 1223              		.thumb_func
 1224              		.fpu fpv4-sp-d16
 1226              	UI_SlideBar_SetCallBack:
 1227              	.LVL107:
 1228              	.LFB19:
 485:Dsp/widget/wgt_core/UI_Controller.c **** 
 486:Dsp/widget/wgt_core/UI_Controller.c **** static bool UI_SlideBar_SetCallBack(UI_SlideBarObj_TypeDef *Obj, UI_SliderBarTrigger_Callback callb
 487:Dsp/widget/wgt_core/UI_Controller.c **** {
 1229              		.loc 1 487 1 is_stmt 1 view -0
 1230              		.cfi_startproc
 1231              		@ args = 0, pretend = 0, frame = 0
 1232              		@ frame_needed = 0, uses_anonymous_args = 0
 1233              		@ link register save eliminated.
 488:Dsp/widget/wgt_core/UI_Controller.c ****     if (Obj == NULL)
 1234              		.loc 1 488 5 view .LVU338
 1235              		.loc 1 488 8 is_stmt 0 view .LVU339
 1236 0000 18B1     		cbz	r0, .L120
 489:Dsp/widget/wgt_core/UI_Controller.c ****         return false;
 490:Dsp/widget/wgt_core/UI_Controller.c **** 
 491:Dsp/widget/wgt_core/UI_Controller.c ****     Obj->callback = callback;
 1237              		.loc 1 491 5 is_stmt 1 view .LVU340
 1238              		.loc 1 491 19 is_stmt 0 view .LVU341
 1239 0002 C0F80D10 		str	r1, [r0, #13]	@ unaligned
 492:Dsp/widget/wgt_core/UI_Controller.c **** 
 493:Dsp/widget/wgt_core/UI_Controller.c ****     return true;
 1240              		.loc 1 493 5 is_stmt 1 view .LVU342
 1241              		.loc 1 493 12 is_stmt 0 view .LVU343
 1242 0006 0120     		movs	r0, #1
 1243              	.LVL108:
 1244              		.loc 1 493 12 view .LVU344
 1245 0008 7047     		bx	lr
 1246              	.LVL109:
 1247              	.L120:
 489:Dsp/widget/wgt_core/UI_Controller.c ****         return false;
 1248              		.loc 1 489 16 view .LVU345
 1249 000a 0020     		movs	r0, #0
 1250              	.LVL110:
 494:Dsp/widget/wgt_core/UI_Controller.c **** }
 1251              		.loc 1 494 1 view .LVU346
 1252 000c 7047     		bx	lr
 1253              		.cfi_endproc
 1254              	.LFE19:
 1256              		.section	.text.UI_SlideBar_Input,"ax",%progbits
 1257              		.align	1
 1258              		.syntax unified
ARM GAS  /var/folders/lx/hc4sn_b53233_zkc9xbbl97r0000gp/T//ccKzY9YJ.s 			page 33


 1259              		.thumb
 1260              		.thumb_func
 1261              		.fpu fpv4-sp-d16
 1263              	UI_SlideBar_Input:
 1264              	.LVL111:
 1265              	.LFB20:
 495:Dsp/widget/wgt_core/UI_Controller.c **** 
 496:Dsp/widget/wgt_core/UI_Controller.c **** static bool UI_SlideBar_Input(UI_SlideBarObj_TypeDef *Obj, int16_t *step)
 497:Dsp/widget/wgt_core/UI_Controller.c **** {
 1266              		.loc 1 497 1 is_stmt 1 view -0
 1267              		.cfi_startproc
 1268              		@ args = 0, pretend = 0, frame = 0
 1269              		@ frame_needed = 0, uses_anonymous_args = 0
 1270              		@ link register save eliminated.
 498:Dsp/widget/wgt_core/UI_Controller.c ****     float val_tmp = 0;
 1271              		.loc 1 498 5 view .LVU348
 499:Dsp/widget/wgt_core/UI_Controller.c **** 
 500:Dsp/widget/wgt_core/UI_Controller.c ****     if ((Obj == NULL) || (step == NULL))
 1272              		.loc 1 500 5 view .LVU349
 1273              		.loc 1 500 8 is_stmt 0 view .LVU350
 1274 0000 0346     		mov	r3, r0
 1275 0002 90B3     		cbz	r0, .L128
 1276              		.loc 1 500 23 discriminator 1 view .LVU351
 1277 0004 99B3     		cbz	r1, .L129
 501:Dsp/widget/wgt_core/UI_Controller.c ****         return false;
 502:Dsp/widget/wgt_core/UI_Controller.c **** 
 503:Dsp/widget/wgt_core/UI_Controller.c ****     val_tmp = Obj->cur_val + ((*step) * Obj->scale);
 1278              		.loc 1 503 5 is_stmt 1 view .LVU352
 1279              		.loc 1 503 18 is_stmt 0 view .LVU353
 1280 0006 D0F81F20 		ldr	r2, [r0, #31]	@ unaligned
 1281              		.loc 1 503 32 view .LVU354
 1282 000a B1F90000 		ldrsh	r0, [r1]
 1283              	.LVL112:
 1284              		.loc 1 503 32 view .LVU355
 1285 000e 07EE900A 		vmov	s15, r0	@ int
 1286              		.loc 1 503 44 view .LVU356
 1287 0012 D3F81900 		ldr	r0, [r3, #25]	@ unaligned
 1288              		.loc 1 503 39 view .LVU357
 1289 0016 B8EEE77A 		vcvt.f32.s32	s14, s15
 1290 001a 07EE900A 		vmov	s15, r0
 1291 001e 67EE277A 		vmul.f32	s15, s14, s15
 1292              		.loc 1 503 13 view .LVU358
 1293 0022 07EE102A 		vmov	s14, r2
 1294 0026 77EE277A 		vadd.f32	s15, s14, s15
 1295              	.LVL113:
 504:Dsp/widget/wgt_core/UI_Controller.c **** 
 505:Dsp/widget/wgt_core/UI_Controller.c ****     if (val_tmp >= Obj->limit_max)
 1296              		.loc 1 505 5 is_stmt 1 view .LVU359
 1297              		.loc 1 505 23 is_stmt 0 view .LVU360
 1298 002a D3F81520 		ldr	r2, [r3, #21]	@ unaligned
 1299              		.loc 1 505 8 view .LVU361
 1300 002e 07EE102A 		vmov	s14, r2
 1301 0032 B4EEE77A 		vcmpe.f32	s14, s15
 1302 0036 F1EE10FA 		vmrs	APSR_nzcv, FPSCR
 1303 003a 05D8     		bhi	.L132
 506:Dsp/widget/wgt_core/UI_Controller.c ****     {
 507:Dsp/widget/wgt_core/UI_Controller.c ****         Obj->cur_val = Obj->limit_max;
ARM GAS  /var/folders/lx/hc4sn_b53233_zkc9xbbl97r0000gp/T//ccKzY9YJ.s 			page 34


 1304              		.loc 1 507 9 is_stmt 1 view .LVU362
 1305              		.loc 1 507 22 is_stmt 0 view .LVU363
 1306 003c C3F81F20 		str	r2, [r3, #31]	@ unaligned
 1307              	.L125:
 508:Dsp/widget/wgt_core/UI_Controller.c ****     }
 509:Dsp/widget/wgt_core/UI_Controller.c ****     else if (val_tmp <= Obj->limit_min)
 510:Dsp/widget/wgt_core/UI_Controller.c ****     {
 511:Dsp/widget/wgt_core/UI_Controller.c ****         Obj->cur_val = Obj->limit_min;
 512:Dsp/widget/wgt_core/UI_Controller.c ****     }
 513:Dsp/widget/wgt_core/UI_Controller.c ****     else
 514:Dsp/widget/wgt_core/UI_Controller.c ****         Obj->cur_val = val_tmp;
 515:Dsp/widget/wgt_core/UI_Controller.c **** 
 516:Dsp/widget/wgt_core/UI_Controller.c ****     (*step) = 0;
 1308              		.loc 1 516 5 is_stmt 1 view .LVU364
 1309              		.loc 1 516 13 is_stmt 0 view .LVU365
 1310 0040 0023     		movs	r3, #0
 1311              	.LVL114:
 1312              		.loc 1 516 13 view .LVU366
 1313 0042 0B80     		strh	r3, [r1]	@ movhi
 517:Dsp/widget/wgt_core/UI_Controller.c **** 
 518:Dsp/widget/wgt_core/UI_Controller.c ****     return true;
 1314              		.loc 1 518 5 is_stmt 1 view .LVU367
 1315              		.loc 1 518 12 is_stmt 0 view .LVU368
 1316 0044 0120     		movs	r0, #1
 1317 0046 7047     		bx	lr
 1318              	.LVL115:
 1319              	.L132:
 509:Dsp/widget/wgt_core/UI_Controller.c ****     {
 1320              		.loc 1 509 10 is_stmt 1 view .LVU369
 509:Dsp/widget/wgt_core/UI_Controller.c ****     {
 1321              		.loc 1 509 28 is_stmt 0 view .LVU370
 1322 0048 D3F81120 		ldr	r2, [r3, #17]	@ unaligned
 509:Dsp/widget/wgt_core/UI_Controller.c ****     {
 1323              		.loc 1 509 13 view .LVU371
 1324 004c 07EE102A 		vmov	s14, r2
 1325 0050 B4EEE77A 		vcmpe.f32	s14, s15
 1326 0054 F1EE10FA 		vmrs	APSR_nzcv, FPSCR
 1327 0058 02DB     		blt	.L133
 511:Dsp/widget/wgt_core/UI_Controller.c ****     }
 1328              		.loc 1 511 9 is_stmt 1 view .LVU372
 511:Dsp/widget/wgt_core/UI_Controller.c ****     }
 1329              		.loc 1 511 22 is_stmt 0 view .LVU373
 1330 005a C3F81F20 		str	r2, [r3, #31]	@ unaligned
 1331 005e EFE7     		b	.L125
 1332              	.L133:
 514:Dsp/widget/wgt_core/UI_Controller.c **** 
 1333              		.loc 1 514 9 is_stmt 1 view .LVU374
 514:Dsp/widget/wgt_core/UI_Controller.c **** 
 1334              		.loc 1 514 22 is_stmt 0 view .LVU375
 1335 0060 17EE902A 		vmov	r2, s15
 1336 0064 C3F81F20 		str	r2, [r3, #31]	@ unaligned
 1337 0068 EAE7     		b	.L125
 1338              	.LVL116:
 1339              	.L128:
 501:Dsp/widget/wgt_core/UI_Controller.c **** 
 1340              		.loc 1 501 16 view .LVU376
 1341 006a 0020     		movs	r0, #0
ARM GAS  /var/folders/lx/hc4sn_b53233_zkc9xbbl97r0000gp/T//ccKzY9YJ.s 			page 35


 1342              	.LVL117:
 501:Dsp/widget/wgt_core/UI_Controller.c **** 
 1343              		.loc 1 501 16 view .LVU377
 1344 006c 7047     		bx	lr
 1345              	.LVL118:
 1346              	.L129:
 501:Dsp/widget/wgt_core/UI_Controller.c **** 
 1347              		.loc 1 501 16 view .LVU378
 1348 006e 0020     		movs	r0, #0
 1349              	.LVL119:
 519:Dsp/widget/wgt_core/UI_Controller.c **** }
 1350              		.loc 1 519 1 view .LVU379
 1351 0070 7047     		bx	lr
 1352              		.cfi_endproc
 1353              	.LFE20:
 1355              		.section	.text.UI_SlideBar_Trigger,"ax",%progbits
 1356              		.align	1
 1357              		.syntax unified
 1358              		.thumb
 1359              		.thumb_func
 1360              		.fpu fpv4-sp-d16
 1362              	UI_SlideBar_Trigger:
 1363              	.LVL120:
 1364              	.LFB21:
 520:Dsp/widget/wgt_core/UI_Controller.c **** 
 521:Dsp/widget/wgt_core/UI_Controller.c **** static bool UI_SlideBar_Trigger(UI_SlideBarObj_TypeDef *Obj)
 522:Dsp/widget/wgt_core/UI_Controller.c **** {
 1365              		.loc 1 522 1 is_stmt 1 view -0
 1366              		.cfi_startproc
 1367              		@ args = 0, pretend = 0, frame = 0
 1368              		@ frame_needed = 0, uses_anonymous_args = 0
 523:Dsp/widget/wgt_core/UI_Controller.c ****     if (Obj == NULL)
 1369              		.loc 1 523 5 view .LVU381
 1370              		.loc 1 523 8 is_stmt 0 view .LVU382
 1371 0000 78B1     		cbz	r0, .L136
 522:Dsp/widget/wgt_core/UI_Controller.c ****     if (Obj == NULL)
 1372              		.loc 1 522 1 view .LVU383
 1373 0002 08B5     		push	{r3, lr}
 1374              	.LCFI25:
 1375              		.cfi_def_cfa_offset 8
 1376              		.cfi_offset 3, -8
 1377              		.cfi_offset 14, -4
 524:Dsp/widget/wgt_core/UI_Controller.c ****         return false;
 525:Dsp/widget/wgt_core/UI_Controller.c **** 
 526:Dsp/widget/wgt_core/UI_Controller.c ****     if (Obj->callback != NULL)
 1378              		.loc 1 526 5 is_stmt 1 view .LVU384
 1379              		.loc 1 526 12 is_stmt 0 view .LVU385
 1380 0004 D0F80D20 		ldr	r2, [r0, #13]	@ unaligned
 1381              		.loc 1 526 8 view .LVU386
 1382 0008 6AB1     		cbz	r2, .L137
 527:Dsp/widget/wgt_core/UI_Controller.c ****         Obj->callback(Obj->cur_val);
 1383              		.loc 1 527 9 is_stmt 1 view .LVU387
 1384              		.loc 1 527 26 is_stmt 0 view .LVU388
 1385 000a D0F81F30 		ldr	r3, [r0, #31]	@ unaligned
 1386 000e 07EE903A 		vmov	s15, r3	@ int
 1387              		.loc 1 527 9 view .LVU389
 1388 0012 FDEEE77A 		vcvt.s32.f32	s15, s15
ARM GAS  /var/folders/lx/hc4sn_b53233_zkc9xbbl97r0000gp/T//ccKzY9YJ.s 			page 36


 1389 0016 17EE903A 		vmov	r3, s15	@ int
 1390 001a 18B2     		sxth	r0, r3
 1391              	.LVL121:
 1392              		.loc 1 527 9 view .LVU390
 1393 001c 9047     		blx	r2
 1394              	.LVL122:
 528:Dsp/widget/wgt_core/UI_Controller.c **** 
 529:Dsp/widget/wgt_core/UI_Controller.c ****     return true;
 1395              		.loc 1 529 12 view .LVU391
 1396 001e 0120     		movs	r0, #1
 1397              	.L135:
 530:Dsp/widget/wgt_core/UI_Controller.c **** }
 1398              		.loc 1 530 1 view .LVU392
 1399 0020 08BD     		pop	{r3, pc}
 1400              	.LVL123:
 1401              	.L136:
 1402              	.LCFI26:
 1403              		.cfi_def_cfa_offset 0
 1404              		.cfi_restore 3
 1405              		.cfi_restore 14
 524:Dsp/widget/wgt_core/UI_Controller.c **** 
 1406              		.loc 1 524 16 view .LVU393
 1407 0022 0020     		movs	r0, #0
 1408              	.LVL124:
 1409              		.loc 1 530 1 view .LVU394
 1410 0024 7047     		bx	lr
 1411              	.LVL125:
 1412              	.L137:
 1413              	.LCFI27:
 1414              		.cfi_def_cfa_offset 8
 1415              		.cfi_offset 3, -8
 1416              		.cfi_offset 14, -4
 529:Dsp/widget/wgt_core/UI_Controller.c **** }
 1417              		.loc 1 529 12 view .LVU395
 1418 0026 0120     		movs	r0, #1
 1419              	.LVL126:
 529:Dsp/widget/wgt_core/UI_Controller.c **** }
 1420              		.loc 1 529 12 view .LVU396
 1421 0028 FAE7     		b	.L135
 1422              		.cfi_endproc
 1423              	.LFE21:
 1425              		.section	.text.UI_SlideBar_SetSelect,"ax",%progbits
 1426              		.align	1
 1427              		.syntax unified
 1428              		.thumb
 1429              		.thumb_func
 1430              		.fpu fpv4-sp-d16
 1432              	UI_SlideBar_SetSelect:
 1433              	.LVL127:
 1434              	.LFB23:
 531:Dsp/widget/wgt_core/UI_Controller.c **** 
 532:Dsp/widget/wgt_core/UI_Controller.c **** static bool UI_SlideBar_CTL(UI_SlideBarObj_TypeDef *Obj)
 533:Dsp/widget/wgt_core/UI_Controller.c **** {
 534:Dsp/widget/wgt_core/UI_Controller.c ****     int16_t Block_CoordX = 0;
 535:Dsp/widget/wgt_core/UI_Controller.c ****     int16_t Block_CoordY = 0;
 536:Dsp/widget/wgt_core/UI_Controller.c ****     int16_t input_trip = 0;
 537:Dsp/widget/wgt_core/UI_Controller.c **** 
ARM GAS  /var/folders/lx/hc4sn_b53233_zkc9xbbl97r0000gp/T//ccKzY9YJ.s 			page 37


 538:Dsp/widget/wgt_core/UI_Controller.c ****     if ((Obj == NULL) ||
 539:Dsp/widget/wgt_core/UI_Controller.c ****         (UI_DspInterface.draw_str == NULL) ||
 540:Dsp/widget/wgt_core/UI_Controller.c ****         (UI_DspInterface.fill_rectangle == NULL))
 541:Dsp/widget/wgt_core/UI_Controller.c ****         return false;
 542:Dsp/widget/wgt_core/UI_Controller.c **** 
 543:Dsp/widget/wgt_core/UI_Controller.c ****     input_trip = Obj->limit_max - Obj->limit_min;
 544:Dsp/widget/wgt_core/UI_Controller.c **** 
 545:Dsp/widget/wgt_core/UI_Controller.c ****     UI_DspInterface.draw_str(Default_Font, Obj->Gen_Data.label, Obj->Gen_Data.x + 3, Obj->Gen_Data.
 546:Dsp/widget/wgt_core/UI_Controller.c **** 
 547:Dsp/widget/wgt_core/UI_Controller.c ****     if (Obj->mode == SliderBar_Horizon_Mode)
 548:Dsp/widget/wgt_core/UI_Controller.c ****     {
 549:Dsp/widget/wgt_core/UI_Controller.c ****         if (Obj->BarCoord_X == 0)
 550:Dsp/widget/wgt_core/UI_Controller.c ****         {
 551:Dsp/widget/wgt_core/UI_Controller.c ****             Obj->BarCoord_X = Obj->Gen_Data.x + strlen(Obj->Gen_Data.label) * FONT_WIDTH + DEFAULT_
 552:Dsp/widget/wgt_core/UI_Controller.c ****         }
 553:Dsp/widget/wgt_core/UI_Controller.c **** 
 554:Dsp/widget/wgt_core/UI_Controller.c ****         if (Obj->BarCoord_Y == 0)
 555:Dsp/widget/wgt_core/UI_Controller.c ****         {
 556:Dsp/widget/wgt_core/UI_Controller.c ****             Obj->BarCoord_Y = Obj->Gen_Data.y + 5;
 557:Dsp/widget/wgt_core/UI_Controller.c ****         }
 558:Dsp/widget/wgt_core/UI_Controller.c **** 
 559:Dsp/widget/wgt_core/UI_Controller.c ****         Block_CoordX = Obj->BarCoord_X;
 560:Dsp/widget/wgt_core/UI_Controller.c ****         Block_CoordX += (Obj->cur_val - Obj->limit_min) / ((float)(input_trip)) * (DEFAULT_SLIDERBA
 561:Dsp/widget/wgt_core/UI_Controller.c **** 
 562:Dsp/widget/wgt_core/UI_Controller.c ****         UI_DspInterface.fill_rectangle(Obj->BarCoord_X, Obj->BarCoord_Y, DEFAULT_SLIDERBAR_LEN, DEF
 563:Dsp/widget/wgt_core/UI_Controller.c **** 
 564:Dsp/widget/wgt_core/UI_Controller.c ****         Block_CoordY = Obj->Gen_Data.y + 3;
 565:Dsp/widget/wgt_core/UI_Controller.c ****         UI_DspInterface.fill_rectangle(Block_CoordX, Block_CoordY, DEFAULT_SLIDERBAR_BLOCK_WIDTH, D
 566:Dsp/widget/wgt_core/UI_Controller.c ****         UI_DspInterface.fill_rectangle(Block_CoordX, Block_CoordY + (DEFAULT_SLIDERBAR_BLOCK_HIGH /
 567:Dsp/widget/wgt_core/UI_Controller.c ****     }
 568:Dsp/widget/wgt_core/UI_Controller.c ****     else if (Obj->mode == SliderBar_Vertical_Mode)
 569:Dsp/widget/wgt_core/UI_Controller.c ****     {
 570:Dsp/widget/wgt_core/UI_Controller.c ****     }
 571:Dsp/widget/wgt_core/UI_Controller.c ****     else
 572:Dsp/widget/wgt_core/UI_Controller.c ****         return false;
 573:Dsp/widget/wgt_core/UI_Controller.c **** 
 574:Dsp/widget/wgt_core/UI_Controller.c ****     return true;
 575:Dsp/widget/wgt_core/UI_Controller.c **** }
 576:Dsp/widget/wgt_core/UI_Controller.c **** 
 577:Dsp/widget/wgt_core/UI_Controller.c **** static void UI_SlideBar_SetSelect(UI_SlideBarObj_TypeDef *Obj, bool select)
 578:Dsp/widget/wgt_core/UI_Controller.c **** {
 1435              		.loc 1 578 1 is_stmt 1 view -0
 1436              		.cfi_startproc
 1437              		@ args = 0, pretend = 0, frame = 0
 1438              		@ frame_needed = 0, uses_anonymous_args = 0
 1439              		@ link register save eliminated.
 579:Dsp/widget/wgt_core/UI_Controller.c ****     if (Obj == NULL)
 1440              		.loc 1 579 5 view .LVU398
 1441              		.loc 1 579 8 is_stmt 0 view .LVU399
 1442 0000 10B1     		cbz	r0, .L142
 580:Dsp/widget/wgt_core/UI_Controller.c ****         return;
 581:Dsp/widget/wgt_core/UI_Controller.c **** 
 582:Dsp/widget/wgt_core/UI_Controller.c ****     Obj->is_selected = true;
 1443              		.loc 1 582 5 is_stmt 1 view .LVU400
 1444              		.loc 1 582 22 is_stmt 0 view .LVU401
 1445 0002 0122     		movs	r2, #1
 1446 0004 80F82320 		strb	r2, [r0, #35]
ARM GAS  /var/folders/lx/hc4sn_b53233_zkc9xbbl97r0000gp/T//ccKzY9YJ.s 			page 38


 1447              	.L142:
 583:Dsp/widget/wgt_core/UI_Controller.c **** }
 1448              		.loc 1 583 1 view .LVU402
 1449 0008 7047     		bx	lr
 1450              		.cfi_endproc
 1451              	.LFE23:
 1453              		.section	.text.UI_SlideBar_IsSelected,"ax",%progbits
 1454              		.align	1
 1455              		.syntax unified
 1456              		.thumb
 1457              		.thumb_func
 1458              		.fpu fpv4-sp-d16
 1460              	UI_SlideBar_IsSelected:
 1461              	.LVL128:
 1462              	.LFB24:
 584:Dsp/widget/wgt_core/UI_Controller.c **** 
 585:Dsp/widget/wgt_core/UI_Controller.c **** static bool UI_SlideBar_IsSelected(UI_SlideBarObj_TypeDef *Obj)
 586:Dsp/widget/wgt_core/UI_Controller.c **** {
 1463              		.loc 1 586 1 is_stmt 1 view -0
 1464              		.cfi_startproc
 1465              		@ args = 0, pretend = 0, frame = 0
 1466              		@ frame_needed = 0, uses_anonymous_args = 0
 1467              		@ link register save eliminated.
 587:Dsp/widget/wgt_core/UI_Controller.c ****     if (Obj == NULL)
 1468              		.loc 1 587 5 view .LVU404
 1469              		.loc 1 587 8 is_stmt 0 view .LVU405
 1470 0000 10B1     		cbz	r0, .L146
 588:Dsp/widget/wgt_core/UI_Controller.c ****         return false;
 589:Dsp/widget/wgt_core/UI_Controller.c **** 
 590:Dsp/widget/wgt_core/UI_Controller.c ****     return Obj->is_selected;
 1471              		.loc 1 590 5 is_stmt 1 view .LVU406
 1472              		.loc 1 590 15 is_stmt 0 view .LVU407
 1473 0002 90F82300 		ldrb	r0, [r0, #35]	@ zero_extendqisi2
 1474              	.LVL129:
 1475              		.loc 1 590 15 view .LVU408
 1476 0006 7047     		bx	lr
 1477              	.LVL130:
 1478              	.L146:
 588:Dsp/widget/wgt_core/UI_Controller.c ****         return false;
 1479              		.loc 1 588 16 view .LVU409
 1480 0008 0020     		movs	r0, #0
 1481              	.LVL131:
 591:Dsp/widget/wgt_core/UI_Controller.c **** }
 1482              		.loc 1 591 1 view .LVU410
 1483 000a 7047     		bx	lr
 1484              		.cfi_endproc
 1485              	.LFE24:
 1487              		.section	.text.UI_CheckBox_Ctl,"ax",%progbits
 1488              		.align	1
 1489              		.syntax unified
 1490              		.thumb
 1491              		.thumb_func
 1492              		.fpu fpv4-sp-d16
 1494              	UI_CheckBox_Ctl:
 1495              	.LVL132:
 1496              	.LFB16:
 428:Dsp/widget/wgt_core/UI_Controller.c ****     uint16_t StrDsp_x = 0;
ARM GAS  /var/folders/lx/hc4sn_b53233_zkc9xbbl97r0000gp/T//ccKzY9YJ.s 			page 39


 1497              		.loc 1 428 1 is_stmt 1 view -0
 1498              		.cfi_startproc
 1499              		@ args = 0, pretend = 0, frame = 0
 1500              		@ frame_needed = 0, uses_anonymous_args = 0
 428:Dsp/widget/wgt_core/UI_Controller.c ****     uint16_t StrDsp_x = 0;
 1501              		.loc 1 428 1 is_stmt 0 view .LVU412
 1502 0000 2DE9F04F 		push	{r4, r5, r6, r7, r8, r9, r10, fp, lr}
 1503              	.LCFI28:
 1504              		.cfi_def_cfa_offset 36
 1505              		.cfi_offset 4, -36
 1506              		.cfi_offset 5, -32
 1507              		.cfi_offset 6, -28
 1508              		.cfi_offset 7, -24
 1509              		.cfi_offset 8, -20
 1510              		.cfi_offset 9, -16
 1511              		.cfi_offset 10, -12
 1512              		.cfi_offset 11, -8
 1513              		.cfi_offset 14, -4
 1514 0004 83B0     		sub	sp, sp, #12
 1515              	.LCFI29:
 1516              		.cfi_def_cfa_offset 48
 429:Dsp/widget/wgt_core/UI_Controller.c ****     int16_t frame_y = 0;
 1517              		.loc 1 429 5 is_stmt 1 view .LVU413
 1518              	.LVL133:
 430:Dsp/widget/wgt_core/UI_Controller.c **** 
 1519              		.loc 1 430 5 view .LVU414
 432:Dsp/widget/wgt_core/UI_Controller.c ****         (UI_DspInterface.draw_str == NULL) ||
 1520              		.loc 1 432 5 view .LVU415
 432:Dsp/widget/wgt_core/UI_Controller.c ****         (UI_DspInterface.draw_str == NULL) ||
 1521              		.loc 1 432 8 is_stmt 0 view .LVU416
 1522 0006 0028     		cmp	r0, #0
 1523 0008 44D0     		beq	.L149
 1524 000a 0546     		mov	r5, r0
 433:Dsp/widget/wgt_core/UI_Controller.c ****         (UI_DspInterface.fill_rectangle == NULL) ||
 1525              		.loc 1 433 25 discriminator 1 view .LVU417
 1526 000c 264B     		ldr	r3, .L155
 1527 000e 1E68     		ldr	r6, [r3]
 432:Dsp/widget/wgt_core/UI_Controller.c ****         (UI_DspInterface.draw_str == NULL) ||
 1528              		.loc 1 432 23 discriminator 1 view .LVU418
 1529 0010 002E     		cmp	r6, #0
 1530 0012 41D0     		beq	.L150
 434:Dsp/widget/wgt_core/UI_Controller.c ****         (UI_DspInterface.draw_rectangle == NULL))
 1531              		.loc 1 434 25 view .LVU419
 1532 0014 DB69     		ldr	r3, [r3, #28]
 433:Dsp/widget/wgt_core/UI_Controller.c ****         (UI_DspInterface.fill_rectangle == NULL) ||
 1533              		.loc 1 433 44 view .LVU420
 1534 0016 002B     		cmp	r3, #0
 1535 0018 40D0     		beq	.L151
 435:Dsp/widget/wgt_core/UI_Controller.c ****         return false;
 1536              		.loc 1 435 25 view .LVU421
 1537 001a 234B     		ldr	r3, .L155
 1538 001c 1B69     		ldr	r3, [r3, #16]
 434:Dsp/widget/wgt_core/UI_Controller.c ****         (UI_DspInterface.draw_rectangle == NULL))
 1539              		.loc 1 434 50 view .LVU422
 1540 001e 002B     		cmp	r3, #0
 1541 0020 3ED0     		beq	.L152
 438:Dsp/widget/wgt_core/UI_Controller.c ****     frame_y = Obj->Gen_Data.y + 3;
ARM GAS  /var/folders/lx/hc4sn_b53233_zkc9xbbl97r0000gp/T//ccKzY9YJ.s 			page 40


 1542              		.loc 1 438 5 is_stmt 1 view .LVU423
 438:Dsp/widget/wgt_core/UI_Controller.c ****     frame_y = Obj->Gen_Data.y + 3;
 1543              		.loc 1 438 36 is_stmt 0 view .LVU424
 1544 0022 D0F800B0 		ldr	fp, [r0]	@ unaligned
 438:Dsp/widget/wgt_core/UI_Controller.c ****     frame_y = Obj->Gen_Data.y + 3;
 1545              		.loc 1 438 16 view .LVU425
 1546 0026 5846     		mov	r0, fp
 1547              	.LVL134:
 438:Dsp/widget/wgt_core/UI_Controller.c ****     frame_y = Obj->Gen_Data.y + 3;
 1548              		.loc 1 438 16 view .LVU426
 1549 0028 FFF7FEFF 		bl	strlen
 1550              	.LVL135:
 438:Dsp/widget/wgt_core/UI_Controller.c ****     frame_y = Obj->Gen_Data.y + 3;
 1551              		.loc 1 438 14 view .LVU427
 1552 002c C400     		lsls	r4, r0, #3
 1553 002e A4B2     		uxth	r4, r4
 1554              	.LVL136:
 439:Dsp/widget/wgt_core/UI_Controller.c ****     StrDsp_x += DEFAULT_CHECKBOX_OFFSET;
 1555              		.loc 1 439 5 is_stmt 1 view .LVU428
 439:Dsp/widget/wgt_core/UI_Controller.c ****     StrDsp_x += DEFAULT_CHECKBOX_OFFSET;
 1556              		.loc 1 439 28 is_stmt 0 view .LVU429
 1557 0030 B5F90630 		ldrsh	r3, [r5, #6]	@ unaligned
 1558 0034 1FFA83FA 		uxth	r10, r3
 439:Dsp/widget/wgt_core/UI_Controller.c ****     StrDsp_x += DEFAULT_CHECKBOX_OFFSET;
 1559              		.loc 1 439 31 view .LVU430
 1560 0038 0AF10308 		add	r8, r10, #3
 439:Dsp/widget/wgt_core/UI_Controller.c ****     StrDsp_x += DEFAULT_CHECKBOX_OFFSET;
 1561              		.loc 1 439 13 view .LVU431
 1562 003c 0FFA88F8 		sxth	r8, r8
 1563              	.LVL137:
 440:Dsp/widget/wgt_core/UI_Controller.c **** 
 1564              		.loc 1 440 5 is_stmt 1 view .LVU432
 440:Dsp/widget/wgt_core/UI_Controller.c **** 
 1565              		.loc 1 440 14 is_stmt 0 view .LVU433
 1566 0040 671D     		adds	r7, r4, #5
 1567 0042 BFB2     		uxth	r7, r7
 1568              	.LVL138:
 442:Dsp/widget/wgt_core/UI_Controller.c ****     UI_DspInterface.draw_rectangle(StrDsp_x, frame_y, DEFAULT_CHECKBOX_FRAME_SIZE, DEFAULT_CHECKBOX
 1569              		.loc 1 442 5 is_stmt 1 view .LVU434
 442:Dsp/widget/wgt_core/UI_Controller.c ****     UI_DspInterface.draw_rectangle(StrDsp_x, frame_y, DEFAULT_CHECKBOX_FRAME_SIZE, DEFAULT_CHECKBOX
 1570              		.loc 1 442 78 is_stmt 0 view .LVU435
 1571 0044 AA88     		ldrh	r2, [r5, #4]	@ unaligned
 442:Dsp/widget/wgt_core/UI_Controller.c ****     UI_DspInterface.draw_rectangle(StrDsp_x, frame_y, DEFAULT_CHECKBOX_FRAME_SIZE, DEFAULT_CHECKBOX
 1572              		.loc 1 442 81 view .LVU436
 1573 0046 0332     		adds	r2, r2, #3
 442:Dsp/widget/wgt_core/UI_Controller.c ****     UI_DspInterface.draw_rectangle(StrDsp_x, frame_y, DEFAULT_CHECKBOX_FRAME_SIZE, DEFAULT_CHECKBOX
 1574              		.loc 1 442 5 view .LVU437
 1575 0048 4FF00109 		mov	r9, #1
 1576 004c CDF80090 		str	r9, [sp]
 1577 0050 1BB2     		sxth	r3, r3
 1578 0052 12B2     		sxth	r2, r2
 1579 0054 5946     		mov	r1, fp
 1580 0056 0C20     		movs	r0, #12
 1581 0058 B047     		blx	r6
 1582              	.LVL139:
 443:Dsp/widget/wgt_core/UI_Controller.c **** 
 1583              		.loc 1 443 5 is_stmt 1 view .LVU438
ARM GAS  /var/folders/lx/hc4sn_b53233_zkc9xbbl97r0000gp/T//ccKzY9YJ.s 			page 41


 443:Dsp/widget/wgt_core/UI_Controller.c **** 
 1584              		.loc 1 443 20 is_stmt 0 view .LVU439
 1585 005a 134B     		ldr	r3, .L155
 1586 005c 1E69     		ldr	r6, [r3, #16]
 443:Dsp/widget/wgt_core/UI_Controller.c **** 
 1587              		.loc 1 443 5 view .LVU440
 1588 005e CDF80490 		str	r9, [sp, #4]
 1589 0062 CDF80090 		str	r9, [sp]
 1590 0066 0723     		movs	r3, #7
 1591 0068 1A46     		mov	r2, r3
 1592 006a 4146     		mov	r1, r8
 1593 006c 38B2     		sxth	r0, r7
 1594 006e B047     		blx	r6
 1595              	.LVL140:
 445:Dsp/widget/wgt_core/UI_Controller.c ****         UI_DspInterface.fill_rectangle(StrDsp_x + 2, frame_y + 2, DEFAULT_CHECKBOX_FILLFRAME, DEFAU
 1596              		.loc 1 445 5 is_stmt 1 view .LVU441
 445:Dsp/widget/wgt_core/UI_Controller.c ****         UI_DspInterface.fill_rectangle(StrDsp_x + 2, frame_y + 2, DEFAULT_CHECKBOX_FILLFRAME, DEFAU
 1597              		.loc 1 445 12 is_stmt 0 view .LVU442
 1598 0070 2D7C     		ldrb	r5, [r5, #16]	@ zero_extendqisi2
 1599              	.LVL141:
 445:Dsp/widget/wgt_core/UI_Controller.c ****         UI_DspInterface.fill_rectangle(StrDsp_x + 2, frame_y + 2, DEFAULT_CHECKBOX_FILLFRAME, DEFAU
 1600              		.loc 1 445 8 view .LVU443
 1601 0072 BDB1     		cbz	r5, .L153
 446:Dsp/widget/wgt_core/UI_Controller.c **** 
 1602              		.loc 1 446 9 is_stmt 1 view .LVU444
 446:Dsp/widget/wgt_core/UI_Controller.c **** 
 1603              		.loc 1 446 24 is_stmt 0 view .LVU445
 1604 0074 0C4B     		ldr	r3, .L155
 1605 0076 DE69     		ldr	r6, [r3, #28]
 446:Dsp/widget/wgt_core/UI_Controller.c **** 
 1606              		.loc 1 446 49 view .LVU446
 1607 0078 E01D     		adds	r0, r4, #7
 446:Dsp/widget/wgt_core/UI_Controller.c **** 
 1608              		.loc 1 446 62 view .LVU447
 1609 007a 0AF10501 		add	r1, r10, #5
 446:Dsp/widget/wgt_core/UI_Controller.c **** 
 1610              		.loc 1 446 9 view .LVU448
 1611 007e CDF80090 		str	r9, [sp]
 1612 0082 0323     		movs	r3, #3
 1613 0084 1A46     		mov	r2, r3
 1614 0086 09B2     		sxth	r1, r1
 1615 0088 00B2     		sxth	r0, r0
 1616 008a B047     		blx	r6
 1617              	.LVL142:
 1618              	.L148:
 449:Dsp/widget/wgt_core/UI_Controller.c **** 
 1619              		.loc 1 449 1 view .LVU449
 1620 008c 2846     		mov	r0, r5
 1621 008e 03B0     		add	sp, sp, #12
 1622              	.LCFI30:
 1623              		.cfi_remember_state
 1624              		.cfi_def_cfa_offset 36
 1625              		@ sp needed
 1626 0090 BDE8F08F 		pop	{r4, r5, r6, r7, r8, r9, r10, fp, pc}
 1627              	.LVL143:
 1628              	.L149:
 1629              	.LCFI31:
ARM GAS  /var/folders/lx/hc4sn_b53233_zkc9xbbl97r0000gp/T//ccKzY9YJ.s 			page 42


 1630              		.cfi_restore_state
 436:Dsp/widget/wgt_core/UI_Controller.c **** 
 1631              		.loc 1 436 16 view .LVU450
 1632 0094 0025     		movs	r5, #0
 1633 0096 F9E7     		b	.L148
 1634              	.L150:
 436:Dsp/widget/wgt_core/UI_Controller.c **** 
 1635              		.loc 1 436 16 view .LVU451
 1636 0098 0025     		movs	r5, #0
 1637 009a F7E7     		b	.L148
 1638              	.L151:
 436:Dsp/widget/wgt_core/UI_Controller.c **** 
 1639              		.loc 1 436 16 view .LVU452
 1640 009c 0025     		movs	r5, #0
 1641 009e F5E7     		b	.L148
 1642              	.L152:
 436:Dsp/widget/wgt_core/UI_Controller.c **** 
 1643              		.loc 1 436 16 view .LVU453
 1644 00a0 0025     		movs	r5, #0
 1645 00a2 F3E7     		b	.L148
 1646              	.LVL144:
 1647              	.L153:
 448:Dsp/widget/wgt_core/UI_Controller.c **** }
 1648              		.loc 1 448 12 view .LVU454
 1649 00a4 0125     		movs	r5, #1
 1650 00a6 F1E7     		b	.L148
 1651              	.L156:
 1652              		.align	2
 1653              	.L155:
 1654 00a8 00000000 		.word	.LANCHOR0
 1655              		.cfi_endproc
 1656              	.LFE16:
 1658              		.section	.text.UI_SlideBar_CTL,"ax",%progbits
 1659              		.align	1
 1660              		.syntax unified
 1661              		.thumb
 1662              		.thumb_func
 1663              		.fpu fpv4-sp-d16
 1665              	UI_SlideBar_CTL:
 1666              	.LVL145:
 1667              	.LFB22:
 533:Dsp/widget/wgt_core/UI_Controller.c ****     int16_t Block_CoordX = 0;
 1668              		.loc 1 533 1 is_stmt 1 view -0
 1669              		.cfi_startproc
 1670              		@ args = 0, pretend = 0, frame = 0
 1671              		@ frame_needed = 0, uses_anonymous_args = 0
 534:Dsp/widget/wgt_core/UI_Controller.c ****     int16_t Block_CoordY = 0;
 1672              		.loc 1 534 5 view .LVU456
 535:Dsp/widget/wgt_core/UI_Controller.c ****     int16_t input_trip = 0;
 1673              		.loc 1 535 5 view .LVU457
 536:Dsp/widget/wgt_core/UI_Controller.c **** 
 1674              		.loc 1 536 5 view .LVU458
 538:Dsp/widget/wgt_core/UI_Controller.c ****         (UI_DspInterface.draw_str == NULL) ||
 1675              		.loc 1 538 5 view .LVU459
 538:Dsp/widget/wgt_core/UI_Controller.c ****         (UI_DspInterface.draw_str == NULL) ||
 1676              		.loc 1 538 8 is_stmt 0 view .LVU460
 1677 0000 0028     		cmp	r0, #0
ARM GAS  /var/folders/lx/hc4sn_b53233_zkc9xbbl97r0000gp/T//ccKzY9YJ.s 			page 43


 1678 0002 7CD0     		beq	.L162
 533:Dsp/widget/wgt_core/UI_Controller.c ****     int16_t Block_CoordX = 0;
 1679              		.loc 1 533 1 discriminator 1 view .LVU461
 1680 0004 2DE9F041 		push	{r4, r5, r6, r7, r8, lr}
 1681              	.LCFI32:
 1682              		.cfi_def_cfa_offset 24
 1683              		.cfi_offset 4, -24
 1684              		.cfi_offset 5, -20
 1685              		.cfi_offset 6, -16
 1686              		.cfi_offset 7, -12
 1687              		.cfi_offset 8, -8
 1688              		.cfi_offset 14, -4
 1689 0008 82B0     		sub	sp, sp, #8
 1690              	.LCFI33:
 1691              		.cfi_def_cfa_offset 32
 1692 000a 0446     		mov	r4, r0
 539:Dsp/widget/wgt_core/UI_Controller.c ****         (UI_DspInterface.fill_rectangle == NULL))
 1693              		.loc 1 539 25 discriminator 1 view .LVU462
 1694 000c 404B     		ldr	r3, .L170
 1695 000e 1E68     		ldr	r6, [r3]
 538:Dsp/widget/wgt_core/UI_Controller.c ****         (UI_DspInterface.draw_str == NULL) ||
 1696              		.loc 1 538 23 discriminator 1 view .LVU463
 1697 0010 002E     		cmp	r6, #0
 1698 0012 76D0     		beq	.L163
 540:Dsp/widget/wgt_core/UI_Controller.c ****         return false;
 1699              		.loc 1 540 25 view .LVU464
 1700 0014 DB69     		ldr	r3, [r3, #28]
 539:Dsp/widget/wgt_core/UI_Controller.c ****         (UI_DspInterface.fill_rectangle == NULL))
 1701              		.loc 1 539 44 view .LVU465
 1702 0016 002B     		cmp	r3, #0
 1703 0018 75D0     		beq	.L164
 543:Dsp/widget/wgt_core/UI_Controller.c **** 
 1704              		.loc 1 543 5 is_stmt 1 view .LVU466
 543:Dsp/widget/wgt_core/UI_Controller.c **** 
 1705              		.loc 1 543 21 is_stmt 0 view .LVU467
 1706 001a D0F81530 		ldr	r3, [r0, #21]	@ unaligned
 1707 001e 07EE903A 		vmov	s15, r3	@ int
 543:Dsp/widget/wgt_core/UI_Controller.c **** 
 1708              		.loc 1 543 38 view .LVU468
 1709 0022 D0F81130 		ldr	r3, [r0, #17]	@ unaligned
 543:Dsp/widget/wgt_core/UI_Controller.c **** 
 1710              		.loc 1 543 33 view .LVU469
 1711 0026 07EE103A 		vmov	s14, r3
 1712 002a 77EEC77A 		vsub.f32	s15, s15, s14
 543:Dsp/widget/wgt_core/UI_Controller.c **** 
 1713              		.loc 1 543 16 view .LVU470
 1714 002e FDEEE77A 		vcvt.s32.f32	s15, s15
 1715 0032 17EE903A 		vmov	r3, s15	@ int
 1716 0036 1DB2     		sxth	r5, r3
 1717              	.LVL146:
 545:Dsp/widget/wgt_core/UI_Controller.c **** 
 1718              		.loc 1 545 5 is_stmt 1 view .LVU471
 545:Dsp/widget/wgt_core/UI_Controller.c **** 
 1719              		.loc 1 545 78 is_stmt 0 view .LVU472
 1720 0038 8288     		ldrh	r2, [r0, #4]	@ unaligned
 545:Dsp/widget/wgt_core/UI_Controller.c **** 
 1721              		.loc 1 545 81 view .LVU473
ARM GAS  /var/folders/lx/hc4sn_b53233_zkc9xbbl97r0000gp/T//ccKzY9YJ.s 			page 44


 1722 003a 0332     		adds	r2, r2, #3
 545:Dsp/widget/wgt_core/UI_Controller.c **** 
 1723              		.loc 1 545 5 view .LVU474
 1724 003c 0123     		movs	r3, #1
 1725 003e 0093     		str	r3, [sp]
 1726 0040 B0F90630 		ldrsh	r3, [r0, #6]	@ unaligned
 1727 0044 12B2     		sxth	r2, r2
 1728 0046 0168     		ldr	r1, [r0]	@ unaligned
 1729 0048 0C20     		movs	r0, #12
 1730              	.LVL147:
 545:Dsp/widget/wgt_core/UI_Controller.c **** 
 1731              		.loc 1 545 5 view .LVU475
 1732 004a B047     		blx	r6
 1733              	.LVL148:
 547:Dsp/widget/wgt_core/UI_Controller.c ****     {
 1734              		.loc 1 547 5 is_stmt 1 view .LVU476
 547:Dsp/widget/wgt_core/UI_Controller.c ****     {
 1735              		.loc 1 547 12 is_stmt 0 view .LVU477
 1736 004c 237B     		ldrb	r3, [r4, #12]	@ zero_extendqisi2
 547:Dsp/widget/wgt_core/UI_Controller.c ****     {
 1737              		.loc 1 547 8 view .LVU478
 1738 004e 002B     		cmp	r3, #0
 1739 0050 51D1     		bne	.L159
 549:Dsp/widget/wgt_core/UI_Controller.c ****         {
 1740              		.loc 1 549 9 is_stmt 1 view .LVU479
 549:Dsp/widget/wgt_core/UI_Controller.c ****         {
 1741              		.loc 1 549 16 is_stmt 0 view .LVU480
 1742 0052 B4F92430 		ldrsh	r3, [r4, #36]	@ unaligned
 549:Dsp/widget/wgt_core/UI_Controller.c ****         {
 1743              		.loc 1 549 12 view .LVU481
 1744 0056 43B9     		cbnz	r3, .L160
 551:Dsp/widget/wgt_core/UI_Controller.c ****         }
 1745              		.loc 1 551 13 is_stmt 1 view .LVU482
 551:Dsp/widget/wgt_core/UI_Controller.c ****         }
 1746              		.loc 1 551 44 is_stmt 0 view .LVU483
 1747 0058 A688     		ldrh	r6, [r4, #4]	@ unaligned
 551:Dsp/widget/wgt_core/UI_Controller.c ****         }
 1748              		.loc 1 551 49 view .LVU484
 1749 005a 2068     		ldr	r0, [r4]	@ unaligned
 1750 005c FFF7FEFF 		bl	strlen
 1751              	.LVL149:
 551:Dsp/widget/wgt_core/UI_Controller.c ****         }
 1752              		.loc 1 551 47 view .LVU485
 1753 0060 06EBC006 		add	r6, r6, r0, lsl #3
 1754 0064 B6B2     		uxth	r6, r6
 551:Dsp/widget/wgt_core/UI_Controller.c ****         }
 1755              		.loc 1 551 90 view .LVU486
 1756 0066 0536     		adds	r6, r6, #5
 551:Dsp/widget/wgt_core/UI_Controller.c ****         }
 1757              		.loc 1 551 29 view .LVU487
 1758 0068 A684     		strh	r6, [r4, #36]	@ unaligned
 1759              	.L160:
 554:Dsp/widget/wgt_core/UI_Controller.c ****         {
 1760              		.loc 1 554 9 is_stmt 1 view .LVU488
 554:Dsp/widget/wgt_core/UI_Controller.c ****         {
 1761              		.loc 1 554 16 is_stmt 0 view .LVU489
 1762 006a B4F92630 		ldrsh	r3, [r4, #38]	@ unaligned
ARM GAS  /var/folders/lx/hc4sn_b53233_zkc9xbbl97r0000gp/T//ccKzY9YJ.s 			page 45


 554:Dsp/widget/wgt_core/UI_Controller.c ****         {
 1763              		.loc 1 554 12 view .LVU490
 1764 006e 13B9     		cbnz	r3, .L161
 556:Dsp/widget/wgt_core/UI_Controller.c ****         }
 1765              		.loc 1 556 13 is_stmt 1 view .LVU491
 556:Dsp/widget/wgt_core/UI_Controller.c ****         }
 1766              		.loc 1 556 44 is_stmt 0 view .LVU492
 1767 0070 E388     		ldrh	r3, [r4, #6]	@ unaligned
 556:Dsp/widget/wgt_core/UI_Controller.c ****         }
 1768              		.loc 1 556 47 view .LVU493
 1769 0072 0533     		adds	r3, r3, #5
 556:Dsp/widget/wgt_core/UI_Controller.c ****         }
 1770              		.loc 1 556 29 view .LVU494
 1771 0074 E384     		strh	r3, [r4, #38]	@ unaligned
 1772              	.L161:
 559:Dsp/widget/wgt_core/UI_Controller.c ****         Block_CoordX += (Obj->cur_val - Obj->limit_min) / ((float)(input_trip)) * (DEFAULT_SLIDERBA
 1773              		.loc 1 559 9 is_stmt 1 view .LVU495
 559:Dsp/widget/wgt_core/UI_Controller.c ****         Block_CoordX += (Obj->cur_val - Obj->limit_min) / ((float)(input_trip)) * (DEFAULT_SLIDERBA
 1774              		.loc 1 559 22 is_stmt 0 view .LVU496
 1775 0076 B4F92400 		ldrsh	r0, [r4, #36]	@ unaligned
 1776              	.LVL150:
 560:Dsp/widget/wgt_core/UI_Controller.c **** 
 1777              		.loc 1 560 9 is_stmt 1 view .LVU497
 560:Dsp/widget/wgt_core/UI_Controller.c **** 
 1778              		.loc 1 560 29 is_stmt 0 view .LVU498
 1779 007a D4F81F30 		ldr	r3, [r4, #31]	@ unaligned
 1780 007e 06EE903A 		vmov	s13, r3	@ int
 560:Dsp/widget/wgt_core/UI_Controller.c **** 
 1781              		.loc 1 560 44 view .LVU499
 1782 0082 D4F81130 		ldr	r3, [r4, #17]	@ unaligned
 560:Dsp/widget/wgt_core/UI_Controller.c **** 
 1783              		.loc 1 560 39 view .LVU500
 1784 0086 07EE903A 		vmov	s15, r3
 1785 008a 76EEE76A 		vsub.f32	s13, s13, s15
 560:Dsp/widget/wgt_core/UI_Controller.c **** 
 1786              		.loc 1 560 60 view .LVU501
 1787 008e 07EE905A 		vmov	s15, r5	@ int
 1788 0092 B8EEE77A 		vcvt.f32.s32	s14, s15
 560:Dsp/widget/wgt_core/UI_Controller.c **** 
 1789              		.loc 1 560 57 view .LVU502
 1790 0096 C6EE877A 		vdiv.f32	s15, s13, s14
 560:Dsp/widget/wgt_core/UI_Controller.c **** 
 1791              		.loc 1 560 81 view .LVU503
 1792 009a 9FED1E7A 		vldr.32	s14, .L170+4
 1793 009e 27EE877A 		vmul.f32	s14, s15, s14
 560:Dsp/widget/wgt_core/UI_Controller.c **** 
 1794              		.loc 1 560 22 view .LVU504
 1795 00a2 07EE900A 		vmov	s15, r0	@ int
 1796 00a6 F8EEE77A 		vcvt.f32.s32	s15, s15
 1797 00aa 77EE877A 		vadd.f32	s15, s15, s14
 1798 00ae FDEEE77A 		vcvt.s32.f32	s15, s15
 1799 00b2 17EE903A 		vmov	r3, s15	@ int
 1800 00b6 0FFA83F8 		sxth	r8, r3
 1801              	.LVL151:
 562:Dsp/widget/wgt_core/UI_Controller.c **** 
 1802              		.loc 1 562 9 is_stmt 1 view .LVU505
 562:Dsp/widget/wgt_core/UI_Controller.c **** 
ARM GAS  /var/folders/lx/hc4sn_b53233_zkc9xbbl97r0000gp/T//ccKzY9YJ.s 			page 46


 1803              		.loc 1 562 24 is_stmt 0 view .LVU506
 1804 00ba 154F     		ldr	r7, .L170
 562:Dsp/widget/wgt_core/UI_Controller.c **** 
 1805              		.loc 1 562 9 view .LVU507
 1806 00bc 0125     		movs	r5, #1
 1807              	.LVL152:
 562:Dsp/widget/wgt_core/UI_Controller.c **** 
 1808              		.loc 1 562 9 view .LVU508
 1809 00be 0095     		str	r5, [sp]
 1810 00c0 0223     		movs	r3, #2
 1811 00c2 2822     		movs	r2, #40
 1812 00c4 B4F92610 		ldrsh	r1, [r4, #38]	@ unaligned
 1813 00c8 FE69     		ldr	r6, [r7, #28]
 1814 00ca B047     		blx	r6
 1815              	.LVL153:
 564:Dsp/widget/wgt_core/UI_Controller.c ****         UI_DspInterface.fill_rectangle(Block_CoordX, Block_CoordY, DEFAULT_SLIDERBAR_BLOCK_WIDTH, D
 1816              		.loc 1 564 9 is_stmt 1 view .LVU509
 564:Dsp/widget/wgt_core/UI_Controller.c ****         UI_DspInterface.fill_rectangle(Block_CoordX, Block_CoordY, DEFAULT_SLIDERBAR_BLOCK_WIDTH, D
 1817              		.loc 1 564 37 is_stmt 0 view .LVU510
 1818 00cc E488     		ldrh	r4, [r4, #6]	@ unaligned
 1819              	.LVL154:
 564:Dsp/widget/wgt_core/UI_Controller.c ****         UI_DspInterface.fill_rectangle(Block_CoordX, Block_CoordY, DEFAULT_SLIDERBAR_BLOCK_WIDTH, D
 1820              		.loc 1 564 40 view .LVU511
 1821 00ce E11C     		adds	r1, r4, #3
 1822              	.LVL155:
 565:Dsp/widget/wgt_core/UI_Controller.c ****         UI_DspInterface.fill_rectangle(Block_CoordX, Block_CoordY + (DEFAULT_SLIDERBAR_BLOCK_HIGH /
 1823              		.loc 1 565 9 is_stmt 1 view .LVU512
 1824 00d0 0095     		str	r5, [sp]
 1825 00d2 0623     		movs	r3, #6
 1826 00d4 0322     		movs	r2, #3
 1827 00d6 09B2     		sxth	r1, r1
 565:Dsp/widget/wgt_core/UI_Controller.c ****         UI_DspInterface.fill_rectangle(Block_CoordX, Block_CoordY + (DEFAULT_SLIDERBAR_BLOCK_HIGH /
 1828              		.loc 1 565 9 is_stmt 0 view .LVU513
 1829 00d8 4046     		mov	r0, r8
 1830 00da FE69     		ldr	r6, [r7, #28]
 1831 00dc B047     		blx	r6
 1832              	.LVL156:
 566:Dsp/widget/wgt_core/UI_Controller.c ****     }
 1833              		.loc 1 566 9 is_stmt 1 view .LVU514
 566:Dsp/widget/wgt_core/UI_Controller.c ****     }
 1834              		.loc 1 566 24 is_stmt 0 view .LVU515
 1835 00de FF69     		ldr	r7, [r7, #28]
 566:Dsp/widget/wgt_core/UI_Controller.c ****     }
 1836              		.loc 1 566 67 view .LVU516
 1837 00e0 611D     		adds	r1, r4, #5
 566:Dsp/widget/wgt_core/UI_Controller.c ****     }
 1838              		.loc 1 566 9 view .LVU517
 1839 00e2 0095     		str	r5, [sp]
 1840 00e4 0223     		movs	r3, #2
 1841 00e6 0322     		movs	r2, #3
 1842 00e8 09B2     		sxth	r1, r1
 1843 00ea 4046     		mov	r0, r8
 1844 00ec B847     		blx	r7
 1845              	.LVL157:
 574:Dsp/widget/wgt_core/UI_Controller.c **** }
 1846              		.loc 1 574 12 view .LVU518
 1847 00ee 2846     		mov	r0, r5
ARM GAS  /var/folders/lx/hc4sn_b53233_zkc9xbbl97r0000gp/T//ccKzY9YJ.s 			page 47


 1848              	.LVL158:
 1849              	.L158:
 575:Dsp/widget/wgt_core/UI_Controller.c **** 
 1850              		.loc 1 575 1 view .LVU519
 1851 00f0 02B0     		add	sp, sp, #8
 1852              	.LCFI34:
 1853              		.cfi_remember_state
 1854              		.cfi_def_cfa_offset 24
 1855              		@ sp needed
 1856 00f2 BDE8F081 		pop	{r4, r5, r6, r7, r8, pc}
 1857              	.LVL159:
 1858              	.L159:
 1859              	.LCFI35:
 1860              		.cfi_restore_state
 568:Dsp/widget/wgt_core/UI_Controller.c ****     {
 1861              		.loc 1 568 10 is_stmt 1 view .LVU520
 568:Dsp/widget/wgt_core/UI_Controller.c ****     {
 1862              		.loc 1 568 13 is_stmt 0 view .LVU521
 1863 00f6 012B     		cmp	r3, #1
 1864 00f8 07D1     		bne	.L165
 574:Dsp/widget/wgt_core/UI_Controller.c **** }
 1865              		.loc 1 574 12 view .LVU522
 1866 00fa 0120     		movs	r0, #1
 1867 00fc F8E7     		b	.L158
 1868              	.LVL160:
 1869              	.L162:
 1870              	.LCFI36:
 1871              		.cfi_def_cfa_offset 0
 1872              		.cfi_restore 4
 1873              		.cfi_restore 5
 1874              		.cfi_restore 6
 1875              		.cfi_restore 7
 1876              		.cfi_restore 8
 1877              		.cfi_restore 14
 541:Dsp/widget/wgt_core/UI_Controller.c **** 
 1878              		.loc 1 541 16 view .LVU523
 1879 00fe 0020     		movs	r0, #0
 1880              	.LVL161:
 575:Dsp/widget/wgt_core/UI_Controller.c **** 
 1881              		.loc 1 575 1 view .LVU524
 1882 0100 7047     		bx	lr
 1883              	.LVL162:
 1884              	.L163:
 1885              	.LCFI37:
 1886              		.cfi_def_cfa_offset 32
 1887              		.cfi_offset 4, -24
 1888              		.cfi_offset 5, -20
 1889              		.cfi_offset 6, -16
 1890              		.cfi_offset 7, -12
 1891              		.cfi_offset 8, -8
 1892              		.cfi_offset 14, -4
 541:Dsp/widget/wgt_core/UI_Controller.c **** 
 1893              		.loc 1 541 16 view .LVU525
 1894 0102 0020     		movs	r0, #0
 1895              	.LVL163:
 541:Dsp/widget/wgt_core/UI_Controller.c **** 
 1896              		.loc 1 541 16 view .LVU526
ARM GAS  /var/folders/lx/hc4sn_b53233_zkc9xbbl97r0000gp/T//ccKzY9YJ.s 			page 48


 1897 0104 F4E7     		b	.L158
 1898              	.LVL164:
 1899              	.L164:
 541:Dsp/widget/wgt_core/UI_Controller.c **** 
 1900              		.loc 1 541 16 view .LVU527
 1901 0106 0020     		movs	r0, #0
 1902              	.LVL165:
 541:Dsp/widget/wgt_core/UI_Controller.c **** 
 1903              		.loc 1 541 16 view .LVU528
 1904 0108 F2E7     		b	.L158
 1905              	.LVL166:
 1906              	.L165:
 572:Dsp/widget/wgt_core/UI_Controller.c **** 
 1907              		.loc 1 572 16 view .LVU529
 1908 010a 0020     		movs	r0, #0
 1909 010c F0E7     		b	.L158
 1910              	.L171:
 1911 010e 00BF     		.align	2
 1912              	.L170:
 1913 0110 00000000 		.word	.LANCHOR0
 1914 0114 00001442 		.word	1108606976
 1915              		.cfi_endproc
 1916              	.LFE22:
 1918              		.section	.text.UI_Set_DspInterface,"ax",%progbits
 1919              		.align	1
 1920              		.global	UI_Set_DspInterface
 1921              		.syntax unified
 1922              		.thumb
 1923              		.thumb_func
 1924              		.fpu fpv4-sp-d16
 1926              	UI_Set_DspInterface:
 1927              	.LVL167:
 1928              	.LFB0:
  88:Dsp/widget/wgt_core/UI_Controller.c ****     UI_DspInterface.draw_circle = circle;
 1929              		.loc 1 88 1 is_stmt 1 view -0
 1930              		.cfi_startproc
 1931              		@ args = 28, pretend = 0, frame = 0
 1932              		@ frame_needed = 0, uses_anonymous_args = 0
 1933              		@ link register save eliminated.
  88:Dsp/widget/wgt_core/UI_Controller.c ****     UI_DspInterface.draw_circle = circle;
 1934              		.loc 1 88 1 is_stmt 0 view .LVU531
 1935 0000 30B4     		push	{r4, r5}
 1936              	.LCFI38:
 1937              		.cfi_def_cfa_offset 8
 1938              		.cfi_offset 4, -8
 1939              		.cfi_offset 5, -4
  89:Dsp/widget/wgt_core/UI_Controller.c ****     UI_DspInterface.draw_circle_section = circle_section;
 1940              		.loc 1 89 5 is_stmt 1 view .LVU532
  89:Dsp/widget/wgt_core/UI_Controller.c ****     UI_DspInterface.draw_circle_section = circle_section;
 1941              		.loc 1 89 33 is_stmt 0 view .LVU533
 1942 0002 0A4C     		ldr	r4, .L174
 1943 0004 029D     		ldr	r5, [sp, #8]
 1944 0006 6561     		str	r5, [r4, #20]
  90:Dsp/widget/wgt_core/UI_Controller.c ****     UI_DspInterface.draw_line = line;
 1945              		.loc 1 90 5 is_stmt 1 view .LVU534
  90:Dsp/widget/wgt_core/UI_Controller.c ****     UI_DspInterface.draw_line = line;
 1946              		.loc 1 90 41 is_stmt 0 view .LVU535
ARM GAS  /var/folders/lx/hc4sn_b53233_zkc9xbbl97r0000gp/T//ccKzY9YJ.s 			page 49


 1947 0008 039D     		ldr	r5, [sp, #12]
 1948 000a A561     		str	r5, [r4, #24]
  91:Dsp/widget/wgt_core/UI_Controller.c ****     UI_DspInterface.draw_point = point;
 1949              		.loc 1 91 5 is_stmt 1 view .LVU536
  91:Dsp/widget/wgt_core/UI_Controller.c ****     UI_DspInterface.draw_point = point;
 1950              		.loc 1 91 31 is_stmt 0 view .LVU537
 1951 000c A160     		str	r1, [r4, #8]
  92:Dsp/widget/wgt_core/UI_Controller.c ****     UI_DspInterface.draw_rectangle = rectangle;
 1952              		.loc 1 92 5 is_stmt 1 view .LVU538
  92:Dsp/widget/wgt_core/UI_Controller.c ****     UI_DspInterface.draw_rectangle = rectangle;
 1953              		.loc 1 92 32 is_stmt 0 view .LVU539
 1954 000e 6060     		str	r0, [r4, #4]
  93:Dsp/widget/wgt_core/UI_Controller.c ****     UI_DspInterface.draw_radius_rectangle = radius_rectangle;
 1955              		.loc 1 93 5 is_stmt 1 view .LVU540
  93:Dsp/widget/wgt_core/UI_Controller.c ****     UI_DspInterface.draw_radius_rectangle = radius_rectangle;
 1956              		.loc 1 93 36 is_stmt 0 view .LVU541
 1957 0010 2261     		str	r2, [r4, #16]
  94:Dsp/widget/wgt_core/UI_Controller.c ****     UI_DspInterface.draw_str = str;
 1958              		.loc 1 94 5 is_stmt 1 view .LVU542
  94:Dsp/widget/wgt_core/UI_Controller.c ****     UI_DspInterface.draw_str = str;
 1959              		.loc 1 94 43 is_stmt 0 view .LVU543
 1960 0012 E360     		str	r3, [r4, #12]
  95:Dsp/widget/wgt_core/UI_Controller.c **** 
 1961              		.loc 1 95 5 is_stmt 1 view .LVU544
  95:Dsp/widget/wgt_core/UI_Controller.c **** 
 1962              		.loc 1 95 30 is_stmt 0 view .LVU545
 1963 0014 049B     		ldr	r3, [sp, #16]
 1964              	.LVL168:
  95:Dsp/widget/wgt_core/UI_Controller.c **** 
 1965              		.loc 1 95 30 view .LVU546
 1966 0016 2360     		str	r3, [r4]
  97:Dsp/widget/wgt_core/UI_Controller.c ****     UI_DspInterface.fill_circle_section = fillcircle_section;
 1967              		.loc 1 97 5 is_stmt 1 view .LVU547
  97:Dsp/widget/wgt_core/UI_Controller.c ****     UI_DspInterface.fill_circle_section = fillcircle_section;
 1968              		.loc 1 97 33 is_stmt 0 view .LVU548
 1969 0018 059B     		ldr	r3, [sp, #20]
 1970 001a 2362     		str	r3, [r4, #32]
  98:Dsp/widget/wgt_core/UI_Controller.c ****     UI_DspInterface.fill_radius_rectangle = fill_radius_rectangle;
 1971              		.loc 1 98 5 is_stmt 1 view .LVU549
  98:Dsp/widget/wgt_core/UI_Controller.c ****     UI_DspInterface.fill_radius_rectangle = fill_radius_rectangle;
 1972              		.loc 1 98 41 is_stmt 0 view .LVU550
 1973 001c 069B     		ldr	r3, [sp, #24]
 1974 001e 6362     		str	r3, [r4, #36]
  99:Dsp/widget/wgt_core/UI_Controller.c ****     UI_DspInterface.fill_rectangle = fill_rectangle;
 1975              		.loc 1 99 5 is_stmt 1 view .LVU551
  99:Dsp/widget/wgt_core/UI_Controller.c ****     UI_DspInterface.fill_rectangle = fill_rectangle;
 1976              		.loc 1 99 43 is_stmt 0 view .LVU552
 1977 0020 089B     		ldr	r3, [sp, #32]
 1978 0022 A362     		str	r3, [r4, #40]
 100:Dsp/widget/wgt_core/UI_Controller.c **** }
 1979              		.loc 1 100 5 is_stmt 1 view .LVU553
 100:Dsp/widget/wgt_core/UI_Controller.c **** }
 1980              		.loc 1 100 36 is_stmt 0 view .LVU554
 1981 0024 079B     		ldr	r3, [sp, #28]
 1982 0026 E361     		str	r3, [r4, #28]
 101:Dsp/widget/wgt_core/UI_Controller.c **** 
 1983              		.loc 1 101 1 view .LVU555
ARM GAS  /var/folders/lx/hc4sn_b53233_zkc9xbbl97r0000gp/T//ccKzY9YJ.s 			page 50


 1984 0028 30BC     		pop	{r4, r5}
 1985              	.LCFI39:
 1986              		.cfi_restore 5
 1987              		.cfi_restore 4
 1988              		.cfi_def_cfa_offset 0
 1989              	.LVL169:
 101:Dsp/widget/wgt_core/UI_Controller.c **** 
 1990              		.loc 1 101 1 view .LVU556
 1991 002a 7047     		bx	lr
 1992              	.L175:
 1993              		.align	2
 1994              	.L174:
 1995 002c 00000000 		.word	.LANCHOR0
 1996              		.cfi_endproc
 1997              	.LFE0:
 1999              		.section	.text.UI_Set_GetWidgetWidthMathod,"ax",%progbits
 2000              		.align	1
 2001              		.global	UI_Set_GetWidgetWidthMathod
 2002              		.syntax unified
 2003              		.thumb
 2004              		.thumb_func
 2005              		.fpu fpv4-sp-d16
 2007              	UI_Set_GetWidgetWidthMathod:
 2008              	.LVL170:
 2009              	.LFB1:
 104:Dsp/widget/wgt_core/UI_Controller.c ****     UI_Get_WidgetWidth = mathod;
 2010              		.loc 1 104 1 is_stmt 1 view -0
 2011              		.cfi_startproc
 2012              		@ args = 0, pretend = 0, frame = 0
 2013              		@ frame_needed = 0, uses_anonymous_args = 0
 2014              		@ link register save eliminated.
 105:Dsp/widget/wgt_core/UI_Controller.c **** }
 2015              		.loc 1 105 5 view .LVU558
 105:Dsp/widget/wgt_core/UI_Controller.c **** }
 2016              		.loc 1 105 24 is_stmt 0 view .LVU559
 2017 0000 014B     		ldr	r3, .L177
 2018 0002 1860     		str	r0, [r3]
 106:Dsp/widget/wgt_core/UI_Controller.c **** 
 2019              		.loc 1 106 1 view .LVU560
 2020 0004 7047     		bx	lr
 2021              	.L178:
 2022 0006 00BF     		.align	2
 2023              	.L177:
 2024 0008 00000000 		.word	.LANCHOR1
 2025              		.cfi_endproc
 2026              	.LFE1:
 2028              		.section	.text.UI_ShowSelector,"ax",%progbits
 2029              		.align	1
 2030              		.global	UI_ShowSelector
 2031              		.syntax unified
 2032              		.thumb
 2033              		.thumb_func
 2034              		.fpu fpv4-sp-d16
 2036              	UI_ShowSelector:
 2037              	.LVL171:
 2038              	.LFB2:
 111:Dsp/widget/wgt_core/UI_Controller.c ****     /* button selector coordinate */
ARM GAS  /var/folders/lx/hc4sn_b53233_zkc9xbbl97r0000gp/T//ccKzY9YJ.s 			page 51


 2039              		.loc 1 111 1 is_stmt 1 view -0
 2040              		.cfi_startproc
 2041              		@ args = 0, pretend = 0, frame = 0
 2042              		@ frame_needed = 0, uses_anonymous_args = 0
 111:Dsp/widget/wgt_core/UI_Controller.c ****     /* button selector coordinate */
 2043              		.loc 1 111 1 is_stmt 0 view .LVU562
 2044 0000 2DE9F047 		push	{r4, r5, r6, r7, r8, r9, r10, lr}
 2045              	.LCFI40:
 2046              		.cfi_def_cfa_offset 32
 2047              		.cfi_offset 4, -32
 2048              		.cfi_offset 5, -28
 2049              		.cfi_offset 6, -24
 2050              		.cfi_offset 7, -20
 2051              		.cfi_offset 8, -16
 2052              		.cfi_offset 9, -12
 2053              		.cfi_offset 10, -8
 2054              		.cfi_offset 14, -4
 2055 0004 82B0     		sub	sp, sp, #8
 2056              	.LCFI41:
 2057              		.cfi_def_cfa_offset 40
 2058 0006 0446     		mov	r4, r0
 113:Dsp/widget/wgt_core/UI_Controller.c ****     int16_t Btn_Slct_LftUp_Y = 0;
 2059              		.loc 1 113 5 is_stmt 1 view .LVU563
 2060              	.LVL172:
 114:Dsp/widget/wgt_core/UI_Controller.c ****     int16_t Btn_Slct_LftDwn_X = 0;
 2061              		.loc 1 114 5 view .LVU564
 115:Dsp/widget/wgt_core/UI_Controller.c ****     int16_t Btn_Slct_LftDwn_Y = 0;
 2062              		.loc 1 115 5 view .LVU565
 116:Dsp/widget/wgt_core/UI_Controller.c ****     int16_t Btn_Slct_RgtUp_X = 0;
 2063              		.loc 1 116 5 view .LVU566
 117:Dsp/widget/wgt_core/UI_Controller.c ****     int16_t Btn_Slct_RgtUp_Y = 0;
 2064              		.loc 1 117 5 view .LVU567
 118:Dsp/widget/wgt_core/UI_Controller.c ****     int16_t Btn_Slct_RgtDwn_X = 0;
 2065              		.loc 1 118 5 view .LVU568
 119:Dsp/widget/wgt_core/UI_Controller.c ****     int16_t Btn_Slct_RgtDwn_Y = 0;
 2066              		.loc 1 119 5 view .LVU569
 120:Dsp/widget/wgt_core/UI_Controller.c **** 
 2067              		.loc 1 120 5 view .LVU570
 123:Dsp/widget/wgt_core/UI_Controller.c ****     int16_t block_y;
 2068              		.loc 1 123 5 view .LVU571
 124:Dsp/widget/wgt_core/UI_Controller.c **** 
 2069              		.loc 1 124 5 view .LVU572
 126:Dsp/widget/wgt_core/UI_Controller.c **** 
 2070              		.loc 1 126 5 view .LVU573
 128:Dsp/widget/wgt_core/UI_Controller.c ****     {
 2071              		.loc 1 128 5 view .LVU574
 128:Dsp/widget/wgt_core/UI_Controller.c ****     {
 2072              		.loc 1 128 28 is_stmt 0 view .LVU575
 2073 0008 474B     		ldr	r3, .L193
 2074 000a 1B68     		ldr	r3, [r3]
 128:Dsp/widget/wgt_core/UI_Controller.c ****     {
 2075              		.loc 1 128 8 view .LVU576
 2076 000c 93B1     		cbz	r3, .L185
 130:Dsp/widget/wgt_core/UI_Controller.c **** 
 2077              		.loc 1 130 9 is_stmt 1 view .LVU577
 130:Dsp/widget/wgt_core/UI_Controller.c **** 
 2078              		.loc 1 130 24 is_stmt 0 view .LVU578
ARM GAS  /var/folders/lx/hc4sn_b53233_zkc9xbbl97r0000gp/T//ccKzY9YJ.s 			page 52


 2079 000e 9847     		blx	r3
 2080              	.LVL173:
 132:Dsp/widget/wgt_core/UI_Controller.c ****             return false;
 2081              		.loc 1 132 9 is_stmt 1 view .LVU579
 132:Dsp/widget/wgt_core/UI_Controller.c ****             return false;
 2082              		.loc 1 132 12 is_stmt 0 view .LVU580
 2083 0010 0546     		mov	r5, r0
 2084 0012 0028     		cmp	r0, #0
 2085 0014 00F08280 		beq	.L191
 2086              	.LVL174:
 2087              	.L180:
 136:Dsp/widget/wgt_core/UI_Controller.c ****         return false;
 2088              		.loc 1 136 5 is_stmt 1 view .LVU581
 136:Dsp/widget/wgt_core/UI_Controller.c ****         return false;
 2089              		.loc 1 136 8 is_stmt 0 view .LVU582
 2090 0018 002C     		cmp	r4, #0
 2091 001a 00F08180 		beq	.L187
 139:Dsp/widget/wgt_core/UI_Controller.c ****     {
 2092              		.loc 1 139 5 is_stmt 1 view .LVU583
 139:Dsp/widget/wgt_core/UI_Controller.c ****     {
 2093              		.loc 1 139 27 is_stmt 0 view .LVU584
 2094 001e 2378     		ldrb	r3, [r4]	@ zero_extendqisi2
 139:Dsp/widget/wgt_core/UI_Controller.c ****     {
 2095              		.loc 1 139 5 view .LVU585
 2096 0020 012B     		cmp	r3, #1
 2097 0022 45D0     		beq	.L182
 2098 0024 022B     		cmp	r3, #2
 2099 0026 53D0     		beq	.L183
 2100 0028 33B1     		cbz	r3, .L192
 2101 002a 0124     		movs	r4, #1
 2102              	.LVL175:
 2103              	.L181:
 194:Dsp/widget/wgt_core/UI_Controller.c **** 
 2104              		.loc 1 194 1 view .LVU586
 2105 002c 2046     		mov	r0, r4
 2106 002e 02B0     		add	sp, sp, #8
 2107              	.LCFI42:
 2108              		.cfi_remember_state
 2109              		.cfi_def_cfa_offset 32
 2110              		@ sp needed
 2111 0030 BDE8F087 		pop	{r4, r5, r6, r7, r8, r9, r10, pc}
 2112              	.LVL176:
 2113              	.L185:
 2114              	.LCFI43:
 2115              		.cfi_restore_state
 126:Dsp/widget/wgt_core/UI_Controller.c **** 
 2116              		.loc 1 126 13 view .LVU587
 2117 0034 8025     		movs	r5, #128
 2118 0036 EFE7     		b	.L180
 2119              	.LVL177:
 2120              	.L192:
 143:Dsp/widget/wgt_core/UI_Controller.c ****             return false;
 2121              		.loc 1 143 9 is_stmt 1 view .LVU588
 143:Dsp/widget/wgt_core/UI_Controller.c ****             return false;
 2122              		.loc 1 143 28 is_stmt 0 view .LVU589
 2123 0038 3C4B     		ldr	r3, .L193+4
 2124 003a 5B6A     		ldr	r3, [r3, #36]
ARM GAS  /var/folders/lx/hc4sn_b53233_zkc9xbbl97r0000gp/T//ccKzY9YJ.s 			page 53


 143:Dsp/widget/wgt_core/UI_Controller.c ****             return false;
 2125              		.loc 1 143 12 view .LVU590
 2126 003c 002B     		cmp	r3, #0
 2127 003e 71D0     		beq	.L189
 147:Dsp/widget/wgt_core/UI_Controller.c ****         Btn_Slct_LftUp_Y = HandleToButtonObj(item->Handler)->Gen_Data.y + HandleToButtonObj(item->H
 2128              		.loc 1 147 9 is_stmt 1 view .LVU591
 147:Dsp/widget/wgt_core/UI_Controller.c ****         Btn_Slct_LftUp_Y = HandleToButtonObj(item->Handler)->Gen_Data.y + HandleToButtonObj(item->H
 2129              		.loc 1 147 28 is_stmt 0 view .LVU592
 2130 0040 6268     		ldr	r2, [r4, #4]
 147:Dsp/widget/wgt_core/UI_Controller.c ****         Btn_Slct_LftUp_Y = HandleToButtonObj(item->Handler)->Gen_Data.y + HandleToButtonObj(item->H
 2131              		.loc 1 147 26 view .LVU593
 2132 0042 B2F90460 		ldrsh	r6, [r2, #4]	@ unaligned
 2133 0046 0FFA86F9 		sxth	r9, r6
 2134              	.LVL178:
 148:Dsp/widget/wgt_core/UI_Controller.c **** 
 2135              		.loc 1 148 9 is_stmt 1 view .LVU594
 148:Dsp/widget/wgt_core/UI_Controller.c **** 
 2136              		.loc 1 148 70 is_stmt 0 view .LVU595
 2137 004a B2F90630 		ldrsh	r3, [r2, #6]	@ unaligned
 2138 004e 0FFA83F8 		sxth	r8, r3
 148:Dsp/widget/wgt_core/UI_Controller.c **** 
 2139              		.loc 1 148 107 view .LVU596
 2140 0052 92F82050 		ldrb	r5, [r2, #32]	@ zero_extendqisi2
 2141              	.LVL179:
 148:Dsp/widget/wgt_core/UI_Controller.c **** 
 2142              		.loc 1 148 73 view .LVU597
 2143 0056 15FA83F5 		uxtah	r5, r5, r3
 2144 005a ADB2     		uxth	r5, r5
 148:Dsp/widget/wgt_core/UI_Controller.c **** 
 2145              		.loc 1 148 116 view .LVU598
 2146 005c 013D     		subs	r5, r5, #1
 148:Dsp/widget/wgt_core/UI_Controller.c **** 
 2147              		.loc 1 148 26 view .LVU599
 2148 005e 0FFA85FA 		sxth	r10, r5
 2149              	.LVL180:
 150:Dsp/widget/wgt_core/UI_Controller.c ****         Btn_Slct_LftDwn_Y = HandleToButtonObj(item->Handler)->Gen_Data.y;
 2150              		.loc 1 150 9 is_stmt 1 view .LVU600
 151:Dsp/widget/wgt_core/UI_Controller.c **** 
 2151              		.loc 1 151 9 view .LVU601
 153:Dsp/widget/wgt_core/UI_Controller.c ****         Btn_Slct_RgtUp_Y = Btn_Slct_LftUp_Y;
 2152              		.loc 1 153 9 view .LVU602
 153:Dsp/widget/wgt_core/UI_Controller.c ****         Btn_Slct_RgtUp_Y = Btn_Slct_LftUp_Y;
 2153              		.loc 1 153 107 is_stmt 0 view .LVU603
 2154 0062 D37F     		ldrb	r3, [r2, #31]	@ zero_extendqisi2
 2155              	.LVL181:
 153:Dsp/widget/wgt_core/UI_Controller.c ****         Btn_Slct_RgtUp_Y = Btn_Slct_LftUp_Y;
 2156              		.loc 1 153 73 view .LVU604
 2157 0064 13FA86F6 		uxtah	r6, r3, r6
 2158              	.LVL182:
 153:Dsp/widget/wgt_core/UI_Controller.c ****         Btn_Slct_RgtUp_Y = Btn_Slct_LftUp_Y;
 2159              		.loc 1 153 26 view .LVU605
 2160 0068 36B2     		sxth	r6, r6
 2161              	.LVL183:
 154:Dsp/widget/wgt_core/UI_Controller.c **** 
 2162              		.loc 1 154 9 is_stmt 1 view .LVU606
 156:Dsp/widget/wgt_core/UI_Controller.c ****         Btn_Slct_RgtDwn_Y = Btn_Slct_LftDwn_Y;
 2163              		.loc 1 156 9 view .LVU607
ARM GAS  /var/folders/lx/hc4sn_b53233_zkc9xbbl97r0000gp/T//ccKzY9YJ.s 			page 54


 157:Dsp/widget/wgt_core/UI_Controller.c **** 
 2164              		.loc 1 157 9 view .LVU608
 160:Dsp/widget/wgt_core/UI_Controller.c ****         UI_DspInterface.draw_circle_section(Btn_Slct_LftDwn_X, Btn_Slct_LftDwn_Y, BUTTON_SELECTOR_R
 2165              		.loc 1 160 9 view .LVU609
 160:Dsp/widget/wgt_core/UI_Controller.c ****         UI_DspInterface.draw_circle_section(Btn_Slct_LftDwn_X, Btn_Slct_LftDwn_Y, BUTTON_SELECTOR_R
 2166              		.loc 1 160 24 is_stmt 0 view .LVU610
 2167 006a 304F     		ldr	r7, .L193+4
 160:Dsp/widget/wgt_core/UI_Controller.c ****         UI_DspInterface.draw_circle_section(Btn_Slct_LftDwn_X, Btn_Slct_LftDwn_Y, BUTTON_SELECTOR_R
 2168              		.loc 1 160 9 view .LVU611
 2169 006c 0124     		movs	r4, #1
 2170              	.LVL184:
 160:Dsp/widget/wgt_core/UI_Controller.c ****         UI_DspInterface.draw_circle_section(Btn_Slct_LftDwn_X, Btn_Slct_LftDwn_Y, BUTTON_SELECTOR_R
 2171              		.loc 1 160 9 view .LVU612
 2172 006e 0194     		str	r4, [sp, #4]
 2173 0070 0094     		str	r4, [sp]
 2174 0072 0423     		movs	r3, #4
 2175 0074 0222     		movs	r2, #2
 2176 0076 5146     		mov	r1, r10
 2177 0078 4846     		mov	r0, r9
 2178 007a BD69     		ldr	r5, [r7, #24]
 2179 007c A847     		blx	r5
 2180              	.LVL185:
 161:Dsp/widget/wgt_core/UI_Controller.c ****         UI_DspInterface.draw_circle_section(Btn_Slct_RgtUp_X, Btn_Slct_RgtUp_Y, BUTTON_SELECTOR_RAD
 2181              		.loc 1 161 9 is_stmt 1 view .LVU613
 2182 007e 0194     		str	r4, [sp, #4]
 2183 0080 0094     		str	r4, [sp]
 2184 0082 0223     		movs	r3, #2
 2185 0084 1A46     		mov	r2, r3
 2186 0086 4146     		mov	r1, r8
 2187 0088 4846     		mov	r0, r9
 2188 008a BD69     		ldr	r5, [r7, #24]
 2189 008c A847     		blx	r5
 2190              	.LVL186:
 162:Dsp/widget/wgt_core/UI_Controller.c ****         UI_DspInterface.draw_circle_section(Btn_Slct_RgtDwn_X, Btn_Slct_RgtDwn_Y, BUTTON_SELECTOR_R
 2191              		.loc 1 162 9 view .LVU614
 2192 008e 0194     		str	r4, [sp, #4]
 2193 0090 0094     		str	r4, [sp]
 2194 0092 0823     		movs	r3, #8
 2195 0094 0222     		movs	r2, #2
 2196 0096 5146     		mov	r1, r10
 2197 0098 3046     		mov	r0, r6
 2198 009a BD69     		ldr	r5, [r7, #24]
 2199 009c A847     		blx	r5
 2200              	.LVL187:
 163:Dsp/widget/wgt_core/UI_Controller.c ****         break;
 2201              		.loc 1 163 9 view .LVU615
 163:Dsp/widget/wgt_core/UI_Controller.c ****         break;
 2202              		.loc 1 163 24 is_stmt 0 view .LVU616
 2203 009e BD69     		ldr	r5, [r7, #24]
 163:Dsp/widget/wgt_core/UI_Controller.c ****         break;
 2204              		.loc 1 163 9 view .LVU617
 2205 00a0 0194     		str	r4, [sp, #4]
 2206 00a2 0094     		str	r4, [sp]
 2207 00a4 2346     		mov	r3, r4
 2208 00a6 0222     		movs	r2, #2
 2209 00a8 4146     		mov	r1, r8
 2210 00aa 3046     		mov	r0, r6
ARM GAS  /var/folders/lx/hc4sn_b53233_zkc9xbbl97r0000gp/T//ccKzY9YJ.s 			page 55


 2211 00ac A847     		blx	r5
 2212              	.LVL188:
 164:Dsp/widget/wgt_core/UI_Controller.c **** 
 2213              		.loc 1 164 9 is_stmt 1 view .LVU618
 2214 00ae BDE7     		b	.L181
 2215              	.LVL189:
 2216              	.L182:
 167:Dsp/widget/wgt_core/UI_Controller.c ****         block_y = HandleToCheckBoxObj(item->Handler)->Gen_Data.y + 1;
 2217              		.loc 1 167 9 view .LVU619
 167:Dsp/widget/wgt_core/UI_Controller.c ****         block_y = HandleToCheckBoxObj(item->Handler)->Gen_Data.y + 1;
 2218              		.loc 1 167 19 is_stmt 0 view .LVU620
 2219 00b0 6368     		ldr	r3, [r4, #4]
 167:Dsp/widget/wgt_core/UI_Controller.c ****         block_y = HandleToCheckBoxObj(item->Handler)->Gen_Data.y + 1;
 2220              		.loc 1 167 63 view .LVU621
 2221 00b2 9888     		ldrh	r0, [r3, #4]	@ unaligned
 167:Dsp/widget/wgt_core/UI_Controller.c ****         block_y = HandleToCheckBoxObj(item->Handler)->Gen_Data.y + 1;
 2222              		.loc 1 167 66 view .LVU622
 2223 00b4 0330     		adds	r0, r0, #3
 2224              	.LVL190:
 168:Dsp/widget/wgt_core/UI_Controller.c **** 
 2225              		.loc 1 168 9 is_stmt 1 view .LVU623
 168:Dsp/widget/wgt_core/UI_Controller.c **** 
 2226              		.loc 1 168 63 is_stmt 0 view .LVU624
 2227 00b6 D988     		ldrh	r1, [r3, #6]	@ unaligned
 168:Dsp/widget/wgt_core/UI_Controller.c **** 
 2228              		.loc 1 168 66 view .LVU625
 2229 00b8 0131     		adds	r1, r1, #1
 2230              	.LVL191:
 170:Dsp/widget/wgt_core/UI_Controller.c ****         break;
 2231              		.loc 1 170 9 is_stmt 1 view .LVU626
 170:Dsp/widget/wgt_core/UI_Controller.c ****         break;
 2232              		.loc 1 170 24 is_stmt 0 view .LVU627
 2233 00ba 1C4B     		ldr	r3, .L193+4
 2234 00bc DE69     		ldr	r6, [r3, #28]
 170:Dsp/widget/wgt_core/UI_Controller.c ****         break;
 2235              		.loc 1 170 9 view .LVU628
 2236 00be AA1F     		subs	r2, r5, #6
 2237 00c0 0124     		movs	r4, #1
 2238              	.LVL192:
 170:Dsp/widget/wgt_core/UI_Controller.c ****         break;
 2239              		.loc 1 170 9 view .LVU629
 2240 00c2 0094     		str	r4, [sp]
 2241 00c4 0B23     		movs	r3, #11
 2242 00c6 D2B2     		uxtb	r2, r2
 2243 00c8 09B2     		sxth	r1, r1
 170:Dsp/widget/wgt_core/UI_Controller.c ****         break;
 2244              		.loc 1 170 9 view .LVU630
 2245 00ca 00B2     		sxth	r0, r0
 170:Dsp/widget/wgt_core/UI_Controller.c ****         break;
 2246              		.loc 1 170 9 view .LVU631
 2247 00cc B047     		blx	r6
 2248              	.LVL193:
 171:Dsp/widget/wgt_core/UI_Controller.c **** 
 2249              		.loc 1 171 9 is_stmt 1 view .LVU632
 2250 00ce ADE7     		b	.L181
 2251              	.LVL194:
 2252              	.L183:
ARM GAS  /var/folders/lx/hc4sn_b53233_zkc9xbbl97r0000gp/T//ccKzY9YJ.s 			page 56


 174:Dsp/widget/wgt_core/UI_Controller.c **** 
 2253              		.loc 1 174 9 view .LVU633
 174:Dsp/widget/wgt_core/UI_Controller.c **** 
 2254              		.loc 1 174 19 is_stmt 0 view .LVU634
 2255 00d0 6668     		ldr	r6, [r4, #4]
 174:Dsp/widget/wgt_core/UI_Controller.c **** 
 2256              		.loc 1 174 63 view .LVU635
 2257 00d2 F188     		ldrh	r1, [r6, #6]	@ unaligned
 174:Dsp/widget/wgt_core/UI_Controller.c **** 
 2258              		.loc 1 174 66 view .LVU636
 2259 00d4 0131     		adds	r1, r1, #1
 174:Dsp/widget/wgt_core/UI_Controller.c **** 
 2260              		.loc 1 174 17 view .LVU637
 2261 00d6 0FB2     		sxth	r7, r1
 2262              	.LVL195:
 176:Dsp/widget/wgt_core/UI_Controller.c ****         {
 2263              		.loc 1 176 9 is_stmt 1 view .LVU638
 176:Dsp/widget/wgt_core/UI_Controller.c ****         {
 2264              		.loc 1 176 14 is_stmt 0 view .LVU639
 2265 00d8 3046     		mov	r0, r6
 2266 00da FFF7FEFF 		bl	UI_SlideBar_IsSelected
 2267              	.LVL196:
 176:Dsp/widget/wgt_core/UI_Controller.c ****         {
 2268              		.loc 1 176 12 view .LVU640
 2269 00de 0446     		mov	r4, r0
 2270              	.LVL197:
 176:Dsp/widget/wgt_core/UI_Controller.c ****         {
 2271              		.loc 1 176 12 view .LVU641
 2272 00e0 60B9     		cbnz	r0, .L184
 178:Dsp/widget/wgt_core/UI_Controller.c **** 
 2273              		.loc 1 178 13 is_stmt 1 view .LVU642
 178:Dsp/widget/wgt_core/UI_Controller.c **** 
 2274              		.loc 1 178 67 is_stmt 0 view .LVU643
 2275 00e2 B088     		ldrh	r0, [r6, #4]	@ unaligned
 178:Dsp/widget/wgt_core/UI_Controller.c **** 
 2276              		.loc 1 178 70 view .LVU644
 2277 00e4 0330     		adds	r0, r0, #3
 2278              	.LVL198:
 180:Dsp/widget/wgt_core/UI_Controller.c ****         }
 2279              		.loc 1 180 13 is_stmt 1 view .LVU645
 180:Dsp/widget/wgt_core/UI_Controller.c ****         }
 2280              		.loc 1 180 28 is_stmt 0 view .LVU646
 2281 00e6 114B     		ldr	r3, .L193+4
 2282 00e8 DE69     		ldr	r6, [r3, #28]
 180:Dsp/widget/wgt_core/UI_Controller.c ****         }
 2283              		.loc 1 180 13 view .LVU647
 2284 00ea AA1F     		subs	r2, r5, #6
 2285 00ec 0124     		movs	r4, #1
 2286 00ee 0094     		str	r4, [sp]
 2287 00f0 0B23     		movs	r3, #11
 2288 00f2 D2B2     		uxtb	r2, r2
 2289 00f4 3946     		mov	r1, r7
 2290 00f6 00B2     		sxth	r0, r0
 180:Dsp/widget/wgt_core/UI_Controller.c ****         }
 2291              		.loc 1 180 13 view .LVU648
 2292 00f8 B047     		blx	r6
 2293              	.LVL199:
ARM GAS  /var/folders/lx/hc4sn_b53233_zkc9xbbl97r0000gp/T//ccKzY9YJ.s 			page 57


 180:Dsp/widget/wgt_core/UI_Controller.c ****         }
 2294              		.loc 1 180 13 view .LVU649
 2295 00fa 97E7     		b	.L181
 2296              	.L184:
 184:Dsp/widget/wgt_core/UI_Controller.c **** 
 2297              		.loc 1 184 13 is_stmt 1 view .LVU650
 184:Dsp/widget/wgt_core/UI_Controller.c **** 
 2298              		.loc 1 184 57 is_stmt 0 view .LVU651
 2299 00fc B08C     		ldrh	r0, [r6, #36]	@ unaligned
 184:Dsp/widget/wgt_core/UI_Controller.c **** 
 2300              		.loc 1 184 70 view .LVU652
 2301 00fe 0338     		subs	r0, r0, #3
 2302 0100 82B2     		uxth	r2, r0
 2303              	.LVL200:
 186:Dsp/widget/wgt_core/UI_Controller.c ****         }
 2304              		.loc 1 186 13 is_stmt 1 view .LVU653
 186:Dsp/widget/wgt_core/UI_Controller.c ****         }
 2305              		.loc 1 186 28 is_stmt 0 view .LVU654
 2306 0102 0A4B     		ldr	r3, .L193+4
 2307 0104 DE69     		ldr	r6, [r3, #28]
 186:Dsp/widget/wgt_core/UI_Controller.c ****         }
 2308              		.loc 1 186 76 view .LVU655
 2309 0106 AA1A     		subs	r2, r5, r2
 2310 0108 D2B2     		uxtb	r2, r2
 186:Dsp/widget/wgt_core/UI_Controller.c ****         }
 2311              		.loc 1 186 13 view .LVU656
 2312 010a 063A     		subs	r2, r2, #6
 2313 010c 0123     		movs	r3, #1
 2314 010e 0093     		str	r3, [sp]
 2315 0110 0B23     		movs	r3, #11
 2316 0112 D2B2     		uxtb	r2, r2
 2317 0114 3946     		mov	r1, r7
 2318 0116 00B2     		sxth	r0, r0
 186:Dsp/widget/wgt_core/UI_Controller.c ****         }
 2319              		.loc 1 186 13 view .LVU657
 2320 0118 B047     		blx	r6
 2321              	.LVL201:
 186:Dsp/widget/wgt_core/UI_Controller.c ****         }
 2322              		.loc 1 186 13 view .LVU658
 2323 011a 87E7     		b	.L181
 2324              	.LVL202:
 2325              	.L191:
 133:Dsp/widget/wgt_core/UI_Controller.c ****     }
 2326              		.loc 1 133 20 view .LVU659
 2327 011c 0024     		movs	r4, #0
 2328              	.LVL203:
 133:Dsp/widget/wgt_core/UI_Controller.c ****     }
 2329              		.loc 1 133 20 view .LVU660
 2330 011e 85E7     		b	.L181
 2331              	.LVL204:
 2332              	.L187:
 137:Dsp/widget/wgt_core/UI_Controller.c **** 
 2333              		.loc 1 137 16 view .LVU661
 2334 0120 0024     		movs	r4, #0
 2335              	.LVL205:
 137:Dsp/widget/wgt_core/UI_Controller.c **** 
 2336              		.loc 1 137 16 view .LVU662
ARM GAS  /var/folders/lx/hc4sn_b53233_zkc9xbbl97r0000gp/T//ccKzY9YJ.s 			page 58


 2337 0122 83E7     		b	.L181
 2338              	.LVL206:
 2339              	.L189:
 144:Dsp/widget/wgt_core/UI_Controller.c **** 
 2340              		.loc 1 144 20 view .LVU663
 2341 0124 0024     		movs	r4, #0
 2342              	.LVL207:
 144:Dsp/widget/wgt_core/UI_Controller.c **** 
 2343              		.loc 1 144 20 view .LVU664
 2344 0126 81E7     		b	.L181
 2345              	.L194:
 2346              		.align	2
 2347              	.L193:
 2348 0128 00000000 		.word	.LANCHOR1
 2349 012c 00000000 		.word	.LANCHOR0
 2350              		.cfi_endproc
 2351              	.LFE2:
 2353              		.global	UI_SlideBar
 2354              		.global	UI_CheckBox
 2355              		.global	UI_Button
 2356              		.global	UI_Get_WidgetWidth
 2357              		.section	.bss.UI_DspInterface,"aw",%nobits
 2358              		.align	2
 2359              		.set	.LANCHOR0,. + 0
 2362              	UI_DspInterface:
 2363 0000 00000000 		.space	44
 2363      00000000 
 2363      00000000 
 2363      00000000 
 2363      00000000 
 2364              		.section	.bss.UI_Get_WidgetWidth,"aw",%nobits
 2365              		.align	2
 2366              		.set	.LANCHOR1,. + 0
 2369              	UI_Get_WidgetWidth:
 2370 0000 00000000 		.space	4
 2371              		.section	.data.UI_Button,"aw"
 2372              		.align	2
 2375              	UI_Button:
 2376 0000 00000000 		.word	UI_Button_Init
 2377 0004 00000000 		.word	UI_Button_Set_TriggerCallback
 2378 0008 00000000 		.word	UI_Button_Set_Label
 2379 000c 00000000 		.word	UI_Button_Push
 2380 0010 00000000 		.word	UI_Button_Release
 2381 0014 00000000 		.word	UI_Button_Ctl
 2382 0018 00000000 		.word	UI_Button_Move
 2383              		.section	.data.UI_CheckBox,"aw"
 2384              		.align	2
 2387              	UI_CheckBox:
 2388 0000 00000000 		.word	UI_CheckBox_Init
 2389 0004 00000000 		.word	UI_CheckBox_SetCallback
 2390 0008 00000000 		.word	UI_CheckBox_Move
 2391 000c 00000000 		.word	UI_CheckBox_Trigger
 2392 0010 00000000 		.word	UI_CheckBox_Ctl
 2393              		.section	.data.UI_SlideBar,"aw"
 2394              		.align	2
 2397              	UI_SlideBar:
 2398 0000 00000000 		.word	UI_SlideBar_Init
ARM GAS  /var/folders/lx/hc4sn_b53233_zkc9xbbl97r0000gp/T//ccKzY9YJ.s 			page 59


 2399 0004 00000000 		.word	UI_SlideBar_SetCallBack
 2400 0008 00000000 		.word	UI_SlideBar_Move
 2401 000c 00000000 		.word	UI_SlideBar_Input
 2402 0010 00000000 		.word	UI_SlideBar_Trigger
 2403 0014 00000000 		.word	UI_SlideBar_CTL
 2404 0018 00000000 		.word	UI_SlideBar_IsSelected
 2405 001c 00000000 		.word	UI_SlideBar_SetSelect
 2406              		.text
 2407              	.Letext0:
 2408              		.file 2 "/usr/local/arm-none-eabi-gcc/gcc-arm-none-eabi-10-2020-q4-major/arm-none-eabi/include/mac
 2409              		.file 3 "/usr/local/arm-none-eabi-gcc/gcc-arm-none-eabi-10-2020-q4-major/arm-none-eabi/include/sys
 2410              		.file 4 "Dsp/widget/wgt_core/UI_Controller.h"
 2411              		.file 5 "Dsp/screen/font/oledfont.h"
 2412              		.file 6 "/usr/local/arm-none-eabi-gcc/gcc-arm-none-eabi-10-2020-q4-major/arm-none-eabi/include/str
ARM GAS  /var/folders/lx/hc4sn_b53233_zkc9xbbl97r0000gp/T//ccKzY9YJ.s 			page 60


DEFINED SYMBOLS
                            *ABS*:0000000000000000 UI_Controller.c
/var/folders/lx/hc4sn_b53233_zkc9xbbl97r0000gp/T//ccKzY9YJ.s:18     .text.UI_GenData_Init:0000000000000000 $t
/var/folders/lx/hc4sn_b53233_zkc9xbbl97r0000gp/T//ccKzY9YJ.s:25     .text.UI_GenData_Init:0000000000000000 UI_GenData_Init
/var/folders/lx/hc4sn_b53233_zkc9xbbl97r0000gp/T//ccKzY9YJ.s:55     .text.UI_Move:0000000000000000 $t
/var/folders/lx/hc4sn_b53233_zkc9xbbl97r0000gp/T//ccKzY9YJ.s:61     .text.UI_Move:0000000000000000 UI_Move
/var/folders/lx/hc4sn_b53233_zkc9xbbl97r0000gp/T//ccKzY9YJ.s:95     .rodata.UI_Button_Init.str1.4:0000000000000000 $d
/var/folders/lx/hc4sn_b53233_zkc9xbbl97r0000gp/T//ccKzY9YJ.s:102    .text.UI_Button_Init:0000000000000000 $t
/var/folders/lx/hc4sn_b53233_zkc9xbbl97r0000gp/T//ccKzY9YJ.s:108    .text.UI_Button_Init:0000000000000000 UI_Button_Init
/var/folders/lx/hc4sn_b53233_zkc9xbbl97r0000gp/T//ccKzY9YJ.s:175    .text.UI_Button_Init:0000000000000040 $d
/var/folders/lx/hc4sn_b53233_zkc9xbbl97r0000gp/T//ccKzY9YJ.s:181    .text.UI_Button_Set_Label:0000000000000000 $t
/var/folders/lx/hc4sn_b53233_zkc9xbbl97r0000gp/T//ccKzY9YJ.s:187    .text.UI_Button_Set_Label:0000000000000000 UI_Button_Set_Label
/var/folders/lx/hc4sn_b53233_zkc9xbbl97r0000gp/T//ccKzY9YJ.s:231    .text.UI_Button_Set_TriggerCallback:0000000000000000 $t
/var/folders/lx/hc4sn_b53233_zkc9xbbl97r0000gp/T//ccKzY9YJ.s:237    .text.UI_Button_Set_TriggerCallback:0000000000000000 UI_Button_Set_TriggerCallback
/var/folders/lx/hc4sn_b53233_zkc9xbbl97r0000gp/T//ccKzY9YJ.s:291    .text.UI_Button_Push:0000000000000000 $t
/var/folders/lx/hc4sn_b53233_zkc9xbbl97r0000gp/T//ccKzY9YJ.s:297    .text.UI_Button_Push:0000000000000000 UI_Button_Push
/var/folders/lx/hc4sn_b53233_zkc9xbbl97r0000gp/T//ccKzY9YJ.s:414    .text.UI_Button_Release:0000000000000000 $t
/var/folders/lx/hc4sn_b53233_zkc9xbbl97r0000gp/T//ccKzY9YJ.s:420    .text.UI_Button_Release:0000000000000000 UI_Button_Release
/var/folders/lx/hc4sn_b53233_zkc9xbbl97r0000gp/T//ccKzY9YJ.s:506    .text.UI_Button_Move:0000000000000000 $t
/var/folders/lx/hc4sn_b53233_zkc9xbbl97r0000gp/T//ccKzY9YJ.s:512    .text.UI_Button_Move:0000000000000000 UI_Button_Move
/var/folders/lx/hc4sn_b53233_zkc9xbbl97r0000gp/T//ccKzY9YJ.s:553    .text.UI_Button_Ctl:0000000000000000 $t
/var/folders/lx/hc4sn_b53233_zkc9xbbl97r0000gp/T//ccKzY9YJ.s:559    .text.UI_Button_Ctl:0000000000000000 UI_Button_Ctl
/var/folders/lx/hc4sn_b53233_zkc9xbbl97r0000gp/T//ccKzY9YJ.s:815    .text.UI_Button_Ctl:0000000000000108 $d
/var/folders/lx/hc4sn_b53233_zkc9xbbl97r0000gp/T//ccKzY9YJ.s:820    .text.UI_CheckBox_Init:0000000000000000 $t
/var/folders/lx/hc4sn_b53233_zkc9xbbl97r0000gp/T//ccKzY9YJ.s:826    .text.UI_CheckBox_Init:0000000000000000 UI_CheckBox_Init
/var/folders/lx/hc4sn_b53233_zkc9xbbl97r0000gp/T//ccKzY9YJ.s:877    .text.UI_CheckBox_SetCallback:0000000000000000 $t
/var/folders/lx/hc4sn_b53233_zkc9xbbl97r0000gp/T//ccKzY9YJ.s:883    .text.UI_CheckBox_SetCallback:0000000000000000 UI_CheckBox_SetCallback
/var/folders/lx/hc4sn_b53233_zkc9xbbl97r0000gp/T//ccKzY9YJ.s:914    .text.UI_CheckBox_Move:0000000000000000 $t
/var/folders/lx/hc4sn_b53233_zkc9xbbl97r0000gp/T//ccKzY9YJ.s:920    .text.UI_CheckBox_Move:0000000000000000 UI_CheckBox_Move
/var/folders/lx/hc4sn_b53233_zkc9xbbl97r0000gp/T//ccKzY9YJ.s:957    .text.UI_CheckBox_Trigger:0000000000000000 $t
/var/folders/lx/hc4sn_b53233_zkc9xbbl97r0000gp/T//ccKzY9YJ.s:963    .text.UI_CheckBox_Trigger:0000000000000000 UI_CheckBox_Trigger
/var/folders/lx/hc4sn_b53233_zkc9xbbl97r0000gp/T//ccKzY9YJ.s:1025   .text.UI_SlideBar_Init:0000000000000000 $t
/var/folders/lx/hc4sn_b53233_zkc9xbbl97r0000gp/T//ccKzY9YJ.s:1031   .text.UI_SlideBar_Init:0000000000000000 UI_SlideBar_Init
/var/folders/lx/hc4sn_b53233_zkc9xbbl97r0000gp/T//ccKzY9YJ.s:1177   .text.UI_SlideBar_Move:0000000000000000 $t
/var/folders/lx/hc4sn_b53233_zkc9xbbl97r0000gp/T//ccKzY9YJ.s:1183   .text.UI_SlideBar_Move:0000000000000000 UI_SlideBar_Move
/var/folders/lx/hc4sn_b53233_zkc9xbbl97r0000gp/T//ccKzY9YJ.s:1220   .text.UI_SlideBar_SetCallBack:0000000000000000 $t
/var/folders/lx/hc4sn_b53233_zkc9xbbl97r0000gp/T//ccKzY9YJ.s:1226   .text.UI_SlideBar_SetCallBack:0000000000000000 UI_SlideBar_SetCallBack
/var/folders/lx/hc4sn_b53233_zkc9xbbl97r0000gp/T//ccKzY9YJ.s:1257   .text.UI_SlideBar_Input:0000000000000000 $t
/var/folders/lx/hc4sn_b53233_zkc9xbbl97r0000gp/T//ccKzY9YJ.s:1263   .text.UI_SlideBar_Input:0000000000000000 UI_SlideBar_Input
/var/folders/lx/hc4sn_b53233_zkc9xbbl97r0000gp/T//ccKzY9YJ.s:1356   .text.UI_SlideBar_Trigger:0000000000000000 $t
/var/folders/lx/hc4sn_b53233_zkc9xbbl97r0000gp/T//ccKzY9YJ.s:1362   .text.UI_SlideBar_Trigger:0000000000000000 UI_SlideBar_Trigger
/var/folders/lx/hc4sn_b53233_zkc9xbbl97r0000gp/T//ccKzY9YJ.s:1426   .text.UI_SlideBar_SetSelect:0000000000000000 $t
/var/folders/lx/hc4sn_b53233_zkc9xbbl97r0000gp/T//ccKzY9YJ.s:1432   .text.UI_SlideBar_SetSelect:0000000000000000 UI_SlideBar_SetSelect
/var/folders/lx/hc4sn_b53233_zkc9xbbl97r0000gp/T//ccKzY9YJ.s:1454   .text.UI_SlideBar_IsSelected:0000000000000000 $t
/var/folders/lx/hc4sn_b53233_zkc9xbbl97r0000gp/T//ccKzY9YJ.s:1460   .text.UI_SlideBar_IsSelected:0000000000000000 UI_SlideBar_IsSelected
/var/folders/lx/hc4sn_b53233_zkc9xbbl97r0000gp/T//ccKzY9YJ.s:1488   .text.UI_CheckBox_Ctl:0000000000000000 $t
/var/folders/lx/hc4sn_b53233_zkc9xbbl97r0000gp/T//ccKzY9YJ.s:1494   .text.UI_CheckBox_Ctl:0000000000000000 UI_CheckBox_Ctl
/var/folders/lx/hc4sn_b53233_zkc9xbbl97r0000gp/T//ccKzY9YJ.s:1654   .text.UI_CheckBox_Ctl:00000000000000a8 $d
/var/folders/lx/hc4sn_b53233_zkc9xbbl97r0000gp/T//ccKzY9YJ.s:1659   .text.UI_SlideBar_CTL:0000000000000000 $t
/var/folders/lx/hc4sn_b53233_zkc9xbbl97r0000gp/T//ccKzY9YJ.s:1665   .text.UI_SlideBar_CTL:0000000000000000 UI_SlideBar_CTL
/var/folders/lx/hc4sn_b53233_zkc9xbbl97r0000gp/T//ccKzY9YJ.s:1913   .text.UI_SlideBar_CTL:0000000000000110 $d
/var/folders/lx/hc4sn_b53233_zkc9xbbl97r0000gp/T//ccKzY9YJ.s:1919   .text.UI_Set_DspInterface:0000000000000000 $t
/var/folders/lx/hc4sn_b53233_zkc9xbbl97r0000gp/T//ccKzY9YJ.s:1926   .text.UI_Set_DspInterface:0000000000000000 UI_Set_DspInterface
/var/folders/lx/hc4sn_b53233_zkc9xbbl97r0000gp/T//ccKzY9YJ.s:1995   .text.UI_Set_DspInterface:000000000000002c $d
/var/folders/lx/hc4sn_b53233_zkc9xbbl97r0000gp/T//ccKzY9YJ.s:2000   .text.UI_Set_GetWidgetWidthMathod:0000000000000000 $t
/var/folders/lx/hc4sn_b53233_zkc9xbbl97r0000gp/T//ccKzY9YJ.s:2007   .text.UI_Set_GetWidgetWidthMathod:0000000000000000 UI_Set_GetWidgetWidthMathod
/var/folders/lx/hc4sn_b53233_zkc9xbbl97r0000gp/T//ccKzY9YJ.s:2024   .text.UI_Set_GetWidgetWidthMathod:0000000000000008 $d
ARM GAS  /var/folders/lx/hc4sn_b53233_zkc9xbbl97r0000gp/T//ccKzY9YJ.s 			page 61


/var/folders/lx/hc4sn_b53233_zkc9xbbl97r0000gp/T//ccKzY9YJ.s:2029   .text.UI_ShowSelector:0000000000000000 $t
/var/folders/lx/hc4sn_b53233_zkc9xbbl97r0000gp/T//ccKzY9YJ.s:2036   .text.UI_ShowSelector:0000000000000000 UI_ShowSelector
/var/folders/lx/hc4sn_b53233_zkc9xbbl97r0000gp/T//ccKzY9YJ.s:2348   .text.UI_ShowSelector:0000000000000128 $d
/var/folders/lx/hc4sn_b53233_zkc9xbbl97r0000gp/T//ccKzY9YJ.s:2397   .data.UI_SlideBar:0000000000000000 UI_SlideBar
/var/folders/lx/hc4sn_b53233_zkc9xbbl97r0000gp/T//ccKzY9YJ.s:2387   .data.UI_CheckBox:0000000000000000 UI_CheckBox
/var/folders/lx/hc4sn_b53233_zkc9xbbl97r0000gp/T//ccKzY9YJ.s:2375   .data.UI_Button:0000000000000000 UI_Button
/var/folders/lx/hc4sn_b53233_zkc9xbbl97r0000gp/T//ccKzY9YJ.s:2369   .bss.UI_Get_WidgetWidth:0000000000000000 UI_Get_WidgetWidth
/var/folders/lx/hc4sn_b53233_zkc9xbbl97r0000gp/T//ccKzY9YJ.s:2358   .bss.UI_DspInterface:0000000000000000 $d
/var/folders/lx/hc4sn_b53233_zkc9xbbl97r0000gp/T//ccKzY9YJ.s:2362   .bss.UI_DspInterface:0000000000000000 UI_DspInterface
/var/folders/lx/hc4sn_b53233_zkc9xbbl97r0000gp/T//ccKzY9YJ.s:2365   .bss.UI_Get_WidgetWidth:0000000000000000 $d
/var/folders/lx/hc4sn_b53233_zkc9xbbl97r0000gp/T//ccKzY9YJ.s:2372   .data.UI_Button:0000000000000000 $d
/var/folders/lx/hc4sn_b53233_zkc9xbbl97r0000gp/T//ccKzY9YJ.s:2384   .data.UI_CheckBox:0000000000000000 $d
/var/folders/lx/hc4sn_b53233_zkc9xbbl97r0000gp/T//ccKzY9YJ.s:2394   .data.UI_SlideBar:0000000000000000 $d

UNDEFINED SYMBOLS
strlen
