ARM GAS  C:\Users\97116\AppData\Local\Temp\cc1M8sM0.s 			page 1


   1              		.cpu cortex-m4
   2              		.eabi_attribute 27, 1
   3              		.eabi_attribute 28, 1
   4              		.eabi_attribute 20, 1
   5              		.eabi_attribute 21, 1
   6              		.eabi_attribute 23, 3
   7              		.eabi_attribute 24, 1
   8              		.eabi_attribute 25, 1
   9              		.eabi_attribute 26, 1
  10              		.eabi_attribute 30, 1
  11              		.eabi_attribute 34, 1
  12              		.eabi_attribute 18, 4
  13              		.file	"UI_Controller.c"
  14              		.text
  15              	.Ltext0:
  16              		.cfi_sections	.debug_frame
  17              		.section	.text.UI_GenData_Init,"ax",%progbits
  18              		.align	1
  19              		.arch armv7e-m
  20              		.syntax unified
  21              		.thumb
  22              		.thumb_func
  23              		.fpu fpv4-sp-d16
  25              	UI_GenData_Init:
  26              	.LVL0:
  27              	.LFB2:
  28              		.file 1 "Dsp/widget/wgt_core/UI_Controller.c"
   1:Dsp/widget/wgt_core/UI_Controller.c **** #include "UI_Controller.h"
   2:Dsp/widget/wgt_core/UI_Controller.c **** #include "runtime.h"
   3:Dsp/widget/wgt_core/UI_Controller.c **** #include <stdlib.h>
   4:Dsp/widget/wgt_core/UI_Controller.c **** 
   5:Dsp/widget/wgt_core/UI_Controller.c **** /* internal object */
   6:Dsp/widget/wgt_core/UI_Controller.c **** static UI_DrawInterface_TypeDef UI_DspInterface;
   7:Dsp/widget/wgt_core/UI_Controller.c **** 
   8:Dsp/widget/wgt_core/UI_Controller.c **** /* external function */
   9:Dsp/widget/wgt_core/UI_Controller.c **** static bool UI_Button_Init(UI_ButtonObj_TypeDef *Obj, char *label, int8_t x, int8_t y, uint8_t widt
  10:Dsp/widget/wgt_core/UI_Controller.c **** static bool UI_Button_Set_Label(UI_ButtonObj_TypeDef *Obj, UI_Button_State_List state, char *label)
  11:Dsp/widget/wgt_core/UI_Controller.c **** static bool UI_Button_Set_TriggerCallback(UI_ButtonObj_TypeDef *Obj, UI_Button_Trigger_Type type, U
  12:Dsp/widget/wgt_core/UI_Controller.c **** static bool UI_Button_Push(UI_ButtonObj_TypeDef *Obj);
  13:Dsp/widget/wgt_core/UI_Controller.c **** static bool UI_Button_Release(UI_ButtonObj_TypeDef *Obj);
  14:Dsp/widget/wgt_core/UI_Controller.c **** static bool UI_Button_Move(UI_ButtonObj_TypeDef *Obj, uint8_t x, uint8_t y);
  15:Dsp/widget/wgt_core/UI_Controller.c **** static bool UI_Button_Ctl(UI_ButtonObj_TypeDef *Obj);
  16:Dsp/widget/wgt_core/UI_Controller.c **** 
  17:Dsp/widget/wgt_core/UI_Controller.c **** /* general function */
  18:Dsp/widget/wgt_core/UI_Controller.c **** static bool UI_Get_InitSate(UI_GeneralData_TypeDef GenData);
  19:Dsp/widget/wgt_core/UI_Controller.c **** static bool UI_Selecte(UI_GeneralData_TypeDef *GenData, bool select);
  20:Dsp/widget/wgt_core/UI_Controller.c **** static bool UI_Get_Selected(UI_GeneralData_TypeDef GenData);
  21:Dsp/widget/wgt_core/UI_Controller.c **** static bool UI_Move(UI_GeneralData_TypeDef *GenUI_Info, int8_t dst_x, int8_t dst_y);
  22:Dsp/widget/wgt_core/UI_Controller.c **** 
  23:Dsp/widget/wgt_core/UI_Controller.c **** /* external Object var */
  24:Dsp/widget/wgt_core/UI_Controller.c **** UI_Button_Interface_TypeDef UI_Button = {
  25:Dsp/widget/wgt_core/UI_Controller.c ****     .ctl = UI_Button_Ctl,
  26:Dsp/widget/wgt_core/UI_Controller.c ****     .init = UI_Button_Init,
  27:Dsp/widget/wgt_core/UI_Controller.c ****     .push = UI_Button_Push,
  28:Dsp/widget/wgt_core/UI_Controller.c ****     .move = UI_Button_Move,
  29:Dsp/widget/wgt_core/UI_Controller.c ****     .release = UI_Button_Release,
  30:Dsp/widget/wgt_core/UI_Controller.c ****     .set_label = UI_Button_Set_Label,
ARM GAS  C:\Users\97116\AppData\Local\Temp\cc1M8sM0.s 			page 2


  31:Dsp/widget/wgt_core/UI_Controller.c ****     .set_trogger_callback = UI_Button_Set_TriggerCallback,
  32:Dsp/widget/wgt_core/UI_Controller.c **** };
  33:Dsp/widget/wgt_core/UI_Controller.c **** 
  34:Dsp/widget/wgt_core/UI_Controller.c **** /******************************* general function *********************************/
  35:Dsp/widget/wgt_core/UI_Controller.c **** 
  36:Dsp/widget/wgt_core/UI_Controller.c **** void UI_Set_DspInterface(UI_DrawPoint point,
  37:Dsp/widget/wgt_core/UI_Controller.c ****                          UI_DrawLine line,
  38:Dsp/widget/wgt_core/UI_Controller.c ****                          UI_DrawRectangle rectangle,
  39:Dsp/widget/wgt_core/UI_Controller.c ****                          UI_DrawRadiusRectangle radius_rectangle,
  40:Dsp/widget/wgt_core/UI_Controller.c ****                          UI_DrawCircle circle,
  41:Dsp/widget/wgt_core/UI_Controller.c ****                          UI_DrawCircleSection circle_section,
  42:Dsp/widget/wgt_core/UI_Controller.c ****                          UI_DrawStr str,
  43:Dsp/widget/wgt_core/UI_Controller.c ****                          UI_FillCircle fill_circle,
  44:Dsp/widget/wgt_core/UI_Controller.c ****                          UI_FillCircle_Section fillcircle_section,
  45:Dsp/widget/wgt_core/UI_Controller.c ****                          UI_FillRectangle fill_rectangle,
  46:Dsp/widget/wgt_core/UI_Controller.c ****                          UI_FillRadiusRectangle fill_radius_rectangle)
  47:Dsp/widget/wgt_core/UI_Controller.c **** {
  48:Dsp/widget/wgt_core/UI_Controller.c ****     UI_DspInterface.draw_circle = circle;
  49:Dsp/widget/wgt_core/UI_Controller.c ****     UI_DspInterface.draw_circle_section = circle_section;
  50:Dsp/widget/wgt_core/UI_Controller.c ****     UI_DspInterface.draw_line = line;
  51:Dsp/widget/wgt_core/UI_Controller.c ****     UI_DspInterface.draw_point = point;
  52:Dsp/widget/wgt_core/UI_Controller.c ****     UI_DspInterface.draw_rectangle = rectangle;
  53:Dsp/widget/wgt_core/UI_Controller.c ****     UI_DspInterface.draw_radius_rectangle = radius_rectangle;
  54:Dsp/widget/wgt_core/UI_Controller.c ****     UI_DspInterface.draw_str = str;
  55:Dsp/widget/wgt_core/UI_Controller.c **** 
  56:Dsp/widget/wgt_core/UI_Controller.c ****     UI_DspInterface.fill_circle = fill_circle;
  57:Dsp/widget/wgt_core/UI_Controller.c ****     UI_DspInterface.fill_circle_section = fillcircle_section;
  58:Dsp/widget/wgt_core/UI_Controller.c ****     UI_DspInterface.fill_radius_rectangle = fill_radius_rectangle;
  59:Dsp/widget/wgt_core/UI_Controller.c ****     UI_DspInterface.fill_rectangle = fill_rectangle;
  60:Dsp/widget/wgt_core/UI_Controller.c **** }
  61:Dsp/widget/wgt_core/UI_Controller.c **** 
  62:Dsp/widget/wgt_core/UI_Controller.c **** /* still in developing about this selector */
  63:Dsp/widget/wgt_core/UI_Controller.c **** /* FYI different UI Item Got different selector */
  64:Dsp/widget/wgt_core/UI_Controller.c **** bool UI_ShowSelector(WidgetUI_Item_TypeDef *item)
  65:Dsp/widget/wgt_core/UI_Controller.c **** {
  66:Dsp/widget/wgt_core/UI_Controller.c ****     /* button selector coordinate */
  67:Dsp/widget/wgt_core/UI_Controller.c ****     int8_t Btn_Slct_LftUp_X = 0;
  68:Dsp/widget/wgt_core/UI_Controller.c ****     int8_t Btn_Slct_LftUp_Y = 0;
  69:Dsp/widget/wgt_core/UI_Controller.c ****     int8_t Btn_Slct_LftDwn_X = 0;
  70:Dsp/widget/wgt_core/UI_Controller.c ****     int8_t Btn_Slct_LftDwn_Y = 0;
  71:Dsp/widget/wgt_core/UI_Controller.c ****     int8_t Btn_Slct_RgtUp_X = 0;
  72:Dsp/widget/wgt_core/UI_Controller.c ****     int8_t Btn_Slct_RgtUp_Y = 0;
  73:Dsp/widget/wgt_core/UI_Controller.c ****     int8_t Btn_Slct_RgtDwn_X = 0;
  74:Dsp/widget/wgt_core/UI_Controller.c ****     int8_t Btn_Slct_RgtDwn_Y = 0;
  75:Dsp/widget/wgt_core/UI_Controller.c **** 
  76:Dsp/widget/wgt_core/UI_Controller.c ****     if ((item == NULL) ||
  77:Dsp/widget/wgt_core/UI_Controller.c ****         (UI_DspInterface.fill_circle_section != NULL))
  78:Dsp/widget/wgt_core/UI_Controller.c ****         return false;
  79:Dsp/widget/wgt_core/UI_Controller.c **** 
  80:Dsp/widget/wgt_core/UI_Controller.c ****     switch ((uint8_t)(item->type))
  81:Dsp/widget/wgt_core/UI_Controller.c ****     {
  82:Dsp/widget/wgt_core/UI_Controller.c ****     case UI_Type_Button:
  83:Dsp/widget/wgt_core/UI_Controller.c ****         /* comput button selector coordinate first */
  84:Dsp/widget/wgt_core/UI_Controller.c ****         Btn_Slct_LftUp_X = ((UI_ButtonObj_TypeDef *)(item->Handler))->Gen_Data.x + DEFAULT_BUTTON_R
  85:Dsp/widget/wgt_core/UI_Controller.c ****         Btn_Slct_LftUp_Y = ((UI_ButtonObj_TypeDef *)(item->Handler))->Gen_Data.y + ((UI_ButtonObj_T
  86:Dsp/widget/wgt_core/UI_Controller.c **** 
  87:Dsp/widget/wgt_core/UI_Controller.c ****         Btn_Slct_LftDwn_X = Btn_Slct_LftUp_X;
ARM GAS  C:\Users\97116\AppData\Local\Temp\cc1M8sM0.s 			page 3


  88:Dsp/widget/wgt_core/UI_Controller.c ****         Btn_Slct_LftDwn_Y = ((UI_ButtonObj_TypeDef *)(item->Handler))->Gen_Data.y + DEFAULT_BUTTON_
  89:Dsp/widget/wgt_core/UI_Controller.c **** 
  90:Dsp/widget/wgt_core/UI_Controller.c ****         Btn_Slct_RgtUp_X = ((UI_ButtonObj_TypeDef *)(item->Handler))->Gen_Data.x + ((UI_ButtonObj_T
  91:Dsp/widget/wgt_core/UI_Controller.c ****         Btn_Slct_RgtUp_Y = Btn_Slct_LftUp_Y;
  92:Dsp/widget/wgt_core/UI_Controller.c **** 
  93:Dsp/widget/wgt_core/UI_Controller.c ****         Btn_Slct_RgtDwn_X = Btn_Slct_RgtUp_X;
  94:Dsp/widget/wgt_core/UI_Controller.c ****         Btn_Slct_RgtDwn_Y = Btn_Slct_LftDwn_Y;
  95:Dsp/widget/wgt_core/UI_Controller.c **** 
  96:Dsp/widget/wgt_core/UI_Controller.c ****         // show button selector
  97:Dsp/widget/wgt_core/UI_Controller.c ****         UI_DspInterface.fill_circle_section(Btn_Slct_LftUp_X, Btn_Slct_LftUp_Y, BUTTON_SELECTOR_RAD
  98:Dsp/widget/wgt_core/UI_Controller.c ****         UI_DspInterface.fill_circle_section(Btn_Slct_LftUp_X, Btn_Slct_LftUp_Y, BUTTON_SELECTOR_LIN
  99:Dsp/widget/wgt_core/UI_Controller.c **** 
 100:Dsp/widget/wgt_core/UI_Controller.c ****         UI_DspInterface.fill_circle_section(Btn_Slct_LftDwn_X, Btn_Slct_LftDwn_Y, BUTTON_SELECTOR_R
 101:Dsp/widget/wgt_core/UI_Controller.c ****         UI_DspInterface.fill_circle_section(Btn_Slct_LftDwn_X, Btn_Slct_LftDwn_Y, BUTTON_SELECTOR_L
 102:Dsp/widget/wgt_core/UI_Controller.c **** 
 103:Dsp/widget/wgt_core/UI_Controller.c ****         UI_DspInterface.fill_circle_section(Btn_Slct_RgtUp_X, Btn_Slct_RgtUp_Y, BUTTON_SELECTOR_RAD
 104:Dsp/widget/wgt_core/UI_Controller.c ****         UI_DspInterface.fill_circle_section(Btn_Slct_RgtUp_X, Btn_Slct_RgtUp_Y, BUTTON_SELECTOR_LIN
 105:Dsp/widget/wgt_core/UI_Controller.c **** 
 106:Dsp/widget/wgt_core/UI_Controller.c ****         UI_DspInterface.fill_circle_section(Btn_Slct_RgtDwn_X, Btn_Slct_RgtDwn_Y, BUTTON_SELECTOR_R
 107:Dsp/widget/wgt_core/UI_Controller.c ****         UI_DspInterface.fill_circle_section(Btn_Slct_RgtDwn_X, Btn_Slct_RgtDwn_Y, BUTTON_SELECTOR_L
 108:Dsp/widget/wgt_core/UI_Controller.c ****         break;
 109:Dsp/widget/wgt_core/UI_Controller.c **** 
 110:Dsp/widget/wgt_core/UI_Controller.c ****     default:
 111:Dsp/widget/wgt_core/UI_Controller.c ****         break;
 112:Dsp/widget/wgt_core/UI_Controller.c ****     }
 113:Dsp/widget/wgt_core/UI_Controller.c ****     return true;
 114:Dsp/widget/wgt_core/UI_Controller.c **** }
 115:Dsp/widget/wgt_core/UI_Controller.c **** 
 116:Dsp/widget/wgt_core/UI_Controller.c **** static void UI_GenData_Init(UI_GeneralData_TypeDef *GenData, char *label, uint8_t x, uint8_t y)
 117:Dsp/widget/wgt_core/UI_Controller.c **** {
  29              		.loc 1 117 1 view -0
  30              		.cfi_startproc
  31              		@ args = 0, pretend = 0, frame = 0
  32              		@ frame_needed = 0, uses_anonymous_args = 0
  33              		@ link register save eliminated.
 118:Dsp/widget/wgt_core/UI_Controller.c ****     GenData->label = label;
  34              		.loc 1 118 5 view .LVU1
  35              		.loc 1 118 20 is_stmt 0 view .LVU2
  36 0000 0160     		str	r1, [r0]
 119:Dsp/widget/wgt_core/UI_Controller.c **** 
 120:Dsp/widget/wgt_core/UI_Controller.c ****     GenData->x = x;
  37              		.loc 1 120 5 is_stmt 1 view .LVU3
  38              		.loc 1 120 16 is_stmt 0 view .LVU4
  39 0002 0271     		strb	r2, [r0, #4]
 121:Dsp/widget/wgt_core/UI_Controller.c ****     GenData->y = y;
  40              		.loc 1 121 5 is_stmt 1 view .LVU5
  41              		.loc 1 121 16 is_stmt 0 view .LVU6
  42 0004 4371     		strb	r3, [r0, #5]
 122:Dsp/widget/wgt_core/UI_Controller.c **** 
 123:Dsp/widget/wgt_core/UI_Controller.c ****     GenData->init = false;
  43              		.loc 1 123 5 is_stmt 1 view .LVU7
  44              		.loc 1 123 19 is_stmt 0 view .LVU8
  45 0006 0023     		movs	r3, #0
  46              	.LVL1:
  47              		.loc 1 123 19 view .LVU9
  48 0008 8371     		strb	r3, [r0, #6]
 124:Dsp/widget/wgt_core/UI_Controller.c **** }
ARM GAS  C:\Users\97116\AppData\Local\Temp\cc1M8sM0.s 			page 4


  49              		.loc 1 124 1 view .LVU10
  50 000a 7047     		bx	lr
  51              		.cfi_endproc
  52              	.LFE2:
  54              		.section	.text.UI_Move,"ax",%progbits
  55              		.align	1
  56              		.syntax unified
  57              		.thumb
  58              		.thumb_func
  59              		.fpu fpv4-sp-d16
  61              	UI_Move:
  62              	.LVL2:
  63              	.LFB3:
 125:Dsp/widget/wgt_core/UI_Controller.c **** 
 126:Dsp/widget/wgt_core/UI_Controller.c **** static bool UI_Move(UI_GeneralData_TypeDef *GenUI_Info, int8_t dst_x, int8_t dst_y)
 127:Dsp/widget/wgt_core/UI_Controller.c **** {
  64              		.loc 1 127 1 is_stmt 1 view -0
  65              		.cfi_startproc
  66              		@ args = 0, pretend = 0, frame = 0
  67              		@ frame_needed = 0, uses_anonymous_args = 0
  68              		@ link register save eliminated.
 128:Dsp/widget/wgt_core/UI_Controller.c ****     if (GenUI_Info == NULL)
  69              		.loc 1 128 5 view .LVU12
  70              		.loc 1 128 8 is_stmt 0 view .LVU13
  71 0000 18B1     		cbz	r0, .L4
 129:Dsp/widget/wgt_core/UI_Controller.c ****         return false;
 130:Dsp/widget/wgt_core/UI_Controller.c **** 
 131:Dsp/widget/wgt_core/UI_Controller.c ****     GenUI_Info->x = dst_x;
  72              		.loc 1 131 5 is_stmt 1 view .LVU14
  73              		.loc 1 131 19 is_stmt 0 view .LVU15
  74 0002 0171     		strb	r1, [r0, #4]
 132:Dsp/widget/wgt_core/UI_Controller.c ****     GenUI_Info->y = dst_y;
  75              		.loc 1 132 5 is_stmt 1 view .LVU16
  76              		.loc 1 132 19 is_stmt 0 view .LVU17
  77 0004 4271     		strb	r2, [r0, #5]
 133:Dsp/widget/wgt_core/UI_Controller.c **** 
 134:Dsp/widget/wgt_core/UI_Controller.c ****     return true;
  78              		.loc 1 134 5 is_stmt 1 view .LVU18
  79              		.loc 1 134 12 is_stmt 0 view .LVU19
  80 0006 0120     		movs	r0, #1
  81              	.LVL3:
  82              		.loc 1 134 12 view .LVU20
  83 0008 7047     		bx	lr
  84              	.LVL4:
  85              	.L4:
 129:Dsp/widget/wgt_core/UI_Controller.c **** 
  86              		.loc 1 129 16 view .LVU21
  87 000a 0020     		movs	r0, #0
  88              	.LVL5:
 135:Dsp/widget/wgt_core/UI_Controller.c **** }
  89              		.loc 1 135 1 view .LVU22
  90 000c 7047     		bx	lr
  91              		.cfi_endproc
  92              	.LFE3:
  94              		.section	.rodata.UI_Button_Init.str1.4,"aMS",%progbits,1
  95              		.align	2
  96              	.LC0:
ARM GAS  C:\Users\97116\AppData\Local\Temp\cc1M8sM0.s 			page 5


  97 0000 79657300 		.ascii	"yes\000"
  98              		.align	2
  99              	.LC1:
 100 0004 6E6F00   		.ascii	"no\000"
 101              		.section	.text.UI_Button_Init,"ax",%progbits
 102              		.align	1
 103              		.syntax unified
 104              		.thumb
 105              		.thumb_func
 106              		.fpu fpv4-sp-d16
 108              	UI_Button_Init:
 109              	.LVL6:
 110              	.LFB4:
 136:Dsp/widget/wgt_core/UI_Controller.c **** 
 137:Dsp/widget/wgt_core/UI_Controller.c **** /********************************************** UI Button Object **********************************
 138:Dsp/widget/wgt_core/UI_Controller.c **** /*
 139:Dsp/widget/wgt_core/UI_Controller.c **** *  the operation of button ctl is a async operation
 140:Dsp/widget/wgt_core/UI_Controller.c **** *  exti irq or input signal triiger first then out of the trigger code 
 141:Dsp/widget/wgt_core/UI_Controller.c **** *  check signal value doing process
 142:Dsp/widget/wgt_core/UI_Controller.c **** */
 143:Dsp/widget/wgt_core/UI_Controller.c **** static bool UI_Button_Init(UI_ButtonObj_TypeDef *Obj, char *label, int8_t x, int8_t y, uint8_t widt
 144:Dsp/widget/wgt_core/UI_Controller.c **** {
 111              		.loc 1 144 1 is_stmt 1 view -0
 112              		.cfi_startproc
 113              		@ args = 16, pretend = 0, frame = 0
 114              		@ frame_needed = 0, uses_anonymous_args = 0
 115              		.loc 1 144 1 is_stmt 0 view .LVU24
 116 0000 10B5     		push	{r4, lr}
 117              	.LCFI0:
 118              		.cfi_def_cfa_offset 8
 119              		.cfi_offset 4, -8
 120              		.cfi_offset 14, -4
 121 0002 9DF814C0 		ldrb	ip, [sp, #20]	@ zero_extendqisi2
 145:Dsp/widget/wgt_core/UI_Controller.c ****     if (Obj == NULL)
 122              		.loc 1 145 5 is_stmt 1 view .LVU25
 123              		.loc 1 145 8 is_stmt 0 view .LVU26
 124 0006 F8B1     		cbz	r0, .L7
 125 0008 0446     		mov	r4, r0
 146:Dsp/widget/wgt_core/UI_Controller.c ****         return false;
 147:Dsp/widget/wgt_core/UI_Controller.c **** 
 148:Dsp/widget/wgt_core/UI_Controller.c ****     Obj->default_state = state;
 126              		.loc 1 148 5 is_stmt 1 view .LVU27
 127              		.loc 1 148 24 is_stmt 0 view .LVU28
 128 000a 80F808C0 		strb	ip, [r0, #8]
 149:Dsp/widget/wgt_core/UI_Controller.c ****     Obj->state = state;
 129              		.loc 1 149 5 is_stmt 1 view .LVU29
 130              		.loc 1 149 16 is_stmt 0 view .LVU30
 131 000e 80F809C0 		strb	ip, [r0, #9]
 150:Dsp/widget/wgt_core/UI_Controller.c ****     Obj->type = type;
 132              		.loc 1 150 5 is_stmt 1 view .LVU31
 133              		.loc 1 150 15 is_stmt 0 view .LVU32
 134 0012 9DF81000 		ldrb	r0, [sp, #16]	@ zero_extendqisi2
 135              	.LVL7:
 136              		.loc 1 150 15 view .LVU33
 137 0016 A072     		strb	r0, [r4, #10]
 151:Dsp/widget/wgt_core/UI_Controller.c ****     Obj->trigger_time = 0;
 138              		.loc 1 151 5 is_stmt 1 view .LVU34
ARM GAS  C:\Users\97116\AppData\Local\Temp\cc1M8sM0.s 			page 6


 139              		.loc 1 151 23 is_stmt 0 view .LVU35
 140 0018 9FED0D7B 		vldr.64	d7, .L9	@ int
 141 001c 84ED087B 		vstr.64	d7, [r4, #32]	@ int
 152:Dsp/widget/wgt_core/UI_Controller.c **** 
 153:Dsp/widget/wgt_core/UI_Controller.c ****     UI_GenData_Init(&Obj->Gen_Data, label, x, y);
 142              		.loc 1 153 5 is_stmt 1 view .LVU36
 143 0020 DBB2     		uxtb	r3, r3
 144              		.loc 1 153 5 is_stmt 0 view .LVU37
 145 0022 D2B2     		uxtb	r2, r2
 146              		.loc 1 153 5 view .LVU38
 147 0024 2046     		mov	r0, r4
 148 0026 FFF7FEFF 		bl	UI_GenData_Init
 149              	.LVL8:
 154:Dsp/widget/wgt_core/UI_Controller.c **** 
 155:Dsp/widget/wgt_core/UI_Controller.c ****     Obj->width = width;
 150              		.loc 1 155 5 is_stmt 1 view .LVU39
 151              		.loc 1 155 16 is_stmt 0 view .LVU40
 152 002a 9DF80830 		ldrb	r3, [sp, #8]	@ zero_extendqisi2
 153 002e 84F82830 		strb	r3, [r4, #40]
 156:Dsp/widget/wgt_core/UI_Controller.c ****     Obj->height = height;
 154              		.loc 1 156 5 is_stmt 1 view .LVU41
 155              		.loc 1 156 17 is_stmt 0 view .LVU42
 156 0032 9DF80C30 		ldrb	r3, [sp, #12]	@ zero_extendqisi2
 157 0036 84F82930 		strb	r3, [r4, #41]
 157:Dsp/widget/wgt_core/UI_Controller.c **** 
 158:Dsp/widget/wgt_core/UI_Controller.c ****     Obj->PushDown_Label = DEFAULT_BUTTON_PUSH_LABEL;
 158              		.loc 1 158 5 is_stmt 1 view .LVU43
 159              		.loc 1 158 25 is_stmt 0 view .LVU44
 160 003a 074B     		ldr	r3, .L9+8
 161 003c 6361     		str	r3, [r4, #20]
 159:Dsp/widget/wgt_core/UI_Controller.c ****     Obj->Release_Label = DEFAULT_BUTTON_RELEASE_LABEL;
 162              		.loc 1 159 5 is_stmt 1 view .LVU45
 163              		.loc 1 159 24 is_stmt 0 view .LVU46
 164 003e 074B     		ldr	r3, .L9+12
 165 0040 A361     		str	r3, [r4, #24]
 160:Dsp/widget/wgt_core/UI_Controller.c **** 
 161:Dsp/widget/wgt_core/UI_Controller.c ****     Obj->Gen_Data.init = true;
 166              		.loc 1 161 5 is_stmt 1 view .LVU47
 167              		.loc 1 161 24 is_stmt 0 view .LVU48
 168 0042 0120     		movs	r0, #1
 169 0044 A071     		strb	r0, [r4, #6]
 162:Dsp/widget/wgt_core/UI_Controller.c **** 
 163:Dsp/widget/wgt_core/UI_Controller.c ****     return true;
 170              		.loc 1 163 5 is_stmt 1 view .LVU49
 171              	.LVL9:
 172              	.L6:
 164:Dsp/widget/wgt_core/UI_Controller.c **** }
 173              		.loc 1 164 1 is_stmt 0 view .LVU50
 174 0046 10BD     		pop	{r4, pc}
 175              	.LVL10:
 176              	.L7:
 146:Dsp/widget/wgt_core/UI_Controller.c **** 
 177              		.loc 1 146 16 view .LVU51
 178 0048 0020     		movs	r0, #0
 179              	.LVL11:
 146:Dsp/widget/wgt_core/UI_Controller.c **** 
 180              		.loc 1 146 16 view .LVU52
ARM GAS  C:\Users\97116\AppData\Local\Temp\cc1M8sM0.s 			page 7


 181 004a FCE7     		b	.L6
 182              	.L10:
 183 004c AFF30080 		.align	3
 184              	.L9:
 185 0050 00000000 		.word	0
 186 0054 00000000 		.word	0
 187 0058 00000000 		.word	.LC0
 188 005c 04000000 		.word	.LC1
 189              		.cfi_endproc
 190              	.LFE4:
 192              		.section	.text.UI_Button_Set_Label,"ax",%progbits
 193              		.align	1
 194              		.syntax unified
 195              		.thumb
 196              		.thumb_func
 197              		.fpu fpv4-sp-d16
 199              	UI_Button_Set_Label:
 200              	.LVL12:
 201              	.LFB5:
 165:Dsp/widget/wgt_core/UI_Controller.c **** 
 166:Dsp/widget/wgt_core/UI_Controller.c **** static bool UI_Button_Set_Label(UI_ButtonObj_TypeDef *Obj, UI_Button_State_List state, char *label)
 167:Dsp/widget/wgt_core/UI_Controller.c **** {
 202              		.loc 1 167 1 is_stmt 1 view -0
 203              		.cfi_startproc
 204              		@ args = 0, pretend = 0, frame = 0
 205              		@ frame_needed = 0, uses_anonymous_args = 0
 206              		@ link register save eliminated.
 168:Dsp/widget/wgt_core/UI_Controller.c ****     if (Obj == NULL)
 207              		.loc 1 168 5 view .LVU54
 208              		.loc 1 168 8 is_stmt 0 view .LVU55
 209 0000 38B1     		cbz	r0, .L14
 169:Dsp/widget/wgt_core/UI_Controller.c ****         return false;
 170:Dsp/widget/wgt_core/UI_Controller.c **** 
 171:Dsp/widget/wgt_core/UI_Controller.c ****     if (state == UI_Btn_PushDwn)
 210              		.loc 1 171 5 is_stmt 1 view .LVU56
 211              		.loc 1 171 8 is_stmt 0 view .LVU57
 212 0002 0129     		cmp	r1, #1
 213 0004 02D0     		beq	.L15
 172:Dsp/widget/wgt_core/UI_Controller.c ****         Obj->PushDown_Label = label;
 173:Dsp/widget/wgt_core/UI_Controller.c ****     else
 174:Dsp/widget/wgt_core/UI_Controller.c ****         Obj->Release_Label = label;
 214              		.loc 1 174 9 is_stmt 1 view .LVU58
 215              		.loc 1 174 28 is_stmt 0 view .LVU59
 216 0006 8261     		str	r2, [r0, #24]
 175:Dsp/widget/wgt_core/UI_Controller.c **** 
 176:Dsp/widget/wgt_core/UI_Controller.c ****     return true;
 217              		.loc 1 176 12 view .LVU60
 218 0008 0120     		movs	r0, #1
 219              	.LVL13:
 220              		.loc 1 176 12 view .LVU61
 221 000a 7047     		bx	lr
 222              	.LVL14:
 223              	.L15:
 172:Dsp/widget/wgt_core/UI_Controller.c ****         Obj->PushDown_Label = label;
 224              		.loc 1 172 9 is_stmt 1 view .LVU62
 172:Dsp/widget/wgt_core/UI_Controller.c ****         Obj->PushDown_Label = label;
 225              		.loc 1 172 29 is_stmt 0 view .LVU63
ARM GAS  C:\Users\97116\AppData\Local\Temp\cc1M8sM0.s 			page 8


 226 000c 4261     		str	r2, [r0, #20]
 227              		.loc 1 176 12 view .LVU64
 228 000e 0120     		movs	r0, #1
 229              	.LVL15:
 230              		.loc 1 176 12 view .LVU65
 231 0010 7047     		bx	lr
 232              	.LVL16:
 233              	.L14:
 169:Dsp/widget/wgt_core/UI_Controller.c **** 
 234              		.loc 1 169 16 view .LVU66
 235 0012 0020     		movs	r0, #0
 236              	.LVL17:
 177:Dsp/widget/wgt_core/UI_Controller.c **** }
 237              		.loc 1 177 1 view .LVU67
 238 0014 7047     		bx	lr
 239              		.cfi_endproc
 240              	.LFE5:
 242              		.section	.text.UI_Button_Set_TriggerCallback,"ax",%progbits
 243              		.align	1
 244              		.syntax unified
 245              		.thumb
 246              		.thumb_func
 247              		.fpu fpv4-sp-d16
 249              	UI_Button_Set_TriggerCallback:
 250              	.LVL18:
 251              	.LFB6:
 178:Dsp/widget/wgt_core/UI_Controller.c **** 
 179:Dsp/widget/wgt_core/UI_Controller.c **** static bool UI_Button_Set_TriggerCallback(UI_ButtonObj_TypeDef *Obj, UI_Button_Trigger_Type type, U
 180:Dsp/widget/wgt_core/UI_Controller.c **** {
 252              		.loc 1 180 1 is_stmt 1 view -0
 253              		.cfi_startproc
 254              		@ args = 0, pretend = 0, frame = 0
 255              		@ frame_needed = 0, uses_anonymous_args = 0
 256              		@ link register save eliminated.
 181:Dsp/widget/wgt_core/UI_Controller.c ****     if (Obj == NULL)
 257              		.loc 1 181 5 view .LVU69
 258              		.loc 1 181 8 is_stmt 0 view .LVU70
 259 0000 40B1     		cbz	r0, .L19
 182:Dsp/widget/wgt_core/UI_Controller.c ****         return false;
 183:Dsp/widget/wgt_core/UI_Controller.c **** 
 184:Dsp/widget/wgt_core/UI_Controller.c ****     if (type == Push_Trigger)
 260              		.loc 1 184 5 is_stmt 1 view .LVU71
 261              		.loc 1 184 8 is_stmt 0 view .LVU72
 262 0002 11B9     		cbnz	r1, .L18
 185:Dsp/widget/wgt_core/UI_Controller.c ****     {
 186:Dsp/widget/wgt_core/UI_Controller.c ****         Obj->push_callback = callback;
 263              		.loc 1 186 9 is_stmt 1 view .LVU73
 264              		.loc 1 186 28 is_stmt 0 view .LVU74
 265 0004 C260     		str	r2, [r0, #12]
 187:Dsp/widget/wgt_core/UI_Controller.c ****     }
 188:Dsp/widget/wgt_core/UI_Controller.c ****     else if (type == Release_Trigger)
 189:Dsp/widget/wgt_core/UI_Controller.c ****     {
 190:Dsp/widget/wgt_core/UI_Controller.c ****         Obj->release_callback = callback;
 191:Dsp/widget/wgt_core/UI_Controller.c ****     }
 192:Dsp/widget/wgt_core/UI_Controller.c ****     else
 193:Dsp/widget/wgt_core/UI_Controller.c ****         return false;
 194:Dsp/widget/wgt_core/UI_Controller.c **** 
ARM GAS  C:\Users\97116\AppData\Local\Temp\cc1M8sM0.s 			page 9


 195:Dsp/widget/wgt_core/UI_Controller.c ****     return true;
 266              		.loc 1 195 12 view .LVU75
 267 0006 0120     		movs	r0, #1
 268              	.LVL19:
 269              		.loc 1 195 12 view .LVU76
 270 0008 7047     		bx	lr
 271              	.LVL20:
 272              	.L18:
 188:Dsp/widget/wgt_core/UI_Controller.c ****     {
 273              		.loc 1 188 10 is_stmt 1 view .LVU77
 188:Dsp/widget/wgt_core/UI_Controller.c ****     {
 274              		.loc 1 188 13 is_stmt 0 view .LVU78
 275 000a 0129     		cmp	r1, #1
 276 000c 04D1     		bne	.L20
 190:Dsp/widget/wgt_core/UI_Controller.c ****     }
 277              		.loc 1 190 9 is_stmt 1 view .LVU79
 190:Dsp/widget/wgt_core/UI_Controller.c ****     }
 278              		.loc 1 190 31 is_stmt 0 view .LVU80
 279 000e 0261     		str	r2, [r0, #16]
 280              		.loc 1 195 12 view .LVU81
 281 0010 0120     		movs	r0, #1
 282              	.LVL21:
 283              		.loc 1 195 12 view .LVU82
 284 0012 7047     		bx	lr
 285              	.LVL22:
 286              	.L19:
 182:Dsp/widget/wgt_core/UI_Controller.c **** 
 287              		.loc 1 182 16 view .LVU83
 288 0014 0020     		movs	r0, #0
 289              	.LVL23:
 182:Dsp/widget/wgt_core/UI_Controller.c **** 
 290              		.loc 1 182 16 view .LVU84
 291 0016 7047     		bx	lr
 292              	.LVL24:
 293              	.L20:
 193:Dsp/widget/wgt_core/UI_Controller.c **** 
 294              		.loc 1 193 16 view .LVU85
 295 0018 0020     		movs	r0, #0
 296              	.LVL25:
 196:Dsp/widget/wgt_core/UI_Controller.c **** }
 297              		.loc 1 196 1 view .LVU86
 298 001a 7047     		bx	lr
 299              		.cfi_endproc
 300              	.LFE6:
 302              		.section	.text.UI_Button_Release,"ax",%progbits
 303              		.align	1
 304              		.syntax unified
 305              		.thumb
 306              		.thumb_func
 307              		.fpu fpv4-sp-d16
 309              	UI_Button_Release:
 310              	.LVL26:
 311              	.LFB8:
 197:Dsp/widget/wgt_core/UI_Controller.c **** 
 198:Dsp/widget/wgt_core/UI_Controller.c **** static bool UI_Button_Push(UI_ButtonObj_TypeDef *Obj)
 199:Dsp/widget/wgt_core/UI_Controller.c **** {
 200:Dsp/widget/wgt_core/UI_Controller.c ****     if (Obj == NULL)
ARM GAS  C:\Users\97116\AppData\Local\Temp\cc1M8sM0.s 			page 10


 201:Dsp/widget/wgt_core/UI_Controller.c ****         return false;
 202:Dsp/widget/wgt_core/UI_Controller.c **** 
 203:Dsp/widget/wgt_core/UI_Controller.c ****     Obj->trigger_time = Get_CurrentRunningMs();
 204:Dsp/widget/wgt_core/UI_Controller.c **** 
 205:Dsp/widget/wgt_core/UI_Controller.c ****     if (Obj->type == Lock_Btn)
 206:Dsp/widget/wgt_core/UI_Controller.c ****     {
 207:Dsp/widget/wgt_core/UI_Controller.c ****         if (Obj->state == UI_Btn_RlsUp)
 208:Dsp/widget/wgt_core/UI_Controller.c ****             Obj->state = UI_Btn_PushDwn;
 209:Dsp/widget/wgt_core/UI_Controller.c ****         else
 210:Dsp/widget/wgt_core/UI_Controller.c ****             Obj->state = UI_Btn_RlsUp;
 211:Dsp/widget/wgt_core/UI_Controller.c ****     }
 212:Dsp/widget/wgt_core/UI_Controller.c ****     else if (Obj->type == Reset_Btn)
 213:Dsp/widget/wgt_core/UI_Controller.c ****     {
 214:Dsp/widget/wgt_core/UI_Controller.c ****         if (Obj->default_state == Obj->state)
 215:Dsp/widget/wgt_core/UI_Controller.c ****         {
 216:Dsp/widget/wgt_core/UI_Controller.c ****             Obj->state = !Obj->default_state;
 217:Dsp/widget/wgt_core/UI_Controller.c **** 
 218:Dsp/widget/wgt_core/UI_Controller.c ****             if (Obj->push_callback != NULL)
 219:Dsp/widget/wgt_core/UI_Controller.c ****                 Obj->push_callback();
 220:Dsp/widget/wgt_core/UI_Controller.c ****         }
 221:Dsp/widget/wgt_core/UI_Controller.c ****     }
 222:Dsp/widget/wgt_core/UI_Controller.c ****     else
 223:Dsp/widget/wgt_core/UI_Controller.c ****         return false;
 224:Dsp/widget/wgt_core/UI_Controller.c **** 
 225:Dsp/widget/wgt_core/UI_Controller.c ****     return true;
 226:Dsp/widget/wgt_core/UI_Controller.c **** }
 227:Dsp/widget/wgt_core/UI_Controller.c **** 
 228:Dsp/widget/wgt_core/UI_Controller.c **** static bool UI_Button_Release(UI_ButtonObj_TypeDef *Obj)
 229:Dsp/widget/wgt_core/UI_Controller.c **** {
 312              		.loc 1 229 1 is_stmt 1 view -0
 313              		.cfi_startproc
 314              		@ args = 0, pretend = 0, frame = 0
 315              		@ frame_needed = 0, uses_anonymous_args = 0
 230:Dsp/widget/wgt_core/UI_Controller.c ****     if (Obj == NULL)
 316              		.loc 1 230 5 view .LVU88
 317              		.loc 1 230 8 is_stmt 0 view .LVU89
 318 0000 68B1     		cbz	r0, .L23
 229:Dsp/widget/wgt_core/UI_Controller.c ****     if (Obj == NULL)
 319              		.loc 1 229 1 view .LVU90
 320 0002 08B5     		push	{r3, lr}
 321              	.LCFI1:
 322              		.cfi_def_cfa_offset 8
 323              		.cfi_offset 3, -8
 324              		.cfi_offset 14, -4
 231:Dsp/widget/wgt_core/UI_Controller.c ****         return false;
 232:Dsp/widget/wgt_core/UI_Controller.c **** 
 233:Dsp/widget/wgt_core/UI_Controller.c ****     if (Obj->type == Lock_Btn)
 325              		.loc 1 233 5 is_stmt 1 view .LVU91
 326              		.loc 1 233 12 is_stmt 0 view .LVU92
 327 0004 827A     		ldrb	r2, [r0, #10]	@ zero_extendqisi2
 328              		.loc 1 233 8 view .LVU93
 329 0006 012A     		cmp	r2, #1
 330 0008 0BD0     		beq	.L24
 234:Dsp/widget/wgt_core/UI_Controller.c ****         return true;
 235:Dsp/widget/wgt_core/UI_Controller.c **** 
 236:Dsp/widget/wgt_core/UI_Controller.c ****     if (Obj->default_state != Obj->state)
 331              		.loc 1 236 5 is_stmt 1 view .LVU94
ARM GAS  C:\Users\97116\AppData\Local\Temp\cc1M8sM0.s 			page 11


 332              		.loc 1 236 12 is_stmt 0 view .LVU95
 333 000a 027A     		ldrb	r2, [r0, #8]	@ zero_extendqisi2
 334              		.loc 1 236 34 view .LVU96
 335 000c 417A     		ldrb	r1, [r0, #9]	@ zero_extendqisi2
 336              		.loc 1 236 8 view .LVU97
 337 000e 8A42     		cmp	r2, r1
 338 0010 09D0     		beq	.L25
 237:Dsp/widget/wgt_core/UI_Controller.c ****     {
 238:Dsp/widget/wgt_core/UI_Controller.c ****         Obj->state = Obj->default_state;
 339              		.loc 1 238 9 is_stmt 1 view .LVU98
 340              		.loc 1 238 20 is_stmt 0 view .LVU99
 341 0012 4272     		strb	r2, [r0, #9]
 239:Dsp/widget/wgt_core/UI_Controller.c **** 
 240:Dsp/widget/wgt_core/UI_Controller.c ****         if (Obj->release_callback != NULL)
 342              		.loc 1 240 9 is_stmt 1 view .LVU100
 343              		.loc 1 240 16 is_stmt 0 view .LVU101
 344 0014 0369     		ldr	r3, [r0, #16]
 345              		.loc 1 240 12 view .LVU102
 346 0016 43B1     		cbz	r3, .L26
 241:Dsp/widget/wgt_core/UI_Controller.c ****             Obj->release_callback();
 347              		.loc 1 241 13 is_stmt 1 view .LVU103
 348 0018 9847     		blx	r3
 349              	.LVL27:
 242:Dsp/widget/wgt_core/UI_Controller.c ****     }
 243:Dsp/widget/wgt_core/UI_Controller.c **** 
 244:Dsp/widget/wgt_core/UI_Controller.c ****     return true;
 350              		.loc 1 244 12 is_stmt 0 view .LVU104
 351 001a 0120     		movs	r0, #1
 352              	.L22:
 245:Dsp/widget/wgt_core/UI_Controller.c **** }
 353              		.loc 1 245 1 view .LVU105
 354 001c 08BD     		pop	{r3, pc}
 355              	.LVL28:
 356              	.L23:
 357              	.LCFI2:
 358              		.cfi_def_cfa_offset 0
 359              		.cfi_restore 3
 360              		.cfi_restore 14
 231:Dsp/widget/wgt_core/UI_Controller.c **** 
 361              		.loc 1 231 16 view .LVU106
 362 001e 0020     		movs	r0, #0
 363              	.LVL29:
 364              		.loc 1 245 1 view .LVU107
 365 0020 7047     		bx	lr
 366              	.LVL30:
 367              	.L24:
 368              	.LCFI3:
 369              		.cfi_def_cfa_offset 8
 370              		.cfi_offset 3, -8
 371              		.cfi_offset 14, -4
 234:Dsp/widget/wgt_core/UI_Controller.c **** 
 372              		.loc 1 234 16 view .LVU108
 373 0022 0120     		movs	r0, #1
 374              	.LVL31:
 234:Dsp/widget/wgt_core/UI_Controller.c **** 
 375              		.loc 1 234 16 view .LVU109
 376 0024 FAE7     		b	.L22
ARM GAS  C:\Users\97116\AppData\Local\Temp\cc1M8sM0.s 			page 12


 377              	.LVL32:
 378              	.L25:
 244:Dsp/widget/wgt_core/UI_Controller.c **** }
 379              		.loc 1 244 12 view .LVU110
 380 0026 0120     		movs	r0, #1
 381              	.LVL33:
 244:Dsp/widget/wgt_core/UI_Controller.c **** }
 382              		.loc 1 244 12 view .LVU111
 383 0028 F8E7     		b	.L22
 384              	.LVL34:
 385              	.L26:
 244:Dsp/widget/wgt_core/UI_Controller.c **** }
 386              		.loc 1 244 12 view .LVU112
 387 002a 0120     		movs	r0, #1
 388              	.LVL35:
 244:Dsp/widget/wgt_core/UI_Controller.c **** }
 389              		.loc 1 244 12 view .LVU113
 390 002c F6E7     		b	.L22
 391              		.cfi_endproc
 392              	.LFE8:
 394              		.section	.text.UI_Button_Move,"ax",%progbits
 395              		.align	1
 396              		.syntax unified
 397              		.thumb
 398              		.thumb_func
 399              		.fpu fpv4-sp-d16
 401              	UI_Button_Move:
 402              	.LVL36:
 403              	.LFB9:
 246:Dsp/widget/wgt_core/UI_Controller.c **** 
 247:Dsp/widget/wgt_core/UI_Controller.c **** static bool UI_Button_Move(UI_ButtonObj_TypeDef *Obj, uint8_t x, uint8_t y)
 248:Dsp/widget/wgt_core/UI_Controller.c **** {
 404              		.loc 1 248 1 is_stmt 1 view -0
 405              		.cfi_startproc
 406              		@ args = 0, pretend = 0, frame = 0
 407              		@ frame_needed = 0, uses_anonymous_args = 0
 249:Dsp/widget/wgt_core/UI_Controller.c ****     if (Obj == NULL)
 408              		.loc 1 249 5 view .LVU115
 409              		.loc 1 249 8 is_stmt 0 view .LVU116
 410 0000 28B1     		cbz	r0, .L33
 248:Dsp/widget/wgt_core/UI_Controller.c ****     if (Obj == NULL)
 411              		.loc 1 248 1 view .LVU117
 412 0002 08B5     		push	{r3, lr}
 413              	.LCFI4:
 414              		.cfi_def_cfa_offset 8
 415              		.cfi_offset 3, -8
 416              		.cfi_offset 14, -4
 250:Dsp/widget/wgt_core/UI_Controller.c ****         return false;
 251:Dsp/widget/wgt_core/UI_Controller.c **** 
 252:Dsp/widget/wgt_core/UI_Controller.c ****     return UI_Move(&(Obj->Gen_Data), x, y);
 417              		.loc 1 252 5 is_stmt 1 view .LVU118
 418              		.loc 1 252 12 is_stmt 0 view .LVU119
 419 0004 52B2     		sxtb	r2, r2
 420              		.loc 1 252 12 view .LVU120
 421 0006 49B2     		sxtb	r1, r1
 422              		.loc 1 252 12 view .LVU121
 423 0008 FFF7FEFF 		bl	UI_Move
ARM GAS  C:\Users\97116\AppData\Local\Temp\cc1M8sM0.s 			page 13


 424              	.LVL37:
 253:Dsp/widget/wgt_core/UI_Controller.c **** }
 425              		.loc 1 253 1 view .LVU122
 426 000c 08BD     		pop	{r3, pc}
 427              	.LVL38:
 428              	.L33:
 429              	.LCFI5:
 430              		.cfi_def_cfa_offset 0
 431              		.cfi_restore 3
 432              		.cfi_restore 14
 250:Dsp/widget/wgt_core/UI_Controller.c ****         return false;
 433              		.loc 1 250 16 view .LVU123
 434 000e 0020     		movs	r0, #0
 435              	.LVL39:
 436              		.loc 1 253 1 view .LVU124
 437 0010 7047     		bx	lr
 438              		.cfi_endproc
 439              	.LFE9:
 441              		.section	.text.UI_Button_Ctl,"ax",%progbits
 442              		.align	1
 443              		.syntax unified
 444              		.thumb
 445              		.thumb_func
 446              		.fpu fpv4-sp-d16
 448              	UI_Button_Ctl:
 449              	.LVL40:
 450              	.LFB10:
 254:Dsp/widget/wgt_core/UI_Controller.c **** 
 255:Dsp/widget/wgt_core/UI_Controller.c **** static bool UI_Button_Ctl(UI_ButtonObj_TypeDef *Obj)
 256:Dsp/widget/wgt_core/UI_Controller.c **** {
 451              		.loc 1 256 1 is_stmt 1 view -0
 452              		.cfi_startproc
 453              		@ args = 0, pretend = 0, frame = 0
 454              		@ frame_needed = 0, uses_anonymous_args = 0
 455              		.loc 1 256 1 is_stmt 0 view .LVU126
 456 0000 70B5     		push	{r4, r5, r6, lr}
 457              	.LCFI6:
 458              		.cfi_def_cfa_offset 16
 459              		.cfi_offset 4, -16
 460              		.cfi_offset 5, -12
 461              		.cfi_offset 6, -8
 462              		.cfi_offset 14, -4
 463 0002 84B0     		sub	sp, sp, #16
 464              	.LCFI7:
 465              		.cfi_def_cfa_offset 32
 466 0004 0446     		mov	r4, r0
 257:Dsp/widget/wgt_core/UI_Controller.c ****     SYSTEM_RunTime Cur_Rt = Get_CurrentRunningMs();
 467              		.loc 1 257 5 is_stmt 1 view .LVU127
 468              		.loc 1 257 29 is_stmt 0 view .LVU128
 469 0006 FFF7FEFF 		bl	Get_CurrentRunningMs
 470              	.LVL41:
 258:Dsp/widget/wgt_core/UI_Controller.c **** 
 259:Dsp/widget/wgt_core/UI_Controller.c ****     if (Obj == NULL)
 471              		.loc 1 259 5 is_stmt 1 view .LVU129
 472              		.loc 1 259 8 is_stmt 0 view .LVU130
 473 000a 002C     		cmp	r4, #0
 474 000c 75D0     		beq	.L44
ARM GAS  C:\Users\97116\AppData\Local\Temp\cc1M8sM0.s 			page 14


 260:Dsp/widget/wgt_core/UI_Controller.c ****         return false;
 261:Dsp/widget/wgt_core/UI_Controller.c **** 
 262:Dsp/widget/wgt_core/UI_Controller.c ****     if (Obj->type == Lock_Btn)
 475              		.loc 1 262 5 is_stmt 1 view .LVU131
 476              		.loc 1 262 12 is_stmt 0 view .LVU132
 477 000e A37A     		ldrb	r3, [r4, #10]	@ zero_extendqisi2
 478              		.loc 1 262 8 view .LVU133
 479 0010 012B     		cmp	r3, #1
 480 0012 2FD0     		beq	.L52
 263:Dsp/widget/wgt_core/UI_Controller.c ****     {
 264:Dsp/widget/wgt_core/UI_Controller.c ****         if (Obj->state == UI_Btn_PushDwn)
 265:Dsp/widget/wgt_core/UI_Controller.c ****         {
 266:Dsp/widget/wgt_core/UI_Controller.c ****             if (Obj->push_callback)
 267:Dsp/widget/wgt_core/UI_Controller.c ****                 Obj->push_callback();
 268:Dsp/widget/wgt_core/UI_Controller.c ****         }
 269:Dsp/widget/wgt_core/UI_Controller.c ****         else if (Obj->state == UI_Btn_RlsUp)
 270:Dsp/widget/wgt_core/UI_Controller.c ****         {
 271:Dsp/widget/wgt_core/UI_Controller.c ****             if (Obj->release_callback)
 272:Dsp/widget/wgt_core/UI_Controller.c ****                 Obj->release_callback();
 273:Dsp/widget/wgt_core/UI_Controller.c ****         }
 274:Dsp/widget/wgt_core/UI_Controller.c ****         else
 275:Dsp/widget/wgt_core/UI_Controller.c ****             return false;
 276:Dsp/widget/wgt_core/UI_Controller.c ****     }
 277:Dsp/widget/wgt_core/UI_Controller.c ****     else
 278:Dsp/widget/wgt_core/UI_Controller.c ****     {
 279:Dsp/widget/wgt_core/UI_Controller.c ****         if ((Obj->state == UI_Btn_PushDwn) && ((Cur_Rt - Obj->trigger_time) >= DEFAULT_BUTTON_RELEA
 481              		.loc 1 279 9 is_stmt 1 view .LVU134
 482              		.loc 1 279 17 is_stmt 0 view .LVU135
 483 0014 637A     		ldrb	r3, [r4, #9]	@ zero_extendqisi2
 484              		.loc 1 279 12 view .LVU136
 485 0016 012B     		cmp	r3, #1
 486 0018 3BD0     		beq	.L53
 487              	.LVL42:
 488              	.L42:
 280:Dsp/widget/wgt_core/UI_Controller.c ****         {
 281:Dsp/widget/wgt_core/UI_Controller.c ****             Obj->trigger_time = Get_CurrentRunningMs();
 282:Dsp/widget/wgt_core/UI_Controller.c ****             UI_Button_Release(Obj);
 283:Dsp/widget/wgt_core/UI_Controller.c ****         }
 284:Dsp/widget/wgt_core/UI_Controller.c ****     }
 285:Dsp/widget/wgt_core/UI_Controller.c **** 
 286:Dsp/widget/wgt_core/UI_Controller.c ****     /* display button on screen object */
 287:Dsp/widget/wgt_core/UI_Controller.c ****     /* invert display color when button been push down */
 288:Dsp/widget/wgt_core/UI_Controller.c ****     if ((UI_DspInterface.draw_str != NULL) && (UI_DspInterface.fill_radius_rectangle != NULL) && (U
 489              		.loc 1 288 5 is_stmt 1 view .LVU137
 490              		.loc 1 288 25 is_stmt 0 view .LVU138
 491 001a 3F4B     		ldr	r3, .L56
 492 001c 1B68     		ldr	r3, [r3]
 493              		.loc 1 288 8 view .LVU139
 494 001e 002B     		cmp	r3, #0
 495 0020 6FD0     		beq	.L46
 496              		.loc 1 288 63 discriminator 1 view .LVU140
 497 0022 3D4B     		ldr	r3, .L56
 498 0024 9D6A     		ldr	r5, [r3, #40]
 499              		.loc 1 288 44 discriminator 1 view .LVU141
 500 0026 002D     		cmp	r5, #0
 501 0028 6DD0     		beq	.L47
 502              		.loc 1 288 114 discriminator 2 view .LVU142
ARM GAS  C:\Users\97116\AppData\Local\Temp\cc1M8sM0.s 			page 15


 503 002a DE68     		ldr	r6, [r3, #12]
 504              		.loc 1 288 95 discriminator 2 view .LVU143
 505 002c 002E     		cmp	r6, #0
 506 002e 6CD0     		beq	.L48
 289:Dsp/widget/wgt_core/UI_Controller.c ****     {
 290:Dsp/widget/wgt_core/UI_Controller.c ****         if (Obj->state == UI_Btn_PushDwn)
 507              		.loc 1 290 9 is_stmt 1 view .LVU144
 508              		.loc 1 290 16 is_stmt 0 view .LVU145
 509 0030 637A     		ldrb	r3, [r4, #9]	@ zero_extendqisi2
 510              		.loc 1 290 12 view .LVU146
 511 0032 012B     		cmp	r3, #1
 512 0034 3FD0     		beq	.L54
 291:Dsp/widget/wgt_core/UI_Controller.c ****         {
 292:Dsp/widget/wgt_core/UI_Controller.c ****             /* fill button frame */
 293:Dsp/widget/wgt_core/UI_Controller.c ****             UI_DspInterface.fill_radius_rectangle(Obj->Gen_Data.x + 1, Obj->Gen_Data.y + 1, Obj->wi
 294:Dsp/widget/wgt_core/UI_Controller.c **** 
 295:Dsp/widget/wgt_core/UI_Controller.c ****             /* invert string display */
 296:Dsp/widget/wgt_core/UI_Controller.c ****             if (Obj->PushDown_Label != NULL)
 297:Dsp/widget/wgt_core/UI_Controller.c ****                 UI_DspInterface.draw_str(Default_Font, Obj->PushDown_Label, Obj->Gen_Data.x + 3, Ob
 298:Dsp/widget/wgt_core/UI_Controller.c ****         }
 299:Dsp/widget/wgt_core/UI_Controller.c ****         else
 300:Dsp/widget/wgt_core/UI_Controller.c ****         {
 301:Dsp/widget/wgt_core/UI_Controller.c ****             /* draw button frame */
 302:Dsp/widget/wgt_core/UI_Controller.c ****             UI_DspInterface.draw_radius_rectangle(Obj->Gen_Data.x, Obj->Gen_Data.y, Obj->width, Obj
 513              		.loc 1 302 13 is_stmt 1 view .LVU147
 514 0036 0123     		movs	r3, #1
 515 0038 0293     		str	r3, [sp, #8]
 516 003a 0193     		str	r3, [sp, #4]
 517 003c 0323     		movs	r3, #3
 518 003e 0093     		str	r3, [sp]
 519 0040 94F82930 		ldrb	r3, [r4, #41]	@ zero_extendqisi2
 520 0044 94F82820 		ldrb	r2, [r4, #40]	@ zero_extendqisi2
 521 0048 94F90510 		ldrsb	r1, [r4, #5]
 522 004c 94F90400 		ldrsb	r0, [r4, #4]
 523 0050 B047     		blx	r6
 524              	.LVL43:
 303:Dsp/widget/wgt_core/UI_Controller.c **** 
 304:Dsp/widget/wgt_core/UI_Controller.c ****             /* display label normally */
 305:Dsp/widget/wgt_core/UI_Controller.c ****             if (Obj->Release_Label != NULL)
 525              		.loc 1 305 13 view .LVU148
 526              		.loc 1 305 20 is_stmt 0 view .LVU149
 527 0052 A169     		ldr	r1, [r4, #24]
 528              		.loc 1 305 16 view .LVU150
 529 0054 0029     		cmp	r1, #0
 530 0056 5CD0     		beq	.L50
 306:Dsp/widget/wgt_core/UI_Controller.c ****                 UI_DspInterface.draw_str(Default_Font, Obj->Release_Label, Obj->Gen_Data.x + 6, Obj
 531              		.loc 1 306 17 is_stmt 1 view .LVU151
 532              		.loc 1 306 32 is_stmt 0 view .LVU152
 533 0058 2F4B     		ldr	r3, .L56
 534 005a 1E68     		ldr	r6, [r3]
 535              		.loc 1 306 89 view .LVU153
 536 005c 2279     		ldrb	r2, [r4, #4]	@ zero_extendqisi2
 537              		.loc 1 306 92 view .LVU154
 538 005e 0632     		adds	r2, r2, #6
 539              		.loc 1 306 17 view .LVU155
 540 0060 0125     		movs	r5, #1
 541 0062 0095     		str	r5, [sp]
ARM GAS  C:\Users\97116\AppData\Local\Temp\cc1M8sM0.s 			page 16


 542 0064 94F90530 		ldrsb	r3, [r4, #5]
 543 0068 52B2     		sxtb	r2, r2
 544 006a 0C20     		movs	r0, #12
 545 006c B047     		blx	r6
 546              	.LVL44:
 307:Dsp/widget/wgt_core/UI_Controller.c ****         }
 308:Dsp/widget/wgt_core/UI_Controller.c ****     }
 309:Dsp/widget/wgt_core/UI_Controller.c ****     else
 310:Dsp/widget/wgt_core/UI_Controller.c ****         return false;
 311:Dsp/widget/wgt_core/UI_Controller.c **** 
 312:Dsp/widget/wgt_core/UI_Controller.c ****     return true;
 547              		.loc 1 312 12 view .LVU156
 548 006e 2846     		mov	r0, r5
 549              	.L39:
 313:Dsp/widget/wgt_core/UI_Controller.c **** }
 550              		.loc 1 313 1 view .LVU157
 551 0070 04B0     		add	sp, sp, #16
 552              	.LCFI8:
 553              		.cfi_remember_state
 554              		.cfi_def_cfa_offset 16
 555              		@ sp needed
 556 0072 70BD     		pop	{r4, r5, r6, pc}
 557              	.LVL45:
 558              	.L52:
 559              	.LCFI9:
 560              		.cfi_restore_state
 264:Dsp/widget/wgt_core/UI_Controller.c ****         {
 561              		.loc 1 264 9 is_stmt 1 view .LVU158
 264:Dsp/widget/wgt_core/UI_Controller.c ****         {
 562              		.loc 1 264 16 is_stmt 0 view .LVU159
 563 0074 637A     		ldrb	r3, [r4, #9]	@ zero_extendqisi2
 264:Dsp/widget/wgt_core/UI_Controller.c ****         {
 564              		.loc 1 264 12 view .LVU160
 565 0076 012B     		cmp	r3, #1
 566 0078 06D0     		beq	.L55
 269:Dsp/widget/wgt_core/UI_Controller.c ****         {
 567              		.loc 1 269 14 is_stmt 1 view .LVU161
 269:Dsp/widget/wgt_core/UI_Controller.c ****         {
 568              		.loc 1 269 17 is_stmt 0 view .LVU162
 569 007a 002B     		cmp	r3, #0
 570 007c 3FD1     		bne	.L45
 271:Dsp/widget/wgt_core/UI_Controller.c ****                 Obj->release_callback();
 571              		.loc 1 271 13 is_stmt 1 view .LVU163
 271:Dsp/widget/wgt_core/UI_Controller.c ****                 Obj->release_callback();
 572              		.loc 1 271 20 is_stmt 0 view .LVU164
 573 007e 2369     		ldr	r3, [r4, #16]
 271:Dsp/widget/wgt_core/UI_Controller.c ****                 Obj->release_callback();
 574              		.loc 1 271 16 view .LVU165
 575 0080 002B     		cmp	r3, #0
 576 0082 CAD0     		beq	.L42
 272:Dsp/widget/wgt_core/UI_Controller.c ****         }
 577              		.loc 1 272 17 is_stmt 1 view .LVU166
 578 0084 9847     		blx	r3
 579              	.LVL46:
 272:Dsp/widget/wgt_core/UI_Controller.c ****         }
 580              		.loc 1 272 17 is_stmt 0 view .LVU167
 581 0086 C8E7     		b	.L42
ARM GAS  C:\Users\97116\AppData\Local\Temp\cc1M8sM0.s 			page 17


 582              	.LVL47:
 583              	.L55:
 266:Dsp/widget/wgt_core/UI_Controller.c ****                 Obj->push_callback();
 584              		.loc 1 266 13 is_stmt 1 view .LVU168
 266:Dsp/widget/wgt_core/UI_Controller.c ****                 Obj->push_callback();
 585              		.loc 1 266 20 is_stmt 0 view .LVU169
 586 0088 E368     		ldr	r3, [r4, #12]
 266:Dsp/widget/wgt_core/UI_Controller.c ****                 Obj->push_callback();
 587              		.loc 1 266 16 view .LVU170
 588 008a 002B     		cmp	r3, #0
 589 008c C5D0     		beq	.L42
 267:Dsp/widget/wgt_core/UI_Controller.c ****         }
 590              		.loc 1 267 17 is_stmt 1 view .LVU171
 591 008e 9847     		blx	r3
 592              	.LVL48:
 267:Dsp/widget/wgt_core/UI_Controller.c ****         }
 593              		.loc 1 267 17 is_stmt 0 view .LVU172
 594 0090 C3E7     		b	.L42
 595              	.LVL49:
 596              	.L53:
 279:Dsp/widget/wgt_core/UI_Controller.c ****         {
 597              		.loc 1 279 61 discriminator 1 view .LVU173
 598 0092 236A     		ldr	r3, [r4, #32]
 599 0094 626A     		ldr	r2, [r4, #36]
 279:Dsp/widget/wgt_core/UI_Controller.c ****         {
 600              		.loc 1 279 56 discriminator 1 view .LVU174
 601 0096 C01A     		subs	r0, r0, r3
 602              	.LVL50:
 279:Dsp/widget/wgt_core/UI_Controller.c ****         {
 603              		.loc 1 279 56 discriminator 1 view .LVU175
 604 0098 61EB0201 		sbc	r1, r1, r2
 279:Dsp/widget/wgt_core/UI_Controller.c ****         {
 605              		.loc 1 279 44 discriminator 1 view .LVU176
 606 009c B0F5967F 		cmp	r0, #300
 607 00a0 71F10003 		sbcs	r3, r1, #0
 608 00a4 B9D3     		bcc	.L42
 281:Dsp/widget/wgt_core/UI_Controller.c ****             UI_Button_Release(Obj);
 609              		.loc 1 281 13 is_stmt 1 view .LVU177
 281:Dsp/widget/wgt_core/UI_Controller.c ****             UI_Button_Release(Obj);
 610              		.loc 1 281 33 is_stmt 0 view .LVU178
 611 00a6 FFF7FEFF 		bl	Get_CurrentRunningMs
 612              	.LVL51:
 281:Dsp/widget/wgt_core/UI_Controller.c ****             UI_Button_Release(Obj);
 613              		.loc 1 281 31 view .LVU179
 614 00aa C4E90801 		strd	r0, [r4, #32]
 282:Dsp/widget/wgt_core/UI_Controller.c ****         }
 615              		.loc 1 282 13 is_stmt 1 view .LVU180
 616 00ae 2046     		mov	r0, r4
 617 00b0 FFF7FEFF 		bl	UI_Button_Release
 618              	.LVL52:
 619 00b4 B1E7     		b	.L42
 620              	.L54:
 293:Dsp/widget/wgt_core/UI_Controller.c **** 
 621              		.loc 1 293 13 view .LVU181
 293:Dsp/widget/wgt_core/UI_Controller.c **** 
 622              		.loc 1 293 64 is_stmt 0 view .LVU182
 623 00b6 2079     		ldrb	r0, [r4, #4]	@ zero_extendqisi2
ARM GAS  C:\Users\97116\AppData\Local\Temp\cc1M8sM0.s 			page 18


 293:Dsp/widget/wgt_core/UI_Controller.c **** 
 624              		.loc 1 293 67 view .LVU183
 625 00b8 0130     		adds	r0, r0, #1
 293:Dsp/widget/wgt_core/UI_Controller.c **** 
 626              		.loc 1 293 85 view .LVU184
 627 00ba 6179     		ldrb	r1, [r4, #5]	@ zero_extendqisi2
 293:Dsp/widget/wgt_core/UI_Controller.c **** 
 628              		.loc 1 293 88 view .LVU185
 629 00bc 0131     		adds	r1, r1, #1
 293:Dsp/widget/wgt_core/UI_Controller.c **** 
 630              		.loc 1 293 96 view .LVU186
 631 00be 94F82820 		ldrb	r2, [r4, #40]	@ zero_extendqisi2
 293:Dsp/widget/wgt_core/UI_Controller.c **** 
 632              		.loc 1 293 112 view .LVU187
 633 00c2 94F82930 		ldrb	r3, [r4, #41]	@ zero_extendqisi2
 293:Dsp/widget/wgt_core/UI_Controller.c **** 
 634              		.loc 1 293 13 view .LVU188
 635 00c6 013B     		subs	r3, r3, #1
 636 00c8 013A     		subs	r2, r2, #1
 637 00ca 0126     		movs	r6, #1
 638 00cc 0196     		str	r6, [sp, #4]
 639 00ce 0326     		movs	r6, #3
 640 00d0 0096     		str	r6, [sp]
 641 00d2 DBB2     		uxtb	r3, r3
 642 00d4 D2B2     		uxtb	r2, r2
 643 00d6 49B2     		sxtb	r1, r1
 644 00d8 40B2     		sxtb	r0, r0
 645 00da A847     		blx	r5
 646              	.LVL53:
 296:Dsp/widget/wgt_core/UI_Controller.c ****                 UI_DspInterface.draw_str(Default_Font, Obj->PushDown_Label, Obj->Gen_Data.x + 3, Ob
 647              		.loc 1 296 13 is_stmt 1 view .LVU189
 296:Dsp/widget/wgt_core/UI_Controller.c ****                 UI_DspInterface.draw_str(Default_Font, Obj->PushDown_Label, Obj->Gen_Data.x + 3, Ob
 648              		.loc 1 296 20 is_stmt 0 view .LVU190
 649 00dc 6169     		ldr	r1, [r4, #20]
 296:Dsp/widget/wgt_core/UI_Controller.c ****                 UI_DspInterface.draw_str(Default_Font, Obj->PushDown_Label, Obj->Gen_Data.x + 3, Ob
 650              		.loc 1 296 16 view .LVU191
 651 00de B1B1     		cbz	r1, .L49
 297:Dsp/widget/wgt_core/UI_Controller.c ****         }
 652              		.loc 1 297 17 is_stmt 1 view .LVU192
 297:Dsp/widget/wgt_core/UI_Controller.c ****         }
 653              		.loc 1 297 32 is_stmt 0 view .LVU193
 654 00e0 0D4B     		ldr	r3, .L56
 655 00e2 1E68     		ldr	r6, [r3]
 297:Dsp/widget/wgt_core/UI_Controller.c ****         }
 656              		.loc 1 297 90 view .LVU194
 657 00e4 2279     		ldrb	r2, [r4, #4]	@ zero_extendqisi2
 297:Dsp/widget/wgt_core/UI_Controller.c ****         }
 658              		.loc 1 297 93 view .LVU195
 659 00e6 0332     		adds	r2, r2, #3
 297:Dsp/widget/wgt_core/UI_Controller.c ****         }
 660              		.loc 1 297 17 view .LVU196
 661 00e8 0125     		movs	r5, #1
 662 00ea 0095     		str	r5, [sp]
 663 00ec 94F90530 		ldrsb	r3, [r4, #5]
 664 00f0 52B2     		sxtb	r2, r2
 665 00f2 0C20     		movs	r0, #12
 666 00f4 B047     		blx	r6
ARM GAS  C:\Users\97116\AppData\Local\Temp\cc1M8sM0.s 			page 19


 667              	.LVL54:
 312:Dsp/widget/wgt_core/UI_Controller.c **** }
 668              		.loc 1 312 12 view .LVU197
 669 00f6 2846     		mov	r0, r5
 670 00f8 BAE7     		b	.L39
 671              	.LVL55:
 672              	.L44:
 260:Dsp/widget/wgt_core/UI_Controller.c **** 
 673              		.loc 1 260 16 view .LVU198
 674 00fa 0020     		movs	r0, #0
 675              	.LVL56:
 260:Dsp/widget/wgt_core/UI_Controller.c **** 
 676              		.loc 1 260 16 view .LVU199
 677 00fc B8E7     		b	.L39
 678              	.LVL57:
 679              	.L45:
 275:Dsp/widget/wgt_core/UI_Controller.c ****     }
 680              		.loc 1 275 20 view .LVU200
 681 00fe 0020     		movs	r0, #0
 682              	.LVL58:
 275:Dsp/widget/wgt_core/UI_Controller.c ****     }
 683              		.loc 1 275 20 view .LVU201
 684 0100 B6E7     		b	.L39
 685              	.L46:
 310:Dsp/widget/wgt_core/UI_Controller.c **** 
 686              		.loc 1 310 16 view .LVU202
 687 0102 0020     		movs	r0, #0
 688 0104 B4E7     		b	.L39
 689              	.L47:
 690 0106 0020     		movs	r0, #0
 691 0108 B2E7     		b	.L39
 692              	.L48:
 693 010a 0020     		movs	r0, #0
 694 010c B0E7     		b	.L39
 695              	.L49:
 312:Dsp/widget/wgt_core/UI_Controller.c **** }
 696              		.loc 1 312 12 view .LVU203
 697 010e 0120     		movs	r0, #1
 698 0110 AEE7     		b	.L39
 699              	.L50:
 312:Dsp/widget/wgt_core/UI_Controller.c **** }
 700              		.loc 1 312 12 view .LVU204
 701 0112 0120     		movs	r0, #1
 702 0114 ACE7     		b	.L39
 703              	.L57:
 704 0116 00BF     		.align	2
 705              	.L56:
 706 0118 00000000 		.word	.LANCHOR0
 707              		.cfi_endproc
 708              	.LFE10:
 710              		.section	.text.UI_Button_Push,"ax",%progbits
 711              		.align	1
 712              		.syntax unified
 713              		.thumb
 714              		.thumb_func
 715              		.fpu fpv4-sp-d16
 717              	UI_Button_Push:
ARM GAS  C:\Users\97116\AppData\Local\Temp\cc1M8sM0.s 			page 20


 718              	.LVL59:
 719              	.LFB7:
 199:Dsp/widget/wgt_core/UI_Controller.c ****     if (Obj == NULL)
 720              		.loc 1 199 1 is_stmt 1 view -0
 721              		.cfi_startproc
 722              		@ args = 0, pretend = 0, frame = 0
 723              		@ frame_needed = 0, uses_anonymous_args = 0
 200:Dsp/widget/wgt_core/UI_Controller.c ****         return false;
 724              		.loc 1 200 5 view .LVU206
 200:Dsp/widget/wgt_core/UI_Controller.c ****         return false;
 725              		.loc 1 200 8 is_stmt 0 view .LVU207
 726 0000 08B3     		cbz	r0, .L62
 199:Dsp/widget/wgt_core/UI_Controller.c ****     if (Obj == NULL)
 727              		.loc 1 199 1 view .LVU208
 728 0002 10B5     		push	{r4, lr}
 729              	.LCFI10:
 730              		.cfi_def_cfa_offset 8
 731              		.cfi_offset 4, -8
 732              		.cfi_offset 14, -4
 733 0004 0446     		mov	r4, r0
 203:Dsp/widget/wgt_core/UI_Controller.c **** 
 734              		.loc 1 203 5 is_stmt 1 view .LVU209
 203:Dsp/widget/wgt_core/UI_Controller.c **** 
 735              		.loc 1 203 25 is_stmt 0 view .LVU210
 736 0006 FFF7FEFF 		bl	Get_CurrentRunningMs
 737              	.LVL60:
 203:Dsp/widget/wgt_core/UI_Controller.c **** 
 738              		.loc 1 203 23 view .LVU211
 739 000a C4E90801 		strd	r0, [r4, #32]
 205:Dsp/widget/wgt_core/UI_Controller.c ****     {
 740              		.loc 1 205 5 is_stmt 1 view .LVU212
 205:Dsp/widget/wgt_core/UI_Controller.c ****     {
 741              		.loc 1 205 12 is_stmt 0 view .LVU213
 742 000e A37A     		ldrb	r3, [r4, #10]	@ zero_extendqisi2
 205:Dsp/widget/wgt_core/UI_Controller.c ****     {
 743              		.loc 1 205 8 view .LVU214
 744 0010 012B     		cmp	r3, #1
 745 0012 06D0     		beq	.L70
 212:Dsp/widget/wgt_core/UI_Controller.c ****     {
 746              		.loc 1 212 10 is_stmt 1 view .LVU215
 212:Dsp/widget/wgt_core/UI_Controller.c ****     {
 747              		.loc 1 212 13 is_stmt 0 view .LVU216
 748 0014 CBB9     		cbnz	r3, .L63
 214:Dsp/widget/wgt_core/UI_Controller.c ****         {
 749              		.loc 1 214 9 is_stmt 1 view .LVU217
 214:Dsp/widget/wgt_core/UI_Controller.c ****         {
 750              		.loc 1 214 16 is_stmt 0 view .LVU218
 751 0016 237A     		ldrb	r3, [r4, #8]	@ zero_extendqisi2
 214:Dsp/widget/wgt_core/UI_Controller.c ****         {
 752              		.loc 1 214 38 view .LVU219
 753 0018 627A     		ldrb	r2, [r4, #9]	@ zero_extendqisi2
 214:Dsp/widget/wgt_core/UI_Controller.c ****         {
 754              		.loc 1 214 12 view .LVU220
 755 001a 9342     		cmp	r3, r2
 756 001c 0AD0     		beq	.L71
 225:Dsp/widget/wgt_core/UI_Controller.c **** }
 757              		.loc 1 225 12 view .LVU221
ARM GAS  C:\Users\97116\AppData\Local\Temp\cc1M8sM0.s 			page 21


 758 001e 0120     		movs	r0, #1
 759              	.L59:
 226:Dsp/widget/wgt_core/UI_Controller.c **** 
 760              		.loc 1 226 1 view .LVU222
 761 0020 10BD     		pop	{r4, pc}
 762              	.LVL61:
 763              	.L70:
 207:Dsp/widget/wgt_core/UI_Controller.c ****             Obj->state = UI_Btn_PushDwn;
 764              		.loc 1 207 9 is_stmt 1 view .LVU223
 207:Dsp/widget/wgt_core/UI_Controller.c ****             Obj->state = UI_Btn_PushDwn;
 765              		.loc 1 207 16 is_stmt 0 view .LVU224
 766 0022 637A     		ldrb	r3, [r4, #9]	@ zero_extendqisi2
 207:Dsp/widget/wgt_core/UI_Controller.c ****             Obj->state = UI_Btn_PushDwn;
 767              		.loc 1 207 12 view .LVU225
 768 0024 13B9     		cbnz	r3, .L61
 208:Dsp/widget/wgt_core/UI_Controller.c ****         else
 769              		.loc 1 208 13 is_stmt 1 view .LVU226
 208:Dsp/widget/wgt_core/UI_Controller.c ****         else
 770              		.loc 1 208 24 is_stmt 0 view .LVU227
 771 0026 0120     		movs	r0, #1
 772 0028 6072     		strb	r0, [r4, #9]
 773 002a F9E7     		b	.L59
 774              	.L61:
 210:Dsp/widget/wgt_core/UI_Controller.c ****     }
 775              		.loc 1 210 13 is_stmt 1 view .LVU228
 210:Dsp/widget/wgt_core/UI_Controller.c ****     }
 776              		.loc 1 210 24 is_stmt 0 view .LVU229
 777 002c 0023     		movs	r3, #0
 778 002e 6372     		strb	r3, [r4, #9]
 225:Dsp/widget/wgt_core/UI_Controller.c **** }
 779              		.loc 1 225 12 view .LVU230
 780 0030 0120     		movs	r0, #1
 781 0032 F5E7     		b	.L59
 782              	.L71:
 216:Dsp/widget/wgt_core/UI_Controller.c **** 
 783              		.loc 1 216 13 is_stmt 1 view .LVU231
 216:Dsp/widget/wgt_core/UI_Controller.c **** 
 784              		.loc 1 216 26 is_stmt 0 view .LVU232
 785 0034 B3FA83F3 		clz	r3, r3
 786 0038 5B09     		lsrs	r3, r3, #5
 216:Dsp/widget/wgt_core/UI_Controller.c **** 
 787              		.loc 1 216 24 view .LVU233
 788 003a 6372     		strb	r3, [r4, #9]
 218:Dsp/widget/wgt_core/UI_Controller.c ****                 Obj->push_callback();
 789              		.loc 1 218 13 is_stmt 1 view .LVU234
 218:Dsp/widget/wgt_core/UI_Controller.c ****                 Obj->push_callback();
 790              		.loc 1 218 20 is_stmt 0 view .LVU235
 791 003c E368     		ldr	r3, [r4, #12]
 218:Dsp/widget/wgt_core/UI_Controller.c ****                 Obj->push_callback();
 792              		.loc 1 218 16 view .LVU236
 793 003e 33B1     		cbz	r3, .L65
 219:Dsp/widget/wgt_core/UI_Controller.c ****         }
 794              		.loc 1 219 17 is_stmt 1 view .LVU237
 795 0040 9847     		blx	r3
 796              	.LVL62:
 225:Dsp/widget/wgt_core/UI_Controller.c **** }
 797              		.loc 1 225 12 is_stmt 0 view .LVU238
ARM GAS  C:\Users\97116\AppData\Local\Temp\cc1M8sM0.s 			page 22


 798 0042 0120     		movs	r0, #1
 799 0044 ECE7     		b	.L59
 800              	.LVL63:
 801              	.L62:
 802              	.LCFI11:
 803              		.cfi_def_cfa_offset 0
 804              		.cfi_restore 4
 805              		.cfi_restore 14
 201:Dsp/widget/wgt_core/UI_Controller.c **** 
 806              		.loc 1 201 16 view .LVU239
 807 0046 0020     		movs	r0, #0
 808              	.LVL64:
 226:Dsp/widget/wgt_core/UI_Controller.c **** 
 809              		.loc 1 226 1 view .LVU240
 810 0048 7047     		bx	lr
 811              	.LVL65:
 812              	.L63:
 813              	.LCFI12:
 814              		.cfi_def_cfa_offset 8
 815              		.cfi_offset 4, -8
 816              		.cfi_offset 14, -4
 223:Dsp/widget/wgt_core/UI_Controller.c **** 
 817              		.loc 1 223 16 view .LVU241
 818 004a 0020     		movs	r0, #0
 819 004c E8E7     		b	.L59
 820              	.L65:
 225:Dsp/widget/wgt_core/UI_Controller.c **** }
 821              		.loc 1 225 12 view .LVU242
 822 004e 0120     		movs	r0, #1
 823 0050 E6E7     		b	.L59
 824              		.cfi_endproc
 825              	.LFE7:
 827              		.section	.text.UI_Set_DspInterface,"ax",%progbits
 828              		.align	1
 829              		.global	UI_Set_DspInterface
 830              		.syntax unified
 831              		.thumb
 832              		.thumb_func
 833              		.fpu fpv4-sp-d16
 835              	UI_Set_DspInterface:
 836              	.LVL66:
 837              	.LFB0:
  47:Dsp/widget/wgt_core/UI_Controller.c ****     UI_DspInterface.draw_circle = circle;
 838              		.loc 1 47 1 is_stmt 1 view -0
 839              		.cfi_startproc
 840              		@ args = 28, pretend = 0, frame = 0
 841              		@ frame_needed = 0, uses_anonymous_args = 0
 842              		@ link register save eliminated.
  47:Dsp/widget/wgt_core/UI_Controller.c ****     UI_DspInterface.draw_circle = circle;
 843              		.loc 1 47 1 is_stmt 0 view .LVU244
 844 0000 30B4     		push	{r4, r5}
 845              	.LCFI13:
 846              		.cfi_def_cfa_offset 8
 847              		.cfi_offset 4, -8
 848              		.cfi_offset 5, -4
  48:Dsp/widget/wgt_core/UI_Controller.c ****     UI_DspInterface.draw_circle_section = circle_section;
 849              		.loc 1 48 5 is_stmt 1 view .LVU245
ARM GAS  C:\Users\97116\AppData\Local\Temp\cc1M8sM0.s 			page 23


  48:Dsp/widget/wgt_core/UI_Controller.c ****     UI_DspInterface.draw_circle_section = circle_section;
 850              		.loc 1 48 33 is_stmt 0 view .LVU246
 851 0002 0A4C     		ldr	r4, .L74
 852 0004 029D     		ldr	r5, [sp, #8]
 853 0006 6561     		str	r5, [r4, #20]
  49:Dsp/widget/wgt_core/UI_Controller.c ****     UI_DspInterface.draw_line = line;
 854              		.loc 1 49 5 is_stmt 1 view .LVU247
  49:Dsp/widget/wgt_core/UI_Controller.c ****     UI_DspInterface.draw_line = line;
 855              		.loc 1 49 41 is_stmt 0 view .LVU248
 856 0008 039D     		ldr	r5, [sp, #12]
 857 000a A561     		str	r5, [r4, #24]
  50:Dsp/widget/wgt_core/UI_Controller.c ****     UI_DspInterface.draw_point = point;
 858              		.loc 1 50 5 is_stmt 1 view .LVU249
  50:Dsp/widget/wgt_core/UI_Controller.c ****     UI_DspInterface.draw_point = point;
 859              		.loc 1 50 31 is_stmt 0 view .LVU250
 860 000c A160     		str	r1, [r4, #8]
  51:Dsp/widget/wgt_core/UI_Controller.c ****     UI_DspInterface.draw_rectangle = rectangle;
 861              		.loc 1 51 5 is_stmt 1 view .LVU251
  51:Dsp/widget/wgt_core/UI_Controller.c ****     UI_DspInterface.draw_rectangle = rectangle;
 862              		.loc 1 51 32 is_stmt 0 view .LVU252
 863 000e 6060     		str	r0, [r4, #4]
  52:Dsp/widget/wgt_core/UI_Controller.c ****     UI_DspInterface.draw_radius_rectangle = radius_rectangle;
 864              		.loc 1 52 5 is_stmt 1 view .LVU253
  52:Dsp/widget/wgt_core/UI_Controller.c ****     UI_DspInterface.draw_radius_rectangle = radius_rectangle;
 865              		.loc 1 52 36 is_stmt 0 view .LVU254
 866 0010 2261     		str	r2, [r4, #16]
  53:Dsp/widget/wgt_core/UI_Controller.c ****     UI_DspInterface.draw_str = str;
 867              		.loc 1 53 5 is_stmt 1 view .LVU255
  53:Dsp/widget/wgt_core/UI_Controller.c ****     UI_DspInterface.draw_str = str;
 868              		.loc 1 53 43 is_stmt 0 view .LVU256
 869 0012 E360     		str	r3, [r4, #12]
  54:Dsp/widget/wgt_core/UI_Controller.c **** 
 870              		.loc 1 54 5 is_stmt 1 view .LVU257
  54:Dsp/widget/wgt_core/UI_Controller.c **** 
 871              		.loc 1 54 30 is_stmt 0 view .LVU258
 872 0014 049B     		ldr	r3, [sp, #16]
 873              	.LVL67:
  54:Dsp/widget/wgt_core/UI_Controller.c **** 
 874              		.loc 1 54 30 view .LVU259
 875 0016 2360     		str	r3, [r4]
  56:Dsp/widget/wgt_core/UI_Controller.c ****     UI_DspInterface.fill_circle_section = fillcircle_section;
 876              		.loc 1 56 5 is_stmt 1 view .LVU260
  56:Dsp/widget/wgt_core/UI_Controller.c ****     UI_DspInterface.fill_circle_section = fillcircle_section;
 877              		.loc 1 56 33 is_stmt 0 view .LVU261
 878 0018 059B     		ldr	r3, [sp, #20]
 879 001a 2362     		str	r3, [r4, #32]
  57:Dsp/widget/wgt_core/UI_Controller.c ****     UI_DspInterface.fill_radius_rectangle = fill_radius_rectangle;
 880              		.loc 1 57 5 is_stmt 1 view .LVU262
  57:Dsp/widget/wgt_core/UI_Controller.c ****     UI_DspInterface.fill_radius_rectangle = fill_radius_rectangle;
 881              		.loc 1 57 41 is_stmt 0 view .LVU263
 882 001c 069B     		ldr	r3, [sp, #24]
 883 001e 6362     		str	r3, [r4, #36]
  58:Dsp/widget/wgt_core/UI_Controller.c ****     UI_DspInterface.fill_rectangle = fill_rectangle;
 884              		.loc 1 58 5 is_stmt 1 view .LVU264
  58:Dsp/widget/wgt_core/UI_Controller.c ****     UI_DspInterface.fill_rectangle = fill_rectangle;
 885              		.loc 1 58 43 is_stmt 0 view .LVU265
 886 0020 089B     		ldr	r3, [sp, #32]
ARM GAS  C:\Users\97116\AppData\Local\Temp\cc1M8sM0.s 			page 24


 887 0022 A362     		str	r3, [r4, #40]
  59:Dsp/widget/wgt_core/UI_Controller.c **** }
 888              		.loc 1 59 5 is_stmt 1 view .LVU266
  59:Dsp/widget/wgt_core/UI_Controller.c **** }
 889              		.loc 1 59 36 is_stmt 0 view .LVU267
 890 0024 079B     		ldr	r3, [sp, #28]
 891 0026 E361     		str	r3, [r4, #28]
  60:Dsp/widget/wgt_core/UI_Controller.c **** 
 892              		.loc 1 60 1 view .LVU268
 893 0028 30BC     		pop	{r4, r5}
 894              	.LCFI14:
 895              		.cfi_restore 5
 896              		.cfi_restore 4
 897              		.cfi_def_cfa_offset 0
 898              	.LVL68:
  60:Dsp/widget/wgt_core/UI_Controller.c **** 
 899              		.loc 1 60 1 view .LVU269
 900 002a 7047     		bx	lr
 901              	.L75:
 902              		.align	2
 903              	.L74:
 904 002c 00000000 		.word	.LANCHOR0
 905              		.cfi_endproc
 906              	.LFE0:
 908              		.section	.text.UI_ShowSelector,"ax",%progbits
 909              		.align	1
 910              		.global	UI_ShowSelector
 911              		.syntax unified
 912              		.thumb
 913              		.thumb_func
 914              		.fpu fpv4-sp-d16
 916              	UI_ShowSelector:
 917              	.LVL69:
 918              	.LFB1:
  65:Dsp/widget/wgt_core/UI_Controller.c ****     /* button selector coordinate */
 919              		.loc 1 65 1 is_stmt 1 view -0
 920              		.cfi_startproc
 921              		@ args = 0, pretend = 0, frame = 0
 922              		@ frame_needed = 0, uses_anonymous_args = 0
  67:Dsp/widget/wgt_core/UI_Controller.c ****     int8_t Btn_Slct_LftUp_Y = 0;
 923              		.loc 1 67 5 view .LVU271
  68:Dsp/widget/wgt_core/UI_Controller.c ****     int8_t Btn_Slct_LftDwn_X = 0;
 924              		.loc 1 68 5 view .LVU272
  69:Dsp/widget/wgt_core/UI_Controller.c ****     int8_t Btn_Slct_LftDwn_Y = 0;
 925              		.loc 1 69 5 view .LVU273
  70:Dsp/widget/wgt_core/UI_Controller.c ****     int8_t Btn_Slct_RgtUp_X = 0;
 926              		.loc 1 70 5 view .LVU274
  71:Dsp/widget/wgt_core/UI_Controller.c ****     int8_t Btn_Slct_RgtUp_Y = 0;
 927              		.loc 1 71 5 view .LVU275
  72:Dsp/widget/wgt_core/UI_Controller.c ****     int8_t Btn_Slct_RgtDwn_X = 0;
 928              		.loc 1 72 5 view .LVU276
  73:Dsp/widget/wgt_core/UI_Controller.c ****     int8_t Btn_Slct_RgtDwn_Y = 0;
 929              		.loc 1 73 5 view .LVU277
  74:Dsp/widget/wgt_core/UI_Controller.c **** 
 930              		.loc 1 74 5 view .LVU278
  76:Dsp/widget/wgt_core/UI_Controller.c ****         (UI_DspInterface.fill_circle_section != NULL))
 931              		.loc 1 76 5 view .LVU279
ARM GAS  C:\Users\97116\AppData\Local\Temp\cc1M8sM0.s 			page 25


  76:Dsp/widget/wgt_core/UI_Controller.c ****         (UI_DspInterface.fill_circle_section != NULL))
 932              		.loc 1 76 8 is_stmt 0 view .LVU280
 933 0000 0028     		cmp	r0, #0
 934 0002 64D0     		beq	.L78
  65:Dsp/widget/wgt_core/UI_Controller.c ****     /* button selector coordinate */
 935              		.loc 1 65 1 discriminator 1 view .LVU281
 936 0004 2DE9F04F 		push	{r4, r5, r6, r7, r8, r9, r10, fp, lr}
 937              	.LCFI15:
 938              		.cfi_def_cfa_offset 36
 939              		.cfi_offset 4, -36
 940              		.cfi_offset 5, -32
 941              		.cfi_offset 6, -28
 942              		.cfi_offset 7, -24
 943              		.cfi_offset 8, -20
 944              		.cfi_offset 9, -16
 945              		.cfi_offset 10, -12
 946              		.cfi_offset 11, -8
 947              		.cfi_offset 14, -4
 948 0008 83B0     		sub	sp, sp, #12
 949              	.LCFI16:
 950              		.cfi_def_cfa_offset 48
  77:Dsp/widget/wgt_core/UI_Controller.c ****         return false;
 951              		.loc 1 77 25 discriminator 1 view .LVU282
 952 000a 334B     		ldr	r3, .L86
 953 000c 5E6A     		ldr	r6, [r3, #36]
  76:Dsp/widget/wgt_core/UI_Controller.c ****         (UI_DspInterface.fill_circle_section != NULL))
 954              		.loc 1 76 24 discriminator 1 view .LVU283
 955 000e 1EB1     		cbz	r6, .L85
  78:Dsp/widget/wgt_core/UI_Controller.c **** 
 956              		.loc 1 78 16 view .LVU284
 957 0010 0020     		movs	r0, #0
 958              	.LVL70:
 959              	.L77:
 114:Dsp/widget/wgt_core/UI_Controller.c **** 
 960              		.loc 1 114 1 view .LVU285
 961 0012 03B0     		add	sp, sp, #12
 962              	.LCFI17:
 963              		.cfi_remember_state
 964              		.cfi_def_cfa_offset 36
 965              		@ sp needed
 966 0014 BDE8F08F 		pop	{r4, r5, r6, r7, r8, r9, r10, fp, pc}
 967              	.LVL71:
 968              	.L85:
 969              	.LCFI18:
 970              		.cfi_restore_state
  80:Dsp/widget/wgt_core/UI_Controller.c ****     {
 971              		.loc 1 80 5 is_stmt 1 view .LVU286
  80:Dsp/widget/wgt_core/UI_Controller.c ****     {
 972              		.loc 1 80 27 is_stmt 0 view .LVU287
 973 0018 0378     		ldrb	r3, [r0]	@ zero_extendqisi2
  80:Dsp/widget/wgt_core/UI_Controller.c ****     {
 974              		.loc 1 80 5 view .LVU288
 975 001a 002B     		cmp	r3, #0
 976 001c 59D1     		bne	.L80
  84:Dsp/widget/wgt_core/UI_Controller.c ****         Btn_Slct_LftUp_Y = ((UI_ButtonObj_TypeDef *)(item->Handler))->Gen_Data.y + ((UI_ButtonObj_T
 977              		.loc 1 84 9 is_stmt 1 view .LVU289
  84:Dsp/widget/wgt_core/UI_Controller.c ****         Btn_Slct_LftUp_Y = ((UI_ButtonObj_TypeDef *)(item->Handler))->Gen_Data.y + ((UI_ButtonObj_T
ARM GAS  C:\Users\97116\AppData\Local\Temp\cc1M8sM0.s 			page 26


 978              		.loc 1 84 58 is_stmt 0 view .LVU290
 979 001e 4268     		ldr	r2, [r0, #4]
  84:Dsp/widget/wgt_core/UI_Controller.c ****         Btn_Slct_LftUp_Y = ((UI_ButtonObj_TypeDef *)(item->Handler))->Gen_Data.y + ((UI_ButtonObj_T
 980              		.loc 1 84 79 view .LVU291
 981 0020 1379     		ldrb	r3, [r2, #4]	@ zero_extendqisi2
  84:Dsp/widget/wgt_core/UI_Controller.c ****         Btn_Slct_LftUp_Y = ((UI_ButtonObj_TypeDef *)(item->Handler))->Gen_Data.y + ((UI_ButtonObj_T
 982              		.loc 1 84 82 view .LVU292
 983 0022 03F1030A 		add	r10, r3, #3
  84:Dsp/widget/wgt_core/UI_Controller.c ****         Btn_Slct_LftUp_Y = ((UI_ButtonObj_TypeDef *)(item->Handler))->Gen_Data.y + ((UI_ButtonObj_T
 984              		.loc 1 84 26 view .LVU293
 985 0026 4FFA8AFA 		sxtb	r10, r10
 986              	.LVL72:
  85:Dsp/widget/wgt_core/UI_Controller.c **** 
 987              		.loc 1 85 9 is_stmt 1 view .LVU294
  85:Dsp/widget/wgt_core/UI_Controller.c **** 
 988              		.loc 1 85 79 is_stmt 0 view .LVU295
 989 002a 92F80580 		ldrb	r8, [r2, #5]	@ zero_extendqisi2
  85:Dsp/widget/wgt_core/UI_Controller.c **** 
 990              		.loc 1 85 125 view .LVU296
 991 002e 92F82950 		ldrb	r5, [r2, #41]	@ zero_extendqisi2
  85:Dsp/widget/wgt_core/UI_Controller.c **** 
 992              		.loc 1 85 82 view .LVU297
 993 0032 4544     		add	r5, r5, r8
 994 0034 EDB2     		uxtb	r5, r5
  85:Dsp/widget/wgt_core/UI_Controller.c **** 
 995              		.loc 1 85 134 view .LVU298
 996 0036 033D     		subs	r5, r5, #3
  85:Dsp/widget/wgt_core/UI_Controller.c **** 
 997              		.loc 1 85 26 view .LVU299
 998 0038 4FFA85FB 		sxtb	fp, r5
 999              	.LVL73:
  87:Dsp/widget/wgt_core/UI_Controller.c ****         Btn_Slct_LftDwn_Y = ((UI_ButtonObj_TypeDef *)(item->Handler))->Gen_Data.y + DEFAULT_BUTTON_
 1000              		.loc 1 87 9 is_stmt 1 view .LVU300
  88:Dsp/widget/wgt_core/UI_Controller.c **** 
 1001              		.loc 1 88 9 view .LVU301
  88:Dsp/widget/wgt_core/UI_Controller.c **** 
 1002              		.loc 1 88 83 is_stmt 0 view .LVU302
 1003 003c 08F10308 		add	r8, r8, #3
  88:Dsp/widget/wgt_core/UI_Controller.c **** 
 1004              		.loc 1 88 27 view .LVU303
 1005 0040 4FFA88F8 		sxtb	r8, r8
 1006              	.LVL74:
  90:Dsp/widget/wgt_core/UI_Controller.c ****         Btn_Slct_RgtUp_Y = Btn_Slct_LftUp_Y;
 1007              		.loc 1 90 9 is_stmt 1 view .LVU304
  90:Dsp/widget/wgt_core/UI_Controller.c ****         Btn_Slct_RgtUp_Y = Btn_Slct_LftUp_Y;
 1008              		.loc 1 90 125 is_stmt 0 view .LVU305
 1009 0044 92F82890 		ldrb	r9, [r2, #40]	@ zero_extendqisi2
  90:Dsp/widget/wgt_core/UI_Controller.c ****         Btn_Slct_RgtUp_Y = Btn_Slct_LftUp_Y;
 1010              		.loc 1 90 82 view .LVU306
 1011 0048 9944     		add	r9, r9, r3
 1012 004a 5FFA89F9 		uxtb	r9, r9
  90:Dsp/widget/wgt_core/UI_Controller.c ****         Btn_Slct_RgtUp_Y = Btn_Slct_LftUp_Y;
 1013              		.loc 1 90 133 view .LVU307
 1014 004e A9F10309 		sub	r9, r9, #3
  90:Dsp/widget/wgt_core/UI_Controller.c ****         Btn_Slct_RgtUp_Y = Btn_Slct_LftUp_Y;
 1015              		.loc 1 90 26 view .LVU308
 1016 0052 4FFA89F9 		sxtb	r9, r9
ARM GAS  C:\Users\97116\AppData\Local\Temp\cc1M8sM0.s 			page 27


 1017              	.LVL75:
  91:Dsp/widget/wgt_core/UI_Controller.c **** 
 1018              		.loc 1 91 9 is_stmt 1 view .LVU309
  93:Dsp/widget/wgt_core/UI_Controller.c ****         Btn_Slct_RgtDwn_Y = Btn_Slct_LftDwn_Y;
 1019              		.loc 1 93 9 view .LVU310
  94:Dsp/widget/wgt_core/UI_Controller.c **** 
 1020              		.loc 1 94 9 view .LVU311
  97:Dsp/widget/wgt_core/UI_Controller.c ****         UI_DspInterface.fill_circle_section(Btn_Slct_LftUp_X, Btn_Slct_LftUp_Y, BUTTON_SELECTOR_LIN
 1021              		.loc 1 97 9 view .LVU312
 1022 0056 0124     		movs	r4, #1
 1023 0058 0094     		str	r4, [sp]
 1024 005a 0023     		movs	r3, #0
 1025 005c 0522     		movs	r2, #5
 1026 005e 5946     		mov	r1, fp
 1027 0060 5046     		mov	r0, r10
 1028              	.LVL76:
  97:Dsp/widget/wgt_core/UI_Controller.c ****         UI_DspInterface.fill_circle_section(Btn_Slct_LftUp_X, Btn_Slct_LftUp_Y, BUTTON_SELECTOR_LIN
 1029              		.loc 1 97 9 is_stmt 0 view .LVU313
 1030 0062 B047     		blx	r6
 1031              	.LVL77:
  98:Dsp/widget/wgt_core/UI_Controller.c **** 
 1032              		.loc 1 98 9 is_stmt 1 view .LVU314
  98:Dsp/widget/wgt_core/UI_Controller.c **** 
 1033              		.loc 1 98 24 is_stmt 0 view .LVU315
 1034 0064 1C4E     		ldr	r6, .L86
  98:Dsp/widget/wgt_core/UI_Controller.c **** 
 1035              		.loc 1 98 9 view .LVU316
 1036 0066 0027     		movs	r7, #0
 1037 0068 0097     		str	r7, [sp]
 1038 006a 3B46     		mov	r3, r7
 1039 006c 0222     		movs	r2, #2
 1040 006e 5946     		mov	r1, fp
 1041 0070 5046     		mov	r0, r10
 1042 0072 756A     		ldr	r5, [r6, #36]
 1043 0074 A847     		blx	r5
 1044              	.LVL78:
 100:Dsp/widget/wgt_core/UI_Controller.c ****         UI_DspInterface.fill_circle_section(Btn_Slct_LftDwn_X, Btn_Slct_LftDwn_Y, BUTTON_SELECTOR_L
 1045              		.loc 1 100 9 is_stmt 1 view .LVU317
 1046 0076 0094     		str	r4, [sp]
 1047 0078 2346     		mov	r3, r4
 1048 007a 0522     		movs	r2, #5
 1049 007c 4146     		mov	r1, r8
 1050 007e 5046     		mov	r0, r10
 1051 0080 756A     		ldr	r5, [r6, #36]
 1052 0082 A847     		blx	r5
 1053              	.LVL79:
 101:Dsp/widget/wgt_core/UI_Controller.c **** 
 1054              		.loc 1 101 9 view .LVU318
 1055 0084 0097     		str	r7, [sp]
 1056 0086 2346     		mov	r3, r4
 1057 0088 0222     		movs	r2, #2
 1058 008a 4146     		mov	r1, r8
 1059 008c 5046     		mov	r0, r10
 1060 008e 756A     		ldr	r5, [r6, #36]
 1061 0090 A847     		blx	r5
 1062              	.LVL80:
 103:Dsp/widget/wgt_core/UI_Controller.c ****         UI_DspInterface.fill_circle_section(Btn_Slct_RgtUp_X, Btn_Slct_RgtUp_Y, BUTTON_SELECTOR_LIN
ARM GAS  C:\Users\97116\AppData\Local\Temp\cc1M8sM0.s 			page 28


 1063              		.loc 1 103 9 view .LVU319
 1064 0092 0094     		str	r4, [sp]
 1065 0094 0223     		movs	r3, #2
 1066 0096 0522     		movs	r2, #5
 1067 0098 5946     		mov	r1, fp
 1068 009a 4846     		mov	r0, r9
 1069 009c 756A     		ldr	r5, [r6, #36]
 1070 009e A847     		blx	r5
 1071              	.LVL81:
 104:Dsp/widget/wgt_core/UI_Controller.c **** 
 1072              		.loc 1 104 9 view .LVU320
 1073 00a0 0097     		str	r7, [sp]
 1074 00a2 0223     		movs	r3, #2
 1075 00a4 1A46     		mov	r2, r3
 1076 00a6 5946     		mov	r1, fp
 1077 00a8 4846     		mov	r0, r9
 1078 00aa 756A     		ldr	r5, [r6, #36]
 1079 00ac A847     		blx	r5
 1080              	.LVL82:
 106:Dsp/widget/wgt_core/UI_Controller.c ****         UI_DspInterface.fill_circle_section(Btn_Slct_RgtDwn_X, Btn_Slct_RgtDwn_Y, BUTTON_SELECTOR_L
 1081              		.loc 1 106 9 view .LVU321
 106:Dsp/widget/wgt_core/UI_Controller.c ****         UI_DspInterface.fill_circle_section(Btn_Slct_RgtDwn_X, Btn_Slct_RgtDwn_Y, BUTTON_SELECTOR_L
 1082              		.loc 1 106 24 is_stmt 0 view .LVU322
 1083 00ae 756A     		ldr	r5, [r6, #36]
 106:Dsp/widget/wgt_core/UI_Controller.c ****         UI_DspInterface.fill_circle_section(Btn_Slct_RgtDwn_X, Btn_Slct_RgtDwn_Y, BUTTON_SELECTOR_L
 1084              		.loc 1 106 9 view .LVU323
 1085 00b0 0094     		str	r4, [sp]
 1086 00b2 0323     		movs	r3, #3
 1087 00b4 0522     		movs	r2, #5
 1088 00b6 4146     		mov	r1, r8
 1089 00b8 4846     		mov	r0, r9
 1090 00ba A847     		blx	r5
 1091              	.LVL83:
 107:Dsp/widget/wgt_core/UI_Controller.c ****         break;
 1092              		.loc 1 107 9 is_stmt 1 view .LVU324
 107:Dsp/widget/wgt_core/UI_Controller.c ****         break;
 1093              		.loc 1 107 24 is_stmt 0 view .LVU325
 1094 00bc 756A     		ldr	r5, [r6, #36]
 107:Dsp/widget/wgt_core/UI_Controller.c ****         break;
 1095              		.loc 1 107 9 view .LVU326
 1096 00be 0097     		str	r7, [sp]
 1097 00c0 0323     		movs	r3, #3
 1098 00c2 0222     		movs	r2, #2
 1099 00c4 4146     		mov	r1, r8
 1100 00c6 4846     		mov	r0, r9
 1101 00c8 A847     		blx	r5
 1102              	.LVL84:
 108:Dsp/widget/wgt_core/UI_Controller.c **** 
 1103              		.loc 1 108 9 is_stmt 1 view .LVU327
 113:Dsp/widget/wgt_core/UI_Controller.c **** }
 1104              		.loc 1 113 12 is_stmt 0 view .LVU328
 1105 00ca 2046     		mov	r0, r4
 108:Dsp/widget/wgt_core/UI_Controller.c **** 
 1106              		.loc 1 108 9 view .LVU329
 1107 00cc A1E7     		b	.L77
 1108              	.LVL85:
 1109              	.L78:
ARM GAS  C:\Users\97116\AppData\Local\Temp\cc1M8sM0.s 			page 29


 1110              	.LCFI19:
 1111              		.cfi_def_cfa_offset 0
 1112              		.cfi_restore 4
 1113              		.cfi_restore 5
 1114              		.cfi_restore 6
 1115              		.cfi_restore 7
 1116              		.cfi_restore 8
 1117              		.cfi_restore 9
 1118              		.cfi_restore 10
 1119              		.cfi_restore 11
 1120              		.cfi_restore 14
  78:Dsp/widget/wgt_core/UI_Controller.c **** 
 1121              		.loc 1 78 16 view .LVU330
 1122 00ce 0020     		movs	r0, #0
 1123              	.LVL86:
 114:Dsp/widget/wgt_core/UI_Controller.c **** 
 1124              		.loc 1 114 1 view .LVU331
 1125 00d0 7047     		bx	lr
 1126              	.LVL87:
 1127              	.L80:
 1128              	.LCFI20:
 1129              		.cfi_def_cfa_offset 48
 1130              		.cfi_offset 4, -36
 1131              		.cfi_offset 5, -32
 1132              		.cfi_offset 6, -28
 1133              		.cfi_offset 7, -24
 1134              		.cfi_offset 8, -20
 1135              		.cfi_offset 9, -16
 1136              		.cfi_offset 10, -12
 1137              		.cfi_offset 11, -8
 1138              		.cfi_offset 14, -4
 113:Dsp/widget/wgt_core/UI_Controller.c **** }
 1139              		.loc 1 113 12 view .LVU332
 1140 00d2 0120     		movs	r0, #1
 1141              	.LVL88:
 113:Dsp/widget/wgt_core/UI_Controller.c **** }
 1142              		.loc 1 113 12 view .LVU333
 1143 00d4 9DE7     		b	.L77
 1144              	.L87:
 1145 00d6 00BF     		.align	2
 1146              	.L86:
 1147 00d8 00000000 		.word	.LANCHOR0
 1148              		.cfi_endproc
 1149              	.LFE1:
 1151              		.global	UI_Button
 1152              		.section	.bss.UI_DspInterface,"aw",%nobits
 1153              		.align	2
 1154              		.set	.LANCHOR0,. + 0
 1157              	UI_DspInterface:
 1158 0000 00000000 		.space	44
 1158      00000000 
 1158      00000000 
 1158      00000000 
 1158      00000000 
 1159              		.section	.data.UI_Button,"aw"
 1160              		.align	2
 1163              	UI_Button:
ARM GAS  C:\Users\97116\AppData\Local\Temp\cc1M8sM0.s 			page 30


 1164 0000 00000000 		.word	UI_Button_Init
 1165 0004 00000000 		.word	UI_Button_Set_TriggerCallback
 1166 0008 00000000 		.word	UI_Button_Set_Label
 1167 000c 00000000 		.word	UI_Button_Push
 1168 0010 00000000 		.word	UI_Button_Release
 1169 0014 00000000 		.word	UI_Button_Ctl
 1170 0018 00000000 		.word	UI_Button_Move
 1171              		.text
 1172              	.Letext0:
 1173              		.file 2 "c:\\program files (x86)\\gnu arm embedded toolchain\\10 2020-q4-major\\arm-none-eabi\\inc
 1174              		.file 3 "c:\\program files (x86)\\gnu arm embedded toolchain\\10 2020-q4-major\\arm-none-eabi\\inc
 1175              		.file 4 "SYS/runtime/runtime.h"
 1176              		.file 5 "Dsp/screen/font/oledfont.h"
 1177              		.file 6 "Dsp/widget/wgt_core/UI_Controller.h"
ARM GAS  C:\Users\97116\AppData\Local\Temp\cc1M8sM0.s 			page 31

