ARM GAS  /tmp/ccfvcx1e.s 			page 1


   1              		.cpu cortex-m4
   2              		.eabi_attribute 27, 1
   3              		.eabi_attribute 28, 1
   4              		.eabi_attribute 20, 1
   5              		.eabi_attribute 21, 1
   6              		.eabi_attribute 23, 3
   7              		.eabi_attribute 24, 1
   8              		.eabi_attribute 25, 1
   9              		.eabi_attribute 26, 1
  10              		.eabi_attribute 30, 1
  11              		.eabi_attribute 34, 1
  12              		.eabi_attribute 18, 4
  13              		.file	"UI_Controller.c"
  14              		.text
  15              	.Ltext0:
  16              		.cfi_sections	.debug_frame
  17              		.section	.text.UI_GenData_Init,"ax",%progbits
  18              		.align	1
  19              		.syntax unified
  20              		.thumb
  21              		.thumb_func
  22              		.fpu fpv4-sp-d16
  24              	UI_GenData_Init:
  25              	.LFB2:
  26              		.file 1 "Dsp/widget/wgt_core/UI_Controller.c"
   1:Dsp/widget/wgt_core/UI_Controller.c **** #include "UI_Controller.h"
   2:Dsp/widget/wgt_core/UI_Controller.c **** #include "runtime.h"
   3:Dsp/widget/wgt_core/UI_Controller.c **** #include <stdlib.h>
   4:Dsp/widget/wgt_core/UI_Controller.c **** 
   5:Dsp/widget/wgt_core/UI_Controller.c **** /* internal object */
   6:Dsp/widget/wgt_core/UI_Controller.c **** static UI_DrawInterface_TypeDef UI_DspInterface;
   7:Dsp/widget/wgt_core/UI_Controller.c **** 
   8:Dsp/widget/wgt_core/UI_Controller.c **** /* external function */
   9:Dsp/widget/wgt_core/UI_Controller.c **** static bool UI_Button_Init(UI_ButtonObj_TypeDef *Obj, char *label, int8_t x, int8_t y, uint8_t widt
  10:Dsp/widget/wgt_core/UI_Controller.c **** static bool UI_Button_Set_Label(UI_ButtonObj_TypeDef *Obj, UI_Button_State_List state, char *label)
  11:Dsp/widget/wgt_core/UI_Controller.c **** static bool UI_Button_Set_TriggerCallback(UI_ButtonObj_TypeDef *Obj, UI_Button_Trigger_Type type, U
  12:Dsp/widget/wgt_core/UI_Controller.c **** static bool UI_Button_Push(UI_ButtonObj_TypeDef *Obj);
  13:Dsp/widget/wgt_core/UI_Controller.c **** static bool UI_Button_Release(UI_ButtonObj_TypeDef *Obj);
  14:Dsp/widget/wgt_core/UI_Controller.c **** static bool UI_Button_Move(UI_ButtonObj_TypeDef *Obj, uint8_t x, uint8_t y);
  15:Dsp/widget/wgt_core/UI_Controller.c **** static bool UI_Button_Ctl(UI_ButtonObj_TypeDef *Obj);
  16:Dsp/widget/wgt_core/UI_Controller.c **** 
  17:Dsp/widget/wgt_core/UI_Controller.c **** /* general function */
  18:Dsp/widget/wgt_core/UI_Controller.c **** static bool UI_Get_InitSate(UI_GeneralData_TypeDef GenData);
  19:Dsp/widget/wgt_core/UI_Controller.c **** static bool UI_Selecte(UI_GeneralData_TypeDef *GenData, bool select);
  20:Dsp/widget/wgt_core/UI_Controller.c **** static bool UI_Get_Selected(UI_GeneralData_TypeDef GenData);
  21:Dsp/widget/wgt_core/UI_Controller.c **** static bool UI_Move(UI_GeneralData_TypeDef *GenUI_Info, int8_t dst_x, int8_t dst_y);
  22:Dsp/widget/wgt_core/UI_Controller.c **** 
  23:Dsp/widget/wgt_core/UI_Controller.c **** /* external Object var */
  24:Dsp/widget/wgt_core/UI_Controller.c **** UI_Button_Interface_TypeDef UI_Button = {
  25:Dsp/widget/wgt_core/UI_Controller.c ****     .ctl = UI_Button_Ctl,
  26:Dsp/widget/wgt_core/UI_Controller.c ****     .init = UI_Button_Init,
  27:Dsp/widget/wgt_core/UI_Controller.c ****     .push = UI_Button_Push,
  28:Dsp/widget/wgt_core/UI_Controller.c ****     .move = UI_Button_Move,
  29:Dsp/widget/wgt_core/UI_Controller.c ****     .release = UI_Button_Release,
  30:Dsp/widget/wgt_core/UI_Controller.c ****     .set_label = UI_Button_Set_Label,
  31:Dsp/widget/wgt_core/UI_Controller.c ****     .set_trogger_callback = UI_Button_Set_TriggerCallback,
  32:Dsp/widget/wgt_core/UI_Controller.c **** };
ARM GAS  /tmp/ccfvcx1e.s 			page 2


  33:Dsp/widget/wgt_core/UI_Controller.c **** 
  34:Dsp/widget/wgt_core/UI_Controller.c **** /******************************* general function *********************************/
  35:Dsp/widget/wgt_core/UI_Controller.c **** 
  36:Dsp/widget/wgt_core/UI_Controller.c **** void UI_Set_DspInterface(UI_DrawPoint point,
  37:Dsp/widget/wgt_core/UI_Controller.c ****                          UI_DrawLine line,
  38:Dsp/widget/wgt_core/UI_Controller.c ****                          UI_DrawRectangle rectangle,
  39:Dsp/widget/wgt_core/UI_Controller.c ****                          UI_DrawRadiusRectangle radius_rectangle,
  40:Dsp/widget/wgt_core/UI_Controller.c ****                          UI_DrawCircle circle,
  41:Dsp/widget/wgt_core/UI_Controller.c ****                          UI_DrawCircleSection circle_section,
  42:Dsp/widget/wgt_core/UI_Controller.c ****                          UI_DrawStr str,
  43:Dsp/widget/wgt_core/UI_Controller.c ****                          UI_FillCircle fill_circle,
  44:Dsp/widget/wgt_core/UI_Controller.c ****                          UI_FillCircle_Section fillcircle_section,
  45:Dsp/widget/wgt_core/UI_Controller.c ****                          UI_FillRectangle fill_rectangle,
  46:Dsp/widget/wgt_core/UI_Controller.c ****                          UI_FillRadiusRectangle fill_radius_rectangle)
  47:Dsp/widget/wgt_core/UI_Controller.c **** {
  48:Dsp/widget/wgt_core/UI_Controller.c ****     UI_DspInterface.draw_circle = circle;
  49:Dsp/widget/wgt_core/UI_Controller.c ****     UI_DspInterface.draw_circle_section = circle_section;
  50:Dsp/widget/wgt_core/UI_Controller.c ****     UI_DspInterface.draw_line = line;
  51:Dsp/widget/wgt_core/UI_Controller.c ****     UI_DspInterface.draw_point = point;
  52:Dsp/widget/wgt_core/UI_Controller.c ****     UI_DspInterface.draw_rectangle = rectangle;
  53:Dsp/widget/wgt_core/UI_Controller.c ****     UI_DspInterface.draw_radius_rectangle = radius_rectangle;
  54:Dsp/widget/wgt_core/UI_Controller.c ****     UI_DspInterface.draw_str = str;
  55:Dsp/widget/wgt_core/UI_Controller.c **** 
  56:Dsp/widget/wgt_core/UI_Controller.c ****     UI_DspInterface.fill_circle = fill_circle;
  57:Dsp/widget/wgt_core/UI_Controller.c ****     UI_DspInterface.fill_circle_section = fillcircle_section;
  58:Dsp/widget/wgt_core/UI_Controller.c ****     UI_DspInterface.fill_radius_rectangle = fill_radius_rectangle;
  59:Dsp/widget/wgt_core/UI_Controller.c ****     UI_DspInterface.fill_rectangle = fill_rectangle;
  60:Dsp/widget/wgt_core/UI_Controller.c **** }
  61:Dsp/widget/wgt_core/UI_Controller.c **** 
  62:Dsp/widget/wgt_core/UI_Controller.c **** /* still in developing about this selector */
  63:Dsp/widget/wgt_core/UI_Controller.c **** /* FYI different UI Item Got different selector */
  64:Dsp/widget/wgt_core/UI_Controller.c **** bool UI_ShowSelector(WidgetUI_Item_TypeDef *item)
  65:Dsp/widget/wgt_core/UI_Controller.c **** {
  66:Dsp/widget/wgt_core/UI_Controller.c ****     /* button selector coordinate */
  67:Dsp/widget/wgt_core/UI_Controller.c ****     int8_t Btn_Slct_LftUp_X = 0;
  68:Dsp/widget/wgt_core/UI_Controller.c ****     int8_t Btn_Slct_LftUp_Y = 0;
  69:Dsp/widget/wgt_core/UI_Controller.c ****     int8_t Btn_Slct_LftDwn_X = 0;
  70:Dsp/widget/wgt_core/UI_Controller.c ****     int8_t Btn_Slct_LftDwn_Y = 0;
  71:Dsp/widget/wgt_core/UI_Controller.c ****     int8_t Btn_Slct_RgtUp_X = 0;
  72:Dsp/widget/wgt_core/UI_Controller.c ****     int8_t Btn_Slct_RgtUp_Y = 0;
  73:Dsp/widget/wgt_core/UI_Controller.c ****     int8_t Btn_Slct_RgtDwn_X = 0;
  74:Dsp/widget/wgt_core/UI_Controller.c ****     int8_t Btn_Slct_RgtDwn_Y = 0;
  75:Dsp/widget/wgt_core/UI_Controller.c **** 
  76:Dsp/widget/wgt_core/UI_Controller.c ****     if ((item == NULL) ||
  77:Dsp/widget/wgt_core/UI_Controller.c ****         (UI_DspInterface.fill_circle_section == NULL))
  78:Dsp/widget/wgt_core/UI_Controller.c ****         return false;
  79:Dsp/widget/wgt_core/UI_Controller.c **** 
  80:Dsp/widget/wgt_core/UI_Controller.c ****     switch ((uint8_t)(item->type))
  81:Dsp/widget/wgt_core/UI_Controller.c ****     {
  82:Dsp/widget/wgt_core/UI_Controller.c ****     case UI_Type_Button:
  83:Dsp/widget/wgt_core/UI_Controller.c ****         /* comput button selector coordinate first */
  84:Dsp/widget/wgt_core/UI_Controller.c ****         Btn_Slct_LftUp_X = ((UI_ButtonObj_TypeDef *)(item->Handler))->Gen_Data.x;
  85:Dsp/widget/wgt_core/UI_Controller.c ****         Btn_Slct_LftUp_Y = ((UI_ButtonObj_TypeDef *)(item->Handler))->Gen_Data.y + ((UI_ButtonObj_T
  86:Dsp/widget/wgt_core/UI_Controller.c **** 
  87:Dsp/widget/wgt_core/UI_Controller.c ****         Btn_Slct_LftDwn_X = Btn_Slct_LftUp_X;
  88:Dsp/widget/wgt_core/UI_Controller.c ****         Btn_Slct_LftDwn_Y = ((UI_ButtonObj_TypeDef *)(item->Handler))->Gen_Data.y;
  89:Dsp/widget/wgt_core/UI_Controller.c **** 
ARM GAS  /tmp/ccfvcx1e.s 			page 3


  90:Dsp/widget/wgt_core/UI_Controller.c ****         Btn_Slct_RgtUp_X = ((UI_ButtonObj_TypeDef *)(item->Handler))->Gen_Data.x + ((UI_ButtonObj_T
  91:Dsp/widget/wgt_core/UI_Controller.c ****         Btn_Slct_RgtUp_Y = Btn_Slct_LftUp_Y;
  92:Dsp/widget/wgt_core/UI_Controller.c **** 
  93:Dsp/widget/wgt_core/UI_Controller.c ****         Btn_Slct_RgtDwn_X = Btn_Slct_RgtUp_X;
  94:Dsp/widget/wgt_core/UI_Controller.c ****         Btn_Slct_RgtDwn_Y = Btn_Slct_LftDwn_Y;
  95:Dsp/widget/wgt_core/UI_Controller.c **** 
  96:Dsp/widget/wgt_core/UI_Controller.c ****         // show button selector
  97:Dsp/widget/wgt_core/UI_Controller.c ****         UI_DspInterface.draw_circle_section(Btn_Slct_LftUp_X, Btn_Slct_LftUp_Y, BUTTON_SELECTOR_RAD
  98:Dsp/widget/wgt_core/UI_Controller.c ****         UI_DspInterface.draw_circle_section(Btn_Slct_LftDwn_X, Btn_Slct_LftDwn_Y, BUTTON_SELECTOR_R
  99:Dsp/widget/wgt_core/UI_Controller.c ****         UI_DspInterface.draw_circle_section(Btn_Slct_RgtUp_X, Btn_Slct_RgtUp_Y, BUTTON_SELECTOR_RAD
 100:Dsp/widget/wgt_core/UI_Controller.c ****         UI_DspInterface.draw_circle_section(Btn_Slct_RgtDwn_X, Btn_Slct_RgtDwn_Y, BUTTON_SELECTOR_R
 101:Dsp/widget/wgt_core/UI_Controller.c ****         break;
 102:Dsp/widget/wgt_core/UI_Controller.c **** 
 103:Dsp/widget/wgt_core/UI_Controller.c ****     default:
 104:Dsp/widget/wgt_core/UI_Controller.c ****         break;
 105:Dsp/widget/wgt_core/UI_Controller.c ****     }
 106:Dsp/widget/wgt_core/UI_Controller.c ****     return true;
 107:Dsp/widget/wgt_core/UI_Controller.c **** }
 108:Dsp/widget/wgt_core/UI_Controller.c **** 
 109:Dsp/widget/wgt_core/UI_Controller.c **** static void UI_GenData_Init(UI_GeneralData_TypeDef *GenData, char *label, uint8_t x, uint8_t y)
 110:Dsp/widget/wgt_core/UI_Controller.c **** {
  27              		.loc 1 110 0
  28              		.cfi_startproc
  29              		@ args = 0, pretend = 0, frame = 0
  30              		@ frame_needed = 0, uses_anonymous_args = 0
  31              		@ link register save eliminated.
  32              	.LVL0:
 111:Dsp/widget/wgt_core/UI_Controller.c ****     GenData->label = label;
  33              		.loc 1 111 0
  34 0000 0160     		str	r1, [r0]
 112:Dsp/widget/wgt_core/UI_Controller.c **** 
 113:Dsp/widget/wgt_core/UI_Controller.c ****     GenData->x = x;
  35              		.loc 1 113 0
  36 0002 0271     		strb	r2, [r0, #4]
 114:Dsp/widget/wgt_core/UI_Controller.c ****     GenData->y = y;
  37              		.loc 1 114 0
  38 0004 4371     		strb	r3, [r0, #5]
 115:Dsp/widget/wgt_core/UI_Controller.c **** 
 116:Dsp/widget/wgt_core/UI_Controller.c ****     GenData->init = false;
  39              		.loc 1 116 0
  40 0006 0023     		movs	r3, #0
  41              	.LVL1:
  42 0008 8371     		strb	r3, [r0, #6]
  43 000a 7047     		bx	lr
  44              		.cfi_endproc
  45              	.LFE2:
  47              		.section	.text.UI_Move,"ax",%progbits
  48              		.align	1
  49              		.syntax unified
  50              		.thumb
  51              		.thumb_func
  52              		.fpu fpv4-sp-d16
  54              	UI_Move:
  55              	.LFB3:
 117:Dsp/widget/wgt_core/UI_Controller.c **** }
 118:Dsp/widget/wgt_core/UI_Controller.c **** 
 119:Dsp/widget/wgt_core/UI_Controller.c **** static bool UI_Move(UI_GeneralData_TypeDef *GenUI_Info, int8_t dst_x, int8_t dst_y)
ARM GAS  /tmp/ccfvcx1e.s 			page 4


 120:Dsp/widget/wgt_core/UI_Controller.c **** {
  56              		.loc 1 120 0
  57              		.cfi_startproc
  58              		@ args = 0, pretend = 0, frame = 0
  59              		@ frame_needed = 0, uses_anonymous_args = 0
  60              		@ link register save eliminated.
  61              	.LVL2:
 121:Dsp/widget/wgt_core/UI_Controller.c ****     if (GenUI_Info == NULL)
  62              		.loc 1 121 0
  63 0000 18B1     		cbz	r0, .L4
 122:Dsp/widget/wgt_core/UI_Controller.c ****         return false;
 123:Dsp/widget/wgt_core/UI_Controller.c **** 
 124:Dsp/widget/wgt_core/UI_Controller.c ****     GenUI_Info->x = dst_x;
  64              		.loc 1 124 0
  65 0002 0171     		strb	r1, [r0, #4]
 125:Dsp/widget/wgt_core/UI_Controller.c ****     GenUI_Info->y = dst_y;
  66              		.loc 1 125 0
  67 0004 4271     		strb	r2, [r0, #5]
 126:Dsp/widget/wgt_core/UI_Controller.c **** 
 127:Dsp/widget/wgt_core/UI_Controller.c ****     return true;
  68              		.loc 1 127 0
  69 0006 0120     		movs	r0, #1
  70              	.LVL3:
  71 0008 7047     		bx	lr
  72              	.LVL4:
  73              	.L4:
 122:Dsp/widget/wgt_core/UI_Controller.c **** 
  74              		.loc 1 122 0
  75 000a 0020     		movs	r0, #0
  76              	.LVL5:
 128:Dsp/widget/wgt_core/UI_Controller.c **** }
  77              		.loc 1 128 0
  78 000c 7047     		bx	lr
  79              		.cfi_endproc
  80              	.LFE3:
  82              		.section	.text.UI_Button_Init,"ax",%progbits
  83              		.align	1
  84              		.syntax unified
  85              		.thumb
  86              		.thumb_func
  87              		.fpu fpv4-sp-d16
  89              	UI_Button_Init:
  90              	.LFB4:
 129:Dsp/widget/wgt_core/UI_Controller.c **** 
 130:Dsp/widget/wgt_core/UI_Controller.c **** /********************************************** UI Button Object **********************************
 131:Dsp/widget/wgt_core/UI_Controller.c **** /*
 132:Dsp/widget/wgt_core/UI_Controller.c **** *  the operation of button ctl is a async operation
 133:Dsp/widget/wgt_core/UI_Controller.c **** *  exti irq or input signal triiger first then out of the trigger code 
 134:Dsp/widget/wgt_core/UI_Controller.c **** *  check signal value doing process
 135:Dsp/widget/wgt_core/UI_Controller.c **** */
 136:Dsp/widget/wgt_core/UI_Controller.c **** static bool UI_Button_Init(UI_ButtonObj_TypeDef *Obj, char *label, int8_t x, int8_t y, uint8_t widt
 137:Dsp/widget/wgt_core/UI_Controller.c **** {
  91              		.loc 1 137 0
  92              		.cfi_startproc
  93              		@ args = 16, pretend = 0, frame = 0
  94              		@ frame_needed = 0, uses_anonymous_args = 0
  95              	.LVL6:
ARM GAS  /tmp/ccfvcx1e.s 			page 5


  96 0000 38B5     		push	{r3, r4, r5, lr}
  97              	.LCFI0:
  98              		.cfi_def_cfa_offset 16
  99              		.cfi_offset 3, -16
 100              		.cfi_offset 4, -12
 101              		.cfi_offset 5, -8
 102              		.cfi_offset 14, -4
 103 0002 9DF81C50 		ldrb	r5, [sp, #28]	@ zero_extendqisi2
 138:Dsp/widget/wgt_core/UI_Controller.c ****     if (Obj == NULL)
 104              		.loc 1 138 0
 105 0006 B8B1     		cbz	r0, .L7
 106 0008 0446     		mov	r4, r0
 139:Dsp/widget/wgt_core/UI_Controller.c ****         return false;
 140:Dsp/widget/wgt_core/UI_Controller.c **** 
 141:Dsp/widget/wgt_core/UI_Controller.c ****     Obj->default_state = state;
 107              		.loc 1 141 0
 108 000a 0572     		strb	r5, [r0, #8]
 142:Dsp/widget/wgt_core/UI_Controller.c ****     Obj->state = state;
 109              		.loc 1 142 0
 110 000c 4572     		strb	r5, [r0, #9]
 143:Dsp/widget/wgt_core/UI_Controller.c ****     Obj->type = type;
 111              		.loc 1 143 0
 112 000e 9DF81800 		ldrb	r0, [sp, #24]	@ zero_extendqisi2
 113              	.LVL7:
 114 0012 A072     		strb	r0, [r4, #10]
 144:Dsp/widget/wgt_core/UI_Controller.c **** 
 145:Dsp/widget/wgt_core/UI_Controller.c ****     UI_GenData_Init(&Obj->Gen_Data, label, x, y);
 115              		.loc 1 145 0
 116 0014 DBB2     		uxtb	r3, r3
 117 0016 D2B2     		uxtb	r2, r2
 118 0018 2046     		mov	r0, r4
 119 001a FFF7FEFF 		bl	UI_GenData_Init
 120              	.LVL8:
 146:Dsp/widget/wgt_core/UI_Controller.c **** 
 147:Dsp/widget/wgt_core/UI_Controller.c ****     Obj->width = width;
 121              		.loc 1 147 0
 122 001e 9DF81030 		ldrb	r3, [sp, #16]	@ zero_extendqisi2
 123 0022 2377     		strb	r3, [r4, #28]
 148:Dsp/widget/wgt_core/UI_Controller.c ****     Obj->height = height;
 124              		.loc 1 148 0
 125 0024 9DF81430 		ldrb	r3, [sp, #20]	@ zero_extendqisi2
 126 0028 6377     		strb	r3, [r4, #29]
 149:Dsp/widget/wgt_core/UI_Controller.c **** 
 150:Dsp/widget/wgt_core/UI_Controller.c ****     Obj->PushDown_Label = DEFAULT_BUTTON_PUSH_LABEL;
 127              		.loc 1 150 0
 128 002a 044B     		ldr	r3, .L9
 129 002c 6361     		str	r3, [r4, #20]
 151:Dsp/widget/wgt_core/UI_Controller.c ****     Obj->Release_Label = DEFAULT_BUTTON_RELEASE_LABEL;
 130              		.loc 1 151 0
 131 002e 044B     		ldr	r3, .L9+4
 132 0030 A361     		str	r3, [r4, #24]
 152:Dsp/widget/wgt_core/UI_Controller.c **** 
 153:Dsp/widget/wgt_core/UI_Controller.c ****     Obj->Gen_Data.init = true;
 133              		.loc 1 153 0
 134 0032 0120     		movs	r0, #1
 135 0034 A071     		strb	r0, [r4, #6]
 154:Dsp/widget/wgt_core/UI_Controller.c **** 
ARM GAS  /tmp/ccfvcx1e.s 			page 6


 155:Dsp/widget/wgt_core/UI_Controller.c ****     return true;
 136              		.loc 1 155 0
 137 0036 38BD     		pop	{r3, r4, r5, pc}
 138              	.LVL9:
 139              	.L7:
 139:Dsp/widget/wgt_core/UI_Controller.c **** 
 140              		.loc 1 139 0
 141 0038 0020     		movs	r0, #0
 142              	.LVL10:
 156:Dsp/widget/wgt_core/UI_Controller.c **** }
 143              		.loc 1 156 0
 144 003a 38BD     		pop	{r3, r4, r5, pc}
 145              	.LVL11:
 146              	.L10:
 147              		.align	2
 148              	.L9:
 149 003c 00000000 		.word	.LC0
 150 0040 04000000 		.word	.LC1
 151              		.cfi_endproc
 152              	.LFE4:
 154              		.section	.text.UI_Button_Set_Label,"ax",%progbits
 155              		.align	1
 156              		.syntax unified
 157              		.thumb
 158              		.thumb_func
 159              		.fpu fpv4-sp-d16
 161              	UI_Button_Set_Label:
 162              	.LFB5:
 157:Dsp/widget/wgt_core/UI_Controller.c **** 
 158:Dsp/widget/wgt_core/UI_Controller.c **** static bool UI_Button_Set_Label(UI_ButtonObj_TypeDef *Obj, UI_Button_State_List state, char *label)
 159:Dsp/widget/wgt_core/UI_Controller.c **** {
 163              		.loc 1 159 0
 164              		.cfi_startproc
 165              		@ args = 0, pretend = 0, frame = 0
 166              		@ frame_needed = 0, uses_anonymous_args = 0
 167              		@ link register save eliminated.
 168              	.LVL12:
 160:Dsp/widget/wgt_core/UI_Controller.c ****     if (Obj == NULL)
 169              		.loc 1 160 0
 170 0000 38B1     		cbz	r0, .L14
 161:Dsp/widget/wgt_core/UI_Controller.c ****         return false;
 162:Dsp/widget/wgt_core/UI_Controller.c **** 
 163:Dsp/widget/wgt_core/UI_Controller.c ****     if (state == UI_Btn_PushDwn)
 171              		.loc 1 163 0
 172 0002 0129     		cmp	r1, #1
 173 0004 02D0     		beq	.L15
 164:Dsp/widget/wgt_core/UI_Controller.c ****         Obj->PushDown_Label = label;
 165:Dsp/widget/wgt_core/UI_Controller.c ****     else
 166:Dsp/widget/wgt_core/UI_Controller.c ****         Obj->Release_Label = label;
 174              		.loc 1 166 0
 175 0006 8261     		str	r2, [r0, #24]
 167:Dsp/widget/wgt_core/UI_Controller.c **** 
 168:Dsp/widget/wgt_core/UI_Controller.c ****     return true;
 176              		.loc 1 168 0
 177 0008 0120     		movs	r0, #1
 178              	.LVL13:
 179 000a 7047     		bx	lr
ARM GAS  /tmp/ccfvcx1e.s 			page 7


 180              	.LVL14:
 181              	.L15:
 164:Dsp/widget/wgt_core/UI_Controller.c ****         Obj->PushDown_Label = label;
 182              		.loc 1 164 0
 183 000c 4261     		str	r2, [r0, #20]
 184              		.loc 1 168 0
 185 000e 0120     		movs	r0, #1
 186              	.LVL15:
 187 0010 7047     		bx	lr
 188              	.LVL16:
 189              	.L14:
 161:Dsp/widget/wgt_core/UI_Controller.c **** 
 190              		.loc 1 161 0
 191 0012 0020     		movs	r0, #0
 192              	.LVL17:
 169:Dsp/widget/wgt_core/UI_Controller.c **** }
 193              		.loc 1 169 0
 194 0014 7047     		bx	lr
 195              		.cfi_endproc
 196              	.LFE5:
 198              		.section	.text.UI_Button_Set_TriggerCallback,"ax",%progbits
 199              		.align	1
 200              		.syntax unified
 201              		.thumb
 202              		.thumb_func
 203              		.fpu fpv4-sp-d16
 205              	UI_Button_Set_TriggerCallback:
 206              	.LFB6:
 170:Dsp/widget/wgt_core/UI_Controller.c **** 
 171:Dsp/widget/wgt_core/UI_Controller.c **** static bool UI_Button_Set_TriggerCallback(UI_ButtonObj_TypeDef *Obj, UI_Button_Trigger_Type type, U
 172:Dsp/widget/wgt_core/UI_Controller.c **** {
 207              		.loc 1 172 0
 208              		.cfi_startproc
 209              		@ args = 0, pretend = 0, frame = 0
 210              		@ frame_needed = 0, uses_anonymous_args = 0
 211              		@ link register save eliminated.
 212              	.LVL18:
 173:Dsp/widget/wgt_core/UI_Controller.c ****     if (Obj == NULL)
 213              		.loc 1 173 0
 214 0000 40B1     		cbz	r0, .L19
 174:Dsp/widget/wgt_core/UI_Controller.c ****         return false;
 175:Dsp/widget/wgt_core/UI_Controller.c **** 
 176:Dsp/widget/wgt_core/UI_Controller.c ****     if (type == Push_Trigger)
 215              		.loc 1 176 0
 216 0002 0129     		cmp	r1, #1
 217 0004 03D0     		beq	.L21
 177:Dsp/widget/wgt_core/UI_Controller.c ****     {
 178:Dsp/widget/wgt_core/UI_Controller.c ****         Obj->push_callback = callback;
 179:Dsp/widget/wgt_core/UI_Controller.c ****     }
 180:Dsp/widget/wgt_core/UI_Controller.c ****     else if (type == Release_Trigger)
 218              		.loc 1 180 0
 219 0006 39B9     		cbnz	r1, .L20
 181:Dsp/widget/wgt_core/UI_Controller.c ****     {
 182:Dsp/widget/wgt_core/UI_Controller.c ****         Obj->release_callback = callback;
 220              		.loc 1 182 0
 221 0008 0261     		str	r2, [r0, #16]
 183:Dsp/widget/wgt_core/UI_Controller.c ****     }
ARM GAS  /tmp/ccfvcx1e.s 			page 8


 184:Dsp/widget/wgt_core/UI_Controller.c ****     else
 185:Dsp/widget/wgt_core/UI_Controller.c ****         return false;
 186:Dsp/widget/wgt_core/UI_Controller.c **** 
 187:Dsp/widget/wgt_core/UI_Controller.c ****     return true;
 222              		.loc 1 187 0
 223 000a 0120     		movs	r0, #1
 224              	.LVL19:
 225 000c 7047     		bx	lr
 226              	.LVL20:
 227              	.L21:
 178:Dsp/widget/wgt_core/UI_Controller.c ****     }
 228              		.loc 1 178 0
 229 000e C260     		str	r2, [r0, #12]
 230              		.loc 1 187 0
 231 0010 0120     		movs	r0, #1
 232              	.LVL21:
 233 0012 7047     		bx	lr
 234              	.LVL22:
 235              	.L19:
 174:Dsp/widget/wgt_core/UI_Controller.c **** 
 236              		.loc 1 174 0
 237 0014 0020     		movs	r0, #0
 238              	.LVL23:
 239 0016 7047     		bx	lr
 240              	.LVL24:
 241              	.L20:
 185:Dsp/widget/wgt_core/UI_Controller.c **** 
 242              		.loc 1 185 0
 243 0018 0020     		movs	r0, #0
 244              	.LVL25:
 188:Dsp/widget/wgt_core/UI_Controller.c **** }
 245              		.loc 1 188 0
 246 001a 7047     		bx	lr
 247              		.cfi_endproc
 248              	.LFE6:
 250              		.section	.text.UI_Button_Push,"ax",%progbits
 251              		.align	1
 252              		.syntax unified
 253              		.thumb
 254              		.thumb_func
 255              		.fpu fpv4-sp-d16
 257              	UI_Button_Push:
 258              	.LFB7:
 189:Dsp/widget/wgt_core/UI_Controller.c **** 
 190:Dsp/widget/wgt_core/UI_Controller.c **** static bool UI_Button_Push(UI_ButtonObj_TypeDef *Obj)
 191:Dsp/widget/wgt_core/UI_Controller.c **** {
 259              		.loc 1 191 0
 260              		.cfi_startproc
 261              		@ args = 0, pretend = 0, frame = 0
 262              		@ frame_needed = 0, uses_anonymous_args = 0
 263              	.LVL26:
 192:Dsp/widget/wgt_core/UI_Controller.c ****     if (Obj == NULL)
 264              		.loc 1 192 0
 265 0000 E8B1     		cbz	r0, .L26
 191:Dsp/widget/wgt_core/UI_Controller.c ****     if (Obj == NULL)
 266              		.loc 1 191 0
 267 0002 08B5     		push	{r3, lr}
ARM GAS  /tmp/ccfvcx1e.s 			page 9


 268              	.LCFI1:
 269              		.cfi_def_cfa_offset 8
 270              		.cfi_offset 3, -8
 271              		.cfi_offset 14, -4
 272 0004 0346     		mov	r3, r0
 193:Dsp/widget/wgt_core/UI_Controller.c ****         return false;
 194:Dsp/widget/wgt_core/UI_Controller.c **** 
 195:Dsp/widget/wgt_core/UI_Controller.c ****     if (Obj->type == Lock_Btn)
 273              		.loc 1 195 0
 274 0006 827A     		ldrb	r2, [r0, #10]	@ zero_extendqisi2
 275 0008 012A     		cmp	r2, #1
 276 000a 06D0     		beq	.L34
 196:Dsp/widget/wgt_core/UI_Controller.c ****     {
 197:Dsp/widget/wgt_core/UI_Controller.c ****         if (Obj->state == UI_Btn_RlsUp)
 198:Dsp/widget/wgt_core/UI_Controller.c ****             Obj->state = UI_Btn_PushDwn;
 199:Dsp/widget/wgt_core/UI_Controller.c ****         else
 200:Dsp/widget/wgt_core/UI_Controller.c ****             Obj->state = UI_Btn_RlsUp;
 201:Dsp/widget/wgt_core/UI_Controller.c ****     }
 202:Dsp/widget/wgt_core/UI_Controller.c ****     else if (Obj->type == Reset_Btn)
 277              		.loc 1 202 0
 278 000c CAB9     		cbnz	r2, .L27
 203:Dsp/widget/wgt_core/UI_Controller.c ****     {
 204:Dsp/widget/wgt_core/UI_Controller.c ****         if (Obj->default_state == Obj->state)
 279              		.loc 1 204 0
 280 000e 027A     		ldrb	r2, [r0, #8]	@ zero_extendqisi2
 281 0010 417A     		ldrb	r1, [r0, #9]	@ zero_extendqisi2
 282 0012 8A42     		cmp	r2, r1
 283 0014 0AD0     		beq	.L35
 205:Dsp/widget/wgt_core/UI_Controller.c ****         {
 206:Dsp/widget/wgt_core/UI_Controller.c ****             Obj->state = !Obj->default_state;
 207:Dsp/widget/wgt_core/UI_Controller.c **** 
 208:Dsp/widget/wgt_core/UI_Controller.c ****             if (Obj->push_callback != NULL)
 209:Dsp/widget/wgt_core/UI_Controller.c ****                 Obj->push_callback();
 210:Dsp/widget/wgt_core/UI_Controller.c ****         }
 211:Dsp/widget/wgt_core/UI_Controller.c ****     }
 212:Dsp/widget/wgt_core/UI_Controller.c ****     else
 213:Dsp/widget/wgt_core/UI_Controller.c ****         return false;
 214:Dsp/widget/wgt_core/UI_Controller.c **** 
 215:Dsp/widget/wgt_core/UI_Controller.c ****     return true;
 284              		.loc 1 215 0
 285 0016 0120     		movs	r0, #1
 286              	.LVL27:
 287 0018 08BD     		pop	{r3, pc}
 288              	.LVL28:
 289              	.L34:
 197:Dsp/widget/wgt_core/UI_Controller.c ****             Obj->state = UI_Btn_PushDwn;
 290              		.loc 1 197 0
 291 001a 427A     		ldrb	r2, [r0, #9]	@ zero_extendqisi2
 292 001c 12B9     		cbnz	r2, .L25
 198:Dsp/widget/wgt_core/UI_Controller.c ****         else
 293              		.loc 1 198 0
 294 001e 0120     		movs	r0, #1
 295              	.LVL29:
 296 0020 5872     		strb	r0, [r3, #9]
 297 0022 08BD     		pop	{r3, pc}
 298              	.LVL30:
 299              	.L25:
ARM GAS  /tmp/ccfvcx1e.s 			page 10


 200:Dsp/widget/wgt_core/UI_Controller.c ****     }
 300              		.loc 1 200 0
 301 0024 0022     		movs	r2, #0
 302 0026 4272     		strb	r2, [r0, #9]
 303              		.loc 1 215 0
 304 0028 0120     		movs	r0, #1
 305              	.LVL31:
 306 002a 08BD     		pop	{r3, pc}
 307              	.LVL32:
 308              	.L35:
 206:Dsp/widget/wgt_core/UI_Controller.c **** 
 309              		.loc 1 206 0
 310 002c B2FA82F2 		clz	r2, r2
 311 0030 5209     		lsrs	r2, r2, #5
 312 0032 4272     		strb	r2, [r0, #9]
 208:Dsp/widget/wgt_core/UI_Controller.c ****                 Obj->push_callback();
 313              		.loc 1 208 0
 314 0034 C368     		ldr	r3, [r0, #12]
 315 0036 33B1     		cbz	r3, .L29
 209:Dsp/widget/wgt_core/UI_Controller.c ****         }
 316              		.loc 1 209 0
 317 0038 9847     		blx	r3
 318              	.LVL33:
 319              		.loc 1 215 0
 320 003a 0120     		movs	r0, #1
 321 003c 08BD     		pop	{r3, pc}
 322              	.LVL34:
 323              	.L26:
 324              	.LCFI2:
 325              		.cfi_def_cfa_offset 0
 326              		.cfi_restore 3
 327              		.cfi_restore 14
 193:Dsp/widget/wgt_core/UI_Controller.c **** 
 328              		.loc 1 193 0
 329 003e 0020     		movs	r0, #0
 330              	.LVL35:
 331 0040 7047     		bx	lr
 332              	.LVL36:
 333              	.L27:
 334              	.LCFI3:
 335              		.cfi_def_cfa_offset 8
 336              		.cfi_offset 3, -8
 337              		.cfi_offset 14, -4
 213:Dsp/widget/wgt_core/UI_Controller.c **** 
 338              		.loc 1 213 0
 339 0042 0020     		movs	r0, #0
 340              	.LVL37:
 341 0044 08BD     		pop	{r3, pc}
 342              	.LVL38:
 343              	.L29:
 344              		.loc 1 215 0
 345 0046 0120     		movs	r0, #1
 346              	.LVL39:
 216:Dsp/widget/wgt_core/UI_Controller.c **** }
 347              		.loc 1 216 0
 348 0048 08BD     		pop	{r3, pc}
 349              		.cfi_endproc
ARM GAS  /tmp/ccfvcx1e.s 			page 11


 350              	.LFE7:
 352              		.section	.text.UI_Button_Release,"ax",%progbits
 353              		.align	1
 354              		.syntax unified
 355              		.thumb
 356              		.thumb_func
 357              		.fpu fpv4-sp-d16
 359              	UI_Button_Release:
 360              	.LFB8:
 217:Dsp/widget/wgt_core/UI_Controller.c **** 
 218:Dsp/widget/wgt_core/UI_Controller.c **** static bool UI_Button_Release(UI_ButtonObj_TypeDef *Obj)
 219:Dsp/widget/wgt_core/UI_Controller.c **** {
 361              		.loc 1 219 0
 362              		.cfi_startproc
 363              		@ args = 0, pretend = 0, frame = 0
 364              		@ frame_needed = 0, uses_anonymous_args = 0
 365              	.LVL40:
 220:Dsp/widget/wgt_core/UI_Controller.c ****     if (Obj == NULL)
 366              		.loc 1 220 0
 367 0000 68B1     		cbz	r0, .L38
 219:Dsp/widget/wgt_core/UI_Controller.c ****     if (Obj == NULL)
 368              		.loc 1 219 0
 369 0002 08B5     		push	{r3, lr}
 370              	.LCFI4:
 371              		.cfi_def_cfa_offset 8
 372              		.cfi_offset 3, -8
 373              		.cfi_offset 14, -4
 221:Dsp/widget/wgt_core/UI_Controller.c ****         return false;
 222:Dsp/widget/wgt_core/UI_Controller.c **** 
 223:Dsp/widget/wgt_core/UI_Controller.c ****     if (Obj->type == Lock_Btn)
 374              		.loc 1 223 0
 375 0004 827A     		ldrb	r2, [r0, #10]	@ zero_extendqisi2
 376 0006 012A     		cmp	r2, #1
 377 0008 0BD0     		beq	.L39
 224:Dsp/widget/wgt_core/UI_Controller.c ****         return true;
 225:Dsp/widget/wgt_core/UI_Controller.c **** 
 226:Dsp/widget/wgt_core/UI_Controller.c ****     if (Obj->default_state != Obj->state)
 378              		.loc 1 226 0
 379 000a 027A     		ldrb	r2, [r0, #8]	@ zero_extendqisi2
 380 000c 417A     		ldrb	r1, [r0, #9]	@ zero_extendqisi2
 381 000e 8A42     		cmp	r2, r1
 382 0010 09D0     		beq	.L40
 227:Dsp/widget/wgt_core/UI_Controller.c ****     {
 228:Dsp/widget/wgt_core/UI_Controller.c ****         Obj->state = Obj->default_state;
 383              		.loc 1 228 0
 384 0012 4272     		strb	r2, [r0, #9]
 229:Dsp/widget/wgt_core/UI_Controller.c **** 
 230:Dsp/widget/wgt_core/UI_Controller.c ****         if (Obj->release_callback != NULL)
 385              		.loc 1 230 0
 386 0014 0369     		ldr	r3, [r0, #16]
 387 0016 43B1     		cbz	r3, .L41
 231:Dsp/widget/wgt_core/UI_Controller.c ****             Obj->release_callback();
 388              		.loc 1 231 0
 389 0018 9847     		blx	r3
 390              	.LVL41:
 232:Dsp/widget/wgt_core/UI_Controller.c ****     }
 233:Dsp/widget/wgt_core/UI_Controller.c **** 
ARM GAS  /tmp/ccfvcx1e.s 			page 12


 234:Dsp/widget/wgt_core/UI_Controller.c ****     return true;
 391              		.loc 1 234 0
 392 001a 0120     		movs	r0, #1
 393 001c 08BD     		pop	{r3, pc}
 394              	.LVL42:
 395              	.L38:
 396              	.LCFI5:
 397              		.cfi_def_cfa_offset 0
 398              		.cfi_restore 3
 399              		.cfi_restore 14
 221:Dsp/widget/wgt_core/UI_Controller.c **** 
 400              		.loc 1 221 0
 401 001e 0020     		movs	r0, #0
 402              	.LVL43:
 403 0020 7047     		bx	lr
 404              	.LVL44:
 405              	.L39:
 406              	.LCFI6:
 407              		.cfi_def_cfa_offset 8
 408              		.cfi_offset 3, -8
 409              		.cfi_offset 14, -4
 224:Dsp/widget/wgt_core/UI_Controller.c **** 
 410              		.loc 1 224 0
 411 0022 0120     		movs	r0, #1
 412              	.LVL45:
 413 0024 08BD     		pop	{r3, pc}
 414              	.LVL46:
 415              	.L40:
 416              		.loc 1 234 0
 417 0026 0120     		movs	r0, #1
 418              	.LVL47:
 419 0028 08BD     		pop	{r3, pc}
 420              	.LVL48:
 421              	.L41:
 422 002a 0120     		movs	r0, #1
 423              	.LVL49:
 235:Dsp/widget/wgt_core/UI_Controller.c **** }
 424              		.loc 1 235 0
 425 002c 08BD     		pop	{r3, pc}
 426              		.cfi_endproc
 427              	.LFE8:
 429              		.section	.text.UI_Button_Move,"ax",%progbits
 430              		.align	1
 431              		.syntax unified
 432              		.thumb
 433              		.thumb_func
 434              		.fpu fpv4-sp-d16
 436              	UI_Button_Move:
 437              	.LFB9:
 236:Dsp/widget/wgt_core/UI_Controller.c **** 
 237:Dsp/widget/wgt_core/UI_Controller.c **** static bool UI_Button_Move(UI_ButtonObj_TypeDef *Obj, uint8_t x, uint8_t y)
 238:Dsp/widget/wgt_core/UI_Controller.c **** {
 438              		.loc 1 238 0
 439              		.cfi_startproc
 440              		@ args = 0, pretend = 0, frame = 0
 441              		@ frame_needed = 0, uses_anonymous_args = 0
 442              	.LVL50:
ARM GAS  /tmp/ccfvcx1e.s 			page 13


 239:Dsp/widget/wgt_core/UI_Controller.c ****     if (Obj == NULL)
 443              		.loc 1 239 0
 444 0000 28B1     		cbz	r0, .L48
 238:Dsp/widget/wgt_core/UI_Controller.c ****     if (Obj == NULL)
 445              		.loc 1 238 0
 446 0002 08B5     		push	{r3, lr}
 447              	.LCFI7:
 448              		.cfi_def_cfa_offset 8
 449              		.cfi_offset 3, -8
 450              		.cfi_offset 14, -4
 240:Dsp/widget/wgt_core/UI_Controller.c ****         return false;
 241:Dsp/widget/wgt_core/UI_Controller.c **** 
 242:Dsp/widget/wgt_core/UI_Controller.c ****     return UI_Move(&(Obj->Gen_Data), x, y);
 451              		.loc 1 242 0
 452 0004 52B2     		sxtb	r2, r2
 453 0006 49B2     		sxtb	r1, r1
 454 0008 FFF7FEFF 		bl	UI_Move
 455              	.LVL51:
 456 000c 08BD     		pop	{r3, pc}
 457              	.LVL52:
 458              	.L48:
 459              	.LCFI8:
 460              		.cfi_def_cfa_offset 0
 461              		.cfi_restore 3
 462              		.cfi_restore 14
 240:Dsp/widget/wgt_core/UI_Controller.c ****         return false;
 463              		.loc 1 240 0
 464 000e 0020     		movs	r0, #0
 465              	.LVL53:
 466 0010 7047     		bx	lr
 467              		.cfi_endproc
 468              	.LFE9:
 470              		.section	.text.UI_Button_Ctl,"ax",%progbits
 471              		.align	1
 472              		.syntax unified
 473              		.thumb
 474              		.thumb_func
 475              		.fpu fpv4-sp-d16
 477              	UI_Button_Ctl:
 478              	.LFB10:
 243:Dsp/widget/wgt_core/UI_Controller.c **** }
 244:Dsp/widget/wgt_core/UI_Controller.c **** 
 245:Dsp/widget/wgt_core/UI_Controller.c **** static bool UI_Button_Ctl(UI_ButtonObj_TypeDef *Obj)
 246:Dsp/widget/wgt_core/UI_Controller.c **** {
 479              		.loc 1 246 0
 480              		.cfi_startproc
 481              		@ args = 0, pretend = 0, frame = 0
 482              		@ frame_needed = 0, uses_anonymous_args = 0
 483              	.LVL54:
 484 0000 70B5     		push	{r4, r5, r6, lr}
 485              	.LCFI9:
 486              		.cfi_def_cfa_offset 16
 487              		.cfi_offset 4, -16
 488              		.cfi_offset 5, -12
 489              		.cfi_offset 6, -8
 490              		.cfi_offset 14, -4
 491 0002 84B0     		sub	sp, sp, #16
ARM GAS  /tmp/ccfvcx1e.s 			page 14


 492              	.LCFI10:
 493              		.cfi_def_cfa_offset 32
 494 0004 0446     		mov	r4, r0
 247:Dsp/widget/wgt_core/UI_Controller.c ****     SYSTEM_RunTime Cur_Rt = Get_CurrentRunningMs();
 495              		.loc 1 247 0
 496 0006 FFF7FEFF 		bl	Get_CurrentRunningMs
 497              	.LVL55:
 248:Dsp/widget/wgt_core/UI_Controller.c **** 
 249:Dsp/widget/wgt_core/UI_Controller.c ****     if (Obj == NULL)
 498              		.loc 1 249 0
 499 000a 002C     		cmp	r4, #0
 500 000c 68D0     		beq	.L59
 250:Dsp/widget/wgt_core/UI_Controller.c ****         return false;
 251:Dsp/widget/wgt_core/UI_Controller.c **** 
 252:Dsp/widget/wgt_core/UI_Controller.c ****     if (Obj->type == Lock_Btn)
 501              		.loc 1 252 0
 502 000e A37A     		ldrb	r3, [r4, #10]	@ zero_extendqisi2
 503 0010 012B     		cmp	r3, #1
 504 0012 2DD0     		beq	.L68
 505              	.L55:
 253:Dsp/widget/wgt_core/UI_Controller.c ****     {
 254:Dsp/widget/wgt_core/UI_Controller.c ****         if (Obj->state == UI_Btn_PushDwn)
 255:Dsp/widget/wgt_core/UI_Controller.c ****         {
 256:Dsp/widget/wgt_core/UI_Controller.c ****             if (Obj->push_callback)
 257:Dsp/widget/wgt_core/UI_Controller.c ****                 Obj->push_callback();
 258:Dsp/widget/wgt_core/UI_Controller.c ****         }
 259:Dsp/widget/wgt_core/UI_Controller.c ****         else if (Obj->state == UI_Btn_RlsUp)
 260:Dsp/widget/wgt_core/UI_Controller.c ****         {
 261:Dsp/widget/wgt_core/UI_Controller.c ****             if (Obj->release_callback)
 262:Dsp/widget/wgt_core/UI_Controller.c ****                 Obj->release_callback();
 263:Dsp/widget/wgt_core/UI_Controller.c ****         }
 264:Dsp/widget/wgt_core/UI_Controller.c ****         else
 265:Dsp/widget/wgt_core/UI_Controller.c ****             return false;
 266:Dsp/widget/wgt_core/UI_Controller.c ****     }
 267:Dsp/widget/wgt_core/UI_Controller.c **** 
 268:Dsp/widget/wgt_core/UI_Controller.c ****     /* display button on screen object */
 269:Dsp/widget/wgt_core/UI_Controller.c ****     /* invert display color when button been push down */
 270:Dsp/widget/wgt_core/UI_Controller.c ****     if ((UI_DspInterface.draw_str != NULL) && (UI_DspInterface.fill_radius_rectangle != NULL) && (U
 506              		.loc 1 270 0
 507 0014 3A4B     		ldr	r3, .L72
 508 0016 1B68     		ldr	r3, [r3]
 509 0018 002B     		cmp	r3, #0
 510 001a 65D0     		beq	.L61
 511              		.loc 1 270 0 is_stmt 0 discriminator 1
 512 001c 384B     		ldr	r3, .L72
 513 001e 9E6A     		ldr	r6, [r3, #40]
 514 0020 002E     		cmp	r6, #0
 515 0022 63D0     		beq	.L62
 516              		.loc 1 270 0 discriminator 2
 517 0024 DD68     		ldr	r5, [r3, #12]
 518 0026 002D     		cmp	r5, #0
 519 0028 62D0     		beq	.L63
 271:Dsp/widget/wgt_core/UI_Controller.c ****     {
 272:Dsp/widget/wgt_core/UI_Controller.c ****         if (Obj->state == UI_Btn_PushDwn)
 520              		.loc 1 272 0 is_stmt 1
 521 002a 637A     		ldrb	r3, [r4, #9]	@ zero_extendqisi2
 522 002c 012B     		cmp	r3, #1
ARM GAS  /tmp/ccfvcx1e.s 			page 15


 523 002e 2ED0     		beq	.L69
 273:Dsp/widget/wgt_core/UI_Controller.c ****         {
 274:Dsp/widget/wgt_core/UI_Controller.c ****             /* fill button frame */
 275:Dsp/widget/wgt_core/UI_Controller.c ****             UI_DspInterface.fill_radius_rectangle(Obj->Gen_Data.x, Obj->Gen_Data.y, Obj->width, Obj
 276:Dsp/widget/wgt_core/UI_Controller.c **** 
 277:Dsp/widget/wgt_core/UI_Controller.c ****             /* invert string display */
 278:Dsp/widget/wgt_core/UI_Controller.c ****             if (Obj->PushDown_Label != NULL)
 279:Dsp/widget/wgt_core/UI_Controller.c ****                 UI_DspInterface.draw_str(Default_Font, Obj->PushDown_Label, Obj->Gen_Data.x + 5, Ob
 280:Dsp/widget/wgt_core/UI_Controller.c ****         }
 281:Dsp/widget/wgt_core/UI_Controller.c ****         else
 282:Dsp/widget/wgt_core/UI_Controller.c ****         {
 283:Dsp/widget/wgt_core/UI_Controller.c ****             /* draw button frame */
 284:Dsp/widget/wgt_core/UI_Controller.c ****             UI_DspInterface.draw_radius_rectangle(Obj->Gen_Data.x, Obj->Gen_Data.y, Obj->width, Obj
 524              		.loc 1 284 0
 525 0030 637F     		ldrb	r3, [r4, #29]	@ zero_extendqisi2
 526 0032 227F     		ldrb	r2, [r4, #28]	@ zero_extendqisi2
 527 0034 94F90510 		ldrsb	r1, [r4, #5]
 528 0038 94F90400 		ldrsb	r0, [r4, #4]
 529 003c 0126     		movs	r6, #1
 530 003e 0296     		str	r6, [sp, #8]
 531 0040 0196     		str	r6, [sp, #4]
 532 0042 0326     		movs	r6, #3
 533 0044 0096     		str	r6, [sp]
 534 0046 A847     		blx	r5
 535              	.LVL56:
 285:Dsp/widget/wgt_core/UI_Controller.c **** 
 286:Dsp/widget/wgt_core/UI_Controller.c ****             if (Obj->type == Lock_Btn)
 536              		.loc 1 286 0
 537 0048 A37A     		ldrb	r3, [r4, #10]	@ zero_extendqisi2
 538 004a 012B     		cmp	r3, #1
 539 004c 39D0     		beq	.L70
 287:Dsp/widget/wgt_core/UI_Controller.c ****             {
 288:Dsp/widget/wgt_core/UI_Controller.c ****                 /* display label normally */
 289:Dsp/widget/wgt_core/UI_Controller.c ****                 if (Obj->Release_Label != NULL)
 290:Dsp/widget/wgt_core/UI_Controller.c ****                     UI_DspInterface.draw_str(Default_Font, Obj->Release_Label, Obj->Gen_Data.x + 9,
 291:Dsp/widget/wgt_core/UI_Controller.c ****             }
 292:Dsp/widget/wgt_core/UI_Controller.c ****             else
 293:Dsp/widget/wgt_core/UI_Controller.c ****             {
 294:Dsp/widget/wgt_core/UI_Controller.c ****                 if (Obj->PushDown_Label != NULL)
 540              		.loc 1 294 0
 541 004e 6169     		ldr	r1, [r4, #20]
 542 0050 0029     		cmp	r1, #0
 543 0052 53D0     		beq	.L66
 295:Dsp/widget/wgt_core/UI_Controller.c ****                     UI_DspInterface.draw_str(Default_Font, Obj->PushDown_Label, Obj->Gen_Data.x + 5
 544              		.loc 1 295 0
 545 0054 2A4B     		ldr	r3, .L72
 546 0056 1D68     		ldr	r5, [r3]
 547 0058 2279     		ldrb	r2, [r4, #4]	@ zero_extendqisi2
 548 005a 0532     		adds	r2, r2, #5
 549 005c 94F90530 		ldrsb	r3, [r4, #5]
 550 0060 0124     		movs	r4, #1
 551              	.LVL57:
 552 0062 0094     		str	r4, [sp]
 553 0064 52B2     		sxtb	r2, r2
 554 0066 0C20     		movs	r0, #12
 555 0068 A847     		blx	r5
 556              	.LVL58:
ARM GAS  /tmp/ccfvcx1e.s 			page 16


 296:Dsp/widget/wgt_core/UI_Controller.c ****             }
 297:Dsp/widget/wgt_core/UI_Controller.c ****         }
 298:Dsp/widget/wgt_core/UI_Controller.c ****     }
 299:Dsp/widget/wgt_core/UI_Controller.c ****     else
 300:Dsp/widget/wgt_core/UI_Controller.c ****         return false;
 301:Dsp/widget/wgt_core/UI_Controller.c **** 
 302:Dsp/widget/wgt_core/UI_Controller.c ****     return true;
 557              		.loc 1 302 0
 558 006a 2046     		mov	r0, r4
 559              	.L54:
 303:Dsp/widget/wgt_core/UI_Controller.c **** }
 560              		.loc 1 303 0
 561 006c 04B0     		add	sp, sp, #16
 562              	.LCFI11:
 563              		.cfi_remember_state
 564              		.cfi_def_cfa_offset 16
 565              		@ sp needed
 566 006e 70BD     		pop	{r4, r5, r6, pc}
 567              	.LVL59:
 568              	.L68:
 569              	.LCFI12:
 570              		.cfi_restore_state
 254:Dsp/widget/wgt_core/UI_Controller.c ****         {
 571              		.loc 1 254 0
 572 0070 637A     		ldrb	r3, [r4, #9]	@ zero_extendqisi2
 573 0072 012B     		cmp	r3, #1
 574 0074 06D0     		beq	.L71
 259:Dsp/widget/wgt_core/UI_Controller.c ****         {
 575              		.loc 1 259 0
 576 0076 002B     		cmp	r3, #0
 577 0078 34D1     		bne	.L60
 261:Dsp/widget/wgt_core/UI_Controller.c ****                 Obj->release_callback();
 578              		.loc 1 261 0
 579 007a 2369     		ldr	r3, [r4, #16]
 580 007c 002B     		cmp	r3, #0
 581 007e C9D0     		beq	.L55
 262:Dsp/widget/wgt_core/UI_Controller.c ****         }
 582              		.loc 1 262 0
 583 0080 9847     		blx	r3
 584              	.LVL60:
 585 0082 C7E7     		b	.L55
 586              	.L71:
 256:Dsp/widget/wgt_core/UI_Controller.c ****                 Obj->push_callback();
 587              		.loc 1 256 0
 588 0084 E368     		ldr	r3, [r4, #12]
 589 0086 002B     		cmp	r3, #0
 590 0088 C4D0     		beq	.L55
 257:Dsp/widget/wgt_core/UI_Controller.c ****         }
 591              		.loc 1 257 0
 592 008a 9847     		blx	r3
 593              	.LVL61:
 594 008c C2E7     		b	.L55
 595              	.L69:
 275:Dsp/widget/wgt_core/UI_Controller.c **** 
 596              		.loc 1 275 0
 597 008e 637F     		ldrb	r3, [r4, #29]	@ zero_extendqisi2
 598 0090 227F     		ldrb	r2, [r4, #28]	@ zero_extendqisi2
ARM GAS  /tmp/ccfvcx1e.s 			page 17


 599 0092 94F90510 		ldrsb	r1, [r4, #5]
 600 0096 94F90400 		ldrsb	r0, [r4, #4]
 601 009a 0125     		movs	r5, #1
 602 009c 0195     		str	r5, [sp, #4]
 603 009e 0325     		movs	r5, #3
 604 00a0 0095     		str	r5, [sp]
 605 00a2 B047     		blx	r6
 606              	.LVL62:
 278:Dsp/widget/wgt_core/UI_Controller.c ****                 UI_DspInterface.draw_str(Default_Font, Obj->PushDown_Label, Obj->Gen_Data.x + 5, Ob
 607              		.loc 1 278 0
 608 00a4 6169     		ldr	r1, [r4, #20]
 609 00a6 29B3     		cbz	r1, .L64
 279:Dsp/widget/wgt_core/UI_Controller.c ****         }
 610              		.loc 1 279 0
 611 00a8 154B     		ldr	r3, .L72
 612 00aa 1D68     		ldr	r5, [r3]
 613 00ac 2279     		ldrb	r2, [r4, #4]	@ zero_extendqisi2
 614 00ae 0532     		adds	r2, r2, #5
 615 00b0 94F90530 		ldrsb	r3, [r4, #5]
 616 00b4 0124     		movs	r4, #1
 617              	.LVL63:
 618 00b6 0094     		str	r4, [sp]
 619 00b8 52B2     		sxtb	r2, r2
 620 00ba 0C20     		movs	r0, #12
 621 00bc A847     		blx	r5
 622              	.LVL64:
 302:Dsp/widget/wgt_core/UI_Controller.c **** }
 623              		.loc 1 302 0
 624 00be 2046     		mov	r0, r4
 625 00c0 D4E7     		b	.L54
 626              	.LVL65:
 627              	.L70:
 289:Dsp/widget/wgt_core/UI_Controller.c ****                     UI_DspInterface.draw_str(Default_Font, Obj->Release_Label, Obj->Gen_Data.x + 9,
 628              		.loc 1 289 0
 629 00c2 A169     		ldr	r1, [r4, #24]
 630 00c4 C1B1     		cbz	r1, .L65
 290:Dsp/widget/wgt_core/UI_Controller.c ****             }
 631              		.loc 1 290 0
 632 00c6 0E4B     		ldr	r3, .L72
 633 00c8 1D68     		ldr	r5, [r3]
 634 00ca 2279     		ldrb	r2, [r4, #4]	@ zero_extendqisi2
 635 00cc 0932     		adds	r2, r2, #9
 636 00ce 94F90530 		ldrsb	r3, [r4, #5]
 637 00d2 0124     		movs	r4, #1
 638              	.LVL66:
 639 00d4 0094     		str	r4, [sp]
 640 00d6 52B2     		sxtb	r2, r2
 641 00d8 0C20     		movs	r0, #12
 642 00da A847     		blx	r5
 643              	.LVL67:
 302:Dsp/widget/wgt_core/UI_Controller.c **** }
 644              		.loc 1 302 0
 645 00dc 2046     		mov	r0, r4
 646 00de C5E7     		b	.L54
 647              	.LVL68:
 648              	.L59:
 250:Dsp/widget/wgt_core/UI_Controller.c **** 
ARM GAS  /tmp/ccfvcx1e.s 			page 18


 649              		.loc 1 250 0
 650 00e0 0020     		movs	r0, #0
 651 00e2 C3E7     		b	.L54
 652              	.L60:
 265:Dsp/widget/wgt_core/UI_Controller.c ****     }
 653              		.loc 1 265 0
 654 00e4 0020     		movs	r0, #0
 655 00e6 C1E7     		b	.L54
 656              	.L61:
 300:Dsp/widget/wgt_core/UI_Controller.c **** 
 657              		.loc 1 300 0
 658 00e8 0020     		movs	r0, #0
 659 00ea BFE7     		b	.L54
 660              	.L62:
 661 00ec 0020     		movs	r0, #0
 662 00ee BDE7     		b	.L54
 663              	.L63:
 664 00f0 0020     		movs	r0, #0
 665 00f2 BBE7     		b	.L54
 666              	.L64:
 302:Dsp/widget/wgt_core/UI_Controller.c **** }
 667              		.loc 1 302 0
 668 00f4 0120     		movs	r0, #1
 669 00f6 B9E7     		b	.L54
 670              	.L65:
 671 00f8 0120     		movs	r0, #1
 672 00fa B7E7     		b	.L54
 673              	.L66:
 674 00fc 0120     		movs	r0, #1
 675 00fe B5E7     		b	.L54
 676              	.L73:
 677              		.align	2
 678              	.L72:
 679 0100 00000000 		.word	.LANCHOR0
 680              		.cfi_endproc
 681              	.LFE10:
 683              		.section	.text.UI_Set_DspInterface,"ax",%progbits
 684              		.align	1
 685              		.global	UI_Set_DspInterface
 686              		.syntax unified
 687              		.thumb
 688              		.thumb_func
 689              		.fpu fpv4-sp-d16
 691              	UI_Set_DspInterface:
 692              	.LFB0:
  47:Dsp/widget/wgt_core/UI_Controller.c ****     UI_DspInterface.draw_circle = circle;
 693              		.loc 1 47 0
 694              		.cfi_startproc
 695              		@ args = 28, pretend = 0, frame = 0
 696              		@ frame_needed = 0, uses_anonymous_args = 0
 697              		@ link register save eliminated.
 698              	.LVL69:
 699 0000 30B4     		push	{r4, r5}
 700              	.LCFI13:
 701              		.cfi_def_cfa_offset 8
 702              		.cfi_offset 4, -8
 703              		.cfi_offset 5, -4
ARM GAS  /tmp/ccfvcx1e.s 			page 19


  48:Dsp/widget/wgt_core/UI_Controller.c ****     UI_DspInterface.draw_circle_section = circle_section;
 704              		.loc 1 48 0
 705 0002 0A4C     		ldr	r4, .L76
 706 0004 029D     		ldr	r5, [sp, #8]
 707 0006 6561     		str	r5, [r4, #20]
  49:Dsp/widget/wgt_core/UI_Controller.c ****     UI_DspInterface.draw_line = line;
 708              		.loc 1 49 0
 709 0008 039D     		ldr	r5, [sp, #12]
 710 000a A561     		str	r5, [r4, #24]
  50:Dsp/widget/wgt_core/UI_Controller.c ****     UI_DspInterface.draw_point = point;
 711              		.loc 1 50 0
 712 000c A160     		str	r1, [r4, #8]
  51:Dsp/widget/wgt_core/UI_Controller.c ****     UI_DspInterface.draw_rectangle = rectangle;
 713              		.loc 1 51 0
 714 000e 6060     		str	r0, [r4, #4]
  52:Dsp/widget/wgt_core/UI_Controller.c ****     UI_DspInterface.draw_radius_rectangle = radius_rectangle;
 715              		.loc 1 52 0
 716 0010 2261     		str	r2, [r4, #16]
  53:Dsp/widget/wgt_core/UI_Controller.c ****     UI_DspInterface.draw_str = str;
 717              		.loc 1 53 0
 718 0012 E360     		str	r3, [r4, #12]
  54:Dsp/widget/wgt_core/UI_Controller.c **** 
 719              		.loc 1 54 0
 720 0014 049B     		ldr	r3, [sp, #16]
 721              	.LVL70:
 722 0016 2360     		str	r3, [r4]
  56:Dsp/widget/wgt_core/UI_Controller.c ****     UI_DspInterface.fill_circle_section = fillcircle_section;
 723              		.loc 1 56 0
 724 0018 059B     		ldr	r3, [sp, #20]
 725 001a 2362     		str	r3, [r4, #32]
  57:Dsp/widget/wgt_core/UI_Controller.c ****     UI_DspInterface.fill_radius_rectangle = fill_radius_rectangle;
 726              		.loc 1 57 0
 727 001c 069B     		ldr	r3, [sp, #24]
 728 001e 6362     		str	r3, [r4, #36]
  58:Dsp/widget/wgt_core/UI_Controller.c ****     UI_DspInterface.fill_rectangle = fill_rectangle;
 729              		.loc 1 58 0
 730 0020 089B     		ldr	r3, [sp, #32]
 731 0022 A362     		str	r3, [r4, #40]
  59:Dsp/widget/wgt_core/UI_Controller.c **** }
 732              		.loc 1 59 0
 733 0024 079B     		ldr	r3, [sp, #28]
 734 0026 E361     		str	r3, [r4, #28]
  60:Dsp/widget/wgt_core/UI_Controller.c **** 
 735              		.loc 1 60 0
 736 0028 30BC     		pop	{r4, r5}
 737              	.LCFI14:
 738              		.cfi_restore 5
 739              		.cfi_restore 4
 740              		.cfi_def_cfa_offset 0
 741              	.LVL71:
 742 002a 7047     		bx	lr
 743              	.L77:
 744              		.align	2
 745              	.L76:
 746 002c 00000000 		.word	.LANCHOR0
 747              		.cfi_endproc
 748              	.LFE0:
ARM GAS  /tmp/ccfvcx1e.s 			page 20


 750              		.section	.text.UI_ShowSelector,"ax",%progbits
 751              		.align	1
 752              		.global	UI_ShowSelector
 753              		.syntax unified
 754              		.thumb
 755              		.thumb_func
 756              		.fpu fpv4-sp-d16
 758              	UI_ShowSelector:
 759              	.LFB1:
  65:Dsp/widget/wgt_core/UI_Controller.c ****     /* button selector coordinate */
 760              		.loc 1 65 0
 761              		.cfi_startproc
 762              		@ args = 0, pretend = 0, frame = 0
 763              		@ frame_needed = 0, uses_anonymous_args = 0
 764              	.LVL72:
  76:Dsp/widget/wgt_core/UI_Controller.c ****         (UI_DspInterface.fill_circle_section == NULL))
 765              		.loc 1 76 0
 766 0000 0028     		cmp	r0, #0
 767 0002 40D0     		beq	.L81
  77:Dsp/widget/wgt_core/UI_Controller.c ****         return false;
 768              		.loc 1 77 0 discriminator 1
 769 0004 224A     		ldr	r2, .L90
 770 0006 526A     		ldr	r2, [r2, #36]
  76:Dsp/widget/wgt_core/UI_Controller.c ****         (UI_DspInterface.fill_circle_section == NULL))
 771              		.loc 1 76 0 discriminator 1
 772 0008 002A     		cmp	r2, #0
 773 000a 3ED0     		beq	.L82
  80:Dsp/widget/wgt_core/UI_Controller.c ****     {
 774              		.loc 1 80 0
 775 000c 0278     		ldrb	r2, [r0]	@ zero_extendqisi2
 776 000e 0AB1     		cbz	r2, .L89
 106:Dsp/widget/wgt_core/UI_Controller.c **** }
 777              		.loc 1 106 0
 778 0010 0120     		movs	r0, #1
 779              	.LVL73:
 780 0012 7047     		bx	lr
 781              	.LVL74:
 782              	.L89:
  65:Dsp/widget/wgt_core/UI_Controller.c ****     /* button selector coordinate */
 783              		.loc 1 65 0
 784 0014 2DE9F047 		push	{r4, r5, r6, r7, r8, r9, r10, lr}
 785              	.LCFI15:
 786              		.cfi_def_cfa_offset 32
 787              		.cfi_offset 4, -32
 788              		.cfi_offset 5, -28
 789              		.cfi_offset 6, -24
 790              		.cfi_offset 7, -20
 791              		.cfi_offset 8, -16
 792              		.cfi_offset 9, -12
 793              		.cfi_offset 10, -8
 794              		.cfi_offset 14, -4
 795 0018 82B0     		sub	sp, sp, #8
 796              	.LCFI16:
 797              		.cfi_def_cfa_offset 40
  84:Dsp/widget/wgt_core/UI_Controller.c ****         Btn_Slct_LftUp_Y = ((UI_ButtonObj_TypeDef *)(item->Handler))->Gen_Data.y + ((UI_ButtonObj_T
 798              		.loc 1 84 0
 799 001a 4368     		ldr	r3, [r0, #4]
ARM GAS  /tmp/ccfvcx1e.s 			page 21


 800 001c 93F904A0 		ldrsb	r10, [r3, #4]
 801              	.LVL75:
  85:Dsp/widget/wgt_core/UI_Controller.c **** 
 802              		.loc 1 85 0
 803 0020 93F90590 		ldrsb	r9, [r3, #5]
 804 0024 5D7F     		ldrb	r5, [r3, #29]	@ zero_extendqisi2
 805 0026 55FA89F5 		uxtab	r5, r5, r9
 806 002a EDB2     		uxtb	r5, r5
 807 002c 013D     		subs	r5, r5, #1
 808 002e 4FFA85F8 		sxtb	r8, r5
 809              	.LVL76:
  90:Dsp/widget/wgt_core/UI_Controller.c ****         Btn_Slct_RgtUp_Y = Btn_Slct_LftUp_Y;
 810              		.loc 1 90 0
 811 0032 1E7F     		ldrb	r6, [r3, #28]	@ zero_extendqisi2
 812 0034 56FA8AF6 		uxtab	r6, r6, r10
 813 0038 76B2     		sxtb	r6, r6
 814              	.LVL77:
  97:Dsp/widget/wgt_core/UI_Controller.c ****         UI_DspInterface.draw_circle_section(Btn_Slct_LftDwn_X, Btn_Slct_LftDwn_Y, BUTTON_SELECTOR_R
 815              		.loc 1 97 0
 816 003a 154F     		ldr	r7, .L90
 817 003c 0124     		movs	r4, #1
 818 003e 0194     		str	r4, [sp, #4]
 819 0040 0094     		str	r4, [sp]
 820 0042 0423     		movs	r3, #4
 821 0044 0222     		movs	r2, #2
 822 0046 4146     		mov	r1, r8
 823 0048 5046     		mov	r0, r10
 824              	.LVL78:
 825 004a BD69     		ldr	r5, [r7, #24]
 826 004c A847     		blx	r5
 827              	.LVL79:
  98:Dsp/widget/wgt_core/UI_Controller.c ****         UI_DspInterface.draw_circle_section(Btn_Slct_RgtUp_X, Btn_Slct_RgtUp_Y, BUTTON_SELECTOR_RAD
 828              		.loc 1 98 0
 829 004e 0194     		str	r4, [sp, #4]
 830 0050 0094     		str	r4, [sp]
 831 0052 0223     		movs	r3, #2
 832 0054 1A46     		mov	r2, r3
 833 0056 4946     		mov	r1, r9
 834 0058 5046     		mov	r0, r10
 835 005a BD69     		ldr	r5, [r7, #24]
 836 005c A847     		blx	r5
 837              	.LVL80:
  99:Dsp/widget/wgt_core/UI_Controller.c ****         UI_DspInterface.draw_circle_section(Btn_Slct_RgtDwn_X, Btn_Slct_RgtDwn_Y, BUTTON_SELECTOR_R
 838              		.loc 1 99 0
 839 005e 0194     		str	r4, [sp, #4]
 840 0060 0094     		str	r4, [sp]
 841 0062 0823     		movs	r3, #8
 842 0064 0222     		movs	r2, #2
 843 0066 4146     		mov	r1, r8
 844 0068 3046     		mov	r0, r6
 845 006a BD69     		ldr	r5, [r7, #24]
 846 006c A847     		blx	r5
 847              	.LVL81:
 100:Dsp/widget/wgt_core/UI_Controller.c ****         break;
 848              		.loc 1 100 0
 849 006e BD69     		ldr	r5, [r7, #24]
 850 0070 0194     		str	r4, [sp, #4]
ARM GAS  /tmp/ccfvcx1e.s 			page 22


 851 0072 0094     		str	r4, [sp]
 852 0074 2346     		mov	r3, r4
 853 0076 0222     		movs	r2, #2
 854 0078 4946     		mov	r1, r9
 855 007a 3046     		mov	r0, r6
 856 007c A847     		blx	r5
 857              	.LVL82:
 106:Dsp/widget/wgt_core/UI_Controller.c **** }
 858              		.loc 1 106 0
 859 007e 2046     		mov	r0, r4
 107:Dsp/widget/wgt_core/UI_Controller.c **** 
 860              		.loc 1 107 0
 861 0080 02B0     		add	sp, sp, #8
 862              	.LCFI17:
 863              		.cfi_def_cfa_offset 32
 864              		@ sp needed
 865 0082 BDE8F087 		pop	{r4, r5, r6, r7, r8, r9, r10, pc}
 866              	.LVL83:
 867              	.L81:
 868              	.LCFI18:
 869              		.cfi_def_cfa_offset 0
 870              		.cfi_restore 4
 871              		.cfi_restore 5
 872              		.cfi_restore 6
 873              		.cfi_restore 7
 874              		.cfi_restore 8
 875              		.cfi_restore 9
 876              		.cfi_restore 10
 877              		.cfi_restore 14
  78:Dsp/widget/wgt_core/UI_Controller.c **** 
 878              		.loc 1 78 0
 879 0086 0020     		movs	r0, #0
 880              	.LVL84:
 881 0088 7047     		bx	lr
 882              	.LVL85:
 883              	.L82:
 884 008a 0020     		movs	r0, #0
 885              	.LVL86:
 886 008c 7047     		bx	lr
 887              	.L91:
 888 008e 00BF     		.align	2
 889              	.L90:
 890 0090 00000000 		.word	.LANCHOR0
 891              		.cfi_endproc
 892              	.LFE1:
 894              		.global	UI_Button
 895              		.section	.bss.UI_DspInterface,"aw",%nobits
 896              		.align	2
 897              		.set	.LANCHOR0,. + 0
 900              	UI_DspInterface:
 901 0000 00000000 		.space	44
 901      00000000 
 901      00000000 
 901      00000000 
 901      00000000 
 902              		.section	.data.UI_Button,"aw",%progbits
 903              		.align	2
ARM GAS  /tmp/ccfvcx1e.s 			page 23


 906              	UI_Button:
 907 0000 00000000 		.word	UI_Button_Init
 908 0004 00000000 		.word	UI_Button_Set_TriggerCallback
 909 0008 00000000 		.word	UI_Button_Set_Label
 910 000c 00000000 		.word	UI_Button_Push
 911 0010 00000000 		.word	UI_Button_Release
 912 0014 00000000 		.word	UI_Button_Ctl
 913 0018 00000000 		.word	UI_Button_Move
 914              		.section	.rodata.UI_Button_Init.str1.4,"aMS",%progbits,1
 915              		.align	2
 916              	.LC0:
 917 0000 79657300 		.ascii	"yes\000"
 918              	.LC1:
 919 0004 6E6F00   		.ascii	"no\000"
 920              		.text
 921              	.Letext0:
 922              		.file 2 "/usr/include/newlib/machine/_default_types.h"
 923              		.file 3 "/usr/include/newlib/sys/_stdint.h"
 924              		.file 4 "/usr/include/newlib/sys/lock.h"
 925              		.file 5 "/usr/include/newlib/sys/_types.h"
 926              		.file 6 "/usr/lib/gcc/arm-none-eabi/6.3.1/include/stddef.h"
 927              		.file 7 "/usr/include/newlib/sys/reent.h"
 928              		.file 8 "Dsp/screen/font/oledfont.h"
 929              		.file 9 "SYS/runtime/runtime.h"
 930              		.file 10 "/usr/include/newlib/stdlib.h"
 931              		.file 11 "Dsp/widget/wgt_core/UI_Controller.h"
ARM GAS  /tmp/ccfvcx1e.s 			page 24


DEFINED SYMBOLS
                            *ABS*:0000000000000000 UI_Controller.c
     /tmp/ccfvcx1e.s:18     .text.UI_GenData_Init:0000000000000000 $t
     /tmp/ccfvcx1e.s:24     .text.UI_GenData_Init:0000000000000000 UI_GenData_Init
     /tmp/ccfvcx1e.s:48     .text.UI_Move:0000000000000000 $t
     /tmp/ccfvcx1e.s:54     .text.UI_Move:0000000000000000 UI_Move
     /tmp/ccfvcx1e.s:83     .text.UI_Button_Init:0000000000000000 $t
     /tmp/ccfvcx1e.s:89     .text.UI_Button_Init:0000000000000000 UI_Button_Init
     /tmp/ccfvcx1e.s:149    .text.UI_Button_Init:000000000000003c $d
     /tmp/ccfvcx1e.s:155    .text.UI_Button_Set_Label:0000000000000000 $t
     /tmp/ccfvcx1e.s:161    .text.UI_Button_Set_Label:0000000000000000 UI_Button_Set_Label
     /tmp/ccfvcx1e.s:199    .text.UI_Button_Set_TriggerCallback:0000000000000000 $t
     /tmp/ccfvcx1e.s:205    .text.UI_Button_Set_TriggerCallback:0000000000000000 UI_Button_Set_TriggerCallback
     /tmp/ccfvcx1e.s:251    .text.UI_Button_Push:0000000000000000 $t
     /tmp/ccfvcx1e.s:257    .text.UI_Button_Push:0000000000000000 UI_Button_Push
     /tmp/ccfvcx1e.s:353    .text.UI_Button_Release:0000000000000000 $t
     /tmp/ccfvcx1e.s:359    .text.UI_Button_Release:0000000000000000 UI_Button_Release
     /tmp/ccfvcx1e.s:430    .text.UI_Button_Move:0000000000000000 $t
     /tmp/ccfvcx1e.s:436    .text.UI_Button_Move:0000000000000000 UI_Button_Move
     /tmp/ccfvcx1e.s:471    .text.UI_Button_Ctl:0000000000000000 $t
     /tmp/ccfvcx1e.s:477    .text.UI_Button_Ctl:0000000000000000 UI_Button_Ctl
     /tmp/ccfvcx1e.s:679    .text.UI_Button_Ctl:0000000000000100 $d
     /tmp/ccfvcx1e.s:684    .text.UI_Set_DspInterface:0000000000000000 $t
     /tmp/ccfvcx1e.s:691    .text.UI_Set_DspInterface:0000000000000000 UI_Set_DspInterface
     /tmp/ccfvcx1e.s:746    .text.UI_Set_DspInterface:000000000000002c $d
     /tmp/ccfvcx1e.s:751    .text.UI_ShowSelector:0000000000000000 $t
     /tmp/ccfvcx1e.s:758    .text.UI_ShowSelector:0000000000000000 UI_ShowSelector
     /tmp/ccfvcx1e.s:890    .text.UI_ShowSelector:0000000000000090 $d
     /tmp/ccfvcx1e.s:906    .data.UI_Button:0000000000000000 UI_Button
     /tmp/ccfvcx1e.s:896    .bss.UI_DspInterface:0000000000000000 $d
     /tmp/ccfvcx1e.s:900    .bss.UI_DspInterface:0000000000000000 UI_DspInterface
     /tmp/ccfvcx1e.s:903    .data.UI_Button:0000000000000000 $d
     /tmp/ccfvcx1e.s:915    .rodata.UI_Button_Init.str1.4:0000000000000000 $d
                     .debug_frame:0000000000000010 $d

UNDEFINED SYMBOLS
Get_CurrentRunningMs
