ARM GAS  C:\Users\huav\AppData\Local\Temp\ccFpv2Vf.s 			page 1


   1              		.cpu cortex-m4
   2              		.eabi_attribute 27, 1
   3              		.eabi_attribute 28, 1
   4              		.eabi_attribute 20, 1
   5              		.eabi_attribute 21, 1
   6              		.eabi_attribute 23, 3
   7              		.eabi_attribute 24, 1
   8              		.eabi_attribute 25, 1
   9              		.eabi_attribute 26, 1
  10              		.eabi_attribute 30, 1
  11              		.eabi_attribute 34, 1
  12              		.eabi_attribute 18, 4
  13              		.file	"UI_Controller.c"
  14              		.text
  15              	.Ltext0:
  16              		.cfi_sections	.debug_frame
  17              		.section	.text.UI_GenData_Init,"ax",%progbits
  18              		.align	1
  19              		.arch armv7e-m
  20              		.syntax unified
  21              		.thumb
  22              		.thumb_func
  23              		.fpu fpv4-sp-d16
  25              	UI_GenData_Init:
  26              	.LVL0:
  27              	.LFB4:
  28              		.file 1 "Dsp/widget/wgt_core/UI_Controller.c"
   1:Dsp/widget/wgt_core/UI_Controller.c **** #include "UI_Controller.h"
   2:Dsp/widget/wgt_core/UI_Controller.c **** #include "runtime.h"
   3:Dsp/widget/wgt_core/UI_Controller.c **** #include <stdlib.h>
   4:Dsp/widget/wgt_core/UI_Controller.c **** 
   5:Dsp/widget/wgt_core/UI_Controller.c **** /* internal object */
   6:Dsp/widget/wgt_core/UI_Controller.c **** static UI_DrawInterface_TypeDef UI_DspInterface;
   7:Dsp/widget/wgt_core/UI_Controller.c **** static uint8_t base_font = Default_Font;
   8:Dsp/widget/wgt_core/UI_Controller.c **** 
   9:Dsp/widget/wgt_core/UI_Controller.c **** /* external function */
  10:Dsp/widget/wgt_core/UI_Controller.c **** /* UI Get General Get Mathod */
  11:Dsp/widget/wgt_core/UI_Controller.c **** UI_GetWidget_Width UI_Get_WidgetWidth = NULL;
  12:Dsp/widget/wgt_core/UI_Controller.c **** // UI_GetWidget_Height UI_Get_WidgetHeight = NULL;
  13:Dsp/widget/wgt_core/UI_Controller.c **** 
  14:Dsp/widget/wgt_core/UI_Controller.c **** /* UI button section */
  15:Dsp/widget/wgt_core/UI_Controller.c **** static bool UI_Button_Init(UI_ButtonObj_TypeDef *Obj, char *label, int16_t x, int16_t y, uint8_t wi
  16:Dsp/widget/wgt_core/UI_Controller.c **** static bool UI_Button_Set_Label(UI_ButtonObj_TypeDef *Obj, UI_Button_State_List state, char *label)
  17:Dsp/widget/wgt_core/UI_Controller.c **** static bool UI_Button_Set_TriggerCallback(UI_ButtonObj_TypeDef *Obj, UI_Button_Trigger_Type type, U
  18:Dsp/widget/wgt_core/UI_Controller.c **** static bool UI_Button_Push(UI_ButtonObj_TypeDef *Obj);
  19:Dsp/widget/wgt_core/UI_Controller.c **** static bool UI_Button_Release(UI_ButtonObj_TypeDef *Obj);
  20:Dsp/widget/wgt_core/UI_Controller.c **** static bool UI_Button_Move(UI_ButtonObj_TypeDef *Obj, uint16_t x, uint16_t y);
  21:Dsp/widget/wgt_core/UI_Controller.c **** static bool UI_Button_Ctl(UI_ButtonObj_TypeDef *Obj);
  22:Dsp/widget/wgt_core/UI_Controller.c **** 
  23:Dsp/widget/wgt_core/UI_Controller.c **** /* UI check box section */
  24:Dsp/widget/wgt_core/UI_Controller.c **** static bool UI_CheckBox_Init(UI_CheckBoxObj_TypeDef *Obj, char *label, int16_t x, int16_t y, bool s
  25:Dsp/widget/wgt_core/UI_Controller.c **** static bool UI_CheckBox_SetCallback(UI_CheckBoxObj_TypeDef *Obj, UI_CheckBoxTrigger_Callback callba
  26:Dsp/widget/wgt_core/UI_Controller.c **** static bool UI_CheckBox_Move(UI_CheckBoxObj_TypeDef *Obj, int16_t x, int16_t y);
  27:Dsp/widget/wgt_core/UI_Controller.c **** static bool UI_CheckBox_Trigger(UI_CheckBoxObj_TypeDef *Obj);
  28:Dsp/widget/wgt_core/UI_Controller.c **** static bool UI_CheckBox_Ctl(UI_CheckBoxObj_TypeDef *Obj);
  29:Dsp/widget/wgt_core/UI_Controller.c **** 
  30:Dsp/widget/wgt_core/UI_Controller.c **** /* UI slider bar section */
ARM GAS  C:\Users\huav\AppData\Local\Temp\ccFpv2Vf.s 			page 2


  31:Dsp/widget/wgt_core/UI_Controller.c **** static bool UI_SlideBar_Init(UI_SlideBarObj_TypeDef *Obj, UI_SliderBar_Mode_List mode, char *label,
  32:Dsp/widget/wgt_core/UI_Controller.c **** static bool UI_SlideBar_Move(UI_SlideBarObj_TypeDef *Obj, int16_t x, int16_t y);
  33:Dsp/widget/wgt_core/UI_Controller.c **** static bool UI_SlideBar_SetCallBack(UI_SlideBarObj_TypeDef *Obj, UI_SliderBarTrigger_Callback callb
  34:Dsp/widget/wgt_core/UI_Controller.c **** static bool UI_SlideBar_Input(UI_SlideBarObj_TypeDef *Obj, int16_t *step);
  35:Dsp/widget/wgt_core/UI_Controller.c **** static bool UI_SlideBar_Trigger(UI_SlideBarObj_TypeDef *Obj);
  36:Dsp/widget/wgt_core/UI_Controller.c **** static bool UI_SlideBar_CTL(UI_SlideBarObj_TypeDef *Obj);
  37:Dsp/widget/wgt_core/UI_Controller.c **** static void UI_SlideBar_SetSelect(UI_SlideBarObj_TypeDef *Obj, bool select);
  38:Dsp/widget/wgt_core/UI_Controller.c **** static bool UI_SlideBar_IsSelected(UI_SlideBarObj_TypeDef *Obj);
  39:Dsp/widget/wgt_core/UI_Controller.c **** 
  40:Dsp/widget/wgt_core/UI_Controller.c **** /* UI Process bar section */
  41:Dsp/widget/wgt_core/UI_Controller.c **** static bool UI_ProcessBar_Init(UI_ProcessBarObj_TypeDef *Obj, char *label, int16_t x, int16_t y, ui
  42:Dsp/widget/wgt_core/UI_Controller.c **** static bool UI_ProcessBar_SetDspDir(UI_ProcessBarObj_TypeDef *Obj, UI_ProcessBar_MoveDir_TypeDef Di
  43:Dsp/widget/wgt_core/UI_Controller.c **** static bool UI_ProcessBar_SetCurVal(UI_ProcessBarObj_TypeDef *Obj, uint32_t val);
  44:Dsp/widget/wgt_core/UI_Controller.c **** static bool UI_ProcessBar_Ctl(UI_ProcessBarObj_TypeDef *Obj);
  45:Dsp/widget/wgt_core/UI_Controller.c **** static bool UI_ProcessBar_Move(UI_ProcessBarObj_TypeDef *Obj, uint16_t x, uint16_t y);
  46:Dsp/widget/wgt_core/UI_Controller.c **** 
  47:Dsp/widget/wgt_core/UI_Controller.c **** /* general function */
  48:Dsp/widget/wgt_core/UI_Controller.c **** static bool UI_Get_InitSate(UI_GeneralData_TypeDef GenData);
  49:Dsp/widget/wgt_core/UI_Controller.c **** static bool UI_Selecte(UI_GeneralData_TypeDef *GenData, bool select);
  50:Dsp/widget/wgt_core/UI_Controller.c **** static bool UI_Get_Selected(UI_GeneralData_TypeDef GenData);
  51:Dsp/widget/wgt_core/UI_Controller.c **** static bool UI_Move(UI_GeneralData_TypeDef *GenUI_Info, int16_t dst_x, int16_t dst_y);
  52:Dsp/widget/wgt_core/UI_Controller.c **** 
  53:Dsp/widget/wgt_core/UI_Controller.c **** /* external Object var */
  54:Dsp/widget/wgt_core/UI_Controller.c **** UI_Button_Interface_TypeDef UI_Button = {
  55:Dsp/widget/wgt_core/UI_Controller.c ****     .ctl = UI_Button_Ctl,
  56:Dsp/widget/wgt_core/UI_Controller.c ****     .init = UI_Button_Init,
  57:Dsp/widget/wgt_core/UI_Controller.c ****     .push = UI_Button_Push,
  58:Dsp/widget/wgt_core/UI_Controller.c ****     .move = UI_Button_Move,
  59:Dsp/widget/wgt_core/UI_Controller.c ****     .release = UI_Button_Release,
  60:Dsp/widget/wgt_core/UI_Controller.c ****     .set_label = UI_Button_Set_Label,
  61:Dsp/widget/wgt_core/UI_Controller.c ****     .set_trogger_callback = UI_Button_Set_TriggerCallback,
  62:Dsp/widget/wgt_core/UI_Controller.c **** };
  63:Dsp/widget/wgt_core/UI_Controller.c **** 
  64:Dsp/widget/wgt_core/UI_Controller.c **** UI_CheckBox_Interface_TypeDef UI_CheckBox = {
  65:Dsp/widget/wgt_core/UI_Controller.c ****     .ctl = UI_CheckBox_Ctl,
  66:Dsp/widget/wgt_core/UI_Controller.c ****     .init = UI_CheckBox_Init,
  67:Dsp/widget/wgt_core/UI_Controller.c ****     .Set_Callback = UI_CheckBox_SetCallback,
  68:Dsp/widget/wgt_core/UI_Controller.c ****     .Move = UI_CheckBox_Move,
  69:Dsp/widget/wgt_core/UI_Controller.c ****     .Trigger = UI_CheckBox_Trigger,
  70:Dsp/widget/wgt_core/UI_Controller.c **** };
  71:Dsp/widget/wgt_core/UI_Controller.c **** 
  72:Dsp/widget/wgt_core/UI_Controller.c **** UI_SliderBar_Interface_TypeDef UI_SlideBar = {
  73:Dsp/widget/wgt_core/UI_Controller.c ****     .init = UI_SlideBar_Init,
  74:Dsp/widget/wgt_core/UI_Controller.c ****     .Move = UI_SlideBar_Move,
  75:Dsp/widget/wgt_core/UI_Controller.c ****     .Set_Callbak = UI_SlideBar_SetCallBack,
  76:Dsp/widget/wgt_core/UI_Controller.c ****     .Input = UI_SlideBar_Input,
  77:Dsp/widget/wgt_core/UI_Controller.c ****     .Trigger = UI_SlideBar_Trigger,
  78:Dsp/widget/wgt_core/UI_Controller.c ****     .ctl = UI_SlideBar_CTL,
  79:Dsp/widget/wgt_core/UI_Controller.c ****     .Set_Select = UI_SlideBar_SetSelect,
  80:Dsp/widget/wgt_core/UI_Controller.c ****     .Get_Select = UI_SlideBar_IsSelected,
  81:Dsp/widget/wgt_core/UI_Controller.c **** };
  82:Dsp/widget/wgt_core/UI_Controller.c **** 
  83:Dsp/widget/wgt_core/UI_Controller.c **** UI_ProcessBar_Interface_TypeDef UI_ProcessBar = {
  84:Dsp/widget/wgt_core/UI_Controller.c ****     .init = UI_ProcessBar_Init,
  85:Dsp/widget/wgt_core/UI_Controller.c ****     .Move = UI_ProcessBar_Move,
  86:Dsp/widget/wgt_core/UI_Controller.c ****     .set_CurVal = UI_ProcessBar_SetCurVal,
  87:Dsp/widget/wgt_core/UI_Controller.c ****     .set_DspDir = UI_ProcessBar_SetDspDir,
ARM GAS  C:\Users\huav\AppData\Local\Temp\ccFpv2Vf.s 			page 3


  88:Dsp/widget/wgt_core/UI_Controller.c ****     .ctl = UI_ProcessBar_Ctl,
  89:Dsp/widget/wgt_core/UI_Controller.c **** };
  90:Dsp/widget/wgt_core/UI_Controller.c **** 
  91:Dsp/widget/wgt_core/UI_Controller.c **** /******************************* general function *********************************/
  92:Dsp/widget/wgt_core/UI_Controller.c **** 
  93:Dsp/widget/wgt_core/UI_Controller.c **** bool UI_Set_FontType(uint8_t font)
  94:Dsp/widget/wgt_core/UI_Controller.c **** {
  95:Dsp/widget/wgt_core/UI_Controller.c ****     if (font < Font_8 || font > Font_16)
  96:Dsp/widget/wgt_core/UI_Controller.c ****         return false;
  97:Dsp/widget/wgt_core/UI_Controller.c **** 
  98:Dsp/widget/wgt_core/UI_Controller.c ****     base_font = font;
  99:Dsp/widget/wgt_core/UI_Controller.c **** 
 100:Dsp/widget/wgt_core/UI_Controller.c ****     return true;
 101:Dsp/widget/wgt_core/UI_Controller.c **** }
 102:Dsp/widget/wgt_core/UI_Controller.c **** 
 103:Dsp/widget/wgt_core/UI_Controller.c **** void UI_Set_DspInterface(UI_DrawPoint point,
 104:Dsp/widget/wgt_core/UI_Controller.c ****                          UI_DrawLine line,
 105:Dsp/widget/wgt_core/UI_Controller.c ****                          UI_DrawRectangle rectangle,
 106:Dsp/widget/wgt_core/UI_Controller.c ****                          UI_DrawRadiusRectangle radius_rectangle,
 107:Dsp/widget/wgt_core/UI_Controller.c ****                          UI_DrawCircle circle,
 108:Dsp/widget/wgt_core/UI_Controller.c ****                          UI_DrawCircleSection circle_section,
 109:Dsp/widget/wgt_core/UI_Controller.c ****                          UI_DrawStr str,
 110:Dsp/widget/wgt_core/UI_Controller.c ****                          UI_FillCircle fill_circle,
 111:Dsp/widget/wgt_core/UI_Controller.c ****                          UI_FillCircle_Section fillcircle_section,
 112:Dsp/widget/wgt_core/UI_Controller.c ****                          UI_FillRectangle fill_rectangle,
 113:Dsp/widget/wgt_core/UI_Controller.c ****                          UI_FillRadiusRectangle fill_radius_rectangle)
 114:Dsp/widget/wgt_core/UI_Controller.c **** {
 115:Dsp/widget/wgt_core/UI_Controller.c ****     UI_DspInterface.draw_circle = circle;
 116:Dsp/widget/wgt_core/UI_Controller.c ****     UI_DspInterface.draw_circle_section = circle_section;
 117:Dsp/widget/wgt_core/UI_Controller.c ****     UI_DspInterface.draw_line = line;
 118:Dsp/widget/wgt_core/UI_Controller.c ****     UI_DspInterface.draw_point = point;
 119:Dsp/widget/wgt_core/UI_Controller.c ****     UI_DspInterface.draw_rectangle = rectangle;
 120:Dsp/widget/wgt_core/UI_Controller.c ****     UI_DspInterface.draw_radius_rectangle = radius_rectangle;
 121:Dsp/widget/wgt_core/UI_Controller.c ****     UI_DspInterface.draw_str = str;
 122:Dsp/widget/wgt_core/UI_Controller.c **** 
 123:Dsp/widget/wgt_core/UI_Controller.c ****     UI_DspInterface.fill_circle = fill_circle;
 124:Dsp/widget/wgt_core/UI_Controller.c ****     UI_DspInterface.fill_circle_section = fillcircle_section;
 125:Dsp/widget/wgt_core/UI_Controller.c ****     UI_DspInterface.fill_radius_rectangle = fill_radius_rectangle;
 126:Dsp/widget/wgt_core/UI_Controller.c ****     UI_DspInterface.fill_rectangle = fill_rectangle;
 127:Dsp/widget/wgt_core/UI_Controller.c **** }
 128:Dsp/widget/wgt_core/UI_Controller.c **** 
 129:Dsp/widget/wgt_core/UI_Controller.c **** void UI_Set_GetWidgetWidthMathod(UI_GetWidget_Width mathod)
 130:Dsp/widget/wgt_core/UI_Controller.c **** {
 131:Dsp/widget/wgt_core/UI_Controller.c ****     UI_Get_WidgetWidth = mathod;
 132:Dsp/widget/wgt_core/UI_Controller.c **** }
 133:Dsp/widget/wgt_core/UI_Controller.c **** 
 134:Dsp/widget/wgt_core/UI_Controller.c **** /* still in developing about this selector */
 135:Dsp/widget/wgt_core/UI_Controller.c **** /* FYI different UI Item Got different selector */
 136:Dsp/widget/wgt_core/UI_Controller.c **** bool UI_ShowSelector(WidgetUI_Item_TypeDef *item)
 137:Dsp/widget/wgt_core/UI_Controller.c **** {
 138:Dsp/widget/wgt_core/UI_Controller.c ****     /* button selector coordinate */
 139:Dsp/widget/wgt_core/UI_Controller.c ****     int16_t Btn_Slct_LftUp_X = 0;
 140:Dsp/widget/wgt_core/UI_Controller.c ****     int16_t Btn_Slct_LftUp_Y = 0;
 141:Dsp/widget/wgt_core/UI_Controller.c ****     int16_t Btn_Slct_LftDwn_X = 0;
 142:Dsp/widget/wgt_core/UI_Controller.c ****     int16_t Btn_Slct_LftDwn_Y = 0;
 143:Dsp/widget/wgt_core/UI_Controller.c ****     int16_t Btn_Slct_RgtUp_X = 0;
 144:Dsp/widget/wgt_core/UI_Controller.c ****     int16_t Btn_Slct_RgtUp_Y = 0;
ARM GAS  C:\Users\huav\AppData\Local\Temp\ccFpv2Vf.s 			page 4


 145:Dsp/widget/wgt_core/UI_Controller.c ****     int16_t Btn_Slct_RgtDwn_X = 0;
 146:Dsp/widget/wgt_core/UI_Controller.c ****     int16_t Btn_Slct_RgtDwn_Y = 0;
 147:Dsp/widget/wgt_core/UI_Controller.c **** 
 148:Dsp/widget/wgt_core/UI_Controller.c ****     /* selector block coordinate */
 149:Dsp/widget/wgt_core/UI_Controller.c ****     int16_t block_x;
 150:Dsp/widget/wgt_core/UI_Controller.c ****     int16_t block_y;
 151:Dsp/widget/wgt_core/UI_Controller.c **** 
 152:Dsp/widget/wgt_core/UI_Controller.c ****     uint8_t widget_width = 128;
 153:Dsp/widget/wgt_core/UI_Controller.c ****     uint8_t selector_height = 0;
 154:Dsp/widget/wgt_core/UI_Controller.c **** 
 155:Dsp/widget/wgt_core/UI_Controller.c ****     if (UI_Get_WidgetWidth != NULL)
 156:Dsp/widget/wgt_core/UI_Controller.c ****     {
 157:Dsp/widget/wgt_core/UI_Controller.c ****         widget_width = UI_Get_WidgetWidth();
 158:Dsp/widget/wgt_core/UI_Controller.c **** 
 159:Dsp/widget/wgt_core/UI_Controller.c ****         if (widget_width == 0)
 160:Dsp/widget/wgt_core/UI_Controller.c ****             return false;
 161:Dsp/widget/wgt_core/UI_Controller.c ****     }
 162:Dsp/widget/wgt_core/UI_Controller.c **** 
 163:Dsp/widget/wgt_core/UI_Controller.c ****     if (item == NULL)
 164:Dsp/widget/wgt_core/UI_Controller.c ****         return false;
 165:Dsp/widget/wgt_core/UI_Controller.c **** 
 166:Dsp/widget/wgt_core/UI_Controller.c ****     switch (base_font)
 167:Dsp/widget/wgt_core/UI_Controller.c ****     {
 168:Dsp/widget/wgt_core/UI_Controller.c ****     case Font_8:
 169:Dsp/widget/wgt_core/UI_Controller.c ****         selector_height = Font_8 + 2;
 170:Dsp/widget/wgt_core/UI_Controller.c ****         break;
 171:Dsp/widget/wgt_core/UI_Controller.c **** 
 172:Dsp/widget/wgt_core/UI_Controller.c ****     case Font_12:
 173:Dsp/widget/wgt_core/UI_Controller.c ****     case Font_16:
 174:Dsp/widget/wgt_core/UI_Controller.c ****         selector_height = Font_12 - 1;
 175:Dsp/widget/wgt_core/UI_Controller.c ****         break;
 176:Dsp/widget/wgt_core/UI_Controller.c **** 
 177:Dsp/widget/wgt_core/UI_Controller.c ****     default:
 178:Dsp/widget/wgt_core/UI_Controller.c ****         return false;
 179:Dsp/widget/wgt_core/UI_Controller.c ****     }
 180:Dsp/widget/wgt_core/UI_Controller.c **** 
 181:Dsp/widget/wgt_core/UI_Controller.c ****     switch ((uint8_t)(item->type))
 182:Dsp/widget/wgt_core/UI_Controller.c ****     {
 183:Dsp/widget/wgt_core/UI_Controller.c ****     case UI_Type_Button:
 184:Dsp/widget/wgt_core/UI_Controller.c **** 
 185:Dsp/widget/wgt_core/UI_Controller.c ****         if (UI_DspInterface.fill_circle_section == NULL)
 186:Dsp/widget/wgt_core/UI_Controller.c ****             return false;
 187:Dsp/widget/wgt_core/UI_Controller.c **** 
 188:Dsp/widget/wgt_core/UI_Controller.c ****         /* comput button selector coordinate first */
 189:Dsp/widget/wgt_core/UI_Controller.c ****         Btn_Slct_LftUp_X = HandleToButtonObj(item->Handler)->Gen_Data.x;
 190:Dsp/widget/wgt_core/UI_Controller.c ****         Btn_Slct_LftUp_Y = HandleToButtonObj(item->Handler)->Gen_Data.y + HandleToButtonObj(item->H
 191:Dsp/widget/wgt_core/UI_Controller.c **** 
 192:Dsp/widget/wgt_core/UI_Controller.c ****         Btn_Slct_LftDwn_X = Btn_Slct_LftUp_X;
 193:Dsp/widget/wgt_core/UI_Controller.c ****         Btn_Slct_LftDwn_Y = HandleToButtonObj(item->Handler)->Gen_Data.y;
 194:Dsp/widget/wgt_core/UI_Controller.c **** 
 195:Dsp/widget/wgt_core/UI_Controller.c ****         Btn_Slct_RgtUp_X = HandleToButtonObj(item->Handler)->Gen_Data.x + HandleToButtonObj(item->H
 196:Dsp/widget/wgt_core/UI_Controller.c ****         Btn_Slct_RgtUp_Y = Btn_Slct_LftUp_Y;
 197:Dsp/widget/wgt_core/UI_Controller.c **** 
 198:Dsp/widget/wgt_core/UI_Controller.c ****         Btn_Slct_RgtDwn_X = Btn_Slct_RgtUp_X;
 199:Dsp/widget/wgt_core/UI_Controller.c ****         Btn_Slct_RgtDwn_Y = Btn_Slct_LftDwn_Y;
 200:Dsp/widget/wgt_core/UI_Controller.c **** 
 201:Dsp/widget/wgt_core/UI_Controller.c ****         // show button selector
ARM GAS  C:\Users\huav\AppData\Local\Temp\ccFpv2Vf.s 			page 5


 202:Dsp/widget/wgt_core/UI_Controller.c ****         UI_DspInterface.draw_circle_section(Btn_Slct_LftUp_X, Btn_Slct_LftUp_Y, BUTTON_SELECTOR_RAD
 203:Dsp/widget/wgt_core/UI_Controller.c ****         UI_DspInterface.draw_circle_section(Btn_Slct_LftDwn_X, Btn_Slct_LftDwn_Y, BUTTON_SELECTOR_R
 204:Dsp/widget/wgt_core/UI_Controller.c ****         UI_DspInterface.draw_circle_section(Btn_Slct_RgtUp_X, Btn_Slct_RgtUp_Y, BUTTON_SELECTOR_RAD
 205:Dsp/widget/wgt_core/UI_Controller.c ****         UI_DspInterface.draw_circle_section(Btn_Slct_RgtDwn_X, Btn_Slct_RgtDwn_Y, BUTTON_SELECTOR_R
 206:Dsp/widget/wgt_core/UI_Controller.c ****         break;
 207:Dsp/widget/wgt_core/UI_Controller.c **** 
 208:Dsp/widget/wgt_core/UI_Controller.c ****     case UI_Type_CheckBox:
 209:Dsp/widget/wgt_core/UI_Controller.c ****         block_x = HandleToCheckBoxObj(item->Handler)->Gen_Data.x + 3;
 210:Dsp/widget/wgt_core/UI_Controller.c ****         block_y = HandleToCheckBoxObj(item->Handler)->Gen_Data.y + 1;
 211:Dsp/widget/wgt_core/UI_Controller.c **** 
 212:Dsp/widget/wgt_core/UI_Controller.c ****         UI_DspInterface.fill_rectangle(block_x, block_y, (widget_width - 6), selector_height, true)
 213:Dsp/widget/wgt_core/UI_Controller.c ****         break;
 214:Dsp/widget/wgt_core/UI_Controller.c **** 
 215:Dsp/widget/wgt_core/UI_Controller.c ****     case UI_Type_SlideBar:
 216:Dsp/widget/wgt_core/UI_Controller.c ****         block_y = HandleToSlideBarObj(item->Handler)->Gen_Data.y + 1;
 217:Dsp/widget/wgt_core/UI_Controller.c **** 
 218:Dsp/widget/wgt_core/UI_Controller.c ****         if (!UI_SlideBar_IsSelected(HandleToButtonObj(item->Handler)))
 219:Dsp/widget/wgt_core/UI_Controller.c ****         {
 220:Dsp/widget/wgt_core/UI_Controller.c ****             block_x = HandleToSlideBarObj(item->Handler)->Gen_Data.x + 3;
 221:Dsp/widget/wgt_core/UI_Controller.c **** 
 222:Dsp/widget/wgt_core/UI_Controller.c ****             UI_DspInterface.fill_rectangle(block_x, block_y, (widget_width - 6), selector_height, t
 223:Dsp/widget/wgt_core/UI_Controller.c ****         }
 224:Dsp/widget/wgt_core/UI_Controller.c ****         else
 225:Dsp/widget/wgt_core/UI_Controller.c ****         {
 226:Dsp/widget/wgt_core/UI_Controller.c ****             block_x = HandleToSlideBarObj(item->Handler)->BarCoord_X - 3;
 227:Dsp/widget/wgt_core/UI_Controller.c **** 
 228:Dsp/widget/wgt_core/UI_Controller.c ****             UI_DspInterface.fill_rectangle(block_x, block_y, (widget_width - block_x - 6), selector
 229:Dsp/widget/wgt_core/UI_Controller.c ****         }
 230:Dsp/widget/wgt_core/UI_Controller.c ****         break;
 231:Dsp/widget/wgt_core/UI_Controller.c **** 
 232:Dsp/widget/wgt_core/UI_Controller.c ****     default:
 233:Dsp/widget/wgt_core/UI_Controller.c ****         break;
 234:Dsp/widget/wgt_core/UI_Controller.c ****     }
 235:Dsp/widget/wgt_core/UI_Controller.c ****     return true;
 236:Dsp/widget/wgt_core/UI_Controller.c **** }
 237:Dsp/widget/wgt_core/UI_Controller.c **** 
 238:Dsp/widget/wgt_core/UI_Controller.c **** static void UI_GenData_Init(UI_GeneralData_TypeDef *GenData, char *label, int16_t x, int16_t y)
 239:Dsp/widget/wgt_core/UI_Controller.c **** {
  29              		.loc 1 239 1 view -0
  30              		.cfi_startproc
  31              		@ args = 0, pretend = 0, frame = 0
  32              		@ frame_needed = 0, uses_anonymous_args = 0
  33              		@ link register save eliminated.
 240:Dsp/widget/wgt_core/UI_Controller.c ****     GenData->label = label;
  34              		.loc 1 240 5 view .LVU1
  35              		.loc 1 240 20 is_stmt 0 view .LVU2
  36 0000 0160     		str	r1, [r0]
 241:Dsp/widget/wgt_core/UI_Controller.c **** 
 242:Dsp/widget/wgt_core/UI_Controller.c ****     GenData->x = x;
  37              		.loc 1 242 5 is_stmt 1 view .LVU3
  38              		.loc 1 242 16 is_stmt 0 view .LVU4
  39 0002 8280     		strh	r2, [r0, #4]	@ movhi
 243:Dsp/widget/wgt_core/UI_Controller.c ****     GenData->y = y;
  40              		.loc 1 243 5 is_stmt 1 view .LVU5
  41              		.loc 1 243 16 is_stmt 0 view .LVU6
  42 0004 C380     		strh	r3, [r0, #6]	@ movhi
 244:Dsp/widget/wgt_core/UI_Controller.c **** 
ARM GAS  C:\Users\huav\AppData\Local\Temp\ccFpv2Vf.s 			page 6


 245:Dsp/widget/wgt_core/UI_Controller.c ****     GenData->operatable = false;
  43              		.loc 1 245 5 is_stmt 1 view .LVU7
  44              		.loc 1 245 25 is_stmt 0 view .LVU8
  45 0006 0023     		movs	r3, #0
  46              	.LVL1:
  47              		.loc 1 245 25 view .LVU9
  48 0008 0372     		strb	r3, [r0, #8]
 246:Dsp/widget/wgt_core/UI_Controller.c **** }
  49              		.loc 1 246 1 view .LVU10
  50 000a 7047     		bx	lr
  51              		.cfi_endproc
  52              	.LFE4:
  54              		.section	.text.UI_Move,"ax",%progbits
  55              		.align	1
  56              		.syntax unified
  57              		.thumb
  58              		.thumb_func
  59              		.fpu fpv4-sp-d16
  61              	UI_Move:
  62              	.LVL2:
  63              	.LFB5:
 247:Dsp/widget/wgt_core/UI_Controller.c **** 
 248:Dsp/widget/wgt_core/UI_Controller.c **** static bool UI_Move(UI_GeneralData_TypeDef *GenUI_Info, int16_t dst_x, int16_t dst_y)
 249:Dsp/widget/wgt_core/UI_Controller.c **** {
  64              		.loc 1 249 1 is_stmt 1 view -0
  65              		.cfi_startproc
  66              		@ args = 0, pretend = 0, frame = 0
  67              		@ frame_needed = 0, uses_anonymous_args = 0
  68              		@ link register save eliminated.
 250:Dsp/widget/wgt_core/UI_Controller.c ****     if (GenUI_Info == NULL)
  69              		.loc 1 250 5 view .LVU12
  70              		.loc 1 250 8 is_stmt 0 view .LVU13
  71 0000 18B1     		cbz	r0, .L4
 251:Dsp/widget/wgt_core/UI_Controller.c ****         return false;
 252:Dsp/widget/wgt_core/UI_Controller.c **** 
 253:Dsp/widget/wgt_core/UI_Controller.c ****     GenUI_Info->x = dst_x;
  72              		.loc 1 253 5 is_stmt 1 view .LVU14
  73              		.loc 1 253 19 is_stmt 0 view .LVU15
  74 0002 8180     		strh	r1, [r0, #4]	@ movhi
 254:Dsp/widget/wgt_core/UI_Controller.c ****     GenUI_Info->y = dst_y;
  75              		.loc 1 254 5 is_stmt 1 view .LVU16
  76              		.loc 1 254 19 is_stmt 0 view .LVU17
  77 0004 C280     		strh	r2, [r0, #6]	@ movhi
 255:Dsp/widget/wgt_core/UI_Controller.c **** 
 256:Dsp/widget/wgt_core/UI_Controller.c ****     return true;
  78              		.loc 1 256 5 is_stmt 1 view .LVU18
  79              		.loc 1 256 12 is_stmt 0 view .LVU19
  80 0006 0120     		movs	r0, #1
  81              	.LVL3:
  82              		.loc 1 256 12 view .LVU20
  83 0008 7047     		bx	lr
  84              	.LVL4:
  85              	.L4:
 251:Dsp/widget/wgt_core/UI_Controller.c **** 
  86              		.loc 1 251 16 view .LVU21
  87 000a 0020     		movs	r0, #0
  88              	.LVL5:
ARM GAS  C:\Users\huav\AppData\Local\Temp\ccFpv2Vf.s 			page 7


 257:Dsp/widget/wgt_core/UI_Controller.c **** }
  89              		.loc 1 257 1 view .LVU22
  90 000c 7047     		bx	lr
  91              		.cfi_endproc
  92              	.LFE5:
  94              		.section	.rodata.UI_Button_Init.str1.4,"aMS",%progbits,1
  95              		.align	2
  96              	.LC0:
  97 0000 79657300 		.ascii	"yes\000"
  98              		.align	2
  99              	.LC1:
 100 0004 6E6F00   		.ascii	"no\000"
 101              		.section	.text.UI_Button_Init,"ax",%progbits
 102              		.align	1
 103              		.syntax unified
 104              		.thumb
 105              		.thumb_func
 106              		.fpu fpv4-sp-d16
 108              	UI_Button_Init:
 109              	.LVL6:
 110              	.LFB6:
 258:Dsp/widget/wgt_core/UI_Controller.c **** 
 259:Dsp/widget/wgt_core/UI_Controller.c **** /********************************************** UI Button Object **********************************
 260:Dsp/widget/wgt_core/UI_Controller.c **** static bool UI_Button_Init(UI_ButtonObj_TypeDef *Obj, char *label, int16_t x, int16_t y, uint8_t wi
 261:Dsp/widget/wgt_core/UI_Controller.c **** {
 111              		.loc 1 261 1 is_stmt 1 view -0
 112              		.cfi_startproc
 113              		@ args = 16, pretend = 0, frame = 0
 114              		@ frame_needed = 0, uses_anonymous_args = 0
 115              		.loc 1 261 1 is_stmt 0 view .LVU24
 116 0000 10B5     		push	{r4, lr}
 117              	.LCFI0:
 118              		.cfi_def_cfa_offset 8
 119              		.cfi_offset 4, -8
 120              		.cfi_offset 14, -4
 121 0002 9DF814C0 		ldrb	ip, [sp, #20]	@ zero_extendqisi2
 262:Dsp/widget/wgt_core/UI_Controller.c ****     if (Obj == NULL)
 122              		.loc 1 262 5 is_stmt 1 view .LVU25
 123              		.loc 1 262 8 is_stmt 0 view .LVU26
 124 0006 C8B1     		cbz	r0, .L7
 125 0008 0446     		mov	r4, r0
 263:Dsp/widget/wgt_core/UI_Controller.c ****         return false;
 264:Dsp/widget/wgt_core/UI_Controller.c **** 
 265:Dsp/widget/wgt_core/UI_Controller.c ****     Obj->default_state = state;
 126              		.loc 1 265 5 is_stmt 1 view .LVU27
 127              		.loc 1 265 24 is_stmt 0 view .LVU28
 128 000a 80F80CC0 		strb	ip, [r0, #12]
 266:Dsp/widget/wgt_core/UI_Controller.c ****     Obj->state = state;
 129              		.loc 1 266 5 is_stmt 1 view .LVU29
 130              		.loc 1 266 16 is_stmt 0 view .LVU30
 131 000e 80F80DC0 		strb	ip, [r0, #13]
 267:Dsp/widget/wgt_core/UI_Controller.c ****     Obj->type = type;
 132              		.loc 1 267 5 is_stmt 1 view .LVU31
 133              		.loc 1 267 15 is_stmt 0 view .LVU32
 134 0012 9DF81000 		ldrb	r0, [sp, #16]	@ zero_extendqisi2
 135              	.LVL7:
 136              		.loc 1 267 15 view .LVU33
ARM GAS  C:\Users\huav\AppData\Local\Temp\ccFpv2Vf.s 			page 8


 137 0016 A073     		strb	r0, [r4, #14]
 268:Dsp/widget/wgt_core/UI_Controller.c **** 
 269:Dsp/widget/wgt_core/UI_Controller.c ****     UI_GenData_Init(&Obj->Gen_Data, label, x, y);
 138              		.loc 1 269 5 is_stmt 1 view .LVU34
 139 0018 2046     		mov	r0, r4
 140 001a FFF7FEFF 		bl	UI_GenData_Init
 141              	.LVL8:
 270:Dsp/widget/wgt_core/UI_Controller.c **** 
 271:Dsp/widget/wgt_core/UI_Controller.c ****     Obj->width = width;
 142              		.loc 1 271 5 view .LVU35
 143              		.loc 1 271 16 is_stmt 0 view .LVU36
 144 001e 9DF80830 		ldrb	r3, [sp, #8]	@ zero_extendqisi2
 145 0022 E377     		strb	r3, [r4, #31]
 272:Dsp/widget/wgt_core/UI_Controller.c ****     Obj->height = height;
 146              		.loc 1 272 5 is_stmt 1 view .LVU37
 147              		.loc 1 272 17 is_stmt 0 view .LVU38
 148 0024 9DF80C30 		ldrb	r3, [sp, #12]	@ zero_extendqisi2
 149 0028 84F82030 		strb	r3, [r4, #32]
 273:Dsp/widget/wgt_core/UI_Controller.c **** 
 274:Dsp/widget/wgt_core/UI_Controller.c ****     Obj->PushDown_Label = DEFAULT_BUTTON_PUSH_LABEL;
 150              		.loc 1 274 5 is_stmt 1 view .LVU39
 151              		.loc 1 274 25 is_stmt 0 view .LVU40
 152 002c 044B     		ldr	r3, .L9
 153 002e C4F81730 		str	r3, [r4, #23]	@ unaligned
 275:Dsp/widget/wgt_core/UI_Controller.c ****     Obj->Release_Label = DEFAULT_BUTTON_RELEASE_LABEL;
 154              		.loc 1 275 5 is_stmt 1 view .LVU41
 155              		.loc 1 275 24 is_stmt 0 view .LVU42
 156 0032 044B     		ldr	r3, .L9+4
 157 0034 C4F81B30 		str	r3, [r4, #27]	@ unaligned
 276:Dsp/widget/wgt_core/UI_Controller.c **** 
 277:Dsp/widget/wgt_core/UI_Controller.c ****     return true;
 158              		.loc 1 277 5 is_stmt 1 view .LVU43
 159              		.loc 1 277 12 is_stmt 0 view .LVU44
 160 0038 0120     		movs	r0, #1
 161              	.LVL9:
 162              	.L6:
 278:Dsp/widget/wgt_core/UI_Controller.c **** }
 163              		.loc 1 278 1 view .LVU45
 164 003a 10BD     		pop	{r4, pc}
 165              	.LVL10:
 166              	.L7:
 263:Dsp/widget/wgt_core/UI_Controller.c **** 
 167              		.loc 1 263 16 view .LVU46
 168 003c 0020     		movs	r0, #0
 169              	.LVL11:
 263:Dsp/widget/wgt_core/UI_Controller.c **** 
 170              		.loc 1 263 16 view .LVU47
 171 003e FCE7     		b	.L6
 172              	.L10:
 173              		.align	2
 174              	.L9:
 175 0040 00000000 		.word	.LC0
 176 0044 04000000 		.word	.LC1
 177              		.cfi_endproc
 178              	.LFE6:
 180              		.section	.text.UI_Button_Set_Label,"ax",%progbits
 181              		.align	1
ARM GAS  C:\Users\huav\AppData\Local\Temp\ccFpv2Vf.s 			page 9


 182              		.syntax unified
 183              		.thumb
 184              		.thumb_func
 185              		.fpu fpv4-sp-d16
 187              	UI_Button_Set_Label:
 188              	.LVL12:
 189              	.LFB7:
 279:Dsp/widget/wgt_core/UI_Controller.c **** 
 280:Dsp/widget/wgt_core/UI_Controller.c **** static bool UI_Button_Set_Label(UI_ButtonObj_TypeDef *Obj, UI_Button_State_List state, char *label)
 281:Dsp/widget/wgt_core/UI_Controller.c **** {
 190              		.loc 1 281 1 is_stmt 1 view -0
 191              		.cfi_startproc
 192              		@ args = 0, pretend = 0, frame = 0
 193              		@ frame_needed = 0, uses_anonymous_args = 0
 194              		@ link register save eliminated.
 282:Dsp/widget/wgt_core/UI_Controller.c ****     if (Obj == NULL)
 195              		.loc 1 282 5 view .LVU49
 196              		.loc 1 282 8 is_stmt 0 view .LVU50
 197 0000 48B1     		cbz	r0, .L14
 283:Dsp/widget/wgt_core/UI_Controller.c ****         return false;
 284:Dsp/widget/wgt_core/UI_Controller.c **** 
 285:Dsp/widget/wgt_core/UI_Controller.c ****     if (state == UI_Btn_PushDwn)
 198              		.loc 1 285 5 is_stmt 1 view .LVU51
 199              		.loc 1 285 8 is_stmt 0 view .LVU52
 200 0002 0129     		cmp	r1, #1
 201 0004 03D0     		beq	.L15
 286:Dsp/widget/wgt_core/UI_Controller.c ****         Obj->PushDown_Label = label;
 287:Dsp/widget/wgt_core/UI_Controller.c ****     else
 288:Dsp/widget/wgt_core/UI_Controller.c ****         Obj->Release_Label = label;
 202              		.loc 1 288 9 is_stmt 1 view .LVU53
 203              		.loc 1 288 28 is_stmt 0 view .LVU54
 204 0006 C0F81B20 		str	r2, [r0, #27]	@ unaligned
 289:Dsp/widget/wgt_core/UI_Controller.c **** 
 290:Dsp/widget/wgt_core/UI_Controller.c ****     return true;
 205              		.loc 1 290 12 view .LVU55
 206 000a 0120     		movs	r0, #1
 207              	.LVL13:
 208              		.loc 1 290 12 view .LVU56
 209 000c 7047     		bx	lr
 210              	.LVL14:
 211              	.L15:
 286:Dsp/widget/wgt_core/UI_Controller.c ****         Obj->PushDown_Label = label;
 212              		.loc 1 286 9 is_stmt 1 view .LVU57
 286:Dsp/widget/wgt_core/UI_Controller.c ****         Obj->PushDown_Label = label;
 213              		.loc 1 286 29 is_stmt 0 view .LVU58
 214 000e C0F81720 		str	r2, [r0, #23]	@ unaligned
 215              		.loc 1 290 12 view .LVU59
 216 0012 0120     		movs	r0, #1
 217              	.LVL15:
 218              		.loc 1 290 12 view .LVU60
 219 0014 7047     		bx	lr
 220              	.LVL16:
 221              	.L14:
 283:Dsp/widget/wgt_core/UI_Controller.c **** 
 222              		.loc 1 283 16 view .LVU61
 223 0016 0020     		movs	r0, #0
 224              	.LVL17:
ARM GAS  C:\Users\huav\AppData\Local\Temp\ccFpv2Vf.s 			page 10


 291:Dsp/widget/wgt_core/UI_Controller.c **** }
 225              		.loc 1 291 1 view .LVU62
 226 0018 7047     		bx	lr
 227              		.cfi_endproc
 228              	.LFE7:
 230              		.section	.text.UI_Button_Set_TriggerCallback,"ax",%progbits
 231              		.align	1
 232              		.syntax unified
 233              		.thumb
 234              		.thumb_func
 235              		.fpu fpv4-sp-d16
 237              	UI_Button_Set_TriggerCallback:
 238              	.LVL18:
 239              	.LFB8:
 292:Dsp/widget/wgt_core/UI_Controller.c **** 
 293:Dsp/widget/wgt_core/UI_Controller.c **** static bool UI_Button_Set_TriggerCallback(UI_ButtonObj_TypeDef *Obj, UI_Button_Trigger_Type type, U
 294:Dsp/widget/wgt_core/UI_Controller.c **** {
 240              		.loc 1 294 1 is_stmt 1 view -0
 241              		.cfi_startproc
 242              		@ args = 0, pretend = 0, frame = 0
 243              		@ frame_needed = 0, uses_anonymous_args = 0
 244              		@ link register save eliminated.
 295:Dsp/widget/wgt_core/UI_Controller.c ****     if (Obj == NULL)
 245              		.loc 1 295 5 view .LVU64
 246              		.loc 1 295 8 is_stmt 0 view .LVU65
 247 0000 50B1     		cbz	r0, .L19
 296:Dsp/widget/wgt_core/UI_Controller.c ****         return false;
 297:Dsp/widget/wgt_core/UI_Controller.c **** 
 298:Dsp/widget/wgt_core/UI_Controller.c ****     if (type == Push_Trigger)
 248              		.loc 1 298 5 is_stmt 1 view .LVU66
 249              		.loc 1 298 8 is_stmt 0 view .LVU67
 250 0002 0129     		cmp	r1, #1
 251 0004 04D0     		beq	.L21
 299:Dsp/widget/wgt_core/UI_Controller.c ****     {
 300:Dsp/widget/wgt_core/UI_Controller.c ****         Obj->push_callback = callback;
 301:Dsp/widget/wgt_core/UI_Controller.c ****     }
 302:Dsp/widget/wgt_core/UI_Controller.c ****     else if (type == Release_Trigger)
 252              		.loc 1 302 10 is_stmt 1 view .LVU68
 253              		.loc 1 302 13 is_stmt 0 view .LVU69
 254 0006 49B9     		cbnz	r1, .L20
 303:Dsp/widget/wgt_core/UI_Controller.c ****     {
 304:Dsp/widget/wgt_core/UI_Controller.c ****         Obj->release_callback = callback;
 255              		.loc 1 304 9 is_stmt 1 view .LVU70
 256              		.loc 1 304 31 is_stmt 0 view .LVU71
 257 0008 C0F81320 		str	r2, [r0, #19]	@ unaligned
 305:Dsp/widget/wgt_core/UI_Controller.c ****     }
 306:Dsp/widget/wgt_core/UI_Controller.c ****     else
 307:Dsp/widget/wgt_core/UI_Controller.c ****         return false;
 308:Dsp/widget/wgt_core/UI_Controller.c **** 
 309:Dsp/widget/wgt_core/UI_Controller.c ****     return true;
 258              		.loc 1 309 12 view .LVU72
 259 000c 0120     		movs	r0, #1
 260              	.LVL19:
 261              		.loc 1 309 12 view .LVU73
 262 000e 7047     		bx	lr
 263              	.LVL20:
 264              	.L21:
ARM GAS  C:\Users\huav\AppData\Local\Temp\ccFpv2Vf.s 			page 11


 300:Dsp/widget/wgt_core/UI_Controller.c ****     }
 265              		.loc 1 300 9 is_stmt 1 view .LVU74
 300:Dsp/widget/wgt_core/UI_Controller.c ****     }
 266              		.loc 1 300 28 is_stmt 0 view .LVU75
 267 0010 C0F80F20 		str	r2, [r0, #15]	@ unaligned
 268              		.loc 1 309 12 view .LVU76
 269 0014 0120     		movs	r0, #1
 270              	.LVL21:
 271              		.loc 1 309 12 view .LVU77
 272 0016 7047     		bx	lr
 273              	.LVL22:
 274              	.L19:
 296:Dsp/widget/wgt_core/UI_Controller.c **** 
 275              		.loc 1 296 16 view .LVU78
 276 0018 0020     		movs	r0, #0
 277              	.LVL23:
 296:Dsp/widget/wgt_core/UI_Controller.c **** 
 278              		.loc 1 296 16 view .LVU79
 279 001a 7047     		bx	lr
 280              	.LVL24:
 281              	.L20:
 307:Dsp/widget/wgt_core/UI_Controller.c **** 
 282              		.loc 1 307 16 view .LVU80
 283 001c 0020     		movs	r0, #0
 284              	.LVL25:
 310:Dsp/widget/wgt_core/UI_Controller.c **** }
 285              		.loc 1 310 1 view .LVU81
 286 001e 7047     		bx	lr
 287              		.cfi_endproc
 288              	.LFE8:
 290              		.section	.text.UI_Button_Push,"ax",%progbits
 291              		.align	1
 292              		.syntax unified
 293              		.thumb
 294              		.thumb_func
 295              		.fpu fpv4-sp-d16
 297              	UI_Button_Push:
 298              	.LVL26:
 299              	.LFB9:
 311:Dsp/widget/wgt_core/UI_Controller.c **** 
 312:Dsp/widget/wgt_core/UI_Controller.c **** static bool UI_Button_Push(UI_ButtonObj_TypeDef *Obj)
 313:Dsp/widget/wgt_core/UI_Controller.c **** {
 300              		.loc 1 313 1 is_stmt 1 view -0
 301              		.cfi_startproc
 302              		@ args = 0, pretend = 0, frame = 0
 303              		@ frame_needed = 0, uses_anonymous_args = 0
 314:Dsp/widget/wgt_core/UI_Controller.c ****     if (Obj == NULL)
 304              		.loc 1 314 5 view .LVU83
 305              		.loc 1 314 8 is_stmt 0 view .LVU84
 306 0000 F0B1     		cbz	r0, .L26
 313:Dsp/widget/wgt_core/UI_Controller.c ****     if (Obj == NULL)
 307              		.loc 1 313 1 view .LVU85
 308 0002 08B5     		push	{r3, lr}
 309              	.LCFI1:
 310              		.cfi_def_cfa_offset 8
 311              		.cfi_offset 3, -8
 312              		.cfi_offset 14, -4
ARM GAS  C:\Users\huav\AppData\Local\Temp\ccFpv2Vf.s 			page 12


 313 0004 0346     		mov	r3, r0
 315:Dsp/widget/wgt_core/UI_Controller.c ****         return false;
 316:Dsp/widget/wgt_core/UI_Controller.c **** 
 317:Dsp/widget/wgt_core/UI_Controller.c ****     if (Obj->type == Lock_Btn)
 314              		.loc 1 317 5 is_stmt 1 view .LVU86
 315              		.loc 1 317 12 is_stmt 0 view .LVU87
 316 0006 827B     		ldrb	r2, [r0, #14]	@ zero_extendqisi2
 317              		.loc 1 317 8 view .LVU88
 318 0008 012A     		cmp	r2, #1
 319 000a 06D0     		beq	.L34
 318:Dsp/widget/wgt_core/UI_Controller.c ****     {
 319:Dsp/widget/wgt_core/UI_Controller.c ****         if (Obj->state == UI_Btn_RlsUp)
 320:Dsp/widget/wgt_core/UI_Controller.c ****             Obj->state = UI_Btn_PushDwn;
 321:Dsp/widget/wgt_core/UI_Controller.c ****         else
 322:Dsp/widget/wgt_core/UI_Controller.c ****             Obj->state = UI_Btn_RlsUp;
 323:Dsp/widget/wgt_core/UI_Controller.c ****     }
 324:Dsp/widget/wgt_core/UI_Controller.c ****     else if (Obj->type == Reset_Btn)
 320              		.loc 1 324 10 is_stmt 1 view .LVU89
 321              		.loc 1 324 13 is_stmt 0 view .LVU90
 322 000c D2B9     		cbnz	r2, .L27
 325:Dsp/widget/wgt_core/UI_Controller.c ****     {
 326:Dsp/widget/wgt_core/UI_Controller.c ****         if (Obj->default_state == Obj->state)
 323              		.loc 1 326 9 is_stmt 1 view .LVU91
 324              		.loc 1 326 16 is_stmt 0 view .LVU92
 325 000e 027B     		ldrb	r2, [r0, #12]	@ zero_extendqisi2
 326              		.loc 1 326 38 view .LVU93
 327 0010 417B     		ldrb	r1, [r0, #13]	@ zero_extendqisi2
 328              		.loc 1 326 12 view .LVU94
 329 0012 8A42     		cmp	r2, r1
 330 0014 0AD0     		beq	.L35
 327:Dsp/widget/wgt_core/UI_Controller.c ****         {
 328:Dsp/widget/wgt_core/UI_Controller.c ****             Obj->state = !Obj->default_state;
 329:Dsp/widget/wgt_core/UI_Controller.c **** 
 330:Dsp/widget/wgt_core/UI_Controller.c ****             if (Obj->push_callback != NULL)
 331:Dsp/widget/wgt_core/UI_Controller.c ****                 Obj->push_callback();
 332:Dsp/widget/wgt_core/UI_Controller.c ****         }
 333:Dsp/widget/wgt_core/UI_Controller.c ****     }
 334:Dsp/widget/wgt_core/UI_Controller.c ****     else
 335:Dsp/widget/wgt_core/UI_Controller.c ****         return false;
 336:Dsp/widget/wgt_core/UI_Controller.c **** 
 337:Dsp/widget/wgt_core/UI_Controller.c ****     return true;
 331              		.loc 1 337 12 view .LVU95
 332 0016 0120     		movs	r0, #1
 333              	.LVL27:
 334              	.L23:
 338:Dsp/widget/wgt_core/UI_Controller.c **** }
 335              		.loc 1 338 1 view .LVU96
 336 0018 08BD     		pop	{r3, pc}
 337              	.LVL28:
 338              	.L34:
 319:Dsp/widget/wgt_core/UI_Controller.c ****             Obj->state = UI_Btn_PushDwn;
 339              		.loc 1 319 9 is_stmt 1 view .LVU97
 319:Dsp/widget/wgt_core/UI_Controller.c ****             Obj->state = UI_Btn_PushDwn;
 340              		.loc 1 319 16 is_stmt 0 view .LVU98
 341 001a 427B     		ldrb	r2, [r0, #13]	@ zero_extendqisi2
 319:Dsp/widget/wgt_core/UI_Controller.c ****             Obj->state = UI_Btn_PushDwn;
 342              		.loc 1 319 12 view .LVU99
ARM GAS  C:\Users\huav\AppData\Local\Temp\ccFpv2Vf.s 			page 13


 343 001c 12B9     		cbnz	r2, .L25
 320:Dsp/widget/wgt_core/UI_Controller.c ****         else
 344              		.loc 1 320 13 is_stmt 1 view .LVU100
 320:Dsp/widget/wgt_core/UI_Controller.c ****         else
 345              		.loc 1 320 24 is_stmt 0 view .LVU101
 346 001e 0120     		movs	r0, #1
 347              	.LVL29:
 320:Dsp/widget/wgt_core/UI_Controller.c ****         else
 348              		.loc 1 320 24 view .LVU102
 349 0020 5873     		strb	r0, [r3, #13]
 350 0022 F9E7     		b	.L23
 351              	.LVL30:
 352              	.L25:
 322:Dsp/widget/wgt_core/UI_Controller.c ****     }
 353              		.loc 1 322 13 is_stmt 1 view .LVU103
 322:Dsp/widget/wgt_core/UI_Controller.c ****     }
 354              		.loc 1 322 24 is_stmt 0 view .LVU104
 355 0024 0022     		movs	r2, #0
 356 0026 4273     		strb	r2, [r0, #13]
 337:Dsp/widget/wgt_core/UI_Controller.c **** }
 357              		.loc 1 337 12 view .LVU105
 358 0028 0120     		movs	r0, #1
 359              	.LVL31:
 337:Dsp/widget/wgt_core/UI_Controller.c **** }
 360              		.loc 1 337 12 view .LVU106
 361 002a F5E7     		b	.L23
 362              	.LVL32:
 363              	.L35:
 328:Dsp/widget/wgt_core/UI_Controller.c **** 
 364              		.loc 1 328 13 is_stmt 1 view .LVU107
 328:Dsp/widget/wgt_core/UI_Controller.c **** 
 365              		.loc 1 328 26 is_stmt 0 view .LVU108
 366 002c B2FA82F2 		clz	r2, r2
 367 0030 5209     		lsrs	r2, r2, #5
 328:Dsp/widget/wgt_core/UI_Controller.c **** 
 368              		.loc 1 328 24 view .LVU109
 369 0032 4273     		strb	r2, [r0, #13]
 330:Dsp/widget/wgt_core/UI_Controller.c ****                 Obj->push_callback();
 370              		.loc 1 330 13 is_stmt 1 view .LVU110
 330:Dsp/widget/wgt_core/UI_Controller.c ****                 Obj->push_callback();
 371              		.loc 1 330 20 is_stmt 0 view .LVU111
 372 0034 D0F80F30 		ldr	r3, [r0, #15]	@ unaligned
 330:Dsp/widget/wgt_core/UI_Controller.c ****                 Obj->push_callback();
 373              		.loc 1 330 16 view .LVU112
 374 0038 33B1     		cbz	r3, .L29
 331:Dsp/widget/wgt_core/UI_Controller.c ****         }
 375              		.loc 1 331 17 is_stmt 1 view .LVU113
 376 003a 9847     		blx	r3
 377              	.LVL33:
 337:Dsp/widget/wgt_core/UI_Controller.c **** }
 378              		.loc 1 337 12 is_stmt 0 view .LVU114
 379 003c 0120     		movs	r0, #1
 380 003e EBE7     		b	.L23
 381              	.LVL34:
 382              	.L26:
 383              	.LCFI2:
 384              		.cfi_def_cfa_offset 0
ARM GAS  C:\Users\huav\AppData\Local\Temp\ccFpv2Vf.s 			page 14


 385              		.cfi_restore 3
 386              		.cfi_restore 14
 315:Dsp/widget/wgt_core/UI_Controller.c **** 
 387              		.loc 1 315 16 view .LVU115
 388 0040 0020     		movs	r0, #0
 389              	.LVL35:
 390              		.loc 1 338 1 view .LVU116
 391 0042 7047     		bx	lr
 392              	.LVL36:
 393              	.L27:
 394              	.LCFI3:
 395              		.cfi_def_cfa_offset 8
 396              		.cfi_offset 3, -8
 397              		.cfi_offset 14, -4
 335:Dsp/widget/wgt_core/UI_Controller.c **** 
 398              		.loc 1 335 16 view .LVU117
 399 0044 0020     		movs	r0, #0
 400              	.LVL37:
 335:Dsp/widget/wgt_core/UI_Controller.c **** 
 401              		.loc 1 335 16 view .LVU118
 402 0046 E7E7     		b	.L23
 403              	.LVL38:
 404              	.L29:
 337:Dsp/widget/wgt_core/UI_Controller.c **** }
 405              		.loc 1 337 12 view .LVU119
 406 0048 0120     		movs	r0, #1
 407              	.LVL39:
 337:Dsp/widget/wgt_core/UI_Controller.c **** }
 408              		.loc 1 337 12 view .LVU120
 409 004a E5E7     		b	.L23
 410              		.cfi_endproc
 411              	.LFE9:
 413              		.section	.text.UI_Button_Release,"ax",%progbits
 414              		.align	1
 415              		.syntax unified
 416              		.thumb
 417              		.thumb_func
 418              		.fpu fpv4-sp-d16
 420              	UI_Button_Release:
 421              	.LVL40:
 422              	.LFB10:
 339:Dsp/widget/wgt_core/UI_Controller.c **** 
 340:Dsp/widget/wgt_core/UI_Controller.c **** static bool UI_Button_Release(UI_ButtonObj_TypeDef *Obj)
 341:Dsp/widget/wgt_core/UI_Controller.c **** {
 423              		.loc 1 341 1 is_stmt 1 view -0
 424              		.cfi_startproc
 425              		@ args = 0, pretend = 0, frame = 0
 426              		@ frame_needed = 0, uses_anonymous_args = 0
 342:Dsp/widget/wgt_core/UI_Controller.c ****     if (Obj == NULL)
 427              		.loc 1 342 5 view .LVU122
 428              		.loc 1 342 8 is_stmt 0 view .LVU123
 429 0000 70B1     		cbz	r0, .L38
 341:Dsp/widget/wgt_core/UI_Controller.c ****     if (Obj == NULL)
 430              		.loc 1 341 1 view .LVU124
 431 0002 08B5     		push	{r3, lr}
 432              	.LCFI4:
 433              		.cfi_def_cfa_offset 8
ARM GAS  C:\Users\huav\AppData\Local\Temp\ccFpv2Vf.s 			page 15


 434              		.cfi_offset 3, -8
 435              		.cfi_offset 14, -4
 343:Dsp/widget/wgt_core/UI_Controller.c ****         return false;
 344:Dsp/widget/wgt_core/UI_Controller.c **** 
 345:Dsp/widget/wgt_core/UI_Controller.c ****     if (Obj->type == Lock_Btn)
 436              		.loc 1 345 5 is_stmt 1 view .LVU125
 437              		.loc 1 345 12 is_stmt 0 view .LVU126
 438 0004 827B     		ldrb	r2, [r0, #14]	@ zero_extendqisi2
 439              		.loc 1 345 8 view .LVU127
 440 0006 012A     		cmp	r2, #1
 441 0008 0CD0     		beq	.L39
 346:Dsp/widget/wgt_core/UI_Controller.c ****         return true;
 347:Dsp/widget/wgt_core/UI_Controller.c **** 
 348:Dsp/widget/wgt_core/UI_Controller.c ****     if (Obj->default_state != Obj->state)
 442              		.loc 1 348 5 is_stmt 1 view .LVU128
 443              		.loc 1 348 12 is_stmt 0 view .LVU129
 444 000a 027B     		ldrb	r2, [r0, #12]	@ zero_extendqisi2
 445              		.loc 1 348 34 view .LVU130
 446 000c 417B     		ldrb	r1, [r0, #13]	@ zero_extendqisi2
 447              		.loc 1 348 8 view .LVU131
 448 000e 8A42     		cmp	r2, r1
 449 0010 0AD0     		beq	.L40
 349:Dsp/widget/wgt_core/UI_Controller.c ****     {
 350:Dsp/widget/wgt_core/UI_Controller.c ****         Obj->state = Obj->default_state;
 450              		.loc 1 350 9 is_stmt 1 view .LVU132
 451              		.loc 1 350 20 is_stmt 0 view .LVU133
 452 0012 4273     		strb	r2, [r0, #13]
 351:Dsp/widget/wgt_core/UI_Controller.c **** 
 352:Dsp/widget/wgt_core/UI_Controller.c ****         if (Obj->release_callback != NULL)
 453              		.loc 1 352 9 is_stmt 1 view .LVU134
 454              		.loc 1 352 16 is_stmt 0 view .LVU135
 455 0014 D0F81330 		ldr	r3, [r0, #19]	@ unaligned
 456              		.loc 1 352 12 view .LVU136
 457 0018 43B1     		cbz	r3, .L41
 353:Dsp/widget/wgt_core/UI_Controller.c ****             Obj->release_callback();
 458              		.loc 1 353 13 is_stmt 1 view .LVU137
 459 001a 9847     		blx	r3
 460              	.LVL41:
 354:Dsp/widget/wgt_core/UI_Controller.c ****     }
 355:Dsp/widget/wgt_core/UI_Controller.c **** 
 356:Dsp/widget/wgt_core/UI_Controller.c ****     return true;
 461              		.loc 1 356 12 is_stmt 0 view .LVU138
 462 001c 0120     		movs	r0, #1
 463              	.L37:
 357:Dsp/widget/wgt_core/UI_Controller.c **** }
 464              		.loc 1 357 1 view .LVU139
 465 001e 08BD     		pop	{r3, pc}
 466              	.LVL42:
 467              	.L38:
 468              	.LCFI5:
 469              		.cfi_def_cfa_offset 0
 470              		.cfi_restore 3
 471              		.cfi_restore 14
 343:Dsp/widget/wgt_core/UI_Controller.c **** 
 472              		.loc 1 343 16 view .LVU140
 473 0020 0020     		movs	r0, #0
 474              	.LVL43:
ARM GAS  C:\Users\huav\AppData\Local\Temp\ccFpv2Vf.s 			page 16


 475              		.loc 1 357 1 view .LVU141
 476 0022 7047     		bx	lr
 477              	.LVL44:
 478              	.L39:
 479              	.LCFI6:
 480              		.cfi_def_cfa_offset 8
 481              		.cfi_offset 3, -8
 482              		.cfi_offset 14, -4
 346:Dsp/widget/wgt_core/UI_Controller.c **** 
 483              		.loc 1 346 16 view .LVU142
 484 0024 0120     		movs	r0, #1
 485              	.LVL45:
 346:Dsp/widget/wgt_core/UI_Controller.c **** 
 486              		.loc 1 346 16 view .LVU143
 487 0026 FAE7     		b	.L37
 488              	.LVL46:
 489              	.L40:
 356:Dsp/widget/wgt_core/UI_Controller.c **** }
 490              		.loc 1 356 12 view .LVU144
 491 0028 0120     		movs	r0, #1
 492              	.LVL47:
 356:Dsp/widget/wgt_core/UI_Controller.c **** }
 493              		.loc 1 356 12 view .LVU145
 494 002a F8E7     		b	.L37
 495              	.LVL48:
 496              	.L41:
 356:Dsp/widget/wgt_core/UI_Controller.c **** }
 497              		.loc 1 356 12 view .LVU146
 498 002c 0120     		movs	r0, #1
 499              	.LVL49:
 356:Dsp/widget/wgt_core/UI_Controller.c **** }
 500              		.loc 1 356 12 view .LVU147
 501 002e F6E7     		b	.L37
 502              		.cfi_endproc
 503              	.LFE10:
 505              		.section	.text.UI_Button_Move,"ax",%progbits
 506              		.align	1
 507              		.syntax unified
 508              		.thumb
 509              		.thumb_func
 510              		.fpu fpv4-sp-d16
 512              	UI_Button_Move:
 513              	.LVL50:
 514              	.LFB11:
 358:Dsp/widget/wgt_core/UI_Controller.c **** 
 359:Dsp/widget/wgt_core/UI_Controller.c **** static bool UI_Button_Move(UI_ButtonObj_TypeDef *Obj, uint16_t x, uint16_t y)
 360:Dsp/widget/wgt_core/UI_Controller.c **** {
 515              		.loc 1 360 1 is_stmt 1 view -0
 516              		.cfi_startproc
 517              		@ args = 0, pretend = 0, frame = 0
 518              		@ frame_needed = 0, uses_anonymous_args = 0
 361:Dsp/widget/wgt_core/UI_Controller.c ****     if (Obj == NULL)
 519              		.loc 1 361 5 view .LVU149
 520              		.loc 1 361 8 is_stmt 0 view .LVU150
 521 0000 28B1     		cbz	r0, .L48
 360:Dsp/widget/wgt_core/UI_Controller.c ****     if (Obj == NULL)
 522              		.loc 1 360 1 view .LVU151
ARM GAS  C:\Users\huav\AppData\Local\Temp\ccFpv2Vf.s 			page 17


 523 0002 08B5     		push	{r3, lr}
 524              	.LCFI7:
 525              		.cfi_def_cfa_offset 8
 526              		.cfi_offset 3, -8
 527              		.cfi_offset 14, -4
 362:Dsp/widget/wgt_core/UI_Controller.c ****         return false;
 363:Dsp/widget/wgt_core/UI_Controller.c **** 
 364:Dsp/widget/wgt_core/UI_Controller.c ****     return UI_Move(&(Obj->Gen_Data), x, y);
 528              		.loc 1 364 5 is_stmt 1 view .LVU152
 529              		.loc 1 364 12 is_stmt 0 view .LVU153
 530 0004 12B2     		sxth	r2, r2
 531              		.loc 1 364 12 view .LVU154
 532 0006 09B2     		sxth	r1, r1
 533              		.loc 1 364 12 view .LVU155
 534 0008 FFF7FEFF 		bl	UI_Move
 535              	.LVL51:
 365:Dsp/widget/wgt_core/UI_Controller.c **** }
 536              		.loc 1 365 1 view .LVU156
 537 000c 08BD     		pop	{r3, pc}
 538              	.LVL52:
 539              	.L48:
 540              	.LCFI8:
 541              		.cfi_def_cfa_offset 0
 542              		.cfi_restore 3
 543              		.cfi_restore 14
 362:Dsp/widget/wgt_core/UI_Controller.c ****         return false;
 544              		.loc 1 362 16 view .LVU157
 545 000e 0020     		movs	r0, #0
 546              	.LVL53:
 547              		.loc 1 365 1 view .LVU158
 548 0010 7047     		bx	lr
 549              		.cfi_endproc
 550              	.LFE11:
 552              		.section	.text.UI_Button_Ctl,"ax",%progbits
 553              		.align	1
 554              		.syntax unified
 555              		.thumb
 556              		.thumb_func
 557              		.fpu fpv4-sp-d16
 559              	UI_Button_Ctl:
 560              	.LVL54:
 561              	.LFB12:
 366:Dsp/widget/wgt_core/UI_Controller.c **** 
 367:Dsp/widget/wgt_core/UI_Controller.c **** static bool UI_Button_Ctl(UI_ButtonObj_TypeDef *Obj)
 368:Dsp/widget/wgt_core/UI_Controller.c **** {
 562              		.loc 1 368 1 is_stmt 1 view -0
 563              		.cfi_startproc
 564              		@ args = 0, pretend = 0, frame = 0
 565              		@ frame_needed = 0, uses_anonymous_args = 0
 369:Dsp/widget/wgt_core/UI_Controller.c ****     if (Obj == NULL)
 566              		.loc 1 369 5 view .LVU160
 567              		.loc 1 369 8 is_stmt 0 view .LVU161
 568 0000 0028     		cmp	r0, #0
 569 0002 73D0     		beq	.L59
 368:Dsp/widget/wgt_core/UI_Controller.c ****     if (Obj == NULL)
 570              		.loc 1 368 1 view .LVU162
 571 0004 70B5     		push	{r4, r5, r6, lr}
ARM GAS  C:\Users\huav\AppData\Local\Temp\ccFpv2Vf.s 			page 18


 572              	.LCFI9:
 573              		.cfi_def_cfa_offset 16
 574              		.cfi_offset 4, -16
 575              		.cfi_offset 5, -12
 576              		.cfi_offset 6, -8
 577              		.cfi_offset 14, -4
 578 0006 84B0     		sub	sp, sp, #16
 579              	.LCFI10:
 580              		.cfi_def_cfa_offset 32
 581 0008 0446     		mov	r4, r0
 370:Dsp/widget/wgt_core/UI_Controller.c ****         return false;
 371:Dsp/widget/wgt_core/UI_Controller.c **** 
 372:Dsp/widget/wgt_core/UI_Controller.c ****     if (Obj->type == Lock_Btn)
 582              		.loc 1 372 5 is_stmt 1 view .LVU163
 583              		.loc 1 372 12 is_stmt 0 view .LVU164
 584 000a 837B     		ldrb	r3, [r0, #14]	@ zero_extendqisi2
 585              		.loc 1 372 8 view .LVU165
 586 000c 012B     		cmp	r3, #1
 587 000e 2FD0     		beq	.L71
 588              	.LVL55:
 589              	.L55:
 373:Dsp/widget/wgt_core/UI_Controller.c ****     {
 374:Dsp/widget/wgt_core/UI_Controller.c ****         if (Obj->state == UI_Btn_PushDwn)
 375:Dsp/widget/wgt_core/UI_Controller.c ****         {
 376:Dsp/widget/wgt_core/UI_Controller.c ****             if (Obj->push_callback)
 377:Dsp/widget/wgt_core/UI_Controller.c ****                 Obj->push_callback();
 378:Dsp/widget/wgt_core/UI_Controller.c ****         }
 379:Dsp/widget/wgt_core/UI_Controller.c ****         else if (Obj->state == UI_Btn_RlsUp)
 380:Dsp/widget/wgt_core/UI_Controller.c ****         {
 381:Dsp/widget/wgt_core/UI_Controller.c ****             if (Obj->release_callback)
 382:Dsp/widget/wgt_core/UI_Controller.c ****                 Obj->release_callback();
 383:Dsp/widget/wgt_core/UI_Controller.c ****         }
 384:Dsp/widget/wgt_core/UI_Controller.c ****         else
 385:Dsp/widget/wgt_core/UI_Controller.c ****             return false;
 386:Dsp/widget/wgt_core/UI_Controller.c ****     }
 387:Dsp/widget/wgt_core/UI_Controller.c **** 
 388:Dsp/widget/wgt_core/UI_Controller.c ****     /* display button on screen object */
 389:Dsp/widget/wgt_core/UI_Controller.c ****     /* invert display color when button been push down */
 390:Dsp/widget/wgt_core/UI_Controller.c ****     if ((UI_DspInterface.draw_str != NULL) && (UI_DspInterface.fill_radius_rectangle != NULL) && (U
 590              		.loc 1 390 5 is_stmt 1 view .LVU166
 591              		.loc 1 390 25 is_stmt 0 view .LVU167
 592 0010 3F4B     		ldr	r3, .L75
 593 0012 1B68     		ldr	r3, [r3]
 594              		.loc 1 390 8 view .LVU168
 595 0014 002B     		cmp	r3, #0
 596 0016 6DD0     		beq	.L61
 597              		.loc 1 390 63 discriminator 1 view .LVU169
 598 0018 3D4B     		ldr	r3, .L75
 599 001a 9D6A     		ldr	r5, [r3, #40]
 600              		.loc 1 390 44 discriminator 1 view .LVU170
 601 001c 002D     		cmp	r5, #0
 602 001e 6CD0     		beq	.L62
 603              		.loc 1 390 114 discriminator 2 view .LVU171
 604 0020 DE68     		ldr	r6, [r3, #12]
 605              		.loc 1 390 95 discriminator 2 view .LVU172
 606 0022 002E     		cmp	r6, #0
 607 0024 6BD0     		beq	.L63
ARM GAS  C:\Users\huav\AppData\Local\Temp\ccFpv2Vf.s 			page 19


 391:Dsp/widget/wgt_core/UI_Controller.c ****     {
 392:Dsp/widget/wgt_core/UI_Controller.c ****         if (Obj->state == UI_Btn_PushDwn)
 608              		.loc 1 392 9 is_stmt 1 view .LVU173
 609              		.loc 1 392 16 is_stmt 0 view .LVU174
 610 0026 637B     		ldrb	r3, [r4, #13]	@ zero_extendqisi2
 611              		.loc 1 392 12 view .LVU175
 612 0028 012B     		cmp	r3, #1
 613 002a 32D0     		beq	.L72
 393:Dsp/widget/wgt_core/UI_Controller.c ****         {
 394:Dsp/widget/wgt_core/UI_Controller.c ****             /* fill button frame */
 395:Dsp/widget/wgt_core/UI_Controller.c ****             UI_DspInterface.fill_radius_rectangle(Obj->Gen_Data.x, Obj->Gen_Data.y, Obj->width, Obj
 396:Dsp/widget/wgt_core/UI_Controller.c **** 
 397:Dsp/widget/wgt_core/UI_Controller.c ****             /* invert string display */
 398:Dsp/widget/wgt_core/UI_Controller.c ****             if (Obj->PushDown_Label != NULL)
 399:Dsp/widget/wgt_core/UI_Controller.c ****                 UI_DspInterface.draw_str(base_font, Obj->PushDown_Label, Obj->Gen_Data.x + 5, Obj->
 400:Dsp/widget/wgt_core/UI_Controller.c ****         }
 401:Dsp/widget/wgt_core/UI_Controller.c ****         else
 402:Dsp/widget/wgt_core/UI_Controller.c ****         {
 403:Dsp/widget/wgt_core/UI_Controller.c ****             /* draw button frame */
 404:Dsp/widget/wgt_core/UI_Controller.c ****             UI_DspInterface.draw_radius_rectangle(Obj->Gen_Data.x, Obj->Gen_Data.y, Obj->width, Obj
 614              		.loc 1 404 13 is_stmt 1 view .LVU176
 615 002c 0123     		movs	r3, #1
 616 002e 0293     		str	r3, [sp, #8]
 617 0030 0193     		str	r3, [sp, #4]
 618 0032 0323     		movs	r3, #3
 619 0034 0093     		str	r3, [sp]
 620 0036 94F82030 		ldrb	r3, [r4, #32]	@ zero_extendqisi2
 621 003a E27F     		ldrb	r2, [r4, #31]	@ zero_extendqisi2
 622 003c B4F90610 		ldrsh	r1, [r4, #6]	@ unaligned
 623 0040 B4F90400 		ldrsh	r0, [r4, #4]	@ unaligned
 624 0044 B047     		blx	r6
 625              	.LVL56:
 405:Dsp/widget/wgt_core/UI_Controller.c **** 
 406:Dsp/widget/wgt_core/UI_Controller.c ****             if (Obj->type == Lock_Btn)
 626              		.loc 1 406 13 view .LVU177
 627              		.loc 1 406 20 is_stmt 0 view .LVU178
 628 0046 A37B     		ldrb	r3, [r4, #14]	@ zero_extendqisi2
 629              		.loc 1 406 16 view .LVU179
 630 0048 012B     		cmp	r3, #1
 631 004a 3ED0     		beq	.L73
 407:Dsp/widget/wgt_core/UI_Controller.c ****             {
 408:Dsp/widget/wgt_core/UI_Controller.c ****                 /* display label normally */
 409:Dsp/widget/wgt_core/UI_Controller.c ****                 if (Obj->Release_Label != NULL)
 410:Dsp/widget/wgt_core/UI_Controller.c ****                     UI_DspInterface.draw_str(base_font, Obj->Release_Label, Obj->Gen_Data.x + 9, Ob
 411:Dsp/widget/wgt_core/UI_Controller.c ****             }
 412:Dsp/widget/wgt_core/UI_Controller.c ****             else
 413:Dsp/widget/wgt_core/UI_Controller.c ****             {
 414:Dsp/widget/wgt_core/UI_Controller.c ****                 if (Obj->PushDown_Label != NULL)
 632              		.loc 1 414 17 is_stmt 1 view .LVU180
 633              		.loc 1 414 24 is_stmt 0 view .LVU181
 634 004c D4F81710 		ldr	r1, [r4, #23]	@ unaligned
 635              		.loc 1 414 20 view .LVU182
 636 0050 0029     		cmp	r1, #0
 637 0052 5AD0     		beq	.L66
 415:Dsp/widget/wgt_core/UI_Controller.c ****                     UI_DspInterface.draw_str(base_font, Obj->PushDown_Label, Obj->Gen_Data.x + 5, O
 638              		.loc 1 415 21 is_stmt 1 view .LVU183
 639              		.loc 1 415 36 is_stmt 0 view .LVU184
ARM GAS  C:\Users\huav\AppData\Local\Temp\ccFpv2Vf.s 			page 20


 640 0054 2E4B     		ldr	r3, .L75
 641 0056 1E68     		ldr	r6, [r3]
 642              		.loc 1 415 91 view .LVU185
 643 0058 A288     		ldrh	r2, [r4, #4]	@ unaligned
 644              		.loc 1 415 94 view .LVU186
 645 005a 0532     		adds	r2, r2, #5
 646              		.loc 1 415 21 view .LVU187
 647 005c 0125     		movs	r5, #1
 648 005e 0095     		str	r5, [sp]
 649 0060 B4F90630 		ldrsh	r3, [r4, #6]	@ unaligned
 650 0064 12B2     		sxth	r2, r2
 651 0066 2B48     		ldr	r0, .L75+4
 652 0068 0078     		ldrb	r0, [r0]	@ zero_extendqisi2
 653 006a B047     		blx	r6
 654              	.LVL57:
 416:Dsp/widget/wgt_core/UI_Controller.c ****             }
 417:Dsp/widget/wgt_core/UI_Controller.c ****         }
 418:Dsp/widget/wgt_core/UI_Controller.c ****     }
 419:Dsp/widget/wgt_core/UI_Controller.c ****     else
 420:Dsp/widget/wgt_core/UI_Controller.c ****         return false;
 421:Dsp/widget/wgt_core/UI_Controller.c **** 
 422:Dsp/widget/wgt_core/UI_Controller.c ****     return true;
 655              		.loc 1 422 12 view .LVU188
 656 006c 2846     		mov	r0, r5
 657 006e 42E0     		b	.L54
 658              	.LVL58:
 659              	.L71:
 374:Dsp/widget/wgt_core/UI_Controller.c ****         {
 660              		.loc 1 374 9 is_stmt 1 view .LVU189
 374:Dsp/widget/wgt_core/UI_Controller.c ****         {
 661              		.loc 1 374 16 is_stmt 0 view .LVU190
 662 0070 437B     		ldrb	r3, [r0, #13]	@ zero_extendqisi2
 374:Dsp/widget/wgt_core/UI_Controller.c ****         {
 663              		.loc 1 374 12 view .LVU191
 664 0072 012B     		cmp	r3, #1
 665 0074 07D0     		beq	.L74
 379:Dsp/widget/wgt_core/UI_Controller.c ****         {
 666              		.loc 1 379 14 is_stmt 1 view .LVU192
 379:Dsp/widget/wgt_core/UI_Controller.c ****         {
 667              		.loc 1 379 17 is_stmt 0 view .LVU193
 668 0076 002B     		cmp	r3, #0
 669 0078 3AD1     		bne	.L60
 381:Dsp/widget/wgt_core/UI_Controller.c ****                 Obj->release_callback();
 670              		.loc 1 381 13 is_stmt 1 view .LVU194
 381:Dsp/widget/wgt_core/UI_Controller.c ****                 Obj->release_callback();
 671              		.loc 1 381 20 is_stmt 0 view .LVU195
 672 007a D0F81330 		ldr	r3, [r0, #19]	@ unaligned
 381:Dsp/widget/wgt_core/UI_Controller.c ****                 Obj->release_callback();
 673              		.loc 1 381 16 view .LVU196
 674 007e 002B     		cmp	r3, #0
 675 0080 C6D0     		beq	.L55
 382:Dsp/widget/wgt_core/UI_Controller.c ****         }
 676              		.loc 1 382 17 is_stmt 1 view .LVU197
 677 0082 9847     		blx	r3
 678              	.LVL59:
 382:Dsp/widget/wgt_core/UI_Controller.c ****         }
 679              		.loc 1 382 17 is_stmt 0 view .LVU198
ARM GAS  C:\Users\huav\AppData\Local\Temp\ccFpv2Vf.s 			page 21


 680 0084 C4E7     		b	.L55
 681              	.LVL60:
 682              	.L74:
 376:Dsp/widget/wgt_core/UI_Controller.c ****                 Obj->push_callback();
 683              		.loc 1 376 13 is_stmt 1 view .LVU199
 376:Dsp/widget/wgt_core/UI_Controller.c ****                 Obj->push_callback();
 684              		.loc 1 376 20 is_stmt 0 view .LVU200
 685 0086 D0F80F30 		ldr	r3, [r0, #15]	@ unaligned
 376:Dsp/widget/wgt_core/UI_Controller.c ****                 Obj->push_callback();
 686              		.loc 1 376 16 view .LVU201
 687 008a 002B     		cmp	r3, #0
 688 008c C0D0     		beq	.L55
 377:Dsp/widget/wgt_core/UI_Controller.c ****         }
 689              		.loc 1 377 17 is_stmt 1 view .LVU202
 690 008e 9847     		blx	r3
 691              	.LVL61:
 377:Dsp/widget/wgt_core/UI_Controller.c ****         }
 692              		.loc 1 377 17 is_stmt 0 view .LVU203
 693 0090 BEE7     		b	.L55
 694              	.L72:
 395:Dsp/widget/wgt_core/UI_Controller.c **** 
 695              		.loc 1 395 13 is_stmt 1 view .LVU204
 696 0092 0193     		str	r3, [sp, #4]
 697 0094 0323     		movs	r3, #3
 698 0096 0093     		str	r3, [sp]
 699 0098 94F82030 		ldrb	r3, [r4, #32]	@ zero_extendqisi2
 700 009c E27F     		ldrb	r2, [r4, #31]	@ zero_extendqisi2
 701 009e B4F90610 		ldrsh	r1, [r4, #6]	@ unaligned
 702 00a2 B4F90400 		ldrsh	r0, [r4, #4]	@ unaligned
 703 00a6 A847     		blx	r5
 704              	.LVL62:
 398:Dsp/widget/wgt_core/UI_Controller.c ****                 UI_DspInterface.draw_str(base_font, Obj->PushDown_Label, Obj->Gen_Data.x + 5, Obj->
 705              		.loc 1 398 13 view .LVU205
 398:Dsp/widget/wgt_core/UI_Controller.c ****                 UI_DspInterface.draw_str(base_font, Obj->PushDown_Label, Obj->Gen_Data.x + 5, Obj->
 706              		.loc 1 398 20 is_stmt 0 view .LVU206
 707 00a8 D4F81710 		ldr	r1, [r4, #23]	@ unaligned
 398:Dsp/widget/wgt_core/UI_Controller.c ****                 UI_DspInterface.draw_str(base_font, Obj->PushDown_Label, Obj->Gen_Data.x + 5, Obj->
 708              		.loc 1 398 16 view .LVU207
 709 00ac 49B3     		cbz	r1, .L64
 399:Dsp/widget/wgt_core/UI_Controller.c ****         }
 710              		.loc 1 399 17 is_stmt 1 view .LVU208
 399:Dsp/widget/wgt_core/UI_Controller.c ****         }
 711              		.loc 1 399 32 is_stmt 0 view .LVU209
 712 00ae 184B     		ldr	r3, .L75
 713 00b0 1E68     		ldr	r6, [r3]
 399:Dsp/widget/wgt_core/UI_Controller.c ****         }
 714              		.loc 1 399 87 view .LVU210
 715 00b2 A288     		ldrh	r2, [r4, #4]	@ unaligned
 399:Dsp/widget/wgt_core/UI_Controller.c ****         }
 716              		.loc 1 399 90 view .LVU211
 717 00b4 0532     		adds	r2, r2, #5
 399:Dsp/widget/wgt_core/UI_Controller.c ****         }
 718              		.loc 1 399 17 view .LVU212
 719 00b6 0125     		movs	r5, #1
 720 00b8 0095     		str	r5, [sp]
 721 00ba B4F90630 		ldrsh	r3, [r4, #6]	@ unaligned
 722 00be 12B2     		sxth	r2, r2
ARM GAS  C:\Users\huav\AppData\Local\Temp\ccFpv2Vf.s 			page 22


 723 00c0 1448     		ldr	r0, .L75+4
 724 00c2 0078     		ldrb	r0, [r0]	@ zero_extendqisi2
 725 00c4 B047     		blx	r6
 726              	.LVL63:
 727              		.loc 1 422 12 view .LVU213
 728 00c6 2846     		mov	r0, r5
 729 00c8 15E0     		b	.L54
 730              	.L73:
 409:Dsp/widget/wgt_core/UI_Controller.c ****                     UI_DspInterface.draw_str(base_font, Obj->Release_Label, Obj->Gen_Data.x + 9, Ob
 731              		.loc 1 409 17 is_stmt 1 view .LVU214
 409:Dsp/widget/wgt_core/UI_Controller.c ****                     UI_DspInterface.draw_str(base_font, Obj->Release_Label, Obj->Gen_Data.x + 9, Ob
 732              		.loc 1 409 24 is_stmt 0 view .LVU215
 733 00ca D4F81B10 		ldr	r1, [r4, #27]	@ unaligned
 409:Dsp/widget/wgt_core/UI_Controller.c ****                     UI_DspInterface.draw_str(base_font, Obj->Release_Label, Obj->Gen_Data.x + 9, Ob
 734              		.loc 1 409 20 view .LVU216
 735 00ce D1B1     		cbz	r1, .L65
 410:Dsp/widget/wgt_core/UI_Controller.c ****             }
 736              		.loc 1 410 21 is_stmt 1 view .LVU217
 410:Dsp/widget/wgt_core/UI_Controller.c ****             }
 737              		.loc 1 410 36 is_stmt 0 view .LVU218
 738 00d0 0F4B     		ldr	r3, .L75
 739 00d2 1E68     		ldr	r6, [r3]
 410:Dsp/widget/wgt_core/UI_Controller.c ****             }
 740              		.loc 1 410 90 view .LVU219
 741 00d4 A288     		ldrh	r2, [r4, #4]	@ unaligned
 410:Dsp/widget/wgt_core/UI_Controller.c ****             }
 742              		.loc 1 410 93 view .LVU220
 743 00d6 0932     		adds	r2, r2, #9
 410:Dsp/widget/wgt_core/UI_Controller.c ****             }
 744              		.loc 1 410 21 view .LVU221
 745 00d8 0125     		movs	r5, #1
 746 00da 0095     		str	r5, [sp]
 747 00dc B4F90630 		ldrsh	r3, [r4, #6]	@ unaligned
 748 00e0 12B2     		sxth	r2, r2
 749 00e2 0C48     		ldr	r0, .L75+4
 750 00e4 0078     		ldrb	r0, [r0]	@ zero_extendqisi2
 751 00e6 B047     		blx	r6
 752              	.LVL64:
 753              		.loc 1 422 12 view .LVU222
 754 00e8 2846     		mov	r0, r5
 755 00ea 04E0     		b	.L54
 756              	.LVL65:
 757              	.L59:
 758              	.LCFI11:
 759              		.cfi_def_cfa_offset 0
 760              		.cfi_restore 4
 761              		.cfi_restore 5
 762              		.cfi_restore 6
 763              		.cfi_restore 14
 370:Dsp/widget/wgt_core/UI_Controller.c **** 
 764              		.loc 1 370 16 view .LVU223
 765 00ec 0020     		movs	r0, #0
 766              	.LVL66:
 423:Dsp/widget/wgt_core/UI_Controller.c **** }
 767              		.loc 1 423 1 view .LVU224
 768 00ee 7047     		bx	lr
 769              	.LVL67:
ARM GAS  C:\Users\huav\AppData\Local\Temp\ccFpv2Vf.s 			page 23


 770              	.L60:
 771              	.LCFI12:
 772              		.cfi_def_cfa_offset 32
 773              		.cfi_offset 4, -16
 774              		.cfi_offset 5, -12
 775              		.cfi_offset 6, -8
 776              		.cfi_offset 14, -4
 385:Dsp/widget/wgt_core/UI_Controller.c ****     }
 777              		.loc 1 385 20 view .LVU225
 778 00f0 0020     		movs	r0, #0
 779              	.LVL68:
 385:Dsp/widget/wgt_core/UI_Controller.c ****     }
 780              		.loc 1 385 20 view .LVU226
 781 00f2 00E0     		b	.L54
 782              	.L61:
 420:Dsp/widget/wgt_core/UI_Controller.c **** 
 783              		.loc 1 420 16 view .LVU227
 784 00f4 0020     		movs	r0, #0
 785              	.L54:
 786              		.loc 1 423 1 view .LVU228
 787 00f6 04B0     		add	sp, sp, #16
 788              	.LCFI13:
 789              		.cfi_remember_state
 790              		.cfi_def_cfa_offset 16
 791              		@ sp needed
 792 00f8 70BD     		pop	{r4, r5, r6, pc}
 793              	.LVL69:
 794              	.L62:
 795              	.LCFI14:
 796              		.cfi_restore_state
 420:Dsp/widget/wgt_core/UI_Controller.c **** 
 797              		.loc 1 420 16 view .LVU229
 798 00fa 0020     		movs	r0, #0
 799 00fc FBE7     		b	.L54
 800              	.L63:
 801 00fe 0020     		movs	r0, #0
 802 0100 F9E7     		b	.L54
 803              	.L64:
 422:Dsp/widget/wgt_core/UI_Controller.c **** }
 804              		.loc 1 422 12 view .LVU230
 805 0102 0120     		movs	r0, #1
 806 0104 F7E7     		b	.L54
 807              	.L65:
 422:Dsp/widget/wgt_core/UI_Controller.c **** }
 808              		.loc 1 422 12 view .LVU231
 809 0106 0120     		movs	r0, #1
 810 0108 F5E7     		b	.L54
 811              	.L66:
 422:Dsp/widget/wgt_core/UI_Controller.c **** }
 812              		.loc 1 422 12 view .LVU232
 813 010a 0120     		movs	r0, #1
 814 010c F3E7     		b	.L54
 815              	.L76:
 816 010e 00BF     		.align	2
 817              	.L75:
 818 0110 00000000 		.word	.LANCHOR0
 819 0114 00000000 		.word	.LANCHOR1
ARM GAS  C:\Users\huav\AppData\Local\Temp\ccFpv2Vf.s 			page 24


 820              		.cfi_endproc
 821              	.LFE12:
 823              		.section	.text.UI_CheckBox_Init,"ax",%progbits
 824              		.align	1
 825              		.syntax unified
 826              		.thumb
 827              		.thumb_func
 828              		.fpu fpv4-sp-d16
 830              	UI_CheckBox_Init:
 831              	.LVL70:
 832              	.LFB13:
 424:Dsp/widget/wgt_core/UI_Controller.c **** 
 425:Dsp/widget/wgt_core/UI_Controller.c **** static bool UI_CheckBox_Init(UI_CheckBoxObj_TypeDef *Obj, char *label, int16_t x, int16_t y, bool s
 426:Dsp/widget/wgt_core/UI_Controller.c **** {
 833              		.loc 1 426 1 is_stmt 1 view -0
 834              		.cfi_startproc
 835              		@ args = 4, pretend = 0, frame = 0
 836              		@ frame_needed = 0, uses_anonymous_args = 0
 427:Dsp/widget/wgt_core/UI_Controller.c ****     if (Obj == NULL)
 837              		.loc 1 427 5 view .LVU234
 838              		.loc 1 427 8 is_stmt 0 view .LVU235
 839 0000 68B1     		cbz	r0, .L79
 426:Dsp/widget/wgt_core/UI_Controller.c ****     if (Obj == NULL)
 840              		.loc 1 426 1 view .LVU236
 841 0002 10B5     		push	{r4, lr}
 842              	.LCFI15:
 843              		.cfi_def_cfa_offset 8
 844              		.cfi_offset 4, -8
 845              		.cfi_offset 14, -4
 846 0004 0446     		mov	r4, r0
 428:Dsp/widget/wgt_core/UI_Controller.c ****         return false;
 429:Dsp/widget/wgt_core/UI_Controller.c **** 
 430:Dsp/widget/wgt_core/UI_Controller.c ****     UI_GenData_Init(&Obj->Gen_Data, label, x, y);
 847              		.loc 1 430 5 is_stmt 1 view .LVU237
 848 0006 FFF7FEFF 		bl	UI_GenData_Init
 849              	.LVL71:
 431:Dsp/widget/wgt_core/UI_Controller.c **** 
 432:Dsp/widget/wgt_core/UI_Controller.c ****     Obj->checked = state;
 850              		.loc 1 432 5 view .LVU238
 851              		.loc 1 432 18 is_stmt 0 view .LVU239
 852 000a 9DF80830 		ldrb	r3, [sp, #8]	@ zero_extendqisi2
 853 000e 2374     		strb	r3, [r4, #16]
 433:Dsp/widget/wgt_core/UI_Controller.c ****     Obj->callback = NULL;
 854              		.loc 1 433 5 is_stmt 1 view .LVU240
 855              		.loc 1 433 19 is_stmt 0 view .LVU241
 856 0010 0023     		movs	r3, #0
 857 0012 2373     		strb	r3, [r4, #12]
 858 0014 6373     		strb	r3, [r4, #13]
 859 0016 A373     		strb	r3, [r4, #14]
 860 0018 E373     		strb	r3, [r4, #15]
 434:Dsp/widget/wgt_core/UI_Controller.c **** 
 435:Dsp/widget/wgt_core/UI_Controller.c ****     return true;
 861              		.loc 1 435 5 is_stmt 1 view .LVU242
 862              		.loc 1 435 12 is_stmt 0 view .LVU243
 863 001a 0120     		movs	r0, #1
 436:Dsp/widget/wgt_core/UI_Controller.c **** }
 864              		.loc 1 436 1 view .LVU244
ARM GAS  C:\Users\huav\AppData\Local\Temp\ccFpv2Vf.s 			page 25


 865 001c 10BD     		pop	{r4, pc}
 866              	.LVL72:
 867              	.L79:
 868              	.LCFI16:
 869              		.cfi_def_cfa_offset 0
 870              		.cfi_restore 4
 871              		.cfi_restore 14
 428:Dsp/widget/wgt_core/UI_Controller.c **** 
 872              		.loc 1 428 16 view .LVU245
 873 001e 0020     		movs	r0, #0
 874              	.LVL73:
 875              		.loc 1 436 1 view .LVU246
 876 0020 7047     		bx	lr
 877              		.cfi_endproc
 878              	.LFE13:
 880              		.section	.text.UI_CheckBox_SetCallback,"ax",%progbits
 881              		.align	1
 882              		.syntax unified
 883              		.thumb
 884              		.thumb_func
 885              		.fpu fpv4-sp-d16
 887              	UI_CheckBox_SetCallback:
 888              	.LVL74:
 889              	.LFB14:
 437:Dsp/widget/wgt_core/UI_Controller.c **** 
 438:Dsp/widget/wgt_core/UI_Controller.c **** static bool UI_CheckBox_SetCallback(UI_CheckBoxObj_TypeDef *Obj, UI_CheckBoxTrigger_Callback callba
 439:Dsp/widget/wgt_core/UI_Controller.c **** {
 890              		.loc 1 439 1 is_stmt 1 view -0
 891              		.cfi_startproc
 892              		@ args = 0, pretend = 0, frame = 0
 893              		@ frame_needed = 0, uses_anonymous_args = 0
 894              		@ link register save eliminated.
 440:Dsp/widget/wgt_core/UI_Controller.c ****     if (Obj == NULL)
 895              		.loc 1 440 5 view .LVU248
 896              		.loc 1 440 8 is_stmt 0 view .LVU249
 897 0000 10B1     		cbz	r0, .L86
 441:Dsp/widget/wgt_core/UI_Controller.c ****         return false;
 442:Dsp/widget/wgt_core/UI_Controller.c **** 
 443:Dsp/widget/wgt_core/UI_Controller.c ****     Obj->callback = callback;
 898              		.loc 1 443 5 is_stmt 1 view .LVU250
 899              		.loc 1 443 19 is_stmt 0 view .LVU251
 900 0002 C160     		str	r1, [r0, #12]	@ unaligned
 444:Dsp/widget/wgt_core/UI_Controller.c **** 
 445:Dsp/widget/wgt_core/UI_Controller.c ****     return true;
 901              		.loc 1 445 5 is_stmt 1 view .LVU252
 902              		.loc 1 445 12 is_stmt 0 view .LVU253
 903 0004 0120     		movs	r0, #1
 904              	.LVL75:
 905              		.loc 1 445 12 view .LVU254
 906 0006 7047     		bx	lr
 907              	.LVL76:
 908              	.L86:
 441:Dsp/widget/wgt_core/UI_Controller.c ****         return false;
 909              		.loc 1 441 16 view .LVU255
 910 0008 0020     		movs	r0, #0
 911              	.LVL77:
 446:Dsp/widget/wgt_core/UI_Controller.c **** }
ARM GAS  C:\Users\huav\AppData\Local\Temp\ccFpv2Vf.s 			page 26


 912              		.loc 1 446 1 view .LVU256
 913 000a 7047     		bx	lr
 914              		.cfi_endproc
 915              	.LFE14:
 917              		.section	.text.UI_CheckBox_Move,"ax",%progbits
 918              		.align	1
 919              		.syntax unified
 920              		.thumb
 921              		.thumb_func
 922              		.fpu fpv4-sp-d16
 924              	UI_CheckBox_Move:
 925              	.LVL78:
 926              	.LFB15:
 447:Dsp/widget/wgt_core/UI_Controller.c **** 
 448:Dsp/widget/wgt_core/UI_Controller.c **** static bool UI_CheckBox_Move(UI_CheckBoxObj_TypeDef *Obj, int16_t x, int16_t y)
 449:Dsp/widget/wgt_core/UI_Controller.c **** {
 927              		.loc 1 449 1 is_stmt 1 view -0
 928              		.cfi_startproc
 929              		@ args = 0, pretend = 0, frame = 0
 930              		@ frame_needed = 0, uses_anonymous_args = 0
 450:Dsp/widget/wgt_core/UI_Controller.c ****     if (Obj == NULL)
 931              		.loc 1 450 5 view .LVU258
 932              		.loc 1 450 8 is_stmt 0 view .LVU259
 933 0000 18B1     		cbz	r0, .L89
 449:Dsp/widget/wgt_core/UI_Controller.c ****     if (Obj == NULL)
 934              		.loc 1 449 1 view .LVU260
 935 0002 08B5     		push	{r3, lr}
 936              	.LCFI17:
 937              		.cfi_def_cfa_offset 8
 938              		.cfi_offset 3, -8
 939              		.cfi_offset 14, -4
 451:Dsp/widget/wgt_core/UI_Controller.c ****         return false;
 452:Dsp/widget/wgt_core/UI_Controller.c **** 
 453:Dsp/widget/wgt_core/UI_Controller.c ****     return UI_Move(&(Obj->Gen_Data), x, y);
 940              		.loc 1 453 5 is_stmt 1 view .LVU261
 941              		.loc 1 453 12 is_stmt 0 view .LVU262
 942 0004 FFF7FEFF 		bl	UI_Move
 943              	.LVL79:
 454:Dsp/widget/wgt_core/UI_Controller.c **** }
 944              		.loc 1 454 1 view .LVU263
 945 0008 08BD     		pop	{r3, pc}
 946              	.LVL80:
 947              	.L89:
 948              	.LCFI18:
 949              		.cfi_def_cfa_offset 0
 950              		.cfi_restore 3
 951              		.cfi_restore 14
 451:Dsp/widget/wgt_core/UI_Controller.c ****         return false;
 952              		.loc 1 451 16 view .LVU264
 953 000a 0020     		movs	r0, #0
 954              	.LVL81:
 955              		.loc 1 454 1 view .LVU265
 956 000c 7047     		bx	lr
 957              		.cfi_endproc
 958              	.LFE15:
 960              		.section	.text.UI_CheckBox_Trigger,"ax",%progbits
 961              		.align	1
ARM GAS  C:\Users\huav\AppData\Local\Temp\ccFpv2Vf.s 			page 27


 962              		.syntax unified
 963              		.thumb
 964              		.thumb_func
 965              		.fpu fpv4-sp-d16
 967              	UI_CheckBox_Trigger:
 968              	.LVL82:
 969              	.LFB16:
 455:Dsp/widget/wgt_core/UI_Controller.c **** 
 456:Dsp/widget/wgt_core/UI_Controller.c **** static bool UI_CheckBox_Trigger(UI_CheckBoxObj_TypeDef *Obj)
 457:Dsp/widget/wgt_core/UI_Controller.c **** {
 970              		.loc 1 457 1 is_stmt 1 view -0
 971              		.cfi_startproc
 972              		@ args = 0, pretend = 0, frame = 0
 973              		@ frame_needed = 0, uses_anonymous_args = 0
 458:Dsp/widget/wgt_core/UI_Controller.c ****     if (Obj == NULL)
 974              		.loc 1 458 5 view .LVU267
 975              		.loc 1 458 8 is_stmt 0 view .LVU268
 976 0000 50B1     		cbz	r0, .L96
 457:Dsp/widget/wgt_core/UI_Controller.c ****     if (Obj == NULL)
 977              		.loc 1 457 1 view .LVU269
 978 0002 08B5     		push	{r3, lr}
 979              	.LCFI19:
 980              		.cfi_def_cfa_offset 8
 981              		.cfi_offset 3, -8
 982              		.cfi_offset 14, -4
 983 0004 0346     		mov	r3, r0
 459:Dsp/widget/wgt_core/UI_Controller.c ****         return false;
 460:Dsp/widget/wgt_core/UI_Controller.c **** 
 461:Dsp/widget/wgt_core/UI_Controller.c ****     Obj->checked = !Obj->checked;
 984              		.loc 1 461 5 is_stmt 1 view .LVU270
 985              		.loc 1 461 24 is_stmt 0 view .LVU271
 986 0006 007C     		ldrb	r0, [r0, #16]	@ zero_extendqisi2
 987              	.LVL83:
 988              		.loc 1 461 5 view .LVU272
 989 0008 80F00100 		eor	r0, r0, #1
 990              		.loc 1 461 18 view .LVU273
 991 000c 1874     		strb	r0, [r3, #16]
 462:Dsp/widget/wgt_core/UI_Controller.c **** 
 463:Dsp/widget/wgt_core/UI_Controller.c ****     if (Obj->callback)
 992              		.loc 1 463 5 is_stmt 1 view .LVU274
 993              		.loc 1 463 12 is_stmt 0 view .LVU275
 994 000e DB68     		ldr	r3, [r3, #12]	@ unaligned
 995              	.LVL84:
 996              		.loc 1 463 8 view .LVU276
 997 0010 23B1     		cbz	r3, .L97
 464:Dsp/widget/wgt_core/UI_Controller.c ****         Obj->callback(Obj->checked);
 998              		.loc 1 464 9 is_stmt 1 view .LVU277
 999 0012 9847     		blx	r3
 1000              	.LVL85:
 465:Dsp/widget/wgt_core/UI_Controller.c **** 
 466:Dsp/widget/wgt_core/UI_Controller.c ****     return true;
 1001              		.loc 1 466 12 is_stmt 0 view .LVU278
 1002 0014 0120     		movs	r0, #1
 1003              	.L95:
 467:Dsp/widget/wgt_core/UI_Controller.c **** }
 1004              		.loc 1 467 1 view .LVU279
 1005 0016 08BD     		pop	{r3, pc}
ARM GAS  C:\Users\huav\AppData\Local\Temp\ccFpv2Vf.s 			page 28


 1006              	.LVL86:
 1007              	.L96:
 1008              	.LCFI20:
 1009              		.cfi_def_cfa_offset 0
 1010              		.cfi_restore 3
 1011              		.cfi_restore 14
 459:Dsp/widget/wgt_core/UI_Controller.c **** 
 1012              		.loc 1 459 16 view .LVU280
 1013 0018 0020     		movs	r0, #0
 1014              	.LVL87:
 1015              		.loc 1 467 1 view .LVU281
 1016 001a 7047     		bx	lr
 1017              	.L97:
 1018              	.LCFI21:
 1019              		.cfi_def_cfa_offset 8
 1020              		.cfi_offset 3, -8
 1021              		.cfi_offset 14, -4
 466:Dsp/widget/wgt_core/UI_Controller.c **** }
 1022              		.loc 1 466 12 view .LVU282
 1023 001c 0120     		movs	r0, #1
 1024 001e FAE7     		b	.L95
 1025              		.cfi_endproc
 1026              	.LFE16:
 1028              		.section	.text.UI_SlideBar_Init,"ax",%progbits
 1029              		.align	1
 1030              		.syntax unified
 1031              		.thumb
 1032              		.thumb_func
 1033              		.fpu fpv4-sp-d16
 1035              	UI_SlideBar_Init:
 1036              	.LVL88:
 1037              	.LFB18:
 468:Dsp/widget/wgt_core/UI_Controller.c **** 
 469:Dsp/widget/wgt_core/UI_Controller.c **** static bool UI_CheckBox_Ctl(UI_CheckBoxObj_TypeDef *Obj)
 470:Dsp/widget/wgt_core/UI_Controller.c **** {
 471:Dsp/widget/wgt_core/UI_Controller.c ****     uint16_t StrDsp_x = 0;
 472:Dsp/widget/wgt_core/UI_Controller.c ****     int16_t frame_y = 0;
 473:Dsp/widget/wgt_core/UI_Controller.c ****     int16_t str_y = Obj->Gen_Data.y;
 474:Dsp/widget/wgt_core/UI_Controller.c **** 
 475:Dsp/widget/wgt_core/UI_Controller.c ****     if ((Obj == NULL) ||
 476:Dsp/widget/wgt_core/UI_Controller.c ****         (UI_DspInterface.draw_str == NULL) ||
 477:Dsp/widget/wgt_core/UI_Controller.c ****         (UI_DspInterface.fill_rectangle == NULL) ||
 478:Dsp/widget/wgt_core/UI_Controller.c ****         (UI_DspInterface.draw_rectangle == NULL))
 479:Dsp/widget/wgt_core/UI_Controller.c ****         return false;
 480:Dsp/widget/wgt_core/UI_Controller.c **** 
 481:Dsp/widget/wgt_core/UI_Controller.c ****     StrDsp_x = strlen(Obj->Gen_Data.label) * FONT_WIDTH;
 482:Dsp/widget/wgt_core/UI_Controller.c ****     frame_y = Obj->Gen_Data.y + 3;
 483:Dsp/widget/wgt_core/UI_Controller.c ****     StrDsp_x += DEFAULT_CHECKBOX_OFFSET;
 484:Dsp/widget/wgt_core/UI_Controller.c **** 
 485:Dsp/widget/wgt_core/UI_Controller.c ****     if (base_font == Font_8)
 486:Dsp/widget/wgt_core/UI_Controller.c ****         str_y += 1;
 487:Dsp/widget/wgt_core/UI_Controller.c **** 
 488:Dsp/widget/wgt_core/UI_Controller.c ****     UI_DspInterface.draw_str(base_font, Obj->Gen_Data.label, Obj->Gen_Data.x + 3, str_y, true);
 489:Dsp/widget/wgt_core/UI_Controller.c ****     UI_DspInterface.draw_rectangle(StrDsp_x, frame_y, DEFAULT_CHECKBOX_FRAME_SIZE, DEFAULT_CHECKBOX
 490:Dsp/widget/wgt_core/UI_Controller.c **** 
 491:Dsp/widget/wgt_core/UI_Controller.c ****     if (Obj->checked)
 492:Dsp/widget/wgt_core/UI_Controller.c ****         UI_DspInterface.fill_rectangle(StrDsp_x + 2, frame_y + 2, DEFAULT_CHECKBOX_FILLFRAME, DEFAU
ARM GAS  C:\Users\huav\AppData\Local\Temp\ccFpv2Vf.s 			page 29


 493:Dsp/widget/wgt_core/UI_Controller.c **** 
 494:Dsp/widget/wgt_core/UI_Controller.c ****     return true;
 495:Dsp/widget/wgt_core/UI_Controller.c **** }
 496:Dsp/widget/wgt_core/UI_Controller.c **** 
 497:Dsp/widget/wgt_core/UI_Controller.c **** static bool UI_SlideBar_Init(UI_SlideBarObj_TypeDef *Obj, UI_SliderBar_Mode_List mode, char *label,
 498:Dsp/widget/wgt_core/UI_Controller.c **** {
 1038              		.loc 1 498 1 is_stmt 1 view -0
 1039              		.cfi_startproc
 1040              		@ args = 20, pretend = 0, frame = 0
 1041              		@ frame_needed = 0, uses_anonymous_args = 0
 1042              		.loc 1 498 1 is_stmt 0 view .LVU284
 1043 0000 2DE9F843 		push	{r3, r4, r5, r6, r7, r8, r9, lr}
 1044              	.LCFI22:
 1045              		.cfi_def_cfa_offset 32
 1046              		.cfi_offset 3, -32
 1047              		.cfi_offset 4, -28
 1048              		.cfi_offset 5, -24
 1049              		.cfi_offset 6, -20
 1050              		.cfi_offset 7, -16
 1051              		.cfi_offset 8, -12
 1052              		.cfi_offset 9, -8
 1053              		.cfi_offset 14, -4
 1054 0004 BDF92440 		ldrsh	r4, [sp, #36]
 1055 0008 BDF92850 		ldrsh	r5, [sp, #40]
 1056 000c BDF92C60 		ldrsh	r6, [sp, #44]
 1057 0010 BDF93080 		ldrsh	r8, [sp, #48]
 499:Dsp/widget/wgt_core/UI_Controller.c ****     if ((Obj == NULL) ||
 1058              		.loc 1 499 5 is_stmt 1 view .LVU285
 1059              		.loc 1 499 8 is_stmt 0 view .LVU286
 1060 0014 0028     		cmp	r0, #0
 1061 0016 49D0     		beq	.L104
 1062 0018 9446     		mov	ip, r2
 1063 001a 1A46     		mov	r2, r3
 1064              	.LVL89:
 1065              		.loc 1 499 8 view .LVU287
 1066 001c 0746     		mov	r7, r0
 1067              		.loc 1 499 23 discriminator 1 view .LVU288
 1068 001e AC42     		cmp	r4, r5
 1069 0020 46DD     		ble	.L105
 500:Dsp/widget/wgt_core/UI_Controller.c ****         (limit_max <= limit_min) ||
 1070              		.loc 1 500 34 view .LVU289
 1071 0022 B542     		cmp	r5, r6
 1072 0024 47DC     		bgt	.L106
 501:Dsp/widget/wgt_core/UI_Controller.c ****         (start_val < limit_min) ||
 1073              		.loc 1 501 33 view .LVU290
 1074 0026 B442     		cmp	r4, r6
 1075 0028 47DB     		blt	.L107
 502:Dsp/widget/wgt_core/UI_Controller.c ****         (start_val > limit_max) ||
 1076              		.loc 1 502 33 view .LVU291
 1077 002a 0129     		cmp	r1, #1
 1078 002c 01D9     		bls	.L110
 503:Dsp/widget/wgt_core/UI_Controller.c ****         (mode > SliderBar_Vertical_Mode))
 504:Dsp/widget/wgt_core/UI_Controller.c ****         return false;
 1079              		.loc 1 504 16 view .LVU292
 1080 002e 0020     		movs	r0, #0
 1081              	.LVL90:
 1082              		.loc 1 504 16 view .LVU293
ARM GAS  C:\Users\huav\AppData\Local\Temp\ccFpv2Vf.s 			page 30


 1083 0030 3FE0     		b	.L103
 1084              	.LVL91:
 1085              	.L110:
 505:Dsp/widget/wgt_core/UI_Controller.c **** 
 506:Dsp/widget/wgt_core/UI_Controller.c ****     Obj->mode = mode;
 1086              		.loc 1 506 5 is_stmt 1 view .LVU294
 1087              		.loc 1 506 15 is_stmt 0 view .LVU295
 1088 0032 0173     		strb	r1, [r0, #12]
 507:Dsp/widget/wgt_core/UI_Controller.c ****     Obj->is_selected = false;
 1089              		.loc 1 507 5 is_stmt 1 view .LVU296
 1090              		.loc 1 507 22 is_stmt 0 view .LVU297
 1091 0034 4FF00009 		mov	r9, #0
 1092 0038 80F82390 		strb	r9, [r0, #35]
 508:Dsp/widget/wgt_core/UI_Controller.c **** 
 509:Dsp/widget/wgt_core/UI_Controller.c ****     UI_GenData_Init(&(Obj->Gen_Data), label, x, y);
 1093              		.loc 1 509 5 is_stmt 1 view .LVU298
 1094 003c BDF92030 		ldrsh	r3, [sp, #32]
 1095              	.LVL92:
 1096              		.loc 1 509 5 is_stmt 0 view .LVU299
 1097 0040 6146     		mov	r1, ip
 1098              	.LVL93:
 1099              		.loc 1 509 5 view .LVU300
 1100 0042 FFF7FEFF 		bl	UI_GenData_Init
 1101              	.LVL94:
 510:Dsp/widget/wgt_core/UI_Controller.c **** 
 511:Dsp/widget/wgt_core/UI_Controller.c ****     Obj->limit_max = limit_max;
 1102              		.loc 1 511 5 is_stmt 1 view .LVU301
 1103              		.loc 1 511 20 is_stmt 0 view .LVU302
 1104 0046 07EE904A 		vmov	s15, r4	@ int
 1105 004a F8EEE77A 		vcvt.f32.s32	s15, s15
 1106 004e 17EE903A 		vmov	r3, s15
 1107 0052 C7F81530 		str	r3, [r7, #21]	@ unaligned
 512:Dsp/widget/wgt_core/UI_Controller.c ****     Obj->limit_min = limit_min;
 1108              		.loc 1 512 5 is_stmt 1 view .LVU303
 1109              		.loc 1 512 20 is_stmt 0 view .LVU304
 1110 0056 07EE905A 		vmov	s15, r5	@ int
 1111 005a F8EEE77A 		vcvt.f32.s32	s15, s15
 1112 005e 17EE903A 		vmov	r3, s15
 1113 0062 C7F81130 		str	r3, [r7, #17]	@ unaligned
 513:Dsp/widget/wgt_core/UI_Controller.c **** 
 514:Dsp/widget/wgt_core/UI_Controller.c ****     Obj->step_len = step_len;
 1114              		.loc 1 514 5 is_stmt 1 view .LVU305
 1115              		.loc 1 514 19 is_stmt 0 view .LVU306
 1116 0066 A7F81D80 		strh	r8, [r7, #29]	@ unaligned
 515:Dsp/widget/wgt_core/UI_Controller.c ****     Obj->scale = (limit_max - limit_min) / (float)step_len;
 1117              		.loc 1 515 5 is_stmt 1 view .LVU307
 1118              		.loc 1 515 29 is_stmt 0 view .LVU308
 1119 006a 641B     		subs	r4, r4, r5
 1120              		.loc 1 515 44 view .LVU309
 1121 006c 07EE908A 		vmov	s15, r8	@ int
 1122 0070 B8EEE77A 		vcvt.f32.s32	s14, s15
 1123              		.loc 1 515 42 view .LVU310
 1124 0074 07EE904A 		vmov	s15, r4	@ int
 1125 0078 F8EEE77A 		vcvt.f32.s32	s15, s15
 1126              		.loc 1 515 16 view .LVU311
 1127 007c C7EE877A 		vdiv.f32	s15, s15, s14
 1128 0080 17EE903A 		vmov	r3, s15
ARM GAS  C:\Users\huav\AppData\Local\Temp\ccFpv2Vf.s 			page 31


 1129 0084 C7F81930 		str	r3, [r7, #25]	@ unaligned
 516:Dsp/widget/wgt_core/UI_Controller.c ****     Obj->cur_val = start_val;
 1130              		.loc 1 516 5 is_stmt 1 view .LVU312
 1131              		.loc 1 516 18 is_stmt 0 view .LVU313
 1132 0088 07EE906A 		vmov	s15, r6	@ int
 1133 008c F8EEE77A 		vcvt.f32.s32	s15, s15
 1134 0090 17EE906A 		vmov	r6, s15
 1135 0094 C7F81F60 		str	r6, [r7, #31]	@ unaligned
 517:Dsp/widget/wgt_core/UI_Controller.c **** 
 518:Dsp/widget/wgt_core/UI_Controller.c ****     Obj->BarCoord_X = 0;
 1136              		.loc 1 518 5 is_stmt 1 view .LVU314
 1137              		.loc 1 518 21 is_stmt 0 view .LVU315
 1138 0098 87F82490 		strb	r9, [r7, #36]
 1139 009c 87F82590 		strb	r9, [r7, #37]
 519:Dsp/widget/wgt_core/UI_Controller.c ****     Obj->BarCoord_Y = 0;
 1140              		.loc 1 519 5 is_stmt 1 view .LVU316
 1141              		.loc 1 519 21 is_stmt 0 view .LVU317
 1142 00a0 87F82690 		strb	r9, [r7, #38]
 1143 00a4 87F82790 		strb	r9, [r7, #39]
 520:Dsp/widget/wgt_core/UI_Controller.c **** 
 521:Dsp/widget/wgt_core/UI_Controller.c ****     return true;
 1144              		.loc 1 521 5 is_stmt 1 view .LVU318
 1145              		.loc 1 521 12 is_stmt 0 view .LVU319
 1146 00a8 0120     		movs	r0, #1
 1147 00aa 02E0     		b	.L103
 1148              	.LVL95:
 1149              	.L104:
 504:Dsp/widget/wgt_core/UI_Controller.c **** 
 1150              		.loc 1 504 16 view .LVU320
 1151 00ac 0020     		movs	r0, #0
 1152              	.LVL96:
 504:Dsp/widget/wgt_core/UI_Controller.c **** 
 1153              		.loc 1 504 16 view .LVU321
 1154 00ae 00E0     		b	.L103
 1155              	.LVL97:
 1156              	.L105:
 504:Dsp/widget/wgt_core/UI_Controller.c **** 
 1157              		.loc 1 504 16 view .LVU322
 1158 00b0 0020     		movs	r0, #0
 1159              	.LVL98:
 1160              	.L103:
 522:Dsp/widget/wgt_core/UI_Controller.c **** }
 1161              		.loc 1 522 1 view .LVU323
 1162 00b2 BDE8F883 		pop	{r3, r4, r5, r6, r7, r8, r9, pc}
 1163              	.LVL99:
 1164              	.L106:
 504:Dsp/widget/wgt_core/UI_Controller.c **** 
 1165              		.loc 1 504 16 view .LVU324
 1166 00b6 0020     		movs	r0, #0
 1167              	.LVL100:
 504:Dsp/widget/wgt_core/UI_Controller.c **** 
 1168              		.loc 1 504 16 view .LVU325
 1169 00b8 FBE7     		b	.L103
 1170              	.LVL101:
 1171              	.L107:
 504:Dsp/widget/wgt_core/UI_Controller.c **** 
 1172              		.loc 1 504 16 view .LVU326
ARM GAS  C:\Users\huav\AppData\Local\Temp\ccFpv2Vf.s 			page 32


 1173 00ba 0020     		movs	r0, #0
 1174              	.LVL102:
 504:Dsp/widget/wgt_core/UI_Controller.c **** 
 1175              		.loc 1 504 16 view .LVU327
 1176 00bc F9E7     		b	.L103
 1177              		.cfi_endproc
 1178              	.LFE18:
 1180              		.section	.text.UI_SlideBar_Move,"ax",%progbits
 1181              		.align	1
 1182              		.syntax unified
 1183              		.thumb
 1184              		.thumb_func
 1185              		.fpu fpv4-sp-d16
 1187              	UI_SlideBar_Move:
 1188              	.LVL103:
 1189              	.LFB19:
 523:Dsp/widget/wgt_core/UI_Controller.c **** 
 524:Dsp/widget/wgt_core/UI_Controller.c **** static bool UI_SlideBar_Move(UI_SlideBarObj_TypeDef *Obj, int16_t x, int16_t y)
 525:Dsp/widget/wgt_core/UI_Controller.c **** {
 1190              		.loc 1 525 1 is_stmt 1 view -0
 1191              		.cfi_startproc
 1192              		@ args = 0, pretend = 0, frame = 0
 1193              		@ frame_needed = 0, uses_anonymous_args = 0
 526:Dsp/widget/wgt_core/UI_Controller.c ****     if (Obj == NULL)
 1194              		.loc 1 526 5 view .LVU329
 1195              		.loc 1 526 8 is_stmt 0 view .LVU330
 1196 0000 18B1     		cbz	r0, .L113
 525:Dsp/widget/wgt_core/UI_Controller.c ****     if (Obj == NULL)
 1197              		.loc 1 525 1 view .LVU331
 1198 0002 08B5     		push	{r3, lr}
 1199              	.LCFI23:
 1200              		.cfi_def_cfa_offset 8
 1201              		.cfi_offset 3, -8
 1202              		.cfi_offset 14, -4
 527:Dsp/widget/wgt_core/UI_Controller.c ****         return false;
 528:Dsp/widget/wgt_core/UI_Controller.c **** 
 529:Dsp/widget/wgt_core/UI_Controller.c ****     return UI_Move(&(Obj->Gen_Data), x, y);
 1203              		.loc 1 529 5 is_stmt 1 view .LVU332
 1204              		.loc 1 529 12 is_stmt 0 view .LVU333
 1205 0004 FFF7FEFF 		bl	UI_Move
 1206              	.LVL104:
 530:Dsp/widget/wgt_core/UI_Controller.c **** }
 1207              		.loc 1 530 1 view .LVU334
 1208 0008 08BD     		pop	{r3, pc}
 1209              	.LVL105:
 1210              	.L113:
 1211              	.LCFI24:
 1212              		.cfi_def_cfa_offset 0
 1213              		.cfi_restore 3
 1214              		.cfi_restore 14
 527:Dsp/widget/wgt_core/UI_Controller.c ****         return false;
 1215              		.loc 1 527 16 view .LVU335
 1216 000a 0020     		movs	r0, #0
 1217              	.LVL106:
 1218              		.loc 1 530 1 view .LVU336
 1219 000c 7047     		bx	lr
 1220              		.cfi_endproc
ARM GAS  C:\Users\huav\AppData\Local\Temp\ccFpv2Vf.s 			page 33


 1221              	.LFE19:
 1223              		.section	.text.UI_SlideBar_SetCallBack,"ax",%progbits
 1224              		.align	1
 1225              		.syntax unified
 1226              		.thumb
 1227              		.thumb_func
 1228              		.fpu fpv4-sp-d16
 1230              	UI_SlideBar_SetCallBack:
 1231              	.LVL107:
 1232              	.LFB20:
 531:Dsp/widget/wgt_core/UI_Controller.c **** 
 532:Dsp/widget/wgt_core/UI_Controller.c **** static bool UI_SlideBar_SetCallBack(UI_SlideBarObj_TypeDef *Obj, UI_SliderBarTrigger_Callback callb
 533:Dsp/widget/wgt_core/UI_Controller.c **** {
 1233              		.loc 1 533 1 is_stmt 1 view -0
 1234              		.cfi_startproc
 1235              		@ args = 0, pretend = 0, frame = 0
 1236              		@ frame_needed = 0, uses_anonymous_args = 0
 1237              		@ link register save eliminated.
 534:Dsp/widget/wgt_core/UI_Controller.c ****     if (Obj == NULL)
 1238              		.loc 1 534 5 view .LVU338
 1239              		.loc 1 534 8 is_stmt 0 view .LVU339
 1240 0000 18B1     		cbz	r0, .L120
 535:Dsp/widget/wgt_core/UI_Controller.c ****         return false;
 536:Dsp/widget/wgt_core/UI_Controller.c **** 
 537:Dsp/widget/wgt_core/UI_Controller.c ****     Obj->callback = callback;
 1241              		.loc 1 537 5 is_stmt 1 view .LVU340
 1242              		.loc 1 537 19 is_stmt 0 view .LVU341
 1243 0002 C0F80D10 		str	r1, [r0, #13]	@ unaligned
 538:Dsp/widget/wgt_core/UI_Controller.c **** 
 539:Dsp/widget/wgt_core/UI_Controller.c ****     return true;
 1244              		.loc 1 539 5 is_stmt 1 view .LVU342
 1245              		.loc 1 539 12 is_stmt 0 view .LVU343
 1246 0006 0120     		movs	r0, #1
 1247              	.LVL108:
 1248              		.loc 1 539 12 view .LVU344
 1249 0008 7047     		bx	lr
 1250              	.LVL109:
 1251              	.L120:
 535:Dsp/widget/wgt_core/UI_Controller.c ****         return false;
 1252              		.loc 1 535 16 view .LVU345
 1253 000a 0020     		movs	r0, #0
 1254              	.LVL110:
 540:Dsp/widget/wgt_core/UI_Controller.c **** }
 1255              		.loc 1 540 1 view .LVU346
 1256 000c 7047     		bx	lr
 1257              		.cfi_endproc
 1258              	.LFE20:
 1260              		.section	.text.UI_SlideBar_Input,"ax",%progbits
 1261              		.align	1
 1262              		.syntax unified
 1263              		.thumb
 1264              		.thumb_func
 1265              		.fpu fpv4-sp-d16
 1267              	UI_SlideBar_Input:
 1268              	.LVL111:
 1269              	.LFB21:
 541:Dsp/widget/wgt_core/UI_Controller.c **** 
ARM GAS  C:\Users\huav\AppData\Local\Temp\ccFpv2Vf.s 			page 34


 542:Dsp/widget/wgt_core/UI_Controller.c **** static bool UI_SlideBar_Input(UI_SlideBarObj_TypeDef *Obj, int16_t *step)
 543:Dsp/widget/wgt_core/UI_Controller.c **** {
 1270              		.loc 1 543 1 is_stmt 1 view -0
 1271              		.cfi_startproc
 1272              		@ args = 0, pretend = 0, frame = 0
 1273              		@ frame_needed = 0, uses_anonymous_args = 0
 1274              		@ link register save eliminated.
 544:Dsp/widget/wgt_core/UI_Controller.c ****     float val_tmp = 0;
 1275              		.loc 1 544 5 view .LVU348
 545:Dsp/widget/wgt_core/UI_Controller.c **** 
 546:Dsp/widget/wgt_core/UI_Controller.c ****     if ((Obj == NULL) || (step == NULL))
 1276              		.loc 1 546 5 view .LVU349
 1277              		.loc 1 546 8 is_stmt 0 view .LVU350
 1278 0000 0346     		mov	r3, r0
 1279 0002 90B3     		cbz	r0, .L128
 1280              		.loc 1 546 23 discriminator 1 view .LVU351
 1281 0004 99B3     		cbz	r1, .L129
 547:Dsp/widget/wgt_core/UI_Controller.c ****         return false;
 548:Dsp/widget/wgt_core/UI_Controller.c **** 
 549:Dsp/widget/wgt_core/UI_Controller.c ****     val_tmp = Obj->cur_val + ((*step) * Obj->scale);
 1282              		.loc 1 549 5 is_stmt 1 view .LVU352
 1283              		.loc 1 549 18 is_stmt 0 view .LVU353
 1284 0006 D0F81F20 		ldr	r2, [r0, #31]	@ unaligned
 1285              		.loc 1 549 32 view .LVU354
 1286 000a B1F90000 		ldrsh	r0, [r1]
 1287              	.LVL112:
 1288              		.loc 1 549 32 view .LVU355
 1289 000e 07EE900A 		vmov	s15, r0	@ int
 1290              		.loc 1 549 44 view .LVU356
 1291 0012 D3F81900 		ldr	r0, [r3, #25]	@ unaligned
 1292              		.loc 1 549 39 view .LVU357
 1293 0016 B8EEE77A 		vcvt.f32.s32	s14, s15
 1294 001a 07EE900A 		vmov	s15, r0
 1295 001e 67EE277A 		vmul.f32	s15, s14, s15
 1296              		.loc 1 549 13 view .LVU358
 1297 0022 07EE102A 		vmov	s14, r2
 1298 0026 77EE277A 		vadd.f32	s15, s14, s15
 1299              	.LVL113:
 550:Dsp/widget/wgt_core/UI_Controller.c **** 
 551:Dsp/widget/wgt_core/UI_Controller.c ****     if (val_tmp >= Obj->limit_max)
 1300              		.loc 1 551 5 is_stmt 1 view .LVU359
 1301              		.loc 1 551 23 is_stmt 0 view .LVU360
 1302 002a D3F81520 		ldr	r2, [r3, #21]	@ unaligned
 1303              		.loc 1 551 8 view .LVU361
 1304 002e 07EE102A 		vmov	s14, r2
 1305 0032 B4EEE77A 		vcmpe.f32	s14, s15
 1306 0036 F1EE10FA 		vmrs	APSR_nzcv, FPSCR
 1307 003a 05D8     		bhi	.L132
 552:Dsp/widget/wgt_core/UI_Controller.c ****     {
 553:Dsp/widget/wgt_core/UI_Controller.c ****         Obj->cur_val = Obj->limit_max;
 1308              		.loc 1 553 9 is_stmt 1 view .LVU362
 1309              		.loc 1 553 22 is_stmt 0 view .LVU363
 1310 003c C3F81F20 		str	r2, [r3, #31]	@ unaligned
 1311              	.L125:
 554:Dsp/widget/wgt_core/UI_Controller.c ****     }
 555:Dsp/widget/wgt_core/UI_Controller.c ****     else if (val_tmp <= Obj->limit_min)
 556:Dsp/widget/wgt_core/UI_Controller.c ****     {
ARM GAS  C:\Users\huav\AppData\Local\Temp\ccFpv2Vf.s 			page 35


 557:Dsp/widget/wgt_core/UI_Controller.c ****         Obj->cur_val = Obj->limit_min;
 558:Dsp/widget/wgt_core/UI_Controller.c ****     }
 559:Dsp/widget/wgt_core/UI_Controller.c ****     else
 560:Dsp/widget/wgt_core/UI_Controller.c ****         Obj->cur_val = val_tmp;
 561:Dsp/widget/wgt_core/UI_Controller.c **** 
 562:Dsp/widget/wgt_core/UI_Controller.c ****     (*step) = 0;
 1312              		.loc 1 562 5 is_stmt 1 view .LVU364
 1313              		.loc 1 562 13 is_stmt 0 view .LVU365
 1314 0040 0023     		movs	r3, #0
 1315              	.LVL114:
 1316              		.loc 1 562 13 view .LVU366
 1317 0042 0B80     		strh	r3, [r1]	@ movhi
 563:Dsp/widget/wgt_core/UI_Controller.c **** 
 564:Dsp/widget/wgt_core/UI_Controller.c ****     return true;
 1318              		.loc 1 564 5 is_stmt 1 view .LVU367
 1319              		.loc 1 564 12 is_stmt 0 view .LVU368
 1320 0044 0120     		movs	r0, #1
 1321 0046 7047     		bx	lr
 1322              	.LVL115:
 1323              	.L132:
 555:Dsp/widget/wgt_core/UI_Controller.c ****     {
 1324              		.loc 1 555 10 is_stmt 1 view .LVU369
 555:Dsp/widget/wgt_core/UI_Controller.c ****     {
 1325              		.loc 1 555 28 is_stmt 0 view .LVU370
 1326 0048 D3F81120 		ldr	r2, [r3, #17]	@ unaligned
 555:Dsp/widget/wgt_core/UI_Controller.c ****     {
 1327              		.loc 1 555 13 view .LVU371
 1328 004c 07EE102A 		vmov	s14, r2
 1329 0050 B4EEE77A 		vcmpe.f32	s14, s15
 1330 0054 F1EE10FA 		vmrs	APSR_nzcv, FPSCR
 1331 0058 02DB     		blt	.L133
 557:Dsp/widget/wgt_core/UI_Controller.c ****     }
 1332              		.loc 1 557 9 is_stmt 1 view .LVU372
 557:Dsp/widget/wgt_core/UI_Controller.c ****     }
 1333              		.loc 1 557 22 is_stmt 0 view .LVU373
 1334 005a C3F81F20 		str	r2, [r3, #31]	@ unaligned
 1335 005e EFE7     		b	.L125
 1336              	.L133:
 560:Dsp/widget/wgt_core/UI_Controller.c **** 
 1337              		.loc 1 560 9 is_stmt 1 view .LVU374
 560:Dsp/widget/wgt_core/UI_Controller.c **** 
 1338              		.loc 1 560 22 is_stmt 0 view .LVU375
 1339 0060 17EE902A 		vmov	r2, s15
 1340 0064 C3F81F20 		str	r2, [r3, #31]	@ unaligned
 1341 0068 EAE7     		b	.L125
 1342              	.LVL116:
 1343              	.L128:
 547:Dsp/widget/wgt_core/UI_Controller.c **** 
 1344              		.loc 1 547 16 view .LVU376
 1345 006a 0020     		movs	r0, #0
 1346              	.LVL117:
 547:Dsp/widget/wgt_core/UI_Controller.c **** 
 1347              		.loc 1 547 16 view .LVU377
 1348 006c 7047     		bx	lr
 1349              	.LVL118:
 1350              	.L129:
 547:Dsp/widget/wgt_core/UI_Controller.c **** 
ARM GAS  C:\Users\huav\AppData\Local\Temp\ccFpv2Vf.s 			page 36


 1351              		.loc 1 547 16 view .LVU378
 1352 006e 0020     		movs	r0, #0
 1353              	.LVL119:
 565:Dsp/widget/wgt_core/UI_Controller.c **** }
 1354              		.loc 1 565 1 view .LVU379
 1355 0070 7047     		bx	lr
 1356              		.cfi_endproc
 1357              	.LFE21:
 1359              		.section	.text.UI_SlideBar_Trigger,"ax",%progbits
 1360              		.align	1
 1361              		.syntax unified
 1362              		.thumb
 1363              		.thumb_func
 1364              		.fpu fpv4-sp-d16
 1366              	UI_SlideBar_Trigger:
 1367              	.LVL120:
 1368              	.LFB22:
 566:Dsp/widget/wgt_core/UI_Controller.c **** 
 567:Dsp/widget/wgt_core/UI_Controller.c **** static bool UI_SlideBar_Trigger(UI_SlideBarObj_TypeDef *Obj)
 568:Dsp/widget/wgt_core/UI_Controller.c **** {
 1369              		.loc 1 568 1 is_stmt 1 view -0
 1370              		.cfi_startproc
 1371              		@ args = 0, pretend = 0, frame = 0
 1372              		@ frame_needed = 0, uses_anonymous_args = 0
 569:Dsp/widget/wgt_core/UI_Controller.c ****     if (Obj == NULL)
 1373              		.loc 1 569 5 view .LVU381
 1374              		.loc 1 569 8 is_stmt 0 view .LVU382
 1375 0000 78B1     		cbz	r0, .L136
 568:Dsp/widget/wgt_core/UI_Controller.c ****     if (Obj == NULL)
 1376              		.loc 1 568 1 view .LVU383
 1377 0002 08B5     		push	{r3, lr}
 1378              	.LCFI25:
 1379              		.cfi_def_cfa_offset 8
 1380              		.cfi_offset 3, -8
 1381              		.cfi_offset 14, -4
 570:Dsp/widget/wgt_core/UI_Controller.c ****         return false;
 571:Dsp/widget/wgt_core/UI_Controller.c **** 
 572:Dsp/widget/wgt_core/UI_Controller.c ****     if (Obj->callback != NULL)
 1382              		.loc 1 572 5 is_stmt 1 view .LVU384
 1383              		.loc 1 572 12 is_stmt 0 view .LVU385
 1384 0004 D0F80D20 		ldr	r2, [r0, #13]	@ unaligned
 1385              		.loc 1 572 8 view .LVU386
 1386 0008 6AB1     		cbz	r2, .L137
 573:Dsp/widget/wgt_core/UI_Controller.c ****         Obj->callback(Obj->cur_val);
 1387              		.loc 1 573 9 is_stmt 1 view .LVU387
 1388              		.loc 1 573 26 is_stmt 0 view .LVU388
 1389 000a D0F81F30 		ldr	r3, [r0, #31]	@ unaligned
 1390 000e 07EE903A 		vmov	s15, r3	@ int
 1391              		.loc 1 573 9 view .LVU389
 1392 0012 FDEEE77A 		vcvt.s32.f32	s15, s15
 1393 0016 17EE903A 		vmov	r3, s15	@ int
 1394 001a 18B2     		sxth	r0, r3
 1395              	.LVL121:
 1396              		.loc 1 573 9 view .LVU390
 1397 001c 9047     		blx	r2
 1398              	.LVL122:
 574:Dsp/widget/wgt_core/UI_Controller.c **** 
ARM GAS  C:\Users\huav\AppData\Local\Temp\ccFpv2Vf.s 			page 37


 575:Dsp/widget/wgt_core/UI_Controller.c ****     return true;
 1399              		.loc 1 575 12 view .LVU391
 1400 001e 0120     		movs	r0, #1
 1401              	.L135:
 576:Dsp/widget/wgt_core/UI_Controller.c **** }
 1402              		.loc 1 576 1 view .LVU392
 1403 0020 08BD     		pop	{r3, pc}
 1404              	.LVL123:
 1405              	.L136:
 1406              	.LCFI26:
 1407              		.cfi_def_cfa_offset 0
 1408              		.cfi_restore 3
 1409              		.cfi_restore 14
 570:Dsp/widget/wgt_core/UI_Controller.c **** 
 1410              		.loc 1 570 16 view .LVU393
 1411 0022 0020     		movs	r0, #0
 1412              	.LVL124:
 1413              		.loc 1 576 1 view .LVU394
 1414 0024 7047     		bx	lr
 1415              	.LVL125:
 1416              	.L137:
 1417              	.LCFI27:
 1418              		.cfi_def_cfa_offset 8
 1419              		.cfi_offset 3, -8
 1420              		.cfi_offset 14, -4
 575:Dsp/widget/wgt_core/UI_Controller.c **** }
 1421              		.loc 1 575 12 view .LVU395
 1422 0026 0120     		movs	r0, #1
 1423              	.LVL126:
 575:Dsp/widget/wgt_core/UI_Controller.c **** }
 1424              		.loc 1 575 12 view .LVU396
 1425 0028 FAE7     		b	.L135
 1426              		.cfi_endproc
 1427              	.LFE22:
 1429              		.section	.text.UI_SlideBar_SetSelect,"ax",%progbits
 1430              		.align	1
 1431              		.syntax unified
 1432              		.thumb
 1433              		.thumb_func
 1434              		.fpu fpv4-sp-d16
 1436              	UI_SlideBar_SetSelect:
 1437              	.LVL127:
 1438              	.LFB24:
 577:Dsp/widget/wgt_core/UI_Controller.c **** 
 578:Dsp/widget/wgt_core/UI_Controller.c **** static bool UI_SlideBar_CTL(UI_SlideBarObj_TypeDef *Obj)
 579:Dsp/widget/wgt_core/UI_Controller.c **** {
 580:Dsp/widget/wgt_core/UI_Controller.c ****     int16_t Block_CoordX = 0;
 581:Dsp/widget/wgt_core/UI_Controller.c ****     int16_t Block_CoordY = 0;
 582:Dsp/widget/wgt_core/UI_Controller.c ****     int16_t input_trip = 0;
 583:Dsp/widget/wgt_core/UI_Controller.c ****     int16_t str_y = Obj->Gen_Data.y;
 584:Dsp/widget/wgt_core/UI_Controller.c **** 
 585:Dsp/widget/wgt_core/UI_Controller.c ****     if ((Obj == NULL) ||
 586:Dsp/widget/wgt_core/UI_Controller.c ****         (UI_DspInterface.draw_str == NULL) ||
 587:Dsp/widget/wgt_core/UI_Controller.c ****         (UI_DspInterface.fill_rectangle == NULL))
 588:Dsp/widget/wgt_core/UI_Controller.c ****         return false;
 589:Dsp/widget/wgt_core/UI_Controller.c **** 
 590:Dsp/widget/wgt_core/UI_Controller.c ****     if (base_font == Font_8)
ARM GAS  C:\Users\huav\AppData\Local\Temp\ccFpv2Vf.s 			page 38


 591:Dsp/widget/wgt_core/UI_Controller.c ****         str_y += 1;
 592:Dsp/widget/wgt_core/UI_Controller.c **** 
 593:Dsp/widget/wgt_core/UI_Controller.c ****     input_trip = Obj->limit_max - Obj->limit_min;
 594:Dsp/widget/wgt_core/UI_Controller.c **** 
 595:Dsp/widget/wgt_core/UI_Controller.c ****     UI_DspInterface.draw_str(base_font, Obj->Gen_Data.label, Obj->Gen_Data.x + 3, str_y, true);
 596:Dsp/widget/wgt_core/UI_Controller.c **** 
 597:Dsp/widget/wgt_core/UI_Controller.c ****     if (Obj->mode == SliderBar_Horizon_Mode)
 598:Dsp/widget/wgt_core/UI_Controller.c ****     {
 599:Dsp/widget/wgt_core/UI_Controller.c ****         if (Obj->BarCoord_X == 0)
 600:Dsp/widget/wgt_core/UI_Controller.c ****         {
 601:Dsp/widget/wgt_core/UI_Controller.c ****             Obj->BarCoord_X = Obj->Gen_Data.x + strlen(Obj->Gen_Data.label) * FONT_WIDTH + DEFAULT_
 602:Dsp/widget/wgt_core/UI_Controller.c ****         }
 603:Dsp/widget/wgt_core/UI_Controller.c **** 
 604:Dsp/widget/wgt_core/UI_Controller.c ****         if (Obj->BarCoord_Y == 0)
 605:Dsp/widget/wgt_core/UI_Controller.c ****         {
 606:Dsp/widget/wgt_core/UI_Controller.c ****             Obj->BarCoord_Y = Obj->Gen_Data.y + 5;
 607:Dsp/widget/wgt_core/UI_Controller.c ****         }
 608:Dsp/widget/wgt_core/UI_Controller.c **** 
 609:Dsp/widget/wgt_core/UI_Controller.c ****         Block_CoordX = Obj->BarCoord_X;
 610:Dsp/widget/wgt_core/UI_Controller.c ****         Block_CoordX += (Obj->cur_val - Obj->limit_min) / ((float)(input_trip)) * (DEFAULT_SLIDERBA
 611:Dsp/widget/wgt_core/UI_Controller.c **** 
 612:Dsp/widget/wgt_core/UI_Controller.c ****         UI_DspInterface.fill_rectangle(Obj->BarCoord_X, Obj->BarCoord_Y, DEFAULT_SLIDERBAR_LEN, DEF
 613:Dsp/widget/wgt_core/UI_Controller.c **** 
 614:Dsp/widget/wgt_core/UI_Controller.c ****         Block_CoordY = Obj->Gen_Data.y + 3;
 615:Dsp/widget/wgt_core/UI_Controller.c ****         UI_DspInterface.fill_rectangle(Block_CoordX, Block_CoordY, DEFAULT_SLIDERBAR_BLOCK_WIDTH, D
 616:Dsp/widget/wgt_core/UI_Controller.c ****         UI_DspInterface.fill_rectangle(Block_CoordX, Block_CoordY + (DEFAULT_SLIDERBAR_BLOCK_HIGH /
 617:Dsp/widget/wgt_core/UI_Controller.c ****     }
 618:Dsp/widget/wgt_core/UI_Controller.c ****     else if (Obj->mode == SliderBar_Vertical_Mode)
 619:Dsp/widget/wgt_core/UI_Controller.c ****     {
 620:Dsp/widget/wgt_core/UI_Controller.c ****     }
 621:Dsp/widget/wgt_core/UI_Controller.c ****     else
 622:Dsp/widget/wgt_core/UI_Controller.c ****         return false;
 623:Dsp/widget/wgt_core/UI_Controller.c **** 
 624:Dsp/widget/wgt_core/UI_Controller.c ****     return true;
 625:Dsp/widget/wgt_core/UI_Controller.c **** }
 626:Dsp/widget/wgt_core/UI_Controller.c **** 
 627:Dsp/widget/wgt_core/UI_Controller.c **** static void UI_SlideBar_SetSelect(UI_SlideBarObj_TypeDef *Obj, bool select)
 628:Dsp/widget/wgt_core/UI_Controller.c **** {
 1439              		.loc 1 628 1 is_stmt 1 view -0
 1440              		.cfi_startproc
 1441              		@ args = 0, pretend = 0, frame = 0
 1442              		@ frame_needed = 0, uses_anonymous_args = 0
 1443              		@ link register save eliminated.
 629:Dsp/widget/wgt_core/UI_Controller.c ****     if (Obj == NULL)
 1444              		.loc 1 629 5 view .LVU398
 1445              		.loc 1 629 8 is_stmt 0 view .LVU399
 1446 0000 10B1     		cbz	r0, .L142
 630:Dsp/widget/wgt_core/UI_Controller.c ****         return;
 631:Dsp/widget/wgt_core/UI_Controller.c **** 
 632:Dsp/widget/wgt_core/UI_Controller.c ****     Obj->is_selected = true;
 1447              		.loc 1 632 5 is_stmt 1 view .LVU400
 1448              		.loc 1 632 22 is_stmt 0 view .LVU401
 1449 0002 0122     		movs	r2, #1
 1450 0004 80F82320 		strb	r2, [r0, #35]
 1451              	.L142:
 633:Dsp/widget/wgt_core/UI_Controller.c **** }
 1452              		.loc 1 633 1 view .LVU402
ARM GAS  C:\Users\huav\AppData\Local\Temp\ccFpv2Vf.s 			page 39


 1453 0008 7047     		bx	lr
 1454              		.cfi_endproc
 1455              	.LFE24:
 1457              		.section	.text.UI_SlideBar_IsSelected,"ax",%progbits
 1458              		.align	1
 1459              		.syntax unified
 1460              		.thumb
 1461              		.thumb_func
 1462              		.fpu fpv4-sp-d16
 1464              	UI_SlideBar_IsSelected:
 1465              	.LVL128:
 1466              	.LFB25:
 634:Dsp/widget/wgt_core/UI_Controller.c **** 
 635:Dsp/widget/wgt_core/UI_Controller.c **** static bool UI_SlideBar_IsSelected(UI_SlideBarObj_TypeDef *Obj)
 636:Dsp/widget/wgt_core/UI_Controller.c **** {
 1467              		.loc 1 636 1 is_stmt 1 view -0
 1468              		.cfi_startproc
 1469              		@ args = 0, pretend = 0, frame = 0
 1470              		@ frame_needed = 0, uses_anonymous_args = 0
 1471              		@ link register save eliminated.
 637:Dsp/widget/wgt_core/UI_Controller.c ****     if (Obj == NULL)
 1472              		.loc 1 637 5 view .LVU404
 1473              		.loc 1 637 8 is_stmt 0 view .LVU405
 1474 0000 10B1     		cbz	r0, .L146
 638:Dsp/widget/wgt_core/UI_Controller.c ****         return false;
 639:Dsp/widget/wgt_core/UI_Controller.c **** 
 640:Dsp/widget/wgt_core/UI_Controller.c ****     return Obj->is_selected;
 1475              		.loc 1 640 5 is_stmt 1 view .LVU406
 1476              		.loc 1 640 15 is_stmt 0 view .LVU407
 1477 0002 90F82300 		ldrb	r0, [r0, #35]	@ zero_extendqisi2
 1478              	.LVL129:
 1479              		.loc 1 640 15 view .LVU408
 1480 0006 7047     		bx	lr
 1481              	.LVL130:
 1482              	.L146:
 638:Dsp/widget/wgt_core/UI_Controller.c ****         return false;
 1483              		.loc 1 638 16 view .LVU409
 1484 0008 0020     		movs	r0, #0
 1485              	.LVL131:
 641:Dsp/widget/wgt_core/UI_Controller.c **** }
 1486              		.loc 1 641 1 view .LVU410
 1487 000a 7047     		bx	lr
 1488              		.cfi_endproc
 1489              	.LFE25:
 1491              		.section	.text.UI_ProcessBar_Init,"ax",%progbits
 1492              		.align	1
 1493              		.syntax unified
 1494              		.thumb
 1495              		.thumb_func
 1496              		.fpu fpv4-sp-d16
 1498              	UI_ProcessBar_Init:
 1499              	.LVL132:
 1500              	.LFB26:
 642:Dsp/widget/wgt_core/UI_Controller.c **** 
 643:Dsp/widget/wgt_core/UI_Controller.c **** static bool UI_ProcessBar_Init(UI_ProcessBarObj_TypeDef *Obj, char *label, int16_t x, int16_t y, ui
 644:Dsp/widget/wgt_core/UI_Controller.c **** {
 1501              		.loc 1 644 1 is_stmt 1 view -0
ARM GAS  C:\Users\huav\AppData\Local\Temp\ccFpv2Vf.s 			page 40


 1502              		.cfi_startproc
 1503              		@ args = 8, pretend = 0, frame = 0
 1504              		@ frame_needed = 0, uses_anonymous_args = 0
 645:Dsp/widget/wgt_core/UI_Controller.c ****     if (Obj == NULL)
 1505              		.loc 1 645 5 view .LVU412
 1506              		.loc 1 645 8 is_stmt 0 view .LVU413
 1507 0000 B0B1     		cbz	r0, .L149
 644:Dsp/widget/wgt_core/UI_Controller.c ****     if (Obj == NULL)
 1508              		.loc 1 644 1 view .LVU414
 1509 0002 10B5     		push	{r4, lr}
 1510              	.LCFI28:
 1511              		.cfi_def_cfa_offset 8
 1512              		.cfi_offset 4, -8
 1513              		.cfi_offset 14, -4
 1514 0004 0446     		mov	r4, r0
 646:Dsp/widget/wgt_core/UI_Controller.c ****         return false;
 647:Dsp/widget/wgt_core/UI_Controller.c **** 
 648:Dsp/widget/wgt_core/UI_Controller.c ****     UI_GenData_Init(&Obj->Gen_Data, label, x, y);
 1515              		.loc 1 648 5 is_stmt 1 view .LVU415
 1516 0006 FFF7FEFF 		bl	UI_GenData_Init
 1517              	.LVL133:
 649:Dsp/widget/wgt_core/UI_Controller.c **** 
 650:Dsp/widget/wgt_core/UI_Controller.c ****     Obj->width = width;
 1518              		.loc 1 650 5 view .LVU416
 1519              		.loc 1 650 16 is_stmt 0 view .LVU417
 1520 000a 9DF80830 		ldrb	r3, [sp, #8]	@ zero_extendqisi2
 1521 000e 2376     		strb	r3, [r4, #24]
 651:Dsp/widget/wgt_core/UI_Controller.c ****     Obj->height = base_font + 6;
 1522              		.loc 1 651 5 is_stmt 1 view .LVU418
 1523              		.loc 1 651 29 is_stmt 0 view .LVU419
 1524 0010 084B     		ldr	r3, .L154
 1525 0012 1B78     		ldrb	r3, [r3]	@ zero_extendqisi2
 1526 0014 0633     		adds	r3, r3, #6
 1527              		.loc 1 651 17 view .LVU420
 1528 0016 6376     		strb	r3, [r4, #25]
 652:Dsp/widget/wgt_core/UI_Controller.c **** 
 653:Dsp/widget/wgt_core/UI_Controller.c ****     Obj->cur_val = 0;
 1529              		.loc 1 653 5 is_stmt 1 view .LVU421
 1530              		.loc 1 653 18 is_stmt 0 view .LVU422
 1531 0018 0023     		movs	r3, #0
 1532 001a 2375     		strb	r3, [r4, #20]
 1533 001c 6375     		strb	r3, [r4, #21]
 1534 001e A375     		strb	r3, [r4, #22]
 1535 0020 E375     		strb	r3, [r4, #23]
 654:Dsp/widget/wgt_core/UI_Controller.c ****     Obj->range = range;
 1536              		.loc 1 654 5 is_stmt 1 view .LVU423
 1537              		.loc 1 654 16 is_stmt 0 view .LVU424
 1538 0022 039A     		ldr	r2, [sp, #12]
 1539 0024 2261     		str	r2, [r4, #16]	@ unaligned
 655:Dsp/widget/wgt_core/UI_Controller.c **** 
 656:Dsp/widget/wgt_core/UI_Controller.c ****     Obj->percent = 0.0;
 1540              		.loc 1 656 5 is_stmt 1 view .LVU425
 1541              		.loc 1 656 18 is_stmt 0 view .LVU426
 1542 0026 0022     		movs	r2, #0
 1543 0028 E260     		str	r2, [r4, #12]	@ unaligned
 657:Dsp/widget/wgt_core/UI_Controller.c **** 
 658:Dsp/widget/wgt_core/UI_Controller.c ****     Obj->Mv_Dir = UI_ProcBar_MoveDir_Default;
ARM GAS  C:\Users\huav\AppData\Local\Temp\ccFpv2Vf.s 			page 41


 1544              		.loc 1 658 5 is_stmt 1 view .LVU427
 1545              		.loc 1 658 17 is_stmt 0 view .LVU428
 1546 002a A376     		strb	r3, [r4, #26]
 659:Dsp/widget/wgt_core/UI_Controller.c **** 
 660:Dsp/widget/wgt_core/UI_Controller.c ****     return true;
 1547              		.loc 1 660 5 is_stmt 1 view .LVU429
 1548              		.loc 1 660 12 is_stmt 0 view .LVU430
 1549 002c 0120     		movs	r0, #1
 661:Dsp/widget/wgt_core/UI_Controller.c **** }
 1550              		.loc 1 661 1 view .LVU431
 1551 002e 10BD     		pop	{r4, pc}
 1552              	.LVL134:
 1553              	.L149:
 1554              	.LCFI29:
 1555              		.cfi_def_cfa_offset 0
 1556              		.cfi_restore 4
 1557              		.cfi_restore 14
 646:Dsp/widget/wgt_core/UI_Controller.c **** 
 1558              		.loc 1 646 16 view .LVU432
 1559 0030 0020     		movs	r0, #0
 1560              	.LVL135:
 1561              		.loc 1 661 1 view .LVU433
 1562 0032 7047     		bx	lr
 1563              	.L155:
 1564              		.align	2
 1565              	.L154:
 1566 0034 00000000 		.word	.LANCHOR1
 1567              		.cfi_endproc
 1568              	.LFE26:
 1570              		.section	.text.UI_ProcessBar_SetDspDir,"ax",%progbits
 1571              		.align	1
 1572              		.syntax unified
 1573              		.thumb
 1574              		.thumb_func
 1575              		.fpu fpv4-sp-d16
 1577              	UI_ProcessBar_SetDspDir:
 1578              	.LVL136:
 1579              	.LFB27:
 662:Dsp/widget/wgt_core/UI_Controller.c **** 
 663:Dsp/widget/wgt_core/UI_Controller.c **** static bool UI_ProcessBar_SetDspDir(UI_ProcessBarObj_TypeDef *Obj, UI_ProcessBar_MoveDir_TypeDef Di
 664:Dsp/widget/wgt_core/UI_Controller.c **** {
 1580              		.loc 1 664 1 is_stmt 1 view -0
 1581              		.cfi_startproc
 1582              		@ args = 0, pretend = 0, frame = 0
 1583              		@ frame_needed = 0, uses_anonymous_args = 0
 1584              		@ link register save eliminated.
 665:Dsp/widget/wgt_core/UI_Controller.c ****     if ((Obj == NULL) || (Dir < 0) || (Dir > UI_ProcBar_MoveDir_Right))
 1585              		.loc 1 665 5 view .LVU435
 1586              		.loc 1 665 8 is_stmt 0 view .LVU436
 1587 0000 20B1     		cbz	r0, .L158
 1588              		.loc 1 665 36 discriminator 1 view .LVU437
 1589 0002 0129     		cmp	r1, #1
 1590 0004 04D8     		bhi	.L159
 666:Dsp/widget/wgt_core/UI_Controller.c ****         return false;
 667:Dsp/widget/wgt_core/UI_Controller.c **** 
 668:Dsp/widget/wgt_core/UI_Controller.c ****     Obj->Mv_Dir = Dir;
 1591              		.loc 1 668 5 is_stmt 1 view .LVU438
ARM GAS  C:\Users\huav\AppData\Local\Temp\ccFpv2Vf.s 			page 42


 1592              		.loc 1 668 17 is_stmt 0 view .LVU439
 1593 0006 8176     		strb	r1, [r0, #26]
 669:Dsp/widget/wgt_core/UI_Controller.c **** 
 670:Dsp/widget/wgt_core/UI_Controller.c ****     return true;
 1594              		.loc 1 670 5 is_stmt 1 view .LVU440
 1595              		.loc 1 670 12 is_stmt 0 view .LVU441
 1596 0008 0120     		movs	r0, #1
 1597              	.LVL137:
 1598              		.loc 1 670 12 view .LVU442
 1599 000a 7047     		bx	lr
 1600              	.LVL138:
 1601              	.L158:
 666:Dsp/widget/wgt_core/UI_Controller.c ****         return false;
 1602              		.loc 1 666 16 view .LVU443
 1603 000c 0020     		movs	r0, #0
 1604              	.LVL139:
 666:Dsp/widget/wgt_core/UI_Controller.c ****         return false;
 1605              		.loc 1 666 16 view .LVU444
 1606 000e 7047     		bx	lr
 1607              	.LVL140:
 1608              	.L159:
 666:Dsp/widget/wgt_core/UI_Controller.c ****         return false;
 1609              		.loc 1 666 16 view .LVU445
 1610 0010 0020     		movs	r0, #0
 1611              	.LVL141:
 671:Dsp/widget/wgt_core/UI_Controller.c **** }
 1612              		.loc 1 671 1 view .LVU446
 1613 0012 7047     		bx	lr
 1614              		.cfi_endproc
 1615              	.LFE27:
 1617              		.section	.text.UI_ProcessBar_SetCurVal,"ax",%progbits
 1618              		.align	1
 1619              		.syntax unified
 1620              		.thumb
 1621              		.thumb_func
 1622              		.fpu fpv4-sp-d16
 1624              	UI_ProcessBar_SetCurVal:
 1625              	.LVL142:
 1626              	.LFB28:
 672:Dsp/widget/wgt_core/UI_Controller.c **** 
 673:Dsp/widget/wgt_core/UI_Controller.c **** static bool UI_ProcessBar_SetCurVal(UI_ProcessBarObj_TypeDef *Obj, uint32_t val)
 674:Dsp/widget/wgt_core/UI_Controller.c **** {
 1627              		.loc 1 674 1 is_stmt 1 view -0
 1628              		.cfi_startproc
 1629              		@ args = 0, pretend = 0, frame = 0
 1630              		@ frame_needed = 0, uses_anonymous_args = 0
 1631              		@ link register save eliminated.
 675:Dsp/widget/wgt_core/UI_Controller.c ****     if ((Obj == NULL) || (val > Obj->range))
 1632              		.loc 1 675 5 view .LVU448
 1633              		.loc 1 675 8 is_stmt 0 view .LVU449
 1634 0000 90B1     		cbz	r0, .L162
 1635              		.loc 1 675 36 discriminator 1 view .LVU450
 1636 0002 0369     		ldr	r3, [r0, #16]	@ unaligned
 1637              		.loc 1 675 23 discriminator 1 view .LVU451
 1638 0004 8B42     		cmp	r3, r1
 1639 0006 11D3     		bcc	.L163
 676:Dsp/widget/wgt_core/UI_Controller.c ****         return false;
ARM GAS  C:\Users\huav\AppData\Local\Temp\ccFpv2Vf.s 			page 43


 677:Dsp/widget/wgt_core/UI_Controller.c **** 
 678:Dsp/widget/wgt_core/UI_Controller.c ****     Obj->cur_val = val;
 1640              		.loc 1 678 5 is_stmt 1 view .LVU452
 1641              		.loc 1 678 18 is_stmt 0 view .LVU453
 1642 0008 4161     		str	r1, [r0, #20]	@ unaligned
 679:Dsp/widget/wgt_core/UI_Controller.c **** 
 680:Dsp/widget/wgt_core/UI_Controller.c ****     Obj->percent = ((float)val) / Obj->range;
 1643              		.loc 1 680 5 is_stmt 1 view .LVU454
 1644              		.loc 1 680 21 is_stmt 0 view .LVU455
 1645 000a 07EE901A 		vmov	s15, r1	@ int
 1646 000e F8EE677A 		vcvt.f32.u32	s15, s15
 1647              		.loc 1 680 33 view .LVU456
 1648 0012 07EE103A 		vmov	s14, r3	@ int
 1649 0016 B8EE477A 		vcvt.f32.u32	s14, s14
 1650              		.loc 1 680 18 view .LVU457
 1651 001a C7EE877A 		vdiv.f32	s15, s15, s14
 1652 001e 17EE903A 		vmov	r3, s15
 1653 0022 C360     		str	r3, [r0, #12]	@ unaligned
 681:Dsp/widget/wgt_core/UI_Controller.c **** 
 682:Dsp/widget/wgt_core/UI_Controller.c ****     return true;
 1654              		.loc 1 682 5 is_stmt 1 view .LVU458
 1655              		.loc 1 682 12 is_stmt 0 view .LVU459
 1656 0024 0120     		movs	r0, #1
 1657              	.LVL143:
 1658              		.loc 1 682 12 view .LVU460
 1659 0026 7047     		bx	lr
 1660              	.LVL144:
 1661              	.L162:
 676:Dsp/widget/wgt_core/UI_Controller.c **** 
 1662              		.loc 1 676 16 view .LVU461
 1663 0028 0020     		movs	r0, #0
 1664              	.LVL145:
 676:Dsp/widget/wgt_core/UI_Controller.c **** 
 1665              		.loc 1 676 16 view .LVU462
 1666 002a 7047     		bx	lr
 1667              	.LVL146:
 1668              	.L163:
 676:Dsp/widget/wgt_core/UI_Controller.c **** 
 1669              		.loc 1 676 16 view .LVU463
 1670 002c 0020     		movs	r0, #0
 1671              	.LVL147:
 683:Dsp/widget/wgt_core/UI_Controller.c **** }
 1672              		.loc 1 683 1 view .LVU464
 1673 002e 7047     		bx	lr
 1674              		.cfi_endproc
 1675              	.LFE28:
 1677              		.section	.text.UI_ProcessBar_Move,"ax",%progbits
 1678              		.align	1
 1679              		.syntax unified
 1680              		.thumb
 1681              		.thumb_func
 1682              		.fpu fpv4-sp-d16
 1684              	UI_ProcessBar_Move:
 1685              	.LVL148:
 1686              	.LFB29:
 684:Dsp/widget/wgt_core/UI_Controller.c **** static bool UI_ProcessBar_Move(UI_ProcessBarObj_TypeDef *Obj, uint16_t x, uint16_t y)
 685:Dsp/widget/wgt_core/UI_Controller.c **** {
ARM GAS  C:\Users\huav\AppData\Local\Temp\ccFpv2Vf.s 			page 44


 1687              		.loc 1 685 1 is_stmt 1 view -0
 1688              		.cfi_startproc
 1689              		@ args = 0, pretend = 0, frame = 0
 1690              		@ frame_needed = 0, uses_anonymous_args = 0
 686:Dsp/widget/wgt_core/UI_Controller.c ****     if (Obj == NULL)
 1691              		.loc 1 686 5 view .LVU466
 1692              		.loc 1 686 8 is_stmt 0 view .LVU467
 1693 0000 28B1     		cbz	r0, .L166
 685:Dsp/widget/wgt_core/UI_Controller.c ****     if (Obj == NULL)
 1694              		.loc 1 685 1 view .LVU468
 1695 0002 08B5     		push	{r3, lr}
 1696              	.LCFI30:
 1697              		.cfi_def_cfa_offset 8
 1698              		.cfi_offset 3, -8
 1699              		.cfi_offset 14, -4
 687:Dsp/widget/wgt_core/UI_Controller.c ****         return false;
 688:Dsp/widget/wgt_core/UI_Controller.c **** 
 689:Dsp/widget/wgt_core/UI_Controller.c ****     return UI_Move(&(Obj->Gen_Data), x, y);
 1700              		.loc 1 689 5 is_stmt 1 view .LVU469
 1701              		.loc 1 689 12 is_stmt 0 view .LVU470
 1702 0004 12B2     		sxth	r2, r2
 1703              		.loc 1 689 12 view .LVU471
 1704 0006 09B2     		sxth	r1, r1
 1705              		.loc 1 689 12 view .LVU472
 1706 0008 FFF7FEFF 		bl	UI_Move
 1707              	.LVL149:
 690:Dsp/widget/wgt_core/UI_Controller.c **** }
 1708              		.loc 1 690 1 view .LVU473
 1709 000c 08BD     		pop	{r3, pc}
 1710              	.LVL150:
 1711              	.L166:
 1712              	.LCFI31:
 1713              		.cfi_def_cfa_offset 0
 1714              		.cfi_restore 3
 1715              		.cfi_restore 14
 687:Dsp/widget/wgt_core/UI_Controller.c ****         return false;
 1716              		.loc 1 687 16 view .LVU474
 1717 000e 0020     		movs	r0, #0
 1718              	.LVL151:
 1719              		.loc 1 690 1 view .LVU475
 1720 0010 7047     		bx	lr
 1721              		.cfi_endproc
 1722              	.LFE29:
 1724              		.section	.text.UI_CheckBox_Ctl,"ax",%progbits
 1725              		.align	1
 1726              		.syntax unified
 1727              		.thumb
 1728              		.thumb_func
 1729              		.fpu fpv4-sp-d16
 1731              	UI_CheckBox_Ctl:
 1732              	.LVL152:
 1733              	.LFB17:
 470:Dsp/widget/wgt_core/UI_Controller.c ****     uint16_t StrDsp_x = 0;
 1734              		.loc 1 470 1 is_stmt 1 view -0
 1735              		.cfi_startproc
 1736              		@ args = 0, pretend = 0, frame = 8
 1737              		@ frame_needed = 0, uses_anonymous_args = 0
ARM GAS  C:\Users\huav\AppData\Local\Temp\ccFpv2Vf.s 			page 45


 470:Dsp/widget/wgt_core/UI_Controller.c ****     uint16_t StrDsp_x = 0;
 1738              		.loc 1 470 1 is_stmt 0 view .LVU477
 1739 0000 2DE9F04F 		push	{r4, r5, r6, r7, r8, r9, r10, fp, lr}
 1740              	.LCFI32:
 1741              		.cfi_def_cfa_offset 36
 1742              		.cfi_offset 4, -36
 1743              		.cfi_offset 5, -32
 1744              		.cfi_offset 6, -28
 1745              		.cfi_offset 7, -24
 1746              		.cfi_offset 8, -20
 1747              		.cfi_offset 9, -16
 1748              		.cfi_offset 10, -12
 1749              		.cfi_offset 11, -8
 1750              		.cfi_offset 14, -4
 1751 0004 85B0     		sub	sp, sp, #20
 1752              	.LCFI33:
 1753              		.cfi_def_cfa_offset 56
 471:Dsp/widget/wgt_core/UI_Controller.c ****     int16_t frame_y = 0;
 1754              		.loc 1 471 5 is_stmt 1 view .LVU478
 1755              	.LVL153:
 472:Dsp/widget/wgt_core/UI_Controller.c ****     int16_t str_y = Obj->Gen_Data.y;
 1756              		.loc 1 472 5 view .LVU479
 473:Dsp/widget/wgt_core/UI_Controller.c **** 
 1757              		.loc 1 473 5 view .LVU480
 473:Dsp/widget/wgt_core/UI_Controller.c **** 
 1758              		.loc 1 473 13 is_stmt 0 view .LVU481
 1759 0006 B0F90650 		ldrsh	r5, [r0, #6]	@ unaligned
 1760              	.LVL154:
 475:Dsp/widget/wgt_core/UI_Controller.c ****         (UI_DspInterface.draw_str == NULL) ||
 1761              		.loc 1 475 5 is_stmt 1 view .LVU482
 475:Dsp/widget/wgt_core/UI_Controller.c ****         (UI_DspInterface.draw_str == NULL) ||
 1762              		.loc 1 475 8 is_stmt 0 view .LVU483
 1763 000a 0028     		cmp	r0, #0
 1764 000c 49D0     		beq	.L174
 1765 000e 0446     		mov	r4, r0
 1766 0010 0FFA85F8 		sxth	r8, r5
 476:Dsp/widget/wgt_core/UI_Controller.c ****         (UI_DspInterface.fill_rectangle == NULL) ||
 1767              		.loc 1 476 25 discriminator 1 view .LVU484
 1768 0014 294B     		ldr	r3, .L181
 1769 0016 1F68     		ldr	r7, [r3]
 475:Dsp/widget/wgt_core/UI_Controller.c ****         (UI_DspInterface.draw_str == NULL) ||
 1770              		.loc 1 475 23 discriminator 1 view .LVU485
 1771 0018 002F     		cmp	r7, #0
 1772 001a 44D0     		beq	.L175
 477:Dsp/widget/wgt_core/UI_Controller.c ****         (UI_DspInterface.draw_rectangle == NULL))
 1773              		.loc 1 477 25 view .LVU486
 1774 001c DB69     		ldr	r3, [r3, #28]
 476:Dsp/widget/wgt_core/UI_Controller.c ****         (UI_DspInterface.fill_rectangle == NULL) ||
 1775              		.loc 1 476 44 view .LVU487
 1776 001e 002B     		cmp	r3, #0
 1777 0020 43D0     		beq	.L176
 478:Dsp/widget/wgt_core/UI_Controller.c ****         return false;
 1778              		.loc 1 478 25 view .LVU488
 1779 0022 264B     		ldr	r3, .L181
 1780 0024 1B69     		ldr	r3, [r3, #16]
 477:Dsp/widget/wgt_core/UI_Controller.c ****         (UI_DspInterface.draw_rectangle == NULL))
 1781              		.loc 1 477 50 view .LVU489
ARM GAS  C:\Users\huav\AppData\Local\Temp\ccFpv2Vf.s 			page 46


 1782 0026 002B     		cmp	r3, #0
 1783 0028 41D0     		beq	.L177
 481:Dsp/widget/wgt_core/UI_Controller.c ****     frame_y = Obj->Gen_Data.y + 3;
 1784              		.loc 1 481 5 is_stmt 1 view .LVU490
 481:Dsp/widget/wgt_core/UI_Controller.c ****     frame_y = Obj->Gen_Data.y + 3;
 1785              		.loc 1 481 36 is_stmt 0 view .LVU491
 1786 002a D0F800B0 		ldr	fp, [r0]	@ unaligned
 481:Dsp/widget/wgt_core/UI_Controller.c ****     frame_y = Obj->Gen_Data.y + 3;
 1787              		.loc 1 481 16 view .LVU492
 1788 002e 5846     		mov	r0, fp
 1789              	.LVL155:
 481:Dsp/widget/wgt_core/UI_Controller.c ****     frame_y = Obj->Gen_Data.y + 3;
 1790              		.loc 1 481 16 view .LVU493
 1791 0030 FFF7FEFF 		bl	strlen
 1792              	.LVL156:
 481:Dsp/widget/wgt_core/UI_Controller.c ****     frame_y = Obj->Gen_Data.y + 3;
 1793              		.loc 1 481 14 view .LVU494
 1794 0034 C600     		lsls	r6, r0, #3
 1795 0036 B6B2     		uxth	r6, r6
 1796              	.LVL157:
 482:Dsp/widget/wgt_core/UI_Controller.c ****     StrDsp_x += DEFAULT_CHECKBOX_OFFSET;
 1797              		.loc 1 482 5 is_stmt 1 view .LVU495
 482:Dsp/widget/wgt_core/UI_Controller.c ****     StrDsp_x += DEFAULT_CHECKBOX_OFFSET;
 1798              		.loc 1 482 28 is_stmt 0 view .LVU496
 1799 0038 ADB2     		uxth	r5, r5
 482:Dsp/widget/wgt_core/UI_Controller.c ****     StrDsp_x += DEFAULT_CHECKBOX_OFFSET;
 1800              		.loc 1 482 31 view .LVU497
 1801 003a 05F10309 		add	r9, r5, #3
 482:Dsp/widget/wgt_core/UI_Controller.c ****     StrDsp_x += DEFAULT_CHECKBOX_OFFSET;
 1802              		.loc 1 482 13 view .LVU498
 1803 003e 0FFA89F9 		sxth	r9, r9
 1804              	.LVL158:
 483:Dsp/widget/wgt_core/UI_Controller.c **** 
 1805              		.loc 1 483 5 is_stmt 1 view .LVU499
 483:Dsp/widget/wgt_core/UI_Controller.c **** 
 1806              		.loc 1 483 14 is_stmt 0 view .LVU500
 1807 0042 731D     		adds	r3, r6, #5
 1808 0044 9BB2     		uxth	r3, r3
 1809 0046 0393     		str	r3, [sp, #12]
 1810              	.LVL159:
 485:Dsp/widget/wgt_core/UI_Controller.c ****         str_y += 1;
 1811              		.loc 1 485 5 is_stmt 1 view .LVU501
 485:Dsp/widget/wgt_core/UI_Controller.c ****         str_y += 1;
 1812              		.loc 1 485 19 is_stmt 0 view .LVU502
 1813 0048 1D4B     		ldr	r3, .L181+4
 1814 004a 1878     		ldrb	r0, [r3]	@ zero_extendqisi2
 485:Dsp/widget/wgt_core/UI_Controller.c ****         str_y += 1;
 1815              		.loc 1 485 8 view .LVU503
 1816 004c 0828     		cmp	r0, #8
 1817 004e 23D0     		beq	.L180
 1818              	.LVL160:
 1819              	.L173:
 488:Dsp/widget/wgt_core/UI_Controller.c ****     UI_DspInterface.draw_rectangle(StrDsp_x, frame_y, DEFAULT_CHECKBOX_FRAME_SIZE, DEFAULT_CHECKBOX
 1820              		.loc 1 488 5 is_stmt 1 view .LVU504
 488:Dsp/widget/wgt_core/UI_Controller.c ****     UI_DspInterface.draw_rectangle(StrDsp_x, frame_y, DEFAULT_CHECKBOX_FRAME_SIZE, DEFAULT_CHECKBOX
 1821              		.loc 1 488 75 is_stmt 0 view .LVU505
 1822 0050 A288     		ldrh	r2, [r4, #4]	@ unaligned
ARM GAS  C:\Users\huav\AppData\Local\Temp\ccFpv2Vf.s 			page 47


 488:Dsp/widget/wgt_core/UI_Controller.c ****     UI_DspInterface.draw_rectangle(StrDsp_x, frame_y, DEFAULT_CHECKBOX_FRAME_SIZE, DEFAULT_CHECKBOX
 1823              		.loc 1 488 78 view .LVU506
 1824 0052 0332     		adds	r2, r2, #3
 488:Dsp/widget/wgt_core/UI_Controller.c ****     UI_DspInterface.draw_rectangle(StrDsp_x, frame_y, DEFAULT_CHECKBOX_FRAME_SIZE, DEFAULT_CHECKBOX
 1825              		.loc 1 488 5 view .LVU507
 1826 0054 4FF0010A 		mov	r10, #1
 1827 0058 CDF800A0 		str	r10, [sp]
 1828 005c 4346     		mov	r3, r8
 1829 005e 12B2     		sxth	r2, r2
 1830 0060 5946     		mov	r1, fp
 1831 0062 B847     		blx	r7
 1832              	.LVL161:
 489:Dsp/widget/wgt_core/UI_Controller.c **** 
 1833              		.loc 1 489 5 is_stmt 1 view .LVU508
 489:Dsp/widget/wgt_core/UI_Controller.c **** 
 1834              		.loc 1 489 20 is_stmt 0 view .LVU509
 1835 0064 154B     		ldr	r3, .L181
 1836 0066 1F69     		ldr	r7, [r3, #16]
 489:Dsp/widget/wgt_core/UI_Controller.c **** 
 1837              		.loc 1 489 5 view .LVU510
 1838 0068 CDF804A0 		str	r10, [sp, #4]
 1839 006c CDF800A0 		str	r10, [sp]
 1840 0070 0723     		movs	r3, #7
 1841 0072 1A46     		mov	r2, r3
 1842 0074 4946     		mov	r1, r9
 1843 0076 BDF90C00 		ldrsh	r0, [sp, #12]
 1844 007a B847     		blx	r7
 1845              	.LVL162:
 491:Dsp/widget/wgt_core/UI_Controller.c ****         UI_DspInterface.fill_rectangle(StrDsp_x + 2, frame_y + 2, DEFAULT_CHECKBOX_FILLFRAME, DEFAU
 1846              		.loc 1 491 5 is_stmt 1 view .LVU511
 491:Dsp/widget/wgt_core/UI_Controller.c ****         UI_DspInterface.fill_rectangle(StrDsp_x + 2, frame_y + 2, DEFAULT_CHECKBOX_FILLFRAME, DEFAU
 1847              		.loc 1 491 12 is_stmt 0 view .LVU512
 1848 007c 247C     		ldrb	r4, [r4, #16]	@ zero_extendqisi2
 1849              	.LVL163:
 491:Dsp/widget/wgt_core/UI_Controller.c ****         UI_DspInterface.fill_rectangle(StrDsp_x + 2, frame_y + 2, DEFAULT_CHECKBOX_FILLFRAME, DEFAU
 1850              		.loc 1 491 8 view .LVU513
 1851 007e C4B1     		cbz	r4, .L178
 492:Dsp/widget/wgt_core/UI_Controller.c **** 
 1852              		.loc 1 492 9 is_stmt 1 view .LVU514
 492:Dsp/widget/wgt_core/UI_Controller.c **** 
 1853              		.loc 1 492 24 is_stmt 0 view .LVU515
 1854 0080 0E4B     		ldr	r3, .L181
 1855 0082 DF69     		ldr	r7, [r3, #28]
 492:Dsp/widget/wgt_core/UI_Controller.c **** 
 1856              		.loc 1 492 49 view .LVU516
 1857 0084 F01D     		adds	r0, r6, #7
 492:Dsp/widget/wgt_core/UI_Controller.c **** 
 1858              		.loc 1 492 62 view .LVU517
 1859 0086 691D     		adds	r1, r5, #5
 492:Dsp/widget/wgt_core/UI_Controller.c **** 
 1860              		.loc 1 492 9 view .LVU518
 1861 0088 CDF800A0 		str	r10, [sp]
 1862 008c 0323     		movs	r3, #3
 1863 008e 1A46     		mov	r2, r3
 1864 0090 09B2     		sxth	r1, r1
 1865 0092 00B2     		sxth	r0, r0
 1866 0094 B847     		blx	r7
ARM GAS  C:\Users\huav\AppData\Local\Temp\ccFpv2Vf.s 			page 48


 1867              	.LVL164:
 1868 0096 0DE0     		b	.L172
 1869              	.LVL165:
 1870              	.L180:
 486:Dsp/widget/wgt_core/UI_Controller.c **** 
 1871              		.loc 1 486 9 is_stmt 1 view .LVU519
 486:Dsp/widget/wgt_core/UI_Controller.c **** 
 1872              		.loc 1 486 15 is_stmt 0 view .LVU520
 1873 0098 05F10108 		add	r8, r5, #1
 1874 009c 0FFA88F8 		sxth	r8, r8
 1875              	.LVL166:
 486:Dsp/widget/wgt_core/UI_Controller.c **** 
 1876              		.loc 1 486 15 view .LVU521
 1877 00a0 D6E7     		b	.L173
 1878              	.LVL167:
 1879              	.L174:
 479:Dsp/widget/wgt_core/UI_Controller.c **** 
 1880              		.loc 1 479 16 view .LVU522
 1881 00a2 0024     		movs	r4, #0
 1882 00a4 06E0     		b	.L172
 1883              	.L175:
 479:Dsp/widget/wgt_core/UI_Controller.c **** 
 1884              		.loc 1 479 16 view .LVU523
 1885 00a6 0024     		movs	r4, #0
 1886 00a8 04E0     		b	.L172
 1887              	.L176:
 479:Dsp/widget/wgt_core/UI_Controller.c **** 
 1888              		.loc 1 479 16 view .LVU524
 1889 00aa 0024     		movs	r4, #0
 1890 00ac 02E0     		b	.L172
 1891              	.L177:
 479:Dsp/widget/wgt_core/UI_Controller.c **** 
 1892              		.loc 1 479 16 view .LVU525
 1893 00ae 0024     		movs	r4, #0
 1894 00b0 00E0     		b	.L172
 1895              	.LVL168:
 1896              	.L178:
 494:Dsp/widget/wgt_core/UI_Controller.c **** }
 1897              		.loc 1 494 12 view .LVU526
 1898 00b2 0124     		movs	r4, #1
 1899              	.LVL169:
 1900              	.L172:
 495:Dsp/widget/wgt_core/UI_Controller.c **** 
 1901              		.loc 1 495 1 view .LVU527
 1902 00b4 2046     		mov	r0, r4
 1903 00b6 05B0     		add	sp, sp, #20
 1904              	.LCFI34:
 1905              		.cfi_def_cfa_offset 36
 1906              		@ sp needed
 1907 00b8 BDE8F08F 		pop	{r4, r5, r6, r7, r8, r9, r10, fp, pc}
 1908              	.L182:
 1909              		.align	2
 1910              	.L181:
 1911 00bc 00000000 		.word	.LANCHOR0
 1912 00c0 00000000 		.word	.LANCHOR1
 1913              		.cfi_endproc
 1914              	.LFE17:
ARM GAS  C:\Users\huav\AppData\Local\Temp\ccFpv2Vf.s 			page 49


 1916              		.section	.text.UI_SlideBar_CTL,"ax",%progbits
 1917              		.align	1
 1918              		.syntax unified
 1919              		.thumb
 1920              		.thumb_func
 1921              		.fpu fpv4-sp-d16
 1923              	UI_SlideBar_CTL:
 1924              	.LVL170:
 1925              	.LFB23:
 579:Dsp/widget/wgt_core/UI_Controller.c ****     int16_t Block_CoordX = 0;
 1926              		.loc 1 579 1 is_stmt 1 view -0
 1927              		.cfi_startproc
 1928              		@ args = 0, pretend = 0, frame = 0
 1929              		@ frame_needed = 0, uses_anonymous_args = 0
 580:Dsp/widget/wgt_core/UI_Controller.c ****     int16_t Block_CoordY = 0;
 1930              		.loc 1 580 5 view .LVU529
 581:Dsp/widget/wgt_core/UI_Controller.c ****     int16_t input_trip = 0;
 1931              		.loc 1 581 5 view .LVU530
 582:Dsp/widget/wgt_core/UI_Controller.c ****     int16_t str_y = Obj->Gen_Data.y;
 1932              		.loc 1 582 5 view .LVU531
 583:Dsp/widget/wgt_core/UI_Controller.c **** 
 1933              		.loc 1 583 5 view .LVU532
 583:Dsp/widget/wgt_core/UI_Controller.c **** 
 1934              		.loc 1 583 13 is_stmt 0 view .LVU533
 1935 0000 B0F90620 		ldrsh	r2, [r0, #6]	@ unaligned
 1936              	.LVL171:
 585:Dsp/widget/wgt_core/UI_Controller.c ****         (UI_DspInterface.draw_str == NULL) ||
 1937              		.loc 1 585 5 is_stmt 1 view .LVU534
 585:Dsp/widget/wgt_core/UI_Controller.c ****         (UI_DspInterface.draw_str == NULL) ||
 1938              		.loc 1 585 8 is_stmt 0 view .LVU535
 1939 0004 0028     		cmp	r0, #0
 1940 0006 00F08280 		beq	.L189
 579:Dsp/widget/wgt_core/UI_Controller.c ****     int16_t Block_CoordX = 0;
 1941              		.loc 1 579 1 discriminator 1 view .LVU536
 1942 000a 2DE9F041 		push	{r4, r5, r6, r7, r8, lr}
 1943              	.LCFI35:
 1944              		.cfi_def_cfa_offset 24
 1945              		.cfi_offset 4, -24
 1946              		.cfi_offset 5, -20
 1947              		.cfi_offset 6, -16
 1948              		.cfi_offset 7, -12
 1949              		.cfi_offset 8, -8
 1950              		.cfi_offset 14, -4
 1951 000e 82B0     		sub	sp, sp, #8
 1952              	.LCFI36:
 1953              		.cfi_def_cfa_offset 32
 1954 0010 0446     		mov	r4, r0
 1955 0012 1346     		mov	r3, r2
 586:Dsp/widget/wgt_core/UI_Controller.c ****         (UI_DspInterface.fill_rectangle == NULL))
 1956              		.loc 1 586 25 discriminator 1 view .LVU537
 1957 0014 4249     		ldr	r1, .L198
 1958 0016 0E68     		ldr	r6, [r1]
 585:Dsp/widget/wgt_core/UI_Controller.c ****         (UI_DspInterface.draw_str == NULL) ||
 1959              		.loc 1 585 23 discriminator 1 view .LVU538
 1960 0018 002E     		cmp	r6, #0
 1961 001a 7AD0     		beq	.L190
 587:Dsp/widget/wgt_core/UI_Controller.c ****         return false;
ARM GAS  C:\Users\huav\AppData\Local\Temp\ccFpv2Vf.s 			page 50


 1962              		.loc 1 587 25 view .LVU539
 1963 001c C969     		ldr	r1, [r1, #28]
 586:Dsp/widget/wgt_core/UI_Controller.c ****         (UI_DspInterface.fill_rectangle == NULL))
 1964              		.loc 1 586 44 view .LVU540
 1965 001e 0029     		cmp	r1, #0
 1966 0020 79D0     		beq	.L191
 590:Dsp/widget/wgt_core/UI_Controller.c ****         str_y += 1;
 1967              		.loc 1 590 5 is_stmt 1 view .LVU541
 590:Dsp/widget/wgt_core/UI_Controller.c ****         str_y += 1;
 1968              		.loc 1 590 19 is_stmt 0 view .LVU542
 1969 0022 4049     		ldr	r1, .L198+4
 1970 0024 0878     		ldrb	r0, [r1]	@ zero_extendqisi2
 1971              	.LVL172:
 590:Dsp/widget/wgt_core/UI_Controller.c ****         str_y += 1;
 1972              		.loc 1 590 8 view .LVU543
 1973 0026 0828     		cmp	r0, #8
 1974 0028 6AD0     		beq	.L197
 1975              	.LVL173:
 1976              	.L185:
 593:Dsp/widget/wgt_core/UI_Controller.c **** 
 1977              		.loc 1 593 5 is_stmt 1 view .LVU544
 593:Dsp/widget/wgt_core/UI_Controller.c **** 
 1978              		.loc 1 593 21 is_stmt 0 view .LVU545
 1979 002a D4F81520 		ldr	r2, [r4, #21]	@ unaligned
 1980 002e 07EE902A 		vmov	s15, r2	@ int
 593:Dsp/widget/wgt_core/UI_Controller.c **** 
 1981              		.loc 1 593 38 view .LVU546
 1982 0032 D4F81120 		ldr	r2, [r4, #17]	@ unaligned
 593:Dsp/widget/wgt_core/UI_Controller.c **** 
 1983              		.loc 1 593 33 view .LVU547
 1984 0036 07EE102A 		vmov	s14, r2
 1985 003a 77EEC77A 		vsub.f32	s15, s15, s14
 593:Dsp/widget/wgt_core/UI_Controller.c **** 
 1986              		.loc 1 593 16 view .LVU548
 1987 003e FDEEE77A 		vcvt.s32.f32	s15, s15
 1988 0042 17EE902A 		vmov	r2, s15	@ int
 1989 0046 15B2     		sxth	r5, r2
 1990              	.LVL174:
 595:Dsp/widget/wgt_core/UI_Controller.c **** 
 1991              		.loc 1 595 5 is_stmt 1 view .LVU549
 595:Dsp/widget/wgt_core/UI_Controller.c **** 
 1992              		.loc 1 595 75 is_stmt 0 view .LVU550
 1993 0048 A288     		ldrh	r2, [r4, #4]	@ unaligned
 595:Dsp/widget/wgt_core/UI_Controller.c **** 
 1994              		.loc 1 595 78 view .LVU551
 1995 004a 0332     		adds	r2, r2, #3
 595:Dsp/widget/wgt_core/UI_Controller.c **** 
 1996              		.loc 1 595 5 view .LVU552
 1997 004c 0121     		movs	r1, #1
 1998 004e 0091     		str	r1, [sp]
 1999 0050 12B2     		sxth	r2, r2
 2000 0052 2168     		ldr	r1, [r4]	@ unaligned
 2001 0054 B047     		blx	r6
 2002              	.LVL175:
 597:Dsp/widget/wgt_core/UI_Controller.c ****     {
 2003              		.loc 1 597 5 is_stmt 1 view .LVU553
 597:Dsp/widget/wgt_core/UI_Controller.c ****     {
ARM GAS  C:\Users\huav\AppData\Local\Temp\ccFpv2Vf.s 			page 51


 2004              		.loc 1 597 12 is_stmt 0 view .LVU554
 2005 0056 237B     		ldrb	r3, [r4, #12]	@ zero_extendqisi2
 597:Dsp/widget/wgt_core/UI_Controller.c ****     {
 2006              		.loc 1 597 8 view .LVU555
 2007 0058 002B     		cmp	r3, #0
 2008 005a 54D1     		bne	.L186
 599:Dsp/widget/wgt_core/UI_Controller.c ****         {
 2009              		.loc 1 599 9 is_stmt 1 view .LVU556
 599:Dsp/widget/wgt_core/UI_Controller.c ****         {
 2010              		.loc 1 599 16 is_stmt 0 view .LVU557
 2011 005c B4F92430 		ldrsh	r3, [r4, #36]	@ unaligned
 599:Dsp/widget/wgt_core/UI_Controller.c ****         {
 2012              		.loc 1 599 12 view .LVU558
 2013 0060 43B9     		cbnz	r3, .L187
 601:Dsp/widget/wgt_core/UI_Controller.c ****         }
 2014              		.loc 1 601 13 is_stmt 1 view .LVU559
 601:Dsp/widget/wgt_core/UI_Controller.c ****         }
 2015              		.loc 1 601 44 is_stmt 0 view .LVU560
 2016 0062 A688     		ldrh	r6, [r4, #4]	@ unaligned
 601:Dsp/widget/wgt_core/UI_Controller.c ****         }
 2017              		.loc 1 601 49 view .LVU561
 2018 0064 2068     		ldr	r0, [r4]	@ unaligned
 2019 0066 FFF7FEFF 		bl	strlen
 2020              	.LVL176:
 601:Dsp/widget/wgt_core/UI_Controller.c ****         }
 2021              		.loc 1 601 47 view .LVU562
 2022 006a 06EBC006 		add	r6, r6, r0, lsl #3
 2023 006e B6B2     		uxth	r6, r6
 601:Dsp/widget/wgt_core/UI_Controller.c ****         }
 2024              		.loc 1 601 90 view .LVU563
 2025 0070 0536     		adds	r6, r6, #5
 601:Dsp/widget/wgt_core/UI_Controller.c ****         }
 2026              		.loc 1 601 29 view .LVU564
 2027 0072 A684     		strh	r6, [r4, #36]	@ unaligned
 2028              	.L187:
 604:Dsp/widget/wgt_core/UI_Controller.c ****         {
 2029              		.loc 1 604 9 is_stmt 1 view .LVU565
 604:Dsp/widget/wgt_core/UI_Controller.c ****         {
 2030              		.loc 1 604 16 is_stmt 0 view .LVU566
 2031 0074 B4F92630 		ldrsh	r3, [r4, #38]	@ unaligned
 604:Dsp/widget/wgt_core/UI_Controller.c ****         {
 2032              		.loc 1 604 12 view .LVU567
 2033 0078 13B9     		cbnz	r3, .L188
 606:Dsp/widget/wgt_core/UI_Controller.c ****         }
 2034              		.loc 1 606 13 is_stmt 1 view .LVU568
 606:Dsp/widget/wgt_core/UI_Controller.c ****         }
 2035              		.loc 1 606 44 is_stmt 0 view .LVU569
 2036 007a E388     		ldrh	r3, [r4, #6]	@ unaligned
 606:Dsp/widget/wgt_core/UI_Controller.c ****         }
 2037              		.loc 1 606 47 view .LVU570
 2038 007c 0533     		adds	r3, r3, #5
 606:Dsp/widget/wgt_core/UI_Controller.c ****         }
 2039              		.loc 1 606 29 view .LVU571
 2040 007e E384     		strh	r3, [r4, #38]	@ unaligned
 2041              	.L188:
 609:Dsp/widget/wgt_core/UI_Controller.c ****         Block_CoordX += (Obj->cur_val - Obj->limit_min) / ((float)(input_trip)) * (DEFAULT_SLIDERBA
 2042              		.loc 1 609 9 is_stmt 1 view .LVU572
ARM GAS  C:\Users\huav\AppData\Local\Temp\ccFpv2Vf.s 			page 52


 609:Dsp/widget/wgt_core/UI_Controller.c ****         Block_CoordX += (Obj->cur_val - Obj->limit_min) / ((float)(input_trip)) * (DEFAULT_SLIDERBA
 2043              		.loc 1 609 22 is_stmt 0 view .LVU573
 2044 0080 B4F92400 		ldrsh	r0, [r4, #36]	@ unaligned
 2045              	.LVL177:
 610:Dsp/widget/wgt_core/UI_Controller.c **** 
 2046              		.loc 1 610 9 is_stmt 1 view .LVU574
 610:Dsp/widget/wgt_core/UI_Controller.c **** 
 2047              		.loc 1 610 29 is_stmt 0 view .LVU575
 2048 0084 D4F81F30 		ldr	r3, [r4, #31]	@ unaligned
 2049 0088 06EE903A 		vmov	s13, r3	@ int
 610:Dsp/widget/wgt_core/UI_Controller.c **** 
 2050              		.loc 1 610 44 view .LVU576
 2051 008c D4F81130 		ldr	r3, [r4, #17]	@ unaligned
 610:Dsp/widget/wgt_core/UI_Controller.c **** 
 2052              		.loc 1 610 39 view .LVU577
 2053 0090 07EE903A 		vmov	s15, r3
 2054 0094 76EEE76A 		vsub.f32	s13, s13, s15
 610:Dsp/widget/wgt_core/UI_Controller.c **** 
 2055              		.loc 1 610 60 view .LVU578
 2056 0098 07EE905A 		vmov	s15, r5	@ int
 2057 009c B8EEE77A 		vcvt.f32.s32	s14, s15
 610:Dsp/widget/wgt_core/UI_Controller.c **** 
 2058              		.loc 1 610 57 view .LVU579
 2059 00a0 C6EE877A 		vdiv.f32	s15, s13, s14
 610:Dsp/widget/wgt_core/UI_Controller.c **** 
 2060              		.loc 1 610 81 view .LVU580
 2061 00a4 9FED207A 		vldr.32	s14, .L198+8
 2062 00a8 27EE877A 		vmul.f32	s14, s15, s14
 610:Dsp/widget/wgt_core/UI_Controller.c **** 
 2063              		.loc 1 610 22 view .LVU581
 2064 00ac 07EE900A 		vmov	s15, r0	@ int
 2065 00b0 F8EEE77A 		vcvt.f32.s32	s15, s15
 2066 00b4 77EE877A 		vadd.f32	s15, s15, s14
 2067 00b8 FDEEE77A 		vcvt.s32.f32	s15, s15
 2068 00bc 17EE903A 		vmov	r3, s15	@ int
 2069 00c0 0FFA83F8 		sxth	r8, r3
 2070              	.LVL178:
 612:Dsp/widget/wgt_core/UI_Controller.c **** 
 2071              		.loc 1 612 9 is_stmt 1 view .LVU582
 612:Dsp/widget/wgt_core/UI_Controller.c **** 
 2072              		.loc 1 612 24 is_stmt 0 view .LVU583
 2073 00c4 164F     		ldr	r7, .L198
 612:Dsp/widget/wgt_core/UI_Controller.c **** 
 2074              		.loc 1 612 9 view .LVU584
 2075 00c6 0125     		movs	r5, #1
 2076              	.LVL179:
 612:Dsp/widget/wgt_core/UI_Controller.c **** 
 2077              		.loc 1 612 9 view .LVU585
 2078 00c8 0095     		str	r5, [sp]
 2079 00ca 0223     		movs	r3, #2
 2080 00cc 2822     		movs	r2, #40
 2081 00ce B4F92610 		ldrsh	r1, [r4, #38]	@ unaligned
 2082 00d2 FE69     		ldr	r6, [r7, #28]
 2083 00d4 B047     		blx	r6
 2084              	.LVL180:
 614:Dsp/widget/wgt_core/UI_Controller.c ****         UI_DspInterface.fill_rectangle(Block_CoordX, Block_CoordY, DEFAULT_SLIDERBAR_BLOCK_WIDTH, D
 2085              		.loc 1 614 9 is_stmt 1 view .LVU586
ARM GAS  C:\Users\huav\AppData\Local\Temp\ccFpv2Vf.s 			page 53


 614:Dsp/widget/wgt_core/UI_Controller.c ****         UI_DspInterface.fill_rectangle(Block_CoordX, Block_CoordY, DEFAULT_SLIDERBAR_BLOCK_WIDTH, D
 2086              		.loc 1 614 37 is_stmt 0 view .LVU587
 2087 00d6 E488     		ldrh	r4, [r4, #6]	@ unaligned
 2088              	.LVL181:
 614:Dsp/widget/wgt_core/UI_Controller.c ****         UI_DspInterface.fill_rectangle(Block_CoordX, Block_CoordY, DEFAULT_SLIDERBAR_BLOCK_WIDTH, D
 2089              		.loc 1 614 40 view .LVU588
 2090 00d8 E11C     		adds	r1, r4, #3
 2091              	.LVL182:
 615:Dsp/widget/wgt_core/UI_Controller.c ****         UI_DspInterface.fill_rectangle(Block_CoordX, Block_CoordY + (DEFAULT_SLIDERBAR_BLOCK_HIGH /
 2092              		.loc 1 615 9 is_stmt 1 view .LVU589
 2093 00da 0095     		str	r5, [sp]
 2094 00dc 0623     		movs	r3, #6
 2095 00de 0322     		movs	r2, #3
 2096 00e0 09B2     		sxth	r1, r1
 615:Dsp/widget/wgt_core/UI_Controller.c ****         UI_DspInterface.fill_rectangle(Block_CoordX, Block_CoordY + (DEFAULT_SLIDERBAR_BLOCK_HIGH /
 2097              		.loc 1 615 9 is_stmt 0 view .LVU590
 2098 00e2 4046     		mov	r0, r8
 2099 00e4 FE69     		ldr	r6, [r7, #28]
 2100 00e6 B047     		blx	r6
 2101              	.LVL183:
 616:Dsp/widget/wgt_core/UI_Controller.c ****     }
 2102              		.loc 1 616 9 is_stmt 1 view .LVU591
 616:Dsp/widget/wgt_core/UI_Controller.c ****     }
 2103              		.loc 1 616 24 is_stmt 0 view .LVU592
 2104 00e8 FF69     		ldr	r7, [r7, #28]
 616:Dsp/widget/wgt_core/UI_Controller.c ****     }
 2105              		.loc 1 616 67 view .LVU593
 2106 00ea 611D     		adds	r1, r4, #5
 616:Dsp/widget/wgt_core/UI_Controller.c ****     }
 2107              		.loc 1 616 9 view .LVU594
 2108 00ec 0095     		str	r5, [sp]
 2109 00ee 0223     		movs	r3, #2
 2110 00f0 0322     		movs	r2, #3
 2111 00f2 09B2     		sxth	r1, r1
 2112 00f4 4046     		mov	r0, r8
 2113 00f6 B847     		blx	r7
 2114              	.LVL184:
 624:Dsp/widget/wgt_core/UI_Controller.c **** }
 2115              		.loc 1 624 12 view .LVU595
 2116 00f8 2846     		mov	r0, r5
 2117              	.LVL185:
 2118              	.L184:
 625:Dsp/widget/wgt_core/UI_Controller.c **** 
 2119              		.loc 1 625 1 view .LVU596
 2120 00fa 02B0     		add	sp, sp, #8
 2121              	.LCFI37:
 2122              		.cfi_remember_state
 2123              		.cfi_def_cfa_offset 24
 2124              		@ sp needed
 2125 00fc BDE8F081 		pop	{r4, r5, r6, r7, r8, pc}
 2126              	.LVL186:
 2127              	.L197:
 2128              	.LCFI38:
 2129              		.cfi_restore_state
 591:Dsp/widget/wgt_core/UI_Controller.c **** 
 2130              		.loc 1 591 9 is_stmt 1 view .LVU597
 591:Dsp/widget/wgt_core/UI_Controller.c **** 
ARM GAS  C:\Users\huav\AppData\Local\Temp\ccFpv2Vf.s 			page 54


 2131              		.loc 1 591 15 is_stmt 0 view .LVU598
 2132 0100 0132     		adds	r2, r2, #1
 2133              	.LVL187:
 591:Dsp/widget/wgt_core/UI_Controller.c **** 
 2134              		.loc 1 591 15 view .LVU599
 2135 0102 13B2     		sxth	r3, r2
 2136              	.LVL188:
 591:Dsp/widget/wgt_core/UI_Controller.c **** 
 2137              		.loc 1 591 15 view .LVU600
 2138 0104 91E7     		b	.L185
 2139              	.LVL189:
 2140              	.L186:
 618:Dsp/widget/wgt_core/UI_Controller.c ****     {
 2141              		.loc 1 618 10 is_stmt 1 view .LVU601
 618:Dsp/widget/wgt_core/UI_Controller.c ****     {
 2142              		.loc 1 618 13 is_stmt 0 view .LVU602
 2143 0106 012B     		cmp	r3, #1
 2144 0108 07D1     		bne	.L192
 624:Dsp/widget/wgt_core/UI_Controller.c **** }
 2145              		.loc 1 624 12 view .LVU603
 2146 010a 0120     		movs	r0, #1
 2147 010c F5E7     		b	.L184
 2148              	.LVL190:
 2149              	.L189:
 2150              	.LCFI39:
 2151              		.cfi_def_cfa_offset 0
 2152              		.cfi_restore 4
 2153              		.cfi_restore 5
 2154              		.cfi_restore 6
 2155              		.cfi_restore 7
 2156              		.cfi_restore 8
 2157              		.cfi_restore 14
 588:Dsp/widget/wgt_core/UI_Controller.c **** 
 2158              		.loc 1 588 16 view .LVU604
 2159 010e 0020     		movs	r0, #0
 2160              	.LVL191:
 625:Dsp/widget/wgt_core/UI_Controller.c **** 
 2161              		.loc 1 625 1 view .LVU605
 2162 0110 7047     		bx	lr
 2163              	.LVL192:
 2164              	.L190:
 2165              	.LCFI40:
 2166              		.cfi_def_cfa_offset 32
 2167              		.cfi_offset 4, -24
 2168              		.cfi_offset 5, -20
 2169              		.cfi_offset 6, -16
 2170              		.cfi_offset 7, -12
 2171              		.cfi_offset 8, -8
 2172              		.cfi_offset 14, -4
 588:Dsp/widget/wgt_core/UI_Controller.c **** 
 2173              		.loc 1 588 16 view .LVU606
 2174 0112 0020     		movs	r0, #0
 2175              	.LVL193:
 588:Dsp/widget/wgt_core/UI_Controller.c **** 
 2176              		.loc 1 588 16 view .LVU607
 2177 0114 F1E7     		b	.L184
 2178              	.LVL194:
ARM GAS  C:\Users\huav\AppData\Local\Temp\ccFpv2Vf.s 			page 55


 2179              	.L191:
 588:Dsp/widget/wgt_core/UI_Controller.c **** 
 2180              		.loc 1 588 16 view .LVU608
 2181 0116 0020     		movs	r0, #0
 2182              	.LVL195:
 588:Dsp/widget/wgt_core/UI_Controller.c **** 
 2183              		.loc 1 588 16 view .LVU609
 2184 0118 EFE7     		b	.L184
 2185              	.LVL196:
 2186              	.L192:
 622:Dsp/widget/wgt_core/UI_Controller.c **** 
 2187              		.loc 1 622 16 view .LVU610
 2188 011a 0020     		movs	r0, #0
 2189 011c EDE7     		b	.L184
 2190              	.L199:
 2191 011e 00BF     		.align	2
 2192              	.L198:
 2193 0120 00000000 		.word	.LANCHOR0
 2194 0124 00000000 		.word	.LANCHOR1
 2195 0128 00001442 		.word	1108606976
 2196              		.cfi_endproc
 2197              	.LFE23:
 2199              		.section	.text.UI_ProcessBar_Ctl,"ax",%progbits
 2200              		.align	1
 2201              		.syntax unified
 2202              		.thumb
 2203              		.thumb_func
 2204              		.fpu fpv4-sp-d16
 2206              	UI_ProcessBar_Ctl:
 2207              	.LVL197:
 2208              	.LFB30:
 691:Dsp/widget/wgt_core/UI_Controller.c **** 
 692:Dsp/widget/wgt_core/UI_Controller.c **** static bool UI_ProcessBar_Ctl(UI_ProcessBarObj_TypeDef *Obj)
 693:Dsp/widget/wgt_core/UI_Controller.c **** {
 2209              		.loc 1 693 1 is_stmt 1 view -0
 2210              		.cfi_startproc
 2211              		@ args = 0, pretend = 0, frame = 16
 2212              		@ frame_needed = 0, uses_anonymous_args = 0
 2213              		.loc 1 693 1 is_stmt 0 view .LVU612
 2214 0000 00B5     		push	{lr}
 2215              	.LCFI41:
 2216              		.cfi_def_cfa_offset 4
 2217              		.cfi_offset 14, -4
 2218 0002 85B0     		sub	sp, sp, #20
 2219              	.LCFI42:
 2220              		.cfi_def_cfa_offset 24
 694:Dsp/widget/wgt_core/UI_Controller.c ****     char dig_str[3];
 2221              		.loc 1 694 5 is_stmt 1 view .LVU613
 695:Dsp/widget/wgt_core/UI_Controller.c ****     memset(dig_str, NULL, 3);
 2222              		.loc 1 695 5 view .LVU614
 2223 0004 0023     		movs	r3, #0
 2224 0006 ADF80C30 		strh	r3, [sp, #12]	@ movhi
 2225 000a 8DF80E30 		strb	r3, [sp, #14]
 696:Dsp/widget/wgt_core/UI_Controller.c **** 
 697:Dsp/widget/wgt_core/UI_Controller.c ****     if ((UI_DspInterface.draw_radius_rectangle == NULL) ||
 2226              		.loc 1 697 5 view .LVU615
 2227              		.loc 1 697 25 is_stmt 0 view .LVU616
ARM GAS  C:\Users\huav\AppData\Local\Temp\ccFpv2Vf.s 			page 56


 2228 000e 0D4B     		ldr	r3, .L205
 2229 0010 DB68     		ldr	r3, [r3, #12]
 2230              		.loc 1 697 8 view .LVU617
 2231 0012 9BB1     		cbz	r3, .L202
 698:Dsp/widget/wgt_core/UI_Controller.c ****         (UI_DspInterface.draw_str == NULL))
 2232              		.loc 1 698 25 discriminator 1 view .LVU618
 2233 0014 0B4B     		ldr	r3, .L205
 2234 0016 1B68     		ldr	r3, [r3]
 697:Dsp/widget/wgt_core/UI_Controller.c ****         (UI_DspInterface.draw_str == NULL))
 2235              		.loc 1 697 57 discriminator 1 view .LVU619
 2236 0018 93B1     		cbz	r3, .L203
 699:Dsp/widget/wgt_core/UI_Controller.c ****         return false;
 700:Dsp/widget/wgt_core/UI_Controller.c **** 
 701:Dsp/widget/wgt_core/UI_Controller.c ****     itoa((uint8_t)(Obj->percent), dig_str, 10);
 2237              		.loc 1 701 5 is_stmt 1 view .LVU620
 2238              		.loc 1 701 23 is_stmt 0 view .LVU621
 2239 001a C368     		ldr	r3, [r0, #12]	@ unaligned
 2240              		.loc 1 701 10 view .LVU622
 2241 001c 07EE903A 		vmov	s15, r3
 2242 0020 FCEEE77A 		vcvt.u32.f32	s15, s15
 2243 0024 CDED017A 		vstr.32	s15, [sp, #4]	@ int
 2244              		.loc 1 701 5 view .LVU623
 2245 0028 0A22     		movs	r2, #10
 2246 002a 03A9     		add	r1, sp, #12
 2247 002c 9DF80400 		ldrb	r0, [sp, #4]	@ zero_extendqisi2
 2248              	.LVL198:
 2249              		.loc 1 701 5 view .LVU624
 2250 0030 FFF7FEFF 		bl	itoa
 2251              	.LVL199:
 702:Dsp/widget/wgt_core/UI_Controller.c **** 
 703:Dsp/widget/wgt_core/UI_Controller.c ****     return true;
 2252              		.loc 1 703 5 is_stmt 1 view .LVU625
 2253              		.loc 1 703 12 is_stmt 0 view .LVU626
 2254 0034 0120     		movs	r0, #1
 2255              	.L201:
 704:Dsp/widget/wgt_core/UI_Controller.c **** }
 2256              		.loc 1 704 1 view .LVU627
 2257 0036 05B0     		add	sp, sp, #20
 2258              	.LCFI43:
 2259              		.cfi_remember_state
 2260              		.cfi_def_cfa_offset 4
 2261              		@ sp needed
 2262 0038 5DF804FB 		ldr	pc, [sp], #4
 2263              	.LVL200:
 2264              	.L202:
 2265              	.LCFI44:
 2266              		.cfi_restore_state
 699:Dsp/widget/wgt_core/UI_Controller.c ****         return false;
 2267              		.loc 1 699 16 view .LVU628
 2268 003c 0020     		movs	r0, #0
 2269              	.LVL201:
 699:Dsp/widget/wgt_core/UI_Controller.c ****         return false;
 2270              		.loc 1 699 16 view .LVU629
 2271 003e FAE7     		b	.L201
 2272              	.LVL202:
 2273              	.L203:
 699:Dsp/widget/wgt_core/UI_Controller.c ****         return false;
ARM GAS  C:\Users\huav\AppData\Local\Temp\ccFpv2Vf.s 			page 57


 2274              		.loc 1 699 16 view .LVU630
 2275 0040 0020     		movs	r0, #0
 2276              	.LVL203:
 699:Dsp/widget/wgt_core/UI_Controller.c ****         return false;
 2277              		.loc 1 699 16 view .LVU631
 2278 0042 F8E7     		b	.L201
 2279              	.L206:
 2280              		.align	2
 2281              	.L205:
 2282 0044 00000000 		.word	.LANCHOR0
 2283              		.cfi_endproc
 2284              	.LFE30:
 2286              		.section	.text.UI_Set_FontType,"ax",%progbits
 2287              		.align	1
 2288              		.global	UI_Set_FontType
 2289              		.syntax unified
 2290              		.thumb
 2291              		.thumb_func
 2292              		.fpu fpv4-sp-d16
 2294              	UI_Set_FontType:
 2295              	.LVL204:
 2296              	.LFB0:
  94:Dsp/widget/wgt_core/UI_Controller.c ****     if (font < Font_8 || font > Font_16)
 2297              		.loc 1 94 1 is_stmt 1 view -0
 2298              		.cfi_startproc
 2299              		@ args = 0, pretend = 0, frame = 0
 2300              		@ frame_needed = 0, uses_anonymous_args = 0
 2301              		@ link register save eliminated.
  95:Dsp/widget/wgt_core/UI_Controller.c ****         return false;
 2302              		.loc 1 95 5 view .LVU633
  95:Dsp/widget/wgt_core/UI_Controller.c ****         return false;
 2303              		.loc 1 95 23 is_stmt 0 view .LVU634
 2304 0000 A0F10803 		sub	r3, r0, #8
 2305 0004 DBB2     		uxtb	r3, r3
  95:Dsp/widget/wgt_core/UI_Controller.c ****         return false;
 2306              		.loc 1 95 8 view .LVU635
 2307 0006 082B     		cmp	r3, #8
 2308 0008 03D8     		bhi	.L209
  98:Dsp/widget/wgt_core/UI_Controller.c **** 
 2309              		.loc 1 98 5 is_stmt 1 view .LVU636
  98:Dsp/widget/wgt_core/UI_Controller.c **** 
 2310              		.loc 1 98 15 is_stmt 0 view .LVU637
 2311 000a 034B     		ldr	r3, .L210
 2312 000c 1870     		strb	r0, [r3]
 100:Dsp/widget/wgt_core/UI_Controller.c **** }
 2313              		.loc 1 100 5 is_stmt 1 view .LVU638
 100:Dsp/widget/wgt_core/UI_Controller.c **** }
 2314              		.loc 1 100 12 is_stmt 0 view .LVU639
 2315 000e 0120     		movs	r0, #1
 2316              	.LVL205:
 100:Dsp/widget/wgt_core/UI_Controller.c **** }
 2317              		.loc 1 100 12 view .LVU640
 2318 0010 7047     		bx	lr
 2319              	.LVL206:
 2320              	.L209:
  96:Dsp/widget/wgt_core/UI_Controller.c **** 
 2321              		.loc 1 96 16 view .LVU641
ARM GAS  C:\Users\huav\AppData\Local\Temp\ccFpv2Vf.s 			page 58


 2322 0012 0020     		movs	r0, #0
 2323              	.LVL207:
 101:Dsp/widget/wgt_core/UI_Controller.c **** 
 2324              		.loc 1 101 1 view .LVU642
 2325 0014 7047     		bx	lr
 2326              	.L211:
 2327 0016 00BF     		.align	2
 2328              	.L210:
 2329 0018 00000000 		.word	.LANCHOR1
 2330              		.cfi_endproc
 2331              	.LFE0:
 2333              		.section	.text.UI_Set_DspInterface,"ax",%progbits
 2334              		.align	1
 2335              		.global	UI_Set_DspInterface
 2336              		.syntax unified
 2337              		.thumb
 2338              		.thumb_func
 2339              		.fpu fpv4-sp-d16
 2341              	UI_Set_DspInterface:
 2342              	.LVL208:
 2343              	.LFB1:
 114:Dsp/widget/wgt_core/UI_Controller.c ****     UI_DspInterface.draw_circle = circle;
 2344              		.loc 1 114 1 is_stmt 1 view -0
 2345              		.cfi_startproc
 2346              		@ args = 28, pretend = 0, frame = 0
 2347              		@ frame_needed = 0, uses_anonymous_args = 0
 2348              		@ link register save eliminated.
 114:Dsp/widget/wgt_core/UI_Controller.c ****     UI_DspInterface.draw_circle = circle;
 2349              		.loc 1 114 1 is_stmt 0 view .LVU644
 2350 0000 30B4     		push	{r4, r5}
 2351              	.LCFI45:
 2352              		.cfi_def_cfa_offset 8
 2353              		.cfi_offset 4, -8
 2354              		.cfi_offset 5, -4
 115:Dsp/widget/wgt_core/UI_Controller.c ****     UI_DspInterface.draw_circle_section = circle_section;
 2355              		.loc 1 115 5 is_stmt 1 view .LVU645
 115:Dsp/widget/wgt_core/UI_Controller.c ****     UI_DspInterface.draw_circle_section = circle_section;
 2356              		.loc 1 115 33 is_stmt 0 view .LVU646
 2357 0002 0A4C     		ldr	r4, .L214
 2358 0004 029D     		ldr	r5, [sp, #8]
 2359 0006 6561     		str	r5, [r4, #20]
 116:Dsp/widget/wgt_core/UI_Controller.c ****     UI_DspInterface.draw_line = line;
 2360              		.loc 1 116 5 is_stmt 1 view .LVU647
 116:Dsp/widget/wgt_core/UI_Controller.c ****     UI_DspInterface.draw_line = line;
 2361              		.loc 1 116 41 is_stmt 0 view .LVU648
 2362 0008 039D     		ldr	r5, [sp, #12]
 2363 000a A561     		str	r5, [r4, #24]
 117:Dsp/widget/wgt_core/UI_Controller.c ****     UI_DspInterface.draw_point = point;
 2364              		.loc 1 117 5 is_stmt 1 view .LVU649
 117:Dsp/widget/wgt_core/UI_Controller.c ****     UI_DspInterface.draw_point = point;
 2365              		.loc 1 117 31 is_stmt 0 view .LVU650
 2366 000c A160     		str	r1, [r4, #8]
 118:Dsp/widget/wgt_core/UI_Controller.c ****     UI_DspInterface.draw_rectangle = rectangle;
 2367              		.loc 1 118 5 is_stmt 1 view .LVU651
 118:Dsp/widget/wgt_core/UI_Controller.c ****     UI_DspInterface.draw_rectangle = rectangle;
 2368              		.loc 1 118 32 is_stmt 0 view .LVU652
 2369 000e 6060     		str	r0, [r4, #4]
ARM GAS  C:\Users\huav\AppData\Local\Temp\ccFpv2Vf.s 			page 59


 119:Dsp/widget/wgt_core/UI_Controller.c ****     UI_DspInterface.draw_radius_rectangle = radius_rectangle;
 2370              		.loc 1 119 5 is_stmt 1 view .LVU653
 119:Dsp/widget/wgt_core/UI_Controller.c ****     UI_DspInterface.draw_radius_rectangle = radius_rectangle;
 2371              		.loc 1 119 36 is_stmt 0 view .LVU654
 2372 0010 2261     		str	r2, [r4, #16]
 120:Dsp/widget/wgt_core/UI_Controller.c ****     UI_DspInterface.draw_str = str;
 2373              		.loc 1 120 5 is_stmt 1 view .LVU655
 120:Dsp/widget/wgt_core/UI_Controller.c ****     UI_DspInterface.draw_str = str;
 2374              		.loc 1 120 43 is_stmt 0 view .LVU656
 2375 0012 E360     		str	r3, [r4, #12]
 121:Dsp/widget/wgt_core/UI_Controller.c **** 
 2376              		.loc 1 121 5 is_stmt 1 view .LVU657
 121:Dsp/widget/wgt_core/UI_Controller.c **** 
 2377              		.loc 1 121 30 is_stmt 0 view .LVU658
 2378 0014 049B     		ldr	r3, [sp, #16]
 2379              	.LVL209:
 121:Dsp/widget/wgt_core/UI_Controller.c **** 
 2380              		.loc 1 121 30 view .LVU659
 2381 0016 2360     		str	r3, [r4]
 123:Dsp/widget/wgt_core/UI_Controller.c ****     UI_DspInterface.fill_circle_section = fillcircle_section;
 2382              		.loc 1 123 5 is_stmt 1 view .LVU660
 123:Dsp/widget/wgt_core/UI_Controller.c ****     UI_DspInterface.fill_circle_section = fillcircle_section;
 2383              		.loc 1 123 33 is_stmt 0 view .LVU661
 2384 0018 059B     		ldr	r3, [sp, #20]
 2385 001a 2362     		str	r3, [r4, #32]
 124:Dsp/widget/wgt_core/UI_Controller.c ****     UI_DspInterface.fill_radius_rectangle = fill_radius_rectangle;
 2386              		.loc 1 124 5 is_stmt 1 view .LVU662
 124:Dsp/widget/wgt_core/UI_Controller.c ****     UI_DspInterface.fill_radius_rectangle = fill_radius_rectangle;
 2387              		.loc 1 124 41 is_stmt 0 view .LVU663
 2388 001c 069B     		ldr	r3, [sp, #24]
 2389 001e 6362     		str	r3, [r4, #36]
 125:Dsp/widget/wgt_core/UI_Controller.c ****     UI_DspInterface.fill_rectangle = fill_rectangle;
 2390              		.loc 1 125 5 is_stmt 1 view .LVU664
 125:Dsp/widget/wgt_core/UI_Controller.c ****     UI_DspInterface.fill_rectangle = fill_rectangle;
 2391              		.loc 1 125 43 is_stmt 0 view .LVU665
 2392 0020 089B     		ldr	r3, [sp, #32]
 2393 0022 A362     		str	r3, [r4, #40]
 126:Dsp/widget/wgt_core/UI_Controller.c **** }
 2394              		.loc 1 126 5 is_stmt 1 view .LVU666
 126:Dsp/widget/wgt_core/UI_Controller.c **** }
 2395              		.loc 1 126 36 is_stmt 0 view .LVU667
 2396 0024 079B     		ldr	r3, [sp, #28]
 2397 0026 E361     		str	r3, [r4, #28]
 127:Dsp/widget/wgt_core/UI_Controller.c **** 
 2398              		.loc 1 127 1 view .LVU668
 2399 0028 30BC     		pop	{r4, r5}
 2400              	.LCFI46:
 2401              		.cfi_restore 5
 2402              		.cfi_restore 4
 2403              		.cfi_def_cfa_offset 0
 2404              	.LVL210:
 127:Dsp/widget/wgt_core/UI_Controller.c **** 
 2405              		.loc 1 127 1 view .LVU669
 2406 002a 7047     		bx	lr
 2407              	.L215:
 2408              		.align	2
 2409              	.L214:
ARM GAS  C:\Users\huav\AppData\Local\Temp\ccFpv2Vf.s 			page 60


 2410 002c 00000000 		.word	.LANCHOR0
 2411              		.cfi_endproc
 2412              	.LFE1:
 2414              		.section	.text.UI_Set_GetWidgetWidthMathod,"ax",%progbits
 2415              		.align	1
 2416              		.global	UI_Set_GetWidgetWidthMathod
 2417              		.syntax unified
 2418              		.thumb
 2419              		.thumb_func
 2420              		.fpu fpv4-sp-d16
 2422              	UI_Set_GetWidgetWidthMathod:
 2423              	.LVL211:
 2424              	.LFB2:
 130:Dsp/widget/wgt_core/UI_Controller.c ****     UI_Get_WidgetWidth = mathod;
 2425              		.loc 1 130 1 is_stmt 1 view -0
 2426              		.cfi_startproc
 2427              		@ args = 0, pretend = 0, frame = 0
 2428              		@ frame_needed = 0, uses_anonymous_args = 0
 2429              		@ link register save eliminated.
 131:Dsp/widget/wgt_core/UI_Controller.c **** }
 2430              		.loc 1 131 5 view .LVU671
 131:Dsp/widget/wgt_core/UI_Controller.c **** }
 2431              		.loc 1 131 24 is_stmt 0 view .LVU672
 2432 0000 014B     		ldr	r3, .L217
 2433 0002 1860     		str	r0, [r3]
 132:Dsp/widget/wgt_core/UI_Controller.c **** 
 2434              		.loc 1 132 1 view .LVU673
 2435 0004 7047     		bx	lr
 2436              	.L218:
 2437 0006 00BF     		.align	2
 2438              	.L217:
 2439 0008 00000000 		.word	.LANCHOR2
 2440              		.cfi_endproc
 2441              	.LFE2:
 2443              		.section	.text.UI_ShowSelector,"ax",%progbits
 2444              		.align	1
 2445              		.global	UI_ShowSelector
 2446              		.syntax unified
 2447              		.thumb
 2448              		.thumb_func
 2449              		.fpu fpv4-sp-d16
 2451              	UI_ShowSelector:
 2452              	.LVL212:
 2453              	.LFB3:
 137:Dsp/widget/wgt_core/UI_Controller.c ****     /* button selector coordinate */
 2454              		.loc 1 137 1 is_stmt 1 view -0
 2455              		.cfi_startproc
 2456              		@ args = 0, pretend = 0, frame = 0
 2457              		@ frame_needed = 0, uses_anonymous_args = 0
 137:Dsp/widget/wgt_core/UI_Controller.c ****     /* button selector coordinate */
 2458              		.loc 1 137 1 is_stmt 0 view .LVU675
 2459 0000 2DE9F047 		push	{r4, r5, r6, r7, r8, r9, r10, lr}
 2460              	.LCFI47:
 2461              		.cfi_def_cfa_offset 32
 2462              		.cfi_offset 4, -32
 2463              		.cfi_offset 5, -28
 2464              		.cfi_offset 6, -24
ARM GAS  C:\Users\huav\AppData\Local\Temp\ccFpv2Vf.s 			page 61


 2465              		.cfi_offset 7, -20
 2466              		.cfi_offset 8, -16
 2467              		.cfi_offset 9, -12
 2468              		.cfi_offset 10, -8
 2469              		.cfi_offset 14, -4
 2470 0004 82B0     		sub	sp, sp, #8
 2471              	.LCFI48:
 2472              		.cfi_def_cfa_offset 40
 2473 0006 0446     		mov	r4, r0
 139:Dsp/widget/wgt_core/UI_Controller.c ****     int16_t Btn_Slct_LftUp_Y = 0;
 2474              		.loc 1 139 5 is_stmt 1 view .LVU676
 2475              	.LVL213:
 140:Dsp/widget/wgt_core/UI_Controller.c ****     int16_t Btn_Slct_LftDwn_X = 0;
 2476              		.loc 1 140 5 view .LVU677
 141:Dsp/widget/wgt_core/UI_Controller.c ****     int16_t Btn_Slct_LftDwn_Y = 0;
 2477              		.loc 1 141 5 view .LVU678
 142:Dsp/widget/wgt_core/UI_Controller.c ****     int16_t Btn_Slct_RgtUp_X = 0;
 2478              		.loc 1 142 5 view .LVU679
 143:Dsp/widget/wgt_core/UI_Controller.c ****     int16_t Btn_Slct_RgtUp_Y = 0;
 2479              		.loc 1 143 5 view .LVU680
 144:Dsp/widget/wgt_core/UI_Controller.c ****     int16_t Btn_Slct_RgtDwn_X = 0;
 2480              		.loc 1 144 5 view .LVU681
 145:Dsp/widget/wgt_core/UI_Controller.c ****     int16_t Btn_Slct_RgtDwn_Y = 0;
 2481              		.loc 1 145 5 view .LVU682
 146:Dsp/widget/wgt_core/UI_Controller.c **** 
 2482              		.loc 1 146 5 view .LVU683
 149:Dsp/widget/wgt_core/UI_Controller.c ****     int16_t block_y;
 2483              		.loc 1 149 5 view .LVU684
 150:Dsp/widget/wgt_core/UI_Controller.c **** 
 2484              		.loc 1 150 5 view .LVU685
 152:Dsp/widget/wgt_core/UI_Controller.c ****     uint8_t selector_height = 0;
 2485              		.loc 1 152 5 view .LVU686
 153:Dsp/widget/wgt_core/UI_Controller.c **** 
 2486              		.loc 1 153 5 view .LVU687
 155:Dsp/widget/wgt_core/UI_Controller.c ****     {
 2487              		.loc 1 155 5 view .LVU688
 155:Dsp/widget/wgt_core/UI_Controller.c ****     {
 2488              		.loc 1 155 28 is_stmt 0 view .LVU689
 2489 0008 524B     		ldr	r3, .L238
 2490 000a 1B68     		ldr	r3, [r3]
 155:Dsp/widget/wgt_core/UI_Controller.c ****     {
 2491              		.loc 1 155 8 view .LVU690
 2492 000c A3B1     		cbz	r3, .L226
 157:Dsp/widget/wgt_core/UI_Controller.c **** 
 2493              		.loc 1 157 9 is_stmt 1 view .LVU691
 157:Dsp/widget/wgt_core/UI_Controller.c **** 
 2494              		.loc 1 157 24 is_stmt 0 view .LVU692
 2495 000e 9847     		blx	r3
 2496              	.LVL214:
 159:Dsp/widget/wgt_core/UI_Controller.c ****             return false;
 2497              		.loc 1 159 9 is_stmt 1 view .LVU693
 159:Dsp/widget/wgt_core/UI_Controller.c ****             return false;
 2498              		.loc 1 159 12 is_stmt 0 view .LVU694
 2499 0010 0546     		mov	r5, r0
 2500 0012 0028     		cmp	r0, #0
 2501 0014 00F09780 		beq	.L235
 2502              	.LVL215:
ARM GAS  C:\Users\huav\AppData\Local\Temp\ccFpv2Vf.s 			page 62


 2503              	.L220:
 163:Dsp/widget/wgt_core/UI_Controller.c ****         return false;
 2504              		.loc 1 163 5 is_stmt 1 view .LVU695
 163:Dsp/widget/wgt_core/UI_Controller.c ****         return false;
 2505              		.loc 1 163 8 is_stmt 0 view .LVU696
 2506 0018 002C     		cmp	r4, #0
 2507 001a 00F09680 		beq	.L228
 166:Dsp/widget/wgt_core/UI_Controller.c ****     {
 2508              		.loc 1 166 5 is_stmt 1 view .LVU697
 2509 001e 4E4B     		ldr	r3, .L238+4
 2510 0020 1B78     		ldrb	r3, [r3]	@ zero_extendqisi2
 2511 0022 0C2B     		cmp	r3, #12
 2512 0024 13D0     		beq	.L229
 2513 0026 102B     		cmp	r3, #16
 2514 0028 13D0     		beq	.L230
 2515 002a 082B     		cmp	r3, #8
 2516 002c 06D0     		beq	.L236
 2517 002e 0024     		movs	r4, #0
 2518              	.LVL216:
 2519              	.L221:
 236:Dsp/widget/wgt_core/UI_Controller.c **** 
 2520              		.loc 1 236 1 is_stmt 0 view .LVU698
 2521 0030 2046     		mov	r0, r4
 2522 0032 02B0     		add	sp, sp, #8
 2523              	.LCFI49:
 2524              		.cfi_remember_state
 2525              		.cfi_def_cfa_offset 32
 2526              		@ sp needed
 2527 0034 BDE8F087 		pop	{r4, r5, r6, r7, r8, r9, r10, pc}
 2528              	.LVL217:
 2529              	.L226:
 2530              	.LCFI50:
 2531              		.cfi_restore_state
 152:Dsp/widget/wgt_core/UI_Controller.c ****     uint8_t selector_height = 0;
 2532              		.loc 1 152 13 view .LVU699
 2533 0038 8025     		movs	r5, #128
 2534 003a EDE7     		b	.L220
 2535              	.LVL218:
 2536              	.L236:
 166:Dsp/widget/wgt_core/UI_Controller.c ****     {
 2537              		.loc 1 166 5 view .LVU700
 2538 003c 0A26     		movs	r6, #10
 2539              	.L222:
 2540              	.LVL219:
 181:Dsp/widget/wgt_core/UI_Controller.c ****     {
 2541              		.loc 1 181 5 is_stmt 1 view .LVU701
 181:Dsp/widget/wgt_core/UI_Controller.c ****     {
 2542              		.loc 1 181 27 is_stmt 0 view .LVU702
 2543 003e 2378     		ldrb	r3, [r4]	@ zero_extendqisi2
 181:Dsp/widget/wgt_core/UI_Controller.c ****     {
 2544              		.loc 1 181 5 view .LVU703
 2545 0040 012B     		cmp	r3, #1
 2546 0042 44D0     		beq	.L223
 2547 0044 022B     		cmp	r3, #2
 2548 0046 52D0     		beq	.L224
 2549 0048 2BB1     		cbz	r3, .L237
 2550 004a 0124     		movs	r4, #1
ARM GAS  C:\Users\huav\AppData\Local\Temp\ccFpv2Vf.s 			page 63


 2551              	.LVL220:
 181:Dsp/widget/wgt_core/UI_Controller.c ****     {
 2552              		.loc 1 181 5 view .LVU704
 2553 004c F0E7     		b	.L221
 2554              	.LVL221:
 2555              	.L229:
 174:Dsp/widget/wgt_core/UI_Controller.c ****         break;
 2556              		.loc 1 174 25 view .LVU705
 2557 004e 0B26     		movs	r6, #11
 2558 0050 F5E7     		b	.L222
 2559              	.L230:
 2560 0052 0B26     		movs	r6, #11
 2561 0054 F3E7     		b	.L222
 2562              	.LVL222:
 2563              	.L237:
 185:Dsp/widget/wgt_core/UI_Controller.c ****             return false;
 2564              		.loc 1 185 9 is_stmt 1 view .LVU706
 185:Dsp/widget/wgt_core/UI_Controller.c ****             return false;
 2565              		.loc 1 185 28 is_stmt 0 view .LVU707
 2566 0056 414B     		ldr	r3, .L238+8
 2567 0058 5B6A     		ldr	r3, [r3, #36]
 185:Dsp/widget/wgt_core/UI_Controller.c ****             return false;
 2568              		.loc 1 185 12 view .LVU708
 2569 005a 002B     		cmp	r3, #0
 2570 005c 77D0     		beq	.L233
 189:Dsp/widget/wgt_core/UI_Controller.c ****         Btn_Slct_LftUp_Y = HandleToButtonObj(item->Handler)->Gen_Data.y + HandleToButtonObj(item->H
 2571              		.loc 1 189 9 is_stmt 1 view .LVU709
 189:Dsp/widget/wgt_core/UI_Controller.c ****         Btn_Slct_LftUp_Y = HandleToButtonObj(item->Handler)->Gen_Data.y + HandleToButtonObj(item->H
 2572              		.loc 1 189 28 is_stmt 0 view .LVU710
 2573 005e 6268     		ldr	r2, [r4, #4]
 189:Dsp/widget/wgt_core/UI_Controller.c ****         Btn_Slct_LftUp_Y = HandleToButtonObj(item->Handler)->Gen_Data.y + HandleToButtonObj(item->H
 2574              		.loc 1 189 26 view .LVU711
 2575 0060 B2F90460 		ldrsh	r6, [r2, #4]	@ unaligned
 2576              	.LVL223:
 189:Dsp/widget/wgt_core/UI_Controller.c ****         Btn_Slct_LftUp_Y = HandleToButtonObj(item->Handler)->Gen_Data.y + HandleToButtonObj(item->H
 2577              		.loc 1 189 26 view .LVU712
 2578 0064 0FFA86F9 		sxth	r9, r6
 2579              	.LVL224:
 190:Dsp/widget/wgt_core/UI_Controller.c **** 
 2580              		.loc 1 190 9 is_stmt 1 view .LVU713
 190:Dsp/widget/wgt_core/UI_Controller.c **** 
 2581              		.loc 1 190 70 is_stmt 0 view .LVU714
 2582 0068 B2F90630 		ldrsh	r3, [r2, #6]	@ unaligned
 2583 006c 0FFA83F8 		sxth	r8, r3
 190:Dsp/widget/wgt_core/UI_Controller.c **** 
 2584              		.loc 1 190 107 view .LVU715
 2585 0070 92F82050 		ldrb	r5, [r2, #32]	@ zero_extendqisi2
 2586              	.LVL225:
 190:Dsp/widget/wgt_core/UI_Controller.c **** 
 2587              		.loc 1 190 73 view .LVU716
 2588 0074 15FA83F5 		uxtah	r5, r5, r3
 2589 0078 ADB2     		uxth	r5, r5
 190:Dsp/widget/wgt_core/UI_Controller.c **** 
 2590              		.loc 1 190 116 view .LVU717
 2591 007a 013D     		subs	r5, r5, #1
 190:Dsp/widget/wgt_core/UI_Controller.c **** 
 2592              		.loc 1 190 26 view .LVU718
ARM GAS  C:\Users\huav\AppData\Local\Temp\ccFpv2Vf.s 			page 64


 2593 007c 0FFA85FA 		sxth	r10, r5
 2594              	.LVL226:
 192:Dsp/widget/wgt_core/UI_Controller.c ****         Btn_Slct_LftDwn_Y = HandleToButtonObj(item->Handler)->Gen_Data.y;
 2595              		.loc 1 192 9 is_stmt 1 view .LVU719
 193:Dsp/widget/wgt_core/UI_Controller.c **** 
 2596              		.loc 1 193 9 view .LVU720
 195:Dsp/widget/wgt_core/UI_Controller.c ****         Btn_Slct_RgtUp_Y = Btn_Slct_LftUp_Y;
 2597              		.loc 1 195 9 view .LVU721
 195:Dsp/widget/wgt_core/UI_Controller.c ****         Btn_Slct_RgtUp_Y = Btn_Slct_LftUp_Y;
 2598              		.loc 1 195 107 is_stmt 0 view .LVU722
 2599 0080 D37F     		ldrb	r3, [r2, #31]	@ zero_extendqisi2
 2600              	.LVL227:
 195:Dsp/widget/wgt_core/UI_Controller.c ****         Btn_Slct_RgtUp_Y = Btn_Slct_LftUp_Y;
 2601              		.loc 1 195 73 view .LVU723
 2602 0082 13FA86F6 		uxtah	r6, r3, r6
 2603              	.LVL228:
 195:Dsp/widget/wgt_core/UI_Controller.c ****         Btn_Slct_RgtUp_Y = Btn_Slct_LftUp_Y;
 2604              		.loc 1 195 26 view .LVU724
 2605 0086 36B2     		sxth	r6, r6
 2606              	.LVL229:
 196:Dsp/widget/wgt_core/UI_Controller.c **** 
 2607              		.loc 1 196 9 is_stmt 1 view .LVU725
 198:Dsp/widget/wgt_core/UI_Controller.c ****         Btn_Slct_RgtDwn_Y = Btn_Slct_LftDwn_Y;
 2608              		.loc 1 198 9 view .LVU726
 199:Dsp/widget/wgt_core/UI_Controller.c **** 
 2609              		.loc 1 199 9 view .LVU727
 202:Dsp/widget/wgt_core/UI_Controller.c ****         UI_DspInterface.draw_circle_section(Btn_Slct_LftDwn_X, Btn_Slct_LftDwn_Y, BUTTON_SELECTOR_R
 2610              		.loc 1 202 9 view .LVU728
 202:Dsp/widget/wgt_core/UI_Controller.c ****         UI_DspInterface.draw_circle_section(Btn_Slct_LftDwn_X, Btn_Slct_LftDwn_Y, BUTTON_SELECTOR_R
 2611              		.loc 1 202 24 is_stmt 0 view .LVU729
 2612 0088 344F     		ldr	r7, .L238+8
 202:Dsp/widget/wgt_core/UI_Controller.c ****         UI_DspInterface.draw_circle_section(Btn_Slct_LftDwn_X, Btn_Slct_LftDwn_Y, BUTTON_SELECTOR_R
 2613              		.loc 1 202 9 view .LVU730
 2614 008a 0124     		movs	r4, #1
 2615              	.LVL230:
 202:Dsp/widget/wgt_core/UI_Controller.c ****         UI_DspInterface.draw_circle_section(Btn_Slct_LftDwn_X, Btn_Slct_LftDwn_Y, BUTTON_SELECTOR_R
 2616              		.loc 1 202 9 view .LVU731
 2617 008c 0194     		str	r4, [sp, #4]
 2618 008e 0094     		str	r4, [sp]
 2619 0090 0423     		movs	r3, #4
 2620 0092 0222     		movs	r2, #2
 2621 0094 5146     		mov	r1, r10
 2622 0096 4846     		mov	r0, r9
 2623 0098 BD69     		ldr	r5, [r7, #24]
 2624 009a A847     		blx	r5
 2625              	.LVL231:
 203:Dsp/widget/wgt_core/UI_Controller.c ****         UI_DspInterface.draw_circle_section(Btn_Slct_RgtUp_X, Btn_Slct_RgtUp_Y, BUTTON_SELECTOR_RAD
 2626              		.loc 1 203 9 is_stmt 1 view .LVU732
 2627 009c 0194     		str	r4, [sp, #4]
 2628 009e 0094     		str	r4, [sp]
 2629 00a0 0223     		movs	r3, #2
 2630 00a2 1A46     		mov	r2, r3
 2631 00a4 4146     		mov	r1, r8
 2632 00a6 4846     		mov	r0, r9
 2633 00a8 BD69     		ldr	r5, [r7, #24]
 2634 00aa A847     		blx	r5
 2635              	.LVL232:
ARM GAS  C:\Users\huav\AppData\Local\Temp\ccFpv2Vf.s 			page 65


 204:Dsp/widget/wgt_core/UI_Controller.c ****         UI_DspInterface.draw_circle_section(Btn_Slct_RgtDwn_X, Btn_Slct_RgtDwn_Y, BUTTON_SELECTOR_R
 2636              		.loc 1 204 9 view .LVU733
 2637 00ac 0194     		str	r4, [sp, #4]
 2638 00ae 0094     		str	r4, [sp]
 2639 00b0 0823     		movs	r3, #8
 2640 00b2 0222     		movs	r2, #2
 2641 00b4 5146     		mov	r1, r10
 2642 00b6 3046     		mov	r0, r6
 2643 00b8 BD69     		ldr	r5, [r7, #24]
 2644 00ba A847     		blx	r5
 2645              	.LVL233:
 205:Dsp/widget/wgt_core/UI_Controller.c ****         break;
 2646              		.loc 1 205 9 view .LVU734
 205:Dsp/widget/wgt_core/UI_Controller.c ****         break;
 2647              		.loc 1 205 24 is_stmt 0 view .LVU735
 2648 00bc BD69     		ldr	r5, [r7, #24]
 205:Dsp/widget/wgt_core/UI_Controller.c ****         break;
 2649              		.loc 1 205 9 view .LVU736
 2650 00be 0194     		str	r4, [sp, #4]
 2651 00c0 0094     		str	r4, [sp]
 2652 00c2 2346     		mov	r3, r4
 2653 00c4 0222     		movs	r2, #2
 2654 00c6 4146     		mov	r1, r8
 2655 00c8 3046     		mov	r0, r6
 2656 00ca A847     		blx	r5
 2657              	.LVL234:
 206:Dsp/widget/wgt_core/UI_Controller.c **** 
 2658              		.loc 1 206 9 is_stmt 1 view .LVU737
 2659 00cc B0E7     		b	.L221
 2660              	.LVL235:
 2661              	.L223:
 209:Dsp/widget/wgt_core/UI_Controller.c ****         block_y = HandleToCheckBoxObj(item->Handler)->Gen_Data.y + 1;
 2662              		.loc 1 209 9 view .LVU738
 209:Dsp/widget/wgt_core/UI_Controller.c ****         block_y = HandleToCheckBoxObj(item->Handler)->Gen_Data.y + 1;
 2663              		.loc 1 209 19 is_stmt 0 view .LVU739
 2664 00ce 6368     		ldr	r3, [r4, #4]
 209:Dsp/widget/wgt_core/UI_Controller.c ****         block_y = HandleToCheckBoxObj(item->Handler)->Gen_Data.y + 1;
 2665              		.loc 1 209 63 view .LVU740
 2666 00d0 9888     		ldrh	r0, [r3, #4]	@ unaligned
 209:Dsp/widget/wgt_core/UI_Controller.c ****         block_y = HandleToCheckBoxObj(item->Handler)->Gen_Data.y + 1;
 2667              		.loc 1 209 66 view .LVU741
 2668 00d2 0330     		adds	r0, r0, #3
 2669              	.LVL236:
 210:Dsp/widget/wgt_core/UI_Controller.c **** 
 2670              		.loc 1 210 9 is_stmt 1 view .LVU742
 210:Dsp/widget/wgt_core/UI_Controller.c **** 
 2671              		.loc 1 210 63 is_stmt 0 view .LVU743
 2672 00d4 D988     		ldrh	r1, [r3, #6]	@ unaligned
 210:Dsp/widget/wgt_core/UI_Controller.c **** 
 2673              		.loc 1 210 66 view .LVU744
 2674 00d6 0131     		adds	r1, r1, #1
 2675              	.LVL237:
 212:Dsp/widget/wgt_core/UI_Controller.c ****         break;
 2676              		.loc 1 212 9 is_stmt 1 view .LVU745
 212:Dsp/widget/wgt_core/UI_Controller.c ****         break;
 2677              		.loc 1 212 24 is_stmt 0 view .LVU746
 2678 00d8 204B     		ldr	r3, .L238+8
ARM GAS  C:\Users\huav\AppData\Local\Temp\ccFpv2Vf.s 			page 66


 2679 00da DF69     		ldr	r7, [r3, #28]
 212:Dsp/widget/wgt_core/UI_Controller.c ****         break;
 2680              		.loc 1 212 9 view .LVU747
 2681 00dc AA1F     		subs	r2, r5, #6
 2682 00de 0124     		movs	r4, #1
 2683              	.LVL238:
 212:Dsp/widget/wgt_core/UI_Controller.c ****         break;
 2684              		.loc 1 212 9 view .LVU748
 2685 00e0 0094     		str	r4, [sp]
 2686 00e2 3346     		mov	r3, r6
 2687 00e4 D2B2     		uxtb	r2, r2
 2688 00e6 09B2     		sxth	r1, r1
 212:Dsp/widget/wgt_core/UI_Controller.c ****         break;
 2689              		.loc 1 212 9 view .LVU749
 2690 00e8 00B2     		sxth	r0, r0
 212:Dsp/widget/wgt_core/UI_Controller.c ****         break;
 2691              		.loc 1 212 9 view .LVU750
 2692 00ea B847     		blx	r7
 2693              	.LVL239:
 213:Dsp/widget/wgt_core/UI_Controller.c **** 
 2694              		.loc 1 213 9 is_stmt 1 view .LVU751
 2695 00ec A0E7     		b	.L221
 2696              	.LVL240:
 2697              	.L224:
 216:Dsp/widget/wgt_core/UI_Controller.c **** 
 2698              		.loc 1 216 9 view .LVU752
 216:Dsp/widget/wgt_core/UI_Controller.c **** 
 2699              		.loc 1 216 19 is_stmt 0 view .LVU753
 2700 00ee D4F80480 		ldr	r8, [r4, #4]
 216:Dsp/widget/wgt_core/UI_Controller.c **** 
 2701              		.loc 1 216 63 view .LVU754
 2702 00f2 B8F80670 		ldrh	r7, [r8, #6]	@ unaligned
 216:Dsp/widget/wgt_core/UI_Controller.c **** 
 2703              		.loc 1 216 66 view .LVU755
 2704 00f6 0137     		adds	r7, r7, #1
 216:Dsp/widget/wgt_core/UI_Controller.c **** 
 2705              		.loc 1 216 17 view .LVU756
 2706 00f8 3FB2     		sxth	r7, r7
 2707              	.LVL241:
 218:Dsp/widget/wgt_core/UI_Controller.c ****         {
 2708              		.loc 1 218 9 is_stmt 1 view .LVU757
 218:Dsp/widget/wgt_core/UI_Controller.c ****         {
 2709              		.loc 1 218 14 is_stmt 0 view .LVU758
 2710 00fa 4046     		mov	r0, r8
 2711 00fc FFF7FEFF 		bl	UI_SlideBar_IsSelected
 2712              	.LVL242:
 218:Dsp/widget/wgt_core/UI_Controller.c ****         {
 2713              		.loc 1 218 12 view .LVU759
 2714 0100 0446     		mov	r4, r0
 2715              	.LVL243:
 218:Dsp/widget/wgt_core/UI_Controller.c ****         {
 2716              		.loc 1 218 12 view .LVU760
 2717 0102 70B9     		cbnz	r0, .L225
 220:Dsp/widget/wgt_core/UI_Controller.c **** 
 2718              		.loc 1 220 13 is_stmt 1 view .LVU761
 220:Dsp/widget/wgt_core/UI_Controller.c **** 
 2719              		.loc 1 220 67 is_stmt 0 view .LVU762
ARM GAS  C:\Users\huav\AppData\Local\Temp\ccFpv2Vf.s 			page 67


 2720 0104 B8F80400 		ldrh	r0, [r8, #4]	@ unaligned
 220:Dsp/widget/wgt_core/UI_Controller.c **** 
 2721              		.loc 1 220 70 view .LVU763
 2722 0108 0330     		adds	r0, r0, #3
 2723              	.LVL244:
 222:Dsp/widget/wgt_core/UI_Controller.c ****         }
 2724              		.loc 1 222 13 is_stmt 1 view .LVU764
 222:Dsp/widget/wgt_core/UI_Controller.c ****         }
 2725              		.loc 1 222 28 is_stmt 0 view .LVU765
 2726 010a 144B     		ldr	r3, .L238+8
 2727 010c D3F81C80 		ldr	r8, [r3, #28]
 222:Dsp/widget/wgt_core/UI_Controller.c ****         }
 2728              		.loc 1 222 13 view .LVU766
 2729 0110 AA1F     		subs	r2, r5, #6
 2730 0112 0124     		movs	r4, #1
 2731 0114 0094     		str	r4, [sp]
 2732 0116 3346     		mov	r3, r6
 2733 0118 D2B2     		uxtb	r2, r2
 2734 011a 3946     		mov	r1, r7
 2735 011c 00B2     		sxth	r0, r0
 222:Dsp/widget/wgt_core/UI_Controller.c ****         }
 2736              		.loc 1 222 13 view .LVU767
 2737 011e C047     		blx	r8
 2738              	.LVL245:
 222:Dsp/widget/wgt_core/UI_Controller.c ****         }
 2739              		.loc 1 222 13 view .LVU768
 2740 0120 86E7     		b	.L221
 2741              	.L225:
 226:Dsp/widget/wgt_core/UI_Controller.c **** 
 2742              		.loc 1 226 13 is_stmt 1 view .LVU769
 226:Dsp/widget/wgt_core/UI_Controller.c **** 
 2743              		.loc 1 226 57 is_stmt 0 view .LVU770
 2744 0122 B8F82400 		ldrh	r0, [r8, #36]	@ unaligned
 226:Dsp/widget/wgt_core/UI_Controller.c **** 
 2745              		.loc 1 226 70 view .LVU771
 2746 0126 0338     		subs	r0, r0, #3
 2747 0128 82B2     		uxth	r2, r0
 2748              	.LVL246:
 228:Dsp/widget/wgt_core/UI_Controller.c ****         }
 2749              		.loc 1 228 13 is_stmt 1 view .LVU772
 228:Dsp/widget/wgt_core/UI_Controller.c ****         }
 2750              		.loc 1 228 28 is_stmt 0 view .LVU773
 2751 012a 0C4B     		ldr	r3, .L238+8
 2752 012c D3F81C80 		ldr	r8, [r3, #28]
 228:Dsp/widget/wgt_core/UI_Controller.c ****         }
 2753              		.loc 1 228 76 view .LVU774
 2754 0130 AA1A     		subs	r2, r5, r2
 2755 0132 D2B2     		uxtb	r2, r2
 228:Dsp/widget/wgt_core/UI_Controller.c ****         }
 2756              		.loc 1 228 13 view .LVU775
 2757 0134 063A     		subs	r2, r2, #6
 2758 0136 0123     		movs	r3, #1
 2759 0138 0093     		str	r3, [sp]
 2760 013a 3346     		mov	r3, r6
 2761 013c D2B2     		uxtb	r2, r2
 2762 013e 3946     		mov	r1, r7
 2763 0140 00B2     		sxth	r0, r0
ARM GAS  C:\Users\huav\AppData\Local\Temp\ccFpv2Vf.s 			page 68


 228:Dsp/widget/wgt_core/UI_Controller.c ****         }
 2764              		.loc 1 228 13 view .LVU776
 2765 0142 C047     		blx	r8
 2766              	.LVL247:
 228:Dsp/widget/wgt_core/UI_Controller.c ****         }
 2767              		.loc 1 228 13 view .LVU777
 2768 0144 74E7     		b	.L221
 2769              	.LVL248:
 2770              	.L235:
 160:Dsp/widget/wgt_core/UI_Controller.c ****     }
 2771              		.loc 1 160 20 view .LVU778
 2772 0146 0024     		movs	r4, #0
 2773              	.LVL249:
 160:Dsp/widget/wgt_core/UI_Controller.c ****     }
 2774              		.loc 1 160 20 view .LVU779
 2775 0148 72E7     		b	.L221
 2776              	.LVL250:
 2777              	.L228:
 164:Dsp/widget/wgt_core/UI_Controller.c **** 
 2778              		.loc 1 164 16 view .LVU780
 2779 014a 0024     		movs	r4, #0
 2780              	.LVL251:
 164:Dsp/widget/wgt_core/UI_Controller.c **** 
 2781              		.loc 1 164 16 view .LVU781
 2782 014c 70E7     		b	.L221
 2783              	.LVL252:
 2784              	.L233:
 186:Dsp/widget/wgt_core/UI_Controller.c **** 
 2785              		.loc 1 186 20 view .LVU782
 2786 014e 0024     		movs	r4, #0
 2787              	.LVL253:
 186:Dsp/widget/wgt_core/UI_Controller.c **** 
 2788              		.loc 1 186 20 view .LVU783
 2789 0150 6EE7     		b	.L221
 2790              	.L239:
 2791 0152 00BF     		.align	2
 2792              	.L238:
 2793 0154 00000000 		.word	.LANCHOR2
 2794 0158 00000000 		.word	.LANCHOR1
 2795 015c 00000000 		.word	.LANCHOR0
 2796              		.cfi_endproc
 2797              	.LFE3:
 2799              		.global	UI_ProcessBar
 2800              		.global	UI_SlideBar
 2801              		.global	UI_CheckBox
 2802              		.global	UI_Button
 2803              		.global	UI_Get_WidgetWidth
 2804              		.section	.bss.UI_DspInterface,"aw",%nobits
 2805              		.align	2
 2806              		.set	.LANCHOR0,. + 0
 2809              	UI_DspInterface:
 2810 0000 00000000 		.space	44
 2810      00000000 
 2810      00000000 
 2810      00000000 
 2810      00000000 
 2811              		.section	.bss.UI_Get_WidgetWidth,"aw",%nobits
ARM GAS  C:\Users\huav\AppData\Local\Temp\ccFpv2Vf.s 			page 69


 2812              		.align	2
 2813              		.set	.LANCHOR2,. + 0
 2816              	UI_Get_WidgetWidth:
 2817 0000 00000000 		.space	4
 2818              		.section	.data.UI_Button,"aw"
 2819              		.align	2
 2822              	UI_Button:
 2823 0000 00000000 		.word	UI_Button_Init
 2824 0004 00000000 		.word	UI_Button_Set_TriggerCallback
 2825 0008 00000000 		.word	UI_Button_Set_Label
 2826 000c 00000000 		.word	UI_Button_Push
 2827 0010 00000000 		.word	UI_Button_Release
 2828 0014 00000000 		.word	UI_Button_Ctl
 2829 0018 00000000 		.word	UI_Button_Move
 2830              		.section	.data.UI_CheckBox,"aw"
 2831              		.align	2
 2834              	UI_CheckBox:
 2835 0000 00000000 		.word	UI_CheckBox_Init
 2836 0004 00000000 		.word	UI_CheckBox_SetCallback
 2837 0008 00000000 		.word	UI_CheckBox_Move
 2838 000c 00000000 		.word	UI_CheckBox_Trigger
 2839 0010 00000000 		.word	UI_CheckBox_Ctl
 2840              		.section	.data.UI_ProcessBar,"aw"
 2841              		.align	2
 2844              	UI_ProcessBar:
 2845 0000 00000000 		.word	UI_ProcessBar_Init
 2846 0004 00000000 		.word	UI_ProcessBar_Move
 2847 0008 00000000 		.word	UI_ProcessBar_SetDspDir
 2848 000c 00000000 		.word	UI_ProcessBar_SetCurVal
 2849 0010 00000000 		.word	UI_ProcessBar_Ctl
 2850              		.section	.data.UI_SlideBar,"aw"
 2851              		.align	2
 2854              	UI_SlideBar:
 2855 0000 00000000 		.word	UI_SlideBar_Init
 2856 0004 00000000 		.word	UI_SlideBar_SetCallBack
 2857 0008 00000000 		.word	UI_SlideBar_Move
 2858 000c 00000000 		.word	UI_SlideBar_Input
 2859 0010 00000000 		.word	UI_SlideBar_Trigger
 2860 0014 00000000 		.word	UI_SlideBar_CTL
 2861 0018 00000000 		.word	UI_SlideBar_IsSelected
 2862 001c 00000000 		.word	UI_SlideBar_SetSelect
 2863              		.section	.data.base_font,"aw"
 2864              		.set	.LANCHOR1,. + 0
 2867              	base_font:
 2868 0000 08       		.byte	8
 2869              		.text
 2870              	.Letext0:
 2871              		.file 2 "c:\\program files (x86)\\gnu arm embedded toolchain\\10 2020-q4-major\\arm-none-eabi\\inc
 2872              		.file 3 "c:\\program files (x86)\\gnu arm embedded toolchain\\10 2020-q4-major\\arm-none-eabi\\inc
 2873              		.file 4 "Dsp/widget/wgt_core/UI_Controller.h"
 2874              		.file 5 "Dsp/screen/font/oledfont.h"
 2875              		.file 6 "c:\\program files (x86)\\gnu arm embedded toolchain\\10 2020-q4-major\\arm-none-eabi\\inc
 2876              		.file 7 "c:\\program files (x86)\\gnu arm embedded toolchain\\10 2020-q4-major\\arm-none-eabi\\inc
ARM GAS  C:\Users\huav\AppData\Local\Temp\ccFpv2Vf.s 			page 70


DEFINED SYMBOLS
                            *ABS*:00000000 UI_Controller.c
C:\Users\huav\AppData\Local\Temp\ccFpv2Vf.s:18     .text.UI_GenData_Init:00000000 $t
C:\Users\huav\AppData\Local\Temp\ccFpv2Vf.s:25     .text.UI_GenData_Init:00000000 UI_GenData_Init
C:\Users\huav\AppData\Local\Temp\ccFpv2Vf.s:55     .text.UI_Move:00000000 $t
C:\Users\huav\AppData\Local\Temp\ccFpv2Vf.s:61     .text.UI_Move:00000000 UI_Move
C:\Users\huav\AppData\Local\Temp\ccFpv2Vf.s:95     .rodata.UI_Button_Init.str1.4:00000000 $d
C:\Users\huav\AppData\Local\Temp\ccFpv2Vf.s:102    .text.UI_Button_Init:00000000 $t
C:\Users\huav\AppData\Local\Temp\ccFpv2Vf.s:108    .text.UI_Button_Init:00000000 UI_Button_Init
C:\Users\huav\AppData\Local\Temp\ccFpv2Vf.s:175    .text.UI_Button_Init:00000040 $d
C:\Users\huav\AppData\Local\Temp\ccFpv2Vf.s:181    .text.UI_Button_Set_Label:00000000 $t
C:\Users\huav\AppData\Local\Temp\ccFpv2Vf.s:187    .text.UI_Button_Set_Label:00000000 UI_Button_Set_Label
C:\Users\huav\AppData\Local\Temp\ccFpv2Vf.s:231    .text.UI_Button_Set_TriggerCallback:00000000 $t
C:\Users\huav\AppData\Local\Temp\ccFpv2Vf.s:237    .text.UI_Button_Set_TriggerCallback:00000000 UI_Button_Set_TriggerCallback
C:\Users\huav\AppData\Local\Temp\ccFpv2Vf.s:291    .text.UI_Button_Push:00000000 $t
C:\Users\huav\AppData\Local\Temp\ccFpv2Vf.s:297    .text.UI_Button_Push:00000000 UI_Button_Push
C:\Users\huav\AppData\Local\Temp\ccFpv2Vf.s:414    .text.UI_Button_Release:00000000 $t
C:\Users\huav\AppData\Local\Temp\ccFpv2Vf.s:420    .text.UI_Button_Release:00000000 UI_Button_Release
C:\Users\huav\AppData\Local\Temp\ccFpv2Vf.s:506    .text.UI_Button_Move:00000000 $t
C:\Users\huav\AppData\Local\Temp\ccFpv2Vf.s:512    .text.UI_Button_Move:00000000 UI_Button_Move
C:\Users\huav\AppData\Local\Temp\ccFpv2Vf.s:553    .text.UI_Button_Ctl:00000000 $t
C:\Users\huav\AppData\Local\Temp\ccFpv2Vf.s:559    .text.UI_Button_Ctl:00000000 UI_Button_Ctl
C:\Users\huav\AppData\Local\Temp\ccFpv2Vf.s:818    .text.UI_Button_Ctl:00000110 $d
C:\Users\huav\AppData\Local\Temp\ccFpv2Vf.s:824    .text.UI_CheckBox_Init:00000000 $t
C:\Users\huav\AppData\Local\Temp\ccFpv2Vf.s:830    .text.UI_CheckBox_Init:00000000 UI_CheckBox_Init
C:\Users\huav\AppData\Local\Temp\ccFpv2Vf.s:881    .text.UI_CheckBox_SetCallback:00000000 $t
C:\Users\huav\AppData\Local\Temp\ccFpv2Vf.s:887    .text.UI_CheckBox_SetCallback:00000000 UI_CheckBox_SetCallback
C:\Users\huav\AppData\Local\Temp\ccFpv2Vf.s:918    .text.UI_CheckBox_Move:00000000 $t
C:\Users\huav\AppData\Local\Temp\ccFpv2Vf.s:924    .text.UI_CheckBox_Move:00000000 UI_CheckBox_Move
C:\Users\huav\AppData\Local\Temp\ccFpv2Vf.s:961    .text.UI_CheckBox_Trigger:00000000 $t
C:\Users\huav\AppData\Local\Temp\ccFpv2Vf.s:967    .text.UI_CheckBox_Trigger:00000000 UI_CheckBox_Trigger
C:\Users\huav\AppData\Local\Temp\ccFpv2Vf.s:1029   .text.UI_SlideBar_Init:00000000 $t
C:\Users\huav\AppData\Local\Temp\ccFpv2Vf.s:1035   .text.UI_SlideBar_Init:00000000 UI_SlideBar_Init
C:\Users\huav\AppData\Local\Temp\ccFpv2Vf.s:1181   .text.UI_SlideBar_Move:00000000 $t
C:\Users\huav\AppData\Local\Temp\ccFpv2Vf.s:1187   .text.UI_SlideBar_Move:00000000 UI_SlideBar_Move
C:\Users\huav\AppData\Local\Temp\ccFpv2Vf.s:1224   .text.UI_SlideBar_SetCallBack:00000000 $t
C:\Users\huav\AppData\Local\Temp\ccFpv2Vf.s:1230   .text.UI_SlideBar_SetCallBack:00000000 UI_SlideBar_SetCallBack
C:\Users\huav\AppData\Local\Temp\ccFpv2Vf.s:1261   .text.UI_SlideBar_Input:00000000 $t
C:\Users\huav\AppData\Local\Temp\ccFpv2Vf.s:1267   .text.UI_SlideBar_Input:00000000 UI_SlideBar_Input
C:\Users\huav\AppData\Local\Temp\ccFpv2Vf.s:1360   .text.UI_SlideBar_Trigger:00000000 $t
C:\Users\huav\AppData\Local\Temp\ccFpv2Vf.s:1366   .text.UI_SlideBar_Trigger:00000000 UI_SlideBar_Trigger
C:\Users\huav\AppData\Local\Temp\ccFpv2Vf.s:1430   .text.UI_SlideBar_SetSelect:00000000 $t
C:\Users\huav\AppData\Local\Temp\ccFpv2Vf.s:1436   .text.UI_SlideBar_SetSelect:00000000 UI_SlideBar_SetSelect
C:\Users\huav\AppData\Local\Temp\ccFpv2Vf.s:1458   .text.UI_SlideBar_IsSelected:00000000 $t
C:\Users\huav\AppData\Local\Temp\ccFpv2Vf.s:1464   .text.UI_SlideBar_IsSelected:00000000 UI_SlideBar_IsSelected
C:\Users\huav\AppData\Local\Temp\ccFpv2Vf.s:1492   .text.UI_ProcessBar_Init:00000000 $t
C:\Users\huav\AppData\Local\Temp\ccFpv2Vf.s:1498   .text.UI_ProcessBar_Init:00000000 UI_ProcessBar_Init
C:\Users\huav\AppData\Local\Temp\ccFpv2Vf.s:1566   .text.UI_ProcessBar_Init:00000034 $d
C:\Users\huav\AppData\Local\Temp\ccFpv2Vf.s:1571   .text.UI_ProcessBar_SetDspDir:00000000 $t
C:\Users\huav\AppData\Local\Temp\ccFpv2Vf.s:1577   .text.UI_ProcessBar_SetDspDir:00000000 UI_ProcessBar_SetDspDir
C:\Users\huav\AppData\Local\Temp\ccFpv2Vf.s:1618   .text.UI_ProcessBar_SetCurVal:00000000 $t
C:\Users\huav\AppData\Local\Temp\ccFpv2Vf.s:1624   .text.UI_ProcessBar_SetCurVal:00000000 UI_ProcessBar_SetCurVal
C:\Users\huav\AppData\Local\Temp\ccFpv2Vf.s:1678   .text.UI_ProcessBar_Move:00000000 $t
C:\Users\huav\AppData\Local\Temp\ccFpv2Vf.s:1684   .text.UI_ProcessBar_Move:00000000 UI_ProcessBar_Move
C:\Users\huav\AppData\Local\Temp\ccFpv2Vf.s:1725   .text.UI_CheckBox_Ctl:00000000 $t
C:\Users\huav\AppData\Local\Temp\ccFpv2Vf.s:1731   .text.UI_CheckBox_Ctl:00000000 UI_CheckBox_Ctl
C:\Users\huav\AppData\Local\Temp\ccFpv2Vf.s:1911   .text.UI_CheckBox_Ctl:000000bc $d
ARM GAS  C:\Users\huav\AppData\Local\Temp\ccFpv2Vf.s 			page 71


C:\Users\huav\AppData\Local\Temp\ccFpv2Vf.s:1917   .text.UI_SlideBar_CTL:00000000 $t
C:\Users\huav\AppData\Local\Temp\ccFpv2Vf.s:1923   .text.UI_SlideBar_CTL:00000000 UI_SlideBar_CTL
C:\Users\huav\AppData\Local\Temp\ccFpv2Vf.s:2193   .text.UI_SlideBar_CTL:00000120 $d
C:\Users\huav\AppData\Local\Temp\ccFpv2Vf.s:2200   .text.UI_ProcessBar_Ctl:00000000 $t
C:\Users\huav\AppData\Local\Temp\ccFpv2Vf.s:2206   .text.UI_ProcessBar_Ctl:00000000 UI_ProcessBar_Ctl
C:\Users\huav\AppData\Local\Temp\ccFpv2Vf.s:2282   .text.UI_ProcessBar_Ctl:00000044 $d
C:\Users\huav\AppData\Local\Temp\ccFpv2Vf.s:2287   .text.UI_Set_FontType:00000000 $t
C:\Users\huav\AppData\Local\Temp\ccFpv2Vf.s:2294   .text.UI_Set_FontType:00000000 UI_Set_FontType
C:\Users\huav\AppData\Local\Temp\ccFpv2Vf.s:2329   .text.UI_Set_FontType:00000018 $d
C:\Users\huav\AppData\Local\Temp\ccFpv2Vf.s:2334   .text.UI_Set_DspInterface:00000000 $t
C:\Users\huav\AppData\Local\Temp\ccFpv2Vf.s:2341   .text.UI_Set_DspInterface:00000000 UI_Set_DspInterface
C:\Users\huav\AppData\Local\Temp\ccFpv2Vf.s:2410   .text.UI_Set_DspInterface:0000002c $d
C:\Users\huav\AppData\Local\Temp\ccFpv2Vf.s:2415   .text.UI_Set_GetWidgetWidthMathod:00000000 $t
C:\Users\huav\AppData\Local\Temp\ccFpv2Vf.s:2422   .text.UI_Set_GetWidgetWidthMathod:00000000 UI_Set_GetWidgetWidthMathod
C:\Users\huav\AppData\Local\Temp\ccFpv2Vf.s:2439   .text.UI_Set_GetWidgetWidthMathod:00000008 $d
C:\Users\huav\AppData\Local\Temp\ccFpv2Vf.s:2444   .text.UI_ShowSelector:00000000 $t
C:\Users\huav\AppData\Local\Temp\ccFpv2Vf.s:2451   .text.UI_ShowSelector:00000000 UI_ShowSelector
C:\Users\huav\AppData\Local\Temp\ccFpv2Vf.s:2793   .text.UI_ShowSelector:00000154 $d
C:\Users\huav\AppData\Local\Temp\ccFpv2Vf.s:2844   .data.UI_ProcessBar:00000000 UI_ProcessBar
C:\Users\huav\AppData\Local\Temp\ccFpv2Vf.s:2854   .data.UI_SlideBar:00000000 UI_SlideBar
C:\Users\huav\AppData\Local\Temp\ccFpv2Vf.s:2834   .data.UI_CheckBox:00000000 UI_CheckBox
C:\Users\huav\AppData\Local\Temp\ccFpv2Vf.s:2822   .data.UI_Button:00000000 UI_Button
C:\Users\huav\AppData\Local\Temp\ccFpv2Vf.s:2816   .bss.UI_Get_WidgetWidth:00000000 UI_Get_WidgetWidth
C:\Users\huav\AppData\Local\Temp\ccFpv2Vf.s:2805   .bss.UI_DspInterface:00000000 $d
C:\Users\huav\AppData\Local\Temp\ccFpv2Vf.s:2809   .bss.UI_DspInterface:00000000 UI_DspInterface
C:\Users\huav\AppData\Local\Temp\ccFpv2Vf.s:2812   .bss.UI_Get_WidgetWidth:00000000 $d
C:\Users\huav\AppData\Local\Temp\ccFpv2Vf.s:2819   .data.UI_Button:00000000 $d
C:\Users\huav\AppData\Local\Temp\ccFpv2Vf.s:2831   .data.UI_CheckBox:00000000 $d
C:\Users\huav\AppData\Local\Temp\ccFpv2Vf.s:2841   .data.UI_ProcessBar:00000000 $d
C:\Users\huav\AppData\Local\Temp\ccFpv2Vf.s:2851   .data.UI_SlideBar:00000000 $d
C:\Users\huav\AppData\Local\Temp\ccFpv2Vf.s:2867   .data.base_font:00000000 base_font

UNDEFINED SYMBOLS
strlen
itoa
