ARM GAS  /tmp/ccSHZEpa.s 			page 1


   1              		.cpu cortex-m4
   2              		.eabi_attribute 27, 1
   3              		.eabi_attribute 28, 1
   4              		.eabi_attribute 20, 1
   5              		.eabi_attribute 21, 1
   6              		.eabi_attribute 23, 3
   7              		.eabi_attribute 24, 1
   8              		.eabi_attribute 25, 1
   9              		.eabi_attribute 26, 1
  10              		.eabi_attribute 30, 1
  11              		.eabi_attribute 34, 1
  12              		.eabi_attribute 18, 4
  13              		.file	"usb_dcd.c"
  14              		.text
  15              	.Ltext0:
  16              		.cfi_sections	.debug_frame
  17              		.section	.text.DCD_Init,"ax",%progbits
  18              		.align	1
  19              		.global	DCD_Init
  20              		.syntax unified
  21              		.thumb
  22              		.thumb_func
  23              		.fpu fpv4-sp-d16
  25              	DCD_Init:
  26              	.LFB124:
  27              		.file 1 "USB/core/usb_dcd.c"
   1:USB/core/usb_dcd.c **** /**
   2:USB/core/usb_dcd.c ****   ******************************************************************************
   3:USB/core/usb_dcd.c ****   * @file    usb_dcd.c
   4:USB/core/usb_dcd.c ****   * @author  MCD Application Team
   5:USB/core/usb_dcd.c ****   * @version V2.1.0
   6:USB/core/usb_dcd.c ****   * @date    19-March-2012
   7:USB/core/usb_dcd.c ****   * @brief   Peripheral Device Interface Layer
   8:USB/core/usb_dcd.c ****   ******************************************************************************
   9:USB/core/usb_dcd.c ****   * @attention
  10:USB/core/usb_dcd.c ****   *
  11:USB/core/usb_dcd.c ****   * <h2><center>&copy; COPYRIGHT 2012 STMicroelectronics</center></h2>
  12:USB/core/usb_dcd.c ****   *
  13:USB/core/usb_dcd.c ****   * Licensed under MCD-ST Liberty SW License Agreement V2, (the "License");
  14:USB/core/usb_dcd.c ****   * You may not use this file except in compliance with the License.
  15:USB/core/usb_dcd.c ****   * You may obtain a copy of the License at:
  16:USB/core/usb_dcd.c ****   *
  17:USB/core/usb_dcd.c ****   *        http://www.st.com/software_license_agreement_liberty_v2
  18:USB/core/usb_dcd.c ****   *
  19:USB/core/usb_dcd.c ****   * Unless required by applicable law or agreed to in writing, software 
  20:USB/core/usb_dcd.c ****   * distributed under the License is distributed on an "AS IS" BASIS, 
  21:USB/core/usb_dcd.c ****   * WITHOUT WARRANTIES OR CONDITIONS OF ANY KIND, either express or implied.
  22:USB/core/usb_dcd.c ****   * See the License for the specific language governing permissions and
  23:USB/core/usb_dcd.c ****   * limitations under the License.
  24:USB/core/usb_dcd.c ****   *
  25:USB/core/usb_dcd.c ****   ******************************************************************************
  26:USB/core/usb_dcd.c ****   */
  27:USB/core/usb_dcd.c **** 
  28:USB/core/usb_dcd.c **** /* Includes ------------------------------------------------------------------*/
  29:USB/core/usb_dcd.c **** #include "usb_dcd.h"
  30:USB/core/usb_dcd.c **** #include "usb_bsp.h"
  31:USB/core/usb_dcd.c **** 
ARM GAS  /tmp/ccSHZEpa.s 			page 2


  32:USB/core/usb_dcd.c **** 
  33:USB/core/usb_dcd.c **** /** @addtogroup USB_OTG_DRIVER
  34:USB/core/usb_dcd.c **** * @{
  35:USB/core/usb_dcd.c **** */
  36:USB/core/usb_dcd.c **** 
  37:USB/core/usb_dcd.c **** /** @defgroup USB_DCD 
  38:USB/core/usb_dcd.c **** * @brief This file is the interface between EFSL ans Host mass-storage class
  39:USB/core/usb_dcd.c **** * @{
  40:USB/core/usb_dcd.c **** */
  41:USB/core/usb_dcd.c **** 
  42:USB/core/usb_dcd.c **** 
  43:USB/core/usb_dcd.c **** /** @defgroup USB_DCD_Private_Defines
  44:USB/core/usb_dcd.c **** * @{
  45:USB/core/usb_dcd.c **** */ 
  46:USB/core/usb_dcd.c **** /**
  47:USB/core/usb_dcd.c **** * @}
  48:USB/core/usb_dcd.c **** */ 
  49:USB/core/usb_dcd.c **** 
  50:USB/core/usb_dcd.c **** 
  51:USB/core/usb_dcd.c **** /** @defgroup USB_DCD_Private_TypesDefinitions
  52:USB/core/usb_dcd.c **** * @{
  53:USB/core/usb_dcd.c **** */ 
  54:USB/core/usb_dcd.c **** /**
  55:USB/core/usb_dcd.c **** * @}
  56:USB/core/usb_dcd.c **** */ 
  57:USB/core/usb_dcd.c **** 
  58:USB/core/usb_dcd.c **** 
  59:USB/core/usb_dcd.c **** 
  60:USB/core/usb_dcd.c **** /** @defgroup USB_DCD_Private_Macros
  61:USB/core/usb_dcd.c **** * @{
  62:USB/core/usb_dcd.c **** */ 
  63:USB/core/usb_dcd.c **** /**
  64:USB/core/usb_dcd.c **** * @}
  65:USB/core/usb_dcd.c **** */ 
  66:USB/core/usb_dcd.c **** 
  67:USB/core/usb_dcd.c **** 
  68:USB/core/usb_dcd.c **** /** @defgroup USB_DCD_Private_Variables
  69:USB/core/usb_dcd.c **** * @{
  70:USB/core/usb_dcd.c **** */ 
  71:USB/core/usb_dcd.c **** /**
  72:USB/core/usb_dcd.c **** * @}
  73:USB/core/usb_dcd.c **** */ 
  74:USB/core/usb_dcd.c **** 
  75:USB/core/usb_dcd.c **** 
  76:USB/core/usb_dcd.c **** /** @defgroup USB_DCD_Private_FunctionPrototypes
  77:USB/core/usb_dcd.c **** * @{
  78:USB/core/usb_dcd.c **** */ 
  79:USB/core/usb_dcd.c **** 
  80:USB/core/usb_dcd.c **** /**
  81:USB/core/usb_dcd.c **** * @}
  82:USB/core/usb_dcd.c **** */ 
  83:USB/core/usb_dcd.c **** 
  84:USB/core/usb_dcd.c **** 
  85:USB/core/usb_dcd.c **** /** @defgroup USB_DCD_Private_Functions
  86:USB/core/usb_dcd.c **** * @{
  87:USB/core/usb_dcd.c **** */ 
  88:USB/core/usb_dcd.c **** 
ARM GAS  /tmp/ccSHZEpa.s 			page 3


  89:USB/core/usb_dcd.c **** 
  90:USB/core/usb_dcd.c **** 
  91:USB/core/usb_dcd.c **** void DCD_Init(USB_OTG_CORE_HANDLE *pdev , 
  92:USB/core/usb_dcd.c ****               USB_OTG_CORE_ID_TypeDef coreID)
  93:USB/core/usb_dcd.c **** {
  28              		.loc 1 93 0
  29              		.cfi_startproc
  30              		@ args = 0, pretend = 0, frame = 0
  31              		@ frame_needed = 0, uses_anonymous_args = 0
  32              	.LVL0:
  33 0000 38B5     		push	{r3, r4, r5, lr}
  34              	.LCFI0:
  35              		.cfi_def_cfa_offset 16
  36              		.cfi_offset 3, -16
  37              		.cfi_offset 4, -12
  38              		.cfi_offset 5, -8
  39              		.cfi_offset 14, -4
  40 0002 0446     		mov	r4, r0
  94:USB/core/usb_dcd.c ****   uint32_t i;
  95:USB/core/usb_dcd.c ****   USB_OTG_EP *ep;
  96:USB/core/usb_dcd.c ****   
  97:USB/core/usb_dcd.c ****   USB_OTG_SelectCore (pdev , coreID);
  41              		.loc 1 97 0
  42 0004 FFF7FEFF 		bl	USB_OTG_SelectCore
  43              	.LVL1:
  98:USB/core/usb_dcd.c ****   
  99:USB/core/usb_dcd.c ****   pdev->dev.device_status = USB_OTG_DEFAULT;
  44              		.loc 1 99 0
  45 0008 0123     		movs	r3, #1
  46 000a 84F81231 		strb	r3, [r4, #274]
 100:USB/core/usb_dcd.c ****   pdev->dev.device_address = 0;
  47              		.loc 1 100 0
  48 000e 0022     		movs	r2, #0
  49 0010 84F81421 		strb	r2, [r4, #276]
  50              	.LVL2:
 101:USB/core/usb_dcd.c ****   
 102:USB/core/usb_dcd.c ****   /* Init ep structure */
 103:USB/core/usb_dcd.c ****   for (i = 0; i < pdev->cfg.dev_endpoints ; i++)
  51              		.loc 1 103 0
  52 0014 15E0     		b	.L2
  53              	.LVL3:
  54              	.L3:
 104:USB/core/usb_dcd.c ****   {
 105:USB/core/usb_dcd.c ****     ep = &pdev->dev.in_ep[i];
 106:USB/core/usb_dcd.c ****     /* Init ep structure */
 107:USB/core/usb_dcd.c ****     ep->is_in = 1;
  55              		.loc 1 107 0 discriminator 3
  56 0016 9100     		lsls	r1, r2, #2
  57 0018 1144     		add	r1, r1, r2
  58 001a CB00     		lsls	r3, r1, #3
  59 001c 2344     		add	r3, r3, r4
  60 001e 0121     		movs	r1, #1
  61 0020 83F81D11 		strb	r1, [r3, #285]
 108:USB/core/usb_dcd.c ****     ep->num = i;
  62              		.loc 1 108 0 discriminator 3
  63 0024 83F81C21 		strb	r2, [r3, #284]
 109:USB/core/usb_dcd.c ****     ep->tx_fifo_num = i;
ARM GAS  /tmp/ccSHZEpa.s 			page 4


  64              		.loc 1 109 0 discriminator 3
  65 0028 A3F82221 		strh	r2, [r3, #290]	@ movhi
 110:USB/core/usb_dcd.c ****     /* Control until ep is actvated */
 111:USB/core/usb_dcd.c ****     ep->type = EP_TYPE_CTRL;
  66              		.loc 1 111 0 discriminator 3
  67 002c 0021     		movs	r1, #0
  68 002e 83F81F11 		strb	r1, [r3, #287]
 112:USB/core/usb_dcd.c ****     ep->maxpacket =  USB_OTG_MAX_EP0_SIZE;
  69              		.loc 1 112 0 discriminator 3
  70 0032 4020     		movs	r0, #64
  71 0034 C3F82401 		str	r0, [r3, #292]
 113:USB/core/usb_dcd.c ****     ep->xfer_buff = 0;
  72              		.loc 1 113 0 discriminator 3
  73 0038 C3F82811 		str	r1, [r3, #296]
 114:USB/core/usb_dcd.c ****     ep->xfer_len = 0;
  74              		.loc 1 114 0 discriminator 3
  75 003c C3F83011 		str	r1, [r3, #304]
 103:USB/core/usb_dcd.c ****   {
  76              		.loc 1 103 0 discriminator 3
  77 0040 0132     		adds	r2, r2, #1
  78              	.LVL4:
  79              	.L2:
 103:USB/core/usb_dcd.c ****   {
  80              		.loc 1 103 0 is_stmt 0 discriminator 1
  81 0042 6078     		ldrb	r0, [r4, #1]	@ zero_extendqisi2
  82 0044 8242     		cmp	r2, r0
  83 0046 E6D3     		bcc	.L3
  84 0048 0022     		movs	r2, #0
  85              	.LVL5:
  86 004a 14E0     		b	.L4
  87              	.LVL6:
  88              	.L5:
 115:USB/core/usb_dcd.c ****   }
 116:USB/core/usb_dcd.c ****   
 117:USB/core/usb_dcd.c ****   for (i = 0; i < pdev->cfg.dev_endpoints; i++)
 118:USB/core/usb_dcd.c ****   {
 119:USB/core/usb_dcd.c ****     ep = &pdev->dev.out_ep[i];
 120:USB/core/usb_dcd.c ****     /* Init ep structure */
 121:USB/core/usb_dcd.c ****     ep->is_in = 0;
  89              		.loc 1 121 0 is_stmt 1 discriminator 3
  90 004c 9100     		lsls	r1, r2, #2
  91 004e 1144     		add	r1, r1, r2
  92 0050 CB00     		lsls	r3, r1, #3
  93 0052 2344     		add	r3, r3, r4
  94 0054 0021     		movs	r1, #0
  95 0056 83F87513 		strb	r1, [r3, #885]
 122:USB/core/usb_dcd.c ****     ep->num = i;
  96              		.loc 1 122 0 discriminator 3
  97 005a 83F87423 		strb	r2, [r3, #884]
 123:USB/core/usb_dcd.c ****     ep->tx_fifo_num = i;
  98              		.loc 1 123 0 discriminator 3
  99 005e A3F87A23 		strh	r2, [r3, #890]	@ movhi
 124:USB/core/usb_dcd.c ****     /* Control until ep is activated */
 125:USB/core/usb_dcd.c ****     ep->type = EP_TYPE_CTRL;
 100              		.loc 1 125 0 discriminator 3
 101 0062 83F87713 		strb	r1, [r3, #887]
 126:USB/core/usb_dcd.c ****     ep->maxpacket = USB_OTG_MAX_EP0_SIZE;
ARM GAS  /tmp/ccSHZEpa.s 			page 5


 102              		.loc 1 126 0 discriminator 3
 103 0066 4025     		movs	r5, #64
 104 0068 C3F87C53 		str	r5, [r3, #892]
 127:USB/core/usb_dcd.c ****     ep->xfer_buff = 0;
 105              		.loc 1 127 0 discriminator 3
 106 006c C3F88013 		str	r1, [r3, #896]
 128:USB/core/usb_dcd.c ****     ep->xfer_len = 0;
 107              		.loc 1 128 0 discriminator 3
 108 0070 C3F88813 		str	r1, [r3, #904]
 117:USB/core/usb_dcd.c ****   {
 109              		.loc 1 117 0 discriminator 3
 110 0074 0132     		adds	r2, r2, #1
 111              	.LVL7:
 112              	.L4:
 117:USB/core/usb_dcd.c ****   {
 113              		.loc 1 117 0 is_stmt 0 discriminator 1
 114 0076 8242     		cmp	r2, r0
 115 0078 E8D3     		bcc	.L5
 129:USB/core/usb_dcd.c ****   }
 130:USB/core/usb_dcd.c ****   
 131:USB/core/usb_dcd.c ****   USB_OTG_DisableGlobalInt(pdev);
 116              		.loc 1 131 0 is_stmt 1
 117 007a 2046     		mov	r0, r4
 118 007c FFF7FEFF 		bl	USB_OTG_DisableGlobalInt
 119              	.LVL8:
 132:USB/core/usb_dcd.c ****   
 133:USB/core/usb_dcd.c ****   /*Init the Core (common init.) */
 134:USB/core/usb_dcd.c ****   USB_OTG_CoreInit(pdev);
 120              		.loc 1 134 0
 121 0080 2046     		mov	r0, r4
 122 0082 FFF7FEFF 		bl	USB_OTG_CoreInit
 123              	.LVL9:
 135:USB/core/usb_dcd.c **** 
 136:USB/core/usb_dcd.c **** 
 137:USB/core/usb_dcd.c ****   /* Force Device Mode*/
 138:USB/core/usb_dcd.c ****   USB_OTG_SetCurrentMode(pdev, DEVICE_MODE);
 124              		.loc 1 138 0
 125 0086 0021     		movs	r1, #0
 126 0088 2046     		mov	r0, r4
 127 008a FFF7FEFF 		bl	USB_OTG_SetCurrentMode
 128              	.LVL10:
 139:USB/core/usb_dcd.c ****   
 140:USB/core/usb_dcd.c ****   /* Init Device */
 141:USB/core/usb_dcd.c ****   USB_OTG_CoreInitDev(pdev);
 129              		.loc 1 141 0
 130 008e 2046     		mov	r0, r4
 131 0090 FFF7FEFF 		bl	USB_OTG_CoreInitDev
 132              	.LVL11:
 142:USB/core/usb_dcd.c ****   
 143:USB/core/usb_dcd.c ****   
 144:USB/core/usb_dcd.c ****   /* Enable USB Global interrupt */
 145:USB/core/usb_dcd.c ****   USB_OTG_EnableGlobalInt(pdev);
 133              		.loc 1 145 0
 134 0094 2046     		mov	r0, r4
 135 0096 FFF7FEFF 		bl	USB_OTG_EnableGlobalInt
 136              	.LVL12:
 137 009a 38BD     		pop	{r3, r4, r5, pc}
ARM GAS  /tmp/ccSHZEpa.s 			page 6


 138              		.cfi_endproc
 139              	.LFE124:
 141              		.section	.text.DCD_EP_Open,"ax",%progbits
 142              		.align	1
 143              		.global	DCD_EP_Open
 144              		.syntax unified
 145              		.thumb
 146              		.thumb_func
 147              		.fpu fpv4-sp-d16
 149              	DCD_EP_Open:
 150              	.LFB125:
 146:USB/core/usb_dcd.c **** }
 147:USB/core/usb_dcd.c **** 
 148:USB/core/usb_dcd.c **** 
 149:USB/core/usb_dcd.c **** /**
 150:USB/core/usb_dcd.c **** * @brief  Configure an EP
 151:USB/core/usb_dcd.c **** * @param pdev : Device instance
 152:USB/core/usb_dcd.c **** * @param epdesc : Endpoint Descriptor
 153:USB/core/usb_dcd.c **** * @retval : status
 154:USB/core/usb_dcd.c **** */
 155:USB/core/usb_dcd.c **** uint32_t DCD_EP_Open(USB_OTG_CORE_HANDLE *pdev , 
 156:USB/core/usb_dcd.c ****                      uint8_t ep_addr,
 157:USB/core/usb_dcd.c ****                      uint16_t ep_mps,
 158:USB/core/usb_dcd.c ****                      uint8_t ep_type)
 159:USB/core/usb_dcd.c **** {
 151              		.loc 1 159 0
 152              		.cfi_startproc
 153              		@ args = 0, pretend = 0, frame = 0
 154              		@ frame_needed = 0, uses_anonymous_args = 0
 155              	.LVL13:
 156 0000 70B5     		push	{r4, r5, r6, lr}
 157              	.LCFI1:
 158              		.cfi_def_cfa_offset 16
 159              		.cfi_offset 4, -16
 160              		.cfi_offset 5, -12
 161              		.cfi_offset 6, -8
 162              		.cfi_offset 14, -4
 160:USB/core/usb_dcd.c ****   USB_OTG_EP *ep;
 161:USB/core/usb_dcd.c ****   
 162:USB/core/usb_dcd.c ****   if ((ep_addr & 0x80) == 0x80)
 163              		.loc 1 162 0
 164 0002 4DB2     		sxtb	r5, r1
 165 0004 002D     		cmp	r5, #0
 166 0006 18DB     		blt	.L13
 163:USB/core/usb_dcd.c ****   {
 164:USB/core/usb_dcd.c ****     ep = &pdev->dev.in_ep[ep_addr & 0x7F];
 165:USB/core/usb_dcd.c ****   }
 166:USB/core/usb_dcd.c ****   else
 167:USB/core/usb_dcd.c ****   {
 168:USB/core/usb_dcd.c ****     ep = &pdev->dev.out_ep[ep_addr & 0x7F];
 167              		.loc 1 168 0
 168 0008 01F07F06 		and	r6, r1, #127
 169 000c 06EB8606 		add	r6, r6, r6, lsl #2
 170 0010 F400     		lsls	r4, r6, #3
 171 0012 04F55C74 		add	r4, r4, #880
 172 0016 0444     		add	r4, r4, r0
 173 0018 0434     		adds	r4, r4, #4
ARM GAS  /tmp/ccSHZEpa.s 			page 7


 174              	.LVL14:
 175              	.L9:
 169:USB/core/usb_dcd.c ****   }
 170:USB/core/usb_dcd.c ****   ep->num   = ep_addr & 0x7F;
 176              		.loc 1 170 0
 177 001a 01F07F01 		and	r1, r1, #127
 178              	.LVL15:
 179 001e 2170     		strb	r1, [r4]
 171:USB/core/usb_dcd.c ****   
 172:USB/core/usb_dcd.c ****   ep->is_in = (0x80 & ep_addr) != 0;
 180              		.loc 1 172 0
 181 0020 ED0F     		lsrs	r5, r5, #31
 182              	.LVL16:
 183 0022 6570     		strb	r5, [r4, #1]
 173:USB/core/usb_dcd.c ****   ep->maxpacket = ep_mps;
 184              		.loc 1 173 0
 185 0024 A260     		str	r2, [r4, #8]
 174:USB/core/usb_dcd.c ****   ep->type = ep_type;
 186              		.loc 1 174 0
 187 0026 E370     		strb	r3, [r4, #3]
 175:USB/core/usb_dcd.c ****   if (ep->is_in)
 188              		.loc 1 175 0
 189 0028 05B1     		cbz	r5, .L10
 176:USB/core/usb_dcd.c ****   {
 177:USB/core/usb_dcd.c ****     /* Assign a Tx FIFO */
 178:USB/core/usb_dcd.c ****     ep->tx_fifo_num = ep->num;
 190              		.loc 1 178 0
 191 002a E180     		strh	r1, [r4, #6]	@ movhi
 192              	.L10:
 179:USB/core/usb_dcd.c ****   }
 180:USB/core/usb_dcd.c ****   /* Set initial data PID. */
 181:USB/core/usb_dcd.c ****   if (ep_type == USB_OTG_EP_BULK )
 193              		.loc 1 181 0
 194 002c 022B     		cmp	r3, #2
 195 002e 0ED0     		beq	.L14
 196              	.LVL17:
 197              	.L11:
 182:USB/core/usb_dcd.c ****   {
 183:USB/core/usb_dcd.c ****     ep->data_pid_start = 0;
 184:USB/core/usb_dcd.c ****   }
 185:USB/core/usb_dcd.c ****   USB_OTG_EPActivate(pdev , ep );
 198              		.loc 1 185 0
 199 0030 2146     		mov	r1, r4
 200 0032 FFF7FEFF 		bl	USB_OTG_EPActivate
 201              	.LVL18:
 186:USB/core/usb_dcd.c ****   return 0;
 187:USB/core/usb_dcd.c **** }
 202              		.loc 1 187 0
 203 0036 0020     		movs	r0, #0
 204 0038 70BD     		pop	{r4, r5, r6, pc}
 205              	.LVL19:
 206              	.L13:
 164:USB/core/usb_dcd.c ****   }
 207              		.loc 1 164 0
 208 003a 01F07F06 		and	r6, r1, #127
 209 003e 06EB8606 		add	r6, r6, r6, lsl #2
 210 0042 F400     		lsls	r4, r6, #3
ARM GAS  /tmp/ccSHZEpa.s 			page 8


 211 0044 04F58C74 		add	r4, r4, #280
 212 0048 0444     		add	r4, r4, r0
 213 004a 0434     		adds	r4, r4, #4
 214              	.LVL20:
 215 004c E5E7     		b	.L9
 216              	.LVL21:
 217              	.L14:
 183:USB/core/usb_dcd.c ****   }
 218              		.loc 1 183 0
 219 004e 0023     		movs	r3, #0
 220              	.LVL22:
 221 0050 2371     		strb	r3, [r4, #4]
 222 0052 EDE7     		b	.L11
 223              		.cfi_endproc
 224              	.LFE125:
 226              		.section	.text.DCD_EP_Close,"ax",%progbits
 227              		.align	1
 228              		.global	DCD_EP_Close
 229              		.syntax unified
 230              		.thumb
 231              		.thumb_func
 232              		.fpu fpv4-sp-d16
 234              	DCD_EP_Close:
 235              	.LFB126:
 188:USB/core/usb_dcd.c **** /**
 189:USB/core/usb_dcd.c **** * @brief  called when an EP is disabled
 190:USB/core/usb_dcd.c **** * @param pdev: device instance
 191:USB/core/usb_dcd.c **** * @param ep_addr: endpoint address
 192:USB/core/usb_dcd.c **** * @retval : status
 193:USB/core/usb_dcd.c **** */
 194:USB/core/usb_dcd.c **** uint32_t DCD_EP_Close(USB_OTG_CORE_HANDLE *pdev , uint8_t  ep_addr)
 195:USB/core/usb_dcd.c **** {
 236              		.loc 1 195 0
 237              		.cfi_startproc
 238              		@ args = 0, pretend = 0, frame = 0
 239              		@ frame_needed = 0, uses_anonymous_args = 0
 240              	.LVL23:
 241 0000 10B5     		push	{r4, lr}
 242              	.LCFI2:
 243              		.cfi_def_cfa_offset 8
 244              		.cfi_offset 4, -8
 245              		.cfi_offset 14, -4
 196:USB/core/usb_dcd.c ****   USB_OTG_EP *ep;
 197:USB/core/usb_dcd.c ****   
 198:USB/core/usb_dcd.c ****   if ((ep_addr&0x80) == 0x80)
 246              		.loc 1 198 0
 247 0002 4AB2     		sxtb	r2, r1
 248 0004 002A     		cmp	r2, #0
 249 0006 12DB     		blt	.L19
 199:USB/core/usb_dcd.c ****   {
 200:USB/core/usb_dcd.c ****     ep = &pdev->dev.in_ep[ep_addr & 0x7F];
 201:USB/core/usb_dcd.c ****   }
 202:USB/core/usb_dcd.c ****   else
 203:USB/core/usb_dcd.c ****   {
 204:USB/core/usb_dcd.c ****     ep = &pdev->dev.out_ep[ep_addr & 0x7F];
 250              		.loc 1 204 0
 251 0008 01F07F04 		and	r4, r1, #127
ARM GAS  /tmp/ccSHZEpa.s 			page 9


 252 000c 04EB8404 		add	r4, r4, r4, lsl #2
 253 0010 E300     		lsls	r3, r4, #3
 254 0012 03F55C73 		add	r3, r3, #880
 255 0016 0344     		add	r3, r3, r0
 256 0018 0433     		adds	r3, r3, #4
 257              	.LVL24:
 258              	.L17:
 205:USB/core/usb_dcd.c ****   }
 206:USB/core/usb_dcd.c ****   ep->num   = ep_addr & 0x7F;
 259              		.loc 1 206 0
 260 001a 01F07F01 		and	r1, r1, #127
 261              	.LVL25:
 262 001e 1970     		strb	r1, [r3]
 207:USB/core/usb_dcd.c ****   ep->is_in = (0x80 & ep_addr) != 0;
 263              		.loc 1 207 0
 264 0020 D20F     		lsrs	r2, r2, #31
 265              	.LVL26:
 266 0022 5A70     		strb	r2, [r3, #1]
 208:USB/core/usb_dcd.c ****   USB_OTG_EPDeactivate(pdev , ep );
 267              		.loc 1 208 0
 268 0024 1946     		mov	r1, r3
 269 0026 FFF7FEFF 		bl	USB_OTG_EPDeactivate
 270              	.LVL27:
 209:USB/core/usb_dcd.c ****   return 0;
 210:USB/core/usb_dcd.c **** }
 271              		.loc 1 210 0
 272 002a 0020     		movs	r0, #0
 273 002c 10BD     		pop	{r4, pc}
 274              	.LVL28:
 275              	.L19:
 200:USB/core/usb_dcd.c ****   }
 276              		.loc 1 200 0
 277 002e 01F07F04 		and	r4, r1, #127
 278 0032 04EB8404 		add	r4, r4, r4, lsl #2
 279 0036 E300     		lsls	r3, r4, #3
 280 0038 03F58C73 		add	r3, r3, #280
 281 003c 0344     		add	r3, r3, r0
 282 003e 0433     		adds	r3, r3, #4
 283              	.LVL29:
 284 0040 EBE7     		b	.L17
 285              		.cfi_endproc
 286              	.LFE126:
 288              		.section	.text.DCD_EP_PrepareRx,"ax",%progbits
 289              		.align	1
 290              		.global	DCD_EP_PrepareRx
 291              		.syntax unified
 292              		.thumb
 293              		.thumb_func
 294              		.fpu fpv4-sp-d16
 296              	DCD_EP_PrepareRx:
 297              	.LFB127:
 211:USB/core/usb_dcd.c **** 
 212:USB/core/usb_dcd.c **** 
 213:USB/core/usb_dcd.c **** /**
 214:USB/core/usb_dcd.c **** * @brief  DCD_EP_PrepareRx
 215:USB/core/usb_dcd.c **** * @param pdev: device instance
 216:USB/core/usb_dcd.c **** * @param ep_addr: endpoint address
ARM GAS  /tmp/ccSHZEpa.s 			page 10


 217:USB/core/usb_dcd.c **** * @param pbuf: pointer to Rx buffer
 218:USB/core/usb_dcd.c **** * @param buf_len: data length
 219:USB/core/usb_dcd.c **** * @retval : status
 220:USB/core/usb_dcd.c **** */
 221:USB/core/usb_dcd.c **** uint32_t   DCD_EP_PrepareRx( USB_OTG_CORE_HANDLE *pdev,
 222:USB/core/usb_dcd.c ****                             uint8_t   ep_addr,
 223:USB/core/usb_dcd.c ****                             uint8_t *pbuf,                        
 224:USB/core/usb_dcd.c ****                             uint16_t  buf_len)
 225:USB/core/usb_dcd.c **** {
 298              		.loc 1 225 0
 299              		.cfi_startproc
 300              		@ args = 0, pretend = 0, frame = 0
 301              		@ frame_needed = 0, uses_anonymous_args = 0
 302              	.LVL30:
 303 0000 70B5     		push	{r4, r5, r6, lr}
 304              	.LCFI3:
 305              		.cfi_def_cfa_offset 16
 306              		.cfi_offset 4, -16
 307              		.cfi_offset 5, -12
 308              		.cfi_offset 6, -8
 309              		.cfi_offset 14, -4
 310 0002 01F07F04 		and	r4, r1, #127
 226:USB/core/usb_dcd.c ****   USB_OTG_EP *ep;
 227:USB/core/usb_dcd.c ****   
 228:USB/core/usb_dcd.c ****   ep = &pdev->dev.out_ep[ep_addr & 0x7F];
 311              		.loc 1 228 0
 312 0006 A600     		lsls	r6, r4, #2
 313 0008 3519     		adds	r5, r6, r4
 314 000a E900     		lsls	r1, r5, #3
 315              	.LVL31:
 316 000c 0D46     		mov	r5, r1
 317 000e 01F55C71 		add	r1, r1, #880
 318 0012 0144     		add	r1, r1, r0
 319 0014 0431     		adds	r1, r1, #4
 320              	.LVL32:
 229:USB/core/usb_dcd.c ****   
 230:USB/core/usb_dcd.c ****   /*setup and start the Xfer */
 231:USB/core/usb_dcd.c ****   ep->xfer_buff = pbuf;  
 321              		.loc 1 231 0
 322 0016 2E46     		mov	r6, r5
 323 0018 0544     		add	r5, r5, r0
 324 001a C5F88023 		str	r2, [r5, #896]
 232:USB/core/usb_dcd.c ****   ep->xfer_len = buf_len;
 325              		.loc 1 232 0
 326 001e C5F88833 		str	r3, [r5, #904]
 233:USB/core/usb_dcd.c ****   ep->xfer_count = 0;
 327              		.loc 1 233 0
 328 0022 0023     		movs	r3, #0
 329              	.LVL33:
 330 0024 C5F88C33 		str	r3, [r5, #908]
 234:USB/core/usb_dcd.c ****   ep->is_in = 0;
 331              		.loc 1 234 0
 332 0028 85F87533 		strb	r3, [r5, #885]
 235:USB/core/usb_dcd.c ****   ep->num = ep_addr & 0x7F;
 333              		.loc 1 235 0
 334 002c 85F87443 		strb	r4, [r5, #884]
 236:USB/core/usb_dcd.c ****   
ARM GAS  /tmp/ccSHZEpa.s 			page 11


 237:USB/core/usb_dcd.c ****   if (pdev->cfg.dma_enable == 1)
 335              		.loc 1 237 0
 336 0030 C378     		ldrb	r3, [r0, #3]	@ zero_extendqisi2
 337 0032 012B     		cmp	r3, #1
 338 0034 0AD0     		beq	.L25
 339              	.L21:
 238:USB/core/usb_dcd.c ****   {
 239:USB/core/usb_dcd.c ****     ep->dma_addr = (uint32_t)pbuf;  
 240:USB/core/usb_dcd.c ****   }
 241:USB/core/usb_dcd.c ****   
 242:USB/core/usb_dcd.c ****   if ( ep->num == 0 )
 340              		.loc 1 242 0
 341 0036 04EB8404 		add	r4, r4, r4, lsl #2
 342 003a E300     		lsls	r3, r4, #3
 343 003c 0344     		add	r3, r3, r0
 344 003e 93F87433 		ldrb	r3, [r3, #884]	@ zero_extendqisi2
 345 0042 43B1     		cbz	r3, .L26
 243:USB/core/usb_dcd.c ****   {
 244:USB/core/usb_dcd.c ****     USB_OTG_EP0StartXfer(pdev , ep);
 245:USB/core/usb_dcd.c ****   }
 246:USB/core/usb_dcd.c ****   else
 247:USB/core/usb_dcd.c ****   {
 248:USB/core/usb_dcd.c ****     USB_OTG_EPStartXfer(pdev, ep );
 346              		.loc 1 248 0
 347 0044 FFF7FEFF 		bl	USB_OTG_EPStartXfer
 348              	.LVL34:
 349              	.L23:
 249:USB/core/usb_dcd.c ****   }
 250:USB/core/usb_dcd.c ****   return 0;
 251:USB/core/usb_dcd.c **** }
 350              		.loc 1 251 0
 351 0048 0020     		movs	r0, #0
 352 004a 70BD     		pop	{r4, r5, r6, pc}
 353              	.LVL35:
 354              	.L25:
 239:USB/core/usb_dcd.c ****   }
 355              		.loc 1 239 0
 356 004c 3346     		mov	r3, r6
 357 004e 0344     		add	r3, r3, r0
 358 0050 C3F88423 		str	r2, [r3, #900]
 359 0054 EFE7     		b	.L21
 360              	.L26:
 244:USB/core/usb_dcd.c ****   }
 361              		.loc 1 244 0
 362 0056 FFF7FEFF 		bl	USB_OTG_EP0StartXfer
 363              	.LVL36:
 364 005a F5E7     		b	.L23
 365              		.cfi_endproc
 366              	.LFE127:
 368              		.section	.text.DCD_EP_Tx,"ax",%progbits
 369              		.align	1
 370              		.global	DCD_EP_Tx
 371              		.syntax unified
 372              		.thumb
 373              		.thumb_func
 374              		.fpu fpv4-sp-d16
 376              	DCD_EP_Tx:
ARM GAS  /tmp/ccSHZEpa.s 			page 12


 377              	.LFB128:
 252:USB/core/usb_dcd.c **** 
 253:USB/core/usb_dcd.c **** /**
 254:USB/core/usb_dcd.c **** * @brief  Transmit data over USB
 255:USB/core/usb_dcd.c **** * @param pdev: device instance
 256:USB/core/usb_dcd.c **** * @param ep_addr: endpoint address
 257:USB/core/usb_dcd.c **** * @param pbuf: pointer to Tx buffer
 258:USB/core/usb_dcd.c **** * @param buf_len: data length
 259:USB/core/usb_dcd.c **** * @retval : status
 260:USB/core/usb_dcd.c **** */
 261:USB/core/usb_dcd.c **** uint32_t  DCD_EP_Tx ( USB_OTG_CORE_HANDLE *pdev,
 262:USB/core/usb_dcd.c ****                      uint8_t   ep_addr,
 263:USB/core/usb_dcd.c ****                      uint8_t   *pbuf,
 264:USB/core/usb_dcd.c ****                      uint32_t   buf_len)
 265:USB/core/usb_dcd.c **** {
 378              		.loc 1 265 0
 379              		.cfi_startproc
 380              		@ args = 0, pretend = 0, frame = 0
 381              		@ frame_needed = 0, uses_anonymous_args = 0
 382              	.LVL37:
 383 0000 70B5     		push	{r4, r5, r6, lr}
 384              	.LCFI4:
 385              		.cfi_def_cfa_offset 16
 386              		.cfi_offset 4, -16
 387              		.cfi_offset 5, -12
 388              		.cfi_offset 6, -8
 389              		.cfi_offset 14, -4
 390 0002 01F07F05 		and	r5, r1, #127
 266:USB/core/usb_dcd.c ****   USB_OTG_EP *ep;
 267:USB/core/usb_dcd.c ****   
 268:USB/core/usb_dcd.c ****   ep = &pdev->dev.in_ep[ep_addr & 0x7F];
 391              		.loc 1 268 0
 392 0006 AE00     		lsls	r6, r5, #2
 393 0008 7119     		adds	r1, r6, r5
 394              	.LVL38:
 395 000a CC00     		lsls	r4, r1, #3
 396 000c 04F58C74 		add	r4, r4, #280
 397 0010 0444     		add	r4, r4, r0
 398 0012 211D     		adds	r1, r4, #4
 399              	.LVL39:
 269:USB/core/usb_dcd.c ****   
 270:USB/core/usb_dcd.c ****   /* Setup and start the Transfer */
 271:USB/core/usb_dcd.c ****   ep->is_in = 1;
 400              		.loc 1 271 0
 401 0014 2E44     		add	r6, r6, r5
 402 0016 F400     		lsls	r4, r6, #3
 403 0018 0444     		add	r4, r4, r0
 404 001a 0126     		movs	r6, #1
 405 001c 84F81D61 		strb	r6, [r4, #285]
 272:USB/core/usb_dcd.c ****   ep->num = ep_addr & 0x7F;  
 406              		.loc 1 272 0
 407 0020 84F81C51 		strb	r5, [r4, #284]
 273:USB/core/usb_dcd.c ****   ep->xfer_buff = pbuf;
 408              		.loc 1 273 0
 409 0024 C4F82821 		str	r2, [r4, #296]
 274:USB/core/usb_dcd.c ****   ep->dma_addr = (uint32_t)pbuf;  
 410              		.loc 1 274 0
ARM GAS  /tmp/ccSHZEpa.s 			page 13


 411 0028 C4F82C21 		str	r2, [r4, #300]
 275:USB/core/usb_dcd.c ****   ep->xfer_count = 0;
 412              		.loc 1 275 0
 413 002c 0022     		movs	r2, #0
 414              	.LVL40:
 415 002e C4F83421 		str	r2, [r4, #308]
 276:USB/core/usb_dcd.c ****   ep->xfer_len  = buf_len;
 416              		.loc 1 276 0
 417 0032 C4F83031 		str	r3, [r4, #304]
 277:USB/core/usb_dcd.c ****   
 278:USB/core/usb_dcd.c ****   if ( ep->num == 0 )
 418              		.loc 1 278 0
 419 0036 1DB1     		cbz	r5, .L31
 279:USB/core/usb_dcd.c ****   {
 280:USB/core/usb_dcd.c ****     USB_OTG_EP0StartXfer(pdev , ep);
 281:USB/core/usb_dcd.c ****   }
 282:USB/core/usb_dcd.c ****   else
 283:USB/core/usb_dcd.c ****   {
 284:USB/core/usb_dcd.c ****     USB_OTG_EPStartXfer(pdev, ep );
 420              		.loc 1 284 0
 421 0038 FFF7FEFF 		bl	USB_OTG_EPStartXfer
 422              	.LVL41:
 423              	.L29:
 285:USB/core/usb_dcd.c ****   }
 286:USB/core/usb_dcd.c ****   return 0;
 287:USB/core/usb_dcd.c **** }
 424              		.loc 1 287 0
 425 003c 0020     		movs	r0, #0
 426 003e 70BD     		pop	{r4, r5, r6, pc}
 427              	.LVL42:
 428              	.L31:
 280:USB/core/usb_dcd.c ****   }
 429              		.loc 1 280 0
 430 0040 FFF7FEFF 		bl	USB_OTG_EP0StartXfer
 431              	.LVL43:
 432 0044 FAE7     		b	.L29
 433              		.cfi_endproc
 434              	.LFE128:
 436              		.section	.text.DCD_EP_Stall,"ax",%progbits
 437              		.align	1
 438              		.global	DCD_EP_Stall
 439              		.syntax unified
 440              		.thumb
 441              		.thumb_func
 442              		.fpu fpv4-sp-d16
 444              	DCD_EP_Stall:
 445              	.LFB129:
 288:USB/core/usb_dcd.c **** 
 289:USB/core/usb_dcd.c **** 
 290:USB/core/usb_dcd.c **** /**
 291:USB/core/usb_dcd.c **** * @brief  Stall an endpoint.
 292:USB/core/usb_dcd.c **** * @param pdev: device instance
 293:USB/core/usb_dcd.c **** * @param epnum: endpoint address
 294:USB/core/usb_dcd.c **** * @retval : status
 295:USB/core/usb_dcd.c **** */
 296:USB/core/usb_dcd.c **** uint32_t  DCD_EP_Stall (USB_OTG_CORE_HANDLE *pdev, uint8_t   epnum)
 297:USB/core/usb_dcd.c **** {
ARM GAS  /tmp/ccSHZEpa.s 			page 14


 446              		.loc 1 297 0
 447              		.cfi_startproc
 448              		@ args = 0, pretend = 0, frame = 0
 449              		@ frame_needed = 0, uses_anonymous_args = 0
 450              	.LVL44:
 451 0000 10B5     		push	{r4, lr}
 452              	.LCFI5:
 453              		.cfi_def_cfa_offset 8
 454              		.cfi_offset 4, -8
 455              		.cfi_offset 14, -4
 298:USB/core/usb_dcd.c ****   USB_OTG_EP *ep;
 299:USB/core/usb_dcd.c ****   if ((0x80 & epnum) == 0x80)
 456              		.loc 1 299 0
 457 0002 4AB2     		sxtb	r2, r1
 458 0004 002A     		cmp	r2, #0
 459 0006 12DB     		blt	.L36
 300:USB/core/usb_dcd.c ****   {
 301:USB/core/usb_dcd.c ****     ep = &pdev->dev.in_ep[epnum & 0x7F];
 302:USB/core/usb_dcd.c ****   }
 303:USB/core/usb_dcd.c ****   else
 304:USB/core/usb_dcd.c ****   {
 305:USB/core/usb_dcd.c ****     ep = &pdev->dev.out_ep[epnum];
 460              		.loc 1 305 0
 461 0008 01EB8104 		add	r4, r1, r1, lsl #2
 462 000c E300     		lsls	r3, r4, #3
 463 000e 03F55C73 		add	r3, r3, #880
 464 0012 0344     		add	r3, r3, r0
 465 0014 0433     		adds	r3, r3, #4
 466              	.LVL45:
 467              	.L34:
 306:USB/core/usb_dcd.c ****   }
 307:USB/core/usb_dcd.c **** 
 308:USB/core/usb_dcd.c ****   ep->is_stall = 1;
 468              		.loc 1 308 0
 469 0016 0124     		movs	r4, #1
 470 0018 9C70     		strb	r4, [r3, #2]
 309:USB/core/usb_dcd.c ****   ep->num   = epnum & 0x7F;
 471              		.loc 1 309 0
 472 001a 01F07F01 		and	r1, r1, #127
 473              	.LVL46:
 474 001e 1970     		strb	r1, [r3]
 310:USB/core/usb_dcd.c ****   ep->is_in = ((epnum & 0x80) == 0x80);
 475              		.loc 1 310 0
 476 0020 D20F     		lsrs	r2, r2, #31
 477              	.LVL47:
 478 0022 5A70     		strb	r2, [r3, #1]
 311:USB/core/usb_dcd.c ****   
 312:USB/core/usb_dcd.c ****   USB_OTG_EPSetStall(pdev , ep);
 479              		.loc 1 312 0
 480 0024 1946     		mov	r1, r3
 481 0026 FFF7FEFF 		bl	USB_OTG_EPSetStall
 482              	.LVL48:
 313:USB/core/usb_dcd.c ****   return (0);
 314:USB/core/usb_dcd.c **** }
 483              		.loc 1 314 0
 484 002a 0020     		movs	r0, #0
 485 002c 10BD     		pop	{r4, pc}
ARM GAS  /tmp/ccSHZEpa.s 			page 15


 486              	.LVL49:
 487              	.L36:
 301:USB/core/usb_dcd.c ****   }
 488              		.loc 1 301 0
 489 002e 01F07F04 		and	r4, r1, #127
 490 0032 04EB8404 		add	r4, r4, r4, lsl #2
 491 0036 E300     		lsls	r3, r4, #3
 492 0038 03F58C73 		add	r3, r3, #280
 493 003c 0344     		add	r3, r3, r0
 494 003e 0433     		adds	r3, r3, #4
 495              	.LVL50:
 496 0040 E9E7     		b	.L34
 497              		.cfi_endproc
 498              	.LFE129:
 500              		.section	.text.DCD_EP_ClrStall,"ax",%progbits
 501              		.align	1
 502              		.global	DCD_EP_ClrStall
 503              		.syntax unified
 504              		.thumb
 505              		.thumb_func
 506              		.fpu fpv4-sp-d16
 508              	DCD_EP_ClrStall:
 509              	.LFB130:
 315:USB/core/usb_dcd.c **** 
 316:USB/core/usb_dcd.c **** 
 317:USB/core/usb_dcd.c **** /**
 318:USB/core/usb_dcd.c **** * @brief  Clear stall condition on endpoints.
 319:USB/core/usb_dcd.c **** * @param pdev: device instance
 320:USB/core/usb_dcd.c **** * @param epnum: endpoint address
 321:USB/core/usb_dcd.c **** * @retval : status
 322:USB/core/usb_dcd.c **** */
 323:USB/core/usb_dcd.c **** uint32_t  DCD_EP_ClrStall (USB_OTG_CORE_HANDLE *pdev, uint8_t epnum)
 324:USB/core/usb_dcd.c **** {
 510              		.loc 1 324 0
 511              		.cfi_startproc
 512              		@ args = 0, pretend = 0, frame = 0
 513              		@ frame_needed = 0, uses_anonymous_args = 0
 514              	.LVL51:
 515 0000 10B5     		push	{r4, lr}
 516              	.LCFI6:
 517              		.cfi_def_cfa_offset 8
 518              		.cfi_offset 4, -8
 519              		.cfi_offset 14, -4
 325:USB/core/usb_dcd.c ****   USB_OTG_EP *ep;
 326:USB/core/usb_dcd.c ****   if ((0x80 & epnum) == 0x80)
 520              		.loc 1 326 0
 521 0002 4AB2     		sxtb	r2, r1
 522 0004 002A     		cmp	r2, #0
 523 0006 12DB     		blt	.L41
 327:USB/core/usb_dcd.c ****   {
 328:USB/core/usb_dcd.c ****     ep = &pdev->dev.in_ep[epnum & 0x7F];    
 329:USB/core/usb_dcd.c ****   }
 330:USB/core/usb_dcd.c ****   else
 331:USB/core/usb_dcd.c ****   {
 332:USB/core/usb_dcd.c ****     ep = &pdev->dev.out_ep[epnum];
 524              		.loc 1 332 0
 525 0008 01EB8104 		add	r4, r1, r1, lsl #2
ARM GAS  /tmp/ccSHZEpa.s 			page 16


 526 000c E300     		lsls	r3, r4, #3
 527 000e 03F55C73 		add	r3, r3, #880
 528 0012 0344     		add	r3, r3, r0
 529 0014 0433     		adds	r3, r3, #4
 530              	.LVL52:
 531              	.L39:
 333:USB/core/usb_dcd.c ****   }
 334:USB/core/usb_dcd.c ****   
 335:USB/core/usb_dcd.c ****   ep->is_stall = 0;  
 532              		.loc 1 335 0
 533 0016 0024     		movs	r4, #0
 534 0018 9C70     		strb	r4, [r3, #2]
 336:USB/core/usb_dcd.c ****   ep->num   = epnum & 0x7F;
 535              		.loc 1 336 0
 536 001a 01F07F01 		and	r1, r1, #127
 537              	.LVL53:
 538 001e 1970     		strb	r1, [r3]
 337:USB/core/usb_dcd.c ****   ep->is_in = ((epnum & 0x80) == 0x80);
 539              		.loc 1 337 0
 540 0020 D20F     		lsrs	r2, r2, #31
 541              	.LVL54:
 542 0022 5A70     		strb	r2, [r3, #1]
 338:USB/core/usb_dcd.c ****   
 339:USB/core/usb_dcd.c ****   USB_OTG_EPClearStall(pdev , ep);
 543              		.loc 1 339 0
 544 0024 1946     		mov	r1, r3
 545 0026 FFF7FEFF 		bl	USB_OTG_EPClearStall
 546              	.LVL55:
 340:USB/core/usb_dcd.c ****   return (0);
 341:USB/core/usb_dcd.c **** }
 547              		.loc 1 341 0
 548 002a 2046     		mov	r0, r4
 549 002c 10BD     		pop	{r4, pc}
 550              	.LVL56:
 551              	.L41:
 328:USB/core/usb_dcd.c ****   }
 552              		.loc 1 328 0
 553 002e 01F07F04 		and	r4, r1, #127
 554 0032 04EB8404 		add	r4, r4, r4, lsl #2
 555 0036 E300     		lsls	r3, r4, #3
 556 0038 03F58C73 		add	r3, r3, #280
 557 003c 0344     		add	r3, r3, r0
 558 003e 0433     		adds	r3, r3, #4
 559              	.LVL57:
 560 0040 E9E7     		b	.L39
 561              		.cfi_endproc
 562              	.LFE130:
 564              		.section	.text.DCD_EP_Flush,"ax",%progbits
 565              		.align	1
 566              		.global	DCD_EP_Flush
 567              		.syntax unified
 568              		.thumb
 569              		.thumb_func
 570              		.fpu fpv4-sp-d16
 572              	DCD_EP_Flush:
 573              	.LFB131:
 342:USB/core/usb_dcd.c **** 
ARM GAS  /tmp/ccSHZEpa.s 			page 17


 343:USB/core/usb_dcd.c **** 
 344:USB/core/usb_dcd.c **** /**
 345:USB/core/usb_dcd.c **** * @brief  This Function flushes the FIFOs.
 346:USB/core/usb_dcd.c **** * @param pdev: device instance
 347:USB/core/usb_dcd.c **** * @param epnum: endpoint address
 348:USB/core/usb_dcd.c **** * @retval : status
 349:USB/core/usb_dcd.c **** */
 350:USB/core/usb_dcd.c **** uint32_t  DCD_EP_Flush (USB_OTG_CORE_HANDLE *pdev , uint8_t epnum)
 351:USB/core/usb_dcd.c **** {
 574              		.loc 1 351 0
 575              		.cfi_startproc
 576              		@ args = 0, pretend = 0, frame = 0
 577              		@ frame_needed = 0, uses_anonymous_args = 0
 578              	.LVL58:
 579 0000 08B5     		push	{r3, lr}
 580              	.LCFI7:
 581              		.cfi_def_cfa_offset 8
 582              		.cfi_offset 3, -8
 583              		.cfi_offset 14, -4
 352:USB/core/usb_dcd.c **** 
 353:USB/core/usb_dcd.c ****   if ((epnum & 0x80) == 0x80)
 584              		.loc 1 353 0
 585 0002 11F0800F 		tst	r1, #128
 586 0006 03D1     		bne	.L46
 354:USB/core/usb_dcd.c ****   {
 355:USB/core/usb_dcd.c ****     USB_OTG_FlushTxFifo(pdev, epnum & 0x7F);
 356:USB/core/usb_dcd.c ****   }
 357:USB/core/usb_dcd.c ****   else
 358:USB/core/usb_dcd.c ****   {
 359:USB/core/usb_dcd.c ****     USB_OTG_FlushRxFifo(pdev);
 587              		.loc 1 359 0
 588 0008 FFF7FEFF 		bl	USB_OTG_FlushRxFifo
 589              	.LVL59:
 590              	.L44:
 360:USB/core/usb_dcd.c ****   }
 361:USB/core/usb_dcd.c **** 
 362:USB/core/usb_dcd.c ****   return (0);
 363:USB/core/usb_dcd.c **** }
 591              		.loc 1 363 0
 592 000c 0020     		movs	r0, #0
 593 000e 08BD     		pop	{r3, pc}
 594              	.LVL60:
 595              	.L46:
 355:USB/core/usb_dcd.c ****   }
 596              		.loc 1 355 0
 597 0010 01F07F01 		and	r1, r1, #127
 598              	.LVL61:
 599 0014 FFF7FEFF 		bl	USB_OTG_FlushTxFifo
 600              	.LVL62:
 601 0018 F8E7     		b	.L44
 602              		.cfi_endproc
 603              	.LFE131:
 605              		.section	.text.DCD_EP_SetAddress,"ax",%progbits
 606              		.align	1
 607              		.global	DCD_EP_SetAddress
 608              		.syntax unified
 609              		.thumb
ARM GAS  /tmp/ccSHZEpa.s 			page 18


 610              		.thumb_func
 611              		.fpu fpv4-sp-d16
 613              	DCD_EP_SetAddress:
 614              	.LFB132:
 364:USB/core/usb_dcd.c **** 
 365:USB/core/usb_dcd.c **** 
 366:USB/core/usb_dcd.c **** /**
 367:USB/core/usb_dcd.c **** * @brief  This Function set USB device address
 368:USB/core/usb_dcd.c **** * @param pdev: device instance
 369:USB/core/usb_dcd.c **** * @param address: new device address
 370:USB/core/usb_dcd.c **** * @retval : status
 371:USB/core/usb_dcd.c **** */
 372:USB/core/usb_dcd.c **** void  DCD_EP_SetAddress (USB_OTG_CORE_HANDLE *pdev, uint8_t address)
 373:USB/core/usb_dcd.c **** {
 615              		.loc 1 373 0
 616              		.cfi_startproc
 617              		@ args = 0, pretend = 0, frame = 0
 618              		@ frame_needed = 0, uses_anonymous_args = 0
 619              		@ link register save eliminated.
 620              	.LVL63:
 621 0000 10B4     		push	{r4}
 622              	.LCFI8:
 623              		.cfi_def_cfa_offset 4
 624              		.cfi_offset 4, -4
 374:USB/core/usb_dcd.c ****   USB_OTG_DCFG_TypeDef  dcfg;
 375:USB/core/usb_dcd.c ****   dcfg.d32 = 0;
 625              		.loc 1 375 0
 626 0002 0024     		movs	r4, #0
 627              	.LVL64:
 376:USB/core/usb_dcd.c ****   dcfg.b.devaddr = address;
 628              		.loc 1 376 0
 629 0004 61F30A14 		bfi	r4, r1, #4, #7
 630              	.LVL65:
 377:USB/core/usb_dcd.c ****   USB_OTG_MODIFY_REG32( &pdev->regs.DREGS->DCFG, 0, dcfg.d32);
 631              		.loc 1 377 0
 632 0008 0269     		ldr	r2, [r0, #16]
 633 000a 1368     		ldr	r3, [r2]
 634 000c 2343     		orrs	r3, r3, r4
 635 000e 1360     		str	r3, [r2]
 378:USB/core/usb_dcd.c **** }
 636              		.loc 1 378 0
 637 0010 5DF8044B 		ldr	r4, [sp], #4
 638              	.LCFI9:
 639              		.cfi_restore 4
 640              		.cfi_def_cfa_offset 0
 641              	.LVL66:
 642 0014 7047     		bx	lr
 643              		.cfi_endproc
 644              	.LFE132:
 646              		.section	.text.DCD_DevConnect,"ax",%progbits
 647              		.align	1
 648              		.global	DCD_DevConnect
 649              		.syntax unified
 650              		.thumb
 651              		.thumb_func
 652              		.fpu fpv4-sp-d16
 654              	DCD_DevConnect:
ARM GAS  /tmp/ccSHZEpa.s 			page 19


 655              	.LFB133:
 379:USB/core/usb_dcd.c **** 
 380:USB/core/usb_dcd.c **** /**
 381:USB/core/usb_dcd.c **** * @brief  Connect device (enable internal pull-up)
 382:USB/core/usb_dcd.c **** * @param pdev: device instance
 383:USB/core/usb_dcd.c **** * @retval : None
 384:USB/core/usb_dcd.c **** */
 385:USB/core/usb_dcd.c **** void  DCD_DevConnect (USB_OTG_CORE_HANDLE *pdev)
 386:USB/core/usb_dcd.c **** {
 656              		.loc 1 386 0
 657              		.cfi_startproc
 658              		@ args = 0, pretend = 0, frame = 0
 659              		@ frame_needed = 0, uses_anonymous_args = 0
 660              	.LVL67:
 661 0000 08B5     		push	{r3, lr}
 662              	.LCFI10:
 663              		.cfi_def_cfa_offset 8
 664              		.cfi_offset 3, -8
 665              		.cfi_offset 14, -4
 387:USB/core/usb_dcd.c **** #ifndef USE_OTG_MODE
 388:USB/core/usb_dcd.c ****   USB_OTG_DCTL_TypeDef  dctl;
 389:USB/core/usb_dcd.c ****   dctl.d32 = USB_OTG_READ_REG32(&pdev->regs.DREGS->DCTL);
 666              		.loc 1 389 0
 667 0002 0269     		ldr	r2, [r0, #16]
 668 0004 5368     		ldr	r3, [r2, #4]
 390:USB/core/usb_dcd.c ****   /* Connect device */
 391:USB/core/usb_dcd.c ****   dctl.b.sftdiscon  = 0;
 669              		.loc 1 391 0
 670 0006 6FF34103 		bfc	r3, #1, #1
 671              	.LVL68:
 392:USB/core/usb_dcd.c ****   USB_OTG_WRITE_REG32(&pdev->regs.DREGS->DCTL, dctl.d32);
 672              		.loc 1 392 0
 673 000a 5360     		str	r3, [r2, #4]
 393:USB/core/usb_dcd.c ****   USB_OTG_BSP_mDelay(3);
 674              		.loc 1 393 0
 675 000c 0320     		movs	r0, #3
 676              	.LVL69:
 677 000e FFF7FEFF 		bl	USB_OTG_BSP_mDelay
 678              	.LVL70:
 679 0012 08BD     		pop	{r3, pc}
 680              		.cfi_endproc
 681              	.LFE133:
 683              		.section	.text.DCD_DevDisconnect,"ax",%progbits
 684              		.align	1
 685              		.global	DCD_DevDisconnect
 686              		.syntax unified
 687              		.thumb
 688              		.thumb_func
 689              		.fpu fpv4-sp-d16
 691              	DCD_DevDisconnect:
 692              	.LFB134:
 394:USB/core/usb_dcd.c **** #endif
 395:USB/core/usb_dcd.c **** }
 396:USB/core/usb_dcd.c **** 
 397:USB/core/usb_dcd.c **** 
 398:USB/core/usb_dcd.c **** /**
 399:USB/core/usb_dcd.c **** * @brief  Disconnect device (disable internal pull-up)
ARM GAS  /tmp/ccSHZEpa.s 			page 20


 400:USB/core/usb_dcd.c **** * @param pdev: device instance
 401:USB/core/usb_dcd.c **** * @retval : None
 402:USB/core/usb_dcd.c **** */
 403:USB/core/usb_dcd.c **** void  DCD_DevDisconnect (USB_OTG_CORE_HANDLE *pdev)
 404:USB/core/usb_dcd.c **** {
 693              		.loc 1 404 0
 694              		.cfi_startproc
 695              		@ args = 0, pretend = 0, frame = 0
 696              		@ frame_needed = 0, uses_anonymous_args = 0
 697              	.LVL71:
 698 0000 08B5     		push	{r3, lr}
 699              	.LCFI11:
 700              		.cfi_def_cfa_offset 8
 701              		.cfi_offset 3, -8
 702              		.cfi_offset 14, -4
 405:USB/core/usb_dcd.c **** #ifndef USE_OTG_MODE
 406:USB/core/usb_dcd.c ****   USB_OTG_DCTL_TypeDef  dctl;
 407:USB/core/usb_dcd.c ****   dctl.d32 = USB_OTG_READ_REG32(&pdev->regs.DREGS->DCTL);
 703              		.loc 1 407 0
 704 0002 0369     		ldr	r3, [r0, #16]
 705 0004 5968     		ldr	r1, [r3, #4]
 408:USB/core/usb_dcd.c ****   /* Disconnect device for 3ms */
 409:USB/core/usb_dcd.c ****   dctl.b.sftdiscon  = 1;
 706              		.loc 1 409 0
 707 0006 41F00202 		orr	r2, r1, #2
 708              	.LVL72:
 410:USB/core/usb_dcd.c ****   USB_OTG_WRITE_REG32(&pdev->regs.DREGS->DCTL, dctl.d32);
 709              		.loc 1 410 0
 710 000a 5A60     		str	r2, [r3, #4]
 411:USB/core/usb_dcd.c ****   USB_OTG_BSP_mDelay(3);
 711              		.loc 1 411 0
 712 000c 0320     		movs	r0, #3
 713              	.LVL73:
 714 000e FFF7FEFF 		bl	USB_OTG_BSP_mDelay
 715              	.LVL74:
 716 0012 08BD     		pop	{r3, pc}
 717              		.cfi_endproc
 718              	.LFE134:
 720              		.section	.text.DCD_GetEPStatus,"ax",%progbits
 721              		.align	1
 722              		.global	DCD_GetEPStatus
 723              		.syntax unified
 724              		.thumb
 725              		.thumb_func
 726              		.fpu fpv4-sp-d16
 728              	DCD_GetEPStatus:
 729              	.LFB135:
 412:USB/core/usb_dcd.c **** #endif
 413:USB/core/usb_dcd.c **** }
 414:USB/core/usb_dcd.c **** 
 415:USB/core/usb_dcd.c **** 
 416:USB/core/usb_dcd.c **** /**
 417:USB/core/usb_dcd.c **** * @brief  returns the EP Status
 418:USB/core/usb_dcd.c **** * @param  pdev : Selected device
 419:USB/core/usb_dcd.c **** *         epnum : endpoint address
 420:USB/core/usb_dcd.c **** * @retval : EP status
 421:USB/core/usb_dcd.c **** */
ARM GAS  /tmp/ccSHZEpa.s 			page 21


 422:USB/core/usb_dcd.c **** 
 423:USB/core/usb_dcd.c **** uint32_t DCD_GetEPStatus(USB_OTG_CORE_HANDLE *pdev ,uint8_t epnum)
 424:USB/core/usb_dcd.c **** {
 730              		.loc 1 424 0
 731              		.cfi_startproc
 732              		@ args = 0, pretend = 0, frame = 0
 733              		@ frame_needed = 0, uses_anonymous_args = 0
 734              	.LVL75:
 735 0000 08B5     		push	{r3, lr}
 736              	.LCFI12:
 737              		.cfi_def_cfa_offset 8
 738              		.cfi_offset 3, -8
 739              		.cfi_offset 14, -4
 740              	.LVL76:
 425:USB/core/usb_dcd.c ****   USB_OTG_EP *ep;
 426:USB/core/usb_dcd.c ****   uint32_t Status = 0;  
 427:USB/core/usb_dcd.c ****   
 428:USB/core/usb_dcd.c ****   if ((0x80 & epnum) == 0x80)
 741              		.loc 1 428 0
 742 0002 11F0800F 		tst	r1, #128
 743 0006 09D1     		bne	.L57
 429:USB/core/usb_dcd.c ****   {
 430:USB/core/usb_dcd.c ****     ep = &pdev->dev.in_ep[epnum & 0x7F];    
 431:USB/core/usb_dcd.c ****   }
 432:USB/core/usb_dcd.c ****   else
 433:USB/core/usb_dcd.c ****   {
 434:USB/core/usb_dcd.c ****     ep = &pdev->dev.out_ep[epnum];
 744              		.loc 1 434 0
 745 0008 01EB8101 		add	r1, r1, r1, lsl #2
 746              	.LVL77:
 747 000c CB00     		lsls	r3, r1, #3
 748 000e 03F55C71 		add	r1, r3, #880
 749 0012 0144     		add	r1, r1, r0
 750 0014 0431     		adds	r1, r1, #4
 751              	.LVL78:
 752              	.L55:
 435:USB/core/usb_dcd.c ****   }
 436:USB/core/usb_dcd.c ****   
 437:USB/core/usb_dcd.c ****   Status = USB_OTG_GetEPStatus(pdev ,ep);
 753              		.loc 1 437 0
 754 0016 FFF7FEFF 		bl	USB_OTG_GetEPStatus
 755              	.LVL79:
 438:USB/core/usb_dcd.c **** 
 439:USB/core/usb_dcd.c ****   /* Return the current status */
 440:USB/core/usb_dcd.c ****   return Status;
 441:USB/core/usb_dcd.c **** }
 756              		.loc 1 441 0
 757 001a 08BD     		pop	{r3, pc}
 758              	.LVL80:
 759              	.L57:
 430:USB/core/usb_dcd.c ****   }
 760              		.loc 1 430 0
 761 001c 01F07F03 		and	r3, r1, #127
 762 0020 03EB8303 		add	r3, r3, r3, lsl #2
 763 0024 D900     		lsls	r1, r3, #3
 764              	.LVL81:
 765 0026 01F58C71 		add	r1, r1, #280
ARM GAS  /tmp/ccSHZEpa.s 			page 22


 766 002a 0144     		add	r1, r1, r0
 767 002c 0431     		adds	r1, r1, #4
 768              	.LVL82:
 769 002e F2E7     		b	.L55
 770              		.cfi_endproc
 771              	.LFE135:
 773              		.section	.text.DCD_SetEPStatus,"ax",%progbits
 774              		.align	1
 775              		.global	DCD_SetEPStatus
 776              		.syntax unified
 777              		.thumb
 778              		.thumb_func
 779              		.fpu fpv4-sp-d16
 781              	DCD_SetEPStatus:
 782              	.LFB136:
 442:USB/core/usb_dcd.c **** 
 443:USB/core/usb_dcd.c **** /**
 444:USB/core/usb_dcd.c **** * @brief  Set the EP Status
 445:USB/core/usb_dcd.c **** * @param  pdev : Selected device
 446:USB/core/usb_dcd.c **** *         Status : new Status
 447:USB/core/usb_dcd.c **** *         epnum : EP address
 448:USB/core/usb_dcd.c **** * @retval : None
 449:USB/core/usb_dcd.c **** */
 450:USB/core/usb_dcd.c **** void DCD_SetEPStatus (USB_OTG_CORE_HANDLE *pdev , uint8_t epnum , uint32_t Status)
 451:USB/core/usb_dcd.c **** {
 783              		.loc 1 451 0
 784              		.cfi_startproc
 785              		@ args = 0, pretend = 0, frame = 0
 786              		@ frame_needed = 0, uses_anonymous_args = 0
 787              	.LVL83:
 788 0000 08B5     		push	{r3, lr}
 789              	.LCFI13:
 790              		.cfi_def_cfa_offset 8
 791              		.cfi_offset 3, -8
 792              		.cfi_offset 14, -4
 452:USB/core/usb_dcd.c ****   USB_OTG_EP *ep;
 453:USB/core/usb_dcd.c ****   
 454:USB/core/usb_dcd.c ****   if ((0x80 & epnum) == 0x80)
 793              		.loc 1 454 0
 794 0002 11F0800F 		tst	r1, #128
 795 0006 09D1     		bne	.L62
 455:USB/core/usb_dcd.c ****   {
 456:USB/core/usb_dcd.c ****     ep = &pdev->dev.in_ep[epnum & 0x7F];    
 457:USB/core/usb_dcd.c ****   }
 458:USB/core/usb_dcd.c ****   else
 459:USB/core/usb_dcd.c ****   {
 460:USB/core/usb_dcd.c ****     ep = &pdev->dev.out_ep[epnum];
 796              		.loc 1 460 0
 797 0008 01EB8101 		add	r1, r1, r1, lsl #2
 798              	.LVL84:
 799 000c CB00     		lsls	r3, r1, #3
 800 000e 03F55C71 		add	r1, r3, #880
 801 0012 0144     		add	r1, r1, r0
 802 0014 0431     		adds	r1, r1, #4
 803              	.LVL85:
 804              	.L60:
 461:USB/core/usb_dcd.c ****   }
ARM GAS  /tmp/ccSHZEpa.s 			page 23


 462:USB/core/usb_dcd.c ****   
 463:USB/core/usb_dcd.c ****    USB_OTG_SetEPStatus(pdev ,ep , Status);
 805              		.loc 1 463 0
 806 0016 FFF7FEFF 		bl	USB_OTG_SetEPStatus
 807              	.LVL86:
 808 001a 08BD     		pop	{r3, pc}
 809              	.LVL87:
 810              	.L62:
 456:USB/core/usb_dcd.c ****   }
 811              		.loc 1 456 0
 812 001c 01F07F03 		and	r3, r1, #127
 813 0020 03EB8303 		add	r3, r3, r3, lsl #2
 814 0024 D900     		lsls	r1, r3, #3
 815              	.LVL88:
 816 0026 01F58C71 		add	r1, r1, #280
 817 002a 0144     		add	r1, r1, r0
 818 002c 0431     		adds	r1, r1, #4
 819              	.LVL89:
 820 002e F2E7     		b	.L60
 821              		.cfi_endproc
 822              	.LFE136:
 824              		.text
 825              	.Letext0:
 826              		.file 2 "/usr/include/newlib/machine/_default_types.h"
 827              		.file 3 "/usr/include/newlib/sys/_stdint.h"
 828              		.file 4 "F4_CORE/core_cm4.h"
 829              		.file 5 "USER/system_stm32f4xx.h"
 830              		.file 6 "/usr/include/newlib/sys/lock.h"
 831              		.file 7 "/usr/include/newlib/sys/_types.h"
 832              		.file 8 "/usr/lib/gcc/arm-none-eabi/6.3.1/include/stddef.h"
 833              		.file 9 "/usr/include/newlib/sys/reent.h"
 834              		.file 10 "USB/core/usb_regs.h"
 835              		.file 11 "USB/core/usb_defines.h"
 836              		.file 12 "USB/core/usb_core.h"
 837              		.file 13 "USB/core/usb_bsp.h"
ARM GAS  /tmp/ccSHZEpa.s 			page 24

