ARM GAS  C:\Users\why\AppData\Local\Temp\ccIn76kg.s 			page 1


   1              		.syntax unified
   2              		.cpu cortex-m4
   3              		.eabi_attribute 27, 1
   4              		.eabi_attribute 28, 1
   5              		.fpu fpv4-sp-d16
   6              		.eabi_attribute 20, 1
   7              		.eabi_attribute 21, 1
   8              		.eabi_attribute 23, 3
   9              		.eabi_attribute 24, 1
  10              		.eabi_attribute 25, 1
  11              		.eabi_attribute 26, 1
  12              		.eabi_attribute 30, 1
  13              		.eabi_attribute 34, 1
  14              		.eabi_attribute 18, 4
  15              		.thumb
  16              		.syntax unified
  17              		.file	"usbd_usr.c"
  18              		.text
  19              	.Ltext0:
  20              		.cfi_sections	.debug_frame
  21              		.section	.text.USBD_USR_Init,"ax",%progbits
  22              		.align	2
  23              		.global	USBD_USR_Init
  24              		.thumb
  25              		.thumb_func
  27              	USBD_USR_Init:
  28              	.LFB124:
  29              		.file 1 "USB/core/usbd_usr.c"
   1:USB/core/usbd_usr.c **** /**
   2:USB/core/usbd_usr.c ****   ******************************************************************************
   3:USB/core/usbd_usr.c ****   * @file    usbd_usr.c
   4:USB/core/usbd_usr.c ****   * @author  MCD Application Team
   5:USB/core/usbd_usr.c ****   * @version V1.1.0
   6:USB/core/usbd_usr.c ****   * @date    19-March-2012
   7:USB/core/usbd_usr.c ****   * @brief   This file includes the user application layer
   8:USB/core/usbd_usr.c ****   ******************************************************************************
   9:USB/core/usbd_usr.c ****   * @attention
  10:USB/core/usbd_usr.c ****   *
  11:USB/core/usbd_usr.c ****   * <h2><center>&copy; COPYRIGHT 2012 STMicroelectronics</center></h2>
  12:USB/core/usbd_usr.c ****   *
  13:USB/core/usbd_usr.c ****   * Licensed under MCD-ST Liberty SW License Agreement V2, (the "License");
  14:USB/core/usbd_usr.c ****   * You may not use this file except in compliance with the License.
  15:USB/core/usbd_usr.c ****   * You may obtain a copy of the License at:
  16:USB/core/usbd_usr.c ****   *
  17:USB/core/usbd_usr.c ****   *        http://www.st.com/software_license_agreement_liberty_v2
  18:USB/core/usbd_usr.c ****   *
  19:USB/core/usbd_usr.c ****   * Unless required by applicable law or agreed to in writing, software 
  20:USB/core/usbd_usr.c ****   * distributed under the License is distributed on an "AS IS" BASIS, 
  21:USB/core/usbd_usr.c ****   * WITHOUT WARRANTIES OR CONDITIONS OF ANY KIND, either express or implied.
  22:USB/core/usbd_usr.c ****   * See the License for the specific language governing permissions and
  23:USB/core/usbd_usr.c ****   * limitations under the License.
  24:USB/core/usbd_usr.c ****   *
  25:USB/core/usbd_usr.c ****   ******************************************************************************
  26:USB/core/usbd_usr.c ****   */ 
  27:USB/core/usbd_usr.c **** 
  28:USB/core/usbd_usr.c **** /* Includes ------------------------------------------------------------------*/
  29:USB/core/usbd_usr.c **** #include "usbd_usr.h"
ARM GAS  C:\Users\why\AppData\Local\Temp\ccIn76kg.s 			page 2


  30:USB/core/usbd_usr.c **** #include "usbd_ioreq.h"
  31:USB/core/usbd_usr.c **** 
  32:USB/core/usbd_usr.c **** #include "tm_stm32f4_usb_vcp.h"
  33:USB/core/usbd_usr.c **** 
  34:USB/core/usbd_usr.c **** #include <stdio.h>
  35:USB/core/usbd_usr.c **** 
  36:USB/core/usbd_usr.c **** TM_USB_VCP_Result TM_USB_VCP_INT_Status = TM_USB_VCP_NOT_CONNECTED;
  37:USB/core/usbd_usr.c **** 
  38:USB/core/usbd_usr.c **** USBD_Usr_cb_TypeDef USR_cb =
  39:USB/core/usbd_usr.c **** {
  40:USB/core/usbd_usr.c ****   USBD_USR_Init,
  41:USB/core/usbd_usr.c ****   USBD_USR_DeviceReset,
  42:USB/core/usbd_usr.c ****   USBD_USR_DeviceConfigured,
  43:USB/core/usbd_usr.c ****   USBD_USR_DeviceSuspended,
  44:USB/core/usbd_usr.c ****   USBD_USR_DeviceResumed,
  45:USB/core/usbd_usr.c ****   USBD_USR_DeviceConnected,
  46:USB/core/usbd_usr.c ****   USBD_USR_DeviceDisconnected,    
  47:USB/core/usbd_usr.c **** };
  48:USB/core/usbd_usr.c **** 
  49:USB/core/usbd_usr.c **** void USBD_USR_Init(void) {
  30              		.loc 1 49 0
  31              		.cfi_startproc
  32              		@ args = 0, pretend = 0, frame = 0
  33              		@ frame_needed = 0, uses_anonymous_args = 0
  34              		@ link register save eliminated.
  50:USB/core/usbd_usr.c **** 	TM_USB_VCP_INT_Status = TM_USB_VCP_NOT_CONNECTED;
  35              		.loc 1 50 0
  36 0000 0522     		movs	r2, #5
  37 0002 014B     		ldr	r3, .L2
  38 0004 1A70     		strb	r2, [r3]
  39 0006 7047     		bx	lr
  40              	.L3:
  41              		.align	2
  42              	.L2:
  43 0008 00000000 		.word	.LANCHOR0
  44              		.cfi_endproc
  45              	.LFE124:
  47              		.section	.text.USBD_USR_DeviceReset,"ax",%progbits
  48              		.align	2
  49              		.global	USBD_USR_DeviceReset
  50              		.thumb
  51              		.thumb_func
  53              	USBD_USR_DeviceReset:
  54              	.LFB125:
  51:USB/core/usbd_usr.c **** }
  52:USB/core/usbd_usr.c **** 
  53:USB/core/usbd_usr.c **** void USBD_USR_DeviceReset(uint8_t speed ) {
  55              		.loc 1 53 0
  56              		.cfi_startproc
  57              		@ args = 0, pretend = 0, frame = 0
  58              		@ frame_needed = 0, uses_anonymous_args = 0
  59              		@ link register save eliminated.
  60              	.LVL0:
  54:USB/core/usbd_usr.c **** 	TM_USB_VCP_INT_Status = TM_USB_VCP_NOT_CONNECTED;
  61              		.loc 1 54 0
  62 0000 0522     		movs	r2, #5
  63 0002 014B     		ldr	r3, .L5
ARM GAS  C:\Users\why\AppData\Local\Temp\ccIn76kg.s 			page 3


  64 0004 1A70     		strb	r2, [r3]
  65 0006 7047     		bx	lr
  66              	.L6:
  67              		.align	2
  68              	.L5:
  69 0008 00000000 		.word	.LANCHOR0
  70              		.cfi_endproc
  71              	.LFE125:
  73              		.section	.text.USBD_USR_DeviceConfigured,"ax",%progbits
  74              		.align	2
  75              		.global	USBD_USR_DeviceConfigured
  76              		.thumb
  77              		.thumb_func
  79              	USBD_USR_DeviceConfigured:
  80              	.LFB126:
  55:USB/core/usbd_usr.c **** }
  56:USB/core/usbd_usr.c **** 
  57:USB/core/usbd_usr.c **** void USBD_USR_DeviceConfigured (void) {
  81              		.loc 1 57 0
  82              		.cfi_startproc
  83              		@ args = 0, pretend = 0, frame = 0
  84              		@ frame_needed = 0, uses_anonymous_args = 0
  85              		@ link register save eliminated.
  58:USB/core/usbd_usr.c **** 	TM_USB_VCP_INT_Status = TM_USB_VCP_CONNECTED;
  86              		.loc 1 58 0
  87 0000 0622     		movs	r2, #6
  88 0002 014B     		ldr	r3, .L8
  89 0004 1A70     		strb	r2, [r3]
  90 0006 7047     		bx	lr
  91              	.L9:
  92              		.align	2
  93              	.L8:
  94 0008 00000000 		.word	.LANCHOR0
  95              		.cfi_endproc
  96              	.LFE126:
  98              		.section	.text.USBD_USR_DeviceSuspended,"ax",%progbits
  99              		.align	2
 100              		.global	USBD_USR_DeviceSuspended
 101              		.thumb
 102              		.thumb_func
 104              	USBD_USR_DeviceSuspended:
 105              	.LFB127:
  59:USB/core/usbd_usr.c **** }
  60:USB/core/usbd_usr.c **** 
  61:USB/core/usbd_usr.c **** void USBD_USR_DeviceSuspended(void) {
 106              		.loc 1 61 0
 107              		.cfi_startproc
 108              		@ args = 0, pretend = 0, frame = 0
 109              		@ frame_needed = 0, uses_anonymous_args = 0
 110              		@ link register save eliminated.
  62:USB/core/usbd_usr.c **** 	TM_USB_VCP_INT_Status = TM_USB_VCP_NOT_CONNECTED;
 111              		.loc 1 62 0
 112 0000 0522     		movs	r2, #5
 113 0002 014B     		ldr	r3, .L11
 114 0004 1A70     		strb	r2, [r3]
 115 0006 7047     		bx	lr
 116              	.L12:
ARM GAS  C:\Users\why\AppData\Local\Temp\ccIn76kg.s 			page 4


 117              		.align	2
 118              	.L11:
 119 0008 00000000 		.word	.LANCHOR0
 120              		.cfi_endproc
 121              	.LFE127:
 123              		.section	.text.USBD_USR_DeviceResumed,"ax",%progbits
 124              		.align	2
 125              		.global	USBD_USR_DeviceResumed
 126              		.thumb
 127              		.thumb_func
 129              	USBD_USR_DeviceResumed:
 130              	.LFB128:
  63:USB/core/usbd_usr.c **** }
  64:USB/core/usbd_usr.c **** 
  65:USB/core/usbd_usr.c **** void USBD_USR_DeviceResumed(void) {
 131              		.loc 1 65 0
 132              		.cfi_startproc
 133              		@ args = 0, pretend = 0, frame = 0
 134              		@ frame_needed = 0, uses_anonymous_args = 0
 135              		@ link register save eliminated.
  66:USB/core/usbd_usr.c **** 	TM_USB_VCP_INT_Status = TM_USB_VCP_NOT_CONNECTED;
 136              		.loc 1 66 0
 137 0000 0522     		movs	r2, #5
 138 0002 014B     		ldr	r3, .L14
 139 0004 1A70     		strb	r2, [r3]
 140 0006 7047     		bx	lr
 141              	.L15:
 142              		.align	2
 143              	.L14:
 144 0008 00000000 		.word	.LANCHOR0
 145              		.cfi_endproc
 146              	.LFE128:
 148              		.section	.text.USBD_USR_DeviceConnected,"ax",%progbits
 149              		.align	2
 150              		.global	USBD_USR_DeviceConnected
 151              		.thumb
 152              		.thumb_func
 154              	USBD_USR_DeviceConnected:
 155              	.LFB129:
  67:USB/core/usbd_usr.c **** }
  68:USB/core/usbd_usr.c **** 
  69:USB/core/usbd_usr.c **** void USBD_USR_DeviceConnected (void) {
 156              		.loc 1 69 0
 157              		.cfi_startproc
 158              		@ args = 0, pretend = 0, frame = 0
 159              		@ frame_needed = 0, uses_anonymous_args = 0
 160              		@ link register save eliminated.
  70:USB/core/usbd_usr.c **** 	TM_USB_VCP_INT_Status = TM_USB_VCP_NOT_CONNECTED;
 161              		.loc 1 70 0
 162 0000 0522     		movs	r2, #5
 163 0002 014B     		ldr	r3, .L17
 164 0004 1A70     		strb	r2, [r3]
 165 0006 7047     		bx	lr
 166              	.L18:
 167              		.align	2
 168              	.L17:
 169 0008 00000000 		.word	.LANCHOR0
ARM GAS  C:\Users\why\AppData\Local\Temp\ccIn76kg.s 			page 5


 170              		.cfi_endproc
 171              	.LFE129:
 173              		.section	.text.USBD_USR_DeviceDisconnected,"ax",%progbits
 174              		.align	2
 175              		.global	USBD_USR_DeviceDisconnected
 176              		.thumb
 177              		.thumb_func
 179              	USBD_USR_DeviceDisconnected:
 180              	.LFB130:
  71:USB/core/usbd_usr.c **** }
  72:USB/core/usbd_usr.c **** 
  73:USB/core/usbd_usr.c **** void USBD_USR_DeviceDisconnected (void) {
 181              		.loc 1 73 0
 182              		.cfi_startproc
 183              		@ args = 0, pretend = 0, frame = 0
 184              		@ frame_needed = 0, uses_anonymous_args = 0
 185              		@ link register save eliminated.
  74:USB/core/usbd_usr.c **** 	TM_USB_VCP_INT_Status = TM_USB_VCP_NOT_CONNECTED;
 186              		.loc 1 74 0
 187 0000 0522     		movs	r2, #5
 188 0002 014B     		ldr	r3, .L20
 189 0004 1A70     		strb	r2, [r3]
 190 0006 7047     		bx	lr
 191              	.L21:
 192              		.align	2
 193              	.L20:
 194 0008 00000000 		.word	.LANCHOR0
 195              		.cfi_endproc
 196              	.LFE130:
 198              		.section	.text.USBD_User_GetStatus,"ax",%progbits
 199              		.align	2
 200              		.global	USBD_User_GetStatus
 201              		.thumb
 202              		.thumb_func
 204              	USBD_User_GetStatus:
 205              	.LFB131:
  75:USB/core/usbd_usr.c **** }
  76:USB/core/usbd_usr.c **** 
  77:USB/core/usbd_usr.c **** TM_USB_VCP_Result USBD_User_GetStatus(void) {
 206              		.loc 1 77 0
 207              		.cfi_startproc
 208              		@ args = 0, pretend = 0, frame = 0
 209              		@ frame_needed = 0, uses_anonymous_args = 0
 210              		@ link register save eliminated.
  78:USB/core/usbd_usr.c **** 	return TM_USB_VCP_INT_Status;
  79:USB/core/usbd_usr.c **** }
 211              		.loc 1 79 0
 212 0000 014B     		ldr	r3, .L23
 213 0002 1878     		ldrb	r0, [r3]	@ zero_extendqisi2
 214 0004 7047     		bx	lr
 215              	.L24:
 216 0006 00BF     		.align	2
 217              	.L23:
 218 0008 00000000 		.word	.LANCHOR0
 219              		.cfi_endproc
 220              	.LFE131:
 222              		.global	USR_cb
ARM GAS  C:\Users\why\AppData\Local\Temp\ccIn76kg.s 			page 6


 223              		.global	TM_USB_VCP_INT_Status
 224              		.section	.data.USR_cb,"aw",%progbits
 225              		.align	2
 228              	USR_cb:
 229 0000 00000000 		.word	USBD_USR_Init
 230 0004 00000000 		.word	USBD_USR_DeviceReset
 231 0008 00000000 		.word	USBD_USR_DeviceConfigured
 232 000c 00000000 		.word	USBD_USR_DeviceSuspended
 233 0010 00000000 		.word	USBD_USR_DeviceResumed
 234 0014 00000000 		.word	USBD_USR_DeviceConnected
 235 0018 00000000 		.word	USBD_USR_DeviceDisconnected
 236              		.section	.data.TM_USB_VCP_INT_Status,"aw",%progbits
 237              		.set	.LANCHOR0,. + 0
 240              	TM_USB_VCP_INT_Status:
 241 0000 05       		.byte	5
 242              		.text
 243              	.Letext0:
 244              		.file 2 "d:\\gcc_arm\\5.4 2016q3\\arm-none-eabi\\include\\machine\\_default_types.h"
 245              		.file 3 "d:\\gcc_arm\\5.4 2016q3\\arm-none-eabi\\include\\sys\\_stdint.h"
 246              		.file 4 "USB/core/usb_core.h"
 247              		.file 5 "USB/config/tm_stm32f4_usb_vcp.h"
 248              		.file 6 "F4_CORE/core_cm4.h"
ARM GAS  C:\Users\why\AppData\Local\Temp\ccIn76kg.s 			page 7


DEFINED SYMBOLS
                            *ABS*:00000000 usbd_usr.c
C:\Users\why\AppData\Local\Temp\ccIn76kg.s:22     .text.USBD_USR_Init:00000000 $t
C:\Users\why\AppData\Local\Temp\ccIn76kg.s:27     .text.USBD_USR_Init:00000000 USBD_USR_Init
C:\Users\why\AppData\Local\Temp\ccIn76kg.s:43     .text.USBD_USR_Init:00000008 $d
C:\Users\why\AppData\Local\Temp\ccIn76kg.s:48     .text.USBD_USR_DeviceReset:00000000 $t
C:\Users\why\AppData\Local\Temp\ccIn76kg.s:53     .text.USBD_USR_DeviceReset:00000000 USBD_USR_DeviceReset
C:\Users\why\AppData\Local\Temp\ccIn76kg.s:69     .text.USBD_USR_DeviceReset:00000008 $d
C:\Users\why\AppData\Local\Temp\ccIn76kg.s:74     .text.USBD_USR_DeviceConfigured:00000000 $t
C:\Users\why\AppData\Local\Temp\ccIn76kg.s:79     .text.USBD_USR_DeviceConfigured:00000000 USBD_USR_DeviceConfigured
C:\Users\why\AppData\Local\Temp\ccIn76kg.s:94     .text.USBD_USR_DeviceConfigured:00000008 $d
C:\Users\why\AppData\Local\Temp\ccIn76kg.s:99     .text.USBD_USR_DeviceSuspended:00000000 $t
C:\Users\why\AppData\Local\Temp\ccIn76kg.s:104    .text.USBD_USR_DeviceSuspended:00000000 USBD_USR_DeviceSuspended
C:\Users\why\AppData\Local\Temp\ccIn76kg.s:119    .text.USBD_USR_DeviceSuspended:00000008 $d
C:\Users\why\AppData\Local\Temp\ccIn76kg.s:124    .text.USBD_USR_DeviceResumed:00000000 $t
C:\Users\why\AppData\Local\Temp\ccIn76kg.s:129    .text.USBD_USR_DeviceResumed:00000000 USBD_USR_DeviceResumed
C:\Users\why\AppData\Local\Temp\ccIn76kg.s:144    .text.USBD_USR_DeviceResumed:00000008 $d
C:\Users\why\AppData\Local\Temp\ccIn76kg.s:149    .text.USBD_USR_DeviceConnected:00000000 $t
C:\Users\why\AppData\Local\Temp\ccIn76kg.s:154    .text.USBD_USR_DeviceConnected:00000000 USBD_USR_DeviceConnected
C:\Users\why\AppData\Local\Temp\ccIn76kg.s:169    .text.USBD_USR_DeviceConnected:00000008 $d
C:\Users\why\AppData\Local\Temp\ccIn76kg.s:174    .text.USBD_USR_DeviceDisconnected:00000000 $t
C:\Users\why\AppData\Local\Temp\ccIn76kg.s:179    .text.USBD_USR_DeviceDisconnected:00000000 USBD_USR_DeviceDisconnected
C:\Users\why\AppData\Local\Temp\ccIn76kg.s:194    .text.USBD_USR_DeviceDisconnected:00000008 $d
C:\Users\why\AppData\Local\Temp\ccIn76kg.s:199    .text.USBD_User_GetStatus:00000000 $t
C:\Users\why\AppData\Local\Temp\ccIn76kg.s:204    .text.USBD_User_GetStatus:00000000 USBD_User_GetStatus
C:\Users\why\AppData\Local\Temp\ccIn76kg.s:218    .text.USBD_User_GetStatus:00000008 $d
C:\Users\why\AppData\Local\Temp\ccIn76kg.s:228    .data.USR_cb:00000000 USR_cb
C:\Users\why\AppData\Local\Temp\ccIn76kg.s:240    .data.TM_USB_VCP_INT_Status:00000000 TM_USB_VCP_INT_Status
C:\Users\why\AppData\Local\Temp\ccIn76kg.s:225    .data.USR_cb:00000000 $d
                     .debug_frame:00000010 $d

NO UNDEFINED SYMBOLS
