ARM GAS  /tmp/ccJtOCGa.s 			page 1


   1              		.cpu cortex-m4
   2              		.eabi_attribute 27, 1
   3              		.eabi_attribute 28, 1
   4              		.eabi_attribute 20, 1
   5              		.eabi_attribute 21, 1
   6              		.eabi_attribute 23, 3
   7              		.eabi_attribute 24, 1
   8              		.eabi_attribute 25, 1
   9              		.eabi_attribute 26, 1
  10              		.eabi_attribute 30, 1
  11              		.eabi_attribute 34, 1
  12              		.eabi_attribute 18, 4
  13              		.file	"usbd_usr.c"
  14              		.text
  15              	.Ltext0:
  16              		.cfi_sections	.debug_frame
  17              		.section	.text.USBD_USR_Init,"ax",%progbits
  18              		.align	1
  19              		.global	USBD_USR_Init
  20              		.syntax unified
  21              		.thumb
  22              		.thumb_func
  23              		.fpu fpv4-sp-d16
  25              	USBD_USR_Init:
  26              	.LFB124:
  27              		.file 1 "USB/core/usbd_usr.c"
   1:USB/core/usbd_usr.c **** /**
   2:USB/core/usbd_usr.c ****   ******************************************************************************
   3:USB/core/usbd_usr.c ****   * @file    usbd_usr.c
   4:USB/core/usbd_usr.c ****   * @author  MCD Application Team
   5:USB/core/usbd_usr.c ****   * @version V1.1.0
   6:USB/core/usbd_usr.c ****   * @date    19-March-2012
   7:USB/core/usbd_usr.c ****   * @brief   This file includes the user application layer
   8:USB/core/usbd_usr.c ****   ******************************************************************************
   9:USB/core/usbd_usr.c ****   * @attention
  10:USB/core/usbd_usr.c ****   *
  11:USB/core/usbd_usr.c ****   * <h2><center>&copy; COPYRIGHT 2012 STMicroelectronics</center></h2>
  12:USB/core/usbd_usr.c ****   *
  13:USB/core/usbd_usr.c ****   * Licensed under MCD-ST Liberty SW License Agreement V2, (the "License");
  14:USB/core/usbd_usr.c ****   * You may not use this file except in compliance with the License.
  15:USB/core/usbd_usr.c ****   * You may obtain a copy of the License at:
  16:USB/core/usbd_usr.c ****   *
  17:USB/core/usbd_usr.c ****   *        http://www.st.com/software_license_agreement_liberty_v2
  18:USB/core/usbd_usr.c ****   *
  19:USB/core/usbd_usr.c ****   * Unless required by applicable law or agreed to in writing, software 
  20:USB/core/usbd_usr.c ****   * distributed under the License is distributed on an "AS IS" BASIS, 
  21:USB/core/usbd_usr.c ****   * WITHOUT WARRANTIES OR CONDITIONS OF ANY KIND, either express or implied.
  22:USB/core/usbd_usr.c ****   * See the License for the specific language governing permissions and
  23:USB/core/usbd_usr.c ****   * limitations under the License.
  24:USB/core/usbd_usr.c ****   *
  25:USB/core/usbd_usr.c ****   ******************************************************************************
  26:USB/core/usbd_usr.c ****   */ 
  27:USB/core/usbd_usr.c **** 
  28:USB/core/usbd_usr.c **** /* Includes ------------------------------------------------------------------*/
  29:USB/core/usbd_usr.c **** #include "usbd_usr.h"
  30:USB/core/usbd_usr.c **** #include "usbd_ioreq.h"
  31:USB/core/usbd_usr.c **** 
ARM GAS  /tmp/ccJtOCGa.s 			page 2


  32:USB/core/usbd_usr.c **** #include "tm_stm32f4_usb_vcp.h"
  33:USB/core/usbd_usr.c **** 
  34:USB/core/usbd_usr.c **** #include <stdio.h>
  35:USB/core/usbd_usr.c **** 
  36:USB/core/usbd_usr.c **** TM_USB_VCP_Result TM_USB_VCP_INT_Status = TM_USB_VCP_NOT_CONNECTED;
  37:USB/core/usbd_usr.c **** 
  38:USB/core/usbd_usr.c **** USBD_Usr_cb_TypeDef USR_cb =
  39:USB/core/usbd_usr.c **** {
  40:USB/core/usbd_usr.c ****   USBD_USR_Init,
  41:USB/core/usbd_usr.c ****   USBD_USR_DeviceReset,
  42:USB/core/usbd_usr.c ****   USBD_USR_DeviceConfigured,
  43:USB/core/usbd_usr.c ****   USBD_USR_DeviceSuspended,
  44:USB/core/usbd_usr.c ****   USBD_USR_DeviceResumed,
  45:USB/core/usbd_usr.c ****   USBD_USR_DeviceConnected,
  46:USB/core/usbd_usr.c ****   USBD_USR_DeviceDisconnected,    
  47:USB/core/usbd_usr.c **** };
  48:USB/core/usbd_usr.c **** 
  49:USB/core/usbd_usr.c **** void USBD_USR_Init(void) {
  28              		.loc 1 49 0
  29              		.cfi_startproc
  30              		@ args = 0, pretend = 0, frame = 0
  31              		@ frame_needed = 0, uses_anonymous_args = 0
  32              		@ link register save eliminated.
  50:USB/core/usbd_usr.c **** 	TM_USB_VCP_INT_Status = TM_USB_VCP_NOT_CONNECTED;
  33              		.loc 1 50 0
  34 0000 0522     		movs	r2, #5
  35 0002 014B     		ldr	r3, .L2
  36 0004 1A70     		strb	r2, [r3]
  37 0006 7047     		bx	lr
  38              	.L3:
  39              		.align	2
  40              	.L2:
  41 0008 00000000 		.word	.LANCHOR0
  42              		.cfi_endproc
  43              	.LFE124:
  45              		.section	.text.USBD_USR_DeviceReset,"ax",%progbits
  46              		.align	1
  47              		.global	USBD_USR_DeviceReset
  48              		.syntax unified
  49              		.thumb
  50              		.thumb_func
  51              		.fpu fpv4-sp-d16
  53              	USBD_USR_DeviceReset:
  54              	.LFB125:
  51:USB/core/usbd_usr.c **** }
  52:USB/core/usbd_usr.c **** 
  53:USB/core/usbd_usr.c **** void USBD_USR_DeviceReset(uint8_t speed ) {
  55              		.loc 1 53 0
  56              		.cfi_startproc
  57              		@ args = 0, pretend = 0, frame = 0
  58              		@ frame_needed = 0, uses_anonymous_args = 0
  59              		@ link register save eliminated.
  60              	.LVL0:
  54:USB/core/usbd_usr.c **** 	TM_USB_VCP_INT_Status = TM_USB_VCP_NOT_CONNECTED;
  61              		.loc 1 54 0
  62 0000 0522     		movs	r2, #5
  63 0002 014B     		ldr	r3, .L5
ARM GAS  /tmp/ccJtOCGa.s 			page 3


  64 0004 1A70     		strb	r2, [r3]
  65 0006 7047     		bx	lr
  66              	.L6:
  67              		.align	2
  68              	.L5:
  69 0008 00000000 		.word	.LANCHOR0
  70              		.cfi_endproc
  71              	.LFE125:
  73              		.section	.text.USBD_USR_DeviceConfigured,"ax",%progbits
  74              		.align	1
  75              		.global	USBD_USR_DeviceConfigured
  76              		.syntax unified
  77              		.thumb
  78              		.thumb_func
  79              		.fpu fpv4-sp-d16
  81              	USBD_USR_DeviceConfigured:
  82              	.LFB126:
  55:USB/core/usbd_usr.c **** }
  56:USB/core/usbd_usr.c **** 
  57:USB/core/usbd_usr.c **** void USBD_USR_DeviceConfigured (void) {
  83              		.loc 1 57 0
  84              		.cfi_startproc
  85              		@ args = 0, pretend = 0, frame = 0
  86              		@ frame_needed = 0, uses_anonymous_args = 0
  87              		@ link register save eliminated.
  58:USB/core/usbd_usr.c **** 	TM_USB_VCP_INT_Status = TM_USB_VCP_CONNECTED;
  88              		.loc 1 58 0
  89 0000 0622     		movs	r2, #6
  90 0002 014B     		ldr	r3, .L8
  91 0004 1A70     		strb	r2, [r3]
  92 0006 7047     		bx	lr
  93              	.L9:
  94              		.align	2
  95              	.L8:
  96 0008 00000000 		.word	.LANCHOR0
  97              		.cfi_endproc
  98              	.LFE126:
 100              		.section	.text.USBD_USR_DeviceSuspended,"ax",%progbits
 101              		.align	1
 102              		.global	USBD_USR_DeviceSuspended
 103              		.syntax unified
 104              		.thumb
 105              		.thumb_func
 106              		.fpu fpv4-sp-d16
 108              	USBD_USR_DeviceSuspended:
 109              	.LFB127:
  59:USB/core/usbd_usr.c **** }
  60:USB/core/usbd_usr.c **** 
  61:USB/core/usbd_usr.c **** void USBD_USR_DeviceSuspended(void) {
 110              		.loc 1 61 0
 111              		.cfi_startproc
 112              		@ args = 0, pretend = 0, frame = 0
 113              		@ frame_needed = 0, uses_anonymous_args = 0
 114              		@ link register save eliminated.
  62:USB/core/usbd_usr.c **** 	TM_USB_VCP_INT_Status = TM_USB_VCP_NOT_CONNECTED;
 115              		.loc 1 62 0
 116 0000 0522     		movs	r2, #5
ARM GAS  /tmp/ccJtOCGa.s 			page 4


 117 0002 014B     		ldr	r3, .L11
 118 0004 1A70     		strb	r2, [r3]
 119 0006 7047     		bx	lr
 120              	.L12:
 121              		.align	2
 122              	.L11:
 123 0008 00000000 		.word	.LANCHOR0
 124              		.cfi_endproc
 125              	.LFE127:
 127              		.section	.text.USBD_USR_DeviceResumed,"ax",%progbits
 128              		.align	1
 129              		.global	USBD_USR_DeviceResumed
 130              		.syntax unified
 131              		.thumb
 132              		.thumb_func
 133              		.fpu fpv4-sp-d16
 135              	USBD_USR_DeviceResumed:
 136              	.LFB128:
  63:USB/core/usbd_usr.c **** }
  64:USB/core/usbd_usr.c **** 
  65:USB/core/usbd_usr.c **** void USBD_USR_DeviceResumed(void) {
 137              		.loc 1 65 0
 138              		.cfi_startproc
 139              		@ args = 0, pretend = 0, frame = 0
 140              		@ frame_needed = 0, uses_anonymous_args = 0
 141              		@ link register save eliminated.
  66:USB/core/usbd_usr.c **** 	TM_USB_VCP_INT_Status = TM_USB_VCP_NOT_CONNECTED;
 142              		.loc 1 66 0
 143 0000 0522     		movs	r2, #5
 144 0002 014B     		ldr	r3, .L14
 145 0004 1A70     		strb	r2, [r3]
 146 0006 7047     		bx	lr
 147              	.L15:
 148              		.align	2
 149              	.L14:
 150 0008 00000000 		.word	.LANCHOR0
 151              		.cfi_endproc
 152              	.LFE128:
 154              		.section	.text.USBD_USR_DeviceConnected,"ax",%progbits
 155              		.align	1
 156              		.global	USBD_USR_DeviceConnected
 157              		.syntax unified
 158              		.thumb
 159              		.thumb_func
 160              		.fpu fpv4-sp-d16
 162              	USBD_USR_DeviceConnected:
 163              	.LFB129:
  67:USB/core/usbd_usr.c **** }
  68:USB/core/usbd_usr.c **** 
  69:USB/core/usbd_usr.c **** void USBD_USR_DeviceConnected (void) {
 164              		.loc 1 69 0
 165              		.cfi_startproc
 166              		@ args = 0, pretend = 0, frame = 0
 167              		@ frame_needed = 0, uses_anonymous_args = 0
 168              		@ link register save eliminated.
  70:USB/core/usbd_usr.c **** 	TM_USB_VCP_INT_Status = TM_USB_VCP_NOT_CONNECTED;
 169              		.loc 1 70 0
ARM GAS  /tmp/ccJtOCGa.s 			page 5


 170 0000 0522     		movs	r2, #5
 171 0002 014B     		ldr	r3, .L17
 172 0004 1A70     		strb	r2, [r3]
 173 0006 7047     		bx	lr
 174              	.L18:
 175              		.align	2
 176              	.L17:
 177 0008 00000000 		.word	.LANCHOR0
 178              		.cfi_endproc
 179              	.LFE129:
 181              		.section	.text.USBD_USR_DeviceDisconnected,"ax",%progbits
 182              		.align	1
 183              		.global	USBD_USR_DeviceDisconnected
 184              		.syntax unified
 185              		.thumb
 186              		.thumb_func
 187              		.fpu fpv4-sp-d16
 189              	USBD_USR_DeviceDisconnected:
 190              	.LFB130:
  71:USB/core/usbd_usr.c **** }
  72:USB/core/usbd_usr.c **** 
  73:USB/core/usbd_usr.c **** void USBD_USR_DeviceDisconnected (void) {
 191              		.loc 1 73 0
 192              		.cfi_startproc
 193              		@ args = 0, pretend = 0, frame = 0
 194              		@ frame_needed = 0, uses_anonymous_args = 0
 195              		@ link register save eliminated.
  74:USB/core/usbd_usr.c **** 	TM_USB_VCP_INT_Status = TM_USB_VCP_NOT_CONNECTED;
 196              		.loc 1 74 0
 197 0000 0522     		movs	r2, #5
 198 0002 014B     		ldr	r3, .L20
 199 0004 1A70     		strb	r2, [r3]
 200 0006 7047     		bx	lr
 201              	.L21:
 202              		.align	2
 203              	.L20:
 204 0008 00000000 		.word	.LANCHOR0
 205              		.cfi_endproc
 206              	.LFE130:
 208              		.section	.text.USBD_User_GetStatus,"ax",%progbits
 209              		.align	1
 210              		.global	USBD_User_GetStatus
 211              		.syntax unified
 212              		.thumb
 213              		.thumb_func
 214              		.fpu fpv4-sp-d16
 216              	USBD_User_GetStatus:
 217              	.LFB131:
  75:USB/core/usbd_usr.c **** }
  76:USB/core/usbd_usr.c **** 
  77:USB/core/usbd_usr.c **** TM_USB_VCP_Result USBD_User_GetStatus(void) {
 218              		.loc 1 77 0
 219              		.cfi_startproc
 220              		@ args = 0, pretend = 0, frame = 0
 221              		@ frame_needed = 0, uses_anonymous_args = 0
 222              		@ link register save eliminated.
  78:USB/core/usbd_usr.c **** 	return TM_USB_VCP_INT_Status;
ARM GAS  /tmp/ccJtOCGa.s 			page 6


  79:USB/core/usbd_usr.c **** }
 223              		.loc 1 79 0
 224 0000 014B     		ldr	r3, .L23
 225 0002 1878     		ldrb	r0, [r3]	@ zero_extendqisi2
 226 0004 7047     		bx	lr
 227              	.L24:
 228 0006 00BF     		.align	2
 229              	.L23:
 230 0008 00000000 		.word	.LANCHOR0
 231              		.cfi_endproc
 232              	.LFE131:
 234              		.global	USR_cb
 235              		.global	TM_USB_VCP_INT_Status
 236              		.section	.data.TM_USB_VCP_INT_Status,"aw",%progbits
 237              		.set	.LANCHOR0,. + 0
 240              	TM_USB_VCP_INT_Status:
 241 0000 05       		.byte	5
 242              		.section	.data.USR_cb,"aw",%progbits
 243              		.align	2
 246              	USR_cb:
 247 0000 00000000 		.word	USBD_USR_Init
 248 0004 00000000 		.word	USBD_USR_DeviceReset
 249 0008 00000000 		.word	USBD_USR_DeviceConfigured
 250 000c 00000000 		.word	USBD_USR_DeviceSuspended
 251 0010 00000000 		.word	USBD_USR_DeviceResumed
 252 0014 00000000 		.word	USBD_USR_DeviceConnected
 253 0018 00000000 		.word	USBD_USR_DeviceDisconnected
 254              		.text
 255              	.Letext0:
 256              		.file 2 "/usr/include/newlib/machine/_default_types.h"
 257              		.file 3 "/usr/include/newlib/sys/_stdint.h"
 258              		.file 4 "F4_CORE/core_cm4.h"
 259              		.file 5 "USER/system_stm32f4xx.h"
 260              		.file 6 "/usr/include/newlib/sys/lock.h"
 261              		.file 7 "/usr/include/newlib/sys/_types.h"
 262              		.file 8 "/usr/lib/gcc/arm-none-eabi/6.3.1/include/stddef.h"
 263              		.file 9 "/usr/include/newlib/sys/reent.h"
 264              		.file 10 "USB/core/usb_core.h"
 265              		.file 11 "USB/core/usbd_cdc_core.h"
 266              		.file 12 "USB/core/usbd_desc.h"
 267              		.file 13 "USB/config/tm_stm32f4_usb_vcp.h"
 268              		.file 14 "USB/core/usbd_usr.h"
ARM GAS  /tmp/ccJtOCGa.s 			page 7

