ARM GAS  /tmp/ccNUbZb9.s 			page 1


   1              		.cpu cortex-m4
   2              		.eabi_attribute 27, 1
   3              		.eabi_attribute 28, 1
   4              		.eabi_attribute 20, 1
   5              		.eabi_attribute 21, 1
   6              		.eabi_attribute 23, 3
   7              		.eabi_attribute 24, 1
   8              		.eabi_attribute 25, 1
   9              		.eabi_attribute 26, 1
  10              		.eabi_attribute 30, 1
  11              		.eabi_attribute 34, 1
  12              		.eabi_attribute 18, 4
  13              		.file	"usbd_core.c"
  14              		.text
  15              	.Ltext0:
  16              		.cfi_sections	.debug_frame
  17              		.section	.text.USBD_RunTestMode,"ax",%progbits
  18              		.align	1
  19              		.arch armv7e-m
  20              		.syntax unified
  21              		.thumb
  22              		.thumb_func
  23              		.fpu fpv4-sp-d16
  25              	USBD_RunTestMode:
  26              	.LVL0:
  27              	.LFB131:
  28              		.file 1 "USB/core/usbd_core.c"
   1:USB/core/usbd_core.c **** /**
   2:USB/core/usbd_core.c ****   ******************************************************************************
   3:USB/core/usbd_core.c ****   * @file    usbd_core.c
   4:USB/core/usbd_core.c ****   * @author  MCD Application Team
   5:USB/core/usbd_core.c ****   * @version V1.1.0
   6:USB/core/usbd_core.c ****   * @date    19-March-2012
   7:USB/core/usbd_core.c ****   * @brief   This file provides all the USBD core functions.
   8:USB/core/usbd_core.c ****   ******************************************************************************
   9:USB/core/usbd_core.c ****   * @attention
  10:USB/core/usbd_core.c ****   *
  11:USB/core/usbd_core.c ****   * <h2><center>&copy; COPYRIGHT 2012 STMicroelectronics</center></h2>
  12:USB/core/usbd_core.c ****   *
  13:USB/core/usbd_core.c ****   * Licensed under MCD-ST Liberty SW License Agreement V2, (the "License");
  14:USB/core/usbd_core.c ****   * You may not use this file except in compliance with the License.
  15:USB/core/usbd_core.c ****   * You may obtain a copy of the License at:
  16:USB/core/usbd_core.c ****   *
  17:USB/core/usbd_core.c ****   *        http://www.st.com/software_license_agreement_liberty_v2
  18:USB/core/usbd_core.c ****   *
  19:USB/core/usbd_core.c ****   * Unless required by applicable law or agreed to in writing, software 
  20:USB/core/usbd_core.c ****   * distributed under the License is distributed on an "AS IS" BASIS, 
  21:USB/core/usbd_core.c ****   * WITHOUT WARRANTIES OR CONDITIONS OF ANY KIND, either express or implied.
  22:USB/core/usbd_core.c ****   * See the License for the specific language governing permissions and
  23:USB/core/usbd_core.c ****   * limitations under the License.
  24:USB/core/usbd_core.c ****   *
  25:USB/core/usbd_core.c ****   ******************************************************************************
  26:USB/core/usbd_core.c ****   */ 
  27:USB/core/usbd_core.c **** 
  28:USB/core/usbd_core.c **** /* Includes ------------------------------------------------------------------*/
  29:USB/core/usbd_core.c **** #include "usbd_core.h"
  30:USB/core/usbd_core.c **** #include "usbd_req.h"
ARM GAS  /tmp/ccNUbZb9.s 			page 2


  31:USB/core/usbd_core.c **** #include "usbd_ioreq.h"
  32:USB/core/usbd_core.c **** #include "usb_dcd_int.h"
  33:USB/core/usbd_core.c **** #include "usb_bsp.h"
  34:USB/core/usbd_core.c **** 
  35:USB/core/usbd_core.c **** /** @addtogroup STM32_USB_OTG_DEVICE_LIBRARY
  36:USB/core/usbd_core.c **** * @{
  37:USB/core/usbd_core.c **** */
  38:USB/core/usbd_core.c **** 
  39:USB/core/usbd_core.c **** 
  40:USB/core/usbd_core.c **** /** @defgroup USBD_CORE 
  41:USB/core/usbd_core.c **** * @brief usbd core module
  42:USB/core/usbd_core.c **** * @{
  43:USB/core/usbd_core.c **** */ 
  44:USB/core/usbd_core.c **** 
  45:USB/core/usbd_core.c **** /** @defgroup USBD_CORE_Private_TypesDefinitions
  46:USB/core/usbd_core.c **** * @{
  47:USB/core/usbd_core.c **** */ 
  48:USB/core/usbd_core.c **** /**
  49:USB/core/usbd_core.c **** * @}
  50:USB/core/usbd_core.c **** */ 
  51:USB/core/usbd_core.c **** 
  52:USB/core/usbd_core.c **** 
  53:USB/core/usbd_core.c **** /** @defgroup USBD_CORE_Private_Defines
  54:USB/core/usbd_core.c **** * @{
  55:USB/core/usbd_core.c **** */ 
  56:USB/core/usbd_core.c **** 
  57:USB/core/usbd_core.c **** /**
  58:USB/core/usbd_core.c **** * @}
  59:USB/core/usbd_core.c **** */ 
  60:USB/core/usbd_core.c **** 
  61:USB/core/usbd_core.c **** 
  62:USB/core/usbd_core.c **** /** @defgroup USBD_CORE_Private_Macros
  63:USB/core/usbd_core.c **** * @{
  64:USB/core/usbd_core.c **** */ 
  65:USB/core/usbd_core.c **** /**
  66:USB/core/usbd_core.c **** * @}
  67:USB/core/usbd_core.c **** */ 
  68:USB/core/usbd_core.c **** 
  69:USB/core/usbd_core.c **** 
  70:USB/core/usbd_core.c **** 
  71:USB/core/usbd_core.c **** 
  72:USB/core/usbd_core.c **** /** @defgroup USBD_CORE_Private_FunctionPrototypes
  73:USB/core/usbd_core.c **** * @{
  74:USB/core/usbd_core.c **** */ 
  75:USB/core/usbd_core.c **** static uint8_t USBD_SetupStage(USB_OTG_CORE_HANDLE *pdev);
  76:USB/core/usbd_core.c **** static uint8_t USBD_DataOutStage(USB_OTG_CORE_HANDLE *pdev , uint8_t epnum);
  77:USB/core/usbd_core.c **** static uint8_t USBD_DataInStage(USB_OTG_CORE_HANDLE *pdev , uint8_t epnum);
  78:USB/core/usbd_core.c **** static uint8_t USBD_SOF(USB_OTG_CORE_HANDLE  *pdev);
  79:USB/core/usbd_core.c **** static uint8_t USBD_Reset(USB_OTG_CORE_HANDLE  *pdev);
  80:USB/core/usbd_core.c **** static uint8_t USBD_Suspend(USB_OTG_CORE_HANDLE  *pdev);
  81:USB/core/usbd_core.c **** static uint8_t USBD_Resume(USB_OTG_CORE_HANDLE  *pdev);
  82:USB/core/usbd_core.c **** #ifdef VBUS_SENSING_ENABLED
  83:USB/core/usbd_core.c **** static uint8_t USBD_DevConnected(USB_OTG_CORE_HANDLE  *pdev);
  84:USB/core/usbd_core.c **** static uint8_t USBD_DevDisconnected(USB_OTG_CORE_HANDLE  *pdev);
  85:USB/core/usbd_core.c **** #endif
  86:USB/core/usbd_core.c **** static uint8_t USBD_IsoINIncomplete(USB_OTG_CORE_HANDLE  *pdev);
  87:USB/core/usbd_core.c **** static uint8_t USBD_IsoOUTIncomplete(USB_OTG_CORE_HANDLE  *pdev);
ARM GAS  /tmp/ccNUbZb9.s 			page 3


  88:USB/core/usbd_core.c **** static uint8_t  USBD_RunTestMode (USB_OTG_CORE_HANDLE  *pdev) ;
  89:USB/core/usbd_core.c **** /**
  90:USB/core/usbd_core.c **** * @}
  91:USB/core/usbd_core.c **** */ 
  92:USB/core/usbd_core.c **** 
  93:USB/core/usbd_core.c **** /** @defgroup USBD_CORE_Private_Variables
  94:USB/core/usbd_core.c **** * @{
  95:USB/core/usbd_core.c **** */ 
  96:USB/core/usbd_core.c **** 
  97:USB/core/usbd_core.c **** __IO USB_OTG_DCTL_TypeDef SET_TEST_MODE;
  98:USB/core/usbd_core.c **** 
  99:USB/core/usbd_core.c **** USBD_DCD_INT_cb_TypeDef USBD_DCD_INT_cb = 
 100:USB/core/usbd_core.c **** {
 101:USB/core/usbd_core.c ****   USBD_DataOutStage,
 102:USB/core/usbd_core.c ****   USBD_DataInStage,
 103:USB/core/usbd_core.c ****   USBD_SetupStage,
 104:USB/core/usbd_core.c ****   USBD_SOF,
 105:USB/core/usbd_core.c ****   USBD_Reset,
 106:USB/core/usbd_core.c ****   USBD_Suspend,
 107:USB/core/usbd_core.c ****   USBD_Resume,
 108:USB/core/usbd_core.c ****   USBD_IsoINIncomplete,
 109:USB/core/usbd_core.c ****   USBD_IsoOUTIncomplete,
 110:USB/core/usbd_core.c **** #ifdef VBUS_SENSING_ENABLED
 111:USB/core/usbd_core.c **** USBD_DevConnected, 
 112:USB/core/usbd_core.c **** USBD_DevDisconnected,    
 113:USB/core/usbd_core.c **** #endif  
 114:USB/core/usbd_core.c **** };
 115:USB/core/usbd_core.c **** 
 116:USB/core/usbd_core.c **** USBD_DCD_INT_cb_TypeDef  *USBD_DCD_INT_fops = &USBD_DCD_INT_cb;
 117:USB/core/usbd_core.c **** /**
 118:USB/core/usbd_core.c **** * @}
 119:USB/core/usbd_core.c **** */ 
 120:USB/core/usbd_core.c **** 
 121:USB/core/usbd_core.c **** /** @defgroup USBD_CORE_Private_Functions
 122:USB/core/usbd_core.c **** * @{
 123:USB/core/usbd_core.c **** */ 
 124:USB/core/usbd_core.c **** 
 125:USB/core/usbd_core.c **** /**
 126:USB/core/usbd_core.c **** * @brief  USBD_Init
 127:USB/core/usbd_core.c **** *         Initailizes the device stack and load the class driver
 128:USB/core/usbd_core.c **** * @param  pdev: device instance
 129:USB/core/usbd_core.c **** * @param  core_address: USB OTG core ID
 130:USB/core/usbd_core.c **** * @param  class_cb: Class callback structure address
 131:USB/core/usbd_core.c **** * @param  usr_cb: User callback structure address
 132:USB/core/usbd_core.c **** * @retval None
 133:USB/core/usbd_core.c **** */
 134:USB/core/usbd_core.c **** void USBD_Init(USB_OTG_CORE_HANDLE *pdev,
 135:USB/core/usbd_core.c ****                USB_OTG_CORE_ID_TypeDef coreID,
 136:USB/core/usbd_core.c ****                USBD_DEVICE *pDevice,                  
 137:USB/core/usbd_core.c ****                USBD_Class_cb_TypeDef *class_cb, 
 138:USB/core/usbd_core.c ****                USBD_Usr_cb_TypeDef *usr_cb)
 139:USB/core/usbd_core.c **** {
 140:USB/core/usbd_core.c ****   /* Hardware Init */
 141:USB/core/usbd_core.c ****   USB_OTG_BSP_Init(pdev);  
 142:USB/core/usbd_core.c ****   
 143:USB/core/usbd_core.c ****   USBD_DeInit(pdev);
 144:USB/core/usbd_core.c ****   
ARM GAS  /tmp/ccNUbZb9.s 			page 4


 145:USB/core/usbd_core.c ****   /*Register class and user callbacks */
 146:USB/core/usbd_core.c ****   pdev->dev.class_cb = class_cb;
 147:USB/core/usbd_core.c ****   pdev->dev.usr_cb = usr_cb;  
 148:USB/core/usbd_core.c ****   pdev->dev.usr_device = pDevice;    
 149:USB/core/usbd_core.c ****   
 150:USB/core/usbd_core.c ****   /* set USB OTG core params */
 151:USB/core/usbd_core.c ****   DCD_Init(pdev , coreID);
 152:USB/core/usbd_core.c ****   
 153:USB/core/usbd_core.c ****   /* Upon Init call usr callback */
 154:USB/core/usbd_core.c ****   pdev->dev.usr_cb->Init();
 155:USB/core/usbd_core.c ****   
 156:USB/core/usbd_core.c ****   /* Enable Interrupts */
 157:USB/core/usbd_core.c ****   USB_OTG_BSP_EnableInterrupt(pdev);
 158:USB/core/usbd_core.c **** }
 159:USB/core/usbd_core.c **** 
 160:USB/core/usbd_core.c **** /**
 161:USB/core/usbd_core.c **** * @brief  USBD_DeInit 
 162:USB/core/usbd_core.c **** *         Re-Initialize th device library
 163:USB/core/usbd_core.c **** * @param  pdev: device instance
 164:USB/core/usbd_core.c **** * @retval status: status
 165:USB/core/usbd_core.c **** */
 166:USB/core/usbd_core.c **** USBD_Status USBD_DeInit(USB_OTG_CORE_HANDLE *pdev)
 167:USB/core/usbd_core.c **** {
 168:USB/core/usbd_core.c ****   /* Software Init */
 169:USB/core/usbd_core.c ****   
 170:USB/core/usbd_core.c ****   return USBD_OK;
 171:USB/core/usbd_core.c **** }
 172:USB/core/usbd_core.c **** 
 173:USB/core/usbd_core.c **** /**
 174:USB/core/usbd_core.c **** * @brief  USBD_SetupStage 
 175:USB/core/usbd_core.c **** *         Handle the setup stage
 176:USB/core/usbd_core.c **** * @param  pdev: device instance
 177:USB/core/usbd_core.c **** * @retval status
 178:USB/core/usbd_core.c **** */
 179:USB/core/usbd_core.c **** static uint8_t USBD_SetupStage(USB_OTG_CORE_HANDLE *pdev)
 180:USB/core/usbd_core.c **** {
 181:USB/core/usbd_core.c ****   USB_SETUP_REQ req;
 182:USB/core/usbd_core.c ****   
 183:USB/core/usbd_core.c ****   USBD_ParseSetupRequest(pdev , &req);
 184:USB/core/usbd_core.c ****   
 185:USB/core/usbd_core.c ****   switch (req.bmRequest & 0x1F) 
 186:USB/core/usbd_core.c ****   {
 187:USB/core/usbd_core.c ****   case USB_REQ_RECIPIENT_DEVICE:   
 188:USB/core/usbd_core.c ****     USBD_StdDevReq (pdev, &req);
 189:USB/core/usbd_core.c ****     break;
 190:USB/core/usbd_core.c ****     
 191:USB/core/usbd_core.c ****   case USB_REQ_RECIPIENT_INTERFACE:     
 192:USB/core/usbd_core.c ****     USBD_StdItfReq(pdev, &req);
 193:USB/core/usbd_core.c ****     break;
 194:USB/core/usbd_core.c ****     
 195:USB/core/usbd_core.c ****   case USB_REQ_RECIPIENT_ENDPOINT:        
 196:USB/core/usbd_core.c ****     USBD_StdEPReq(pdev, &req);   
 197:USB/core/usbd_core.c ****     break;
 198:USB/core/usbd_core.c ****     
 199:USB/core/usbd_core.c ****   default:           
 200:USB/core/usbd_core.c ****     DCD_EP_Stall(pdev , req.bmRequest & 0x80);
 201:USB/core/usbd_core.c ****     break;
ARM GAS  /tmp/ccNUbZb9.s 			page 5


 202:USB/core/usbd_core.c ****   }  
 203:USB/core/usbd_core.c ****   return USBD_OK;
 204:USB/core/usbd_core.c **** }
 205:USB/core/usbd_core.c **** 
 206:USB/core/usbd_core.c **** /**
 207:USB/core/usbd_core.c **** * @brief  USBD_DataOutStage 
 208:USB/core/usbd_core.c **** *         Handle data out stage
 209:USB/core/usbd_core.c **** * @param  pdev: device instance
 210:USB/core/usbd_core.c **** * @param  epnum: endpoint index
 211:USB/core/usbd_core.c **** * @retval status
 212:USB/core/usbd_core.c **** */
 213:USB/core/usbd_core.c **** static uint8_t USBD_DataOutStage(USB_OTG_CORE_HANDLE *pdev , uint8_t epnum)
 214:USB/core/usbd_core.c **** {
 215:USB/core/usbd_core.c ****   USB_OTG_EP *ep;
 216:USB/core/usbd_core.c ****   
 217:USB/core/usbd_core.c ****   if(epnum == 0) 
 218:USB/core/usbd_core.c ****   {
 219:USB/core/usbd_core.c ****     ep = &pdev->dev.out_ep[0];
 220:USB/core/usbd_core.c ****     if ( pdev->dev.device_state == USB_OTG_EP0_DATA_OUT)
 221:USB/core/usbd_core.c ****     {
 222:USB/core/usbd_core.c ****       if(ep->rem_data_len > ep->maxpacket)
 223:USB/core/usbd_core.c ****       {
 224:USB/core/usbd_core.c ****         ep->rem_data_len -=  ep->maxpacket;
 225:USB/core/usbd_core.c ****         
 226:USB/core/usbd_core.c ****         if(pdev->cfg.dma_enable == 1)
 227:USB/core/usbd_core.c ****         {
 228:USB/core/usbd_core.c ****           /* in slave mode this, is handled by the RxSTSQLvl ISR */
 229:USB/core/usbd_core.c ****           ep->xfer_buff += ep->maxpacket; 
 230:USB/core/usbd_core.c ****         }        
 231:USB/core/usbd_core.c ****         USBD_CtlContinueRx (pdev, 
 232:USB/core/usbd_core.c ****                             ep->xfer_buff,
 233:USB/core/usbd_core.c ****                             MIN(ep->rem_data_len ,ep->maxpacket));
 234:USB/core/usbd_core.c ****       }
 235:USB/core/usbd_core.c ****       else
 236:USB/core/usbd_core.c ****       {
 237:USB/core/usbd_core.c ****         if((pdev->dev.class_cb->EP0_RxReady != NULL)&&
 238:USB/core/usbd_core.c ****            (pdev->dev.device_status == USB_OTG_CONFIGURED))
 239:USB/core/usbd_core.c ****         {
 240:USB/core/usbd_core.c ****           pdev->dev.class_cb->EP0_RxReady(pdev); 
 241:USB/core/usbd_core.c ****         }
 242:USB/core/usbd_core.c ****         USBD_CtlSendStatus(pdev);
 243:USB/core/usbd_core.c ****       }
 244:USB/core/usbd_core.c ****     }
 245:USB/core/usbd_core.c ****   }
 246:USB/core/usbd_core.c ****   else if((pdev->dev.class_cb->DataOut != NULL)&&
 247:USB/core/usbd_core.c ****           (pdev->dev.device_status == USB_OTG_CONFIGURED))
 248:USB/core/usbd_core.c ****   {
 249:USB/core/usbd_core.c ****     pdev->dev.class_cb->DataOut(pdev, epnum); 
 250:USB/core/usbd_core.c ****   }  
 251:USB/core/usbd_core.c ****   return USBD_OK;
 252:USB/core/usbd_core.c **** }
 253:USB/core/usbd_core.c **** 
 254:USB/core/usbd_core.c **** /**
 255:USB/core/usbd_core.c **** * @brief  USBD_DataInStage 
 256:USB/core/usbd_core.c **** *         Handle data in stage
 257:USB/core/usbd_core.c **** * @param  pdev: device instance
 258:USB/core/usbd_core.c **** * @param  epnum: endpoint index
ARM GAS  /tmp/ccNUbZb9.s 			page 6


 259:USB/core/usbd_core.c **** * @retval status
 260:USB/core/usbd_core.c **** */
 261:USB/core/usbd_core.c **** static uint8_t USBD_DataInStage(USB_OTG_CORE_HANDLE *pdev , uint8_t epnum)
 262:USB/core/usbd_core.c **** {
 263:USB/core/usbd_core.c ****   USB_OTG_EP *ep;
 264:USB/core/usbd_core.c ****   
 265:USB/core/usbd_core.c ****   if(epnum == 0) 
 266:USB/core/usbd_core.c ****   {
 267:USB/core/usbd_core.c ****     ep = &pdev->dev.in_ep[0];
 268:USB/core/usbd_core.c ****     if ( pdev->dev.device_state == USB_OTG_EP0_DATA_IN)
 269:USB/core/usbd_core.c ****     {
 270:USB/core/usbd_core.c ****       if(ep->rem_data_len > ep->maxpacket)
 271:USB/core/usbd_core.c ****       {
 272:USB/core/usbd_core.c ****         ep->rem_data_len -=  ep->maxpacket;
 273:USB/core/usbd_core.c ****         if(pdev->cfg.dma_enable == 1)
 274:USB/core/usbd_core.c ****         {
 275:USB/core/usbd_core.c ****           /* in slave mode this, is handled by the TxFifoEmpty ISR */
 276:USB/core/usbd_core.c ****           ep->xfer_buff += ep->maxpacket;
 277:USB/core/usbd_core.c ****         }
 278:USB/core/usbd_core.c ****         USBD_CtlContinueSendData (pdev, 
 279:USB/core/usbd_core.c ****                                   ep->xfer_buff, 
 280:USB/core/usbd_core.c ****                                   ep->rem_data_len);
 281:USB/core/usbd_core.c ****       }
 282:USB/core/usbd_core.c ****       else
 283:USB/core/usbd_core.c ****       { /* last packet is MPS multiple, so send ZLP packet */
 284:USB/core/usbd_core.c ****         if((ep->total_data_len % ep->maxpacket == 0) &&
 285:USB/core/usbd_core.c ****            (ep->total_data_len >= ep->maxpacket) &&
 286:USB/core/usbd_core.c ****              (ep->total_data_len < ep->ctl_data_len ))
 287:USB/core/usbd_core.c ****         {
 288:USB/core/usbd_core.c ****           
 289:USB/core/usbd_core.c ****           USBD_CtlContinueSendData(pdev , NULL, 0);
 290:USB/core/usbd_core.c ****           ep->ctl_data_len = 0;
 291:USB/core/usbd_core.c ****         }
 292:USB/core/usbd_core.c ****         else
 293:USB/core/usbd_core.c ****         {
 294:USB/core/usbd_core.c ****           if((pdev->dev.class_cb->EP0_TxSent != NULL)&&
 295:USB/core/usbd_core.c ****              (pdev->dev.device_status == USB_OTG_CONFIGURED))
 296:USB/core/usbd_core.c ****           {
 297:USB/core/usbd_core.c ****             pdev->dev.class_cb->EP0_TxSent(pdev); 
 298:USB/core/usbd_core.c ****           }          
 299:USB/core/usbd_core.c ****           USBD_CtlReceiveStatus(pdev);
 300:USB/core/usbd_core.c ****         }
 301:USB/core/usbd_core.c ****       }
 302:USB/core/usbd_core.c ****     }
 303:USB/core/usbd_core.c ****     if (pdev->dev.test_mode == 1)
 304:USB/core/usbd_core.c ****     {
 305:USB/core/usbd_core.c ****       USBD_RunTestMode(pdev); 
 306:USB/core/usbd_core.c ****       pdev->dev.test_mode = 0;
 307:USB/core/usbd_core.c ****     }
 308:USB/core/usbd_core.c ****   }
 309:USB/core/usbd_core.c ****   else if((pdev->dev.class_cb->DataIn != NULL)&& 
 310:USB/core/usbd_core.c ****           (pdev->dev.device_status == USB_OTG_CONFIGURED))
 311:USB/core/usbd_core.c ****   {
 312:USB/core/usbd_core.c ****     pdev->dev.class_cb->DataIn(pdev, epnum); 
 313:USB/core/usbd_core.c ****   }  
 314:USB/core/usbd_core.c ****   return USBD_OK;
 315:USB/core/usbd_core.c **** }
ARM GAS  /tmp/ccNUbZb9.s 			page 7


 316:USB/core/usbd_core.c **** 
 317:USB/core/usbd_core.c **** 
 318:USB/core/usbd_core.c **** 
 319:USB/core/usbd_core.c **** 
 320:USB/core/usbd_core.c **** /**
 321:USB/core/usbd_core.c **** * @brief  USBD_RunTestMode 
 322:USB/core/usbd_core.c **** *         Launch test mode process
 323:USB/core/usbd_core.c **** * @param  pdev: device instance
 324:USB/core/usbd_core.c **** * @retval status
 325:USB/core/usbd_core.c **** */
 326:USB/core/usbd_core.c **** static uint8_t  USBD_RunTestMode (USB_OTG_CORE_HANDLE  *pdev) 
 327:USB/core/usbd_core.c **** {
  29              		.loc 1 327 1 view -0
  30              		.cfi_startproc
  31              		@ args = 0, pretend = 0, frame = 0
  32              		@ frame_needed = 0, uses_anonymous_args = 0
  33              		@ link register save eliminated.
 328:USB/core/usbd_core.c ****   USB_OTG_WRITE_REG32(&pdev->regs.DREGS->DCTL, SET_TEST_MODE.d32);
  34              		.loc 1 328 3 view .LVU1
  35 0000 0369     		ldr	r3, [r0, #16]
  36 0002 024A     		ldr	r2, .L2
  37 0004 1268     		ldr	r2, [r2]
  38 0006 5A60     		str	r2, [r3, #4]
 329:USB/core/usbd_core.c ****   return USBD_OK;  
  39              		.loc 1 329 3 view .LVU2
 330:USB/core/usbd_core.c **** }
  40              		.loc 1 330 1 is_stmt 0 view .LVU3
  41 0008 0020     		movs	r0, #0
  42              	.LVL1:
  43              		.loc 1 330 1 view .LVU4
  44 000a 7047     		bx	lr
  45              	.L3:
  46              		.align	2
  47              	.L2:
  48 000c 00000000 		.word	SET_TEST_MODE
  49              		.cfi_endproc
  50              	.LFE131:
  52              		.section	.text.USBD_Resume,"ax",%progbits
  53              		.align	1
  54              		.syntax unified
  55              		.thumb
  56              		.thumb_func
  57              		.fpu fpv4-sp-d16
  59              	USBD_Resume:
  60              	.LVL2:
  61              	.LFB133:
 331:USB/core/usbd_core.c **** 
 332:USB/core/usbd_core.c **** /**
 333:USB/core/usbd_core.c **** * @brief  USBD_Reset 
 334:USB/core/usbd_core.c **** *         Handle Reset event
 335:USB/core/usbd_core.c **** * @param  pdev: device instance
 336:USB/core/usbd_core.c **** * @retval status
 337:USB/core/usbd_core.c **** */
 338:USB/core/usbd_core.c **** 
 339:USB/core/usbd_core.c **** static uint8_t USBD_Reset(USB_OTG_CORE_HANDLE  *pdev)
 340:USB/core/usbd_core.c **** {
 341:USB/core/usbd_core.c ****   /* Open EP0 OUT */
ARM GAS  /tmp/ccNUbZb9.s 			page 8


 342:USB/core/usbd_core.c ****   DCD_EP_Open(pdev,
 343:USB/core/usbd_core.c ****               0x00,
 344:USB/core/usbd_core.c ****               USB_OTG_MAX_EP0_SIZE,
 345:USB/core/usbd_core.c ****               EP_TYPE_CTRL);
 346:USB/core/usbd_core.c ****   
 347:USB/core/usbd_core.c ****   /* Open EP0 IN */
 348:USB/core/usbd_core.c ****   DCD_EP_Open(pdev,
 349:USB/core/usbd_core.c ****               0x80,
 350:USB/core/usbd_core.c ****               USB_OTG_MAX_EP0_SIZE,
 351:USB/core/usbd_core.c ****               EP_TYPE_CTRL);
 352:USB/core/usbd_core.c ****   
 353:USB/core/usbd_core.c ****   /* Upon Reset call usr call back */
 354:USB/core/usbd_core.c ****   pdev->dev.device_status = USB_OTG_DEFAULT;
 355:USB/core/usbd_core.c ****   pdev->dev.usr_cb->DeviceReset(pdev->cfg.speed);
 356:USB/core/usbd_core.c ****   
 357:USB/core/usbd_core.c ****   return USBD_OK;
 358:USB/core/usbd_core.c **** }
 359:USB/core/usbd_core.c **** 
 360:USB/core/usbd_core.c **** /**
 361:USB/core/usbd_core.c **** * @brief  USBD_Resume 
 362:USB/core/usbd_core.c **** *         Handle Resume event
 363:USB/core/usbd_core.c **** * @param  pdev: device instance
 364:USB/core/usbd_core.c **** * @retval status
 365:USB/core/usbd_core.c **** */
 366:USB/core/usbd_core.c **** 
 367:USB/core/usbd_core.c **** static uint8_t USBD_Resume(USB_OTG_CORE_HANDLE  *pdev)
 368:USB/core/usbd_core.c **** {
  62              		.loc 1 368 1 is_stmt 1 view -0
  63              		.cfi_startproc
  64              		@ args = 0, pretend = 0, frame = 0
  65              		@ frame_needed = 0, uses_anonymous_args = 0
  66              		.loc 1 368 1 is_stmt 0 view .LVU6
  67 0000 10B5     		push	{r4, lr}
  68              	.LCFI0:
  69              		.cfi_def_cfa_offset 8
  70              		.cfi_offset 4, -8
  71              		.cfi_offset 14, -4
  72 0002 0446     		mov	r4, r0
 369:USB/core/usbd_core.c ****   /* Upon Resume call usr call back */
 370:USB/core/usbd_core.c ****   pdev->dev.usr_cb->DeviceResumed(); 
  73              		.loc 1 370 3 is_stmt 1 view .LVU7
  74              		.loc 1 370 12 is_stmt 0 view .LVU8
  75 0004 D0F8E835 		ldr	r3, [r0, #1512]
  76              		.loc 1 370 19 view .LVU9
  77 0008 1B69     		ldr	r3, [r3, #16]
  78              		.loc 1 370 3 view .LVU10
  79 000a 9847     		blx	r3
  80              	.LVL3:
 371:USB/core/usbd_core.c ****   pdev->dev.device_status = pdev->dev.device_old_status;  
  81              		.loc 1 371 3 is_stmt 1 view .LVU11
 372:USB/core/usbd_core.c ****   pdev->dev.device_status = USB_OTG_CONFIGURED;  
  82              		.loc 1 372 3 view .LVU12
  83              		.loc 1 372 27 is_stmt 0 view .LVU13
  84 000c 0323     		movs	r3, #3
  85 000e 84F81231 		strb	r3, [r4, #274]
 373:USB/core/usbd_core.c ****   return USBD_OK;
  86              		.loc 1 373 3 is_stmt 1 view .LVU14
ARM GAS  /tmp/ccNUbZb9.s 			page 9


 374:USB/core/usbd_core.c **** }
  87              		.loc 1 374 1 is_stmt 0 view .LVU15
  88 0012 0020     		movs	r0, #0
  89 0014 10BD     		pop	{r4, pc}
  90              		.loc 1 374 1 view .LVU16
  91              		.cfi_endproc
  92              	.LFE133:
  94              		.section	.text.USBD_Suspend,"ax",%progbits
  95              		.align	1
  96              		.syntax unified
  97              		.thumb
  98              		.thumb_func
  99              		.fpu fpv4-sp-d16
 101              	USBD_Suspend:
 102              	.LVL4:
 103              	.LFB134:
 375:USB/core/usbd_core.c **** 
 376:USB/core/usbd_core.c **** 
 377:USB/core/usbd_core.c **** /**
 378:USB/core/usbd_core.c **** * @brief  USBD_Suspend 
 379:USB/core/usbd_core.c **** *         Handle Suspend event
 380:USB/core/usbd_core.c **** * @param  pdev: device instance
 381:USB/core/usbd_core.c **** * @retval status
 382:USB/core/usbd_core.c **** */
 383:USB/core/usbd_core.c **** 
 384:USB/core/usbd_core.c **** static uint8_t USBD_Suspend(USB_OTG_CORE_HANDLE  *pdev)
 385:USB/core/usbd_core.c **** {
 104              		.loc 1 385 1 is_stmt 1 view -0
 105              		.cfi_startproc
 106              		@ args = 0, pretend = 0, frame = 0
 107              		@ frame_needed = 0, uses_anonymous_args = 0
 108              		.loc 1 385 1 is_stmt 0 view .LVU18
 109 0000 08B5     		push	{r3, lr}
 110              	.LCFI1:
 111              		.cfi_def_cfa_offset 8
 112              		.cfi_offset 3, -8
 113              		.cfi_offset 14, -4
 386:USB/core/usbd_core.c ****   pdev->dev.device_old_status = pdev->dev.device_status;
 114              		.loc 1 386 3 is_stmt 1 view .LVU19
 115              		.loc 1 386 42 is_stmt 0 view .LVU20
 116 0002 90F81231 		ldrb	r3, [r0, #274]	@ zero_extendqisi2
 117              		.loc 1 386 31 view .LVU21
 118 0006 80F81331 		strb	r3, [r0, #275]
 387:USB/core/usbd_core.c ****   pdev->dev.device_status  = USB_OTG_SUSPENDED;
 119              		.loc 1 387 3 is_stmt 1 view .LVU22
 120              		.loc 1 387 28 is_stmt 0 view .LVU23
 121 000a 0423     		movs	r3, #4
 122 000c 80F81231 		strb	r3, [r0, #274]
 388:USB/core/usbd_core.c ****   /* Upon Resume call usr call back */
 389:USB/core/usbd_core.c ****   pdev->dev.usr_cb->DeviceSuspended(); 
 123              		.loc 1 389 3 is_stmt 1 view .LVU24
 124              		.loc 1 389 12 is_stmt 0 view .LVU25
 125 0010 D0F8E835 		ldr	r3, [r0, #1512]
 126              		.loc 1 389 19 view .LVU26
 127 0014 DB68     		ldr	r3, [r3, #12]
 128              		.loc 1 389 3 view .LVU27
 129 0016 9847     		blx	r3
ARM GAS  /tmp/ccNUbZb9.s 			page 10


 130              	.LVL5:
 390:USB/core/usbd_core.c ****   return USBD_OK;
 131              		.loc 1 390 3 is_stmt 1 view .LVU28
 391:USB/core/usbd_core.c **** }
 132              		.loc 1 391 1 is_stmt 0 view .LVU29
 133 0018 0020     		movs	r0, #0
 134 001a 08BD     		pop	{r3, pc}
 135              		.cfi_endproc
 136              	.LFE134:
 138              		.section	.text.USBD_SOF,"ax",%progbits
 139              		.align	1
 140              		.syntax unified
 141              		.thumb
 142              		.thumb_func
 143              		.fpu fpv4-sp-d16
 145              	USBD_SOF:
 146              	.LVL6:
 147              	.LFB135:
 392:USB/core/usbd_core.c **** 
 393:USB/core/usbd_core.c **** 
 394:USB/core/usbd_core.c **** /**
 395:USB/core/usbd_core.c **** * @brief  USBD_SOF 
 396:USB/core/usbd_core.c **** *         Handle SOF event
 397:USB/core/usbd_core.c **** * @param  pdev: device instance
 398:USB/core/usbd_core.c **** * @retval status
 399:USB/core/usbd_core.c **** */
 400:USB/core/usbd_core.c **** 
 401:USB/core/usbd_core.c **** static uint8_t USBD_SOF(USB_OTG_CORE_HANDLE  *pdev)
 402:USB/core/usbd_core.c **** {
 148              		.loc 1 402 1 is_stmt 1 view -0
 149              		.cfi_startproc
 150              		@ args = 0, pretend = 0, frame = 0
 151              		@ frame_needed = 0, uses_anonymous_args = 0
 152              		.loc 1 402 1 is_stmt 0 view .LVU31
 153 0000 08B5     		push	{r3, lr}
 154              	.LCFI2:
 155              		.cfi_def_cfa_offset 8
 156              		.cfi_offset 3, -8
 157              		.cfi_offset 14, -4
 403:USB/core/usbd_core.c ****   if(pdev->dev.class_cb->SOF)
 158              		.loc 1 403 3 is_stmt 1 view .LVU32
 159              		.loc 1 403 15 is_stmt 0 view .LVU33
 160 0002 D0F8E435 		ldr	r3, [r0, #1508]
 161              		.loc 1 403 24 view .LVU34
 162 0006 DB69     		ldr	r3, [r3, #28]
 163              		.loc 1 403 5 view .LVU35
 164 0008 03B1     		cbz	r3, .L9
 404:USB/core/usbd_core.c ****   {
 405:USB/core/usbd_core.c ****     pdev->dev.class_cb->SOF(pdev); 
 165              		.loc 1 405 5 is_stmt 1 view .LVU36
 166 000a 9847     		blx	r3
 167              	.LVL7:
 168              	.L9:
 406:USB/core/usbd_core.c ****   }
 407:USB/core/usbd_core.c ****   return USBD_OK;
 169              		.loc 1 407 3 view .LVU37
 408:USB/core/usbd_core.c **** }
ARM GAS  /tmp/ccNUbZb9.s 			page 11


 170              		.loc 1 408 1 is_stmt 0 view .LVU38
 171 000c 0020     		movs	r0, #0
 172 000e 08BD     		pop	{r3, pc}
 173              		.cfi_endproc
 174              	.LFE135:
 176              		.section	.text.USBD_IsoINIncomplete,"ax",%progbits
 177              		.align	1
 178              		.syntax unified
 179              		.thumb
 180              		.thumb_func
 181              		.fpu fpv4-sp-d16
 183              	USBD_IsoINIncomplete:
 184              	.LVL8:
 185              	.LFB138:
 409:USB/core/usbd_core.c **** /**
 410:USB/core/usbd_core.c **** * @brief  USBD_SetCfg 
 411:USB/core/usbd_core.c **** *        Configure device and start the interface
 412:USB/core/usbd_core.c **** * @param  pdev: device instance
 413:USB/core/usbd_core.c **** * @param  cfgidx: configuration index
 414:USB/core/usbd_core.c **** * @retval status
 415:USB/core/usbd_core.c **** */
 416:USB/core/usbd_core.c **** 
 417:USB/core/usbd_core.c **** USBD_Status USBD_SetCfg(USB_OTG_CORE_HANDLE  *pdev, uint8_t cfgidx)
 418:USB/core/usbd_core.c **** {
 419:USB/core/usbd_core.c ****   pdev->dev.class_cb->Init(pdev, cfgidx); 
 420:USB/core/usbd_core.c ****   
 421:USB/core/usbd_core.c ****   /* Upon set config call usr call back */
 422:USB/core/usbd_core.c ****   pdev->dev.usr_cb->DeviceConfigured();
 423:USB/core/usbd_core.c ****   return USBD_OK; 
 424:USB/core/usbd_core.c **** }
 425:USB/core/usbd_core.c **** 
 426:USB/core/usbd_core.c **** /**
 427:USB/core/usbd_core.c **** * @brief  USBD_ClrCfg 
 428:USB/core/usbd_core.c **** *         Clear current configuration
 429:USB/core/usbd_core.c **** * @param  pdev: device instance
 430:USB/core/usbd_core.c **** * @param  cfgidx: configuration index
 431:USB/core/usbd_core.c **** * @retval status: USBD_Status
 432:USB/core/usbd_core.c **** */
 433:USB/core/usbd_core.c **** USBD_Status USBD_ClrCfg(USB_OTG_CORE_HANDLE  *pdev, uint8_t cfgidx)
 434:USB/core/usbd_core.c **** {
 435:USB/core/usbd_core.c ****   pdev->dev.class_cb->DeInit(pdev, cfgidx);   
 436:USB/core/usbd_core.c ****   return USBD_OK;
 437:USB/core/usbd_core.c **** }
 438:USB/core/usbd_core.c **** 
 439:USB/core/usbd_core.c **** /**
 440:USB/core/usbd_core.c **** * @brief  USBD_IsoINIncomplete 
 441:USB/core/usbd_core.c **** *         Handle iso in incomplete event
 442:USB/core/usbd_core.c **** * @param  pdev: device instance
 443:USB/core/usbd_core.c **** * @retval status
 444:USB/core/usbd_core.c **** */
 445:USB/core/usbd_core.c **** static uint8_t USBD_IsoINIncomplete(USB_OTG_CORE_HANDLE  *pdev)
 446:USB/core/usbd_core.c **** {
 186              		.loc 1 446 1 is_stmt 1 view -0
 187              		.cfi_startproc
 188              		@ args = 0, pretend = 0, frame = 0
 189              		@ frame_needed = 0, uses_anonymous_args = 0
 190              		.loc 1 446 1 is_stmt 0 view .LVU40
ARM GAS  /tmp/ccNUbZb9.s 			page 12


 191 0000 08B5     		push	{r3, lr}
 192              	.LCFI3:
 193              		.cfi_def_cfa_offset 8
 194              		.cfi_offset 3, -8
 195              		.cfi_offset 14, -4
 447:USB/core/usbd_core.c ****   pdev->dev.class_cb->IsoINIncomplete(pdev);   
 196              		.loc 1 447 3 is_stmt 1 view .LVU41
 197              		.loc 1 447 12 is_stmt 0 view .LVU42
 198 0002 D0F8E435 		ldr	r3, [r0, #1508]
 199              		.loc 1 447 21 view .LVU43
 200 0006 1B6A     		ldr	r3, [r3, #32]
 201              		.loc 1 447 3 view .LVU44
 202 0008 9847     		blx	r3
 203              	.LVL9:
 448:USB/core/usbd_core.c ****   return USBD_OK;
 204              		.loc 1 448 3 is_stmt 1 view .LVU45
 449:USB/core/usbd_core.c **** }
 205              		.loc 1 449 1 is_stmt 0 view .LVU46
 206 000a 0020     		movs	r0, #0
 207 000c 08BD     		pop	{r3, pc}
 208              		.cfi_endproc
 209              	.LFE138:
 211              		.section	.text.USBD_IsoOUTIncomplete,"ax",%progbits
 212              		.align	1
 213              		.syntax unified
 214              		.thumb
 215              		.thumb_func
 216              		.fpu fpv4-sp-d16
 218              	USBD_IsoOUTIncomplete:
 219              	.LVL10:
 220              	.LFB139:
 450:USB/core/usbd_core.c **** 
 451:USB/core/usbd_core.c **** /**
 452:USB/core/usbd_core.c **** * @brief  USBD_IsoOUTIncomplete 
 453:USB/core/usbd_core.c **** *         Handle iso out incomplete event
 454:USB/core/usbd_core.c **** * @param  pdev: device instance
 455:USB/core/usbd_core.c **** * @retval status
 456:USB/core/usbd_core.c **** */
 457:USB/core/usbd_core.c **** static uint8_t USBD_IsoOUTIncomplete(USB_OTG_CORE_HANDLE  *pdev)
 458:USB/core/usbd_core.c **** {
 221              		.loc 1 458 1 is_stmt 1 view -0
 222              		.cfi_startproc
 223              		@ args = 0, pretend = 0, frame = 0
 224              		@ frame_needed = 0, uses_anonymous_args = 0
 225              		.loc 1 458 1 is_stmt 0 view .LVU48
 226 0000 08B5     		push	{r3, lr}
 227              	.LCFI4:
 228              		.cfi_def_cfa_offset 8
 229              		.cfi_offset 3, -8
 230              		.cfi_offset 14, -4
 459:USB/core/usbd_core.c ****   pdev->dev.class_cb->IsoOUTIncomplete(pdev);   
 231              		.loc 1 459 3 is_stmt 1 view .LVU49
 232              		.loc 1 459 12 is_stmt 0 view .LVU50
 233 0002 D0F8E435 		ldr	r3, [r0, #1508]
 234              		.loc 1 459 21 view .LVU51
 235 0006 5B6A     		ldr	r3, [r3, #36]
 236              		.loc 1 459 3 view .LVU52
ARM GAS  /tmp/ccNUbZb9.s 			page 13


 237 0008 9847     		blx	r3
 238              	.LVL11:
 460:USB/core/usbd_core.c ****   return USBD_OK;
 239              		.loc 1 460 3 is_stmt 1 view .LVU53
 461:USB/core/usbd_core.c **** }
 240              		.loc 1 461 1 is_stmt 0 view .LVU54
 241 000a 0020     		movs	r0, #0
 242 000c 08BD     		pop	{r3, pc}
 243              		.cfi_endproc
 244              	.LFE139:
 246              		.section	.text.USBD_Reset,"ax",%progbits
 247              		.align	1
 248              		.syntax unified
 249              		.thumb
 250              		.thumb_func
 251              		.fpu fpv4-sp-d16
 253              	USBD_Reset:
 254              	.LVL12:
 255              	.LFB132:
 340:USB/core/usbd_core.c ****   /* Open EP0 OUT */
 256              		.loc 1 340 1 is_stmt 1 view -0
 257              		.cfi_startproc
 258              		@ args = 0, pretend = 0, frame = 0
 259              		@ frame_needed = 0, uses_anonymous_args = 0
 340:USB/core/usbd_core.c ****   /* Open EP0 OUT */
 260              		.loc 1 340 1 is_stmt 0 view .LVU56
 261 0000 10B5     		push	{r4, lr}
 262              	.LCFI5:
 263              		.cfi_def_cfa_offset 8
 264              		.cfi_offset 4, -8
 265              		.cfi_offset 14, -4
 266 0002 0446     		mov	r4, r0
 342:USB/core/usbd_core.c ****               0x00,
 267              		.loc 1 342 3 is_stmt 1 view .LVU57
 268 0004 0023     		movs	r3, #0
 269 0006 4022     		movs	r2, #64
 270 0008 1946     		mov	r1, r3
 271 000a FFF7FEFF 		bl	DCD_EP_Open
 272              	.LVL13:
 348:USB/core/usbd_core.c ****               0x80,
 273              		.loc 1 348 3 view .LVU58
 274 000e 0023     		movs	r3, #0
 275 0010 4022     		movs	r2, #64
 276 0012 8021     		movs	r1, #128
 277 0014 2046     		mov	r0, r4
 278 0016 FFF7FEFF 		bl	DCD_EP_Open
 279              	.LVL14:
 354:USB/core/usbd_core.c ****   pdev->dev.usr_cb->DeviceReset(pdev->cfg.speed);
 280              		.loc 1 354 3 view .LVU59
 354:USB/core/usbd_core.c ****   pdev->dev.usr_cb->DeviceReset(pdev->cfg.speed);
 281              		.loc 1 354 27 is_stmt 0 view .LVU60
 282 001a 0123     		movs	r3, #1
 283 001c 84F81231 		strb	r3, [r4, #274]
 355:USB/core/usbd_core.c ****   
 284              		.loc 1 355 3 is_stmt 1 view .LVU61
 355:USB/core/usbd_core.c ****   
 285              		.loc 1 355 12 is_stmt 0 view .LVU62
ARM GAS  /tmp/ccNUbZb9.s 			page 14


 286 0020 D4F8E835 		ldr	r3, [r4, #1512]
 355:USB/core/usbd_core.c ****   
 287              		.loc 1 355 19 view .LVU63
 288 0024 5B68     		ldr	r3, [r3, #4]
 355:USB/core/usbd_core.c ****   
 289              		.loc 1 355 3 view .LVU64
 290 0026 A078     		ldrb	r0, [r4, #2]	@ zero_extendqisi2
 291 0028 9847     		blx	r3
 292              	.LVL15:
 357:USB/core/usbd_core.c **** }
 293              		.loc 1 357 3 is_stmt 1 view .LVU65
 358:USB/core/usbd_core.c **** 
 294              		.loc 1 358 1 is_stmt 0 view .LVU66
 295 002a 0020     		movs	r0, #0
 296 002c 10BD     		pop	{r4, pc}
 358:USB/core/usbd_core.c **** 
 297              		.loc 1 358 1 view .LVU67
 298              		.cfi_endproc
 299              	.LFE132:
 301              		.section	.text.USBD_SetupStage,"ax",%progbits
 302              		.align	1
 303              		.syntax unified
 304              		.thumb
 305              		.thumb_func
 306              		.fpu fpv4-sp-d16
 308              	USBD_SetupStage:
 309              	.LVL16:
 310              	.LFB128:
 180:USB/core/usbd_core.c ****   USB_SETUP_REQ req;
 311              		.loc 1 180 1 is_stmt 1 view -0
 312              		.cfi_startproc
 313              		@ args = 0, pretend = 0, frame = 8
 314              		@ frame_needed = 0, uses_anonymous_args = 0
 180:USB/core/usbd_core.c ****   USB_SETUP_REQ req;
 315              		.loc 1 180 1 is_stmt 0 view .LVU69
 316 0000 10B5     		push	{r4, lr}
 317              	.LCFI6:
 318              		.cfi_def_cfa_offset 8
 319              		.cfi_offset 4, -8
 320              		.cfi_offset 14, -4
 321 0002 82B0     		sub	sp, sp, #8
 322              	.LCFI7:
 323              		.cfi_def_cfa_offset 16
 324 0004 0446     		mov	r4, r0
 181:USB/core/usbd_core.c ****   
 325              		.loc 1 181 3 is_stmt 1 view .LVU70
 183:USB/core/usbd_core.c ****   
 326              		.loc 1 183 3 view .LVU71
 327 0006 6946     		mov	r1, sp
 328 0008 FFF7FEFF 		bl	USBD_ParseSetupRequest
 329              	.LVL17:
 185:USB/core/usbd_core.c ****   {
 330              		.loc 1 185 3 view .LVU72
 185:USB/core/usbd_core.c ****   {
 331              		.loc 1 185 14 is_stmt 0 view .LVU73
 332 000c 9DF80010 		ldrb	r1, [sp]	@ zero_extendqisi2
 333 0010 01F01F03 		and	r3, r1, #31
ARM GAS  /tmp/ccNUbZb9.s 			page 15


 185:USB/core/usbd_core.c ****   {
 334              		.loc 1 185 3 view .LVU74
 335 0014 012B     		cmp	r3, #1
 336 0016 10D0     		beq	.L18
 337 0018 5AB2     		sxtb	r2, r3
 338 001a 3AB1     		cbz	r2, .L19
 339 001c 022B     		cmp	r3, #2
 340 001e 11D0     		beq	.L20
 200:USB/core/usbd_core.c ****     break;
 341              		.loc 1 200 5 is_stmt 1 view .LVU75
 342 0020 01F08001 		and	r1, r1, #128
 343 0024 2046     		mov	r0, r4
 344 0026 FFF7FEFF 		bl	DCD_EP_Stall
 345              	.LVL18:
 201:USB/core/usbd_core.c ****   }  
 346              		.loc 1 201 5 view .LVU76
 347 002a 03E0     		b	.L22
 348              	.L19:
 188:USB/core/usbd_core.c ****     break;
 349              		.loc 1 188 5 view .LVU77
 350 002c 6946     		mov	r1, sp
 351 002e 2046     		mov	r0, r4
 352 0030 FFF7FEFF 		bl	USBD_StdDevReq
 353              	.LVL19:
 189:USB/core/usbd_core.c ****     
 354              		.loc 1 189 5 view .LVU78
 355              	.L22:
 203:USB/core/usbd_core.c **** }
 356              		.loc 1 203 3 view .LVU79
 204:USB/core/usbd_core.c **** 
 357              		.loc 1 204 1 is_stmt 0 view .LVU80
 358 0034 0020     		movs	r0, #0
 359 0036 02B0     		add	sp, sp, #8
 360              	.LCFI8:
 361              		.cfi_remember_state
 362              		.cfi_def_cfa_offset 8
 363              		@ sp needed
 364 0038 10BD     		pop	{r4, pc}
 365              	.LVL20:
 366              	.L18:
 367              	.LCFI9:
 368              		.cfi_restore_state
 192:USB/core/usbd_core.c ****     break;
 369              		.loc 1 192 5 is_stmt 1 view .LVU81
 370 003a 6946     		mov	r1, sp
 371 003c 2046     		mov	r0, r4
 372 003e FFF7FEFF 		bl	USBD_StdItfReq
 373              	.LVL21:
 193:USB/core/usbd_core.c ****     
 374              		.loc 1 193 5 view .LVU82
 375 0042 F7E7     		b	.L22
 376              	.L20:
 196:USB/core/usbd_core.c ****     break;
 377              		.loc 1 196 5 view .LVU83
 378 0044 6946     		mov	r1, sp
 379 0046 2046     		mov	r0, r4
 380 0048 FFF7FEFF 		bl	USBD_StdEPReq
ARM GAS  /tmp/ccNUbZb9.s 			page 16


 381              	.LVL22:
 197:USB/core/usbd_core.c ****     
 382              		.loc 1 197 5 view .LVU84
 383 004c F2E7     		b	.L22
 384              		.cfi_endproc
 385              	.LFE128:
 387              		.section	.text.USBD_DataInStage,"ax",%progbits
 388              		.align	1
 389              		.syntax unified
 390              		.thumb
 391              		.thumb_func
 392              		.fpu fpv4-sp-d16
 394              	USBD_DataInStage:
 395              	.LVL23:
 396              	.LFB130:
 262:USB/core/usbd_core.c ****   USB_OTG_EP *ep;
 397              		.loc 1 262 1 view -0
 398              		.cfi_startproc
 399              		@ args = 0, pretend = 0, frame = 0
 400              		@ frame_needed = 0, uses_anonymous_args = 0
 262:USB/core/usbd_core.c ****   USB_OTG_EP *ep;
 401              		.loc 1 262 1 is_stmt 0 view .LVU86
 402 0000 10B5     		push	{r4, lr}
 403              	.LCFI10:
 404              		.cfi_def_cfa_offset 8
 405              		.cfi_offset 4, -8
 406              		.cfi_offset 14, -4
 407 0002 0446     		mov	r4, r0
 263:USB/core/usbd_core.c ****   
 408              		.loc 1 263 3 is_stmt 1 view .LVU87
 265:USB/core/usbd_core.c ****   {
 409              		.loc 1 265 3 view .LVU88
 265:USB/core/usbd_core.c ****   {
 410              		.loc 1 265 5 is_stmt 0 view .LVU89
 411 0004 0029     		cmp	r1, #0
 412 0006 4CD1     		bne	.L26
 267:USB/core/usbd_core.c ****     if ( pdev->dev.device_state == USB_OTG_EP0_DATA_IN)
 413              		.loc 1 267 5 is_stmt 1 view .LVU90
 414              	.LVL24:
 268:USB/core/usbd_core.c ****     {
 415              		.loc 1 268 5 view .LVU91
 268:USB/core/usbd_core.c ****     {
 416              		.loc 1 268 19 is_stmt 0 view .LVU92
 417 0008 90F81131 		ldrb	r3, [r0, #273]	@ zero_extendqisi2
 268:USB/core/usbd_core.c ****     {
 418              		.loc 1 268 8 view .LVU93
 419 000c 022B     		cmp	r3, #2
 420 000e 05D0     		beq	.L34
 421              	.LVL25:
 422              	.L27:
 303:USB/core/usbd_core.c ****     {
 423              		.loc 1 303 5 is_stmt 1 view .LVU94
 303:USB/core/usbd_core.c ****     {
 424              		.loc 1 303 18 is_stmt 0 view .LVU95
 425 0010 94F81631 		ldrb	r3, [r4, #278]	@ zero_extendqisi2
 303:USB/core/usbd_core.c ****     {
 426              		.loc 1 303 8 view .LVU96
ARM GAS  /tmp/ccNUbZb9.s 			page 17


 427 0014 012B     		cmp	r3, #1
 428 0016 3DD0     		beq	.L35
 429              	.LVL26:
 430              	.L32:
 314:USB/core/usbd_core.c **** }
 431              		.loc 1 314 3 is_stmt 1 view .LVU97
 315:USB/core/usbd_core.c **** 
 432              		.loc 1 315 1 is_stmt 0 view .LVU98
 433 0018 0020     		movs	r0, #0
 434 001a 10BD     		pop	{r4, pc}
 435              	.LVL27:
 436              	.L34:
 270:USB/core/usbd_core.c ****       {
 437              		.loc 1 270 7 is_stmt 1 view .LVU99
 270:USB/core/usbd_core.c ****       {
 438              		.loc 1 270 12 is_stmt 0 view .LVU100
 439 001c D0F83821 		ldr	r2, [r0, #312]
 270:USB/core/usbd_core.c ****       {
 440              		.loc 1 270 31 view .LVU101
 441 0020 D0F82431 		ldr	r3, [r0, #292]
 270:USB/core/usbd_core.c ****       {
 442              		.loc 1 270 9 view .LVU102
 443 0024 9A42     		cmp	r2, r3
 444 0026 12D9     		bls	.L28
 272:USB/core/usbd_core.c ****         if(pdev->cfg.dma_enable == 1)
 445              		.loc 1 272 9 is_stmt 1 view .LVU103
 272:USB/core/usbd_core.c ****         if(pdev->cfg.dma_enable == 1)
 446              		.loc 1 272 26 is_stmt 0 view .LVU104
 447 0028 D21A     		subs	r2, r2, r3
 448 002a C0F83821 		str	r2, [r0, #312]
 273:USB/core/usbd_core.c ****         {
 449              		.loc 1 273 9 is_stmt 1 view .LVU105
 273:USB/core/usbd_core.c ****         {
 450              		.loc 1 273 21 is_stmt 0 view .LVU106
 451 002e C178     		ldrb	r1, [r0, #3]	@ zero_extendqisi2
 452              	.LVL28:
 273:USB/core/usbd_core.c ****         {
 453              		.loc 1 273 11 view .LVU107
 454 0030 0129     		cmp	r1, #1
 455 0032 06D0     		beq	.L36
 456              	.L29:
 278:USB/core/usbd_core.c ****                                   ep->xfer_buff, 
 457              		.loc 1 278 9 is_stmt 1 view .LVU108
 458 0034 92B2     		uxth	r2, r2
 459 0036 D4F82811 		ldr	r1, [r4, #296]
 460 003a 2046     		mov	r0, r4
 461              	.LVL29:
 278:USB/core/usbd_core.c ****                                   ep->xfer_buff, 
 462              		.loc 1 278 9 is_stmt 0 view .LVU109
 463 003c FFF7FEFF 		bl	USBD_CtlContinueSendData
 464              	.LVL30:
 465 0040 E6E7     		b	.L27
 466              	.LVL31:
 467              	.L36:
 276:USB/core/usbd_core.c ****         }
 468              		.loc 1 276 11 is_stmt 1 view .LVU110
 276:USB/core/usbd_core.c ****         }
ARM GAS  /tmp/ccNUbZb9.s 			page 18


 469              		.loc 1 276 25 is_stmt 0 view .LVU111
 470 0042 D0F82811 		ldr	r1, [r0, #296]
 471 0046 0B44     		add	r3, r3, r1
 472 0048 C0F82831 		str	r3, [r0, #296]
 473 004c F2E7     		b	.L29
 474              	.LVL32:
 475              	.L28:
 284:USB/core/usbd_core.c ****            (ep->total_data_len >= ep->maxpacket) &&
 476              		.loc 1 284 9 is_stmt 1 view .LVU112
 284:USB/core/usbd_core.c ****            (ep->total_data_len >= ep->maxpacket) &&
 477              		.loc 1 284 15 is_stmt 0 view .LVU113
 478 004e D0F83C11 		ldr	r1, [r0, #316]
 479              	.LVL33:
 284:USB/core/usbd_core.c ****            (ep->total_data_len >= ep->maxpacket) &&
 480              		.loc 1 284 32 view .LVU114
 481 0052 B1FBF3F2 		udiv	r2, r1, r3
 482 0056 03FB1212 		mls	r2, r3, r2, r1
 284:USB/core/usbd_core.c ****            (ep->total_data_len >= ep->maxpacket) &&
 483              		.loc 1 284 11 view .LVU115
 484 005a 2AB9     		cbnz	r2, .L30
 284:USB/core/usbd_core.c ****            (ep->total_data_len >= ep->maxpacket) &&
 485              		.loc 1 284 54 discriminator 1 view .LVU116
 486 005c 8B42     		cmp	r3, r1
 487 005e 03D8     		bhi	.L30
 286:USB/core/usbd_core.c ****         {
 488              		.loc 1 286 38 view .LVU117
 489 0060 D0F84031 		ldr	r3, [r0, #320]
 285:USB/core/usbd_core.c ****              (ep->total_data_len < ep->ctl_data_len ))
 490              		.loc 1 285 50 view .LVU118
 491 0064 9942     		cmp	r1, r3
 492 0066 0BD3     		bcc	.L37
 493              	.L30:
 294:USB/core/usbd_core.c ****              (pdev->dev.device_status == USB_OTG_CONFIGURED))
 494              		.loc 1 294 11 is_stmt 1 view .LVU119
 294:USB/core/usbd_core.c ****              (pdev->dev.device_status == USB_OTG_CONFIGURED))
 495              		.loc 1 294 24 is_stmt 0 view .LVU120
 496 0068 D4F8E435 		ldr	r3, [r4, #1508]
 294:USB/core/usbd_core.c ****              (pdev->dev.device_status == USB_OTG_CONFIGURED))
 497              		.loc 1 294 33 view .LVU121
 498 006c DB68     		ldr	r3, [r3, #12]
 294:USB/core/usbd_core.c ****              (pdev->dev.device_status == USB_OTG_CONFIGURED))
 499              		.loc 1 294 13 view .LVU122
 500 006e 1BB1     		cbz	r3, .L31
 295:USB/core/usbd_core.c ****           {
 501              		.loc 1 295 24 discriminator 1 view .LVU123
 502 0070 94F81221 		ldrb	r2, [r4, #274]	@ zero_extendqisi2
 294:USB/core/usbd_core.c ****              (pdev->dev.device_status == USB_OTG_CONFIGURED))
 503              		.loc 1 294 54 discriminator 1 view .LVU124
 504 0074 032A     		cmp	r2, #3
 505 0076 0AD0     		beq	.L38
 506              	.LVL34:
 507              	.L31:
 299:USB/core/usbd_core.c ****         }
 508              		.loc 1 299 11 is_stmt 1 view .LVU125
 509 0078 2046     		mov	r0, r4
 510 007a FFF7FEFF 		bl	USBD_CtlReceiveStatus
 511              	.LVL35:
ARM GAS  /tmp/ccNUbZb9.s 			page 19


 512 007e C7E7     		b	.L27
 513              	.LVL36:
 514              	.L37:
 289:USB/core/usbd_core.c ****           ep->ctl_data_len = 0;
 515              		.loc 1 289 11 view .LVU126
 516 0080 1146     		mov	r1, r2
 517 0082 FFF7FEFF 		bl	USBD_CtlContinueSendData
 518              	.LVL37:
 290:USB/core/usbd_core.c ****         }
 519              		.loc 1 290 11 view .LVU127
 290:USB/core/usbd_core.c ****         }
 520              		.loc 1 290 28 is_stmt 0 view .LVU128
 521 0086 0023     		movs	r3, #0
 522 0088 C4F84031 		str	r3, [r4, #320]
 523 008c C0E7     		b	.L27
 524              	.LVL38:
 525              	.L38:
 297:USB/core/usbd_core.c ****           }          
 526              		.loc 1 297 13 is_stmt 1 view .LVU129
 527 008e 2046     		mov	r0, r4
 528              	.LVL39:
 297:USB/core/usbd_core.c ****           }          
 529              		.loc 1 297 13 is_stmt 0 view .LVU130
 530 0090 9847     		blx	r3
 531              	.LVL40:
 532 0092 F1E7     		b	.L31
 533              	.L35:
 305:USB/core/usbd_core.c ****       pdev->dev.test_mode = 0;
 534              		.loc 1 305 7 is_stmt 1 view .LVU131
 535 0094 2046     		mov	r0, r4
 536 0096 FFF7FEFF 		bl	USBD_RunTestMode
 537              	.LVL41:
 306:USB/core/usbd_core.c ****     }
 538              		.loc 1 306 7 view .LVU132
 306:USB/core/usbd_core.c ****     }
 539              		.loc 1 306 27 is_stmt 0 view .LVU133
 540 009a 0023     		movs	r3, #0
 541 009c 84F81631 		strb	r3, [r4, #278]
 542 00a0 BAE7     		b	.L32
 543              	.LVL42:
 544              	.L26:
 306:USB/core/usbd_core.c ****     }
 545              		.loc 1 306 27 view .LVU134
 546 00a2 0A46     		mov	r2, r1
 309:USB/core/usbd_core.c ****           (pdev->dev.device_status == USB_OTG_CONFIGURED))
 547              		.loc 1 309 8 is_stmt 1 view .LVU135
 309:USB/core/usbd_core.c ****           (pdev->dev.device_status == USB_OTG_CONFIGURED))
 548              		.loc 1 309 21 is_stmt 0 view .LVU136
 549 00a4 D0F8E435 		ldr	r3, [r0, #1508]
 309:USB/core/usbd_core.c ****           (pdev->dev.device_status == USB_OTG_CONFIGURED))
 550              		.loc 1 309 30 view .LVU137
 551 00a8 5B69     		ldr	r3, [r3, #20]
 309:USB/core/usbd_core.c ****           (pdev->dev.device_status == USB_OTG_CONFIGURED))
 552              		.loc 1 309 10 view .LVU138
 553 00aa 002B     		cmp	r3, #0
 554 00ac B4D0     		beq	.L32
 310:USB/core/usbd_core.c ****   {
ARM GAS  /tmp/ccNUbZb9.s 			page 20


 555              		.loc 1 310 21 discriminator 1 view .LVU139
 556 00ae 90F81211 		ldrb	r1, [r0, #274]	@ zero_extendqisi2
 557              	.LVL43:
 309:USB/core/usbd_core.c ****           (pdev->dev.device_status == USB_OTG_CONFIGURED))
 558              		.loc 1 309 47 discriminator 1 view .LVU140
 559 00b2 0329     		cmp	r1, #3
 560 00b4 B0D1     		bne	.L32
 312:USB/core/usbd_core.c ****   }  
 561              		.loc 1 312 5 is_stmt 1 view .LVU141
 562 00b6 1146     		mov	r1, r2
 563 00b8 9847     		blx	r3
 564              	.LVL44:
 312:USB/core/usbd_core.c ****   }  
 565              		.loc 1 312 5 is_stmt 0 view .LVU142
 566 00ba ADE7     		b	.L32
 567              		.cfi_endproc
 568              	.LFE130:
 570              		.section	.text.USBD_DataOutStage,"ax",%progbits
 571              		.align	1
 572              		.syntax unified
 573              		.thumb
 574              		.thumb_func
 575              		.fpu fpv4-sp-d16
 577              	USBD_DataOutStage:
 578              	.LVL45:
 579              	.LFB129:
 214:USB/core/usbd_core.c ****   USB_OTG_EP *ep;
 580              		.loc 1 214 1 is_stmt 1 view -0
 581              		.cfi_startproc
 582              		@ args = 0, pretend = 0, frame = 0
 583              		@ frame_needed = 0, uses_anonymous_args = 0
 214:USB/core/usbd_core.c ****   USB_OTG_EP *ep;
 584              		.loc 1 214 1 is_stmt 0 view .LVU144
 585 0000 10B5     		push	{r4, lr}
 586              	.LCFI11:
 587              		.cfi_def_cfa_offset 8
 588              		.cfi_offset 4, -8
 589              		.cfi_offset 14, -4
 590 0002 0446     		mov	r4, r0
 215:USB/core/usbd_core.c ****   
 591              		.loc 1 215 3 is_stmt 1 view .LVU145
 217:USB/core/usbd_core.c ****   {
 592              		.loc 1 217 3 view .LVU146
 217:USB/core/usbd_core.c ****   {
 593              		.loc 1 217 5 is_stmt 0 view .LVU147
 594 0004 79BB     		cbnz	r1, .L40
 219:USB/core/usbd_core.c ****     if ( pdev->dev.device_state == USB_OTG_EP0_DATA_OUT)
 595              		.loc 1 219 5 is_stmt 1 view .LVU148
 596              	.LVL46:
 220:USB/core/usbd_core.c ****     {
 597              		.loc 1 220 5 view .LVU149
 220:USB/core/usbd_core.c ****     {
 598              		.loc 1 220 19 is_stmt 0 view .LVU150
 599 0006 90F81131 		ldrb	r3, [r0, #273]	@ zero_extendqisi2
 220:USB/core/usbd_core.c ****     {
 600              		.loc 1 220 8 view .LVU151
 601 000a 032B     		cmp	r3, #3
ARM GAS  /tmp/ccNUbZb9.s 			page 21


 602 000c 01D0     		beq	.L46
 603              	.LVL47:
 604              	.L41:
 251:USB/core/usbd_core.c **** }
 605              		.loc 1 251 3 is_stmt 1 view .LVU152
 252:USB/core/usbd_core.c **** 
 606              		.loc 1 252 1 is_stmt 0 view .LVU153
 607 000e 0020     		movs	r0, #0
 608 0010 10BD     		pop	{r4, pc}
 609              	.LVL48:
 610              	.L46:
 222:USB/core/usbd_core.c ****       {
 611              		.loc 1 222 7 is_stmt 1 view .LVU154
 222:USB/core/usbd_core.c ****       {
 612              		.loc 1 222 12 is_stmt 0 view .LVU155
 613 0012 D0F89033 		ldr	r3, [r0, #912]
 222:USB/core/usbd_core.c ****       {
 614              		.loc 1 222 31 view .LVU156
 615 0016 D0F87C23 		ldr	r2, [r0, #892]
 222:USB/core/usbd_core.c ****       {
 616              		.loc 1 222 9 view .LVU157
 617 001a 9342     		cmp	r3, r2
 618 001c 15D9     		bls	.L42
 224:USB/core/usbd_core.c ****         
 619              		.loc 1 224 9 is_stmt 1 view .LVU158
 224:USB/core/usbd_core.c ****         
 620              		.loc 1 224 26 is_stmt 0 view .LVU159
 621 001e 9B1A     		subs	r3, r3, r2
 622 0020 C0F89033 		str	r3, [r0, #912]
 226:USB/core/usbd_core.c ****         {
 623              		.loc 1 226 9 is_stmt 1 view .LVU160
 226:USB/core/usbd_core.c ****         {
 624              		.loc 1 226 21 is_stmt 0 view .LVU161
 625 0024 C178     		ldrb	r1, [r0, #3]	@ zero_extendqisi2
 626              	.LVL49:
 226:USB/core/usbd_core.c ****         {
 627              		.loc 1 226 11 view .LVU162
 628 0026 0129     		cmp	r1, #1
 629 0028 09D0     		beq	.L47
 630              	.L43:
 231:USB/core/usbd_core.c ****                             ep->xfer_buff,
 631              		.loc 1 231 9 is_stmt 1 view .LVU163
 233:USB/core/usbd_core.c ****       }
 632              		.loc 1 233 29 is_stmt 0 view .LVU164
 633 002a 9A42     		cmp	r2, r3
 634 002c 28BF     		it	cs
 635 002e 1A46     		movcs	r2, r3
 231:USB/core/usbd_core.c ****                             ep->xfer_buff,
 636              		.loc 1 231 9 view .LVU165
 637 0030 92B2     		uxth	r2, r2
 638 0032 D4F88013 		ldr	r1, [r4, #896]
 639 0036 2046     		mov	r0, r4
 640              	.LVL50:
 231:USB/core/usbd_core.c ****                             ep->xfer_buff,
 641              		.loc 1 231 9 view .LVU166
 642 0038 FFF7FEFF 		bl	USBD_CtlContinueRx
 643              	.LVL51:
ARM GAS  /tmp/ccNUbZb9.s 			page 22


 644 003c E7E7     		b	.L41
 645              	.LVL52:
 646              	.L47:
 229:USB/core/usbd_core.c ****         }        
 647              		.loc 1 229 11 is_stmt 1 view .LVU167
 229:USB/core/usbd_core.c ****         }        
 648              		.loc 1 229 25 is_stmt 0 view .LVU168
 649 003e D0F88013 		ldr	r1, [r0, #896]
 650 0042 1144     		add	r1, r1, r2
 651 0044 C0F88013 		str	r1, [r0, #896]
 652 0048 EFE7     		b	.L43
 653              	.LVL53:
 654              	.L42:
 237:USB/core/usbd_core.c ****            (pdev->dev.device_status == USB_OTG_CONFIGURED))
 655              		.loc 1 237 9 is_stmt 1 view .LVU169
 237:USB/core/usbd_core.c ****            (pdev->dev.device_status == USB_OTG_CONFIGURED))
 656              		.loc 1 237 22 is_stmt 0 view .LVU170
 657 004a D0F8E435 		ldr	r3, [r0, #1508]
 237:USB/core/usbd_core.c ****            (pdev->dev.device_status == USB_OTG_CONFIGURED))
 658              		.loc 1 237 31 view .LVU171
 659 004e 1B69     		ldr	r3, [r3, #16]
 237:USB/core/usbd_core.c ****            (pdev->dev.device_status == USB_OTG_CONFIGURED))
 660              		.loc 1 237 11 view .LVU172
 661 0050 1BB1     		cbz	r3, .L44
 238:USB/core/usbd_core.c ****         {
 662              		.loc 1 238 22 discriminator 1 view .LVU173
 663 0052 90F81221 		ldrb	r2, [r0, #274]	@ zero_extendqisi2
 237:USB/core/usbd_core.c ****            (pdev->dev.device_status == USB_OTG_CONFIGURED))
 664              		.loc 1 237 53 discriminator 1 view .LVU174
 665 0056 032A     		cmp	r2, #3
 666 0058 03D0     		beq	.L48
 667              	.LVL54:
 668              	.L44:
 242:USB/core/usbd_core.c ****       }
 669              		.loc 1 242 9 is_stmt 1 view .LVU175
 670 005a 2046     		mov	r0, r4
 671 005c FFF7FEFF 		bl	USBD_CtlSendStatus
 672              	.LVL55:
 673 0060 D5E7     		b	.L41
 674              	.LVL56:
 675              	.L48:
 240:USB/core/usbd_core.c ****         }
 676              		.loc 1 240 11 view .LVU176
 677 0062 9847     		blx	r3
 678              	.LVL57:
 240:USB/core/usbd_core.c ****         }
 679              		.loc 1 240 11 is_stmt 0 view .LVU177
 680 0064 F9E7     		b	.L44
 681              	.LVL58:
 682              	.L40:
 240:USB/core/usbd_core.c ****         }
 683              		.loc 1 240 11 view .LVU178
 684 0066 0A46     		mov	r2, r1
 246:USB/core/usbd_core.c ****           (pdev->dev.device_status == USB_OTG_CONFIGURED))
 685              		.loc 1 246 8 is_stmt 1 view .LVU179
 246:USB/core/usbd_core.c ****           (pdev->dev.device_status == USB_OTG_CONFIGURED))
 686              		.loc 1 246 21 is_stmt 0 view .LVU180
ARM GAS  /tmp/ccNUbZb9.s 			page 23


 687 0068 D0F8E435 		ldr	r3, [r0, #1508]
 246:USB/core/usbd_core.c ****           (pdev->dev.device_status == USB_OTG_CONFIGURED))
 688              		.loc 1 246 30 view .LVU181
 689 006c 9B69     		ldr	r3, [r3, #24]
 246:USB/core/usbd_core.c ****           (pdev->dev.device_status == USB_OTG_CONFIGURED))
 690              		.loc 1 246 10 view .LVU182
 691 006e 002B     		cmp	r3, #0
 692 0070 CDD0     		beq	.L41
 247:USB/core/usbd_core.c ****   {
 693              		.loc 1 247 21 discriminator 1 view .LVU183
 694 0072 90F81211 		ldrb	r1, [r0, #274]	@ zero_extendqisi2
 695              	.LVL59:
 246:USB/core/usbd_core.c ****           (pdev->dev.device_status == USB_OTG_CONFIGURED))
 696              		.loc 1 246 48 discriminator 1 view .LVU184
 697 0076 0329     		cmp	r1, #3
 698 0078 C9D1     		bne	.L41
 249:USB/core/usbd_core.c ****   }  
 699              		.loc 1 249 5 is_stmt 1 view .LVU185
 700 007a 1146     		mov	r1, r2
 701 007c 9847     		blx	r3
 702              	.LVL60:
 249:USB/core/usbd_core.c ****   }  
 703              		.loc 1 249 5 is_stmt 0 view .LVU186
 704 007e C6E7     		b	.L41
 705              		.cfi_endproc
 706              	.LFE129:
 708              		.section	.text.USBD_Init,"ax",%progbits
 709              		.align	1
 710              		.global	USBD_Init
 711              		.syntax unified
 712              		.thumb
 713              		.thumb_func
 714              		.fpu fpv4-sp-d16
 716              	USBD_Init:
 717              	.LVL61:
 718              	.LFB126:
 139:USB/core/usbd_core.c ****   /* Hardware Init */
 719              		.loc 1 139 1 is_stmt 1 view -0
 720              		.cfi_startproc
 721              		@ args = 4, pretend = 0, frame = 0
 722              		@ frame_needed = 0, uses_anonymous_args = 0
 139:USB/core/usbd_core.c ****   /* Hardware Init */
 723              		.loc 1 139 1 is_stmt 0 view .LVU188
 724 0000 F8B5     		push	{r3, r4, r5, r6, r7, lr}
 725              	.LCFI12:
 726              		.cfi_def_cfa_offset 24
 727              		.cfi_offset 3, -24
 728              		.cfi_offset 4, -20
 729              		.cfi_offset 5, -16
 730              		.cfi_offset 6, -12
 731              		.cfi_offset 7, -8
 732              		.cfi_offset 14, -4
 733 0002 0446     		mov	r4, r0
 734 0004 0D46     		mov	r5, r1
 735 0006 1646     		mov	r6, r2
 736 0008 1F46     		mov	r7, r3
 141:USB/core/usbd_core.c ****   
ARM GAS  /tmp/ccNUbZb9.s 			page 24


 737              		.loc 1 141 3 is_stmt 1 view .LVU189
 738 000a FFF7FEFF 		bl	USB_OTG_BSP_Init
 739              	.LVL62:
 143:USB/core/usbd_core.c ****   
 740              		.loc 1 143 3 view .LVU190
 146:USB/core/usbd_core.c ****   pdev->dev.usr_cb = usr_cb;  
 741              		.loc 1 146 3 view .LVU191
 146:USB/core/usbd_core.c ****   pdev->dev.usr_cb = usr_cb;  
 742              		.loc 1 146 22 is_stmt 0 view .LVU192
 743 000e C4F8E475 		str	r7, [r4, #1508]
 147:USB/core/usbd_core.c ****   pdev->dev.usr_device = pDevice;    
 744              		.loc 1 147 3 is_stmt 1 view .LVU193
 147:USB/core/usbd_core.c ****   pdev->dev.usr_device = pDevice;    
 745              		.loc 1 147 20 is_stmt 0 view .LVU194
 746 0012 069B     		ldr	r3, [sp, #24]
 747 0014 C4F8E835 		str	r3, [r4, #1512]
 148:USB/core/usbd_core.c ****   
 748              		.loc 1 148 3 is_stmt 1 view .LVU195
 148:USB/core/usbd_core.c ****   
 749              		.loc 1 148 24 is_stmt 0 view .LVU196
 750 0018 C4F8EC65 		str	r6, [r4, #1516]
 151:USB/core/usbd_core.c ****   
 751              		.loc 1 151 3 is_stmt 1 view .LVU197
 752 001c 2946     		mov	r1, r5
 753 001e 2046     		mov	r0, r4
 754 0020 FFF7FEFF 		bl	DCD_Init
 755              	.LVL63:
 154:USB/core/usbd_core.c ****   
 756              		.loc 1 154 3 view .LVU198
 154:USB/core/usbd_core.c ****   
 757              		.loc 1 154 12 is_stmt 0 view .LVU199
 758 0024 D4F8E835 		ldr	r3, [r4, #1512]
 154:USB/core/usbd_core.c ****   
 759              		.loc 1 154 19 view .LVU200
 760 0028 1B68     		ldr	r3, [r3]
 154:USB/core/usbd_core.c ****   
 761              		.loc 1 154 3 view .LVU201
 762 002a 9847     		blx	r3
 763              	.LVL64:
 157:USB/core/usbd_core.c **** }
 764              		.loc 1 157 3 is_stmt 1 view .LVU202
 765 002c 2046     		mov	r0, r4
 766 002e FFF7FEFF 		bl	USB_OTG_BSP_EnableInterrupt
 767              	.LVL65:
 158:USB/core/usbd_core.c **** 
 768              		.loc 1 158 1 is_stmt 0 view .LVU203
 769 0032 F8BD     		pop	{r3, r4, r5, r6, r7, pc}
 158:USB/core/usbd_core.c **** 
 770              		.loc 1 158 1 view .LVU204
 771              		.cfi_endproc
 772              	.LFE126:
 774              		.section	.text.USBD_DeInit,"ax",%progbits
 775              		.align	1
 776              		.global	USBD_DeInit
 777              		.syntax unified
 778              		.thumb
 779              		.thumb_func
ARM GAS  /tmp/ccNUbZb9.s 			page 25


 780              		.fpu fpv4-sp-d16
 782              	USBD_DeInit:
 783              	.LVL66:
 784              	.LFB127:
 167:USB/core/usbd_core.c ****   /* Software Init */
 785              		.loc 1 167 1 is_stmt 1 view -0
 786              		.cfi_startproc
 787              		@ args = 0, pretend = 0, frame = 0
 788              		@ frame_needed = 0, uses_anonymous_args = 0
 789              		@ link register save eliminated.
 170:USB/core/usbd_core.c **** }
 790              		.loc 1 170 3 view .LVU206
 171:USB/core/usbd_core.c **** 
 791              		.loc 1 171 1 is_stmt 0 view .LVU207
 792 0000 0020     		movs	r0, #0
 793              	.LVL67:
 171:USB/core/usbd_core.c **** 
 794              		.loc 1 171 1 view .LVU208
 795 0002 7047     		bx	lr
 796              		.cfi_endproc
 797              	.LFE127:
 799              		.section	.text.USBD_SetCfg,"ax",%progbits
 800              		.align	1
 801              		.global	USBD_SetCfg
 802              		.syntax unified
 803              		.thumb
 804              		.thumb_func
 805              		.fpu fpv4-sp-d16
 807              	USBD_SetCfg:
 808              	.LVL68:
 809              	.LFB136:
 418:USB/core/usbd_core.c ****   pdev->dev.class_cb->Init(pdev, cfgidx); 
 810              		.loc 1 418 1 is_stmt 1 view -0
 811              		.cfi_startproc
 812              		@ args = 0, pretend = 0, frame = 0
 813              		@ frame_needed = 0, uses_anonymous_args = 0
 418:USB/core/usbd_core.c ****   pdev->dev.class_cb->Init(pdev, cfgidx); 
 814              		.loc 1 418 1 is_stmt 0 view .LVU210
 815 0000 10B5     		push	{r4, lr}
 816              	.LCFI13:
 817              		.cfi_def_cfa_offset 8
 818              		.cfi_offset 4, -8
 819              		.cfi_offset 14, -4
 820 0002 0446     		mov	r4, r0
 419:USB/core/usbd_core.c ****   
 821              		.loc 1 419 3 is_stmt 1 view .LVU211
 419:USB/core/usbd_core.c ****   
 822              		.loc 1 419 12 is_stmt 0 view .LVU212
 823 0004 D0F8E435 		ldr	r3, [r0, #1508]
 419:USB/core/usbd_core.c ****   
 824              		.loc 1 419 21 view .LVU213
 825 0008 1B68     		ldr	r3, [r3]
 419:USB/core/usbd_core.c ****   
 826              		.loc 1 419 3 view .LVU214
 827 000a 9847     		blx	r3
 828              	.LVL69:
 422:USB/core/usbd_core.c ****   return USBD_OK; 
ARM GAS  /tmp/ccNUbZb9.s 			page 26


 829              		.loc 1 422 3 is_stmt 1 view .LVU215
 422:USB/core/usbd_core.c ****   return USBD_OK; 
 830              		.loc 1 422 12 is_stmt 0 view .LVU216
 831 000c D4F8E835 		ldr	r3, [r4, #1512]
 422:USB/core/usbd_core.c ****   return USBD_OK; 
 832              		.loc 1 422 19 view .LVU217
 833 0010 9B68     		ldr	r3, [r3, #8]
 422:USB/core/usbd_core.c ****   return USBD_OK; 
 834              		.loc 1 422 3 view .LVU218
 835 0012 9847     		blx	r3
 836              	.LVL70:
 423:USB/core/usbd_core.c **** }
 837              		.loc 1 423 3 is_stmt 1 view .LVU219
 424:USB/core/usbd_core.c **** 
 838              		.loc 1 424 1 is_stmt 0 view .LVU220
 839 0014 0020     		movs	r0, #0
 840 0016 10BD     		pop	{r4, pc}
 424:USB/core/usbd_core.c **** 
 841              		.loc 1 424 1 view .LVU221
 842              		.cfi_endproc
 843              	.LFE136:
 845              		.section	.text.USBD_ClrCfg,"ax",%progbits
 846              		.align	1
 847              		.global	USBD_ClrCfg
 848              		.syntax unified
 849              		.thumb
 850              		.thumb_func
 851              		.fpu fpv4-sp-d16
 853              	USBD_ClrCfg:
 854              	.LVL71:
 855              	.LFB137:
 434:USB/core/usbd_core.c ****   pdev->dev.class_cb->DeInit(pdev, cfgidx);   
 856              		.loc 1 434 1 is_stmt 1 view -0
 857              		.cfi_startproc
 858              		@ args = 0, pretend = 0, frame = 0
 859              		@ frame_needed = 0, uses_anonymous_args = 0
 434:USB/core/usbd_core.c ****   pdev->dev.class_cb->DeInit(pdev, cfgidx);   
 860              		.loc 1 434 1 is_stmt 0 view .LVU223
 861 0000 08B5     		push	{r3, lr}
 862              	.LCFI14:
 863              		.cfi_def_cfa_offset 8
 864              		.cfi_offset 3, -8
 865              		.cfi_offset 14, -4
 435:USB/core/usbd_core.c ****   return USBD_OK;
 866              		.loc 1 435 3 is_stmt 1 view .LVU224
 435:USB/core/usbd_core.c ****   return USBD_OK;
 867              		.loc 1 435 12 is_stmt 0 view .LVU225
 868 0002 D0F8E435 		ldr	r3, [r0, #1508]
 435:USB/core/usbd_core.c ****   return USBD_OK;
 869              		.loc 1 435 21 view .LVU226
 870 0006 5B68     		ldr	r3, [r3, #4]
 435:USB/core/usbd_core.c ****   return USBD_OK;
 871              		.loc 1 435 3 view .LVU227
 872 0008 9847     		blx	r3
 873              	.LVL72:
 436:USB/core/usbd_core.c **** }
 874              		.loc 1 436 3 is_stmt 1 view .LVU228
ARM GAS  /tmp/ccNUbZb9.s 			page 27


 437:USB/core/usbd_core.c **** 
 875              		.loc 1 437 1 is_stmt 0 view .LVU229
 876 000a 0020     		movs	r0, #0
 877 000c 08BD     		pop	{r3, pc}
 878              		.cfi_endproc
 879              	.LFE137:
 881              		.global	USBD_DCD_INT_fops
 882              		.global	USBD_DCD_INT_cb
 883              		.comm	SET_TEST_MODE,4,4
 884              		.section	.data.USBD_DCD_INT_cb,"aw"
 885              		.align	2
 888              	USBD_DCD_INT_cb:
 889 0000 00000000 		.word	USBD_DataOutStage
 890 0004 00000000 		.word	USBD_DataInStage
 891 0008 00000000 		.word	USBD_SetupStage
 892 000c 00000000 		.word	USBD_SOF
 893 0010 00000000 		.word	USBD_Reset
 894 0014 00000000 		.word	USBD_Suspend
 895 0018 00000000 		.word	USBD_Resume
 896 001c 00000000 		.word	USBD_IsoINIncomplete
 897 0020 00000000 		.word	USBD_IsoOUTIncomplete
 898 0024 00000000 		.space	8
 898      00000000 
 899              		.section	.data.USBD_DCD_INT_fops,"aw"
 900              		.align	2
 903              	USBD_DCD_INT_fops:
 904 0000 00000000 		.word	USBD_DCD_INT_cb
 905              		.text
 906              	.Letext0:
 907              		.file 2 "/home/bt0/stm32/compile-tool/gcc-arm-none-eabi-8-2018-q4-major-linux/gcc-arm-none-eabi-8-
 908              		.file 3 "/home/bt0/stm32/compile-tool/gcc-arm-none-eabi-8-2018-q4-major-linux/gcc-arm-none-eabi-8-
 909              		.file 4 "F4_CORE/core_cm4.h"
 910              		.file 5 "USER/system_stm32f4xx.h"
 911              		.file 6 "/home/bt0/stm32/compile-tool/gcc-arm-none-eabi-8-2018-q4-major-linux/gcc-arm-none-eabi-8-
 912              		.file 7 "/home/bt0/stm32/compile-tool/gcc-arm-none-eabi-8-2018-q4-major-linux/gcc-arm-none-eabi-8-
 913              		.file 8 "/home/bt0/stm32/compile-tool/gcc-arm-none-eabi-8-2018-q4-major-linux/gcc-arm-none-eabi-8-
 914              		.file 9 "/home/bt0/stm32/compile-tool/gcc-arm-none-eabi-8-2018-q4-major-linux/gcc-arm-none-eabi-8-
 915              		.file 10 "USB/core/usb_regs.h"
 916              		.file 11 "USB/core/usb_defines.h"
 917              		.file 12 "USB/core/usb_core.h"
 918              		.file 13 "USB/core/usbd_core.h"
 919              		.file 14 "USB/core/usb_dcd_int.h"
 920              		.file 15 "USB/core/usb_dcd.h"
 921              		.file 16 "USB/core/usbd_ioreq.h"
 922              		.file 17 "USB/core/usbd_req.h"
 923              		.file 18 "USB/core/usb_bsp.h"
ARM GAS  /tmp/ccNUbZb9.s 			page 28


DEFINED SYMBOLS
                            *ABS*:0000000000000000 usbd_core.c
     /tmp/ccNUbZb9.s:18     .text.USBD_RunTestMode:0000000000000000 $t
     /tmp/ccNUbZb9.s:25     .text.USBD_RunTestMode:0000000000000000 USBD_RunTestMode
     /tmp/ccNUbZb9.s:48     .text.USBD_RunTestMode:000000000000000c $d
                            *COM*:0000000000000004 SET_TEST_MODE
     /tmp/ccNUbZb9.s:53     .text.USBD_Resume:0000000000000000 $t
     /tmp/ccNUbZb9.s:59     .text.USBD_Resume:0000000000000000 USBD_Resume
     /tmp/ccNUbZb9.s:95     .text.USBD_Suspend:0000000000000000 $t
     /tmp/ccNUbZb9.s:101    .text.USBD_Suspend:0000000000000000 USBD_Suspend
     /tmp/ccNUbZb9.s:139    .text.USBD_SOF:0000000000000000 $t
     /tmp/ccNUbZb9.s:145    .text.USBD_SOF:0000000000000000 USBD_SOF
     /tmp/ccNUbZb9.s:177    .text.USBD_IsoINIncomplete:0000000000000000 $t
     /tmp/ccNUbZb9.s:183    .text.USBD_IsoINIncomplete:0000000000000000 USBD_IsoINIncomplete
     /tmp/ccNUbZb9.s:212    .text.USBD_IsoOUTIncomplete:0000000000000000 $t
     /tmp/ccNUbZb9.s:218    .text.USBD_IsoOUTIncomplete:0000000000000000 USBD_IsoOUTIncomplete
     /tmp/ccNUbZb9.s:247    .text.USBD_Reset:0000000000000000 $t
     /tmp/ccNUbZb9.s:253    .text.USBD_Reset:0000000000000000 USBD_Reset
     /tmp/ccNUbZb9.s:302    .text.USBD_SetupStage:0000000000000000 $t
     /tmp/ccNUbZb9.s:308    .text.USBD_SetupStage:0000000000000000 USBD_SetupStage
     /tmp/ccNUbZb9.s:388    .text.USBD_DataInStage:0000000000000000 $t
     /tmp/ccNUbZb9.s:394    .text.USBD_DataInStage:0000000000000000 USBD_DataInStage
     /tmp/ccNUbZb9.s:571    .text.USBD_DataOutStage:0000000000000000 $t
     /tmp/ccNUbZb9.s:577    .text.USBD_DataOutStage:0000000000000000 USBD_DataOutStage
     /tmp/ccNUbZb9.s:709    .text.USBD_Init:0000000000000000 $t
     /tmp/ccNUbZb9.s:716    .text.USBD_Init:0000000000000000 USBD_Init
     /tmp/ccNUbZb9.s:775    .text.USBD_DeInit:0000000000000000 $t
     /tmp/ccNUbZb9.s:782    .text.USBD_DeInit:0000000000000000 USBD_DeInit
     /tmp/ccNUbZb9.s:800    .text.USBD_SetCfg:0000000000000000 $t
     /tmp/ccNUbZb9.s:807    .text.USBD_SetCfg:0000000000000000 USBD_SetCfg
     /tmp/ccNUbZb9.s:846    .text.USBD_ClrCfg:0000000000000000 $t
     /tmp/ccNUbZb9.s:853    .text.USBD_ClrCfg:0000000000000000 USBD_ClrCfg
     /tmp/ccNUbZb9.s:903    .data.USBD_DCD_INT_fops:0000000000000000 USBD_DCD_INT_fops
     /tmp/ccNUbZb9.s:888    .data.USBD_DCD_INT_cb:0000000000000000 USBD_DCD_INT_cb
     /tmp/ccNUbZb9.s:885    .data.USBD_DCD_INT_cb:0000000000000000 $d
     /tmp/ccNUbZb9.s:900    .data.USBD_DCD_INT_fops:0000000000000000 $d

UNDEFINED SYMBOLS
DCD_EP_Open
USBD_ParseSetupRequest
DCD_EP_Stall
USBD_StdDevReq
USBD_StdItfReq
USBD_StdEPReq
USBD_CtlContinueSendData
USBD_CtlReceiveStatus
USBD_CtlContinueRx
USBD_CtlSendStatus
USB_OTG_BSP_Init
DCD_Init
USB_OTG_BSP_EnableInterrupt
