ARM GAS  /var/folders/lx/hc4sn_b53233_zkc9xbbl97r0000gp/T//ccIc9UPI.s 			page 1


   1              		.cpu cortex-m4
   2              		.eabi_attribute 27, 1
   3              		.eabi_attribute 28, 1
   4              		.eabi_attribute 20, 1
   5              		.eabi_attribute 21, 1
   6              		.eabi_attribute 23, 3
   7              		.eabi_attribute 24, 1
   8              		.eabi_attribute 25, 1
   9              		.eabi_attribute 26, 1
  10              		.eabi_attribute 30, 1
  11              		.eabi_attribute 34, 1
  12              		.eabi_attribute 18, 4
  13              		.file	"usbd_cdc_core.c"
  14              		.text
  15              	.Ltext0:
  16              		.cfi_sections	.debug_frame
  17              		.section	.text.usbd_cdc_EP0_RxReady,"ax",%progbits
  18              		.align	1
  19              		.arch armv7e-m
  20              		.syntax unified
  21              		.thumb
  22              		.thumb_func
  23              		.fpu fpv4-sp-d16
  25              	usbd_cdc_EP0_RxReady:
  26              	.LVL0:
  27              	.LFB129:
  28              		.file 1 "USB/core/usbd_cdc_core.c"
   1:USB/core/usbd_cdc_core.c **** /**
   2:USB/core/usbd_cdc_core.c ****   ******************************************************************************
   3:USB/core/usbd_cdc_core.c ****   * @file    usbd_cdc_core.c
   4:USB/core/usbd_cdc_core.c ****   * @author  MCD Application Team
   5:USB/core/usbd_cdc_core.c ****   * @version V1.1.0
   6:USB/core/usbd_cdc_core.c ****   * @date    19-March-2012
   7:USB/core/usbd_cdc_core.c ****   * @brief   This file provides the high layer firmware functions to manage the 
   8:USB/core/usbd_cdc_core.c ****   *          following functionalities of the USB CDC Class:
   9:USB/core/usbd_cdc_core.c ****   *           - Initialization and Configuration of high and low layer
  10:USB/core/usbd_cdc_core.c ****   *           - Enumeration as CDC Device (and enumeration for each implemented memory interface)
  11:USB/core/usbd_cdc_core.c ****   *           - OUT/IN data transfer
  12:USB/core/usbd_cdc_core.c ****   *           - Command IN transfer (class requests management)
  13:USB/core/usbd_cdc_core.c ****   *           - Error management
  14:USB/core/usbd_cdc_core.c ****   *           
  15:USB/core/usbd_cdc_core.c ****   *  @verbatim
  16:USB/core/usbd_cdc_core.c ****   *      
  17:USB/core/usbd_cdc_core.c ****   *          ===================================================================      
  18:USB/core/usbd_cdc_core.c ****   *                                CDC Class Driver Description
  19:USB/core/usbd_cdc_core.c ****   *          =================================================================== 
  20:USB/core/usbd_cdc_core.c ****   *           This driver manages the "Universal Serial Bus Class Definitions for Communications De
  21:USB/core/usbd_cdc_core.c ****   *           Revision 1.2 November 16, 2007" and the sub-protocol specification of "Universal Seri
  22:USB/core/usbd_cdc_core.c ****   *           Communications Class Subclass Specification for PSTN Devices Revision 1.2 February 9,
  23:USB/core/usbd_cdc_core.c ****   *           This driver implements the following aspects of the specification:
  24:USB/core/usbd_cdc_core.c ****   *             - Device descriptor management
  25:USB/core/usbd_cdc_core.c ****   *             - Configuration descriptor management
  26:USB/core/usbd_cdc_core.c ****   *             - Enumeration as CDC device with 2 data endpoints (IN and OUT) and 1 command endpoi
  27:USB/core/usbd_cdc_core.c ****   *             - Requests management (as described in section 6.2 in specification)
  28:USB/core/usbd_cdc_core.c ****   *             - Abstract Control Model compliant
  29:USB/core/usbd_cdc_core.c ****   *             - Union Functional collection (using 1 IN endpoint for control)
  30:USB/core/usbd_cdc_core.c ****   *             - Data interface class
ARM GAS  /var/folders/lx/hc4sn_b53233_zkc9xbbl97r0000gp/T//ccIc9UPI.s 			page 2


  31:USB/core/usbd_cdc_core.c **** 
  32:USB/core/usbd_cdc_core.c ****   *           @note
  33:USB/core/usbd_cdc_core.c ****   *             For the Abstract Control Model, this core allows only transmitting the requests to
  34:USB/core/usbd_cdc_core.c ****   *             lower layer dispatcher (ie. usbd_cdc_vcp.c/.h) which should manage each request and
  35:USB/core/usbd_cdc_core.c ****   *             perform relative actions.
  36:USB/core/usbd_cdc_core.c ****   * 
  37:USB/core/usbd_cdc_core.c ****   *           These aspects may be enriched or modified for a specific user application.
  38:USB/core/usbd_cdc_core.c ****   *          
  39:USB/core/usbd_cdc_core.c ****   *            This driver doesn't implement the following aspects of the specification 
  40:USB/core/usbd_cdc_core.c ****   *            (but it is possible to manage these features with some modifications on this driver)
  41:USB/core/usbd_cdc_core.c ****   *             - Any class-specific aspect relative to communication classes should be managed by 
  42:USB/core/usbd_cdc_core.c ****   *             - All communication classes other than PSTN are not managed
  43:USB/core/usbd_cdc_core.c ****   *      
  44:USB/core/usbd_cdc_core.c ****   *  @endverbatim
  45:USB/core/usbd_cdc_core.c ****   *                                  
  46:USB/core/usbd_cdc_core.c ****   ******************************************************************************
  47:USB/core/usbd_cdc_core.c ****   * @attention
  48:USB/core/usbd_cdc_core.c ****   *
  49:USB/core/usbd_cdc_core.c ****   * <h2><center>&copy; COPYRIGHT 2012 STMicroelectronics</center></h2>
  50:USB/core/usbd_cdc_core.c ****   *
  51:USB/core/usbd_cdc_core.c ****   * Licensed under MCD-ST Liberty SW License Agreement V2, (the "License");
  52:USB/core/usbd_cdc_core.c ****   * You may not use this file except in compliance with the License.
  53:USB/core/usbd_cdc_core.c ****   * You may obtain a copy of the License at:
  54:USB/core/usbd_cdc_core.c ****   *
  55:USB/core/usbd_cdc_core.c ****   *        http://www.st.com/software_license_agreement_liberty_v2
  56:USB/core/usbd_cdc_core.c ****   *
  57:USB/core/usbd_cdc_core.c ****   * Unless required by applicable law or agreed to in writing, software 
  58:USB/core/usbd_cdc_core.c ****   * distributed under the License is distributed on an "AS IS" BASIS, 
  59:USB/core/usbd_cdc_core.c ****   * WITHOUT WARRANTIES OR CONDITIONS OF ANY KIND, either express or implied.
  60:USB/core/usbd_cdc_core.c ****   * See the License for the specific language governing permissions and
  61:USB/core/usbd_cdc_core.c ****   * limitations under the License.
  62:USB/core/usbd_cdc_core.c ****   *
  63:USB/core/usbd_cdc_core.c ****   ******************************************************************************
  64:USB/core/usbd_cdc_core.c ****   */ 
  65:USB/core/usbd_cdc_core.c **** 
  66:USB/core/usbd_cdc_core.c **** /* Includes ------------------------------------------------------------------*/
  67:USB/core/usbd_cdc_core.c **** #include "usbd_cdc_core.h"
  68:USB/core/usbd_cdc_core.c **** #include "usbd_desc.h"
  69:USB/core/usbd_cdc_core.c **** #include "usbd_req.h"
  70:USB/core/usbd_cdc_core.c **** 
  71:USB/core/usbd_cdc_core.c **** 
  72:USB/core/usbd_cdc_core.c **** /** @addtogroup STM32_USB_OTG_DEVICE_LIBRARY
  73:USB/core/usbd_cdc_core.c ****   * @{
  74:USB/core/usbd_cdc_core.c ****   */
  75:USB/core/usbd_cdc_core.c **** 
  76:USB/core/usbd_cdc_core.c **** 
  77:USB/core/usbd_cdc_core.c **** /** @defgroup usbd_cdc 
  78:USB/core/usbd_cdc_core.c ****   * @brief usbd core module
  79:USB/core/usbd_cdc_core.c ****   * @{
  80:USB/core/usbd_cdc_core.c ****   */ 
  81:USB/core/usbd_cdc_core.c **** 
  82:USB/core/usbd_cdc_core.c **** /** @defgroup usbd_cdc_Private_TypesDefinitions
  83:USB/core/usbd_cdc_core.c ****   * @{
  84:USB/core/usbd_cdc_core.c ****   */ 
  85:USB/core/usbd_cdc_core.c **** /**
  86:USB/core/usbd_cdc_core.c ****   * @}
  87:USB/core/usbd_cdc_core.c ****   */ 
ARM GAS  /var/folders/lx/hc4sn_b53233_zkc9xbbl97r0000gp/T//ccIc9UPI.s 			page 3


  88:USB/core/usbd_cdc_core.c **** 
  89:USB/core/usbd_cdc_core.c **** 
  90:USB/core/usbd_cdc_core.c **** /** @defgroup usbd_cdc_Private_Defines
  91:USB/core/usbd_cdc_core.c ****   * @{
  92:USB/core/usbd_cdc_core.c ****   */ 
  93:USB/core/usbd_cdc_core.c **** /**
  94:USB/core/usbd_cdc_core.c ****   * @}
  95:USB/core/usbd_cdc_core.c ****   */ 
  96:USB/core/usbd_cdc_core.c **** 
  97:USB/core/usbd_cdc_core.c **** 
  98:USB/core/usbd_cdc_core.c **** /** @defgroup usbd_cdc_Private_Macros
  99:USB/core/usbd_cdc_core.c ****   * @{
 100:USB/core/usbd_cdc_core.c ****   */ 
 101:USB/core/usbd_cdc_core.c **** /**
 102:USB/core/usbd_cdc_core.c ****   * @}
 103:USB/core/usbd_cdc_core.c ****   */ 
 104:USB/core/usbd_cdc_core.c **** 
 105:USB/core/usbd_cdc_core.c **** 
 106:USB/core/usbd_cdc_core.c **** /** @defgroup usbd_cdc_Private_FunctionPrototypes
 107:USB/core/usbd_cdc_core.c ****   * @{
 108:USB/core/usbd_cdc_core.c ****   */
 109:USB/core/usbd_cdc_core.c **** 
 110:USB/core/usbd_cdc_core.c **** /*********************************************
 111:USB/core/usbd_cdc_core.c ****    CDC Device library callbacks
 112:USB/core/usbd_cdc_core.c ****  *********************************************/
 113:USB/core/usbd_cdc_core.c **** static uint8_t  usbd_cdc_Init        (void  *pdev, uint8_t cfgidx);
 114:USB/core/usbd_cdc_core.c **** static uint8_t  usbd_cdc_DeInit      (void  *pdev, uint8_t cfgidx);
 115:USB/core/usbd_cdc_core.c **** static uint8_t  usbd_cdc_Setup       (void  *pdev, USB_SETUP_REQ *req);
 116:USB/core/usbd_cdc_core.c **** static uint8_t  usbd_cdc_EP0_RxReady  (void *pdev);
 117:USB/core/usbd_cdc_core.c **** static uint8_t  usbd_cdc_DataIn      (void *pdev, uint8_t epnum);
 118:USB/core/usbd_cdc_core.c **** static uint8_t  usbd_cdc_DataOut     (void *pdev, uint8_t epnum);
 119:USB/core/usbd_cdc_core.c **** static uint8_t  usbd_cdc_SOF         (void *pdev);
 120:USB/core/usbd_cdc_core.c **** 
 121:USB/core/usbd_cdc_core.c **** /*********************************************
 122:USB/core/usbd_cdc_core.c ****    CDC specific management functions
 123:USB/core/usbd_cdc_core.c ****  *********************************************/
 124:USB/core/usbd_cdc_core.c **** static void Handle_USBAsynchXfer  (void *pdev);
 125:USB/core/usbd_cdc_core.c **** static uint8_t  *USBD_cdc_GetCfgDesc (uint8_t speed, uint16_t *length);
 126:USB/core/usbd_cdc_core.c **** #ifdef USE_USB_OTG_HS  
 127:USB/core/usbd_cdc_core.c **** static uint8_t  *USBD_cdc_GetOtherCfgDesc (uint8_t speed, uint16_t *length);
 128:USB/core/usbd_cdc_core.c **** #endif
 129:USB/core/usbd_cdc_core.c **** /**
 130:USB/core/usbd_cdc_core.c ****   * @}
 131:USB/core/usbd_cdc_core.c ****   */ 
 132:USB/core/usbd_cdc_core.c **** 
 133:USB/core/usbd_cdc_core.c **** /** @defgroup usbd_cdc_Private_Variables
 134:USB/core/usbd_cdc_core.c ****   * @{
 135:USB/core/usbd_cdc_core.c ****   */ 
 136:USB/core/usbd_cdc_core.c **** extern CDC_IF_Prop_TypeDef  APP_FOPS;
 137:USB/core/usbd_cdc_core.c **** extern uint8_t USBD_DeviceDesc   [USB_SIZ_DEVICE_DESC];
 138:USB/core/usbd_cdc_core.c **** 
 139:USB/core/usbd_cdc_core.c **** #ifdef USB_OTG_HS_INTERNAL_DMA_ENABLED
 140:USB/core/usbd_cdc_core.c ****   #if defined ( __ICCARM__ ) /*!< IAR Compiler */
 141:USB/core/usbd_cdc_core.c ****     #pragma data_alignment=4   
 142:USB/core/usbd_cdc_core.c ****   #endif
 143:USB/core/usbd_cdc_core.c **** #endif /* USB_OTG_HS_INTERNAL_DMA_ENABLED */
 144:USB/core/usbd_cdc_core.c **** __ALIGN_BEGIN uint8_t usbd_cdc_CfgDesc  [USB_CDC_CONFIG_DESC_SIZ] __ALIGN_END ;
ARM GAS  /var/folders/lx/hc4sn_b53233_zkc9xbbl97r0000gp/T//ccIc9UPI.s 			page 4


 145:USB/core/usbd_cdc_core.c **** 
 146:USB/core/usbd_cdc_core.c **** #ifdef USB_OTG_HS_INTERNAL_DMA_ENABLED
 147:USB/core/usbd_cdc_core.c ****   #if defined ( __ICCARM__ ) /*!< IAR Compiler */
 148:USB/core/usbd_cdc_core.c ****     #pragma data_alignment=4   
 149:USB/core/usbd_cdc_core.c ****   #endif
 150:USB/core/usbd_cdc_core.c **** #endif /* USB_OTG_HS_INTERNAL_DMA_ENABLED */
 151:USB/core/usbd_cdc_core.c **** __ALIGN_BEGIN uint8_t usbd_cdc_OtherCfgDesc  [USB_CDC_CONFIG_DESC_SIZ] __ALIGN_END ;
 152:USB/core/usbd_cdc_core.c **** 
 153:USB/core/usbd_cdc_core.c **** #ifdef USB_OTG_HS_INTERNAL_DMA_ENABLED
 154:USB/core/usbd_cdc_core.c ****   #if defined ( __ICCARM__ ) /*!< IAR Compiler */
 155:USB/core/usbd_cdc_core.c ****     #pragma data_alignment=4   
 156:USB/core/usbd_cdc_core.c ****   #endif
 157:USB/core/usbd_cdc_core.c **** #endif /* USB_OTG_HS_INTERNAL_DMA_ENABLED */
 158:USB/core/usbd_cdc_core.c **** __ALIGN_BEGIN static __IO uint32_t  usbd_cdc_AltSet  __ALIGN_END = 0;
 159:USB/core/usbd_cdc_core.c **** 
 160:USB/core/usbd_cdc_core.c **** #ifdef USB_OTG_HS_INTERNAL_DMA_ENABLED
 161:USB/core/usbd_cdc_core.c ****   #if defined ( __ICCARM__ ) /*!< IAR Compiler */
 162:USB/core/usbd_cdc_core.c ****     #pragma data_alignment=4   
 163:USB/core/usbd_cdc_core.c ****   #endif
 164:USB/core/usbd_cdc_core.c **** #endif /* USB_OTG_HS_INTERNAL_DMA_ENABLED */
 165:USB/core/usbd_cdc_core.c **** __ALIGN_BEGIN uint8_t USB_Rx_Buffer   [CDC_DATA_MAX_PACKET_SIZE] __ALIGN_END ;
 166:USB/core/usbd_cdc_core.c **** 
 167:USB/core/usbd_cdc_core.c **** #ifdef USB_OTG_HS_INTERNAL_DMA_ENABLED
 168:USB/core/usbd_cdc_core.c ****   #if defined ( __ICCARM__ ) /*!< IAR Compiler */
 169:USB/core/usbd_cdc_core.c ****     #pragma data_alignment=4   
 170:USB/core/usbd_cdc_core.c ****   #endif
 171:USB/core/usbd_cdc_core.c **** #endif /* USB_OTG_HS_INTERNAL_DMA_ENABLED */
 172:USB/core/usbd_cdc_core.c **** __ALIGN_BEGIN uint8_t APP_Rx_Buffer   [APP_RX_DATA_SIZE] __ALIGN_END ; 
 173:USB/core/usbd_cdc_core.c **** 
 174:USB/core/usbd_cdc_core.c **** 
 175:USB/core/usbd_cdc_core.c **** #ifdef USB_OTG_HS_INTERNAL_DMA_ENABLED
 176:USB/core/usbd_cdc_core.c ****   #if defined ( __ICCARM__ ) /*!< IAR Compiler */
 177:USB/core/usbd_cdc_core.c ****     #pragma data_alignment=4   
 178:USB/core/usbd_cdc_core.c ****   #endif
 179:USB/core/usbd_cdc_core.c **** #endif /* USB_OTG_HS_INTERNAL_DMA_ENABLED */
 180:USB/core/usbd_cdc_core.c **** __ALIGN_BEGIN uint8_t CmdBuff[CDC_CMD_PACKET_SZE] __ALIGN_END ;
 181:USB/core/usbd_cdc_core.c **** 
 182:USB/core/usbd_cdc_core.c **** uint32_t APP_Rx_ptr_in  = 0;
 183:USB/core/usbd_cdc_core.c **** uint32_t APP_Rx_ptr_out = 0;
 184:USB/core/usbd_cdc_core.c **** uint32_t APP_Rx_length  = 0;
 185:USB/core/usbd_cdc_core.c **** 
 186:USB/core/usbd_cdc_core.c **** uint8_t  USB_Tx_State = 0;
 187:USB/core/usbd_cdc_core.c **** 
 188:USB/core/usbd_cdc_core.c **** static uint32_t cdcCmd = 0xFF;
 189:USB/core/usbd_cdc_core.c **** static uint32_t cdcLen = 0;
 190:USB/core/usbd_cdc_core.c **** 
 191:USB/core/usbd_cdc_core.c **** /* CDC interface class callbacks structure */
 192:USB/core/usbd_cdc_core.c **** USBD_Class_cb_TypeDef  USBD_CDC_cb = 
 193:USB/core/usbd_cdc_core.c **** {
 194:USB/core/usbd_cdc_core.c ****   usbd_cdc_Init,
 195:USB/core/usbd_cdc_core.c ****   usbd_cdc_DeInit,
 196:USB/core/usbd_cdc_core.c ****   usbd_cdc_Setup,
 197:USB/core/usbd_cdc_core.c ****   NULL,                 /* EP0_TxSent, */
 198:USB/core/usbd_cdc_core.c ****   usbd_cdc_EP0_RxReady,
 199:USB/core/usbd_cdc_core.c ****   usbd_cdc_DataIn,
 200:USB/core/usbd_cdc_core.c ****   usbd_cdc_DataOut,
 201:USB/core/usbd_cdc_core.c ****   usbd_cdc_SOF,
ARM GAS  /var/folders/lx/hc4sn_b53233_zkc9xbbl97r0000gp/T//ccIc9UPI.s 			page 5


 202:USB/core/usbd_cdc_core.c ****   NULL,
 203:USB/core/usbd_cdc_core.c ****   NULL,     
 204:USB/core/usbd_cdc_core.c ****   USBD_cdc_GetCfgDesc,
 205:USB/core/usbd_cdc_core.c **** #ifdef USE_USB_OTG_HS   
 206:USB/core/usbd_cdc_core.c ****   USBD_cdc_GetOtherCfgDesc, /* use same cobfig as per FS */
 207:USB/core/usbd_cdc_core.c **** #endif /* USE_USB_OTG_HS  */
 208:USB/core/usbd_cdc_core.c **** };
 209:USB/core/usbd_cdc_core.c **** 
 210:USB/core/usbd_cdc_core.c **** #ifdef USB_OTG_HS_INTERNAL_DMA_ENABLED
 211:USB/core/usbd_cdc_core.c ****   #if defined ( __ICCARM__ ) /*!< IAR Compiler */
 212:USB/core/usbd_cdc_core.c ****     #pragma data_alignment=4   
 213:USB/core/usbd_cdc_core.c ****   #endif
 214:USB/core/usbd_cdc_core.c **** #endif /* USB_OTG_HS_INTERNAL_DMA_ENABLED */
 215:USB/core/usbd_cdc_core.c **** /* USB CDC device Configuration Descriptor */
 216:USB/core/usbd_cdc_core.c **** __ALIGN_BEGIN uint8_t usbd_cdc_CfgDesc[USB_CDC_CONFIG_DESC_SIZ]  __ALIGN_END =
 217:USB/core/usbd_cdc_core.c **** {
 218:USB/core/usbd_cdc_core.c ****   /*Configuration Descriptor*/
 219:USB/core/usbd_cdc_core.c ****   0x09,   /* bLength: Configuration Descriptor size */
 220:USB/core/usbd_cdc_core.c ****   USB_CONFIGURATION_DESCRIPTOR_TYPE,      /* bDescriptorType: Configuration */
 221:USB/core/usbd_cdc_core.c ****   USB_CDC_CONFIG_DESC_SIZ,                /* wTotalLength:no of returned bytes */
 222:USB/core/usbd_cdc_core.c ****   0x00,
 223:USB/core/usbd_cdc_core.c ****   0x02,   /* bNumInterfaces: 2 interface */
 224:USB/core/usbd_cdc_core.c ****   0x01,   /* bConfigurationValue: Configuration value */
 225:USB/core/usbd_cdc_core.c ****   0x00,   /* iConfiguration: Index of string descriptor describing the configuration */
 226:USB/core/usbd_cdc_core.c ****   0xC0,   /* bmAttributes: self powered */
 227:USB/core/usbd_cdc_core.c ****   0x32,   /* MaxPower 0 mA */
 228:USB/core/usbd_cdc_core.c ****   
 229:USB/core/usbd_cdc_core.c ****   /*---------------------------------------------------------------------------*/
 230:USB/core/usbd_cdc_core.c ****   
 231:USB/core/usbd_cdc_core.c ****   /*Interface Descriptor */
 232:USB/core/usbd_cdc_core.c ****   0x09,   /* bLength: Interface Descriptor size */
 233:USB/core/usbd_cdc_core.c ****   USB_INTERFACE_DESCRIPTOR_TYPE,  /* bDescriptorType: Interface */
 234:USB/core/usbd_cdc_core.c ****   /* Interface descriptor type */
 235:USB/core/usbd_cdc_core.c ****   0x00,   /* bInterfaceNumber: Number of Interface */
 236:USB/core/usbd_cdc_core.c ****   0x00,   /* bAlternateSetting: Alternate setting */
 237:USB/core/usbd_cdc_core.c ****   0x01,   /* bNumEndpoints: One endpoints used */
 238:USB/core/usbd_cdc_core.c ****   0x02,   /* bInterfaceClass: Communication Interface Class */
 239:USB/core/usbd_cdc_core.c ****   0x02,   /* bInterfaceSubClass: Abstract Control Model */
 240:USB/core/usbd_cdc_core.c ****   0x01,   /* bInterfaceProtocol: Common AT commands */
 241:USB/core/usbd_cdc_core.c ****   0x00,   /* iInterface: */
 242:USB/core/usbd_cdc_core.c ****   
 243:USB/core/usbd_cdc_core.c ****   /*Header Functional Descriptor*/
 244:USB/core/usbd_cdc_core.c ****   0x05,   /* bLength: Endpoint Descriptor size */
 245:USB/core/usbd_cdc_core.c ****   0x24,   /* bDescriptorType: CS_INTERFACE */
 246:USB/core/usbd_cdc_core.c ****   0x00,   /* bDescriptorSubtype: Header Func Desc */
 247:USB/core/usbd_cdc_core.c ****   0x10,   /* bcdCDC: spec release number */
 248:USB/core/usbd_cdc_core.c ****   0x01,
 249:USB/core/usbd_cdc_core.c ****   
 250:USB/core/usbd_cdc_core.c ****   /*Call Management Functional Descriptor*/
 251:USB/core/usbd_cdc_core.c ****   0x05,   /* bFunctionLength */
 252:USB/core/usbd_cdc_core.c ****   0x24,   /* bDescriptorType: CS_INTERFACE */
 253:USB/core/usbd_cdc_core.c ****   0x01,   /* bDescriptorSubtype: Call Management Func Desc */
 254:USB/core/usbd_cdc_core.c ****   0x00,   /* bmCapabilities: D0+D1 */
 255:USB/core/usbd_cdc_core.c ****   0x01,   /* bDataInterface: 1 */
 256:USB/core/usbd_cdc_core.c ****   
 257:USB/core/usbd_cdc_core.c ****   /*ACM Functional Descriptor*/
 258:USB/core/usbd_cdc_core.c ****   0x04,   /* bFunctionLength */
ARM GAS  /var/folders/lx/hc4sn_b53233_zkc9xbbl97r0000gp/T//ccIc9UPI.s 			page 6


 259:USB/core/usbd_cdc_core.c ****   0x24,   /* bDescriptorType: CS_INTERFACE */
 260:USB/core/usbd_cdc_core.c ****   0x02,   /* bDescriptorSubtype: Abstract Control Management desc */
 261:USB/core/usbd_cdc_core.c ****   0x02,   /* bmCapabilities */
 262:USB/core/usbd_cdc_core.c ****   
 263:USB/core/usbd_cdc_core.c ****   /*Union Functional Descriptor*/
 264:USB/core/usbd_cdc_core.c ****   0x05,   /* bFunctionLength */
 265:USB/core/usbd_cdc_core.c ****   0x24,   /* bDescriptorType: CS_INTERFACE */
 266:USB/core/usbd_cdc_core.c ****   0x06,   /* bDescriptorSubtype: Union func desc */
 267:USB/core/usbd_cdc_core.c ****   0x00,   /* bMasterInterface: Communication class interface */
 268:USB/core/usbd_cdc_core.c ****   0x01,   /* bSlaveInterface0: Data Class Interface */
 269:USB/core/usbd_cdc_core.c ****   
 270:USB/core/usbd_cdc_core.c ****   /*Endpoint 2 Descriptor*/
 271:USB/core/usbd_cdc_core.c ****   0x07,                           /* bLength: Endpoint Descriptor size */
 272:USB/core/usbd_cdc_core.c ****   USB_ENDPOINT_DESCRIPTOR_TYPE,   /* bDescriptorType: Endpoint */
 273:USB/core/usbd_cdc_core.c ****   CDC_CMD_EP,                     /* bEndpointAddress */
 274:USB/core/usbd_cdc_core.c ****   0x03,                           /* bmAttributes: Interrupt */
 275:USB/core/usbd_cdc_core.c ****   LOBYTE(CDC_CMD_PACKET_SZE),     /* wMaxPacketSize: */
 276:USB/core/usbd_cdc_core.c ****   HIBYTE(CDC_CMD_PACKET_SZE),
 277:USB/core/usbd_cdc_core.c **** #ifdef USE_USB_OTG_HS
 278:USB/core/usbd_cdc_core.c ****   0x10,                           /* bInterval: */
 279:USB/core/usbd_cdc_core.c **** #else
 280:USB/core/usbd_cdc_core.c ****   0xFF,                           /* bInterval: */
 281:USB/core/usbd_cdc_core.c **** #endif /* USE_USB_OTG_HS */
 282:USB/core/usbd_cdc_core.c ****   
 283:USB/core/usbd_cdc_core.c ****   /*---------------------------------------------------------------------------*/
 284:USB/core/usbd_cdc_core.c ****   
 285:USB/core/usbd_cdc_core.c ****   /*Data class interface descriptor*/
 286:USB/core/usbd_cdc_core.c ****   0x09,   /* bLength: Endpoint Descriptor size */
 287:USB/core/usbd_cdc_core.c ****   USB_INTERFACE_DESCRIPTOR_TYPE,  /* bDescriptorType: */
 288:USB/core/usbd_cdc_core.c ****   0x01,   /* bInterfaceNumber: Number of Interface */
 289:USB/core/usbd_cdc_core.c ****   0x00,   /* bAlternateSetting: Alternate setting */
 290:USB/core/usbd_cdc_core.c ****   0x02,   /* bNumEndpoints: Two endpoints used */
 291:USB/core/usbd_cdc_core.c ****   0x0A,   /* bInterfaceClass: CDC */
 292:USB/core/usbd_cdc_core.c ****   0x00,   /* bInterfaceSubClass: */
 293:USB/core/usbd_cdc_core.c ****   0x00,   /* bInterfaceProtocol: */
 294:USB/core/usbd_cdc_core.c ****   0x00,   /* iInterface: */
 295:USB/core/usbd_cdc_core.c ****   
 296:USB/core/usbd_cdc_core.c ****   /*Endpoint OUT Descriptor*/
 297:USB/core/usbd_cdc_core.c ****   0x07,   /* bLength: Endpoint Descriptor size */
 298:USB/core/usbd_cdc_core.c ****   USB_ENDPOINT_DESCRIPTOR_TYPE,      /* bDescriptorType: Endpoint */
 299:USB/core/usbd_cdc_core.c ****   CDC_OUT_EP,                        /* bEndpointAddress */
 300:USB/core/usbd_cdc_core.c ****   0x02,                              /* bmAttributes: Bulk */
 301:USB/core/usbd_cdc_core.c ****   LOBYTE(CDC_DATA_MAX_PACKET_SIZE),  /* wMaxPacketSize: */
 302:USB/core/usbd_cdc_core.c ****   HIBYTE(CDC_DATA_MAX_PACKET_SIZE),
 303:USB/core/usbd_cdc_core.c ****   0x00,                              /* bInterval: ignore for Bulk transfer */
 304:USB/core/usbd_cdc_core.c ****   
 305:USB/core/usbd_cdc_core.c ****   /*Endpoint IN Descriptor*/
 306:USB/core/usbd_cdc_core.c ****   0x07,   /* bLength: Endpoint Descriptor size */
 307:USB/core/usbd_cdc_core.c ****   USB_ENDPOINT_DESCRIPTOR_TYPE,      /* bDescriptorType: Endpoint */
 308:USB/core/usbd_cdc_core.c ****   CDC_IN_EP,                         /* bEndpointAddress */
 309:USB/core/usbd_cdc_core.c ****   0x02,                              /* bmAttributes: Bulk */
 310:USB/core/usbd_cdc_core.c ****   LOBYTE(CDC_DATA_MAX_PACKET_SIZE),  /* wMaxPacketSize: */
 311:USB/core/usbd_cdc_core.c ****   HIBYTE(CDC_DATA_MAX_PACKET_SIZE),
 312:USB/core/usbd_cdc_core.c ****   0x00                               /* bInterval: ignore for Bulk transfer */
 313:USB/core/usbd_cdc_core.c **** } ;
 314:USB/core/usbd_cdc_core.c **** 
 315:USB/core/usbd_cdc_core.c **** #ifdef USE_USB_OTG_HS
ARM GAS  /var/folders/lx/hc4sn_b53233_zkc9xbbl97r0000gp/T//ccIc9UPI.s 			page 7


 316:USB/core/usbd_cdc_core.c **** #ifdef USB_OTG_HS_INTERNAL_DMA_ENABLED
 317:USB/core/usbd_cdc_core.c ****   #if defined ( __ICCARM__ ) /*!< IAR Compiler */
 318:USB/core/usbd_cdc_core.c ****     #pragma data_alignment=4   
 319:USB/core/usbd_cdc_core.c ****   #endif
 320:USB/core/usbd_cdc_core.c **** #endif /* USB_OTG_HS_INTERNAL_DMA_ENABLED */ 
 321:USB/core/usbd_cdc_core.c **** __ALIGN_BEGIN uint8_t usbd_cdc_OtherCfgDesc[USB_CDC_CONFIG_DESC_SIZ]  __ALIGN_END =
 322:USB/core/usbd_cdc_core.c **** { 
 323:USB/core/usbd_cdc_core.c ****   0x09,   /* bLength: Configuation Descriptor size */
 324:USB/core/usbd_cdc_core.c ****   USB_DESC_TYPE_OTHER_SPEED_CONFIGURATION,   
 325:USB/core/usbd_cdc_core.c ****   USB_CDC_CONFIG_DESC_SIZ,
 326:USB/core/usbd_cdc_core.c ****   0x00,
 327:USB/core/usbd_cdc_core.c ****   0x02,   /* bNumInterfaces: 2 interfaces */
 328:USB/core/usbd_cdc_core.c ****   0x01,   /* bConfigurationValue: */
 329:USB/core/usbd_cdc_core.c ****   0x04,   /* iConfiguration: */
 330:USB/core/usbd_cdc_core.c ****   0xC0,   /* bmAttributes: */
 331:USB/core/usbd_cdc_core.c ****   0x32,   /* MaxPower 100 mA */  
 332:USB/core/usbd_cdc_core.c ****   
 333:USB/core/usbd_cdc_core.c ****   /*Interface Descriptor */
 334:USB/core/usbd_cdc_core.c ****   0x09,   /* bLength: Interface Descriptor size */
 335:USB/core/usbd_cdc_core.c ****   USB_INTERFACE_DESCRIPTOR_TYPE,  /* bDescriptorType: Interface */
 336:USB/core/usbd_cdc_core.c ****   /* Interface descriptor type */
 337:USB/core/usbd_cdc_core.c ****   0x00,   /* bInterfaceNumber: Number of Interface */
 338:USB/core/usbd_cdc_core.c ****   0x00,   /* bAlternateSetting: Alternate setting */
 339:USB/core/usbd_cdc_core.c ****   0x01,   /* bNumEndpoints: One endpoints used */
 340:USB/core/usbd_cdc_core.c ****   0x02,   /* bInterfaceClass: Communication Interface Class */
 341:USB/core/usbd_cdc_core.c ****   0x02,   /* bInterfaceSubClass: Abstract Control Model */
 342:USB/core/usbd_cdc_core.c ****   0x01,   /* bInterfaceProtocol: Common AT commands */
 343:USB/core/usbd_cdc_core.c ****   0x00,   /* iInterface: */
 344:USB/core/usbd_cdc_core.c ****   
 345:USB/core/usbd_cdc_core.c ****   /*Header Functional Descriptor*/
 346:USB/core/usbd_cdc_core.c ****   0x05,   /* bLength: Endpoint Descriptor size */
 347:USB/core/usbd_cdc_core.c ****   0x24,   /* bDescriptorType: CS_INTERFACE */
 348:USB/core/usbd_cdc_core.c ****   0x00,   /* bDescriptorSubtype: Header Func Desc */
 349:USB/core/usbd_cdc_core.c ****   0x10,   /* bcdCDC: spec release number */
 350:USB/core/usbd_cdc_core.c ****   0x01,
 351:USB/core/usbd_cdc_core.c ****   
 352:USB/core/usbd_cdc_core.c ****   /*Call Management Functional Descriptor*/
 353:USB/core/usbd_cdc_core.c ****   0x05,   /* bFunctionLength */
 354:USB/core/usbd_cdc_core.c ****   0x24,   /* bDescriptorType: CS_INTERFACE */
 355:USB/core/usbd_cdc_core.c ****   0x01,   /* bDescriptorSubtype: Call Management Func Desc */
 356:USB/core/usbd_cdc_core.c ****   0x00,   /* bmCapabilities: D0+D1 */
 357:USB/core/usbd_cdc_core.c ****   0x01,   /* bDataInterface: 1 */
 358:USB/core/usbd_cdc_core.c ****   
 359:USB/core/usbd_cdc_core.c ****   /*ACM Functional Descriptor*/
 360:USB/core/usbd_cdc_core.c ****   0x04,   /* bFunctionLength */
 361:USB/core/usbd_cdc_core.c ****   0x24,   /* bDescriptorType: CS_INTERFACE */
 362:USB/core/usbd_cdc_core.c ****   0x02,   /* bDescriptorSubtype: Abstract Control Management desc */
 363:USB/core/usbd_cdc_core.c ****   0x02,   /* bmCapabilities */
 364:USB/core/usbd_cdc_core.c ****   
 365:USB/core/usbd_cdc_core.c ****   /*Union Functional Descriptor*/
 366:USB/core/usbd_cdc_core.c ****   0x05,   /* bFunctionLength */
 367:USB/core/usbd_cdc_core.c ****   0x24,   /* bDescriptorType: CS_INTERFACE */
 368:USB/core/usbd_cdc_core.c ****   0x06,   /* bDescriptorSubtype: Union func desc */
 369:USB/core/usbd_cdc_core.c ****   0x00,   /* bMasterInterface: Communication class interface */
 370:USB/core/usbd_cdc_core.c ****   0x01,   /* bSlaveInterface0: Data Class Interface */
 371:USB/core/usbd_cdc_core.c ****   
 372:USB/core/usbd_cdc_core.c ****   /*Endpoint 2 Descriptor*/
ARM GAS  /var/folders/lx/hc4sn_b53233_zkc9xbbl97r0000gp/T//ccIc9UPI.s 			page 8


 373:USB/core/usbd_cdc_core.c ****   0x07,                           /* bLength: Endpoint Descriptor size */
 374:USB/core/usbd_cdc_core.c ****   USB_ENDPOINT_DESCRIPTOR_TYPE,   /* bDescriptorType: Endpoint */
 375:USB/core/usbd_cdc_core.c ****   CDC_CMD_EP,                     /* bEndpointAddress */
 376:USB/core/usbd_cdc_core.c ****   0x03,                           /* bmAttributes: Interrupt */
 377:USB/core/usbd_cdc_core.c ****   LOBYTE(CDC_CMD_PACKET_SZE),     /* wMaxPacketSize: */
 378:USB/core/usbd_cdc_core.c ****   HIBYTE(CDC_CMD_PACKET_SZE),
 379:USB/core/usbd_cdc_core.c ****   0xFF,                           /* bInterval: */
 380:USB/core/usbd_cdc_core.c ****   
 381:USB/core/usbd_cdc_core.c ****   /*---------------------------------------------------------------------------*/
 382:USB/core/usbd_cdc_core.c ****   
 383:USB/core/usbd_cdc_core.c ****   /*Data class interface descriptor*/
 384:USB/core/usbd_cdc_core.c ****   0x09,   /* bLength: Endpoint Descriptor size */
 385:USB/core/usbd_cdc_core.c ****   USB_INTERFACE_DESCRIPTOR_TYPE,  /* bDescriptorType: */
 386:USB/core/usbd_cdc_core.c ****   0x01,   /* bInterfaceNumber: Number of Interface */
 387:USB/core/usbd_cdc_core.c ****   0x00,   /* bAlternateSetting: Alternate setting */
 388:USB/core/usbd_cdc_core.c ****   0x02,   /* bNumEndpoints: Two endpoints used */
 389:USB/core/usbd_cdc_core.c ****   0x0A,   /* bInterfaceClass: CDC */
 390:USB/core/usbd_cdc_core.c ****   0x00,   /* bInterfaceSubClass: */
 391:USB/core/usbd_cdc_core.c ****   0x00,   /* bInterfaceProtocol: */
 392:USB/core/usbd_cdc_core.c ****   0x00,   /* iInterface: */
 393:USB/core/usbd_cdc_core.c ****   
 394:USB/core/usbd_cdc_core.c ****   /*Endpoint OUT Descriptor*/
 395:USB/core/usbd_cdc_core.c ****   0x07,   /* bLength: Endpoint Descriptor size */
 396:USB/core/usbd_cdc_core.c ****   USB_ENDPOINT_DESCRIPTOR_TYPE,      /* bDescriptorType: Endpoint */
 397:USB/core/usbd_cdc_core.c ****   CDC_OUT_EP,                        /* bEndpointAddress */
 398:USB/core/usbd_cdc_core.c ****   0x02,                              /* bmAttributes: Bulk */
 399:USB/core/usbd_cdc_core.c ****   0x40,                              /* wMaxPacketSize: */
 400:USB/core/usbd_cdc_core.c ****   0x00,
 401:USB/core/usbd_cdc_core.c ****   0x00,                              /* bInterval: ignore for Bulk transfer */
 402:USB/core/usbd_cdc_core.c ****   
 403:USB/core/usbd_cdc_core.c ****   /*Endpoint IN Descriptor*/
 404:USB/core/usbd_cdc_core.c ****   0x07,   /* bLength: Endpoint Descriptor size */
 405:USB/core/usbd_cdc_core.c ****   USB_ENDPOINT_DESCRIPTOR_TYPE,     /* bDescriptorType: Endpoint */
 406:USB/core/usbd_cdc_core.c ****   CDC_IN_EP,                        /* bEndpointAddress */
 407:USB/core/usbd_cdc_core.c ****   0x02,                             /* bmAttributes: Bulk */
 408:USB/core/usbd_cdc_core.c ****   0x40,                             /* wMaxPacketSize: */
 409:USB/core/usbd_cdc_core.c ****   0x00,
 410:USB/core/usbd_cdc_core.c ****   0x00                              /* bInterval */
 411:USB/core/usbd_cdc_core.c **** };
 412:USB/core/usbd_cdc_core.c **** #endif /* USE_USB_OTG_HS  */
 413:USB/core/usbd_cdc_core.c **** 
 414:USB/core/usbd_cdc_core.c **** /**
 415:USB/core/usbd_cdc_core.c ****   * @}
 416:USB/core/usbd_cdc_core.c ****   */ 
 417:USB/core/usbd_cdc_core.c **** 
 418:USB/core/usbd_cdc_core.c **** /** @defgroup usbd_cdc_Private_Functions
 419:USB/core/usbd_cdc_core.c ****   * @{
 420:USB/core/usbd_cdc_core.c ****   */ 
 421:USB/core/usbd_cdc_core.c **** 
 422:USB/core/usbd_cdc_core.c **** /**
 423:USB/core/usbd_cdc_core.c ****   * @brief  usbd_cdc_Init
 424:USB/core/usbd_cdc_core.c ****   *         Initilaize the CDC interface
 425:USB/core/usbd_cdc_core.c ****   * @param  pdev: device instance
 426:USB/core/usbd_cdc_core.c ****   * @param  cfgidx: Configuration index
 427:USB/core/usbd_cdc_core.c ****   * @retval status
 428:USB/core/usbd_cdc_core.c ****   */
 429:USB/core/usbd_cdc_core.c **** static uint8_t  usbd_cdc_Init (void  *pdev, 
ARM GAS  /var/folders/lx/hc4sn_b53233_zkc9xbbl97r0000gp/T//ccIc9UPI.s 			page 9


 430:USB/core/usbd_cdc_core.c ****                                uint8_t cfgidx)
 431:USB/core/usbd_cdc_core.c **** {
 432:USB/core/usbd_cdc_core.c ****   uint8_t *pbuf;
 433:USB/core/usbd_cdc_core.c **** 
 434:USB/core/usbd_cdc_core.c ****   /* Open EP IN */
 435:USB/core/usbd_cdc_core.c ****   DCD_EP_Open(pdev,
 436:USB/core/usbd_cdc_core.c ****               CDC_IN_EP,
 437:USB/core/usbd_cdc_core.c ****               CDC_DATA_IN_PACKET_SIZE,
 438:USB/core/usbd_cdc_core.c ****               USB_OTG_EP_BULK);
 439:USB/core/usbd_cdc_core.c ****   
 440:USB/core/usbd_cdc_core.c ****   /* Open EP OUT */
 441:USB/core/usbd_cdc_core.c ****   DCD_EP_Open(pdev,
 442:USB/core/usbd_cdc_core.c ****               CDC_OUT_EP,
 443:USB/core/usbd_cdc_core.c ****               CDC_DATA_OUT_PACKET_SIZE,
 444:USB/core/usbd_cdc_core.c ****               USB_OTG_EP_BULK);
 445:USB/core/usbd_cdc_core.c ****   
 446:USB/core/usbd_cdc_core.c ****   /* Open Command IN EP */
 447:USB/core/usbd_cdc_core.c ****   DCD_EP_Open(pdev,
 448:USB/core/usbd_cdc_core.c ****               CDC_CMD_EP,
 449:USB/core/usbd_cdc_core.c ****               CDC_CMD_PACKET_SZE,
 450:USB/core/usbd_cdc_core.c ****               USB_OTG_EP_INT);
 451:USB/core/usbd_cdc_core.c ****   
 452:USB/core/usbd_cdc_core.c ****   pbuf = (uint8_t *)USBD_DeviceDesc;
 453:USB/core/usbd_cdc_core.c ****   pbuf[4] = DEVICE_CLASS_CDC;
 454:USB/core/usbd_cdc_core.c ****   pbuf[5] = DEVICE_SUBCLASS_CDC;
 455:USB/core/usbd_cdc_core.c ****   
 456:USB/core/usbd_cdc_core.c ****   /* Initialize the Interface physical components */
 457:USB/core/usbd_cdc_core.c ****   APP_FOPS.pIf_Init();
 458:USB/core/usbd_cdc_core.c **** 
 459:USB/core/usbd_cdc_core.c ****   /* Prepare Out endpoint to receive next packet */
 460:USB/core/usbd_cdc_core.c ****   DCD_EP_PrepareRx(pdev,
 461:USB/core/usbd_cdc_core.c ****                    CDC_OUT_EP,
 462:USB/core/usbd_cdc_core.c ****                    (uint8_t*)(USB_Rx_Buffer),
 463:USB/core/usbd_cdc_core.c ****                    CDC_DATA_OUT_PACKET_SIZE);
 464:USB/core/usbd_cdc_core.c ****   
 465:USB/core/usbd_cdc_core.c ****   return USBD_OK;
 466:USB/core/usbd_cdc_core.c **** }
 467:USB/core/usbd_cdc_core.c **** 
 468:USB/core/usbd_cdc_core.c **** /**
 469:USB/core/usbd_cdc_core.c ****   * @brief  usbd_cdc_Init
 470:USB/core/usbd_cdc_core.c ****   *         DeInitialize the CDC layer
 471:USB/core/usbd_cdc_core.c ****   * @param  pdev: device instance
 472:USB/core/usbd_cdc_core.c ****   * @param  cfgidx: Configuration index
 473:USB/core/usbd_cdc_core.c ****   * @retval status
 474:USB/core/usbd_cdc_core.c ****   */
 475:USB/core/usbd_cdc_core.c **** static uint8_t  usbd_cdc_DeInit (void  *pdev, 
 476:USB/core/usbd_cdc_core.c ****                                  uint8_t cfgidx)
 477:USB/core/usbd_cdc_core.c **** {
 478:USB/core/usbd_cdc_core.c ****   /* Open EP IN */
 479:USB/core/usbd_cdc_core.c ****   DCD_EP_Close(pdev,
 480:USB/core/usbd_cdc_core.c ****               CDC_IN_EP);
 481:USB/core/usbd_cdc_core.c ****   
 482:USB/core/usbd_cdc_core.c ****   /* Open EP OUT */
 483:USB/core/usbd_cdc_core.c ****   DCD_EP_Close(pdev,
 484:USB/core/usbd_cdc_core.c ****               CDC_OUT_EP);
 485:USB/core/usbd_cdc_core.c ****   
 486:USB/core/usbd_cdc_core.c ****   /* Open Command IN EP */
ARM GAS  /var/folders/lx/hc4sn_b53233_zkc9xbbl97r0000gp/T//ccIc9UPI.s 			page 10


 487:USB/core/usbd_cdc_core.c ****   DCD_EP_Close(pdev,
 488:USB/core/usbd_cdc_core.c ****               CDC_CMD_EP);
 489:USB/core/usbd_cdc_core.c **** 
 490:USB/core/usbd_cdc_core.c ****   /* Restore default state of the Interface physical components */
 491:USB/core/usbd_cdc_core.c ****   APP_FOPS.pIf_DeInit();
 492:USB/core/usbd_cdc_core.c ****   
 493:USB/core/usbd_cdc_core.c ****   return USBD_OK;
 494:USB/core/usbd_cdc_core.c **** }
 495:USB/core/usbd_cdc_core.c **** 
 496:USB/core/usbd_cdc_core.c **** /**
 497:USB/core/usbd_cdc_core.c ****   * @brief  usbd_cdc_Setup
 498:USB/core/usbd_cdc_core.c ****   *         Handle the CDC specific requests
 499:USB/core/usbd_cdc_core.c ****   * @param  pdev: instance
 500:USB/core/usbd_cdc_core.c ****   * @param  req: usb requests
 501:USB/core/usbd_cdc_core.c ****   * @retval status
 502:USB/core/usbd_cdc_core.c ****   */
 503:USB/core/usbd_cdc_core.c **** static uint8_t  usbd_cdc_Setup (void  *pdev, 
 504:USB/core/usbd_cdc_core.c ****                                 USB_SETUP_REQ *req)
 505:USB/core/usbd_cdc_core.c **** {
 506:USB/core/usbd_cdc_core.c ****   uint16_t len=USB_CDC_DESC_SIZ;
 507:USB/core/usbd_cdc_core.c ****   uint8_t  *pbuf=usbd_cdc_CfgDesc + 9;
 508:USB/core/usbd_cdc_core.c ****   
 509:USB/core/usbd_cdc_core.c ****   switch (req->bmRequest & USB_REQ_TYPE_MASK)
 510:USB/core/usbd_cdc_core.c ****   {
 511:USB/core/usbd_cdc_core.c ****     /* CDC Class Requests -------------------------------*/
 512:USB/core/usbd_cdc_core.c ****   case USB_REQ_TYPE_CLASS :
 513:USB/core/usbd_cdc_core.c ****       /* Check if the request is a data setup packet */
 514:USB/core/usbd_cdc_core.c ****       if (req->wLength)
 515:USB/core/usbd_cdc_core.c ****       {
 516:USB/core/usbd_cdc_core.c ****         /* Check if the request is Device-to-Host */
 517:USB/core/usbd_cdc_core.c ****         if (req->bmRequest & 0x80)
 518:USB/core/usbd_cdc_core.c ****         {
 519:USB/core/usbd_cdc_core.c ****           /* Get the data to be sent to Host from interface layer */
 520:USB/core/usbd_cdc_core.c ****           APP_FOPS.pIf_Ctrl(req->bRequest, CmdBuff, req->wLength);
 521:USB/core/usbd_cdc_core.c ****           
 522:USB/core/usbd_cdc_core.c ****           /* Send the data to the host */
 523:USB/core/usbd_cdc_core.c ****           USBD_CtlSendData (pdev, 
 524:USB/core/usbd_cdc_core.c ****                             CmdBuff,
 525:USB/core/usbd_cdc_core.c ****                             req->wLength);          
 526:USB/core/usbd_cdc_core.c ****         }
 527:USB/core/usbd_cdc_core.c ****         else /* Host-to-Device requeset */
 528:USB/core/usbd_cdc_core.c ****         {
 529:USB/core/usbd_cdc_core.c ****           /* Set the value of the current command to be processed */
 530:USB/core/usbd_cdc_core.c ****           cdcCmd = req->bRequest;
 531:USB/core/usbd_cdc_core.c ****           cdcLen = req->wLength;
 532:USB/core/usbd_cdc_core.c ****           
 533:USB/core/usbd_cdc_core.c ****           /* Prepare the reception of the buffer over EP0
 534:USB/core/usbd_cdc_core.c ****           Next step: the received data will be managed in usbd_cdc_EP0_TxSent() 
 535:USB/core/usbd_cdc_core.c ****           function. */
 536:USB/core/usbd_cdc_core.c ****           USBD_CtlPrepareRx (pdev,
 537:USB/core/usbd_cdc_core.c ****                              CmdBuff,
 538:USB/core/usbd_cdc_core.c ****                              req->wLength);          
 539:USB/core/usbd_cdc_core.c ****         }
 540:USB/core/usbd_cdc_core.c ****       }
 541:USB/core/usbd_cdc_core.c ****       else /* No Data request */
 542:USB/core/usbd_cdc_core.c ****       {
 543:USB/core/usbd_cdc_core.c ****         /* Transfer the command to the interface layer */
ARM GAS  /var/folders/lx/hc4sn_b53233_zkc9xbbl97r0000gp/T//ccIc9UPI.s 			page 11


 544:USB/core/usbd_cdc_core.c ****         APP_FOPS.pIf_Ctrl(req->bRequest, NULL, 0);
 545:USB/core/usbd_cdc_core.c ****       }
 546:USB/core/usbd_cdc_core.c ****       
 547:USB/core/usbd_cdc_core.c ****       return USBD_OK;
 548:USB/core/usbd_cdc_core.c ****       
 549:USB/core/usbd_cdc_core.c ****     default:
 550:USB/core/usbd_cdc_core.c ****       USBD_CtlError (pdev, req);
 551:USB/core/usbd_cdc_core.c ****       return USBD_FAIL;
 552:USB/core/usbd_cdc_core.c ****     
 553:USB/core/usbd_cdc_core.c ****       
 554:USB/core/usbd_cdc_core.c ****       
 555:USB/core/usbd_cdc_core.c ****     /* Standard Requests -------------------------------*/
 556:USB/core/usbd_cdc_core.c ****   case USB_REQ_TYPE_STANDARD:
 557:USB/core/usbd_cdc_core.c ****     switch (req->bRequest)
 558:USB/core/usbd_cdc_core.c ****     {
 559:USB/core/usbd_cdc_core.c ****     case USB_REQ_GET_DESCRIPTOR: 
 560:USB/core/usbd_cdc_core.c ****       if( (req->wValue >> 8) == CDC_DESCRIPTOR_TYPE)
 561:USB/core/usbd_cdc_core.c ****       {
 562:USB/core/usbd_cdc_core.c **** #ifdef USB_OTG_HS_INTERNAL_DMA_ENABLED
 563:USB/core/usbd_cdc_core.c ****         pbuf = usbd_cdc_Desc;   
 564:USB/core/usbd_cdc_core.c **** #else
 565:USB/core/usbd_cdc_core.c ****         pbuf = usbd_cdc_CfgDesc + 9 + (9 * USBD_ITF_MAX_NUM);
 566:USB/core/usbd_cdc_core.c **** #endif 
 567:USB/core/usbd_cdc_core.c ****         len = MIN(USB_CDC_DESC_SIZ , req->wLength);
 568:USB/core/usbd_cdc_core.c ****       }
 569:USB/core/usbd_cdc_core.c ****       
 570:USB/core/usbd_cdc_core.c ****       USBD_CtlSendData (pdev, 
 571:USB/core/usbd_cdc_core.c ****                         pbuf,
 572:USB/core/usbd_cdc_core.c ****                         len);
 573:USB/core/usbd_cdc_core.c ****       break;
 574:USB/core/usbd_cdc_core.c ****       
 575:USB/core/usbd_cdc_core.c ****     case USB_REQ_GET_INTERFACE :
 576:USB/core/usbd_cdc_core.c ****       USBD_CtlSendData (pdev,
 577:USB/core/usbd_cdc_core.c ****                         (uint8_t *)&usbd_cdc_AltSet,
 578:USB/core/usbd_cdc_core.c ****                         1);
 579:USB/core/usbd_cdc_core.c ****       break;
 580:USB/core/usbd_cdc_core.c ****       
 581:USB/core/usbd_cdc_core.c ****     case USB_REQ_SET_INTERFACE :
 582:USB/core/usbd_cdc_core.c ****       if ((uint8_t)(req->wValue) < USBD_ITF_MAX_NUM)
 583:USB/core/usbd_cdc_core.c ****       {
 584:USB/core/usbd_cdc_core.c ****         usbd_cdc_AltSet = (uint8_t)(req->wValue);
 585:USB/core/usbd_cdc_core.c ****       }
 586:USB/core/usbd_cdc_core.c ****       else
 587:USB/core/usbd_cdc_core.c ****       {
 588:USB/core/usbd_cdc_core.c ****         /* Call the error management function (command will be nacked */
 589:USB/core/usbd_cdc_core.c ****         USBD_CtlError (pdev, req);
 590:USB/core/usbd_cdc_core.c ****       }
 591:USB/core/usbd_cdc_core.c ****       break;
 592:USB/core/usbd_cdc_core.c ****     }
 593:USB/core/usbd_cdc_core.c ****   }
 594:USB/core/usbd_cdc_core.c ****   return USBD_OK;
 595:USB/core/usbd_cdc_core.c **** }
 596:USB/core/usbd_cdc_core.c **** 
 597:USB/core/usbd_cdc_core.c **** /**
 598:USB/core/usbd_cdc_core.c ****   * @brief  usbd_cdc_EP0_RxReady
 599:USB/core/usbd_cdc_core.c ****   *         Data received on control endpoint
 600:USB/core/usbd_cdc_core.c ****   * @param  pdev: device device instance
ARM GAS  /var/folders/lx/hc4sn_b53233_zkc9xbbl97r0000gp/T//ccIc9UPI.s 			page 12


 601:USB/core/usbd_cdc_core.c ****   * @retval status
 602:USB/core/usbd_cdc_core.c ****   */
 603:USB/core/usbd_cdc_core.c **** static uint8_t  usbd_cdc_EP0_RxReady (void  *pdev)
 604:USB/core/usbd_cdc_core.c **** { 
  29              		.loc 1 604 1 view -0
  30              		.cfi_startproc
  31              		@ args = 0, pretend = 0, frame = 0
  32              		@ frame_needed = 0, uses_anonymous_args = 0
  33              		.loc 1 604 1 is_stmt 0 view .LVU1
  34 0000 08B5     		push	{r3, lr}
  35              	.LCFI0:
  36              		.cfi_def_cfa_offset 8
  37              		.cfi_offset 3, -8
  38              		.cfi_offset 14, -4
 605:USB/core/usbd_cdc_core.c ****   if (cdcCmd != NO_CMD)
  39              		.loc 1 605 3 is_stmt 1 view .LVU2
  40              		.loc 1 605 14 is_stmt 0 view .LVU3
  41 0002 074B     		ldr	r3, .L4
  42 0004 1868     		ldr	r0, [r3]
  43              	.LVL1:
  44              		.loc 1 605 6 view .LVU4
  45 0006 FF28     		cmp	r0, #255
  46 0008 08D0     		beq	.L2
 606:USB/core/usbd_cdc_core.c ****   {
 607:USB/core/usbd_cdc_core.c ****     /* Process the data */
 608:USB/core/usbd_cdc_core.c ****     APP_FOPS.pIf_Ctrl(cdcCmd, CmdBuff, cdcLen);
  47              		.loc 1 608 5 is_stmt 1 view .LVU5
  48              		.loc 1 608 13 is_stmt 0 view .LVU6
  49 000a 064B     		ldr	r3, .L4+4
  50 000c 9B68     		ldr	r3, [r3, #8]
  51              		.loc 1 608 5 view .LVU7
  52 000e 064A     		ldr	r2, .L4+8
  53 0010 1268     		ldr	r2, [r2]
  54 0012 0649     		ldr	r1, .L4+12
  55 0014 9847     		blx	r3
  56              	.LVL2:
 609:USB/core/usbd_cdc_core.c ****     
 610:USB/core/usbd_cdc_core.c ****     /* Reset the command variable to default value */
 611:USB/core/usbd_cdc_core.c ****     cdcCmd = NO_CMD;
  57              		.loc 1 611 5 is_stmt 1 view .LVU8
  58              		.loc 1 611 12 is_stmt 0 view .LVU9
  59 0016 024B     		ldr	r3, .L4
  60 0018 FF22     		movs	r2, #255
  61 001a 1A60     		str	r2, [r3]
  62              	.L2:
 612:USB/core/usbd_cdc_core.c ****   }
 613:USB/core/usbd_cdc_core.c ****   
 614:USB/core/usbd_cdc_core.c ****   return USBD_OK;
  63              		.loc 1 614 3 is_stmt 1 view .LVU10
 615:USB/core/usbd_cdc_core.c **** }
  64              		.loc 1 615 1 is_stmt 0 view .LVU11
  65 001c 0020     		movs	r0, #0
  66 001e 08BD     		pop	{r3, pc}
  67              	.L5:
  68              		.align	2
  69              	.L4:
  70 0020 00000000 		.word	.LANCHOR0
ARM GAS  /var/folders/lx/hc4sn_b53233_zkc9xbbl97r0000gp/T//ccIc9UPI.s 			page 13


  71 0024 00000000 		.word	VCP_fops
  72 0028 00000000 		.word	.LANCHOR1
  73 002c 00000000 		.word	.LANCHOR2
  74              		.cfi_endproc
  75              	.LFE129:
  77              		.section	.text.USBD_cdc_GetCfgDesc,"ax",%progbits
  78              		.align	1
  79              		.syntax unified
  80              		.thumb
  81              		.thumb_func
  82              		.fpu fpv4-sp-d16
  84              	USBD_cdc_GetCfgDesc:
  85              	.LVL3:
  86              	.LFB134:
 616:USB/core/usbd_cdc_core.c **** 
 617:USB/core/usbd_cdc_core.c **** /**
 618:USB/core/usbd_cdc_core.c ****   * @brief  usbd_audio_DataIn
 619:USB/core/usbd_cdc_core.c ****   *         Data sent on non-control IN endpoint
 620:USB/core/usbd_cdc_core.c ****   * @param  pdev: device instance
 621:USB/core/usbd_cdc_core.c ****   * @param  epnum: endpoint number
 622:USB/core/usbd_cdc_core.c ****   * @retval status
 623:USB/core/usbd_cdc_core.c ****   */
 624:USB/core/usbd_cdc_core.c **** static uint8_t  usbd_cdc_DataIn (void *pdev, uint8_t epnum)
 625:USB/core/usbd_cdc_core.c **** {
 626:USB/core/usbd_cdc_core.c ****   uint16_t USB_Tx_ptr;
 627:USB/core/usbd_cdc_core.c ****   uint16_t USB_Tx_length;
 628:USB/core/usbd_cdc_core.c **** 
 629:USB/core/usbd_cdc_core.c ****   if (USB_Tx_State == 1)
 630:USB/core/usbd_cdc_core.c ****   {
 631:USB/core/usbd_cdc_core.c ****     if (APP_Rx_length == 0) 
 632:USB/core/usbd_cdc_core.c ****     {
 633:USB/core/usbd_cdc_core.c ****       USB_Tx_State = 0;
 634:USB/core/usbd_cdc_core.c ****     }
 635:USB/core/usbd_cdc_core.c ****     else 
 636:USB/core/usbd_cdc_core.c ****     {
 637:USB/core/usbd_cdc_core.c ****       if (APP_Rx_length > CDC_DATA_IN_PACKET_SIZE){
 638:USB/core/usbd_cdc_core.c ****         USB_Tx_ptr = APP_Rx_ptr_out;
 639:USB/core/usbd_cdc_core.c ****         USB_Tx_length = CDC_DATA_IN_PACKET_SIZE;
 640:USB/core/usbd_cdc_core.c ****         
 641:USB/core/usbd_cdc_core.c ****         APP_Rx_ptr_out += CDC_DATA_IN_PACKET_SIZE;
 642:USB/core/usbd_cdc_core.c ****         APP_Rx_length -= CDC_DATA_IN_PACKET_SIZE;    
 643:USB/core/usbd_cdc_core.c ****       }
 644:USB/core/usbd_cdc_core.c ****       else 
 645:USB/core/usbd_cdc_core.c ****       {
 646:USB/core/usbd_cdc_core.c ****         USB_Tx_ptr = APP_Rx_ptr_out;
 647:USB/core/usbd_cdc_core.c ****         USB_Tx_length = APP_Rx_length;
 648:USB/core/usbd_cdc_core.c ****         
 649:USB/core/usbd_cdc_core.c ****         APP_Rx_ptr_out += APP_Rx_length;
 650:USB/core/usbd_cdc_core.c ****         APP_Rx_length = 0;
 651:USB/core/usbd_cdc_core.c ****       }
 652:USB/core/usbd_cdc_core.c ****       
 653:USB/core/usbd_cdc_core.c ****       /* Prepare the available data buffer to be sent on IN endpoint */
 654:USB/core/usbd_cdc_core.c ****       DCD_EP_Tx (pdev,
 655:USB/core/usbd_cdc_core.c ****                  CDC_IN_EP,
 656:USB/core/usbd_cdc_core.c ****                  (uint8_t*)&APP_Rx_Buffer[USB_Tx_ptr],
 657:USB/core/usbd_cdc_core.c ****                  USB_Tx_length);
 658:USB/core/usbd_cdc_core.c ****     }
ARM GAS  /var/folders/lx/hc4sn_b53233_zkc9xbbl97r0000gp/T//ccIc9UPI.s 			page 14


 659:USB/core/usbd_cdc_core.c ****   }  
 660:USB/core/usbd_cdc_core.c ****   
 661:USB/core/usbd_cdc_core.c ****   return USBD_OK;
 662:USB/core/usbd_cdc_core.c **** }
 663:USB/core/usbd_cdc_core.c **** 
 664:USB/core/usbd_cdc_core.c **** /**
 665:USB/core/usbd_cdc_core.c ****   * @brief  usbd_cdc_DataOut
 666:USB/core/usbd_cdc_core.c ****   *         Data received on non-control Out endpoint
 667:USB/core/usbd_cdc_core.c ****   * @param  pdev: device instance
 668:USB/core/usbd_cdc_core.c ****   * @param  epnum: endpoint number
 669:USB/core/usbd_cdc_core.c ****   * @retval status
 670:USB/core/usbd_cdc_core.c ****   */
 671:USB/core/usbd_cdc_core.c **** static uint8_t  usbd_cdc_DataOut (void *pdev, uint8_t epnum)
 672:USB/core/usbd_cdc_core.c **** {      
 673:USB/core/usbd_cdc_core.c ****   uint16_t USB_Rx_Cnt;
 674:USB/core/usbd_cdc_core.c ****   
 675:USB/core/usbd_cdc_core.c ****   /* Get the received data buffer and update the counter */
 676:USB/core/usbd_cdc_core.c ****   USB_Rx_Cnt = ((USB_OTG_CORE_HANDLE*)pdev)->dev.out_ep[epnum].xfer_count;
 677:USB/core/usbd_cdc_core.c ****   
 678:USB/core/usbd_cdc_core.c ****   /* USB data will be immediately processed, this allow next USB traffic being 
 679:USB/core/usbd_cdc_core.c ****      NAKed till the end of the application Xfer */
 680:USB/core/usbd_cdc_core.c ****   APP_FOPS.pIf_DataRx(USB_Rx_Buffer, USB_Rx_Cnt);
 681:USB/core/usbd_cdc_core.c ****   
 682:USB/core/usbd_cdc_core.c ****   /* Prepare Out endpoint to receive next packet */
 683:USB/core/usbd_cdc_core.c ****   DCD_EP_PrepareRx(pdev,
 684:USB/core/usbd_cdc_core.c ****                    CDC_OUT_EP,
 685:USB/core/usbd_cdc_core.c ****                    (uint8_t*)(USB_Rx_Buffer),
 686:USB/core/usbd_cdc_core.c ****                    CDC_DATA_OUT_PACKET_SIZE);
 687:USB/core/usbd_cdc_core.c **** 
 688:USB/core/usbd_cdc_core.c ****   return USBD_OK;
 689:USB/core/usbd_cdc_core.c **** }
 690:USB/core/usbd_cdc_core.c **** 
 691:USB/core/usbd_cdc_core.c **** /**
 692:USB/core/usbd_cdc_core.c ****   * @brief  usbd_audio_SOF
 693:USB/core/usbd_cdc_core.c ****   *         Start Of Frame event management
 694:USB/core/usbd_cdc_core.c ****   * @param  pdev: instance
 695:USB/core/usbd_cdc_core.c ****   * @param  epnum: endpoint number
 696:USB/core/usbd_cdc_core.c ****   * @retval status
 697:USB/core/usbd_cdc_core.c ****   */
 698:USB/core/usbd_cdc_core.c **** static uint8_t  usbd_cdc_SOF (void *pdev)
 699:USB/core/usbd_cdc_core.c **** {      
 700:USB/core/usbd_cdc_core.c ****   static uint32_t FrameCount = 0;
 701:USB/core/usbd_cdc_core.c ****   
 702:USB/core/usbd_cdc_core.c ****   if (FrameCount++ == CDC_IN_FRAME_INTERVAL)
 703:USB/core/usbd_cdc_core.c ****   {
 704:USB/core/usbd_cdc_core.c ****     /* Reset the frame counter */
 705:USB/core/usbd_cdc_core.c ****     FrameCount = 0;
 706:USB/core/usbd_cdc_core.c ****     
 707:USB/core/usbd_cdc_core.c ****     /* Check the data to be sent through IN pipe */
 708:USB/core/usbd_cdc_core.c ****     Handle_USBAsynchXfer(pdev);
 709:USB/core/usbd_cdc_core.c ****   }
 710:USB/core/usbd_cdc_core.c ****   
 711:USB/core/usbd_cdc_core.c ****   return USBD_OK;
 712:USB/core/usbd_cdc_core.c **** }
 713:USB/core/usbd_cdc_core.c **** 
 714:USB/core/usbd_cdc_core.c **** /**
 715:USB/core/usbd_cdc_core.c ****   * @brief  Handle_USBAsynchXfer
ARM GAS  /var/folders/lx/hc4sn_b53233_zkc9xbbl97r0000gp/T//ccIc9UPI.s 			page 15


 716:USB/core/usbd_cdc_core.c ****   *         Send data to USB
 717:USB/core/usbd_cdc_core.c ****   * @param  pdev: instance
 718:USB/core/usbd_cdc_core.c ****   * @retval None
 719:USB/core/usbd_cdc_core.c ****   */
 720:USB/core/usbd_cdc_core.c **** static void Handle_USBAsynchXfer (void *pdev)
 721:USB/core/usbd_cdc_core.c **** {
 722:USB/core/usbd_cdc_core.c ****   uint16_t USB_Tx_ptr;
 723:USB/core/usbd_cdc_core.c ****   uint16_t USB_Tx_length;
 724:USB/core/usbd_cdc_core.c ****   
 725:USB/core/usbd_cdc_core.c ****   if(USB_Tx_State != 1)
 726:USB/core/usbd_cdc_core.c ****   {
 727:USB/core/usbd_cdc_core.c ****     if (APP_Rx_ptr_out == APP_RX_DATA_SIZE)
 728:USB/core/usbd_cdc_core.c ****     {
 729:USB/core/usbd_cdc_core.c ****       APP_Rx_ptr_out = 0;
 730:USB/core/usbd_cdc_core.c ****     }
 731:USB/core/usbd_cdc_core.c ****     
 732:USB/core/usbd_cdc_core.c ****     if(APP_Rx_ptr_out == APP_Rx_ptr_in) 
 733:USB/core/usbd_cdc_core.c ****     {
 734:USB/core/usbd_cdc_core.c ****       USB_Tx_State = 0; 
 735:USB/core/usbd_cdc_core.c ****       return;
 736:USB/core/usbd_cdc_core.c ****     }
 737:USB/core/usbd_cdc_core.c ****     
 738:USB/core/usbd_cdc_core.c ****     if(APP_Rx_ptr_out > APP_Rx_ptr_in) /* rollback */
 739:USB/core/usbd_cdc_core.c ****     { 
 740:USB/core/usbd_cdc_core.c ****       APP_Rx_length = APP_RX_DATA_SIZE - APP_Rx_ptr_out;
 741:USB/core/usbd_cdc_core.c ****     
 742:USB/core/usbd_cdc_core.c ****     }
 743:USB/core/usbd_cdc_core.c ****     else 
 744:USB/core/usbd_cdc_core.c ****     {
 745:USB/core/usbd_cdc_core.c ****       APP_Rx_length = APP_Rx_ptr_in - APP_Rx_ptr_out;
 746:USB/core/usbd_cdc_core.c ****      
 747:USB/core/usbd_cdc_core.c ****     }
 748:USB/core/usbd_cdc_core.c **** #ifdef USB_OTG_HS_INTERNAL_DMA_ENABLED
 749:USB/core/usbd_cdc_core.c ****      APP_Rx_length &= ~0x03;
 750:USB/core/usbd_cdc_core.c **** #endif /* USB_OTG_HS_INTERNAL_DMA_ENABLED */
 751:USB/core/usbd_cdc_core.c ****     
 752:USB/core/usbd_cdc_core.c ****     if (APP_Rx_length > CDC_DATA_IN_PACKET_SIZE)
 753:USB/core/usbd_cdc_core.c ****     {
 754:USB/core/usbd_cdc_core.c ****       USB_Tx_ptr = APP_Rx_ptr_out;
 755:USB/core/usbd_cdc_core.c ****       USB_Tx_length = CDC_DATA_IN_PACKET_SIZE;
 756:USB/core/usbd_cdc_core.c ****       
 757:USB/core/usbd_cdc_core.c ****       APP_Rx_ptr_out += CDC_DATA_IN_PACKET_SIZE;	
 758:USB/core/usbd_cdc_core.c ****       APP_Rx_length -= CDC_DATA_IN_PACKET_SIZE;
 759:USB/core/usbd_cdc_core.c ****     }
 760:USB/core/usbd_cdc_core.c ****     else
 761:USB/core/usbd_cdc_core.c ****     {
 762:USB/core/usbd_cdc_core.c ****       USB_Tx_ptr = APP_Rx_ptr_out;
 763:USB/core/usbd_cdc_core.c ****       USB_Tx_length = APP_Rx_length;
 764:USB/core/usbd_cdc_core.c ****       
 765:USB/core/usbd_cdc_core.c ****       APP_Rx_ptr_out += APP_Rx_length;
 766:USB/core/usbd_cdc_core.c ****       APP_Rx_length = 0;
 767:USB/core/usbd_cdc_core.c ****     }
 768:USB/core/usbd_cdc_core.c ****     USB_Tx_State = 1; 
 769:USB/core/usbd_cdc_core.c **** 
 770:USB/core/usbd_cdc_core.c ****     DCD_EP_Tx (pdev,
 771:USB/core/usbd_cdc_core.c ****                CDC_IN_EP,
 772:USB/core/usbd_cdc_core.c ****                (uint8_t*)&APP_Rx_Buffer[USB_Tx_ptr],
ARM GAS  /var/folders/lx/hc4sn_b53233_zkc9xbbl97r0000gp/T//ccIc9UPI.s 			page 16


 773:USB/core/usbd_cdc_core.c ****                USB_Tx_length);
 774:USB/core/usbd_cdc_core.c ****   }  
 775:USB/core/usbd_cdc_core.c ****   
 776:USB/core/usbd_cdc_core.c **** }
 777:USB/core/usbd_cdc_core.c **** 
 778:USB/core/usbd_cdc_core.c **** /**
 779:USB/core/usbd_cdc_core.c ****   * @brief  USBD_cdc_GetCfgDesc 
 780:USB/core/usbd_cdc_core.c ****   *         Return configuration descriptor
 781:USB/core/usbd_cdc_core.c ****   * @param  speed : current device speed
 782:USB/core/usbd_cdc_core.c ****   * @param  length : pointer data length
 783:USB/core/usbd_cdc_core.c ****   * @retval pointer to descriptor buffer
 784:USB/core/usbd_cdc_core.c ****   */
 785:USB/core/usbd_cdc_core.c **** static uint8_t  *USBD_cdc_GetCfgDesc (uint8_t speed, uint16_t *length)
 786:USB/core/usbd_cdc_core.c **** {
  87              		.loc 1 786 1 is_stmt 1 view -0
  88              		.cfi_startproc
  89              		@ args = 0, pretend = 0, frame = 0
  90              		@ frame_needed = 0, uses_anonymous_args = 0
  91              		@ link register save eliminated.
 787:USB/core/usbd_cdc_core.c ****   *length = sizeof (usbd_cdc_CfgDesc);
  92              		.loc 1 787 3 view .LVU13
  93              		.loc 1 787 11 is_stmt 0 view .LVU14
  94 0000 4323     		movs	r3, #67
  95 0002 0B80     		strh	r3, [r1]	@ movhi
 788:USB/core/usbd_cdc_core.c ****   return usbd_cdc_CfgDesc;
  96              		.loc 1 788 3 is_stmt 1 view .LVU15
 789:USB/core/usbd_cdc_core.c **** }
  97              		.loc 1 789 1 is_stmt 0 view .LVU16
  98 0004 0048     		ldr	r0, .L7
  99              	.LVL4:
 100              		.loc 1 789 1 view .LVU17
 101 0006 7047     		bx	lr
 102              	.L8:
 103              		.align	2
 104              	.L7:
 105 0008 00000000 		.word	.LANCHOR3
 106              		.cfi_endproc
 107              	.LFE134:
 109              		.section	.text.Handle_USBAsynchXfer,"ax",%progbits
 110              		.align	1
 111              		.syntax unified
 112              		.thumb
 113              		.thumb_func
 114              		.fpu fpv4-sp-d16
 116              	Handle_USBAsynchXfer:
 117              	.LVL5:
 118              	.LFB133:
 721:USB/core/usbd_cdc_core.c ****   uint16_t USB_Tx_ptr;
 119              		.loc 1 721 1 is_stmt 1 view -0
 120              		.cfi_startproc
 121              		@ args = 0, pretend = 0, frame = 0
 122              		@ frame_needed = 0, uses_anonymous_args = 0
 722:USB/core/usbd_cdc_core.c ****   uint16_t USB_Tx_length;
 123              		.loc 1 722 3 view .LVU19
 723:USB/core/usbd_cdc_core.c ****   
 124              		.loc 1 723 3 view .LVU20
 725:USB/core/usbd_cdc_core.c ****   {
ARM GAS  /var/folders/lx/hc4sn_b53233_zkc9xbbl97r0000gp/T//ccIc9UPI.s 			page 17


 125              		.loc 1 725 3 view .LVU21
 725:USB/core/usbd_cdc_core.c ****   {
 126              		.loc 1 725 19 is_stmt 0 view .LVU22
 127 0000 214B     		ldr	r3, .L22
 128 0002 1B78     		ldrb	r3, [r3]	@ zero_extendqisi2
 725:USB/core/usbd_cdc_core.c ****   {
 129              		.loc 1 725 5 view .LVU23
 130 0004 012B     		cmp	r3, #1
 131 0006 3DD0     		beq	.L18
 727:USB/core/usbd_cdc_core.c ****     {
 132              		.loc 1 727 5 is_stmt 1 view .LVU24
 727:USB/core/usbd_cdc_core.c ****     {
 133              		.loc 1 727 24 is_stmt 0 view .LVU25
 134 0008 204B     		ldr	r3, .L22+4
 135 000a 1B68     		ldr	r3, [r3]
 727:USB/core/usbd_cdc_core.c ****     {
 136              		.loc 1 727 8 view .LVU26
 137 000c B3F5006F 		cmp	r3, #2048
 138 0010 22D0     		beq	.L20
 139              	.L11:
 732:USB/core/usbd_cdc_core.c ****     {
 140              		.loc 1 732 5 is_stmt 1 view .LVU27
 732:USB/core/usbd_cdc_core.c ****     {
 141              		.loc 1 732 23 is_stmt 0 view .LVU28
 142 0012 1E4B     		ldr	r3, .L22+4
 143 0014 1968     		ldr	r1, [r3]
 144 0016 1E4B     		ldr	r3, .L22+8
 145 0018 1B68     		ldr	r3, [r3]
 732:USB/core/usbd_cdc_core.c ****     {
 146              		.loc 1 732 7 view .LVU29
 147 001a 9942     		cmp	r1, r3
 148 001c 20D0     		beq	.L21
 721:USB/core/usbd_cdc_core.c ****   uint16_t USB_Tx_ptr;
 149              		.loc 1 721 1 view .LVU30
 150 001e 10B5     		push	{r4, lr}
 151              	.LCFI1:
 152              		.cfi_def_cfa_offset 8
 153              		.cfi_offset 4, -8
 154              		.cfi_offset 14, -4
 738:USB/core/usbd_cdc_core.c ****     { 
 155              		.loc 1 738 5 is_stmt 1 view .LVU31
 738:USB/core/usbd_cdc_core.c ****     { 
 156              		.loc 1 738 7 is_stmt 0 view .LVU32
 157 0020 9942     		cmp	r1, r3
 158 0022 21D9     		bls	.L13
 740:USB/core/usbd_cdc_core.c ****     
 159              		.loc 1 740 7 is_stmt 1 view .LVU33
 740:USB/core/usbd_cdc_core.c ****     
 160              		.loc 1 740 40 is_stmt 0 view .LVU34
 161 0024 C1F50063 		rsb	r3, r1, #2048
 740:USB/core/usbd_cdc_core.c ****     
 162              		.loc 1 740 21 view .LVU35
 163 0028 1A4A     		ldr	r2, .L22+12
 164 002a 1360     		str	r3, [r2]
 165              	.L14:
 752:USB/core/usbd_cdc_core.c ****     {
 166              		.loc 1 752 5 is_stmt 1 view .LVU36
ARM GAS  /var/folders/lx/hc4sn_b53233_zkc9xbbl97r0000gp/T//ccIc9UPI.s 			page 18


 752:USB/core/usbd_cdc_core.c ****     {
 167              		.loc 1 752 23 is_stmt 0 view .LVU37
 168 002c 194B     		ldr	r3, .L22+12
 169 002e 1C68     		ldr	r4, [r3]
 752:USB/core/usbd_cdc_core.c ****     {
 170              		.loc 1 752 8 view .LVU38
 171 0030 402C     		cmp	r4, #64
 172 0032 1DD9     		bls	.L15
 754:USB/core/usbd_cdc_core.c ****       USB_Tx_length = CDC_DATA_IN_PACKET_SIZE;
 173              		.loc 1 754 7 is_stmt 1 view .LVU39
 754:USB/core/usbd_cdc_core.c ****       USB_Tx_length = CDC_DATA_IN_PACKET_SIZE;
 174              		.loc 1 754 18 is_stmt 0 view .LVU40
 175 0034 1FFA81FC 		uxth	ip, r1
 176              	.LVL6:
 755:USB/core/usbd_cdc_core.c ****       
 177              		.loc 1 755 7 is_stmt 1 view .LVU41
 757:USB/core/usbd_cdc_core.c ****       APP_Rx_length -= CDC_DATA_IN_PACKET_SIZE;
 178              		.loc 1 757 7 view .LVU42
 757:USB/core/usbd_cdc_core.c ****       APP_Rx_length -= CDC_DATA_IN_PACKET_SIZE;
 179              		.loc 1 757 22 is_stmt 0 view .LVU43
 180 0038 4031     		adds	r1, r1, #64
 181 003a 144B     		ldr	r3, .L22+4
 182 003c 1960     		str	r1, [r3]
 758:USB/core/usbd_cdc_core.c ****     }
 183              		.loc 1 758 7 is_stmt 1 view .LVU44
 758:USB/core/usbd_cdc_core.c ****     }
 184              		.loc 1 758 21 is_stmt 0 view .LVU45
 185 003e 403C     		subs	r4, r4, #64
 186 0040 144B     		ldr	r3, .L22+12
 187 0042 1C60     		str	r4, [r3]
 755:USB/core/usbd_cdc_core.c ****       
 188              		.loc 1 755 21 view .LVU46
 189 0044 4023     		movs	r3, #64
 190              	.LVL7:
 191              	.L16:
 768:USB/core/usbd_cdc_core.c **** 
 192              		.loc 1 768 5 is_stmt 1 view .LVU47
 768:USB/core/usbd_cdc_core.c **** 
 193              		.loc 1 768 18 is_stmt 0 view .LVU48
 194 0046 1049     		ldr	r1, .L22
 195 0048 0124     		movs	r4, #1
 196 004a 0C70     		strb	r4, [r1]
 770:USB/core/usbd_cdc_core.c ****                CDC_IN_EP,
 197              		.loc 1 770 5 is_stmt 1 view .LVU49
 198 004c 124A     		ldr	r2, .L22+16
 199 004e 6244     		add	r2, r2, ip
 200 0050 8121     		movs	r1, #129
 201 0052 FFF7FEFF 		bl	DCD_EP_Tx
 202              	.LVL8:
 776:USB/core/usbd_cdc_core.c **** 
 203              		.loc 1 776 1 is_stmt 0 view .LVU50
 204 0056 10BD     		pop	{r4, pc}
 205              	.LVL9:
 206              	.L20:
 207              	.LCFI2:
 208              		.cfi_def_cfa_offset 0
 209              		.cfi_restore 4
ARM GAS  /var/folders/lx/hc4sn_b53233_zkc9xbbl97r0000gp/T//ccIc9UPI.s 			page 19


 210              		.cfi_restore 14
 729:USB/core/usbd_cdc_core.c ****     }
 211              		.loc 1 729 7 is_stmt 1 view .LVU51
 729:USB/core/usbd_cdc_core.c ****     }
 212              		.loc 1 729 22 is_stmt 0 view .LVU52
 213 0058 0C4B     		ldr	r3, .L22+4
 214 005a 0022     		movs	r2, #0
 215 005c 1A60     		str	r2, [r3]
 216 005e D8E7     		b	.L11
 217              	.L21:
 734:USB/core/usbd_cdc_core.c ****       return;
 218              		.loc 1 734 7 is_stmt 1 view .LVU53
 734:USB/core/usbd_cdc_core.c ****       return;
 219              		.loc 1 734 20 is_stmt 0 view .LVU54
 220 0060 094B     		ldr	r3, .L22
 221 0062 0022     		movs	r2, #0
 222 0064 1A70     		strb	r2, [r3]
 735:USB/core/usbd_cdc_core.c ****     }
 223              		.loc 1 735 7 is_stmt 1 view .LVU55
 224 0066 7047     		bx	lr
 225              	.L13:
 226              	.LCFI3:
 227              		.cfi_def_cfa_offset 8
 228              		.cfi_offset 4, -8
 229              		.cfi_offset 14, -4
 745:USB/core/usbd_cdc_core.c ****      
 230              		.loc 1 745 7 view .LVU56
 745:USB/core/usbd_cdc_core.c ****      
 231              		.loc 1 745 37 is_stmt 0 view .LVU57
 232 0068 5B1A     		subs	r3, r3, r1
 745:USB/core/usbd_cdc_core.c ****      
 233              		.loc 1 745 21 view .LVU58
 234 006a 0A4A     		ldr	r2, .L22+12
 235 006c 1360     		str	r3, [r2]
 236 006e DDE7     		b	.L14
 237              	.L15:
 762:USB/core/usbd_cdc_core.c ****       USB_Tx_length = APP_Rx_length;
 238              		.loc 1 762 7 is_stmt 1 view .LVU59
 762:USB/core/usbd_cdc_core.c ****       USB_Tx_length = APP_Rx_length;
 239              		.loc 1 762 18 is_stmt 0 view .LVU60
 240 0070 1FFA81FC 		uxth	ip, r1
 241              	.LVL10:
 763:USB/core/usbd_cdc_core.c ****       
 242              		.loc 1 763 7 is_stmt 1 view .LVU61
 763:USB/core/usbd_cdc_core.c ****       
 243              		.loc 1 763 21 is_stmt 0 view .LVU62
 244 0074 A3B2     		uxth	r3, r4
 245              	.LVL11:
 765:USB/core/usbd_cdc_core.c ****       APP_Rx_length = 0;
 246              		.loc 1 765 7 is_stmt 1 view .LVU63
 765:USB/core/usbd_cdc_core.c ****       APP_Rx_length = 0;
 247              		.loc 1 765 22 is_stmt 0 view .LVU64
 248 0076 2144     		add	r1, r1, r4
 249 0078 044A     		ldr	r2, .L22+4
 250 007a 1160     		str	r1, [r2]
 766:USB/core/usbd_cdc_core.c ****     }
 251              		.loc 1 766 7 is_stmt 1 view .LVU65
ARM GAS  /var/folders/lx/hc4sn_b53233_zkc9xbbl97r0000gp/T//ccIc9UPI.s 			page 20


 766:USB/core/usbd_cdc_core.c ****     }
 252              		.loc 1 766 21 is_stmt 0 view .LVU66
 253 007c 054A     		ldr	r2, .L22+12
 254 007e 0021     		movs	r1, #0
 255 0080 1160     		str	r1, [r2]
 256 0082 E0E7     		b	.L16
 257              	.LVL12:
 258              	.L18:
 259              	.LCFI4:
 260              		.cfi_def_cfa_offset 0
 261              		.cfi_restore 4
 262              		.cfi_restore 14
 766:USB/core/usbd_cdc_core.c ****     }
 263              		.loc 1 766 21 view .LVU67
 264 0084 7047     		bx	lr
 265              	.L23:
 266 0086 00BF     		.align	2
 267              	.L22:
 268 0088 00000000 		.word	.LANCHOR4
 269 008c 00000000 		.word	.LANCHOR5
 270 0090 00000000 		.word	.LANCHOR6
 271 0094 00000000 		.word	.LANCHOR7
 272 0098 00000000 		.word	.LANCHOR8
 273              		.cfi_endproc
 274              	.LFE133:
 276              		.section	.text.usbd_cdc_SOF,"ax",%progbits
 277              		.align	1
 278              		.syntax unified
 279              		.thumb
 280              		.thumb_func
 281              		.fpu fpv4-sp-d16
 283              	usbd_cdc_SOF:
 284              	.LVL13:
 285              	.LFB132:
 699:USB/core/usbd_cdc_core.c ****   static uint32_t FrameCount = 0;
 286              		.loc 1 699 1 is_stmt 1 view -0
 287              		.cfi_startproc
 288              		@ args = 0, pretend = 0, frame = 0
 289              		@ frame_needed = 0, uses_anonymous_args = 0
 699:USB/core/usbd_cdc_core.c ****   static uint32_t FrameCount = 0;
 290              		.loc 1 699 1 is_stmt 0 view .LVU69
 291 0000 08B5     		push	{r3, lr}
 292              	.LCFI5:
 293              		.cfi_def_cfa_offset 8
 294              		.cfi_offset 3, -8
 295              		.cfi_offset 14, -4
 700:USB/core/usbd_cdc_core.c ****   
 296              		.loc 1 700 3 is_stmt 1 view .LVU70
 702:USB/core/usbd_cdc_core.c ****   {
 297              		.loc 1 702 3 view .LVU71
 702:USB/core/usbd_cdc_core.c ****   {
 298              		.loc 1 702 17 is_stmt 0 view .LVU72
 299 0002 074A     		ldr	r2, .L28
 300 0004 1368     		ldr	r3, [r2]
 301 0006 591C     		adds	r1, r3, #1
 302 0008 1160     		str	r1, [r2]
 702:USB/core/usbd_cdc_core.c ****   {
ARM GAS  /var/folders/lx/hc4sn_b53233_zkc9xbbl97r0000gp/T//ccIc9UPI.s 			page 21


 303              		.loc 1 702 6 view .LVU73
 304 000a 052B     		cmp	r3, #5
 305 000c 01D0     		beq	.L27
 306              	.LVL14:
 307              	.L25:
 711:USB/core/usbd_cdc_core.c **** }
 308              		.loc 1 711 3 is_stmt 1 view .LVU74
 712:USB/core/usbd_cdc_core.c **** 
 309              		.loc 1 712 1 is_stmt 0 view .LVU75
 310 000e 0020     		movs	r0, #0
 311 0010 08BD     		pop	{r3, pc}
 312              	.LVL15:
 313              	.L27:
 705:USB/core/usbd_cdc_core.c ****     
 314              		.loc 1 705 5 is_stmt 1 view .LVU76
 705:USB/core/usbd_cdc_core.c ****     
 315              		.loc 1 705 16 is_stmt 0 view .LVU77
 316 0012 1346     		mov	r3, r2
 317 0014 0022     		movs	r2, #0
 318 0016 1A60     		str	r2, [r3]
 708:USB/core/usbd_cdc_core.c ****   }
 319              		.loc 1 708 5 is_stmt 1 view .LVU78
 320 0018 FFF7FEFF 		bl	Handle_USBAsynchXfer
 321              	.LVL16:
 708:USB/core/usbd_cdc_core.c ****   }
 322              		.loc 1 708 5 is_stmt 0 view .LVU79
 323 001c F7E7     		b	.L25
 324              	.L29:
 325 001e 00BF     		.align	2
 326              	.L28:
 327 0020 00000000 		.word	.LANCHOR9
 328              		.cfi_endproc
 329              	.LFE132:
 331              		.section	.text.usbd_cdc_DataIn,"ax",%progbits
 332              		.align	1
 333              		.syntax unified
 334              		.thumb
 335              		.thumb_func
 336              		.fpu fpv4-sp-d16
 338              	usbd_cdc_DataIn:
 339              	.LVL17:
 340              	.LFB130:
 625:USB/core/usbd_cdc_core.c ****   uint16_t USB_Tx_ptr;
 341              		.loc 1 625 1 is_stmt 1 view -0
 342              		.cfi_startproc
 343              		@ args = 0, pretend = 0, frame = 0
 344              		@ frame_needed = 0, uses_anonymous_args = 0
 625:USB/core/usbd_cdc_core.c ****   uint16_t USB_Tx_ptr;
 345              		.loc 1 625 1 is_stmt 0 view .LVU81
 346 0000 38B5     		push	{r3, r4, r5, lr}
 347              	.LCFI6:
 348              		.cfi_def_cfa_offset 16
 349              		.cfi_offset 3, -16
 350              		.cfi_offset 4, -12
 351              		.cfi_offset 5, -8
 352              		.cfi_offset 14, -4
 626:USB/core/usbd_cdc_core.c ****   uint16_t USB_Tx_length;
ARM GAS  /var/folders/lx/hc4sn_b53233_zkc9xbbl97r0000gp/T//ccIc9UPI.s 			page 22


 353              		.loc 1 626 3 is_stmt 1 view .LVU82
 627:USB/core/usbd_cdc_core.c **** 
 354              		.loc 1 627 3 view .LVU83
 629:USB/core/usbd_cdc_core.c ****   {
 355              		.loc 1 629 3 view .LVU84
 629:USB/core/usbd_cdc_core.c ****   {
 356              		.loc 1 629 20 is_stmt 0 view .LVU85
 357 0002 144B     		ldr	r3, .L37
 358 0004 1B78     		ldrb	r3, [r3]	@ zero_extendqisi2
 629:USB/core/usbd_cdc_core.c ****   {
 359              		.loc 1 629 6 view .LVU86
 360 0006 012B     		cmp	r3, #1
 361 0008 01D0     		beq	.L36
 362              	.LVL18:
 363              	.L31:
 661:USB/core/usbd_cdc_core.c **** }
 364              		.loc 1 661 3 is_stmt 1 view .LVU87
 662:USB/core/usbd_cdc_core.c **** 
 365              		.loc 1 662 1 is_stmt 0 view .LVU88
 366 000a 0020     		movs	r0, #0
 367 000c 38BD     		pop	{r3, r4, r5, pc}
 368              	.LVL19:
 369              	.L36:
 631:USB/core/usbd_cdc_core.c ****     {
 370              		.loc 1 631 5 is_stmt 1 view .LVU89
 631:USB/core/usbd_cdc_core.c ****     {
 371              		.loc 1 631 23 is_stmt 0 view .LVU90
 372 000e 124B     		ldr	r3, .L37+4
 373 0010 1968     		ldr	r1, [r3]
 374              	.LVL20:
 631:USB/core/usbd_cdc_core.c ****     {
 375              		.loc 1 631 8 view .LVU91
 376 0012 19B9     		cbnz	r1, .L32
 633:USB/core/usbd_cdc_core.c ****     }
 377              		.loc 1 633 7 is_stmt 1 view .LVU92
 633:USB/core/usbd_cdc_core.c ****     }
 378              		.loc 1 633 20 is_stmt 0 view .LVU93
 379 0014 0F4B     		ldr	r3, .L37
 380 0016 0022     		movs	r2, #0
 381 0018 1A70     		strb	r2, [r3]
 382 001a F6E7     		b	.L31
 383              	.L32:
 637:USB/core/usbd_cdc_core.c ****         USB_Tx_ptr = APP_Rx_ptr_out;
 384              		.loc 1 637 7 is_stmt 1 view .LVU94
 637:USB/core/usbd_cdc_core.c ****         USB_Tx_ptr = APP_Rx_ptr_out;
 385              		.loc 1 637 10 is_stmt 0 view .LVU95
 386 001c 4029     		cmp	r1, #64
 387 001e 0ED9     		bls	.L33
 638:USB/core/usbd_cdc_core.c ****         USB_Tx_length = CDC_DATA_IN_PACKET_SIZE;
 388              		.loc 1 638 9 is_stmt 1 view .LVU96
 638:USB/core/usbd_cdc_core.c ****         USB_Tx_length = CDC_DATA_IN_PACKET_SIZE;
 389              		.loc 1 638 20 is_stmt 0 view .LVU97
 390 0020 0E4C     		ldr	r4, .L37+8
 391 0022 2368     		ldr	r3, [r4]
 392 0024 9AB2     		uxth	r2, r3
 393              	.LVL21:
 639:USB/core/usbd_cdc_core.c ****         
ARM GAS  /var/folders/lx/hc4sn_b53233_zkc9xbbl97r0000gp/T//ccIc9UPI.s 			page 23


 394              		.loc 1 639 9 is_stmt 1 view .LVU98
 641:USB/core/usbd_cdc_core.c ****         APP_Rx_length -= CDC_DATA_IN_PACKET_SIZE;    
 395              		.loc 1 641 9 view .LVU99
 641:USB/core/usbd_cdc_core.c ****         APP_Rx_length -= CDC_DATA_IN_PACKET_SIZE;    
 396              		.loc 1 641 24 is_stmt 0 view .LVU100
 397 0026 4033     		adds	r3, r3, #64
 398 0028 2360     		str	r3, [r4]
 642:USB/core/usbd_cdc_core.c ****       }
 399              		.loc 1 642 9 is_stmt 1 view .LVU101
 642:USB/core/usbd_cdc_core.c ****       }
 400              		.loc 1 642 23 is_stmt 0 view .LVU102
 401 002a 4039     		subs	r1, r1, #64
 402 002c 0A4B     		ldr	r3, .L37+4
 403 002e 1960     		str	r1, [r3]
 639:USB/core/usbd_cdc_core.c ****         
 404              		.loc 1 639 23 view .LVU103
 405 0030 4023     		movs	r3, #64
 406              	.LVL22:
 407              	.L34:
 654:USB/core/usbd_cdc_core.c ****                  CDC_IN_EP,
 408              		.loc 1 654 7 is_stmt 1 view .LVU104
 409 0032 0B49     		ldr	r1, .L37+12
 410 0034 0A44     		add	r2, r2, r1
 411              	.LVL23:
 654:USB/core/usbd_cdc_core.c ****                  CDC_IN_EP,
 412              		.loc 1 654 7 is_stmt 0 view .LVU105
 413 0036 8121     		movs	r1, #129
 414 0038 FFF7FEFF 		bl	DCD_EP_Tx
 415              	.LVL24:
 654:USB/core/usbd_cdc_core.c ****                  CDC_IN_EP,
 416              		.loc 1 654 7 view .LVU106
 417 003c E5E7     		b	.L31
 418              	.LVL25:
 419              	.L33:
 646:USB/core/usbd_cdc_core.c ****         USB_Tx_length = APP_Rx_length;
 420              		.loc 1 646 9 is_stmt 1 view .LVU107
 646:USB/core/usbd_cdc_core.c ****         USB_Tx_length = APP_Rx_length;
 421              		.loc 1 646 20 is_stmt 0 view .LVU108
 422 003e 074C     		ldr	r4, .L37+8
 423 0040 2568     		ldr	r5, [r4]
 424 0042 AAB2     		uxth	r2, r5
 425              	.LVL26:
 647:USB/core/usbd_cdc_core.c ****         
 426              		.loc 1 647 9 is_stmt 1 view .LVU109
 647:USB/core/usbd_cdc_core.c ****         
 427              		.loc 1 647 23 is_stmt 0 view .LVU110
 428 0044 8BB2     		uxth	r3, r1
 429              	.LVL27:
 649:USB/core/usbd_cdc_core.c ****         APP_Rx_length = 0;
 430              		.loc 1 649 9 is_stmt 1 view .LVU111
 649:USB/core/usbd_cdc_core.c ****         APP_Rx_length = 0;
 431              		.loc 1 649 24 is_stmt 0 view .LVU112
 432 0046 2944     		add	r1, r1, r5
 433 0048 2160     		str	r1, [r4]
 650:USB/core/usbd_cdc_core.c ****       }
 434              		.loc 1 650 9 is_stmt 1 view .LVU113
 650:USB/core/usbd_cdc_core.c ****       }
ARM GAS  /var/folders/lx/hc4sn_b53233_zkc9xbbl97r0000gp/T//ccIc9UPI.s 			page 24


 435              		.loc 1 650 23 is_stmt 0 view .LVU114
 436 004a 0349     		ldr	r1, .L37+4
 437 004c 0024     		movs	r4, #0
 438 004e 0C60     		str	r4, [r1]
 439 0050 EFE7     		b	.L34
 440              	.L38:
 441 0052 00BF     		.align	2
 442              	.L37:
 443 0054 00000000 		.word	.LANCHOR4
 444 0058 00000000 		.word	.LANCHOR7
 445 005c 00000000 		.word	.LANCHOR5
 446 0060 00000000 		.word	.LANCHOR8
 447              		.cfi_endproc
 448              	.LFE130:
 450              		.section	.text.usbd_cdc_DataOut,"ax",%progbits
 451              		.align	1
 452              		.syntax unified
 453              		.thumb
 454              		.thumb_func
 455              		.fpu fpv4-sp-d16
 457              	usbd_cdc_DataOut:
 458              	.LVL28:
 459              	.LFB131:
 672:USB/core/usbd_cdc_core.c ****   uint16_t USB_Rx_Cnt;
 460              		.loc 1 672 1 is_stmt 1 view -0
 461              		.cfi_startproc
 462              		@ args = 0, pretend = 0, frame = 0
 463              		@ frame_needed = 0, uses_anonymous_args = 0
 672:USB/core/usbd_cdc_core.c ****   uint16_t USB_Rx_Cnt;
 464              		.loc 1 672 1 is_stmt 0 view .LVU116
 465 0000 38B5     		push	{r3, r4, r5, lr}
 466              	.LCFI7:
 467              		.cfi_def_cfa_offset 16
 468              		.cfi_offset 3, -16
 469              		.cfi_offset 4, -12
 470              		.cfi_offset 5, -8
 471              		.cfi_offset 14, -4
 472 0002 0446     		mov	r4, r0
 673:USB/core/usbd_cdc_core.c ****   
 473              		.loc 1 673 3 is_stmt 1 view .LVU117
 676:USB/core/usbd_cdc_core.c ****   
 474              		.loc 1 676 3 view .LVU118
 676:USB/core/usbd_cdc_core.c ****   
 475              		.loc 1 676 63 is_stmt 0 view .LVU119
 476 0004 01EB8101 		add	r1, r1, r1, lsl #2
 477              	.LVL29:
 676:USB/core/usbd_cdc_core.c ****   
 478              		.loc 1 676 63 view .LVU120
 479 0008 00EBC101 		add	r1, r0, r1, lsl #3
 480              	.LVL30:
 680:USB/core/usbd_cdc_core.c ****   
 481              		.loc 1 680 3 is_stmt 1 view .LVU121
 680:USB/core/usbd_cdc_core.c ****   
 482              		.loc 1 680 11 is_stmt 0 view .LVU122
 483 000c 074B     		ldr	r3, .L41
 484 000e 1B69     		ldr	r3, [r3, #16]
 680:USB/core/usbd_cdc_core.c ****   
ARM GAS  /var/folders/lx/hc4sn_b53233_zkc9xbbl97r0000gp/T//ccIc9UPI.s 			page 25


 485              		.loc 1 680 3 view .LVU123
 486 0010 074D     		ldr	r5, .L41+4
 487 0012 B1F88C13 		ldrh	r1, [r1, #908]
 488              	.LVL31:
 680:USB/core/usbd_cdc_core.c ****   
 489              		.loc 1 680 3 view .LVU124
 490 0016 2846     		mov	r0, r5
 491              	.LVL32:
 680:USB/core/usbd_cdc_core.c ****   
 492              		.loc 1 680 3 view .LVU125
 493 0018 9847     		blx	r3
 494              	.LVL33:
 683:USB/core/usbd_cdc_core.c ****                    CDC_OUT_EP,
 495              		.loc 1 683 3 is_stmt 1 view .LVU126
 496 001a 4023     		movs	r3, #64
 497 001c 2A46     		mov	r2, r5
 498 001e 0121     		movs	r1, #1
 499 0020 2046     		mov	r0, r4
 500 0022 FFF7FEFF 		bl	DCD_EP_PrepareRx
 501              	.LVL34:
 688:USB/core/usbd_cdc_core.c **** }
 502              		.loc 1 688 3 view .LVU127
 689:USB/core/usbd_cdc_core.c **** 
 503              		.loc 1 689 1 is_stmt 0 view .LVU128
 504 0026 0020     		movs	r0, #0
 505 0028 38BD     		pop	{r3, r4, r5, pc}
 506              	.LVL35:
 507              	.L42:
 689:USB/core/usbd_cdc_core.c **** 
 508              		.loc 1 689 1 view .LVU129
 509 002a 00BF     		.align	2
 510              	.L41:
 511 002c 00000000 		.word	VCP_fops
 512 0030 00000000 		.word	.LANCHOR10
 513              		.cfi_endproc
 514              	.LFE131:
 516              		.section	.text.usbd_cdc_Setup,"ax",%progbits
 517              		.align	1
 518              		.syntax unified
 519              		.thumb
 520              		.thumb_func
 521              		.fpu fpv4-sp-d16
 523              	usbd_cdc_Setup:
 524              	.LVL36:
 525              	.LFB128:
 505:USB/core/usbd_cdc_core.c ****   uint16_t len=USB_CDC_DESC_SIZ;
 526              		.loc 1 505 1 is_stmt 1 view -0
 527              		.cfi_startproc
 528              		@ args = 0, pretend = 0, frame = 0
 529              		@ frame_needed = 0, uses_anonymous_args = 0
 505:USB/core/usbd_cdc_core.c ****   uint16_t len=USB_CDC_DESC_SIZ;
 530              		.loc 1 505 1 is_stmt 0 view .LVU131
 531 0000 70B5     		push	{r4, r5, r6, lr}
 532              	.LCFI8:
 533              		.cfi_def_cfa_offset 16
 534              		.cfi_offset 4, -16
 535              		.cfi_offset 5, -12
ARM GAS  /var/folders/lx/hc4sn_b53233_zkc9xbbl97r0000gp/T//ccIc9UPI.s 			page 26


 536              		.cfi_offset 6, -8
 537              		.cfi_offset 14, -4
 538 0002 0646     		mov	r6, r0
 539 0004 0C46     		mov	r4, r1
 506:USB/core/usbd_cdc_core.c ****   uint8_t  *pbuf=usbd_cdc_CfgDesc + 9;
 540              		.loc 1 506 3 is_stmt 1 view .LVU132
 541              	.LVL37:
 507:USB/core/usbd_cdc_core.c ****   
 542              		.loc 1 507 3 view .LVU133
 509:USB/core/usbd_cdc_core.c ****   {
 543              		.loc 1 509 3 view .LVU134
 509:USB/core/usbd_cdc_core.c ****   {
 544              		.loc 1 509 14 is_stmt 0 view .LVU135
 545 0006 0B78     		ldrb	r3, [r1]	@ zero_extendqisi2
 509:USB/core/usbd_cdc_core.c ****   {
 546              		.loc 1 509 3 view .LVU136
 547 0008 13F06005 		ands	r5, r3, #96
 548 000c 2AD0     		beq	.L44
 549 000e 202D     		cmp	r5, #32
 550 0010 23D1     		bne	.L45
 514:USB/core/usbd_cdc_core.c ****       {
 551              		.loc 1 514 7 is_stmt 1 view .LVU137
 514:USB/core/usbd_cdc_core.c ****       {
 552              		.loc 1 514 14 is_stmt 0 view .LVU138
 553 0012 CA88     		ldrh	r2, [r1, #6]
 514:USB/core/usbd_cdc_core.c ****       {
 554              		.loc 1 514 10 view .LVU139
 555 0014 CAB1     		cbz	r2, .L46
 517:USB/core/usbd_cdc_core.c ****         {
 556              		.loc 1 517 9 is_stmt 1 view .LVU140
 517:USB/core/usbd_cdc_core.c ****         {
 557              		.loc 1 517 12 is_stmt 0 view .LVU141
 558 0016 13F0800F 		tst	r3, #128
 559 001a 0CD0     		beq	.L47
 520:USB/core/usbd_cdc_core.c ****           
 560              		.loc 1 520 11 is_stmt 1 view .LVU142
 520:USB/core/usbd_cdc_core.c ****           
 561              		.loc 1 520 19 is_stmt 0 view .LVU143
 562 001c 244B     		ldr	r3, .L56
 563 001e 9B68     		ldr	r3, [r3, #8]
 520:USB/core/usbd_cdc_core.c ****           
 564              		.loc 1 520 11 view .LVU144
 565 0020 244D     		ldr	r5, .L56+4
 566 0022 2946     		mov	r1, r5
 567              	.LVL38:
 520:USB/core/usbd_cdc_core.c ****           
 568              		.loc 1 520 11 view .LVU145
 569 0024 6078     		ldrb	r0, [r4, #1]	@ zero_extendqisi2
 570              	.LVL39:
 520:USB/core/usbd_cdc_core.c ****           
 571              		.loc 1 520 11 view .LVU146
 572 0026 9847     		blx	r3
 573              	.LVL40:
 523:USB/core/usbd_cdc_core.c ****                             CmdBuff,
 574              		.loc 1 523 11 is_stmt 1 view .LVU147
 575 0028 E288     		ldrh	r2, [r4, #6]
 576 002a 2946     		mov	r1, r5
ARM GAS  /var/folders/lx/hc4sn_b53233_zkc9xbbl97r0000gp/T//ccIc9UPI.s 			page 27


 577 002c 3046     		mov	r0, r6
 578 002e FFF7FEFF 		bl	USBD_CtlSendData
 579              	.LVL41:
 547:USB/core/usbd_cdc_core.c ****       
 580              		.loc 1 547 14 is_stmt 0 view .LVU148
 581 0032 0025     		movs	r5, #0
 582 0034 14E0     		b	.L48
 583              	.LVL42:
 584              	.L47:
 530:USB/core/usbd_cdc_core.c ****           cdcLen = req->wLength;
 585              		.loc 1 530 11 is_stmt 1 view .LVU149
 530:USB/core/usbd_cdc_core.c ****           cdcLen = req->wLength;
 586              		.loc 1 530 23 is_stmt 0 view .LVU150
 587 0036 4978     		ldrb	r1, [r1, #1]	@ zero_extendqisi2
 588              	.LVL43:
 530:USB/core/usbd_cdc_core.c ****           cdcLen = req->wLength;
 589              		.loc 1 530 18 view .LVU151
 590 0038 1F4B     		ldr	r3, .L56+8
 591 003a 1960     		str	r1, [r3]
 531:USB/core/usbd_cdc_core.c ****           
 592              		.loc 1 531 11 is_stmt 1 view .LVU152
 531:USB/core/usbd_cdc_core.c ****           
 593              		.loc 1 531 18 is_stmt 0 view .LVU153
 594 003c 1F4B     		ldr	r3, .L56+12
 595 003e 1A60     		str	r2, [r3]
 536:USB/core/usbd_cdc_core.c ****                              CmdBuff,
 596              		.loc 1 536 11 is_stmt 1 view .LVU154
 597 0040 1C49     		ldr	r1, .L56+4
 598 0042 FFF7FEFF 		bl	USBD_CtlPrepareRx
 599              	.LVL44:
 547:USB/core/usbd_cdc_core.c ****       
 600              		.loc 1 547 14 is_stmt 0 view .LVU155
 601 0046 0025     		movs	r5, #0
 602 0048 0AE0     		b	.L48
 603              	.LVL45:
 604              	.L46:
 544:USB/core/usbd_cdc_core.c ****       }
 605              		.loc 1 544 9 is_stmt 1 view .LVU156
 544:USB/core/usbd_cdc_core.c ****       }
 606              		.loc 1 544 17 is_stmt 0 view .LVU157
 607 004a 194B     		ldr	r3, .L56
 608 004c 9B68     		ldr	r3, [r3, #8]
 544:USB/core/usbd_cdc_core.c ****       }
 609              		.loc 1 544 9 view .LVU158
 610 004e 0022     		movs	r2, #0
 611 0050 1146     		mov	r1, r2
 612              	.LVL46:
 544:USB/core/usbd_cdc_core.c ****       }
 613              		.loc 1 544 9 view .LVU159
 614 0052 6078     		ldrb	r0, [r4, #1]	@ zero_extendqisi2
 615              	.LVL47:
 544:USB/core/usbd_cdc_core.c ****       }
 616              		.loc 1 544 9 view .LVU160
 617 0054 9847     		blx	r3
 618              	.LVL48:
 547:USB/core/usbd_cdc_core.c ****       
 619              		.loc 1 547 14 view .LVU161
ARM GAS  /var/folders/lx/hc4sn_b53233_zkc9xbbl97r0000gp/T//ccIc9UPI.s 			page 28


 620 0056 0025     		movs	r5, #0
 621 0058 02E0     		b	.L48
 622              	.LVL49:
 623              	.L45:
 550:USB/core/usbd_cdc_core.c ****       return USBD_FAIL;
 624              		.loc 1 550 7 is_stmt 1 view .LVU162
 625 005a FFF7FEFF 		bl	USBD_CtlError
 626              	.LVL50:
 551:USB/core/usbd_cdc_core.c ****     
 627              		.loc 1 551 7 view .LVU163
 551:USB/core/usbd_cdc_core.c ****     
 628              		.loc 1 551 14 is_stmt 0 view .LVU164
 629 005e 0225     		movs	r5, #2
 630              	.LVL51:
 631              	.L48:
 595:USB/core/usbd_cdc_core.c **** 
 632              		.loc 1 595 1 view .LVU165
 633 0060 2846     		mov	r0, r5
 634 0062 70BD     		pop	{r4, r5, r6, pc}
 635              	.LVL52:
 636              	.L44:
 557:USB/core/usbd_cdc_core.c ****     {
 637              		.loc 1 557 5 is_stmt 1 view .LVU166
 557:USB/core/usbd_cdc_core.c ****     {
 638              		.loc 1 557 16 is_stmt 0 view .LVU167
 639 0064 4B78     		ldrb	r3, [r1, #1]	@ zero_extendqisi2
 640 0066 0A2B     		cmp	r3, #10
 641 0068 13D0     		beq	.L49
 642 006a 0B2B     		cmp	r3, #11
 643 006c 16D0     		beq	.L50
 644 006e 062B     		cmp	r3, #6
 645 0070 F6D1     		bne	.L48
 560:USB/core/usbd_cdc_core.c ****       {
 646              		.loc 1 560 7 is_stmt 1 view .LVU168
 560:USB/core/usbd_cdc_core.c ****       {
 647              		.loc 1 560 15 is_stmt 0 view .LVU169
 648 0072 4B88     		ldrh	r3, [r1, #2]
 560:USB/core/usbd_cdc_core.c ****       {
 649              		.loc 1 560 30 view .LVU170
 650 0074 1B0A     		lsrs	r3, r3, #8
 560:USB/core/usbd_cdc_core.c ****       {
 651              		.loc 1 560 9 view .LVU171
 652 0076 212B     		cmp	r3, #33
 653 0078 05D0     		beq	.L55
 507:USB/core/usbd_cdc_core.c ****   
 654              		.loc 1 507 13 view .LVU172
 655 007a 1149     		ldr	r1, .L56+16
 656              	.LVL53:
 506:USB/core/usbd_cdc_core.c ****   uint8_t  *pbuf=usbd_cdc_CfgDesc + 9;
 657              		.loc 1 506 12 view .LVU173
 658 007c 3A22     		movs	r2, #58
 659              	.LVL54:
 660              	.L51:
 570:USB/core/usbd_cdc_core.c ****                         pbuf,
 661              		.loc 1 570 7 is_stmt 1 view .LVU174
 662 007e 3046     		mov	r0, r6
 663              	.LVL55:
ARM GAS  /var/folders/lx/hc4sn_b53233_zkc9xbbl97r0000gp/T//ccIc9UPI.s 			page 29


 570:USB/core/usbd_cdc_core.c ****                         pbuf,
 664              		.loc 1 570 7 is_stmt 0 view .LVU175
 665 0080 FFF7FEFF 		bl	USBD_CtlSendData
 666              	.LVL56:
 573:USB/core/usbd_cdc_core.c ****       
 667              		.loc 1 573 7 is_stmt 1 view .LVU176
 668 0084 ECE7     		b	.L48
 669              	.LVL57:
 670              	.L55:
 565:USB/core/usbd_cdc_core.c **** #endif 
 671              		.loc 1 565 9 view .LVU177
 567:USB/core/usbd_cdc_core.c ****       }
 672              		.loc 1 567 9 view .LVU178
 567:USB/core/usbd_cdc_core.c ****       }
 673              		.loc 1 567 15 is_stmt 0 view .LVU179
 674 0086 CA88     		ldrh	r2, [r1, #6]
 567:USB/core/usbd_cdc_core.c ****       }
 675              		.loc 1 567 13 view .LVU180
 676 0088 3A2A     		cmp	r2, #58
 677 008a 28BF     		it	cs
 678 008c 3A22     		movcs	r2, #58
 679              	.LVL58:
 565:USB/core/usbd_cdc_core.c **** #endif 
 680              		.loc 1 565 14 view .LVU181
 681 008e 0D49     		ldr	r1, .L56+20
 682              	.LVL59:
 565:USB/core/usbd_cdc_core.c **** #endif 
 683              		.loc 1 565 14 view .LVU182
 684 0090 F5E7     		b	.L51
 685              	.LVL60:
 686              	.L49:
 576:USB/core/usbd_cdc_core.c ****                         (uint8_t *)&usbd_cdc_AltSet,
 687              		.loc 1 576 7 is_stmt 1 view .LVU183
 688 0092 0122     		movs	r2, #1
 689 0094 0C49     		ldr	r1, .L56+24
 690              	.LVL61:
 576:USB/core/usbd_cdc_core.c ****                         (uint8_t *)&usbd_cdc_AltSet,
 691              		.loc 1 576 7 is_stmt 0 view .LVU184
 692 0096 FFF7FEFF 		bl	USBD_CtlSendData
 693              	.LVL62:
 579:USB/core/usbd_cdc_core.c ****       
 694              		.loc 1 579 7 is_stmt 1 view .LVU185
 695 009a E1E7     		b	.L48
 696              	.LVL63:
 697              	.L50:
 582:USB/core/usbd_cdc_core.c ****       {
 698              		.loc 1 582 7 view .LVU186
 582:USB/core/usbd_cdc_core.c ****       {
 699              		.loc 1 582 11 is_stmt 0 view .LVU187
 700 009c 8B78     		ldrb	r3, [r1, #2]	@ zero_extendqisi2
 582:USB/core/usbd_cdc_core.c ****       {
 701              		.loc 1 582 10 view .LVU188
 702 009e 1BB9     		cbnz	r3, .L52
 584:USB/core/usbd_cdc_core.c ****       }
 703              		.loc 1 584 9 is_stmt 1 view .LVU189
 584:USB/core/usbd_cdc_core.c ****       }
 704              		.loc 1 584 25 is_stmt 0 view .LVU190
ARM GAS  /var/folders/lx/hc4sn_b53233_zkc9xbbl97r0000gp/T//ccIc9UPI.s 			page 30


 705 00a0 094A     		ldr	r2, .L56+24
 706 00a2 1360     		str	r3, [r2]
 594:USB/core/usbd_cdc_core.c **** }
 707              		.loc 1 594 10 view .LVU191
 708 00a4 1D46     		mov	r5, r3
 709 00a6 DBE7     		b	.L48
 710              	.L52:
 589:USB/core/usbd_cdc_core.c ****       }
 711              		.loc 1 589 9 is_stmt 1 view .LVU192
 712 00a8 FFF7FEFF 		bl	USBD_CtlError
 713              	.LVL64:
 589:USB/core/usbd_cdc_core.c ****       }
 714              		.loc 1 589 9 is_stmt 0 view .LVU193
 715 00ac D8E7     		b	.L48
 716              	.L57:
 717 00ae 00BF     		.align	2
 718              	.L56:
 719 00b0 00000000 		.word	VCP_fops
 720 00b4 00000000 		.word	.LANCHOR2
 721 00b8 00000000 		.word	.LANCHOR0
 722 00bc 00000000 		.word	.LANCHOR1
 723 00c0 09000000 		.word	.LANCHOR3+9
 724 00c4 12000000 		.word	.LANCHOR3+18
 725 00c8 00000000 		.word	.LANCHOR11
 726              		.cfi_endproc
 727              	.LFE128:
 729              		.section	.text.usbd_cdc_DeInit,"ax",%progbits
 730              		.align	1
 731              		.syntax unified
 732              		.thumb
 733              		.thumb_func
 734              		.fpu fpv4-sp-d16
 736              	usbd_cdc_DeInit:
 737              	.LVL65:
 738              	.LFB127:
 477:USB/core/usbd_cdc_core.c ****   /* Open EP IN */
 739              		.loc 1 477 1 is_stmt 1 view -0
 740              		.cfi_startproc
 741              		@ args = 0, pretend = 0, frame = 0
 742              		@ frame_needed = 0, uses_anonymous_args = 0
 477:USB/core/usbd_cdc_core.c ****   /* Open EP IN */
 743              		.loc 1 477 1 is_stmt 0 view .LVU195
 744 0000 10B5     		push	{r4, lr}
 745              	.LCFI9:
 746              		.cfi_def_cfa_offset 8
 747              		.cfi_offset 4, -8
 748              		.cfi_offset 14, -4
 749 0002 0446     		mov	r4, r0
 479:USB/core/usbd_cdc_core.c ****               CDC_IN_EP);
 750              		.loc 1 479 3 is_stmt 1 view .LVU196
 751 0004 8121     		movs	r1, #129
 752              	.LVL66:
 479:USB/core/usbd_cdc_core.c ****               CDC_IN_EP);
 753              		.loc 1 479 3 is_stmt 0 view .LVU197
 754 0006 FFF7FEFF 		bl	DCD_EP_Close
 755              	.LVL67:
 483:USB/core/usbd_cdc_core.c ****               CDC_OUT_EP);
ARM GAS  /var/folders/lx/hc4sn_b53233_zkc9xbbl97r0000gp/T//ccIc9UPI.s 			page 31


 756              		.loc 1 483 3 is_stmt 1 view .LVU198
 757 000a 0121     		movs	r1, #1
 758 000c 2046     		mov	r0, r4
 759 000e FFF7FEFF 		bl	DCD_EP_Close
 760              	.LVL68:
 487:USB/core/usbd_cdc_core.c ****               CDC_CMD_EP);
 761              		.loc 1 487 3 view .LVU199
 762 0012 8221     		movs	r1, #130
 763 0014 2046     		mov	r0, r4
 764 0016 FFF7FEFF 		bl	DCD_EP_Close
 765              	.LVL69:
 491:USB/core/usbd_cdc_core.c ****   
 766              		.loc 1 491 3 view .LVU200
 491:USB/core/usbd_cdc_core.c ****   
 767              		.loc 1 491 11 is_stmt 0 view .LVU201
 768 001a 024B     		ldr	r3, .L60
 769 001c 5B68     		ldr	r3, [r3, #4]
 491:USB/core/usbd_cdc_core.c ****   
 770              		.loc 1 491 3 view .LVU202
 771 001e 9847     		blx	r3
 772              	.LVL70:
 493:USB/core/usbd_cdc_core.c **** }
 773              		.loc 1 493 3 is_stmt 1 view .LVU203
 494:USB/core/usbd_cdc_core.c **** 
 774              		.loc 1 494 1 is_stmt 0 view .LVU204
 775 0020 0020     		movs	r0, #0
 776 0022 10BD     		pop	{r4, pc}
 777              	.LVL71:
 778              	.L61:
 494:USB/core/usbd_cdc_core.c **** 
 779              		.loc 1 494 1 view .LVU205
 780              		.align	2
 781              	.L60:
 782 0024 00000000 		.word	VCP_fops
 783              		.cfi_endproc
 784              	.LFE127:
 786              		.section	.text.usbd_cdc_Init,"ax",%progbits
 787              		.align	1
 788              		.syntax unified
 789              		.thumb
 790              		.thumb_func
 791              		.fpu fpv4-sp-d16
 793              	usbd_cdc_Init:
 794              	.LVL72:
 795              	.LFB126:
 431:USB/core/usbd_cdc_core.c ****   uint8_t *pbuf;
 796              		.loc 1 431 1 is_stmt 1 view -0
 797              		.cfi_startproc
 798              		@ args = 0, pretend = 0, frame = 0
 799              		@ frame_needed = 0, uses_anonymous_args = 0
 431:USB/core/usbd_cdc_core.c ****   uint8_t *pbuf;
 800              		.loc 1 431 1 is_stmt 0 view .LVU207
 801 0000 38B5     		push	{r3, r4, r5, lr}
 802              	.LCFI10:
 803              		.cfi_def_cfa_offset 16
 804              		.cfi_offset 3, -16
 805              		.cfi_offset 4, -12
ARM GAS  /var/folders/lx/hc4sn_b53233_zkc9xbbl97r0000gp/T//ccIc9UPI.s 			page 32


 806              		.cfi_offset 5, -8
 807              		.cfi_offset 14, -4
 808 0002 0446     		mov	r4, r0
 432:USB/core/usbd_cdc_core.c **** 
 809              		.loc 1 432 3 is_stmt 1 view .LVU208
 435:USB/core/usbd_cdc_core.c ****               CDC_IN_EP,
 810              		.loc 1 435 3 view .LVU209
 811 0004 0223     		movs	r3, #2
 812 0006 4022     		movs	r2, #64
 813 0008 8121     		movs	r1, #129
 814              	.LVL73:
 435:USB/core/usbd_cdc_core.c ****               CDC_IN_EP,
 815              		.loc 1 435 3 is_stmt 0 view .LVU210
 816 000a FFF7FEFF 		bl	DCD_EP_Open
 817              	.LVL74:
 441:USB/core/usbd_cdc_core.c ****               CDC_OUT_EP,
 818              		.loc 1 441 3 is_stmt 1 view .LVU211
 819 000e 0223     		movs	r3, #2
 820 0010 4022     		movs	r2, #64
 821 0012 0121     		movs	r1, #1
 822 0014 2046     		mov	r0, r4
 823 0016 FFF7FEFF 		bl	DCD_EP_Open
 824              	.LVL75:
 447:USB/core/usbd_cdc_core.c ****               CDC_CMD_EP,
 825              		.loc 1 447 3 view .LVU212
 826 001a 0323     		movs	r3, #3
 827 001c 0822     		movs	r2, #8
 828 001e 8221     		movs	r1, #130
 829 0020 2046     		mov	r0, r4
 830 0022 FFF7FEFF 		bl	DCD_EP_Open
 831              	.LVL76:
 452:USB/core/usbd_cdc_core.c ****   pbuf[4] = DEVICE_CLASS_CDC;
 832              		.loc 1 452 3 view .LVU213
 453:USB/core/usbd_cdc_core.c ****   pbuf[5] = DEVICE_SUBCLASS_CDC;
 833              		.loc 1 453 3 view .LVU214
 453:USB/core/usbd_cdc_core.c ****   pbuf[5] = DEVICE_SUBCLASS_CDC;
 834              		.loc 1 453 11 is_stmt 0 view .LVU215
 835 0026 084B     		ldr	r3, .L64
 836 0028 0222     		movs	r2, #2
 837 002a 1A71     		strb	r2, [r3, #4]
 454:USB/core/usbd_cdc_core.c ****   
 838              		.loc 1 454 3 is_stmt 1 view .LVU216
 454:USB/core/usbd_cdc_core.c ****   
 839              		.loc 1 454 11 is_stmt 0 view .LVU217
 840 002c 0025     		movs	r5, #0
 841 002e 5D71     		strb	r5, [r3, #5]
 457:USB/core/usbd_cdc_core.c **** 
 842              		.loc 1 457 3 is_stmt 1 view .LVU218
 457:USB/core/usbd_cdc_core.c **** 
 843              		.loc 1 457 11 is_stmt 0 view .LVU219
 844 0030 064B     		ldr	r3, .L64+4
 845 0032 1B68     		ldr	r3, [r3]
 457:USB/core/usbd_cdc_core.c **** 
 846              		.loc 1 457 3 view .LVU220
 847 0034 9847     		blx	r3
 848              	.LVL77:
 460:USB/core/usbd_cdc_core.c ****                    CDC_OUT_EP,
ARM GAS  /var/folders/lx/hc4sn_b53233_zkc9xbbl97r0000gp/T//ccIc9UPI.s 			page 33


 849              		.loc 1 460 3 is_stmt 1 view .LVU221
 850 0036 4023     		movs	r3, #64
 851 0038 054A     		ldr	r2, .L64+8
 852 003a 0121     		movs	r1, #1
 853 003c 2046     		mov	r0, r4
 854 003e FFF7FEFF 		bl	DCD_EP_PrepareRx
 855              	.LVL78:
 465:USB/core/usbd_cdc_core.c **** }
 856              		.loc 1 465 3 view .LVU222
 466:USB/core/usbd_cdc_core.c **** 
 857              		.loc 1 466 1 is_stmt 0 view .LVU223
 858 0042 2846     		mov	r0, r5
 859 0044 38BD     		pop	{r3, r4, r5, pc}
 860              	.LVL79:
 861              	.L65:
 466:USB/core/usbd_cdc_core.c **** 
 862              		.loc 1 466 1 view .LVU224
 863 0046 00BF     		.align	2
 864              	.L64:
 865 0048 00000000 		.word	USBD_DeviceDesc
 866 004c 00000000 		.word	VCP_fops
 867 0050 00000000 		.word	.LANCHOR10
 868              		.cfi_endproc
 869              	.LFE126:
 871              		.global	USBD_CDC_cb
 872              		.global	USB_Tx_State
 873              		.global	APP_Rx_length
 874              		.global	APP_Rx_ptr_out
 875              		.global	APP_Rx_ptr_in
 876              		.global	CmdBuff
 877              		.global	APP_Rx_Buffer
 878              		.global	USB_Rx_Buffer
 879              		.global	usbd_cdc_OtherCfgDesc
 880              		.global	usbd_cdc_CfgDesc
 881              		.section	.bss.APP_Rx_Buffer,"aw",%nobits
 882              		.align	2
 883              		.set	.LANCHOR8,. + 0
 886              	APP_Rx_Buffer:
 887 0000 00000000 		.space	2048
 887      00000000 
 887      00000000 
 887      00000000 
 887      00000000 
 888              		.section	.bss.APP_Rx_length,"aw",%nobits
 889              		.align	2
 890              		.set	.LANCHOR7,. + 0
 893              	APP_Rx_length:
 894 0000 00000000 		.space	4
 895              		.section	.bss.APP_Rx_ptr_in,"aw",%nobits
 896              		.align	2
 897              		.set	.LANCHOR6,. + 0
 900              	APP_Rx_ptr_in:
 901 0000 00000000 		.space	4
 902              		.section	.bss.APP_Rx_ptr_out,"aw",%nobits
 903              		.align	2
 904              		.set	.LANCHOR5,. + 0
 907              	APP_Rx_ptr_out:
ARM GAS  /var/folders/lx/hc4sn_b53233_zkc9xbbl97r0000gp/T//ccIc9UPI.s 			page 34


 908 0000 00000000 		.space	4
 909              		.section	.bss.CmdBuff,"aw",%nobits
 910              		.align	2
 911              		.set	.LANCHOR2,. + 0
 914              	CmdBuff:
 915 0000 00000000 		.space	8
 915      00000000 
 916              		.section	.bss.FrameCount.0,"aw",%nobits
 917              		.align	2
 918              		.set	.LANCHOR9,. + 0
 921              	FrameCount.0:
 922 0000 00000000 		.space	4
 923              		.section	.bss.USB_Rx_Buffer,"aw",%nobits
 924              		.align	2
 925              		.set	.LANCHOR10,. + 0
 928              	USB_Rx_Buffer:
 929 0000 00000000 		.space	64
 929      00000000 
 929      00000000 
 929      00000000 
 929      00000000 
 930              		.section	.bss.USB_Tx_State,"aw",%nobits
 931              		.set	.LANCHOR4,. + 0
 934              	USB_Tx_State:
 935 0000 00       		.space	1
 936              		.section	.bss.cdcLen,"aw",%nobits
 937              		.align	2
 938              		.set	.LANCHOR1,. + 0
 941              	cdcLen:
 942 0000 00000000 		.space	4
 943              		.section	.bss.usbd_cdc_AltSet,"aw",%nobits
 944              		.align	2
 945              		.set	.LANCHOR11,. + 0
 948              	usbd_cdc_AltSet:
 949 0000 00000000 		.space	4
 950              		.section	.bss.usbd_cdc_OtherCfgDesc,"aw",%nobits
 951              		.align	2
 954              	usbd_cdc_OtherCfgDesc:
 955 0000 00000000 		.space	67
 955      00000000 
 955      00000000 
 955      00000000 
 955      00000000 
 956              		.section	.data.USBD_CDC_cb,"aw"
 957              		.align	2
 960              	USBD_CDC_cb:
 961 0000 00000000 		.word	usbd_cdc_Init
 962 0004 00000000 		.word	usbd_cdc_DeInit
 963 0008 00000000 		.word	usbd_cdc_Setup
 964 000c 00000000 		.word	0
 965 0010 00000000 		.word	usbd_cdc_EP0_RxReady
 966 0014 00000000 		.word	usbd_cdc_DataIn
 967 0018 00000000 		.word	usbd_cdc_DataOut
 968 001c 00000000 		.word	usbd_cdc_SOF
 969 0020 00000000 		.word	0
 970 0024 00000000 		.word	0
 971 0028 00000000 		.word	USBD_cdc_GetCfgDesc
ARM GAS  /var/folders/lx/hc4sn_b53233_zkc9xbbl97r0000gp/T//ccIc9UPI.s 			page 35


 972              		.section	.data.cdcCmd,"aw"
 973              		.align	2
 974              		.set	.LANCHOR0,. + 0
 977              	cdcCmd:
 978 0000 FF000000 		.word	255
 979              		.section	.data.usbd_cdc_CfgDesc,"aw"
 980              		.align	2
 981              		.set	.LANCHOR3,. + 0
 984              	usbd_cdc_CfgDesc:
 985 0000 09024300 		.ascii	"\011\002C\000\002\001\000\3002\011\004\000\000\001\002"
 985      020100C0 
 985      32090400 
 985      000102
 986 000f 02010005 		.ascii	"\002\001\000\005$\000\020\001\005$\001\000\001\004$"
 986      24001001 
 986      05240100 
 986      010424
 987 001e 02020524 		.ascii	"\002\002\005$\006\000\001\007\005\202\003\010\000\377"
 987      06000107 
 987      05820308 
 987      00FF
 988 002c 09040100 		.ascii	"\011\004\001\000\002\012\000\000\000\007\005\001\002"
 988      020A0000 
 988      00070501 
 988      02
 989 0039 40000007 		.ascii	"@\000\000\007\005\201\002@\000\000"
 989      05810240 
 989      0000
 990              		.text
 991              	.Letext0:
 992              		.file 2 "/usr/local/arm-none-eabi-gcc/gcc-arm-none-eabi-10-2020-q4-major/arm-none-eabi/include/mac
 993              		.file 3 "/usr/local/arm-none-eabi-gcc/gcc-arm-none-eabi-10-2020-q4-major/arm-none-eabi/include/sys
 994              		.file 4 "USB/core/usb_regs.h"
 995              		.file 5 "USB/core/usb_core.h"
 996              		.file 6 "USB/core/usbd_cdc_core.h"
 997              		.file 7 "USB/core/usbd_desc.h"
 998              		.file 8 "USB/core/usb_dcd.h"
 999              		.file 9 "USB/core/usbd_ioreq.h"
 1000              		.file 10 "USB/core/usbd_req.h"
 1001              		.file 11 "USB/core/usbd_core.h"
ARM GAS  /var/folders/lx/hc4sn_b53233_zkc9xbbl97r0000gp/T//ccIc9UPI.s 			page 36

