ARM GAS  /var/folders/lx/hc4sn_b53233_zkc9xbbl97r0000gp/T//ccGyZvF3.s 			page 1


   1              		.cpu cortex-m4
   2              		.eabi_attribute 27, 1
   3              		.eabi_attribute 28, 1
   4              		.eabi_attribute 20, 1
   5              		.eabi_attribute 21, 1
   6              		.eabi_attribute 23, 3
   7              		.eabi_attribute 24, 1
   8              		.eabi_attribute 25, 1
   9              		.eabi_attribute 26, 1
  10              		.eabi_attribute 30, 1
  11              		.eabi_attribute 34, 1
  12              		.eabi_attribute 18, 4
  13              		.file	"usbd_usr.c"
  14              		.text
  15              	.Ltext0:
  16              		.cfi_sections	.debug_frame
  17              		.section	.text.USBD_USR_Init,"ax",%progbits
  18              		.align	1
  19              		.global	USBD_USR_Init
  20              		.arch armv7e-m
  21              		.syntax unified
  22              		.thumb
  23              		.thumb_func
  24              		.fpu fpv4-sp-d16
  26              	USBD_USR_Init:
  27              	.LFB126:
  28              		.file 1 "USB/core/usbd_usr.c"
   1:USB/core/usbd_usr.c **** /**
   2:USB/core/usbd_usr.c ****   ******************************************************************************
   3:USB/core/usbd_usr.c ****   * @file    usbd_usr.c
   4:USB/core/usbd_usr.c ****   * @author  MCD Application Team
   5:USB/core/usbd_usr.c ****   * @version V1.1.0
   6:USB/core/usbd_usr.c ****   * @date    19-March-2012
   7:USB/core/usbd_usr.c ****   * @brief   This file includes the user application layer
   8:USB/core/usbd_usr.c ****   ******************************************************************************
   9:USB/core/usbd_usr.c ****   * @attention
  10:USB/core/usbd_usr.c ****   *
  11:USB/core/usbd_usr.c ****   * <h2><center>&copy; COPYRIGHT 2012 STMicroelectronics</center></h2>
  12:USB/core/usbd_usr.c ****   *
  13:USB/core/usbd_usr.c ****   * Licensed under MCD-ST Liberty SW License Agreement V2, (the "License");
  14:USB/core/usbd_usr.c ****   * You may not use this file except in compliance with the License.
  15:USB/core/usbd_usr.c ****   * You may obtain a copy of the License at:
  16:USB/core/usbd_usr.c ****   *
  17:USB/core/usbd_usr.c ****   *        http://www.st.com/software_license_agreement_liberty_v2
  18:USB/core/usbd_usr.c ****   *
  19:USB/core/usbd_usr.c ****   * Unless required by applicable law or agreed to in writing, software 
  20:USB/core/usbd_usr.c ****   * distributed under the License is distributed on an "AS IS" BASIS, 
  21:USB/core/usbd_usr.c ****   * WITHOUT WARRANTIES OR CONDITIONS OF ANY KIND, either express or implied.
  22:USB/core/usbd_usr.c ****   * See the License for the specific language governing permissions and
  23:USB/core/usbd_usr.c ****   * limitations under the License.
  24:USB/core/usbd_usr.c ****   *
  25:USB/core/usbd_usr.c ****   ******************************************************************************
  26:USB/core/usbd_usr.c ****   */ 
  27:USB/core/usbd_usr.c **** 
  28:USB/core/usbd_usr.c **** /* Includes ------------------------------------------------------------------*/
  29:USB/core/usbd_usr.c **** #include "usbd_usr.h"
  30:USB/core/usbd_usr.c **** #include "usbd_ioreq.h"
ARM GAS  /var/folders/lx/hc4sn_b53233_zkc9xbbl97r0000gp/T//ccGyZvF3.s 			page 2


  31:USB/core/usbd_usr.c **** 
  32:USB/core/usbd_usr.c **** #include "tm_stm32f4_usb_vcp.h"
  33:USB/core/usbd_usr.c **** 
  34:USB/core/usbd_usr.c **** #include <stdio.h>
  35:USB/core/usbd_usr.c **** 
  36:USB/core/usbd_usr.c **** TM_USB_VCP_Result TM_USB_VCP_INT_Status = TM_USB_VCP_NOT_CONNECTED;
  37:USB/core/usbd_usr.c **** 
  38:USB/core/usbd_usr.c **** USBD_Usr_cb_TypeDef USR_cb =
  39:USB/core/usbd_usr.c **** {
  40:USB/core/usbd_usr.c ****   USBD_USR_Init,
  41:USB/core/usbd_usr.c ****   USBD_USR_DeviceReset,
  42:USB/core/usbd_usr.c ****   USBD_USR_DeviceConfigured,
  43:USB/core/usbd_usr.c ****   USBD_USR_DeviceSuspended,
  44:USB/core/usbd_usr.c ****   USBD_USR_DeviceResumed,
  45:USB/core/usbd_usr.c ****   USBD_USR_DeviceConnected,
  46:USB/core/usbd_usr.c ****   USBD_USR_DeviceDisconnected,    
  47:USB/core/usbd_usr.c **** };
  48:USB/core/usbd_usr.c **** 
  49:USB/core/usbd_usr.c **** void USBD_USR_Init(void) {
  29              		.loc 1 49 26 view -0
  30              		.cfi_startproc
  31              		@ args = 0, pretend = 0, frame = 0
  32              		@ frame_needed = 0, uses_anonymous_args = 0
  33              		@ link register save eliminated.
  50:USB/core/usbd_usr.c **** 	TM_USB_VCP_INT_Status = TM_USB_VCP_NOT_CONNECTED;
  34              		.loc 1 50 2 view .LVU1
  35              		.loc 1 50 24 is_stmt 0 view .LVU2
  36 0000 014B     		ldr	r3, .L2
  37 0002 0522     		movs	r2, #5
  38 0004 1A70     		strb	r2, [r3]
  51:USB/core/usbd_usr.c **** }
  39              		.loc 1 51 1 view .LVU3
  40 0006 7047     		bx	lr
  41              	.L3:
  42              		.align	2
  43              	.L2:
  44 0008 00000000 		.word	.LANCHOR0
  45              		.cfi_endproc
  46              	.LFE126:
  48              		.section	.text.USBD_USR_DeviceReset,"ax",%progbits
  49              		.align	1
  50              		.global	USBD_USR_DeviceReset
  51              		.syntax unified
  52              		.thumb
  53              		.thumb_func
  54              		.fpu fpv4-sp-d16
  56              	USBD_USR_DeviceReset:
  57              	.LVL0:
  58              	.LFB127:
  52:USB/core/usbd_usr.c **** 
  53:USB/core/usbd_usr.c **** void USBD_USR_DeviceReset(uint8_t speed ) {
  59              		.loc 1 53 43 is_stmt 1 view -0
  60              		.cfi_startproc
  61              		@ args = 0, pretend = 0, frame = 0
  62              		@ frame_needed = 0, uses_anonymous_args = 0
  63              		@ link register save eliminated.
  54:USB/core/usbd_usr.c **** 	TM_USB_VCP_INT_Status = TM_USB_VCP_NOT_CONNECTED;
ARM GAS  /var/folders/lx/hc4sn_b53233_zkc9xbbl97r0000gp/T//ccGyZvF3.s 			page 3


  64              		.loc 1 54 2 view .LVU5
  65              		.loc 1 54 24 is_stmt 0 view .LVU6
  66 0000 014B     		ldr	r3, .L5
  67 0002 0522     		movs	r2, #5
  68 0004 1A70     		strb	r2, [r3]
  55:USB/core/usbd_usr.c **** }
  69              		.loc 1 55 1 view .LVU7
  70 0006 7047     		bx	lr
  71              	.L6:
  72              		.align	2
  73              	.L5:
  74 0008 00000000 		.word	.LANCHOR0
  75              		.cfi_endproc
  76              	.LFE127:
  78              		.section	.text.USBD_USR_DeviceConfigured,"ax",%progbits
  79              		.align	1
  80              		.global	USBD_USR_DeviceConfigured
  81              		.syntax unified
  82              		.thumb
  83              		.thumb_func
  84              		.fpu fpv4-sp-d16
  86              	USBD_USR_DeviceConfigured:
  87              	.LFB128:
  56:USB/core/usbd_usr.c **** 
  57:USB/core/usbd_usr.c **** void USBD_USR_DeviceConfigured (void) {
  88              		.loc 1 57 39 is_stmt 1 view -0
  89              		.cfi_startproc
  90              		@ args = 0, pretend = 0, frame = 0
  91              		@ frame_needed = 0, uses_anonymous_args = 0
  92              		@ link register save eliminated.
  58:USB/core/usbd_usr.c **** 	TM_USB_VCP_INT_Status = TM_USB_VCP_CONNECTED;
  93              		.loc 1 58 2 view .LVU9
  94              		.loc 1 58 24 is_stmt 0 view .LVU10
  95 0000 014B     		ldr	r3, .L8
  96 0002 0622     		movs	r2, #6
  97 0004 1A70     		strb	r2, [r3]
  59:USB/core/usbd_usr.c **** }
  98              		.loc 1 59 1 view .LVU11
  99 0006 7047     		bx	lr
 100              	.L9:
 101              		.align	2
 102              	.L8:
 103 0008 00000000 		.word	.LANCHOR0
 104              		.cfi_endproc
 105              	.LFE128:
 107              		.section	.text.USBD_USR_DeviceSuspended,"ax",%progbits
 108              		.align	1
 109              		.global	USBD_USR_DeviceSuspended
 110              		.syntax unified
 111              		.thumb
 112              		.thumb_func
 113              		.fpu fpv4-sp-d16
 115              	USBD_USR_DeviceSuspended:
 116              	.LFB129:
  60:USB/core/usbd_usr.c **** 
  61:USB/core/usbd_usr.c **** void USBD_USR_DeviceSuspended(void) {
 117              		.loc 1 61 37 is_stmt 1 view -0
ARM GAS  /var/folders/lx/hc4sn_b53233_zkc9xbbl97r0000gp/T//ccGyZvF3.s 			page 4


 118              		.cfi_startproc
 119              		@ args = 0, pretend = 0, frame = 0
 120              		@ frame_needed = 0, uses_anonymous_args = 0
 121              		@ link register save eliminated.
  62:USB/core/usbd_usr.c **** 	TM_USB_VCP_INT_Status = TM_USB_VCP_NOT_CONNECTED;
 122              		.loc 1 62 2 view .LVU13
 123              		.loc 1 62 24 is_stmt 0 view .LVU14
 124 0000 014B     		ldr	r3, .L11
 125 0002 0522     		movs	r2, #5
 126 0004 1A70     		strb	r2, [r3]
  63:USB/core/usbd_usr.c **** }
 127              		.loc 1 63 1 view .LVU15
 128 0006 7047     		bx	lr
 129              	.L12:
 130              		.align	2
 131              	.L11:
 132 0008 00000000 		.word	.LANCHOR0
 133              		.cfi_endproc
 134              	.LFE129:
 136              		.section	.text.USBD_USR_DeviceResumed,"ax",%progbits
 137              		.align	1
 138              		.global	USBD_USR_DeviceResumed
 139              		.syntax unified
 140              		.thumb
 141              		.thumb_func
 142              		.fpu fpv4-sp-d16
 144              	USBD_USR_DeviceResumed:
 145              	.LFB130:
  64:USB/core/usbd_usr.c **** 
  65:USB/core/usbd_usr.c **** void USBD_USR_DeviceResumed(void) {
 146              		.loc 1 65 35 is_stmt 1 view -0
 147              		.cfi_startproc
 148              		@ args = 0, pretend = 0, frame = 0
 149              		@ frame_needed = 0, uses_anonymous_args = 0
 150              		@ link register save eliminated.
  66:USB/core/usbd_usr.c **** 	TM_USB_VCP_INT_Status = TM_USB_VCP_NOT_CONNECTED;
 151              		.loc 1 66 2 view .LVU17
 152              		.loc 1 66 24 is_stmt 0 view .LVU18
 153 0000 014B     		ldr	r3, .L14
 154 0002 0522     		movs	r2, #5
 155 0004 1A70     		strb	r2, [r3]
  67:USB/core/usbd_usr.c **** }
 156              		.loc 1 67 1 view .LVU19
 157 0006 7047     		bx	lr
 158              	.L15:
 159              		.align	2
 160              	.L14:
 161 0008 00000000 		.word	.LANCHOR0
 162              		.cfi_endproc
 163              	.LFE130:
 165              		.section	.text.USBD_USR_DeviceConnected,"ax",%progbits
 166              		.align	1
 167              		.global	USBD_USR_DeviceConnected
 168              		.syntax unified
 169              		.thumb
 170              		.thumb_func
 171              		.fpu fpv4-sp-d16
ARM GAS  /var/folders/lx/hc4sn_b53233_zkc9xbbl97r0000gp/T//ccGyZvF3.s 			page 5


 173              	USBD_USR_DeviceConnected:
 174              	.LFB131:
  68:USB/core/usbd_usr.c **** 
  69:USB/core/usbd_usr.c **** void USBD_USR_DeviceConnected (void) {
 175              		.loc 1 69 38 is_stmt 1 view -0
 176              		.cfi_startproc
 177              		@ args = 0, pretend = 0, frame = 0
 178              		@ frame_needed = 0, uses_anonymous_args = 0
 179              		@ link register save eliminated.
  70:USB/core/usbd_usr.c **** 	TM_USB_VCP_INT_Status = TM_USB_VCP_NOT_CONNECTED;
 180              		.loc 1 70 2 view .LVU21
 181              		.loc 1 70 24 is_stmt 0 view .LVU22
 182 0000 014B     		ldr	r3, .L17
 183 0002 0522     		movs	r2, #5
 184 0004 1A70     		strb	r2, [r3]
  71:USB/core/usbd_usr.c **** }
 185              		.loc 1 71 1 view .LVU23
 186 0006 7047     		bx	lr
 187              	.L18:
 188              		.align	2
 189              	.L17:
 190 0008 00000000 		.word	.LANCHOR0
 191              		.cfi_endproc
 192              	.LFE131:
 194              		.section	.text.USBD_USR_DeviceDisconnected,"ax",%progbits
 195              		.align	1
 196              		.global	USBD_USR_DeviceDisconnected
 197              		.syntax unified
 198              		.thumb
 199              		.thumb_func
 200              		.fpu fpv4-sp-d16
 202              	USBD_USR_DeviceDisconnected:
 203              	.LFB132:
  72:USB/core/usbd_usr.c **** 
  73:USB/core/usbd_usr.c **** void USBD_USR_DeviceDisconnected (void) {
 204              		.loc 1 73 41 is_stmt 1 view -0
 205              		.cfi_startproc
 206              		@ args = 0, pretend = 0, frame = 0
 207              		@ frame_needed = 0, uses_anonymous_args = 0
 208              		@ link register save eliminated.
  74:USB/core/usbd_usr.c **** 	TM_USB_VCP_INT_Status = TM_USB_VCP_NOT_CONNECTED;
 209              		.loc 1 74 2 view .LVU25
 210              		.loc 1 74 24 is_stmt 0 view .LVU26
 211 0000 014B     		ldr	r3, .L20
 212 0002 0522     		movs	r2, #5
 213 0004 1A70     		strb	r2, [r3]
  75:USB/core/usbd_usr.c **** }
 214              		.loc 1 75 1 view .LVU27
 215 0006 7047     		bx	lr
 216              	.L21:
 217              		.align	2
 218              	.L20:
 219 0008 00000000 		.word	.LANCHOR0
 220              		.cfi_endproc
 221              	.LFE132:
 223              		.section	.text.USBD_User_GetStatus,"ax",%progbits
 224              		.align	1
ARM GAS  /var/folders/lx/hc4sn_b53233_zkc9xbbl97r0000gp/T//ccGyZvF3.s 			page 6


 225              		.global	USBD_User_GetStatus
 226              		.syntax unified
 227              		.thumb
 228              		.thumb_func
 229              		.fpu fpv4-sp-d16
 231              	USBD_User_GetStatus:
 232              	.LFB133:
  76:USB/core/usbd_usr.c **** 
  77:USB/core/usbd_usr.c **** TM_USB_VCP_Result USBD_User_GetStatus(void) {
 233              		.loc 1 77 45 is_stmt 1 view -0
 234              		.cfi_startproc
 235              		@ args = 0, pretend = 0, frame = 0
 236              		@ frame_needed = 0, uses_anonymous_args = 0
 237              		@ link register save eliminated.
  78:USB/core/usbd_usr.c **** 	return TM_USB_VCP_INT_Status;
 238              		.loc 1 78 2 view .LVU29
  79:USB/core/usbd_usr.c **** }
 239              		.loc 1 79 1 is_stmt 0 view .LVU30
 240 0000 014B     		ldr	r3, .L23
 241 0002 1878     		ldrb	r0, [r3]	@ zero_extendqisi2
 242 0004 7047     		bx	lr
 243              	.L24:
 244 0006 00BF     		.align	2
 245              	.L23:
 246 0008 00000000 		.word	.LANCHOR0
 247              		.cfi_endproc
 248              	.LFE133:
 250              		.global	USR_cb
 251              		.global	TM_USB_VCP_INT_Status
 252              		.section	.data.TM_USB_VCP_INT_Status,"aw"
 253              		.set	.LANCHOR0,. + 0
 256              	TM_USB_VCP_INT_Status:
 257 0000 05       		.byte	5
 258              		.section	.data.USR_cb,"aw"
 259              		.align	2
 262              	USR_cb:
 263 0000 00000000 		.word	USBD_USR_Init
 264 0004 00000000 		.word	USBD_USR_DeviceReset
 265 0008 00000000 		.word	USBD_USR_DeviceConfigured
 266 000c 00000000 		.word	USBD_USR_DeviceSuspended
 267 0010 00000000 		.word	USBD_USR_DeviceResumed
 268 0014 00000000 		.word	USBD_USR_DeviceConnected
 269 0018 00000000 		.word	USBD_USR_DeviceDisconnected
 270              		.text
 271              	.Letext0:
 272              		.file 2 "/usr/local/arm-none-eabi-gcc/gcc-arm-none-eabi-10-2020-q4-major/arm-none-eabi/include/mac
 273              		.file 3 "/usr/local/arm-none-eabi-gcc/gcc-arm-none-eabi-10-2020-q4-major/arm-none-eabi/include/sys
 274              		.file 4 "USB/core/usb_core.h"
 275              		.file 5 "USB/config/tm_stm32f4_usb_vcp.h"
 276              		.file 6 "USB/core/usbd_usr.h"
ARM GAS  /var/folders/lx/hc4sn_b53233_zkc9xbbl97r0000gp/T//ccGyZvF3.s 			page 7


DEFINED SYMBOLS
                            *ABS*:0000000000000000 usbd_usr.c
/var/folders/lx/hc4sn_b53233_zkc9xbbl97r0000gp/T//ccGyZvF3.s:18     .text.USBD_USR_Init:0000000000000000 $t
/var/folders/lx/hc4sn_b53233_zkc9xbbl97r0000gp/T//ccGyZvF3.s:26     .text.USBD_USR_Init:0000000000000000 USBD_USR_Init
/var/folders/lx/hc4sn_b53233_zkc9xbbl97r0000gp/T//ccGyZvF3.s:44     .text.USBD_USR_Init:0000000000000008 $d
/var/folders/lx/hc4sn_b53233_zkc9xbbl97r0000gp/T//ccGyZvF3.s:49     .text.USBD_USR_DeviceReset:0000000000000000 $t
/var/folders/lx/hc4sn_b53233_zkc9xbbl97r0000gp/T//ccGyZvF3.s:56     .text.USBD_USR_DeviceReset:0000000000000000 USBD_USR_DeviceReset
/var/folders/lx/hc4sn_b53233_zkc9xbbl97r0000gp/T//ccGyZvF3.s:74     .text.USBD_USR_DeviceReset:0000000000000008 $d
/var/folders/lx/hc4sn_b53233_zkc9xbbl97r0000gp/T//ccGyZvF3.s:79     .text.USBD_USR_DeviceConfigured:0000000000000000 $t
/var/folders/lx/hc4sn_b53233_zkc9xbbl97r0000gp/T//ccGyZvF3.s:86     .text.USBD_USR_DeviceConfigured:0000000000000000 USBD_USR_DeviceConfigured
/var/folders/lx/hc4sn_b53233_zkc9xbbl97r0000gp/T//ccGyZvF3.s:103    .text.USBD_USR_DeviceConfigured:0000000000000008 $d
/var/folders/lx/hc4sn_b53233_zkc9xbbl97r0000gp/T//ccGyZvF3.s:108    .text.USBD_USR_DeviceSuspended:0000000000000000 $t
/var/folders/lx/hc4sn_b53233_zkc9xbbl97r0000gp/T//ccGyZvF3.s:115    .text.USBD_USR_DeviceSuspended:0000000000000000 USBD_USR_DeviceSuspended
/var/folders/lx/hc4sn_b53233_zkc9xbbl97r0000gp/T//ccGyZvF3.s:132    .text.USBD_USR_DeviceSuspended:0000000000000008 $d
/var/folders/lx/hc4sn_b53233_zkc9xbbl97r0000gp/T//ccGyZvF3.s:137    .text.USBD_USR_DeviceResumed:0000000000000000 $t
/var/folders/lx/hc4sn_b53233_zkc9xbbl97r0000gp/T//ccGyZvF3.s:144    .text.USBD_USR_DeviceResumed:0000000000000000 USBD_USR_DeviceResumed
/var/folders/lx/hc4sn_b53233_zkc9xbbl97r0000gp/T//ccGyZvF3.s:161    .text.USBD_USR_DeviceResumed:0000000000000008 $d
/var/folders/lx/hc4sn_b53233_zkc9xbbl97r0000gp/T//ccGyZvF3.s:166    .text.USBD_USR_DeviceConnected:0000000000000000 $t
/var/folders/lx/hc4sn_b53233_zkc9xbbl97r0000gp/T//ccGyZvF3.s:173    .text.USBD_USR_DeviceConnected:0000000000000000 USBD_USR_DeviceConnected
/var/folders/lx/hc4sn_b53233_zkc9xbbl97r0000gp/T//ccGyZvF3.s:190    .text.USBD_USR_DeviceConnected:0000000000000008 $d
/var/folders/lx/hc4sn_b53233_zkc9xbbl97r0000gp/T//ccGyZvF3.s:195    .text.USBD_USR_DeviceDisconnected:0000000000000000 $t
/var/folders/lx/hc4sn_b53233_zkc9xbbl97r0000gp/T//ccGyZvF3.s:202    .text.USBD_USR_DeviceDisconnected:0000000000000000 USBD_USR_DeviceDisconnected
/var/folders/lx/hc4sn_b53233_zkc9xbbl97r0000gp/T//ccGyZvF3.s:219    .text.USBD_USR_DeviceDisconnected:0000000000000008 $d
/var/folders/lx/hc4sn_b53233_zkc9xbbl97r0000gp/T//ccGyZvF3.s:224    .text.USBD_User_GetStatus:0000000000000000 $t
/var/folders/lx/hc4sn_b53233_zkc9xbbl97r0000gp/T//ccGyZvF3.s:231    .text.USBD_User_GetStatus:0000000000000000 USBD_User_GetStatus
/var/folders/lx/hc4sn_b53233_zkc9xbbl97r0000gp/T//ccGyZvF3.s:246    .text.USBD_User_GetStatus:0000000000000008 $d
/var/folders/lx/hc4sn_b53233_zkc9xbbl97r0000gp/T//ccGyZvF3.s:262    .data.USR_cb:0000000000000000 USR_cb
/var/folders/lx/hc4sn_b53233_zkc9xbbl97r0000gp/T//ccGyZvF3.s:256    .data.TM_USB_VCP_INT_Status:0000000000000000 TM_USB_VCP_INT_Status
/var/folders/lx/hc4sn_b53233_zkc9xbbl97r0000gp/T//ccGyZvF3.s:259    .data.USR_cb:0000000000000000 $d

NO UNDEFINED SYMBOLS
