ARM GAS  /var/folders/lx/hc4sn_b53233_zkc9xbbl97r0000gp/T//ccvsxlVY.s 			page 1


   1              		.cpu cortex-m4
   2              		.eabi_attribute 27, 1
   3              		.eabi_attribute 28, 1
   4              		.eabi_attribute 20, 1
   5              		.eabi_attribute 21, 1
   6              		.eabi_attribute 23, 3
   7              		.eabi_attribute 24, 1
   8              		.eabi_attribute 25, 1
   9              		.eabi_attribute 26, 1
  10              		.eabi_attribute 30, 1
  11              		.eabi_attribute 34, 1
  12              		.eabi_attribute 18, 4
  13              		.file	"usbd_desc.c"
  14              		.text
  15              	.Ltext0:
  16              		.cfi_sections	.debug_frame
  17              		.section	.text.USBD_USR_DeviceDescriptor,"ax",%progbits
  18              		.align	1
  19              		.global	USBD_USR_DeviceDescriptor
  20              		.arch armv7e-m
  21              		.syntax unified
  22              		.thumb
  23              		.thumb_func
  24              		.fpu fpv4-sp-d16
  26              	USBD_USR_DeviceDescriptor:
  27              	.LVL0:
  28              	.LFB126:
  29              		.file 1 "USB/core/usbd_desc.c"
   1:USB/core/usbd_desc.c **** /**
   2:USB/core/usbd_desc.c ****   ******************************************************************************
   3:USB/core/usbd_desc.c ****   * @file    usbd_desc.c
   4:USB/core/usbd_desc.c ****   * @author  MCD Application Team
   5:USB/core/usbd_desc.c ****   * @version V1.1.0
   6:USB/core/usbd_desc.c ****   * @date    19-March-2012
   7:USB/core/usbd_desc.c ****   * @brief   This file provides the USBD descriptors and string formating method.
   8:USB/core/usbd_desc.c ****   ******************************************************************************
   9:USB/core/usbd_desc.c ****   * @attention
  10:USB/core/usbd_desc.c ****   *
  11:USB/core/usbd_desc.c ****   * <h2><center>&copy; COPYRIGHT 2012 STMicroelectronics</center></h2>
  12:USB/core/usbd_desc.c ****   *
  13:USB/core/usbd_desc.c ****   * Licensed under MCD-ST Liberty SW License Agreement V2, (the "License");
  14:USB/core/usbd_desc.c ****   * You may not use this file except in compliance with the License.
  15:USB/core/usbd_desc.c ****   * You may obtain a copy of the License at:
  16:USB/core/usbd_desc.c ****   *
  17:USB/core/usbd_desc.c ****   *        http://www.st.com/software_license_agreement_liberty_v2
  18:USB/core/usbd_desc.c ****   *
  19:USB/core/usbd_desc.c ****   * Unless required by applicable law or agreed to in writing, software 
  20:USB/core/usbd_desc.c ****   * distributed under the License is distributed on an "AS IS" BASIS, 
  21:USB/core/usbd_desc.c ****   * WITHOUT WARRANTIES OR CONDITIONS OF ANY KIND, either express or implied.
  22:USB/core/usbd_desc.c ****   * See the License for the specific language governing permissions and
  23:USB/core/usbd_desc.c ****   * limitations under the License.
  24:USB/core/usbd_desc.c ****   *
  25:USB/core/usbd_desc.c ****   ******************************************************************************
  26:USB/core/usbd_desc.c ****   */
  27:USB/core/usbd_desc.c **** 
  28:USB/core/usbd_desc.c **** /* Includes ------------------------------------------------------------------*/
  29:USB/core/usbd_desc.c **** #include "usbd_core.h"
ARM GAS  /var/folders/lx/hc4sn_b53233_zkc9xbbl97r0000gp/T//ccvsxlVY.s 			page 2


  30:USB/core/usbd_desc.c **** #include "usbd_desc.h"
  31:USB/core/usbd_desc.c **** #include "usbd_req.h"
  32:USB/core/usbd_desc.c **** #include "usbd_conf.h"
  33:USB/core/usbd_desc.c **** #include "usb_regs.h"
  34:USB/core/usbd_desc.c **** 
  35:USB/core/usbd_desc.c **** #define USBD_VID 0x0483
  36:USB/core/usbd_desc.c **** #define USBD_PID 0x5740
  37:USB/core/usbd_desc.c **** 
  38:USB/core/usbd_desc.c **** /** @defgroup USB_String_Descriptors
  39:USB/core/usbd_desc.c ****   * @{
  40:USB/core/usbd_desc.c ****   */
  41:USB/core/usbd_desc.c **** #define USBD_LANGID_STRING 0x409
  42:USB/core/usbd_desc.c **** #define USBD_MANUFACTURER_STRING "8BIT" //"STMicroelectronics"
  43:USB/core/usbd_desc.c **** 
  44:USB/core/usbd_desc.c **** #define USBD_PRODUCT_HS_STRING "STM32 Virtual ComPort in HS mode"
  45:USB/core/usbd_desc.c **** #define USBD_SERIALNUMBER_HS_STRING "00000000050B"
  46:USB/core/usbd_desc.c **** 
  47:USB/core/usbd_desc.c **** #define USBD_PRODUCT_FS_STRING "8Bit_FlightController" //"STM32 Virtual ComPort in FS Mode"
  48:USB/core/usbd_desc.c **** #define USBD_SERIALNUMBER_FS_STRING "00000000050C"
  49:USB/core/usbd_desc.c **** 
  50:USB/core/usbd_desc.c **** #define USBD_CONFIGURATION_HS_STRING "VCP Config"
  51:USB/core/usbd_desc.c **** #define USBD_INTERFACE_HS_STRING "VCP Interface"
  52:USB/core/usbd_desc.c **** 
  53:USB/core/usbd_desc.c **** #define USBD_CONFIGURATION_FS_STRING "VCP Config"
  54:USB/core/usbd_desc.c **** #define USBD_INTERFACE_FS_STRING "VCP Interface"
  55:USB/core/usbd_desc.c **** 
  56:USB/core/usbd_desc.c **** USBD_DEVICE USR_desc =
  57:USB/core/usbd_desc.c ****     {
  58:USB/core/usbd_desc.c ****         USBD_USR_DeviceDescriptor,
  59:USB/core/usbd_desc.c ****         USBD_USR_LangIDStrDescriptor,
  60:USB/core/usbd_desc.c ****         USBD_USR_ManufacturerStrDescriptor,
  61:USB/core/usbd_desc.c ****         USBD_USR_ProductStrDescriptor,
  62:USB/core/usbd_desc.c ****         USBD_USR_SerialStrDescriptor,
  63:USB/core/usbd_desc.c ****         USBD_USR_ConfigStrDescriptor,
  64:USB/core/usbd_desc.c ****         USBD_USR_InterfaceStrDescriptor,
  65:USB/core/usbd_desc.c **** 
  66:USB/core/usbd_desc.c **** };
  67:USB/core/usbd_desc.c **** 
  68:USB/core/usbd_desc.c **** /* USB Standard Device Descriptor */
  69:USB/core/usbd_desc.c **** __ALIGN_BEGIN uint8_t USBD_DeviceDesc[USB_SIZ_DEVICE_DESC] __ALIGN_END =
  70:USB/core/usbd_desc.c ****     {
  71:USB/core/usbd_desc.c ****         0x12,                       /*bLength */
  72:USB/core/usbd_desc.c ****         USB_DEVICE_DESCRIPTOR_TYPE, /*bDescriptorType*/
  73:USB/core/usbd_desc.c ****         0x00,                       /*bcdUSB */
  74:USB/core/usbd_desc.c ****         0x02,
  75:USB/core/usbd_desc.c ****         0x00,                 /*bDeviceClass*/
  76:USB/core/usbd_desc.c ****         0x00,                 /*bDeviceSubClass*/
  77:USB/core/usbd_desc.c ****         0x00,                 /*bDeviceProtocol*/
  78:USB/core/usbd_desc.c ****         USB_OTG_MAX_EP0_SIZE, /*bMaxPacketSize*/
  79:USB/core/usbd_desc.c ****         LOBYTE(USBD_VID),     /*idVendor*/
  80:USB/core/usbd_desc.c ****         HIBYTE(USBD_VID),     /*idVendor*/
  81:USB/core/usbd_desc.c ****         LOBYTE(USBD_PID),     /*idVendor*/
  82:USB/core/usbd_desc.c ****         HIBYTE(USBD_PID),     /*idVendor*/
  83:USB/core/usbd_desc.c ****         0x00,                 /*bcdDevice rel. 2.00*/
  84:USB/core/usbd_desc.c ****         0x02,
  85:USB/core/usbd_desc.c ****         USBD_IDX_MFC_STR,     /*Index of manufacturer  string*/
  86:USB/core/usbd_desc.c ****         USBD_IDX_PRODUCT_STR, /*Index of product string*/
ARM GAS  /var/folders/lx/hc4sn_b53233_zkc9xbbl97r0000gp/T//ccvsxlVY.s 			page 3


  87:USB/core/usbd_desc.c ****         USBD_IDX_SERIAL_STR,  /*Index of serial number string*/
  88:USB/core/usbd_desc.c ****         USBD_CFG_MAX_NUM      /*bNumConfigurations*/
  89:USB/core/usbd_desc.c **** };                            /* USB_DeviceDescriptor */
  90:USB/core/usbd_desc.c **** 
  91:USB/core/usbd_desc.c **** /* USB Standard Device Descriptor */
  92:USB/core/usbd_desc.c **** __ALIGN_BEGIN uint8_t USBD_DeviceQualifierDesc[USB_LEN_DEV_QUALIFIER_DESC] __ALIGN_END =
  93:USB/core/usbd_desc.c ****     {
  94:USB/core/usbd_desc.c ****         USB_LEN_DEV_QUALIFIER_DESC,
  95:USB/core/usbd_desc.c ****         USB_DESC_TYPE_DEVICE_QUALIFIER,
  96:USB/core/usbd_desc.c ****         0x00,
  97:USB/core/usbd_desc.c ****         0x02,
  98:USB/core/usbd_desc.c ****         0x00,
  99:USB/core/usbd_desc.c ****         0x00,
 100:USB/core/usbd_desc.c ****         0x00,
 101:USB/core/usbd_desc.c ****         0x40,
 102:USB/core/usbd_desc.c ****         0x01,
 103:USB/core/usbd_desc.c ****         0x00,
 104:USB/core/usbd_desc.c **** };
 105:USB/core/usbd_desc.c **** 
 106:USB/core/usbd_desc.c **** /* USB Standard Device Descriptor */
 107:USB/core/usbd_desc.c **** __ALIGN_BEGIN uint8_t USBD_LangIDDesc[USB_SIZ_STRING_LANGID] __ALIGN_END =
 108:USB/core/usbd_desc.c ****     {
 109:USB/core/usbd_desc.c ****         USB_SIZ_STRING_LANGID,
 110:USB/core/usbd_desc.c ****         USB_DESC_TYPE_STRING,
 111:USB/core/usbd_desc.c ****         LOBYTE(USBD_LANGID_STRING),
 112:USB/core/usbd_desc.c ****         HIBYTE(USBD_LANGID_STRING),
 113:USB/core/usbd_desc.c **** };
 114:USB/core/usbd_desc.c **** 
 115:USB/core/usbd_desc.c **** /**
 116:USB/core/usbd_desc.c **** * @brief  USBD_USR_DeviceDescriptor 
 117:USB/core/usbd_desc.c **** *         return the device descriptor
 118:USB/core/usbd_desc.c **** * @param  speed : current device speed
 119:USB/core/usbd_desc.c **** * @param  length : pointer to data length variable
 120:USB/core/usbd_desc.c **** * @retval pointer to descriptor buffer
 121:USB/core/usbd_desc.c **** */
 122:USB/core/usbd_desc.c **** uint8_t *USBD_USR_DeviceDescriptor(uint8_t speed, uint16_t *length)
 123:USB/core/usbd_desc.c **** {
  30              		.loc 1 123 1 view -0
  31              		.cfi_startproc
  32              		@ args = 0, pretend = 0, frame = 0
  33              		@ frame_needed = 0, uses_anonymous_args = 0
  34              		@ link register save eliminated.
 124:USB/core/usbd_desc.c ****   *length = sizeof(USBD_DeviceDesc);
  35              		.loc 1 124 3 view .LVU1
  36              		.loc 1 124 11 is_stmt 0 view .LVU2
  37 0000 1223     		movs	r3, #18
  38 0002 0B80     		strh	r3, [r1]	@ movhi
 125:USB/core/usbd_desc.c ****   return USBD_DeviceDesc;
  39              		.loc 1 125 3 is_stmt 1 view .LVU3
 126:USB/core/usbd_desc.c **** }
  40              		.loc 1 126 1 is_stmt 0 view .LVU4
  41 0004 0048     		ldr	r0, .L2
  42              	.LVL1:
  43              		.loc 1 126 1 view .LVU5
  44 0006 7047     		bx	lr
  45              	.L3:
  46              		.align	2
ARM GAS  /var/folders/lx/hc4sn_b53233_zkc9xbbl97r0000gp/T//ccvsxlVY.s 			page 4


  47              	.L2:
  48 0008 00000000 		.word	.LANCHOR0
  49              		.cfi_endproc
  50              	.LFE126:
  52              		.section	.text.USBD_USR_LangIDStrDescriptor,"ax",%progbits
  53              		.align	1
  54              		.global	USBD_USR_LangIDStrDescriptor
  55              		.syntax unified
  56              		.thumb
  57              		.thumb_func
  58              		.fpu fpv4-sp-d16
  60              	USBD_USR_LangIDStrDescriptor:
  61              	.LVL2:
  62              	.LFB127:
 127:USB/core/usbd_desc.c **** 
 128:USB/core/usbd_desc.c **** /**
 129:USB/core/usbd_desc.c **** * @brief  USBD_USR_LangIDStrDescriptor 
 130:USB/core/usbd_desc.c **** *         return the LangID string descriptor
 131:USB/core/usbd_desc.c **** * @param  speed : current device speed
 132:USB/core/usbd_desc.c **** * @param  length : pointer to data length variable
 133:USB/core/usbd_desc.c **** * @retval pointer to descriptor buffer
 134:USB/core/usbd_desc.c **** */
 135:USB/core/usbd_desc.c **** uint8_t *USBD_USR_LangIDStrDescriptor(uint8_t speed, uint16_t *length)
 136:USB/core/usbd_desc.c **** {
  63              		.loc 1 136 1 is_stmt 1 view -0
  64              		.cfi_startproc
  65              		@ args = 0, pretend = 0, frame = 0
  66              		@ frame_needed = 0, uses_anonymous_args = 0
  67              		@ link register save eliminated.
 137:USB/core/usbd_desc.c ****   *length = sizeof(USBD_LangIDDesc);
  68              		.loc 1 137 3 view .LVU7
  69              		.loc 1 137 11 is_stmt 0 view .LVU8
  70 0000 0423     		movs	r3, #4
  71 0002 0B80     		strh	r3, [r1]	@ movhi
 138:USB/core/usbd_desc.c ****   return USBD_LangIDDesc;
  72              		.loc 1 138 3 is_stmt 1 view .LVU9
 139:USB/core/usbd_desc.c **** }
  73              		.loc 1 139 1 is_stmt 0 view .LVU10
  74 0004 0048     		ldr	r0, .L5
  75              	.LVL3:
  76              		.loc 1 139 1 view .LVU11
  77 0006 7047     		bx	lr
  78              	.L6:
  79              		.align	2
  80              	.L5:
  81 0008 00000000 		.word	.LANCHOR1
  82              		.cfi_endproc
  83              	.LFE127:
  85              		.section	.rodata.USBD_USR_ProductStrDescriptor.str1.4,"aMS",%progbits,1
  86              		.align	2
  87              	.LC0:
  88 0000 38426974 		.ascii	"8Bit_FlightController\000"
  88      5F466C69 
  88      67687443 
  88      6F6E7472 
  88      6F6C6C65 
  89              		.section	.text.USBD_USR_ProductStrDescriptor,"ax",%progbits
ARM GAS  /var/folders/lx/hc4sn_b53233_zkc9xbbl97r0000gp/T//ccvsxlVY.s 			page 5


  90              		.align	1
  91              		.global	USBD_USR_ProductStrDescriptor
  92              		.syntax unified
  93              		.thumb
  94              		.thumb_func
  95              		.fpu fpv4-sp-d16
  97              	USBD_USR_ProductStrDescriptor:
  98              	.LVL4:
  99              	.LFB128:
 140:USB/core/usbd_desc.c **** 
 141:USB/core/usbd_desc.c **** /**
 142:USB/core/usbd_desc.c **** * @brief  USBD_USR_ProductStrDescriptor 
 143:USB/core/usbd_desc.c **** *         return the product string descriptor
 144:USB/core/usbd_desc.c **** * @param  speed : current device speed
 145:USB/core/usbd_desc.c **** * @param  length : pointer to data length variable
 146:USB/core/usbd_desc.c **** * @retval pointer to descriptor buffer
 147:USB/core/usbd_desc.c **** */
 148:USB/core/usbd_desc.c **** uint8_t *USBD_USR_ProductStrDescriptor(uint8_t speed, uint16_t *length)
 149:USB/core/usbd_desc.c **** {
 100              		.loc 1 149 1 is_stmt 1 view -0
 101              		.cfi_startproc
 102              		@ args = 0, pretend = 0, frame = 0
 103              		@ frame_needed = 0, uses_anonymous_args = 0
 104              		.loc 1 149 1 is_stmt 0 view .LVU13
 105 0000 10B5     		push	{r4, lr}
 106              	.LCFI0:
 107              		.cfi_def_cfa_offset 8
 108              		.cfi_offset 4, -8
 109              		.cfi_offset 14, -4
 110 0002 0A46     		mov	r2, r1
 150:USB/core/usbd_desc.c ****   USBD_GetString(USBD_PRODUCT_FS_STRING, USBD_StrDesc, length);
 111              		.loc 1 150 3 is_stmt 1 view .LVU14
 112 0004 034C     		ldr	r4, .L9
 113 0006 2146     		mov	r1, r4
 114              	.LVL5:
 115              		.loc 1 150 3 is_stmt 0 view .LVU15
 116 0008 0348     		ldr	r0, .L9+4
 117              	.LVL6:
 118              		.loc 1 150 3 view .LVU16
 119 000a FFF7FEFF 		bl	USBD_GetString
 120              	.LVL7:
 151:USB/core/usbd_desc.c ****   return USBD_StrDesc;
 121              		.loc 1 151 3 is_stmt 1 view .LVU17
 152:USB/core/usbd_desc.c **** }
 122              		.loc 1 152 1 is_stmt 0 view .LVU18
 123 000e 2046     		mov	r0, r4
 124 0010 10BD     		pop	{r4, pc}
 125              	.L10:
 126 0012 00BF     		.align	2
 127              	.L9:
 128 0014 00000000 		.word	USBD_StrDesc
 129 0018 00000000 		.word	.LC0
 130              		.cfi_endproc
 131              	.LFE128:
 133              		.section	.rodata.USBD_USR_ManufacturerStrDescriptor.str1.4,"aMS",%progbits,1
 134              		.align	2
 135              	.LC1:
ARM GAS  /var/folders/lx/hc4sn_b53233_zkc9xbbl97r0000gp/T//ccvsxlVY.s 			page 6


 136 0000 38424954 		.ascii	"8BIT\000"
 136      00
 137              		.section	.text.USBD_USR_ManufacturerStrDescriptor,"ax",%progbits
 138              		.align	1
 139              		.global	USBD_USR_ManufacturerStrDescriptor
 140              		.syntax unified
 141              		.thumb
 142              		.thumb_func
 143              		.fpu fpv4-sp-d16
 145              	USBD_USR_ManufacturerStrDescriptor:
 146              	.LVL8:
 147              	.LFB129:
 153:USB/core/usbd_desc.c **** 
 154:USB/core/usbd_desc.c **** /**
 155:USB/core/usbd_desc.c **** * @brief  USBD_USR_ManufacturerStrDescriptor 
 156:USB/core/usbd_desc.c **** *         return the manufacturer string descriptor
 157:USB/core/usbd_desc.c **** * @param  speed : current device speed
 158:USB/core/usbd_desc.c **** * @param  length : pointer to data length variable
 159:USB/core/usbd_desc.c **** * @retval pointer to descriptor buffer
 160:USB/core/usbd_desc.c **** */
 161:USB/core/usbd_desc.c **** uint8_t *USBD_USR_ManufacturerStrDescriptor(uint8_t speed, uint16_t *length)
 162:USB/core/usbd_desc.c **** {
 148              		.loc 1 162 1 is_stmt 1 view -0
 149              		.cfi_startproc
 150              		@ args = 0, pretend = 0, frame = 0
 151              		@ frame_needed = 0, uses_anonymous_args = 0
 152              		.loc 1 162 1 is_stmt 0 view .LVU20
 153 0000 10B5     		push	{r4, lr}
 154              	.LCFI1:
 155              		.cfi_def_cfa_offset 8
 156              		.cfi_offset 4, -8
 157              		.cfi_offset 14, -4
 158 0002 0A46     		mov	r2, r1
 163:USB/core/usbd_desc.c ****   USBD_GetString(USBD_MANUFACTURER_STRING, USBD_StrDesc, length);
 159              		.loc 1 163 3 is_stmt 1 view .LVU21
 160 0004 034C     		ldr	r4, .L13
 161 0006 2146     		mov	r1, r4
 162              	.LVL9:
 163              		.loc 1 163 3 is_stmt 0 view .LVU22
 164 0008 0348     		ldr	r0, .L13+4
 165              	.LVL10:
 166              		.loc 1 163 3 view .LVU23
 167 000a FFF7FEFF 		bl	USBD_GetString
 168              	.LVL11:
 164:USB/core/usbd_desc.c ****   return USBD_StrDesc;
 169              		.loc 1 164 3 is_stmt 1 view .LVU24
 165:USB/core/usbd_desc.c **** }
 170              		.loc 1 165 1 is_stmt 0 view .LVU25
 171 000e 2046     		mov	r0, r4
 172 0010 10BD     		pop	{r4, pc}
 173              	.L14:
 174 0012 00BF     		.align	2
 175              	.L13:
 176 0014 00000000 		.word	USBD_StrDesc
 177 0018 00000000 		.word	.LC1
 178              		.cfi_endproc
 179              	.LFE129:
ARM GAS  /var/folders/lx/hc4sn_b53233_zkc9xbbl97r0000gp/T//ccvsxlVY.s 			page 7


 181              		.section	.rodata.USBD_USR_SerialStrDescriptor.str1.4,"aMS",%progbits,1
 182              		.align	2
 183              	.LC2:
 184 0000 30303030 		.ascii	"00000000050C\000"
 184      30303030 
 184      30353043 
 184      00
 185              		.section	.text.USBD_USR_SerialStrDescriptor,"ax",%progbits
 186              		.align	1
 187              		.global	USBD_USR_SerialStrDescriptor
 188              		.syntax unified
 189              		.thumb
 190              		.thumb_func
 191              		.fpu fpv4-sp-d16
 193              	USBD_USR_SerialStrDescriptor:
 194              	.LVL12:
 195              	.LFB130:
 166:USB/core/usbd_desc.c **** 
 167:USB/core/usbd_desc.c **** /**
 168:USB/core/usbd_desc.c **** * @brief  USBD_USR_SerialStrDescriptor 
 169:USB/core/usbd_desc.c **** *         return the serial number string descriptor
 170:USB/core/usbd_desc.c **** * @param  speed : current device speed
 171:USB/core/usbd_desc.c **** * @param  length : pointer to data length variable
 172:USB/core/usbd_desc.c **** * @retval pointer to descriptor buffer
 173:USB/core/usbd_desc.c **** */
 174:USB/core/usbd_desc.c **** uint8_t *USBD_USR_SerialStrDescriptor(uint8_t speed, uint16_t *length)
 175:USB/core/usbd_desc.c **** {
 196              		.loc 1 175 1 is_stmt 1 view -0
 197              		.cfi_startproc
 198              		@ args = 0, pretend = 0, frame = 0
 199              		@ frame_needed = 0, uses_anonymous_args = 0
 200              		.loc 1 175 1 is_stmt 0 view .LVU27
 201 0000 10B5     		push	{r4, lr}
 202              	.LCFI2:
 203              		.cfi_def_cfa_offset 8
 204              		.cfi_offset 4, -8
 205              		.cfi_offset 14, -4
 206 0002 0A46     		mov	r2, r1
 176:USB/core/usbd_desc.c ****   USBD_GetString(USBD_SERIALNUMBER_FS_STRING, USBD_StrDesc, length);
 207              		.loc 1 176 3 is_stmt 1 view .LVU28
 208 0004 034C     		ldr	r4, .L17
 209 0006 2146     		mov	r1, r4
 210              	.LVL13:
 211              		.loc 1 176 3 is_stmt 0 view .LVU29
 212 0008 0348     		ldr	r0, .L17+4
 213              	.LVL14:
 214              		.loc 1 176 3 view .LVU30
 215 000a FFF7FEFF 		bl	USBD_GetString
 216              	.LVL15:
 177:USB/core/usbd_desc.c ****   return USBD_StrDesc;
 217              		.loc 1 177 3 is_stmt 1 view .LVU31
 178:USB/core/usbd_desc.c **** }
 218              		.loc 1 178 1 is_stmt 0 view .LVU32
 219 000e 2046     		mov	r0, r4
 220 0010 10BD     		pop	{r4, pc}
 221              	.L18:
 222 0012 00BF     		.align	2
ARM GAS  /var/folders/lx/hc4sn_b53233_zkc9xbbl97r0000gp/T//ccvsxlVY.s 			page 8


 223              	.L17:
 224 0014 00000000 		.word	USBD_StrDesc
 225 0018 00000000 		.word	.LC2
 226              		.cfi_endproc
 227              	.LFE130:
 229              		.section	.rodata.USBD_USR_ConfigStrDescriptor.str1.4,"aMS",%progbits,1
 230              		.align	2
 231              	.LC3:
 232 0000 56435020 		.ascii	"VCP Config\000"
 232      436F6E66 
 232      696700
 233              		.section	.text.USBD_USR_ConfigStrDescriptor,"ax",%progbits
 234              		.align	1
 235              		.global	USBD_USR_ConfigStrDescriptor
 236              		.syntax unified
 237              		.thumb
 238              		.thumb_func
 239              		.fpu fpv4-sp-d16
 241              	USBD_USR_ConfigStrDescriptor:
 242              	.LVL16:
 243              	.LFB131:
 179:USB/core/usbd_desc.c **** 
 180:USB/core/usbd_desc.c **** /**
 181:USB/core/usbd_desc.c **** * @brief  USBD_USR_ConfigStrDescriptor 
 182:USB/core/usbd_desc.c **** *         return the configuration string descriptor
 183:USB/core/usbd_desc.c **** * @param  speed : current device speed
 184:USB/core/usbd_desc.c **** * @param  length : pointer to data length variable
 185:USB/core/usbd_desc.c **** * @retval pointer to descriptor buffer
 186:USB/core/usbd_desc.c **** */
 187:USB/core/usbd_desc.c **** uint8_t *USBD_USR_ConfigStrDescriptor(uint8_t speed, uint16_t *length)
 188:USB/core/usbd_desc.c **** {
 244              		.loc 1 188 1 is_stmt 1 view -0
 245              		.cfi_startproc
 246              		@ args = 0, pretend = 0, frame = 0
 247              		@ frame_needed = 0, uses_anonymous_args = 0
 248              		.loc 1 188 1 is_stmt 0 view .LVU34
 249 0000 10B5     		push	{r4, lr}
 250              	.LCFI3:
 251              		.cfi_def_cfa_offset 8
 252              		.cfi_offset 4, -8
 253              		.cfi_offset 14, -4
 254 0002 0A46     		mov	r2, r1
 189:USB/core/usbd_desc.c ****   USBD_GetString(USBD_CONFIGURATION_FS_STRING, USBD_StrDesc, length);
 255              		.loc 1 189 3 is_stmt 1 view .LVU35
 256 0004 034C     		ldr	r4, .L21
 257 0006 2146     		mov	r1, r4
 258              	.LVL17:
 259              		.loc 1 189 3 is_stmt 0 view .LVU36
 260 0008 0348     		ldr	r0, .L21+4
 261              	.LVL18:
 262              		.loc 1 189 3 view .LVU37
 263 000a FFF7FEFF 		bl	USBD_GetString
 264              	.LVL19:
 190:USB/core/usbd_desc.c ****   return USBD_StrDesc;
 265              		.loc 1 190 3 is_stmt 1 view .LVU38
 191:USB/core/usbd_desc.c **** }
 266              		.loc 1 191 1 is_stmt 0 view .LVU39
ARM GAS  /var/folders/lx/hc4sn_b53233_zkc9xbbl97r0000gp/T//ccvsxlVY.s 			page 9


 267 000e 2046     		mov	r0, r4
 268 0010 10BD     		pop	{r4, pc}
 269              	.L22:
 270 0012 00BF     		.align	2
 271              	.L21:
 272 0014 00000000 		.word	USBD_StrDesc
 273 0018 00000000 		.word	.LC3
 274              		.cfi_endproc
 275              	.LFE131:
 277              		.section	.rodata.USBD_USR_InterfaceStrDescriptor.str1.4,"aMS",%progbits,1
 278              		.align	2
 279              	.LC4:
 280 0000 56435020 		.ascii	"VCP Interface\000"
 280      496E7465 
 280      72666163 
 280      6500
 281              		.section	.text.USBD_USR_InterfaceStrDescriptor,"ax",%progbits
 282              		.align	1
 283              		.global	USBD_USR_InterfaceStrDescriptor
 284              		.syntax unified
 285              		.thumb
 286              		.thumb_func
 287              		.fpu fpv4-sp-d16
 289              	USBD_USR_InterfaceStrDescriptor:
 290              	.LVL20:
 291              	.LFB132:
 192:USB/core/usbd_desc.c **** 
 193:USB/core/usbd_desc.c **** /**
 194:USB/core/usbd_desc.c **** * @brief  USBD_USR_InterfaceStrDescriptor 
 195:USB/core/usbd_desc.c **** *         return the interface string descriptor
 196:USB/core/usbd_desc.c **** * @param  speed : current device speed
 197:USB/core/usbd_desc.c **** * @param  length : pointer to data length variable
 198:USB/core/usbd_desc.c **** * @retval pointer to descriptor buffer
 199:USB/core/usbd_desc.c **** */
 200:USB/core/usbd_desc.c **** uint8_t *USBD_USR_InterfaceStrDescriptor(uint8_t speed, uint16_t *length)
 201:USB/core/usbd_desc.c **** {
 292              		.loc 1 201 1 is_stmt 1 view -0
 293              		.cfi_startproc
 294              		@ args = 0, pretend = 0, frame = 0
 295              		@ frame_needed = 0, uses_anonymous_args = 0
 296              		.loc 1 201 1 is_stmt 0 view .LVU41
 297 0000 10B5     		push	{r4, lr}
 298              	.LCFI4:
 299              		.cfi_def_cfa_offset 8
 300              		.cfi_offset 4, -8
 301              		.cfi_offset 14, -4
 302 0002 0A46     		mov	r2, r1
 202:USB/core/usbd_desc.c ****   USBD_GetString(USBD_INTERFACE_FS_STRING, USBD_StrDesc, length);
 303              		.loc 1 202 3 is_stmt 1 view .LVU42
 304 0004 034C     		ldr	r4, .L25
 305 0006 2146     		mov	r1, r4
 306              	.LVL21:
 307              		.loc 1 202 3 is_stmt 0 view .LVU43
 308 0008 0348     		ldr	r0, .L25+4
 309              	.LVL22:
 310              		.loc 1 202 3 view .LVU44
 311 000a FFF7FEFF 		bl	USBD_GetString
ARM GAS  /var/folders/lx/hc4sn_b53233_zkc9xbbl97r0000gp/T//ccvsxlVY.s 			page 10


 312              	.LVL23:
 203:USB/core/usbd_desc.c ****   return USBD_StrDesc;
 313              		.loc 1 203 3 is_stmt 1 view .LVU45
 204:USB/core/usbd_desc.c **** }
 314              		.loc 1 204 1 is_stmt 0 view .LVU46
 315 000e 2046     		mov	r0, r4
 316 0010 10BD     		pop	{r4, pc}
 317              	.L26:
 318 0012 00BF     		.align	2
 319              	.L25:
 320 0014 00000000 		.word	USBD_StrDesc
 321 0018 00000000 		.word	.LC4
 322              		.cfi_endproc
 323              	.LFE132:
 325              		.global	USBD_LangIDDesc
 326              		.global	USBD_DeviceQualifierDesc
 327              		.global	USBD_DeviceDesc
 328              		.global	USR_desc
 329              		.section	.data.USBD_DeviceDesc,"aw"
 330              		.align	2
 331              		.set	.LANCHOR0,. + 0
 334              	USBD_DeviceDesc:
 335 0000 12010002 		.ascii	"\022\001\000\002\000\000\000@\203\004@W\000\002\001"
 335      00000040 
 335      83044057 
 335      000201
 336 000f 020301   		.ascii	"\002\003\001"
 337              		.section	.data.USBD_DeviceQualifierDesc,"aw"
 338              		.align	2
 341              	USBD_DeviceQualifierDesc:
 342 0000 0A060002 		.ascii	"\012\006\000\002\000\000\000@\001\000"
 342      00000040 
 342      0100
 343              		.section	.data.USBD_LangIDDesc,"aw"
 344              		.align	2
 345              		.set	.LANCHOR1,. + 0
 348              	USBD_LangIDDesc:
 349 0000 04030904 		.ascii	"\004\003\011\004"
 350              		.section	.data.USR_desc,"aw"
 351              		.align	2
 354              	USR_desc:
 355 0000 00000000 		.word	USBD_USR_DeviceDescriptor
 356 0004 00000000 		.word	USBD_USR_LangIDStrDescriptor
 357 0008 00000000 		.word	USBD_USR_ManufacturerStrDescriptor
 358 000c 00000000 		.word	USBD_USR_ProductStrDescriptor
 359 0010 00000000 		.word	USBD_USR_SerialStrDescriptor
 360 0014 00000000 		.word	USBD_USR_ConfigStrDescriptor
 361 0018 00000000 		.word	USBD_USR_InterfaceStrDescriptor
 362              		.text
 363              	.Letext0:
 364              		.file 2 "/usr/local/arm-none-eabi-gcc/gcc-arm-none-eabi-10-2020-q4-major/arm-none-eabi/include/mac
 365              		.file 3 "/usr/local/arm-none-eabi-gcc/gcc-arm-none-eabi-10-2020-q4-major/arm-none-eabi/include/sys
 366              		.file 4 "USB/core/usb_core.h"
 367              		.file 5 "USB/core/usbd_desc.h"
 368              		.file 6 "USB/core/usbd_req.h"
ARM GAS  /var/folders/lx/hc4sn_b53233_zkc9xbbl97r0000gp/T//ccvsxlVY.s 			page 11


DEFINED SYMBOLS
                            *ABS*:0000000000000000 usbd_desc.c
/var/folders/lx/hc4sn_b53233_zkc9xbbl97r0000gp/T//ccvsxlVY.s:18     .text.USBD_USR_DeviceDescriptor:0000000000000000 $t
/var/folders/lx/hc4sn_b53233_zkc9xbbl97r0000gp/T//ccvsxlVY.s:26     .text.USBD_USR_DeviceDescriptor:0000000000000000 USBD_USR_DeviceDescriptor
/var/folders/lx/hc4sn_b53233_zkc9xbbl97r0000gp/T//ccvsxlVY.s:48     .text.USBD_USR_DeviceDescriptor:0000000000000008 $d
/var/folders/lx/hc4sn_b53233_zkc9xbbl97r0000gp/T//ccvsxlVY.s:53     .text.USBD_USR_LangIDStrDescriptor:0000000000000000 $t
/var/folders/lx/hc4sn_b53233_zkc9xbbl97r0000gp/T//ccvsxlVY.s:60     .text.USBD_USR_LangIDStrDescriptor:0000000000000000 USBD_USR_LangIDStrDescriptor
/var/folders/lx/hc4sn_b53233_zkc9xbbl97r0000gp/T//ccvsxlVY.s:81     .text.USBD_USR_LangIDStrDescriptor:0000000000000008 $d
/var/folders/lx/hc4sn_b53233_zkc9xbbl97r0000gp/T//ccvsxlVY.s:86     .rodata.USBD_USR_ProductStrDescriptor.str1.4:0000000000000000 $d
/var/folders/lx/hc4sn_b53233_zkc9xbbl97r0000gp/T//ccvsxlVY.s:90     .text.USBD_USR_ProductStrDescriptor:0000000000000000 $t
/var/folders/lx/hc4sn_b53233_zkc9xbbl97r0000gp/T//ccvsxlVY.s:97     .text.USBD_USR_ProductStrDescriptor:0000000000000000 USBD_USR_ProductStrDescriptor
/var/folders/lx/hc4sn_b53233_zkc9xbbl97r0000gp/T//ccvsxlVY.s:128    .text.USBD_USR_ProductStrDescriptor:0000000000000014 $d
/var/folders/lx/hc4sn_b53233_zkc9xbbl97r0000gp/T//ccvsxlVY.s:134    .rodata.USBD_USR_ManufacturerStrDescriptor.str1.4:0000000000000000 $d
/var/folders/lx/hc4sn_b53233_zkc9xbbl97r0000gp/T//ccvsxlVY.s:138    .text.USBD_USR_ManufacturerStrDescriptor:0000000000000000 $t
/var/folders/lx/hc4sn_b53233_zkc9xbbl97r0000gp/T//ccvsxlVY.s:145    .text.USBD_USR_ManufacturerStrDescriptor:0000000000000000 USBD_USR_ManufacturerStrDescriptor
/var/folders/lx/hc4sn_b53233_zkc9xbbl97r0000gp/T//ccvsxlVY.s:176    .text.USBD_USR_ManufacturerStrDescriptor:0000000000000014 $d
/var/folders/lx/hc4sn_b53233_zkc9xbbl97r0000gp/T//ccvsxlVY.s:182    .rodata.USBD_USR_SerialStrDescriptor.str1.4:0000000000000000 $d
/var/folders/lx/hc4sn_b53233_zkc9xbbl97r0000gp/T//ccvsxlVY.s:186    .text.USBD_USR_SerialStrDescriptor:0000000000000000 $t
/var/folders/lx/hc4sn_b53233_zkc9xbbl97r0000gp/T//ccvsxlVY.s:193    .text.USBD_USR_SerialStrDescriptor:0000000000000000 USBD_USR_SerialStrDescriptor
/var/folders/lx/hc4sn_b53233_zkc9xbbl97r0000gp/T//ccvsxlVY.s:224    .text.USBD_USR_SerialStrDescriptor:0000000000000014 $d
/var/folders/lx/hc4sn_b53233_zkc9xbbl97r0000gp/T//ccvsxlVY.s:230    .rodata.USBD_USR_ConfigStrDescriptor.str1.4:0000000000000000 $d
/var/folders/lx/hc4sn_b53233_zkc9xbbl97r0000gp/T//ccvsxlVY.s:234    .text.USBD_USR_ConfigStrDescriptor:0000000000000000 $t
/var/folders/lx/hc4sn_b53233_zkc9xbbl97r0000gp/T//ccvsxlVY.s:241    .text.USBD_USR_ConfigStrDescriptor:0000000000000000 USBD_USR_ConfigStrDescriptor
/var/folders/lx/hc4sn_b53233_zkc9xbbl97r0000gp/T//ccvsxlVY.s:272    .text.USBD_USR_ConfigStrDescriptor:0000000000000014 $d
/var/folders/lx/hc4sn_b53233_zkc9xbbl97r0000gp/T//ccvsxlVY.s:278    .rodata.USBD_USR_InterfaceStrDescriptor.str1.4:0000000000000000 $d
/var/folders/lx/hc4sn_b53233_zkc9xbbl97r0000gp/T//ccvsxlVY.s:282    .text.USBD_USR_InterfaceStrDescriptor:0000000000000000 $t
/var/folders/lx/hc4sn_b53233_zkc9xbbl97r0000gp/T//ccvsxlVY.s:289    .text.USBD_USR_InterfaceStrDescriptor:0000000000000000 USBD_USR_InterfaceStrDescriptor
/var/folders/lx/hc4sn_b53233_zkc9xbbl97r0000gp/T//ccvsxlVY.s:320    .text.USBD_USR_InterfaceStrDescriptor:0000000000000014 $d
/var/folders/lx/hc4sn_b53233_zkc9xbbl97r0000gp/T//ccvsxlVY.s:348    .data.USBD_LangIDDesc:0000000000000000 USBD_LangIDDesc
/var/folders/lx/hc4sn_b53233_zkc9xbbl97r0000gp/T//ccvsxlVY.s:341    .data.USBD_DeviceQualifierDesc:0000000000000000 USBD_DeviceQualifierDesc
/var/folders/lx/hc4sn_b53233_zkc9xbbl97r0000gp/T//ccvsxlVY.s:334    .data.USBD_DeviceDesc:0000000000000000 USBD_DeviceDesc
/var/folders/lx/hc4sn_b53233_zkc9xbbl97r0000gp/T//ccvsxlVY.s:354    .data.USR_desc:0000000000000000 USR_desc
/var/folders/lx/hc4sn_b53233_zkc9xbbl97r0000gp/T//ccvsxlVY.s:330    .data.USBD_DeviceDesc:0000000000000000 $d
/var/folders/lx/hc4sn_b53233_zkc9xbbl97r0000gp/T//ccvsxlVY.s:338    .data.USBD_DeviceQualifierDesc:0000000000000000 $d
/var/folders/lx/hc4sn_b53233_zkc9xbbl97r0000gp/T//ccvsxlVY.s:344    .data.USBD_LangIDDesc:0000000000000000 $d
/var/folders/lx/hc4sn_b53233_zkc9xbbl97r0000gp/T//ccvsxlVY.s:351    .data.USR_desc:0000000000000000 $d

UNDEFINED SYMBOLS
USBD_GetString
USBD_StrDesc
