ARM GAS  /var/folders/lx/hc4sn_b53233_zkc9xbbl97r0000gp/T//ccXvltmH.s 			page 1


   1              		.cpu cortex-m4
   2              		.eabi_attribute 27, 1
   3              		.eabi_attribute 28, 1
   4              		.eabi_attribute 20, 1
   5              		.eabi_attribute 21, 1
   6              		.eabi_attribute 23, 3
   7              		.eabi_attribute 24, 1
   8              		.eabi_attribute 25, 1
   9              		.eabi_attribute 26, 1
  10              		.eabi_attribute 30, 1
  11              		.eabi_attribute 34, 1
  12              		.eabi_attribute 18, 4
  13              		.file	"usbd_core.c"
  14              		.text
  15              	.Ltext0:
  16              		.cfi_sections	.debug_frame
  17              		.section	.text.USBD_RunTestMode,"ax",%progbits
  18              		.align	1
  19              		.arch armv7e-m
  20              		.syntax unified
  21              		.thumb
  22              		.thumb_func
  23              		.fpu fpv4-sp-d16
  25              	USBD_RunTestMode:
  26              	.LVL0:
  27              	.LFB131:
  28              		.file 1 "USB/core/usbd_core.c"
   1:USB/core/usbd_core.c **** /**
   2:USB/core/usbd_core.c ****   ******************************************************************************
   3:USB/core/usbd_core.c ****   * @file    usbd_core.c
   4:USB/core/usbd_core.c ****   * @author  MCD Application Team
   5:USB/core/usbd_core.c ****   * @version V1.1.0
   6:USB/core/usbd_core.c ****   * @date    19-March-2012
   7:USB/core/usbd_core.c ****   * @brief   This file provides all the USBD core functions.
   8:USB/core/usbd_core.c ****   ******************************************************************************
   9:USB/core/usbd_core.c ****   * @attention
  10:USB/core/usbd_core.c ****   *
  11:USB/core/usbd_core.c ****   * <h2><center>&copy; COPYRIGHT 2012 STMicroelectronics</center></h2>
  12:USB/core/usbd_core.c ****   *
  13:USB/core/usbd_core.c ****   * Licensed under MCD-ST Liberty SW License Agreement V2, (the "License");
  14:USB/core/usbd_core.c ****   * You may not use this file except in compliance with the License.
  15:USB/core/usbd_core.c ****   * You may obtain a copy of the License at:
  16:USB/core/usbd_core.c ****   *
  17:USB/core/usbd_core.c ****   *        http://www.st.com/software_license_agreement_liberty_v2
  18:USB/core/usbd_core.c ****   *
  19:USB/core/usbd_core.c ****   * Unless required by applicable law or agreed to in writing, software 
  20:USB/core/usbd_core.c ****   * distributed under the License is distributed on an "AS IS" BASIS, 
  21:USB/core/usbd_core.c ****   * WITHOUT WARRANTIES OR CONDITIONS OF ANY KIND, either express or implied.
  22:USB/core/usbd_core.c ****   * See the License for the specific language governing permissions and
  23:USB/core/usbd_core.c ****   * limitations under the License.
  24:USB/core/usbd_core.c ****   *
  25:USB/core/usbd_core.c ****   ******************************************************************************
  26:USB/core/usbd_core.c ****   */ 
  27:USB/core/usbd_core.c **** 
  28:USB/core/usbd_core.c **** /* Includes ------------------------------------------------------------------*/
  29:USB/core/usbd_core.c **** #include "usbd_core.h"
  30:USB/core/usbd_core.c **** #include "usbd_req.h"
ARM GAS  /var/folders/lx/hc4sn_b53233_zkc9xbbl97r0000gp/T//ccXvltmH.s 			page 2


  31:USB/core/usbd_core.c **** #include "usbd_ioreq.h"
  32:USB/core/usbd_core.c **** #include "usb_dcd_int.h"
  33:USB/core/usbd_core.c **** #include "usb_bsp.h"
  34:USB/core/usbd_core.c **** 
  35:USB/core/usbd_core.c **** /** @addtogroup STM32_USB_OTG_DEVICE_LIBRARY
  36:USB/core/usbd_core.c **** * @{
  37:USB/core/usbd_core.c **** */
  38:USB/core/usbd_core.c **** 
  39:USB/core/usbd_core.c **** 
  40:USB/core/usbd_core.c **** /** @defgroup USBD_CORE 
  41:USB/core/usbd_core.c **** * @brief usbd core module
  42:USB/core/usbd_core.c **** * @{
  43:USB/core/usbd_core.c **** */ 
  44:USB/core/usbd_core.c **** 
  45:USB/core/usbd_core.c **** /** @defgroup USBD_CORE_Private_TypesDefinitions
  46:USB/core/usbd_core.c **** * @{
  47:USB/core/usbd_core.c **** */ 
  48:USB/core/usbd_core.c **** /**
  49:USB/core/usbd_core.c **** * @}
  50:USB/core/usbd_core.c **** */ 
  51:USB/core/usbd_core.c **** 
  52:USB/core/usbd_core.c **** 
  53:USB/core/usbd_core.c **** /** @defgroup USBD_CORE_Private_Defines
  54:USB/core/usbd_core.c **** * @{
  55:USB/core/usbd_core.c **** */ 
  56:USB/core/usbd_core.c **** 
  57:USB/core/usbd_core.c **** /**
  58:USB/core/usbd_core.c **** * @}
  59:USB/core/usbd_core.c **** */ 
  60:USB/core/usbd_core.c **** 
  61:USB/core/usbd_core.c **** 
  62:USB/core/usbd_core.c **** /** @defgroup USBD_CORE_Private_Macros
  63:USB/core/usbd_core.c **** * @{
  64:USB/core/usbd_core.c **** */ 
  65:USB/core/usbd_core.c **** /**
  66:USB/core/usbd_core.c **** * @}
  67:USB/core/usbd_core.c **** */ 
  68:USB/core/usbd_core.c **** 
  69:USB/core/usbd_core.c **** 
  70:USB/core/usbd_core.c **** 
  71:USB/core/usbd_core.c **** 
  72:USB/core/usbd_core.c **** /** @defgroup USBD_CORE_Private_FunctionPrototypes
  73:USB/core/usbd_core.c **** * @{
  74:USB/core/usbd_core.c **** */ 
  75:USB/core/usbd_core.c **** static uint8_t USBD_SetupStage(USB_OTG_CORE_HANDLE *pdev);
  76:USB/core/usbd_core.c **** static uint8_t USBD_DataOutStage(USB_OTG_CORE_HANDLE *pdev , uint8_t epnum);
  77:USB/core/usbd_core.c **** static uint8_t USBD_DataInStage(USB_OTG_CORE_HANDLE *pdev , uint8_t epnum);
  78:USB/core/usbd_core.c **** static uint8_t USBD_SOF(USB_OTG_CORE_HANDLE  *pdev);
  79:USB/core/usbd_core.c **** static uint8_t USBD_Reset(USB_OTG_CORE_HANDLE  *pdev);
  80:USB/core/usbd_core.c **** static uint8_t USBD_Suspend(USB_OTG_CORE_HANDLE  *pdev);
  81:USB/core/usbd_core.c **** static uint8_t USBD_Resume(USB_OTG_CORE_HANDLE  *pdev);
  82:USB/core/usbd_core.c **** #ifdef VBUS_SENSING_ENABLED
  83:USB/core/usbd_core.c **** static uint8_t USBD_DevConnected(USB_OTG_CORE_HANDLE  *pdev);
  84:USB/core/usbd_core.c **** static uint8_t USBD_DevDisconnected(USB_OTG_CORE_HANDLE  *pdev);
  85:USB/core/usbd_core.c **** #endif
  86:USB/core/usbd_core.c **** static uint8_t USBD_IsoINIncomplete(USB_OTG_CORE_HANDLE  *pdev);
  87:USB/core/usbd_core.c **** static uint8_t USBD_IsoOUTIncomplete(USB_OTG_CORE_HANDLE  *pdev);
ARM GAS  /var/folders/lx/hc4sn_b53233_zkc9xbbl97r0000gp/T//ccXvltmH.s 			page 3


  88:USB/core/usbd_core.c **** static uint8_t  USBD_RunTestMode (USB_OTG_CORE_HANDLE  *pdev) ;
  89:USB/core/usbd_core.c **** /**
  90:USB/core/usbd_core.c **** * @}
  91:USB/core/usbd_core.c **** */ 
  92:USB/core/usbd_core.c **** 
  93:USB/core/usbd_core.c **** /** @defgroup USBD_CORE_Private_Variables
  94:USB/core/usbd_core.c **** * @{
  95:USB/core/usbd_core.c **** */ 
  96:USB/core/usbd_core.c **** 
  97:USB/core/usbd_core.c **** __IO USB_OTG_DCTL_TypeDef SET_TEST_MODE;
  98:USB/core/usbd_core.c **** 
  99:USB/core/usbd_core.c **** USBD_DCD_INT_cb_TypeDef USBD_DCD_INT_cb = 
 100:USB/core/usbd_core.c **** {
 101:USB/core/usbd_core.c ****   USBD_DataOutStage,
 102:USB/core/usbd_core.c ****   USBD_DataInStage,
 103:USB/core/usbd_core.c ****   USBD_SetupStage,
 104:USB/core/usbd_core.c ****   USBD_SOF,
 105:USB/core/usbd_core.c ****   USBD_Reset,
 106:USB/core/usbd_core.c ****   USBD_Suspend,
 107:USB/core/usbd_core.c ****   USBD_Resume,
 108:USB/core/usbd_core.c ****   USBD_IsoINIncomplete,
 109:USB/core/usbd_core.c ****   USBD_IsoOUTIncomplete,
 110:USB/core/usbd_core.c **** #ifdef VBUS_SENSING_ENABLED
 111:USB/core/usbd_core.c **** USBD_DevConnected, 
 112:USB/core/usbd_core.c **** USBD_DevDisconnected,    
 113:USB/core/usbd_core.c **** #endif  
 114:USB/core/usbd_core.c **** };
 115:USB/core/usbd_core.c **** 
 116:USB/core/usbd_core.c **** USBD_DCD_INT_cb_TypeDef  *USBD_DCD_INT_fops = &USBD_DCD_INT_cb;
 117:USB/core/usbd_core.c **** /**
 118:USB/core/usbd_core.c **** * @}
 119:USB/core/usbd_core.c **** */ 
 120:USB/core/usbd_core.c **** 
 121:USB/core/usbd_core.c **** /** @defgroup USBD_CORE_Private_Functions
 122:USB/core/usbd_core.c **** * @{
 123:USB/core/usbd_core.c **** */ 
 124:USB/core/usbd_core.c **** 
 125:USB/core/usbd_core.c **** /**
 126:USB/core/usbd_core.c **** * @brief  USBD_Init
 127:USB/core/usbd_core.c **** *         Initailizes the device stack and load the class driver
 128:USB/core/usbd_core.c **** * @param  pdev: device instance
 129:USB/core/usbd_core.c **** * @param  core_address: USB OTG core ID
 130:USB/core/usbd_core.c **** * @param  class_cb: Class callback structure address
 131:USB/core/usbd_core.c **** * @param  usr_cb: User callback structure address
 132:USB/core/usbd_core.c **** * @retval None
 133:USB/core/usbd_core.c **** */
 134:USB/core/usbd_core.c **** void USBD_Init(USB_OTG_CORE_HANDLE *pdev,
 135:USB/core/usbd_core.c ****                USB_OTG_CORE_ID_TypeDef coreID,
 136:USB/core/usbd_core.c ****                USBD_DEVICE *pDevice,                  
 137:USB/core/usbd_core.c ****                USBD_Class_cb_TypeDef *class_cb, 
 138:USB/core/usbd_core.c ****                USBD_Usr_cb_TypeDef *usr_cb)
 139:USB/core/usbd_core.c **** {
 140:USB/core/usbd_core.c ****   /* Hardware Init */
 141:USB/core/usbd_core.c ****   USB_OTG_BSP_Init(pdev);  
 142:USB/core/usbd_core.c ****   
 143:USB/core/usbd_core.c ****   USBD_DeInit(pdev);
 144:USB/core/usbd_core.c ****   
ARM GAS  /var/folders/lx/hc4sn_b53233_zkc9xbbl97r0000gp/T//ccXvltmH.s 			page 4


 145:USB/core/usbd_core.c ****   /*Register class and user callbacks */
 146:USB/core/usbd_core.c ****   pdev->dev.class_cb = class_cb;
 147:USB/core/usbd_core.c ****   pdev->dev.usr_cb = usr_cb;  
 148:USB/core/usbd_core.c ****   pdev->dev.usr_device = pDevice;    
 149:USB/core/usbd_core.c ****   
 150:USB/core/usbd_core.c ****   /* set USB OTG core params */
 151:USB/core/usbd_core.c ****   DCD_Init(pdev , coreID);
 152:USB/core/usbd_core.c ****   
 153:USB/core/usbd_core.c ****   /* Upon Init call usr callback */
 154:USB/core/usbd_core.c ****   pdev->dev.usr_cb->Init();
 155:USB/core/usbd_core.c ****   
 156:USB/core/usbd_core.c ****   /* Enable Interrupts */
 157:USB/core/usbd_core.c ****   USB_OTG_BSP_EnableInterrupt(pdev);
 158:USB/core/usbd_core.c **** }
 159:USB/core/usbd_core.c **** 
 160:USB/core/usbd_core.c **** /**
 161:USB/core/usbd_core.c **** * @brief  USBD_DeInit 
 162:USB/core/usbd_core.c **** *         Re-Initialize th device library
 163:USB/core/usbd_core.c **** * @param  pdev: device instance
 164:USB/core/usbd_core.c **** * @retval status: status
 165:USB/core/usbd_core.c **** */
 166:USB/core/usbd_core.c **** USBD_Status USBD_DeInit(USB_OTG_CORE_HANDLE *pdev)
 167:USB/core/usbd_core.c **** {
 168:USB/core/usbd_core.c ****   /* Software Init */
 169:USB/core/usbd_core.c ****   
 170:USB/core/usbd_core.c ****   return USBD_OK;
 171:USB/core/usbd_core.c **** }
 172:USB/core/usbd_core.c **** 
 173:USB/core/usbd_core.c **** /**
 174:USB/core/usbd_core.c **** * @brief  USBD_SetupStage 
 175:USB/core/usbd_core.c **** *         Handle the setup stage
 176:USB/core/usbd_core.c **** * @param  pdev: device instance
 177:USB/core/usbd_core.c **** * @retval status
 178:USB/core/usbd_core.c **** */
 179:USB/core/usbd_core.c **** static uint8_t USBD_SetupStage(USB_OTG_CORE_HANDLE *pdev)
 180:USB/core/usbd_core.c **** {
 181:USB/core/usbd_core.c ****   USB_SETUP_REQ req;
 182:USB/core/usbd_core.c ****   
 183:USB/core/usbd_core.c ****   USBD_ParseSetupRequest(pdev , &req);
 184:USB/core/usbd_core.c ****   
 185:USB/core/usbd_core.c ****   switch (req.bmRequest & 0x1F) 
 186:USB/core/usbd_core.c ****   {
 187:USB/core/usbd_core.c ****   case USB_REQ_RECIPIENT_DEVICE:   
 188:USB/core/usbd_core.c ****     USBD_StdDevReq (pdev, &req);
 189:USB/core/usbd_core.c ****     break;
 190:USB/core/usbd_core.c ****     
 191:USB/core/usbd_core.c ****   case USB_REQ_RECIPIENT_INTERFACE:     
 192:USB/core/usbd_core.c ****     USBD_StdItfReq(pdev, &req);
 193:USB/core/usbd_core.c ****     break;
 194:USB/core/usbd_core.c ****     
 195:USB/core/usbd_core.c ****   case USB_REQ_RECIPIENT_ENDPOINT:        
 196:USB/core/usbd_core.c ****     USBD_StdEPReq(pdev, &req);   
 197:USB/core/usbd_core.c ****     break;
 198:USB/core/usbd_core.c ****     
 199:USB/core/usbd_core.c ****   default:           
 200:USB/core/usbd_core.c ****     DCD_EP_Stall(pdev , req.bmRequest & 0x80);
 201:USB/core/usbd_core.c ****     break;
ARM GAS  /var/folders/lx/hc4sn_b53233_zkc9xbbl97r0000gp/T//ccXvltmH.s 			page 5


 202:USB/core/usbd_core.c ****   }  
 203:USB/core/usbd_core.c ****   return USBD_OK;
 204:USB/core/usbd_core.c **** }
 205:USB/core/usbd_core.c **** 
 206:USB/core/usbd_core.c **** /**
 207:USB/core/usbd_core.c **** * @brief  USBD_DataOutStage 
 208:USB/core/usbd_core.c **** *         Handle data out stage
 209:USB/core/usbd_core.c **** * @param  pdev: device instance
 210:USB/core/usbd_core.c **** * @param  epnum: endpoint index
 211:USB/core/usbd_core.c **** * @retval status
 212:USB/core/usbd_core.c **** */
 213:USB/core/usbd_core.c **** static uint8_t USBD_DataOutStage(USB_OTG_CORE_HANDLE *pdev , uint8_t epnum)
 214:USB/core/usbd_core.c **** {
 215:USB/core/usbd_core.c ****   USB_OTG_EP *ep;
 216:USB/core/usbd_core.c ****   
 217:USB/core/usbd_core.c ****   if(epnum == 0) 
 218:USB/core/usbd_core.c ****   {
 219:USB/core/usbd_core.c ****     ep = &pdev->dev.out_ep[0];
 220:USB/core/usbd_core.c ****     if ( pdev->dev.device_state == USB_OTG_EP0_DATA_OUT)
 221:USB/core/usbd_core.c ****     {
 222:USB/core/usbd_core.c ****       if(ep->rem_data_len > ep->maxpacket)
 223:USB/core/usbd_core.c ****       {
 224:USB/core/usbd_core.c ****         ep->rem_data_len -=  ep->maxpacket;
 225:USB/core/usbd_core.c ****         
 226:USB/core/usbd_core.c ****         if(pdev->cfg.dma_enable == 1)
 227:USB/core/usbd_core.c ****         {
 228:USB/core/usbd_core.c ****           /* in slave mode this, is handled by the RxSTSQLvl ISR */
 229:USB/core/usbd_core.c ****           ep->xfer_buff += ep->maxpacket; 
 230:USB/core/usbd_core.c ****         }        
 231:USB/core/usbd_core.c ****         USBD_CtlContinueRx (pdev, 
 232:USB/core/usbd_core.c ****                             ep->xfer_buff,
 233:USB/core/usbd_core.c ****                             MIN(ep->rem_data_len ,ep->maxpacket));
 234:USB/core/usbd_core.c ****       }
 235:USB/core/usbd_core.c ****       else
 236:USB/core/usbd_core.c ****       {
 237:USB/core/usbd_core.c ****         if((pdev->dev.class_cb->EP0_RxReady != NULL)&&
 238:USB/core/usbd_core.c ****            (pdev->dev.device_status == USB_OTG_CONFIGURED))
 239:USB/core/usbd_core.c ****         {
 240:USB/core/usbd_core.c ****           pdev->dev.class_cb->EP0_RxReady(pdev); 
 241:USB/core/usbd_core.c ****         }
 242:USB/core/usbd_core.c ****         USBD_CtlSendStatus(pdev);
 243:USB/core/usbd_core.c ****       }
 244:USB/core/usbd_core.c ****     }
 245:USB/core/usbd_core.c ****   }
 246:USB/core/usbd_core.c ****   else if((pdev->dev.class_cb->DataOut != NULL)&&
 247:USB/core/usbd_core.c ****           (pdev->dev.device_status == USB_OTG_CONFIGURED))
 248:USB/core/usbd_core.c ****   {
 249:USB/core/usbd_core.c ****     pdev->dev.class_cb->DataOut(pdev, epnum); 
 250:USB/core/usbd_core.c ****   }  
 251:USB/core/usbd_core.c ****   return USBD_OK;
 252:USB/core/usbd_core.c **** }
 253:USB/core/usbd_core.c **** 
 254:USB/core/usbd_core.c **** /**
 255:USB/core/usbd_core.c **** * @brief  USBD_DataInStage 
 256:USB/core/usbd_core.c **** *         Handle data in stage
 257:USB/core/usbd_core.c **** * @param  pdev: device instance
 258:USB/core/usbd_core.c **** * @param  epnum: endpoint index
ARM GAS  /var/folders/lx/hc4sn_b53233_zkc9xbbl97r0000gp/T//ccXvltmH.s 			page 6


 259:USB/core/usbd_core.c **** * @retval status
 260:USB/core/usbd_core.c **** */
 261:USB/core/usbd_core.c **** static uint8_t USBD_DataInStage(USB_OTG_CORE_HANDLE *pdev , uint8_t epnum)
 262:USB/core/usbd_core.c **** {
 263:USB/core/usbd_core.c ****   USB_OTG_EP *ep;
 264:USB/core/usbd_core.c ****   
 265:USB/core/usbd_core.c ****   if(epnum == 0) 
 266:USB/core/usbd_core.c ****   {
 267:USB/core/usbd_core.c ****     ep = &pdev->dev.in_ep[0];
 268:USB/core/usbd_core.c ****     if ( pdev->dev.device_state == USB_OTG_EP0_DATA_IN)
 269:USB/core/usbd_core.c ****     {
 270:USB/core/usbd_core.c ****       if(ep->rem_data_len > ep->maxpacket)
 271:USB/core/usbd_core.c ****       {
 272:USB/core/usbd_core.c ****         ep->rem_data_len -=  ep->maxpacket;
 273:USB/core/usbd_core.c ****         if(pdev->cfg.dma_enable == 1)
 274:USB/core/usbd_core.c ****         {
 275:USB/core/usbd_core.c ****           /* in slave mode this, is handled by the TxFifoEmpty ISR */
 276:USB/core/usbd_core.c ****           ep->xfer_buff += ep->maxpacket;
 277:USB/core/usbd_core.c ****         }
 278:USB/core/usbd_core.c ****         USBD_CtlContinueSendData (pdev, 
 279:USB/core/usbd_core.c ****                                   ep->xfer_buff, 
 280:USB/core/usbd_core.c ****                                   ep->rem_data_len);
 281:USB/core/usbd_core.c ****       }
 282:USB/core/usbd_core.c ****       else
 283:USB/core/usbd_core.c ****       { /* last packet is MPS multiple, so send ZLP packet */
 284:USB/core/usbd_core.c ****         if((ep->total_data_len % ep->maxpacket == 0) &&
 285:USB/core/usbd_core.c ****            (ep->total_data_len >= ep->maxpacket) &&
 286:USB/core/usbd_core.c ****              (ep->total_data_len < ep->ctl_data_len ))
 287:USB/core/usbd_core.c ****         {
 288:USB/core/usbd_core.c ****           
 289:USB/core/usbd_core.c ****           USBD_CtlContinueSendData(pdev , NULL, 0);
 290:USB/core/usbd_core.c ****           ep->ctl_data_len = 0;
 291:USB/core/usbd_core.c ****         }
 292:USB/core/usbd_core.c ****         else
 293:USB/core/usbd_core.c ****         {
 294:USB/core/usbd_core.c ****           if((pdev->dev.class_cb->EP0_TxSent != NULL)&&
 295:USB/core/usbd_core.c ****              (pdev->dev.device_status == USB_OTG_CONFIGURED))
 296:USB/core/usbd_core.c ****           {
 297:USB/core/usbd_core.c ****             pdev->dev.class_cb->EP0_TxSent(pdev); 
 298:USB/core/usbd_core.c ****           }          
 299:USB/core/usbd_core.c ****           USBD_CtlReceiveStatus(pdev);
 300:USB/core/usbd_core.c ****         }
 301:USB/core/usbd_core.c ****       }
 302:USB/core/usbd_core.c ****     }
 303:USB/core/usbd_core.c ****     if (pdev->dev.test_mode == 1)
 304:USB/core/usbd_core.c ****     {
 305:USB/core/usbd_core.c ****       USBD_RunTestMode(pdev); 
 306:USB/core/usbd_core.c ****       pdev->dev.test_mode = 0;
 307:USB/core/usbd_core.c ****     }
 308:USB/core/usbd_core.c ****   }
 309:USB/core/usbd_core.c ****   else if((pdev->dev.class_cb->DataIn != NULL)&& 
 310:USB/core/usbd_core.c ****           (pdev->dev.device_status == USB_OTG_CONFIGURED))
 311:USB/core/usbd_core.c ****   {
 312:USB/core/usbd_core.c ****     pdev->dev.class_cb->DataIn(pdev, epnum); 
 313:USB/core/usbd_core.c ****   }  
 314:USB/core/usbd_core.c ****   return USBD_OK;
 315:USB/core/usbd_core.c **** }
ARM GAS  /var/folders/lx/hc4sn_b53233_zkc9xbbl97r0000gp/T//ccXvltmH.s 			page 7


 316:USB/core/usbd_core.c **** 
 317:USB/core/usbd_core.c **** 
 318:USB/core/usbd_core.c **** 
 319:USB/core/usbd_core.c **** 
 320:USB/core/usbd_core.c **** /**
 321:USB/core/usbd_core.c **** * @brief  USBD_RunTestMode 
 322:USB/core/usbd_core.c **** *         Launch test mode process
 323:USB/core/usbd_core.c **** * @param  pdev: device instance
 324:USB/core/usbd_core.c **** * @retval status
 325:USB/core/usbd_core.c **** */
 326:USB/core/usbd_core.c **** static uint8_t  USBD_RunTestMode (USB_OTG_CORE_HANDLE  *pdev) 
 327:USB/core/usbd_core.c **** {
  29              		.loc 1 327 1 view -0
  30              		.cfi_startproc
  31              		@ args = 0, pretend = 0, frame = 0
  32              		@ frame_needed = 0, uses_anonymous_args = 0
  33              		@ link register save eliminated.
 328:USB/core/usbd_core.c ****   USB_OTG_WRITE_REG32(&pdev->regs.DREGS->DCTL, SET_TEST_MODE.d32);
  34              		.loc 1 328 3 view .LVU1
  35 0000 0369     		ldr	r3, [r0, #16]
  36 0002 024A     		ldr	r2, .L2
  37 0004 1268     		ldr	r2, [r2]
  38 0006 5A60     		str	r2, [r3, #4]
 329:USB/core/usbd_core.c ****   return USBD_OK;  
  39              		.loc 1 329 3 view .LVU2
 330:USB/core/usbd_core.c **** }
  40              		.loc 1 330 1 is_stmt 0 view .LVU3
  41 0008 0020     		movs	r0, #0
  42              	.LVL1:
  43              		.loc 1 330 1 view .LVU4
  44 000a 7047     		bx	lr
  45              	.L3:
  46              		.align	2
  47              	.L2:
  48 000c 00000000 		.word	.LANCHOR0
  49              		.cfi_endproc
  50              	.LFE131:
  52              		.section	.text.USBD_Resume,"ax",%progbits
  53              		.align	1
  54              		.syntax unified
  55              		.thumb
  56              		.thumb_func
  57              		.fpu fpv4-sp-d16
  59              	USBD_Resume:
  60              	.LVL2:
  61              	.LFB133:
 331:USB/core/usbd_core.c **** 
 332:USB/core/usbd_core.c **** /**
 333:USB/core/usbd_core.c **** * @brief  USBD_Reset 
 334:USB/core/usbd_core.c **** *         Handle Reset event
 335:USB/core/usbd_core.c **** * @param  pdev: device instance
 336:USB/core/usbd_core.c **** * @retval status
 337:USB/core/usbd_core.c **** */
 338:USB/core/usbd_core.c **** 
 339:USB/core/usbd_core.c **** static uint8_t USBD_Reset(USB_OTG_CORE_HANDLE  *pdev)
 340:USB/core/usbd_core.c **** {
 341:USB/core/usbd_core.c ****   /* Open EP0 OUT */
ARM GAS  /var/folders/lx/hc4sn_b53233_zkc9xbbl97r0000gp/T//ccXvltmH.s 			page 8


 342:USB/core/usbd_core.c ****   DCD_EP_Open(pdev,
 343:USB/core/usbd_core.c ****               0x00,
 344:USB/core/usbd_core.c ****               USB_OTG_MAX_EP0_SIZE,
 345:USB/core/usbd_core.c ****               EP_TYPE_CTRL);
 346:USB/core/usbd_core.c ****   
 347:USB/core/usbd_core.c ****   /* Open EP0 IN */
 348:USB/core/usbd_core.c ****   DCD_EP_Open(pdev,
 349:USB/core/usbd_core.c ****               0x80,
 350:USB/core/usbd_core.c ****               USB_OTG_MAX_EP0_SIZE,
 351:USB/core/usbd_core.c ****               EP_TYPE_CTRL);
 352:USB/core/usbd_core.c ****   
 353:USB/core/usbd_core.c ****   /* Upon Reset call usr call back */
 354:USB/core/usbd_core.c ****   pdev->dev.device_status = USB_OTG_DEFAULT;
 355:USB/core/usbd_core.c ****   pdev->dev.usr_cb->DeviceReset(pdev->cfg.speed);
 356:USB/core/usbd_core.c ****   
 357:USB/core/usbd_core.c ****   return USBD_OK;
 358:USB/core/usbd_core.c **** }
 359:USB/core/usbd_core.c **** 
 360:USB/core/usbd_core.c **** /**
 361:USB/core/usbd_core.c **** * @brief  USBD_Resume 
 362:USB/core/usbd_core.c **** *         Handle Resume event
 363:USB/core/usbd_core.c **** * @param  pdev: device instance
 364:USB/core/usbd_core.c **** * @retval status
 365:USB/core/usbd_core.c **** */
 366:USB/core/usbd_core.c **** 
 367:USB/core/usbd_core.c **** static uint8_t USBD_Resume(USB_OTG_CORE_HANDLE  *pdev)
 368:USB/core/usbd_core.c **** {
  62              		.loc 1 368 1 is_stmt 1 view -0
  63              		.cfi_startproc
  64              		@ args = 0, pretend = 0, frame = 0
  65              		@ frame_needed = 0, uses_anonymous_args = 0
  66              		.loc 1 368 1 is_stmt 0 view .LVU6
  67 0000 10B5     		push	{r4, lr}
  68              	.LCFI0:
  69              		.cfi_def_cfa_offset 8
  70              		.cfi_offset 4, -8
  71              		.cfi_offset 14, -4
  72 0002 0446     		mov	r4, r0
 369:USB/core/usbd_core.c ****   /* Upon Resume call usr call back */
 370:USB/core/usbd_core.c ****   pdev->dev.usr_cb->DeviceResumed(); 
  73              		.loc 1 370 3 is_stmt 1 view .LVU7
  74              		.loc 1 370 12 is_stmt 0 view .LVU8
  75 0004 D0F8E835 		ldr	r3, [r0, #1512]
  76              		.loc 1 370 19 view .LVU9
  77 0008 1B69     		ldr	r3, [r3, #16]
  78              		.loc 1 370 3 view .LVU10
  79 000a 9847     		blx	r3
  80              	.LVL3:
 371:USB/core/usbd_core.c ****   pdev->dev.device_status = pdev->dev.device_old_status;  
  81              		.loc 1 371 3 is_stmt 1 view .LVU11
  82              		.loc 1 371 38 is_stmt 0 view .LVU12
  83 000c 94F81331 		ldrb	r3, [r4, #275]	@ zero_extendqisi2
  84              		.loc 1 371 27 view .LVU13
  85 0010 84F81231 		strb	r3, [r4, #274]
 372:USB/core/usbd_core.c ****   pdev->dev.device_status = USB_OTG_CONFIGURED;  
  86              		.loc 1 372 3 is_stmt 1 view .LVU14
  87              		.loc 1 372 27 is_stmt 0 view .LVU15
ARM GAS  /var/folders/lx/hc4sn_b53233_zkc9xbbl97r0000gp/T//ccXvltmH.s 			page 9


  88 0014 0323     		movs	r3, #3
  89 0016 84F81231 		strb	r3, [r4, #274]
 373:USB/core/usbd_core.c ****   return USBD_OK;
  90              		.loc 1 373 3 is_stmt 1 view .LVU16
 374:USB/core/usbd_core.c **** }
  91              		.loc 1 374 1 is_stmt 0 view .LVU17
  92 001a 0020     		movs	r0, #0
  93 001c 10BD     		pop	{r4, pc}
  94              		.loc 1 374 1 view .LVU18
  95              		.cfi_endproc
  96              	.LFE133:
  98              		.section	.text.USBD_Suspend,"ax",%progbits
  99              		.align	1
 100              		.syntax unified
 101              		.thumb
 102              		.thumb_func
 103              		.fpu fpv4-sp-d16
 105              	USBD_Suspend:
 106              	.LVL4:
 107              	.LFB134:
 375:USB/core/usbd_core.c **** 
 376:USB/core/usbd_core.c **** 
 377:USB/core/usbd_core.c **** /**
 378:USB/core/usbd_core.c **** * @brief  USBD_Suspend 
 379:USB/core/usbd_core.c **** *         Handle Suspend event
 380:USB/core/usbd_core.c **** * @param  pdev: device instance
 381:USB/core/usbd_core.c **** * @retval status
 382:USB/core/usbd_core.c **** */
 383:USB/core/usbd_core.c **** 
 384:USB/core/usbd_core.c **** static uint8_t USBD_Suspend(USB_OTG_CORE_HANDLE  *pdev)
 385:USB/core/usbd_core.c **** {
 108              		.loc 1 385 1 is_stmt 1 view -0
 109              		.cfi_startproc
 110              		@ args = 0, pretend = 0, frame = 0
 111              		@ frame_needed = 0, uses_anonymous_args = 0
 112              		.loc 1 385 1 is_stmt 0 view .LVU20
 113 0000 08B5     		push	{r3, lr}
 114              	.LCFI1:
 115              		.cfi_def_cfa_offset 8
 116              		.cfi_offset 3, -8
 117              		.cfi_offset 14, -4
 386:USB/core/usbd_core.c ****   pdev->dev.device_old_status = pdev->dev.device_status;
 118              		.loc 1 386 3 is_stmt 1 view .LVU21
 119              		.loc 1 386 42 is_stmt 0 view .LVU22
 120 0002 90F81231 		ldrb	r3, [r0, #274]	@ zero_extendqisi2
 121              		.loc 1 386 31 view .LVU23
 122 0006 80F81331 		strb	r3, [r0, #275]
 387:USB/core/usbd_core.c ****   pdev->dev.device_status  = USB_OTG_SUSPENDED;
 123              		.loc 1 387 3 is_stmt 1 view .LVU24
 124              		.loc 1 387 28 is_stmt 0 view .LVU25
 125 000a 0423     		movs	r3, #4
 126 000c 80F81231 		strb	r3, [r0, #274]
 388:USB/core/usbd_core.c ****   /* Upon Resume call usr call back */
 389:USB/core/usbd_core.c ****   pdev->dev.usr_cb->DeviceSuspended(); 
 127              		.loc 1 389 3 is_stmt 1 view .LVU26
 128              		.loc 1 389 12 is_stmt 0 view .LVU27
 129 0010 D0F8E835 		ldr	r3, [r0, #1512]
ARM GAS  /var/folders/lx/hc4sn_b53233_zkc9xbbl97r0000gp/T//ccXvltmH.s 			page 10


 130              		.loc 1 389 19 view .LVU28
 131 0014 DB68     		ldr	r3, [r3, #12]
 132              		.loc 1 389 3 view .LVU29
 133 0016 9847     		blx	r3
 134              	.LVL5:
 390:USB/core/usbd_core.c ****   return USBD_OK;
 135              		.loc 1 390 3 is_stmt 1 view .LVU30
 391:USB/core/usbd_core.c **** }
 136              		.loc 1 391 1 is_stmt 0 view .LVU31
 137 0018 0020     		movs	r0, #0
 138 001a 08BD     		pop	{r3, pc}
 139              		.cfi_endproc
 140              	.LFE134:
 142              		.section	.text.USBD_SOF,"ax",%progbits
 143              		.align	1
 144              		.syntax unified
 145              		.thumb
 146              		.thumb_func
 147              		.fpu fpv4-sp-d16
 149              	USBD_SOF:
 150              	.LVL6:
 151              	.LFB135:
 392:USB/core/usbd_core.c **** 
 393:USB/core/usbd_core.c **** 
 394:USB/core/usbd_core.c **** /**
 395:USB/core/usbd_core.c **** * @brief  USBD_SOF 
 396:USB/core/usbd_core.c **** *         Handle SOF event
 397:USB/core/usbd_core.c **** * @param  pdev: device instance
 398:USB/core/usbd_core.c **** * @retval status
 399:USB/core/usbd_core.c **** */
 400:USB/core/usbd_core.c **** 
 401:USB/core/usbd_core.c **** static uint8_t USBD_SOF(USB_OTG_CORE_HANDLE  *pdev)
 402:USB/core/usbd_core.c **** {
 152              		.loc 1 402 1 is_stmt 1 view -0
 153              		.cfi_startproc
 154              		@ args = 0, pretend = 0, frame = 0
 155              		@ frame_needed = 0, uses_anonymous_args = 0
 156              		.loc 1 402 1 is_stmt 0 view .LVU33
 157 0000 08B5     		push	{r3, lr}
 158              	.LCFI2:
 159              		.cfi_def_cfa_offset 8
 160              		.cfi_offset 3, -8
 161              		.cfi_offset 14, -4
 403:USB/core/usbd_core.c ****   if(pdev->dev.class_cb->SOF)
 162              		.loc 1 403 3 is_stmt 1 view .LVU34
 163              		.loc 1 403 15 is_stmt 0 view .LVU35
 164 0002 D0F8E435 		ldr	r3, [r0, #1508]
 165              		.loc 1 403 24 view .LVU36
 166 0006 DB69     		ldr	r3, [r3, #28]
 167              		.loc 1 403 5 view .LVU37
 168 0008 03B1     		cbz	r3, .L9
 404:USB/core/usbd_core.c ****   {
 405:USB/core/usbd_core.c ****     pdev->dev.class_cb->SOF(pdev); 
 169              		.loc 1 405 5 is_stmt 1 view .LVU38
 170 000a 9847     		blx	r3
 171              	.LVL7:
 172              	.L9:
ARM GAS  /var/folders/lx/hc4sn_b53233_zkc9xbbl97r0000gp/T//ccXvltmH.s 			page 11


 406:USB/core/usbd_core.c ****   }
 407:USB/core/usbd_core.c ****   return USBD_OK;
 173              		.loc 1 407 3 view .LVU39
 408:USB/core/usbd_core.c **** }
 174              		.loc 1 408 1 is_stmt 0 view .LVU40
 175 000c 0020     		movs	r0, #0
 176 000e 08BD     		pop	{r3, pc}
 177              		.cfi_endproc
 178              	.LFE135:
 180              		.section	.text.USBD_IsoINIncomplete,"ax",%progbits
 181              		.align	1
 182              		.syntax unified
 183              		.thumb
 184              		.thumb_func
 185              		.fpu fpv4-sp-d16
 187              	USBD_IsoINIncomplete:
 188              	.LVL8:
 189              	.LFB138:
 409:USB/core/usbd_core.c **** /**
 410:USB/core/usbd_core.c **** * @brief  USBD_SetCfg 
 411:USB/core/usbd_core.c **** *        Configure device and start the interface
 412:USB/core/usbd_core.c **** * @param  pdev: device instance
 413:USB/core/usbd_core.c **** * @param  cfgidx: configuration index
 414:USB/core/usbd_core.c **** * @retval status
 415:USB/core/usbd_core.c **** */
 416:USB/core/usbd_core.c **** 
 417:USB/core/usbd_core.c **** USBD_Status USBD_SetCfg(USB_OTG_CORE_HANDLE  *pdev, uint8_t cfgidx)
 418:USB/core/usbd_core.c **** {
 419:USB/core/usbd_core.c ****   pdev->dev.class_cb->Init(pdev, cfgidx); 
 420:USB/core/usbd_core.c ****   
 421:USB/core/usbd_core.c ****   /* Upon set config call usr call back */
 422:USB/core/usbd_core.c ****   pdev->dev.usr_cb->DeviceConfigured();
 423:USB/core/usbd_core.c ****   return USBD_OK; 
 424:USB/core/usbd_core.c **** }
 425:USB/core/usbd_core.c **** 
 426:USB/core/usbd_core.c **** /**
 427:USB/core/usbd_core.c **** * @brief  USBD_ClrCfg 
 428:USB/core/usbd_core.c **** *         Clear current configuration
 429:USB/core/usbd_core.c **** * @param  pdev: device instance
 430:USB/core/usbd_core.c **** * @param  cfgidx: configuration index
 431:USB/core/usbd_core.c **** * @retval status: USBD_Status
 432:USB/core/usbd_core.c **** */
 433:USB/core/usbd_core.c **** USBD_Status USBD_ClrCfg(USB_OTG_CORE_HANDLE  *pdev, uint8_t cfgidx)
 434:USB/core/usbd_core.c **** {
 435:USB/core/usbd_core.c ****   pdev->dev.class_cb->DeInit(pdev, cfgidx);   
 436:USB/core/usbd_core.c ****   return USBD_OK;
 437:USB/core/usbd_core.c **** }
 438:USB/core/usbd_core.c **** 
 439:USB/core/usbd_core.c **** /**
 440:USB/core/usbd_core.c **** * @brief  USBD_IsoINIncomplete 
 441:USB/core/usbd_core.c **** *         Handle iso in incomplete event
 442:USB/core/usbd_core.c **** * @param  pdev: device instance
 443:USB/core/usbd_core.c **** * @retval status
 444:USB/core/usbd_core.c **** */
 445:USB/core/usbd_core.c **** static uint8_t USBD_IsoINIncomplete(USB_OTG_CORE_HANDLE  *pdev)
 446:USB/core/usbd_core.c **** {
 190              		.loc 1 446 1 is_stmt 1 view -0
ARM GAS  /var/folders/lx/hc4sn_b53233_zkc9xbbl97r0000gp/T//ccXvltmH.s 			page 12


 191              		.cfi_startproc
 192              		@ args = 0, pretend = 0, frame = 0
 193              		@ frame_needed = 0, uses_anonymous_args = 0
 194              		.loc 1 446 1 is_stmt 0 view .LVU42
 195 0000 08B5     		push	{r3, lr}
 196              	.LCFI3:
 197              		.cfi_def_cfa_offset 8
 198              		.cfi_offset 3, -8
 199              		.cfi_offset 14, -4
 447:USB/core/usbd_core.c ****   pdev->dev.class_cb->IsoINIncomplete(pdev);   
 200              		.loc 1 447 3 is_stmt 1 view .LVU43
 201              		.loc 1 447 12 is_stmt 0 view .LVU44
 202 0002 D0F8E435 		ldr	r3, [r0, #1508]
 203              		.loc 1 447 21 view .LVU45
 204 0006 1B6A     		ldr	r3, [r3, #32]
 205              		.loc 1 447 3 view .LVU46
 206 0008 9847     		blx	r3
 207              	.LVL9:
 448:USB/core/usbd_core.c ****   return USBD_OK;
 208              		.loc 1 448 3 is_stmt 1 view .LVU47
 449:USB/core/usbd_core.c **** }
 209              		.loc 1 449 1 is_stmt 0 view .LVU48
 210 000a 0020     		movs	r0, #0
 211 000c 08BD     		pop	{r3, pc}
 212              		.cfi_endproc
 213              	.LFE138:
 215              		.section	.text.USBD_IsoOUTIncomplete,"ax",%progbits
 216              		.align	1
 217              		.syntax unified
 218              		.thumb
 219              		.thumb_func
 220              		.fpu fpv4-sp-d16
 222              	USBD_IsoOUTIncomplete:
 223              	.LVL10:
 224              	.LFB139:
 450:USB/core/usbd_core.c **** 
 451:USB/core/usbd_core.c **** /**
 452:USB/core/usbd_core.c **** * @brief  USBD_IsoOUTIncomplete 
 453:USB/core/usbd_core.c **** *         Handle iso out incomplete event
 454:USB/core/usbd_core.c **** * @param  pdev: device instance
 455:USB/core/usbd_core.c **** * @retval status
 456:USB/core/usbd_core.c **** */
 457:USB/core/usbd_core.c **** static uint8_t USBD_IsoOUTIncomplete(USB_OTG_CORE_HANDLE  *pdev)
 458:USB/core/usbd_core.c **** {
 225              		.loc 1 458 1 is_stmt 1 view -0
 226              		.cfi_startproc
 227              		@ args = 0, pretend = 0, frame = 0
 228              		@ frame_needed = 0, uses_anonymous_args = 0
 229              		.loc 1 458 1 is_stmt 0 view .LVU50
 230 0000 08B5     		push	{r3, lr}
 231              	.LCFI4:
 232              		.cfi_def_cfa_offset 8
 233              		.cfi_offset 3, -8
 234              		.cfi_offset 14, -4
 459:USB/core/usbd_core.c ****   pdev->dev.class_cb->IsoOUTIncomplete(pdev);   
 235              		.loc 1 459 3 is_stmt 1 view .LVU51
 236              		.loc 1 459 12 is_stmt 0 view .LVU52
ARM GAS  /var/folders/lx/hc4sn_b53233_zkc9xbbl97r0000gp/T//ccXvltmH.s 			page 13


 237 0002 D0F8E435 		ldr	r3, [r0, #1508]
 238              		.loc 1 459 21 view .LVU53
 239 0006 5B6A     		ldr	r3, [r3, #36]
 240              		.loc 1 459 3 view .LVU54
 241 0008 9847     		blx	r3
 242              	.LVL11:
 460:USB/core/usbd_core.c ****   return USBD_OK;
 243              		.loc 1 460 3 is_stmt 1 view .LVU55
 461:USB/core/usbd_core.c **** }
 244              		.loc 1 461 1 is_stmt 0 view .LVU56
 245 000a 0020     		movs	r0, #0
 246 000c 08BD     		pop	{r3, pc}
 247              		.cfi_endproc
 248              	.LFE139:
 250              		.section	.text.USBD_Reset,"ax",%progbits
 251              		.align	1
 252              		.syntax unified
 253              		.thumb
 254              		.thumb_func
 255              		.fpu fpv4-sp-d16
 257              	USBD_Reset:
 258              	.LVL12:
 259              	.LFB132:
 340:USB/core/usbd_core.c ****   /* Open EP0 OUT */
 260              		.loc 1 340 1 is_stmt 1 view -0
 261              		.cfi_startproc
 262              		@ args = 0, pretend = 0, frame = 0
 263              		@ frame_needed = 0, uses_anonymous_args = 0
 340:USB/core/usbd_core.c ****   /* Open EP0 OUT */
 264              		.loc 1 340 1 is_stmt 0 view .LVU58
 265 0000 10B5     		push	{r4, lr}
 266              	.LCFI5:
 267              		.cfi_def_cfa_offset 8
 268              		.cfi_offset 4, -8
 269              		.cfi_offset 14, -4
 270 0002 0446     		mov	r4, r0
 342:USB/core/usbd_core.c ****               0x00,
 271              		.loc 1 342 3 is_stmt 1 view .LVU59
 272 0004 0023     		movs	r3, #0
 273 0006 4022     		movs	r2, #64
 274 0008 1946     		mov	r1, r3
 275 000a FFF7FEFF 		bl	DCD_EP_Open
 276              	.LVL13:
 348:USB/core/usbd_core.c ****               0x80,
 277              		.loc 1 348 3 view .LVU60
 278 000e 0023     		movs	r3, #0
 279 0010 4022     		movs	r2, #64
 280 0012 8021     		movs	r1, #128
 281 0014 2046     		mov	r0, r4
 282 0016 FFF7FEFF 		bl	DCD_EP_Open
 283              	.LVL14:
 354:USB/core/usbd_core.c ****   pdev->dev.usr_cb->DeviceReset(pdev->cfg.speed);
 284              		.loc 1 354 3 view .LVU61
 354:USB/core/usbd_core.c ****   pdev->dev.usr_cb->DeviceReset(pdev->cfg.speed);
 285              		.loc 1 354 27 is_stmt 0 view .LVU62
 286 001a 0123     		movs	r3, #1
 287 001c 84F81231 		strb	r3, [r4, #274]
ARM GAS  /var/folders/lx/hc4sn_b53233_zkc9xbbl97r0000gp/T//ccXvltmH.s 			page 14


 355:USB/core/usbd_core.c ****   
 288              		.loc 1 355 3 is_stmt 1 view .LVU63
 355:USB/core/usbd_core.c ****   
 289              		.loc 1 355 12 is_stmt 0 view .LVU64
 290 0020 D4F8E835 		ldr	r3, [r4, #1512]
 355:USB/core/usbd_core.c ****   
 291              		.loc 1 355 19 view .LVU65
 292 0024 5B68     		ldr	r3, [r3, #4]
 355:USB/core/usbd_core.c ****   
 293              		.loc 1 355 3 view .LVU66
 294 0026 A078     		ldrb	r0, [r4, #2]	@ zero_extendqisi2
 295 0028 9847     		blx	r3
 296              	.LVL15:
 357:USB/core/usbd_core.c **** }
 297              		.loc 1 357 3 is_stmt 1 view .LVU67
 358:USB/core/usbd_core.c **** 
 298              		.loc 1 358 1 is_stmt 0 view .LVU68
 299 002a 0020     		movs	r0, #0
 300 002c 10BD     		pop	{r4, pc}
 358:USB/core/usbd_core.c **** 
 301              		.loc 1 358 1 view .LVU69
 302              		.cfi_endproc
 303              	.LFE132:
 305              		.section	.text.USBD_SetupStage,"ax",%progbits
 306              		.align	1
 307              		.syntax unified
 308              		.thumb
 309              		.thumb_func
 310              		.fpu fpv4-sp-d16
 312              	USBD_SetupStage:
 313              	.LVL16:
 314              	.LFB128:
 180:USB/core/usbd_core.c ****   USB_SETUP_REQ req;
 315              		.loc 1 180 1 is_stmt 1 view -0
 316              		.cfi_startproc
 317              		@ args = 0, pretend = 0, frame = 8
 318              		@ frame_needed = 0, uses_anonymous_args = 0
 180:USB/core/usbd_core.c ****   USB_SETUP_REQ req;
 319              		.loc 1 180 1 is_stmt 0 view .LVU71
 320 0000 10B5     		push	{r4, lr}
 321              	.LCFI6:
 322              		.cfi_def_cfa_offset 8
 323              		.cfi_offset 4, -8
 324              		.cfi_offset 14, -4
 325 0002 82B0     		sub	sp, sp, #8
 326              	.LCFI7:
 327              		.cfi_def_cfa_offset 16
 328 0004 0446     		mov	r4, r0
 181:USB/core/usbd_core.c ****   
 329              		.loc 1 181 3 is_stmt 1 view .LVU72
 183:USB/core/usbd_core.c ****   
 330              		.loc 1 183 3 view .LVU73
 331 0006 6946     		mov	r1, sp
 332 0008 FFF7FEFF 		bl	USBD_ParseSetupRequest
 333              	.LVL17:
 185:USB/core/usbd_core.c ****   {
 334              		.loc 1 185 3 view .LVU74
ARM GAS  /var/folders/lx/hc4sn_b53233_zkc9xbbl97r0000gp/T//ccXvltmH.s 			page 15


 185:USB/core/usbd_core.c ****   {
 335              		.loc 1 185 14 is_stmt 0 view .LVU75
 336 000c 9DF80010 		ldrb	r1, [sp]	@ zero_extendqisi2
 337 0010 01F01F03 		and	r3, r1, #31
 185:USB/core/usbd_core.c ****   {
 338              		.loc 1 185 3 view .LVU76
 339 0014 012B     		cmp	r3, #1
 340 0016 0FD0     		beq	.L18
 341 0018 022B     		cmp	r3, #2
 342 001a 12D0     		beq	.L19
 343 001c 2BB1     		cbz	r3, .L23
 200:USB/core/usbd_core.c ****     break;
 344              		.loc 1 200 5 is_stmt 1 view .LVU77
 345 001e 01F08001 		and	r1, r1, #128
 346 0022 2046     		mov	r0, r4
 347 0024 FFF7FEFF 		bl	DCD_EP_Stall
 348              	.LVL18:
 201:USB/core/usbd_core.c ****   }  
 349              		.loc 1 201 5 view .LVU78
 350 0028 03E0     		b	.L21
 351              	.L23:
 188:USB/core/usbd_core.c ****     break;
 352              		.loc 1 188 5 view .LVU79
 353 002a 6946     		mov	r1, sp
 354 002c 2046     		mov	r0, r4
 355 002e FFF7FEFF 		bl	USBD_StdDevReq
 356              	.LVL19:
 189:USB/core/usbd_core.c ****     
 357              		.loc 1 189 5 view .LVU80
 358              	.L21:
 203:USB/core/usbd_core.c **** }
 359              		.loc 1 203 3 view .LVU81
 204:USB/core/usbd_core.c **** 
 360              		.loc 1 204 1 is_stmt 0 view .LVU82
 361 0032 0020     		movs	r0, #0
 362 0034 02B0     		add	sp, sp, #8
 363              	.LCFI8:
 364              		.cfi_remember_state
 365              		.cfi_def_cfa_offset 8
 366              		@ sp needed
 367 0036 10BD     		pop	{r4, pc}
 368              	.LVL20:
 369              	.L18:
 370              	.LCFI9:
 371              		.cfi_restore_state
 192:USB/core/usbd_core.c ****     break;
 372              		.loc 1 192 5 is_stmt 1 view .LVU83
 373 0038 6946     		mov	r1, sp
 374 003a 2046     		mov	r0, r4
 375 003c FFF7FEFF 		bl	USBD_StdItfReq
 376              	.LVL21:
 193:USB/core/usbd_core.c ****     
 377              		.loc 1 193 5 view .LVU84
 378 0040 F7E7     		b	.L21
 379              	.L19:
 196:USB/core/usbd_core.c ****     break;
 380              		.loc 1 196 5 view .LVU85
ARM GAS  /var/folders/lx/hc4sn_b53233_zkc9xbbl97r0000gp/T//ccXvltmH.s 			page 16


 381 0042 6946     		mov	r1, sp
 382 0044 2046     		mov	r0, r4
 383 0046 FFF7FEFF 		bl	USBD_StdEPReq
 384              	.LVL22:
 197:USB/core/usbd_core.c ****     
 385              		.loc 1 197 5 view .LVU86
 386 004a F2E7     		b	.L21
 387              		.cfi_endproc
 388              	.LFE128:
 390              		.section	.text.USBD_DataInStage,"ax",%progbits
 391              		.align	1
 392              		.syntax unified
 393              		.thumb
 394              		.thumb_func
 395              		.fpu fpv4-sp-d16
 397              	USBD_DataInStage:
 398              	.LVL23:
 399              	.LFB130:
 262:USB/core/usbd_core.c ****   USB_OTG_EP *ep;
 400              		.loc 1 262 1 view -0
 401              		.cfi_startproc
 402              		@ args = 0, pretend = 0, frame = 0
 403              		@ frame_needed = 0, uses_anonymous_args = 0
 262:USB/core/usbd_core.c ****   USB_OTG_EP *ep;
 404              		.loc 1 262 1 is_stmt 0 view .LVU88
 405 0000 10B5     		push	{r4, lr}
 406              	.LCFI10:
 407              		.cfi_def_cfa_offset 8
 408              		.cfi_offset 4, -8
 409              		.cfi_offset 14, -4
 410 0002 0446     		mov	r4, r0
 263:USB/core/usbd_core.c ****   
 411              		.loc 1 263 3 is_stmt 1 view .LVU89
 265:USB/core/usbd_core.c ****   {
 412              		.loc 1 265 3 view .LVU90
 265:USB/core/usbd_core.c ****   {
 413              		.loc 1 265 5 is_stmt 0 view .LVU91
 414 0004 0029     		cmp	r1, #0
 415 0006 4CD1     		bne	.L25
 267:USB/core/usbd_core.c ****     if ( pdev->dev.device_state == USB_OTG_EP0_DATA_IN)
 416              		.loc 1 267 5 is_stmt 1 view .LVU92
 417              	.LVL24:
 268:USB/core/usbd_core.c ****     {
 418              		.loc 1 268 5 view .LVU93
 268:USB/core/usbd_core.c ****     {
 419              		.loc 1 268 19 is_stmt 0 view .LVU94
 420 0008 90F81131 		ldrb	r3, [r0, #273]	@ zero_extendqisi2
 268:USB/core/usbd_core.c ****     {
 421              		.loc 1 268 8 view .LVU95
 422 000c 022B     		cmp	r3, #2
 423 000e 05D0     		beq	.L33
 424              	.LVL25:
 425              	.L26:
 303:USB/core/usbd_core.c ****     {
 426              		.loc 1 303 5 is_stmt 1 view .LVU96
 303:USB/core/usbd_core.c ****     {
 427              		.loc 1 303 18 is_stmt 0 view .LVU97
ARM GAS  /var/folders/lx/hc4sn_b53233_zkc9xbbl97r0000gp/T//ccXvltmH.s 			page 17


 428 0010 94F81631 		ldrb	r3, [r4, #278]	@ zero_extendqisi2
 303:USB/core/usbd_core.c ****     {
 429              		.loc 1 303 8 view .LVU98
 430 0014 012B     		cmp	r3, #1
 431 0016 3DD0     		beq	.L34
 432              	.LVL26:
 433              	.L31:
 314:USB/core/usbd_core.c **** }
 434              		.loc 1 314 3 is_stmt 1 view .LVU99
 315:USB/core/usbd_core.c **** 
 435              		.loc 1 315 1 is_stmt 0 view .LVU100
 436 0018 0020     		movs	r0, #0
 437 001a 10BD     		pop	{r4, pc}
 438              	.LVL27:
 439              	.L33:
 270:USB/core/usbd_core.c ****       {
 440              		.loc 1 270 7 is_stmt 1 view .LVU101
 270:USB/core/usbd_core.c ****       {
 441              		.loc 1 270 12 is_stmt 0 view .LVU102
 442 001c D0F83821 		ldr	r2, [r0, #312]
 270:USB/core/usbd_core.c ****       {
 443              		.loc 1 270 31 view .LVU103
 444 0020 D0F82431 		ldr	r3, [r0, #292]
 270:USB/core/usbd_core.c ****       {
 445              		.loc 1 270 9 view .LVU104
 446 0024 9A42     		cmp	r2, r3
 447 0026 12D9     		bls	.L27
 272:USB/core/usbd_core.c ****         if(pdev->cfg.dma_enable == 1)
 448              		.loc 1 272 9 is_stmt 1 view .LVU105
 272:USB/core/usbd_core.c ****         if(pdev->cfg.dma_enable == 1)
 449              		.loc 1 272 26 is_stmt 0 view .LVU106
 450 0028 D21A     		subs	r2, r2, r3
 451 002a C0F83821 		str	r2, [r0, #312]
 273:USB/core/usbd_core.c ****         {
 452              		.loc 1 273 9 is_stmt 1 view .LVU107
 273:USB/core/usbd_core.c ****         {
 453              		.loc 1 273 21 is_stmt 0 view .LVU108
 454 002e C178     		ldrb	r1, [r0, #3]	@ zero_extendqisi2
 455              	.LVL28:
 273:USB/core/usbd_core.c ****         {
 456              		.loc 1 273 11 view .LVU109
 457 0030 0129     		cmp	r1, #1
 458 0032 06D0     		beq	.L35
 459              	.L28:
 278:USB/core/usbd_core.c ****                                   ep->xfer_buff, 
 460              		.loc 1 278 9 is_stmt 1 view .LVU110
 461 0034 92B2     		uxth	r2, r2
 462 0036 D4F82811 		ldr	r1, [r4, #296]
 463 003a 2046     		mov	r0, r4
 464              	.LVL29:
 278:USB/core/usbd_core.c ****                                   ep->xfer_buff, 
 465              		.loc 1 278 9 is_stmt 0 view .LVU111
 466 003c FFF7FEFF 		bl	USBD_CtlContinueSendData
 467              	.LVL30:
 468 0040 E6E7     		b	.L26
 469              	.LVL31:
 470              	.L35:
ARM GAS  /var/folders/lx/hc4sn_b53233_zkc9xbbl97r0000gp/T//ccXvltmH.s 			page 18


 276:USB/core/usbd_core.c ****         }
 471              		.loc 1 276 11 is_stmt 1 view .LVU112
 276:USB/core/usbd_core.c ****         }
 472              		.loc 1 276 25 is_stmt 0 view .LVU113
 473 0042 D0F82811 		ldr	r1, [r0, #296]
 474 0046 0B44     		add	r3, r3, r1
 475 0048 C0F82831 		str	r3, [r0, #296]
 476 004c F2E7     		b	.L28
 477              	.LVL32:
 478              	.L27:
 284:USB/core/usbd_core.c ****            (ep->total_data_len >= ep->maxpacket) &&
 479              		.loc 1 284 9 is_stmt 1 view .LVU114
 284:USB/core/usbd_core.c ****            (ep->total_data_len >= ep->maxpacket) &&
 480              		.loc 1 284 15 is_stmt 0 view .LVU115
 481 004e D0F83C11 		ldr	r1, [r0, #316]
 482              	.LVL33:
 284:USB/core/usbd_core.c ****            (ep->total_data_len >= ep->maxpacket) &&
 483              		.loc 1 284 32 view .LVU116
 484 0052 B1FBF3F2 		udiv	r2, r1, r3
 485 0056 03FB1212 		mls	r2, r3, r2, r1
 284:USB/core/usbd_core.c ****            (ep->total_data_len >= ep->maxpacket) &&
 486              		.loc 1 284 11 view .LVU117
 487 005a 2AB9     		cbnz	r2, .L29
 284:USB/core/usbd_core.c ****            (ep->total_data_len >= ep->maxpacket) &&
 488              		.loc 1 284 54 discriminator 1 view .LVU118
 489 005c 8B42     		cmp	r3, r1
 490 005e 03D8     		bhi	.L29
 286:USB/core/usbd_core.c ****         {
 491              		.loc 1 286 38 view .LVU119
 492 0060 D0F84031 		ldr	r3, [r0, #320]
 285:USB/core/usbd_core.c ****              (ep->total_data_len < ep->ctl_data_len ))
 493              		.loc 1 285 50 view .LVU120
 494 0064 9942     		cmp	r1, r3
 495 0066 0BD3     		bcc	.L36
 496              	.L29:
 294:USB/core/usbd_core.c ****              (pdev->dev.device_status == USB_OTG_CONFIGURED))
 497              		.loc 1 294 11 is_stmt 1 view .LVU121
 294:USB/core/usbd_core.c ****              (pdev->dev.device_status == USB_OTG_CONFIGURED))
 498              		.loc 1 294 24 is_stmt 0 view .LVU122
 499 0068 D4F8E435 		ldr	r3, [r4, #1508]
 294:USB/core/usbd_core.c ****              (pdev->dev.device_status == USB_OTG_CONFIGURED))
 500              		.loc 1 294 33 view .LVU123
 501 006c DB68     		ldr	r3, [r3, #12]
 294:USB/core/usbd_core.c ****              (pdev->dev.device_status == USB_OTG_CONFIGURED))
 502              		.loc 1 294 13 view .LVU124
 503 006e 1BB1     		cbz	r3, .L30
 295:USB/core/usbd_core.c ****           {
 504              		.loc 1 295 24 discriminator 1 view .LVU125
 505 0070 94F81221 		ldrb	r2, [r4, #274]	@ zero_extendqisi2
 294:USB/core/usbd_core.c ****              (pdev->dev.device_status == USB_OTG_CONFIGURED))
 506              		.loc 1 294 54 discriminator 1 view .LVU126
 507 0074 032A     		cmp	r2, #3
 508 0076 0AD0     		beq	.L37
 509              	.LVL34:
 510              	.L30:
 299:USB/core/usbd_core.c ****         }
 511              		.loc 1 299 11 is_stmt 1 view .LVU127
ARM GAS  /var/folders/lx/hc4sn_b53233_zkc9xbbl97r0000gp/T//ccXvltmH.s 			page 19


 512 0078 2046     		mov	r0, r4
 513 007a FFF7FEFF 		bl	USBD_CtlReceiveStatus
 514              	.LVL35:
 515 007e C7E7     		b	.L26
 516              	.LVL36:
 517              	.L36:
 289:USB/core/usbd_core.c ****           ep->ctl_data_len = 0;
 518              		.loc 1 289 11 view .LVU128
 519 0080 1146     		mov	r1, r2
 520 0082 FFF7FEFF 		bl	USBD_CtlContinueSendData
 521              	.LVL37:
 290:USB/core/usbd_core.c ****         }
 522              		.loc 1 290 11 view .LVU129
 290:USB/core/usbd_core.c ****         }
 523              		.loc 1 290 28 is_stmt 0 view .LVU130
 524 0086 0023     		movs	r3, #0
 525 0088 C4F84031 		str	r3, [r4, #320]
 526 008c C0E7     		b	.L26
 527              	.LVL38:
 528              	.L37:
 297:USB/core/usbd_core.c ****           }          
 529              		.loc 1 297 13 is_stmt 1 view .LVU131
 530 008e 2046     		mov	r0, r4
 531              	.LVL39:
 297:USB/core/usbd_core.c ****           }          
 532              		.loc 1 297 13 is_stmt 0 view .LVU132
 533 0090 9847     		blx	r3
 534              	.LVL40:
 535 0092 F1E7     		b	.L30
 536              	.L34:
 305:USB/core/usbd_core.c ****       pdev->dev.test_mode = 0;
 537              		.loc 1 305 7 is_stmt 1 view .LVU133
 538 0094 2046     		mov	r0, r4
 539 0096 FFF7FEFF 		bl	USBD_RunTestMode
 540              	.LVL41:
 306:USB/core/usbd_core.c ****     }
 541              		.loc 1 306 7 view .LVU134
 306:USB/core/usbd_core.c ****     }
 542              		.loc 1 306 27 is_stmt 0 view .LVU135
 543 009a 0023     		movs	r3, #0
 544 009c 84F81631 		strb	r3, [r4, #278]
 545 00a0 BAE7     		b	.L31
 546              	.LVL42:
 547              	.L25:
 306:USB/core/usbd_core.c ****     }
 548              		.loc 1 306 27 view .LVU136
 549 00a2 0A46     		mov	r2, r1
 309:USB/core/usbd_core.c ****           (pdev->dev.device_status == USB_OTG_CONFIGURED))
 550              		.loc 1 309 8 is_stmt 1 view .LVU137
 309:USB/core/usbd_core.c ****           (pdev->dev.device_status == USB_OTG_CONFIGURED))
 551              		.loc 1 309 21 is_stmt 0 view .LVU138
 552 00a4 D0F8E435 		ldr	r3, [r0, #1508]
 309:USB/core/usbd_core.c ****           (pdev->dev.device_status == USB_OTG_CONFIGURED))
 553              		.loc 1 309 30 view .LVU139
 554 00a8 5B69     		ldr	r3, [r3, #20]
 309:USB/core/usbd_core.c ****           (pdev->dev.device_status == USB_OTG_CONFIGURED))
 555              		.loc 1 309 10 view .LVU140
ARM GAS  /var/folders/lx/hc4sn_b53233_zkc9xbbl97r0000gp/T//ccXvltmH.s 			page 20


 556 00aa 002B     		cmp	r3, #0
 557 00ac B4D0     		beq	.L31
 310:USB/core/usbd_core.c ****   {
 558              		.loc 1 310 21 discriminator 1 view .LVU141
 559 00ae 90F81211 		ldrb	r1, [r0, #274]	@ zero_extendqisi2
 560              	.LVL43:
 309:USB/core/usbd_core.c ****           (pdev->dev.device_status == USB_OTG_CONFIGURED))
 561              		.loc 1 309 47 discriminator 1 view .LVU142
 562 00b2 0329     		cmp	r1, #3
 563 00b4 B0D1     		bne	.L31
 312:USB/core/usbd_core.c ****   }  
 564              		.loc 1 312 5 is_stmt 1 view .LVU143
 565 00b6 1146     		mov	r1, r2
 566 00b8 9847     		blx	r3
 567              	.LVL44:
 312:USB/core/usbd_core.c ****   }  
 568              		.loc 1 312 5 is_stmt 0 view .LVU144
 569 00ba ADE7     		b	.L31
 570              		.cfi_endproc
 571              	.LFE130:
 573              		.section	.text.USBD_DataOutStage,"ax",%progbits
 574              		.align	1
 575              		.syntax unified
 576              		.thumb
 577              		.thumb_func
 578              		.fpu fpv4-sp-d16
 580              	USBD_DataOutStage:
 581              	.LVL45:
 582              	.LFB129:
 214:USB/core/usbd_core.c ****   USB_OTG_EP *ep;
 583              		.loc 1 214 1 is_stmt 1 view -0
 584              		.cfi_startproc
 585              		@ args = 0, pretend = 0, frame = 0
 586              		@ frame_needed = 0, uses_anonymous_args = 0
 214:USB/core/usbd_core.c ****   USB_OTG_EP *ep;
 587              		.loc 1 214 1 is_stmt 0 view .LVU146
 588 0000 10B5     		push	{r4, lr}
 589              	.LCFI11:
 590              		.cfi_def_cfa_offset 8
 591              		.cfi_offset 4, -8
 592              		.cfi_offset 14, -4
 593 0002 0446     		mov	r4, r0
 215:USB/core/usbd_core.c ****   
 594              		.loc 1 215 3 is_stmt 1 view .LVU147
 217:USB/core/usbd_core.c ****   {
 595              		.loc 1 217 3 view .LVU148
 217:USB/core/usbd_core.c ****   {
 596              		.loc 1 217 5 is_stmt 0 view .LVU149
 597 0004 79BB     		cbnz	r1, .L39
 219:USB/core/usbd_core.c ****     if ( pdev->dev.device_state == USB_OTG_EP0_DATA_OUT)
 598              		.loc 1 219 5 is_stmt 1 view .LVU150
 599              	.LVL46:
 220:USB/core/usbd_core.c ****     {
 600              		.loc 1 220 5 view .LVU151
 220:USB/core/usbd_core.c ****     {
 601              		.loc 1 220 19 is_stmt 0 view .LVU152
 602 0006 90F81131 		ldrb	r3, [r0, #273]	@ zero_extendqisi2
ARM GAS  /var/folders/lx/hc4sn_b53233_zkc9xbbl97r0000gp/T//ccXvltmH.s 			page 21


 220:USB/core/usbd_core.c ****     {
 603              		.loc 1 220 8 view .LVU153
 604 000a 032B     		cmp	r3, #3
 605 000c 01D0     		beq	.L45
 606              	.LVL47:
 607              	.L40:
 251:USB/core/usbd_core.c **** }
 608              		.loc 1 251 3 is_stmt 1 view .LVU154
 252:USB/core/usbd_core.c **** 
 609              		.loc 1 252 1 is_stmt 0 view .LVU155
 610 000e 0020     		movs	r0, #0
 611 0010 10BD     		pop	{r4, pc}
 612              	.LVL48:
 613              	.L45:
 222:USB/core/usbd_core.c ****       {
 614              		.loc 1 222 7 is_stmt 1 view .LVU156
 222:USB/core/usbd_core.c ****       {
 615              		.loc 1 222 12 is_stmt 0 view .LVU157
 616 0012 D0F89033 		ldr	r3, [r0, #912]
 222:USB/core/usbd_core.c ****       {
 617              		.loc 1 222 31 view .LVU158
 618 0016 D0F87C23 		ldr	r2, [r0, #892]
 222:USB/core/usbd_core.c ****       {
 619              		.loc 1 222 9 view .LVU159
 620 001a 9342     		cmp	r3, r2
 621 001c 15D9     		bls	.L41
 224:USB/core/usbd_core.c ****         
 622              		.loc 1 224 9 is_stmt 1 view .LVU160
 224:USB/core/usbd_core.c ****         
 623              		.loc 1 224 26 is_stmt 0 view .LVU161
 624 001e 9B1A     		subs	r3, r3, r2
 625 0020 C0F89033 		str	r3, [r0, #912]
 226:USB/core/usbd_core.c ****         {
 626              		.loc 1 226 9 is_stmt 1 view .LVU162
 226:USB/core/usbd_core.c ****         {
 627              		.loc 1 226 21 is_stmt 0 view .LVU163
 628 0024 C178     		ldrb	r1, [r0, #3]	@ zero_extendqisi2
 629              	.LVL49:
 226:USB/core/usbd_core.c ****         {
 630              		.loc 1 226 11 view .LVU164
 631 0026 0129     		cmp	r1, #1
 632 0028 09D0     		beq	.L46
 633              	.L42:
 231:USB/core/usbd_core.c ****                             ep->xfer_buff,
 634              		.loc 1 231 9 is_stmt 1 view .LVU165
 233:USB/core/usbd_core.c ****       }
 635              		.loc 1 233 29 is_stmt 0 view .LVU166
 636 002a 9A42     		cmp	r2, r3
 637 002c 28BF     		it	cs
 638 002e 1A46     		movcs	r2, r3
 231:USB/core/usbd_core.c ****                             ep->xfer_buff,
 639              		.loc 1 231 9 view .LVU167
 640 0030 92B2     		uxth	r2, r2
 641 0032 D4F88013 		ldr	r1, [r4, #896]
 642 0036 2046     		mov	r0, r4
 643              	.LVL50:
 231:USB/core/usbd_core.c ****                             ep->xfer_buff,
ARM GAS  /var/folders/lx/hc4sn_b53233_zkc9xbbl97r0000gp/T//ccXvltmH.s 			page 22


 644              		.loc 1 231 9 view .LVU168
 645 0038 FFF7FEFF 		bl	USBD_CtlContinueRx
 646              	.LVL51:
 647 003c E7E7     		b	.L40
 648              	.LVL52:
 649              	.L46:
 229:USB/core/usbd_core.c ****         }        
 650              		.loc 1 229 11 is_stmt 1 view .LVU169
 229:USB/core/usbd_core.c ****         }        
 651              		.loc 1 229 25 is_stmt 0 view .LVU170
 652 003e D0F88013 		ldr	r1, [r0, #896]
 653 0042 1144     		add	r1, r1, r2
 654 0044 C0F88013 		str	r1, [r0, #896]
 655 0048 EFE7     		b	.L42
 656              	.LVL53:
 657              	.L41:
 237:USB/core/usbd_core.c ****            (pdev->dev.device_status == USB_OTG_CONFIGURED))
 658              		.loc 1 237 9 is_stmt 1 view .LVU171
 237:USB/core/usbd_core.c ****            (pdev->dev.device_status == USB_OTG_CONFIGURED))
 659              		.loc 1 237 22 is_stmt 0 view .LVU172
 660 004a D0F8E435 		ldr	r3, [r0, #1508]
 237:USB/core/usbd_core.c ****            (pdev->dev.device_status == USB_OTG_CONFIGURED))
 661              		.loc 1 237 31 view .LVU173
 662 004e 1B69     		ldr	r3, [r3, #16]
 237:USB/core/usbd_core.c ****            (pdev->dev.device_status == USB_OTG_CONFIGURED))
 663              		.loc 1 237 11 view .LVU174
 664 0050 1BB1     		cbz	r3, .L43
 238:USB/core/usbd_core.c ****         {
 665              		.loc 1 238 22 discriminator 1 view .LVU175
 666 0052 90F81221 		ldrb	r2, [r0, #274]	@ zero_extendqisi2
 237:USB/core/usbd_core.c ****            (pdev->dev.device_status == USB_OTG_CONFIGURED))
 667              		.loc 1 237 53 discriminator 1 view .LVU176
 668 0056 032A     		cmp	r2, #3
 669 0058 03D0     		beq	.L47
 670              	.LVL54:
 671              	.L43:
 242:USB/core/usbd_core.c ****       }
 672              		.loc 1 242 9 is_stmt 1 view .LVU177
 673 005a 2046     		mov	r0, r4
 674 005c FFF7FEFF 		bl	USBD_CtlSendStatus
 675              	.LVL55:
 676 0060 D5E7     		b	.L40
 677              	.LVL56:
 678              	.L47:
 240:USB/core/usbd_core.c ****         }
 679              		.loc 1 240 11 view .LVU178
 680 0062 9847     		blx	r3
 681              	.LVL57:
 240:USB/core/usbd_core.c ****         }
 682              		.loc 1 240 11 is_stmt 0 view .LVU179
 683 0064 F9E7     		b	.L43
 684              	.LVL58:
 685              	.L39:
 240:USB/core/usbd_core.c ****         }
 686              		.loc 1 240 11 view .LVU180
 687 0066 0A46     		mov	r2, r1
 246:USB/core/usbd_core.c ****           (pdev->dev.device_status == USB_OTG_CONFIGURED))
ARM GAS  /var/folders/lx/hc4sn_b53233_zkc9xbbl97r0000gp/T//ccXvltmH.s 			page 23


 688              		.loc 1 246 8 is_stmt 1 view .LVU181
 246:USB/core/usbd_core.c ****           (pdev->dev.device_status == USB_OTG_CONFIGURED))
 689              		.loc 1 246 21 is_stmt 0 view .LVU182
 690 0068 D0F8E435 		ldr	r3, [r0, #1508]
 246:USB/core/usbd_core.c ****           (pdev->dev.device_status == USB_OTG_CONFIGURED))
 691              		.loc 1 246 30 view .LVU183
 692 006c 9B69     		ldr	r3, [r3, #24]
 246:USB/core/usbd_core.c ****           (pdev->dev.device_status == USB_OTG_CONFIGURED))
 693              		.loc 1 246 10 view .LVU184
 694 006e 002B     		cmp	r3, #0
 695 0070 CDD0     		beq	.L40
 247:USB/core/usbd_core.c ****   {
 696              		.loc 1 247 21 discriminator 1 view .LVU185
 697 0072 90F81211 		ldrb	r1, [r0, #274]	@ zero_extendqisi2
 698              	.LVL59:
 246:USB/core/usbd_core.c ****           (pdev->dev.device_status == USB_OTG_CONFIGURED))
 699              		.loc 1 246 48 discriminator 1 view .LVU186
 700 0076 0329     		cmp	r1, #3
 701 0078 C9D1     		bne	.L40
 249:USB/core/usbd_core.c ****   }  
 702              		.loc 1 249 5 is_stmt 1 view .LVU187
 703 007a 1146     		mov	r1, r2
 704 007c 9847     		blx	r3
 705              	.LVL60:
 249:USB/core/usbd_core.c ****   }  
 706              		.loc 1 249 5 is_stmt 0 view .LVU188
 707 007e C6E7     		b	.L40
 708              		.cfi_endproc
 709              	.LFE129:
 711              		.section	.text.USBD_Init,"ax",%progbits
 712              		.align	1
 713              		.global	USBD_Init
 714              		.syntax unified
 715              		.thumb
 716              		.thumb_func
 717              		.fpu fpv4-sp-d16
 719              	USBD_Init:
 720              	.LVL61:
 721              	.LFB126:
 139:USB/core/usbd_core.c ****   /* Hardware Init */
 722              		.loc 1 139 1 is_stmt 1 view -0
 723              		.cfi_startproc
 724              		@ args = 4, pretend = 0, frame = 0
 725              		@ frame_needed = 0, uses_anonymous_args = 0
 139:USB/core/usbd_core.c ****   /* Hardware Init */
 726              		.loc 1 139 1 is_stmt 0 view .LVU190
 727 0000 F8B5     		push	{r3, r4, r5, r6, r7, lr}
 728              	.LCFI12:
 729              		.cfi_def_cfa_offset 24
 730              		.cfi_offset 3, -24
 731              		.cfi_offset 4, -20
 732              		.cfi_offset 5, -16
 733              		.cfi_offset 6, -12
 734              		.cfi_offset 7, -8
 735              		.cfi_offset 14, -4
 736 0002 0446     		mov	r4, r0
 737 0004 0D46     		mov	r5, r1
ARM GAS  /var/folders/lx/hc4sn_b53233_zkc9xbbl97r0000gp/T//ccXvltmH.s 			page 24


 738 0006 1646     		mov	r6, r2
 739 0008 1F46     		mov	r7, r3
 141:USB/core/usbd_core.c ****   
 740              		.loc 1 141 3 is_stmt 1 view .LVU191
 741 000a FFF7FEFF 		bl	USB_OTG_BSP_Init
 742              	.LVL62:
 143:USB/core/usbd_core.c ****   
 743              		.loc 1 143 3 view .LVU192
 146:USB/core/usbd_core.c ****   pdev->dev.usr_cb = usr_cb;  
 744              		.loc 1 146 3 view .LVU193
 146:USB/core/usbd_core.c ****   pdev->dev.usr_cb = usr_cb;  
 745              		.loc 1 146 22 is_stmt 0 view .LVU194
 746 000e C4F8E475 		str	r7, [r4, #1508]
 147:USB/core/usbd_core.c ****   pdev->dev.usr_device = pDevice;    
 747              		.loc 1 147 3 is_stmt 1 view .LVU195
 147:USB/core/usbd_core.c ****   pdev->dev.usr_device = pDevice;    
 748              		.loc 1 147 20 is_stmt 0 view .LVU196
 749 0012 069B     		ldr	r3, [sp, #24]
 750 0014 C4F8E835 		str	r3, [r4, #1512]
 148:USB/core/usbd_core.c ****   
 751              		.loc 1 148 3 is_stmt 1 view .LVU197
 148:USB/core/usbd_core.c ****   
 752              		.loc 1 148 24 is_stmt 0 view .LVU198
 753 0018 C4F8EC65 		str	r6, [r4, #1516]
 151:USB/core/usbd_core.c ****   
 754              		.loc 1 151 3 is_stmt 1 view .LVU199
 755 001c 2946     		mov	r1, r5
 756 001e 2046     		mov	r0, r4
 757 0020 FFF7FEFF 		bl	DCD_Init
 758              	.LVL63:
 154:USB/core/usbd_core.c ****   
 759              		.loc 1 154 3 view .LVU200
 154:USB/core/usbd_core.c ****   
 760              		.loc 1 154 12 is_stmt 0 view .LVU201
 761 0024 D4F8E835 		ldr	r3, [r4, #1512]
 154:USB/core/usbd_core.c ****   
 762              		.loc 1 154 19 view .LVU202
 763 0028 1B68     		ldr	r3, [r3]
 154:USB/core/usbd_core.c ****   
 764              		.loc 1 154 3 view .LVU203
 765 002a 9847     		blx	r3
 766              	.LVL64:
 157:USB/core/usbd_core.c **** }
 767              		.loc 1 157 3 is_stmt 1 view .LVU204
 768 002c 2046     		mov	r0, r4
 769 002e FFF7FEFF 		bl	USB_OTG_BSP_EnableInterrupt
 770              	.LVL65:
 158:USB/core/usbd_core.c **** 
 771              		.loc 1 158 1 is_stmt 0 view .LVU205
 772 0032 F8BD     		pop	{r3, r4, r5, r6, r7, pc}
 158:USB/core/usbd_core.c **** 
 773              		.loc 1 158 1 view .LVU206
 774              		.cfi_endproc
 775              	.LFE126:
 777              		.section	.text.USBD_DeInit,"ax",%progbits
 778              		.align	1
 779              		.global	USBD_DeInit
ARM GAS  /var/folders/lx/hc4sn_b53233_zkc9xbbl97r0000gp/T//ccXvltmH.s 			page 25


 780              		.syntax unified
 781              		.thumb
 782              		.thumb_func
 783              		.fpu fpv4-sp-d16
 785              	USBD_DeInit:
 786              	.LVL66:
 787              	.LFB127:
 167:USB/core/usbd_core.c ****   /* Software Init */
 788              		.loc 1 167 1 is_stmt 1 view -0
 789              		.cfi_startproc
 790              		@ args = 0, pretend = 0, frame = 0
 791              		@ frame_needed = 0, uses_anonymous_args = 0
 792              		@ link register save eliminated.
 170:USB/core/usbd_core.c **** }
 793              		.loc 1 170 3 view .LVU208
 171:USB/core/usbd_core.c **** 
 794              		.loc 1 171 1 is_stmt 0 view .LVU209
 795 0000 0020     		movs	r0, #0
 796              	.LVL67:
 171:USB/core/usbd_core.c **** 
 797              		.loc 1 171 1 view .LVU210
 798 0002 7047     		bx	lr
 799              		.cfi_endproc
 800              	.LFE127:
 802              		.section	.text.USBD_SetCfg,"ax",%progbits
 803              		.align	1
 804              		.global	USBD_SetCfg
 805              		.syntax unified
 806              		.thumb
 807              		.thumb_func
 808              		.fpu fpv4-sp-d16
 810              	USBD_SetCfg:
 811              	.LVL68:
 812              	.LFB136:
 418:USB/core/usbd_core.c ****   pdev->dev.class_cb->Init(pdev, cfgidx); 
 813              		.loc 1 418 1 is_stmt 1 view -0
 814              		.cfi_startproc
 815              		@ args = 0, pretend = 0, frame = 0
 816              		@ frame_needed = 0, uses_anonymous_args = 0
 418:USB/core/usbd_core.c ****   pdev->dev.class_cb->Init(pdev, cfgidx); 
 817              		.loc 1 418 1 is_stmt 0 view .LVU212
 818 0000 10B5     		push	{r4, lr}
 819              	.LCFI13:
 820              		.cfi_def_cfa_offset 8
 821              		.cfi_offset 4, -8
 822              		.cfi_offset 14, -4
 823 0002 0446     		mov	r4, r0
 419:USB/core/usbd_core.c ****   
 824              		.loc 1 419 3 is_stmt 1 view .LVU213
 419:USB/core/usbd_core.c ****   
 825              		.loc 1 419 12 is_stmt 0 view .LVU214
 826 0004 D0F8E435 		ldr	r3, [r0, #1508]
 419:USB/core/usbd_core.c ****   
 827              		.loc 1 419 21 view .LVU215
 828 0008 1B68     		ldr	r3, [r3]
 419:USB/core/usbd_core.c ****   
 829              		.loc 1 419 3 view .LVU216
ARM GAS  /var/folders/lx/hc4sn_b53233_zkc9xbbl97r0000gp/T//ccXvltmH.s 			page 26


 830 000a 9847     		blx	r3
 831              	.LVL69:
 422:USB/core/usbd_core.c ****   return USBD_OK; 
 832              		.loc 1 422 3 is_stmt 1 view .LVU217
 422:USB/core/usbd_core.c ****   return USBD_OK; 
 833              		.loc 1 422 12 is_stmt 0 view .LVU218
 834 000c D4F8E835 		ldr	r3, [r4, #1512]
 422:USB/core/usbd_core.c ****   return USBD_OK; 
 835              		.loc 1 422 19 view .LVU219
 836 0010 9B68     		ldr	r3, [r3, #8]
 422:USB/core/usbd_core.c ****   return USBD_OK; 
 837              		.loc 1 422 3 view .LVU220
 838 0012 9847     		blx	r3
 839              	.LVL70:
 423:USB/core/usbd_core.c **** }
 840              		.loc 1 423 3 is_stmt 1 view .LVU221
 424:USB/core/usbd_core.c **** 
 841              		.loc 1 424 1 is_stmt 0 view .LVU222
 842 0014 0020     		movs	r0, #0
 843 0016 10BD     		pop	{r4, pc}
 424:USB/core/usbd_core.c **** 
 844              		.loc 1 424 1 view .LVU223
 845              		.cfi_endproc
 846              	.LFE136:
 848              		.section	.text.USBD_ClrCfg,"ax",%progbits
 849              		.align	1
 850              		.global	USBD_ClrCfg
 851              		.syntax unified
 852              		.thumb
 853              		.thumb_func
 854              		.fpu fpv4-sp-d16
 856              	USBD_ClrCfg:
 857              	.LVL71:
 858              	.LFB137:
 434:USB/core/usbd_core.c ****   pdev->dev.class_cb->DeInit(pdev, cfgidx);   
 859              		.loc 1 434 1 is_stmt 1 view -0
 860              		.cfi_startproc
 861              		@ args = 0, pretend = 0, frame = 0
 862              		@ frame_needed = 0, uses_anonymous_args = 0
 434:USB/core/usbd_core.c ****   pdev->dev.class_cb->DeInit(pdev, cfgidx);   
 863              		.loc 1 434 1 is_stmt 0 view .LVU225
 864 0000 08B5     		push	{r3, lr}
 865              	.LCFI14:
 866              		.cfi_def_cfa_offset 8
 867              		.cfi_offset 3, -8
 868              		.cfi_offset 14, -4
 435:USB/core/usbd_core.c ****   return USBD_OK;
 869              		.loc 1 435 3 is_stmt 1 view .LVU226
 435:USB/core/usbd_core.c ****   return USBD_OK;
 870              		.loc 1 435 12 is_stmt 0 view .LVU227
 871 0002 D0F8E435 		ldr	r3, [r0, #1508]
 435:USB/core/usbd_core.c ****   return USBD_OK;
 872              		.loc 1 435 21 view .LVU228
 873 0006 5B68     		ldr	r3, [r3, #4]
 435:USB/core/usbd_core.c ****   return USBD_OK;
 874              		.loc 1 435 3 view .LVU229
 875 0008 9847     		blx	r3
ARM GAS  /var/folders/lx/hc4sn_b53233_zkc9xbbl97r0000gp/T//ccXvltmH.s 			page 27


 876              	.LVL72:
 436:USB/core/usbd_core.c **** }
 877              		.loc 1 436 3 is_stmt 1 view .LVU230
 437:USB/core/usbd_core.c **** 
 878              		.loc 1 437 1 is_stmt 0 view .LVU231
 879 000a 0020     		movs	r0, #0
 880 000c 08BD     		pop	{r3, pc}
 881              		.cfi_endproc
 882              	.LFE137:
 884              		.global	USBD_DCD_INT_fops
 885              		.global	USBD_DCD_INT_cb
 886              		.global	SET_TEST_MODE
 887              		.section	.bss.SET_TEST_MODE,"aw",%nobits
 888              		.align	2
 889              		.set	.LANCHOR0,. + 0
 892              	SET_TEST_MODE:
 893 0000 00000000 		.space	4
 894              		.section	.data.USBD_DCD_INT_cb,"aw"
 895              		.align	2
 898              	USBD_DCD_INT_cb:
 899 0000 00000000 		.word	USBD_DataOutStage
 900 0004 00000000 		.word	USBD_DataInStage
 901 0008 00000000 		.word	USBD_SetupStage
 902 000c 00000000 		.word	USBD_SOF
 903 0010 00000000 		.word	USBD_Reset
 904 0014 00000000 		.word	USBD_Suspend
 905 0018 00000000 		.word	USBD_Resume
 906 001c 00000000 		.word	USBD_IsoINIncomplete
 907 0020 00000000 		.word	USBD_IsoOUTIncomplete
 908 0024 00000000 		.space	8
 908      00000000 
 909              		.section	.data.USBD_DCD_INT_fops,"aw"
 910              		.align	2
 913              	USBD_DCD_INT_fops:
 914 0000 00000000 		.word	USBD_DCD_INT_cb
 915              		.text
 916              	.Letext0:
 917              		.file 2 "/usr/local/arm-none-eabi-gcc/gcc-arm-none-eabi-10-2020-q4-major/arm-none-eabi/include/mac
 918              		.file 3 "/usr/local/arm-none-eabi-gcc/gcc-arm-none-eabi-10-2020-q4-major/arm-none-eabi/include/sys
 919              		.file 4 "USB/core/usb_regs.h"
 920              		.file 5 "USB/core/usb_defines.h"
 921              		.file 6 "USB/core/usb_core.h"
 922              		.file 7 "USB/core/usbd_core.h"
 923              		.file 8 "USB/core/usb_dcd_int.h"
 924              		.file 9 "USB/core/usb_dcd.h"
 925              		.file 10 "USB/core/usbd_ioreq.h"
 926              		.file 11 "USB/core/usbd_req.h"
 927              		.file 12 "USB/core/usb_bsp.h"
ARM GAS  /var/folders/lx/hc4sn_b53233_zkc9xbbl97r0000gp/T//ccXvltmH.s 			page 28


DEFINED SYMBOLS
                            *ABS*:0000000000000000 usbd_core.c
/var/folders/lx/hc4sn_b53233_zkc9xbbl97r0000gp/T//ccXvltmH.s:18     .text.USBD_RunTestMode:0000000000000000 $t
/var/folders/lx/hc4sn_b53233_zkc9xbbl97r0000gp/T//ccXvltmH.s:25     .text.USBD_RunTestMode:0000000000000000 USBD_RunTestMode
/var/folders/lx/hc4sn_b53233_zkc9xbbl97r0000gp/T//ccXvltmH.s:48     .text.USBD_RunTestMode:000000000000000c $d
/var/folders/lx/hc4sn_b53233_zkc9xbbl97r0000gp/T//ccXvltmH.s:53     .text.USBD_Resume:0000000000000000 $t
/var/folders/lx/hc4sn_b53233_zkc9xbbl97r0000gp/T//ccXvltmH.s:59     .text.USBD_Resume:0000000000000000 USBD_Resume
/var/folders/lx/hc4sn_b53233_zkc9xbbl97r0000gp/T//ccXvltmH.s:99     .text.USBD_Suspend:0000000000000000 $t
/var/folders/lx/hc4sn_b53233_zkc9xbbl97r0000gp/T//ccXvltmH.s:105    .text.USBD_Suspend:0000000000000000 USBD_Suspend
/var/folders/lx/hc4sn_b53233_zkc9xbbl97r0000gp/T//ccXvltmH.s:143    .text.USBD_SOF:0000000000000000 $t
/var/folders/lx/hc4sn_b53233_zkc9xbbl97r0000gp/T//ccXvltmH.s:149    .text.USBD_SOF:0000000000000000 USBD_SOF
/var/folders/lx/hc4sn_b53233_zkc9xbbl97r0000gp/T//ccXvltmH.s:181    .text.USBD_IsoINIncomplete:0000000000000000 $t
/var/folders/lx/hc4sn_b53233_zkc9xbbl97r0000gp/T//ccXvltmH.s:187    .text.USBD_IsoINIncomplete:0000000000000000 USBD_IsoINIncomplete
/var/folders/lx/hc4sn_b53233_zkc9xbbl97r0000gp/T//ccXvltmH.s:216    .text.USBD_IsoOUTIncomplete:0000000000000000 $t
/var/folders/lx/hc4sn_b53233_zkc9xbbl97r0000gp/T//ccXvltmH.s:222    .text.USBD_IsoOUTIncomplete:0000000000000000 USBD_IsoOUTIncomplete
/var/folders/lx/hc4sn_b53233_zkc9xbbl97r0000gp/T//ccXvltmH.s:251    .text.USBD_Reset:0000000000000000 $t
/var/folders/lx/hc4sn_b53233_zkc9xbbl97r0000gp/T//ccXvltmH.s:257    .text.USBD_Reset:0000000000000000 USBD_Reset
/var/folders/lx/hc4sn_b53233_zkc9xbbl97r0000gp/T//ccXvltmH.s:306    .text.USBD_SetupStage:0000000000000000 $t
/var/folders/lx/hc4sn_b53233_zkc9xbbl97r0000gp/T//ccXvltmH.s:312    .text.USBD_SetupStage:0000000000000000 USBD_SetupStage
/var/folders/lx/hc4sn_b53233_zkc9xbbl97r0000gp/T//ccXvltmH.s:391    .text.USBD_DataInStage:0000000000000000 $t
/var/folders/lx/hc4sn_b53233_zkc9xbbl97r0000gp/T//ccXvltmH.s:397    .text.USBD_DataInStage:0000000000000000 USBD_DataInStage
/var/folders/lx/hc4sn_b53233_zkc9xbbl97r0000gp/T//ccXvltmH.s:574    .text.USBD_DataOutStage:0000000000000000 $t
/var/folders/lx/hc4sn_b53233_zkc9xbbl97r0000gp/T//ccXvltmH.s:580    .text.USBD_DataOutStage:0000000000000000 USBD_DataOutStage
/var/folders/lx/hc4sn_b53233_zkc9xbbl97r0000gp/T//ccXvltmH.s:712    .text.USBD_Init:0000000000000000 $t
/var/folders/lx/hc4sn_b53233_zkc9xbbl97r0000gp/T//ccXvltmH.s:719    .text.USBD_Init:0000000000000000 USBD_Init
/var/folders/lx/hc4sn_b53233_zkc9xbbl97r0000gp/T//ccXvltmH.s:778    .text.USBD_DeInit:0000000000000000 $t
/var/folders/lx/hc4sn_b53233_zkc9xbbl97r0000gp/T//ccXvltmH.s:785    .text.USBD_DeInit:0000000000000000 USBD_DeInit
/var/folders/lx/hc4sn_b53233_zkc9xbbl97r0000gp/T//ccXvltmH.s:803    .text.USBD_SetCfg:0000000000000000 $t
/var/folders/lx/hc4sn_b53233_zkc9xbbl97r0000gp/T//ccXvltmH.s:810    .text.USBD_SetCfg:0000000000000000 USBD_SetCfg
/var/folders/lx/hc4sn_b53233_zkc9xbbl97r0000gp/T//ccXvltmH.s:849    .text.USBD_ClrCfg:0000000000000000 $t
/var/folders/lx/hc4sn_b53233_zkc9xbbl97r0000gp/T//ccXvltmH.s:856    .text.USBD_ClrCfg:0000000000000000 USBD_ClrCfg
/var/folders/lx/hc4sn_b53233_zkc9xbbl97r0000gp/T//ccXvltmH.s:913    .data.USBD_DCD_INT_fops:0000000000000000 USBD_DCD_INT_fops
/var/folders/lx/hc4sn_b53233_zkc9xbbl97r0000gp/T//ccXvltmH.s:898    .data.USBD_DCD_INT_cb:0000000000000000 USBD_DCD_INT_cb
/var/folders/lx/hc4sn_b53233_zkc9xbbl97r0000gp/T//ccXvltmH.s:892    .bss.SET_TEST_MODE:0000000000000000 SET_TEST_MODE
/var/folders/lx/hc4sn_b53233_zkc9xbbl97r0000gp/T//ccXvltmH.s:888    .bss.SET_TEST_MODE:0000000000000000 $d
/var/folders/lx/hc4sn_b53233_zkc9xbbl97r0000gp/T//ccXvltmH.s:895    .data.USBD_DCD_INT_cb:0000000000000000 $d
/var/folders/lx/hc4sn_b53233_zkc9xbbl97r0000gp/T//ccXvltmH.s:910    .data.USBD_DCD_INT_fops:0000000000000000 $d

UNDEFINED SYMBOLS
DCD_EP_Open
USBD_ParseSetupRequest
DCD_EP_Stall
USBD_StdDevReq
USBD_StdItfReq
USBD_StdEPReq
USBD_CtlContinueSendData
USBD_CtlReceiveStatus
USBD_CtlContinueRx
USBD_CtlSendStatus
USB_OTG_BSP_Init
DCD_Init
USB_OTG_BSP_EnableInterrupt
