ARM GAS  /var/folders/lx/hc4sn_b53233_zkc9xbbl97r0000gp/T//cc24fwY3.s 			page 1


   1              		.cpu cortex-m4
   2              		.eabi_attribute 27, 1
   3              		.eabi_attribute 28, 1
   4              		.eabi_attribute 20, 1
   5              		.eabi_attribute 21, 1
   6              		.eabi_attribute 23, 3
   7              		.eabi_attribute 24, 1
   8              		.eabi_attribute 25, 1
   9              		.eabi_attribute 26, 1
  10              		.eabi_attribute 30, 1
  11              		.eabi_attribute 34, 1
  12              		.eabi_attribute 18, 4
  13              		.file	"usbd_ioreq.c"
  14              		.text
  15              	.Ltext0:
  16              		.cfi_sections	.debug_frame
  17              		.section	.text.USBD_CtlSendData,"ax",%progbits
  18              		.align	1
  19              		.global	USBD_CtlSendData
  20              		.arch armv7e-m
  21              		.syntax unified
  22              		.thumb
  23              		.thumb_func
  24              		.fpu fpv4-sp-d16
  26              	USBD_CtlSendData:
  27              	.LVL0:
  28              	.LFB126:
  29              		.file 1 "USB/core/usbd_ioreq.c"
   1:USB/core/usbd_ioreq.c **** /**
   2:USB/core/usbd_ioreq.c ****   ******************************************************************************
   3:USB/core/usbd_ioreq.c ****   * @file    usbd_ioreq.c
   4:USB/core/usbd_ioreq.c ****   * @author  MCD Application Team
   5:USB/core/usbd_ioreq.c ****   * @version V1.1.0
   6:USB/core/usbd_ioreq.c ****   * @date    19-March-2012
   7:USB/core/usbd_ioreq.c ****   * @brief   This file provides the IO requests APIs for control endpoints.
   8:USB/core/usbd_ioreq.c ****   ******************************************************************************
   9:USB/core/usbd_ioreq.c ****   * @attention
  10:USB/core/usbd_ioreq.c ****   *
  11:USB/core/usbd_ioreq.c ****   * <h2><center>&copy; COPYRIGHT 2012 STMicroelectronics</center></h2>
  12:USB/core/usbd_ioreq.c ****   *
  13:USB/core/usbd_ioreq.c ****   * Licensed under MCD-ST Liberty SW License Agreement V2, (the "License");
  14:USB/core/usbd_ioreq.c ****   * You may not use this file except in compliance with the License.
  15:USB/core/usbd_ioreq.c ****   * You may obtain a copy of the License at:
  16:USB/core/usbd_ioreq.c ****   *
  17:USB/core/usbd_ioreq.c ****   *        http://www.st.com/software_license_agreement_liberty_v2
  18:USB/core/usbd_ioreq.c ****   *
  19:USB/core/usbd_ioreq.c ****   * Unless required by applicable law or agreed to in writing, software 
  20:USB/core/usbd_ioreq.c ****   * distributed under the License is distributed on an "AS IS" BASIS, 
  21:USB/core/usbd_ioreq.c ****   * WITHOUT WARRANTIES OR CONDITIONS OF ANY KIND, either express or implied.
  22:USB/core/usbd_ioreq.c ****   * See the License for the specific language governing permissions and
  23:USB/core/usbd_ioreq.c ****   * limitations under the License.
  24:USB/core/usbd_ioreq.c ****   *
  25:USB/core/usbd_ioreq.c ****   ******************************************************************************
  26:USB/core/usbd_ioreq.c ****   */ 
  27:USB/core/usbd_ioreq.c **** 
  28:USB/core/usbd_ioreq.c **** /* Includes ------------------------------------------------------------------*/
  29:USB/core/usbd_ioreq.c **** #include "usbd_ioreq.h"
ARM GAS  /var/folders/lx/hc4sn_b53233_zkc9xbbl97r0000gp/T//cc24fwY3.s 			page 2


  30:USB/core/usbd_ioreq.c **** 
  31:USB/core/usbd_ioreq.c **** /** @addtogroup STM32_USB_OTG_DEVICE_LIBRARY
  32:USB/core/usbd_ioreq.c ****   * @{
  33:USB/core/usbd_ioreq.c ****   */
  34:USB/core/usbd_ioreq.c **** 
  35:USB/core/usbd_ioreq.c **** 
  36:USB/core/usbd_ioreq.c **** /** @defgroup USBD_IOREQ 
  37:USB/core/usbd_ioreq.c ****   * @brief control I/O requests module
  38:USB/core/usbd_ioreq.c ****   * @{
  39:USB/core/usbd_ioreq.c ****   */ 
  40:USB/core/usbd_ioreq.c **** 
  41:USB/core/usbd_ioreq.c **** /** @defgroup USBD_IOREQ_Private_TypesDefinitions
  42:USB/core/usbd_ioreq.c ****   * @{
  43:USB/core/usbd_ioreq.c ****   */ 
  44:USB/core/usbd_ioreq.c **** /**
  45:USB/core/usbd_ioreq.c ****   * @}
  46:USB/core/usbd_ioreq.c ****   */ 
  47:USB/core/usbd_ioreq.c **** 
  48:USB/core/usbd_ioreq.c **** 
  49:USB/core/usbd_ioreq.c **** /** @defgroup USBD_IOREQ_Private_Defines
  50:USB/core/usbd_ioreq.c ****   * @{
  51:USB/core/usbd_ioreq.c ****   */ 
  52:USB/core/usbd_ioreq.c **** 
  53:USB/core/usbd_ioreq.c **** /**
  54:USB/core/usbd_ioreq.c ****   * @}
  55:USB/core/usbd_ioreq.c ****   */ 
  56:USB/core/usbd_ioreq.c **** 
  57:USB/core/usbd_ioreq.c **** 
  58:USB/core/usbd_ioreq.c **** /** @defgroup USBD_IOREQ_Private_Macros
  59:USB/core/usbd_ioreq.c ****   * @{
  60:USB/core/usbd_ioreq.c ****   */ 
  61:USB/core/usbd_ioreq.c **** /**
  62:USB/core/usbd_ioreq.c ****   * @}
  63:USB/core/usbd_ioreq.c ****   */ 
  64:USB/core/usbd_ioreq.c **** 
  65:USB/core/usbd_ioreq.c **** 
  66:USB/core/usbd_ioreq.c **** /** @defgroup USBD_IOREQ_Private_Variables
  67:USB/core/usbd_ioreq.c ****   * @{
  68:USB/core/usbd_ioreq.c ****   */ 
  69:USB/core/usbd_ioreq.c **** 
  70:USB/core/usbd_ioreq.c **** /**
  71:USB/core/usbd_ioreq.c ****   * @}
  72:USB/core/usbd_ioreq.c ****   */ 
  73:USB/core/usbd_ioreq.c **** 
  74:USB/core/usbd_ioreq.c **** 
  75:USB/core/usbd_ioreq.c **** /** @defgroup USBD_IOREQ_Private_FunctionPrototypes
  76:USB/core/usbd_ioreq.c ****   * @{
  77:USB/core/usbd_ioreq.c ****   */ 
  78:USB/core/usbd_ioreq.c **** /**
  79:USB/core/usbd_ioreq.c ****   * @}
  80:USB/core/usbd_ioreq.c ****   */ 
  81:USB/core/usbd_ioreq.c **** 
  82:USB/core/usbd_ioreq.c **** 
  83:USB/core/usbd_ioreq.c **** /** @defgroup USBD_IOREQ_Private_Functions
  84:USB/core/usbd_ioreq.c ****   * @{
  85:USB/core/usbd_ioreq.c ****   */ 
  86:USB/core/usbd_ioreq.c **** 
ARM GAS  /var/folders/lx/hc4sn_b53233_zkc9xbbl97r0000gp/T//cc24fwY3.s 			page 3


  87:USB/core/usbd_ioreq.c **** /**
  88:USB/core/usbd_ioreq.c **** * @brief  USBD_CtlSendData
  89:USB/core/usbd_ioreq.c **** *         send data on the ctl pipe
  90:USB/core/usbd_ioreq.c **** * @param  pdev: device instance
  91:USB/core/usbd_ioreq.c **** * @param  buff: pointer to data buffer
  92:USB/core/usbd_ioreq.c **** * @param  len: length of data to be sent
  93:USB/core/usbd_ioreq.c **** * @retval status
  94:USB/core/usbd_ioreq.c **** */
  95:USB/core/usbd_ioreq.c **** USBD_Status  USBD_CtlSendData (USB_OTG_CORE_HANDLE  *pdev, 
  96:USB/core/usbd_ioreq.c ****                                uint8_t *pbuf,
  97:USB/core/usbd_ioreq.c ****                                uint16_t len)
  98:USB/core/usbd_ioreq.c **** {
  30              		.loc 1 98 1 view -0
  31              		.cfi_startproc
  32              		@ args = 0, pretend = 0, frame = 0
  33              		@ frame_needed = 0, uses_anonymous_args = 0
  34              		.loc 1 98 1 is_stmt 0 view .LVU1
  35 0000 08B5     		push	{r3, lr}
  36              	.LCFI0:
  37              		.cfi_def_cfa_offset 8
  38              		.cfi_offset 3, -8
  39              		.cfi_offset 14, -4
  40 0002 1346     		mov	r3, r2
  99:USB/core/usbd_ioreq.c ****   USBD_Status ret = USBD_OK;
  41              		.loc 1 99 3 is_stmt 1 view .LVU2
  42              	.LVL1:
 100:USB/core/usbd_ioreq.c ****   
 101:USB/core/usbd_ioreq.c ****   pdev->dev.in_ep[0].total_data_len = len;
  43              		.loc 1 101 3 view .LVU3
  44              		.loc 1 101 37 is_stmt 0 view .LVU4
  45 0004 C0F83C21 		str	r2, [r0, #316]
 102:USB/core/usbd_ioreq.c ****   pdev->dev.in_ep[0].rem_data_len   = len;
  46              		.loc 1 102 3 is_stmt 1 view .LVU5
  47              		.loc 1 102 37 is_stmt 0 view .LVU6
  48 0008 C0F83821 		str	r2, [r0, #312]
 103:USB/core/usbd_ioreq.c ****   pdev->dev.device_state = USB_OTG_EP0_DATA_IN;
  49              		.loc 1 103 3 is_stmt 1 view .LVU7
  50              		.loc 1 103 26 is_stmt 0 view .LVU8
  51 000c 0222     		movs	r2, #2
  52              	.LVL2:
  53              		.loc 1 103 26 view .LVU9
  54 000e 80F81121 		strb	r2, [r0, #273]
 104:USB/core/usbd_ioreq.c **** 
 105:USB/core/usbd_ioreq.c ****   DCD_EP_Tx (pdev, 0, pbuf, len);
  55              		.loc 1 105 3 is_stmt 1 view .LVU10
  56 0012 0A46     		mov	r2, r1
  57 0014 0021     		movs	r1, #0
  58              	.LVL3:
  59              		.loc 1 105 3 is_stmt 0 view .LVU11
  60 0016 FFF7FEFF 		bl	DCD_EP_Tx
  61              	.LVL4:
 106:USB/core/usbd_ioreq.c ****  
 107:USB/core/usbd_ioreq.c ****   return ret;
  62              		.loc 1 107 3 is_stmt 1 view .LVU12
 108:USB/core/usbd_ioreq.c **** }
  63              		.loc 1 108 1 is_stmt 0 view .LVU13
  64 001a 0020     		movs	r0, #0
ARM GAS  /var/folders/lx/hc4sn_b53233_zkc9xbbl97r0000gp/T//cc24fwY3.s 			page 4


  65 001c 08BD     		pop	{r3, pc}
  66              		.cfi_endproc
  67              	.LFE126:
  69              		.section	.text.USBD_CtlContinueSendData,"ax",%progbits
  70              		.align	1
  71              		.global	USBD_CtlContinueSendData
  72              		.syntax unified
  73              		.thumb
  74              		.thumb_func
  75              		.fpu fpv4-sp-d16
  77              	USBD_CtlContinueSendData:
  78              	.LVL5:
  79              	.LFB127:
 109:USB/core/usbd_ioreq.c **** 
 110:USB/core/usbd_ioreq.c **** /**
 111:USB/core/usbd_ioreq.c **** * @brief  USBD_CtlContinueSendData
 112:USB/core/usbd_ioreq.c **** *         continue sending data on the ctl pipe
 113:USB/core/usbd_ioreq.c **** * @param  pdev: device instance
 114:USB/core/usbd_ioreq.c **** * @param  buff: pointer to data buffer
 115:USB/core/usbd_ioreq.c **** * @param  len: length of data to be sent
 116:USB/core/usbd_ioreq.c **** * @retval status
 117:USB/core/usbd_ioreq.c **** */
 118:USB/core/usbd_ioreq.c **** USBD_Status  USBD_CtlContinueSendData (USB_OTG_CORE_HANDLE  *pdev, 
 119:USB/core/usbd_ioreq.c ****                                        uint8_t *pbuf,
 120:USB/core/usbd_ioreq.c ****                                        uint16_t len)
 121:USB/core/usbd_ioreq.c **** {
  80              		.loc 1 121 1 is_stmt 1 view -0
  81              		.cfi_startproc
  82              		@ args = 0, pretend = 0, frame = 0
  83              		@ frame_needed = 0, uses_anonymous_args = 0
  84              		.loc 1 121 1 is_stmt 0 view .LVU15
  85 0000 08B5     		push	{r3, lr}
  86              	.LCFI1:
  87              		.cfi_def_cfa_offset 8
  88              		.cfi_offset 3, -8
  89              		.cfi_offset 14, -4
  90 0002 1346     		mov	r3, r2
 122:USB/core/usbd_ioreq.c ****   USBD_Status ret = USBD_OK;
  91              		.loc 1 122 3 is_stmt 1 view .LVU16
  92              	.LVL6:
 123:USB/core/usbd_ioreq.c ****   
 124:USB/core/usbd_ioreq.c ****   DCD_EP_Tx (pdev, 0, pbuf, len);
  93              		.loc 1 124 3 view .LVU17
  94 0004 0A46     		mov	r2, r1
  95              	.LVL7:
  96              		.loc 1 124 3 is_stmt 0 view .LVU18
  97 0006 0021     		movs	r1, #0
  98              	.LVL8:
  99              		.loc 1 124 3 view .LVU19
 100 0008 FFF7FEFF 		bl	DCD_EP_Tx
 101              	.LVL9:
 125:USB/core/usbd_ioreq.c ****   
 126:USB/core/usbd_ioreq.c ****   
 127:USB/core/usbd_ioreq.c ****   return ret;
 102              		.loc 1 127 3 is_stmt 1 view .LVU20
 128:USB/core/usbd_ioreq.c **** }
 103              		.loc 1 128 1 is_stmt 0 view .LVU21
ARM GAS  /var/folders/lx/hc4sn_b53233_zkc9xbbl97r0000gp/T//cc24fwY3.s 			page 5


 104 000c 0020     		movs	r0, #0
 105 000e 08BD     		pop	{r3, pc}
 106              		.cfi_endproc
 107              	.LFE127:
 109              		.section	.text.USBD_CtlPrepareRx,"ax",%progbits
 110              		.align	1
 111              		.global	USBD_CtlPrepareRx
 112              		.syntax unified
 113              		.thumb
 114              		.thumb_func
 115              		.fpu fpv4-sp-d16
 117              	USBD_CtlPrepareRx:
 118              	.LVL10:
 119              	.LFB128:
 129:USB/core/usbd_ioreq.c **** 
 130:USB/core/usbd_ioreq.c **** /**
 131:USB/core/usbd_ioreq.c **** * @brief  USBD_CtlPrepareRx
 132:USB/core/usbd_ioreq.c **** *         receive data on the ctl pipe
 133:USB/core/usbd_ioreq.c **** * @param  pdev: USB OTG device instance
 134:USB/core/usbd_ioreq.c **** * @param  buff: pointer to data buffer
 135:USB/core/usbd_ioreq.c **** * @param  len: length of data to be received
 136:USB/core/usbd_ioreq.c **** * @retval status
 137:USB/core/usbd_ioreq.c **** */
 138:USB/core/usbd_ioreq.c **** USBD_Status  USBD_CtlPrepareRx (USB_OTG_CORE_HANDLE  *pdev,
 139:USB/core/usbd_ioreq.c ****                                   uint8_t *pbuf,                                  
 140:USB/core/usbd_ioreq.c ****                                   uint16_t len)
 141:USB/core/usbd_ioreq.c **** {
 120              		.loc 1 141 1 is_stmt 1 view -0
 121              		.cfi_startproc
 122              		@ args = 0, pretend = 0, frame = 0
 123              		@ frame_needed = 0, uses_anonymous_args = 0
 124              		.loc 1 141 1 is_stmt 0 view .LVU23
 125 0000 08B5     		push	{r3, lr}
 126              	.LCFI2:
 127              		.cfi_def_cfa_offset 8
 128              		.cfi_offset 3, -8
 129              		.cfi_offset 14, -4
 130 0002 1346     		mov	r3, r2
 142:USB/core/usbd_ioreq.c ****   USBD_Status ret = USBD_OK;
 131              		.loc 1 142 3 is_stmt 1 view .LVU24
 132              	.LVL11:
 143:USB/core/usbd_ioreq.c ****   
 144:USB/core/usbd_ioreq.c ****   pdev->dev.out_ep[0].total_data_len = len;
 133              		.loc 1 144 3 view .LVU25
 134              		.loc 1 144 38 is_stmt 0 view .LVU26
 135 0004 C0F89423 		str	r2, [r0, #916]
 145:USB/core/usbd_ioreq.c ****   pdev->dev.out_ep[0].rem_data_len   = len;
 136              		.loc 1 145 3 is_stmt 1 view .LVU27
 137              		.loc 1 145 38 is_stmt 0 view .LVU28
 138 0008 C0F89023 		str	r2, [r0, #912]
 146:USB/core/usbd_ioreq.c ****   pdev->dev.device_state = USB_OTG_EP0_DATA_OUT;
 139              		.loc 1 146 3 is_stmt 1 view .LVU29
 140              		.loc 1 146 26 is_stmt 0 view .LVU30
 141 000c 0322     		movs	r2, #3
 142              	.LVL12:
 143              		.loc 1 146 26 view .LVU31
 144 000e 80F81121 		strb	r2, [r0, #273]
ARM GAS  /var/folders/lx/hc4sn_b53233_zkc9xbbl97r0000gp/T//cc24fwY3.s 			page 6


 147:USB/core/usbd_ioreq.c ****   
 148:USB/core/usbd_ioreq.c ****   DCD_EP_PrepareRx (pdev,
 145              		.loc 1 148 3 is_stmt 1 view .LVU32
 146 0012 0A46     		mov	r2, r1
 147 0014 0021     		movs	r1, #0
 148              	.LVL13:
 149              		.loc 1 148 3 is_stmt 0 view .LVU33
 150 0016 FFF7FEFF 		bl	DCD_EP_PrepareRx
 151              	.LVL14:
 149:USB/core/usbd_ioreq.c ****                     0,
 150:USB/core/usbd_ioreq.c ****                     pbuf,
 151:USB/core/usbd_ioreq.c ****                     len);
 152:USB/core/usbd_ioreq.c ****   
 153:USB/core/usbd_ioreq.c **** 
 154:USB/core/usbd_ioreq.c ****   return ret;
 152              		.loc 1 154 3 is_stmt 1 view .LVU34
 155:USB/core/usbd_ioreq.c **** }
 153              		.loc 1 155 1 is_stmt 0 view .LVU35
 154 001a 0020     		movs	r0, #0
 155 001c 08BD     		pop	{r3, pc}
 156              		.cfi_endproc
 157              	.LFE128:
 159              		.section	.text.USBD_CtlContinueRx,"ax",%progbits
 160              		.align	1
 161              		.global	USBD_CtlContinueRx
 162              		.syntax unified
 163              		.thumb
 164              		.thumb_func
 165              		.fpu fpv4-sp-d16
 167              	USBD_CtlContinueRx:
 168              	.LVL15:
 169              	.LFB129:
 156:USB/core/usbd_ioreq.c **** 
 157:USB/core/usbd_ioreq.c **** /**
 158:USB/core/usbd_ioreq.c **** * @brief  USBD_CtlContinueRx
 159:USB/core/usbd_ioreq.c **** *         continue receive data on the ctl pipe
 160:USB/core/usbd_ioreq.c **** * @param  pdev: USB OTG device instance
 161:USB/core/usbd_ioreq.c **** * @param  buff: pointer to data buffer
 162:USB/core/usbd_ioreq.c **** * @param  len: length of data to be received
 163:USB/core/usbd_ioreq.c **** * @retval status
 164:USB/core/usbd_ioreq.c **** */
 165:USB/core/usbd_ioreq.c **** USBD_Status  USBD_CtlContinueRx (USB_OTG_CORE_HANDLE  *pdev, 
 166:USB/core/usbd_ioreq.c ****                                           uint8_t *pbuf,                                          
 167:USB/core/usbd_ioreq.c ****                                           uint16_t len)
 168:USB/core/usbd_ioreq.c **** {
 170              		.loc 1 168 1 is_stmt 1 view -0
 171              		.cfi_startproc
 172              		@ args = 0, pretend = 0, frame = 0
 173              		@ frame_needed = 0, uses_anonymous_args = 0
 174              		.loc 1 168 1 is_stmt 0 view .LVU37
 175 0000 08B5     		push	{r3, lr}
 176              	.LCFI3:
 177              		.cfi_def_cfa_offset 8
 178              		.cfi_offset 3, -8
 179              		.cfi_offset 14, -4
 180 0002 1346     		mov	r3, r2
 169:USB/core/usbd_ioreq.c ****   USBD_Status ret = USBD_OK;
ARM GAS  /var/folders/lx/hc4sn_b53233_zkc9xbbl97r0000gp/T//cc24fwY3.s 			page 7


 181              		.loc 1 169 3 is_stmt 1 view .LVU38
 182              	.LVL16:
 170:USB/core/usbd_ioreq.c ****   
 171:USB/core/usbd_ioreq.c ****   DCD_EP_PrepareRx (pdev,
 183              		.loc 1 171 3 view .LVU39
 184 0004 0A46     		mov	r2, r1
 185              	.LVL17:
 186              		.loc 1 171 3 is_stmt 0 view .LVU40
 187 0006 0021     		movs	r1, #0
 188              	.LVL18:
 189              		.loc 1 171 3 view .LVU41
 190 0008 FFF7FEFF 		bl	DCD_EP_PrepareRx
 191              	.LVL19:
 172:USB/core/usbd_ioreq.c ****                     0,                     
 173:USB/core/usbd_ioreq.c ****                     pbuf,                         
 174:USB/core/usbd_ioreq.c ****                     len);
 175:USB/core/usbd_ioreq.c ****   return ret;
 192              		.loc 1 175 3 is_stmt 1 view .LVU42
 176:USB/core/usbd_ioreq.c **** }
 193              		.loc 1 176 1 is_stmt 0 view .LVU43
 194 000c 0020     		movs	r0, #0
 195 000e 08BD     		pop	{r3, pc}
 196              		.cfi_endproc
 197              	.LFE129:
 199              		.section	.text.USBD_CtlSendStatus,"ax",%progbits
 200              		.align	1
 201              		.global	USBD_CtlSendStatus
 202              		.syntax unified
 203              		.thumb
 204              		.thumb_func
 205              		.fpu fpv4-sp-d16
 207              	USBD_CtlSendStatus:
 208              	.LVL20:
 209              	.LFB130:
 177:USB/core/usbd_ioreq.c **** /**
 178:USB/core/usbd_ioreq.c **** * @brief  USBD_CtlSendStatus
 179:USB/core/usbd_ioreq.c **** *         send zero lzngth packet on the ctl pipe
 180:USB/core/usbd_ioreq.c **** * @param  pdev: USB OTG device instance
 181:USB/core/usbd_ioreq.c **** * @retval status
 182:USB/core/usbd_ioreq.c **** */
 183:USB/core/usbd_ioreq.c **** USBD_Status  USBD_CtlSendStatus (USB_OTG_CORE_HANDLE  *pdev)
 184:USB/core/usbd_ioreq.c **** {
 210              		.loc 1 184 1 is_stmt 1 view -0
 211              		.cfi_startproc
 212              		@ args = 0, pretend = 0, frame = 0
 213              		@ frame_needed = 0, uses_anonymous_args = 0
 214              		.loc 1 184 1 is_stmt 0 view .LVU45
 215 0000 10B5     		push	{r4, lr}
 216              	.LCFI4:
 217              		.cfi_def_cfa_offset 8
 218              		.cfi_offset 4, -8
 219              		.cfi_offset 14, -4
 220 0002 0446     		mov	r4, r0
 185:USB/core/usbd_ioreq.c ****   USBD_Status ret = USBD_OK;
 221              		.loc 1 185 3 is_stmt 1 view .LVU46
 222              	.LVL21:
 186:USB/core/usbd_ioreq.c ****   pdev->dev.device_state = USB_OTG_EP0_STATUS_IN;
ARM GAS  /var/folders/lx/hc4sn_b53233_zkc9xbbl97r0000gp/T//cc24fwY3.s 			page 8


 223              		.loc 1 186 3 view .LVU47
 224              		.loc 1 186 26 is_stmt 0 view .LVU48
 225 0004 0423     		movs	r3, #4
 226 0006 80F81131 		strb	r3, [r0, #273]
 187:USB/core/usbd_ioreq.c ****   DCD_EP_Tx (pdev,
 227              		.loc 1 187 3 is_stmt 1 view .LVU49
 228 000a 0023     		movs	r3, #0
 229 000c 1A46     		mov	r2, r3
 230 000e 1946     		mov	r1, r3
 231 0010 FFF7FEFF 		bl	DCD_EP_Tx
 232              	.LVL22:
 188:USB/core/usbd_ioreq.c ****              0,
 189:USB/core/usbd_ioreq.c ****              NULL, 
 190:USB/core/usbd_ioreq.c ****              0); 
 191:USB/core/usbd_ioreq.c ****   
 192:USB/core/usbd_ioreq.c ****   USB_OTG_EP0_OutStart(pdev);  
 233              		.loc 1 192 3 view .LVU50
 234 0014 2046     		mov	r0, r4
 235 0016 FFF7FEFF 		bl	USB_OTG_EP0_OutStart
 236              	.LVL23:
 193:USB/core/usbd_ioreq.c ****   
 194:USB/core/usbd_ioreq.c ****   return ret;
 237              		.loc 1 194 3 view .LVU51
 195:USB/core/usbd_ioreq.c **** }
 238              		.loc 1 195 1 is_stmt 0 view .LVU52
 239 001a 0020     		movs	r0, #0
 240 001c 10BD     		pop	{r4, pc}
 241              		.loc 1 195 1 view .LVU53
 242              		.cfi_endproc
 243              	.LFE130:
 245              		.section	.text.USBD_CtlReceiveStatus,"ax",%progbits
 246              		.align	1
 247              		.global	USBD_CtlReceiveStatus
 248              		.syntax unified
 249              		.thumb
 250              		.thumb_func
 251              		.fpu fpv4-sp-d16
 253              	USBD_CtlReceiveStatus:
 254              	.LVL24:
 255              	.LFB131:
 196:USB/core/usbd_ioreq.c **** 
 197:USB/core/usbd_ioreq.c **** /**
 198:USB/core/usbd_ioreq.c **** * @brief  USBD_CtlReceiveStatus
 199:USB/core/usbd_ioreq.c **** *         receive zero lzngth packet on the ctl pipe
 200:USB/core/usbd_ioreq.c **** * @param  pdev: USB OTG device instance
 201:USB/core/usbd_ioreq.c **** * @retval status
 202:USB/core/usbd_ioreq.c **** */
 203:USB/core/usbd_ioreq.c **** USBD_Status  USBD_CtlReceiveStatus (USB_OTG_CORE_HANDLE  *pdev)
 204:USB/core/usbd_ioreq.c **** {
 256              		.loc 1 204 1 is_stmt 1 view -0
 257              		.cfi_startproc
 258              		@ args = 0, pretend = 0, frame = 0
 259              		@ frame_needed = 0, uses_anonymous_args = 0
 260              		.loc 1 204 1 is_stmt 0 view .LVU55
 261 0000 10B5     		push	{r4, lr}
 262              	.LCFI5:
 263              		.cfi_def_cfa_offset 8
ARM GAS  /var/folders/lx/hc4sn_b53233_zkc9xbbl97r0000gp/T//cc24fwY3.s 			page 9


 264              		.cfi_offset 4, -8
 265              		.cfi_offset 14, -4
 266 0002 0446     		mov	r4, r0
 205:USB/core/usbd_ioreq.c ****   USBD_Status ret = USBD_OK;
 267              		.loc 1 205 3 is_stmt 1 view .LVU56
 268              	.LVL25:
 206:USB/core/usbd_ioreq.c ****   pdev->dev.device_state = USB_OTG_EP0_STATUS_OUT;  
 269              		.loc 1 206 3 view .LVU57
 270              		.loc 1 206 26 is_stmt 0 view .LVU58
 271 0004 0523     		movs	r3, #5
 272 0006 80F81131 		strb	r3, [r0, #273]
 207:USB/core/usbd_ioreq.c ****   DCD_EP_PrepareRx ( pdev,
 273              		.loc 1 207 3 is_stmt 1 view .LVU59
 274 000a 0023     		movs	r3, #0
 275 000c 1A46     		mov	r2, r3
 276 000e 1946     		mov	r1, r3
 277 0010 FFF7FEFF 		bl	DCD_EP_PrepareRx
 278              	.LVL26:
 208:USB/core/usbd_ioreq.c ****                     0,
 209:USB/core/usbd_ioreq.c ****                     NULL,
 210:USB/core/usbd_ioreq.c ****                     0);  
 211:USB/core/usbd_ioreq.c **** 
 212:USB/core/usbd_ioreq.c ****   USB_OTG_EP0_OutStart(pdev);
 279              		.loc 1 212 3 view .LVU60
 280 0014 2046     		mov	r0, r4
 281 0016 FFF7FEFF 		bl	USB_OTG_EP0_OutStart
 282              	.LVL27:
 213:USB/core/usbd_ioreq.c ****   
 214:USB/core/usbd_ioreq.c ****   return ret;
 283              		.loc 1 214 3 view .LVU61
 215:USB/core/usbd_ioreq.c **** }
 284              		.loc 1 215 1 is_stmt 0 view .LVU62
 285 001a 0020     		movs	r0, #0
 286 001c 10BD     		pop	{r4, pc}
 287              		.loc 1 215 1 view .LVU63
 288              		.cfi_endproc
 289              	.LFE131:
 291              		.section	.text.USBD_GetRxCount,"ax",%progbits
 292              		.align	1
 293              		.global	USBD_GetRxCount
 294              		.syntax unified
 295              		.thumb
 296              		.thumb_func
 297              		.fpu fpv4-sp-d16
 299              	USBD_GetRxCount:
 300              	.LVL28:
 301              	.LFB132:
 216:USB/core/usbd_ioreq.c **** 
 217:USB/core/usbd_ioreq.c **** 
 218:USB/core/usbd_ioreq.c **** /**
 219:USB/core/usbd_ioreq.c **** * @brief  USBD_GetRxCount
 220:USB/core/usbd_ioreq.c **** *         returns the received data length
 221:USB/core/usbd_ioreq.c **** * @param  pdev: USB OTG device instance
 222:USB/core/usbd_ioreq.c **** *         epnum: endpoint index
 223:USB/core/usbd_ioreq.c **** * @retval Rx Data blength
 224:USB/core/usbd_ioreq.c **** */
 225:USB/core/usbd_ioreq.c **** uint16_t  USBD_GetRxCount (USB_OTG_CORE_HANDLE  *pdev , uint8_t epnum)
ARM GAS  /var/folders/lx/hc4sn_b53233_zkc9xbbl97r0000gp/T//cc24fwY3.s 			page 10


 226:USB/core/usbd_ioreq.c **** {
 302              		.loc 1 226 1 is_stmt 1 view -0
 303              		.cfi_startproc
 304              		@ args = 0, pretend = 0, frame = 0
 305              		@ frame_needed = 0, uses_anonymous_args = 0
 306              		@ link register save eliminated.
 227:USB/core/usbd_ioreq.c ****   return pdev->dev.out_ep[epnum].xfer_count;
 307              		.loc 1 227 3 view .LVU65
 308              		.loc 1 227 33 is_stmt 0 view .LVU66
 309 0000 01EB8101 		add	r1, r1, r1, lsl #2
 310              	.LVL29:
 311              		.loc 1 227 33 view .LVU67
 312 0004 00EBC101 		add	r1, r0, r1, lsl #3
 228:USB/core/usbd_ioreq.c **** }
 313              		.loc 1 228 1 view .LVU68
 314 0008 B1F88C03 		ldrh	r0, [r1, #908]
 315              	.LVL30:
 316              		.loc 1 228 1 view .LVU69
 317 000c 7047     		bx	lr
 318              		.cfi_endproc
 319              	.LFE132:
 321              		.text
 322              	.Letext0:
 323              		.file 2 "/usr/local/arm-none-eabi-gcc/gcc-arm-none-eabi-10-2020-q4-major/arm-none-eabi/include/mac
 324              		.file 3 "/usr/local/arm-none-eabi-gcc/gcc-arm-none-eabi-10-2020-q4-major/arm-none-eabi/include/sys
 325              		.file 4 "USB/core/usb_regs.h"
 326              		.file 5 "USB/core/usb_core.h"
 327              		.file 6 "USB/core/usbd_core.h"
 328              		.file 7 "USB/core/usb_dcd.h"
ARM GAS  /var/folders/lx/hc4sn_b53233_zkc9xbbl97r0000gp/T//cc24fwY3.s 			page 11


DEFINED SYMBOLS
                            *ABS*:0000000000000000 usbd_ioreq.c
/var/folders/lx/hc4sn_b53233_zkc9xbbl97r0000gp/T//cc24fwY3.s:18     .text.USBD_CtlSendData:0000000000000000 $t
/var/folders/lx/hc4sn_b53233_zkc9xbbl97r0000gp/T//cc24fwY3.s:26     .text.USBD_CtlSendData:0000000000000000 USBD_CtlSendData
/var/folders/lx/hc4sn_b53233_zkc9xbbl97r0000gp/T//cc24fwY3.s:70     .text.USBD_CtlContinueSendData:0000000000000000 $t
/var/folders/lx/hc4sn_b53233_zkc9xbbl97r0000gp/T//cc24fwY3.s:77     .text.USBD_CtlContinueSendData:0000000000000000 USBD_CtlContinueSendData
/var/folders/lx/hc4sn_b53233_zkc9xbbl97r0000gp/T//cc24fwY3.s:110    .text.USBD_CtlPrepareRx:0000000000000000 $t
/var/folders/lx/hc4sn_b53233_zkc9xbbl97r0000gp/T//cc24fwY3.s:117    .text.USBD_CtlPrepareRx:0000000000000000 USBD_CtlPrepareRx
/var/folders/lx/hc4sn_b53233_zkc9xbbl97r0000gp/T//cc24fwY3.s:160    .text.USBD_CtlContinueRx:0000000000000000 $t
/var/folders/lx/hc4sn_b53233_zkc9xbbl97r0000gp/T//cc24fwY3.s:167    .text.USBD_CtlContinueRx:0000000000000000 USBD_CtlContinueRx
/var/folders/lx/hc4sn_b53233_zkc9xbbl97r0000gp/T//cc24fwY3.s:200    .text.USBD_CtlSendStatus:0000000000000000 $t
/var/folders/lx/hc4sn_b53233_zkc9xbbl97r0000gp/T//cc24fwY3.s:207    .text.USBD_CtlSendStatus:0000000000000000 USBD_CtlSendStatus
/var/folders/lx/hc4sn_b53233_zkc9xbbl97r0000gp/T//cc24fwY3.s:246    .text.USBD_CtlReceiveStatus:0000000000000000 $t
/var/folders/lx/hc4sn_b53233_zkc9xbbl97r0000gp/T//cc24fwY3.s:253    .text.USBD_CtlReceiveStatus:0000000000000000 USBD_CtlReceiveStatus
/var/folders/lx/hc4sn_b53233_zkc9xbbl97r0000gp/T//cc24fwY3.s:292    .text.USBD_GetRxCount:0000000000000000 $t
/var/folders/lx/hc4sn_b53233_zkc9xbbl97r0000gp/T//cc24fwY3.s:299    .text.USBD_GetRxCount:0000000000000000 USBD_GetRxCount

UNDEFINED SYMBOLS
DCD_EP_Tx
DCD_EP_PrepareRx
USB_OTG_EP0_OutStart
