ARM GAS  /tmp/cc7FIAon.s 			page 1


   1              		.cpu cortex-m4
   2              		.eabi_attribute 27, 1
   3              		.eabi_attribute 28, 1
   4              		.eabi_attribute 20, 1
   5              		.eabi_attribute 21, 1
   6              		.eabi_attribute 23, 3
   7              		.eabi_attribute 24, 1
   8              		.eabi_attribute 25, 1
   9              		.eabi_attribute 26, 1
  10              		.eabi_attribute 30, 1
  11              		.eabi_attribute 34, 1
  12              		.eabi_attribute 18, 4
  13              		.file	"vcp.c"
  14              		.text
  15              	.Ltext0:
  16              		.cfi_sections	.debug_frame
  17              		.section	.text.__io_putchar,"ax",%progbits
  18              		.align	1
  19              		.global	__io_putchar
  20              		.syntax unified
  21              		.thumb
  22              		.thumb_func
  23              		.fpu fpv4-sp-d16
  25              	__io_putchar:
  26              	.LFB124:
  27              		.file 1 "USB/config/vcp.c"
   1:USB/config/vcp.c **** #include "tm_stm32f4_usb_vcp.h"
   2:USB/config/vcp.c **** #include "vcp.h"
   3:USB/config/vcp.c **** 
   4:USB/config/vcp.c **** int __io_putchar(int ch)
   5:USB/config/vcp.c **** {
  28              		.loc 1 5 0
  29              		.cfi_startproc
  30              		@ args = 0, pretend = 0, frame = 0
  31              		@ frame_needed = 0, uses_anonymous_args = 0
  32              		@ link register save eliminated.
  33              	.LVL0:
   6:USB/config/vcp.c ****     return ch;
   7:USB/config/vcp.c **** }
  34              		.loc 1 7 0
  35 0000 7047     		bx	lr
  36              		.cfi_endproc
  37              	.LFE124:
  39              		.section	.text.VCP_Init,"ax",%progbits
  40              		.align	1
  41              		.global	VCP_Init
  42              		.syntax unified
  43              		.thumb
  44              		.thumb_func
  45              		.fpu fpv4-sp-d16
  47              	VCP_Init:
  48              	.LFB126:
   8:USB/config/vcp.c **** 
   9:USB/config/vcp.c **** int _write(int file, char *ptr, int len)
  10:USB/config/vcp.c **** {
  11:USB/config/vcp.c ****     //Serial_SendBuff(Serial_Port[RADIO_PORT], ptr, len);
  12:USB/config/vcp.c ****     VCP_Send(ptr, len);
ARM GAS  /tmp/cc7FIAon.s 			page 2


  13:USB/config/vcp.c ****     return len;
  14:USB/config/vcp.c **** }
  15:USB/config/vcp.c **** 
  16:USB/config/vcp.c **** TM_USB_VCP_Result VCP_Init(void)
  17:USB/config/vcp.c **** {
  49              		.loc 1 17 0
  50              		.cfi_startproc
  51              		@ args = 0, pretend = 0, frame = 0
  52              		@ frame_needed = 0, uses_anonymous_args = 0
  53 0000 08B5     		push	{r3, lr}
  54              	.LCFI0:
  55              		.cfi_def_cfa_offset 8
  56              		.cfi_offset 3, -8
  57              		.cfi_offset 14, -4
  18:USB/config/vcp.c ****     return TM_USB_VCP_Init();
  58              		.loc 1 18 0
  59 0002 FFF7FEFF 		bl	TM_USB_VCP_Init
  60              	.LVL1:
  19:USB/config/vcp.c **** }
  61              		.loc 1 19 0
  62 0006 08BD     		pop	{r3, pc}
  63              		.cfi_endproc
  64              	.LFE126:
  66              		.section	.text.VCP_Send,"ax",%progbits
  67              		.align	1
  68              		.global	VCP_Send
  69              		.syntax unified
  70              		.thumb
  71              		.thumb_func
  72              		.fpu fpv4-sp-d16
  74              	VCP_Send:
  75              	.LFB127:
  20:USB/config/vcp.c **** 
  21:USB/config/vcp.c **** TM_USB_VCP_Result VCP_Send(uint8_t *DataArray, uint32_t Length)
  22:USB/config/vcp.c **** {
  76              		.loc 1 22 0
  77              		.cfi_startproc
  78              		@ args = 0, pretend = 0, frame = 0
  79              		@ frame_needed = 0, uses_anonymous_args = 0
  80              	.LVL2:
  81 0000 08B5     		push	{r3, lr}
  82              	.LCFI1:
  83              		.cfi_def_cfa_offset 8
  84              		.cfi_offset 3, -8
  85              		.cfi_offset 14, -4
  23:USB/config/vcp.c ****     TM_USB_VCP_Result state_temp;
  24:USB/config/vcp.c **** 
  25:USB/config/vcp.c ****     state_temp = TM_USB_VCP_Send(DataArray, Length);
  86              		.loc 1 25 0
  87 0002 FFF7FEFF 		bl	TM_USB_VCP_Send
  88              	.LVL3:
  26:USB/config/vcp.c **** 
  27:USB/config/vcp.c ****     return state_temp;
  28:USB/config/vcp.c **** }
  89              		.loc 1 28 0
  90 0006 08BD     		pop	{r3, pc}
  91              		.cfi_endproc
ARM GAS  /tmp/cc7FIAon.s 			page 3


  92              	.LFE127:
  94              		.section	.text._write,"ax",%progbits
  95              		.align	1
  96              		.global	_write
  97              		.syntax unified
  98              		.thumb
  99              		.thumb_func
 100              		.fpu fpv4-sp-d16
 102              	_write:
 103              	.LFB125:
  10:USB/config/vcp.c ****     //Serial_SendBuff(Serial_Port[RADIO_PORT], ptr, len);
 104              		.loc 1 10 0
 105              		.cfi_startproc
 106              		@ args = 0, pretend = 0, frame = 0
 107              		@ frame_needed = 0, uses_anonymous_args = 0
 108              	.LVL4:
 109 0000 10B5     		push	{r4, lr}
 110              	.LCFI2:
 111              		.cfi_def_cfa_offset 8
 112              		.cfi_offset 4, -8
 113              		.cfi_offset 14, -4
 114 0002 0846     		mov	r0, r1
 115              	.LVL5:
 116 0004 1446     		mov	r4, r2
  12:USB/config/vcp.c ****     return len;
 117              		.loc 1 12 0
 118 0006 1146     		mov	r1, r2
 119              	.LVL6:
 120 0008 FFF7FEFF 		bl	VCP_Send
 121              	.LVL7:
  14:USB/config/vcp.c **** 
 122              		.loc 1 14 0
 123 000c 2046     		mov	r0, r4
 124 000e 10BD     		pop	{r4, pc}
 125              		.cfi_endproc
 126              	.LFE125:
 128              		.section	.text.VCP_GetConnectState,"ax",%progbits
 129              		.align	1
 130              		.global	VCP_GetConnectState
 131              		.syntax unified
 132              		.thumb
 133              		.thumb_func
 134              		.fpu fpv4-sp-d16
 136              	VCP_GetConnectState:
 137              	.LFB128:
  29:USB/config/vcp.c **** 
  30:USB/config/vcp.c **** TM_USB_VCP_Result VCP_GetConnectState(void)
  31:USB/config/vcp.c **** {
 138              		.loc 1 31 0
 139              		.cfi_startproc
 140              		@ args = 0, pretend = 0, frame = 0
 141              		@ frame_needed = 0, uses_anonymous_args = 0
 142 0000 08B5     		push	{r3, lr}
 143              	.LCFI3:
 144              		.cfi_def_cfa_offset 8
 145              		.cfi_offset 3, -8
 146              		.cfi_offset 14, -4
ARM GAS  /tmp/cc7FIAon.s 			page 4


  32:USB/config/vcp.c ****     return TM_USB_VCP_GetStatus();
 147              		.loc 1 32 0
 148 0002 FFF7FEFF 		bl	TM_USB_VCP_GetStatus
 149              	.LVL8:
  33:USB/config/vcp.c **** }...
 150              		.loc 1 33 0
 151 0006 08BD     		pop	{r3, pc}
 152              		.cfi_endproc
 153              	.LFE128:
 155              		.text
 156              	.Letext0:
 157              		.file 2 "/usr/include/newlib/machine/_default_types.h"
 158              		.file 3 "/usr/include/newlib/sys/_stdint.h"
 159              		.file 4 "F4_CORE/core_cm4.h"
 160              		.file 5 "USER/system_stm32f4xx.h"
 161              		.file 6 "/usr/include/newlib/sys/lock.h"
 162              		.file 7 "/usr/include/newlib/sys/_types.h"
 163              		.file 8 "/usr/lib/gcc/arm-none-eabi/6.3.1/include/stddef.h"
 164              		.file 9 "/usr/include/newlib/sys/reent.h"
 165              		.file 10 "USB/core/usb_core.h"
 166              		.file 11 "USB/core/usbd_cdc_core.h"
 167              		.file 12 "USB/core/usbd_desc.h"
 168              		.file 13 "USB/config/tm_stm32f4_usb_vcp.h"
ARM GAS  /tmp/cc7FIAon.s 			page 5

