ARM GAS  /var/folders/lx/hc4sn_b53233_zkc9xbbl97r0000gp/T//cc1nXFCr.s 			page 1


   1              		.cpu cortex-m4
   2              		.eabi_attribute 27, 1
   3              		.eabi_attribute 28, 1
   4              		.eabi_attribute 20, 1
   5              		.eabi_attribute 21, 1
   6              		.eabi_attribute 23, 3
   7              		.eabi_attribute 24, 1
   8              		.eabi_attribute 25, 1
   9              		.eabi_attribute 26, 1
  10              		.eabi_attribute 30, 1
  11              		.eabi_attribute 34, 1
  12              		.eabi_attribute 18, 4
  13              		.file	"widget_mng.c"
  14              		.text
  15              	.Ltext0:
  16              		.cfi_sections	.debug_frame
  17              		.section	.text.Widget_ConfigDisplay_RoutateDir,"ax",%progbits
  18              		.align	1
  19              		.arch armv7e-m
  20              		.syntax unified
  21              		.thumb
  22              		.thumb_func
  23              		.fpu fpv4-sp-d16
  25              	Widget_ConfigDisplay_RoutateDir:
  26              	.LVL0:
  27              	.LFB8:
  28              		.file 1 "Dsp/widget/wgt_core/widget_mng.c"
   1:Dsp/widget/wgt_core/widget_mng.c **** /*
   2:Dsp/widget/wgt_core/widget_mng.c **** * bref:
   3:Dsp/widget/wgt_core/widget_mng.c **** * Need to Use OS Event Module to hook the widget process function with 
   4:Dsp/widget/wgt_core/widget_mng.c **** * the Input Trigger Event
   5:Dsp/widget/wgt_core/widget_mng.c **** * 
   6:Dsp/widget/wgt_core/widget_mng.c **** * Coder : 8_B!T0
   7:Dsp/widget/wgt_core/widget_mng.c **** */
   8:Dsp/widget/wgt_core/widget_mng.c **** 
   9:Dsp/widget/wgt_core/widget_mng.c **** #include "widget_mng.h"
  10:Dsp/widget/wgt_core/widget_mng.c **** #include "SrvOled.h"
  11:Dsp/widget/wgt_core/widget_mng.c **** #include "runtime.h"
  12:Dsp/widget/wgt_core/widget_mng.c **** #include "linked_list.h"
  13:Dsp/widget/wgt_core/widget_mng.c **** #include "binary_tree.h"
  14:Dsp/widget/wgt_core/widget_mng.c **** #include "UI_Controller.h"
  15:Dsp/widget/wgt_core/widget_mng.c **** #include "GenDsp.h"
  16:Dsp/widget/wgt_core/widget_mng.c **** #include "mmu.h"
  17:Dsp/widget/wgt_core/widget_mng.c **** 
  18:Dsp/widget/wgt_core/widget_mng.c **** #define Set_FreshStateBIT(x) 1 << x
  19:Dsp/widget/wgt_core/widget_mng.c **** #define Clr_FreshStateBIT(x) ~(1 << x)
  20:Dsp/widget/wgt_core/widget_mng.c **** 
  21:Dsp/widget/wgt_core/widget_mng.c **** #define Set_ErrorStateBIT(x) Set_FreshStateBIT(x)
  22:Dsp/widget/wgt_core/widget_mng.c **** #define Clr_ErrorStateBIT(x) Clr_FreshStateBIT(x)
  23:Dsp/widget/wgt_core/widget_mng.c **** 
  24:Dsp/widget/wgt_core/widget_mng.c **** /* internal variable */
  25:Dsp/widget/wgt_core/widget_mng.c **** Widget_MonitorData_TypeDef MonitorDataObj = {
  26:Dsp/widget/wgt_core/widget_mng.c ****     .on_show = 0,
  27:Dsp/widget/wgt_core/widget_mng.c ****     .LstFreshRT = 0,
  28:Dsp/widget/wgt_core/widget_mng.c ****     .created_widget = 0,
  29:Dsp/widget/wgt_core/widget_mng.c ****     .widget_used_size = 0,
  30:Dsp/widget/wgt_core/widget_mng.c ****     .remain_size = 0,
ARM GAS  /var/folders/lx/hc4sn_b53233_zkc9xbbl97r0000gp/T//cc1nXFCr.s 			page 2


  31:Dsp/widget/wgt_core/widget_mng.c ****     .max_display_cache = 0,
  32:Dsp/widget/wgt_core/widget_mng.c ****     .widget_dsp_list = NULL,
  33:Dsp/widget/wgt_core/widget_mng.c **** };
  34:Dsp/widget/wgt_core/widget_mng.c **** 
  35:Dsp/widget/wgt_core/widget_mng.c **** static Widget_Handle CurActive_Widget = 0;
  36:Dsp/widget/wgt_core/widget_mng.c **** static uint8_t WidgetFresh_Reg = Set_FreshStateBIT(Fresh_State_DrvInit);
  37:Dsp/widget/wgt_core/widget_mng.c **** static uint8_t **widget_blackboard;
  38:Dsp/widget/wgt_core/widget_mng.c **** static uint8_t Error_Code;
  39:Dsp/widget/wgt_core/widget_mng.c **** 
  40:Dsp/widget/wgt_core/widget_mng.c **** /* internal function */
  41:Dsp/widget/wgt_core/widget_mng.c **** static WidgetObj_TypeDef *GetCur_Active_Widget(void);
  42:Dsp/widget/wgt_core/widget_mng.c **** static int Widget_Fusion(item_obj *item, WidgetObj_TypeDef *hdl, void *arg);
  43:Dsp/widget/wgt_core/widget_mng.c **** static bool Widget_ClearBlackBoard(void);
  44:Dsp/widget/wgt_core/widget_mng.c **** static void WIdget_ClearFreshState(WidgetFresh_State_List state);
  45:Dsp/widget/wgt_core/widget_mng.c **** static void Widget_SetFreshState(WidgetFresh_State_List state);
  46:Dsp/widget/wgt_core/widget_mng.c **** static void Widget_ClearAllFreshState(void);
  47:Dsp/widget/wgt_core/widget_mng.c **** static uint8_t Widget_GetFreshState(void);
  48:Dsp/widget/wgt_core/widget_mng.c **** static bool Widgte_CheckErrorState(Widget_Error_TypeDef error);
  49:Dsp/widget/wgt_core/widget_mng.c **** static void Widget_ClearErrorState(Widget_Error_TypeDef error);
  50:Dsp/widget/wgt_core/widget_mng.c **** static void Widget_clearAllErrorState(Widget_Error_TypeDef error);
  51:Dsp/widget/wgt_core/widget_mng.c **** static void Widget_SetErrorState(Widget_Error_TypeDef error);
  52:Dsp/widget/wgt_core/widget_mng.c **** static uint8_t Widget_GetError(void);
  53:Dsp/widget/wgt_core/widget_mng.c **** static bool Widget_RoutateBlackboard(void);
  54:Dsp/widget/wgt_core/widget_mng.c **** static bool Widget_MirrorBlackboard(void);
  55:Dsp/widget/wgt_core/widget_mng.c **** static bool Widget_ClearDspCache(void);
  56:Dsp/widget/wgt_core/widget_mng.c **** static bool Widget_Init_UIList(item_obj *first);
  57:Dsp/widget/wgt_core/widget_mng.c **** static WidgetUI_Item_TypeDef *WidgetUI_InsertSequence_Callback(const WidgetUI_Item_TypeDef *item_pr
  58:Dsp/widget/wgt_core/widget_mng.c **** 
  59:Dsp/widget/wgt_core/widget_mng.c **** /* external widget manager config function definition */
  60:Dsp/widget/wgt_core/widget_mng.c **** static bool Widget_ConfigDisplay_RoutateDir(Oled_Routate_Direction_Def dir);
  61:Dsp/widget/wgt_core/widget_mng.c **** static bool Widget_ConfigDisplay_MirrorDir(Oled_Mirror_Direction_Def dir);
  62:Dsp/widget/wgt_core/widget_mng.c **** 
  63:Dsp/widget/wgt_core/widget_mng.c **** /* external widget manager function definition */
  64:Dsp/widget/wgt_core/widget_mng.c **** static Widget_Handle Widget_Create(int16_t cord_x, int16_t cord_y, uint8_t width, uint8_t height, c
  65:Dsp/widget/wgt_core/widget_mng.c **** static bool Widget_SetName(Widget_Handle hdl, char *name);
  66:Dsp/widget/wgt_core/widget_mng.c **** static Widget_Control_TypeDef *Widget_CtlInterface(Widget_Handle hdl);
  67:Dsp/widget/wgt_core/widget_mng.c **** static bool Widget_Deleted(Widget_Handle *hdl);
  68:Dsp/widget/wgt_core/widget_mng.c **** static bool Widget_FreshAll(void);
  69:Dsp/widget/wgt_core/widget_mng.c **** 
  70:Dsp/widget/wgt_core/widget_mng.c **** /* external widget control function */
  71:Dsp/widget/wgt_core/widget_mng.c **** static bool Widget_SetFreshFrq(uint8_t frq);
  72:Dsp/widget/wgt_core/widget_mng.c **** static bool Widget_Show(void);
  73:Dsp/widget/wgt_core/widget_mng.c **** static bool Widget_Hide(void);
  74:Dsp/widget/wgt_core/widget_mng.c **** static bool Widget_Clear(void);
  75:Dsp/widget/wgt_core/widget_mng.c **** static bool Widget_MoveTo(int16_t x, int16_t y);
  76:Dsp/widget/wgt_core/widget_mng.c **** static bool Widget_CheckFlashTrigger(void);
  77:Dsp/widget/wgt_core/widget_mng.c **** static Widget_DrawFunc_TypeDef *Widget_DrawInterface(void);
  78:Dsp/widget/wgt_core/widget_mng.c **** static WidgetDsp_Status_List Widget_DspStatus(void);
  79:Dsp/widget/wgt_core/widget_mng.c **** 
  80:Dsp/widget/wgt_core/widget_mng.c **** /* widget draw function interface */
  81:Dsp/widget/wgt_core/widget_mng.c **** static void Widget_DrawPoint(int16_t x, int16_t y, bool set);
  82:Dsp/widget/wgt_core/widget_mng.c **** static void Widget_DrawChr(Widget_Font font, char char_dsp, int16_t x, int16_t y, bool col_cnv);
  83:Dsp/widget/wgt_core/widget_mng.c **** static void Widget_DrawStr(Widget_Font font, char *str_dsp, int16_t x, int16_t y, bool col_cnv);
  84:Dsp/widget/wgt_core/widget_mng.c **** static void Widget_DrawLine(int8_t start_x, int8_t start_y, int8_t end_x, int8_t end_y, uint8_t lin
  85:Dsp/widget/wgt_core/widget_mng.c **** static void Widget_DrawHLine(int16_t x, int16_t y, uint8_t len, uint8_t line_size, bool col_cnv);
  86:Dsp/widget/wgt_core/widget_mng.c **** static void Widget_DrawVLine(int16_t x, int16_t y, uint8_t len, uint8_t line_size, bool col_cnv);
  87:Dsp/widget/wgt_core/widget_mng.c **** static void Widget_DrawCircle(int16_t center_x, int16_t center_y, uint8_t radius, uint8_t line_size
ARM GAS  /var/folders/lx/hc4sn_b53233_zkc9xbbl97r0000gp/T//cc1nXFCr.s 			page 3


  88:Dsp/widget/wgt_core/widget_mng.c **** static void Widget_DrawCircle_Section(int16_t center_x, int16_t center_y, uint8_t radius, uint8_t s
  89:Dsp/widget/wgt_core/widget_mng.c **** static void Widget_DrawRectangle(int16_t x, int16_t y, uint8_t width, uint8_t height, uint8_t line_
  90:Dsp/widget/wgt_core/widget_mng.c **** static void Widget_DrawNum(Widget_Font font, int32_t num, int16_t x, int16_t y, bool col_cnv);
  91:Dsp/widget/wgt_core/widget_mng.c **** static void Widget_DrawRadiusRectangle(int16_t x, int16_t y, uint8_t width, uint8_t height, uint8_t
  92:Dsp/widget/wgt_core/widget_mng.c **** static void Widget_FillCircle(int16_t x, int16_t y, uint8_t radius, bool col_cnv);
  93:Dsp/widget/wgt_core/widget_mng.c **** static void Widget_FillCircle_Section(int16_t x, int16_t y, uint8_t radius, uint8_t section, bool c
  94:Dsp/widget/wgt_core/widget_mng.c **** static void Widget_FillRectangle(int16_t x, int16_t y, uint8_t width, uint8_t height, bool col_cnv)
  95:Dsp/widget/wgt_core/widget_mng.c **** static void Widget_FillRadiusRectangle(int16_t x, int16_t y, uint8_t width, uint8_t height, uint8_t
  96:Dsp/widget/wgt_core/widget_mng.c **** 
  97:Dsp/widget/wgt_core/widget_mng.c **** /* Widget UI Get Button Interface */
  98:Dsp/widget/wgt_core/widget_mng.c **** static WidgetUI_Drop_Interface_TypeDef *WidgetUI_GetDrop_Instance(void);
  99:Dsp/widget/wgt_core/widget_mng.c **** static WidgetUI_Button_Interface_TypeDef *WidgetUI_GetButton_Instance(void);
 100:Dsp/widget/wgt_core/widget_mng.c **** static WidgetUI_CheckBox_Interface_TypeDef *WidgetUI_GetCheckBox_Instance(void);
 101:Dsp/widget/wgt_core/widget_mng.c **** static WidgetUI_SlideBar_Interface_TypeDef *WidgetUI_GetSlideBar_Instance(void);
 102:Dsp/widget/wgt_core/widget_mng.c **** static WidgetUI_DigInput_Interface_TypeDef *WidgetUI_GetDigInput_Instance(void);
 103:Dsp/widget/wgt_core/widget_mng.c **** static WidgetUI_StrInput_Interface_TypeDef *WidgetUI_GetStrInput_Instance(void);
 104:Dsp/widget/wgt_core/widget_mng.c **** static WidgetUI_ProcessBar_Interface_TypeDef *WidgetUI_GetProcessBar_Instance(void);
 105:Dsp/widget/wgt_core/widget_mng.c **** 
 106:Dsp/widget/wgt_core/widget_mng.c **** /* general UI Mathod */
 107:Dsp/widget/wgt_core/widget_mng.c **** static void WidgetUI_Init(void);
 108:Dsp/widget/wgt_core/widget_mng.c **** static WidgetUI_Utils_TypeDef *WidgetUI_GetUtil(void);
 109:Dsp/widget/wgt_core/widget_mng.c **** static bool WidgetUI_SelectCtl(int8_t *search_offset);
 110:Dsp/widget/wgt_core/widget_mng.c **** static void WidgetUI_Fresh(void);
 111:Dsp/widget/wgt_core/widget_mng.c **** static void WidgetUI_SetAll_CoordY_Offset(int8_t offset);
 112:Dsp/widget/wgt_core/widget_mng.c **** static UI_GenCTL_Handle WidgetUI_GetCurSelected_UICtl(void);
 113:Dsp/widget/wgt_core/widget_mng.c **** 
 114:Dsp/widget/wgt_core/widget_mng.c **** /* Widget UI Button Mathod */
 115:Dsp/widget/wgt_core/widget_mng.c **** static UI_Button_Handle WidgetUI_Creat_Button(char *label, int16_t x, int16_t y, uint8_t width, uin
 116:Dsp/widget/wgt_core/widget_mng.c **** static bool WidgetUI_SetButton_OprLabel(UI_Button_Handle Btn_Hdl, char *psh_lbl, char *rls_lbl);
 117:Dsp/widget/wgt_core/widget_mng.c **** static bool WidgetUI_SetButton_TriggerCallback(UI_Button_Handle Btn_Hdl, UI_Button_Trigger_Type typ
 118:Dsp/widget/wgt_core/widget_mng.c **** static bool WidgetUI_Move_Button(UI_Button_Handle Btn_Hdl, int16_t x, int16_t y);
 119:Dsp/widget/wgt_core/widget_mng.c **** static bool WidgetUI_Button_Operate(UI_Button_Handle Btn_Hdl, UI_Button_Trigger_Type type);
 120:Dsp/widget/wgt_core/widget_mng.c **** static bool WidgetUI_Fresh_Button(UI_Button_Handle Btn_Hdl);
 121:Dsp/widget/wgt_core/widget_mng.c **** 
 122:Dsp/widget/wgt_core/widget_mng.c **** /* Widget UI CheckBox Mathod */
 123:Dsp/widget/wgt_core/widget_mng.c **** static UI_CheckBox_Handle WidgetUI_Create_CheckBox(char *label, int16_t x, int16_t y, bool state);
 124:Dsp/widget/wgt_core/widget_mng.c **** static bool WidgetUI_CheckBox_Trigger(UI_CheckBox_Handle checkbox_hdl);
 125:Dsp/widget/wgt_core/widget_mng.c **** static bool WidgetUI_CheckBox_Move(UI_CheckBox_Handle checkbox_hdl, int16_t x, int16_t y);
 126:Dsp/widget/wgt_core/widget_mng.c **** static bool WidgetUI_CheckBox_SetCallBack(UI_CheckBox_Handle checkbox_hdl, UI_CheckBoxTrigger_Callb
 127:Dsp/widget/wgt_core/widget_mng.c **** static bool WidgetUI_Fresh_CheckBox(UI_CheckBox_Handle checkbox_hdl);
 128:Dsp/widget/wgt_core/widget_mng.c **** 
 129:Dsp/widget/wgt_core/widget_mng.c **** /* Widget UI SlideBar Mathod */
 130:Dsp/widget/wgt_core/widget_mng.c **** static UI_SlideBar_Handle WidgetUI_Create_SlideBar(char *label, int16_t x, int16_t y, UI_SliderBar_
 131:Dsp/widget/wgt_core/widget_mng.c **** static bool WidgetUI_SlideBar_Move(UI_SlideBar_Handle hdl, int16_t x, int16_t y);
 132:Dsp/widget/wgt_core/widget_mng.c **** static bool WidgetUI_SlideBar_SetCallBack(UI_SlideBar_Handle hdl, UI_SliderBarTrigger_Callback call
 133:Dsp/widget/wgt_core/widget_mng.c **** static bool WidgetUI_SlideBar_Input(UI_SlideBar_Handle hdl, int16_t step);
 134:Dsp/widget/wgt_core/widget_mng.c **** static bool WidgetUI_SlideBar_Trigger(UI_SlideBar_Handle hdl);
 135:Dsp/widget/wgt_core/widget_mng.c **** static bool WidgetUI_Select_SlideBar(UI_SlideBar_Handle hdl);
 136:Dsp/widget/wgt_core/widget_mng.c **** static bool WidgetUI_Fresh_SlideBar(UI_SlideBar_Handle hdl);
 137:Dsp/widget/wgt_core/widget_mng.c **** 
 138:Dsp/widget/wgt_core/widget_mng.c **** /* Widget UI ProcessBar Mathod */
 139:Dsp/widget/wgt_core/widget_mng.c **** static UI_ProcessBar_Handle WidgetUI_Create_ProcessBar(char *label, UI_ProcessBar_DspType_List dsp_
 140:Dsp/widget/wgt_core/widget_mng.c **** static bool WidgetUI_ProcessBar_SetDspDir(UI_ProcessBar_Handle hdl, UI_ProcessBar_MoveDir_TypeDef d
 141:Dsp/widget/wgt_core/widget_mng.c **** static bool WidgetUI_ProcessBar_SetCurValue(UI_ProcessBar_Handle hdl, int32_t val);
 142:Dsp/widget/wgt_core/widget_mng.c **** static bool WidgetUI_ProcessBar_Move(UI_ProcessBar_Handle hdl, int16_t x, int16_t y);
 143:Dsp/widget/wgt_core/widget_mng.c **** static bool WidgetUI_Fresh_ProcessBar(UI_ProcessBar_Handle hdl);
 144:Dsp/widget/wgt_core/widget_mng.c **** 
ARM GAS  /var/folders/lx/hc4sn_b53233_zkc9xbbl97r0000gp/T//cc1nXFCr.s 			page 4


 145:Dsp/widget/wgt_core/widget_mng.c **** /* Widget UI Drop Mathod */
 146:Dsp/widget/wgt_core/widget_mng.c **** static UI_Drop_Handle WidgetUI_Create_Drop(char *label, int16_t x, int16_t y);
 147:Dsp/widget/wgt_core/widget_mng.c **** static bool WidgetUI_Drop_Move(UI_Drop_Handle hdl, int16_t x, int16_t y);
 148:Dsp/widget/wgt_core/widget_mng.c **** static bool WidgetUI_Drop_Select(UI_Drop_Handle hdl, bool state);
 149:Dsp/widget/wgt_core/widget_mng.c **** static bool WidgetUI_Drop_SelectItem(UI_Drop_Handle hdl, uint8_t *offset);
 150:Dsp/widget/wgt_core/widget_mng.c **** static bool WidgetUI_Add_DropItem(UI_Drop_Handle hdl, char *label, void *data, uint16_t data_size, 
 151:Dsp/widget/wgt_core/widget_mng.c **** static bool WidgetUI_Fresh_Drop(UI_Drop_Handle hdl);
 152:Dsp/widget/wgt_core/widget_mng.c **** 
 153:Dsp/widget/wgt_core/widget_mng.c **** /* Widget UI Digital Input Mathod */
 154:Dsp/widget/wgt_core/widget_mng.c **** static UI_DigInput_Handle WidgetUI_Create_DigInput(char *label, int16_t x, int16_t y, UI_DigInput_T
 155:Dsp/widget/wgt_core/widget_mng.c **** static bool WidgetUI_DigInput_Setcallback(UI_DigInput_Handle hdl, UI_DigInput_Callback callback);
 156:Dsp/widget/wgt_core/widget_mng.c **** static bool WidgetUI_DigInput_SetIntRange(UI_DigInput_Handle hdl, uint8_t eff_len, int32_t min, int
 157:Dsp/widget/wgt_core/widget_mng.c **** static bool WidgetUI_DigInput_SetDouRange(UI_DigInput_Handle hdl, uint8_t int_eff_len, uint8_t dou_
 158:Dsp/widget/wgt_core/widget_mng.c **** static bool WidgetUI_DigInput_Move(UI_DigInput_Handle hdl, int16_t x, int16_t y);
 159:Dsp/widget/wgt_core/widget_mng.c **** static bool WidgetUI_DigInput_Select(UI_DigInput_Handle hdl, bool state);
 160:Dsp/widget/wgt_core/widget_mng.c **** static bool WidgetUI_DigInput_Value(UI_DigInput_Handle hdl, uint8_t pos, int8_t *val);
 161:Dsp/widget/wgt_core/widget_mng.c **** static bool WidgetUI_Fresh_DigInput(UI_DigInput_Handle hdl);
 162:Dsp/widget/wgt_core/widget_mng.c **** 
 163:Dsp/widget/wgt_core/widget_mng.c **** /* Widget UI String Input Mathod */
 164:Dsp/widget/wgt_core/widget_mng.c **** static UI_StrInput_Handle WidgetUI_Create_StrInput(char *label, int16_t x, int16_t y);
 165:Dsp/widget/wgt_core/widget_mng.c **** static bool WidgetUI_StrInput_Move(UI_StrInput_Handle hdl, int16_t x, int16_t y);
 166:Dsp/widget/wgt_core/widget_mng.c **** static bool WidgetUI_StrInput_SetCallback(UI_StrInput_Handle hdl, UI_StrInput_Callback callback);
 167:Dsp/widget/wgt_core/widget_mng.c **** static bool WidgetUI_StrInput_Select(UI_StrInput_Handle hdl, bool state);
 168:Dsp/widget/wgt_core/widget_mng.c **** static bool WidgetUI_StrInput_StrChar(UI_StrInput_Handle hdl, uint8_t pos, char input);
 169:Dsp/widget/wgt_core/widget_mng.c **** static bool WidgetUI_Fresh_StrInput(UI_StrInput_Handle hdl);
 170:Dsp/widget/wgt_core/widget_mng.c **** 
 171:Dsp/widget/wgt_core/widget_mng.c **** /* Widget Button object Interface */
 172:Dsp/widget/wgt_core/widget_mng.c **** static WidgetUI_Button_Interface_TypeDef WidgetUI_Button = {
 173:Dsp/widget/wgt_core/widget_mng.c ****     .create = WidgetUI_Creat_Button,
 174:Dsp/widget/wgt_core/widget_mng.c ****     .Set_OprLabel = WidgetUI_SetButton_OprLabel,
 175:Dsp/widget/wgt_core/widget_mng.c ****     .Set_TriggerCallback = WidgetUI_SetButton_TriggerCallback,
 176:Dsp/widget/wgt_core/widget_mng.c ****     .Move = WidgetUI_Move_Button,
 177:Dsp/widget/wgt_core/widget_mng.c ****     .Operate = WidgetUI_Button_Operate,
 178:Dsp/widget/wgt_core/widget_mng.c **** };
 179:Dsp/widget/wgt_core/widget_mng.c **** 
 180:Dsp/widget/wgt_core/widget_mng.c **** static WidgetUI_CheckBox_Interface_TypeDef WidgetUI_CheckBox = {
 181:Dsp/widget/wgt_core/widget_mng.c ****     .create = WidgetUI_Create_CheckBox,
 182:Dsp/widget/wgt_core/widget_mng.c ****     .Move = WidgetUI_CheckBox_Move,
 183:Dsp/widget/wgt_core/widget_mng.c ****     .Set_CallBack = WidgetUI_CheckBox_SetCallBack,
 184:Dsp/widget/wgt_core/widget_mng.c ****     .Trigger = WidgetUI_CheckBox_Trigger,
 185:Dsp/widget/wgt_core/widget_mng.c **** };
 186:Dsp/widget/wgt_core/widget_mng.c **** 
 187:Dsp/widget/wgt_core/widget_mng.c **** static WidgetUI_SlideBar_Interface_TypeDef WidgetUI_SlideBar = {
 188:Dsp/widget/wgt_core/widget_mng.c ****     .create = WidgetUI_Create_SlideBar,
 189:Dsp/widget/wgt_core/widget_mng.c ****     .Move = WidgetUI_SlideBar_Move,
 190:Dsp/widget/wgt_core/widget_mng.c ****     .Trigger = WidgetUI_SlideBar_Trigger,
 191:Dsp/widget/wgt_core/widget_mng.c ****     .Set_CallBack = WidgetUI_SlideBar_SetCallBack,
 192:Dsp/widget/wgt_core/widget_mng.c ****     .Input = WidgetUI_SlideBar_Input,
 193:Dsp/widget/wgt_core/widget_mng.c ****     .Select = WidgetUI_Select_SlideBar,
 194:Dsp/widget/wgt_core/widget_mng.c **** };
 195:Dsp/widget/wgt_core/widget_mng.c **** 
 196:Dsp/widget/wgt_core/widget_mng.c **** static WidgetUI_ProcessBar_Interface_TypeDef WidgetUI_ProcessBar = {
 197:Dsp/widget/wgt_core/widget_mng.c ****     .create = WidgetUI_Create_ProcessBar,
 198:Dsp/widget/wgt_core/widget_mng.c ****     .Set_DspDir = WidgetUI_ProcessBar_SetDspDir,
 199:Dsp/widget/wgt_core/widget_mng.c ****     .Set_Value = WidgetUI_ProcessBar_SetCurValue,
 200:Dsp/widget/wgt_core/widget_mng.c ****     .Move = WidgetUI_ProcessBar_Move,
 201:Dsp/widget/wgt_core/widget_mng.c **** };
ARM GAS  /var/folders/lx/hc4sn_b53233_zkc9xbbl97r0000gp/T//cc1nXFCr.s 			page 5


 202:Dsp/widget/wgt_core/widget_mng.c **** 
 203:Dsp/widget/wgt_core/widget_mng.c **** static WidgetUI_Drop_Interface_TypeDef WidgetUI_Drop = {
 204:Dsp/widget/wgt_core/widget_mng.c ****     .create = WidgetUI_Create_Drop,
 205:Dsp/widget/wgt_core/widget_mng.c ****     .Move = WidgetUI_Drop_Move,
 206:Dsp/widget/wgt_core/widget_mng.c ****     .Select = WidgetUI_Drop_Select,
 207:Dsp/widget/wgt_core/widget_mng.c ****     .select_item = WidgetUI_Drop_SelectItem,
 208:Dsp/widget/wgt_core/widget_mng.c ****     .add_item = WidgetUI_Add_DropItem,
 209:Dsp/widget/wgt_core/widget_mng.c **** };
 210:Dsp/widget/wgt_core/widget_mng.c **** 
 211:Dsp/widget/wgt_core/widget_mng.c **** static WidgetUI_DigInput_Interface_TypeDef WidgetUI_DigInput = {
 212:Dsp/widget/wgt_core/widget_mng.c ****     .create = WidgetUI_Create_DigInput,
 213:Dsp/widget/wgt_core/widget_mng.c ****     .Move = WidgetUI_DigInput_Move,
 214:Dsp/widget/wgt_core/widget_mng.c ****     .set_callback = WidgetUI_DigInput_Setcallback,
 215:Dsp/widget/wgt_core/widget_mng.c ****     .set_DouInput_Range = WidgetUI_DigInput_SetDouRange,
 216:Dsp/widget/wgt_core/widget_mng.c ****     .set_IntInput_Range = WidgetUI_DigInput_SetIntRange,
 217:Dsp/widget/wgt_core/widget_mng.c ****     .input = WidgetUI_DigInput_Value,
 218:Dsp/widget/wgt_core/widget_mng.c ****     .select = WidgetUI_DigInput_Select,
 219:Dsp/widget/wgt_core/widget_mng.c **** };
 220:Dsp/widget/wgt_core/widget_mng.c **** 
 221:Dsp/widget/wgt_core/widget_mng.c **** static WidgetUI_StrInput_Interface_TypeDef WidgetUI_StrInput = {
 222:Dsp/widget/wgt_core/widget_mng.c ****     .create = WidgetUI_Create_StrInput,
 223:Dsp/widget/wgt_core/widget_mng.c ****     .Move = WidgetUI_StrInput_Move,
 224:Dsp/widget/wgt_core/widget_mng.c ****     .set_callback = WidgetUI_StrInput_SetCallback,
 225:Dsp/widget/wgt_core/widget_mng.c ****     .Select = WidgetUI_StrInput_Select,
 226:Dsp/widget/wgt_core/widget_mng.c ****     .set_char = WidgetUI_StrInput_StrChar,
 227:Dsp/widget/wgt_core/widget_mng.c **** };
 228:Dsp/widget/wgt_core/widget_mng.c **** 
 229:Dsp/widget/wgt_core/widget_mng.c **** /* for temp we init each var as null */
 230:Dsp/widget/wgt_core/widget_mng.c **** static WidgetUI_Utils_TypeDef WidgetUI_Interface = {
 231:Dsp/widget/wgt_core/widget_mng.c ****     .Show_Selector = WidgetUI_SelectCtl,
 232:Dsp/widget/wgt_core/widget_mng.c ****     .Fresh = WidgetUI_Fresh,
 233:Dsp/widget/wgt_core/widget_mng.c ****     .Button = WidgetUI_GetButton_Instance,
 234:Dsp/widget/wgt_core/widget_mng.c ****     .CheckBox = WidgetUI_GetCheckBox_Instance,
 235:Dsp/widget/wgt_core/widget_mng.c ****     .SlideBar = WidgetUI_GetSlideBar_Instance,
 236:Dsp/widget/wgt_core/widget_mng.c ****     .ProcessBar = WidgetUI_GetProcessBar_Instance,
 237:Dsp/widget/wgt_core/widget_mng.c ****     .DigInput = WidgetUI_GetDigInput_Instance,
 238:Dsp/widget/wgt_core/widget_mng.c ****     .StrInput = WidgetUI_GetStrInput_Instance,
 239:Dsp/widget/wgt_core/widget_mng.c ****     .Drop = WidgetUI_GetDrop_Instance,
 240:Dsp/widget/wgt_core/widget_mng.c ****     // .UI_ProcBar = NULL,
 241:Dsp/widget/wgt_core/widget_mng.c ****     // .UI_VerBar = NULL,
 242:Dsp/widget/wgt_core/widget_mng.c ****     // .UI_HorBar = NULL,
 243:Dsp/widget/wgt_core/widget_mng.c **** };
 244:Dsp/widget/wgt_core/widget_mng.c **** 
 245:Dsp/widget/wgt_core/widget_mng.c **** static Widget_DrawFunc_TypeDef WidgetDraw_Interface = {
 246:Dsp/widget/wgt_core/widget_mng.c ****     .draw_str = Widget_DrawStr,
 247:Dsp/widget/wgt_core/widget_mng.c ****     .draw_rectangle = Widget_DrawRectangle,
 248:Dsp/widget/wgt_core/widget_mng.c ****     .draw_radius_rectangle = Widget_DrawRadiusRectangle,
 249:Dsp/widget/wgt_core/widget_mng.c ****     .draw_point = Widget_DrawPoint,
 250:Dsp/widget/wgt_core/widget_mng.c ****     .draw_num = Widget_DrawNum,
 251:Dsp/widget/wgt_core/widget_mng.c ****     .draw_line = Widget_DrawLine,
 252:Dsp/widget/wgt_core/widget_mng.c ****     .draw_hline = Widget_DrawHLine,
 253:Dsp/widget/wgt_core/widget_mng.c ****     .draw_vline = Widget_DrawVLine,
 254:Dsp/widget/wgt_core/widget_mng.c ****     .draw_circle = Widget_DrawCircle,
 255:Dsp/widget/wgt_core/widget_mng.c ****     .draw_circle_section = Widget_DrawCircle_Section,
 256:Dsp/widget/wgt_core/widget_mng.c ****     .draw_char = Widget_DrawChr,
 257:Dsp/widget/wgt_core/widget_mng.c ****     .fill_circle = Widget_FillCircle,
 258:Dsp/widget/wgt_core/widget_mng.c ****     .fill_circle_section = Widget_FillCircle_Section,
ARM GAS  /var/folders/lx/hc4sn_b53233_zkc9xbbl97r0000gp/T//cc1nXFCr.s 			page 6


 259:Dsp/widget/wgt_core/widget_mng.c ****     .fill_radius_rectangle = Widget_FillRadiusRectangle,
 260:Dsp/widget/wgt_core/widget_mng.c ****     .fill_rectangle = Widget_FillRectangle,
 261:Dsp/widget/wgt_core/widget_mng.c **** };
 262:Dsp/widget/wgt_core/widget_mng.c **** 
 263:Dsp/widget/wgt_core/widget_mng.c **** static Widget_Control_TypeDef WidgetCtl_Interface = {
 264:Dsp/widget/wgt_core/widget_mng.c ****     .Show = Widget_Show,
 265:Dsp/widget/wgt_core/widget_mng.c ****     .Hide = Widget_Hide,
 266:Dsp/widget/wgt_core/widget_mng.c ****     .Move = Widget_MoveTo,
 267:Dsp/widget/wgt_core/widget_mng.c ****     .Draw = Widget_DrawInterface,
 268:Dsp/widget/wgt_core/widget_mng.c ****     .Clear = Widget_Clear,
 269:Dsp/widget/wgt_core/widget_mng.c ****     .Dsp_status = Widget_DspStatus,
 270:Dsp/widget/wgt_core/widget_mng.c ****     .UI = WidgetUI_GetUtil,
 271:Dsp/widget/wgt_core/widget_mng.c **** };
 272:Dsp/widget/wgt_core/widget_mng.c **** 
 273:Dsp/widget/wgt_core/widget_mng.c **** static Widget_Config_TypeDef Widget_Config = {
 274:Dsp/widget/wgt_core/widget_mng.c ****     .mirror = Widget_ConfigDisplay_MirrorDir,
 275:Dsp/widget/wgt_core/widget_mng.c ****     .routate = Widget_ConfigDisplay_RoutateDir,
 276:Dsp/widget/wgt_core/widget_mng.c **** };
 277:Dsp/widget/wgt_core/widget_mng.c **** 
 278:Dsp/widget/wgt_core/widget_mng.c **** Widget_GenProcFunc_TypeDef Widget_Mng = {
 279:Dsp/widget/wgt_core/widget_mng.c ****     .config_all = &Widget_Config,
 280:Dsp/widget/wgt_core/widget_mng.c ****     .Create = Widget_Create,
 281:Dsp/widget/wgt_core/widget_mng.c ****     .Rename = Widget_SetName,
 282:Dsp/widget/wgt_core/widget_mng.c ****     .Delete = Widget_Deleted,
 283:Dsp/widget/wgt_core/widget_mng.c ****     .Control = Widget_CtlInterface,
 284:Dsp/widget/wgt_core/widget_mng.c ****     .fresh_all = Widget_FreshAll,
 285:Dsp/widget/wgt_core/widget_mng.c ****     .trigger_fresh = Widget_CheckFlashTrigger,
 286:Dsp/widget/wgt_core/widget_mng.c **** };
 287:Dsp/widget/wgt_core/widget_mng.c **** 
 288:Dsp/widget/wgt_core/widget_mng.c **** static Widget_Handle Widget_Create(int16_t cord_x, int16_t cord_y, uint8_t width, uint8_t height, c
 289:Dsp/widget/wgt_core/widget_mng.c **** {
 290:Dsp/widget/wgt_core/widget_mng.c ****     WidgetObj_TypeDef *widget_tmp;
 291:Dsp/widget/wgt_core/widget_mng.c **** 
 292:Dsp/widget/wgt_core/widget_mng.c ****     /* if is first time create a widget then init the widget_mng first */
 293:Dsp/widget/wgt_core/widget_mng.c ****     if (MonitorDataObj.max_display_cache == 0)
 294:Dsp/widget/wgt_core/widget_mng.c ****     {
 295:Dsp/widget/wgt_core/widget_mng.c ****         MonitorDataObj.max_display_cache = (SrvOled.get_range().height * SrvOled.get_range().width)
 296:Dsp/widget/wgt_core/widget_mng.c ****         MonitorDataObj.max_display_cache *= MAX_WIDGET_CACHE_PAGE;
 297:Dsp/widget/wgt_core/widget_mng.c **** 
 298:Dsp/widget/wgt_core/widget_mng.c ****         MonitorDataObj.remain_size = MonitorDataObj.max_display_cache;
 299:Dsp/widget/wgt_core/widget_mng.c **** 
 300:Dsp/widget/wgt_core/widget_mng.c ****         //widget_blackboard = (uint8_t **)malloc(sizeof(uint8_t *) * SrvOled.get_range().height);
 301:Dsp/widget/wgt_core/widget_mng.c ****         widget_blackboard = (uint8_t **)MMU_Malloc(sizeof(uint8_t *) * SrvOled.get_range().height);
 302:Dsp/widget/wgt_core/widget_mng.c **** 
 303:Dsp/widget/wgt_core/widget_mng.c ****         if (widget_blackboard == NULL)
 304:Dsp/widget/wgt_core/widget_mng.c ****             return WIDGET_CREATE_ERROR;
 305:Dsp/widget/wgt_core/widget_mng.c **** 
 306:Dsp/widget/wgt_core/widget_mng.c ****         for (uint8_t column_index = 0; column_index < SrvOled.get_range().height; column_index++)
 307:Dsp/widget/wgt_core/widget_mng.c ****         {
 308:Dsp/widget/wgt_core/widget_mng.c ****             //widget_blackboard[column_index] = (uint8_t *)(SrvOled.get_range().width);
 309:Dsp/widget/wgt_core/widget_mng.c ****             widget_blackboard[column_index] = (uint8_t *)MMU_Malloc(SrvOled.get_range().width);
 310:Dsp/widget/wgt_core/widget_mng.c **** 
 311:Dsp/widget/wgt_core/widget_mng.c ****             if (widget_blackboard[column_index] == NULL)
 312:Dsp/widget/wgt_core/widget_mng.c ****                 return WIDGET_CREATE_ERROR;
 313:Dsp/widget/wgt_core/widget_mng.c **** 
 314:Dsp/widget/wgt_core/widget_mng.c ****             memset(widget_blackboard[column_index], NULL, SrvOled.get_range().width);
 315:Dsp/widget/wgt_core/widget_mng.c ****         }
ARM GAS  /var/folders/lx/hc4sn_b53233_zkc9xbbl97r0000gp/T//cc1nXFCr.s 			page 7


 316:Dsp/widget/wgt_core/widget_mng.c **** 
 317:Dsp/widget/wgt_core/widget_mng.c ****         /* init ui module */
 318:Dsp/widget/wgt_core/widget_mng.c ****         WidgetUI_Init();
 319:Dsp/widget/wgt_core/widget_mng.c ****     }
 320:Dsp/widget/wgt_core/widget_mng.c **** 
 321:Dsp/widget/wgt_core/widget_mng.c ****     //widget_tmp = (WidgetObj_TypeDef *)malloc(sizeof(WidgetObj_TypeDef));
 322:Dsp/widget/wgt_core/widget_mng.c ****     widget_tmp = (WidgetObj_TypeDef *)MMU_Malloc(sizeof(WidgetObj_TypeDef));
 323:Dsp/widget/wgt_core/widget_mng.c **** 
 324:Dsp/widget/wgt_core/widget_mng.c ****     if (widget_tmp == NULL)
 325:Dsp/widget/wgt_core/widget_mng.c ****         return WIDGET_CREATE_ERROR;
 326:Dsp/widget/wgt_core/widget_mng.c **** 
 327:Dsp/widget/wgt_core/widget_mng.c ****     widget_tmp->cord_x = cord_x;
 328:Dsp/widget/wgt_core/widget_mng.c ****     widget_tmp->cord_y = cord_y;
 329:Dsp/widget/wgt_core/widget_mng.c **** 
 330:Dsp/widget/wgt_core/widget_mng.c ****     widget_tmp->width = width;
 331:Dsp/widget/wgt_core/widget_mng.c ****     widget_tmp->height = height;
 332:Dsp/widget/wgt_core/widget_mng.c **** 
 333:Dsp/widget/wgt_core/widget_mng.c ****     widget_tmp->UI_CoordY_Offset = 0;
 334:Dsp/widget/wgt_core/widget_mng.c **** 
 335:Dsp/widget/wgt_core/widget_mng.c ****     widget_tmp->frame_line_size = 1;
 336:Dsp/widget/wgt_core/widget_mng.c ****     widget_tmp->is_selected = false;
 337:Dsp/widget/wgt_core/widget_mng.c **** 
 338:Dsp/widget/wgt_core/widget_mng.c ****     widget_tmp->name = name;
 339:Dsp/widget/wgt_core/widget_mng.c **** 
 340:Dsp/widget/wgt_core/widget_mng.c ****     if (MonitorDataObj.remain_size < (height * width))
 341:Dsp/widget/wgt_core/widget_mng.c ****         return WIDGET_CREATE_ERROR;
 342:Dsp/widget/wgt_core/widget_mng.c **** 
 343:Dsp/widget/wgt_core/widget_mng.c ****     widget_tmp->pixel_map = (uint8_t **)MMU_Malloc(sizeof(uint8_t *) * height);
 344:Dsp/widget/wgt_core/widget_mng.c **** 
 345:Dsp/widget/wgt_core/widget_mng.c ****     if (widget_tmp->pixel_map == NULL)
 346:Dsp/widget/wgt_core/widget_mng.c ****         return WIDGET_CREATE_ERROR;
 347:Dsp/widget/wgt_core/widget_mng.c **** 
 348:Dsp/widget/wgt_core/widget_mng.c ****     for (uint8_t h = 0; h < height; h++)
 349:Dsp/widget/wgt_core/widget_mng.c ****     {
 350:Dsp/widget/wgt_core/widget_mng.c ****         widget_tmp->pixel_map[h] = (uint8_t *)MMU_Malloc(width);
 351:Dsp/widget/wgt_core/widget_mng.c **** 
 352:Dsp/widget/wgt_core/widget_mng.c ****         if (widget_tmp->pixel_map[h] == NULL)
 353:Dsp/widget/wgt_core/widget_mng.c ****             return WIDGET_CREATE_ERROR;
 354:Dsp/widget/wgt_core/widget_mng.c **** 
 355:Dsp/widget/wgt_core/widget_mng.c ****         memset(widget_tmp->pixel_map[h], NULL, width);
 356:Dsp/widget/wgt_core/widget_mng.c ****     }
 357:Dsp/widget/wgt_core/widget_mng.c **** 
 358:Dsp/widget/wgt_core/widget_mng.c ****     MonitorDataObj.remain_size -= width * height;
 359:Dsp/widget/wgt_core/widget_mng.c ****     MonitorDataObj.widget_used_size += width * height;
 360:Dsp/widget/wgt_core/widget_mng.c **** 
 361:Dsp/widget/wgt_core/widget_mng.c ****     MonitorDataObj.created_widget++;
 362:Dsp/widget/wgt_core/widget_mng.c **** 
 363:Dsp/widget/wgt_core/widget_mng.c ****     widget_tmp->Dsp = &WidgetDraw_Interface;
 364:Dsp/widget/wgt_core/widget_mng.c ****     widget_tmp->Ctl = &WidgetCtl_Interface;
 365:Dsp/widget/wgt_core/widget_mng.c **** 
 366:Dsp/widget/wgt_core/widget_mng.c ****     widget_tmp->dsp_item = (item_obj *)MMU_Malloc(sizeof(item_obj));
 367:Dsp/widget/wgt_core/widget_mng.c **** 
 368:Dsp/widget/wgt_core/widget_mng.c ****     if (widget_tmp->dsp_item == NULL)
 369:Dsp/widget/wgt_core/widget_mng.c ****         return WIDGET_CREATE_ERROR;
 370:Dsp/widget/wgt_core/widget_mng.c **** 
 371:Dsp/widget/wgt_core/widget_mng.c ****     List_ItemInit(widget_tmp->dsp_item, widget_tmp);
 372:Dsp/widget/wgt_core/widget_mng.c **** 
ARM GAS  /var/folders/lx/hc4sn_b53233_zkc9xbbl97r0000gp/T//cc1nXFCr.s 			page 8


 373:Dsp/widget/wgt_core/widget_mng.c ****     widget_tmp->use_frame = show_frame;
 374:Dsp/widget/wgt_core/widget_mng.c ****     widget_tmp->show_state = false;
 375:Dsp/widget/wgt_core/widget_mng.c **** 
 376:Dsp/widget/wgt_core/widget_mng.c ****     //clear ui controller first
 377:Dsp/widget/wgt_core/widget_mng.c ****     widget_tmp->UICtl_List == NULL;
 378:Dsp/widget/wgt_core/widget_mng.c ****     widget_tmp->ui_ctl_num = 0;
 379:Dsp/widget/wgt_core/widget_mng.c ****     widget_tmp->CurSelected_CTL = NULL;
 380:Dsp/widget/wgt_core/widget_mng.c **** 
 381:Dsp/widget/wgt_core/widget_mng.c ****     /* create a UI selector in current widget */
 382:Dsp/widget/wgt_core/widget_mng.c ****     widget_tmp->selector = (UI_SelectorObj_Typedef *)MMU_Malloc(sizeof(UI_SelectorObj_Typedef));
 383:Dsp/widget/wgt_core/widget_mng.c **** 
 384:Dsp/widget/wgt_core/widget_mng.c ****     if (widget_tmp->selector == NULL)
 385:Dsp/widget/wgt_core/widget_mng.c ****         return WIDGET_CREATE_ERROR;
 386:Dsp/widget/wgt_core/widget_mng.c **** 
 387:Dsp/widget/wgt_core/widget_mng.c ****     return (Widget_Handle)widget_tmp;
 388:Dsp/widget/wgt_core/widget_mng.c **** }
 389:Dsp/widget/wgt_core/widget_mng.c **** 
 390:Dsp/widget/wgt_core/widget_mng.c **** static bool Widget_SetName(Widget_Handle hdl, char *name)
 391:Dsp/widget/wgt_core/widget_mng.c **** {
 392:Dsp/widget/wgt_core/widget_mng.c ****     if (hdl == 0)
 393:Dsp/widget/wgt_core/widget_mng.c ****         return false;
 394:Dsp/widget/wgt_core/widget_mng.c **** 
 395:Dsp/widget/wgt_core/widget_mng.c ****     memset(HandleToWidgetObj(hdl)->name, NULL, strlen(HandleToWidgetObj(hdl)->name));
 396:Dsp/widget/wgt_core/widget_mng.c ****     HandleToWidgetObj(hdl)->name = name;
 397:Dsp/widget/wgt_core/widget_mng.c **** 
 398:Dsp/widget/wgt_core/widget_mng.c ****     return true;
 399:Dsp/widget/wgt_core/widget_mng.c **** }
 400:Dsp/widget/wgt_core/widget_mng.c **** 
 401:Dsp/widget/wgt_core/widget_mng.c **** static bool Widget_Clear(void)
 402:Dsp/widget/wgt_core/widget_mng.c **** {
 403:Dsp/widget/wgt_core/widget_mng.c ****     if (GetCur_Active_Widget() == NULL)
 404:Dsp/widget/wgt_core/widget_mng.c ****         return false;
 405:Dsp/widget/wgt_core/widget_mng.c **** 
 406:Dsp/widget/wgt_core/widget_mng.c ****     for (uint8_t row = 0; row < GetCur_Active_Widget()->height; row++)
 407:Dsp/widget/wgt_core/widget_mng.c ****     {
 408:Dsp/widget/wgt_core/widget_mng.c ****         memset(GetCur_Active_Widget()->pixel_map[row], NULL, GetCur_Active_Widget()->width);
 409:Dsp/widget/wgt_core/widget_mng.c ****     }
 410:Dsp/widget/wgt_core/widget_mng.c **** 
 411:Dsp/widget/wgt_core/widget_mng.c ****     return true;
 412:Dsp/widget/wgt_core/widget_mng.c **** }
 413:Dsp/widget/wgt_core/widget_mng.c **** 
 414:Dsp/widget/wgt_core/widget_mng.c **** static bool Widget_Deleted(Widget_Handle *hdl)
 415:Dsp/widget/wgt_core/widget_mng.c **** {
 416:Dsp/widget/wgt_core/widget_mng.c ****     uint8_t height = 0;
 417:Dsp/widget/wgt_core/widget_mng.c ****     uint8_t width = 0;
 418:Dsp/widget/wgt_core/widget_mng.c **** 
 419:Dsp/widget/wgt_core/widget_mng.c ****     if ((hdl == NULL) || ((*hdl) == 0))
 420:Dsp/widget/wgt_core/widget_mng.c ****         return false;
 421:Dsp/widget/wgt_core/widget_mng.c **** 
 422:Dsp/widget/wgt_core/widget_mng.c ****     height = (HandleToWidgetObj(*hdl))->height;
 423:Dsp/widget/wgt_core/widget_mng.c ****     width = (HandleToWidgetObj(*hdl))->width;
 424:Dsp/widget/wgt_core/widget_mng.c **** 
 425:Dsp/widget/wgt_core/widget_mng.c ****     MMU_Free((HandleToWidgetObj(*hdl))->dsp_item);
 426:Dsp/widget/wgt_core/widget_mng.c **** 
 427:Dsp/widget/wgt_core/widget_mng.c ****     MMU_Free((HandleToWidgetObj(*hdl))->pixel_map);
 428:Dsp/widget/wgt_core/widget_mng.c **** 
 429:Dsp/widget/wgt_core/widget_mng.c ****     for (uint8_t h = 0; h < height; h++)
ARM GAS  /var/folders/lx/hc4sn_b53233_zkc9xbbl97r0000gp/T//cc1nXFCr.s 			page 9


 430:Dsp/widget/wgt_core/widget_mng.c ****     {
 431:Dsp/widget/wgt_core/widget_mng.c ****         MMU_Free((HandleToWidgetObj(*hdl))->pixel_map[h]);
 432:Dsp/widget/wgt_core/widget_mng.c ****     }
 433:Dsp/widget/wgt_core/widget_mng.c **** 
 434:Dsp/widget/wgt_core/widget_mng.c ****     MonitorDataObj.remain_size += width * height;
 435:Dsp/widget/wgt_core/widget_mng.c ****     MonitorDataObj.widget_used_size -= width * height;
 436:Dsp/widget/wgt_core/widget_mng.c **** 
 437:Dsp/widget/wgt_core/widget_mng.c ****     if (MonitorDataObj.remain_size > MonitorDataObj.max_display_cache)
 438:Dsp/widget/wgt_core/widget_mng.c ****         return false;
 439:Dsp/widget/wgt_core/widget_mng.c **** 
 440:Dsp/widget/wgt_core/widget_mng.c ****     MMU_Free(*hdl);
 441:Dsp/widget/wgt_core/widget_mng.c **** 
 442:Dsp/widget/wgt_core/widget_mng.c ****     *hdl = 0;
 443:Dsp/widget/wgt_core/widget_mng.c ****     return true;
 444:Dsp/widget/wgt_core/widget_mng.c **** }
 445:Dsp/widget/wgt_core/widget_mng.c **** 
 446:Dsp/widget/wgt_core/widget_mng.c **** static bool Widget_CheckFlashTrigger(void)
 447:Dsp/widget/wgt_core/widget_mng.c **** {
 448:Dsp/widget/wgt_core/widget_mng.c ****     uint32_t RT = Get_CurrentRunningMs();
 449:Dsp/widget/wgt_core/widget_mng.c **** 
 450:Dsp/widget/wgt_core/widget_mng.c ****     if ((RT - MonitorDataObj.LstFreshRT) >= Fresh_FRQ_50Hz)
 451:Dsp/widget/wgt_core/widget_mng.c ****     {
 452:Dsp/widget/wgt_core/widget_mng.c ****         MonitorDataObj.LstFreshRT = RT;
 453:Dsp/widget/wgt_core/widget_mng.c ****         return true;
 454:Dsp/widget/wgt_core/widget_mng.c ****     }
 455:Dsp/widget/wgt_core/widget_mng.c ****     else
 456:Dsp/widget/wgt_core/widget_mng.c ****         return false;
 457:Dsp/widget/wgt_core/widget_mng.c **** }
 458:Dsp/widget/wgt_core/widget_mng.c **** 
 459:Dsp/widget/wgt_core/widget_mng.c **** static bool Widget_ConfigDisplay_RoutateDir(Oled_Routate_Direction_Def dir)
 460:Dsp/widget/wgt_core/widget_mng.c **** {
  29              		.loc 1 460 1 view -0
  30              		.cfi_startproc
  31              		@ args = 0, pretend = 0, frame = 0
  32              		@ frame_needed = 0, uses_anonymous_args = 0
  33              		@ link register save eliminated.
 461:Dsp/widget/wgt_core/widget_mng.c ****     MonitorDataObj.routate_dir = dir;
  34              		.loc 1 461 5 view .LVU1
  35              		.loc 1 461 32 is_stmt 0 view .LVU2
  36 0000 014B     		ldr	r3, .L2
  37 0002 1877     		strb	r0, [r3, #28]
 462:Dsp/widget/wgt_core/widget_mng.c **** 
 463:Dsp/widget/wgt_core/widget_mng.c ****     return true;
  38              		.loc 1 463 5 is_stmt 1 view .LVU3
 464:Dsp/widget/wgt_core/widget_mng.c **** }
  39              		.loc 1 464 1 is_stmt 0 view .LVU4
  40 0004 0120     		movs	r0, #1
  41              	.LVL1:
  42              		.loc 1 464 1 view .LVU5
  43 0006 7047     		bx	lr
  44              	.L3:
  45              		.align	2
  46              	.L2:
  47 0008 00000000 		.word	.LANCHOR0
  48              		.cfi_endproc
  49              	.LFE8:
  51              		.section	.text.Widget_ConfigDisplay_MirrorDir,"ax",%progbits
ARM GAS  /var/folders/lx/hc4sn_b53233_zkc9xbbl97r0000gp/T//cc1nXFCr.s 			page 10


  52              		.align	1
  53              		.syntax unified
  54              		.thumb
  55              		.thumb_func
  56              		.fpu fpv4-sp-d16
  58              	Widget_ConfigDisplay_MirrorDir:
  59              	.LVL2:
  60              	.LFB9:
 465:Dsp/widget/wgt_core/widget_mng.c **** 
 466:Dsp/widget/wgt_core/widget_mng.c **** static bool Widget_ConfigDisplay_MirrorDir(Oled_Mirror_Direction_Def dir)
 467:Dsp/widget/wgt_core/widget_mng.c **** {
  61              		.loc 1 467 1 is_stmt 1 view -0
  62              		.cfi_startproc
  63              		@ args = 0, pretend = 0, frame = 0
  64              		@ frame_needed = 0, uses_anonymous_args = 0
  65              		@ link register save eliminated.
 468:Dsp/widget/wgt_core/widget_mng.c ****     MonitorDataObj.mirror_dir = dir;
  66              		.loc 1 468 5 view .LVU7
  67              		.loc 1 468 31 is_stmt 0 view .LVU8
  68 0000 014B     		ldr	r3, .L5
  69 0002 5877     		strb	r0, [r3, #29]
 469:Dsp/widget/wgt_core/widget_mng.c **** 
 470:Dsp/widget/wgt_core/widget_mng.c ****     return true;
  70              		.loc 1 470 5 is_stmt 1 view .LVU9
 471:Dsp/widget/wgt_core/widget_mng.c **** }
  71              		.loc 1 471 1 is_stmt 0 view .LVU10
  72 0004 0120     		movs	r0, #1
  73              	.LVL3:
  74              		.loc 1 471 1 view .LVU11
  75 0006 7047     		bx	lr
  76              	.L6:
  77              		.align	2
  78              	.L5:
  79 0008 00000000 		.word	.LANCHOR0
  80              		.cfi_endproc
  81              	.LFE9:
  83              		.section	.text.Widget_MirrorBlackboard,"ax",%progbits
  84              		.align	1
  85              		.syntax unified
  86              		.thumb
  87              		.thumb_func
  88              		.fpu fpv4-sp-d16
  90              	Widget_MirrorBlackboard:
  91              	.LFB11:
 472:Dsp/widget/wgt_core/widget_mng.c **** 
 473:Dsp/widget/wgt_core/widget_mng.c **** /* still in developing */
 474:Dsp/widget/wgt_core/widget_mng.c **** static bool Widget_RoutateBlackboard(void)
 475:Dsp/widget/wgt_core/widget_mng.c **** {
 476:Dsp/widget/wgt_core/widget_mng.c **** }
 477:Dsp/widget/wgt_core/widget_mng.c **** 
 478:Dsp/widget/wgt_core/widget_mng.c **** static bool Widget_MirrorBlackboard(void)
 479:Dsp/widget/wgt_core/widget_mng.c **** {
  92              		.loc 1 479 1 is_stmt 1 view -0
  93              		.cfi_startproc
  94              		@ args = 0, pretend = 0, frame = 32
  95              		@ frame_needed = 0, uses_anonymous_args = 0
  96 0000 2DE9F047 		push	{r4, r5, r6, r7, r8, r9, r10, lr}
ARM GAS  /var/folders/lx/hc4sn_b53233_zkc9xbbl97r0000gp/T//cc1nXFCr.s 			page 11


  97              	.LCFI0:
  98              		.cfi_def_cfa_offset 32
  99              		.cfi_offset 4, -32
 100              		.cfi_offset 5, -28
 101              		.cfi_offset 6, -24
 102              		.cfi_offset 7, -20
 103              		.cfi_offset 8, -16
 104              		.cfi_offset 9, -12
 105              		.cfi_offset 10, -8
 106              		.cfi_offset 14, -4
 107 0004 88B0     		sub	sp, sp, #32
 108              	.LCFI1:
 109              		.cfi_def_cfa_offset 64
 480:Dsp/widget/wgt_core/widget_mng.c ****     uint8_t matrix_column_tmp = 0;
 110              		.loc 1 480 5 view .LVU13
 111              	.LVL4:
 481:Dsp/widget/wgt_core/widget_mng.c **** 
 482:Dsp/widget/wgt_core/widget_mng.c ****     switch (MonitorDataObj.mirror_dir)
 112              		.loc 1 482 5 view .LVU14
 113              		.loc 1 482 27 is_stmt 0 view .LVU15
 114 0006 4A4B     		ldr	r3, .L23
 115 0008 5F7F     		ldrb	r7, [r3, #29]	@ zero_extendqisi2
 116              		.loc 1 482 5 view .LVU16
 117 000a 012F     		cmp	r7, #1
 118 000c 00F08980 		beq	.L15
 119 0010 022F     		cmp	r7, #2
 120 0012 00F08A80 		beq	.L16
 121 0016 002F     		cmp	r7, #0
 122 0018 43D0     		beq	.L17
 123 001a 0020     		movs	r0, #0
 124              	.LVL5:
 125              	.L9:
 483:Dsp/widget/wgt_core/widget_mng.c ****     {
 484:Dsp/widget/wgt_core/widget_mng.c ****     case Oled_MirrorX:
 485:Dsp/widget/wgt_core/widget_mng.c ****         for (uint8_t column = 0; column < SrvOled.get_range().width / 2; column++)
 486:Dsp/widget/wgt_core/widget_mng.c ****         {
 487:Dsp/widget/wgt_core/widget_mng.c ****             for (uint8_t row = 0; row < SrvOled.get_range().height; row++)
 488:Dsp/widget/wgt_core/widget_mng.c ****             {
 489:Dsp/widget/wgt_core/widget_mng.c ****                 matrix_column_tmp = widget_blackboard[row][column];
 490:Dsp/widget/wgt_core/widget_mng.c ****                 widget_blackboard[row][column] = widget_blackboard[row][SrvOled.get_range().width -
 491:Dsp/widget/wgt_core/widget_mng.c ****                 widget_blackboard[row][SrvOled.get_range().width - 1 - column] = matrix_column_tmp;
 492:Dsp/widget/wgt_core/widget_mng.c ****             }
 493:Dsp/widget/wgt_core/widget_mng.c ****         }
 494:Dsp/widget/wgt_core/widget_mng.c ****         break;
 495:Dsp/widget/wgt_core/widget_mng.c **** 
 496:Dsp/widget/wgt_core/widget_mng.c ****     case Oled_MirrorY:
 497:Dsp/widget/wgt_core/widget_mng.c ****         for (uint8_t row = 0; row < SrvOled.get_range().height / 2; row++)
 498:Dsp/widget/wgt_core/widget_mng.c ****         {
 499:Dsp/widget/wgt_core/widget_mng.c ****             for (uint8_t column = 0; column < SrvOled.get_range().width; column++)
 500:Dsp/widget/wgt_core/widget_mng.c ****             {
 501:Dsp/widget/wgt_core/widget_mng.c ****                 matrix_column_tmp = widget_blackboard[row][column];
 502:Dsp/widget/wgt_core/widget_mng.c ****                 widget_blackboard[row][column] = widget_blackboard[SrvOled.get_range().height - 1 -
 503:Dsp/widget/wgt_core/widget_mng.c ****                 widget_blackboard[SrvOled.get_range().height - 1 - row][column] = matrix_column_tmp
 504:Dsp/widget/wgt_core/widget_mng.c ****             }
 505:Dsp/widget/wgt_core/widget_mng.c ****         }
 506:Dsp/widget/wgt_core/widget_mng.c ****         break;
 507:Dsp/widget/wgt_core/widget_mng.c **** 
ARM GAS  /var/folders/lx/hc4sn_b53233_zkc9xbbl97r0000gp/T//cc1nXFCr.s 			page 12


 508:Dsp/widget/wgt_core/widget_mng.c ****     case Oled_Mirror_None:
 509:Dsp/widget/wgt_core/widget_mng.c ****         break;
 510:Dsp/widget/wgt_core/widget_mng.c **** 
 511:Dsp/widget/wgt_core/widget_mng.c ****     default:
 512:Dsp/widget/wgt_core/widget_mng.c ****         return false;
 513:Dsp/widget/wgt_core/widget_mng.c ****     }
 514:Dsp/widget/wgt_core/widget_mng.c **** 
 515:Dsp/widget/wgt_core/widget_mng.c ****     return true;
 516:Dsp/widget/wgt_core/widget_mng.c **** }
 126              		.loc 1 516 1 view .LVU17
 127 001c 08B0     		add	sp, sp, #32
 128              	.LCFI2:
 129              		.cfi_remember_state
 130              		.cfi_def_cfa_offset 32
 131              		@ sp needed
 132 001e BDE8F087 		pop	{r4, r5, r6, r7, r8, r9, r10, pc}
 133              	.LVL6:
 134              	.L11:
 135              	.LCFI3:
 136              		.cfi_restore_state
 137              	.LBB2:
 138              	.LBB3:
 489:Dsp/widget/wgt_core/widget_mng.c ****                 widget_blackboard[row][column] = widget_blackboard[row][SrvOled.get_range().width -
 139              		.loc 1 489 17 is_stmt 1 discriminator 3 view .LVU18
 489:Dsp/widget/wgt_core/widget_mng.c ****                 widget_blackboard[row][column] = widget_blackboard[row][SrvOled.get_range().width -
 140              		.loc 1 489 54 is_stmt 0 discriminator 3 view .LVU19
 141 0022 DFF814A1 		ldr	r10, .L23+8
 142 0026 DAF80030 		ldr	r3, [r10]
 143 002a 53F82480 		ldr	r8, [r3, r4, lsl #2]
 489:Dsp/widget/wgt_core/widget_mng.c ****                 widget_blackboard[row][column] = widget_blackboard[row][SrvOled.get_range().width -
 144              		.loc 1 489 35 discriminator 3 view .LVU20
 145 002e 18F80560 		ldrb	r6, [r8, r5]	@ zero_extendqisi2
 146              	.LVL7:
 490:Dsp/widget/wgt_core/widget_mng.c ****                 widget_blackboard[row][SrvOled.get_range().width - 1 - column] = matrix_column_tmp;
 147              		.loc 1 490 17 is_stmt 1 discriminator 3 view .LVU21
 490:Dsp/widget/wgt_core/widget_mng.c ****                 widget_blackboard[row][SrvOled.get_range().width - 1 - column] = matrix_column_tmp;
 148              		.loc 1 490 80 is_stmt 0 discriminator 3 view .LVU22
 149 0032 DFF80091 		ldr	r9, .L23+4
 150 0036 D9F80C30 		ldr	r3, [r9, #12]
 490:Dsp/widget/wgt_core/widget_mng.c ****                 widget_blackboard[row][SrvOled.get_range().width - 1 - column] = matrix_column_tmp;
 151              		.loc 1 490 73 discriminator 3 view .LVU23
 152 003a 9847     		blx	r3
 153              	.LVL8:
 154 003c ADF80000 		strh	r0, [sp]	@ movhi
 490:Dsp/widget/wgt_core/widget_mng.c ****                 widget_blackboard[row][SrvOled.get_range().width - 1 - column] = matrix_column_tmp;
 155              		.loc 1 490 92 discriminator 3 view .LVU24
 156 0040 9DF80030 		ldrb	r3, [sp]	@ zero_extendqisi2
 490:Dsp/widget/wgt_core/widget_mng.c ****                 widget_blackboard[row][SrvOled.get_range().width - 1 - column] = matrix_column_tmp;
 157              		.loc 1 490 99 discriminator 3 view .LVU25
 158 0044 013B     		subs	r3, r3, #1
 490:Dsp/widget/wgt_core/widget_mng.c ****                 widget_blackboard[row][SrvOled.get_range().width - 1 - column] = matrix_column_tmp;
 159              		.loc 1 490 103 discriminator 3 view .LVU26
 160 0046 5B1B     		subs	r3, r3, r5
 490:Dsp/widget/wgt_core/widget_mng.c ****                 widget_blackboard[row][SrvOled.get_range().width - 1 - column] = matrix_column_tmp;
 161              		.loc 1 490 34 discriminator 3 view .LVU27
 162 0048 DAF80020 		ldr	r2, [r10]
 163 004c 52F82410 		ldr	r1, [r2, r4, lsl #2]
ARM GAS  /var/folders/lx/hc4sn_b53233_zkc9xbbl97r0000gp/T//cc1nXFCr.s 			page 13


 490:Dsp/widget/wgt_core/widget_mng.c ****                 widget_blackboard[row][SrvOled.get_range().width - 1 - column] = matrix_column_tmp;
 164              		.loc 1 490 72 discriminator 3 view .LVU28
 165 0050 18F80330 		ldrb	r3, [r8, r3]	@ zero_extendqisi2
 490:Dsp/widget/wgt_core/widget_mng.c ****                 widget_blackboard[row][SrvOled.get_range().width - 1 - column] = matrix_column_tmp;
 166              		.loc 1 490 48 discriminator 3 view .LVU29
 167 0054 4B55     		strb	r3, [r1, r5]
 491:Dsp/widget/wgt_core/widget_mng.c ****             }
 168              		.loc 1 491 17 is_stmt 1 discriminator 3 view .LVU30
 491:Dsp/widget/wgt_core/widget_mng.c ****             }
 169              		.loc 1 491 34 is_stmt 0 discriminator 3 view .LVU31
 170 0056 52F82480 		ldr	r8, [r2, r4, lsl #2]
 491:Dsp/widget/wgt_core/widget_mng.c ****             }
 171              		.loc 1 491 47 discriminator 3 view .LVU32
 172 005a D9F80C30 		ldr	r3, [r9, #12]
 491:Dsp/widget/wgt_core/widget_mng.c ****             }
 173              		.loc 1 491 40 discriminator 3 view .LVU33
 174 005e 9847     		blx	r3
 175              	.LVL9:
 176 0060 ADF80400 		strh	r0, [sp, #4]	@ movhi
 491:Dsp/widget/wgt_core/widget_mng.c ****             }
 177              		.loc 1 491 59 discriminator 3 view .LVU34
 178 0064 9DF80430 		ldrb	r3, [sp, #4]	@ zero_extendqisi2
 491:Dsp/widget/wgt_core/widget_mng.c ****             }
 179              		.loc 1 491 66 discriminator 3 view .LVU35
 180 0068 013B     		subs	r3, r3, #1
 491:Dsp/widget/wgt_core/widget_mng.c ****             }
 181              		.loc 1 491 70 discriminator 3 view .LVU36
 182 006a 5B1B     		subs	r3, r3, r5
 491:Dsp/widget/wgt_core/widget_mng.c ****             }
 183              		.loc 1 491 80 discriminator 3 view .LVU37
 184 006c 08F80360 		strb	r6, [r8, r3]
 487:Dsp/widget/wgt_core/widget_mng.c ****             {
 185              		.loc 1 487 69 is_stmt 1 discriminator 3 view .LVU38
 487:Dsp/widget/wgt_core/widget_mng.c ****             {
 186              		.loc 1 487 72 is_stmt 0 discriminator 3 view .LVU39
 187 0070 0134     		adds	r4, r4, #1
 188              	.LVL10:
 487:Dsp/widget/wgt_core/widget_mng.c ****             {
 189              		.loc 1 487 72 discriminator 3 view .LVU40
 190 0072 E4B2     		uxtb	r4, r4
 191              	.LVL11:
 192              	.L12:
 487:Dsp/widget/wgt_core/widget_mng.c ****             {
 193              		.loc 1 487 35 is_stmt 1 discriminator 1 view .LVU41
 487:Dsp/widget/wgt_core/widget_mng.c ****             {
 194              		.loc 1 487 48 is_stmt 0 discriminator 1 view .LVU42
 195 0074 2F4B     		ldr	r3, .L23+4
 196 0076 DB68     		ldr	r3, [r3, #12]
 487:Dsp/widget/wgt_core/widget_mng.c ****             {
 197              		.loc 1 487 41 discriminator 1 view .LVU43
 198 0078 9847     		blx	r3
 199              	.LVL12:
 200 007a ADF80800 		strh	r0, [sp, #8]	@ movhi
 487:Dsp/widget/wgt_core/widget_mng.c ****             {
 201              		.loc 1 487 60 discriminator 1 view .LVU44
 202 007e 9DF80930 		ldrb	r3, [sp, #9]	@ zero_extendqisi2
 487:Dsp/widget/wgt_core/widget_mng.c ****             {
ARM GAS  /var/folders/lx/hc4sn_b53233_zkc9xbbl97r0000gp/T//cc1nXFCr.s 			page 14


 203              		.loc 1 487 13 discriminator 1 view .LVU45
 204 0082 A342     		cmp	r3, r4
 205 0084 CDD8     		bhi	.L11
 206              	.LBE3:
 485:Dsp/widget/wgt_core/widget_mng.c ****         {
 207              		.loc 1 485 74 is_stmt 1 discriminator 2 view .LVU46
 485:Dsp/widget/wgt_core/widget_mng.c ****         {
 208              		.loc 1 485 80 is_stmt 0 discriminator 2 view .LVU47
 209 0086 0135     		adds	r5, r5, #1
 210              	.LVL13:
 485:Dsp/widget/wgt_core/widget_mng.c ****         {
 211              		.loc 1 485 80 discriminator 2 view .LVU48
 212 0088 EDB2     		uxtb	r5, r5
 213              	.LVL14:
 214              	.L10:
 485:Dsp/widget/wgt_core/widget_mng.c ****         {
 215              		.loc 1 485 34 is_stmt 1 discriminator 1 view .LVU49
 485:Dsp/widget/wgt_core/widget_mng.c ****         {
 216              		.loc 1 485 50 is_stmt 0 discriminator 1 view .LVU50
 217 008a 2A4B     		ldr	r3, .L23+4
 218 008c DB68     		ldr	r3, [r3, #12]
 485:Dsp/widget/wgt_core/widget_mng.c ****         {
 219              		.loc 1 485 43 discriminator 1 view .LVU51
 220 008e 9847     		blx	r3
 221              	.LVL15:
 222 0090 ADF80C00 		strh	r0, [sp, #12]	@ movhi
 485:Dsp/widget/wgt_core/widget_mng.c ****         {
 223              		.loc 1 485 62 discriminator 1 view .LVU52
 224 0094 9DF80C30 		ldrb	r3, [sp, #12]	@ zero_extendqisi2
 485:Dsp/widget/wgt_core/widget_mng.c ****         {
 225              		.loc 1 485 9 discriminator 1 view .LVU53
 226 0098 B5EB530F 		cmp	r5, r3, lsr #1
 227 009c 03D2     		bcs	.L21
 228              	.LBB4:
 487:Dsp/widget/wgt_core/widget_mng.c ****             {
 229              		.loc 1 487 26 view .LVU54
 230 009e 3C46     		mov	r4, r7
 231 00a0 E8E7     		b	.L12
 232              	.LVL16:
 233              	.L17:
 487:Dsp/widget/wgt_core/widget_mng.c ****             {
 234              		.loc 1 487 26 view .LVU55
 235              	.LBE4:
 236              	.LBE2:
 482:Dsp/widget/wgt_core/widget_mng.c ****     {
 237              		.loc 1 482 5 view .LVU56
 238 00a2 3D46     		mov	r5, r7
 239 00a4 F1E7     		b	.L10
 240              	.LVL17:
 241              	.L21:
 515:Dsp/widget/wgt_core/widget_mng.c **** }
 242              		.loc 1 515 12 view .LVU57
 243 00a6 0120     		movs	r0, #1
 244 00a8 B8E7     		b	.L9
 245              	.LVL18:
 246              	.L13:
 247              	.LBB5:
ARM GAS  /var/folders/lx/hc4sn_b53233_zkc9xbbl97r0000gp/T//cc1nXFCr.s 			page 15


 248              	.LBB6:
 501:Dsp/widget/wgt_core/widget_mng.c ****                 widget_blackboard[row][column] = widget_blackboard[SrvOled.get_range().height - 1 -
 249              		.loc 1 501 17 is_stmt 1 discriminator 3 view .LVU58
 501:Dsp/widget/wgt_core/widget_mng.c ****                 widget_blackboard[row][column] = widget_blackboard[SrvOled.get_range().height - 1 -
 250              		.loc 1 501 54 is_stmt 0 discriminator 3 view .LVU59
 251 00aa DFF88C80 		ldr	r8, .L23+8
 252 00ae D8F80090 		ldr	r9, [r8]
 253 00b2 59F82530 		ldr	r3, [r9, r5, lsl #2]
 501:Dsp/widget/wgt_core/widget_mng.c ****                 widget_blackboard[row][column] = widget_blackboard[SrvOled.get_range().height - 1 -
 254              		.loc 1 501 35 discriminator 3 view .LVU60
 255 00b6 1E5D     		ldrb	r6, [r3, r4]	@ zero_extendqisi2
 256              	.LVL19:
 502:Dsp/widget/wgt_core/widget_mng.c ****                 widget_blackboard[SrvOled.get_range().height - 1 - row][column] = matrix_column_tmp
 257              		.loc 1 502 17 is_stmt 1 discriminator 3 view .LVU61
 502:Dsp/widget/wgt_core/widget_mng.c ****                 widget_blackboard[SrvOled.get_range().height - 1 - row][column] = matrix_column_tmp
 258              		.loc 1 502 75 is_stmt 0 discriminator 3 view .LVU62
 259 00b8 1E4F     		ldr	r7, .L23+4
 260 00ba FB68     		ldr	r3, [r7, #12]
 502:Dsp/widget/wgt_core/widget_mng.c ****                 widget_blackboard[SrvOled.get_range().height - 1 - row][column] = matrix_column_tmp
 261              		.loc 1 502 68 discriminator 3 view .LVU63
 262 00bc 9847     		blx	r3
 263              	.LVL20:
 264 00be ADF81000 		strh	r0, [sp, #16]	@ movhi
 502:Dsp/widget/wgt_core/widget_mng.c ****                 widget_blackboard[SrvOled.get_range().height - 1 - row][column] = matrix_column_tmp
 265              		.loc 1 502 87 discriminator 3 view .LVU64
 266 00c2 9DF81130 		ldrb	r3, [sp, #17]	@ zero_extendqisi2
 502:Dsp/widget/wgt_core/widget_mng.c ****                 widget_blackboard[SrvOled.get_range().height - 1 - row][column] = matrix_column_tmp
 267              		.loc 1 502 95 discriminator 3 view .LVU65
 268 00c6 013B     		subs	r3, r3, #1
 502:Dsp/widget/wgt_core/widget_mng.c ****                 widget_blackboard[SrvOled.get_range().height - 1 - row][column] = matrix_column_tmp
 269              		.loc 1 502 99 discriminator 3 view .LVU66
 270 00c8 5B1B     		subs	r3, r3, r5
 502:Dsp/widget/wgt_core/widget_mng.c ****                 widget_blackboard[SrvOled.get_range().height - 1 - row][column] = matrix_column_tmp
 271              		.loc 1 502 67 discriminator 3 view .LVU67
 272 00ca 59F82320 		ldr	r2, [r9, r3, lsl #2]
 502:Dsp/widget/wgt_core/widget_mng.c ****                 widget_blackboard[SrvOled.get_range().height - 1 - row][column] = matrix_column_tmp
 273              		.loc 1 502 34 discriminator 3 view .LVU68
 274 00ce D8F80080 		ldr	r8, [r8]
 275 00d2 58F82530 		ldr	r3, [r8, r5, lsl #2]
 502:Dsp/widget/wgt_core/widget_mng.c ****                 widget_blackboard[SrvOled.get_range().height - 1 - row][column] = matrix_column_tmp
 276              		.loc 1 502 105 discriminator 3 view .LVU69
 277 00d6 125D     		ldrb	r2, [r2, r4]	@ zero_extendqisi2
 502:Dsp/widget/wgt_core/widget_mng.c ****                 widget_blackboard[SrvOled.get_range().height - 1 - row][column] = matrix_column_tmp
 278              		.loc 1 502 48 discriminator 3 view .LVU70
 279 00d8 1A55     		strb	r2, [r3, r4]
 503:Dsp/widget/wgt_core/widget_mng.c ****             }
 280              		.loc 1 503 17 is_stmt 1 discriminator 3 view .LVU71
 503:Dsp/widget/wgt_core/widget_mng.c ****             }
 281              		.loc 1 503 42 is_stmt 0 discriminator 3 view .LVU72
 282 00da FB68     		ldr	r3, [r7, #12]
 503:Dsp/widget/wgt_core/widget_mng.c ****             }
 283              		.loc 1 503 35 discriminator 3 view .LVU73
 284 00dc 9847     		blx	r3
 285              	.LVL21:
 286 00de ADF81400 		strh	r0, [sp, #20]	@ movhi
 503:Dsp/widget/wgt_core/widget_mng.c ****             }
 287              		.loc 1 503 54 discriminator 3 view .LVU74
ARM GAS  /var/folders/lx/hc4sn_b53233_zkc9xbbl97r0000gp/T//cc1nXFCr.s 			page 16


 288 00e2 9DF81530 		ldrb	r3, [sp, #21]	@ zero_extendqisi2
 503:Dsp/widget/wgt_core/widget_mng.c ****             }
 289              		.loc 1 503 62 discriminator 3 view .LVU75
 290 00e6 013B     		subs	r3, r3, #1
 503:Dsp/widget/wgt_core/widget_mng.c ****             }
 291              		.loc 1 503 66 discriminator 3 view .LVU76
 292 00e8 5B1B     		subs	r3, r3, r5
 503:Dsp/widget/wgt_core/widget_mng.c ****             }
 293              		.loc 1 503 34 discriminator 3 view .LVU77
 294 00ea 58F82330 		ldr	r3, [r8, r3, lsl #2]
 503:Dsp/widget/wgt_core/widget_mng.c ****             }
 295              		.loc 1 503 81 discriminator 3 view .LVU78
 296 00ee 1E55     		strb	r6, [r3, r4]
 499:Dsp/widget/wgt_core/widget_mng.c ****             {
 297              		.loc 1 499 74 is_stmt 1 discriminator 3 view .LVU79
 499:Dsp/widget/wgt_core/widget_mng.c ****             {
 298              		.loc 1 499 80 is_stmt 0 discriminator 3 view .LVU80
 299 00f0 0134     		adds	r4, r4, #1
 300              	.LVL22:
 499:Dsp/widget/wgt_core/widget_mng.c ****             {
 301              		.loc 1 499 80 discriminator 3 view .LVU81
 302 00f2 E4B2     		uxtb	r4, r4
 303              	.LVL23:
 304              	.L14:
 499:Dsp/widget/wgt_core/widget_mng.c ****             {
 305              		.loc 1 499 38 is_stmt 1 discriminator 1 view .LVU82
 499:Dsp/widget/wgt_core/widget_mng.c ****             {
 306              		.loc 1 499 54 is_stmt 0 discriminator 1 view .LVU83
 307 00f4 0F4B     		ldr	r3, .L23+4
 308 00f6 DB68     		ldr	r3, [r3, #12]
 499:Dsp/widget/wgt_core/widget_mng.c ****             {
 309              		.loc 1 499 47 discriminator 1 view .LVU84
 310 00f8 9847     		blx	r3
 311              	.LVL24:
 312 00fa ADF81800 		strh	r0, [sp, #24]	@ movhi
 499:Dsp/widget/wgt_core/widget_mng.c ****             {
 313              		.loc 1 499 66 discriminator 1 view .LVU85
 314 00fe 9DF81830 		ldrb	r3, [sp, #24]	@ zero_extendqisi2
 499:Dsp/widget/wgt_core/widget_mng.c ****             {
 315              		.loc 1 499 13 discriminator 1 view .LVU86
 316 0102 A342     		cmp	r3, r4
 317 0104 D1D8     		bhi	.L13
 318              	.LBE6:
 497:Dsp/widget/wgt_core/widget_mng.c ****         {
 319              		.loc 1 497 69 is_stmt 1 discriminator 2 view .LVU87
 497:Dsp/widget/wgt_core/widget_mng.c ****         {
 320              		.loc 1 497 72 is_stmt 0 discriminator 2 view .LVU88
 321 0106 0135     		adds	r5, r5, #1
 322              	.LVL25:
 497:Dsp/widget/wgt_core/widget_mng.c ****         {
 323              		.loc 1 497 72 discriminator 2 view .LVU89
 324 0108 EDB2     		uxtb	r5, r5
 325              	.LVL26:
 326              	.L8:
 497:Dsp/widget/wgt_core/widget_mng.c ****         {
 327              		.loc 1 497 31 is_stmt 1 discriminator 1 view .LVU90
 497:Dsp/widget/wgt_core/widget_mng.c ****         {
ARM GAS  /var/folders/lx/hc4sn_b53233_zkc9xbbl97r0000gp/T//cc1nXFCr.s 			page 17


 328              		.loc 1 497 44 is_stmt 0 discriminator 1 view .LVU91
 329 010a 0A4B     		ldr	r3, .L23+4
 330 010c DB68     		ldr	r3, [r3, #12]
 497:Dsp/widget/wgt_core/widget_mng.c ****         {
 331              		.loc 1 497 37 discriminator 1 view .LVU92
 332 010e 9847     		blx	r3
 333              	.LVL27:
 334 0110 ADF81C00 		strh	r0, [sp, #28]	@ movhi
 497:Dsp/widget/wgt_core/widget_mng.c ****         {
 335              		.loc 1 497 56 discriminator 1 view .LVU93
 336 0114 9DF81D30 		ldrb	r3, [sp, #29]	@ zero_extendqisi2
 497:Dsp/widget/wgt_core/widget_mng.c ****         {
 337              		.loc 1 497 9 discriminator 1 view .LVU94
 338 0118 B5EB530F 		cmp	r5, r3, lsr #1
 339 011c 03D2     		bcs	.L22
 340              	.LBB7:
 499:Dsp/widget/wgt_core/widget_mng.c ****             {
 341              		.loc 1 499 26 view .LVU95
 342 011e 0024     		movs	r4, #0
 343 0120 E8E7     		b	.L14
 344              	.LVL28:
 345              	.L15:
 499:Dsp/widget/wgt_core/widget_mng.c ****             {
 346              		.loc 1 499 26 view .LVU96
 347              	.LBE7:
 348              	.LBE5:
 482:Dsp/widget/wgt_core/widget_mng.c ****     {
 349              		.loc 1 482 5 view .LVU97
 350 0122 0025     		movs	r5, #0
 351 0124 F1E7     		b	.L8
 352              	.LVL29:
 353              	.L22:
 515:Dsp/widget/wgt_core/widget_mng.c **** }
 354              		.loc 1 515 12 view .LVU98
 355 0126 0120     		movs	r0, #1
 356              	.LBB8:
 357 0128 78E7     		b	.L9
 358              	.LVL30:
 359              	.L16:
 515:Dsp/widget/wgt_core/widget_mng.c **** }
 360              		.loc 1 515 12 view .LVU99
 361              	.LBE8:
 362 012a 0120     		movs	r0, #1
 363 012c 76E7     		b	.L9
 364              	.L24:
 365 012e 00BF     		.align	2
 366              	.L23:
 367 0130 00000000 		.word	.LANCHOR0
 368 0134 00000000 		.word	SrvOled
 369 0138 00000000 		.word	.LANCHOR1
 370              		.cfi_endproc
 371              	.LFE11:
 373              		.section	.text.Widget_CtlInterface,"ax",%progbits
 374              		.align	1
 375              		.syntax unified
 376              		.thumb
 377              		.thumb_func
ARM GAS  /var/folders/lx/hc4sn_b53233_zkc9xbbl97r0000gp/T//cc1nXFCr.s 			page 18


 378              		.fpu fpv4-sp-d16
 380              	Widget_CtlInterface:
 381              	.LVL31:
 382              	.LFB19:
 517:Dsp/widget/wgt_core/widget_mng.c **** 
 518:Dsp/widget/wgt_core/widget_mng.c **** static bool Widget_ClearDspCache(void)
 519:Dsp/widget/wgt_core/widget_mng.c **** {
 520:Dsp/widget/wgt_core/widget_mng.c ****     if (GetCur_Active_Widget() == NULL)
 521:Dsp/widget/wgt_core/widget_mng.c ****         return false;
 522:Dsp/widget/wgt_core/widget_mng.c **** 
 523:Dsp/widget/wgt_core/widget_mng.c ****     for (uint8_t i = 0; i < GetCur_Active_Widget()->height; i++)
 524:Dsp/widget/wgt_core/widget_mng.c ****     {
 525:Dsp/widget/wgt_core/widget_mng.c ****         memset(GetCur_Active_Widget()->pixel_map[i], NULL, GetCur_Active_Widget()->width);
 526:Dsp/widget/wgt_core/widget_mng.c ****     }
 527:Dsp/widget/wgt_core/widget_mng.c **** 
 528:Dsp/widget/wgt_core/widget_mng.c ****     return true;
 529:Dsp/widget/wgt_core/widget_mng.c **** }
 530:Dsp/widget/wgt_core/widget_mng.c **** 
 531:Dsp/widget/wgt_core/widget_mng.c **** static bool Widget_Show(void)
 532:Dsp/widget/wgt_core/widget_mng.c **** {
 533:Dsp/widget/wgt_core/widget_mng.c ****     if (GetCur_Active_Widget() == NULL)
 534:Dsp/widget/wgt_core/widget_mng.c ****         return false;
 535:Dsp/widget/wgt_core/widget_mng.c **** 
 536:Dsp/widget/wgt_core/widget_mng.c ****     if (GetCur_Active_Widget()->use_frame)
 537:Dsp/widget/wgt_core/widget_mng.c ****     {
 538:Dsp/widget/wgt_core/widget_mng.c ****         Widget_DrawRectangle(0,
 539:Dsp/widget/wgt_core/widget_mng.c ****                              0,
 540:Dsp/widget/wgt_core/widget_mng.c ****                              GetCur_Active_Widget()->width,
 541:Dsp/widget/wgt_core/widget_mng.c ****                              GetCur_Active_Widget()->height,
 542:Dsp/widget/wgt_core/widget_mng.c ****                              1,
 543:Dsp/widget/wgt_core/widget_mng.c ****                              true);
 544:Dsp/widget/wgt_core/widget_mng.c ****     }
 545:Dsp/widget/wgt_core/widget_mng.c **** 
 546:Dsp/widget/wgt_core/widget_mng.c ****     Widget_DrawStr(Font_8, GetCur_Active_Widget()->name, 0, 0, true);
 547:Dsp/widget/wgt_core/widget_mng.c **** 
 548:Dsp/widget/wgt_core/widget_mng.c ****     if (!GetCur_Active_Widget()->show_state)
 549:Dsp/widget/wgt_core/widget_mng.c ****     {
 550:Dsp/widget/wgt_core/widget_mng.c ****         GetCur_Active_Widget()->show_state = true;
 551:Dsp/widget/wgt_core/widget_mng.c **** 
 552:Dsp/widget/wgt_core/widget_mng.c ****         if (MonitorDataObj.widget_dsp_list != NULL)
 553:Dsp/widget/wgt_core/widget_mng.c ****         {
 554:Dsp/widget/wgt_core/widget_mng.c ****             List_Insert_Item(MonitorDataObj.widget_dsp_list, GetCur_Active_Widget()->dsp_item);
 555:Dsp/widget/wgt_core/widget_mng.c ****         }
 556:Dsp/widget/wgt_core/widget_mng.c ****         else
 557:Dsp/widget/wgt_core/widget_mng.c ****         {
 558:Dsp/widget/wgt_core/widget_mng.c ****             MonitorDataObj.widget_dsp_list = GetCur_Active_Widget()->dsp_item;
 559:Dsp/widget/wgt_core/widget_mng.c ****             List_Init(MonitorDataObj.widget_dsp_list, GetCur_Active_Widget()->dsp_item, by_order, N
 560:Dsp/widget/wgt_core/widget_mng.c ****         }
 561:Dsp/widget/wgt_core/widget_mng.c **** 
 562:Dsp/widget/wgt_core/widget_mng.c ****         Widget_SetFreshState(Fresh_State_Prepare);
 563:Dsp/widget/wgt_core/widget_mng.c **** 
 564:Dsp/widget/wgt_core/widget_mng.c ****         MonitorDataObj.on_show++;
 565:Dsp/widget/wgt_core/widget_mng.c ****     }
 566:Dsp/widget/wgt_core/widget_mng.c **** 
 567:Dsp/widget/wgt_core/widget_mng.c ****     return true;
 568:Dsp/widget/wgt_core/widget_mng.c **** }
 569:Dsp/widget/wgt_core/widget_mng.c **** 
ARM GAS  /var/folders/lx/hc4sn_b53233_zkc9xbbl97r0000gp/T//cc1nXFCr.s 			page 19


 570:Dsp/widget/wgt_core/widget_mng.c **** static UI_GenCTL_Handle WidgetUI_GetCurSelected_UICtl(void)
 571:Dsp/widget/wgt_core/widget_mng.c **** {
 572:Dsp/widget/wgt_core/widget_mng.c ****     return ((WidgetUI_Item_TypeDef *)((GetCur_Active_Widget()->CurSelected_CTL)->data))->Handler;
 573:Dsp/widget/wgt_core/widget_mng.c **** }
 574:Dsp/widget/wgt_core/widget_mng.c **** 
 575:Dsp/widget/wgt_core/widget_mng.c **** static bool Widget_Hide(void)
 576:Dsp/widget/wgt_core/widget_mng.c **** {
 577:Dsp/widget/wgt_core/widget_mng.c ****     if ((GetCur_Active_Widget() == NULL) || (MonitorDataObj.on_show <= 1))
 578:Dsp/widget/wgt_core/widget_mng.c ****         return false;
 579:Dsp/widget/wgt_core/widget_mng.c **** 
 580:Dsp/widget/wgt_core/widget_mng.c ****     if (GetCur_Active_Widget()->show_state)
 581:Dsp/widget/wgt_core/widget_mng.c ****     {
 582:Dsp/widget/wgt_core/widget_mng.c ****         List_Delete_Item(GetCur_Active_Widget()->dsp_item, NULL);
 583:Dsp/widget/wgt_core/widget_mng.c ****         Widget_SetFreshState(Fresh_State_Prepare);
 584:Dsp/widget/wgt_core/widget_mng.c ****         GetCur_Active_Widget()->show_state = false;
 585:Dsp/widget/wgt_core/widget_mng.c **** 
 586:Dsp/widget/wgt_core/widget_mng.c ****         MonitorDataObj.on_show--;
 587:Dsp/widget/wgt_core/widget_mng.c ****     }
 588:Dsp/widget/wgt_core/widget_mng.c **** 
 589:Dsp/widget/wgt_core/widget_mng.c ****     return true;
 590:Dsp/widget/wgt_core/widget_mng.c **** }
 591:Dsp/widget/wgt_core/widget_mng.c **** 
 592:Dsp/widget/wgt_core/widget_mng.c **** static WidgetDsp_Status_List Widget_DspStatus(void)
 593:Dsp/widget/wgt_core/widget_mng.c **** {
 594:Dsp/widget/wgt_core/widget_mng.c ****     if (GetCur_Active_Widget() == NULL)
 595:Dsp/widget/wgt_core/widget_mng.c ****         return Widget_NoExist;
 596:Dsp/widget/wgt_core/widget_mng.c **** 
 597:Dsp/widget/wgt_core/widget_mng.c ****     if (GetCur_Active_Widget()->show_state)
 598:Dsp/widget/wgt_core/widget_mng.c ****     {
 599:Dsp/widget/wgt_core/widget_mng.c ****         return Widget_Showing;
 600:Dsp/widget/wgt_core/widget_mng.c ****     }
 601:Dsp/widget/wgt_core/widget_mng.c **** 
 602:Dsp/widget/wgt_core/widget_mng.c ****     return Widget_Hiding;
 603:Dsp/widget/wgt_core/widget_mng.c **** }
 604:Dsp/widget/wgt_core/widget_mng.c **** 
 605:Dsp/widget/wgt_core/widget_mng.c **** static bool Widget_MoveTo(int16_t x, int16_t y)
 606:Dsp/widget/wgt_core/widget_mng.c **** {
 607:Dsp/widget/wgt_core/widget_mng.c ****     if (GetCur_Active_Widget() == NULL)
 608:Dsp/widget/wgt_core/widget_mng.c ****         return false;
 609:Dsp/widget/wgt_core/widget_mng.c **** 
 610:Dsp/widget/wgt_core/widget_mng.c ****     GetCur_Active_Widget()->cord_x = x;
 611:Dsp/widget/wgt_core/widget_mng.c ****     GetCur_Active_Widget()->cord_y = y;
 612:Dsp/widget/wgt_core/widget_mng.c **** 
 613:Dsp/widget/wgt_core/widget_mng.c ****     return true;
 614:Dsp/widget/wgt_core/widget_mng.c **** }
 615:Dsp/widget/wgt_core/widget_mng.c **** 
 616:Dsp/widget/wgt_core/widget_mng.c **** static Widget_DrawFunc_TypeDef *Widget_DrawInterface(void)
 617:Dsp/widget/wgt_core/widget_mng.c **** {
 618:Dsp/widget/wgt_core/widget_mng.c ****     if (GetCur_Active_Widget() == NULL)
 619:Dsp/widget/wgt_core/widget_mng.c ****         return NULL;
 620:Dsp/widget/wgt_core/widget_mng.c **** 
 621:Dsp/widget/wgt_core/widget_mng.c ****     return GetCur_Active_Widget()->Dsp;
 622:Dsp/widget/wgt_core/widget_mng.c **** }
 623:Dsp/widget/wgt_core/widget_mng.c **** 
 624:Dsp/widget/wgt_core/widget_mng.c **** static Widget_Control_TypeDef *Widget_CtlInterface(Widget_Handle hdl)
 625:Dsp/widget/wgt_core/widget_mng.c **** {
 383              		.loc 1 625 1 is_stmt 1 view -0
ARM GAS  /var/folders/lx/hc4sn_b53233_zkc9xbbl97r0000gp/T//cc1nXFCr.s 			page 20


 384              		.cfi_startproc
 385              		@ args = 0, pretend = 0, frame = 0
 386              		@ frame_needed = 0, uses_anonymous_args = 0
 387              		@ link register save eliminated.
 626:Dsp/widget/wgt_core/widget_mng.c ****     if (hdl == 0)
 388              		.loc 1 626 5 view .LVU101
 389              		.loc 1 626 8 is_stmt 0 view .LVU102
 390 0000 20B1     		cbz	r0, .L27
 627:Dsp/widget/wgt_core/widget_mng.c ****         return NULL;
 628:Dsp/widget/wgt_core/widget_mng.c **** 
 629:Dsp/widget/wgt_core/widget_mng.c ****     CurActive_Widget = hdl;
 391              		.loc 1 629 5 is_stmt 1 view .LVU103
 392              		.loc 1 629 22 is_stmt 0 view .LVU104
 393 0002 034A     		ldr	r2, .L28
 394 0004 1060     		str	r0, [r2]
 630:Dsp/widget/wgt_core/widget_mng.c **** 
 631:Dsp/widget/wgt_core/widget_mng.c ****     return HandleToWidgetObj(CurActive_Widget)->Ctl;
 395              		.loc 1 631 5 is_stmt 1 view .LVU105
 396              		.loc 1 631 47 is_stmt 0 view .LVU106
 397 0006 D0F81300 		ldr	r0, [r0, #19]	@ unaligned
 398              	.LVL32:
 399              		.loc 1 631 47 view .LVU107
 400 000a 7047     		bx	lr
 401              	.LVL33:
 402              	.L27:
 627:Dsp/widget/wgt_core/widget_mng.c ****         return NULL;
 403              		.loc 1 627 16 view .LVU108
 404 000c 0020     		movs	r0, #0
 405              	.LVL34:
 632:Dsp/widget/wgt_core/widget_mng.c **** }
 406              		.loc 1 632 1 view .LVU109
 407 000e 7047     		bx	lr
 408              	.L29:
 409              		.align	2
 410              	.L28:
 411 0010 00000000 		.word	.LANCHOR2
 412              		.cfi_endproc
 413              	.LFE19:
 415              		.section	.text.GetCur_Active_Widget,"ax",%progbits
 416              		.align	1
 417              		.syntax unified
 418              		.thumb
 419              		.thumb_func
 420              		.fpu fpv4-sp-d16
 422              	GetCur_Active_Widget:
 423              	.LFB20:
 633:Dsp/widget/wgt_core/widget_mng.c **** 
 634:Dsp/widget/wgt_core/widget_mng.c **** static WidgetObj_TypeDef *GetCur_Active_Widget(void)
 635:Dsp/widget/wgt_core/widget_mng.c **** {
 424              		.loc 1 635 1 is_stmt 1 view -0
 425              		.cfi_startproc
 426              		@ args = 0, pretend = 0, frame = 0
 427              		@ frame_needed = 0, uses_anonymous_args = 0
 428              		@ link register save eliminated.
 636:Dsp/widget/wgt_core/widget_mng.c ****     if (CurActive_Widget == 0)
 429              		.loc 1 636 5 view .LVU111
 430              		.loc 1 636 26 is_stmt 0 view .LVU112
ARM GAS  /var/folders/lx/hc4sn_b53233_zkc9xbbl97r0000gp/T//cc1nXFCr.s 			page 21


 431 0000 014B     		ldr	r3, .L33
 432 0002 1868     		ldr	r0, [r3]
 637:Dsp/widget/wgt_core/widget_mng.c ****         return 0;
 638:Dsp/widget/wgt_core/widget_mng.c **** 
 639:Dsp/widget/wgt_core/widget_mng.c ****     return HandleToWidgetObj(CurActive_Widget);
 640:Dsp/widget/wgt_core/widget_mng.c **** }
 433              		.loc 1 640 1 view .LVU113
 434 0004 7047     		bx	lr
 435              	.L34:
 436 0006 00BF     		.align	2
 437              	.L33:
 438 0008 00000000 		.word	.LANCHOR2
 439              		.cfi_endproc
 440              	.LFE20:
 442              		.section	.text.WidgetUI_GetCurSelected_UICtl,"ax",%progbits
 443              		.align	1
 444              		.syntax unified
 445              		.thumb
 446              		.thumb_func
 447              		.fpu fpv4-sp-d16
 449              	WidgetUI_GetCurSelected_UICtl:
 450              	.LFB14:
 571:Dsp/widget/wgt_core/widget_mng.c ****     return ((WidgetUI_Item_TypeDef *)((GetCur_Active_Widget()->CurSelected_CTL)->data))->Handler;
 451              		.loc 1 571 1 is_stmt 1 view -0
 452              		.cfi_startproc
 453              		@ args = 0, pretend = 0, frame = 0
 454              		@ frame_needed = 0, uses_anonymous_args = 0
 455 0000 08B5     		push	{r3, lr}
 456              	.LCFI4:
 457              		.cfi_def_cfa_offset 8
 458              		.cfi_offset 3, -8
 459              		.cfi_offset 14, -4
 572:Dsp/widget/wgt_core/widget_mng.c **** }
 460              		.loc 1 572 5 view .LVU115
 572:Dsp/widget/wgt_core/widget_mng.c **** }
 461              		.loc 1 572 40 is_stmt 0 view .LVU116
 462 0002 FFF7FEFF 		bl	GetCur_Active_Widget
 463              	.LVL35:
 572:Dsp/widget/wgt_core/widget_mng.c **** }
 464              		.loc 1 572 62 view .LVU117
 465 0006 D0F82630 		ldr	r3, [r0, #38]	@ unaligned
 572:Dsp/widget/wgt_core/widget_mng.c **** }
 466              		.loc 1 572 80 view .LVU118
 467 000a 1B69     		ldr	r3, [r3, #16]
 573:Dsp/widget/wgt_core/widget_mng.c **** 
 468              		.loc 1 573 1 view .LVU119
 469 000c 5868     		ldr	r0, [r3, #4]
 470 000e 08BD     		pop	{r3, pc}
 471              		.cfi_endproc
 472              	.LFE14:
 474              		.section	.text.Widget_DrawInterface,"ax",%progbits
 475              		.align	1
 476              		.syntax unified
 477              		.thumb
 478              		.thumb_func
 479              		.fpu fpv4-sp-d16
 481              	Widget_DrawInterface:
ARM GAS  /var/folders/lx/hc4sn_b53233_zkc9xbbl97r0000gp/T//cc1nXFCr.s 			page 22


 482              	.LFB18:
 617:Dsp/widget/wgt_core/widget_mng.c ****     if (GetCur_Active_Widget() == NULL)
 483              		.loc 1 617 1 is_stmt 1 view -0
 484              		.cfi_startproc
 485              		@ args = 0, pretend = 0, frame = 0
 486              		@ frame_needed = 0, uses_anonymous_args = 0
 487 0000 08B5     		push	{r3, lr}
 488              	.LCFI5:
 489              		.cfi_def_cfa_offset 8
 490              		.cfi_offset 3, -8
 491              		.cfi_offset 14, -4
 618:Dsp/widget/wgt_core/widget_mng.c ****         return NULL;
 492              		.loc 1 618 5 view .LVU121
 618:Dsp/widget/wgt_core/widget_mng.c ****         return NULL;
 493              		.loc 1 618 9 is_stmt 0 view .LVU122
 494 0002 FFF7FEFF 		bl	GetCur_Active_Widget
 495              	.LVL36:
 618:Dsp/widget/wgt_core/widget_mng.c ****         return NULL;
 496              		.loc 1 618 8 view .LVU123
 497 0006 0346     		mov	r3, r0
 498 0008 08B1     		cbz	r0, .L37
 621:Dsp/widget/wgt_core/widget_mng.c **** }
 499              		.loc 1 621 5 is_stmt 1 view .LVU124
 621:Dsp/widget/wgt_core/widget_mng.c **** }
 500              		.loc 1 621 34 is_stmt 0 view .LVU125
 501 000a D0F80F30 		ldr	r3, [r0, #15]	@ unaligned
 502              	.L37:
 622:Dsp/widget/wgt_core/widget_mng.c **** 
 503              		.loc 1 622 1 view .LVU126
 504 000e 1846     		mov	r0, r3
 505 0010 08BD     		pop	{r3, pc}
 506              		.cfi_endproc
 507              	.LFE18:
 509              		.section	.text.Widget_DspStatus,"ax",%progbits
 510              		.align	1
 511              		.syntax unified
 512              		.thumb
 513              		.thumb_func
 514              		.fpu fpv4-sp-d16
 516              	Widget_DspStatus:
 517              	.LFB16:
 593:Dsp/widget/wgt_core/widget_mng.c ****     if (GetCur_Active_Widget() == NULL)
 518              		.loc 1 593 1 is_stmt 1 view -0
 519              		.cfi_startproc
 520              		@ args = 0, pretend = 0, frame = 0
 521              		@ frame_needed = 0, uses_anonymous_args = 0
 522 0000 08B5     		push	{r3, lr}
 523              	.LCFI6:
 524              		.cfi_def_cfa_offset 8
 525              		.cfi_offset 3, -8
 526              		.cfi_offset 14, -4
 594:Dsp/widget/wgt_core/widget_mng.c ****         return Widget_NoExist;
 527              		.loc 1 594 5 view .LVU128
 594:Dsp/widget/wgt_core/widget_mng.c ****         return Widget_NoExist;
 528              		.loc 1 594 9 is_stmt 0 view .LVU129
 529 0002 FFF7FEFF 		bl	GetCur_Active_Widget
 530              	.LVL37:
ARM GAS  /var/folders/lx/hc4sn_b53233_zkc9xbbl97r0000gp/T//cc1nXFCr.s 			page 23


 594:Dsp/widget/wgt_core/widget_mng.c ****         return Widget_NoExist;
 531              		.loc 1 594 8 view .LVU130
 532 0006 18B1     		cbz	r0, .L42
 597:Dsp/widget/wgt_core/widget_mng.c ****     {
 533              		.loc 1 597 5 is_stmt 1 view .LVU131
 597:Dsp/widget/wgt_core/widget_mng.c ****     {
 534              		.loc 1 597 31 is_stmt 0 view .LVU132
 535 0008 C378     		ldrb	r3, [r0, #3]	@ zero_extendqisi2
 597:Dsp/widget/wgt_core/widget_mng.c ****     {
 536              		.loc 1 597 8 view .LVU133
 537 000a 1BB9     		cbnz	r3, .L43
 602:Dsp/widget/wgt_core/widget_mng.c **** }
 538              		.loc 1 602 12 view .LVU134
 539 000c 0220     		movs	r0, #2
 540              	.L41:
 603:Dsp/widget/wgt_core/widget_mng.c **** 
 541              		.loc 1 603 1 view .LVU135
 542 000e 08BD     		pop	{r3, pc}
 543              	.L42:
 595:Dsp/widget/wgt_core/widget_mng.c **** 
 544              		.loc 1 595 16 view .LVU136
 545 0010 0020     		movs	r0, #0
 546 0012 FCE7     		b	.L41
 547              	.L43:
 599:Dsp/widget/wgt_core/widget_mng.c ****     }
 548              		.loc 1 599 16 view .LVU137
 549 0014 0120     		movs	r0, #1
 550 0016 FAE7     		b	.L41
 551              		.cfi_endproc
 552              	.LFE16:
 554              		.section	.text.Widget_MoveTo,"ax",%progbits
 555              		.align	1
 556              		.syntax unified
 557              		.thumb
 558              		.thumb_func
 559              		.fpu fpv4-sp-d16
 561              	Widget_MoveTo:
 562              	.LVL38:
 563              	.LFB17:
 606:Dsp/widget/wgt_core/widget_mng.c ****     if (GetCur_Active_Widget() == NULL)
 564              		.loc 1 606 1 is_stmt 1 view -0
 565              		.cfi_startproc
 566              		@ args = 0, pretend = 0, frame = 0
 567              		@ frame_needed = 0, uses_anonymous_args = 0
 606:Dsp/widget/wgt_core/widget_mng.c ****     if (GetCur_Active_Widget() == NULL)
 568              		.loc 1 606 1 is_stmt 0 view .LVU139
 569 0000 38B5     		push	{r3, r4, r5, lr}
 570              	.LCFI7:
 571              		.cfi_def_cfa_offset 16
 572              		.cfi_offset 3, -16
 573              		.cfi_offset 4, -12
 574              		.cfi_offset 5, -8
 575              		.cfi_offset 14, -4
 576 0002 0546     		mov	r5, r0
 577 0004 0C46     		mov	r4, r1
 607:Dsp/widget/wgt_core/widget_mng.c ****         return false;
 578              		.loc 1 607 5 is_stmt 1 view .LVU140
ARM GAS  /var/folders/lx/hc4sn_b53233_zkc9xbbl97r0000gp/T//cc1nXFCr.s 			page 24


 607:Dsp/widget/wgt_core/widget_mng.c ****         return false;
 579              		.loc 1 607 9 is_stmt 0 view .LVU141
 580 0006 FFF7FEFF 		bl	GetCur_Active_Widget
 581              	.LVL39:
 607:Dsp/widget/wgt_core/widget_mng.c ****         return false;
 582              		.loc 1 607 8 view .LVU142
 583 000a 28B1     		cbz	r0, .L47
 610:Dsp/widget/wgt_core/widget_mng.c ****     GetCur_Active_Widget()->cord_y = y;
 584              		.loc 1 610 5 is_stmt 1 view .LVU143
 610:Dsp/widget/wgt_core/widget_mng.c ****     GetCur_Active_Widget()->cord_y = y;
 585              		.loc 1 610 36 is_stmt 0 view .LVU144
 586 000c 8580     		strh	r5, [r0, #4]	@ unaligned
 611:Dsp/widget/wgt_core/widget_mng.c **** 
 587              		.loc 1 611 5 is_stmt 1 view .LVU145
 588 000e FFF7FEFF 		bl	GetCur_Active_Widget
 589              	.LVL40:
 611:Dsp/widget/wgt_core/widget_mng.c **** 
 590              		.loc 1 611 36 is_stmt 0 view .LVU146
 591 0012 C480     		strh	r4, [r0, #6]	@ unaligned
 613:Dsp/widget/wgt_core/widget_mng.c **** }
 592              		.loc 1 613 5 is_stmt 1 view .LVU147
 613:Dsp/widget/wgt_core/widget_mng.c **** }
 593              		.loc 1 613 12 is_stmt 0 view .LVU148
 594 0014 0120     		movs	r0, #1
 595              	.L46:
 614:Dsp/widget/wgt_core/widget_mng.c **** 
 596              		.loc 1 614 1 view .LVU149
 597 0016 38BD     		pop	{r3, r4, r5, pc}
 598              	.L47:
 608:Dsp/widget/wgt_core/widget_mng.c **** 
 599              		.loc 1 608 16 view .LVU150
 600 0018 0020     		movs	r0, #0
 601 001a FCE7     		b	.L46
 602              		.cfi_endproc
 603              	.LFE17:
 605              		.section	.text.Widget_ClearBlackBoard,"ax",%progbits
 606              		.align	1
 607              		.syntax unified
 608              		.thumb
 609              		.thumb_func
 610              		.fpu fpv4-sp-d16
 612              	Widget_ClearBlackBoard:
 613              	.LFB22:
 641:Dsp/widget/wgt_core/widget_mng.c **** 
 642:Dsp/widget/wgt_core/widget_mng.c **** static Widget_DrawFunc_TypeDef *Widget_Draw(Widget_Handle hdl)
 643:Dsp/widget/wgt_core/widget_mng.c **** {
 644:Dsp/widget/wgt_core/widget_mng.c ****     WidgetObj_TypeDef *widget_tmp = HandleToWidgetObj(hdl);
 645:Dsp/widget/wgt_core/widget_mng.c ****     CurActive_Widget = hdl;
 646:Dsp/widget/wgt_core/widget_mng.c **** 
 647:Dsp/widget/wgt_core/widget_mng.c ****     return widget_tmp->Dsp;
 648:Dsp/widget/wgt_core/widget_mng.c **** }
 649:Dsp/widget/wgt_core/widget_mng.c **** 
 650:Dsp/widget/wgt_core/widget_mng.c **** static bool Widget_ClearBlackBoard(void)
 651:Dsp/widget/wgt_core/widget_mng.c **** {
 614              		.loc 1 651 1 is_stmt 1 view -0
 615              		.cfi_startproc
 616              		@ args = 0, pretend = 0, frame = 8
ARM GAS  /var/folders/lx/hc4sn_b53233_zkc9xbbl97r0000gp/T//cc1nXFCr.s 			page 25


 617              		@ frame_needed = 0, uses_anonymous_args = 0
 618 0000 30B5     		push	{r4, r5, lr}
 619              	.LCFI8:
 620              		.cfi_def_cfa_offset 12
 621              		.cfi_offset 4, -12
 622              		.cfi_offset 5, -8
 623              		.cfi_offset 14, -4
 624 0002 83B0     		sub	sp, sp, #12
 625              	.LCFI9:
 626              		.cfi_def_cfa_offset 24
 652:Dsp/widget/wgt_core/widget_mng.c ****     uint8_t width_max = SrvOled.get_range().width;
 627              		.loc 1 652 5 view .LVU152
 628              		.loc 1 652 32 is_stmt 0 view .LVU153
 629 0004 124D     		ldr	r5, .L60
 630 0006 EB68     		ldr	r3, [r5, #12]
 631              		.loc 1 652 25 view .LVU154
 632 0008 9847     		blx	r3
 633              	.LVL41:
 634 000a ADF80000 		strh	r0, [sp]	@ movhi
 635              		.loc 1 652 13 view .LVU155
 636 000e 9DF80040 		ldrb	r4, [sp]	@ zero_extendqisi2
 637              	.LVL42:
 653:Dsp/widget/wgt_core/widget_mng.c ****     uint8_t height_max = SrvOled.get_range().height;
 638              		.loc 1 653 5 is_stmt 1 view .LVU156
 639              		.loc 1 653 33 is_stmt 0 view .LVU157
 640 0012 EB68     		ldr	r3, [r5, #12]
 641              		.loc 1 653 26 view .LVU158
 642 0014 9847     		blx	r3
 643              	.LVL43:
 644 0016 ADF80400 		strh	r0, [sp, #4]	@ movhi
 645              		.loc 1 653 13 view .LVU159
 646 001a 9DF80550 		ldrb	r5, [sp, #5]	@ zero_extendqisi2
 647              	.LVL44:
 654:Dsp/widget/wgt_core/widget_mng.c **** 
 655:Dsp/widget/wgt_core/widget_mng.c ****     for (uint8_t height = 0; height < height_max; height++)
 648              		.loc 1 655 5 is_stmt 1 view .LVU160
 649              	.LBB9:
 650              		.loc 1 655 10 view .LVU161
 651              		.loc 1 655 18 is_stmt 0 view .LVU162
 652 001e 0020     		movs	r0, #0
 653              	.LVL45:
 654              	.L50:
 655              		.loc 1 655 30 is_stmt 1 discriminator 1 view .LVU163
 656              		.loc 1 655 5 is_stmt 0 discriminator 1 view .LVU164
 657 0020 A842     		cmp	r0, r5
 658 0022 13D2     		bcs	.L57
 659              	.LBB10:
 656:Dsp/widget/wgt_core/widget_mng.c ****     {
 657:Dsp/widget/wgt_core/widget_mng.c ****         for (uint8_t width = 0; width < width_max; width++)
 660              		.loc 1 657 22 view .LVU165
 661 0024 0023     		movs	r3, #0
 662 0026 05E0     		b	.L53
 663              	.LVL46:
 664              	.L59:
 658:Dsp/widget/wgt_core/widget_mng.c ****         {
 659:Dsp/widget/wgt_core/widget_mng.c ****             if (widget_blackboard != NULL)
 660:Dsp/widget/wgt_core/widget_mng.c ****             {
ARM GAS  /var/folders/lx/hc4sn_b53233_zkc9xbbl97r0000gp/T//cc1nXFCr.s 			page 26


 661:Dsp/widget/wgt_core/widget_mng.c ****                 widget_blackboard[height][width] = 0x00;
 665              		.loc 1 661 17 is_stmt 1 view .LVU166
 666              		.loc 1 661 34 is_stmt 0 view .LVU167
 667 0028 52F82020 		ldr	r2, [r2, r0, lsl #2]
 668              		.loc 1 661 50 view .LVU168
 669 002c 0021     		movs	r1, #0
 670 002e D154     		strb	r1, [r2, r3]
 657:Dsp/widget/wgt_core/widget_mng.c ****         {
 671              		.loc 1 657 52 is_stmt 1 view .LVU169
 657:Dsp/widget/wgt_core/widget_mng.c ****         {
 672              		.loc 1 657 57 is_stmt 0 view .LVU170
 673 0030 0133     		adds	r3, r3, #1
 674              	.LVL47:
 657:Dsp/widget/wgt_core/widget_mng.c ****         {
 675              		.loc 1 657 57 view .LVU171
 676 0032 DBB2     		uxtb	r3, r3
 677              	.LVL48:
 678              	.L53:
 657:Dsp/widget/wgt_core/widget_mng.c ****         {
 679              		.loc 1 657 33 is_stmt 1 discriminator 1 view .LVU172
 657:Dsp/widget/wgt_core/widget_mng.c ****         {
 680              		.loc 1 657 9 is_stmt 0 discriminator 1 view .LVU173
 681 0034 A342     		cmp	r3, r4
 682 0036 06D2     		bcs	.L58
 659:Dsp/widget/wgt_core/widget_mng.c ****             {
 683              		.loc 1 659 13 is_stmt 1 view .LVU174
 659:Dsp/widget/wgt_core/widget_mng.c ****             {
 684              		.loc 1 659 35 is_stmt 0 view .LVU175
 685 0038 064A     		ldr	r2, .L60+4
 686 003a 1268     		ldr	r2, [r2]
 659:Dsp/widget/wgt_core/widget_mng.c ****             {
 687              		.loc 1 659 16 view .LVU176
 688 003c 002A     		cmp	r2, #0
 689 003e F3D1     		bne	.L59
 662:Dsp/widget/wgt_core/widget_mng.c ****             }
 663:Dsp/widget/wgt_core/widget_mng.c ****             else
 664:Dsp/widget/wgt_core/widget_mng.c ****                 return false;
 690              		.loc 1 664 24 view .LVU177
 691 0040 0020     		movs	r0, #0
 692              	.LVL49:
 693              	.L51:
 694              		.loc 1 664 24 view .LVU178
 695              	.LBE10:
 696              	.LBE9:
 665:Dsp/widget/wgt_core/widget_mng.c ****         }
 666:Dsp/widget/wgt_core/widget_mng.c ****     }
 667:Dsp/widget/wgt_core/widget_mng.c **** 
 668:Dsp/widget/wgt_core/widget_mng.c ****     return true;
 669:Dsp/widget/wgt_core/widget_mng.c **** }
 697              		.loc 1 669 1 view .LVU179
 698 0042 03B0     		add	sp, sp, #12
 699              	.LCFI10:
 700              		.cfi_remember_state
 701              		.cfi_def_cfa_offset 12
 702              		@ sp needed
 703 0044 30BD     		pop	{r4, r5, pc}
 704              	.LVL50:
ARM GAS  /var/folders/lx/hc4sn_b53233_zkc9xbbl97r0000gp/T//cc1nXFCr.s 			page 27


 705              	.L58:
 706              	.LCFI11:
 707              		.cfi_restore_state
 708              	.LBB11:
 655:Dsp/widget/wgt_core/widget_mng.c ****     {
 709              		.loc 1 655 51 is_stmt 1 discriminator 2 view .LVU180
 655:Dsp/widget/wgt_core/widget_mng.c ****     {
 710              		.loc 1 655 57 is_stmt 0 discriminator 2 view .LVU181
 711 0046 0130     		adds	r0, r0, #1
 712              	.LVL51:
 655:Dsp/widget/wgt_core/widget_mng.c ****     {
 713              		.loc 1 655 57 discriminator 2 view .LVU182
 714 0048 C0B2     		uxtb	r0, r0
 715              	.LVL52:
 655:Dsp/widget/wgt_core/widget_mng.c ****     {
 716              		.loc 1 655 57 discriminator 2 view .LVU183
 717 004a E9E7     		b	.L50
 718              	.LVL53:
 719              	.L57:
 655:Dsp/widget/wgt_core/widget_mng.c ****     {
 720              		.loc 1 655 57 discriminator 2 view .LVU184
 721              	.LBE11:
 668:Dsp/widget/wgt_core/widget_mng.c **** }
 722              		.loc 1 668 12 view .LVU185
 723 004c 0120     		movs	r0, #1
 724              	.LVL54:
 725              	.LBB12:
 668:Dsp/widget/wgt_core/widget_mng.c **** }
 726              		.loc 1 668 12 view .LVU186
 727 004e F8E7     		b	.L51
 728              	.L61:
 729              		.align	2
 730              	.L60:
 731 0050 00000000 		.word	SrvOled
 732 0054 00000000 		.word	.LANCHOR1
 733              	.LBE12:
 734              		.cfi_endproc
 735              	.LFE22:
 737              		.section	.text.Widget_SetErrorState,"ax",%progbits
 738              		.align	1
 739              		.syntax unified
 740              		.thumb
 741              		.thumb_func
 742              		.fpu fpv4-sp-d16
 744              	Widget_SetErrorState:
 745              	.LVL55:
 746              	.LFB25:
 670:Dsp/widget/wgt_core/widget_mng.c **** 
 671:Dsp/widget/wgt_core/widget_mng.c **** static int Widget_Fusion(item_obj *item, WidgetObj_TypeDef *obj, void *arg)
 672:Dsp/widget/wgt_core/widget_mng.c **** {
 673:Dsp/widget/wgt_core/widget_mng.c ****     if ((obj->cord_x == 0) &&
 674:Dsp/widget/wgt_core/widget_mng.c ****         (obj->cord_y == 0) &&
 675:Dsp/widget/wgt_core/widget_mng.c ****         (obj->width >= SrvOled.get_range().width) &&
 676:Dsp/widget/wgt_core/widget_mng.c ****         (obj->height >= SrvOled.get_range().height))
 677:Dsp/widget/wgt_core/widget_mng.c ****     {
 678:Dsp/widget/wgt_core/widget_mng.c ****         for (uint8_t row = 0; row < SrvOled.get_range().height; row++)
 679:Dsp/widget/wgt_core/widget_mng.c ****         {
ARM GAS  /var/folders/lx/hc4sn_b53233_zkc9xbbl97r0000gp/T//cc1nXFCr.s 			page 28


 680:Dsp/widget/wgt_core/widget_mng.c ****             memcpy(&widget_blackboard[row][0], NULL, SrvOled.get_range().width);
 681:Dsp/widget/wgt_core/widget_mng.c ****             memcpy(&widget_blackboard[row][0], obj->pixel_map[row], SrvOled.get_range().width);
 682:Dsp/widget/wgt_core/widget_mng.c ****         }
 683:Dsp/widget/wgt_core/widget_mng.c ****     }
 684:Dsp/widget/wgt_core/widget_mng.c ****     else
 685:Dsp/widget/wgt_core/widget_mng.c ****     {
 686:Dsp/widget/wgt_core/widget_mng.c ****         for (uint8_t row = obj->cord_y; row < (obj->cord_y + obj->height); row++)
 687:Dsp/widget/wgt_core/widget_mng.c ****         {
 688:Dsp/widget/wgt_core/widget_mng.c ****             memset(&widget_blackboard[row][obj->cord_x], NULL, obj->width);
 689:Dsp/widget/wgt_core/widget_mng.c ****             memcpy(&widget_blackboard[row][obj->cord_x], obj->pixel_map[row - obj->cord_y], obj->wi
 690:Dsp/widget/wgt_core/widget_mng.c ****         }
 691:Dsp/widget/wgt_core/widget_mng.c ****     }
 692:Dsp/widget/wgt_core/widget_mng.c **** 
 693:Dsp/widget/wgt_core/widget_mng.c ****     return 0;
 694:Dsp/widget/wgt_core/widget_mng.c **** }
 695:Dsp/widget/wgt_core/widget_mng.c **** 
 696:Dsp/widget/wgt_core/widget_mng.c **** static uint8_t Widget_GetError(void)
 697:Dsp/widget/wgt_core/widget_mng.c **** {
 698:Dsp/widget/wgt_core/widget_mng.c ****     return Error_Code;
 699:Dsp/widget/wgt_core/widget_mng.c **** }
 700:Dsp/widget/wgt_core/widget_mng.c **** 
 701:Dsp/widget/wgt_core/widget_mng.c **** static void Widget_SetErrorState(Widget_Error_TypeDef error)
 702:Dsp/widget/wgt_core/widget_mng.c **** {
 747              		.loc 1 702 1 is_stmt 1 view -0
 748              		.cfi_startproc
 749              		@ args = 0, pretend = 0, frame = 0
 750              		@ frame_needed = 0, uses_anonymous_args = 0
 751              		@ link register save eliminated.
 703:Dsp/widget/wgt_core/widget_mng.c ****     Error_Code |= Set_ErrorStateBIT(error);
 752              		.loc 1 703 5 view .LVU188
 753              		.loc 1 703 19 is_stmt 0 view .LVU189
 754 0000 0123     		movs	r3, #1
 755 0002 8340     		lsls	r3, r3, r0
 756              		.loc 1 703 16 view .LVU190
 757 0004 024A     		ldr	r2, .L63
 758 0006 1078     		ldrb	r0, [r2]	@ zero_extendqisi2
 759              	.LVL56:
 760              		.loc 1 703 16 view .LVU191
 761 0008 1843     		orrs	r0, r0, r3
 762 000a 1070     		strb	r0, [r2]
 704:Dsp/widget/wgt_core/widget_mng.c **** }
 763              		.loc 1 704 1 view .LVU192
 764 000c 7047     		bx	lr
 765              	.L64:
 766 000e 00BF     		.align	2
 767              	.L63:
 768 0010 00000000 		.word	.LANCHOR3
 769              		.cfi_endproc
 770              	.LFE25:
 772              		.section	.text.Widget_GetFreshState,"ax",%progbits
 773              		.align	1
 774              		.syntax unified
 775              		.thumb
 776              		.thumb_func
 777              		.fpu fpv4-sp-d16
 779              	Widget_GetFreshState:
 780              	.LFB29:
ARM GAS  /var/folders/lx/hc4sn_b53233_zkc9xbbl97r0000gp/T//cc1nXFCr.s 			page 29


 705:Dsp/widget/wgt_core/widget_mng.c **** 
 706:Dsp/widget/wgt_core/widget_mng.c **** static void Widget_clearAllErrorState(Widget_Error_TypeDef error)
 707:Dsp/widget/wgt_core/widget_mng.c **** {
 708:Dsp/widget/wgt_core/widget_mng.c ****     Error_Code = 0;
 709:Dsp/widget/wgt_core/widget_mng.c **** }
 710:Dsp/widget/wgt_core/widget_mng.c **** 
 711:Dsp/widget/wgt_core/widget_mng.c **** static void Widget_ClearErrorState(Widget_Error_TypeDef error)
 712:Dsp/widget/wgt_core/widget_mng.c **** {
 713:Dsp/widget/wgt_core/widget_mng.c ****     Error_Code &= Clr_ErrorStateBIT(error);
 714:Dsp/widget/wgt_core/widget_mng.c **** }
 715:Dsp/widget/wgt_core/widget_mng.c **** 
 716:Dsp/widget/wgt_core/widget_mng.c **** static bool Widgte_CheckErrorState(Widget_Error_TypeDef error)
 717:Dsp/widget/wgt_core/widget_mng.c **** {
 718:Dsp/widget/wgt_core/widget_mng.c ****     uint8_t check_error = 0;
 719:Dsp/widget/wgt_core/widget_mng.c **** 
 720:Dsp/widget/wgt_core/widget_mng.c ****     if (Error_Code == 0)
 721:Dsp/widget/wgt_core/widget_mng.c ****         return false;
 722:Dsp/widget/wgt_core/widget_mng.c **** 
 723:Dsp/widget/wgt_core/widget_mng.c ****     check_error |= Set_ErrorStateBIT(error);
 724:Dsp/widget/wgt_core/widget_mng.c **** 
 725:Dsp/widget/wgt_core/widget_mng.c ****     if (Error_Code & check_error)
 726:Dsp/widget/wgt_core/widget_mng.c ****     {
 727:Dsp/widget/wgt_core/widget_mng.c ****         return true;
 728:Dsp/widget/wgt_core/widget_mng.c ****     }
 729:Dsp/widget/wgt_core/widget_mng.c ****     else
 730:Dsp/widget/wgt_core/widget_mng.c ****         return false;
 731:Dsp/widget/wgt_core/widget_mng.c **** }
 732:Dsp/widget/wgt_core/widget_mng.c **** 
 733:Dsp/widget/wgt_core/widget_mng.c **** static uint8_t Widget_GetFreshState(void)
 734:Dsp/widget/wgt_core/widget_mng.c **** {
 781              		.loc 1 734 1 is_stmt 1 view -0
 782              		.cfi_startproc
 783              		@ args = 0, pretend = 0, frame = 0
 784              		@ frame_needed = 0, uses_anonymous_args = 0
 785              		@ link register save eliminated.
 735:Dsp/widget/wgt_core/widget_mng.c ****     return WidgetFresh_Reg;
 786              		.loc 1 735 5 view .LVU194
 736:Dsp/widget/wgt_core/widget_mng.c **** }
 787              		.loc 1 736 1 is_stmt 0 view .LVU195
 788 0000 014B     		ldr	r3, .L66
 789 0002 1878     		ldrb	r0, [r3]	@ zero_extendqisi2
 790 0004 7047     		bx	lr
 791              	.L67:
 792 0006 00BF     		.align	2
 793              	.L66:
 794 0008 00000000 		.word	.LANCHOR4
 795              		.cfi_endproc
 796              	.LFE29:
 798              		.section	.text.Widget_SetFreshState,"ax",%progbits
 799              		.align	1
 800              		.syntax unified
 801              		.thumb
 802              		.thumb_func
 803              		.fpu fpv4-sp-d16
 805              	Widget_SetFreshState:
 806              	.LVL57:
 807              	.LFB31:
ARM GAS  /var/folders/lx/hc4sn_b53233_zkc9xbbl97r0000gp/T//cc1nXFCr.s 			page 30


 737:Dsp/widget/wgt_core/widget_mng.c **** 
 738:Dsp/widget/wgt_core/widget_mng.c **** static void Widget_ClearAllFreshState(void)
 739:Dsp/widget/wgt_core/widget_mng.c **** {
 740:Dsp/widget/wgt_core/widget_mng.c ****     WidgetFresh_Reg = 0;
 741:Dsp/widget/wgt_core/widget_mng.c **** }
 742:Dsp/widget/wgt_core/widget_mng.c **** 
 743:Dsp/widget/wgt_core/widget_mng.c **** static void Widget_SetFreshState(WidgetFresh_State_List state)
 744:Dsp/widget/wgt_core/widget_mng.c **** {
 808              		.loc 1 744 1 is_stmt 1 view -0
 809              		.cfi_startproc
 810              		@ args = 0, pretend = 0, frame = 0
 811              		@ frame_needed = 0, uses_anonymous_args = 0
 812              		@ link register save eliminated.
 745:Dsp/widget/wgt_core/widget_mng.c ****     if (WidgetFresh_Reg & (1 << Fresh_State_DrvError))
 813              		.loc 1 745 5 view .LVU197
 814              		.loc 1 745 25 is_stmt 0 view .LVU198
 815 0000 054B     		ldr	r3, .L70
 816 0002 1A78     		ldrb	r2, [r3]	@ zero_extendqisi2
 817              		.loc 1 745 8 view .LVU199
 818 0004 12F0020F 		tst	r2, #2
 819 0008 05D1     		bne	.L68
 746:Dsp/widget/wgt_core/widget_mng.c ****     {
 747:Dsp/widget/wgt_core/widget_mng.c ****         return;
 748:Dsp/widget/wgt_core/widget_mng.c ****     }
 749:Dsp/widget/wgt_core/widget_mng.c **** 
 750:Dsp/widget/wgt_core/widget_mng.c ****     WidgetFresh_Reg |= Set_FreshStateBIT(state);
 820              		.loc 1 750 5 is_stmt 1 view .LVU200
 821              		.loc 1 750 24 is_stmt 0 view .LVU201
 822 000a 0123     		movs	r3, #1
 823 000c 03FA00F0 		lsl	r0, r3, r0
 824              	.LVL58:
 825              		.loc 1 750 21 view .LVU202
 826 0010 1043     		orrs	r0, r0, r2
 827 0012 014B     		ldr	r3, .L70
 828 0014 1870     		strb	r0, [r3]
 829              	.L68:
 751:Dsp/widget/wgt_core/widget_mng.c **** }
 830              		.loc 1 751 1 view .LVU203
 831 0016 7047     		bx	lr
 832              	.L71:
 833              		.align	2
 834              	.L70:
 835 0018 00000000 		.word	.LANCHOR4
 836              		.cfi_endproc
 837              	.LFE31:
 839              		.section	.text.Widget_ClearFreshState,"ax",%progbits
 840              		.align	1
 841              		.syntax unified
 842              		.thumb
 843              		.thumb_func
 844              		.fpu fpv4-sp-d16
 846              	Widget_ClearFreshState:
 847              	.LVL59:
 848              	.LFB32:
 752:Dsp/widget/wgt_core/widget_mng.c **** 
 753:Dsp/widget/wgt_core/widget_mng.c **** static void Widget_ClearFreshState(WidgetFresh_State_List state)
 754:Dsp/widget/wgt_core/widget_mng.c **** {
ARM GAS  /var/folders/lx/hc4sn_b53233_zkc9xbbl97r0000gp/T//cc1nXFCr.s 			page 31


 849              		.loc 1 754 1 is_stmt 1 view -0
 850              		.cfi_startproc
 851              		@ args = 0, pretend = 0, frame = 0
 852              		@ frame_needed = 0, uses_anonymous_args = 0
 853              		@ link register save eliminated.
 755:Dsp/widget/wgt_core/widget_mng.c ****     WidgetFresh_Reg &= Clr_FreshStateBIT(state);
 854              		.loc 1 755 5 view .LVU205
 855              		.loc 1 755 24 is_stmt 0 view .LVU206
 856 0000 0123     		movs	r3, #1
 857 0002 8340     		lsls	r3, r3, r0
 858              		.loc 1 755 21 view .LVU207
 859 0004 024A     		ldr	r2, .L73
 860 0006 1078     		ldrb	r0, [r2]	@ zero_extendqisi2
 861              	.LVL60:
 862              		.loc 1 755 21 view .LVU208
 863 0008 20EA0300 		bic	r0, r0, r3
 864 000c 1070     		strb	r0, [r2]
 756:Dsp/widget/wgt_core/widget_mng.c **** }
 865              		.loc 1 756 1 view .LVU209
 866 000e 7047     		bx	lr
 867              	.L74:
 868              		.align	2
 869              	.L73:
 870 0010 00000000 		.word	.LANCHOR4
 871              		.cfi_endproc
 872              	.LFE32:
 874              		.section	.text.Widget_DrawPoint,"ax",%progbits
 875              		.align	1
 876              		.syntax unified
 877              		.thumb
 878              		.thumb_func
 879              		.fpu fpv4-sp-d16
 881              	Widget_DrawPoint:
 882              	.LVL61:
 883              	.LFB34:
 757:Dsp/widget/wgt_core/widget_mng.c **** 
 758:Dsp/widget/wgt_core/widget_mng.c **** //fresh all widget
 759:Dsp/widget/wgt_core/widget_mng.c **** static bool Widget_FreshAll(void)
 760:Dsp/widget/wgt_core/widget_mng.c **** {
 761:Dsp/widget/wgt_core/widget_mng.c ****     static uint8_t reg_checker = 0;
 762:Dsp/widget/wgt_core/widget_mng.c ****     WidgetObj_TypeDef *tmp = NULL;
 763:Dsp/widget/wgt_core/widget_mng.c **** 
 764:Dsp/widget/wgt_core/widget_mng.c ****     if (Widget_GetFreshState() & Set_FreshStateBIT(Fresh_State_Sleep))
 765:Dsp/widget/wgt_core/widget_mng.c ****     {
 766:Dsp/widget/wgt_core/widget_mng.c ****         Widget_SetFreshState(Fresh_State_Prepare);
 767:Dsp/widget/wgt_core/widget_mng.c ****         reg_checker = 0;
 768:Dsp/widget/wgt_core/widget_mng.c ****     }
 769:Dsp/widget/wgt_core/widget_mng.c **** 
 770:Dsp/widget/wgt_core/widget_mng.c ****     while (Widget_GetFreshState())
 771:Dsp/widget/wgt_core/widget_mng.c ****     {
 772:Dsp/widget/wgt_core/widget_mng.c ****         if ((1 << reg_checker) & Widget_GetFreshState())
 773:Dsp/widget/wgt_core/widget_mng.c ****         {
 774:Dsp/widget/wgt_core/widget_mng.c ****             switch (reg_checker)
 775:Dsp/widget/wgt_core/widget_mng.c ****             {
 776:Dsp/widget/wgt_core/widget_mng.c ****             case Fresh_State_DrvInit:
 777:Dsp/widget/wgt_core/widget_mng.c ****                 if (SrvOled.init())
 778:Dsp/widget/wgt_core/widget_mng.c ****                 {
ARM GAS  /var/folders/lx/hc4sn_b53233_zkc9xbbl97r0000gp/T//cc1nXFCr.s 			page 32


 779:Dsp/widget/wgt_core/widget_mng.c ****                     Widget_ClearFreshState(Fresh_State_DrvInit);
 780:Dsp/widget/wgt_core/widget_mng.c ****                     Widget_SetFreshState(Fresh_State_Prepare);
 781:Dsp/widget/wgt_core/widget_mng.c ****                 }
 782:Dsp/widget/wgt_core/widget_mng.c ****                 else
 783:Dsp/widget/wgt_core/widget_mng.c ****                 {
 784:Dsp/widget/wgt_core/widget_mng.c ****                     Widget_SetErrorState(Widget_ScreenInit_Error);
 785:Dsp/widget/wgt_core/widget_mng.c ****                     Widget_SetFreshState(Fresh_State_DrvError);
 786:Dsp/widget/wgt_core/widget_mng.c ****                 }
 787:Dsp/widget/wgt_core/widget_mng.c ****                 break;
 788:Dsp/widget/wgt_core/widget_mng.c **** 
 789:Dsp/widget/wgt_core/widget_mng.c ****             case Fresh_State_Prepare:
 790:Dsp/widget/wgt_core/widget_mng.c ****                 if (Widget_ClearBlackBoard())
 791:Dsp/widget/wgt_core/widget_mng.c ****                 {
 792:Dsp/widget/wgt_core/widget_mng.c ****                     Widget_ClearFreshState(Fresh_State_Prepare);
 793:Dsp/widget/wgt_core/widget_mng.c ****                     Widget_SetFreshState(Fresh_State_Reguler);
 794:Dsp/widget/wgt_core/widget_mng.c ****                 }
 795:Dsp/widget/wgt_core/widget_mng.c ****                 else
 796:Dsp/widget/wgt_core/widget_mng.c ****                     Widget_SetFreshState(Fresh_State_DrvError);
 797:Dsp/widget/wgt_core/widget_mng.c ****                 break;
 798:Dsp/widget/wgt_core/widget_mng.c **** 
 799:Dsp/widget/wgt_core/widget_mng.c ****             case Fresh_State_Reguler:
 800:Dsp/widget/wgt_core/widget_mng.c ****                 if (MonitorDataObj.created_widget > 0)
 801:Dsp/widget/wgt_core/widget_mng.c ****                 {
 802:Dsp/widget/wgt_core/widget_mng.c ****                     if (MonitorDataObj.on_show >= 1)
 803:Dsp/widget/wgt_core/widget_mng.c ****                     {
 804:Dsp/widget/wgt_core/widget_mng.c ****                         if (List_traverse(MonitorDataObj.widget_dsp_list, Widget_Fusion, NULL, pre_
 805:Dsp/widget/wgt_core/widget_mng.c ****                         {
 806:Dsp/widget/wgt_core/widget_mng.c ****                             Widget_RoutateBlackboard();
 807:Dsp/widget/wgt_core/widget_mng.c ****                             Widget_MirrorBlackboard();
 808:Dsp/widget/wgt_core/widget_mng.c ****                             SrvOled.fresh(widget_blackboard);
 809:Dsp/widget/wgt_core/widget_mng.c ****                         }
 810:Dsp/widget/wgt_core/widget_mng.c ****                         else
 811:Dsp/widget/wgt_core/widget_mng.c ****                         {
 812:Dsp/widget/wgt_core/widget_mng.c ****                             Widget_SetErrorState(Widget_DisplapList_Error);
 813:Dsp/widget/wgt_core/widget_mng.c ****                             Widget_SetFreshState(Fresh_State_DrvError);
 814:Dsp/widget/wgt_core/widget_mng.c ****                             break;
 815:Dsp/widget/wgt_core/widget_mng.c ****                         }
 816:Dsp/widget/wgt_core/widget_mng.c ****                     }
 817:Dsp/widget/wgt_core/widget_mng.c ****                     else
 818:Dsp/widget/wgt_core/widget_mng.c ****                     {
 819:Dsp/widget/wgt_core/widget_mng.c ****                         Widget_SetErrorState(Widget_DisplayItem_None);
 820:Dsp/widget/wgt_core/widget_mng.c ****                         Widget_SetFreshState(Fresh_State_DrvError);
 821:Dsp/widget/wgt_core/widget_mng.c ****                         break;
 822:Dsp/widget/wgt_core/widget_mng.c ****                     }
 823:Dsp/widget/wgt_core/widget_mng.c **** 
 824:Dsp/widget/wgt_core/widget_mng.c ****                     Widget_ClearFreshState(Fresh_State_Reguler);
 825:Dsp/widget/wgt_core/widget_mng.c ****                     Widget_SetFreshState(Fresh_State_Sleep);
 826:Dsp/widget/wgt_core/widget_mng.c ****                 }
 827:Dsp/widget/wgt_core/widget_mng.c ****                 break;
 828:Dsp/widget/wgt_core/widget_mng.c **** 
 829:Dsp/widget/wgt_core/widget_mng.c ****             case Fresh_State_Sleep:
 830:Dsp/widget/wgt_core/widget_mng.c ****                 return true;
 831:Dsp/widget/wgt_core/widget_mng.c **** 
 832:Dsp/widget/wgt_core/widget_mng.c ****             case Fresh_State_DrvError:
 833:Dsp/widget/wgt_core/widget_mng.c ****                 return false;
 834:Dsp/widget/wgt_core/widget_mng.c **** 
 835:Dsp/widget/wgt_core/widget_mng.c ****             default:
ARM GAS  /var/folders/lx/hc4sn_b53233_zkc9xbbl97r0000gp/T//cc1nXFCr.s 			page 33


 836:Dsp/widget/wgt_core/widget_mng.c ****                 return false;
 837:Dsp/widget/wgt_core/widget_mng.c ****             }
 838:Dsp/widget/wgt_core/widget_mng.c ****         }
 839:Dsp/widget/wgt_core/widget_mng.c **** 
 840:Dsp/widget/wgt_core/widget_mng.c ****         reg_checker++;
 841:Dsp/widget/wgt_core/widget_mng.c **** 
 842:Dsp/widget/wgt_core/widget_mng.c ****         if (reg_checker == Fresh_State_Sum)
 843:Dsp/widget/wgt_core/widget_mng.c ****         {
 844:Dsp/widget/wgt_core/widget_mng.c ****             reg_checker = 0;
 845:Dsp/widget/wgt_core/widget_mng.c ****         }
 846:Dsp/widget/wgt_core/widget_mng.c ****     }
 847:Dsp/widget/wgt_core/widget_mng.c **** }
 848:Dsp/widget/wgt_core/widget_mng.c **** 
 849:Dsp/widget/wgt_core/widget_mng.c **** /************************************** widget draw interface *************************************
 850:Dsp/widget/wgt_core/widget_mng.c **** static void Widget_DrawPoint(int16_t x, int16_t y, bool set)
 851:Dsp/widget/wgt_core/widget_mng.c **** {
 884              		.loc 1 851 1 is_stmt 1 view -0
 885              		.cfi_startproc
 886              		@ args = 0, pretend = 0, frame = 0
 887              		@ frame_needed = 0, uses_anonymous_args = 0
 888              		.loc 1 851 1 is_stmt 0 view .LVU211
 889 0000 2DE9F843 		push	{r3, r4, r5, r6, r7, r8, r9, lr}
 890              	.LCFI12:
 891              		.cfi_def_cfa_offset 32
 892              		.cfi_offset 3, -32
 893              		.cfi_offset 4, -28
 894              		.cfi_offset 5, -24
 895              		.cfi_offset 6, -20
 896              		.cfi_offset 7, -16
 897              		.cfi_offset 8, -12
 898              		.cfi_offset 9, -8
 899              		.cfi_offset 14, -4
 900 0004 8146     		mov	r9, r0
 901 0006 0E46     		mov	r6, r1
 902 0008 1746     		mov	r7, r2
 852:Dsp/widget/wgt_core/widget_mng.c ****     WidgetObj_TypeDef *tmp = GetCur_Active_Widget();
 903              		.loc 1 852 5 is_stmt 1 view .LVU212
 904              		.loc 1 852 30 is_stmt 0 view .LVU213
 905 000a FFF7FEFF 		bl	GetCur_Active_Widget
 906              	.LVL62:
 907              		.loc 1 852 30 view .LVU214
 908 000e 0446     		mov	r4, r0
 909              	.LVL63:
 853:Dsp/widget/wgt_core/widget_mng.c **** 
 854:Dsp/widget/wgt_core/widget_mng.c ****     GenDsp_Interface.set_range(tmp->cord_x,
 910              		.loc 1 854 5 is_stmt 1 view .LVU215
 911              		.loc 1 854 21 is_stmt 0 view .LVU216
 912 0010 DFF82880 		ldr	r8, .L77
 913              		.loc 1 854 5 view .LVU217
 914 0014 437A     		ldrb	r3, [r0, #9]	@ zero_extendqisi2
 915 0016 027A     		ldrb	r2, [r0, #8]	@ zero_extendqisi2
 916 0018 B0F90610 		ldrsh	r1, [r0, #6]	@ unaligned
 917 001c B0F90400 		ldrsh	r0, [r0, #4]	@ unaligned
 918              	.LVL64:
 919              		.loc 1 854 5 view .LVU218
 920 0020 D8F80050 		ldr	r5, [r8]
 921 0024 A847     		blx	r5
ARM GAS  /var/folders/lx/hc4sn_b53233_zkc9xbbl97r0000gp/T//cc1nXFCr.s 			page 34


 922              	.LVL65:
 855:Dsp/widget/wgt_core/widget_mng.c ****                                tmp->cord_y,
 856:Dsp/widget/wgt_core/widget_mng.c ****                                tmp->width,
 857:Dsp/widget/wgt_core/widget_mng.c ****                                tmp->height);
 858:Dsp/widget/wgt_core/widget_mng.c **** 
 859:Dsp/widget/wgt_core/widget_mng.c ****     GenDsp_Interface.draw_point(tmp->pixel_map,
 923              		.loc 1 859 5 is_stmt 1 view .LVU219
 924              		.loc 1 859 21 is_stmt 0 view .LVU220
 925 0026 D8F80480 		ldr	r8, [r8, #4]
 926              		.loc 1 859 5 view .LVU221
 927 002a 3B46     		mov	r3, r7
 928 002c 3246     		mov	r2, r6
 929 002e 4946     		mov	r1, r9
 930 0030 D4F80A00 		ldr	r0, [r4, #10]	@ unaligned
 931 0034 C047     		blx	r8
 932              	.LVL66:
 860:Dsp/widget/wgt_core/widget_mng.c ****                                 x,
 861:Dsp/widget/wgt_core/widget_mng.c ****                                 y,
 862:Dsp/widget/wgt_core/widget_mng.c ****                                 set);
 863:Dsp/widget/wgt_core/widget_mng.c **** }
 933              		.loc 1 863 1 view .LVU222
 934 0036 BDE8F883 		pop	{r3, r4, r5, r6, r7, r8, r9, pc}
 935              	.LVL67:
 936              	.L78:
 937              		.loc 1 863 1 view .LVU223
 938 003a 00BF     		.align	2
 939              	.L77:
 940 003c 00000000 		.word	GenDsp_Interface
 941              		.cfi_endproc
 942              	.LFE34:
 944              		.section	.text.Widget_DrawNum,"ax",%progbits
 945              		.align	1
 946              		.syntax unified
 947              		.thumb
 948              		.thumb_func
 949              		.fpu fpv4-sp-d16
 951              	Widget_DrawNum:
 952              	.LVL68:
 953              	.LFB35:
 864:Dsp/widget/wgt_core/widget_mng.c **** 
 865:Dsp/widget/wgt_core/widget_mng.c **** static void Widget_DrawNum(Widget_Font font, int32_t num, int16_t x, int16_t y, bool col_cnv)
 866:Dsp/widget/wgt_core/widget_mng.c **** {
 954              		.loc 1 866 1 is_stmt 1 view -0
 955              		.cfi_startproc
 956              		@ args = 4, pretend = 0, frame = 0
 957              		@ frame_needed = 0, uses_anonymous_args = 0
 958              		.loc 1 866 1 is_stmt 0 view .LVU225
 959 0000 2DE9F047 		push	{r4, r5, r6, r7, r8, r9, r10, lr}
 960              	.LCFI13:
 961              		.cfi_def_cfa_offset 32
 962              		.cfi_offset 4, -32
 963              		.cfi_offset 5, -28
 964              		.cfi_offset 6, -24
 965              		.cfi_offset 7, -20
 966              		.cfi_offset 8, -16
 967              		.cfi_offset 9, -12
 968              		.cfi_offset 10, -8
ARM GAS  /var/folders/lx/hc4sn_b53233_zkc9xbbl97r0000gp/T//cc1nXFCr.s 			page 35


 969              		.cfi_offset 14, -4
 970 0004 82B0     		sub	sp, sp, #8
 971              	.LCFI14:
 972              		.cfi_def_cfa_offset 40
 973 0006 8246     		mov	r10, r0
 974 0008 0E46     		mov	r6, r1
 975 000a 1746     		mov	r7, r2
 976 000c 9846     		mov	r8, r3
 867:Dsp/widget/wgt_core/widget_mng.c ****     WidgetObj_TypeDef *tmp = GetCur_Active_Widget();
 977              		.loc 1 867 5 is_stmt 1 view .LVU226
 978              		.loc 1 867 30 is_stmt 0 view .LVU227
 979 000e FFF7FEFF 		bl	GetCur_Active_Widget
 980              	.LVL69:
 981              		.loc 1 867 30 view .LVU228
 982 0012 0446     		mov	r4, r0
 983              	.LVL70:
 868:Dsp/widget/wgt_core/widget_mng.c **** 
 869:Dsp/widget/wgt_core/widget_mng.c ****     GenDsp_Interface.set_range(tmp->cord_x,
 984              		.loc 1 869 5 is_stmt 1 view .LVU229
 985              		.loc 1 869 21 is_stmt 0 view .LVU230
 986 0014 DFF83490 		ldr	r9, .L81
 987              		.loc 1 869 5 view .LVU231
 988 0018 437A     		ldrb	r3, [r0, #9]	@ zero_extendqisi2
 989 001a 027A     		ldrb	r2, [r0, #8]	@ zero_extendqisi2
 990 001c B0F90610 		ldrsh	r1, [r0, #6]	@ unaligned
 991 0020 B0F90400 		ldrsh	r0, [r0, #4]	@ unaligned
 992              	.LVL71:
 993              		.loc 1 869 5 view .LVU232
 994 0024 D9F80050 		ldr	r5, [r9]
 995 0028 A847     		blx	r5
 996              	.LVL72:
 870:Dsp/widget/wgt_core/widget_mng.c ****                                tmp->cord_y,
 871:Dsp/widget/wgt_core/widget_mng.c ****                                tmp->width,
 872:Dsp/widget/wgt_core/widget_mng.c ****                                tmp->height);
 873:Dsp/widget/wgt_core/widget_mng.c **** 
 874:Dsp/widget/wgt_core/widget_mng.c ****     GenDsp_Interface.draw_num(font,
 997              		.loc 1 874 5 is_stmt 1 view .LVU233
 998              		.loc 1 874 21 is_stmt 0 view .LVU234
 999 002a D9F81490 		ldr	r9, [r9, #20]
 1000              		.loc 1 874 5 view .LVU235
 1001 002e D4F80A10 		ldr	r1, [r4, #10]	@ unaligned
 1002 0032 9DF82830 		ldrb	r3, [sp, #40]	@ zero_extendqisi2
 1003 0036 0193     		str	r3, [sp, #4]
 1004 0038 CDF80080 		str	r8, [sp]
 1005 003c 3B46     		mov	r3, r7
 1006 003e 3246     		mov	r2, r6
 1007 0040 5046     		mov	r0, r10
 1008 0042 C847     		blx	r9
 1009              	.LVL73:
 875:Dsp/widget/wgt_core/widget_mng.c ****                               tmp->pixel_map,
 876:Dsp/widget/wgt_core/widget_mng.c ****                               num,
 877:Dsp/widget/wgt_core/widget_mng.c ****                               x,
 878:Dsp/widget/wgt_core/widget_mng.c ****                               y,
 879:Dsp/widget/wgt_core/widget_mng.c ****                               col_cnv);
 880:Dsp/widget/wgt_core/widget_mng.c **** }
 1010              		.loc 1 880 1 view .LVU236
 1011 0044 02B0     		add	sp, sp, #8
ARM GAS  /var/folders/lx/hc4sn_b53233_zkc9xbbl97r0000gp/T//cc1nXFCr.s 			page 36


 1012              	.LCFI15:
 1013              		.cfi_def_cfa_offset 32
 1014              		@ sp needed
 1015 0046 BDE8F087 		pop	{r4, r5, r6, r7, r8, r9, r10, pc}
 1016              	.LVL74:
 1017              	.L82:
 1018              		.loc 1 880 1 view .LVU237
 1019 004a 00BF     		.align	2
 1020              	.L81:
 1021 004c 00000000 		.word	GenDsp_Interface
 1022              		.cfi_endproc
 1023              	.LFE35:
 1025              		.section	.text.Widget_DrawChr,"ax",%progbits
 1026              		.align	1
 1027              		.syntax unified
 1028              		.thumb
 1029              		.thumb_func
 1030              		.fpu fpv4-sp-d16
 1032              	Widget_DrawChr:
 1033              	.LVL75:
 1034              	.LFB36:
 881:Dsp/widget/wgt_core/widget_mng.c **** 
 882:Dsp/widget/wgt_core/widget_mng.c **** static void Widget_DrawChr(Widget_Font font, char char_dsp, int16_t x, int16_t y, bool col_cnv)
 883:Dsp/widget/wgt_core/widget_mng.c **** {
 1035              		.loc 1 883 1 is_stmt 1 view -0
 1036              		.cfi_startproc
 1037              		@ args = 4, pretend = 0, frame = 0
 1038              		@ frame_needed = 0, uses_anonymous_args = 0
 1039              		.loc 1 883 1 is_stmt 0 view .LVU239
 1040 0000 2DE9F047 		push	{r4, r5, r6, r7, r8, r9, r10, lr}
 1041              	.LCFI16:
 1042              		.cfi_def_cfa_offset 32
 1043              		.cfi_offset 4, -32
 1044              		.cfi_offset 5, -28
 1045              		.cfi_offset 6, -24
 1046              		.cfi_offset 7, -20
 1047              		.cfi_offset 8, -16
 1048              		.cfi_offset 9, -12
 1049              		.cfi_offset 10, -8
 1050              		.cfi_offset 14, -4
 1051 0004 82B0     		sub	sp, sp, #8
 1052              	.LCFI17:
 1053              		.cfi_def_cfa_offset 40
 1054 0006 8246     		mov	r10, r0
 1055 0008 0E46     		mov	r6, r1
 1056 000a 1746     		mov	r7, r2
 1057 000c 9846     		mov	r8, r3
 884:Dsp/widget/wgt_core/widget_mng.c ****     WidgetObj_TypeDef *tmp = GetCur_Active_Widget();
 1058              		.loc 1 884 5 is_stmt 1 view .LVU240
 1059              		.loc 1 884 30 is_stmt 0 view .LVU241
 1060 000e FFF7FEFF 		bl	GetCur_Active_Widget
 1061              	.LVL76:
 1062              		.loc 1 884 30 view .LVU242
 1063 0012 0446     		mov	r4, r0
 1064              	.LVL77:
 885:Dsp/widget/wgt_core/widget_mng.c **** 
 886:Dsp/widget/wgt_core/widget_mng.c ****     GenDsp_Interface.set_range(tmp->cord_x,
ARM GAS  /var/folders/lx/hc4sn_b53233_zkc9xbbl97r0000gp/T//cc1nXFCr.s 			page 37


 1065              		.loc 1 886 5 is_stmt 1 view .LVU243
 1066              		.loc 1 886 21 is_stmt 0 view .LVU244
 1067 0014 DFF83490 		ldr	r9, .L85
 1068              		.loc 1 886 5 view .LVU245
 1069 0018 437A     		ldrb	r3, [r0, #9]	@ zero_extendqisi2
 1070 001a 027A     		ldrb	r2, [r0, #8]	@ zero_extendqisi2
 1071 001c B0F90610 		ldrsh	r1, [r0, #6]	@ unaligned
 1072 0020 B0F90400 		ldrsh	r0, [r0, #4]	@ unaligned
 1073              	.LVL78:
 1074              		.loc 1 886 5 view .LVU246
 1075 0024 D9F80050 		ldr	r5, [r9]
 1076 0028 A847     		blx	r5
 1077              	.LVL79:
 887:Dsp/widget/wgt_core/widget_mng.c ****                                tmp->cord_y,
 888:Dsp/widget/wgt_core/widget_mng.c ****                                tmp->width,
 889:Dsp/widget/wgt_core/widget_mng.c ****                                tmp->height);
 890:Dsp/widget/wgt_core/widget_mng.c **** 
 891:Dsp/widget/wgt_core/widget_mng.c ****     GenDsp_Interface.draw_char(font,
 1078              		.loc 1 891 5 is_stmt 1 view .LVU247
 1079              		.loc 1 891 21 is_stmt 0 view .LVU248
 1080 002a D9F80C90 		ldr	r9, [r9, #12]
 1081              		.loc 1 891 5 view .LVU249
 1082 002e D4F80A10 		ldr	r1, [r4, #10]	@ unaligned
 1083 0032 9DF82830 		ldrb	r3, [sp, #40]	@ zero_extendqisi2
 1084 0036 0193     		str	r3, [sp, #4]
 1085 0038 CDF80080 		str	r8, [sp]
 1086 003c 3B46     		mov	r3, r7
 1087 003e 3246     		mov	r2, r6
 1088 0040 5046     		mov	r0, r10
 1089 0042 C847     		blx	r9
 1090              	.LVL80:
 892:Dsp/widget/wgt_core/widget_mng.c ****                                tmp->pixel_map,
 893:Dsp/widget/wgt_core/widget_mng.c ****                                char_dsp,
 894:Dsp/widget/wgt_core/widget_mng.c ****                                x,
 895:Dsp/widget/wgt_core/widget_mng.c ****                                y,
 896:Dsp/widget/wgt_core/widget_mng.c ****                                col_cnv);
 897:Dsp/widget/wgt_core/widget_mng.c **** }
 1091              		.loc 1 897 1 view .LVU250
 1092 0044 02B0     		add	sp, sp, #8
 1093              	.LCFI18:
 1094              		.cfi_def_cfa_offset 32
 1095              		@ sp needed
 1096 0046 BDE8F087 		pop	{r4, r5, r6, r7, r8, r9, r10, pc}
 1097              	.LVL81:
 1098              	.L86:
 1099              		.loc 1 897 1 view .LVU251
 1100 004a 00BF     		.align	2
 1101              	.L85:
 1102 004c 00000000 		.word	GenDsp_Interface
 1103              		.cfi_endproc
 1104              	.LFE36:
 1106              		.section	.text.Widget_DrawStr,"ax",%progbits
 1107              		.align	1
 1108              		.syntax unified
 1109              		.thumb
 1110              		.thumb_func
 1111              		.fpu fpv4-sp-d16
ARM GAS  /var/folders/lx/hc4sn_b53233_zkc9xbbl97r0000gp/T//cc1nXFCr.s 			page 38


 1113              	Widget_DrawStr:
 1114              	.LVL82:
 1115              	.LFB37:
 898:Dsp/widget/wgt_core/widget_mng.c **** 
 899:Dsp/widget/wgt_core/widget_mng.c **** static void Widget_DrawStr(Widget_Font font, char *str_dsp, int16_t x, int16_t y, bool col_cnv)
 900:Dsp/widget/wgt_core/widget_mng.c **** {
 1116              		.loc 1 900 1 is_stmt 1 view -0
 1117              		.cfi_startproc
 1118              		@ args = 4, pretend = 0, frame = 0
 1119              		@ frame_needed = 0, uses_anonymous_args = 0
 1120              		.loc 1 900 1 is_stmt 0 view .LVU253
 1121 0000 2DE9F047 		push	{r4, r5, r6, r7, r8, r9, r10, lr}
 1122              	.LCFI19:
 1123              		.cfi_def_cfa_offset 32
 1124              		.cfi_offset 4, -32
 1125              		.cfi_offset 5, -28
 1126              		.cfi_offset 6, -24
 1127              		.cfi_offset 7, -20
 1128              		.cfi_offset 8, -16
 1129              		.cfi_offset 9, -12
 1130              		.cfi_offset 10, -8
 1131              		.cfi_offset 14, -4
 1132 0004 82B0     		sub	sp, sp, #8
 1133              	.LCFI20:
 1134              		.cfi_def_cfa_offset 40
 1135 0006 8246     		mov	r10, r0
 1136 0008 0E46     		mov	r6, r1
 1137 000a 1746     		mov	r7, r2
 1138 000c 9846     		mov	r8, r3
 901:Dsp/widget/wgt_core/widget_mng.c ****     WidgetObj_TypeDef *tmp = GetCur_Active_Widget();
 1139              		.loc 1 901 5 is_stmt 1 view .LVU254
 1140              		.loc 1 901 30 is_stmt 0 view .LVU255
 1141 000e FFF7FEFF 		bl	GetCur_Active_Widget
 1142              	.LVL83:
 1143              		.loc 1 901 30 view .LVU256
 1144 0012 0446     		mov	r4, r0
 1145              	.LVL84:
 902:Dsp/widget/wgt_core/widget_mng.c **** 
 903:Dsp/widget/wgt_core/widget_mng.c ****     GenDsp_Interface.set_range(tmp->cord_x,
 1146              		.loc 1 903 5 is_stmt 1 view .LVU257
 1147              		.loc 1 903 21 is_stmt 0 view .LVU258
 1148 0014 DFF83490 		ldr	r9, .L89
 1149              		.loc 1 903 5 view .LVU259
 1150 0018 437A     		ldrb	r3, [r0, #9]	@ zero_extendqisi2
 1151 001a 027A     		ldrb	r2, [r0, #8]	@ zero_extendqisi2
 1152 001c B0F90610 		ldrsh	r1, [r0, #6]	@ unaligned
 1153 0020 B0F90400 		ldrsh	r0, [r0, #4]	@ unaligned
 1154              	.LVL85:
 1155              		.loc 1 903 5 view .LVU260
 1156 0024 D9F80050 		ldr	r5, [r9]
 1157 0028 A847     		blx	r5
 1158              	.LVL86:
 904:Dsp/widget/wgt_core/widget_mng.c ****                                tmp->cord_y,
 905:Dsp/widget/wgt_core/widget_mng.c ****                                tmp->width,
 906:Dsp/widget/wgt_core/widget_mng.c ****                                tmp->height);
 907:Dsp/widget/wgt_core/widget_mng.c **** 
 908:Dsp/widget/wgt_core/widget_mng.c ****     GenDsp_Interface.draw_str(font,
ARM GAS  /var/folders/lx/hc4sn_b53233_zkc9xbbl97r0000gp/T//cc1nXFCr.s 			page 39


 1159              		.loc 1 908 5 is_stmt 1 view .LVU261
 1160              		.loc 1 908 21 is_stmt 0 view .LVU262
 1161 002a D9F81090 		ldr	r9, [r9, #16]
 1162              		.loc 1 908 5 view .LVU263
 1163 002e D4F80A10 		ldr	r1, [r4, #10]	@ unaligned
 1164 0032 9DF82830 		ldrb	r3, [sp, #40]	@ zero_extendqisi2
 1165 0036 0193     		str	r3, [sp, #4]
 1166 0038 CDF80080 		str	r8, [sp]
 1167 003c 3B46     		mov	r3, r7
 1168 003e 3246     		mov	r2, r6
 1169 0040 5046     		mov	r0, r10
 1170 0042 C847     		blx	r9
 1171              	.LVL87:
 909:Dsp/widget/wgt_core/widget_mng.c ****                               tmp->pixel_map,
 910:Dsp/widget/wgt_core/widget_mng.c ****                               str_dsp,
 911:Dsp/widget/wgt_core/widget_mng.c ****                               x,
 912:Dsp/widget/wgt_core/widget_mng.c ****                               y,
 913:Dsp/widget/wgt_core/widget_mng.c ****                               col_cnv);
 914:Dsp/widget/wgt_core/widget_mng.c **** }
 1172              		.loc 1 914 1 view .LVU264
 1173 0044 02B0     		add	sp, sp, #8
 1174              	.LCFI21:
 1175              		.cfi_def_cfa_offset 32
 1176              		@ sp needed
 1177 0046 BDE8F087 		pop	{r4, r5, r6, r7, r8, r9, r10, pc}
 1178              	.LVL88:
 1179              	.L90:
 1180              		.loc 1 914 1 view .LVU265
 1181 004a 00BF     		.align	2
 1182              	.L89:
 1183 004c 00000000 		.word	GenDsp_Interface
 1184              		.cfi_endproc
 1185              	.LFE37:
 1187              		.section	.text.Widget_DrawLine,"ax",%progbits
 1188              		.align	1
 1189              		.syntax unified
 1190              		.thumb
 1191              		.thumb_func
 1192              		.fpu fpv4-sp-d16
 1194              	Widget_DrawLine:
 1195              	.LVL89:
 1196              	.LFB38:
 915:Dsp/widget/wgt_core/widget_mng.c **** 
 916:Dsp/widget/wgt_core/widget_mng.c **** static void Widget_DrawLine(int8_t start_x, int8_t start_y, int8_t end_x, int8_t end_y, uint8_t lin
 917:Dsp/widget/wgt_core/widget_mng.c **** {
 1197              		.loc 1 917 1 is_stmt 1 view -0
 1198              		.cfi_startproc
 1199              		@ args = 8, pretend = 0, frame = 0
 1200              		@ frame_needed = 0, uses_anonymous_args = 0
 1201              		.loc 1 917 1 is_stmt 0 view .LVU267
 1202 0000 2DE9F047 		push	{r4, r5, r6, r7, r8, r9, r10, lr}
 1203              	.LCFI22:
 1204              		.cfi_def_cfa_offset 32
 1205              		.cfi_offset 4, -32
 1206              		.cfi_offset 5, -28
 1207              		.cfi_offset 6, -24
 1208              		.cfi_offset 7, -20
ARM GAS  /var/folders/lx/hc4sn_b53233_zkc9xbbl97r0000gp/T//cc1nXFCr.s 			page 40


 1209              		.cfi_offset 8, -16
 1210              		.cfi_offset 9, -12
 1211              		.cfi_offset 10, -8
 1212              		.cfi_offset 14, -4
 1213 0004 84B0     		sub	sp, sp, #16
 1214              	.LCFI23:
 1215              		.cfi_def_cfa_offset 48
 1216 0006 8246     		mov	r10, r0
 1217 0008 0E46     		mov	r6, r1
 1218 000a 1746     		mov	r7, r2
 1219 000c 9846     		mov	r8, r3
 918:Dsp/widget/wgt_core/widget_mng.c ****     WidgetObj_TypeDef *tmp = GetCur_Active_Widget();
 1220              		.loc 1 918 5 is_stmt 1 view .LVU268
 1221              		.loc 1 918 30 is_stmt 0 view .LVU269
 1222 000e FFF7FEFF 		bl	GetCur_Active_Widget
 1223              	.LVL90:
 1224              		.loc 1 918 30 view .LVU270
 1225 0012 0446     		mov	r4, r0
 1226              	.LVL91:
 919:Dsp/widget/wgt_core/widget_mng.c **** 
 920:Dsp/widget/wgt_core/widget_mng.c ****     GenDsp_Interface.set_range(tmp->cord_x,
 1227              		.loc 1 920 5 is_stmt 1 view .LVU271
 1228              		.loc 1 920 21 is_stmt 0 view .LVU272
 1229 0014 DFF83890 		ldr	r9, .L93
 1230              		.loc 1 920 5 view .LVU273
 1231 0018 437A     		ldrb	r3, [r0, #9]	@ zero_extendqisi2
 1232 001a 027A     		ldrb	r2, [r0, #8]	@ zero_extendqisi2
 1233 001c B0F90610 		ldrsh	r1, [r0, #6]	@ unaligned
 1234 0020 B0F90400 		ldrsh	r0, [r0, #4]	@ unaligned
 1235              	.LVL92:
 1236              		.loc 1 920 5 view .LVU274
 1237 0024 D9F80050 		ldr	r5, [r9]
 1238 0028 A847     		blx	r5
 1239              	.LVL93:
 921:Dsp/widget/wgt_core/widget_mng.c ****                                tmp->cord_y,
 922:Dsp/widget/wgt_core/widget_mng.c ****                                tmp->width,
 923:Dsp/widget/wgt_core/widget_mng.c ****                                tmp->height);
 924:Dsp/widget/wgt_core/widget_mng.c **** 
 925:Dsp/widget/wgt_core/widget_mng.c ****     GenDsp_Interface.draw_line(tmp->pixel_map,
 1240              		.loc 1 925 5 is_stmt 1 view .LVU275
 1241              		.loc 1 925 21 is_stmt 0 view .LVU276
 1242 002a D9F82090 		ldr	r9, [r9, #32]
 1243              		.loc 1 925 5 view .LVU277
 1244 002e D4F80A00 		ldr	r0, [r4, #10]	@ unaligned
 1245 0032 9DF83430 		ldrb	r3, [sp, #52]	@ zero_extendqisi2
 1246 0036 0293     		str	r3, [sp, #8]
 1247 0038 9DF83030 		ldrb	r3, [sp, #48]	@ zero_extendqisi2
 1248 003c 0193     		str	r3, [sp, #4]
 1249 003e CDF80080 		str	r8, [sp]
 1250 0042 3B46     		mov	r3, r7
 1251 0044 3246     		mov	r2, r6
 1252 0046 5146     		mov	r1, r10
 1253 0048 C847     		blx	r9
 1254              	.LVL94:
 926:Dsp/widget/wgt_core/widget_mng.c ****                                start_x,
 927:Dsp/widget/wgt_core/widget_mng.c ****                                start_y,
 928:Dsp/widget/wgt_core/widget_mng.c ****                                end_x,
ARM GAS  /var/folders/lx/hc4sn_b53233_zkc9xbbl97r0000gp/T//cc1nXFCr.s 			page 41


 929:Dsp/widget/wgt_core/widget_mng.c ****                                end_y,
 930:Dsp/widget/wgt_core/widget_mng.c ****                                line_size,
 931:Dsp/widget/wgt_core/widget_mng.c ****                                col_cnv);
 932:Dsp/widget/wgt_core/widget_mng.c **** }
 1255              		.loc 1 932 1 view .LVU278
 1256 004a 04B0     		add	sp, sp, #16
 1257              	.LCFI24:
 1258              		.cfi_def_cfa_offset 32
 1259              		@ sp needed
 1260 004c BDE8F087 		pop	{r4, r5, r6, r7, r8, r9, r10, pc}
 1261              	.LVL95:
 1262              	.L94:
 1263              		.loc 1 932 1 view .LVU279
 1264              		.align	2
 1265              	.L93:
 1266 0050 00000000 		.word	GenDsp_Interface
 1267              		.cfi_endproc
 1268              	.LFE38:
 1270              		.section	.text.Widget_DrawVLine,"ax",%progbits
 1271              		.align	1
 1272              		.syntax unified
 1273              		.thumb
 1274              		.thumb_func
 1275              		.fpu fpv4-sp-d16
 1277              	Widget_DrawVLine:
 1278              	.LVL96:
 1279              	.LFB39:
 933:Dsp/widget/wgt_core/widget_mng.c **** 
 934:Dsp/widget/wgt_core/widget_mng.c **** static void Widget_DrawVLine(int16_t x, int16_t y, uint8_t len, uint8_t line_size, bool col_cnv)
 935:Dsp/widget/wgt_core/widget_mng.c **** {
 1280              		.loc 1 935 1 is_stmt 1 view -0
 1281              		.cfi_startproc
 1282              		@ args = 4, pretend = 0, frame = 0
 1283              		@ frame_needed = 0, uses_anonymous_args = 0
 1284              		.loc 1 935 1 is_stmt 0 view .LVU281
 1285 0000 2DE9F047 		push	{r4, r5, r6, r7, r8, r9, r10, lr}
 1286              	.LCFI25:
 1287              		.cfi_def_cfa_offset 32
 1288              		.cfi_offset 4, -32
 1289              		.cfi_offset 5, -28
 1290              		.cfi_offset 6, -24
 1291              		.cfi_offset 7, -20
 1292              		.cfi_offset 8, -16
 1293              		.cfi_offset 9, -12
 1294              		.cfi_offset 10, -8
 1295              		.cfi_offset 14, -4
 1296 0004 82B0     		sub	sp, sp, #8
 1297              	.LCFI26:
 1298              		.cfi_def_cfa_offset 40
 1299 0006 8246     		mov	r10, r0
 1300 0008 0E46     		mov	r6, r1
 1301 000a 1746     		mov	r7, r2
 1302 000c 9846     		mov	r8, r3
 936:Dsp/widget/wgt_core/widget_mng.c ****     WidgetObj_TypeDef *tmp = GetCur_Active_Widget();
 1303              		.loc 1 936 5 is_stmt 1 view .LVU282
 1304              		.loc 1 936 30 is_stmt 0 view .LVU283
 1305 000e FFF7FEFF 		bl	GetCur_Active_Widget
ARM GAS  /var/folders/lx/hc4sn_b53233_zkc9xbbl97r0000gp/T//cc1nXFCr.s 			page 42


 1306              	.LVL97:
 1307              		.loc 1 936 30 view .LVU284
 1308 0012 0446     		mov	r4, r0
 1309              	.LVL98:
 937:Dsp/widget/wgt_core/widget_mng.c **** 
 938:Dsp/widget/wgt_core/widget_mng.c ****     GenDsp_Interface.set_range(tmp->cord_x,
 1310              		.loc 1 938 5 is_stmt 1 view .LVU285
 1311              		.loc 1 938 21 is_stmt 0 view .LVU286
 1312 0014 DFF83490 		ldr	r9, .L97
 1313              		.loc 1 938 5 view .LVU287
 1314 0018 437A     		ldrb	r3, [r0, #9]	@ zero_extendqisi2
 1315 001a 027A     		ldrb	r2, [r0, #8]	@ zero_extendqisi2
 1316 001c B0F90610 		ldrsh	r1, [r0, #6]	@ unaligned
 1317 0020 B0F90400 		ldrsh	r0, [r0, #4]	@ unaligned
 1318              	.LVL99:
 1319              		.loc 1 938 5 view .LVU288
 1320 0024 D9F80050 		ldr	r5, [r9]
 1321 0028 A847     		blx	r5
 1322              	.LVL100:
 939:Dsp/widget/wgt_core/widget_mng.c ****                                tmp->cord_y,
 940:Dsp/widget/wgt_core/widget_mng.c ****                                tmp->width,
 941:Dsp/widget/wgt_core/widget_mng.c ****                                tmp->height);
 942:Dsp/widget/wgt_core/widget_mng.c **** 
 943:Dsp/widget/wgt_core/widget_mng.c ****     GenDsp_Interface.draw_vertical_line(tmp->pixel_map, x, y, len, line_size, col_cnv);
 1323              		.loc 1 943 5 is_stmt 1 view .LVU289
 1324              		.loc 1 943 21 is_stmt 0 view .LVU290
 1325 002a D9F82490 		ldr	r9, [r9, #36]
 1326              		.loc 1 943 5 view .LVU291
 1327 002e D4F80A00 		ldr	r0, [r4, #10]	@ unaligned
 1328 0032 9DF82830 		ldrb	r3, [sp, #40]	@ zero_extendqisi2
 1329 0036 0193     		str	r3, [sp, #4]
 1330 0038 CDF80080 		str	r8, [sp]
 1331 003c 3B46     		mov	r3, r7
 1332 003e 3246     		mov	r2, r6
 1333 0040 5146     		mov	r1, r10
 1334 0042 C847     		blx	r9
 1335              	.LVL101:
 944:Dsp/widget/wgt_core/widget_mng.c **** }
 1336              		.loc 1 944 1 view .LVU292
 1337 0044 02B0     		add	sp, sp, #8
 1338              	.LCFI27:
 1339              		.cfi_def_cfa_offset 32
 1340              		@ sp needed
 1341 0046 BDE8F087 		pop	{r4, r5, r6, r7, r8, r9, r10, pc}
 1342              	.LVL102:
 1343              	.L98:
 1344              		.loc 1 944 1 view .LVU293
 1345 004a 00BF     		.align	2
 1346              	.L97:
 1347 004c 00000000 		.word	GenDsp_Interface
 1348              		.cfi_endproc
 1349              	.LFE39:
 1351              		.section	.text.Widget_DrawHLine,"ax",%progbits
 1352              		.align	1
 1353              		.syntax unified
 1354              		.thumb
 1355              		.thumb_func
ARM GAS  /var/folders/lx/hc4sn_b53233_zkc9xbbl97r0000gp/T//cc1nXFCr.s 			page 43


 1356              		.fpu fpv4-sp-d16
 1358              	Widget_DrawHLine:
 1359              	.LVL103:
 1360              	.LFB40:
 945:Dsp/widget/wgt_core/widget_mng.c **** 
 946:Dsp/widget/wgt_core/widget_mng.c **** static void Widget_DrawHLine(int16_t x, int16_t y, uint8_t len, uint8_t line_size, bool col_cnv)
 947:Dsp/widget/wgt_core/widget_mng.c **** {
 1361              		.loc 1 947 1 is_stmt 1 view -0
 1362              		.cfi_startproc
 1363              		@ args = 4, pretend = 0, frame = 0
 1364              		@ frame_needed = 0, uses_anonymous_args = 0
 1365              		.loc 1 947 1 is_stmt 0 view .LVU295
 1366 0000 2DE9F047 		push	{r4, r5, r6, r7, r8, r9, r10, lr}
 1367              	.LCFI28:
 1368              		.cfi_def_cfa_offset 32
 1369              		.cfi_offset 4, -32
 1370              		.cfi_offset 5, -28
 1371              		.cfi_offset 6, -24
 1372              		.cfi_offset 7, -20
 1373              		.cfi_offset 8, -16
 1374              		.cfi_offset 9, -12
 1375              		.cfi_offset 10, -8
 1376              		.cfi_offset 14, -4
 1377 0004 82B0     		sub	sp, sp, #8
 1378              	.LCFI29:
 1379              		.cfi_def_cfa_offset 40
 1380 0006 8246     		mov	r10, r0
 1381 0008 0E46     		mov	r6, r1
 1382 000a 1746     		mov	r7, r2
 1383 000c 9846     		mov	r8, r3
 948:Dsp/widget/wgt_core/widget_mng.c ****     WidgetObj_TypeDef *tmp = GetCur_Active_Widget();
 1384              		.loc 1 948 5 is_stmt 1 view .LVU296
 1385              		.loc 1 948 30 is_stmt 0 view .LVU297
 1386 000e FFF7FEFF 		bl	GetCur_Active_Widget
 1387              	.LVL104:
 1388              		.loc 1 948 30 view .LVU298
 1389 0012 0446     		mov	r4, r0
 1390              	.LVL105:
 949:Dsp/widget/wgt_core/widget_mng.c **** 
 950:Dsp/widget/wgt_core/widget_mng.c ****     GenDsp_Interface.set_range(tmp->cord_x,
 1391              		.loc 1 950 5 is_stmt 1 view .LVU299
 1392              		.loc 1 950 21 is_stmt 0 view .LVU300
 1393 0014 DFF83490 		ldr	r9, .L101
 1394              		.loc 1 950 5 view .LVU301
 1395 0018 437A     		ldrb	r3, [r0, #9]	@ zero_extendqisi2
 1396 001a 027A     		ldrb	r2, [r0, #8]	@ zero_extendqisi2
 1397 001c B0F90610 		ldrsh	r1, [r0, #6]	@ unaligned
 1398 0020 B0F90400 		ldrsh	r0, [r0, #4]	@ unaligned
 1399              	.LVL106:
 1400              		.loc 1 950 5 view .LVU302
 1401 0024 D9F80050 		ldr	r5, [r9]
 1402 0028 A847     		blx	r5
 1403              	.LVL107:
 951:Dsp/widget/wgt_core/widget_mng.c ****                                tmp->cord_y,
 952:Dsp/widget/wgt_core/widget_mng.c ****                                tmp->width,
 953:Dsp/widget/wgt_core/widget_mng.c ****                                tmp->height);
 954:Dsp/widget/wgt_core/widget_mng.c **** 
ARM GAS  /var/folders/lx/hc4sn_b53233_zkc9xbbl97r0000gp/T//cc1nXFCr.s 			page 44


 955:Dsp/widget/wgt_core/widget_mng.c ****     GenDsp_Interface.draw_horizon_line(tmp->pixel_map, x, y, len, line_size, col_cnv);
 1404              		.loc 1 955 5 is_stmt 1 view .LVU303
 1405              		.loc 1 955 21 is_stmt 0 view .LVU304
 1406 002a D9F82890 		ldr	r9, [r9, #40]
 1407              		.loc 1 955 5 view .LVU305
 1408 002e D4F80A00 		ldr	r0, [r4, #10]	@ unaligned
 1409 0032 9DF82830 		ldrb	r3, [sp, #40]	@ zero_extendqisi2
 1410 0036 0193     		str	r3, [sp, #4]
 1411 0038 CDF80080 		str	r8, [sp]
 1412 003c 3B46     		mov	r3, r7
 1413 003e 3246     		mov	r2, r6
 1414 0040 5146     		mov	r1, r10
 1415 0042 C847     		blx	r9
 1416              	.LVL108:
 956:Dsp/widget/wgt_core/widget_mng.c **** }
 1417              		.loc 1 956 1 view .LVU306
 1418 0044 02B0     		add	sp, sp, #8
 1419              	.LCFI30:
 1420              		.cfi_def_cfa_offset 32
 1421              		@ sp needed
 1422 0046 BDE8F087 		pop	{r4, r5, r6, r7, r8, r9, r10, pc}
 1423              	.LVL109:
 1424              	.L102:
 1425              		.loc 1 956 1 view .LVU307
 1426 004a 00BF     		.align	2
 1427              	.L101:
 1428 004c 00000000 		.word	GenDsp_Interface
 1429              		.cfi_endproc
 1430              	.LFE40:
 1432              		.section	.text.Widget_DrawCircle,"ax",%progbits
 1433              		.align	1
 1434              		.syntax unified
 1435              		.thumb
 1436              		.thumb_func
 1437              		.fpu fpv4-sp-d16
 1439              	Widget_DrawCircle:
 1440              	.LVL110:
 1441              	.LFB41:
 957:Dsp/widget/wgt_core/widget_mng.c **** 
 958:Dsp/widget/wgt_core/widget_mng.c **** static void Widget_DrawCircle(int16_t center_x, int16_t center_y, uint8_t radius, uint8_t line_size
 959:Dsp/widget/wgt_core/widget_mng.c **** {
 1442              		.loc 1 959 1 is_stmt 1 view -0
 1443              		.cfi_startproc
 1444              		@ args = 4, pretend = 0, frame = 0
 1445              		@ frame_needed = 0, uses_anonymous_args = 0
 1446              		.loc 1 959 1 is_stmt 0 view .LVU309
 1447 0000 2DE9F043 		push	{r4, r5, r6, r7, r8, r9, lr}
 1448              	.LCFI31:
 1449              		.cfi_def_cfa_offset 28
 1450              		.cfi_offset 4, -28
 1451              		.cfi_offset 5, -24
 1452              		.cfi_offset 6, -20
 1453              		.cfi_offset 7, -16
 1454              		.cfi_offset 8, -12
 1455              		.cfi_offset 9, -8
 1456              		.cfi_offset 14, -4
 1457 0004 83B0     		sub	sp, sp, #12
ARM GAS  /var/folders/lx/hc4sn_b53233_zkc9xbbl97r0000gp/T//cc1nXFCr.s 			page 45


 1458              	.LCFI32:
 1459              		.cfi_def_cfa_offset 40
 1460 0006 8146     		mov	r9, r0
 1461 0008 0E46     		mov	r6, r1
 1462 000a 1746     		mov	r7, r2
 960:Dsp/widget/wgt_core/widget_mng.c ****     WidgetObj_TypeDef *tmp = GetCur_Active_Widget();
 1463              		.loc 1 960 5 is_stmt 1 view .LVU310
 1464              		.loc 1 960 30 is_stmt 0 view .LVU311
 1465 000c FFF7FEFF 		bl	GetCur_Active_Widget
 1466              	.LVL111:
 1467              		.loc 1 960 30 view .LVU312
 1468 0010 0446     		mov	r4, r0
 1469              	.LVL112:
 961:Dsp/widget/wgt_core/widget_mng.c **** 
 962:Dsp/widget/wgt_core/widget_mng.c ****     GenDsp_Interface.set_range(tmp->cord_x,
 1470              		.loc 1 962 5 is_stmt 1 view .LVU313
 1471              		.loc 1 962 21 is_stmt 0 view .LVU314
 1472 0012 DFF83480 		ldr	r8, .L105
 1473              		.loc 1 962 5 view .LVU315
 1474 0016 437A     		ldrb	r3, [r0, #9]	@ zero_extendqisi2
 1475 0018 027A     		ldrb	r2, [r0, #8]	@ zero_extendqisi2
 1476 001a B0F90610 		ldrsh	r1, [r0, #6]	@ unaligned
 1477 001e B0F90400 		ldrsh	r0, [r0, #4]	@ unaligned
 1478              	.LVL113:
 1479              		.loc 1 962 5 view .LVU316
 1480 0022 D8F80050 		ldr	r5, [r8]
 1481 0026 A847     		blx	r5
 1482              	.LVL114:
 963:Dsp/widget/wgt_core/widget_mng.c ****                                tmp->cord_y,
 964:Dsp/widget/wgt_core/widget_mng.c ****                                tmp->width,
 965:Dsp/widget/wgt_core/widget_mng.c ****                                tmp->height);
 966:Dsp/widget/wgt_core/widget_mng.c **** 
 967:Dsp/widget/wgt_core/widget_mng.c ****     GenDsp_Interface.draw_circle(tmp->pixel_map,
 1483              		.loc 1 967 5 is_stmt 1 view .LVU317
 1484              		.loc 1 967 21 is_stmt 0 view .LVU318
 1485 0028 D8F80880 		ldr	r8, [r8, #8]
 1486              		.loc 1 967 5 view .LVU319
 1487 002c D4F80A00 		ldr	r0, [r4, #10]	@ unaligned
 1488 0030 9DF82830 		ldrb	r3, [sp, #40]	@ zero_extendqisi2
 1489 0034 0193     		str	r3, [sp, #4]
 1490 0036 0F23     		movs	r3, #15
 1491 0038 0093     		str	r3, [sp]
 1492 003a 3B46     		mov	r3, r7
 1493 003c 3246     		mov	r2, r6
 1494 003e 4946     		mov	r1, r9
 1495 0040 C047     		blx	r8
 1496              	.LVL115:
 968:Dsp/widget/wgt_core/widget_mng.c ****                                  center_x,
 969:Dsp/widget/wgt_core/widget_mng.c ****                                  center_y,
 970:Dsp/widget/wgt_core/widget_mng.c ****                                  radius,
 971:Dsp/widget/wgt_core/widget_mng.c ****                                  DRAW_ALL,
 972:Dsp/widget/wgt_core/widget_mng.c ****                                  col_cnv);
 973:Dsp/widget/wgt_core/widget_mng.c **** }
 1497              		.loc 1 973 1 view .LVU320
 1498 0042 03B0     		add	sp, sp, #12
 1499              	.LCFI33:
 1500              		.cfi_def_cfa_offset 28
ARM GAS  /var/folders/lx/hc4sn_b53233_zkc9xbbl97r0000gp/T//cc1nXFCr.s 			page 46


 1501              		@ sp needed
 1502 0044 BDE8F083 		pop	{r4, r5, r6, r7, r8, r9, pc}
 1503              	.LVL116:
 1504              	.L106:
 1505              		.loc 1 973 1 view .LVU321
 1506              		.align	2
 1507              	.L105:
 1508 0048 00000000 		.word	GenDsp_Interface
 1509              		.cfi_endproc
 1510              	.LFE41:
 1512              		.section	.text.Widget_DrawCircle_Section,"ax",%progbits
 1513              		.align	1
 1514              		.syntax unified
 1515              		.thumb
 1516              		.thumb_func
 1517              		.fpu fpv4-sp-d16
 1519              	Widget_DrawCircle_Section:
 1520              	.LVL117:
 1521              	.LFB42:
 974:Dsp/widget/wgt_core/widget_mng.c **** 
 975:Dsp/widget/wgt_core/widget_mng.c **** static void Widget_DrawCircle_Section(int16_t center_x, int16_t center_y, uint8_t radius, uint8_t s
 976:Dsp/widget/wgt_core/widget_mng.c **** {
 1522              		.loc 1 976 1 is_stmt 1 view -0
 1523              		.cfi_startproc
 1524              		@ args = 8, pretend = 0, frame = 0
 1525              		@ frame_needed = 0, uses_anonymous_args = 0
 1526              		.loc 1 976 1 is_stmt 0 view .LVU323
 1527 0000 2DE9F047 		push	{r4, r5, r6, r7, r8, r9, r10, lr}
 1528              	.LCFI34:
 1529              		.cfi_def_cfa_offset 32
 1530              		.cfi_offset 4, -32
 1531              		.cfi_offset 5, -28
 1532              		.cfi_offset 6, -24
 1533              		.cfi_offset 7, -20
 1534              		.cfi_offset 8, -16
 1535              		.cfi_offset 9, -12
 1536              		.cfi_offset 10, -8
 1537              		.cfi_offset 14, -4
 1538 0004 82B0     		sub	sp, sp, #8
 1539              	.LCFI35:
 1540              		.cfi_def_cfa_offset 40
 1541 0006 8246     		mov	r10, r0
 1542 0008 0E46     		mov	r6, r1
 1543 000a 1746     		mov	r7, r2
 1544 000c 9846     		mov	r8, r3
 977:Dsp/widget/wgt_core/widget_mng.c ****     WidgetObj_TypeDef *tmp = GetCur_Active_Widget();
 1545              		.loc 1 977 5 is_stmt 1 view .LVU324
 1546              		.loc 1 977 30 is_stmt 0 view .LVU325
 1547 000e FFF7FEFF 		bl	GetCur_Active_Widget
 1548              	.LVL118:
 1549              		.loc 1 977 30 view .LVU326
 1550 0012 0446     		mov	r4, r0
 1551              	.LVL119:
 978:Dsp/widget/wgt_core/widget_mng.c **** 
 979:Dsp/widget/wgt_core/widget_mng.c ****     GenDsp_Interface.set_range(tmp->cord_x,
 1552              		.loc 1 979 5 is_stmt 1 view .LVU327
 1553              		.loc 1 979 21 is_stmt 0 view .LVU328
ARM GAS  /var/folders/lx/hc4sn_b53233_zkc9xbbl97r0000gp/T//cc1nXFCr.s 			page 47


 1554 0014 DFF83490 		ldr	r9, .L109
 1555              		.loc 1 979 5 view .LVU329
 1556 0018 437A     		ldrb	r3, [r0, #9]	@ zero_extendqisi2
 1557 001a 027A     		ldrb	r2, [r0, #8]	@ zero_extendqisi2
 1558 001c B0F90610 		ldrsh	r1, [r0, #6]	@ unaligned
 1559 0020 B0F90400 		ldrsh	r0, [r0, #4]	@ unaligned
 1560              	.LVL120:
 1561              		.loc 1 979 5 view .LVU330
 1562 0024 D9F80050 		ldr	r5, [r9]
 1563 0028 A847     		blx	r5
 1564              	.LVL121:
 980:Dsp/widget/wgt_core/widget_mng.c ****                                tmp->cord_y,
 981:Dsp/widget/wgt_core/widget_mng.c ****                                tmp->width,
 982:Dsp/widget/wgt_core/widget_mng.c ****                                tmp->height);
 983:Dsp/widget/wgt_core/widget_mng.c **** 
 984:Dsp/widget/wgt_core/widget_mng.c ****     GenDsp_Interface.draw_circle(tmp->pixel_map,
 1565              		.loc 1 984 5 is_stmt 1 view .LVU331
 1566              		.loc 1 984 21 is_stmt 0 view .LVU332
 1567 002a D9F80890 		ldr	r9, [r9, #8]
 1568              		.loc 1 984 5 view .LVU333
 1569 002e D4F80A00 		ldr	r0, [r4, #10]	@ unaligned
 1570 0032 9DF82C30 		ldrb	r3, [sp, #44]	@ zero_extendqisi2
 1571 0036 0193     		str	r3, [sp, #4]
 1572 0038 CDF80080 		str	r8, [sp]
 1573 003c 3B46     		mov	r3, r7
 1574 003e 3246     		mov	r2, r6
 1575 0040 5146     		mov	r1, r10
 1576 0042 C847     		blx	r9
 1577              	.LVL122:
 985:Dsp/widget/wgt_core/widget_mng.c ****                                  center_x,
 986:Dsp/widget/wgt_core/widget_mng.c ****                                  center_y,
 987:Dsp/widget/wgt_core/widget_mng.c ****                                  radius,
 988:Dsp/widget/wgt_core/widget_mng.c ****                                  section,
 989:Dsp/widget/wgt_core/widget_mng.c ****                                  col_cnv);
 990:Dsp/widget/wgt_core/widget_mng.c **** }
 1578              		.loc 1 990 1 view .LVU334
 1579 0044 02B0     		add	sp, sp, #8
 1580              	.LCFI36:
 1581              		.cfi_def_cfa_offset 32
 1582              		@ sp needed
 1583 0046 BDE8F087 		pop	{r4, r5, r6, r7, r8, r9, r10, pc}
 1584              	.LVL123:
 1585              	.L110:
 1586              		.loc 1 990 1 view .LVU335
 1587 004a 00BF     		.align	2
 1588              	.L109:
 1589 004c 00000000 		.word	GenDsp_Interface
 1590              		.cfi_endproc
 1591              	.LFE42:
 1593              		.section	.text.Widget_DrawRadiusRectangle,"ax",%progbits
 1594              		.align	1
 1595              		.syntax unified
 1596              		.thumb
 1597              		.thumb_func
 1598              		.fpu fpv4-sp-d16
 1600              	Widget_DrawRadiusRectangle:
 1601              	.LVL124:
ARM GAS  /var/folders/lx/hc4sn_b53233_zkc9xbbl97r0000gp/T//cc1nXFCr.s 			page 48


 1602              	.LFB43:
 991:Dsp/widget/wgt_core/widget_mng.c **** 
 992:Dsp/widget/wgt_core/widget_mng.c **** static void Widget_DrawRadiusRectangle(int16_t x, int16_t y, uint8_t width, uint8_t height, uint8_t
 993:Dsp/widget/wgt_core/widget_mng.c **** {
 1603              		.loc 1 993 1 is_stmt 1 view -0
 1604              		.cfi_startproc
 1605              		@ args = 12, pretend = 0, frame = 0
 1606              		@ frame_needed = 0, uses_anonymous_args = 0
 1607              		.loc 1 993 1 is_stmt 0 view .LVU337
 1608 0000 2DE9F047 		push	{r4, r5, r6, r7, r8, r9, r10, lr}
 1609              	.LCFI37:
 1610              		.cfi_def_cfa_offset 32
 1611              		.cfi_offset 4, -32
 1612              		.cfi_offset 5, -28
 1613              		.cfi_offset 6, -24
 1614              		.cfi_offset 7, -20
 1615              		.cfi_offset 8, -16
 1616              		.cfi_offset 9, -12
 1617              		.cfi_offset 10, -8
 1618              		.cfi_offset 14, -4
 1619 0004 84B0     		sub	sp, sp, #16
 1620              	.LCFI38:
 1621              		.cfi_def_cfa_offset 48
 1622 0006 8246     		mov	r10, r0
 1623 0008 0E46     		mov	r6, r1
 1624 000a 1746     		mov	r7, r2
 1625 000c 9846     		mov	r8, r3
 994:Dsp/widget/wgt_core/widget_mng.c ****     WidgetObj_TypeDef *tmp = GetCur_Active_Widget();
 1626              		.loc 1 994 5 is_stmt 1 view .LVU338
 1627              		.loc 1 994 30 is_stmt 0 view .LVU339
 1628 000e FFF7FEFF 		bl	GetCur_Active_Widget
 1629              	.LVL125:
 1630              		.loc 1 994 30 view .LVU340
 1631 0012 0446     		mov	r4, r0
 1632              	.LVL126:
 995:Dsp/widget/wgt_core/widget_mng.c **** 
 996:Dsp/widget/wgt_core/widget_mng.c ****     GenDsp_Interface.set_range(tmp->cord_x,
 1633              		.loc 1 996 5 is_stmt 1 view .LVU341
 1634              		.loc 1 996 21 is_stmt 0 view .LVU342
 1635 0014 DFF84090 		ldr	r9, .L113
 1636              		.loc 1 996 5 view .LVU343
 1637 0018 437A     		ldrb	r3, [r0, #9]	@ zero_extendqisi2
 1638 001a 027A     		ldrb	r2, [r0, #8]	@ zero_extendqisi2
 1639 001c B0F90610 		ldrsh	r1, [r0, #6]	@ unaligned
 1640 0020 B0F90400 		ldrsh	r0, [r0, #4]	@ unaligned
 1641              	.LVL127:
 1642              		.loc 1 996 5 view .LVU344
 1643 0024 D9F80050 		ldr	r5, [r9]
 1644 0028 A847     		blx	r5
 1645              	.LVL128:
 997:Dsp/widget/wgt_core/widget_mng.c ****                                tmp->cord_y,
 998:Dsp/widget/wgt_core/widget_mng.c ****                                tmp->width,
 999:Dsp/widget/wgt_core/widget_mng.c ****                                tmp->height);
1000:Dsp/widget/wgt_core/widget_mng.c **** 
1001:Dsp/widget/wgt_core/widget_mng.c ****     GenDsp_Interface.draw_radius_rectangle(tmp->pixel_map,
 1646              		.loc 1 1001 5 is_stmt 1 view .LVU345
 1647              		.loc 1 1001 21 is_stmt 0 view .LVU346
ARM GAS  /var/folders/lx/hc4sn_b53233_zkc9xbbl97r0000gp/T//cc1nXFCr.s 			page 49


 1648 002a D9F81C90 		ldr	r9, [r9, #28]
 1649              		.loc 1 1001 5 view .LVU347
 1650 002e D4F80A00 		ldr	r0, [r4, #10]	@ unaligned
 1651 0032 9DF83830 		ldrb	r3, [sp, #56]	@ zero_extendqisi2
 1652 0036 0393     		str	r3, [sp, #12]
 1653 0038 9DF83430 		ldrb	r3, [sp, #52]	@ zero_extendqisi2
 1654 003c 0293     		str	r3, [sp, #8]
 1655 003e 9DF83030 		ldrb	r3, [sp, #48]	@ zero_extendqisi2
 1656 0042 0193     		str	r3, [sp, #4]
 1657 0044 CDF80080 		str	r8, [sp]
 1658 0048 3B46     		mov	r3, r7
 1659 004a 3246     		mov	r2, r6
 1660 004c 5146     		mov	r1, r10
 1661 004e C847     		blx	r9
 1662              	.LVL129:
1002:Dsp/widget/wgt_core/widget_mng.c ****                                            x,
1003:Dsp/widget/wgt_core/widget_mng.c ****                                            y,
1004:Dsp/widget/wgt_core/widget_mng.c ****                                            width,
1005:Dsp/widget/wgt_core/widget_mng.c ****                                            height,
1006:Dsp/widget/wgt_core/widget_mng.c ****                                            radius,
1007:Dsp/widget/wgt_core/widget_mng.c ****                                            line_size,
1008:Dsp/widget/wgt_core/widget_mng.c ****                                            col_cnv);
1009:Dsp/widget/wgt_core/widget_mng.c **** }
 1663              		.loc 1 1009 1 view .LVU348
 1664 0050 04B0     		add	sp, sp, #16
 1665              	.LCFI39:
 1666              		.cfi_def_cfa_offset 32
 1667              		@ sp needed
 1668 0052 BDE8F087 		pop	{r4, r5, r6, r7, r8, r9, r10, pc}
 1669              	.LVL130:
 1670              	.L114:
 1671              		.loc 1 1009 1 view .LVU349
 1672 0056 00BF     		.align	2
 1673              	.L113:
 1674 0058 00000000 		.word	GenDsp_Interface
 1675              		.cfi_endproc
 1676              	.LFE43:
 1678              		.section	.text.Widget_DrawRectangle,"ax",%progbits
 1679              		.align	1
 1680              		.syntax unified
 1681              		.thumb
 1682              		.thumb_func
 1683              		.fpu fpv4-sp-d16
 1685              	Widget_DrawRectangle:
 1686              	.LVL131:
 1687              	.LFB44:
1010:Dsp/widget/wgt_core/widget_mng.c **** 
1011:Dsp/widget/wgt_core/widget_mng.c **** static void Widget_DrawRectangle(int16_t x, int16_t y, uint8_t width, uint8_t height, uint8_t line_
1012:Dsp/widget/wgt_core/widget_mng.c **** {
 1688              		.loc 1 1012 1 is_stmt 1 view -0
 1689              		.cfi_startproc
 1690              		@ args = 8, pretend = 0, frame = 0
 1691              		@ frame_needed = 0, uses_anonymous_args = 0
 1692              		.loc 1 1012 1 is_stmt 0 view .LVU351
 1693 0000 2DE9F047 		push	{r4, r5, r6, r7, r8, r9, r10, lr}
 1694              	.LCFI40:
 1695              		.cfi_def_cfa_offset 32
ARM GAS  /var/folders/lx/hc4sn_b53233_zkc9xbbl97r0000gp/T//cc1nXFCr.s 			page 50


 1696              		.cfi_offset 4, -32
 1697              		.cfi_offset 5, -28
 1698              		.cfi_offset 6, -24
 1699              		.cfi_offset 7, -20
 1700              		.cfi_offset 8, -16
 1701              		.cfi_offset 9, -12
 1702              		.cfi_offset 10, -8
 1703              		.cfi_offset 14, -4
 1704 0004 84B0     		sub	sp, sp, #16
 1705              	.LCFI41:
 1706              		.cfi_def_cfa_offset 48
 1707 0006 8246     		mov	r10, r0
 1708 0008 0E46     		mov	r6, r1
 1709 000a 1746     		mov	r7, r2
 1710 000c 9846     		mov	r8, r3
1013:Dsp/widget/wgt_core/widget_mng.c ****     WidgetObj_TypeDef *tmp = GetCur_Active_Widget();
 1711              		.loc 1 1013 5 is_stmt 1 view .LVU352
 1712              		.loc 1 1013 30 is_stmt 0 view .LVU353
 1713 000e FFF7FEFF 		bl	GetCur_Active_Widget
 1714              	.LVL132:
 1715              		.loc 1 1013 30 view .LVU354
 1716 0012 0446     		mov	r4, r0
 1717              	.LVL133:
1014:Dsp/widget/wgt_core/widget_mng.c **** 
1015:Dsp/widget/wgt_core/widget_mng.c ****     GenDsp_Interface.set_range(tmp->cord_x,
 1718              		.loc 1 1015 5 is_stmt 1 view .LVU355
 1719              		.loc 1 1015 21 is_stmt 0 view .LVU356
 1720 0014 DFF83890 		ldr	r9, .L117
 1721              		.loc 1 1015 5 view .LVU357
 1722 0018 437A     		ldrb	r3, [r0, #9]	@ zero_extendqisi2
 1723 001a 027A     		ldrb	r2, [r0, #8]	@ zero_extendqisi2
 1724 001c B0F90610 		ldrsh	r1, [r0, #6]	@ unaligned
 1725 0020 B0F90400 		ldrsh	r0, [r0, #4]	@ unaligned
 1726              	.LVL134:
 1727              		.loc 1 1015 5 view .LVU358
 1728 0024 D9F80050 		ldr	r5, [r9]
 1729 0028 A847     		blx	r5
 1730              	.LVL135:
1016:Dsp/widget/wgt_core/widget_mng.c ****                                tmp->cord_y,
1017:Dsp/widget/wgt_core/widget_mng.c ****                                tmp->width,
1018:Dsp/widget/wgt_core/widget_mng.c ****                                tmp->height);
1019:Dsp/widget/wgt_core/widget_mng.c **** 
1020:Dsp/widget/wgt_core/widget_mng.c ****     GenDsp_Interface.draw_rectangle(tmp->pixel_map,
 1731              		.loc 1 1020 5 is_stmt 1 view .LVU359
 1732              		.loc 1 1020 21 is_stmt 0 view .LVU360
 1733 002a D9F81890 		ldr	r9, [r9, #24]
 1734              		.loc 1 1020 5 view .LVU361
 1735 002e D4F80A00 		ldr	r0, [r4, #10]	@ unaligned
 1736 0032 9DF83430 		ldrb	r3, [sp, #52]	@ zero_extendqisi2
 1737 0036 0293     		str	r3, [sp, #8]
 1738 0038 9DF83030 		ldrb	r3, [sp, #48]	@ zero_extendqisi2
 1739 003c 0193     		str	r3, [sp, #4]
 1740 003e CDF80080 		str	r8, [sp]
 1741 0042 3B46     		mov	r3, r7
 1742 0044 3246     		mov	r2, r6
 1743 0046 5146     		mov	r1, r10
 1744 0048 C847     		blx	r9
ARM GAS  /var/folders/lx/hc4sn_b53233_zkc9xbbl97r0000gp/T//cc1nXFCr.s 			page 51


 1745              	.LVL136:
1021:Dsp/widget/wgt_core/widget_mng.c ****                                     x,
1022:Dsp/widget/wgt_core/widget_mng.c ****                                     y,
1023:Dsp/widget/wgt_core/widget_mng.c ****                                     width,
1024:Dsp/widget/wgt_core/widget_mng.c ****                                     height,
1025:Dsp/widget/wgt_core/widget_mng.c ****                                     line_size,
1026:Dsp/widget/wgt_core/widget_mng.c ****                                     col_cnv);
1027:Dsp/widget/wgt_core/widget_mng.c **** }
 1746              		.loc 1 1027 1 view .LVU362
 1747 004a 04B0     		add	sp, sp, #16
 1748              	.LCFI42:
 1749              		.cfi_def_cfa_offset 32
 1750              		@ sp needed
 1751 004c BDE8F087 		pop	{r4, r5, r6, r7, r8, r9, r10, pc}
 1752              	.LVL137:
 1753              	.L118:
 1754              		.loc 1 1027 1 view .LVU363
 1755              		.align	2
 1756              	.L117:
 1757 0050 00000000 		.word	GenDsp_Interface
 1758              		.cfi_endproc
 1759              	.LFE44:
 1761              		.section	.text.Widget_FillRadiusRectangle,"ax",%progbits
 1762              		.align	1
 1763              		.syntax unified
 1764              		.thumb
 1765              		.thumb_func
 1766              		.fpu fpv4-sp-d16
 1768              	Widget_FillRadiusRectangle:
 1769              	.LVL138:
 1770              	.LFB45:
1028:Dsp/widget/wgt_core/widget_mng.c **** 
1029:Dsp/widget/wgt_core/widget_mng.c **** static void Widget_FillRadiusRectangle(int16_t x, int16_t y, uint8_t width, uint8_t height, uint8_t
1030:Dsp/widget/wgt_core/widget_mng.c **** {
 1771              		.loc 1 1030 1 is_stmt 1 view -0
 1772              		.cfi_startproc
 1773              		@ args = 8, pretend = 0, frame = 0
 1774              		@ frame_needed = 0, uses_anonymous_args = 0
 1775              		.loc 1 1030 1 is_stmt 0 view .LVU365
 1776 0000 2DE9F047 		push	{r4, r5, r6, r7, r8, r9, r10, lr}
 1777              	.LCFI43:
 1778              		.cfi_def_cfa_offset 32
 1779              		.cfi_offset 4, -32
 1780              		.cfi_offset 5, -28
 1781              		.cfi_offset 6, -24
 1782              		.cfi_offset 7, -20
 1783              		.cfi_offset 8, -16
 1784              		.cfi_offset 9, -12
 1785              		.cfi_offset 10, -8
 1786              		.cfi_offset 14, -4
 1787 0004 84B0     		sub	sp, sp, #16
 1788              	.LCFI44:
 1789              		.cfi_def_cfa_offset 48
 1790 0006 8246     		mov	r10, r0
 1791 0008 0E46     		mov	r6, r1
 1792 000a 1746     		mov	r7, r2
 1793 000c 9846     		mov	r8, r3
ARM GAS  /var/folders/lx/hc4sn_b53233_zkc9xbbl97r0000gp/T//cc1nXFCr.s 			page 52


1031:Dsp/widget/wgt_core/widget_mng.c ****     WidgetObj_TypeDef *tmp = GetCur_Active_Widget();
 1794              		.loc 1 1031 5 is_stmt 1 view .LVU366
 1795              		.loc 1 1031 30 is_stmt 0 view .LVU367
 1796 000e FFF7FEFF 		bl	GetCur_Active_Widget
 1797              	.LVL139:
 1798              		.loc 1 1031 30 view .LVU368
 1799 0012 0446     		mov	r4, r0
 1800              	.LVL140:
1032:Dsp/widget/wgt_core/widget_mng.c **** 
1033:Dsp/widget/wgt_core/widget_mng.c ****     GenDsp_Interface.set_range(tmp->cord_x,
 1801              		.loc 1 1033 5 is_stmt 1 view .LVU369
 1802              		.loc 1 1033 21 is_stmt 0 view .LVU370
 1803 0014 DFF83890 		ldr	r9, .L121
 1804              		.loc 1 1033 5 view .LVU371
 1805 0018 437A     		ldrb	r3, [r0, #9]	@ zero_extendqisi2
 1806 001a 027A     		ldrb	r2, [r0, #8]	@ zero_extendqisi2
 1807 001c B0F90610 		ldrsh	r1, [r0, #6]	@ unaligned
 1808 0020 B0F90400 		ldrsh	r0, [r0, #4]	@ unaligned
 1809              	.LVL141:
 1810              		.loc 1 1033 5 view .LVU372
 1811 0024 D9F80050 		ldr	r5, [r9]
 1812 0028 A847     		blx	r5
 1813              	.LVL142:
1034:Dsp/widget/wgt_core/widget_mng.c ****                                tmp->cord_y,
1035:Dsp/widget/wgt_core/widget_mng.c ****                                tmp->width,
1036:Dsp/widget/wgt_core/widget_mng.c ****                                tmp->height);
1037:Dsp/widget/wgt_core/widget_mng.c **** 
1038:Dsp/widget/wgt_core/widget_mng.c ****     GenDsp_Interface.fill_radius_rectangle(tmp->pixel_map,
 1814              		.loc 1 1038 5 is_stmt 1 view .LVU373
 1815              		.loc 1 1038 21 is_stmt 0 view .LVU374
 1816 002a D9F83890 		ldr	r9, [r9, #56]
 1817              		.loc 1 1038 5 view .LVU375
 1818 002e D4F80A00 		ldr	r0, [r4, #10]	@ unaligned
 1819 0032 9DF83430 		ldrb	r3, [sp, #52]	@ zero_extendqisi2
 1820 0036 0293     		str	r3, [sp, #8]
 1821 0038 9DF83030 		ldrb	r3, [sp, #48]	@ zero_extendqisi2
 1822 003c 0193     		str	r3, [sp, #4]
 1823 003e CDF80080 		str	r8, [sp]
 1824 0042 3B46     		mov	r3, r7
 1825 0044 3246     		mov	r2, r6
 1826 0046 5146     		mov	r1, r10
 1827 0048 C847     		blx	r9
 1828              	.LVL143:
1039:Dsp/widget/wgt_core/widget_mng.c ****                                            x,
1040:Dsp/widget/wgt_core/widget_mng.c ****                                            y,
1041:Dsp/widget/wgt_core/widget_mng.c ****                                            width,
1042:Dsp/widget/wgt_core/widget_mng.c ****                                            height,
1043:Dsp/widget/wgt_core/widget_mng.c ****                                            radius,
1044:Dsp/widget/wgt_core/widget_mng.c ****                                            col_cnv);
1045:Dsp/widget/wgt_core/widget_mng.c **** }
 1829              		.loc 1 1045 1 view .LVU376
 1830 004a 04B0     		add	sp, sp, #16
 1831              	.LCFI45:
 1832              		.cfi_def_cfa_offset 32
 1833              		@ sp needed
 1834 004c BDE8F087 		pop	{r4, r5, r6, r7, r8, r9, r10, pc}
 1835              	.LVL144:
ARM GAS  /var/folders/lx/hc4sn_b53233_zkc9xbbl97r0000gp/T//cc1nXFCr.s 			page 53


 1836              	.L122:
 1837              		.loc 1 1045 1 view .LVU377
 1838              		.align	2
 1839              	.L121:
 1840 0050 00000000 		.word	GenDsp_Interface
 1841              		.cfi_endproc
 1842              	.LFE45:
 1844              		.section	.text.Widget_FillCircle,"ax",%progbits
 1845              		.align	1
 1846              		.syntax unified
 1847              		.thumb
 1848              		.thumb_func
 1849              		.fpu fpv4-sp-d16
 1851              	Widget_FillCircle:
 1852              	.LVL145:
 1853              	.LFB46:
1046:Dsp/widget/wgt_core/widget_mng.c **** 
1047:Dsp/widget/wgt_core/widget_mng.c **** static void Widget_FillCircle(int16_t x, int16_t y, uint8_t radius, bool col_cnv)
1048:Dsp/widget/wgt_core/widget_mng.c **** {
 1854              		.loc 1 1048 1 is_stmt 1 view -0
 1855              		.cfi_startproc
 1856              		@ args = 0, pretend = 0, frame = 0
 1857              		@ frame_needed = 0, uses_anonymous_args = 0
 1858              		.loc 1 1048 1 is_stmt 0 view .LVU379
 1859 0000 2DE9F047 		push	{r4, r5, r6, r7, r8, r9, r10, lr}
 1860              	.LCFI46:
 1861              		.cfi_def_cfa_offset 32
 1862              		.cfi_offset 4, -32
 1863              		.cfi_offset 5, -28
 1864              		.cfi_offset 6, -24
 1865              		.cfi_offset 7, -20
 1866              		.cfi_offset 8, -16
 1867              		.cfi_offset 9, -12
 1868              		.cfi_offset 10, -8
 1869              		.cfi_offset 14, -4
 1870 0004 82B0     		sub	sp, sp, #8
 1871              	.LCFI47:
 1872              		.cfi_def_cfa_offset 40
 1873 0006 8246     		mov	r10, r0
 1874 0008 0E46     		mov	r6, r1
 1875 000a 1746     		mov	r7, r2
 1876 000c 9846     		mov	r8, r3
1049:Dsp/widget/wgt_core/widget_mng.c ****     WidgetObj_TypeDef *tmp = GetCur_Active_Widget();
 1877              		.loc 1 1049 5 is_stmt 1 view .LVU380
 1878              		.loc 1 1049 30 is_stmt 0 view .LVU381
 1879 000e FFF7FEFF 		bl	GetCur_Active_Widget
 1880              	.LVL146:
 1881              		.loc 1 1049 30 view .LVU382
 1882 0012 0446     		mov	r4, r0
 1883              	.LVL147:
1050:Dsp/widget/wgt_core/widget_mng.c **** 
1051:Dsp/widget/wgt_core/widget_mng.c ****     GenDsp_Interface.set_range(tmp->cord_x,
 1884              		.loc 1 1051 5 is_stmt 1 view .LVU383
 1885              		.loc 1 1051 21 is_stmt 0 view .LVU384
 1886 0014 DFF83090 		ldr	r9, .L125
 1887              		.loc 1 1051 5 view .LVU385
 1888 0018 437A     		ldrb	r3, [r0, #9]	@ zero_extendqisi2
ARM GAS  /var/folders/lx/hc4sn_b53233_zkc9xbbl97r0000gp/T//cc1nXFCr.s 			page 54


 1889 001a 027A     		ldrb	r2, [r0, #8]	@ zero_extendqisi2
 1890 001c B0F90610 		ldrsh	r1, [r0, #6]	@ unaligned
 1891 0020 B0F90400 		ldrsh	r0, [r0, #4]	@ unaligned
 1892              	.LVL148:
 1893              		.loc 1 1051 5 view .LVU386
 1894 0024 D9F80050 		ldr	r5, [r9]
 1895 0028 A847     		blx	r5
 1896              	.LVL149:
1052:Dsp/widget/wgt_core/widget_mng.c ****                                tmp->cord_y,
1053:Dsp/widget/wgt_core/widget_mng.c ****                                tmp->width,
1054:Dsp/widget/wgt_core/widget_mng.c ****                                tmp->height);
1055:Dsp/widget/wgt_core/widget_mng.c **** 
1056:Dsp/widget/wgt_core/widget_mng.c ****     GenDsp_Interface.fill_circle(tmp->pixel_map,
 1897              		.loc 1 1056 5 is_stmt 1 view .LVU387
 1898              		.loc 1 1056 21 is_stmt 0 view .LVU388
 1899 002a D9F83090 		ldr	r9, [r9, #48]
 1900              		.loc 1 1056 5 view .LVU389
 1901 002e D4F80A00 		ldr	r0, [r4, #10]	@ unaligned
 1902 0032 CDF80480 		str	r8, [sp, #4]
 1903 0036 0F23     		movs	r3, #15
 1904 0038 0093     		str	r3, [sp]
 1905 003a 3B46     		mov	r3, r7
 1906 003c 3246     		mov	r2, r6
 1907 003e 5146     		mov	r1, r10
 1908 0040 C847     		blx	r9
 1909              	.LVL150:
1057:Dsp/widget/wgt_core/widget_mng.c ****                                  x,
1058:Dsp/widget/wgt_core/widget_mng.c ****                                  y,
1059:Dsp/widget/wgt_core/widget_mng.c ****                                  radius,
1060:Dsp/widget/wgt_core/widget_mng.c ****                                  DRAW_ALL,
1061:Dsp/widget/wgt_core/widget_mng.c ****                                  col_cnv);
1062:Dsp/widget/wgt_core/widget_mng.c **** }
 1910              		.loc 1 1062 1 view .LVU390
 1911 0042 02B0     		add	sp, sp, #8
 1912              	.LCFI48:
 1913              		.cfi_def_cfa_offset 32
 1914              		@ sp needed
 1915 0044 BDE8F087 		pop	{r4, r5, r6, r7, r8, r9, r10, pc}
 1916              	.LVL151:
 1917              	.L126:
 1918              		.loc 1 1062 1 view .LVU391
 1919              		.align	2
 1920              	.L125:
 1921 0048 00000000 		.word	GenDsp_Interface
 1922              		.cfi_endproc
 1923              	.LFE46:
 1925              		.section	.text.Widget_FillCircle_Section,"ax",%progbits
 1926              		.align	1
 1927              		.syntax unified
 1928              		.thumb
 1929              		.thumb_func
 1930              		.fpu fpv4-sp-d16
 1932              	Widget_FillCircle_Section:
 1933              	.LVL152:
 1934              	.LFB47:
1063:Dsp/widget/wgt_core/widget_mng.c **** 
1064:Dsp/widget/wgt_core/widget_mng.c **** static void Widget_FillCircle_Section(int16_t x, int16_t y, uint8_t radius, uint8_t section, bool c
ARM GAS  /var/folders/lx/hc4sn_b53233_zkc9xbbl97r0000gp/T//cc1nXFCr.s 			page 55


1065:Dsp/widget/wgt_core/widget_mng.c **** {
 1935              		.loc 1 1065 1 is_stmt 1 view -0
 1936              		.cfi_startproc
 1937              		@ args = 4, pretend = 0, frame = 0
 1938              		@ frame_needed = 0, uses_anonymous_args = 0
 1939              		.loc 1 1065 1 is_stmt 0 view .LVU393
 1940 0000 2DE9F047 		push	{r4, r5, r6, r7, r8, r9, r10, lr}
 1941              	.LCFI49:
 1942              		.cfi_def_cfa_offset 32
 1943              		.cfi_offset 4, -32
 1944              		.cfi_offset 5, -28
 1945              		.cfi_offset 6, -24
 1946              		.cfi_offset 7, -20
 1947              		.cfi_offset 8, -16
 1948              		.cfi_offset 9, -12
 1949              		.cfi_offset 10, -8
 1950              		.cfi_offset 14, -4
 1951 0004 82B0     		sub	sp, sp, #8
 1952              	.LCFI50:
 1953              		.cfi_def_cfa_offset 40
 1954 0006 8246     		mov	r10, r0
 1955 0008 0E46     		mov	r6, r1
 1956 000a 1746     		mov	r7, r2
 1957 000c 9846     		mov	r8, r3
1066:Dsp/widget/wgt_core/widget_mng.c ****     WidgetObj_TypeDef *tmp = GetCur_Active_Widget();
 1958              		.loc 1 1066 5 is_stmt 1 view .LVU394
 1959              		.loc 1 1066 30 is_stmt 0 view .LVU395
 1960 000e FFF7FEFF 		bl	GetCur_Active_Widget
 1961              	.LVL153:
 1962              		.loc 1 1066 30 view .LVU396
 1963 0012 0446     		mov	r4, r0
 1964              	.LVL154:
1067:Dsp/widget/wgt_core/widget_mng.c **** 
1068:Dsp/widget/wgt_core/widget_mng.c ****     GenDsp_Interface.set_range(tmp->cord_x,
 1965              		.loc 1 1068 5 is_stmt 1 view .LVU397
 1966              		.loc 1 1068 21 is_stmt 0 view .LVU398
 1967 0014 DFF83490 		ldr	r9, .L129
 1968              		.loc 1 1068 5 view .LVU399
 1969 0018 437A     		ldrb	r3, [r0, #9]	@ zero_extendqisi2
 1970 001a 027A     		ldrb	r2, [r0, #8]	@ zero_extendqisi2
 1971 001c B0F90610 		ldrsh	r1, [r0, #6]	@ unaligned
 1972 0020 B0F90400 		ldrsh	r0, [r0, #4]	@ unaligned
 1973              	.LVL155:
 1974              		.loc 1 1068 5 view .LVU400
 1975 0024 D9F80050 		ldr	r5, [r9]
 1976 0028 A847     		blx	r5
 1977              	.LVL156:
1069:Dsp/widget/wgt_core/widget_mng.c ****                                tmp->cord_y,
1070:Dsp/widget/wgt_core/widget_mng.c ****                                tmp->width,
1071:Dsp/widget/wgt_core/widget_mng.c ****                                tmp->height);
1072:Dsp/widget/wgt_core/widget_mng.c **** 
1073:Dsp/widget/wgt_core/widget_mng.c ****     GenDsp_Interface.fill_circle(tmp->pixel_map,
 1978              		.loc 1 1073 5 is_stmt 1 view .LVU401
 1979              		.loc 1 1073 21 is_stmt 0 view .LVU402
 1980 002a D9F83090 		ldr	r9, [r9, #48]
 1981              		.loc 1 1073 5 view .LVU403
 1982 002e D4F80A00 		ldr	r0, [r4, #10]	@ unaligned
ARM GAS  /var/folders/lx/hc4sn_b53233_zkc9xbbl97r0000gp/T//cc1nXFCr.s 			page 56


 1983 0032 9DF82830 		ldrb	r3, [sp, #40]	@ zero_extendqisi2
 1984 0036 0193     		str	r3, [sp, #4]
 1985 0038 CDF80080 		str	r8, [sp]
 1986 003c 3B46     		mov	r3, r7
 1987 003e 3246     		mov	r2, r6
 1988 0040 5146     		mov	r1, r10
 1989 0042 C847     		blx	r9
 1990              	.LVL157:
1074:Dsp/widget/wgt_core/widget_mng.c ****                                  x,
1075:Dsp/widget/wgt_core/widget_mng.c ****                                  y,
1076:Dsp/widget/wgt_core/widget_mng.c ****                                  radius,
1077:Dsp/widget/wgt_core/widget_mng.c ****                                  section,
1078:Dsp/widget/wgt_core/widget_mng.c ****                                  col_cnv);
1079:Dsp/widget/wgt_core/widget_mng.c **** }
 1991              		.loc 1 1079 1 view .LVU404
 1992 0044 02B0     		add	sp, sp, #8
 1993              	.LCFI51:
 1994              		.cfi_def_cfa_offset 32
 1995              		@ sp needed
 1996 0046 BDE8F087 		pop	{r4, r5, r6, r7, r8, r9, r10, pc}
 1997              	.LVL158:
 1998              	.L130:
 1999              		.loc 1 1079 1 view .LVU405
 2000 004a 00BF     		.align	2
 2001              	.L129:
 2002 004c 00000000 		.word	GenDsp_Interface
 2003              		.cfi_endproc
 2004              	.LFE47:
 2006              		.section	.text.Widget_FillRectangle,"ax",%progbits
 2007              		.align	1
 2008              		.syntax unified
 2009              		.thumb
 2010              		.thumb_func
 2011              		.fpu fpv4-sp-d16
 2013              	Widget_FillRectangle:
 2014              	.LVL159:
 2015              	.LFB48:
1080:Dsp/widget/wgt_core/widget_mng.c **** 
1081:Dsp/widget/wgt_core/widget_mng.c **** static void Widget_FillRectangle(int16_t x, int16_t y, uint8_t width, uint8_t height, bool col_cnv)
1082:Dsp/widget/wgt_core/widget_mng.c **** {
 2016              		.loc 1 1082 1 is_stmt 1 view -0
 2017              		.cfi_startproc
 2018              		@ args = 4, pretend = 0, frame = 0
 2019              		@ frame_needed = 0, uses_anonymous_args = 0
 2020              		.loc 1 1082 1 is_stmt 0 view .LVU407
 2021 0000 2DE9F047 		push	{r4, r5, r6, r7, r8, r9, r10, lr}
 2022              	.LCFI52:
 2023              		.cfi_def_cfa_offset 32
 2024              		.cfi_offset 4, -32
 2025              		.cfi_offset 5, -28
 2026              		.cfi_offset 6, -24
 2027              		.cfi_offset 7, -20
 2028              		.cfi_offset 8, -16
 2029              		.cfi_offset 9, -12
 2030              		.cfi_offset 10, -8
 2031              		.cfi_offset 14, -4
 2032 0004 82B0     		sub	sp, sp, #8
ARM GAS  /var/folders/lx/hc4sn_b53233_zkc9xbbl97r0000gp/T//cc1nXFCr.s 			page 57


 2033              	.LCFI53:
 2034              		.cfi_def_cfa_offset 40
 2035 0006 8246     		mov	r10, r0
 2036 0008 0E46     		mov	r6, r1
 2037 000a 1746     		mov	r7, r2
 2038 000c 9846     		mov	r8, r3
1083:Dsp/widget/wgt_core/widget_mng.c ****     WidgetObj_TypeDef *tmp = GetCur_Active_Widget();
 2039              		.loc 1 1083 5 is_stmt 1 view .LVU408
 2040              		.loc 1 1083 30 is_stmt 0 view .LVU409
 2041 000e FFF7FEFF 		bl	GetCur_Active_Widget
 2042              	.LVL160:
 2043              		.loc 1 1083 30 view .LVU410
 2044 0012 0446     		mov	r4, r0
 2045              	.LVL161:
1084:Dsp/widget/wgt_core/widget_mng.c **** 
1085:Dsp/widget/wgt_core/widget_mng.c ****     GenDsp_Interface.set_range(tmp->cord_x,
 2046              		.loc 1 1085 5 is_stmt 1 view .LVU411
 2047              		.loc 1 1085 21 is_stmt 0 view .LVU412
 2048 0014 DFF83490 		ldr	r9, .L133
 2049              		.loc 1 1085 5 view .LVU413
 2050 0018 437A     		ldrb	r3, [r0, #9]	@ zero_extendqisi2
 2051 001a 027A     		ldrb	r2, [r0, #8]	@ zero_extendqisi2
 2052 001c B0F90610 		ldrsh	r1, [r0, #6]	@ unaligned
 2053 0020 B0F90400 		ldrsh	r0, [r0, #4]	@ unaligned
 2054              	.LVL162:
 2055              		.loc 1 1085 5 view .LVU414
 2056 0024 D9F80050 		ldr	r5, [r9]
 2057 0028 A847     		blx	r5
 2058              	.LVL163:
1086:Dsp/widget/wgt_core/widget_mng.c ****                                tmp->cord_y,
1087:Dsp/widget/wgt_core/widget_mng.c ****                                tmp->width,
1088:Dsp/widget/wgt_core/widget_mng.c ****                                tmp->height);
1089:Dsp/widget/wgt_core/widget_mng.c **** 
1090:Dsp/widget/wgt_core/widget_mng.c ****     GenDsp_Interface.fill_rectangle(tmp->pixel_map,
 2059              		.loc 1 1090 5 is_stmt 1 view .LVU415
 2060              		.loc 1 1090 21 is_stmt 0 view .LVU416
 2061 002a D9F83490 		ldr	r9, [r9, #52]
 2062              		.loc 1 1090 5 view .LVU417
 2063 002e D4F80A00 		ldr	r0, [r4, #10]	@ unaligned
 2064 0032 9DF82830 		ldrb	r3, [sp, #40]	@ zero_extendqisi2
 2065 0036 0193     		str	r3, [sp, #4]
 2066 0038 CDF80080 		str	r8, [sp]
 2067 003c 3B46     		mov	r3, r7
 2068 003e 3246     		mov	r2, r6
 2069 0040 5146     		mov	r1, r10
 2070 0042 C847     		blx	r9
 2071              	.LVL164:
1091:Dsp/widget/wgt_core/widget_mng.c ****                                     x,
1092:Dsp/widget/wgt_core/widget_mng.c ****                                     y,
1093:Dsp/widget/wgt_core/widget_mng.c ****                                     width,
1094:Dsp/widget/wgt_core/widget_mng.c ****                                     height,
1095:Dsp/widget/wgt_core/widget_mng.c ****                                     col_cnv);
1096:Dsp/widget/wgt_core/widget_mng.c **** }
 2072              		.loc 1 1096 1 view .LVU418
 2073 0044 02B0     		add	sp, sp, #8
 2074              	.LCFI54:
 2075              		.cfi_def_cfa_offset 32
ARM GAS  /var/folders/lx/hc4sn_b53233_zkc9xbbl97r0000gp/T//cc1nXFCr.s 			page 58


 2076              		@ sp needed
 2077 0046 BDE8F087 		pop	{r4, r5, r6, r7, r8, r9, r10, pc}
 2078              	.LVL165:
 2079              	.L134:
 2080              		.loc 1 1096 1 view .LVU419
 2081 004a 00BF     		.align	2
 2082              	.L133:
 2083 004c 00000000 		.word	GenDsp_Interface
 2084              		.cfi_endproc
 2085              	.LFE48:
 2087              		.section	.text.WidgetUI_GetWidgetWidth,"ax",%progbits
 2088              		.align	1
 2089              		.syntax unified
 2090              		.thumb
 2091              		.thumb_func
 2092              		.fpu fpv4-sp-d16
 2094              	WidgetUI_GetWidgetWidth:
 2095              	.LFB49:
1097:Dsp/widget/wgt_core/widget_mng.c **** 
1098:Dsp/widget/wgt_core/widget_mng.c **** /************************************** widget draw interface *************************************
1099:Dsp/widget/wgt_core/widget_mng.c **** 
1100:Dsp/widget/wgt_core/widget_mng.c **** /************************************** widget UI interface ***************************************
1101:Dsp/widget/wgt_core/widget_mng.c **** static uint8_t WidgetUI_GetWidgetWidth(void)
1102:Dsp/widget/wgt_core/widget_mng.c **** {
 2096              		.loc 1 1102 1 is_stmt 1 view -0
 2097              		.cfi_startproc
 2098              		@ args = 0, pretend = 0, frame = 0
 2099              		@ frame_needed = 0, uses_anonymous_args = 0
 2100 0000 08B5     		push	{r3, lr}
 2101              	.LCFI55:
 2102              		.cfi_def_cfa_offset 8
 2103              		.cfi_offset 3, -8
 2104              		.cfi_offset 14, -4
1103:Dsp/widget/wgt_core/widget_mng.c ****     WidgetObj_TypeDef *widget_tmp = GetCur_Active_Widget();
 2105              		.loc 1 1103 5 view .LVU421
 2106              		.loc 1 1103 37 is_stmt 0 view .LVU422
 2107 0002 FFF7FEFF 		bl	GetCur_Active_Widget
 2108              	.LVL166:
1104:Dsp/widget/wgt_core/widget_mng.c **** 
1105:Dsp/widget/wgt_core/widget_mng.c ****     if (widget_tmp != NULL)
 2109              		.loc 1 1105 5 is_stmt 1 view .LVU423
 2110              		.loc 1 1105 8 is_stmt 0 view .LVU424
 2111 0006 08B1     		cbz	r0, .L137
1106:Dsp/widget/wgt_core/widget_mng.c ****         return widget_tmp->width;
 2112              		.loc 1 1106 9 is_stmt 1 view .LVU425
 2113              		.loc 1 1106 26 is_stmt 0 view .LVU426
 2114 0008 007A     		ldrb	r0, [r0, #8]	@ zero_extendqisi2
 2115              	.LVL167:
 2116              	.L136:
1107:Dsp/widget/wgt_core/widget_mng.c **** 
1108:Dsp/widget/wgt_core/widget_mng.c ****     return 0;
1109:Dsp/widget/wgt_core/widget_mng.c **** }
 2117              		.loc 1 1109 1 view .LVU427
 2118 000a 08BD     		pop	{r3, pc}
 2119              	.LVL168:
 2120              	.L137:
1108:Dsp/widget/wgt_core/widget_mng.c **** }
ARM GAS  /var/folders/lx/hc4sn_b53233_zkc9xbbl97r0000gp/T//cc1nXFCr.s 			page 59


 2121              		.loc 1 1108 12 view .LVU428
 2122 000c 0020     		movs	r0, #0
 2123              	.LVL169:
1108:Dsp/widget/wgt_core/widget_mng.c **** }
 2124              		.loc 1 1108 12 view .LVU429
 2125 000e FCE7     		b	.L136
 2126              		.cfi_endproc
 2127              	.LFE49:
 2129              		.section	.text.WidgetUI_GetUtil,"ax",%progbits
 2130              		.align	1
 2131              		.syntax unified
 2132              		.thumb
 2133              		.thumb_func
 2134              		.fpu fpv4-sp-d16
 2136              	WidgetUI_GetUtil:
 2137              	.LFB51:
1110:Dsp/widget/wgt_core/widget_mng.c **** 
1111:Dsp/widget/wgt_core/widget_mng.c **** static void WidgetUI_Init(void)
1112:Dsp/widget/wgt_core/widget_mng.c **** {
1113:Dsp/widget/wgt_core/widget_mng.c ****     UI_Set_DspInterface(WidgetDraw_Interface.draw_point,
1114:Dsp/widget/wgt_core/widget_mng.c ****                         WidgetDraw_Interface.draw_hline,
1115:Dsp/widget/wgt_core/widget_mng.c ****                         WidgetDraw_Interface.draw_vline,
1116:Dsp/widget/wgt_core/widget_mng.c ****                         WidgetDraw_Interface.draw_rectangle,
1117:Dsp/widget/wgt_core/widget_mng.c ****                         WidgetDraw_Interface.draw_radius_rectangle,
1118:Dsp/widget/wgt_core/widget_mng.c ****                         WidgetDraw_Interface.draw_circle,
1119:Dsp/widget/wgt_core/widget_mng.c ****                         WidgetDraw_Interface.draw_circle_section,
1120:Dsp/widget/wgt_core/widget_mng.c ****                         WidgetDraw_Interface.draw_str,
1121:Dsp/widget/wgt_core/widget_mng.c ****                         WidgetDraw_Interface.draw_num,
1122:Dsp/widget/wgt_core/widget_mng.c ****                         WidgetDraw_Interface.fill_circle,
1123:Dsp/widget/wgt_core/widget_mng.c ****                         WidgetDraw_Interface.fill_circle_section,
1124:Dsp/widget/wgt_core/widget_mng.c ****                         WidgetDraw_Interface.fill_rectangle,
1125:Dsp/widget/wgt_core/widget_mng.c ****                         WidgetDraw_Interface.fill_radius_rectangle);
1126:Dsp/widget/wgt_core/widget_mng.c **** 
1127:Dsp/widget/wgt_core/widget_mng.c ****     UI_Set_GetWidgetWidthMathod(WidgetUI_GetWidgetWidth);
1128:Dsp/widget/wgt_core/widget_mng.c **** }
1129:Dsp/widget/wgt_core/widget_mng.c **** static WidgetUI_Utils_TypeDef *WidgetUI_GetUtil(void)
1130:Dsp/widget/wgt_core/widget_mng.c **** {
 2138              		.loc 1 1130 1 is_stmt 1 view -0
 2139              		.cfi_startproc
 2140              		@ args = 0, pretend = 0, frame = 0
 2141              		@ frame_needed = 0, uses_anonymous_args = 0
 2142              		@ link register save eliminated.
1131:Dsp/widget/wgt_core/widget_mng.c ****     return &WidgetUI_Interface;
 2143              		.loc 1 1131 5 view .LVU431
1132:Dsp/widget/wgt_core/widget_mng.c **** }
 2144              		.loc 1 1132 1 is_stmt 0 view .LVU432
 2145 0000 0048     		ldr	r0, .L140
 2146 0002 7047     		bx	lr
 2147              	.L141:
 2148              		.align	2
 2149              	.L140:
 2150 0004 00000000 		.word	.LANCHOR5
 2151              		.cfi_endproc
 2152              	.LFE51:
 2154              		.section	.text.WidgetUI_SetAll_CoordY_Offset,"ax",%progbits
 2155              		.align	1
 2156              		.syntax unified
ARM GAS  /var/folders/lx/hc4sn_b53233_zkc9xbbl97r0000gp/T//cc1nXFCr.s 			page 60


 2157              		.thumb
 2158              		.thumb_func
 2159              		.fpu fpv4-sp-d16
 2161              	WidgetUI_SetAll_CoordY_Offset:
 2162              	.LVL170:
 2163              	.LFB52:
1133:Dsp/widget/wgt_core/widget_mng.c **** 
1134:Dsp/widget/wgt_core/widget_mng.c **** /* still in developing */
1135:Dsp/widget/wgt_core/widget_mng.c **** static void WidgetUI_SetAll_CoordY_Offset(int8_t offset)
1136:Dsp/widget/wgt_core/widget_mng.c **** {
 2164              		.loc 1 1136 1 is_stmt 1 view -0
 2165              		.cfi_startproc
 2166              		@ args = 0, pretend = 0, frame = 0
 2167              		@ frame_needed = 0, uses_anonymous_args = 0
 2168              		.loc 1 1136 1 is_stmt 0 view .LVU434
 2169 0000 38B5     		push	{r3, r4, r5, lr}
 2170              	.LCFI56:
 2171              		.cfi_def_cfa_offset 16
 2172              		.cfi_offset 3, -16
 2173              		.cfi_offset 4, -12
 2174              		.cfi_offset 5, -8
 2175              		.cfi_offset 14, -4
 2176 0002 0546     		mov	r5, r0
1137:Dsp/widget/wgt_core/widget_mng.c ****     list_obj *ctl_list = GetCur_Active_Widget()->UICtl_List;
 2177              		.loc 1 1137 5 is_stmt 1 view .LVU435
 2178              		.loc 1 1137 26 is_stmt 0 view .LVU436
 2179 0004 FFF7FEFF 		bl	GetCur_Active_Widget
 2180              	.LVL171:
 2181              		.loc 1 1137 15 view .LVU437
 2182 0008 D0F82140 		ldr	r4, [r0, #33]	@ unaligned
 2183              	.LVL172:
1138:Dsp/widget/wgt_core/widget_mng.c ****     item_obj *ui_item = NULL;
 2184              		.loc 1 1138 5 is_stmt 1 view .LVU438
1139:Dsp/widget/wgt_core/widget_mng.c **** 
1140:Dsp/widget/wgt_core/widget_mng.c ****     if (ctl_list != NULL)
 2185              		.loc 1 1140 5 view .LVU439
 2186              		.loc 1 1140 8 is_stmt 0 view .LVU440
 2187 000c 4CB9     		cbnz	r4, .L143
 2188              	.LVL173:
 2189              	.L142:
1141:Dsp/widget/wgt_core/widget_mng.c ****     {
1142:Dsp/widget/wgt_core/widget_mng.c ****         ui_item = ctl_list;
1143:Dsp/widget/wgt_core/widget_mng.c **** 
1144:Dsp/widget/wgt_core/widget_mng.c ****         while (ui_item != NULL)
1145:Dsp/widget/wgt_core/widget_mng.c ****         {
1146:Dsp/widget/wgt_core/widget_mng.c ****             if (ui_item->data != NULL)
1147:Dsp/widget/wgt_core/widget_mng.c ****             {
1148:Dsp/widget/wgt_core/widget_mng.c ****                 UI_GenCTL_Handle ui_handle = ((WidgetUI_Item_TypeDef *)(ui_item->data))->Handler;
1149:Dsp/widget/wgt_core/widget_mng.c **** 
1150:Dsp/widget/wgt_core/widget_mng.c ****                 switch (((WidgetUI_Item_TypeDef *)(ui_item->data))->type)
1151:Dsp/widget/wgt_core/widget_mng.c ****                 {
1152:Dsp/widget/wgt_core/widget_mng.c ****                 case UI_Type_Button:
1153:Dsp/widget/wgt_core/widget_mng.c ****                     UI_Button.move(HandleToButtonObj(ui_handle), HandleToButtonObj(ui_handle)->Gen_
1154:Dsp/widget/wgt_core/widget_mng.c ****                     break;
1155:Dsp/widget/wgt_core/widget_mng.c **** 
1156:Dsp/widget/wgt_core/widget_mng.c ****                 case UI_Type_CheckBox:
1157:Dsp/widget/wgt_core/widget_mng.c ****                     UI_CheckBox.Move(HandleToCheckBoxObj(ui_handle), HandleToCheckBoxObj(ui_handle)
ARM GAS  /var/folders/lx/hc4sn_b53233_zkc9xbbl97r0000gp/T//cc1nXFCr.s 			page 61


1158:Dsp/widget/wgt_core/widget_mng.c ****                     break;
1159:Dsp/widget/wgt_core/widget_mng.c **** 
1160:Dsp/widget/wgt_core/widget_mng.c ****                 case UI_Type_SlideBar:
1161:Dsp/widget/wgt_core/widget_mng.c ****                     UI_SlideBar.Move(HandleToSlideBarObj(ui_handle), HandleToSlideBarObj(ui_handle)
1162:Dsp/widget/wgt_core/widget_mng.c ****                     break;
1163:Dsp/widget/wgt_core/widget_mng.c **** 
1164:Dsp/widget/wgt_core/widget_mng.c ****                 case UI_Type_ProcBar:
1165:Dsp/widget/wgt_core/widget_mng.c ****                     UI_ProcessBar.Move(HandleToProcessBarObj(ui_handle), HandleToProcessBarObj(ui_h
1166:Dsp/widget/wgt_core/widget_mng.c ****                     break;
1167:Dsp/widget/wgt_core/widget_mng.c **** 
1168:Dsp/widget/wgt_core/widget_mng.c ****                 case UI_Type_Drop:
1169:Dsp/widget/wgt_core/widget_mng.c ****                     UI_Drop.Move(HandleToDropObj(ui_handle), HandleToDropObj(ui_handle)->Gen_Data.x
1170:Dsp/widget/wgt_core/widget_mng.c ****                     break;
1171:Dsp/widget/wgt_core/widget_mng.c **** 
1172:Dsp/widget/wgt_core/widget_mng.c ****                 case UI_Type_DigInput:
1173:Dsp/widget/wgt_core/widget_mng.c ****                     UI_DigInput.Move(HandleToDigInputObj(ui_handle), HandleToDigInputObj(ui_handle)
1174:Dsp/widget/wgt_core/widget_mng.c ****                     break;
1175:Dsp/widget/wgt_core/widget_mng.c **** 
1176:Dsp/widget/wgt_core/widget_mng.c ****                 case UI_Type_StrInput:
1177:Dsp/widget/wgt_core/widget_mng.c ****                     UI_StrInput.Move(HandleToStrInputObj(ui_handle), HandleToStrInputObj(ui_handle)
1178:Dsp/widget/wgt_core/widget_mng.c ****                     break;
1179:Dsp/widget/wgt_core/widget_mng.c **** 
1180:Dsp/widget/wgt_core/widget_mng.c ****                 default:
1181:Dsp/widget/wgt_core/widget_mng.c ****                     break;
1182:Dsp/widget/wgt_core/widget_mng.c ****                 }
1183:Dsp/widget/wgt_core/widget_mng.c ****             }
1184:Dsp/widget/wgt_core/widget_mng.c **** 
1185:Dsp/widget/wgt_core/widget_mng.c ****             ui_item = ui_item->nxt;
1186:Dsp/widget/wgt_core/widget_mng.c ****         }
1187:Dsp/widget/wgt_core/widget_mng.c ****     }
1188:Dsp/widget/wgt_core/widget_mng.c **** }
 2190              		.loc 1 1188 1 view .LVU441
 2191 000e 38BD     		pop	{r3, r4, r5, pc}
 2192              	.LVL174:
 2193              	.L153:
 2194              	.LBB13:
1153:Dsp/widget/wgt_core/widget_mng.c ****                     break;
 2195              		.loc 1 1153 21 is_stmt 1 view .LVU442
1153:Dsp/widget/wgt_core/widget_mng.c ****                     break;
 2196              		.loc 1 1153 30 is_stmt 0 view .LVU443
 2197 0010 2C4B     		ldr	r3, .L156
 2198 0012 9B69     		ldr	r3, [r3, #24]
1153:Dsp/widget/wgt_core/widget_mng.c ****                     break;
 2199              		.loc 1 1153 146 view .LVU444
 2200 0014 C288     		ldrh	r2, [r0, #6]	@ unaligned
1153:Dsp/widget/wgt_core/widget_mng.c ****                     break;
 2201              		.loc 1 1153 149 view .LVU445
 2202 0016 2A44     		add	r2, r2, r5
1153:Dsp/widget/wgt_core/widget_mng.c ****                     break;
 2203              		.loc 1 1153 21 view .LVU446
 2204 0018 12B2     		sxth	r2, r2
 2205 001a B0F90410 		ldrsh	r1, [r0, #4]	@ unaligned
 2206 001e 9847     		blx	r3
 2207              	.LVL175:
1154:Dsp/widget/wgt_core/widget_mng.c **** 
 2208              		.loc 1 1154 21 is_stmt 1 view .LVU447
 2209              	.L145:
ARM GAS  /var/folders/lx/hc4sn_b53233_zkc9xbbl97r0000gp/T//cc1nXFCr.s 			page 62


1154:Dsp/widget/wgt_core/widget_mng.c **** 
 2210              		.loc 1 1154 21 is_stmt 0 view .LVU448
 2211              	.LBE13:
1185:Dsp/widget/wgt_core/widget_mng.c ****         }
 2212              		.loc 1 1185 13 is_stmt 1 view .LVU449
1185:Dsp/widget/wgt_core/widget_mng.c ****         }
 2213              		.loc 1 1185 21 is_stmt 0 view .LVU450
 2214 0020 E468     		ldr	r4, [r4, #12]
 2215              	.LVL176:
 2216              	.L143:
1144:Dsp/widget/wgt_core/widget_mng.c ****         {
 2217              		.loc 1 1144 15 is_stmt 1 view .LVU451
 2218 0022 002C     		cmp	r4, #0
 2219 0024 F3D0     		beq	.L142
1146:Dsp/widget/wgt_core/widget_mng.c ****             {
 2220              		.loc 1 1146 13 view .LVU452
1146:Dsp/widget/wgt_core/widget_mng.c ****             {
 2221              		.loc 1 1146 24 is_stmt 0 view .LVU453
 2222 0026 2369     		ldr	r3, [r4, #16]
1146:Dsp/widget/wgt_core/widget_mng.c ****             {
 2223              		.loc 1 1146 16 view .LVU454
 2224 0028 002B     		cmp	r3, #0
 2225 002a F9D0     		beq	.L145
 2226              	.LBB14:
1148:Dsp/widget/wgt_core/widget_mng.c **** 
 2227              		.loc 1 1148 17 is_stmt 1 view .LVU455
1148:Dsp/widget/wgt_core/widget_mng.c **** 
 2228              		.loc 1 1148 34 is_stmt 0 view .LVU456
 2229 002c 5868     		ldr	r0, [r3, #4]
 2230              	.LVL177:
1150:Dsp/widget/wgt_core/widget_mng.c ****                 {
 2231              		.loc 1 1150 17 is_stmt 1 view .LVU457
1150:Dsp/widget/wgt_core/widget_mng.c ****                 {
 2232              		.loc 1 1150 67 is_stmt 0 view .LVU458
 2233 002e 1B78     		ldrb	r3, [r3]	@ zero_extendqisi2
 2234 0030 062B     		cmp	r3, #6
 2235 0032 F5D8     		bhi	.L145
 2236 0034 01A2     		adr	r2, .L147
 2237 0036 52F823F0 		ldr	pc, [r2, r3, lsl #2]
 2238 003a 00BF     		.p2align 2
 2239              	.L147:
 2240 003c 11000000 		.word	.L153+1
 2241 0040 59000000 		.word	.L152+1
 2242 0044 6B000000 		.word	.L151+1
 2243 0048 7D000000 		.word	.L150+1
 2244 004c 8F000000 		.word	.L149+1
 2245 0050 A1000000 		.word	.L148+1
 2246 0054 B3000000 		.word	.L146+1
 2247              		.p2align 1
 2248              	.L152:
1157:Dsp/widget/wgt_core/widget_mng.c ****                     break;
 2249              		.loc 1 1157 21 is_stmt 1 view .LVU459
1157:Dsp/widget/wgt_core/widget_mng.c ****                     break;
 2250              		.loc 1 1157 32 is_stmt 0 view .LVU460
 2251 0058 1B4B     		ldr	r3, .L156+4
 2252 005a 9B68     		ldr	r3, [r3, #8]
1157:Dsp/widget/wgt_core/widget_mng.c ****                     break;
ARM GAS  /var/folders/lx/hc4sn_b53233_zkc9xbbl97r0000gp/T//cc1nXFCr.s 			page 63


 2253              		.loc 1 1157 154 view .LVU461
 2254 005c C288     		ldrh	r2, [r0, #6]	@ unaligned
1157:Dsp/widget/wgt_core/widget_mng.c ****                     break;
 2255              		.loc 1 1157 157 view .LVU462
 2256 005e 2A44     		add	r2, r2, r5
1157:Dsp/widget/wgt_core/widget_mng.c ****                     break;
 2257              		.loc 1 1157 21 view .LVU463
 2258 0060 12B2     		sxth	r2, r2
 2259 0062 B0F90410 		ldrsh	r1, [r0, #4]	@ unaligned
 2260 0066 9847     		blx	r3
 2261              	.LVL178:
1158:Dsp/widget/wgt_core/widget_mng.c **** 
 2262              		.loc 1 1158 21 is_stmt 1 view .LVU464
 2263 0068 DAE7     		b	.L145
 2264              	.LVL179:
 2265              	.L151:
1161:Dsp/widget/wgt_core/widget_mng.c ****                     break;
 2266              		.loc 1 1161 21 view .LVU465
1161:Dsp/widget/wgt_core/widget_mng.c ****                     break;
 2267              		.loc 1 1161 32 is_stmt 0 view .LVU466
 2268 006a 184B     		ldr	r3, .L156+8
 2269 006c 9B68     		ldr	r3, [r3, #8]
1161:Dsp/widget/wgt_core/widget_mng.c ****                     break;
 2270              		.loc 1 1161 154 view .LVU467
 2271 006e C288     		ldrh	r2, [r0, #6]	@ unaligned
1161:Dsp/widget/wgt_core/widget_mng.c ****                     break;
 2272              		.loc 1 1161 157 view .LVU468
 2273 0070 2A44     		add	r2, r2, r5
1161:Dsp/widget/wgt_core/widget_mng.c ****                     break;
 2274              		.loc 1 1161 21 view .LVU469
 2275 0072 12B2     		sxth	r2, r2
 2276 0074 B0F90410 		ldrsh	r1, [r0, #4]	@ unaligned
 2277 0078 9847     		blx	r3
 2278              	.LVL180:
1162:Dsp/widget/wgt_core/widget_mng.c **** 
 2279              		.loc 1 1162 21 is_stmt 1 view .LVU470
 2280 007a D1E7     		b	.L145
 2281              	.LVL181:
 2282              	.L150:
1165:Dsp/widget/wgt_core/widget_mng.c ****                     break;
 2283              		.loc 1 1165 21 view .LVU471
1165:Dsp/widget/wgt_core/widget_mng.c ****                     break;
 2284              		.loc 1 1165 34 is_stmt 0 view .LVU472
 2285 007c 144B     		ldr	r3, .L156+12
 2286 007e 5B68     		ldr	r3, [r3, #4]
1165:Dsp/widget/wgt_core/widget_mng.c ****                     break;
 2287              		.loc 1 1165 162 view .LVU473
 2288 0080 C288     		ldrh	r2, [r0, #6]	@ unaligned
1165:Dsp/widget/wgt_core/widget_mng.c ****                     break;
 2289              		.loc 1 1165 165 view .LVU474
 2290 0082 2A44     		add	r2, r2, r5
1165:Dsp/widget/wgt_core/widget_mng.c ****                     break;
 2291              		.loc 1 1165 21 view .LVU475
 2292 0084 12B2     		sxth	r2, r2
 2293 0086 B0F90410 		ldrsh	r1, [r0, #4]	@ unaligned
 2294 008a 9847     		blx	r3
 2295              	.LVL182:
ARM GAS  /var/folders/lx/hc4sn_b53233_zkc9xbbl97r0000gp/T//cc1nXFCr.s 			page 64


1166:Dsp/widget/wgt_core/widget_mng.c **** 
 2296              		.loc 1 1166 21 is_stmt 1 view .LVU476
 2297 008c C8E7     		b	.L145
 2298              	.LVL183:
 2299              	.L149:
1169:Dsp/widget/wgt_core/widget_mng.c ****                     break;
 2300              		.loc 1 1169 21 view .LVU477
1169:Dsp/widget/wgt_core/widget_mng.c ****                     break;
 2301              		.loc 1 1169 28 is_stmt 0 view .LVU478
 2302 008e 114B     		ldr	r3, .L156+16
 2303 0090 9B68     		ldr	r3, [r3, #8]
1169:Dsp/widget/wgt_core/widget_mng.c ****                     break;
 2304              		.loc 1 1169 138 view .LVU479
 2305 0092 C288     		ldrh	r2, [r0, #6]	@ unaligned
1169:Dsp/widget/wgt_core/widget_mng.c ****                     break;
 2306              		.loc 1 1169 141 view .LVU480
 2307 0094 2A44     		add	r2, r2, r5
1169:Dsp/widget/wgt_core/widget_mng.c ****                     break;
 2308              		.loc 1 1169 21 view .LVU481
 2309 0096 12B2     		sxth	r2, r2
 2310 0098 B0F90410 		ldrsh	r1, [r0, #4]	@ unaligned
 2311 009c 9847     		blx	r3
 2312              	.LVL184:
1170:Dsp/widget/wgt_core/widget_mng.c **** 
 2313              		.loc 1 1170 21 is_stmt 1 view .LVU482
 2314 009e BFE7     		b	.L145
 2315              	.LVL185:
 2316              	.L148:
1173:Dsp/widget/wgt_core/widget_mng.c ****                     break;
 2317              		.loc 1 1173 21 view .LVU483
1173:Dsp/widget/wgt_core/widget_mng.c ****                     break;
 2318              		.loc 1 1173 32 is_stmt 0 view .LVU484
 2319 00a0 0D4B     		ldr	r3, .L156+20
 2320 00a2 DB68     		ldr	r3, [r3, #12]
1173:Dsp/widget/wgt_core/widget_mng.c ****                     break;
 2321              		.loc 1 1173 154 view .LVU485
 2322 00a4 C288     		ldrh	r2, [r0, #6]	@ unaligned
1173:Dsp/widget/wgt_core/widget_mng.c ****                     break;
 2323              		.loc 1 1173 157 view .LVU486
 2324 00a6 2A44     		add	r2, r2, r5
1173:Dsp/widget/wgt_core/widget_mng.c ****                     break;
 2325              		.loc 1 1173 21 view .LVU487
 2326 00a8 12B2     		sxth	r2, r2
 2327 00aa B0F90410 		ldrsh	r1, [r0, #4]	@ unaligned
 2328 00ae 9847     		blx	r3
 2329              	.LVL186:
1174:Dsp/widget/wgt_core/widget_mng.c **** 
 2330              		.loc 1 1174 21 is_stmt 1 view .LVU488
 2331 00b0 B6E7     		b	.L145
 2332              	.LVL187:
 2333              	.L146:
1177:Dsp/widget/wgt_core/widget_mng.c ****                     break;
 2334              		.loc 1 1177 21 view .LVU489
1177:Dsp/widget/wgt_core/widget_mng.c ****                     break;
 2335              		.loc 1 1177 32 is_stmt 0 view .LVU490
 2336 00b2 0A4B     		ldr	r3, .L156+24
 2337 00b4 5B68     		ldr	r3, [r3, #4]
ARM GAS  /var/folders/lx/hc4sn_b53233_zkc9xbbl97r0000gp/T//cc1nXFCr.s 			page 65


1177:Dsp/widget/wgt_core/widget_mng.c ****                     break;
 2338              		.loc 1 1177 154 view .LVU491
 2339 00b6 C288     		ldrh	r2, [r0, #6]	@ unaligned
1177:Dsp/widget/wgt_core/widget_mng.c ****                     break;
 2340              		.loc 1 1177 157 view .LVU492
 2341 00b8 2A44     		add	r2, r2, r5
1177:Dsp/widget/wgt_core/widget_mng.c ****                     break;
 2342              		.loc 1 1177 21 view .LVU493
 2343 00ba 12B2     		sxth	r2, r2
 2344 00bc B0F90410 		ldrsh	r1, [r0, #4]	@ unaligned
 2345 00c0 9847     		blx	r3
 2346              	.LVL188:
1178:Dsp/widget/wgt_core/widget_mng.c **** 
 2347              		.loc 1 1178 21 is_stmt 1 view .LVU494
 2348 00c2 ADE7     		b	.L145
 2349              	.L157:
 2350              		.align	2
 2351              	.L156:
 2352 00c4 00000000 		.word	UI_Button
 2353 00c8 00000000 		.word	UI_CheckBox
 2354 00cc 00000000 		.word	UI_SlideBar
 2355 00d0 00000000 		.word	UI_ProcessBar
 2356 00d4 00000000 		.word	UI_Drop
 2357 00d8 00000000 		.word	UI_DigInput
 2358 00dc 00000000 		.word	UI_StrInput
 2359              	.LBE14:
 2360              		.cfi_endproc
 2361              	.LFE52:
 2363              		.section	.text.WidgetUI_GetCoord,"ax",%progbits
 2364              		.align	1
 2365              		.syntax unified
 2366              		.thumb
 2367              		.thumb_func
 2368              		.fpu fpv4-sp-d16
 2370              	WidgetUI_GetCoord:
 2371              	.LVL189:
 2372              	.LFB58:
1189:Dsp/widget/wgt_core/widget_mng.c **** 
1190:Dsp/widget/wgt_core/widget_mng.c **** static void WidgetUI_GetCur_SelectedCtl()
1191:Dsp/widget/wgt_core/widget_mng.c **** {
1192:Dsp/widget/wgt_core/widget_mng.c ****     WidgetObj_TypeDef *tmp = GetCur_Active_Widget();
1193:Dsp/widget/wgt_core/widget_mng.c **** }
1194:Dsp/widget/wgt_core/widget_mng.c **** 
1195:Dsp/widget/wgt_core/widget_mng.c **** static WidgetUI_Item_TypeDef *WidgetUI_GetCurSelected_UICTL_Item(void)
1196:Dsp/widget/wgt_core/widget_mng.c **** {
1197:Dsp/widget/wgt_core/widget_mng.c ****     return (WidgetUI_Item_TypeDef *)(GetCur_Active_Widget()->CurSelected_CTL->data);
1198:Dsp/widget/wgt_core/widget_mng.c **** }
1199:Dsp/widget/wgt_core/widget_mng.c **** 
1200:Dsp/widget/wgt_core/widget_mng.c **** static bool WidgetUI_SelectCtl(int8_t *search_offset)
1201:Dsp/widget/wgt_core/widget_mng.c **** {
1202:Dsp/widget/wgt_core/widget_mng.c ****     volatile WidgetObj_TypeDef *tmp = GetCur_Active_Widget();
1203:Dsp/widget/wgt_core/widget_mng.c ****     volatile item_obj *UIItem_tmp = tmp->CurSelected_CTL;
1204:Dsp/widget/wgt_core/widget_mng.c ****     WidgetUI_FreshState_List fresh_state;
1205:Dsp/widget/wgt_core/widget_mng.c ****     int8_t offset = *search_offset;
1206:Dsp/widget/wgt_core/widget_mng.c **** 
1207:Dsp/widget/wgt_core/widget_mng.c ****     // while (true)
1208:Dsp/widget/wgt_core/widget_mng.c ****     // {
ARM GAS  /var/folders/lx/hc4sn_b53233_zkc9xbbl97r0000gp/T//cc1nXFCr.s 			page 66


1209:Dsp/widget/wgt_core/widget_mng.c ****     if ((UIItem_tmp == NULL) ||
1210:Dsp/widget/wgt_core/widget_mng.c ****         (tmp->CurSelected_CTL == NULL))
1211:Dsp/widget/wgt_core/widget_mng.c ****         return false;
1212:Dsp/widget/wgt_core/widget_mng.c **** 
1213:Dsp/widget/wgt_core/widget_mng.c ****     if (*search_offset > tmp->ui_ctl_num)
1214:Dsp/widget/wgt_core/widget_mng.c ****         *search_offset = tmp->ui_ctl_num;
1215:Dsp/widget/wgt_core/widget_mng.c **** 
1216:Dsp/widget/wgt_core/widget_mng.c ****     if (*search_offset > 0)
1217:Dsp/widget/wgt_core/widget_mng.c ****     {
1218:Dsp/widget/wgt_core/widget_mng.c ****         for (; *search_offset > 0; UIItem_tmp = UIItem_tmp->nxt, (*search_offset)--)
1219:Dsp/widget/wgt_core/widget_mng.c ****         {
1220:Dsp/widget/wgt_core/widget_mng.c ****             if (UIItem_tmp->nxt == NULL)
1221:Dsp/widget/wgt_core/widget_mng.c ****                 break;
1222:Dsp/widget/wgt_core/widget_mng.c ****         }
1223:Dsp/widget/wgt_core/widget_mng.c ****     }
1224:Dsp/widget/wgt_core/widget_mng.c ****     else if (*search_offset < 0)
1225:Dsp/widget/wgt_core/widget_mng.c ****     {
1226:Dsp/widget/wgt_core/widget_mng.c ****         for (; *search_offset < 0; UIItem_tmp = UIItem_tmp->prv, (*search_offset)++)
1227:Dsp/widget/wgt_core/widget_mng.c ****         {
1228:Dsp/widget/wgt_core/widget_mng.c ****             if (UIItem_tmp->prv == NULL)
1229:Dsp/widget/wgt_core/widget_mng.c ****                 break;
1230:Dsp/widget/wgt_core/widget_mng.c ****         }
1231:Dsp/widget/wgt_core/widget_mng.c ****     }
1232:Dsp/widget/wgt_core/widget_mng.c **** 
1233:Dsp/widget/wgt_core/widget_mng.c ****     /* move UI selector on it */
1234:Dsp/widget/wgt_core/widget_mng.c ****     tmp->CurSelected_CTL = UIItem_tmp;
1235:Dsp/widget/wgt_core/widget_mng.c **** 
1236:Dsp/widget/wgt_core/widget_mng.c ****     switch (((WidgetUI_Item_TypeDef *)(tmp->CurSelected_CTL->data))->type)
1237:Dsp/widget/wgt_core/widget_mng.c ****     {
1238:Dsp/widget/wgt_core/widget_mng.c ****     case UI_Type_Button:
1239:Dsp/widget/wgt_core/widget_mng.c ****         if (HandleToButtonObj(((WidgetUI_Item_TypeDef *)(tmp->CurSelected_CTL->data))->Handler)->Ge
1240:Dsp/widget/wgt_core/widget_mng.c ****             return true;
1241:Dsp/widget/wgt_core/widget_mng.c ****         else
1242:Dsp/widget/wgt_core/widget_mng.c ****             break;
1243:Dsp/widget/wgt_core/widget_mng.c **** 
1244:Dsp/widget/wgt_core/widget_mng.c ****     case UI_Type_CheckBox:
1245:Dsp/widget/wgt_core/widget_mng.c ****         if (HandleToCheckBoxObj(((WidgetUI_Item_TypeDef *)(tmp->CurSelected_CTL->data))->Handler)->
1246:Dsp/widget/wgt_core/widget_mng.c ****             return true;
1247:Dsp/widget/wgt_core/widget_mng.c ****         else
1248:Dsp/widget/wgt_core/widget_mng.c ****             break;
1249:Dsp/widget/wgt_core/widget_mng.c **** 
1250:Dsp/widget/wgt_core/widget_mng.c ****     case UI_Type_SlideBar:
1251:Dsp/widget/wgt_core/widget_mng.c ****         if (HandleToSlideBarObj(((WidgetUI_Item_TypeDef *)(tmp->CurSelected_CTL->data))->Handler)->
1252:Dsp/widget/wgt_core/widget_mng.c ****             return true;
1253:Dsp/widget/wgt_core/widget_mng.c ****         else
1254:Dsp/widget/wgt_core/widget_mng.c ****             break;
1255:Dsp/widget/wgt_core/widget_mng.c **** 
1256:Dsp/widget/wgt_core/widget_mng.c ****     case UI_Type_Drop:
1257:Dsp/widget/wgt_core/widget_mng.c ****         if (HandleToDropObj(((WidgetUI_Item_TypeDef *)(tmp->CurSelected_CTL->data))->Handler)->Gen_
1258:Dsp/widget/wgt_core/widget_mng.c ****             return true;
1259:Dsp/widget/wgt_core/widget_mng.c ****         else
1260:Dsp/widget/wgt_core/widget_mng.c ****             break;
1261:Dsp/widget/wgt_core/widget_mng.c **** 
1262:Dsp/widget/wgt_core/widget_mng.c ****     case UI_Type_ProcBar:
1263:Dsp/widget/wgt_core/widget_mng.c ****         if (HandleToProcessBarObj(((WidgetUI_Item_TypeDef *)(tmp->CurSelected_CTL->data))->Handler)
1264:Dsp/widget/wgt_core/widget_mng.c ****             return true;
1265:Dsp/widget/wgt_core/widget_mng.c ****         else
ARM GAS  /var/folders/lx/hc4sn_b53233_zkc9xbbl97r0000gp/T//cc1nXFCr.s 			page 67


1266:Dsp/widget/wgt_core/widget_mng.c ****             break;
1267:Dsp/widget/wgt_core/widget_mng.c **** 
1268:Dsp/widget/wgt_core/widget_mng.c ****     case UI_Type_DigInput:
1269:Dsp/widget/wgt_core/widget_mng.c ****         if (HandleToDigInputObj(((WidgetUI_Item_TypeDef *)(tmp->CurSelected_CTL->data))->Handler)->
1270:Dsp/widget/wgt_core/widget_mng.c ****             return true;
1271:Dsp/widget/wgt_core/widget_mng.c ****         else
1272:Dsp/widget/wgt_core/widget_mng.c ****             break;
1273:Dsp/widget/wgt_core/widget_mng.c **** 
1274:Dsp/widget/wgt_core/widget_mng.c ****     case UI_Type_StrInput:
1275:Dsp/widget/wgt_core/widget_mng.c ****         if (HandleToStrInputObj(((WidgetUI_Item_TypeDef *)(tmp->CurSelected_CTL->data))->Handler)->
1276:Dsp/widget/wgt_core/widget_mng.c ****             return true;
1277:Dsp/widget/wgt_core/widget_mng.c ****         else
1278:Dsp/widget/wgt_core/widget_mng.c ****             break;
1279:Dsp/widget/wgt_core/widget_mng.c **** 
1280:Dsp/widget/wgt_core/widget_mng.c ****     default:
1281:Dsp/widget/wgt_core/widget_mng.c ****         break;
1282:Dsp/widget/wgt_core/widget_mng.c ****     }
1283:Dsp/widget/wgt_core/widget_mng.c **** 
1284:Dsp/widget/wgt_core/widget_mng.c ****     fresh_state = UI_ShowSelector((WidgetUI_Item_TypeDef *)(tmp->CurSelected_CTL->data));
1285:Dsp/widget/wgt_core/widget_mng.c **** 
1286:Dsp/widget/wgt_core/widget_mng.c ****     switch ((uint8_t)fresh_state)
1287:Dsp/widget/wgt_core/widget_mng.c ****     {
1288:Dsp/widget/wgt_core/widget_mng.c ****     case UI_Fresh_Done:
1289:Dsp/widget/wgt_core/widget_mng.c ****         return true;
1290:Dsp/widget/wgt_core/widget_mng.c **** 
1291:Dsp/widget/wgt_core/widget_mng.c ****     case UI_Fresh_Error:
1292:Dsp/widget/wgt_core/widget_mng.c ****         return false;
1293:Dsp/widget/wgt_core/widget_mng.c **** 
1294:Dsp/widget/wgt_core/widget_mng.c ****     case UI_Fresh_Skip:
1295:Dsp/widget/wgt_core/widget_mng.c ****         return true;
1296:Dsp/widget/wgt_core/widget_mng.c **** 
1297:Dsp/widget/wgt_core/widget_mng.c ****     default:
1298:Dsp/widget/wgt_core/widget_mng.c ****         return false;
1299:Dsp/widget/wgt_core/widget_mng.c ****     }
1300:Dsp/widget/wgt_core/widget_mng.c **** }
1301:Dsp/widget/wgt_core/widget_mng.c **** 
1302:Dsp/widget/wgt_core/widget_mng.c **** static bool WidgetUI_Fresh_CallBack(item_obj *UI_item)
1303:Dsp/widget/wgt_core/widget_mng.c **** {
1304:Dsp/widget/wgt_core/widget_mng.c ****     WidgetUI_Item_TypeDef *UI_Data = NULL;
1305:Dsp/widget/wgt_core/widget_mng.c **** 
1306:Dsp/widget/wgt_core/widget_mng.c ****     if ((UI_item == NULL) || (UI_item->data == NULL))
1307:Dsp/widget/wgt_core/widget_mng.c ****         return false;
1308:Dsp/widget/wgt_core/widget_mng.c **** 
1309:Dsp/widget/wgt_core/widget_mng.c ****     UI_Data = UI_item->data;
1310:Dsp/widget/wgt_core/widget_mng.c **** 
1311:Dsp/widget/wgt_core/widget_mng.c ****     switch ((uint8_t)(UI_Data->type))
1312:Dsp/widget/wgt_core/widget_mng.c ****     {
1313:Dsp/widget/wgt_core/widget_mng.c ****     case UI_Type_Button:
1314:Dsp/widget/wgt_core/widget_mng.c ****         return WidgetUI_Fresh_Button(UI_Data->Handler);
1315:Dsp/widget/wgt_core/widget_mng.c **** 
1316:Dsp/widget/wgt_core/widget_mng.c ****     case UI_Type_CheckBox:
1317:Dsp/widget/wgt_core/widget_mng.c ****         return WidgetUI_Fresh_CheckBox(UI_Data->Handler);
1318:Dsp/widget/wgt_core/widget_mng.c **** 
1319:Dsp/widget/wgt_core/widget_mng.c ****     case UI_Type_SlideBar:
1320:Dsp/widget/wgt_core/widget_mng.c ****         return WidgetUI_Fresh_SlideBar(UI_Data->Handler);
1321:Dsp/widget/wgt_core/widget_mng.c **** 
1322:Dsp/widget/wgt_core/widget_mng.c ****     case UI_Type_ProcBar:
ARM GAS  /var/folders/lx/hc4sn_b53233_zkc9xbbl97r0000gp/T//cc1nXFCr.s 			page 68


1323:Dsp/widget/wgt_core/widget_mng.c ****         return WidgetUI_Fresh_ProcessBar(UI_Data->Handler);
1324:Dsp/widget/wgt_core/widget_mng.c **** 
1325:Dsp/widget/wgt_core/widget_mng.c ****     case UI_Type_Drop:
1326:Dsp/widget/wgt_core/widget_mng.c ****         return WidgetUI_Fresh_Drop(UI_Data->Handler);
1327:Dsp/widget/wgt_core/widget_mng.c **** 
1328:Dsp/widget/wgt_core/widget_mng.c ****     case UI_Type_DigInput:
1329:Dsp/widget/wgt_core/widget_mng.c ****         return WidgetUI_Fresh_DigInput(UI_Data->Handler);
1330:Dsp/widget/wgt_core/widget_mng.c **** 
1331:Dsp/widget/wgt_core/widget_mng.c ****     case UI_Type_StrInput:
1332:Dsp/widget/wgt_core/widget_mng.c ****         return WidgetUI_Fresh_StrInput(UI_Data->Handler);
1333:Dsp/widget/wgt_core/widget_mng.c **** 
1334:Dsp/widget/wgt_core/widget_mng.c ****     default:
1335:Dsp/widget/wgt_core/widget_mng.c ****         return false;
1336:Dsp/widget/wgt_core/widget_mng.c ****     }
1337:Dsp/widget/wgt_core/widget_mng.c **** 
1338:Dsp/widget/wgt_core/widget_mng.c ****     return false;
1339:Dsp/widget/wgt_core/widget_mng.c **** }
1340:Dsp/widget/wgt_core/widget_mng.c **** 
1341:Dsp/widget/wgt_core/widget_mng.c **** static void WidgetUI_Fresh(void)
1342:Dsp/widget/wgt_core/widget_mng.c **** {
1343:Dsp/widget/wgt_core/widget_mng.c ****     WidgetObj_TypeDef *tmp = GetCur_Active_Widget();
1344:Dsp/widget/wgt_core/widget_mng.c **** 
1345:Dsp/widget/wgt_core/widget_mng.c ****     List_traverse_HaltByCondition(tmp->UICtl_List, WidgetUI_Fresh_CallBack, NULL, pre_callback, fal
1346:Dsp/widget/wgt_core/widget_mng.c **** }
1347:Dsp/widget/wgt_core/widget_mng.c **** 
1348:Dsp/widget/wgt_core/widget_mng.c **** static int16_t WidgetUI_GetCoord(const WidgetUI_Item_TypeDef *item, WidgetUI_GetGeneralInfo_List op
1349:Dsp/widget/wgt_core/widget_mng.c **** {
 2373              		.loc 1 1349 1 view -0
 2374              		.cfi_startproc
 2375              		@ args = 0, pretend = 0, frame = 0
 2376              		@ frame_needed = 0, uses_anonymous_args = 0
 2377              		@ link register save eliminated.
1350:Dsp/widget/wgt_core/widget_mng.c ****     switch ((uint8_t)item->type)
 2378              		.loc 1 1350 5 view .LVU496
 2379              		.loc 1 1350 26 is_stmt 0 view .LVU497
 2380 0000 0378     		ldrb	r3, [r0]	@ zero_extendqisi2
 2381 0002 062B     		cmp	r3, #6
 2382 0004 60D8     		bhi	.L182
 2383 0006 DFE803F0 		tbb	[pc, r3]
 2384              	.L161:
 2385 000a 04       		.byte	(.L167-.L161)/2
 2386 000b 11       		.byte	(.L166-.L161)/2
 2387 000c 1E       		.byte	(.L165-.L161)/2
 2388 000d 2B       		.byte	(.L164-.L161)/2
 2389 000e 38       		.byte	(.L163-.L161)/2
 2390 000f 45       		.byte	(.L162-.L161)/2
 2391 0010 52       		.byte	(.L160-.L161)/2
 2392 0011 00       		.p2align 1
 2393              	.L167:
1351:Dsp/widget/wgt_core/widget_mng.c ****     {
1352:Dsp/widget/wgt_core/widget_mng.c ****     case UI_Type_Button:
1353:Dsp/widget/wgt_core/widget_mng.c **** 
1354:Dsp/widget/wgt_core/widget_mng.c ****         switch ((uint8_t)option)
 2394              		.loc 1 1354 9 is_stmt 1 view .LVU498
 2395 0012 19B1     		cbz	r1, .L168
 2396 0014 0129     		cmp	r1, #1
 2397 0016 05D0     		beq	.L169
ARM GAS  /var/folders/lx/hc4sn_b53233_zkc9xbbl97r0000gp/T//cc1nXFCr.s 			page 69


 2398 0018 0020     		movs	r0, #0
 2399              	.LVL190:
 2400              		.loc 1 1354 9 is_stmt 0 view .LVU499
 2401 001a 7047     		bx	lr
 2402              	.LVL191:
 2403              	.L168:
1355:Dsp/widget/wgt_core/widget_mng.c ****         {
1356:Dsp/widget/wgt_core/widget_mng.c ****         case WidgetUI_get_x:
1357:Dsp/widget/wgt_core/widget_mng.c ****             return HandleToButtonObj(item->Handler)->Gen_Data.x;
 2404              		.loc 1 1357 13 is_stmt 1 view .LVU500
 2405              		.loc 1 1357 20 is_stmt 0 view .LVU501
 2406 001c 4368     		ldr	r3, [r0, #4]
 2407              		.loc 1 1357 62 view .LVU502
 2408 001e B3F90400 		ldrsh	r0, [r3, #4]	@ unaligned
 2409              	.LVL192:
 2410              		.loc 1 1357 62 view .LVU503
 2411 0022 7047     		bx	lr
 2412              	.LVL193:
 2413              	.L169:
1358:Dsp/widget/wgt_core/widget_mng.c **** 
1359:Dsp/widget/wgt_core/widget_mng.c ****         case WidgetUI_get_y:
1360:Dsp/widget/wgt_core/widget_mng.c ****             return HandleToButtonObj(item->Handler)->Gen_Data.y;
 2414              		.loc 1 1360 13 is_stmt 1 view .LVU504
 2415              		.loc 1 1360 20 is_stmt 0 view .LVU505
 2416 0024 4368     		ldr	r3, [r0, #4]
 2417              		.loc 1 1360 62 view .LVU506
 2418 0026 B3F90600 		ldrsh	r0, [r3, #6]	@ unaligned
 2419              	.LVL194:
 2420              		.loc 1 1360 62 view .LVU507
 2421 002a 7047     		bx	lr
 2422              	.LVL195:
 2423              	.L166:
1361:Dsp/widget/wgt_core/widget_mng.c **** 
1362:Dsp/widget/wgt_core/widget_mng.c ****         default:
1363:Dsp/widget/wgt_core/widget_mng.c ****             return 0;
1364:Dsp/widget/wgt_core/widget_mng.c ****         }
1365:Dsp/widget/wgt_core/widget_mng.c **** 
1366:Dsp/widget/wgt_core/widget_mng.c ****         break;
 2424              		.loc 1 1366 9 is_stmt 1 view .LVU508
1367:Dsp/widget/wgt_core/widget_mng.c **** 
1368:Dsp/widget/wgt_core/widget_mng.c ****     case UI_Type_CheckBox:
1369:Dsp/widget/wgt_core/widget_mng.c ****         switch ((uint8_t)option)
 2425              		.loc 1 1369 9 view .LVU509
 2426 002c 19B1     		cbz	r1, .L170
 2427 002e 0129     		cmp	r1, #1
 2428 0030 05D0     		beq	.L171
 2429 0032 0020     		movs	r0, #0
 2430              	.LVL196:
 2431              		.loc 1 1369 9 is_stmt 0 view .LVU510
 2432 0034 7047     		bx	lr
 2433              	.LVL197:
 2434              	.L170:
1370:Dsp/widget/wgt_core/widget_mng.c ****         {
1371:Dsp/widget/wgt_core/widget_mng.c ****         case WidgetUI_get_x:
1372:Dsp/widget/wgt_core/widget_mng.c ****             return HandleToCheckBoxObj(item->Handler)->Gen_Data.x;
 2435              		.loc 1 1372 13 is_stmt 1 view .LVU511
 2436              		.loc 1 1372 20 is_stmt 0 view .LVU512
ARM GAS  /var/folders/lx/hc4sn_b53233_zkc9xbbl97r0000gp/T//cc1nXFCr.s 			page 70


 2437 0036 4368     		ldr	r3, [r0, #4]
 2438              		.loc 1 1372 64 view .LVU513
 2439 0038 B3F90400 		ldrsh	r0, [r3, #4]	@ unaligned
 2440              	.LVL198:
 2441              		.loc 1 1372 64 view .LVU514
 2442 003c 7047     		bx	lr
 2443              	.LVL199:
 2444              	.L171:
1373:Dsp/widget/wgt_core/widget_mng.c **** 
1374:Dsp/widget/wgt_core/widget_mng.c ****         case WidgetUI_get_y:
1375:Dsp/widget/wgt_core/widget_mng.c ****             return HandleToCheckBoxObj(item->Handler)->Gen_Data.y;
 2445              		.loc 1 1375 13 is_stmt 1 view .LVU515
 2446              		.loc 1 1375 20 is_stmt 0 view .LVU516
 2447 003e 4368     		ldr	r3, [r0, #4]
 2448              		.loc 1 1375 64 view .LVU517
 2449 0040 B3F90600 		ldrsh	r0, [r3, #6]	@ unaligned
 2450              	.LVL200:
 2451              		.loc 1 1375 64 view .LVU518
 2452 0044 7047     		bx	lr
 2453              	.LVL201:
 2454              	.L165:
1376:Dsp/widget/wgt_core/widget_mng.c **** 
1377:Dsp/widget/wgt_core/widget_mng.c ****         default:
1378:Dsp/widget/wgt_core/widget_mng.c ****             return 0;
1379:Dsp/widget/wgt_core/widget_mng.c ****         }
1380:Dsp/widget/wgt_core/widget_mng.c ****         break;
 2455              		.loc 1 1380 9 is_stmt 1 view .LVU519
1381:Dsp/widget/wgt_core/widget_mng.c **** 
1382:Dsp/widget/wgt_core/widget_mng.c ****     case UI_Type_SlideBar:
1383:Dsp/widget/wgt_core/widget_mng.c ****         switch ((uint8_t)option)
 2456              		.loc 1 1383 9 view .LVU520
 2457 0046 19B1     		cbz	r1, .L172
 2458 0048 0129     		cmp	r1, #1
 2459 004a 05D0     		beq	.L173
 2460 004c 0020     		movs	r0, #0
 2461              	.LVL202:
 2462              		.loc 1 1383 9 is_stmt 0 view .LVU521
 2463 004e 7047     		bx	lr
 2464              	.LVL203:
 2465              	.L172:
1384:Dsp/widget/wgt_core/widget_mng.c ****         {
1385:Dsp/widget/wgt_core/widget_mng.c ****         case WidgetUI_get_x:
1386:Dsp/widget/wgt_core/widget_mng.c ****             return HandleToSlideBarObj(item->Handler)->Gen_Data.x;
 2466              		.loc 1 1386 13 is_stmt 1 view .LVU522
 2467              		.loc 1 1386 20 is_stmt 0 view .LVU523
 2468 0050 4368     		ldr	r3, [r0, #4]
 2469              		.loc 1 1386 64 view .LVU524
 2470 0052 B3F90400 		ldrsh	r0, [r3, #4]	@ unaligned
 2471              	.LVL204:
 2472              		.loc 1 1386 64 view .LVU525
 2473 0056 7047     		bx	lr
 2474              	.LVL205:
 2475              	.L173:
1387:Dsp/widget/wgt_core/widget_mng.c **** 
1388:Dsp/widget/wgt_core/widget_mng.c ****         case WidgetUI_get_y:
1389:Dsp/widget/wgt_core/widget_mng.c ****             return HandleToSlideBarObj(item->Handler)->Gen_Data.y;
 2476              		.loc 1 1389 13 is_stmt 1 view .LVU526
ARM GAS  /var/folders/lx/hc4sn_b53233_zkc9xbbl97r0000gp/T//cc1nXFCr.s 			page 71


 2477              		.loc 1 1389 20 is_stmt 0 view .LVU527
 2478 0058 4368     		ldr	r3, [r0, #4]
 2479              		.loc 1 1389 64 view .LVU528
 2480 005a B3F90600 		ldrsh	r0, [r3, #6]	@ unaligned
 2481              	.LVL206:
 2482              		.loc 1 1389 64 view .LVU529
 2483 005e 7047     		bx	lr
 2484              	.LVL207:
 2485              	.L164:
1390:Dsp/widget/wgt_core/widget_mng.c **** 
1391:Dsp/widget/wgt_core/widget_mng.c ****         default:
1392:Dsp/widget/wgt_core/widget_mng.c ****             return 0;
1393:Dsp/widget/wgt_core/widget_mng.c ****         }
1394:Dsp/widget/wgt_core/widget_mng.c ****         break;
 2486              		.loc 1 1394 9 is_stmt 1 view .LVU530
1395:Dsp/widget/wgt_core/widget_mng.c **** 
1396:Dsp/widget/wgt_core/widget_mng.c ****     case UI_Type_ProcBar:
1397:Dsp/widget/wgt_core/widget_mng.c ****         switch ((uint8_t)option)
 2487              		.loc 1 1397 9 view .LVU531
 2488 0060 19B1     		cbz	r1, .L174
 2489 0062 0129     		cmp	r1, #1
 2490 0064 05D0     		beq	.L175
 2491 0066 0020     		movs	r0, #0
 2492              	.LVL208:
 2493              		.loc 1 1397 9 is_stmt 0 view .LVU532
 2494 0068 7047     		bx	lr
 2495              	.LVL209:
 2496              	.L174:
1398:Dsp/widget/wgt_core/widget_mng.c ****         {
1399:Dsp/widget/wgt_core/widget_mng.c ****         case WidgetUI_get_x:
1400:Dsp/widget/wgt_core/widget_mng.c ****             return HandleToProcessBarObj(item->Handler)->Gen_Data.x;
 2497              		.loc 1 1400 13 is_stmt 1 view .LVU533
 2498              		.loc 1 1400 20 is_stmt 0 view .LVU534
 2499 006a 4368     		ldr	r3, [r0, #4]
 2500              		.loc 1 1400 66 view .LVU535
 2501 006c B3F90400 		ldrsh	r0, [r3, #4]	@ unaligned
 2502              	.LVL210:
 2503              		.loc 1 1400 66 view .LVU536
 2504 0070 7047     		bx	lr
 2505              	.LVL211:
 2506              	.L175:
1401:Dsp/widget/wgt_core/widget_mng.c **** 
1402:Dsp/widget/wgt_core/widget_mng.c ****         case WidgetUI_get_y:
1403:Dsp/widget/wgt_core/widget_mng.c ****             return HandleToProcessBarObj(item->Handler)->Gen_Data.y;
 2507              		.loc 1 1403 13 is_stmt 1 view .LVU537
 2508              		.loc 1 1403 20 is_stmt 0 view .LVU538
 2509 0072 4368     		ldr	r3, [r0, #4]
 2510              		.loc 1 1403 66 view .LVU539
 2511 0074 B3F90600 		ldrsh	r0, [r3, #6]	@ unaligned
 2512              	.LVL212:
 2513              		.loc 1 1403 66 view .LVU540
 2514 0078 7047     		bx	lr
 2515              	.LVL213:
 2516              	.L163:
1404:Dsp/widget/wgt_core/widget_mng.c **** 
1405:Dsp/widget/wgt_core/widget_mng.c ****         default:
1406:Dsp/widget/wgt_core/widget_mng.c ****             return 0;
ARM GAS  /var/folders/lx/hc4sn_b53233_zkc9xbbl97r0000gp/T//cc1nXFCr.s 			page 72


1407:Dsp/widget/wgt_core/widget_mng.c ****         }
1408:Dsp/widget/wgt_core/widget_mng.c **** 
1409:Dsp/widget/wgt_core/widget_mng.c ****         break;
 2517              		.loc 1 1409 9 is_stmt 1 view .LVU541
1410:Dsp/widget/wgt_core/widget_mng.c **** 
1411:Dsp/widget/wgt_core/widget_mng.c ****     case UI_Type_Drop:
1412:Dsp/widget/wgt_core/widget_mng.c ****         switch ((uint8_t)option)
 2518              		.loc 1 1412 9 view .LVU542
 2519 007a 19B1     		cbz	r1, .L176
 2520 007c 0129     		cmp	r1, #1
 2521 007e 05D0     		beq	.L177
 2522 0080 0020     		movs	r0, #0
 2523              	.LVL214:
 2524              		.loc 1 1412 9 is_stmt 0 view .LVU543
 2525 0082 7047     		bx	lr
 2526              	.LVL215:
 2527              	.L176:
1413:Dsp/widget/wgt_core/widget_mng.c ****         {
1414:Dsp/widget/wgt_core/widget_mng.c ****         case WidgetUI_get_x:
1415:Dsp/widget/wgt_core/widget_mng.c ****             return HandleToDropObj(item->Handler)->Gen_Data.x;
 2528              		.loc 1 1415 13 is_stmt 1 view .LVU544
 2529              		.loc 1 1415 20 is_stmt 0 view .LVU545
 2530 0084 4368     		ldr	r3, [r0, #4]
 2531              		.loc 1 1415 60 view .LVU546
 2532 0086 B3F90400 		ldrsh	r0, [r3, #4]	@ unaligned
 2533              	.LVL216:
 2534              		.loc 1 1415 60 view .LVU547
 2535 008a 7047     		bx	lr
 2536              	.LVL217:
 2537              	.L177:
1416:Dsp/widget/wgt_core/widget_mng.c **** 
1417:Dsp/widget/wgt_core/widget_mng.c ****         case WidgetUI_get_y:
1418:Dsp/widget/wgt_core/widget_mng.c ****             return HandleToDropObj(item->Handler)->Gen_Data.y;
 2538              		.loc 1 1418 13 is_stmt 1 view .LVU548
 2539              		.loc 1 1418 20 is_stmt 0 view .LVU549
 2540 008c 4368     		ldr	r3, [r0, #4]
 2541              		.loc 1 1418 60 view .LVU550
 2542 008e B3F90600 		ldrsh	r0, [r3, #6]	@ unaligned
 2543              	.LVL218:
 2544              		.loc 1 1418 60 view .LVU551
 2545 0092 7047     		bx	lr
 2546              	.LVL219:
 2547              	.L162:
1419:Dsp/widget/wgt_core/widget_mng.c **** 
1420:Dsp/widget/wgt_core/widget_mng.c ****         default:
1421:Dsp/widget/wgt_core/widget_mng.c ****             return 0;
1422:Dsp/widget/wgt_core/widget_mng.c ****         }
1423:Dsp/widget/wgt_core/widget_mng.c ****         break;
 2548              		.loc 1 1423 9 is_stmt 1 view .LVU552
1424:Dsp/widget/wgt_core/widget_mng.c **** 
1425:Dsp/widget/wgt_core/widget_mng.c ****     case UI_Type_DigInput:
1426:Dsp/widget/wgt_core/widget_mng.c ****         switch ((uint8_t)option)
 2549              		.loc 1 1426 9 view .LVU553
 2550 0094 19B1     		cbz	r1, .L178
 2551 0096 0129     		cmp	r1, #1
 2552 0098 05D0     		beq	.L179
 2553 009a 0020     		movs	r0, #0
ARM GAS  /var/folders/lx/hc4sn_b53233_zkc9xbbl97r0000gp/T//cc1nXFCr.s 			page 73


 2554              	.LVL220:
 2555              		.loc 1 1426 9 is_stmt 0 view .LVU554
 2556 009c 7047     		bx	lr
 2557              	.LVL221:
 2558              	.L178:
1427:Dsp/widget/wgt_core/widget_mng.c ****         {
1428:Dsp/widget/wgt_core/widget_mng.c ****         case WidgetUI_get_x:
1429:Dsp/widget/wgt_core/widget_mng.c ****             return HandleToDigInputObj(item->Handler)->Gen_Data.x;
 2559              		.loc 1 1429 13 is_stmt 1 view .LVU555
 2560              		.loc 1 1429 20 is_stmt 0 view .LVU556
 2561 009e 4368     		ldr	r3, [r0, #4]
 2562              		.loc 1 1429 64 view .LVU557
 2563 00a0 B3F90400 		ldrsh	r0, [r3, #4]	@ unaligned
 2564              	.LVL222:
 2565              		.loc 1 1429 64 view .LVU558
 2566 00a4 7047     		bx	lr
 2567              	.LVL223:
 2568              	.L179:
1430:Dsp/widget/wgt_core/widget_mng.c **** 
1431:Dsp/widget/wgt_core/widget_mng.c ****         case WidgetUI_get_y:
1432:Dsp/widget/wgt_core/widget_mng.c ****             return HandleToDigInputObj(item->Handler)->Gen_Data.y;
 2569              		.loc 1 1432 13 is_stmt 1 view .LVU559
 2570              		.loc 1 1432 20 is_stmt 0 view .LVU560
 2571 00a6 4368     		ldr	r3, [r0, #4]
 2572              		.loc 1 1432 64 view .LVU561
 2573 00a8 B3F90600 		ldrsh	r0, [r3, #6]	@ unaligned
 2574              	.LVL224:
 2575              		.loc 1 1432 64 view .LVU562
 2576 00ac 7047     		bx	lr
 2577              	.LVL225:
 2578              	.L160:
1433:Dsp/widget/wgt_core/widget_mng.c **** 
1434:Dsp/widget/wgt_core/widget_mng.c ****         default:
1435:Dsp/widget/wgt_core/widget_mng.c ****             return 0;
1436:Dsp/widget/wgt_core/widget_mng.c ****         }
1437:Dsp/widget/wgt_core/widget_mng.c ****         break;
 2579              		.loc 1 1437 9 is_stmt 1 view .LVU563
1438:Dsp/widget/wgt_core/widget_mng.c **** 
1439:Dsp/widget/wgt_core/widget_mng.c ****     case UI_Type_StrInput:
1440:Dsp/widget/wgt_core/widget_mng.c ****         switch ((uint8_t)option)
 2580              		.loc 1 1440 9 view .LVU564
 2581 00ae 19B1     		cbz	r1, .L180
 2582 00b0 0129     		cmp	r1, #1
 2583 00b2 05D0     		beq	.L181
 2584 00b4 0020     		movs	r0, #0
 2585              	.LVL226:
 2586              		.loc 1 1440 9 is_stmt 0 view .LVU565
 2587 00b6 7047     		bx	lr
 2588              	.LVL227:
 2589              	.L180:
1441:Dsp/widget/wgt_core/widget_mng.c ****         {
1442:Dsp/widget/wgt_core/widget_mng.c ****         case WidgetUI_get_x:
1443:Dsp/widget/wgt_core/widget_mng.c ****             return HandleToStrInputObj(item->Handler)->Gen_Data.x;
 2590              		.loc 1 1443 13 is_stmt 1 view .LVU566
 2591              		.loc 1 1443 20 is_stmt 0 view .LVU567
 2592 00b8 4368     		ldr	r3, [r0, #4]
 2593              		.loc 1 1443 64 view .LVU568
ARM GAS  /var/folders/lx/hc4sn_b53233_zkc9xbbl97r0000gp/T//cc1nXFCr.s 			page 74


 2594 00ba B3F90400 		ldrsh	r0, [r3, #4]	@ unaligned
 2595              	.LVL228:
 2596              		.loc 1 1443 64 view .LVU569
 2597 00be 7047     		bx	lr
 2598              	.LVL229:
 2599              	.L181:
1444:Dsp/widget/wgt_core/widget_mng.c **** 
1445:Dsp/widget/wgt_core/widget_mng.c ****         case WidgetUI_get_y:
1446:Dsp/widget/wgt_core/widget_mng.c ****             return HandleToStrInputObj(item->Handler)->Gen_Data.y;
 2600              		.loc 1 1446 13 is_stmt 1 view .LVU570
 2601              		.loc 1 1446 20 is_stmt 0 view .LVU571
 2602 00c0 4368     		ldr	r3, [r0, #4]
 2603              		.loc 1 1446 64 view .LVU572
 2604 00c2 B3F90600 		ldrsh	r0, [r3, #6]	@ unaligned
 2605              	.LVL230:
 2606              		.loc 1 1446 64 view .LVU573
 2607 00c6 7047     		bx	lr
 2608              	.LVL231:
 2609              	.L182:
1350:Dsp/widget/wgt_core/widget_mng.c ****     {
 2610              		.loc 1 1350 26 view .LVU574
 2611 00c8 0020     		movs	r0, #0
 2612              	.LVL232:
1447:Dsp/widget/wgt_core/widget_mng.c **** 
1448:Dsp/widget/wgt_core/widget_mng.c ****         default:
1449:Dsp/widget/wgt_core/widget_mng.c ****             return 0;
1450:Dsp/widget/wgt_core/widget_mng.c ****         }
1451:Dsp/widget/wgt_core/widget_mng.c ****         break;
1452:Dsp/widget/wgt_core/widget_mng.c **** 
1453:Dsp/widget/wgt_core/widget_mng.c ****     default:
1454:Dsp/widget/wgt_core/widget_mng.c ****         return 0;
1455:Dsp/widget/wgt_core/widget_mng.c ****     }
1456:Dsp/widget/wgt_core/widget_mng.c **** }
 2613              		.loc 1 1456 1 view .LVU575
 2614 00ca 7047     		bx	lr
 2615              		.cfi_endproc
 2616              	.LFE58:
 2618              		.section	.text.WidgetUI_InsertSequence_Callback,"ax",%progbits
 2619              		.align	1
 2620              		.syntax unified
 2621              		.thumb
 2622              		.thumb_func
 2623              		.fpu fpv4-sp-d16
 2625              	WidgetUI_InsertSequence_Callback:
 2626              	.LVL233:
 2627              	.LFB59:
1457:Dsp/widget/wgt_core/widget_mng.c **** 
1458:Dsp/widget/wgt_core/widget_mng.c **** static WidgetUI_Item_TypeDef *WidgetUI_InsertSequence_Callback(const WidgetUI_Item_TypeDef *item_pr
1459:Dsp/widget/wgt_core/widget_mng.c **** {
 2628              		.loc 1 1459 1 is_stmt 1 view -0
 2629              		.cfi_startproc
 2630              		@ args = 0, pretend = 0, frame = 0
 2631              		@ frame_needed = 0, uses_anonymous_args = 0
 2632              		.loc 1 1459 1 is_stmt 0 view .LVU577
 2633 0000 2DE9F041 		push	{r4, r5, r6, r7, r8, lr}
 2634              	.LCFI57:
 2635              		.cfi_def_cfa_offset 24
ARM GAS  /var/folders/lx/hc4sn_b53233_zkc9xbbl97r0000gp/T//cc1nXFCr.s 			page 75


 2636              		.cfi_offset 4, -24
 2637              		.cfi_offset 5, -20
 2638              		.cfi_offset 6, -16
 2639              		.cfi_offset 7, -12
 2640              		.cfi_offset 8, -8
 2641              		.cfi_offset 14, -4
 2642 0004 0C46     		mov	r4, r1
1460:Dsp/widget/wgt_core/widget_mng.c ****     /* this 4 var down below can be optmized*/
1461:Dsp/widget/wgt_core/widget_mng.c ****     int16_t item_prv_y = 0;
 2643              		.loc 1 1461 5 is_stmt 1 view .LVU578
 2644              	.LVL234:
1462:Dsp/widget/wgt_core/widget_mng.c ****     int16_t item_nxt_y = 0;
 2645              		.loc 1 1462 5 view .LVU579
1463:Dsp/widget/wgt_core/widget_mng.c ****     int16_t item_prv_x = 0;
 2646              		.loc 1 1463 5 view .LVU580
1464:Dsp/widget/wgt_core/widget_mng.c ****     int16_t item_nxt_x = 0;
 2647              		.loc 1 1464 5 view .LVU581
1465:Dsp/widget/wgt_core/widget_mng.c **** 
1466:Dsp/widget/wgt_core/widget_mng.c ****     if ((item_prv == NULL) && (item_nxt == NULL))
 2648              		.loc 1 1466 5 view .LVU582
 2649              		.loc 1 1466 8 is_stmt 0 view .LVU583
 2650 0006 0546     		mov	r5, r0
 2651 0008 D8B1     		cbz	r0, .L193
 2652              	.L184:
1467:Dsp/widget/wgt_core/widget_mng.c ****         return NULL;
1468:Dsp/widget/wgt_core/widget_mng.c **** 
1469:Dsp/widget/wgt_core/widget_mng.c ****     if (item_prv == NULL)
 2653              		.loc 1 1469 5 is_stmt 1 view .LVU584
 2654              		.loc 1 1469 8 is_stmt 0 view .LVU585
 2655 000a F5B1     		cbz	r5, .L187
1470:Dsp/widget/wgt_core/widget_mng.c ****         return item_nxt;
1471:Dsp/widget/wgt_core/widget_mng.c **** 
1472:Dsp/widget/wgt_core/widget_mng.c ****     if (item_nxt == NULL)
 2656              		.loc 1 1472 5 is_stmt 1 view .LVU586
 2657              		.loc 1 1472 8 is_stmt 0 view .LVU587
 2658 000c FCB1     		cbz	r4, .L188
1473:Dsp/widget/wgt_core/widget_mng.c ****         return item_prv;
1474:Dsp/widget/wgt_core/widget_mng.c **** 
1475:Dsp/widget/wgt_core/widget_mng.c ****     item_prv_x = WidgetUI_GetCoord(item_prv, WidgetUI_get_x);
 2659              		.loc 1 1475 5 is_stmt 1 view .LVU588
 2660              		.loc 1 1475 18 is_stmt 0 view .LVU589
 2661 000e 0021     		movs	r1, #0
 2662              	.LVL235:
 2663              		.loc 1 1475 18 view .LVU590
 2664 0010 2846     		mov	r0, r5
 2665              	.LVL236:
 2666              		.loc 1 1475 18 view .LVU591
 2667 0012 FFF7FEFF 		bl	WidgetUI_GetCoord
 2668              	.LVL237:
 2669 0016 0746     		mov	r7, r0
 2670              	.LVL238:
1476:Dsp/widget/wgt_core/widget_mng.c ****     item_prv_y = WidgetUI_GetCoord(item_prv, WidgetUI_get_y);
 2671              		.loc 1 1476 5 is_stmt 1 view .LVU592
 2672              		.loc 1 1476 18 is_stmt 0 view .LVU593
 2673 0018 0121     		movs	r1, #1
 2674 001a 2846     		mov	r0, r5
 2675 001c FFF7FEFF 		bl	WidgetUI_GetCoord
ARM GAS  /var/folders/lx/hc4sn_b53233_zkc9xbbl97r0000gp/T//cc1nXFCr.s 			page 76


 2676              	.LVL239:
 2677 0020 0646     		mov	r6, r0
 2678              	.LVL240:
1477:Dsp/widget/wgt_core/widget_mng.c **** 
1478:Dsp/widget/wgt_core/widget_mng.c ****     item_nxt_x = WidgetUI_GetCoord(item_nxt, WidgetUI_get_x);
 2679              		.loc 1 1478 5 is_stmt 1 view .LVU594
 2680              		.loc 1 1478 18 is_stmt 0 view .LVU595
 2681 0022 0021     		movs	r1, #0
 2682 0024 2046     		mov	r0, r4
 2683 0026 FFF7FEFF 		bl	WidgetUI_GetCoord
 2684              	.LVL241:
 2685 002a 8046     		mov	r8, r0
 2686              	.LVL242:
1479:Dsp/widget/wgt_core/widget_mng.c ****     item_nxt_y = WidgetUI_GetCoord(item_nxt, WidgetUI_get_y);
 2687              		.loc 1 1479 5 is_stmt 1 view .LVU596
 2688              		.loc 1 1479 18 is_stmt 0 view .LVU597
 2689 002c 0121     		movs	r1, #1
 2690 002e 2046     		mov	r0, r4
 2691 0030 FFF7FEFF 		bl	WidgetUI_GetCoord
 2692              	.LVL243:
1480:Dsp/widget/wgt_core/widget_mng.c **** 
1481:Dsp/widget/wgt_core/widget_mng.c ****     if (item_prv_y < item_nxt_y)
 2693              		.loc 1 1481 5 is_stmt 1 view .LVU598
 2694              		.loc 1 1481 8 is_stmt 0 view .LVU599
 2695 0034 8642     		cmp	r6, r0
 2696 0036 0CDB     		blt	.L189
1482:Dsp/widget/wgt_core/widget_mng.c ****     {
1483:Dsp/widget/wgt_core/widget_mng.c ****         return item_prv;
1484:Dsp/widget/wgt_core/widget_mng.c ****     }
1485:Dsp/widget/wgt_core/widget_mng.c ****     else if (item_prv_y == item_nxt_y)
 2697              		.loc 1 1485 10 is_stmt 1 view .LVU600
 2698              		.loc 1 1485 13 is_stmt 0 view .LVU601
 2699 0038 0ED1     		bne	.L190
1486:Dsp/widget/wgt_core/widget_mng.c ****     {
1487:Dsp/widget/wgt_core/widget_mng.c ****         if (item_prv_x <= item_nxt_x)
 2700              		.loc 1 1487 9 is_stmt 1 view .LVU602
 2701              		.loc 1 1487 12 is_stmt 0 view .LVU603
 2702 003a 4745     		cmp	r7, r8
 2703 003c 0EDC     		bgt	.L191
1488:Dsp/widget/wgt_core/widget_mng.c ****         {
1489:Dsp/widget/wgt_core/widget_mng.c ****             return item_nxt;
 2704              		.loc 1 1489 20 view .LVU604
 2705 003e 2046     		mov	r0, r4
 2706              	.LVL244:
 2707              		.loc 1 1489 20 view .LVU605
 2708 0040 08E0     		b	.L183
 2709              	.LVL245:
 2710              	.L193:
1466:Dsp/widget/wgt_core/widget_mng.c ****         return NULL;
 2711              		.loc 1 1466 28 discriminator 1 view .LVU606
 2712 0042 0029     		cmp	r1, #0
 2713 0044 E1D1     		bne	.L184
1467:Dsp/widget/wgt_core/widget_mng.c **** 
 2714              		.loc 1 1467 16 view .LVU607
 2715 0046 0846     		mov	r0, r1
 2716              	.LVL246:
1467:Dsp/widget/wgt_core/widget_mng.c **** 
ARM GAS  /var/folders/lx/hc4sn_b53233_zkc9xbbl97r0000gp/T//cc1nXFCr.s 			page 77


 2717              		.loc 1 1467 16 view .LVU608
 2718 0048 04E0     		b	.L183
 2719              	.LVL247:
 2720              	.L187:
1470:Dsp/widget/wgt_core/widget_mng.c **** 
 2721              		.loc 1 1470 16 view .LVU609
 2722 004a 2046     		mov	r0, r4
 2723              	.LVL248:
1470:Dsp/widget/wgt_core/widget_mng.c **** 
 2724              		.loc 1 1470 16 view .LVU610
 2725 004c 02E0     		b	.L183
 2726              	.LVL249:
 2727              	.L188:
1473:Dsp/widget/wgt_core/widget_mng.c **** 
 2728              		.loc 1 1473 16 view .LVU611
 2729 004e 2846     		mov	r0, r5
 2730              	.LVL250:
1473:Dsp/widget/wgt_core/widget_mng.c **** 
 2731              		.loc 1 1473 16 view .LVU612
 2732 0050 00E0     		b	.L183
 2733              	.LVL251:
 2734              	.L189:
1483:Dsp/widget/wgt_core/widget_mng.c ****     }
 2735              		.loc 1 1483 16 view .LVU613
 2736 0052 2846     		mov	r0, r5
 2737              	.LVL252:
 2738              	.L183:
1490:Dsp/widget/wgt_core/widget_mng.c ****         }
1491:Dsp/widget/wgt_core/widget_mng.c ****         else
1492:Dsp/widget/wgt_core/widget_mng.c ****             return item_prv;
1493:Dsp/widget/wgt_core/widget_mng.c ****     }
1494:Dsp/widget/wgt_core/widget_mng.c ****     else
1495:Dsp/widget/wgt_core/widget_mng.c ****         return item_nxt;
1496:Dsp/widget/wgt_core/widget_mng.c **** }
 2739              		.loc 1 1496 1 view .LVU614
 2740 0054 BDE8F081 		pop	{r4, r5, r6, r7, r8, pc}
 2741              	.LVL253:
 2742              	.L190:
1495:Dsp/widget/wgt_core/widget_mng.c **** }
 2743              		.loc 1 1495 16 view .LVU615
 2744 0058 2046     		mov	r0, r4
 2745              	.LVL254:
1495:Dsp/widget/wgt_core/widget_mng.c **** }
 2746              		.loc 1 1495 16 view .LVU616
 2747 005a FBE7     		b	.L183
 2748              	.LVL255:
 2749              	.L191:
1492:Dsp/widget/wgt_core/widget_mng.c ****     }
 2750              		.loc 1 1492 20 view .LVU617
 2751 005c 2846     		mov	r0, r5
 2752              	.LVL256:
1492:Dsp/widget/wgt_core/widget_mng.c ****     }
 2753              		.loc 1 1492 20 view .LVU618
 2754 005e F9E7     		b	.L183
 2755              		.cfi_endproc
 2756              	.LFE59:
 2758              		.section	.text.WidgetUI_GetButton_Instance,"ax",%progbits
ARM GAS  /var/folders/lx/hc4sn_b53233_zkc9xbbl97r0000gp/T//cc1nXFCr.s 			page 78


 2759              		.align	1
 2760              		.syntax unified
 2761              		.thumb
 2762              		.thumb_func
 2763              		.fpu fpv4-sp-d16
 2765              	WidgetUI_GetButton_Instance:
 2766              	.LFB61:
1497:Dsp/widget/wgt_core/widget_mng.c **** 
1498:Dsp/widget/wgt_core/widget_mng.c **** static bool WidgetUIList_InsertItem(UI_GenCTL_Handle hdl, WidgetUI_Type_List type)
1499:Dsp/widget/wgt_core/widget_mng.c **** {
1500:Dsp/widget/wgt_core/widget_mng.c ****     WidgetUI_Item_TypeDef *UI_ItemData_tmp = NULL;
1501:Dsp/widget/wgt_core/widget_mng.c ****     item_obj *UI_Item = NULL;
1502:Dsp/widget/wgt_core/widget_mng.c **** 
1503:Dsp/widget/wgt_core/widget_mng.c ****     UI_ItemData_tmp = (WidgetUI_Item_TypeDef *)MMU_Malloc(sizeof(WidgetUI_Item_TypeDef));
1504:Dsp/widget/wgt_core/widget_mng.c ****     UI_Item = (item_obj *)MMU_Malloc(sizeof(item_obj));
1505:Dsp/widget/wgt_core/widget_mng.c **** 
1506:Dsp/widget/wgt_core/widget_mng.c ****     WidgetObj_TypeDef *tmp = GetCur_Active_Widget();
1507:Dsp/widget/wgt_core/widget_mng.c **** 
1508:Dsp/widget/wgt_core/widget_mng.c ****     if ((hdl == 0) || (UI_Item == NULL) || (UI_ItemData_tmp == NULL) || (tmp == NULL))
1509:Dsp/widget/wgt_core/widget_mng.c ****         return false;
1510:Dsp/widget/wgt_core/widget_mng.c **** 
1511:Dsp/widget/wgt_core/widget_mng.c ****     UI_ItemData_tmp->Handler = hdl;
1512:Dsp/widget/wgt_core/widget_mng.c ****     UI_ItemData_tmp->type = type;
1513:Dsp/widget/wgt_core/widget_mng.c **** 
1514:Dsp/widget/wgt_core/widget_mng.c ****     List_ItemInit(UI_Item, UI_ItemData_tmp);
1515:Dsp/widget/wgt_core/widget_mng.c **** 
1516:Dsp/widget/wgt_core/widget_mng.c ****     if (tmp->UICtl_List != NULL)
1517:Dsp/widget/wgt_core/widget_mng.c ****     {
1518:Dsp/widget/wgt_core/widget_mng.c ****         List_Insert_Item(tmp->UICtl_List, UI_Item);
1519:Dsp/widget/wgt_core/widget_mng.c ****     }
1520:Dsp/widget/wgt_core/widget_mng.c ****     else
1521:Dsp/widget/wgt_core/widget_mng.c ****     {
1522:Dsp/widget/wgt_core/widget_mng.c ****         tmp->UICtl_List = UI_Item;
1523:Dsp/widget/wgt_core/widget_mng.c **** 
1524:Dsp/widget/wgt_core/widget_mng.c ****         List_Init(tmp->UICtl_List, NULL, by_condition, WidgetUI_InsertSequence_Callback);
1525:Dsp/widget/wgt_core/widget_mng.c ****     }
1526:Dsp/widget/wgt_core/widget_mng.c **** 
1527:Dsp/widget/wgt_core/widget_mng.c ****     tmp->CurSelected_CTL = tmp->UICtl_List;
1528:Dsp/widget/wgt_core/widget_mng.c **** 
1529:Dsp/widget/wgt_core/widget_mng.c ****     /* insert list item */
1530:Dsp/widget/wgt_core/widget_mng.c ****     tmp->ui_ctl_num++;
1531:Dsp/widget/wgt_core/widget_mng.c **** 
1532:Dsp/widget/wgt_core/widget_mng.c ****     return true;
1533:Dsp/widget/wgt_core/widget_mng.c **** }
1534:Dsp/widget/wgt_core/widget_mng.c **** 
1535:Dsp/widget/wgt_core/widget_mng.c **** /************************************** widget Button interface ***********************************
1536:Dsp/widget/wgt_core/widget_mng.c **** 
1537:Dsp/widget/wgt_core/widget_mng.c **** static WidgetUI_Button_Interface_TypeDef *WidgetUI_GetButton_Instance(void)
1538:Dsp/widget/wgt_core/widget_mng.c **** {
 2767              		.loc 1 1538 1 is_stmt 1 view -0
 2768              		.cfi_startproc
 2769              		@ args = 0, pretend = 0, frame = 0
 2770              		@ frame_needed = 0, uses_anonymous_args = 0
 2771              		@ link register save eliminated.
1539:Dsp/widget/wgt_core/widget_mng.c ****     return &WidgetUI_Button;
 2772              		.loc 1 1539 5 view .LVU620
1540:Dsp/widget/wgt_core/widget_mng.c **** }
ARM GAS  /var/folders/lx/hc4sn_b53233_zkc9xbbl97r0000gp/T//cc1nXFCr.s 			page 79


 2773              		.loc 1 1540 1 is_stmt 0 view .LVU621
 2774 0000 0048     		ldr	r0, .L195
 2775 0002 7047     		bx	lr
 2776              	.L196:
 2777              		.align	2
 2778              	.L195:
 2779 0004 00000000 		.word	.LANCHOR6
 2780              		.cfi_endproc
 2781              	.LFE61:
 2783              		.section	.text.WidgetUI_SetButton_OprLabel,"ax",%progbits
 2784              		.align	1
 2785              		.syntax unified
 2786              		.thumb
 2787              		.thumb_func
 2788              		.fpu fpv4-sp-d16
 2790              	WidgetUI_SetButton_OprLabel:
 2791              	.LVL257:
 2792              	.LFB63:
1541:Dsp/widget/wgt_core/widget_mng.c **** 
1542:Dsp/widget/wgt_core/widget_mng.c **** static UI_Button_Handle WidgetUI_Creat_Button(char *label, int16_t x, int16_t y, uint8_t width, uin
1543:Dsp/widget/wgt_core/widget_mng.c **** {
1544:Dsp/widget/wgt_core/widget_mng.c ****     UI_ButtonObj_TypeDef *btn = NULL;
1545:Dsp/widget/wgt_core/widget_mng.c **** 
1546:Dsp/widget/wgt_core/widget_mng.c ****     btn = (UI_ButtonObj_TypeDef *)MMU_Malloc(sizeof(UI_ButtonObj_TypeDef));
1547:Dsp/widget/wgt_core/widget_mng.c **** 
1548:Dsp/widget/wgt_core/widget_mng.c ****     if ((btn == NULL) ||
1549:Dsp/widget/wgt_core/widget_mng.c ****         (!WidgetUIList_InsertItem(btn, UI_Type_Button)) ||
1550:Dsp/widget/wgt_core/widget_mng.c ****         (!UI_Button.init(btn, label, x, y + UI_Get_FontType(), width, height, type, state)))
1551:Dsp/widget/wgt_core/widget_mng.c ****         return NULL;
1552:Dsp/widget/wgt_core/widget_mng.c **** 
1553:Dsp/widget/wgt_core/widget_mng.c ****     return (UI_Button_Handle)btn;
1554:Dsp/widget/wgt_core/widget_mng.c **** }
1555:Dsp/widget/wgt_core/widget_mng.c **** 
1556:Dsp/widget/wgt_core/widget_mng.c **** static bool WidgetUI_SetButton_OprLabel(UI_Button_Handle Btn_Hdl, char *psh_lbl, char *rls_lbl)
1557:Dsp/widget/wgt_core/widget_mng.c **** {
 2793              		.loc 1 1557 1 is_stmt 1 view -0
 2794              		.cfi_startproc
 2795              		@ args = 0, pretend = 0, frame = 0
 2796              		@ frame_needed = 0, uses_anonymous_args = 0
1558:Dsp/widget/wgt_core/widget_mng.c ****     if (Btn_Hdl == 0 ||
 2797              		.loc 1 1558 5 view .LVU623
 2798              		.loc 1 1558 8 is_stmt 0 view .LVU624
 2799 0000 88B1     		cbz	r0, .L201
1557:Dsp/widget/wgt_core/widget_mng.c ****     if (Btn_Hdl == 0 ||
 2800              		.loc 1 1557 1 discriminator 1 view .LVU625
 2801 0002 38B5     		push	{r3, r4, r5, lr}
 2802              	.LCFI58:
 2803              		.cfi_def_cfa_offset 16
 2804              		.cfi_offset 3, -16
 2805              		.cfi_offset 4, -12
 2806              		.cfi_offset 5, -8
 2807              		.cfi_offset 14, -4
 2808 0004 1546     		mov	r5, r2
 2809 0006 0446     		mov	r4, r0
1559:Dsp/widget/wgt_core/widget_mng.c ****         !UI_Button.set_label(HandleToButtonObj(Btn_Hdl), UI_Btn_PushDwn, psh_lbl) ||
 2810              		.loc 1 1559 19 discriminator 1 view .LVU626
 2811 0008 084B     		ldr	r3, .L205
ARM GAS  /var/folders/lx/hc4sn_b53233_zkc9xbbl97r0000gp/T//cc1nXFCr.s 			page 80


 2812 000a 9B68     		ldr	r3, [r3, #8]
 2813              		.loc 1 1559 10 discriminator 1 view .LVU627
 2814 000c 0A46     		mov	r2, r1
 2815              	.LVL258:
 2816              		.loc 1 1559 10 discriminator 1 view .LVU628
 2817 000e 0121     		movs	r1, #1
 2818              	.LVL259:
 2819              		.loc 1 1559 10 discriminator 1 view .LVU629
 2820 0010 9847     		blx	r3
 2821              	.LVL260:
1558:Dsp/widget/wgt_core/widget_mng.c ****     if (Btn_Hdl == 0 ||
 2822              		.loc 1 1558 22 discriminator 1 view .LVU630
 2823 0012 30B1     		cbz	r0, .L198
1560:Dsp/widget/wgt_core/widget_mng.c ****         !UI_Button.set_label(HandleToButtonObj(Btn_Hdl), UI_Btn_RlsUp, rls_lbl))
 2824              		.loc 1 1560 19 view .LVU631
 2825 0014 054B     		ldr	r3, .L205
 2826 0016 9B68     		ldr	r3, [r3, #8]
 2827              		.loc 1 1560 10 view .LVU632
